
/home/dev/github/clones/riscv-arch-test/work/rv32i-core/elfs/rv32i/I/I-add-00.elf:     file format elf32-littleriscv
/home/dev/github/clones/riscv-arch-test/work/rv32i-core/elfs/rv32i/I/I-add-00.elf
architecture: riscv:rv32, flags 0x00000112:
EXEC_P, HAS_SYMS, D_PAGED
start address 0x00000000

Program Header:
0x70000003 off    0x0001f240 vaddr 0x00000000 paddr 0x00000000 align 2**0
         filesz 0x00000033 memsz 0x00000000 flags r--
    LOAD off    0x00001000 vaddr 0x00000000 paddr 0x00000000 align 2**12
         filesz 0x00005f40 memsz 0x00005f40 flags r-x
    LOAD off    0x00007000 vaddr 0x00008000 paddr 0x00008000 align 2**12
         filesz 0x00018240 memsz 0x00018240 flags rwx

Sections:
Idx Name          Size      VMA       LMA       File off  Algn
  0 .text.init    00000040  00000000  00000000  00001000  2**5
                  CONTENTS, ALLOC, LOAD, READONLY, CODE
  1 .text.rvtest  00005f00  00000040  00000040  00001040  2**5
                  CONTENTS, ALLOC, LOAD, READONLY, CODE
  2 .data         00017d70  00008000  00008000  00007000  2**8
                  CONTENTS, ALLOC, LOAD, DATA
  3 .text.rvmodel 00000240  00020000  00020000  0001f000  2**5
                  CONTENTS, ALLOC, LOAD, READONLY, CODE
  4 .riscv.attributes 00000033  00000000  00000000  0001f240  2**0
                  CONTENTS, READONLY
  5 .debug_line   00002658  00000000  00000000  0001f273  2**0
                  CONTENTS, READONLY, DEBUGGING, OCTETS
  6 .debug_line_str 00000069  00000000  00000000  000218cb  2**0
                  CONTENTS, READONLY, DEBUGGING, OCTETS
  7 .debug_info   00000023  00000000  00000000  00021934  2**0
                  CONTENTS, READONLY, DEBUGGING, OCTETS
  8 .debug_abbrev 00000012  00000000  00000000  00021957  2**0
                  CONTENTS, READONLY, DEBUGGING, OCTETS
  9 .debug_aranges 00000028  00000000  00000000  00021970  2**3
                  CONTENTS, READONLY, DEBUGGING, OCTETS
 10 .debug_str    00000075  00000000  00000000  00021998  2**0
                  CONTENTS, READONLY, DEBUGGING, OCTETS
 11 .debug_rnglists 0000001b  00000000  00000000  00021a0d  2**0
                  CONTENTS, READONLY, DEBUGGING, OCTETS
SYMBOL TABLE:
00000000 l    d  .text.init	00000000 .text.init
00000040 l    d  .text.rvtest	00000000 .text.rvtest
00008000 l    d  .data	00000000 .data
00020000 l    d  .text.rvmodel	00000000 .text.rvmodel
00000000 l    d  .riscv.attributes	00000000 .riscv.attributes
00000000 l    d  .debug_line	00000000 .debug_line
00000000 l    d  .debug_line_str	00000000 .debug_line_str
00000000 l    d  .debug_info	00000000 .debug_info
00000000 l    d  .debug_abbrev	00000000 .debug_abbrev
00000000 l    d  .debug_aranges	00000000 .debug_aranges
00000000 l    d  .debug_str	00000000 .debug_str
00000000 l    d  .debug_rnglists	00000000 .debug_rnglists
00000000 l    df *ABS*	00000000 ccVo60BA.o
00000003 l       *ABS*	00000000 MMODE_SIG
00000001 l       *ABS*	00000000 SMODE_SIG
00000001 l       *ABS*	00000000 HMODE_SIG
00000002 l       *ABS*	00000000 VMODE_SIG
00020000 l       .text.rvmodel	00000000 rvmodel_boot
00000050 l       .text.rvtest	00000000 I_add_cg_cp_rs1_b0
000044bc l       .text.rvtest	00000000 failedtest_x5_x4
00008d50 l       .data	00000000 I_add_cg_cp_rs1_b0_str
0000007c l       .text.rvtest	00000000 I_add_cg_cp_rs1_b1
00008d7d l       .data	00000000 I_add_cg_cp_rs1_b1_str
000000ac l       .text.rvtest	00000000 I_add_cg_cp_rs1_b2
00008daa l       .data	00000000 I_add_cg_cp_rs1_b2_str
000000dc l       .text.rvtest	00000000 I_add_cg_cp_rs1_b3
00008dd7 l       .data	00000000 I_add_cg_cp_rs1_b3_str
00000110 l       .text.rvtest	00000000 I_add_cg_cp_rs1_b4
000044fc l       .text.rvtest	00000000 failedtest_x14_x13
00008e04 l       .data	00000000 I_add_cg_cp_rs1_b4_str
0000013c l       .text.rvtest	00000000 I_add_cg_cp_rs1_b5
00008e31 l       .data	00000000 I_add_cg_cp_rs1_b5_str
00000168 l       .text.rvtest	00000000 I_add_cg_cp_rs1_b6
00008e5e l       .data	00000000 I_add_cg_cp_rs1_b6_str
00000194 l       .text.rvtest	00000000 I_add_cg_cp_rs1_b7
00008e8b l       .data	00000000 I_add_cg_cp_rs1_b7_str
000001c0 l       .text.rvtest	00000000 I_add_cg_cp_rs1_b8
00008eb8 l       .data	00000000 I_add_cg_cp_rs1_b8_str
000001ec l       .text.rvtest	00000000 I_add_cg_cp_rs1_b9
00008ee5 l       .data	00000000 I_add_cg_cp_rs1_b9_str
00000218 l       .text.rvtest	00000000 I_add_cg_cp_rs1_b10
00008f13 l       .data	00000000 I_add_cg_cp_rs1_b10_str
00000248 l       .text.rvtest	00000000 I_add_cg_cp_rs1_b11
00008f42 l       .data	00000000 I_add_cg_cp_rs1_b11_str
00000274 l       .text.rvtest	00000000 I_add_cg_cp_rs1_b12
00008f71 l       .data	00000000 I_add_cg_cp_rs1_b12_str
000002a8 l       .text.rvtest	00000000 I_add_cg_cp_rs1_b13
00008fa0 l       .data	00000000 I_add_cg_cp_rs1_b13_str
000002d4 l       .text.rvtest	00000000 I_add_cg_cp_rs1_b14
00008fcf l       .data	00000000 I_add_cg_cp_rs1_b14_str
00000300 l       .text.rvtest	00000000 I_add_cg_cp_rs1_b15
00008ffe l       .data	00000000 I_add_cg_cp_rs1_b15_str
0000032c l       .text.rvtest	00000000 I_add_cg_cp_rs1_b16
0000902d l       .data	00000000 I_add_cg_cp_rs1_b16_str
00000358 l       .text.rvtest	00000000 I_add_cg_cp_rs1_b17
0000905c l       .data	00000000 I_add_cg_cp_rs1_b17_str
00000384 l       .text.rvtest	00000000 I_add_cg_cp_rs1_b18
0000908b l       .data	00000000 I_add_cg_cp_rs1_b18_str
000003b0 l       .text.rvtest	00000000 I_add_cg_cp_rs1_b19
000090ba l       .data	00000000 I_add_cg_cp_rs1_b19_str
000003e0 l       .text.rvtest	00000000 I_add_cg_cp_rs1_b20
000090e9 l       .data	00000000 I_add_cg_cp_rs1_b20_str
0000040c l       .text.rvtest	00000000 I_add_cg_cp_rs1_b21
00009118 l       .data	00000000 I_add_cg_cp_rs1_b21_str
00000438 l       .text.rvtest	00000000 I_add_cg_cp_rs1_b22
00009147 l       .data	00000000 I_add_cg_cp_rs1_b22_str
00000464 l       .text.rvtest	00000000 I_add_cg_cp_rs1_b23
00009176 l       .data	00000000 I_add_cg_cp_rs1_b23_str
00000490 l       .text.rvtest	00000000 I_add_cg_cp_rs1_b24
000091a5 l       .data	00000000 I_add_cg_cp_rs1_b24_str
000004bc l       .text.rvtest	00000000 I_add_cg_cp_rs1_b25
000091d4 l       .data	00000000 I_add_cg_cp_rs1_b25_str
000004e8 l       .text.rvtest	00000000 I_add_cg_cp_rs1_b26
00009203 l       .data	00000000 I_add_cg_cp_rs1_b26_str
00000518 l       .text.rvtest	00000000 I_add_cg_cp_rs1_b27
00009232 l       .data	00000000 I_add_cg_cp_rs1_b27_str
00000544 l       .text.rvtest	00000000 I_add_cg_cp_rs1_b28
00009261 l       .data	00000000 I_add_cg_cp_rs1_b28_str
00000570 l       .text.rvtest	00000000 I_add_cg_cp_rs1_b29
00009290 l       .data	00000000 I_add_cg_cp_rs1_b29_str
000005a0 l       .text.rvtest	00000000 I_add_cg_cp_rs1_b30
000092bf l       .data	00000000 I_add_cg_cp_rs1_b30_str
000005d0 l       .text.rvtest	00000000 I_add_cg_cp_rs1_b31
000092ee l       .data	00000000 I_add_cg_cp_rs1_b31_str
000005fc l       .text.rvtest	00000000 I_add_cg_cp_rs2_b0
0000931d l       .data	00000000 I_add_cg_cp_rs2_b0_str
0000062c l       .text.rvtest	00000000 I_add_cg_cp_rs2_b1
0000934b l       .data	00000000 I_add_cg_cp_rs2_b1_str
00000658 l       .text.rvtest	00000000 I_add_cg_cp_rs2_b2
00009379 l       .data	00000000 I_add_cg_cp_rs2_b2_str
00000684 l       .text.rvtest	00000000 I_add_cg_cp_rs2_b3
000093a7 l       .data	00000000 I_add_cg_cp_rs2_b3_str
000006b8 l       .text.rvtest	00000000 I_add_cg_cp_rs2_b4
000093d5 l       .data	00000000 I_add_cg_cp_rs2_b4_str
000006e4 l       .text.rvtest	00000000 I_add_cg_cp_rs2_b5
00009403 l       .data	00000000 I_add_cg_cp_rs2_b5_str
00000710 l       .text.rvtest	00000000 I_add_cg_cp_rs2_b6
00009431 l       .data	00000000 I_add_cg_cp_rs2_b6_str
0000073c l       .text.rvtest	00000000 I_add_cg_cp_rs2_b7
0000945f l       .data	00000000 I_add_cg_cp_rs2_b7_str
00000768 l       .text.rvtest	00000000 I_add_cg_cp_rs2_b8
0000948d l       .data	00000000 I_add_cg_cp_rs2_b8_str
00000794 l       .text.rvtest	00000000 I_add_cg_cp_rs2_b9
000094bb l       .data	00000000 I_add_cg_cp_rs2_b9_str
000007c0 l       .text.rvtest	00000000 I_add_cg_cp_rs2_b10
000094e9 l       .data	00000000 I_add_cg_cp_rs2_b10_str
000007f0 l       .text.rvtest	00000000 I_add_cg_cp_rs2_b11
00009518 l       .data	00000000 I_add_cg_cp_rs2_b11_str
0000081c l       .text.rvtest	00000000 I_add_cg_cp_rs2_b12
00009547 l       .data	00000000 I_add_cg_cp_rs2_b12_str
00000850 l       .text.rvtest	00000000 I_add_cg_cp_rs2_b13
000044d4 l       .text.rvtest	00000000 failedtest_x8_x7
00009576 l       .data	00000000 I_add_cg_cp_rs2_b13_str
0000087c l       .text.rvtest	00000000 I_add_cg_cp_rs2_b14
000095a5 l       .data	00000000 I_add_cg_cp_rs2_b14_str
000008a8 l       .text.rvtest	00000000 I_add_cg_cp_rs2_b15
000095d4 l       .data	00000000 I_add_cg_cp_rs2_b15_str
000008d4 l       .text.rvtest	00000000 I_add_cg_cp_rs2_b16
00009603 l       .data	00000000 I_add_cg_cp_rs2_b16_str
00000900 l       .text.rvtest	00000000 I_add_cg_cp_rs2_b17
00009632 l       .data	00000000 I_add_cg_cp_rs2_b17_str
0000092c l       .text.rvtest	00000000 I_add_cg_cp_rs2_b18
00009661 l       .data	00000000 I_add_cg_cp_rs2_b18_str
00000958 l       .text.rvtest	00000000 I_add_cg_cp_rs2_b19
00009690 l       .data	00000000 I_add_cg_cp_rs2_b19_str
00000984 l       .text.rvtest	00000000 I_add_cg_cp_rs2_b20
000096bf l       .data	00000000 I_add_cg_cp_rs2_b20_str
000009b4 l       .text.rvtest	00000000 I_add_cg_cp_rs2_b21
000096ee l       .data	00000000 I_add_cg_cp_rs2_b21_str
000009e0 l       .text.rvtest	00000000 I_add_cg_cp_rs2_b22
0000971d l       .data	00000000 I_add_cg_cp_rs2_b22_str
00000a0c l       .text.rvtest	00000000 I_add_cg_cp_rs2_b23
0000974c l       .data	00000000 I_add_cg_cp_rs2_b23_str
00000a38 l       .text.rvtest	00000000 I_add_cg_cp_rs2_b24
0000977b l       .data	00000000 I_add_cg_cp_rs2_b24_str
00000a64 l       .text.rvtest	00000000 I_add_cg_cp_rs2_b25
000097aa l       .data	00000000 I_add_cg_cp_rs2_b25_str
00000a90 l       .text.rvtest	00000000 I_add_cg_cp_rs2_b26
000097d9 l       .data	00000000 I_add_cg_cp_rs2_b26_str
00000abc l       .text.rvtest	00000000 I_add_cg_cp_rs2_b27
00009808 l       .data	00000000 I_add_cg_cp_rs2_b27_str
00000ae8 l       .text.rvtest	00000000 I_add_cg_cp_rs2_b28
00009837 l       .data	00000000 I_add_cg_cp_rs2_b28_str
00000b14 l       .text.rvtest	00000000 I_add_cg_cp_rs2_b29
00009866 l       .data	00000000 I_add_cg_cp_rs2_b29_str
00000b40 l       .text.rvtest	00000000 I_add_cg_cp_rs2_b30
00009895 l       .data	00000000 I_add_cg_cp_rs2_b30_str
00000b6c l       .text.rvtest	00000000 I_add_cg_cp_rs2_b31
000098c4 l       .data	00000000 I_add_cg_cp_rs2_b31_str
00000b98 l       .text.rvtest	00000000 I_add_cg_cp_rd_b0
000098f3 l       .data	00000000 I_add_cg_cp_rd_b0_str
00000bc4 l       .text.rvtest	00000000 I_add_cg_cp_rd_b1
00009920 l       .data	00000000 I_add_cg_cp_rd_b1_str
00000bf0 l       .text.rvtest	00000000 I_add_cg_cp_rd_b2
0000994d l       .data	00000000 I_add_cg_cp_rd_b2_str
00000c1c l       .text.rvtest	00000000 I_add_cg_cp_rd_b3
0000997a l       .data	00000000 I_add_cg_cp_rd_b3_str
00000c48 l       .text.rvtest	00000000 I_add_cg_cp_rd_b4
000099a7 l       .data	00000000 I_add_cg_cp_rd_b4_str
00000c74 l       .text.rvtest	00000000 I_add_cg_cp_rd_b5
000099d4 l       .data	00000000 I_add_cg_cp_rd_b5_str
00000ca0 l       .text.rvtest	00000000 I_add_cg_cp_rd_b6
00009a01 l       .data	00000000 I_add_cg_cp_rd_b6_str
00000cd4 l       .text.rvtest	00000000 I_add_cg_cp_rd_b7
00009a2e l       .data	00000000 I_add_cg_cp_rd_b7_str
00000d00 l       .text.rvtest	00000000 I_add_cg_cp_rd_b8
00009a5b l       .data	00000000 I_add_cg_cp_rd_b8_str
00000d2c l       .text.rvtest	00000000 I_add_cg_cp_rd_b9
00009a88 l       .data	00000000 I_add_cg_cp_rd_b9_str
00000d5c l       .text.rvtest	00000000 I_add_cg_cp_rd_b10
00009ab5 l       .data	00000000 I_add_cg_cp_rd_b10_str
00000d88 l       .text.rvtest	00000000 I_add_cg_cp_rd_b11
00009ae3 l       .data	00000000 I_add_cg_cp_rd_b11_str
00000db8 l       .text.rvtest	00000000 I_add_cg_cp_rd_b12
00009b11 l       .data	00000000 I_add_cg_cp_rd_b12_str
00000de4 l       .text.rvtest	00000000 I_add_cg_cp_rd_b13
00009b3f l       .data	00000000 I_add_cg_cp_rd_b13_str
00000e10 l       .text.rvtest	00000000 I_add_cg_cp_rd_b14
00009b6d l       .data	00000000 I_add_cg_cp_rd_b14_str
00000e40 l       .text.rvtest	00000000 I_add_cg_cp_rd_b15
00009b9b l       .data	00000000 I_add_cg_cp_rd_b15_str
00000e6c l       .text.rvtest	00000000 I_add_cg_cp_rd_b16
00009bc9 l       .data	00000000 I_add_cg_cp_rd_b16_str
00000e98 l       .text.rvtest	00000000 I_add_cg_cp_rd_b17
00009bf7 l       .data	00000000 I_add_cg_cp_rd_b17_str
00000ec4 l       .text.rvtest	00000000 I_add_cg_cp_rd_b18
00009c25 l       .data	00000000 I_add_cg_cp_rd_b18_str
00000ef0 l       .text.rvtest	00000000 I_add_cg_cp_rd_b19
00009c53 l       .data	00000000 I_add_cg_cp_rd_b19_str
00000f1c l       .text.rvtest	00000000 I_add_cg_cp_rd_b20
00009c81 l       .data	00000000 I_add_cg_cp_rd_b20_str
00000f48 l       .text.rvtest	00000000 I_add_cg_cp_rd_b21
00009caf l       .data	00000000 I_add_cg_cp_rd_b21_str
00000f74 l       .text.rvtest	00000000 I_add_cg_cp_rd_b22
00009cdd l       .data	00000000 I_add_cg_cp_rd_b22_str
00000fa0 l       .text.rvtest	00000000 I_add_cg_cp_rd_b23
00009d0b l       .data	00000000 I_add_cg_cp_rd_b23_str
00000fcc l       .text.rvtest	00000000 I_add_cg_cp_rd_b24
00009d39 l       .data	00000000 I_add_cg_cp_rd_b24_str
00000ff8 l       .text.rvtest	00000000 I_add_cg_cp_rd_b25
00009d67 l       .data	00000000 I_add_cg_cp_rd_b25_str
00001024 l       .text.rvtest	00000000 I_add_cg_cp_rd_b26
00009d95 l       .data	00000000 I_add_cg_cp_rd_b26_str
00001054 l       .text.rvtest	00000000 I_add_cg_cp_rd_b27
00009dc3 l       .data	00000000 I_add_cg_cp_rd_b27_str
00001080 l       .text.rvtest	00000000 I_add_cg_cp_rd_b28
00009df1 l       .data	00000000 I_add_cg_cp_rd_b28_str
000010ac l       .text.rvtest	00000000 I_add_cg_cp_rd_b29
00009e1f l       .data	00000000 I_add_cg_cp_rd_b29_str
000010d8 l       .text.rvtest	00000000 I_add_cg_cp_rd_b30
00009e4d l       .data	00000000 I_add_cg_cp_rd_b30_str
00001104 l       .text.rvtest	00000000 I_add_cg_cp_rd_b31
00009e7b l       .data	00000000 I_add_cg_cp_rd_b31_str
00001130 l       .text.rvtest	00000000 I_add_cg_cp_rs1_edges_0x0
00009ea9 l       .data	00000000 I_add_cg_cp_rs1_edges_0x0_str
0000115c l       .text.rvtest	00000000 I_add_cg_cp_rs1_edges_0x1
00009ede l       .data	00000000 I_add_cg_cp_rs1_edges_0x1_str
00001188 l       .text.rvtest	00000000 I_add_cg_cp_rs1_edges_0x2
00009f13 l       .data	00000000 I_add_cg_cp_rs1_edges_0x2_str
000011b4 l       .text.rvtest	00000000 I_add_cg_cp_rs1_edges_0x80000000
00009f48 l       .data	00000000 I_add_cg_cp_rs1_edges_0x80000000_str
000011e0 l       .text.rvtest	00000000 I_add_cg_cp_rs1_edges_0x80000001
00009f85 l       .data	00000000 I_add_cg_cp_rs1_edges_0x80000001_str
0000120c l       .text.rvtest	00000000 I_add_cg_cp_rs1_edges_0x7fffffff
00009fc2 l       .data	00000000 I_add_cg_cp_rs1_edges_0x7fffffff_str
00001238 l       .text.rvtest	00000000 I_add_cg_cp_rs1_edges_0x7ffffffe
00009fff l       .data	00000000 I_add_cg_cp_rs1_edges_0x7ffffffe_str
00001264 l       .text.rvtest	00000000 I_add_cg_cp_rs1_edges_0xffffffff
0000a03c l       .data	00000000 I_add_cg_cp_rs1_edges_0xffffffff_str
00001290 l       .text.rvtest	00000000 I_add_cg_cp_rs1_edges_0xfffffffe
0000a079 l       .data	00000000 I_add_cg_cp_rs1_edges_0xfffffffe_str
000012bc l       .text.rvtest	00000000 I_add_cg_cp_rs1_edges_0x5bbc8872
0000a0b6 l       .data	00000000 I_add_cg_cp_rs1_edges_0x5bbc8872_str
000012e8 l       .text.rvtest	00000000 I_add_cg_cp_rs1_edges_0xaaaaaaaa
0000a0f3 l       .data	00000000 I_add_cg_cp_rs1_edges_0xaaaaaaaa_str
00001314 l       .text.rvtest	00000000 I_add_cg_cp_rs1_edges_0x55555555
0000a130 l       .data	00000000 I_add_cg_cp_rs1_edges_0x55555555_str
00001340 l       .text.rvtest	00000000 I_add_cg_cp_rs2_edges_0x0
0000a16d l       .data	00000000 I_add_cg_cp_rs2_edges_0x0_str
0000136c l       .text.rvtest	00000000 I_add_cg_cp_rs2_edges_0x1
0000a1a3 l       .data	00000000 I_add_cg_cp_rs2_edges_0x1_str
00001398 l       .text.rvtest	00000000 I_add_cg_cp_rs2_edges_0x2
0000a1d9 l       .data	00000000 I_add_cg_cp_rs2_edges_0x2_str
000013c4 l       .text.rvtest	00000000 I_add_cg_cp_rs2_edges_0x80000000
0000a20f l       .data	00000000 I_add_cg_cp_rs2_edges_0x80000000_str
000013f0 l       .text.rvtest	00000000 I_add_cg_cp_rs2_edges_0x80000001
0000a24c l       .data	00000000 I_add_cg_cp_rs2_edges_0x80000001_str
0000141c l       .text.rvtest	00000000 I_add_cg_cp_rs2_edges_0x7fffffff
0000a289 l       .data	00000000 I_add_cg_cp_rs2_edges_0x7fffffff_str
00001448 l       .text.rvtest	00000000 I_add_cg_cp_rs2_edges_0x7ffffffe
0000a2c6 l       .data	00000000 I_add_cg_cp_rs2_edges_0x7ffffffe_str
00001474 l       .text.rvtest	00000000 I_add_cg_cp_rs2_edges_0xffffffff
0000a303 l       .data	00000000 I_add_cg_cp_rs2_edges_0xffffffff_str
000014a0 l       .text.rvtest	00000000 I_add_cg_cp_rs2_edges_0xfffffffe
0000a340 l       .data	00000000 I_add_cg_cp_rs2_edges_0xfffffffe_str
000014cc l       .text.rvtest	00000000 I_add_cg_cp_rs2_edges_0x5bbc8872
0000a37d l       .data	00000000 I_add_cg_cp_rs2_edges_0x5bbc8872_str
000014f8 l       .text.rvtest	00000000 I_add_cg_cp_rs2_edges_0xaaaaaaaa
0000a3ba l       .data	00000000 I_add_cg_cp_rs2_edges_0xaaaaaaaa_str
00001524 l       .text.rvtest	00000000 I_add_cg_cp_rs2_edges_0x55555555
0000a3f7 l       .data	00000000 I_add_cg_cp_rs2_edges_0x55555555_str
00001550 l       .text.rvtest	00000000 I_add_cg_cr_rs1_rs2_edges_rs1val_0x0_rs2val_0x0
0000a434 l       .data	00000000 I_add_cg_cr_rs1_rs2_edges_rs1val_0x0_rs2val_0x0_str
0000157c l       .text.rvtest	00000000 I_add_cg_cr_rs1_rs2_edges_rs1val_0x0_rs2val_0x1
0000a481 l       .data	00000000 I_add_cg_cr_rs1_rs2_edges_rs1val_0x0_rs2val_0x1_str
000015a8 l       .text.rvtest	00000000 I_add_cg_cr_rs1_rs2_edges_rs1val_0x0_rs2val_0x2
0000a4ce l       .data	00000000 I_add_cg_cr_rs1_rs2_edges_rs1val_0x0_rs2val_0x2_str
000015d4 l       .text.rvtest	00000000 I_add_cg_cr_rs1_rs2_edges_rs1val_0x0_rs2val_0x80000000
0000a51b l       .data	00000000 I_add_cg_cr_rs1_rs2_edges_rs1val_0x0_rs2val_0x80000000_str
00001600 l       .text.rvtest	00000000 I_add_cg_cr_rs1_rs2_edges_rs1val_0x0_rs2val_0x80000001
0000a56f l       .data	00000000 I_add_cg_cr_rs1_rs2_edges_rs1val_0x0_rs2val_0x80000001_str
0000162c l       .text.rvtest	00000000 I_add_cg_cr_rs1_rs2_edges_rs1val_0x0_rs2val_0x7fffffff
0000a5c3 l       .data	00000000 I_add_cg_cr_rs1_rs2_edges_rs1val_0x0_rs2val_0x7fffffff_str
00001658 l       .text.rvtest	00000000 I_add_cg_cr_rs1_rs2_edges_rs1val_0x0_rs2val_0x7ffffffe
0000a617 l       .data	00000000 I_add_cg_cr_rs1_rs2_edges_rs1val_0x0_rs2val_0x7ffffffe_str
00001684 l       .text.rvtest	00000000 I_add_cg_cr_rs1_rs2_edges_rs1val_0x0_rs2val_0xffffffff
0000a66b l       .data	00000000 I_add_cg_cr_rs1_rs2_edges_rs1val_0x0_rs2val_0xffffffff_str
000016b0 l       .text.rvtest	00000000 I_add_cg_cr_rs1_rs2_edges_rs1val_0x0_rs2val_0xfffffffe
0000a6bf l       .data	00000000 I_add_cg_cr_rs1_rs2_edges_rs1val_0x0_rs2val_0xfffffffe_str
000016dc l       .text.rvtest	00000000 I_add_cg_cr_rs1_rs2_edges_rs1val_0x0_rs2val_0x5bbc8872
0000a713 l       .data	00000000 I_add_cg_cr_rs1_rs2_edges_rs1val_0x0_rs2val_0x5bbc8872_str
00001708 l       .text.rvtest	00000000 I_add_cg_cr_rs1_rs2_edges_rs1val_0x0_rs2val_0xaaaaaaaa
0000a767 l       .data	00000000 I_add_cg_cr_rs1_rs2_edges_rs1val_0x0_rs2val_0xaaaaaaaa_str
00001734 l       .text.rvtest	00000000 I_add_cg_cr_rs1_rs2_edges_rs1val_0x0_rs2val_0x55555555
0000a7bb l       .data	00000000 I_add_cg_cr_rs1_rs2_edges_rs1val_0x0_rs2val_0x55555555_str
00001760 l       .text.rvtest	00000000 I_add_cg_cr_rs1_rs2_edges_rs1val_0x1_rs2val_0x0
0000a80f l       .data	00000000 I_add_cg_cr_rs1_rs2_edges_rs1val_0x1_rs2val_0x0_str
0000178c l       .text.rvtest	00000000 I_add_cg_cr_rs1_rs2_edges_rs1val_0x1_rs2val_0x1
0000a85c l       .data	00000000 I_add_cg_cr_rs1_rs2_edges_rs1val_0x1_rs2val_0x1_str
000017b8 l       .text.rvtest	00000000 I_add_cg_cr_rs1_rs2_edges_rs1val_0x1_rs2val_0x2
0000a8a9 l       .data	00000000 I_add_cg_cr_rs1_rs2_edges_rs1val_0x1_rs2val_0x2_str
000017e4 l       .text.rvtest	00000000 I_add_cg_cr_rs1_rs2_edges_rs1val_0x1_rs2val_0x80000000
0000a8f6 l       .data	00000000 I_add_cg_cr_rs1_rs2_edges_rs1val_0x1_rs2val_0x80000000_str
00001810 l       .text.rvtest	00000000 I_add_cg_cr_rs1_rs2_edges_rs1val_0x1_rs2val_0x80000001
0000a94a l       .data	00000000 I_add_cg_cr_rs1_rs2_edges_rs1val_0x1_rs2val_0x80000001_str
0000183c l       .text.rvtest	00000000 I_add_cg_cr_rs1_rs2_edges_rs1val_0x1_rs2val_0x7fffffff
0000a99e l       .data	00000000 I_add_cg_cr_rs1_rs2_edges_rs1val_0x1_rs2val_0x7fffffff_str
00001868 l       .text.rvtest	00000000 I_add_cg_cr_rs1_rs2_edges_rs1val_0x1_rs2val_0x7ffffffe
0000a9f2 l       .data	00000000 I_add_cg_cr_rs1_rs2_edges_rs1val_0x1_rs2val_0x7ffffffe_str
00001894 l       .text.rvtest	00000000 I_add_cg_cr_rs1_rs2_edges_rs1val_0x1_rs2val_0xffffffff
0000aa46 l       .data	00000000 I_add_cg_cr_rs1_rs2_edges_rs1val_0x1_rs2val_0xffffffff_str
000018c0 l       .text.rvtest	00000000 I_add_cg_cr_rs1_rs2_edges_rs1val_0x1_rs2val_0xfffffffe
0000aa9a l       .data	00000000 I_add_cg_cr_rs1_rs2_edges_rs1val_0x1_rs2val_0xfffffffe_str
000018ec l       .text.rvtest	00000000 I_add_cg_cr_rs1_rs2_edges_rs1val_0x1_rs2val_0x5bbc8872
0000aaee l       .data	00000000 I_add_cg_cr_rs1_rs2_edges_rs1val_0x1_rs2val_0x5bbc8872_str
00001918 l       .text.rvtest	00000000 I_add_cg_cr_rs1_rs2_edges_rs1val_0x1_rs2val_0xaaaaaaaa
0000ab42 l       .data	00000000 I_add_cg_cr_rs1_rs2_edges_rs1val_0x1_rs2val_0xaaaaaaaa_str
00001944 l       .text.rvtest	00000000 I_add_cg_cr_rs1_rs2_edges_rs1val_0x1_rs2val_0x55555555
0000ab96 l       .data	00000000 I_add_cg_cr_rs1_rs2_edges_rs1val_0x1_rs2val_0x55555555_str
00001970 l       .text.rvtest	00000000 I_add_cg_cr_rs1_rs2_edges_rs1val_0x2_rs2val_0x0
0000abea l       .data	00000000 I_add_cg_cr_rs1_rs2_edges_rs1val_0x2_rs2val_0x0_str
0000199c l       .text.rvtest	00000000 I_add_cg_cr_rs1_rs2_edges_rs1val_0x2_rs2val_0x1
0000ac37 l       .data	00000000 I_add_cg_cr_rs1_rs2_edges_rs1val_0x2_rs2val_0x1_str
000019c8 l       .text.rvtest	00000000 I_add_cg_cr_rs1_rs2_edges_rs1val_0x2_rs2val_0x2
0000ac84 l       .data	00000000 I_add_cg_cr_rs1_rs2_edges_rs1val_0x2_rs2val_0x2_str
000019f4 l       .text.rvtest	00000000 I_add_cg_cr_rs1_rs2_edges_rs1val_0x2_rs2val_0x80000000
0000acd1 l       .data	00000000 I_add_cg_cr_rs1_rs2_edges_rs1val_0x2_rs2val_0x80000000_str
00001a20 l       .text.rvtest	00000000 I_add_cg_cr_rs1_rs2_edges_rs1val_0x2_rs2val_0x80000001
0000ad25 l       .data	00000000 I_add_cg_cr_rs1_rs2_edges_rs1val_0x2_rs2val_0x80000001_str
00001a4c l       .text.rvtest	00000000 I_add_cg_cr_rs1_rs2_edges_rs1val_0x2_rs2val_0x7fffffff
0000ad79 l       .data	00000000 I_add_cg_cr_rs1_rs2_edges_rs1val_0x2_rs2val_0x7fffffff_str
00001a78 l       .text.rvtest	00000000 I_add_cg_cr_rs1_rs2_edges_rs1val_0x2_rs2val_0x7ffffffe
0000adcd l       .data	00000000 I_add_cg_cr_rs1_rs2_edges_rs1val_0x2_rs2val_0x7ffffffe_str
00001aa4 l       .text.rvtest	00000000 I_add_cg_cr_rs1_rs2_edges_rs1val_0x2_rs2val_0xffffffff
0000ae21 l       .data	00000000 I_add_cg_cr_rs1_rs2_edges_rs1val_0x2_rs2val_0xffffffff_str
00001ad0 l       .text.rvtest	00000000 I_add_cg_cr_rs1_rs2_edges_rs1val_0x2_rs2val_0xfffffffe
0000ae75 l       .data	00000000 I_add_cg_cr_rs1_rs2_edges_rs1val_0x2_rs2val_0xfffffffe_str
00001afc l       .text.rvtest	00000000 I_add_cg_cr_rs1_rs2_edges_rs1val_0x2_rs2val_0x5bbc8872
0000aec9 l       .data	00000000 I_add_cg_cr_rs1_rs2_edges_rs1val_0x2_rs2val_0x5bbc8872_str
00001b28 l       .text.rvtest	00000000 I_add_cg_cr_rs1_rs2_edges_rs1val_0x2_rs2val_0xaaaaaaaa
0000af1d l       .data	00000000 I_add_cg_cr_rs1_rs2_edges_rs1val_0x2_rs2val_0xaaaaaaaa_str
00001b54 l       .text.rvtest	00000000 I_add_cg_cr_rs1_rs2_edges_rs1val_0x2_rs2val_0x55555555
0000af71 l       .data	00000000 I_add_cg_cr_rs1_rs2_edges_rs1val_0x2_rs2val_0x55555555_str
00001b80 l       .text.rvtest	00000000 I_add_cg_cr_rs1_rs2_edges_rs1val_0x80000000_rs2val_0x0
0000afc5 l       .data	00000000 I_add_cg_cr_rs1_rs2_edges_rs1val_0x80000000_rs2val_0x0_str
00001bac l       .text.rvtest	00000000 I_add_cg_cr_rs1_rs2_edges_rs1val_0x80000000_rs2val_0x1
0000b019 l       .data	00000000 I_add_cg_cr_rs1_rs2_edges_rs1val_0x80000000_rs2val_0x1_str
00001bd8 l       .text.rvtest	00000000 I_add_cg_cr_rs1_rs2_edges_rs1val_0x80000000_rs2val_0x2
0000b06d l       .data	00000000 I_add_cg_cr_rs1_rs2_edges_rs1val_0x80000000_rs2val_0x2_str
00001c04 l       .text.rvtest	00000000 I_add_cg_cr_rs1_rs2_edges_rs1val_0x80000000_rs2val_0x80000000
0000b0c1 l       .data	00000000 I_add_cg_cr_rs1_rs2_edges_rs1val_0x80000000_rs2val_0x80000000_str
00001c30 l       .text.rvtest	00000000 I_add_cg_cr_rs1_rs2_edges_rs1val_0x80000000_rs2val_0x80000001
0000b11c l       .data	00000000 I_add_cg_cr_rs1_rs2_edges_rs1val_0x80000000_rs2val_0x80000001_str
00001c5c l       .text.rvtest	00000000 I_add_cg_cr_rs1_rs2_edges_rs1val_0x80000000_rs2val_0x7fffffff
0000b177 l       .data	00000000 I_add_cg_cr_rs1_rs2_edges_rs1val_0x80000000_rs2val_0x7fffffff_str
00001c88 l       .text.rvtest	00000000 I_add_cg_cr_rs1_rs2_edges_rs1val_0x80000000_rs2val_0x7ffffffe
0000b1d2 l       .data	00000000 I_add_cg_cr_rs1_rs2_edges_rs1val_0x80000000_rs2val_0x7ffffffe_str
00001cb4 l       .text.rvtest	00000000 I_add_cg_cr_rs1_rs2_edges_rs1val_0x80000000_rs2val_0xffffffff
0000b22d l       .data	00000000 I_add_cg_cr_rs1_rs2_edges_rs1val_0x80000000_rs2val_0xffffffff_str
00001ce0 l       .text.rvtest	00000000 I_add_cg_cr_rs1_rs2_edges_rs1val_0x80000000_rs2val_0xfffffffe
0000b288 l       .data	00000000 I_add_cg_cr_rs1_rs2_edges_rs1val_0x80000000_rs2val_0xfffffffe_str
00001d0c l       .text.rvtest	00000000 I_add_cg_cr_rs1_rs2_edges_rs1val_0x80000000_rs2val_0x5bbc8872
0000b2e3 l       .data	00000000 I_add_cg_cr_rs1_rs2_edges_rs1val_0x80000000_rs2val_0x5bbc8872_str
00001d38 l       .text.rvtest	00000000 I_add_cg_cr_rs1_rs2_edges_rs1val_0x80000000_rs2val_0xaaaaaaaa
0000b33e l       .data	00000000 I_add_cg_cr_rs1_rs2_edges_rs1val_0x80000000_rs2val_0xaaaaaaaa_str
00001d64 l       .text.rvtest	00000000 I_add_cg_cr_rs1_rs2_edges_rs1val_0x80000000_rs2val_0x55555555
0000b399 l       .data	00000000 I_add_cg_cr_rs1_rs2_edges_rs1val_0x80000000_rs2val_0x55555555_str
00001d90 l       .text.rvtest	00000000 I_add_cg_cr_rs1_rs2_edges_rs1val_0x80000001_rs2val_0x0
0000b3f4 l       .data	00000000 I_add_cg_cr_rs1_rs2_edges_rs1val_0x80000001_rs2val_0x0_str
00001dbc l       .text.rvtest	00000000 I_add_cg_cr_rs1_rs2_edges_rs1val_0x80000001_rs2val_0x1
0000b448 l       .data	00000000 I_add_cg_cr_rs1_rs2_edges_rs1val_0x80000001_rs2val_0x1_str
00001de8 l       .text.rvtest	00000000 I_add_cg_cr_rs1_rs2_edges_rs1val_0x80000001_rs2val_0x2
0000b49c l       .data	00000000 I_add_cg_cr_rs1_rs2_edges_rs1val_0x80000001_rs2val_0x2_str
00001e14 l       .text.rvtest	00000000 I_add_cg_cr_rs1_rs2_edges_rs1val_0x80000001_rs2val_0x80000000
0000b4f0 l       .data	00000000 I_add_cg_cr_rs1_rs2_edges_rs1val_0x80000001_rs2val_0x80000000_str
00001e40 l       .text.rvtest	00000000 I_add_cg_cr_rs1_rs2_edges_rs1val_0x80000001_rs2val_0x80000001
0000b54b l       .data	00000000 I_add_cg_cr_rs1_rs2_edges_rs1val_0x80000001_rs2val_0x80000001_str
00001e6c l       .text.rvtest	00000000 I_add_cg_cr_rs1_rs2_edges_rs1val_0x80000001_rs2val_0x7fffffff
0000b5a6 l       .data	00000000 I_add_cg_cr_rs1_rs2_edges_rs1val_0x80000001_rs2val_0x7fffffff_str
00001e98 l       .text.rvtest	00000000 I_add_cg_cr_rs1_rs2_edges_rs1val_0x80000001_rs2val_0x7ffffffe
0000b601 l       .data	00000000 I_add_cg_cr_rs1_rs2_edges_rs1val_0x80000001_rs2val_0x7ffffffe_str
00001ec4 l       .text.rvtest	00000000 I_add_cg_cr_rs1_rs2_edges_rs1val_0x80000001_rs2val_0xffffffff
0000b65c l       .data	00000000 I_add_cg_cr_rs1_rs2_edges_rs1val_0x80000001_rs2val_0xffffffff_str
00001ef0 l       .text.rvtest	00000000 I_add_cg_cr_rs1_rs2_edges_rs1val_0x80000001_rs2val_0xfffffffe
0000b6b7 l       .data	00000000 I_add_cg_cr_rs1_rs2_edges_rs1val_0x80000001_rs2val_0xfffffffe_str
00001f1c l       .text.rvtest	00000000 I_add_cg_cr_rs1_rs2_edges_rs1val_0x80000001_rs2val_0x5bbc8872
0000b712 l       .data	00000000 I_add_cg_cr_rs1_rs2_edges_rs1val_0x80000001_rs2val_0x5bbc8872_str
00001f48 l       .text.rvtest	00000000 I_add_cg_cr_rs1_rs2_edges_rs1val_0x80000001_rs2val_0xaaaaaaaa
0000b76d l       .data	00000000 I_add_cg_cr_rs1_rs2_edges_rs1val_0x80000001_rs2val_0xaaaaaaaa_str
00001f74 l       .text.rvtest	00000000 I_add_cg_cr_rs1_rs2_edges_rs1val_0x80000001_rs2val_0x55555555
0000b7c8 l       .data	00000000 I_add_cg_cr_rs1_rs2_edges_rs1val_0x80000001_rs2val_0x55555555_str
00001fa0 l       .text.rvtest	00000000 I_add_cg_cr_rs1_rs2_edges_rs1val_0x7fffffff_rs2val_0x0
0000b823 l       .data	00000000 I_add_cg_cr_rs1_rs2_edges_rs1val_0x7fffffff_rs2val_0x0_str
00001fcc l       .text.rvtest	00000000 I_add_cg_cr_rs1_rs2_edges_rs1val_0x7fffffff_rs2val_0x1
0000b877 l       .data	00000000 I_add_cg_cr_rs1_rs2_edges_rs1val_0x7fffffff_rs2val_0x1_str
00001ff8 l       .text.rvtest	00000000 I_add_cg_cr_rs1_rs2_edges_rs1val_0x7fffffff_rs2val_0x2
0000b8cb l       .data	00000000 I_add_cg_cr_rs1_rs2_edges_rs1val_0x7fffffff_rs2val_0x2_str
00002024 l       .text.rvtest	00000000 I_add_cg_cr_rs1_rs2_edges_rs1val_0x7fffffff_rs2val_0x80000000
0000b91f l       .data	00000000 I_add_cg_cr_rs1_rs2_edges_rs1val_0x7fffffff_rs2val_0x80000000_str
00002050 l       .text.rvtest	00000000 I_add_cg_cr_rs1_rs2_edges_rs1val_0x7fffffff_rs2val_0x80000001
0000b97a l       .data	00000000 I_add_cg_cr_rs1_rs2_edges_rs1val_0x7fffffff_rs2val_0x80000001_str
0000207c l       .text.rvtest	00000000 I_add_cg_cr_rs1_rs2_edges_rs1val_0x7fffffff_rs2val_0x7fffffff
0000b9d5 l       .data	00000000 I_add_cg_cr_rs1_rs2_edges_rs1val_0x7fffffff_rs2val_0x7fffffff_str
000020a8 l       .text.rvtest	00000000 I_add_cg_cr_rs1_rs2_edges_rs1val_0x7fffffff_rs2val_0x7ffffffe
0000ba30 l       .data	00000000 I_add_cg_cr_rs1_rs2_edges_rs1val_0x7fffffff_rs2val_0x7ffffffe_str
000020d4 l       .text.rvtest	00000000 I_add_cg_cr_rs1_rs2_edges_rs1val_0x7fffffff_rs2val_0xffffffff
0000ba8b l       .data	00000000 I_add_cg_cr_rs1_rs2_edges_rs1val_0x7fffffff_rs2val_0xffffffff_str
00002100 l       .text.rvtest	00000000 I_add_cg_cr_rs1_rs2_edges_rs1val_0x7fffffff_rs2val_0xfffffffe
0000bae6 l       .data	00000000 I_add_cg_cr_rs1_rs2_edges_rs1val_0x7fffffff_rs2val_0xfffffffe_str
0000212c l       .text.rvtest	00000000 I_add_cg_cr_rs1_rs2_edges_rs1val_0x7fffffff_rs2val_0x5bbc8872
0000bb41 l       .data	00000000 I_add_cg_cr_rs1_rs2_edges_rs1val_0x7fffffff_rs2val_0x5bbc8872_str
00002158 l       .text.rvtest	00000000 I_add_cg_cr_rs1_rs2_edges_rs1val_0x7fffffff_rs2val_0xaaaaaaaa
0000bb9c l       .data	00000000 I_add_cg_cr_rs1_rs2_edges_rs1val_0x7fffffff_rs2val_0xaaaaaaaa_str
00002184 l       .text.rvtest	00000000 I_add_cg_cr_rs1_rs2_edges_rs1val_0x7fffffff_rs2val_0x55555555
0000bbf7 l       .data	00000000 I_add_cg_cr_rs1_rs2_edges_rs1val_0x7fffffff_rs2val_0x55555555_str
000021b0 l       .text.rvtest	00000000 I_add_cg_cr_rs1_rs2_edges_rs1val_0x7ffffffe_rs2val_0x0
0000bc52 l       .data	00000000 I_add_cg_cr_rs1_rs2_edges_rs1val_0x7ffffffe_rs2val_0x0_str
000021dc l       .text.rvtest	00000000 I_add_cg_cr_rs1_rs2_edges_rs1val_0x7ffffffe_rs2val_0x1
0000bca6 l       .data	00000000 I_add_cg_cr_rs1_rs2_edges_rs1val_0x7ffffffe_rs2val_0x1_str
00002208 l       .text.rvtest	00000000 I_add_cg_cr_rs1_rs2_edges_rs1val_0x7ffffffe_rs2val_0x2
0000bcfa l       .data	00000000 I_add_cg_cr_rs1_rs2_edges_rs1val_0x7ffffffe_rs2val_0x2_str
00002234 l       .text.rvtest	00000000 I_add_cg_cr_rs1_rs2_edges_rs1val_0x7ffffffe_rs2val_0x80000000
0000bd4e l       .data	00000000 I_add_cg_cr_rs1_rs2_edges_rs1val_0x7ffffffe_rs2val_0x80000000_str
00002260 l       .text.rvtest	00000000 I_add_cg_cr_rs1_rs2_edges_rs1val_0x7ffffffe_rs2val_0x80000001
0000bda9 l       .data	00000000 I_add_cg_cr_rs1_rs2_edges_rs1val_0x7ffffffe_rs2val_0x80000001_str
0000228c l       .text.rvtest	00000000 I_add_cg_cr_rs1_rs2_edges_rs1val_0x7ffffffe_rs2val_0x7fffffff
0000be04 l       .data	00000000 I_add_cg_cr_rs1_rs2_edges_rs1val_0x7ffffffe_rs2val_0x7fffffff_str
000022b8 l       .text.rvtest	00000000 I_add_cg_cr_rs1_rs2_edges_rs1val_0x7ffffffe_rs2val_0x7ffffffe
0000be5f l       .data	00000000 I_add_cg_cr_rs1_rs2_edges_rs1val_0x7ffffffe_rs2val_0x7ffffffe_str
000022e4 l       .text.rvtest	00000000 I_add_cg_cr_rs1_rs2_edges_rs1val_0x7ffffffe_rs2val_0xffffffff
0000beba l       .data	00000000 I_add_cg_cr_rs1_rs2_edges_rs1val_0x7ffffffe_rs2val_0xffffffff_str
00002310 l       .text.rvtest	00000000 I_add_cg_cr_rs1_rs2_edges_rs1val_0x7ffffffe_rs2val_0xfffffffe
0000bf15 l       .data	00000000 I_add_cg_cr_rs1_rs2_edges_rs1val_0x7ffffffe_rs2val_0xfffffffe_str
0000233c l       .text.rvtest	00000000 I_add_cg_cr_rs1_rs2_edges_rs1val_0x7ffffffe_rs2val_0x5bbc8872
0000bf70 l       .data	00000000 I_add_cg_cr_rs1_rs2_edges_rs1val_0x7ffffffe_rs2val_0x5bbc8872_str
00002368 l       .text.rvtest	00000000 I_add_cg_cr_rs1_rs2_edges_rs1val_0x7ffffffe_rs2val_0xaaaaaaaa
0000bfcb l       .data	00000000 I_add_cg_cr_rs1_rs2_edges_rs1val_0x7ffffffe_rs2val_0xaaaaaaaa_str
00002394 l       .text.rvtest	00000000 I_add_cg_cr_rs1_rs2_edges_rs1val_0x7ffffffe_rs2val_0x55555555
0000c026 l       .data	00000000 I_add_cg_cr_rs1_rs2_edges_rs1val_0x7ffffffe_rs2val_0x55555555_str
000023c0 l       .text.rvtest	00000000 I_add_cg_cr_rs1_rs2_edges_rs1val_0xffffffff_rs2val_0x0
0000c081 l       .data	00000000 I_add_cg_cr_rs1_rs2_edges_rs1val_0xffffffff_rs2val_0x0_str
000023ec l       .text.rvtest	00000000 I_add_cg_cr_rs1_rs2_edges_rs1val_0xffffffff_rs2val_0x1
0000c0d5 l       .data	00000000 I_add_cg_cr_rs1_rs2_edges_rs1val_0xffffffff_rs2val_0x1_str
00002418 l       .text.rvtest	00000000 I_add_cg_cr_rs1_rs2_edges_rs1val_0xffffffff_rs2val_0x2
0000c129 l       .data	00000000 I_add_cg_cr_rs1_rs2_edges_rs1val_0xffffffff_rs2val_0x2_str
00002444 l       .text.rvtest	00000000 I_add_cg_cr_rs1_rs2_edges_rs1val_0xffffffff_rs2val_0x80000000
0000c17d l       .data	00000000 I_add_cg_cr_rs1_rs2_edges_rs1val_0xffffffff_rs2val_0x80000000_str
00002470 l       .text.rvtest	00000000 I_add_cg_cr_rs1_rs2_edges_rs1val_0xffffffff_rs2val_0x80000001
0000c1d8 l       .data	00000000 I_add_cg_cr_rs1_rs2_edges_rs1val_0xffffffff_rs2val_0x80000001_str
0000249c l       .text.rvtest	00000000 I_add_cg_cr_rs1_rs2_edges_rs1val_0xffffffff_rs2val_0x7fffffff
0000c233 l       .data	00000000 I_add_cg_cr_rs1_rs2_edges_rs1val_0xffffffff_rs2val_0x7fffffff_str
000024c8 l       .text.rvtest	00000000 I_add_cg_cr_rs1_rs2_edges_rs1val_0xffffffff_rs2val_0x7ffffffe
0000c28e l       .data	00000000 I_add_cg_cr_rs1_rs2_edges_rs1val_0xffffffff_rs2val_0x7ffffffe_str
000024f4 l       .text.rvtest	00000000 I_add_cg_cr_rs1_rs2_edges_rs1val_0xffffffff_rs2val_0xffffffff
0000c2e9 l       .data	00000000 I_add_cg_cr_rs1_rs2_edges_rs1val_0xffffffff_rs2val_0xffffffff_str
00002520 l       .text.rvtest	00000000 I_add_cg_cr_rs1_rs2_edges_rs1val_0xffffffff_rs2val_0xfffffffe
0000c344 l       .data	00000000 I_add_cg_cr_rs1_rs2_edges_rs1val_0xffffffff_rs2val_0xfffffffe_str
0000254c l       .text.rvtest	00000000 I_add_cg_cr_rs1_rs2_edges_rs1val_0xffffffff_rs2val_0x5bbc8872
0000c39f l       .data	00000000 I_add_cg_cr_rs1_rs2_edges_rs1val_0xffffffff_rs2val_0x5bbc8872_str
00002578 l       .text.rvtest	00000000 I_add_cg_cr_rs1_rs2_edges_rs1val_0xffffffff_rs2val_0xaaaaaaaa
0000c3fa l       .data	00000000 I_add_cg_cr_rs1_rs2_edges_rs1val_0xffffffff_rs2val_0xaaaaaaaa_str
000025a4 l       .text.rvtest	00000000 I_add_cg_cr_rs1_rs2_edges_rs1val_0xffffffff_rs2val_0x55555555
0000c455 l       .data	00000000 I_add_cg_cr_rs1_rs2_edges_rs1val_0xffffffff_rs2val_0x55555555_str
000025d0 l       .text.rvtest	00000000 I_add_cg_cr_rs1_rs2_edges_rs1val_0xfffffffe_rs2val_0x0
0000c4b0 l       .data	00000000 I_add_cg_cr_rs1_rs2_edges_rs1val_0xfffffffe_rs2val_0x0_str
000025fc l       .text.rvtest	00000000 I_add_cg_cr_rs1_rs2_edges_rs1val_0xfffffffe_rs2val_0x1
0000c504 l       .data	00000000 I_add_cg_cr_rs1_rs2_edges_rs1val_0xfffffffe_rs2val_0x1_str
00002628 l       .text.rvtest	00000000 I_add_cg_cr_rs1_rs2_edges_rs1val_0xfffffffe_rs2val_0x2
0000c558 l       .data	00000000 I_add_cg_cr_rs1_rs2_edges_rs1val_0xfffffffe_rs2val_0x2_str
00002654 l       .text.rvtest	00000000 I_add_cg_cr_rs1_rs2_edges_rs1val_0xfffffffe_rs2val_0x80000000
0000c5ac l       .data	00000000 I_add_cg_cr_rs1_rs2_edges_rs1val_0xfffffffe_rs2val_0x80000000_str
00002680 l       .text.rvtest	00000000 I_add_cg_cr_rs1_rs2_edges_rs1val_0xfffffffe_rs2val_0x80000001
0000c607 l       .data	00000000 I_add_cg_cr_rs1_rs2_edges_rs1val_0xfffffffe_rs2val_0x80000001_str
000026ac l       .text.rvtest	00000000 I_add_cg_cr_rs1_rs2_edges_rs1val_0xfffffffe_rs2val_0x7fffffff
0000c662 l       .data	00000000 I_add_cg_cr_rs1_rs2_edges_rs1val_0xfffffffe_rs2val_0x7fffffff_str
000026d8 l       .text.rvtest	00000000 I_add_cg_cr_rs1_rs2_edges_rs1val_0xfffffffe_rs2val_0x7ffffffe
0000c6bd l       .data	00000000 I_add_cg_cr_rs1_rs2_edges_rs1val_0xfffffffe_rs2val_0x7ffffffe_str
00002704 l       .text.rvtest	00000000 I_add_cg_cr_rs1_rs2_edges_rs1val_0xfffffffe_rs2val_0xffffffff
0000c718 l       .data	00000000 I_add_cg_cr_rs1_rs2_edges_rs1val_0xfffffffe_rs2val_0xffffffff_str
00002730 l       .text.rvtest	00000000 I_add_cg_cr_rs1_rs2_edges_rs1val_0xfffffffe_rs2val_0xfffffffe
0000c773 l       .data	00000000 I_add_cg_cr_rs1_rs2_edges_rs1val_0xfffffffe_rs2val_0xfffffffe_str
0000275c l       .text.rvtest	00000000 I_add_cg_cr_rs1_rs2_edges_rs1val_0xfffffffe_rs2val_0x5bbc8872
0000c7ce l       .data	00000000 I_add_cg_cr_rs1_rs2_edges_rs1val_0xfffffffe_rs2val_0x5bbc8872_str
00002788 l       .text.rvtest	00000000 I_add_cg_cr_rs1_rs2_edges_rs1val_0xfffffffe_rs2val_0xaaaaaaaa
0000c829 l       .data	00000000 I_add_cg_cr_rs1_rs2_edges_rs1val_0xfffffffe_rs2val_0xaaaaaaaa_str
000027b4 l       .text.rvtest	00000000 I_add_cg_cr_rs1_rs2_edges_rs1val_0xfffffffe_rs2val_0x55555555
0000c884 l       .data	00000000 I_add_cg_cr_rs1_rs2_edges_rs1val_0xfffffffe_rs2val_0x55555555_str
000027e0 l       .text.rvtest	00000000 I_add_cg_cr_rs1_rs2_edges_rs1val_0x5bbc8872_rs2val_0x0
0000c8df l       .data	00000000 I_add_cg_cr_rs1_rs2_edges_rs1val_0x5bbc8872_rs2val_0x0_str
0000280c l       .text.rvtest	00000000 I_add_cg_cr_rs1_rs2_edges_rs1val_0x5bbc8872_rs2val_0x1
0000c933 l       .data	00000000 I_add_cg_cr_rs1_rs2_edges_rs1val_0x5bbc8872_rs2val_0x1_str
00002838 l       .text.rvtest	00000000 I_add_cg_cr_rs1_rs2_edges_rs1val_0x5bbc8872_rs2val_0x2
0000c987 l       .data	00000000 I_add_cg_cr_rs1_rs2_edges_rs1val_0x5bbc8872_rs2val_0x2_str
00002864 l       .text.rvtest	00000000 I_add_cg_cr_rs1_rs2_edges_rs1val_0x5bbc8872_rs2val_0x80000000
0000c9db l       .data	00000000 I_add_cg_cr_rs1_rs2_edges_rs1val_0x5bbc8872_rs2val_0x80000000_str
00002890 l       .text.rvtest	00000000 I_add_cg_cr_rs1_rs2_edges_rs1val_0x5bbc8872_rs2val_0x80000001
0000ca36 l       .data	00000000 I_add_cg_cr_rs1_rs2_edges_rs1val_0x5bbc8872_rs2val_0x80000001_str
000028bc l       .text.rvtest	00000000 I_add_cg_cr_rs1_rs2_edges_rs1val_0x5bbc8872_rs2val_0x7fffffff
0000ca91 l       .data	00000000 I_add_cg_cr_rs1_rs2_edges_rs1val_0x5bbc8872_rs2val_0x7fffffff_str
000028e8 l       .text.rvtest	00000000 I_add_cg_cr_rs1_rs2_edges_rs1val_0x5bbc8872_rs2val_0x7ffffffe
0000caec l       .data	00000000 I_add_cg_cr_rs1_rs2_edges_rs1val_0x5bbc8872_rs2val_0x7ffffffe_str
00002914 l       .text.rvtest	00000000 I_add_cg_cr_rs1_rs2_edges_rs1val_0x5bbc8872_rs2val_0xffffffff
0000cb47 l       .data	00000000 I_add_cg_cr_rs1_rs2_edges_rs1val_0x5bbc8872_rs2val_0xffffffff_str
00002940 l       .text.rvtest	00000000 I_add_cg_cr_rs1_rs2_edges_rs1val_0x5bbc8872_rs2val_0xfffffffe
0000cba2 l       .data	00000000 I_add_cg_cr_rs1_rs2_edges_rs1val_0x5bbc8872_rs2val_0xfffffffe_str
0000296c l       .text.rvtest	00000000 I_add_cg_cr_rs1_rs2_edges_rs1val_0x5bbc8872_rs2val_0x5bbc8872
0000cbfd l       .data	00000000 I_add_cg_cr_rs1_rs2_edges_rs1val_0x5bbc8872_rs2val_0x5bbc8872_str
00002998 l       .text.rvtest	00000000 I_add_cg_cr_rs1_rs2_edges_rs1val_0x5bbc8872_rs2val_0xaaaaaaaa
0000cc58 l       .data	00000000 I_add_cg_cr_rs1_rs2_edges_rs1val_0x5bbc8872_rs2val_0xaaaaaaaa_str
000029c4 l       .text.rvtest	00000000 I_add_cg_cr_rs1_rs2_edges_rs1val_0x5bbc8872_rs2val_0x55555555
0000ccb3 l       .data	00000000 I_add_cg_cr_rs1_rs2_edges_rs1val_0x5bbc8872_rs2val_0x55555555_str
000029f0 l       .text.rvtest	00000000 I_add_cg_cr_rs1_rs2_edges_rs1val_0xaaaaaaaa_rs2val_0x0
0000cd0e l       .data	00000000 I_add_cg_cr_rs1_rs2_edges_rs1val_0xaaaaaaaa_rs2val_0x0_str
00002a1c l       .text.rvtest	00000000 I_add_cg_cr_rs1_rs2_edges_rs1val_0xaaaaaaaa_rs2val_0x1
0000cd62 l       .data	00000000 I_add_cg_cr_rs1_rs2_edges_rs1val_0xaaaaaaaa_rs2val_0x1_str
00002a48 l       .text.rvtest	00000000 I_add_cg_cr_rs1_rs2_edges_rs1val_0xaaaaaaaa_rs2val_0x2
0000cdb6 l       .data	00000000 I_add_cg_cr_rs1_rs2_edges_rs1val_0xaaaaaaaa_rs2val_0x2_str
00002a74 l       .text.rvtest	00000000 I_add_cg_cr_rs1_rs2_edges_rs1val_0xaaaaaaaa_rs2val_0x80000000
0000ce0a l       .data	00000000 I_add_cg_cr_rs1_rs2_edges_rs1val_0xaaaaaaaa_rs2val_0x80000000_str
00002aa0 l       .text.rvtest	00000000 I_add_cg_cr_rs1_rs2_edges_rs1val_0xaaaaaaaa_rs2val_0x80000001
0000ce65 l       .data	00000000 I_add_cg_cr_rs1_rs2_edges_rs1val_0xaaaaaaaa_rs2val_0x80000001_str
00002acc l       .text.rvtest	00000000 I_add_cg_cr_rs1_rs2_edges_rs1val_0xaaaaaaaa_rs2val_0x7fffffff
0000cec0 l       .data	00000000 I_add_cg_cr_rs1_rs2_edges_rs1val_0xaaaaaaaa_rs2val_0x7fffffff_str
00002af8 l       .text.rvtest	00000000 I_add_cg_cr_rs1_rs2_edges_rs1val_0xaaaaaaaa_rs2val_0x7ffffffe
0000cf1b l       .data	00000000 I_add_cg_cr_rs1_rs2_edges_rs1val_0xaaaaaaaa_rs2val_0x7ffffffe_str
00002b24 l       .text.rvtest	00000000 I_add_cg_cr_rs1_rs2_edges_rs1val_0xaaaaaaaa_rs2val_0xffffffff
0000cf76 l       .data	00000000 I_add_cg_cr_rs1_rs2_edges_rs1val_0xaaaaaaaa_rs2val_0xffffffff_str
00002b50 l       .text.rvtest	00000000 I_add_cg_cr_rs1_rs2_edges_rs1val_0xaaaaaaaa_rs2val_0xfffffffe
0000cfd1 l       .data	00000000 I_add_cg_cr_rs1_rs2_edges_rs1val_0xaaaaaaaa_rs2val_0xfffffffe_str
00002b7c l       .text.rvtest	00000000 I_add_cg_cr_rs1_rs2_edges_rs1val_0xaaaaaaaa_rs2val_0x5bbc8872
0000d02c l       .data	00000000 I_add_cg_cr_rs1_rs2_edges_rs1val_0xaaaaaaaa_rs2val_0x5bbc8872_str
00002ba8 l       .text.rvtest	00000000 I_add_cg_cr_rs1_rs2_edges_rs1val_0xaaaaaaaa_rs2val_0xaaaaaaaa
0000d087 l       .data	00000000 I_add_cg_cr_rs1_rs2_edges_rs1val_0xaaaaaaaa_rs2val_0xaaaaaaaa_str
00002bd4 l       .text.rvtest	00000000 I_add_cg_cr_rs1_rs2_edges_rs1val_0xaaaaaaaa_rs2val_0x55555555
0000d0e2 l       .data	00000000 I_add_cg_cr_rs1_rs2_edges_rs1val_0xaaaaaaaa_rs2val_0x55555555_str
00002c00 l       .text.rvtest	00000000 I_add_cg_cr_rs1_rs2_edges_rs1val_0x55555555_rs2val_0x0
0000d13d l       .data	00000000 I_add_cg_cr_rs1_rs2_edges_rs1val_0x55555555_rs2val_0x0_str
00002c2c l       .text.rvtest	00000000 I_add_cg_cr_rs1_rs2_edges_rs1val_0x55555555_rs2val_0x1
0000d191 l       .data	00000000 I_add_cg_cr_rs1_rs2_edges_rs1val_0x55555555_rs2val_0x1_str
00002c58 l       .text.rvtest	00000000 I_add_cg_cr_rs1_rs2_edges_rs1val_0x55555555_rs2val_0x2
0000d1e5 l       .data	00000000 I_add_cg_cr_rs1_rs2_edges_rs1val_0x55555555_rs2val_0x2_str
00002c84 l       .text.rvtest	00000000 I_add_cg_cr_rs1_rs2_edges_rs1val_0x55555555_rs2val_0x80000000
0000d239 l       .data	00000000 I_add_cg_cr_rs1_rs2_edges_rs1val_0x55555555_rs2val_0x80000000_str
00002cb0 l       .text.rvtest	00000000 I_add_cg_cr_rs1_rs2_edges_rs1val_0x55555555_rs2val_0x80000001
0000d294 l       .data	00000000 I_add_cg_cr_rs1_rs2_edges_rs1val_0x55555555_rs2val_0x80000001_str
00002cdc l       .text.rvtest	00000000 I_add_cg_cr_rs1_rs2_edges_rs1val_0x55555555_rs2val_0x7fffffff
0000d2ef l       .data	00000000 I_add_cg_cr_rs1_rs2_edges_rs1val_0x55555555_rs2val_0x7fffffff_str
00002d08 l       .text.rvtest	00000000 I_add_cg_cr_rs1_rs2_edges_rs1val_0x55555555_rs2val_0x7ffffffe
0000d34a l       .data	00000000 I_add_cg_cr_rs1_rs2_edges_rs1val_0x55555555_rs2val_0x7ffffffe_str
00002d34 l       .text.rvtest	00000000 I_add_cg_cr_rs1_rs2_edges_rs1val_0x55555555_rs2val_0xffffffff
0000d3a5 l       .data	00000000 I_add_cg_cr_rs1_rs2_edges_rs1val_0x55555555_rs2val_0xffffffff_str
00002d60 l       .text.rvtest	00000000 I_add_cg_cr_rs1_rs2_edges_rs1val_0x55555555_rs2val_0xfffffffe
0000d400 l       .data	00000000 I_add_cg_cr_rs1_rs2_edges_rs1val_0x55555555_rs2val_0xfffffffe_str
00002d8c l       .text.rvtest	00000000 I_add_cg_cr_rs1_rs2_edges_rs1val_0x55555555_rs2val_0x5bbc8872
0000d45b l       .data	00000000 I_add_cg_cr_rs1_rs2_edges_rs1val_0x55555555_rs2val_0x5bbc8872_str
00002db8 l       .text.rvtest	00000000 I_add_cg_cr_rs1_rs2_edges_rs1val_0x55555555_rs2val_0xaaaaaaaa
0000d4b6 l       .data	00000000 I_add_cg_cr_rs1_rs2_edges_rs1val_0x55555555_rs2val_0xaaaaaaaa_str
00002de4 l       .text.rvtest	00000000 I_add_cg_cr_rs1_rs2_edges_rs1val_0x55555555_rs2val_0x55555555
0000d511 l       .data	00000000 I_add_cg_cr_rs1_rs2_edges_rs1val_0x55555555_rs2val_0x55555555_str
00002e10 l       .text.rvtest	00000000 I_add_cg_cmp_rs1_rs2_b0
0000d56c l       .data	00000000 I_add_cg_cmp_rs1_rs2_b0_str
00002e3c l       .text.rvtest	00000000 I_add_cg_cmp_rs1_rs2_b1
0000d5a0 l       .data	00000000 I_add_cg_cmp_rs1_rs2_b1_str
00002e68 l       .text.rvtest	00000000 I_add_cg_cmp_rs1_rs2_b2
0000d5d4 l       .data	00000000 I_add_cg_cmp_rs1_rs2_b2_str
00002e94 l       .text.rvtest	00000000 I_add_cg_cmp_rs1_rs2_b3
0000d608 l       .data	00000000 I_add_cg_cmp_rs1_rs2_b3_str
00002ec8 l       .text.rvtest	00000000 I_add_cg_cmp_rs1_rs2_b4
0000d63c l       .data	00000000 I_add_cg_cmp_rs1_rs2_b4_str
00002ef4 l       .text.rvtest	00000000 I_add_cg_cmp_rs1_rs2_b5
0000d670 l       .data	00000000 I_add_cg_cmp_rs1_rs2_b5_str
00002f24 l       .text.rvtest	00000000 I_add_cg_cmp_rs1_rs2_b6
0000d6a4 l       .data	00000000 I_add_cg_cmp_rs1_rs2_b6_str
00002f58 l       .text.rvtest	00000000 I_add_cg_cmp_rs1_rs2_b7
0000d6d8 l       .data	00000000 I_add_cg_cmp_rs1_rs2_b7_str
00002f84 l       .text.rvtest	00000000 I_add_cg_cmp_rs1_rs2_b8
0000d70c l       .data	00000000 I_add_cg_cmp_rs1_rs2_b8_str
00002fb0 l       .text.rvtest	00000000 I_add_cg_cmp_rs1_rs2_b9
0000d740 l       .data	00000000 I_add_cg_cmp_rs1_rs2_b9_str
00002fdc l       .text.rvtest	00000000 I_add_cg_cmp_rs1_rs2_b10
0000d774 l       .data	00000000 I_add_cg_cmp_rs1_rs2_b10_str
00003008 l       .text.rvtest	00000000 I_add_cg_cmp_rs1_rs2_b11
0000d7a9 l       .data	00000000 I_add_cg_cmp_rs1_rs2_b11_str
00003034 l       .text.rvtest	00000000 I_add_cg_cmp_rs1_rs2_b12
0000d7de l       .data	00000000 I_add_cg_cmp_rs1_rs2_b12_str
00003060 l       .text.rvtest	00000000 I_add_cg_cmp_rs1_rs2_b13
0000d813 l       .data	00000000 I_add_cg_cmp_rs1_rs2_b13_str
0000308c l       .text.rvtest	00000000 I_add_cg_cmp_rs1_rs2_b14
0000d848 l       .data	00000000 I_add_cg_cmp_rs1_rs2_b14_str
000030b8 l       .text.rvtest	00000000 I_add_cg_cmp_rs1_rs2_b15
0000d87d l       .data	00000000 I_add_cg_cmp_rs1_rs2_b15_str
000030e4 l       .text.rvtest	00000000 I_add_cg_cmp_rs1_rs2_b16
0000d8b2 l       .data	00000000 I_add_cg_cmp_rs1_rs2_b16_str
00003110 l       .text.rvtest	00000000 I_add_cg_cmp_rs1_rs2_b17
0000d8e7 l       .data	00000000 I_add_cg_cmp_rs1_rs2_b17_str
0000313c l       .text.rvtest	00000000 I_add_cg_cmp_rs1_rs2_b18
0000d91c l       .data	00000000 I_add_cg_cmp_rs1_rs2_b18_str
00003168 l       .text.rvtest	00000000 I_add_cg_cmp_rs1_rs2_b19
0000d951 l       .data	00000000 I_add_cg_cmp_rs1_rs2_b19_str
00003194 l       .text.rvtest	00000000 I_add_cg_cmp_rs1_rs2_b20
0000d986 l       .data	00000000 I_add_cg_cmp_rs1_rs2_b20_str
000031c4 l       .text.rvtest	00000000 I_add_cg_cmp_rs1_rs2_b21
0000d9bb l       .data	00000000 I_add_cg_cmp_rs1_rs2_b21_str
000031f4 l       .text.rvtest	00000000 I_add_cg_cmp_rs1_rs2_b22
0000d9f0 l       .data	00000000 I_add_cg_cmp_rs1_rs2_b22_str
00003220 l       .text.rvtest	00000000 I_add_cg_cmp_rs1_rs2_b23
0000da25 l       .data	00000000 I_add_cg_cmp_rs1_rs2_b23_str
0000324c l       .text.rvtest	00000000 I_add_cg_cmp_rs1_rs2_b24
0000da5a l       .data	00000000 I_add_cg_cmp_rs1_rs2_b24_str
00003278 l       .text.rvtest	00000000 I_add_cg_cmp_rs1_rs2_b25
0000da8f l       .data	00000000 I_add_cg_cmp_rs1_rs2_b25_str
000032a4 l       .text.rvtest	00000000 I_add_cg_cmp_rs1_rs2_b26
0000dac4 l       .data	00000000 I_add_cg_cmp_rs1_rs2_b26_str
000032d0 l       .text.rvtest	00000000 I_add_cg_cmp_rs1_rs2_b27
0000daf9 l       .data	00000000 I_add_cg_cmp_rs1_rs2_b27_str
000032fc l       .text.rvtest	00000000 I_add_cg_cmp_rs1_rs2_b28
0000db2e l       .data	00000000 I_add_cg_cmp_rs1_rs2_b28_str
00003328 l       .text.rvtest	00000000 I_add_cg_cmp_rs1_rs2_b29
0000db63 l       .data	00000000 I_add_cg_cmp_rs1_rs2_b29_str
00003358 l       .text.rvtest	00000000 I_add_cg_cmp_rs1_rs2_b30
0000db98 l       .data	00000000 I_add_cg_cmp_rs1_rs2_b30_str
00003384 l       .text.rvtest	00000000 I_add_cg_cmp_rs1_rs2_b31
0000dbcd l       .data	00000000 I_add_cg_cmp_rs1_rs2_b31_str
000033b0 l       .text.rvtest	00000000 I_add_cg_cmp_rd_rs1_b0
0000dc02 l       .data	00000000 I_add_cg_cmp_rd_rs1_b0_str
000033dc l       .text.rvtest	00000000 I_add_cg_cmp_rd_rs1_b1
0000dc35 l       .data	00000000 I_add_cg_cmp_rd_rs1_b1_str
00003408 l       .text.rvtest	00000000 I_add_cg_cmp_rd_rs1_b2
0000dc68 l       .data	00000000 I_add_cg_cmp_rd_rs1_b2_str
00003434 l       .text.rvtest	00000000 I_add_cg_cmp_rd_rs1_b3
0000dc9b l       .data	00000000 I_add_cg_cmp_rd_rs1_b3_str
00003468 l       .text.rvtest	00000000 I_add_cg_cmp_rd_rs1_b4
0000dcce l       .data	00000000 I_add_cg_cmp_rd_rs1_b4_str
00003494 l       .text.rvtest	00000000 I_add_cg_cmp_rd_rs1_b5
0000dd01 l       .data	00000000 I_add_cg_cmp_rd_rs1_b5_str
000034c0 l       .text.rvtest	00000000 I_add_cg_cmp_rd_rs1_b6
0000dd34 l       .data	00000000 I_add_cg_cmp_rd_rs1_b6_str
000034ec l       .text.rvtest	00000000 I_add_cg_cmp_rd_rs1_b7
0000dd67 l       .data	00000000 I_add_cg_cmp_rd_rs1_b7_str
00003518 l       .text.rvtest	00000000 I_add_cg_cmp_rd_rs1_b8
0000dd9a l       .data	00000000 I_add_cg_cmp_rd_rs1_b8_str
00003544 l       .text.rvtest	00000000 I_add_cg_cmp_rd_rs1_b9
0000ddcd l       .data	00000000 I_add_cg_cmp_rd_rs1_b9_str
00003570 l       .text.rvtest	00000000 I_add_cg_cmp_rd_rs1_b10
0000de00 l       .data	00000000 I_add_cg_cmp_rd_rs1_b10_str
0000359c l       .text.rvtest	00000000 I_add_cg_cmp_rd_rs1_b11
0000de34 l       .data	00000000 I_add_cg_cmp_rd_rs1_b11_str
000035c8 l       .text.rvtest	00000000 I_add_cg_cmp_rd_rs1_b12
0000de68 l       .data	00000000 I_add_cg_cmp_rd_rs1_b12_str
000035fc l       .text.rvtest	00000000 I_add_cg_cmp_rd_rs1_b13
0000de9c l       .data	00000000 I_add_cg_cmp_rd_rs1_b13_str
00003628 l       .text.rvtest	00000000 I_add_cg_cmp_rd_rs1_b14
0000ded0 l       .data	00000000 I_add_cg_cmp_rd_rs1_b14_str
00003658 l       .text.rvtest	00000000 I_add_cg_cmp_rd_rs1_b15
0000df04 l       .data	00000000 I_add_cg_cmp_rd_rs1_b15_str
00003684 l       .text.rvtest	00000000 I_add_cg_cmp_rd_rs1_b16
0000df38 l       .data	00000000 I_add_cg_cmp_rd_rs1_b16_str
000036b0 l       .text.rvtest	00000000 I_add_cg_cmp_rd_rs1_b17
0000df6c l       .data	00000000 I_add_cg_cmp_rd_rs1_b17_str
000036dc l       .text.rvtest	00000000 I_add_cg_cmp_rd_rs1_b18
0000dfa0 l       .data	00000000 I_add_cg_cmp_rd_rs1_b18_str
00003708 l       .text.rvtest	00000000 I_add_cg_cmp_rd_rs1_b19
0000dfd4 l       .data	00000000 I_add_cg_cmp_rd_rs1_b19_str
00003734 l       .text.rvtest	00000000 I_add_cg_cmp_rd_rs1_b20
0000e008 l       .data	00000000 I_add_cg_cmp_rd_rs1_b20_str
00003764 l       .text.rvtest	00000000 I_add_cg_cmp_rd_rs1_b21
0000e03c l       .data	00000000 I_add_cg_cmp_rd_rs1_b21_str
00003790 l       .text.rvtest	00000000 I_add_cg_cmp_rd_rs1_b22
0000e070 l       .data	00000000 I_add_cg_cmp_rd_rs1_b22_str
000037bc l       .text.rvtest	00000000 I_add_cg_cmp_rd_rs1_b23
0000e0a4 l       .data	00000000 I_add_cg_cmp_rd_rs1_b23_str
000037e8 l       .text.rvtest	00000000 I_add_cg_cmp_rd_rs1_b24
0000e0d8 l       .data	00000000 I_add_cg_cmp_rd_rs1_b24_str
00003818 l       .text.rvtest	00000000 I_add_cg_cmp_rd_rs1_b25
0000e10c l       .data	00000000 I_add_cg_cmp_rd_rs1_b25_str
00003844 l       .text.rvtest	00000000 I_add_cg_cmp_rd_rs1_b26
0000e140 l       .data	00000000 I_add_cg_cmp_rd_rs1_b26_str
00003870 l       .text.rvtest	00000000 I_add_cg_cmp_rd_rs1_b27
0000e174 l       .data	00000000 I_add_cg_cmp_rd_rs1_b27_str
0000389c l       .text.rvtest	00000000 I_add_cg_cmp_rd_rs1_b28
0000e1a8 l       .data	00000000 I_add_cg_cmp_rd_rs1_b28_str
000038c8 l       .text.rvtest	00000000 I_add_cg_cmp_rd_rs1_b29
0000e1dc l       .data	00000000 I_add_cg_cmp_rd_rs1_b29_str
000038f4 l       .text.rvtest	00000000 I_add_cg_cmp_rd_rs1_b30
0000e210 l       .data	00000000 I_add_cg_cmp_rd_rs1_b30_str
00003920 l       .text.rvtest	00000000 I_add_cg_cmp_rd_rs1_b31
0000e244 l       .data	00000000 I_add_cg_cmp_rd_rs1_b31_str
0000394c l       .text.rvtest	00000000 I_add_cg_cmp_rd_rs2_b0
0000e278 l       .data	00000000 I_add_cg_cmp_rd_rs2_b0_str
00003978 l       .text.rvtest	00000000 I_add_cg_cmp_rd_rs2_b1
0000e2ab l       .data	00000000 I_add_cg_cmp_rd_rs2_b1_str
000039a4 l       .text.rvtest	00000000 I_add_cg_cmp_rd_rs2_b2
0000e2de l       .data	00000000 I_add_cg_cmp_rd_rs2_b2_str
000039d0 l       .text.rvtest	00000000 I_add_cg_cmp_rd_rs2_b3
0000e311 l       .data	00000000 I_add_cg_cmp_rd_rs2_b3_str
000039fc l       .text.rvtest	00000000 I_add_cg_cmp_rd_rs2_b4
0000e344 l       .data	00000000 I_add_cg_cmp_rd_rs2_b4_str
00003a28 l       .text.rvtest	00000000 I_add_cg_cmp_rd_rs2_b5
0000e377 l       .data	00000000 I_add_cg_cmp_rd_rs2_b5_str
00003a54 l       .text.rvtest	00000000 I_add_cg_cmp_rd_rs2_b6
0000e3aa l       .data	00000000 I_add_cg_cmp_rd_rs2_b6_str
00003a88 l       .text.rvtest	00000000 I_add_cg_cmp_rd_rs2_b7
0000e3dd l       .data	00000000 I_add_cg_cmp_rd_rs2_b7_str
00003ab4 l       .text.rvtest	00000000 I_add_cg_cmp_rd_rs2_b8
0000e410 l       .data	00000000 I_add_cg_cmp_rd_rs2_b8_str
00003ae4 l       .text.rvtest	00000000 I_add_cg_cmp_rd_rs2_b9
0000e443 l       .data	00000000 I_add_cg_cmp_rd_rs2_b9_str
00003b10 l       .text.rvtest	00000000 I_add_cg_cmp_rd_rs2_b10
0000e476 l       .data	00000000 I_add_cg_cmp_rd_rs2_b10_str
00003b3c l       .text.rvtest	00000000 I_add_cg_cmp_rd_rs2_b11
0000e4aa l       .data	00000000 I_add_cg_cmp_rd_rs2_b11_str
00003b68 l       .text.rvtest	00000000 I_add_cg_cmp_rd_rs2_b12
0000e4de l       .data	00000000 I_add_cg_cmp_rd_rs2_b12_str
00003b9c l       .text.rvtest	00000000 I_add_cg_cmp_rd_rs2_b13
0000e512 l       .data	00000000 I_add_cg_cmp_rd_rs2_b13_str
00003bc8 l       .text.rvtest	00000000 I_add_cg_cmp_rd_rs2_b14
0000e546 l       .data	00000000 I_add_cg_cmp_rd_rs2_b14_str
00003bf4 l       .text.rvtest	00000000 I_add_cg_cmp_rd_rs2_b15
0000e57a l       .data	00000000 I_add_cg_cmp_rd_rs2_b15_str
00003c20 l       .text.rvtest	00000000 I_add_cg_cmp_rd_rs2_b16
0000e5ae l       .data	00000000 I_add_cg_cmp_rd_rs2_b16_str
00003c4c l       .text.rvtest	00000000 I_add_cg_cmp_rd_rs2_b17
0000e5e2 l       .data	00000000 I_add_cg_cmp_rd_rs2_b17_str
00003c78 l       .text.rvtest	00000000 I_add_cg_cmp_rd_rs2_b18
0000e616 l       .data	00000000 I_add_cg_cmp_rd_rs2_b18_str
00003ca4 l       .text.rvtest	00000000 I_add_cg_cmp_rd_rs2_b19
0000e64a l       .data	00000000 I_add_cg_cmp_rd_rs2_b19_str
00003cd4 l       .text.rvtest	00000000 I_add_cg_cmp_rd_rs2_b20
0000e67e l       .data	00000000 I_add_cg_cmp_rd_rs2_b20_str
00003d00 l       .text.rvtest	00000000 I_add_cg_cmp_rd_rs2_b21
0000e6b2 l       .data	00000000 I_add_cg_cmp_rd_rs2_b21_str
00003d2c l       .text.rvtest	00000000 I_add_cg_cmp_rd_rs2_b22
0000e6e6 l       .data	00000000 I_add_cg_cmp_rd_rs2_b22_str
00003d58 l       .text.rvtest	00000000 I_add_cg_cmp_rd_rs2_b23
0000e71a l       .data	00000000 I_add_cg_cmp_rd_rs2_b23_str
00003d84 l       .text.rvtest	00000000 I_add_cg_cmp_rd_rs2_b24
0000e74e l       .data	00000000 I_add_cg_cmp_rd_rs2_b24_str
00003db0 l       .text.rvtest	00000000 I_add_cg_cmp_rd_rs2_b25
0000e782 l       .data	00000000 I_add_cg_cmp_rd_rs2_b25_str
00003ddc l       .text.rvtest	00000000 I_add_cg_cmp_rd_rs2_b26
0000e7b6 l       .data	00000000 I_add_cg_cmp_rd_rs2_b26_str
00003e08 l       .text.rvtest	00000000 I_add_cg_cmp_rd_rs2_b27
0000e7ea l       .data	00000000 I_add_cg_cmp_rd_rs2_b27_str
00003e38 l       .text.rvtest	00000000 I_add_cg_cmp_rd_rs2_b28
0000e81e l       .data	00000000 I_add_cg_cmp_rd_rs2_b28_str
00003e64 l       .text.rvtest	00000000 I_add_cg_cmp_rd_rs2_b29
0000e852 l       .data	00000000 I_add_cg_cmp_rd_rs2_b29_str
00003e90 l       .text.rvtest	00000000 I_add_cg_cmp_rd_rs2_b30
0000e886 l       .data	00000000 I_add_cg_cmp_rd_rs2_b30_str
00003ebc l       .text.rvtest	00000000 I_add_cg_cmp_rd_rs2_b31
0000e8ba l       .data	00000000 I_add_cg_cmp_rd_rs2_b31_str
00003ee8 l       .text.rvtest	00000000 I_add_cg_cmp_rd_rs1_rs2_b0
0000e8ee l       .data	00000000 I_add_cg_cmp_rd_rs1_rs2_b0_str
00003f14 l       .text.rvtest	00000000 I_add_cg_cmp_rd_rs1_rs2_b1
0000e925 l       .data	00000000 I_add_cg_cmp_rd_rs1_rs2_b1_str
00003f40 l       .text.rvtest	00000000 I_add_cg_cmp_rd_rs1_rs2_b2
0000e95c l       .data	00000000 I_add_cg_cmp_rd_rs1_rs2_b2_str
00003f6c l       .text.rvtest	00000000 I_add_cg_cmp_rd_rs1_rs2_b3
0000e993 l       .data	00000000 I_add_cg_cmp_rd_rs1_rs2_b3_str
00003fa0 l       .text.rvtest	00000000 I_add_cg_cmp_rd_rs1_rs2_b4
0000e9ca l       .data	00000000 I_add_cg_cmp_rd_rs1_rs2_b4_str
00003fcc l       .text.rvtest	00000000 I_add_cg_cmp_rd_rs1_rs2_b5
0000ea01 l       .data	00000000 I_add_cg_cmp_rd_rs1_rs2_b5_str
00003ff8 l       .text.rvtest	00000000 I_add_cg_cmp_rd_rs1_rs2_b6
0000ea38 l       .data	00000000 I_add_cg_cmp_rd_rs1_rs2_b6_str
00004024 l       .text.rvtest	00000000 I_add_cg_cmp_rd_rs1_rs2_b7
0000ea6f l       .data	00000000 I_add_cg_cmp_rd_rs1_rs2_b7_str
00004050 l       .text.rvtest	00000000 I_add_cg_cmp_rd_rs1_rs2_b8
0000eaa6 l       .data	00000000 I_add_cg_cmp_rd_rs1_rs2_b8_str
0000407c l       .text.rvtest	00000000 I_add_cg_cmp_rd_rs1_rs2_b9
0000eadd l       .data	00000000 I_add_cg_cmp_rd_rs1_rs2_b9_str
000040a8 l       .text.rvtest	00000000 I_add_cg_cmp_rd_rs1_rs2_b10
0000eb14 l       .data	00000000 I_add_cg_cmp_rd_rs1_rs2_b10_str
000040d4 l       .text.rvtest	00000000 I_add_cg_cmp_rd_rs1_rs2_b11
0000eb4c l       .data	00000000 I_add_cg_cmp_rd_rs1_rs2_b11_str
00004104 l       .text.rvtest	00000000 I_add_cg_cmp_rd_rs1_rs2_b12
0000eb84 l       .data	00000000 I_add_cg_cmp_rd_rs1_rs2_b12_str
00004138 l       .text.rvtest	00000000 I_add_cg_cmp_rd_rs1_rs2_b13
0000ebbc l       .data	00000000 I_add_cg_cmp_rd_rs1_rs2_b13_str
00004164 l       .text.rvtest	00000000 I_add_cg_cmp_rd_rs1_rs2_b14
0000ebf4 l       .data	00000000 I_add_cg_cmp_rd_rs1_rs2_b14_str
00004190 l       .text.rvtest	00000000 I_add_cg_cmp_rd_rs1_rs2_b15
0000ec2c l       .data	00000000 I_add_cg_cmp_rd_rs1_rs2_b15_str
000041bc l       .text.rvtest	00000000 I_add_cg_cmp_rd_rs1_rs2_b16
0000ec64 l       .data	00000000 I_add_cg_cmp_rd_rs1_rs2_b16_str
000041e8 l       .text.rvtest	00000000 I_add_cg_cmp_rd_rs1_rs2_b17
0000ec9c l       .data	00000000 I_add_cg_cmp_rd_rs1_rs2_b17_str
00004214 l       .text.rvtest	00000000 I_add_cg_cmp_rd_rs1_rs2_b18
0000ecd4 l       .data	00000000 I_add_cg_cmp_rd_rs1_rs2_b18_str
00004244 l       .text.rvtest	00000000 I_add_cg_cmp_rd_rs1_rs2_b19
0000ed0c l       .data	00000000 I_add_cg_cmp_rd_rs1_rs2_b19_str
00004270 l       .text.rvtest	00000000 I_add_cg_cmp_rd_rs1_rs2_b20
0000ed44 l       .data	00000000 I_add_cg_cmp_rd_rs1_rs2_b20_str
0000429c l       .text.rvtest	00000000 I_add_cg_cmp_rd_rs1_rs2_b21
0000ed7c l       .data	00000000 I_add_cg_cmp_rd_rs1_rs2_b21_str
000042c8 l       .text.rvtest	00000000 I_add_cg_cmp_rd_rs1_rs2_b22
0000edb4 l       .data	00000000 I_add_cg_cmp_rd_rs1_rs2_b22_str
000042f4 l       .text.rvtest	00000000 I_add_cg_cmp_rd_rs1_rs2_b23
0000edec l       .data	00000000 I_add_cg_cmp_rd_rs1_rs2_b23_str
00004320 l       .text.rvtest	00000000 I_add_cg_cmp_rd_rs1_rs2_b24
0000ee24 l       .data	00000000 I_add_cg_cmp_rd_rs1_rs2_b24_str
0000434c l       .text.rvtest	00000000 I_add_cg_cmp_rd_rs1_rs2_b25
0000ee5c l       .data	00000000 I_add_cg_cmp_rd_rs1_rs2_b25_str
00004378 l       .text.rvtest	00000000 I_add_cg_cmp_rd_rs1_rs2_b26
0000ee94 l       .data	00000000 I_add_cg_cmp_rd_rs1_rs2_b26_str
000043a4 l       .text.rvtest	00000000 I_add_cg_cmp_rd_rs1_rs2_b27
0000eecc l       .data	00000000 I_add_cg_cmp_rd_rs1_rs2_b27_str
000043d0 l       .text.rvtest	00000000 I_add_cg_cmp_rd_rs1_rs2_b28
0000ef04 l       .data	00000000 I_add_cg_cmp_rd_rs1_rs2_b28_str
000043fc l       .text.rvtest	00000000 I_add_cg_cmp_rd_rs1_rs2_b29
0000ef3c l       .data	00000000 I_add_cg_cmp_rd_rs1_rs2_b29_str
00004428 l       .text.rvtest	00000000 I_add_cg_cmp_rd_rs1_rs2_b30
0000ef74 l       .data	00000000 I_add_cg_cmp_rd_rs1_rs2_b30_str
00004454 l       .text.rvtest	00000000 I_add_cg_cmp_rd_rs1_rs2_b31
0000efac l       .data	00000000 I_add_cg_cmp_rd_rs1_rs2_b31_str
00004474 l       .text.rvtest	00000000 exit_cleanup
0000f654 l       .data	00000000 successstr
00020204 l       .text.rvmodel	00000000 rvmodel_io_write_str
00020208 l       .text.rvmodel	00000000 rvmodel_halt_pass
000044b0 l       .text.rvtest	00000000 abort_test
6f5ca309 l       *ABS*	00000000 immx
6f5ca309 l       *ABS*	00000000 absimm
00000000 l       *ABS*	00000000 cry
00000309 l       *ABS*	00000000 imm12
0000eff0 l       .data	00000000 begin_failure_scratch
00004580 l       .text.rvtest	00000000 failedtest_saveregs
00004524 l       .text.rvtest	00000000 failedtest_trap_x7_x9
0000f160 l       .data	00000000 saved_mcause
0000f168 l       .data	00000000 saved_mtval
0000f170 l       .data	00000000 saved_mstatus
000045f0 l       .text.rvtest	00000000 failedtest_saveresults
0000eff0 l       .data	00000000 failure_type
0000466c l       .text.rvtest	00000000 failedtest_saveresults_trap
00004600 l       .text.rvtest	00000000 failedtest_saveresults_int
00004a40 l       .text.rvtest	00000000 failedtest_saveresults_common
0000f148 l       .data	00000000 trap_diag_fail_str_ptr
0000f81a l       .data	00000000 trap_sig_offset_mismatch
00004920 l       .text.rvtest	00000000 trap_diag_offset_mismatch
0000f120 l       .data	00000000 trap_diag_subtype
0000f87e l       .data	00000000 sv_Mvect_str
000049a0 l       .text.rvtest	00000000 trap_diag_field_identified
0000f980 l       .data	00000000 sv_Mcause_str
0000fa7b l       .data	00000000 sv_Mepc_str
0000fb6e l       .data	00000000 sv_Mtval_str
0000fce1 l       .data	00000000 sv_Mip_str
0000fc65 l       .data	00000000 sv_Mtval2_str
0000fca3 l       .data	00000000 sv_Mtinst_str
0000f8be l       .data	00000000 sv_Svect_str
0000f9be l       .data	00000000 sv_Scause_str
0000fab7 l       .data	00000000 sv_Sepc_str
0000fbab l       .data	00000000 sv_Stval_str
0000fd1c l       .data	00000000 sv_Sip_str
0000f8fe l       .data	00000000 sv_Hvect_str
0000f9fc l       .data	00000000 sv_Hcause_str
0000faf3 l       .data	00000000 sv_Hepc_str
0000fbe8 l       .data	00000000 sv_Htval_str
0000fd57 l       .data	00000000 sv_Hip_str
0000f93f l       .data	00000000 sv_Vvect_str
0000fa3b l       .data	00000000 sv_Vcause_str
0000fb30 l       .data	00000000 sv_Vepc_str
0000fc26 l       .data	00000000 sv_Vtval_str
0000fd93 l       .data	00000000 sv_Vip_str
0000fdd0 l       .data	00000000 Mclr_Mext_int_str
0000fe1f l       .data	00000000 Mclr_Sext_int_str
0000ff1a l       .data	00000000 Sclr_Sext_int_str
00010016 l       .data	00000000 Hclr_Sext_int_str
00004a30 l       .text.rvtest	00000000 trap_diag_generic_report
0000f138 l       .data	00000000 trap_diag_actual_offset
0000f140 l       .data	00000000 trap_diag_expected_offset
0000f124 l       .data	00000000 trap_diag_mode
0000f128 l       .data	00000000 trap_diag_actual_value
0000f130 l       .data	00000000 trap_diag_expected_value
00004a70 l       .text.rvtest	00000000 failedtest_report
00004a70 l       .text.rvtest	00000000 print_failstr
0000f68a l       .data	00000000 failstr
00004aa8 l       .text.rvtest	00000000 print_testnamestr
0000f71d l       .data	00000000 testnamestr
00004ae8 l       .text.rvtest	00000000 print_failure_test_name_str
0000f110 l       .data	00000000 failure_string_ptr
00004af8 l       .text.rvtest	00000000 print_newline_str
0000f72f l       .data	00000000 newlinestr
00004f2c l       .text.rvtest	00000000 failedtest_report_trap_detailed
0000f731 l       .data	00000000 inststr
0000f0f0 l       .data	00000000 failing_instruction
00005e78 l       .text.rvtest	00000000 failedtest_hex_to_str
0000f178 l       .data	00000000 ascii_buffer
0000f745 l       .data	00000000 addrstr
0000f0f8 l       .data	00000000 failing_addr
000101c2 l       .data	00000000 regstr
00004cd8 l       .text.rvtest	00000000 failedtest_report_not_intreg
0000f0f4 l       .data	00000000 failing_reg
00005ef4 l       .text.rvtest	00000000 failedtest_dec_to_str
00004db4 l       .text.rvtest	00000000 failedtest_report_print_regstr
00004d2c l       .text.rvtest	00000000 failedtest_report_fpreg
00004d78 l       .text.rvtest	00000000 failedtest_report_vecreg
00010222 l       .data	00000000 fflagsstr
00004de8 l       .text.rvtest	00000000 failedtest_report_after_reg
000101d3 l       .data	00000000 badvalstr
00004e4c l       .text.rvtest	00000000 failedtest_report_badval_not_fp
0000f100 l       .data	00000000 failing_value
00004e5c l       .text.rvtest	00000000 failedtest_report_badval_done
000101ea l       .data	00000000 expvalstr
00004eec l       .text.rvtest	00000000 failedtest_report_expval_not_fp
0000f108 l       .data	00000000 expected_value
00004efc l       .text.rvtest	00000000 failedtest_report_expval_done
00005c24 l       .text.rvtest	00000000 failedtest_report_end
0001024e l       .data	00000000 trap_diag_header_str
0001027a l       .data	00000000 trap_diag_origstr_label
00005000 l       .text.rvtest	00000000 trap_report_offset_mismatch
00005ab0 l       .text.rvtest	00000000 trap_report_generic
00005374 l       .text.rvtest	00000000 trap_report_field_mismatch
0001028a l       .data	00000000 trap_diag_count_mismatch_str
000102eb l       .data	00000000 trap_diag_expected_offset_str
00010312 l       .data	00000000 trap_diag_actual_offset_str
00005254 l       .text.rvtest	00000000 trap_report_missing_traps
0000513c l       .text.rvtest	00000000 trap_report_extra_traps
00010339 l       .data	00000000 trap_diag_extra_traps_str
000103be l       .data	00000000 trap_diag_extra_bytes_str
000103e9 l       .data	00000000 trap_diag_extra_hint_str
00005c70 l       .text.rvtest	00000000 failedtest_print_csr_context
00010373 l       .data	00000000 trap_diag_missing_traps_str
000104d1 l       .data	00000000 trap_diag_missing_hint_str
000105b8 l       .data	00000000 trap_diag_handler_mode_str
00005404 l       .text.rvtest	00000000 trap_mode_m
00005444 l       .text.rvtest	00000000 trap_mode_s
00005484 l       .text.rvtest	00000000 trap_mode_h
000054c4 l       .text.rvtest	00000000 trap_mode_v
000105f4 l       .data	00000000 trap_diag_mode_unknown_str
00005500 l       .text.rvtest	00000000 trap_mode_print
000105d2 l       .data	00000000 trap_diag_mode_m_str
000105da l       .data	00000000 trap_diag_mode_s_str
000105e2 l       .data	00000000 trap_diag_mode_hs_str
000105eb l       .data	00000000 trap_diag_mode_vs_str
000105fd l       .data	00000000 trap_diag_field_str
000055c4 l       .text.rvtest	00000000 trap_field_vect
00005604 l       .text.rvtest	00000000 trap_field_cause
00005644 l       .text.rvtest	00000000 trap_field_epc
00005684 l       .text.rvtest	00000000 trap_field_tval
000056c4 l       .text.rvtest	00000000 trap_field_ip
00005704 l       .text.rvtest	00000000 trap_field_tval2
00005744 l       .text.rvtest	00000000 trap_field_tinst
00005784 l       .text.rvtest	00000000 trap_field_intid
00010754 l       .data	00000000 trap_diag_field_unknown_str
000057c0 l       .text.rvtest	00000000 trap_field_print
00010617 l       .data	00000000 trap_diag_field_vect_str
00010648 l       .data	00000000 trap_diag_field_cause_str
00010668 l       .data	00000000 trap_diag_field_epc_str
00010686 l       .data	00000000 trap_diag_field_tval_str
000106a5 l       .data	00000000 trap_diag_field_ip_str
000106cd l       .data	00000000 trap_diag_field_tval2_str
000106f9 l       .data	00000000 trap_diag_field_tinst_str
00010725 l       .data	00000000 trap_diag_field_intid_str
00010763 l       .data	00000000 trap_diag_expected_str
0001077a l       .data	00000000 trap_diag_actual_str
0000595c l       .text.rvtest	00000000 trap_field_not_cause
00010791 l       .data	00000000 trap_diag_expected_cause_name_str
00005b94 l       .text.rvtest	00000000 trap_cause_to_str
000107a8 l       .data	00000000 trap_diag_actual_cause_name_str
0000595c l       .text.rvtest	00000000 trap_field_not_epc
0001081e l       .data	00000000 trap_diag_hint_vect_str
000108f4 l       .data	00000000 trap_diag_hint_cause_str
000109e7 l       .data	00000000 trap_diag_hint_epc_str
00010ae2 l       .data	00000000 trap_diag_hint_tval_str
00010bc9 l       .data	00000000 trap_diag_hint_ip_str
000107d6 l       .data	00000000 trap_diag_generic_str
0000f158 l       .data	00000000 saved_mepc
0000f7b9 l       .data	00000000 xepcinstrstr
00005bb8 l       .text.rvtest	00000000 trap_cause_interrupt
00005b98 l       .text.rvtest	00000000 trap_cause_exception
00005be4 l       .text.rvtest	00000000 trap_cause_unknown
0000f1a0 l       .data	00000000 trap_excpt_name_tbl
0000f200 l       .data	00000000 trap_int_name_tbl
0000f63e l       .data	00000000 trap_cause_unknown_str
00010201 l       .data	00000000 endstr
00005c68 l       .text.rvtest	00000000 failedtest_terminate
00020214 l       .text.rvmodel	00000000 rvmodel_halt_fail
0000f150 l       .data	00000000 csr_context_ret_addr
0000f7da l       .data	00000000 mepcstr
0000f7ea l       .data	00000000 mcausestr
0000f7fa l       .data	00000000 mtvalstr
0000f80a l       .data	00000000 mstatusstr
00005eb8 l       .text.rvtest	00000000 failedtest_hex_to_str_loop
00005ed4 l       .text.rvtest	00000000 failedtest_hex_to_str_digit
00005ed8 l       .text.rvtest	00000000 failedtest_hex_to_str_write
00020000 l       .text.rvmodel	00000000 rvtest_boot_to_mmode
00020000 l       .text.rvmodel	00000000 rvtest_init_regs
00010cb0 l       .data	00000000 signature_base
000201a0 l       .text.rvmodel	00000000 canary_check
0001022a l       .data	00000000 canary_mismatch
00008000 l       .data	00000000 scratch
0000f1a0 l       .data	00000000 end_failure_scratch
0000f240 l       .data	00000000 trap_excpt_name_0
0000f260 l       .data	00000000 trap_excpt_name_1
0000f27a l       .data	00000000 trap_excpt_name_2
0000f28f l       .data	00000000 trap_excpt_name_3
0000f29b l       .data	00000000 trap_excpt_name_4
0000f2b4 l       .data	00000000 trap_excpt_name_5
0000f2c7 l       .data	00000000 trap_excpt_name_6
0000f2e5 l       .data	00000000 trap_excpt_name_7
0000f2fd l       .data	00000000 trap_excpt_name_8
0000f31b l       .data	00000000 trap_excpt_name_9
0000f339 l       .data	00000000 trap_excpt_name_10
0000f358 l       .data	00000000 trap_excpt_name_11
0000f376 l       .data	00000000 trap_excpt_name_12
0000f38e l       .data	00000000 trap_excpt_name_13
0000f39f l       .data	00000000 trap_excpt_name_14
0000f3ae l       .data	00000000 trap_excpt_name_15
0000f3c4 l       .data	00000000 trap_excpt_name_16
0000f3d1 l       .data	00000000 trap_excpt_name_17
0000f3e0 l       .data	00000000 trap_excpt_name_18
0000f3f0 l       .data	00000000 trap_excpt_name_19
0000f400 l       .data	00000000 trap_excpt_name_20
0000f41e l       .data	00000000 trap_excpt_name_21
0000f435 l       .data	00000000 trap_excpt_name_22
0000f44a l       .data	00000000 trap_excpt_name_23
0000f466 l       .data	00000000 trap_int_name_0
0000f47e l       .data	00000000 trap_int_name_1
0000f49d l       .data	00000000 trap_int_name_2
0000f4c4 l       .data	00000000 trap_int_name_3
0000f4e0 l       .data	00000000 trap_int_name_4
0000f4f8 l       .data	00000000 trap_int_name_5
0000f514 l       .data	00000000 trap_int_name_6
0000f538 l       .data	00000000 trap_int_name_7
0000f551 l       .data	00000000 trap_int_name_8
0000f569 l       .data	00000000 trap_int_name_9
0000f588 l       .data	00000000 trap_int_name_10
0000f5af l       .data	00000000 trap_int_name_11
0000f5cb l       .data	00000000 trap_int_name_12
0000f5f0 l       .data	00000000 trap_int_name_13
0000f60c l       .data	00000000 trap_int_name_14
0000f625 l       .data	00000000 trap_int_name_15
0000f6df l       .data	00000000 abortstr
0000f786 l       .data	00000000 xepcstr
0000fe71 l       .data	00000000 Mclr_Vext_int_str
0000fecb l       .data	00000000 Sclr_Mext_int_str
0000ff6c l       .data	00000000 Sclr_Vext_int_str
0000ffc6 l       .data	00000000 Hclr_Mext_int_str
00010069 l       .data	00000000 Hclr_Vext_int_str
000100c4 l       .data	00000000 Vclr_Mext_int_str
00010114 l       .data	00000000 Vclr_Sext_int_str
00010167 l       .data	00000000 Vclr_Vext_int_str
000107bf l       .data	00000000 trap_diag_curr_xepc_str
00011300 l       .data	00000000 trap_sigptr
0001fd70 g       .data	00000000 end_signature
0001fd70 g       .data	00000000 rvtest_sig_end
00000000 g       .text.init	00000000 rvtest_entry_point
00010cb0 g       .data	00000000 begin_signature
00004474 g       .text.rvtest	00000000 rvtest_code_end
00000040 g       .text.rvtest	00000000 rvtest_code_begin
00010cb0 g       .data	00000000 rvtest_sig_begin
00008110 g       .data	00000000 rvtest_data_begin
00010cae g       .data	00000000 rvtest_data_end
00004474 g       .text.rvtest	00000000 cleanup_epilogs
00021000 g       .text.rvmodel	00000000 _end



Disassembly of section .text.init:

00000000 <rvtest_entry_point>:

// Include framework macros
#include "riscv_arch_test.h"

// Set up test environment and declare main entry point
RVTEST_BEGIN
   0:	00020097          	auipc	x1,0x20
   4:	00008093          	addi	x1,x1,0 # 20000 <rvmodel_boot>
   8:	00000013          	addi	x0,x0,0
   c:	00000013          	addi	x0,x0,0
  10:	00000013          	addi	x0,x0,0
  14:	00000013          	addi	x0,x0,0
  18:	00000013          	addi	x0,x0,0
  1c:	00000013          	addi	x0,x0,0
  20:	000080e7          	jalr	x1,0(x1)
  24:	00000013          	addi	x0,x0,0
  28:	00000013          	addi	x0,x0,0
  2c:	00000013          	addi	x0,x0,0
  30:	00000013          	addi	x0,x0,0
  34:	00000013          	addi	x0,x0,0
  38:	00000013          	addi	x0,x0,0
  3c:	00000013          	addi	x0,x0,0

Disassembly of section .text.rvtest:

00000040 <rvtest_code_begin>:
/////////////////////////////////
// cp_rs1
/////////////////////////////////

# Testcase cp_rs1 (Test source rs1 = x0)
  RVTEST_TESTDATA_LOAD_INT(x3, x0) # load rs1: x0 = 0xed199c2a
      40:	0001a003          	lw	x0,0(x3)
      44:	00418193          	addi	x3,x3,4
  RVTEST_TESTDATA_LOAD_INT(x3, x29) # load rs2: x29 = 0x3d120729
      48:	0001ae83          	lw	x29,0(x3)
      4c:	00418193          	addi	x3,x3,4

00000050 <I_add_cg_cp_rs1_b0>:
I_add_cg_cp_rs1_b0:
  add x28, x0, x29 # perform operation
      50:	01d00e33          	add	x28,x0,x29
  # Check if x28 contains the expected result. x2 is the signature ptr, x5 is the link ptr, x4 is a temp reg.
  RVTEST_SIGUPD(x2, x5, x4, x28, I_add_cg_cp_rs1_b0, I_add_cg_cp_rs1_b0_str)
      54:	00012203          	lw	x4,0(x2)
      58:	01c20863          	beq	x4,x28,68 <I_add_cg_cp_rs1_b0+0x18>
      5c:	460042ef          	jal	x5,44bc <failedtest_x5_x4>
      60:	00000050          	.word	0x00000050
      64:	00008d50          	.word	0x00008d50
      68:	00410113          	addi	x2,x2,4

# Testcase cp_rs1 (Test source rs1 = x1)
  RVTEST_TESTDATA_LOAD_INT(x3, x1) # load rs1: x1 = 0xf95ba545
      6c:	0001a083          	lw	x1,0(x3)
      70:	00418193          	addi	x3,x3,4
  RVTEST_TESTDATA_LOAD_INT(x3, x10) # load rs2: x10 = 0x1f8b4c83
      74:	0001a503          	lw	x10,0(x3)
      78:	00418193          	addi	x3,x3,4

0000007c <I_add_cg_cp_rs1_b1>:
I_add_cg_cp_rs1_b1:
  add x25, x1, x10 # perform operation
      7c:	00a08cb3          	add	x25,x1,x10
  # Check if x25 contains the expected result. x2 is the signature ptr, x5 is the link ptr, x4 is a temp reg.
  RVTEST_SIGUPD(x2, x5, x4, x25, I_add_cg_cp_rs1_b1, I_add_cg_cp_rs1_b1_str)
      80:	00012203          	lw	x4,0(x2)
      84:	01920863          	beq	x4,x25,94 <I_add_cg_cp_rs1_b1+0x18>
      88:	434042ef          	jal	x5,44bc <failedtest_x5_x4>
      8c:	0000007c          	.word	0x0000007c
      90:	00008d7d          	.word	0x00008d7d
      94:	00410113          	addi	x2,x2,4

  mv x30, x2 # switch signature pointer register to avoid conflict with test
      98:	00010f13          	addi	x30,x2,0
# Testcase cp_rs1 (Test source rs1 = x2)
  RVTEST_TESTDATA_LOAD_INT(x3, x2) # load rs1: x2 = 0x117cfa69
      9c:	0001a103          	lw	x2,0(x3)
      a0:	00418193          	addi	x3,x3,4
  RVTEST_TESTDATA_LOAD_INT(x3, x9) # load rs2: x9 = 0x6b5ec0b1
      a4:	0001a483          	lw	x9,0(x3)
      a8:	00418193          	addi	x3,x3,4

000000ac <I_add_cg_cp_rs1_b2>:
I_add_cg_cp_rs1_b2:
  add x26, x2, x9 # perform operation
      ac:	00910d33          	add	x26,x2,x9
  # Check if x26 contains the expected result. x30 is the signature ptr, x5 is the link ptr, x4 is a temp reg.
  RVTEST_SIGUPD(x30, x5, x4, x26, I_add_cg_cp_rs1_b2, I_add_cg_cp_rs1_b2_str)
      b0:	000f2203          	lw	x4,0(x30)
      b4:	01a20863          	beq	x4,x26,c4 <I_add_cg_cp_rs1_b2+0x18>
      b8:	404042ef          	jal	x5,44bc <failedtest_x5_x4>
      bc:	000000ac          	.word	0x000000ac
      c0:	00008daa          	.word	0x00008daa
      c4:	004f0f13          	addi	x30,x30,4

  mv x11, x3 # switch data pointer register to avoid conflict with test
      c8:	00018593          	addi	x11,x3,0
# Testcase cp_rs1 (Test source rs1 = x3)
  RVTEST_TESTDATA_LOAD_INT(x11, x3) # load rs1: x3 = 0xeec5c7fc
      cc:	0005a183          	lw	x3,0(x11)
      d0:	00458593          	addi	x11,x11,4
  RVTEST_TESTDATA_LOAD_INT(x11, x21) # load rs2: x21 = 0xd8483d27
      d4:	0005aa83          	lw	x21,0(x11)
      d8:	00458593          	addi	x11,x11,4

000000dc <I_add_cg_cp_rs1_b3>:
I_add_cg_cp_rs1_b3:
  add x25, x3, x21 # perform operation
      dc:	01518cb3          	add	x25,x3,x21
  # Check if x25 contains the expected result. x30 is the signature ptr, x5 is the link ptr, x4 is a temp reg.
  RVTEST_SIGUPD(x30, x5, x4, x25, I_add_cg_cp_rs1_b3, I_add_cg_cp_rs1_b3_str)
      e0:	000f2203          	lw	x4,0(x30)
      e4:	01920863          	beq	x4,x25,f4 <I_add_cg_cp_rs1_b3+0x18>
      e8:	3d4042ef          	jal	x5,44bc <failedtest_x5_x4>
      ec:	000000dc          	.word	0x000000dc
      f0:	00008dd7          	.word	0x00008dd7
      f4:	004f0f13          	addi	x30,x30,4

  mv x13, x4 # switch temp register to avoid conflict with test
      f8:	00020693          	addi	x13,x4,0 # 0 <rvtest_entry_point>
  mv x14, x5 # switch link pointer register to avoid conflict with test
      fc:	00028713          	addi	x14,x5,0
# Testcase cp_rs1 (Test source rs1 = x4)
  RVTEST_TESTDATA_LOAD_INT(x11, x4) # load rs1: x4 = 0xe637281b
     100:	0005a203          	lw	x4,0(x11)
     104:	00458593          	addi	x11,x11,4
  RVTEST_TESTDATA_LOAD_INT(x11, x9) # load rs2: x9 = 0xf420cbf4
     108:	0005a483          	lw	x9,0(x11)
     10c:	00458593          	addi	x11,x11,4

00000110 <I_add_cg_cp_rs1_b4>:
I_add_cg_cp_rs1_b4:
  add x16, x4, x9 # perform operation
     110:	00920833          	add	x16,x4,x9
  # Check if x16 contains the expected result. x30 is the signature ptr, x14 is the link ptr, x13 is a temp reg.
  RVTEST_SIGUPD(x30, x14, x13, x16, I_add_cg_cp_rs1_b4, I_add_cg_cp_rs1_b4_str)
     114:	000f2683          	lw	x13,0(x30)
     118:	01068863          	beq	x13,x16,128 <I_add_cg_cp_rs1_b4+0x18>
     11c:	3e00476f          	jal	x14,44fc <failedtest_x14_x13>
     120:	00000110          	.word	0x00000110
     124:	00008e04          	.word	0x00008e04
     128:	004f0f13          	addi	x30,x30,4

# Testcase cp_rs1 (Test source rs1 = x5)
  RVTEST_TESTDATA_LOAD_INT(x11, x5) # load rs1: x5 = 0x26a21865
     12c:	0005a283          	lw	x5,0(x11)
     130:	00458593          	addi	x11,x11,4
  RVTEST_TESTDATA_LOAD_INT(x11, x25) # load rs2: x25 = 0x5d018fe6
     134:	0005ac83          	lw	x25,0(x11)
     138:	00458593          	addi	x11,x11,4

0000013c <I_add_cg_cp_rs1_b5>:
I_add_cg_cp_rs1_b5:
  add x27, x5, x25 # perform operation
     13c:	01928db3          	add	x27,x5,x25
  # Check if x27 contains the expected result. x30 is the signature ptr, x14 is the link ptr, x13 is a temp reg.
  RVTEST_SIGUPD(x30, x14, x13, x27, I_add_cg_cp_rs1_b5, I_add_cg_cp_rs1_b5_str)
     140:	000f2683          	lw	x13,0(x30)
     144:	01b68863          	beq	x13,x27,154 <I_add_cg_cp_rs1_b5+0x18>
     148:	3b40476f          	jal	x14,44fc <failedtest_x14_x13>
     14c:	0000013c          	.word	0x0000013c
     150:	00008e31          	.word	0x00008e31
     154:	004f0f13          	addi	x30,x30,4

# Testcase cp_rs1 (Test source rs1 = x6)
  RVTEST_TESTDATA_LOAD_INT(x11, x6) # load rs1: x6 = 0xf8934f2d
     158:	0005a303          	lw	x6,0(x11)
     15c:	00458593          	addi	x11,x11,4
  RVTEST_TESTDATA_LOAD_INT(x11, x29) # load rs2: x29 = 0x876240f5
     160:	0005ae83          	lw	x29,0(x11)
     164:	00458593          	addi	x11,x11,4

00000168 <I_add_cg_cp_rs1_b6>:
I_add_cg_cp_rs1_b6:
  add x0, x6, x29 # perform operation
     168:	01d30033          	add	x0,x6,x29
  # Check if x0 contains the expected result. x30 is the signature ptr, x14 is the link ptr, x13 is a temp reg.
  RVTEST_SIGUPD(x30, x14, x13, x0, I_add_cg_cp_rs1_b6, I_add_cg_cp_rs1_b6_str)
     16c:	000f2683          	lw	x13,0(x30)
     170:	00068863          	beq	x13,x0,180 <I_add_cg_cp_rs1_b6+0x18>
     174:	3880476f          	jal	x14,44fc <failedtest_x14_x13>
     178:	00000168          	.word	0x00000168
     17c:	00008e5e          	.word	0x00008e5e
     180:	004f0f13          	addi	x30,x30,4

# Testcase cp_rs1 (Test source rs1 = x7)
  RVTEST_TESTDATA_LOAD_INT(x11, x7) # load rs1: x7 = 0xba52de6d
     184:	0005a383          	lw	x7,0(x11)
     188:	00458593          	addi	x11,x11,4
  RVTEST_TESTDATA_LOAD_INT(x11, x26) # load rs2: x26 = 0x2d5aee8b
     18c:	0005ad03          	lw	x26,0(x11)
     190:	00458593          	addi	x11,x11,4

00000194 <I_add_cg_cp_rs1_b7>:
I_add_cg_cp_rs1_b7:
  add x15, x7, x26 # perform operation
     194:	01a387b3          	add	x15,x7,x26
  # Check if x15 contains the expected result. x30 is the signature ptr, x14 is the link ptr, x13 is a temp reg.
  RVTEST_SIGUPD(x30, x14, x13, x15, I_add_cg_cp_rs1_b7, I_add_cg_cp_rs1_b7_str)
     198:	000f2683          	lw	x13,0(x30)
     19c:	00f68863          	beq	x13,x15,1ac <I_add_cg_cp_rs1_b7+0x18>
     1a0:	35c0476f          	jal	x14,44fc <failedtest_x14_x13>
     1a4:	00000194          	.word	0x00000194
     1a8:	00008e8b          	.word	0x00008e8b
     1ac:	004f0f13          	addi	x30,x30,4

# Testcase cp_rs1 (Test source rs1 = x8)
  RVTEST_TESTDATA_LOAD_INT(x11, x8) # load rs1: x8 = 0x1856a7fa
     1b0:	0005a403          	lw	x8,0(x11)
     1b4:	00458593          	addi	x11,x11,4
  RVTEST_TESTDATA_LOAD_INT(x11, x26) # load rs2: x26 = 0xd420d633
     1b8:	0005ad03          	lw	x26,0(x11)
     1bc:	00458593          	addi	x11,x11,4

000001c0 <I_add_cg_cp_rs1_b8>:
I_add_cg_cp_rs1_b8:
  add x25, x8, x26 # perform operation
     1c0:	01a40cb3          	add	x25,x8,x26
  # Check if x25 contains the expected result. x30 is the signature ptr, x14 is the link ptr, x13 is a temp reg.
  RVTEST_SIGUPD(x30, x14, x13, x25, I_add_cg_cp_rs1_b8, I_add_cg_cp_rs1_b8_str)
     1c4:	000f2683          	lw	x13,0(x30)
     1c8:	01968863          	beq	x13,x25,1d8 <I_add_cg_cp_rs1_b8+0x18>
     1cc:	3300476f          	jal	x14,44fc <failedtest_x14_x13>
     1d0:	000001c0          	.word	0x000001c0
     1d4:	00008eb8          	.word	0x00008eb8
     1d8:	004f0f13          	addi	x30,x30,4

# Testcase cp_rs1 (Test source rs1 = x9)
  RVTEST_TESTDATA_LOAD_INT(x11, x9) # load rs1: x9 = 0xb57e79ab
     1dc:	0005a483          	lw	x9,0(x11)
     1e0:	00458593          	addi	x11,x11,4
  RVTEST_TESTDATA_LOAD_INT(x11, x5) # load rs2: x5 = 0xb45312c3
     1e4:	0005a283          	lw	x5,0(x11)
     1e8:	00458593          	addi	x11,x11,4

000001ec <I_add_cg_cp_rs1_b9>:
I_add_cg_cp_rs1_b9:
  add x3, x9, x5 # perform operation
     1ec:	005481b3          	add	x3,x9,x5
  # Check if x3 contains the expected result. x30 is the signature ptr, x14 is the link ptr, x13 is a temp reg.
  RVTEST_SIGUPD(x30, x14, x13, x3, I_add_cg_cp_rs1_b9, I_add_cg_cp_rs1_b9_str)
     1f0:	000f2683          	lw	x13,0(x30)
     1f4:	00368863          	beq	x13,x3,204 <I_add_cg_cp_rs1_b9+0x18>
     1f8:	3040476f          	jal	x14,44fc <failedtest_x14_x13>
     1fc:	000001ec          	.word	0x000001ec
     200:	00008ee5          	.word	0x00008ee5
     204:	004f0f13          	addi	x30,x30,4

# Testcase cp_rs1 (Test source rs1 = x10)
  RVTEST_TESTDATA_LOAD_INT(x11, x10) # load rs1: x10 = 0x802e5cbe
     208:	0005a503          	lw	x10,0(x11)
     20c:	00458593          	addi	x11,x11,4
  RVTEST_TESTDATA_LOAD_INT(x11, x31) # load rs2: x31 = 0x0f865f5c
     210:	0005af83          	lw	x31,0(x11)
     214:	00458593          	addi	x11,x11,4

00000218 <I_add_cg_cp_rs1_b10>:
I_add_cg_cp_rs1_b10:
  add x26, x10, x31 # perform operation
     218:	01f50d33          	add	x26,x10,x31
  # Check if x26 contains the expected result. x30 is the signature ptr, x14 is the link ptr, x13 is a temp reg.
  RVTEST_SIGUPD(x30, x14, x13, x26, I_add_cg_cp_rs1_b10, I_add_cg_cp_rs1_b10_str)
     21c:	000f2683          	lw	x13,0(x30)
     220:	01a68863          	beq	x13,x26,230 <I_add_cg_cp_rs1_b10+0x18>
     224:	2d80476f          	jal	x14,44fc <failedtest_x14_x13>
     228:	00000218          	.word	0x00000218
     22c:	00008f13          	.word	0x00008f13
     230:	004f0f13          	addi	x30,x30,4

  mv x20, x11 # switch data pointer register to avoid conflict with test
     234:	00058a13          	addi	x20,x11,0
# Testcase cp_rs1 (Test source rs1 = x11)
  RVTEST_TESTDATA_LOAD_INT(x20, x11) # load rs1: x11 = 0xbe498d49
     238:	000a2583          	lw	x11,0(x20)
     23c:	004a0a13          	addi	x20,x20,4
  RVTEST_TESTDATA_LOAD_INT(x20, x8) # load rs2: x8 = 0x5939c511
     240:	000a2403          	lw	x8,0(x20)
     244:	004a0a13          	addi	x20,x20,4

00000248 <I_add_cg_cp_rs1_b11>:
I_add_cg_cp_rs1_b11:
  add x4, x11, x8 # perform operation
     248:	00858233          	add	x4,x11,x8
  # Check if x4 contains the expected result. x30 is the signature ptr, x14 is the link ptr, x13 is a temp reg.
  RVTEST_SIGUPD(x30, x14, x13, x4, I_add_cg_cp_rs1_b11, I_add_cg_cp_rs1_b11_str)
     24c:	000f2683          	lw	x13,0(x30)
     250:	00468863          	beq	x13,x4,260 <I_add_cg_cp_rs1_b11+0x18>
     254:	2a80476f          	jal	x14,44fc <failedtest_x14_x13>
     258:	00000248          	.word	0x00000248
     25c:	00008f42          	.word	0x00008f42
     260:	004f0f13          	addi	x30,x30,4

# Testcase cp_rs1 (Test source rs1 = x12)
  RVTEST_TESTDATA_LOAD_INT(x20, x12) # load rs1: x12 = 0x72a0d783
     264:	000a2603          	lw	x12,0(x20)
     268:	004a0a13          	addi	x20,x20,4
  RVTEST_TESTDATA_LOAD_INT(x20, x1) # load rs2: x1 = 0x38679e11
     26c:	000a2083          	lw	x1,0(x20)
     270:	004a0a13          	addi	x20,x20,4

00000274 <I_add_cg_cp_rs1_b12>:
I_add_cg_cp_rs1_b12:
  add x11, x12, x1 # perform operation
     274:	001605b3          	add	x11,x12,x1
  # Check if x11 contains the expected result. x30 is the signature ptr, x14 is the link ptr, x13 is a temp reg.
  RVTEST_SIGUPD(x30, x14, x13, x11, I_add_cg_cp_rs1_b12, I_add_cg_cp_rs1_b12_str)
     278:	000f2683          	lw	x13,0(x30)
     27c:	00b68863          	beq	x13,x11,28c <I_add_cg_cp_rs1_b12+0x18>
     280:	27c0476f          	jal	x14,44fc <failedtest_x14_x13>
     284:	00000274          	.word	0x00000274
     288:	00008f71          	.word	0x00008f71
     28c:	004f0f13          	addi	x30,x30,4

  mv x4, x13 # switch temp register to avoid conflict with test
     290:	00068213          	addi	x4,x13,0
  mv x5, x14 # switch link pointer register to avoid conflict with test
     294:	00070293          	addi	x5,x14,0
# Testcase cp_rs1 (Test source rs1 = x13)
  RVTEST_TESTDATA_LOAD_INT(x20, x13) # load rs1: x13 = 0x70a493f3
     298:	000a2683          	lw	x13,0(x20)
     29c:	004a0a13          	addi	x20,x20,4
  RVTEST_TESTDATA_LOAD_INT(x20, x11) # load rs2: x11 = 0xc758b40b
     2a0:	000a2583          	lw	x11,0(x20)
     2a4:	004a0a13          	addi	x20,x20,4

000002a8 <I_add_cg_cp_rs1_b13>:
I_add_cg_cp_rs1_b13:
  add x25, x13, x11 # perform operation
     2a8:	00b68cb3          	add	x25,x13,x11
  # Check if x25 contains the expected result. x30 is the signature ptr, x5 is the link ptr, x4 is a temp reg.
  RVTEST_SIGUPD(x30, x5, x4, x25, I_add_cg_cp_rs1_b13, I_add_cg_cp_rs1_b13_str)
     2ac:	000f2203          	lw	x4,0(x30)
     2b0:	01920863          	beq	x4,x25,2c0 <I_add_cg_cp_rs1_b13+0x18>
     2b4:	208042ef          	jal	x5,44bc <failedtest_x5_x4>
     2b8:	000002a8          	.word	0x000002a8
     2bc:	00008fa0          	.word	0x00008fa0
     2c0:	004f0f13          	addi	x30,x30,4

# Testcase cp_rs1 (Test source rs1 = x14)
  RVTEST_TESTDATA_LOAD_INT(x20, x14) # load rs1: x14 = 0x40214e38
     2c4:	000a2703          	lw	x14,0(x20)
     2c8:	004a0a13          	addi	x20,x20,4
  RVTEST_TESTDATA_LOAD_INT(x20, x19) # load rs2: x19 = 0x981d9fac
     2cc:	000a2983          	lw	x19,0(x20)
     2d0:	004a0a13          	addi	x20,x20,4

000002d4 <I_add_cg_cp_rs1_b14>:
I_add_cg_cp_rs1_b14:
  add x11, x14, x19 # perform operation
     2d4:	013705b3          	add	x11,x14,x19
  # Check if x11 contains the expected result. x30 is the signature ptr, x5 is the link ptr, x4 is a temp reg.
  RVTEST_SIGUPD(x30, x5, x4, x11, I_add_cg_cp_rs1_b14, I_add_cg_cp_rs1_b14_str)
     2d8:	000f2203          	lw	x4,0(x30)
     2dc:	00b20863          	beq	x4,x11,2ec <I_add_cg_cp_rs1_b14+0x18>
     2e0:	1dc042ef          	jal	x5,44bc <failedtest_x5_x4>
     2e4:	000002d4          	.word	0x000002d4
     2e8:	00008fcf          	.word	0x00008fcf
     2ec:	004f0f13          	addi	x30,x30,4

# Testcase cp_rs1 (Test source rs1 = x15)
  RVTEST_TESTDATA_LOAD_INT(x20, x15) # load rs1: x15 = 0x260bef0c
     2f0:	000a2783          	lw	x15,0(x20)
     2f4:	004a0a13          	addi	x20,x20,4
  RVTEST_TESTDATA_LOAD_INT(x20, x29) # load rs2: x29 = 0x76c6e227
     2f8:	000a2e83          	lw	x29,0(x20)
     2fc:	004a0a13          	addi	x20,x20,4

00000300 <I_add_cg_cp_rs1_b15>:
I_add_cg_cp_rs1_b15:
  add x28, x15, x29 # perform operation
     300:	01d78e33          	add	x28,x15,x29
  # Check if x28 contains the expected result. x30 is the signature ptr, x5 is the link ptr, x4 is a temp reg.
  RVTEST_SIGUPD(x30, x5, x4, x28, I_add_cg_cp_rs1_b15, I_add_cg_cp_rs1_b15_str)
     304:	000f2203          	lw	x4,0(x30)
     308:	01c20863          	beq	x4,x28,318 <imm12+0xf>
     30c:	1b0042ef          	jal	x5,44bc <failedtest_x5_x4>
     310:	00000300          	.word	0x00000300
     314:	00008ffe          	.word	0x00008ffe
     318:	004f0f13          	addi	x30,x30,4

# Testcase cp_rs1 (Test source rs1 = x16)
  RVTEST_TESTDATA_LOAD_INT(x20, x16) # load rs1: x16 = 0x461ad3a3
     31c:	000a2803          	lw	x16,0(x20)
     320:	004a0a13          	addi	x20,x20,4
  RVTEST_TESTDATA_LOAD_INT(x20, x22) # load rs2: x22 = 0xfa1129a5
     324:	000a2b03          	lw	x22,0(x20)
     328:	004a0a13          	addi	x20,x20,4

0000032c <I_add_cg_cp_rs1_b16>:
I_add_cg_cp_rs1_b16:
  add x17, x16, x22 # perform operation
     32c:	016808b3          	add	x17,x16,x22
  # Check if x17 contains the expected result. x30 is the signature ptr, x5 is the link ptr, x4 is a temp reg.
  RVTEST_SIGUPD(x30, x5, x4, x17, I_add_cg_cp_rs1_b16, I_add_cg_cp_rs1_b16_str)
     330:	000f2203          	lw	x4,0(x30)
     334:	01120863          	beq	x4,x17,344 <I_add_cg_cp_rs1_b16+0x18>
     338:	184042ef          	jal	x5,44bc <failedtest_x5_x4>
     33c:	0000032c          	.word	0x0000032c
     340:	0000902d          	.word	0x0000902d
     344:	004f0f13          	addi	x30,x30,4

# Testcase cp_rs1 (Test source rs1 = x17)
  RVTEST_TESTDATA_LOAD_INT(x20, x17) # load rs1: x17 = 0x4afda77e
     348:	000a2883          	lw	x17,0(x20)
     34c:	004a0a13          	addi	x20,x20,4
  RVTEST_TESTDATA_LOAD_INT(x20, x2) # load rs2: x2 = 0x5cc11b57
     350:	000a2103          	lw	x2,0(x20)
     354:	004a0a13          	addi	x20,x20,4

00000358 <I_add_cg_cp_rs1_b17>:
I_add_cg_cp_rs1_b17:
  add x27, x17, x2 # perform operation
     358:	00288db3          	add	x27,x17,x2
  # Check if x27 contains the expected result. x30 is the signature ptr, x5 is the link ptr, x4 is a temp reg.
  RVTEST_SIGUPD(x30, x5, x4, x27, I_add_cg_cp_rs1_b17, I_add_cg_cp_rs1_b17_str)
     35c:	000f2203          	lw	x4,0(x30)
     360:	01b20863          	beq	x4,x27,370 <I_add_cg_cp_rs1_b17+0x18>
     364:	158042ef          	jal	x5,44bc <failedtest_x5_x4>
     368:	00000358          	.word	0x00000358
     36c:	0000905c          	.word	0x0000905c
     370:	004f0f13          	addi	x30,x30,4

# Testcase cp_rs1 (Test source rs1 = x18)
  RVTEST_TESTDATA_LOAD_INT(x20, x18) # load rs1: x18 = 0xbfb50e27
     374:	000a2903          	lw	x18,0(x20)
     378:	004a0a13          	addi	x20,x20,4
  RVTEST_TESTDATA_LOAD_INT(x20, x24) # load rs2: x24 = 0xa2773413
     37c:	000a2c03          	lw	x24,0(x20)
     380:	004a0a13          	addi	x20,x20,4

00000384 <I_add_cg_cp_rs1_b18>:
I_add_cg_cp_rs1_b18:
  add x26, x18, x24 # perform operation
     384:	01890d33          	add	x26,x18,x24
  # Check if x26 contains the expected result. x30 is the signature ptr, x5 is the link ptr, x4 is a temp reg.
  RVTEST_SIGUPD(x30, x5, x4, x26, I_add_cg_cp_rs1_b18, I_add_cg_cp_rs1_b18_str)
     388:	000f2203          	lw	x4,0(x30)
     38c:	01a20863          	beq	x4,x26,39c <I_add_cg_cp_rs1_b18+0x18>
     390:	12c042ef          	jal	x5,44bc <failedtest_x5_x4>
     394:	00000384          	.word	0x00000384
     398:	0000908b          	.word	0x0000908b
     39c:	004f0f13          	addi	x30,x30,4

# Testcase cp_rs1 (Test source rs1 = x19)
  RVTEST_TESTDATA_LOAD_INT(x20, x19) # load rs1: x19 = 0x1483c110
     3a0:	000a2983          	lw	x19,0(x20)
     3a4:	004a0a13          	addi	x20,x20,4
  RVTEST_TESTDATA_LOAD_INT(x20, x13) # load rs2: x13 = 0x41796538
     3a8:	000a2683          	lw	x13,0(x20)
     3ac:	004a0a13          	addi	x20,x20,4

000003b0 <I_add_cg_cp_rs1_b19>:
I_add_cg_cp_rs1_b19:
  add x9, x19, x13 # perform operation
     3b0:	00d984b3          	add	x9,x19,x13
  # Check if x9 contains the expected result. x30 is the signature ptr, x5 is the link ptr, x4 is a temp reg.
  RVTEST_SIGUPD(x30, x5, x4, x9, I_add_cg_cp_rs1_b19, I_add_cg_cp_rs1_b19_str)
     3b4:	000f2203          	lw	x4,0(x30)
     3b8:	00920863          	beq	x4,x9,3c8 <I_add_cg_cp_rs1_b19+0x18>
     3bc:	100042ef          	jal	x5,44bc <failedtest_x5_x4>
     3c0:	000003b0          	.word	0x000003b0
     3c4:	000090ba          	.word	0x000090ba
     3c8:	004f0f13          	addi	x30,x30,4

  mv x27, x20 # switch data pointer register to avoid conflict with test
     3cc:	000a0d93          	addi	x27,x20,0
# Testcase cp_rs1 (Test source rs1 = x20)
  RVTEST_TESTDATA_LOAD_INT(x27, x20) # load rs1: x20 = 0xfc59e86f
     3d0:	000daa03          	lw	x20,0(x27)
     3d4:	004d8d93          	addi	x27,x27,4
  RVTEST_TESTDATA_LOAD_INT(x27, x22) # load rs2: x22 = 0x88c2eb61
     3d8:	000dab03          	lw	x22,0(x27)
     3dc:	004d8d93          	addi	x27,x27,4

000003e0 <I_add_cg_cp_rs1_b20>:
I_add_cg_cp_rs1_b20:
  add x8, x20, x22 # perform operation
     3e0:	016a0433          	add	x8,x20,x22
  # Check if x8 contains the expected result. x30 is the signature ptr, x5 is the link ptr, x4 is a temp reg.
  RVTEST_SIGUPD(x30, x5, x4, x8, I_add_cg_cp_rs1_b20, I_add_cg_cp_rs1_b20_str)
     3e4:	000f2203          	lw	x4,0(x30)
     3e8:	00820863          	beq	x4,x8,3f8 <I_add_cg_cp_rs1_b20+0x18>
     3ec:	0d0042ef          	jal	x5,44bc <failedtest_x5_x4>
     3f0:	000003e0          	.word	0x000003e0
     3f4:	000090e9          	.word	0x000090e9
     3f8:	004f0f13          	addi	x30,x30,4

# Testcase cp_rs1 (Test source rs1 = x21)
  RVTEST_TESTDATA_LOAD_INT(x27, x21) # load rs1: x21 = 0x17e1045d
     3fc:	000daa83          	lw	x21,0(x27)
     400:	004d8d93          	addi	x27,x27,4
  RVTEST_TESTDATA_LOAD_INT(x27, x26) # load rs2: x26 = 0x36ec53d3
     404:	000dad03          	lw	x26,0(x27)
     408:	004d8d93          	addi	x27,x27,4

0000040c <I_add_cg_cp_rs1_b21>:
I_add_cg_cp_rs1_b21:
  add x7, x21, x26 # perform operation
     40c:	01aa83b3          	add	x7,x21,x26
  # Check if x7 contains the expected result. x30 is the signature ptr, x5 is the link ptr, x4 is a temp reg.
  RVTEST_SIGUPD(x30, x5, x4, x7, I_add_cg_cp_rs1_b21, I_add_cg_cp_rs1_b21_str)
     410:	000f2203          	lw	x4,0(x30)
     414:	00720863          	beq	x4,x7,424 <I_add_cg_cp_rs1_b21+0x18>
     418:	0a4042ef          	jal	x5,44bc <failedtest_x5_x4>
     41c:	0000040c          	.word	0x0000040c
     420:	00009118          	.word	0x00009118
     424:	004f0f13          	addi	x30,x30,4

# Testcase cp_rs1 (Test source rs1 = x22)
  RVTEST_TESTDATA_LOAD_INT(x27, x22) # load rs1: x22 = 0xfbba752e
     428:	000dab03          	lw	x22,0(x27)
     42c:	004d8d93          	addi	x27,x27,4
  RVTEST_TESTDATA_LOAD_INT(x27, x6) # load rs2: x6 = 0xf0c74336
     430:	000da303          	lw	x6,0(x27)
     434:	004d8d93          	addi	x27,x27,4

00000438 <I_add_cg_cp_rs1_b22>:
I_add_cg_cp_rs1_b22:
  add x26, x22, x6 # perform operation
     438:	006b0d33          	add	x26,x22,x6
  # Check if x26 contains the expected result. x30 is the signature ptr, x5 is the link ptr, x4 is a temp reg.
  RVTEST_SIGUPD(x30, x5, x4, x26, I_add_cg_cp_rs1_b22, I_add_cg_cp_rs1_b22_str)
     43c:	000f2203          	lw	x4,0(x30)
     440:	01a20863          	beq	x4,x26,450 <I_add_cg_cp_rs1_b22+0x18>
     444:	078042ef          	jal	x5,44bc <failedtest_x5_x4>
     448:	00000438          	.word	0x00000438
     44c:	00009147          	.word	0x00009147
     450:	004f0f13          	addi	x30,x30,4

# Testcase cp_rs1 (Test source rs1 = x23)
  RVTEST_TESTDATA_LOAD_INT(x27, x23) # load rs1: x23 = 0xdb6f1137
     454:	000dab83          	lw	x23,0(x27)
     458:	004d8d93          	addi	x27,x27,4
  RVTEST_TESTDATA_LOAD_INT(x27, x19) # load rs2: x19 = 0xc29ebecd
     45c:	000da983          	lw	x19,0(x27)
     460:	004d8d93          	addi	x27,x27,4

00000464 <I_add_cg_cp_rs1_b23>:
I_add_cg_cp_rs1_b23:
  add x3, x23, x19 # perform operation
     464:	013b81b3          	add	x3,x23,x19
  # Check if x3 contains the expected result. x30 is the signature ptr, x5 is the link ptr, x4 is a temp reg.
  RVTEST_SIGUPD(x30, x5, x4, x3, I_add_cg_cp_rs1_b23, I_add_cg_cp_rs1_b23_str)
     468:	000f2203          	lw	x4,0(x30)
     46c:	00320863          	beq	x4,x3,47c <I_add_cg_cp_rs1_b23+0x18>
     470:	04c042ef          	jal	x5,44bc <failedtest_x5_x4>
     474:	00000464          	.word	0x00000464
     478:	00009176          	.word	0x00009176
     47c:	004f0f13          	addi	x30,x30,4

# Testcase cp_rs1 (Test source rs1 = x24)
  RVTEST_TESTDATA_LOAD_INT(x27, x24) # load rs1: x24 = 0x78e8edfc
     480:	000dac03          	lw	x24,0(x27)
     484:	004d8d93          	addi	x27,x27,4
  RVTEST_TESTDATA_LOAD_INT(x27, x20) # load rs2: x20 = 0x5ccbb261
     488:	000daa03          	lw	x20,0(x27)
     48c:	004d8d93          	addi	x27,x27,4

00000490 <I_add_cg_cp_rs1_b24>:
I_add_cg_cp_rs1_b24:
  add x16, x24, x20 # perform operation
     490:	014c0833          	add	x16,x24,x20
  # Check if x16 contains the expected result. x30 is the signature ptr, x5 is the link ptr, x4 is a temp reg.
  RVTEST_SIGUPD(x30, x5, x4, x16, I_add_cg_cp_rs1_b24, I_add_cg_cp_rs1_b24_str)
     494:	000f2203          	lw	x4,0(x30)
     498:	01020863          	beq	x4,x16,4a8 <I_add_cg_cp_rs1_b24+0x18>
     49c:	020042ef          	jal	x5,44bc <failedtest_x5_x4>
     4a0:	00000490          	.word	0x00000490
     4a4:	000091a5          	.word	0x000091a5
     4a8:	004f0f13          	addi	x30,x30,4

# Testcase cp_rs1 (Test source rs1 = x25)
  RVTEST_TESTDATA_LOAD_INT(x27, x25) # load rs1: x25 = 0xfed08e43
     4ac:	000dac83          	lw	x25,0(x27)
     4b0:	004d8d93          	addi	x27,x27,4
  RVTEST_TESTDATA_LOAD_INT(x27, x2) # load rs2: x2 = 0x27bb3ee5
     4b4:	000da103          	lw	x2,0(x27)
     4b8:	004d8d93          	addi	x27,x27,4

000004bc <I_add_cg_cp_rs1_b25>:
I_add_cg_cp_rs1_b25:
  add x9, x25, x2 # perform operation
     4bc:	002c84b3          	add	x9,x25,x2
  # Check if x9 contains the expected result. x30 is the signature ptr, x5 is the link ptr, x4 is a temp reg.
  RVTEST_SIGUPD(x30, x5, x4, x9, I_add_cg_cp_rs1_b25, I_add_cg_cp_rs1_b25_str)
     4c0:	000f2203          	lw	x4,0(x30)
     4c4:	00920863          	beq	x4,x9,4d4 <I_add_cg_cp_rs1_b25+0x18>
     4c8:	7f5032ef          	jal	x5,44bc <failedtest_x5_x4>
     4cc:	000004bc          	.word	0x000004bc
     4d0:	000091d4          	.word	0x000091d4
     4d4:	004f0f13          	addi	x30,x30,4

# Testcase cp_rs1 (Test source rs1 = x26)
  RVTEST_TESTDATA_LOAD_INT(x27, x26) # load rs1: x26 = 0x2abf7cf7
     4d8:	000dad03          	lw	x26,0(x27)
     4dc:	004d8d93          	addi	x27,x27,4
  RVTEST_TESTDATA_LOAD_INT(x27, x7) # load rs2: x7 = 0x93f42a31
     4e0:	000da383          	lw	x7,0(x27)
     4e4:	004d8d93          	addi	x27,x27,4

000004e8 <I_add_cg_cp_rs1_b26>:
I_add_cg_cp_rs1_b26:
  add x10, x26, x7 # perform operation
     4e8:	007d0533          	add	x10,x26,x7
  # Check if x10 contains the expected result. x30 is the signature ptr, x5 is the link ptr, x4 is a temp reg.
  RVTEST_SIGUPD(x30, x5, x4, x10, I_add_cg_cp_rs1_b26, I_add_cg_cp_rs1_b26_str)
     4ec:	000f2203          	lw	x4,0(x30)
     4f0:	00a20863          	beq	x4,x10,500 <I_add_cg_cp_rs1_b26+0x18>
     4f4:	7c9032ef          	jal	x5,44bc <failedtest_x5_x4>
     4f8:	000004e8          	.word	0x000004e8
     4fc:	00009203          	.word	0x00009203
     500:	004f0f13          	addi	x30,x30,4

  mv x11, x27 # switch data pointer register to avoid conflict with test
     504:	000d8593          	addi	x11,x27,0
# Testcase cp_rs1 (Test source rs1 = x27)
  RVTEST_TESTDATA_LOAD_INT(x11, x27) # load rs1: x27 = 0xc71a0e78
     508:	0005ad83          	lw	x27,0(x11)
     50c:	00458593          	addi	x11,x11,4
  RVTEST_TESTDATA_LOAD_INT(x11, x19) # load rs2: x19 = 0xffc9caef
     510:	0005a983          	lw	x19,0(x11)
     514:	00458593          	addi	x11,x11,4

00000518 <I_add_cg_cp_rs1_b27>:
I_add_cg_cp_rs1_b27:
  add x10, x27, x19 # perform operation
     518:	013d8533          	add	x10,x27,x19
  # Check if x10 contains the expected result. x30 is the signature ptr, x5 is the link ptr, x4 is a temp reg.
  RVTEST_SIGUPD(x30, x5, x4, x10, I_add_cg_cp_rs1_b27, I_add_cg_cp_rs1_b27_str)
     51c:	000f2203          	lw	x4,0(x30)
     520:	00a20863          	beq	x4,x10,530 <I_add_cg_cp_rs1_b27+0x18>
     524:	799032ef          	jal	x5,44bc <failedtest_x5_x4>
     528:	00000518          	.word	0x00000518
     52c:	00009232          	.word	0x00009232
     530:	004f0f13          	addi	x30,x30,4

# Testcase cp_rs1 (Test source rs1 = x28)
  RVTEST_TESTDATA_LOAD_INT(x11, x28) # load rs1: x28 = 0xabc8b3e9
     534:	0005ae03          	lw	x28,0(x11)
     538:	00458593          	addi	x11,x11,4
  RVTEST_TESTDATA_LOAD_INT(x11, x1) # load rs2: x1 = 0x540d414f
     53c:	0005a083          	lw	x1,0(x11)
     540:	00458593          	addi	x11,x11,4

00000544 <I_add_cg_cp_rs1_b28>:
I_add_cg_cp_rs1_b28:
  add x13, x28, x1 # perform operation
     544:	001e06b3          	add	x13,x28,x1
  # Check if x13 contains the expected result. x30 is the signature ptr, x5 is the link ptr, x4 is a temp reg.
  RVTEST_SIGUPD(x30, x5, x4, x13, I_add_cg_cp_rs1_b28, I_add_cg_cp_rs1_b28_str)
     548:	000f2203          	lw	x4,0(x30)
     54c:	00d20863          	beq	x4,x13,55c <I_add_cg_cp_rs1_b28+0x18>
     550:	76d032ef          	jal	x5,44bc <failedtest_x5_x4>
     554:	00000544          	.word	0x00000544
     558:	00009261          	.word	0x00009261
     55c:	004f0f13          	addi	x30,x30,4

# Testcase cp_rs1 (Test source rs1 = x29)
  RVTEST_TESTDATA_LOAD_INT(x11, x29) # load rs1: x29 = 0x27de3f8b
     560:	0005ae83          	lw	x29,0(x11)
     564:	00458593          	addi	x11,x11,4
  RVTEST_TESTDATA_LOAD_INT(x11, x0) # load rs2: x0 = 0x4509d639
     568:	0005a003          	lw	x0,0(x11)
     56c:	00458593          	addi	x11,x11,4

00000570 <I_add_cg_cp_rs1_b29>:
I_add_cg_cp_rs1_b29:
  add x28, x29, x0 # perform operation
     570:	000e8e33          	add	x28,x29,x0
  # Check if x28 contains the expected result. x30 is the signature ptr, x5 is the link ptr, x4 is a temp reg.
  RVTEST_SIGUPD(x30, x5, x4, x28, I_add_cg_cp_rs1_b29, I_add_cg_cp_rs1_b29_str)
     574:	000f2203          	lw	x4,0(x30)
     578:	01c20863          	beq	x4,x28,588 <I_add_cg_cp_rs1_b29+0x18>
     57c:	741032ef          	jal	x5,44bc <failedtest_x5_x4>
     580:	00000570          	.word	0x00000570
     584:	00009290          	.word	0x00009290
     588:	004f0f13          	addi	x30,x30,4

  mv x31, x30 # switch signature pointer register to avoid conflict with test
     58c:	000f0f93          	addi	x31,x30,0
# Testcase cp_rs1 (Test source rs1 = x30)
  RVTEST_TESTDATA_LOAD_INT(x11, x30) # load rs1: x30 = 0x1a7149e4
     590:	0005af03          	lw	x30,0(x11)
     594:	00458593          	addi	x11,x11,4
  RVTEST_TESTDATA_LOAD_INT(x11, x19) # load rs2: x19 = 0x88d1e689
     598:	0005a983          	lw	x19,0(x11)
     59c:	00458593          	addi	x11,x11,4

000005a0 <I_add_cg_cp_rs1_b30>:
I_add_cg_cp_rs1_b30:
  add x24, x30, x19 # perform operation
     5a0:	013f0c33          	add	x24,x30,x19
  # Check if x24 contains the expected result. x31 is the signature ptr, x5 is the link ptr, x4 is a temp reg.
  RVTEST_SIGUPD(x31, x5, x4, x24, I_add_cg_cp_rs1_b30, I_add_cg_cp_rs1_b30_str)
     5a4:	000fa203          	lw	x4,0(x31)
     5a8:	01820863          	beq	x4,x24,5b8 <I_add_cg_cp_rs1_b30+0x18>
     5ac:	711032ef          	jal	x5,44bc <failedtest_x5_x4>
     5b0:	000005a0          	.word	0x000005a0
     5b4:	000092bf          	.word	0x000092bf
     5b8:	004f8f93          	addi	x31,x31,4

  mv x1, x31 # switch signature pointer register to avoid conflict with test
     5bc:	000f8093          	addi	x1,x31,0
# Testcase cp_rs1 (Test source rs1 = x31)
  RVTEST_TESTDATA_LOAD_INT(x11, x31) # load rs1: x31 = 0xa9fe1b24
     5c0:	0005af83          	lw	x31,0(x11)
     5c4:	00458593          	addi	x11,x11,4
  RVTEST_TESTDATA_LOAD_INT(x11, x26) # load rs2: x26 = 0xfdfb2019
     5c8:	0005ad03          	lw	x26,0(x11)
     5cc:	00458593          	addi	x11,x11,4

000005d0 <I_add_cg_cp_rs1_b31>:
I_add_cg_cp_rs1_b31:
  add x14, x31, x26 # perform operation
     5d0:	01af8733          	add	x14,x31,x26
  # Check if x14 contains the expected result. x1 is the signature ptr, x5 is the link ptr, x4 is a temp reg.
  RVTEST_SIGUPD(x1, x5, x4, x14, I_add_cg_cp_rs1_b31, I_add_cg_cp_rs1_b31_str)
     5d4:	0000a203          	lw	x4,0(x1)
     5d8:	00e20863          	beq	x4,x14,5e8 <I_add_cg_cp_rs1_b31+0x18>
     5dc:	6e1032ef          	jal	x5,44bc <failedtest_x5_x4>
     5e0:	000005d0          	.word	0x000005d0
     5e4:	000092ee          	.word	0x000092ee
     5e8:	00408093          	addi	x1,x1,4
/////////////////////////////////
// cp_rs2
/////////////////////////////////

# Testcase cp_rs2 (Test source rs2 = x0)
  RVTEST_TESTDATA_LOAD_INT(x11, x30) # load rs1: x30 = 0x3eaae683
     5ec:	0005af03          	lw	x30,0(x11)
     5f0:	00458593          	addi	x11,x11,4
  RVTEST_TESTDATA_LOAD_INT(x11, x0) # load rs2: x0 = 0x067ee1d1
     5f4:	0005a003          	lw	x0,0(x11)
     5f8:	00458593          	addi	x11,x11,4

000005fc <I_add_cg_cp_rs2_b0>:
I_add_cg_cp_rs2_b0:
  add x16, x30, x0 # perform operation
     5fc:	000f0833          	add	x16,x30,x0
  # Check if x16 contains the expected result. x1 is the signature ptr, x5 is the link ptr, x4 is a temp reg.
  RVTEST_SIGUPD(x1, x5, x4, x16, I_add_cg_cp_rs2_b0, I_add_cg_cp_rs2_b0_str)
     600:	0000a203          	lw	x4,0(x1)
     604:	01020863          	beq	x4,x16,614 <I_add_cg_cp_rs2_b0+0x18>
     608:	6b5032ef          	jal	x5,44bc <failedtest_x5_x4>
     60c:	000005fc          	.word	0x000005fc
     610:	0000931d          	.word	0x0000931d
     614:	00408093          	addi	x1,x1,4

  mv x21, x1 # switch signature pointer register to avoid conflict with test
     618:	00008a93          	addi	x21,x1,0
# Testcase cp_rs2 (Test source rs2 = x1)
  RVTEST_TESTDATA_LOAD_INT(x11, x31) # load rs1: x31 = 0x7f3dab23
     61c:	0005af83          	lw	x31,0(x11)
     620:	00458593          	addi	x11,x11,4
  RVTEST_TESTDATA_LOAD_INT(x11, x1) # load rs2: x1 = 0x0281b902
     624:	0005a083          	lw	x1,0(x11)
     628:	00458593          	addi	x11,x11,4

0000062c <I_add_cg_cp_rs2_b1>:
I_add_cg_cp_rs2_b1:
  add x27, x31, x1 # perform operation
     62c:	001f8db3          	add	x27,x31,x1
  # Check if x27 contains the expected result. x21 is the signature ptr, x5 is the link ptr, x4 is a temp reg.
  RVTEST_SIGUPD(x21, x5, x4, x27, I_add_cg_cp_rs2_b1, I_add_cg_cp_rs2_b1_str)
     630:	000aa203          	lw	x4,0(x21)
     634:	01b20863          	beq	x4,x27,644 <I_add_cg_cp_rs2_b1+0x18>
     638:	685032ef          	jal	x5,44bc <failedtest_x5_x4>
     63c:	0000062c          	.word	0x0000062c
     640:	0000934b          	.word	0x0000934b
     644:	004a8a93          	addi	x21,x21,4

# Testcase cp_rs2 (Test source rs2 = x2)
  RVTEST_TESTDATA_LOAD_INT(x11, x3) # load rs1: x3 = 0xc58c8f0b
     648:	0005a183          	lw	x3,0(x11)
     64c:	00458593          	addi	x11,x11,4
  RVTEST_TESTDATA_LOAD_INT(x11, x2) # load rs2: x2 = 0x84b811ba
     650:	0005a103          	lw	x2,0(x11)
     654:	00458593          	addi	x11,x11,4

00000658 <I_add_cg_cp_rs2_b2>:
I_add_cg_cp_rs2_b2:
  add x8, x3, x2 # perform operation
     658:	00218433          	add	x8,x3,x2
  # Check if x8 contains the expected result. x21 is the signature ptr, x5 is the link ptr, x4 is a temp reg.
  RVTEST_SIGUPD(x21, x5, x4, x8, I_add_cg_cp_rs2_b2, I_add_cg_cp_rs2_b2_str)
     65c:	000aa203          	lw	x4,0(x21)
     660:	00820863          	beq	x4,x8,670 <I_add_cg_cp_rs2_b2+0x18>
     664:	659032ef          	jal	x5,44bc <failedtest_x5_x4>
     668:	00000658          	.word	0x00000658
     66c:	00009379          	.word	0x00009379
     670:	004a8a93          	addi	x21,x21,4

# Testcase cp_rs2 (Test source rs2 = x3)
  RVTEST_TESTDATA_LOAD_INT(x11, x2) # load rs1: x2 = 0x63271b21
     674:	0005a103          	lw	x2,0(x11)
     678:	00458593          	addi	x11,x11,4
  RVTEST_TESTDATA_LOAD_INT(x11, x3) # load rs2: x3 = 0xc2e70e8a
     67c:	0005a183          	lw	x3,0(x11)
     680:	00458593          	addi	x11,x11,4

00000684 <I_add_cg_cp_rs2_b3>:
I_add_cg_cp_rs2_b3:
  add x25, x2, x3 # perform operation
     684:	00310cb3          	add	x25,x2,x3
  # Check if x25 contains the expected result. x21 is the signature ptr, x5 is the link ptr, x4 is a temp reg.
  RVTEST_SIGUPD(x21, x5, x4, x25, I_add_cg_cp_rs2_b3, I_add_cg_cp_rs2_b3_str)
     688:	000aa203          	lw	x4,0(x21)
     68c:	01920863          	beq	x4,x25,69c <I_add_cg_cp_rs2_b3+0x18>
     690:	62d032ef          	jal	x5,44bc <failedtest_x5_x4>
     694:	00000684          	.word	0x00000684
     698:	000093a7          	.word	0x000093a7
     69c:	004a8a93          	addi	x21,x21,4

  mv x13, x4 # switch temp register to avoid conflict with test
     6a0:	00020693          	addi	x13,x4,0 # 0 <rvtest_entry_point>
  mv x14, x5 # switch link pointer register to avoid conflict with test
     6a4:	00028713          	addi	x14,x5,0
# Testcase cp_rs2 (Test source rs2 = x4)
  RVTEST_TESTDATA_LOAD_INT(x11, x16) # load rs1: x16 = 0xa4e1b102
     6a8:	0005a803          	lw	x16,0(x11)
     6ac:	00458593          	addi	x11,x11,4
  RVTEST_TESTDATA_LOAD_INT(x11, x4) # load rs2: x4 = 0x0e3e6e1a
     6b0:	0005a203          	lw	x4,0(x11)
     6b4:	00458593          	addi	x11,x11,4

000006b8 <I_add_cg_cp_rs2_b4>:
I_add_cg_cp_rs2_b4:
  add x7, x16, x4 # perform operation
     6b8:	004803b3          	add	x7,x16,x4
  # Check if x7 contains the expected result. x21 is the signature ptr, x14 is the link ptr, x13 is a temp reg.
  RVTEST_SIGUPD(x21, x14, x13, x7, I_add_cg_cp_rs2_b4, I_add_cg_cp_rs2_b4_str)
     6bc:	000aa683          	lw	x13,0(x21)
     6c0:	00768863          	beq	x13,x7,6d0 <I_add_cg_cp_rs2_b4+0x18>
     6c4:	6390376f          	jal	x14,44fc <failedtest_x14_x13>
     6c8:	000006b8          	.word	0x000006b8
     6cc:	000093d5          	.word	0x000093d5
     6d0:	004a8a93          	addi	x21,x21,4

# Testcase cp_rs2 (Test source rs2 = x5)
  RVTEST_TESTDATA_LOAD_INT(x11, x31) # load rs1: x31 = 0x3b9b6e94
     6d4:	0005af83          	lw	x31,0(x11)
     6d8:	00458593          	addi	x11,x11,4
  RVTEST_TESTDATA_LOAD_INT(x11, x5) # load rs2: x5 = 0xc836c192
     6dc:	0005a283          	lw	x5,0(x11)
     6e0:	00458593          	addi	x11,x11,4

000006e4 <I_add_cg_cp_rs2_b5>:
I_add_cg_cp_rs2_b5:
  add x20, x31, x5 # perform operation
     6e4:	005f8a33          	add	x20,x31,x5
  # Check if x20 contains the expected result. x21 is the signature ptr, x14 is the link ptr, x13 is a temp reg.
  RVTEST_SIGUPD(x21, x14, x13, x20, I_add_cg_cp_rs2_b5, I_add_cg_cp_rs2_b5_str)
     6e8:	000aa683          	lw	x13,0(x21)
     6ec:	01468863          	beq	x13,x20,6fc <I_add_cg_cp_rs2_b5+0x18>
     6f0:	60d0376f          	jal	x14,44fc <failedtest_x14_x13>
     6f4:	000006e4          	.word	0x000006e4
     6f8:	00009403          	.word	0x00009403
     6fc:	004a8a93          	addi	x21,x21,4

# Testcase cp_rs2 (Test source rs2 = x6)
  RVTEST_TESTDATA_LOAD_INT(x11, x29) # load rs1: x29 = 0x3b5d0235
     700:	0005ae83          	lw	x29,0(x11)
     704:	00458593          	addi	x11,x11,4
  RVTEST_TESTDATA_LOAD_INT(x11, x6) # load rs2: x6 = 0xd926fe45
     708:	0005a303          	lw	x6,0(x11)
     70c:	00458593          	addi	x11,x11,4

00000710 <I_add_cg_cp_rs2_b6>:
I_add_cg_cp_rs2_b6:
  add x5, x29, x6 # perform operation
     710:	006e82b3          	add	x5,x29,x6
  # Check if x5 contains the expected result. x21 is the signature ptr, x14 is the link ptr, x13 is a temp reg.
  RVTEST_SIGUPD(x21, x14, x13, x5, I_add_cg_cp_rs2_b6, I_add_cg_cp_rs2_b6_str)
     714:	000aa683          	lw	x13,0(x21)
     718:	00568863          	beq	x13,x5,728 <I_add_cg_cp_rs2_b6+0x18>
     71c:	5e10376f          	jal	x14,44fc <failedtest_x14_x13>
     720:	00000710          	.word	0x00000710
     724:	00009431          	.word	0x00009431
     728:	004a8a93          	addi	x21,x21,4

# Testcase cp_rs2 (Test source rs2 = x7)
  RVTEST_TESTDATA_LOAD_INT(x11, x28) # load rs1: x28 = 0xfc20a9df
     72c:	0005ae03          	lw	x28,0(x11)
     730:	00458593          	addi	x11,x11,4
  RVTEST_TESTDATA_LOAD_INT(x11, x7) # load rs2: x7 = 0xdaac48c4
     734:	0005a383          	lw	x7,0(x11)
     738:	00458593          	addi	x11,x11,4

0000073c <I_add_cg_cp_rs2_b7>:
I_add_cg_cp_rs2_b7:
  add x10, x28, x7 # perform operation
     73c:	007e0533          	add	x10,x28,x7
  # Check if x10 contains the expected result. x21 is the signature ptr, x14 is the link ptr, x13 is a temp reg.
  RVTEST_SIGUPD(x21, x14, x13, x10, I_add_cg_cp_rs2_b7, I_add_cg_cp_rs2_b7_str)
     740:	000aa683          	lw	x13,0(x21)
     744:	00a68863          	beq	x13,x10,754 <I_add_cg_cp_rs2_b7+0x18>
     748:	5b50376f          	jal	x14,44fc <failedtest_x14_x13>
     74c:	0000073c          	.word	0x0000073c
     750:	0000945f          	.word	0x0000945f
     754:	004a8a93          	addi	x21,x21,4

# Testcase cp_rs2 (Test source rs2 = x8)
  RVTEST_TESTDATA_LOAD_INT(x11, x17) # load rs1: x17 = 0x3bf88405
     758:	0005a883          	lw	x17,0(x11)
     75c:	00458593          	addi	x11,x11,4
  RVTEST_TESTDATA_LOAD_INT(x11, x8) # load rs2: x8 = 0xb4a1a140
     760:	0005a403          	lw	x8,0(x11)
     764:	00458593          	addi	x11,x11,4

00000768 <I_add_cg_cp_rs2_b8>:
I_add_cg_cp_rs2_b8:
  add x31, x17, x8 # perform operation
     768:	00888fb3          	add	x31,x17,x8
  # Check if x31 contains the expected result. x21 is the signature ptr, x14 is the link ptr, x13 is a temp reg.
  RVTEST_SIGUPD(x21, x14, x13, x31, I_add_cg_cp_rs2_b8, I_add_cg_cp_rs2_b8_str)
     76c:	000aa683          	lw	x13,0(x21)
     770:	01f68863          	beq	x13,x31,780 <I_add_cg_cp_rs2_b8+0x18>
     774:	5890376f          	jal	x14,44fc <failedtest_x14_x13>
     778:	00000768          	.word	0x00000768
     77c:	0000948d          	.word	0x0000948d
     780:	004a8a93          	addi	x21,x21,4

# Testcase cp_rs2 (Test source rs2 = x9)
  RVTEST_TESTDATA_LOAD_INT(x11, x30) # load rs1: x30 = 0xde44271a
     784:	0005af03          	lw	x30,0(x11)
     788:	00458593          	addi	x11,x11,4
  RVTEST_TESTDATA_LOAD_INT(x11, x9) # load rs2: x9 = 0x8940d7c5
     78c:	0005a483          	lw	x9,0(x11)
     790:	00458593          	addi	x11,x11,4

00000794 <I_add_cg_cp_rs2_b9>:
I_add_cg_cp_rs2_b9:
  add x17, x30, x9 # perform operation
     794:	009f08b3          	add	x17,x30,x9
  # Check if x17 contains the expected result. x21 is the signature ptr, x14 is the link ptr, x13 is a temp reg.
  RVTEST_SIGUPD(x21, x14, x13, x17, I_add_cg_cp_rs2_b9, I_add_cg_cp_rs2_b9_str)
     798:	000aa683          	lw	x13,0(x21)
     79c:	01168863          	beq	x13,x17,7ac <I_add_cg_cp_rs2_b9+0x18>
     7a0:	55d0376f          	jal	x14,44fc <failedtest_x14_x13>
     7a4:	00000794          	.word	0x00000794
     7a8:	000094bb          	.word	0x000094bb
     7ac:	004a8a93          	addi	x21,x21,4

# Testcase cp_rs2 (Test source rs2 = x10)
  RVTEST_TESTDATA_LOAD_INT(x11, x1) # load rs1: x1 = 0xe32c4825
     7b0:	0005a083          	lw	x1,0(x11)
     7b4:	00458593          	addi	x11,x11,4
  RVTEST_TESTDATA_LOAD_INT(x11, x10) # load rs2: x10 = 0x7cc721c3
     7b8:	0005a503          	lw	x10,0(x11)
     7bc:	00458593          	addi	x11,x11,4

000007c0 <I_add_cg_cp_rs2_b10>:
I_add_cg_cp_rs2_b10:
  add x30, x1, x10 # perform operation
     7c0:	00a08f33          	add	x30,x1,x10
  # Check if x30 contains the expected result. x21 is the signature ptr, x14 is the link ptr, x13 is a temp reg.
  RVTEST_SIGUPD(x21, x14, x13, x30, I_add_cg_cp_rs2_b10, I_add_cg_cp_rs2_b10_str)
     7c4:	000aa683          	lw	x13,0(x21)
     7c8:	01e68863          	beq	x13,x30,7d8 <I_add_cg_cp_rs2_b10+0x18>
     7cc:	5310376f          	jal	x14,44fc <failedtest_x14_x13>
     7d0:	000007c0          	.word	0x000007c0
     7d4:	000094e9          	.word	0x000094e9
     7d8:	004a8a93          	addi	x21,x21,4

  mv x10, x11 # switch data pointer register to avoid conflict with test
     7dc:	00058513          	addi	x10,x11,0
# Testcase cp_rs2 (Test source rs2 = x11)
  RVTEST_TESTDATA_LOAD_INT(x10, x23) # load rs1: x23 = 0x5f0316e5
     7e0:	00052b83          	lw	x23,0(x10)
     7e4:	00450513          	addi	x10,x10,4
  RVTEST_TESTDATA_LOAD_INT(x10, x11) # load rs2: x11 = 0x928e3c15
     7e8:	00052583          	lw	x11,0(x10)
     7ec:	00450513          	addi	x10,x10,4

000007f0 <I_add_cg_cp_rs2_b11>:
I_add_cg_cp_rs2_b11:
  add x8, x23, x11 # perform operation
     7f0:	00bb8433          	add	x8,x23,x11
  # Check if x8 contains the expected result. x21 is the signature ptr, x14 is the link ptr, x13 is a temp reg.
  RVTEST_SIGUPD(x21, x14, x13, x8, I_add_cg_cp_rs2_b11, I_add_cg_cp_rs2_b11_str)
     7f4:	000aa683          	lw	x13,0(x21)
     7f8:	00868863          	beq	x13,x8,808 <I_add_cg_cp_rs2_b11+0x18>
     7fc:	5010376f          	jal	x14,44fc <failedtest_x14_x13>
     800:	000007f0          	.word	0x000007f0
     804:	00009518          	.word	0x00009518
     808:	004a8a93          	addi	x21,x21,4

# Testcase cp_rs2 (Test source rs2 = x12)
  RVTEST_TESTDATA_LOAD_INT(x10, x15) # load rs1: x15 = 0x5543610b
     80c:	00052783          	lw	x15,0(x10)
     810:	00450513          	addi	x10,x10,4
  RVTEST_TESTDATA_LOAD_INT(x10, x12) # load rs2: x12 = 0xf92c9db7
     814:	00052603          	lw	x12,0(x10)
     818:	00450513          	addi	x10,x10,4

0000081c <I_add_cg_cp_rs2_b12>:
I_add_cg_cp_rs2_b12:
  add x8, x15, x12 # perform operation
     81c:	00c78433          	add	x8,x15,x12
  # Check if x8 contains the expected result. x21 is the signature ptr, x14 is the link ptr, x13 is a temp reg.
  RVTEST_SIGUPD(x21, x14, x13, x8, I_add_cg_cp_rs2_b12, I_add_cg_cp_rs2_b12_str)
     820:	000aa683          	lw	x13,0(x21)
     824:	00868863          	beq	x13,x8,834 <I_add_cg_cp_rs2_b12+0x18>
     828:	4d50376f          	jal	x14,44fc <failedtest_x14_x13>
     82c:	0000081c          	.word	0x0000081c
     830:	00009547          	.word	0x00009547
     834:	004a8a93          	addi	x21,x21,4

  mv x7, x13 # switch temp register to avoid conflict with test
     838:	00068393          	addi	x7,x13,0
  mv x8, x14 # switch link pointer register to avoid conflict with test
     83c:	00070413          	addi	x8,x14,0
# Testcase cp_rs2 (Test source rs2 = x13)
  RVTEST_TESTDATA_LOAD_INT(x10, x25) # load rs1: x25 = 0x26dd3cfe
     840:	00052c83          	lw	x25,0(x10)
     844:	00450513          	addi	x10,x10,4
  RVTEST_TESTDATA_LOAD_INT(x10, x13) # load rs2: x13 = 0x6b996319
     848:	00052683          	lw	x13,0(x10)
     84c:	00450513          	addi	x10,x10,4

00000850 <I_add_cg_cp_rs2_b13>:
I_add_cg_cp_rs2_b13:
  add x28, x25, x13 # perform operation
     850:	00dc8e33          	add	x28,x25,x13
  # Check if x28 contains the expected result. x21 is the signature ptr, x8 is the link ptr, x7 is a temp reg.
  RVTEST_SIGUPD(x21, x8, x7, x28, I_add_cg_cp_rs2_b13, I_add_cg_cp_rs2_b13_str)
     854:	000aa383          	lw	x7,0(x21)
     858:	01c38863          	beq	x7,x28,868 <I_add_cg_cp_rs2_b13+0x18>
     85c:	4790346f          	jal	x8,44d4 <failedtest_x8_x7>
     860:	00000850          	.word	0x00000850
     864:	00009576          	.word	0x00009576
     868:	004a8a93          	addi	x21,x21,4

# Testcase cp_rs2 (Test source rs2 = x14)
  RVTEST_TESTDATA_LOAD_INT(x10, x27) # load rs1: x27 = 0xfb73cb6c
     86c:	00052d83          	lw	x27,0(x10)
     870:	00450513          	addi	x10,x10,4
  RVTEST_TESTDATA_LOAD_INT(x10, x14) # load rs2: x14 = 0x4141f5f9
     874:	00052703          	lw	x14,0(x10)
     878:	00450513          	addi	x10,x10,4

0000087c <I_add_cg_cp_rs2_b14>:
I_add_cg_cp_rs2_b14:
  add x6, x27, x14 # perform operation
     87c:	00ed8333          	add	x6,x27,x14
  # Check if x6 contains the expected result. x21 is the signature ptr, x8 is the link ptr, x7 is a temp reg.
  RVTEST_SIGUPD(x21, x8, x7, x6, I_add_cg_cp_rs2_b14, I_add_cg_cp_rs2_b14_str)
     880:	000aa383          	lw	x7,0(x21)
     884:	00638863          	beq	x7,x6,894 <I_add_cg_cp_rs2_b14+0x18>
     888:	44d0346f          	jal	x8,44d4 <failedtest_x8_x7>
     88c:	0000087c          	.word	0x0000087c
     890:	000095a5          	.word	0x000095a5
     894:	004a8a93          	addi	x21,x21,4

# Testcase cp_rs2 (Test source rs2 = x15)
  RVTEST_TESTDATA_LOAD_INT(x10, x9) # load rs1: x9 = 0x05cc7e6b
     898:	00052483          	lw	x9,0(x10)
     89c:	00450513          	addi	x10,x10,4
  RVTEST_TESTDATA_LOAD_INT(x10, x15) # load rs2: x15 = 0xb757937f
     8a0:	00052783          	lw	x15,0(x10)
     8a4:	00450513          	addi	x10,x10,4

000008a8 <I_add_cg_cp_rs2_b15>:
I_add_cg_cp_rs2_b15:
  add x31, x9, x15 # perform operation
     8a8:	00f48fb3          	add	x31,x9,x15
  # Check if x31 contains the expected result. x21 is the signature ptr, x8 is the link ptr, x7 is a temp reg.
  RVTEST_SIGUPD(x21, x8, x7, x31, I_add_cg_cp_rs2_b15, I_add_cg_cp_rs2_b15_str)
     8ac:	000aa383          	lw	x7,0(x21)
     8b0:	01f38863          	beq	x7,x31,8c0 <I_add_cg_cp_rs2_b15+0x18>
     8b4:	4210346f          	jal	x8,44d4 <failedtest_x8_x7>
     8b8:	000008a8          	.word	0x000008a8
     8bc:	000095d4          	.word	0x000095d4
     8c0:	004a8a93          	addi	x21,x21,4

# Testcase cp_rs2 (Test source rs2 = x16)
  RVTEST_TESTDATA_LOAD_INT(x10, x5) # load rs1: x5 = 0xb15b6fef
     8c4:	00052283          	lw	x5,0(x10)
     8c8:	00450513          	addi	x10,x10,4
  RVTEST_TESTDATA_LOAD_INT(x10, x16) # load rs2: x16 = 0xc7966030
     8cc:	00052803          	lw	x16,0(x10)
     8d0:	00450513          	addi	x10,x10,4

000008d4 <I_add_cg_cp_rs2_b16>:
I_add_cg_cp_rs2_b16:
  add x13, x5, x16 # perform operation
     8d4:	010286b3          	add	x13,x5,x16
  # Check if x13 contains the expected result. x21 is the signature ptr, x8 is the link ptr, x7 is a temp reg.
  RVTEST_SIGUPD(x21, x8, x7, x13, I_add_cg_cp_rs2_b16, I_add_cg_cp_rs2_b16_str)
     8d8:	000aa383          	lw	x7,0(x21)
     8dc:	00d38863          	beq	x7,x13,8ec <I_add_cg_cp_rs2_b16+0x18>
     8e0:	3f50346f          	jal	x8,44d4 <failedtest_x8_x7>
     8e4:	000008d4          	.word	0x000008d4
     8e8:	00009603          	.word	0x00009603
     8ec:	004a8a93          	addi	x21,x21,4

# Testcase cp_rs2 (Test source rs2 = x17)
  RVTEST_TESTDATA_LOAD_INT(x10, x14) # load rs1: x14 = 0xa4571a9b
     8f0:	00052703          	lw	x14,0(x10)
     8f4:	00450513          	addi	x10,x10,4
  RVTEST_TESTDATA_LOAD_INT(x10, x17) # load rs2: x17 = 0x3f00be87
     8f8:	00052883          	lw	x17,0(x10)
     8fc:	00450513          	addi	x10,x10,4

00000900 <I_add_cg_cp_rs2_b17>:
I_add_cg_cp_rs2_b17:
  add x16, x14, x17 # perform operation
     900:	01170833          	add	x16,x14,x17
  # Check if x16 contains the expected result. x21 is the signature ptr, x8 is the link ptr, x7 is a temp reg.
  RVTEST_SIGUPD(x21, x8, x7, x16, I_add_cg_cp_rs2_b17, I_add_cg_cp_rs2_b17_str)
     904:	000aa383          	lw	x7,0(x21)
     908:	01038863          	beq	x7,x16,918 <I_add_cg_cp_rs2_b17+0x18>
     90c:	3c90346f          	jal	x8,44d4 <failedtest_x8_x7>
     910:	00000900          	.word	0x00000900
     914:	00009632          	.word	0x00009632
     918:	004a8a93          	addi	x21,x21,4

# Testcase cp_rs2 (Test source rs2 = x18)
  RVTEST_TESTDATA_LOAD_INT(x10, x5) # load rs1: x5 = 0xbce3e7fb
     91c:	00052283          	lw	x5,0(x10)
     920:	00450513          	addi	x10,x10,4
  RVTEST_TESTDATA_LOAD_INT(x10, x18) # load rs2: x18 = 0xeeda0414
     924:	00052903          	lw	x18,0(x10)
     928:	00450513          	addi	x10,x10,4

0000092c <I_add_cg_cp_rs2_b18>:
I_add_cg_cp_rs2_b18:
  add x11, x5, x18 # perform operation
     92c:	012285b3          	add	x11,x5,x18
  # Check if x11 contains the expected result. x21 is the signature ptr, x8 is the link ptr, x7 is a temp reg.
  RVTEST_SIGUPD(x21, x8, x7, x11, I_add_cg_cp_rs2_b18, I_add_cg_cp_rs2_b18_str)
     930:	000aa383          	lw	x7,0(x21)
     934:	00b38863          	beq	x7,x11,944 <I_add_cg_cp_rs2_b18+0x18>
     938:	39d0346f          	jal	x8,44d4 <failedtest_x8_x7>
     93c:	0000092c          	.word	0x0000092c
     940:	00009661          	.word	0x00009661
     944:	004a8a93          	addi	x21,x21,4

# Testcase cp_rs2 (Test source rs2 = x19)
  RVTEST_TESTDATA_LOAD_INT(x10, x17) # load rs1: x17 = 0x7006b21d
     948:	00052883          	lw	x17,0(x10)
     94c:	00450513          	addi	x10,x10,4
  RVTEST_TESTDATA_LOAD_INT(x10, x19) # load rs2: x19 = 0x9f384bd6
     950:	00052983          	lw	x19,0(x10)
     954:	00450513          	addi	x10,x10,4

00000958 <I_add_cg_cp_rs2_b19>:
I_add_cg_cp_rs2_b19:
  add x13, x17, x19 # perform operation
     958:	013886b3          	add	x13,x17,x19
  # Check if x13 contains the expected result. x21 is the signature ptr, x8 is the link ptr, x7 is a temp reg.
  RVTEST_SIGUPD(x21, x8, x7, x13, I_add_cg_cp_rs2_b19, I_add_cg_cp_rs2_b19_str)
     95c:	000aa383          	lw	x7,0(x21)
     960:	00d38863          	beq	x7,x13,970 <I_add_cg_cp_rs2_b19+0x18>
     964:	3710346f          	jal	x8,44d4 <failedtest_x8_x7>
     968:	00000958          	.word	0x00000958
     96c:	00009690          	.word	0x00009690
     970:	004a8a93          	addi	x21,x21,4

# Testcase cp_rs2 (Test source rs2 = x20)
  RVTEST_TESTDATA_LOAD_INT(x10, x11) # load rs1: x11 = 0x44d0ddfc
     974:	00052583          	lw	x11,0(x10)
     978:	00450513          	addi	x10,x10,4
  RVTEST_TESTDATA_LOAD_INT(x10, x20) # load rs2: x20 = 0x04beb586
     97c:	00052a03          	lw	x20,0(x10)
     980:	00450513          	addi	x10,x10,4

00000984 <I_add_cg_cp_rs2_b20>:
I_add_cg_cp_rs2_b20:
  add x12, x11, x20 # perform operation
     984:	01458633          	add	x12,x11,x20
  # Check if x12 contains the expected result. x21 is the signature ptr, x8 is the link ptr, x7 is a temp reg.
  RVTEST_SIGUPD(x21, x8, x7, x12, I_add_cg_cp_rs2_b20, I_add_cg_cp_rs2_b20_str)
     988:	000aa383          	lw	x7,0(x21)
     98c:	00c38863          	beq	x7,x12,99c <I_add_cg_cp_rs2_b20+0x18>
     990:	3450346f          	jal	x8,44d4 <failedtest_x8_x7>
     994:	00000984          	.word	0x00000984
     998:	000096bf          	.word	0x000096bf
     99c:	004a8a93          	addi	x21,x21,4

  mv x12, x21 # switch signature pointer register to avoid conflict with test
     9a0:	000a8613          	addi	x12,x21,0
# Testcase cp_rs2 (Test source rs2 = x21)
  RVTEST_TESTDATA_LOAD_INT(x10, x20) # load rs1: x20 = 0xd639a8ad
     9a4:	00052a03          	lw	x20,0(x10)
     9a8:	00450513          	addi	x10,x10,4
  RVTEST_TESTDATA_LOAD_INT(x10, x21) # load rs2: x21 = 0xf83a4f86
     9ac:	00052a83          	lw	x21,0(x10)
     9b0:	00450513          	addi	x10,x10,4

000009b4 <I_add_cg_cp_rs2_b21>:
I_add_cg_cp_rs2_b21:
  add x2, x20, x21 # perform operation
     9b4:	015a0133          	add	x2,x20,x21
  # Check if x2 contains the expected result. x12 is the signature ptr, x8 is the link ptr, x7 is a temp reg.
  RVTEST_SIGUPD(x12, x8, x7, x2, I_add_cg_cp_rs2_b21, I_add_cg_cp_rs2_b21_str)
     9b8:	00062383          	lw	x7,0(x12)
     9bc:	00238863          	beq	x7,x2,9cc <I_add_cg_cp_rs2_b21+0x18>
     9c0:	3150346f          	jal	x8,44d4 <failedtest_x8_x7>
     9c4:	000009b4          	.word	0x000009b4
     9c8:	000096ee          	.word	0x000096ee
     9cc:	00460613          	addi	x12,x12,4

# Testcase cp_rs2 (Test source rs2 = x22)
  RVTEST_TESTDATA_LOAD_INT(x10, x23) # load rs1: x23 = 0x4a9cd9de
     9d0:	00052b83          	lw	x23,0(x10)
     9d4:	00450513          	addi	x10,x10,4
  RVTEST_TESTDATA_LOAD_INT(x10, x22) # load rs2: x22 = 0x714599fc
     9d8:	00052b03          	lw	x22,0(x10)
     9dc:	00450513          	addi	x10,x10,4

000009e0 <I_add_cg_cp_rs2_b22>:
I_add_cg_cp_rs2_b22:
  add x30, x23, x22 # perform operation
     9e0:	016b8f33          	add	x30,x23,x22
  # Check if x30 contains the expected result. x12 is the signature ptr, x8 is the link ptr, x7 is a temp reg.
  RVTEST_SIGUPD(x12, x8, x7, x30, I_add_cg_cp_rs2_b22, I_add_cg_cp_rs2_b22_str)
     9e4:	00062383          	lw	x7,0(x12)
     9e8:	01e38863          	beq	x7,x30,9f8 <I_add_cg_cp_rs2_b22+0x18>
     9ec:	2e90346f          	jal	x8,44d4 <failedtest_x8_x7>
     9f0:	000009e0          	.word	0x000009e0
     9f4:	0000971d          	.word	0x0000971d
     9f8:	00460613          	addi	x12,x12,4

# Testcase cp_rs2 (Test source rs2 = x23)
  RVTEST_TESTDATA_LOAD_INT(x10, x30) # load rs1: x30 = 0xf21bdfcf
     9fc:	00052f03          	lw	x30,0(x10)
     a00:	00450513          	addi	x10,x10,4
  RVTEST_TESTDATA_LOAD_INT(x10, x23) # load rs2: x23 = 0xa93f47cc
     a04:	00052b83          	lw	x23,0(x10)
     a08:	00450513          	addi	x10,x10,4

00000a0c <I_add_cg_cp_rs2_b23>:
I_add_cg_cp_rs2_b23:
  add x27, x30, x23 # perform operation
     a0c:	017f0db3          	add	x27,x30,x23
  # Check if x27 contains the expected result. x12 is the signature ptr, x8 is the link ptr, x7 is a temp reg.
  RVTEST_SIGUPD(x12, x8, x7, x27, I_add_cg_cp_rs2_b23, I_add_cg_cp_rs2_b23_str)
     a10:	00062383          	lw	x7,0(x12)
     a14:	01b38863          	beq	x7,x27,a24 <I_add_cg_cp_rs2_b23+0x18>
     a18:	2bd0346f          	jal	x8,44d4 <failedtest_x8_x7>
     a1c:	00000a0c          	.word	0x00000a0c
     a20:	0000974c          	.word	0x0000974c
     a24:	00460613          	addi	x12,x12,4

# Testcase cp_rs2 (Test source rs2 = x24)
  RVTEST_TESTDATA_LOAD_INT(x10, x30) # load rs1: x30 = 0x5fcf6182
     a28:	00052f03          	lw	x30,0(x10)
     a2c:	00450513          	addi	x10,x10,4
  RVTEST_TESTDATA_LOAD_INT(x10, x24) # load rs2: x24 = 0x07d2aa1e
     a30:	00052c03          	lw	x24,0(x10)
     a34:	00450513          	addi	x10,x10,4

00000a38 <I_add_cg_cp_rs2_b24>:
I_add_cg_cp_rs2_b24:
  add x13, x30, x24 # perform operation
     a38:	018f06b3          	add	x13,x30,x24
  # Check if x13 contains the expected result. x12 is the signature ptr, x8 is the link ptr, x7 is a temp reg.
  RVTEST_SIGUPD(x12, x8, x7, x13, I_add_cg_cp_rs2_b24, I_add_cg_cp_rs2_b24_str)
     a3c:	00062383          	lw	x7,0(x12)
     a40:	00d38863          	beq	x7,x13,a50 <I_add_cg_cp_rs2_b24+0x18>
     a44:	2910346f          	jal	x8,44d4 <failedtest_x8_x7>
     a48:	00000a38          	.word	0x00000a38
     a4c:	0000977b          	.word	0x0000977b
     a50:	00460613          	addi	x12,x12,4

# Testcase cp_rs2 (Test source rs2 = x25)
  RVTEST_TESTDATA_LOAD_INT(x10, x27) # load rs1: x27 = 0xda7f969f
     a54:	00052d83          	lw	x27,0(x10)
     a58:	00450513          	addi	x10,x10,4
  RVTEST_TESTDATA_LOAD_INT(x10, x25) # load rs2: x25 = 0xbcef98f6
     a5c:	00052c83          	lw	x25,0(x10)
     a60:	00450513          	addi	x10,x10,4

00000a64 <I_add_cg_cp_rs2_b25>:
I_add_cg_cp_rs2_b25:
  add x29, x27, x25 # perform operation
     a64:	019d8eb3          	add	x29,x27,x25
  # Check if x29 contains the expected result. x12 is the signature ptr, x8 is the link ptr, x7 is a temp reg.
  RVTEST_SIGUPD(x12, x8, x7, x29, I_add_cg_cp_rs2_b25, I_add_cg_cp_rs2_b25_str)
     a68:	00062383          	lw	x7,0(x12)
     a6c:	01d38863          	beq	x7,x29,a7c <I_add_cg_cp_rs2_b25+0x18>
     a70:	2650346f          	jal	x8,44d4 <failedtest_x8_x7>
     a74:	00000a64          	.word	0x00000a64
     a78:	000097aa          	.word	0x000097aa
     a7c:	00460613          	addi	x12,x12,4

# Testcase cp_rs2 (Test source rs2 = x26)
  RVTEST_TESTDATA_LOAD_INT(x10, x13) # load rs1: x13 = 0xccb5eb7b
     a80:	00052683          	lw	x13,0(x10)
     a84:	00450513          	addi	x10,x10,4
  RVTEST_TESTDATA_LOAD_INT(x10, x26) # load rs2: x26 = 0xe2485bb0
     a88:	00052d03          	lw	x26,0(x10)
     a8c:	00450513          	addi	x10,x10,4

00000a90 <I_add_cg_cp_rs2_b26>:
I_add_cg_cp_rs2_b26:
  add x23, x13, x26 # perform operation
     a90:	01a68bb3          	add	x23,x13,x26
  # Check if x23 contains the expected result. x12 is the signature ptr, x8 is the link ptr, x7 is a temp reg.
  RVTEST_SIGUPD(x12, x8, x7, x23, I_add_cg_cp_rs2_b26, I_add_cg_cp_rs2_b26_str)
     a94:	00062383          	lw	x7,0(x12)
     a98:	01738863          	beq	x7,x23,aa8 <I_add_cg_cp_rs2_b26+0x18>
     a9c:	2390346f          	jal	x8,44d4 <failedtest_x8_x7>
     aa0:	00000a90          	.word	0x00000a90
     aa4:	000097d9          	.word	0x000097d9
     aa8:	00460613          	addi	x12,x12,4

# Testcase cp_rs2 (Test source rs2 = x27)
  RVTEST_TESTDATA_LOAD_INT(x10, x15) # load rs1: x15 = 0x971ed8e8
     aac:	00052783          	lw	x15,0(x10)
     ab0:	00450513          	addi	x10,x10,4
  RVTEST_TESTDATA_LOAD_INT(x10, x27) # load rs2: x27 = 0xbf9abc66
     ab4:	00052d83          	lw	x27,0(x10)
     ab8:	00450513          	addi	x10,x10,4

00000abc <I_add_cg_cp_rs2_b27>:
I_add_cg_cp_rs2_b27:
  add x18, x15, x27 # perform operation
     abc:	01b78933          	add	x18,x15,x27
  # Check if x18 contains the expected result. x12 is the signature ptr, x8 is the link ptr, x7 is a temp reg.
  RVTEST_SIGUPD(x12, x8, x7, x18, I_add_cg_cp_rs2_b27, I_add_cg_cp_rs2_b27_str)
     ac0:	00062383          	lw	x7,0(x12)
     ac4:	01238863          	beq	x7,x18,ad4 <I_add_cg_cp_rs2_b27+0x18>
     ac8:	20d0346f          	jal	x8,44d4 <failedtest_x8_x7>
     acc:	00000abc          	.word	0x00000abc
     ad0:	00009808          	.word	0x00009808
     ad4:	00460613          	addi	x12,x12,4

# Testcase cp_rs2 (Test source rs2 = x28)
  RVTEST_TESTDATA_LOAD_INT(x10, x24) # load rs1: x24 = 0x0217fb16
     ad8:	00052c03          	lw	x24,0(x10)
     adc:	00450513          	addi	x10,x10,4
  RVTEST_TESTDATA_LOAD_INT(x10, x28) # load rs2: x28 = 0x46b6bde5
     ae0:	00052e03          	lw	x28,0(x10)
     ae4:	00450513          	addi	x10,x10,4

00000ae8 <I_add_cg_cp_rs2_b28>:
I_add_cg_cp_rs2_b28:
  add x5, x24, x28 # perform operation
     ae8:	01cc02b3          	add	x5,x24,x28
  # Check if x5 contains the expected result. x12 is the signature ptr, x8 is the link ptr, x7 is a temp reg.
  RVTEST_SIGUPD(x12, x8, x7, x5, I_add_cg_cp_rs2_b28, I_add_cg_cp_rs2_b28_str)
     aec:	00062383          	lw	x7,0(x12)
     af0:	00538863          	beq	x7,x5,b00 <I_add_cg_cp_rs2_b28+0x18>
     af4:	1e10346f          	jal	x8,44d4 <failedtest_x8_x7>
     af8:	00000ae8          	.word	0x00000ae8
     afc:	00009837          	.word	0x00009837
     b00:	00460613          	addi	x12,x12,4

# Testcase cp_rs2 (Test source rs2 = x29)
  RVTEST_TESTDATA_LOAD_INT(x10, x16) # load rs1: x16 = 0x14f03448
     b04:	00052803          	lw	x16,0(x10)
     b08:	00450513          	addi	x10,x10,4
  RVTEST_TESTDATA_LOAD_INT(x10, x29) # load rs2: x29 = 0x62a240ed
     b0c:	00052e83          	lw	x29,0(x10)
     b10:	00450513          	addi	x10,x10,4

00000b14 <I_add_cg_cp_rs2_b29>:
I_add_cg_cp_rs2_b29:
  add x13, x16, x29 # perform operation
     b14:	01d806b3          	add	x13,x16,x29
  # Check if x13 contains the expected result. x12 is the signature ptr, x8 is the link ptr, x7 is a temp reg.
  RVTEST_SIGUPD(x12, x8, x7, x13, I_add_cg_cp_rs2_b29, I_add_cg_cp_rs2_b29_str)
     b18:	00062383          	lw	x7,0(x12)
     b1c:	00d38863          	beq	x7,x13,b2c <I_add_cg_cp_rs2_b29+0x18>
     b20:	1b50346f          	jal	x8,44d4 <failedtest_x8_x7>
     b24:	00000b14          	.word	0x00000b14
     b28:	00009866          	.word	0x00009866
     b2c:	00460613          	addi	x12,x12,4

# Testcase cp_rs2 (Test source rs2 = x30)
  RVTEST_TESTDATA_LOAD_INT(x10, x15) # load rs1: x15 = 0x0aac8f33
     b30:	00052783          	lw	x15,0(x10)
     b34:	00450513          	addi	x10,x10,4
  RVTEST_TESTDATA_LOAD_INT(x10, x30) # load rs2: x30 = 0xd5fe5f7c
     b38:	00052f03          	lw	x30,0(x10)
     b3c:	00450513          	addi	x10,x10,4

00000b40 <I_add_cg_cp_rs2_b30>:
I_add_cg_cp_rs2_b30:
  add x31, x15, x30 # perform operation
     b40:	01e78fb3          	add	x31,x15,x30
  # Check if x31 contains the expected result. x12 is the signature ptr, x8 is the link ptr, x7 is a temp reg.
  RVTEST_SIGUPD(x12, x8, x7, x31, I_add_cg_cp_rs2_b30, I_add_cg_cp_rs2_b30_str)
     b44:	00062383          	lw	x7,0(x12)
     b48:	01f38863          	beq	x7,x31,b58 <I_add_cg_cp_rs2_b30+0x18>
     b4c:	1890346f          	jal	x8,44d4 <failedtest_x8_x7>
     b50:	00000b40          	.word	0x00000b40
     b54:	00009895          	.word	0x00009895
     b58:	00460613          	addi	x12,x12,4

# Testcase cp_rs2 (Test source rs2 = x31)
  RVTEST_TESTDATA_LOAD_INT(x10, x15) # load rs1: x15 = 0x56e80caa
     b5c:	00052783          	lw	x15,0(x10)
     b60:	00450513          	addi	x10,x10,4
  RVTEST_TESTDATA_LOAD_INT(x10, x31) # load rs2: x31 = 0xab3bd44d
     b64:	00052f83          	lw	x31,0(x10)
     b68:	00450513          	addi	x10,x10,4

00000b6c <I_add_cg_cp_rs2_b31>:
I_add_cg_cp_rs2_b31:
  add x26, x15, x31 # perform operation
     b6c:	01f78d33          	add	x26,x15,x31
  # Check if x26 contains the expected result. x12 is the signature ptr, x8 is the link ptr, x7 is a temp reg.
  RVTEST_SIGUPD(x12, x8, x7, x26, I_add_cg_cp_rs2_b31, I_add_cg_cp_rs2_b31_str)
     b70:	00062383          	lw	x7,0(x12)
     b74:	01a38863          	beq	x7,x26,b84 <I_add_cg_cp_rs2_b31+0x18>
     b78:	15d0346f          	jal	x8,44d4 <failedtest_x8_x7>
     b7c:	00000b6c          	.word	0x00000b6c
     b80:	000098c4          	.word	0x000098c4
     b84:	00460613          	addi	x12,x12,4
/////////////////////////////////
// cp_rd
/////////////////////////////////

# Testcase cp_rd (Test destination rd = x0)
  RVTEST_TESTDATA_LOAD_INT(x10, x23) # load rs1: x23 = 0xc1d58273
     b88:	00052b83          	lw	x23,0(x10)
     b8c:	00450513          	addi	x10,x10,4
  RVTEST_TESTDATA_LOAD_INT(x10, x4) # load rs2: x4 = 0xe7ceb07b
     b90:	00052203          	lw	x4,0(x10)
     b94:	00450513          	addi	x10,x10,4

00000b98 <I_add_cg_cp_rd_b0>:
I_add_cg_cp_rd_b0:
  add x0, x23, x4 # perform operation
     b98:	004b8033          	add	x0,x23,x4
  # Check if x0 contains the expected result. x12 is the signature ptr, x8 is the link ptr, x7 is a temp reg.
  RVTEST_SIGUPD(x12, x8, x7, x0, I_add_cg_cp_rd_b0, I_add_cg_cp_rd_b0_str)
     b9c:	00062383          	lw	x7,0(x12)
     ba0:	00038863          	beq	x7,x0,bb0 <I_add_cg_cp_rd_b0+0x18>
     ba4:	1310346f          	jal	x8,44d4 <failedtest_x8_x7>
     ba8:	00000b98          	.word	0x00000b98
     bac:	000098f3          	.word	0x000098f3
     bb0:	00460613          	addi	x12,x12,4

# Testcase cp_rd (Test destination rd = x1)
  RVTEST_TESTDATA_LOAD_INT(x10, x29) # load rs1: x29 = 0x9bfbf146
     bb4:	00052e83          	lw	x29,0(x10)
     bb8:	00450513          	addi	x10,x10,4
  RVTEST_TESTDATA_LOAD_INT(x10, x25) # load rs2: x25 = 0xf9444983
     bbc:	00052c83          	lw	x25,0(x10)
     bc0:	00450513          	addi	x10,x10,4

00000bc4 <I_add_cg_cp_rd_b1>:
I_add_cg_cp_rd_b1:
  add x1, x29, x25 # perform operation
     bc4:	019e80b3          	add	x1,x29,x25
  # Check if x1 contains the expected result. x12 is the signature ptr, x8 is the link ptr, x7 is a temp reg.
  RVTEST_SIGUPD(x12, x8, x7, x1, I_add_cg_cp_rd_b1, I_add_cg_cp_rd_b1_str)
     bc8:	00062383          	lw	x7,0(x12)
     bcc:	00138863          	beq	x7,x1,bdc <I_add_cg_cp_rd_b1+0x18>
     bd0:	1050346f          	jal	x8,44d4 <failedtest_x8_x7>
     bd4:	00000bc4          	.word	0x00000bc4
     bd8:	00009920          	.word	0x00009920
     bdc:	00460613          	addi	x12,x12,4

# Testcase cp_rd (Test destination rd = x2)
  RVTEST_TESTDATA_LOAD_INT(x10, x27) # load rs1: x27 = 0x13190cdb
     be0:	00052d83          	lw	x27,0(x10)
     be4:	00450513          	addi	x10,x10,4
  RVTEST_TESTDATA_LOAD_INT(x10, x31) # load rs2: x31 = 0x1796c960
     be8:	00052f83          	lw	x31,0(x10)
     bec:	00450513          	addi	x10,x10,4

00000bf0 <I_add_cg_cp_rd_b2>:
I_add_cg_cp_rd_b2:
  add x2, x27, x31 # perform operation
     bf0:	01fd8133          	add	x2,x27,x31
  # Check if x2 contains the expected result. x12 is the signature ptr, x8 is the link ptr, x7 is a temp reg.
  RVTEST_SIGUPD(x12, x8, x7, x2, I_add_cg_cp_rd_b2, I_add_cg_cp_rd_b2_str)
     bf4:	00062383          	lw	x7,0(x12)
     bf8:	00238863          	beq	x7,x2,c08 <I_add_cg_cp_rd_b2+0x18>
     bfc:	0d90346f          	jal	x8,44d4 <failedtest_x8_x7>
     c00:	00000bf0          	.word	0x00000bf0
     c04:	0000994d          	.word	0x0000994d
     c08:	00460613          	addi	x12,x12,4

# Testcase cp_rd (Test destination rd = x3)
  RVTEST_TESTDATA_LOAD_INT(x10, x4) # load rs1: x4 = 0x9f8773de
     c0c:	00052203          	lw	x4,0(x10)
     c10:	00450513          	addi	x10,x10,4
  RVTEST_TESTDATA_LOAD_INT(x10, x29) # load rs2: x29 = 0x186da37b
     c14:	00052e83          	lw	x29,0(x10)
     c18:	00450513          	addi	x10,x10,4

00000c1c <I_add_cg_cp_rd_b3>:
I_add_cg_cp_rd_b3:
  add x3, x4, x29 # perform operation
     c1c:	01d201b3          	add	x3,x4,x29
  # Check if x3 contains the expected result. x12 is the signature ptr, x8 is the link ptr, x7 is a temp reg.
  RVTEST_SIGUPD(x12, x8, x7, x3, I_add_cg_cp_rd_b3, I_add_cg_cp_rd_b3_str)
     c20:	00062383          	lw	x7,0(x12)
     c24:	00338863          	beq	x7,x3,c34 <I_add_cg_cp_rd_b3+0x18>
     c28:	0ad0346f          	jal	x8,44d4 <failedtest_x8_x7>
     c2c:	00000c1c          	.word	0x00000c1c
     c30:	0000997a          	.word	0x0000997a
     c34:	00460613          	addi	x12,x12,4

# Testcase cp_rd (Test destination rd = x4)
  RVTEST_TESTDATA_LOAD_INT(x10, x20) # load rs1: x20 = 0xf1da32b9
     c38:	00052a03          	lw	x20,0(x10)
     c3c:	00450513          	addi	x10,x10,4
  RVTEST_TESTDATA_LOAD_INT(x10, x18) # load rs2: x18 = 0x3f9d2b53
     c40:	00052903          	lw	x18,0(x10)
     c44:	00450513          	addi	x10,x10,4

00000c48 <I_add_cg_cp_rd_b4>:
I_add_cg_cp_rd_b4:
  add x4, x20, x18 # perform operation
     c48:	012a0233          	add	x4,x20,x18
  # Check if x4 contains the expected result. x12 is the signature ptr, x8 is the link ptr, x7 is a temp reg.
  RVTEST_SIGUPD(x12, x8, x7, x4, I_add_cg_cp_rd_b4, I_add_cg_cp_rd_b4_str)
     c4c:	00062383          	lw	x7,0(x12)
     c50:	00438863          	beq	x7,x4,c60 <I_add_cg_cp_rd_b4+0x18>
     c54:	0810346f          	jal	x8,44d4 <failedtest_x8_x7>
     c58:	00000c48          	.word	0x00000c48
     c5c:	000099a7          	.word	0x000099a7
     c60:	00460613          	addi	x12,x12,4

# Testcase cp_rd (Test destination rd = x5)
  RVTEST_TESTDATA_LOAD_INT(x10, x17) # load rs1: x17 = 0xfcc9c425
     c64:	00052883          	lw	x17,0(x10)
     c68:	00450513          	addi	x10,x10,4
  RVTEST_TESTDATA_LOAD_INT(x10, x2) # load rs2: x2 = 0xb8a9e200
     c6c:	00052103          	lw	x2,0(x10)
     c70:	00450513          	addi	x10,x10,4

00000c74 <I_add_cg_cp_rd_b5>:
I_add_cg_cp_rd_b5:
  add x5, x17, x2 # perform operation
     c74:	002882b3          	add	x5,x17,x2
  # Check if x5 contains the expected result. x12 is the signature ptr, x8 is the link ptr, x7 is a temp reg.
  RVTEST_SIGUPD(x12, x8, x7, x5, I_add_cg_cp_rd_b5, I_add_cg_cp_rd_b5_str)
     c78:	00062383          	lw	x7,0(x12)
     c7c:	00538863          	beq	x7,x5,c8c <I_add_cg_cp_rd_b5+0x18>
     c80:	0550346f          	jal	x8,44d4 <failedtest_x8_x7>
     c84:	00000c74          	.word	0x00000c74
     c88:	000099d4          	.word	0x000099d4
     c8c:	00460613          	addi	x12,x12,4

# Testcase cp_rd (Test destination rd = x6)
  RVTEST_TESTDATA_LOAD_INT(x10, x28) # load rs1: x28 = 0x7f142f3d
     c90:	00052e03          	lw	x28,0(x10)
     c94:	00450513          	addi	x10,x10,4
  RVTEST_TESTDATA_LOAD_INT(x10, x15) # load rs2: x15 = 0x0c2a6a82
     c98:	00052783          	lw	x15,0(x10)
     c9c:	00450513          	addi	x10,x10,4

00000ca0 <I_add_cg_cp_rd_b6>:
I_add_cg_cp_rd_b6:
  add x6, x28, x15 # perform operation
     ca0:	00fe0333          	add	x6,x28,x15
  # Check if x6 contains the expected result. x12 is the signature ptr, x8 is the link ptr, x7 is a temp reg.
  RVTEST_SIGUPD(x12, x8, x7, x6, I_add_cg_cp_rd_b6, I_add_cg_cp_rd_b6_str)
     ca4:	00062383          	lw	x7,0(x12)
     ca8:	00638863          	beq	x7,x6,cb8 <I_add_cg_cp_rd_b6+0x18>
     cac:	0290346f          	jal	x8,44d4 <failedtest_x8_x7>
     cb0:	00000ca0          	.word	0x00000ca0
     cb4:	00009a01          	.word	0x00009a01
     cb8:	00460613          	addi	x12,x12,4

  mv x4, x7 # switch temp register to avoid conflict with test
     cbc:	00038213          	addi	x4,x7,0
  mv x5, x8 # switch link pointer register to avoid conflict with test
     cc0:	00040293          	addi	x5,x8,0
# Testcase cp_rd (Test destination rd = x7)
  RVTEST_TESTDATA_LOAD_INT(x10, x19) # load rs1: x19 = 0xb30ad053
     cc4:	00052983          	lw	x19,0(x10)
     cc8:	00450513          	addi	x10,x10,4
  RVTEST_TESTDATA_LOAD_INT(x10, x21) # load rs2: x21 = 0xa622a84c
     ccc:	00052a83          	lw	x21,0(x10)
     cd0:	00450513          	addi	x10,x10,4

00000cd4 <I_add_cg_cp_rd_b7>:
I_add_cg_cp_rd_b7:
  add x7, x19, x21 # perform operation
     cd4:	015983b3          	add	x7,x19,x21
  # Check if x7 contains the expected result. x12 is the signature ptr, x5 is the link ptr, x4 is a temp reg.
  RVTEST_SIGUPD(x12, x5, x4, x7, I_add_cg_cp_rd_b7, I_add_cg_cp_rd_b7_str)
     cd8:	00062203          	lw	x4,0(x12)
     cdc:	00720863          	beq	x4,x7,cec <I_add_cg_cp_rd_b7+0x18>
     ce0:	7dc032ef          	jal	x5,44bc <failedtest_x5_x4>
     ce4:	00000cd4          	.word	0x00000cd4
     ce8:	00009a2e          	.word	0x00009a2e
     cec:	00460613          	addi	x12,x12,4

# Testcase cp_rd (Test destination rd = x8)
  RVTEST_TESTDATA_LOAD_INT(x10, x30) # load rs1: x30 = 0xc4d6907c
     cf0:	00052f03          	lw	x30,0(x10)
     cf4:	00450513          	addi	x10,x10,4
  RVTEST_TESTDATA_LOAD_INT(x10, x20) # load rs2: x20 = 0x8fde06b7
     cf8:	00052a03          	lw	x20,0(x10)
     cfc:	00450513          	addi	x10,x10,4

00000d00 <I_add_cg_cp_rd_b8>:
I_add_cg_cp_rd_b8:
  add x8, x30, x20 # perform operation
     d00:	014f0433          	add	x8,x30,x20
  # Check if x8 contains the expected result. x12 is the signature ptr, x5 is the link ptr, x4 is a temp reg.
  RVTEST_SIGUPD(x12, x5, x4, x8, I_add_cg_cp_rd_b8, I_add_cg_cp_rd_b8_str)
     d04:	00062203          	lw	x4,0(x12)
     d08:	00820863          	beq	x4,x8,d18 <I_add_cg_cp_rd_b8+0x18>
     d0c:	7b0032ef          	jal	x5,44bc <failedtest_x5_x4>
     d10:	00000d00          	.word	0x00000d00
     d14:	00009a5b          	.word	0x00009a5b
     d18:	00460613          	addi	x12,x12,4

# Testcase cp_rd (Test destination rd = x9)
  RVTEST_TESTDATA_LOAD_INT(x10, x20) # load rs1: x20 = 0x3188fc69
     d1c:	00052a03          	lw	x20,0(x10)
     d20:	00450513          	addi	x10,x10,4
  RVTEST_TESTDATA_LOAD_INT(x10, x29) # load rs2: x29 = 0xad50d179
     d24:	00052e83          	lw	x29,0(x10)
     d28:	00450513          	addi	x10,x10,4

00000d2c <I_add_cg_cp_rd_b9>:
I_add_cg_cp_rd_b9:
  add x9, x20, x29 # perform operation
     d2c:	01da04b3          	add	x9,x20,x29
  # Check if x9 contains the expected result. x12 is the signature ptr, x5 is the link ptr, x4 is a temp reg.
  RVTEST_SIGUPD(x12, x5, x4, x9, I_add_cg_cp_rd_b9, I_add_cg_cp_rd_b9_str)
     d30:	00062203          	lw	x4,0(x12)
     d34:	00920863          	beq	x4,x9,d44 <I_add_cg_cp_rd_b9+0x18>
     d38:	784032ef          	jal	x5,44bc <failedtest_x5_x4>
     d3c:	00000d2c          	.word	0x00000d2c
     d40:	00009a88          	.word	0x00009a88
     d44:	00460613          	addi	x12,x12,4

  mv x27, x10 # switch data pointer register to avoid conflict with test
     d48:	00050d93          	addi	x27,x10,0
# Testcase cp_rd (Test destination rd = x10)
  RVTEST_TESTDATA_LOAD_INT(x27, x31) # load rs1: x31 = 0x620b6023
     d4c:	000daf83          	lw	x31,0(x27)
     d50:	004d8d93          	addi	x27,x27,4
  RVTEST_TESTDATA_LOAD_INT(x27, x3) # load rs2: x3 = 0x698be42b
     d54:	000da183          	lw	x3,0(x27)
     d58:	004d8d93          	addi	x27,x27,4

00000d5c <I_add_cg_cp_rd_b10>:
I_add_cg_cp_rd_b10:
  add x10, x31, x3 # perform operation
     d5c:	003f8533          	add	x10,x31,x3
  # Check if x10 contains the expected result. x12 is the signature ptr, x5 is the link ptr, x4 is a temp reg.
  RVTEST_SIGUPD(x12, x5, x4, x10, I_add_cg_cp_rd_b10, I_add_cg_cp_rd_b10_str)
     d60:	00062203          	lw	x4,0(x12)
     d64:	00a20863          	beq	x4,x10,d74 <I_add_cg_cp_rd_b10+0x18>
     d68:	754032ef          	jal	x5,44bc <failedtest_x5_x4>
     d6c:	00000d5c          	.word	0x00000d5c
     d70:	00009ab5          	.word	0x00009ab5
     d74:	00460613          	addi	x12,x12,4

# Testcase cp_rd (Test destination rd = x11)
  RVTEST_TESTDATA_LOAD_INT(x27, x10) # load rs1: x10 = 0xf21e100d
     d78:	000da503          	lw	x10,0(x27)
     d7c:	004d8d93          	addi	x27,x27,4
  RVTEST_TESTDATA_LOAD_INT(x27, x8) # load rs2: x8 = 0xf30d76e6
     d80:	000da403          	lw	x8,0(x27)
     d84:	004d8d93          	addi	x27,x27,4

00000d88 <I_add_cg_cp_rd_b11>:
I_add_cg_cp_rd_b11:
  add x11, x10, x8 # perform operation
     d88:	008505b3          	add	x11,x10,x8
  # Check if x11 contains the expected result. x12 is the signature ptr, x5 is the link ptr, x4 is a temp reg.
  RVTEST_SIGUPD(x12, x5, x4, x11, I_add_cg_cp_rd_b11, I_add_cg_cp_rd_b11_str)
     d8c:	00062203          	lw	x4,0(x12)
     d90:	00b20863          	beq	x4,x11,da0 <I_add_cg_cp_rd_b11+0x18>
     d94:	728032ef          	jal	x5,44bc <failedtest_x5_x4>
     d98:	00000d88          	.word	0x00000d88
     d9c:	00009ae3          	.word	0x00009ae3
     da0:	00460613          	addi	x12,x12,4

  mv x15, x12 # switch signature pointer register to avoid conflict with test
     da4:	00060793          	addi	x15,x12,0
# Testcase cp_rd (Test destination rd = x12)
  RVTEST_TESTDATA_LOAD_INT(x27, x19) # load rs1: x19 = 0x16b85b2a
     da8:	000da983          	lw	x19,0(x27)
     dac:	004d8d93          	addi	x27,x27,4
  RVTEST_TESTDATA_LOAD_INT(x27, x25) # load rs2: x25 = 0x86e9a98e
     db0:	000dac83          	lw	x25,0(x27)
     db4:	004d8d93          	addi	x27,x27,4

00000db8 <I_add_cg_cp_rd_b12>:
I_add_cg_cp_rd_b12:
  add x12, x19, x25 # perform operation
     db8:	01998633          	add	x12,x19,x25
  # Check if x12 contains the expected result. x15 is the signature ptr, x5 is the link ptr, x4 is a temp reg.
  RVTEST_SIGUPD(x15, x5, x4, x12, I_add_cg_cp_rd_b12, I_add_cg_cp_rd_b12_str)
     dbc:	0007a203          	lw	x4,0(x15)
     dc0:	00c20863          	beq	x4,x12,dd0 <I_add_cg_cp_rd_b12+0x18>
     dc4:	6f8032ef          	jal	x5,44bc <failedtest_x5_x4>
     dc8:	00000db8          	.word	0x00000db8
     dcc:	00009b11          	.word	0x00009b11
     dd0:	00478793          	addi	x15,x15,4

# Testcase cp_rd (Test destination rd = x13)
  RVTEST_TESTDATA_LOAD_INT(x27, x17) # load rs1: x17 = 0x18fdab72
     dd4:	000da883          	lw	x17,0(x27)
     dd8:	004d8d93          	addi	x27,x27,4
  RVTEST_TESTDATA_LOAD_INT(x27, x0) # load rs2: x0 = 0xea2ffa7b
     ddc:	000da003          	lw	x0,0(x27)
     de0:	004d8d93          	addi	x27,x27,4

00000de4 <I_add_cg_cp_rd_b13>:
I_add_cg_cp_rd_b13:
  add x13, x17, x0 # perform operation
     de4:	000886b3          	add	x13,x17,x0
  # Check if x13 contains the expected result. x15 is the signature ptr, x5 is the link ptr, x4 is a temp reg.
  RVTEST_SIGUPD(x15, x5, x4, x13, I_add_cg_cp_rd_b13, I_add_cg_cp_rd_b13_str)
     de8:	0007a203          	lw	x4,0(x15)
     dec:	00d20863          	beq	x4,x13,dfc <I_add_cg_cp_rd_b13+0x18>
     df0:	6cc032ef          	jal	x5,44bc <failedtest_x5_x4>
     df4:	00000de4          	.word	0x00000de4
     df8:	00009b3f          	.word	0x00009b3f
     dfc:	00478793          	addi	x15,x15,4

# Testcase cp_rd (Test destination rd = x14)
  RVTEST_TESTDATA_LOAD_INT(x27, x12) # load rs1: x12 = 0x04507ba2
     e00:	000da603          	lw	x12,0(x27)
     e04:	004d8d93          	addi	x27,x27,4
  RVTEST_TESTDATA_LOAD_INT(x27, x22) # load rs2: x22 = 0xe1e6daa3
     e08:	000dab03          	lw	x22,0(x27)
     e0c:	004d8d93          	addi	x27,x27,4

00000e10 <I_add_cg_cp_rd_b14>:
I_add_cg_cp_rd_b14:
  add x14, x12, x22 # perform operation
     e10:	01660733          	add	x14,x12,x22
  # Check if x14 contains the expected result. x15 is the signature ptr, x5 is the link ptr, x4 is a temp reg.
  RVTEST_SIGUPD(x15, x5, x4, x14, I_add_cg_cp_rd_b14, I_add_cg_cp_rd_b14_str)
     e14:	0007a203          	lw	x4,0(x15)
     e18:	00e20863          	beq	x4,x14,e28 <I_add_cg_cp_rd_b14+0x18>
     e1c:	6a0032ef          	jal	x5,44bc <failedtest_x5_x4>
     e20:	00000e10          	.word	0x00000e10
     e24:	00009b6d          	.word	0x00009b6d
     e28:	00478793          	addi	x15,x15,4

  mv x6, x15 # switch signature pointer register to avoid conflict with test
     e2c:	00078313          	addi	x6,x15,0
# Testcase cp_rd (Test destination rd = x15)
  RVTEST_TESTDATA_LOAD_INT(x27, x9) # load rs1: x9 = 0xfa2dfb14
     e30:	000da483          	lw	x9,0(x27)
     e34:	004d8d93          	addi	x27,x27,4
  RVTEST_TESTDATA_LOAD_INT(x27, x13) # load rs2: x13 = 0x7f387275
     e38:	000da683          	lw	x13,0(x27)
     e3c:	004d8d93          	addi	x27,x27,4

00000e40 <I_add_cg_cp_rd_b15>:
I_add_cg_cp_rd_b15:
  add x15, x9, x13 # perform operation
     e40:	00d487b3          	add	x15,x9,x13
  # Check if x15 contains the expected result. x6 is the signature ptr, x5 is the link ptr, x4 is a temp reg.
  RVTEST_SIGUPD(x6, x5, x4, x15, I_add_cg_cp_rd_b15, I_add_cg_cp_rd_b15_str)
     e44:	00032203          	lw	x4,0(x6)
     e48:	00f20863          	beq	x4,x15,e58 <I_add_cg_cp_rd_b15+0x18>
     e4c:	670032ef          	jal	x5,44bc <failedtest_x5_x4>
     e50:	00000e40          	.word	0x00000e40
     e54:	00009b9b          	.word	0x00009b9b
     e58:	00430313          	addi	x6,x6,4

# Testcase cp_rd (Test destination rd = x16)
  RVTEST_TESTDATA_LOAD_INT(x27, x13) # load rs1: x13 = 0x452ddc23
     e5c:	000da683          	lw	x13,0(x27)
     e60:	004d8d93          	addi	x27,x27,4
  RVTEST_TESTDATA_LOAD_INT(x27, x19) # load rs2: x19 = 0x69a3c3e4
     e64:	000da983          	lw	x19,0(x27)
     e68:	004d8d93          	addi	x27,x27,4

00000e6c <I_add_cg_cp_rd_b16>:
I_add_cg_cp_rd_b16:
  add x16, x13, x19 # perform operation
     e6c:	01368833          	add	x16,x13,x19
  # Check if x16 contains the expected result. x6 is the signature ptr, x5 is the link ptr, x4 is a temp reg.
  RVTEST_SIGUPD(x6, x5, x4, x16, I_add_cg_cp_rd_b16, I_add_cg_cp_rd_b16_str)
     e70:	00032203          	lw	x4,0(x6)
     e74:	01020863          	beq	x4,x16,e84 <I_add_cg_cp_rd_b16+0x18>
     e78:	644032ef          	jal	x5,44bc <failedtest_x5_x4>
     e7c:	00000e6c          	.word	0x00000e6c
     e80:	00009bc9          	.word	0x00009bc9
     e84:	00430313          	addi	x6,x6,4

# Testcase cp_rd (Test destination rd = x17)
  RVTEST_TESTDATA_LOAD_INT(x27, x20) # load rs1: x20 = 0x0e2bd968
     e88:	000daa03          	lw	x20,0(x27)
     e8c:	004d8d93          	addi	x27,x27,4
  RVTEST_TESTDATA_LOAD_INT(x27, x7) # load rs2: x7 = 0x018da0ce
     e90:	000da383          	lw	x7,0(x27)
     e94:	004d8d93          	addi	x27,x27,4

00000e98 <I_add_cg_cp_rd_b17>:
I_add_cg_cp_rd_b17:
  add x17, x20, x7 # perform operation
     e98:	007a08b3          	add	x17,x20,x7
  # Check if x17 contains the expected result. x6 is the signature ptr, x5 is the link ptr, x4 is a temp reg.
  RVTEST_SIGUPD(x6, x5, x4, x17, I_add_cg_cp_rd_b17, I_add_cg_cp_rd_b17_str)
     e9c:	00032203          	lw	x4,0(x6)
     ea0:	01120863          	beq	x4,x17,eb0 <I_add_cg_cp_rd_b17+0x18>
     ea4:	618032ef          	jal	x5,44bc <failedtest_x5_x4>
     ea8:	00000e98          	.word	0x00000e98
     eac:	00009bf7          	.word	0x00009bf7
     eb0:	00430313          	addi	x6,x6,4

# Testcase cp_rd (Test destination rd = x18)
  RVTEST_TESTDATA_LOAD_INT(x27, x8) # load rs1: x8 = 0x83b6a059
     eb4:	000da403          	lw	x8,0(x27)
     eb8:	004d8d93          	addi	x27,x27,4
  RVTEST_TESTDATA_LOAD_INT(x27, x7) # load rs2: x7 = 0xbf25b0d1
     ebc:	000da383          	lw	x7,0(x27)
     ec0:	004d8d93          	addi	x27,x27,4

00000ec4 <I_add_cg_cp_rd_b18>:
I_add_cg_cp_rd_b18:
  add x18, x8, x7 # perform operation
     ec4:	00740933          	add	x18,x8,x7
  # Check if x18 contains the expected result. x6 is the signature ptr, x5 is the link ptr, x4 is a temp reg.
  RVTEST_SIGUPD(x6, x5, x4, x18, I_add_cg_cp_rd_b18, I_add_cg_cp_rd_b18_str)
     ec8:	00032203          	lw	x4,0(x6)
     ecc:	01220863          	beq	x4,x18,edc <I_add_cg_cp_rd_b18+0x18>
     ed0:	5ec032ef          	jal	x5,44bc <failedtest_x5_x4>
     ed4:	00000ec4          	.word	0x00000ec4
     ed8:	00009c25          	.word	0x00009c25
     edc:	00430313          	addi	x6,x6,4

# Testcase cp_rd (Test destination rd = x19)
  RVTEST_TESTDATA_LOAD_INT(x27, x7) # load rs1: x7 = 0xf8b159f8
     ee0:	000da383          	lw	x7,0(x27)
     ee4:	004d8d93          	addi	x27,x27,4
  RVTEST_TESTDATA_LOAD_INT(x27, x9) # load rs2: x9 = 0x906c4f43
     ee8:	000da483          	lw	x9,0(x27)
     eec:	004d8d93          	addi	x27,x27,4

00000ef0 <I_add_cg_cp_rd_b19>:
I_add_cg_cp_rd_b19:
  add x19, x7, x9 # perform operation
     ef0:	009389b3          	add	x19,x7,x9
  # Check if x19 contains the expected result. x6 is the signature ptr, x5 is the link ptr, x4 is a temp reg.
  RVTEST_SIGUPD(x6, x5, x4, x19, I_add_cg_cp_rd_b19, I_add_cg_cp_rd_b19_str)
     ef4:	00032203          	lw	x4,0(x6)
     ef8:	01320863          	beq	x4,x19,f08 <I_add_cg_cp_rd_b19+0x18>
     efc:	5c0032ef          	jal	x5,44bc <failedtest_x5_x4>
     f00:	00000ef0          	.word	0x00000ef0
     f04:	00009c53          	.word	0x00009c53
     f08:	00430313          	addi	x6,x6,4

# Testcase cp_rd (Test destination rd = x20)
  RVTEST_TESTDATA_LOAD_INT(x27, x25) # load rs1: x25 = 0x56fa2832
     f0c:	000dac83          	lw	x25,0(x27)
     f10:	004d8d93          	addi	x27,x27,4
  RVTEST_TESTDATA_LOAD_INT(x27, x30) # load rs2: x30 = 0xd70241be
     f14:	000daf03          	lw	x30,0(x27)
     f18:	004d8d93          	addi	x27,x27,4

00000f1c <I_add_cg_cp_rd_b20>:
I_add_cg_cp_rd_b20:
  add x20, x25, x30 # perform operation
     f1c:	01ec8a33          	add	x20,x25,x30
  # Check if x20 contains the expected result. x6 is the signature ptr, x5 is the link ptr, x4 is a temp reg.
  RVTEST_SIGUPD(x6, x5, x4, x20, I_add_cg_cp_rd_b20, I_add_cg_cp_rd_b20_str)
     f20:	00032203          	lw	x4,0(x6)
     f24:	01420863          	beq	x4,x20,f34 <I_add_cg_cp_rd_b20+0x18>
     f28:	594032ef          	jal	x5,44bc <failedtest_x5_x4>
     f2c:	00000f1c          	.word	0x00000f1c
     f30:	00009c81          	.word	0x00009c81
     f34:	00430313          	addi	x6,x6,4

# Testcase cp_rd (Test destination rd = x21)
  RVTEST_TESTDATA_LOAD_INT(x27, x23) # load rs1: x23 = 0x49bf4fdf
     f38:	000dab83          	lw	x23,0(x27)
     f3c:	004d8d93          	addi	x27,x27,4
  RVTEST_TESTDATA_LOAD_INT(x27, x20) # load rs2: x20 = 0xa3153a0c
     f40:	000daa03          	lw	x20,0(x27)
     f44:	004d8d93          	addi	x27,x27,4

00000f48 <I_add_cg_cp_rd_b21>:
I_add_cg_cp_rd_b21:
  add x21, x23, x20 # perform operation
     f48:	014b8ab3          	add	x21,x23,x20
  # Check if x21 contains the expected result. x6 is the signature ptr, x5 is the link ptr, x4 is a temp reg.
  RVTEST_SIGUPD(x6, x5, x4, x21, I_add_cg_cp_rd_b21, I_add_cg_cp_rd_b21_str)
     f4c:	00032203          	lw	x4,0(x6)
     f50:	01520863          	beq	x4,x21,f60 <I_add_cg_cp_rd_b21+0x18>
     f54:	568032ef          	jal	x5,44bc <failedtest_x5_x4>
     f58:	00000f48          	.word	0x00000f48
     f5c:	00009caf          	.word	0x00009caf
     f60:	00430313          	addi	x6,x6,4

# Testcase cp_rd (Test destination rd = x22)
  RVTEST_TESTDATA_LOAD_INT(x27, x16) # load rs1: x16 = 0xefcb5221
     f64:	000da803          	lw	x16,0(x27)
     f68:	004d8d93          	addi	x27,x27,4
  RVTEST_TESTDATA_LOAD_INT(x27, x21) # load rs2: x21 = 0xf2af9519
     f6c:	000daa83          	lw	x21,0(x27)
     f70:	004d8d93          	addi	x27,x27,4

00000f74 <I_add_cg_cp_rd_b22>:
I_add_cg_cp_rd_b22:
  add x22, x16, x21 # perform operation
     f74:	01580b33          	add	x22,x16,x21
  # Check if x22 contains the expected result. x6 is the signature ptr, x5 is the link ptr, x4 is a temp reg.
  RVTEST_SIGUPD(x6, x5, x4, x22, I_add_cg_cp_rd_b22, I_add_cg_cp_rd_b22_str)
     f78:	00032203          	lw	x4,0(x6)
     f7c:	01620863          	beq	x4,x22,f8c <I_add_cg_cp_rd_b22+0x18>
     f80:	53c032ef          	jal	x5,44bc <failedtest_x5_x4>
     f84:	00000f74          	.word	0x00000f74
     f88:	00009cdd          	.word	0x00009cdd
     f8c:	00430313          	addi	x6,x6,4

# Testcase cp_rd (Test destination rd = x23)
  RVTEST_TESTDATA_LOAD_INT(x27, x10) # load rs1: x10 = 0xfea8bcb4
     f90:	000da503          	lw	x10,0(x27)
     f94:	004d8d93          	addi	x27,x27,4
  RVTEST_TESTDATA_LOAD_INT(x27, x24) # load rs2: x24 = 0xf4430e4b
     f98:	000dac03          	lw	x24,0(x27)
     f9c:	004d8d93          	addi	x27,x27,4

00000fa0 <I_add_cg_cp_rd_b23>:
I_add_cg_cp_rd_b23:
  add x23, x10, x24 # perform operation
     fa0:	01850bb3          	add	x23,x10,x24
  # Check if x23 contains the expected result. x6 is the signature ptr, x5 is the link ptr, x4 is a temp reg.
  RVTEST_SIGUPD(x6, x5, x4, x23, I_add_cg_cp_rd_b23, I_add_cg_cp_rd_b23_str)
     fa4:	00032203          	lw	x4,0(x6)
     fa8:	01720863          	beq	x4,x23,fb8 <I_add_cg_cp_rd_b23+0x18>
     fac:	510032ef          	jal	x5,44bc <failedtest_x5_x4>
     fb0:	00000fa0          	.word	0x00000fa0
     fb4:	00009d0b          	.word	0x00009d0b
     fb8:	00430313          	addi	x6,x6,4

# Testcase cp_rd (Test destination rd = x24)
  RVTEST_TESTDATA_LOAD_INT(x27, x28) # load rs1: x28 = 0x886a1096
     fbc:	000dae03          	lw	x28,0(x27)
     fc0:	004d8d93          	addi	x27,x27,4
  RVTEST_TESTDATA_LOAD_INT(x27, x29) # load rs2: x29 = 0x2bd547b5
     fc4:	000dae83          	lw	x29,0(x27)
     fc8:	004d8d93          	addi	x27,x27,4

00000fcc <I_add_cg_cp_rd_b24>:
I_add_cg_cp_rd_b24:
  add x24, x28, x29 # perform operation
     fcc:	01de0c33          	add	x24,x28,x29
  # Check if x24 contains the expected result. x6 is the signature ptr, x5 is the link ptr, x4 is a temp reg.
  RVTEST_SIGUPD(x6, x5, x4, x24, I_add_cg_cp_rd_b24, I_add_cg_cp_rd_b24_str)
     fd0:	00032203          	lw	x4,0(x6)
     fd4:	01820863          	beq	x4,x24,fe4 <I_add_cg_cp_rd_b24+0x18>
     fd8:	4e4032ef          	jal	x5,44bc <failedtest_x5_x4>
     fdc:	00000fcc          	.word	0x00000fcc
     fe0:	00009d39          	.word	0x00009d39
     fe4:	00430313          	addi	x6,x6,4

# Testcase cp_rd (Test destination rd = x25)
  RVTEST_TESTDATA_LOAD_INT(x27, x14) # load rs1: x14 = 0xf61853a8
     fe8:	000da703          	lw	x14,0(x27)
     fec:	004d8d93          	addi	x27,x27,4
  RVTEST_TESTDATA_LOAD_INT(x27, x0) # load rs2: x0 = 0xdb6e0539
     ff0:	000da003          	lw	x0,0(x27)
     ff4:	004d8d93          	addi	x27,x27,4

00000ff8 <I_add_cg_cp_rd_b25>:
I_add_cg_cp_rd_b25:
  add x25, x14, x0 # perform operation
     ff8:	00070cb3          	add	x25,x14,x0
  # Check if x25 contains the expected result. x6 is the signature ptr, x5 is the link ptr, x4 is a temp reg.
  RVTEST_SIGUPD(x6, x5, x4, x25, I_add_cg_cp_rd_b25, I_add_cg_cp_rd_b25_str)
     ffc:	00032203          	lw	x4,0(x6)
    1000:	01920863          	beq	x4,x25,1010 <I_add_cg_cp_rd_b25+0x18>
    1004:	4b8032ef          	jal	x5,44bc <failedtest_x5_x4>
    1008:	00000ff8          	.word	0x00000ff8
    100c:	00009d67          	.word	0x00009d67
    1010:	00430313          	addi	x6,x6,4

# Testcase cp_rd (Test destination rd = x26)
  RVTEST_TESTDATA_LOAD_INT(x27, x15) # load rs1: x15 = 0x90cf6c7c
    1014:	000da783          	lw	x15,0(x27)
    1018:	004d8d93          	addi	x27,x27,4
  RVTEST_TESTDATA_LOAD_INT(x27, x28) # load rs2: x28 = 0xd14f98d9
    101c:	000dae03          	lw	x28,0(x27)
    1020:	004d8d93          	addi	x27,x27,4

00001024 <I_add_cg_cp_rd_b26>:
I_add_cg_cp_rd_b26:
  add x26, x15, x28 # perform operation
    1024:	01c78d33          	add	x26,x15,x28
  # Check if x26 contains the expected result. x6 is the signature ptr, x5 is the link ptr, x4 is a temp reg.
  RVTEST_SIGUPD(x6, x5, x4, x26, I_add_cg_cp_rd_b26, I_add_cg_cp_rd_b26_str)
    1028:	00032203          	lw	x4,0(x6)
    102c:	01a20863          	beq	x4,x26,103c <I_add_cg_cp_rd_b26+0x18>
    1030:	48c032ef          	jal	x5,44bc <failedtest_x5_x4>
    1034:	00001024          	.word	0x00001024
    1038:	00009d95          	.word	0x00009d95
    103c:	00430313          	addi	x6,x6,4

  mv x21, x27 # switch data pointer register to avoid conflict with test
    1040:	000d8a93          	addi	x21,x27,0
# Testcase cp_rd (Test destination rd = x27)
  RVTEST_TESTDATA_LOAD_INT(x21, x23) # load rs1: x23 = 0x3f00490f
    1044:	000aab83          	lw	x23,0(x21)
    1048:	004a8a93          	addi	x21,x21,4
  RVTEST_TESTDATA_LOAD_INT(x21, x0) # load rs2: x0 = 0xcd82a97a
    104c:	000aa003          	lw	x0,0(x21)
    1050:	004a8a93          	addi	x21,x21,4

00001054 <I_add_cg_cp_rd_b27>:
I_add_cg_cp_rd_b27:
  add x27, x23, x0 # perform operation
    1054:	000b8db3          	add	x27,x23,x0
  # Check if x27 contains the expected result. x6 is the signature ptr, x5 is the link ptr, x4 is a temp reg.
  RVTEST_SIGUPD(x6, x5, x4, x27, I_add_cg_cp_rd_b27, I_add_cg_cp_rd_b27_str)
    1058:	00032203          	lw	x4,0(x6)
    105c:	01b20863          	beq	x4,x27,106c <I_add_cg_cp_rd_b27+0x18>
    1060:	45c032ef          	jal	x5,44bc <failedtest_x5_x4>
    1064:	00001054          	.word	0x00001054
    1068:	00009dc3          	.word	0x00009dc3
    106c:	00430313          	addi	x6,x6,4

# Testcase cp_rd (Test destination rd = x28)
  RVTEST_TESTDATA_LOAD_INT(x21, x19) # load rs1: x19 = 0xdb55bce6
    1070:	000aa983          	lw	x19,0(x21)
    1074:	004a8a93          	addi	x21,x21,4
  RVTEST_TESTDATA_LOAD_INT(x21, x30) # load rs2: x30 = 0xb83d042f
    1078:	000aaf03          	lw	x30,0(x21)
    107c:	004a8a93          	addi	x21,x21,4

00001080 <I_add_cg_cp_rd_b28>:
I_add_cg_cp_rd_b28:
  add x28, x19, x30 # perform operation
    1080:	01e98e33          	add	x28,x19,x30
  # Check if x28 contains the expected result. x6 is the signature ptr, x5 is the link ptr, x4 is a temp reg.
  RVTEST_SIGUPD(x6, x5, x4, x28, I_add_cg_cp_rd_b28, I_add_cg_cp_rd_b28_str)
    1084:	00032203          	lw	x4,0(x6)
    1088:	01c20863          	beq	x4,x28,1098 <I_add_cg_cp_rd_b28+0x18>
    108c:	430032ef          	jal	x5,44bc <failedtest_x5_x4>
    1090:	00001080          	.word	0x00001080
    1094:	00009df1          	.word	0x00009df1
    1098:	00430313          	addi	x6,x6,4

# Testcase cp_rd (Test destination rd = x29)
  RVTEST_TESTDATA_LOAD_INT(x21, x1) # load rs1: x1 = 0x8b7b7bd7
    109c:	000aa083          	lw	x1,0(x21)
    10a0:	004a8a93          	addi	x21,x21,4
  RVTEST_TESTDATA_LOAD_INT(x21, x24) # load rs2: x24 = 0x21ccba0d
    10a4:	000aac03          	lw	x24,0(x21)
    10a8:	004a8a93          	addi	x21,x21,4

000010ac <I_add_cg_cp_rd_b29>:
I_add_cg_cp_rd_b29:
  add x29, x1, x24 # perform operation
    10ac:	01808eb3          	add	x29,x1,x24
  # Check if x29 contains the expected result. x6 is the signature ptr, x5 is the link ptr, x4 is a temp reg.
  RVTEST_SIGUPD(x6, x5, x4, x29, I_add_cg_cp_rd_b29, I_add_cg_cp_rd_b29_str)
    10b0:	00032203          	lw	x4,0(x6)
    10b4:	01d20863          	beq	x4,x29,10c4 <I_add_cg_cp_rd_b29+0x18>
    10b8:	404032ef          	jal	x5,44bc <failedtest_x5_x4>
    10bc:	000010ac          	.word	0x000010ac
    10c0:	00009e1f          	.word	0x00009e1f
    10c4:	00430313          	addi	x6,x6,4

# Testcase cp_rd (Test destination rd = x30)
  RVTEST_TESTDATA_LOAD_INT(x21, x11) # load rs1: x11 = 0xa01edcfa
    10c8:	000aa583          	lw	x11,0(x21)
    10cc:	004a8a93          	addi	x21,x21,4
  RVTEST_TESTDATA_LOAD_INT(x21, x20) # load rs2: x20 = 0x3350bfef
    10d0:	000aaa03          	lw	x20,0(x21)
    10d4:	004a8a93          	addi	x21,x21,4

000010d8 <I_add_cg_cp_rd_b30>:
I_add_cg_cp_rd_b30:
  add x30, x11, x20 # perform operation
    10d8:	01458f33          	add	x30,x11,x20
  # Check if x30 contains the expected result. x6 is the signature ptr, x5 is the link ptr, x4 is a temp reg.
  RVTEST_SIGUPD(x6, x5, x4, x30, I_add_cg_cp_rd_b30, I_add_cg_cp_rd_b30_str)
    10dc:	00032203          	lw	x4,0(x6)
    10e0:	01e20863          	beq	x4,x30,10f0 <I_add_cg_cp_rd_b30+0x18>
    10e4:	3d8032ef          	jal	x5,44bc <failedtest_x5_x4>
    10e8:	000010d8          	.word	0x000010d8
    10ec:	00009e4d          	.word	0x00009e4d
    10f0:	00430313          	addi	x6,x6,4

# Testcase cp_rd (Test destination rd = x31)
  RVTEST_TESTDATA_LOAD_INT(x21, x30) # load rs1: x30 = 0x59866d92
    10f4:	000aaf03          	lw	x30,0(x21)
    10f8:	004a8a93          	addi	x21,x21,4
  RVTEST_TESTDATA_LOAD_INT(x21, x3) # load rs2: x3 = 0x670b520c
    10fc:	000aa183          	lw	x3,0(x21)
    1100:	004a8a93          	addi	x21,x21,4

00001104 <I_add_cg_cp_rd_b31>:
I_add_cg_cp_rd_b31:
  add x31, x30, x3 # perform operation
    1104:	003f0fb3          	add	x31,x30,x3
  # Check if x31 contains the expected result. x6 is the signature ptr, x5 is the link ptr, x4 is a temp reg.
  RVTEST_SIGUPD(x6, x5, x4, x31, I_add_cg_cp_rd_b31, I_add_cg_cp_rd_b31_str)
    1108:	00032203          	lw	x4,0(x6)
    110c:	01f20863          	beq	x4,x31,111c <I_add_cg_cp_rd_b31+0x18>
    1110:	3ac032ef          	jal	x5,44bc <failedtest_x5_x4>
    1114:	00001104          	.word	0x00001104
    1118:	00009e7b          	.word	0x00009e7b
    111c:	00430313          	addi	x6,x6,4
/////////////////////////////////
// cp_rs1_edges
/////////////////////////////////

# Testcase cp_rs1_edges (Test source rs1 value = 0x00000000)
  RVTEST_TESTDATA_LOAD_INT(x21, x14) # load rs1: x14 = 0x00000000
    1120:	000aa703          	lw	x14,0(x21)
    1124:	004a8a93          	addi	x21,x21,4
  RVTEST_TESTDATA_LOAD_INT(x21, x24) # load rs2: x24 = 0xc03744aa
    1128:	000aac03          	lw	x24,0(x21)
    112c:	004a8a93          	addi	x21,x21,4

00001130 <I_add_cg_cp_rs1_edges_0x0>:
I_add_cg_cp_rs1_edges_0x0:
  add x3, x14, x24 # perform operation
    1130:	018701b3          	add	x3,x14,x24
  # Check if x3 contains the expected result. x6 is the signature ptr, x5 is the link ptr, x4 is a temp reg.
  RVTEST_SIGUPD(x6, x5, x4, x3, I_add_cg_cp_rs1_edges_0x0, I_add_cg_cp_rs1_edges_0x0_str)
    1134:	00032203          	lw	x4,0(x6)
    1138:	00320863          	beq	x4,x3,1148 <I_add_cg_cp_rs1_edges_0x0+0x18>
    113c:	380032ef          	jal	x5,44bc <failedtest_x5_x4>
    1140:	00001130          	.word	0x00001130
    1144:	00009ea9          	.word	0x00009ea9
    1148:	00430313          	addi	x6,x6,4

# Testcase cp_rs1_edges (Test source rs1 value = 0x00000001)
  RVTEST_TESTDATA_LOAD_INT(x21, x29) # load rs1: x29 = 0x00000001
    114c:	000aae83          	lw	x29,0(x21)
    1150:	004a8a93          	addi	x21,x21,4
  RVTEST_TESTDATA_LOAD_INT(x21, x9) # load rs2: x9 = 0xe2f82790
    1154:	000aa483          	lw	x9,0(x21)
    1158:	004a8a93          	addi	x21,x21,4

0000115c <I_add_cg_cp_rs1_edges_0x1>:
I_add_cg_cp_rs1_edges_0x1:
  add x15, x29, x9 # perform operation
    115c:	009e87b3          	add	x15,x29,x9
  # Check if x15 contains the expected result. x6 is the signature ptr, x5 is the link ptr, x4 is a temp reg.
  RVTEST_SIGUPD(x6, x5, x4, x15, I_add_cg_cp_rs1_edges_0x1, I_add_cg_cp_rs1_edges_0x1_str)
    1160:	00032203          	lw	x4,0(x6)
    1164:	00f20863          	beq	x4,x15,1174 <I_add_cg_cp_rs1_edges_0x1+0x18>
    1168:	354032ef          	jal	x5,44bc <failedtest_x5_x4>
    116c:	0000115c          	.word	0x0000115c
    1170:	00009ede          	.word	0x00009ede
    1174:	00430313          	addi	x6,x6,4

# Testcase cp_rs1_edges (Test source rs1 value = 0x00000002)
  RVTEST_TESTDATA_LOAD_INT(x21, x2) # load rs1: x2 = 0x00000002
    1178:	000aa103          	lw	x2,0(x21)
    117c:	004a8a93          	addi	x21,x21,4
  RVTEST_TESTDATA_LOAD_INT(x21, x20) # load rs2: x20 = 0x73426dce
    1180:	000aaa03          	lw	x20,0(x21)
    1184:	004a8a93          	addi	x21,x21,4

00001188 <I_add_cg_cp_rs1_edges_0x2>:
I_add_cg_cp_rs1_edges_0x2:
  add x15, x2, x20 # perform operation
    1188:	014107b3          	add	x15,x2,x20
  # Check if x15 contains the expected result. x6 is the signature ptr, x5 is the link ptr, x4 is a temp reg.
  RVTEST_SIGUPD(x6, x5, x4, x15, I_add_cg_cp_rs1_edges_0x2, I_add_cg_cp_rs1_edges_0x2_str)
    118c:	00032203          	lw	x4,0(x6)
    1190:	00f20863          	beq	x4,x15,11a0 <I_add_cg_cp_rs1_edges_0x2+0x18>
    1194:	328032ef          	jal	x5,44bc <failedtest_x5_x4>
    1198:	00001188          	.word	0x00001188
    119c:	00009f13          	.word	0x00009f13
    11a0:	00430313          	addi	x6,x6,4

# Testcase cp_rs1_edges (Test source rs1 value = 0x80000000)
  RVTEST_TESTDATA_LOAD_INT(x21, x27) # load rs1: x27 = 0x80000000
    11a4:	000aad83          	lw	x27,0(x21)
    11a8:	004a8a93          	addi	x21,x21,4
  RVTEST_TESTDATA_LOAD_INT(x21, x3) # load rs2: x3 = 0xa3b9ae23
    11ac:	000aa183          	lw	x3,0(x21)
    11b0:	004a8a93          	addi	x21,x21,4

000011b4 <I_add_cg_cp_rs1_edges_0x80000000>:
I_add_cg_cp_rs1_edges_0x80000000:
  add x13, x27, x3 # perform operation
    11b4:	003d86b3          	add	x13,x27,x3
  # Check if x13 contains the expected result. x6 is the signature ptr, x5 is the link ptr, x4 is a temp reg.
  RVTEST_SIGUPD(x6, x5, x4, x13, I_add_cg_cp_rs1_edges_0x80000000, I_add_cg_cp_rs1_edges_0x80000000_str)
    11b8:	00032203          	lw	x4,0(x6)
    11bc:	00d20863          	beq	x4,x13,11cc <I_add_cg_cp_rs1_edges_0x80000000+0x18>
    11c0:	2fc032ef          	jal	x5,44bc <failedtest_x5_x4>
    11c4:	000011b4          	.word	0x000011b4
    11c8:	00009f48          	.word	0x00009f48
    11cc:	00430313          	addi	x6,x6,4

# Testcase cp_rs1_edges (Test source rs1 value = 0x80000001)
  RVTEST_TESTDATA_LOAD_INT(x21, x22) # load rs1: x22 = 0x80000001
    11d0:	000aab03          	lw	x22,0(x21)
    11d4:	004a8a93          	addi	x21,x21,4
  RVTEST_TESTDATA_LOAD_INT(x21, x24) # load rs2: x24 = 0xd7f4336f
    11d8:	000aac03          	lw	x24,0(x21)
    11dc:	004a8a93          	addi	x21,x21,4

000011e0 <I_add_cg_cp_rs1_edges_0x80000001>:
I_add_cg_cp_rs1_edges_0x80000001:
  add x11, x22, x24 # perform operation
    11e0:	018b05b3          	add	x11,x22,x24
  # Check if x11 contains the expected result. x6 is the signature ptr, x5 is the link ptr, x4 is a temp reg.
  RVTEST_SIGUPD(x6, x5, x4, x11, I_add_cg_cp_rs1_edges_0x80000001, I_add_cg_cp_rs1_edges_0x80000001_str)
    11e4:	00032203          	lw	x4,0(x6)
    11e8:	00b20863          	beq	x4,x11,11f8 <I_add_cg_cp_rs1_edges_0x80000001+0x18>
    11ec:	2d0032ef          	jal	x5,44bc <failedtest_x5_x4>
    11f0:	000011e0          	.word	0x000011e0
    11f4:	00009f85          	.word	0x00009f85
    11f8:	00430313          	addi	x6,x6,4

# Testcase cp_rs1_edges (Test source rs1 value = 0x7fffffff)
  RVTEST_TESTDATA_LOAD_INT(x21, x27) # load rs1: x27 = 0x7fffffff
    11fc:	000aad83          	lw	x27,0(x21)
    1200:	004a8a93          	addi	x21,x21,4
  RVTEST_TESTDATA_LOAD_INT(x21, x22) # load rs2: x22 = 0x14718a3d
    1204:	000aab03          	lw	x22,0(x21)
    1208:	004a8a93          	addi	x21,x21,4

0000120c <I_add_cg_cp_rs1_edges_0x7fffffff>:
I_add_cg_cp_rs1_edges_0x7fffffff:
  add x13, x27, x22 # perform operation
    120c:	016d86b3          	add	x13,x27,x22
  # Check if x13 contains the expected result. x6 is the signature ptr, x5 is the link ptr, x4 is a temp reg.
  RVTEST_SIGUPD(x6, x5, x4, x13, I_add_cg_cp_rs1_edges_0x7fffffff, I_add_cg_cp_rs1_edges_0x7fffffff_str)
    1210:	00032203          	lw	x4,0(x6)
    1214:	00d20863          	beq	x4,x13,1224 <I_add_cg_cp_rs1_edges_0x7fffffff+0x18>
    1218:	2a4032ef          	jal	x5,44bc <failedtest_x5_x4>
    121c:	0000120c          	.word	0x0000120c
    1220:	00009fc2          	.word	0x00009fc2
    1224:	00430313          	addi	x6,x6,4

# Testcase cp_rs1_edges (Test source rs1 value = 0x7ffffffe)
  RVTEST_TESTDATA_LOAD_INT(x21, x16) # load rs1: x16 = 0x7ffffffe
    1228:	000aa803          	lw	x16,0(x21)
    122c:	004a8a93          	addi	x21,x21,4
  RVTEST_TESTDATA_LOAD_INT(x21, x13) # load rs2: x13 = 0x0fb1f161
    1230:	000aa683          	lw	x13,0(x21)
    1234:	004a8a93          	addi	x21,x21,4

00001238 <I_add_cg_cp_rs1_edges_0x7ffffffe>:
I_add_cg_cp_rs1_edges_0x7ffffffe:
  add x7, x16, x13 # perform operation
    1238:	00d803b3          	add	x7,x16,x13
  # Check if x7 contains the expected result. x6 is the signature ptr, x5 is the link ptr, x4 is a temp reg.
  RVTEST_SIGUPD(x6, x5, x4, x7, I_add_cg_cp_rs1_edges_0x7ffffffe, I_add_cg_cp_rs1_edges_0x7ffffffe_str)
    123c:	00032203          	lw	x4,0(x6)
    1240:	00720863          	beq	x4,x7,1250 <I_add_cg_cp_rs1_edges_0x7ffffffe+0x18>
    1244:	278032ef          	jal	x5,44bc <failedtest_x5_x4>
    1248:	00001238          	.word	0x00001238
    124c:	00009fff          	.word	0x00009fff
    1250:	00430313          	addi	x6,x6,4

# Testcase cp_rs1_edges (Test source rs1 value = 0xffffffff)
  RVTEST_TESTDATA_LOAD_INT(x21, x13) # load rs1: x13 = 0xffffffff
    1254:	000aa683          	lw	x13,0(x21)
    1258:	004a8a93          	addi	x21,x21,4
  RVTEST_TESTDATA_LOAD_INT(x21, x26) # load rs2: x26 = 0x0c446dc3
    125c:	000aad03          	lw	x26,0(x21)
    1260:	004a8a93          	addi	x21,x21,4

00001264 <I_add_cg_cp_rs1_edges_0xffffffff>:
I_add_cg_cp_rs1_edges_0xffffffff:
  add x28, x13, x26 # perform operation
    1264:	01a68e33          	add	x28,x13,x26
  # Check if x28 contains the expected result. x6 is the signature ptr, x5 is the link ptr, x4 is a temp reg.
  RVTEST_SIGUPD(x6, x5, x4, x28, I_add_cg_cp_rs1_edges_0xffffffff, I_add_cg_cp_rs1_edges_0xffffffff_str)
    1268:	00032203          	lw	x4,0(x6)
    126c:	01c20863          	beq	x4,x28,127c <I_add_cg_cp_rs1_edges_0xffffffff+0x18>
    1270:	24c032ef          	jal	x5,44bc <failedtest_x5_x4>
    1274:	00001264          	.word	0x00001264
    1278:	0000a03c          	.word	0x0000a03c
    127c:	00430313          	addi	x6,x6,4

# Testcase cp_rs1_edges (Test source rs1 value = 0xfffffffe)
  RVTEST_TESTDATA_LOAD_INT(x21, x10) # load rs1: x10 = 0xfffffffe
    1280:	000aa503          	lw	x10,0(x21)
    1284:	004a8a93          	addi	x21,x21,4
  RVTEST_TESTDATA_LOAD_INT(x21, x30) # load rs2: x30 = 0xfa02b496
    1288:	000aaf03          	lw	x30,0(x21)
    128c:	004a8a93          	addi	x21,x21,4

00001290 <I_add_cg_cp_rs1_edges_0xfffffffe>:
I_add_cg_cp_rs1_edges_0xfffffffe:
  add x12, x10, x30 # perform operation
    1290:	01e50633          	add	x12,x10,x30
  # Check if x12 contains the expected result. x6 is the signature ptr, x5 is the link ptr, x4 is a temp reg.
  RVTEST_SIGUPD(x6, x5, x4, x12, I_add_cg_cp_rs1_edges_0xfffffffe, I_add_cg_cp_rs1_edges_0xfffffffe_str)
    1294:	00032203          	lw	x4,0(x6)
    1298:	00c20863          	beq	x4,x12,12a8 <I_add_cg_cp_rs1_edges_0xfffffffe+0x18>
    129c:	220032ef          	jal	x5,44bc <failedtest_x5_x4>
    12a0:	00001290          	.word	0x00001290
    12a4:	0000a079          	.word	0x0000a079
    12a8:	00430313          	addi	x6,x6,4

# Testcase cp_rs1_edges (Test source rs1 value = 0x5bbc8872)
  RVTEST_TESTDATA_LOAD_INT(x21, x28) # load rs1: x28 = 0x5bbc8872
    12ac:	000aae03          	lw	x28,0(x21)
    12b0:	004a8a93          	addi	x21,x21,4
  RVTEST_TESTDATA_LOAD_INT(x21, x16) # load rs2: x16 = 0xee925035
    12b4:	000aa803          	lw	x16,0(x21)
    12b8:	004a8a93          	addi	x21,x21,4

000012bc <I_add_cg_cp_rs1_edges_0x5bbc8872>:
I_add_cg_cp_rs1_edges_0x5bbc8872:
  add x30, x28, x16 # perform operation
    12bc:	010e0f33          	add	x30,x28,x16
  # Check if x30 contains the expected result. x6 is the signature ptr, x5 is the link ptr, x4 is a temp reg.
  RVTEST_SIGUPD(x6, x5, x4, x30, I_add_cg_cp_rs1_edges_0x5bbc8872, I_add_cg_cp_rs1_edges_0x5bbc8872_str)
    12c0:	00032203          	lw	x4,0(x6)
    12c4:	01e20863          	beq	x4,x30,12d4 <I_add_cg_cp_rs1_edges_0x5bbc8872+0x18>
    12c8:	1f4032ef          	jal	x5,44bc <failedtest_x5_x4>
    12cc:	000012bc          	.word	0x000012bc
    12d0:	0000a0b6          	.word	0x0000a0b6
    12d4:	00430313          	addi	x6,x6,4

# Testcase cp_rs1_edges (Test source rs1 value = 0xaaaaaaaa)
  RVTEST_TESTDATA_LOAD_INT(x21, x10) # load rs1: x10 = 0xaaaaaaaa
    12d8:	000aa503          	lw	x10,0(x21)
    12dc:	004a8a93          	addi	x21,x21,4
  RVTEST_TESTDATA_LOAD_INT(x21, x11) # load rs2: x11 = 0x81ad3590
    12e0:	000aa583          	lw	x11,0(x21)
    12e4:	004a8a93          	addi	x21,x21,4

000012e8 <I_add_cg_cp_rs1_edges_0xaaaaaaaa>:
I_add_cg_cp_rs1_edges_0xaaaaaaaa:
  add x17, x10, x11 # perform operation
    12e8:	00b508b3          	add	x17,x10,x11
  # Check if x17 contains the expected result. x6 is the signature ptr, x5 is the link ptr, x4 is a temp reg.
  RVTEST_SIGUPD(x6, x5, x4, x17, I_add_cg_cp_rs1_edges_0xaaaaaaaa, I_add_cg_cp_rs1_edges_0xaaaaaaaa_str)
    12ec:	00032203          	lw	x4,0(x6)
    12f0:	01120863          	beq	x4,x17,1300 <I_add_cg_cp_rs1_edges_0xaaaaaaaa+0x18>
    12f4:	1c8032ef          	jal	x5,44bc <failedtest_x5_x4>
    12f8:	000012e8          	.word	0x000012e8
    12fc:	0000a0f3          	.word	0x0000a0f3
    1300:	00430313          	addi	x6,x6,4

# Testcase cp_rs1_edges (Test source rs1 value = 0x55555555)
  RVTEST_TESTDATA_LOAD_INT(x21, x11) # load rs1: x11 = 0x55555555
    1304:	000aa583          	lw	x11,0(x21)
    1308:	004a8a93          	addi	x21,x21,4
  RVTEST_TESTDATA_LOAD_INT(x21, x29) # load rs2: x29 = 0x125b9407
    130c:	000aae83          	lw	x29,0(x21)
    1310:	004a8a93          	addi	x21,x21,4

00001314 <I_add_cg_cp_rs1_edges_0x55555555>:
I_add_cg_cp_rs1_edges_0x55555555:
  add x22, x11, x29 # perform operation
    1314:	01d58b33          	add	x22,x11,x29
  # Check if x22 contains the expected result. x6 is the signature ptr, x5 is the link ptr, x4 is a temp reg.
  RVTEST_SIGUPD(x6, x5, x4, x22, I_add_cg_cp_rs1_edges_0x55555555, I_add_cg_cp_rs1_edges_0x55555555_str)
    1318:	00032203          	lw	x4,0(x6)
    131c:	01620863          	beq	x4,x22,132c <I_add_cg_cp_rs1_edges_0x55555555+0x18>
    1320:	19c032ef          	jal	x5,44bc <failedtest_x5_x4>
    1324:	00001314          	.word	0x00001314
    1328:	0000a130          	.word	0x0000a130
    132c:	00430313          	addi	x6,x6,4
/////////////////////////////////
// cp_rs2_edges
/////////////////////////////////

# Testcase cp_rs2_edges (Test source rs2 value = 0x00000000)
  RVTEST_TESTDATA_LOAD_INT(x21, x7) # load rs1: x7 = 0xf98291ee
    1330:	000aa383          	lw	x7,0(x21)
    1334:	004a8a93          	addi	x21,x21,4
  RVTEST_TESTDATA_LOAD_INT(x21, x25) # load rs2: x25 = 0x00000000
    1338:	000aac83          	lw	x25,0(x21)
    133c:	004a8a93          	addi	x21,x21,4

00001340 <I_add_cg_cp_rs2_edges_0x0>:
I_add_cg_cp_rs2_edges_0x0:
  add x15, x7, x25 # perform operation
    1340:	019387b3          	add	x15,x7,x25
  # Check if x15 contains the expected result. x6 is the signature ptr, x5 is the link ptr, x4 is a temp reg.
  RVTEST_SIGUPD(x6, x5, x4, x15, I_add_cg_cp_rs2_edges_0x0, I_add_cg_cp_rs2_edges_0x0_str)
    1344:	00032203          	lw	x4,0(x6)
    1348:	00f20863          	beq	x4,x15,1358 <I_add_cg_cp_rs2_edges_0x0+0x18>
    134c:	170032ef          	jal	x5,44bc <failedtest_x5_x4>
    1350:	00001340          	.word	0x00001340
    1354:	0000a16d          	.word	0x0000a16d
    1358:	00430313          	addi	x6,x6,4

# Testcase cp_rs2_edges (Test source rs2 value = 0x00000001)
  RVTEST_TESTDATA_LOAD_INT(x21, x8) # load rs1: x8 = 0x92be3f2b
    135c:	000aa403          	lw	x8,0(x21)
    1360:	004a8a93          	addi	x21,x21,4
  RVTEST_TESTDATA_LOAD_INT(x21, x23) # load rs2: x23 = 0x00000001
    1364:	000aab83          	lw	x23,0(x21)
    1368:	004a8a93          	addi	x21,x21,4

0000136c <I_add_cg_cp_rs2_edges_0x1>:
I_add_cg_cp_rs2_edges_0x1:
  add x9, x8, x23 # perform operation
    136c:	017404b3          	add	x9,x8,x23
  # Check if x9 contains the expected result. x6 is the signature ptr, x5 is the link ptr, x4 is a temp reg.
  RVTEST_SIGUPD(x6, x5, x4, x9, I_add_cg_cp_rs2_edges_0x1, I_add_cg_cp_rs2_edges_0x1_str)
    1370:	00032203          	lw	x4,0(x6)
    1374:	00920863          	beq	x4,x9,1384 <I_add_cg_cp_rs2_edges_0x1+0x18>
    1378:	144032ef          	jal	x5,44bc <failedtest_x5_x4>
    137c:	0000136c          	.word	0x0000136c
    1380:	0000a1a3          	.word	0x0000a1a3
    1384:	00430313          	addi	x6,x6,4

# Testcase cp_rs2_edges (Test source rs2 value = 0x00000002)
  RVTEST_TESTDATA_LOAD_INT(x21, x11) # load rs1: x11 = 0x30a1dae4
    1388:	000aa583          	lw	x11,0(x21)
    138c:	004a8a93          	addi	x21,x21,4
  RVTEST_TESTDATA_LOAD_INT(x21, x23) # load rs2: x23 = 0x00000002
    1390:	000aab83          	lw	x23,0(x21)
    1394:	004a8a93          	addi	x21,x21,4

00001398 <I_add_cg_cp_rs2_edges_0x2>:
I_add_cg_cp_rs2_edges_0x2:
  add x31, x11, x23 # perform operation
    1398:	01758fb3          	add	x31,x11,x23
  # Check if x31 contains the expected result. x6 is the signature ptr, x5 is the link ptr, x4 is a temp reg.
  RVTEST_SIGUPD(x6, x5, x4, x31, I_add_cg_cp_rs2_edges_0x2, I_add_cg_cp_rs2_edges_0x2_str)
    139c:	00032203          	lw	x4,0(x6)
    13a0:	01f20863          	beq	x4,x31,13b0 <I_add_cg_cp_rs2_edges_0x2+0x18>
    13a4:	118032ef          	jal	x5,44bc <failedtest_x5_x4>
    13a8:	00001398          	.word	0x00001398
    13ac:	0000a1d9          	.word	0x0000a1d9
    13b0:	00430313          	addi	x6,x6,4

# Testcase cp_rs2_edges (Test source rs2 value = 0x80000000)
  RVTEST_TESTDATA_LOAD_INT(x21, x29) # load rs1: x29 = 0x730a6ae4
    13b4:	000aae83          	lw	x29,0(x21)
    13b8:	004a8a93          	addi	x21,x21,4
  RVTEST_TESTDATA_LOAD_INT(x21, x22) # load rs2: x22 = 0x80000000
    13bc:	000aab03          	lw	x22,0(x21)
    13c0:	004a8a93          	addi	x21,x21,4

000013c4 <I_add_cg_cp_rs2_edges_0x80000000>:
I_add_cg_cp_rs2_edges_0x80000000:
  add x17, x29, x22 # perform operation
    13c4:	016e88b3          	add	x17,x29,x22
  # Check if x17 contains the expected result. x6 is the signature ptr, x5 is the link ptr, x4 is a temp reg.
  RVTEST_SIGUPD(x6, x5, x4, x17, I_add_cg_cp_rs2_edges_0x80000000, I_add_cg_cp_rs2_edges_0x80000000_str)
    13c8:	00032203          	lw	x4,0(x6)
    13cc:	01120863          	beq	x4,x17,13dc <I_add_cg_cp_rs2_edges_0x80000000+0x18>
    13d0:	0ec032ef          	jal	x5,44bc <failedtest_x5_x4>
    13d4:	000013c4          	.word	0x000013c4
    13d8:	0000a20f          	.word	0x0000a20f
    13dc:	00430313          	addi	x6,x6,4

# Testcase cp_rs2_edges (Test source rs2 value = 0x80000001)
  RVTEST_TESTDATA_LOAD_INT(x21, x23) # load rs1: x23 = 0x1e214dd4
    13e0:	000aab83          	lw	x23,0(x21)
    13e4:	004a8a93          	addi	x21,x21,4
  RVTEST_TESTDATA_LOAD_INT(x21, x9) # load rs2: x9 = 0x80000001
    13e8:	000aa483          	lw	x9,0(x21)
    13ec:	004a8a93          	addi	x21,x21,4

000013f0 <I_add_cg_cp_rs2_edges_0x80000001>:
I_add_cg_cp_rs2_edges_0x80000001:
  add x20, x23, x9 # perform operation
    13f0:	009b8a33          	add	x20,x23,x9
  # Check if x20 contains the expected result. x6 is the signature ptr, x5 is the link ptr, x4 is a temp reg.
  RVTEST_SIGUPD(x6, x5, x4, x20, I_add_cg_cp_rs2_edges_0x80000001, I_add_cg_cp_rs2_edges_0x80000001_str)
    13f4:	00032203          	lw	x4,0(x6)
    13f8:	01420863          	beq	x4,x20,1408 <I_add_cg_cp_rs2_edges_0x80000001+0x18>
    13fc:	0c0032ef          	jal	x5,44bc <failedtest_x5_x4>
    1400:	000013f0          	.word	0x000013f0
    1404:	0000a24c          	.word	0x0000a24c
    1408:	00430313          	addi	x6,x6,4

# Testcase cp_rs2_edges (Test source rs2 value = 0x7fffffff)
  RVTEST_TESTDATA_LOAD_INT(x21, x19) # load rs1: x19 = 0xb4de2b95
    140c:	000aa983          	lw	x19,0(x21)
    1410:	004a8a93          	addi	x21,x21,4
  RVTEST_TESTDATA_LOAD_INT(x21, x1) # load rs2: x1 = 0x7fffffff
    1414:	000aa083          	lw	x1,0(x21)
    1418:	004a8a93          	addi	x21,x21,4

0000141c <I_add_cg_cp_rs2_edges_0x7fffffff>:
I_add_cg_cp_rs2_edges_0x7fffffff:
  add x26, x19, x1 # perform operation
    141c:	00198d33          	add	x26,x19,x1
  # Check if x26 contains the expected result. x6 is the signature ptr, x5 is the link ptr, x4 is a temp reg.
  RVTEST_SIGUPD(x6, x5, x4, x26, I_add_cg_cp_rs2_edges_0x7fffffff, I_add_cg_cp_rs2_edges_0x7fffffff_str)
    1420:	00032203          	lw	x4,0(x6)
    1424:	01a20863          	beq	x4,x26,1434 <I_add_cg_cp_rs2_edges_0x7fffffff+0x18>
    1428:	094032ef          	jal	x5,44bc <failedtest_x5_x4>
    142c:	0000141c          	.word	0x0000141c
    1430:	0000a289          	.word	0x0000a289
    1434:	00430313          	addi	x6,x6,4

# Testcase cp_rs2_edges (Test source rs2 value = 0x7ffffffe)
  RVTEST_TESTDATA_LOAD_INT(x21, x22) # load rs1: x22 = 0x6b0265a5
    1438:	000aab03          	lw	x22,0(x21)
    143c:	004a8a93          	addi	x21,x21,4
  RVTEST_TESTDATA_LOAD_INT(x21, x20) # load rs2: x20 = 0x7ffffffe
    1440:	000aaa03          	lw	x20,0(x21)
    1444:	004a8a93          	addi	x21,x21,4

00001448 <I_add_cg_cp_rs2_edges_0x7ffffffe>:
I_add_cg_cp_rs2_edges_0x7ffffffe:
  add x31, x22, x20 # perform operation
    1448:	014b0fb3          	add	x31,x22,x20
  # Check if x31 contains the expected result. x6 is the signature ptr, x5 is the link ptr, x4 is a temp reg.
  RVTEST_SIGUPD(x6, x5, x4, x31, I_add_cg_cp_rs2_edges_0x7ffffffe, I_add_cg_cp_rs2_edges_0x7ffffffe_str)
    144c:	00032203          	lw	x4,0(x6)
    1450:	01f20863          	beq	x4,x31,1460 <I_add_cg_cp_rs2_edges_0x7ffffffe+0x18>
    1454:	068032ef          	jal	x5,44bc <failedtest_x5_x4>
    1458:	00001448          	.word	0x00001448
    145c:	0000a2c6          	.word	0x0000a2c6
    1460:	00430313          	addi	x6,x6,4

# Testcase cp_rs2_edges (Test source rs2 value = 0xffffffff)
  RVTEST_TESTDATA_LOAD_INT(x21, x29) # load rs1: x29 = 0x50ece1cc
    1464:	000aae83          	lw	x29,0(x21)
    1468:	004a8a93          	addi	x21,x21,4
  RVTEST_TESTDATA_LOAD_INT(x21, x2) # load rs2: x2 = 0xffffffff
    146c:	000aa103          	lw	x2,0(x21)
    1470:	004a8a93          	addi	x21,x21,4

00001474 <I_add_cg_cp_rs2_edges_0xffffffff>:
I_add_cg_cp_rs2_edges_0xffffffff:
  add x18, x29, x2 # perform operation
    1474:	002e8933          	add	x18,x29,x2
  # Check if x18 contains the expected result. x6 is the signature ptr, x5 is the link ptr, x4 is a temp reg.
  RVTEST_SIGUPD(x6, x5, x4, x18, I_add_cg_cp_rs2_edges_0xffffffff, I_add_cg_cp_rs2_edges_0xffffffff_str)
    1478:	00032203          	lw	x4,0(x6)
    147c:	01220863          	beq	x4,x18,148c <I_add_cg_cp_rs2_edges_0xffffffff+0x18>
    1480:	03c032ef          	jal	x5,44bc <failedtest_x5_x4>
    1484:	00001474          	.word	0x00001474
    1488:	0000a303          	.word	0x0000a303
    148c:	00430313          	addi	x6,x6,4

# Testcase cp_rs2_edges (Test source rs2 value = 0xfffffffe)
  RVTEST_TESTDATA_LOAD_INT(x21, x12) # load rs1: x12 = 0x4bb5f25c
    1490:	000aa603          	lw	x12,0(x21)
    1494:	004a8a93          	addi	x21,x21,4
  RVTEST_TESTDATA_LOAD_INT(x21, x24) # load rs2: x24 = 0xfffffffe
    1498:	000aac03          	lw	x24,0(x21)
    149c:	004a8a93          	addi	x21,x21,4

000014a0 <I_add_cg_cp_rs2_edges_0xfffffffe>:
I_add_cg_cp_rs2_edges_0xfffffffe:
  add x28, x12, x24 # perform operation
    14a0:	01860e33          	add	x28,x12,x24
  # Check if x28 contains the expected result. x6 is the signature ptr, x5 is the link ptr, x4 is a temp reg.
  RVTEST_SIGUPD(x6, x5, x4, x28, I_add_cg_cp_rs2_edges_0xfffffffe, I_add_cg_cp_rs2_edges_0xfffffffe_str)
    14a4:	00032203          	lw	x4,0(x6)
    14a8:	01c20863          	beq	x4,x28,14b8 <I_add_cg_cp_rs2_edges_0xfffffffe+0x18>
    14ac:	010032ef          	jal	x5,44bc <failedtest_x5_x4>
    14b0:	000014a0          	.word	0x000014a0
    14b4:	0000a340          	.word	0x0000a340
    14b8:	00430313          	addi	x6,x6,4

# Testcase cp_rs2_edges (Test source rs2 value = 0x5bbc8872)
  RVTEST_TESTDATA_LOAD_INT(x21, x3) # load rs1: x3 = 0xd857328e
    14bc:	000aa183          	lw	x3,0(x21)
    14c0:	004a8a93          	addi	x21,x21,4
  RVTEST_TESTDATA_LOAD_INT(x21, x16) # load rs2: x16 = 0x5bbc8872
    14c4:	000aa803          	lw	x16,0(x21)
    14c8:	004a8a93          	addi	x21,x21,4

000014cc <I_add_cg_cp_rs2_edges_0x5bbc8872>:
I_add_cg_cp_rs2_edges_0x5bbc8872:
  add x11, x3, x16 # perform operation
    14cc:	010185b3          	add	x11,x3,x16
  # Check if x11 contains the expected result. x6 is the signature ptr, x5 is the link ptr, x4 is a temp reg.
  RVTEST_SIGUPD(x6, x5, x4, x11, I_add_cg_cp_rs2_edges_0x5bbc8872, I_add_cg_cp_rs2_edges_0x5bbc8872_str)
    14d0:	00032203          	lw	x4,0(x6)
    14d4:	00b20863          	beq	x4,x11,14e4 <I_add_cg_cp_rs2_edges_0x5bbc8872+0x18>
    14d8:	7e5022ef          	jal	x5,44bc <failedtest_x5_x4>
    14dc:	000014cc          	.word	0x000014cc
    14e0:	0000a37d          	.word	0x0000a37d
    14e4:	00430313          	addi	x6,x6,4

# Testcase cp_rs2_edges (Test source rs2 value = 0xaaaaaaaa)
  RVTEST_TESTDATA_LOAD_INT(x21, x26) # load rs1: x26 = 0x0556e722
    14e8:	000aad03          	lw	x26,0(x21)
    14ec:	004a8a93          	addi	x21,x21,4
  RVTEST_TESTDATA_LOAD_INT(x21, x12) # load rs2: x12 = 0xaaaaaaaa
    14f0:	000aa603          	lw	x12,0(x21)
    14f4:	004a8a93          	addi	x21,x21,4

000014f8 <I_add_cg_cp_rs2_edges_0xaaaaaaaa>:
I_add_cg_cp_rs2_edges_0xaaaaaaaa:
  add x22, x26, x12 # perform operation
    14f8:	00cd0b33          	add	x22,x26,x12
  # Check if x22 contains the expected result. x6 is the signature ptr, x5 is the link ptr, x4 is a temp reg.
  RVTEST_SIGUPD(x6, x5, x4, x22, I_add_cg_cp_rs2_edges_0xaaaaaaaa, I_add_cg_cp_rs2_edges_0xaaaaaaaa_str)
    14fc:	00032203          	lw	x4,0(x6)
    1500:	01620863          	beq	x4,x22,1510 <I_add_cg_cp_rs2_edges_0xaaaaaaaa+0x18>
    1504:	7b9022ef          	jal	x5,44bc <failedtest_x5_x4>
    1508:	000014f8          	.word	0x000014f8
    150c:	0000a3ba          	.word	0x0000a3ba
    1510:	00430313          	addi	x6,x6,4

# Testcase cp_rs2_edges (Test source rs2 value = 0x55555555)
  RVTEST_TESTDATA_LOAD_INT(x21, x23) # load rs1: x23 = 0x00927107
    1514:	000aab83          	lw	x23,0(x21)
    1518:	004a8a93          	addi	x21,x21,4
  RVTEST_TESTDATA_LOAD_INT(x21, x19) # load rs2: x19 = 0x55555555
    151c:	000aa983          	lw	x19,0(x21)
    1520:	004a8a93          	addi	x21,x21,4

00001524 <I_add_cg_cp_rs2_edges_0x55555555>:
I_add_cg_cp_rs2_edges_0x55555555:
  add x29, x23, x19 # perform operation
    1524:	013b8eb3          	add	x29,x23,x19
  # Check if x29 contains the expected result. x6 is the signature ptr, x5 is the link ptr, x4 is a temp reg.
  RVTEST_SIGUPD(x6, x5, x4, x29, I_add_cg_cp_rs2_edges_0x55555555, I_add_cg_cp_rs2_edges_0x55555555_str)
    1528:	00032203          	lw	x4,0(x6)
    152c:	01d20863          	beq	x4,x29,153c <I_add_cg_cp_rs2_edges_0x55555555+0x18>
    1530:	78d022ef          	jal	x5,44bc <failedtest_x5_x4>
    1534:	00001524          	.word	0x00001524
    1538:	0000a3f7          	.word	0x0000a3f7
    153c:	00430313          	addi	x6,x6,4
/////////////////////////////////
// cr_rs1_rs2_edges
/////////////////////////////////

# Testcase cr_rs1_rs2_edges (Test source rs1 = 0x00000000 rs2 = 0x00000000)
  RVTEST_TESTDATA_LOAD_INT(x21, x23) # load rs1: x23 = 0x00000000
    1540:	000aab83          	lw	x23,0(x21)
    1544:	004a8a93          	addi	x21,x21,4
  RVTEST_TESTDATA_LOAD_INT(x21, x20) # load rs2: x20 = 0x00000000
    1548:	000aaa03          	lw	x20,0(x21)
    154c:	004a8a93          	addi	x21,x21,4

00001550 <I_add_cg_cr_rs1_rs2_edges_rs1val_0x0_rs2val_0x0>:
I_add_cg_cr_rs1_rs2_edges_rs1val_0x0_rs2val_0x0:
  add x11, x23, x20 # perform operation
    1550:	014b85b3          	add	x11,x23,x20
  # Check if x11 contains the expected result. x6 is the signature ptr, x5 is the link ptr, x4 is a temp reg.
  RVTEST_SIGUPD(x6, x5, x4, x11, I_add_cg_cr_rs1_rs2_edges_rs1val_0x0_rs2val_0x0, I_add_cg_cr_rs1_rs2_edges_rs1val_0x0_rs2val_0x0_str)
    1554:	00032203          	lw	x4,0(x6)
    1558:	00b20863          	beq	x4,x11,1568 <I_add_cg_cr_rs1_rs2_edges_rs1val_0x0_rs2val_0x0+0x18>
    155c:	761022ef          	jal	x5,44bc <failedtest_x5_x4>
    1560:	00001550          	.word	0x00001550
    1564:	0000a434          	.word	0x0000a434
    1568:	00430313          	addi	x6,x6,4

# Testcase cr_rs1_rs2_edges (Test source rs1 = 0x00000000 rs2 = 0x00000001)
  RVTEST_TESTDATA_LOAD_INT(x21, x2) # load rs1: x2 = 0x00000000
    156c:	000aa103          	lw	x2,0(x21)
    1570:	004a8a93          	addi	x21,x21,4
  RVTEST_TESTDATA_LOAD_INT(x21, x27) # load rs2: x27 = 0x00000001
    1574:	000aad83          	lw	x27,0(x21)
    1578:	004a8a93          	addi	x21,x21,4

0000157c <I_add_cg_cr_rs1_rs2_edges_rs1val_0x0_rs2val_0x1>:
I_add_cg_cr_rs1_rs2_edges_rs1val_0x0_rs2val_0x1:
  add x18, x2, x27 # perform operation
    157c:	01b10933          	add	x18,x2,x27
  # Check if x18 contains the expected result. x6 is the signature ptr, x5 is the link ptr, x4 is a temp reg.
  RVTEST_SIGUPD(x6, x5, x4, x18, I_add_cg_cr_rs1_rs2_edges_rs1val_0x0_rs2val_0x1, I_add_cg_cr_rs1_rs2_edges_rs1val_0x0_rs2val_0x1_str)
    1580:	00032203          	lw	x4,0(x6)
    1584:	01220863          	beq	x4,x18,1594 <I_add_cg_cr_rs1_rs2_edges_rs1val_0x0_rs2val_0x1+0x18>
    1588:	735022ef          	jal	x5,44bc <failedtest_x5_x4>
    158c:	0000157c          	.word	0x0000157c
    1590:	0000a481          	.word	0x0000a481
    1594:	00430313          	addi	x6,x6,4

# Testcase cr_rs1_rs2_edges (Test source rs1 = 0x00000000 rs2 = 0x00000002)
  RVTEST_TESTDATA_LOAD_INT(x21, x28) # load rs1: x28 = 0x00000000
    1598:	000aae03          	lw	x28,0(x21)
    159c:	004a8a93          	addi	x21,x21,4
  RVTEST_TESTDATA_LOAD_INT(x21, x25) # load rs2: x25 = 0x00000002
    15a0:	000aac83          	lw	x25,0(x21)
    15a4:	004a8a93          	addi	x21,x21,4

000015a8 <I_add_cg_cr_rs1_rs2_edges_rs1val_0x0_rs2val_0x2>:
I_add_cg_cr_rs1_rs2_edges_rs1val_0x0_rs2val_0x2:
  add x24, x28, x25 # perform operation
    15a8:	019e0c33          	add	x24,x28,x25
  # Check if x24 contains the expected result. x6 is the signature ptr, x5 is the link ptr, x4 is a temp reg.
  RVTEST_SIGUPD(x6, x5, x4, x24, I_add_cg_cr_rs1_rs2_edges_rs1val_0x0_rs2val_0x2, I_add_cg_cr_rs1_rs2_edges_rs1val_0x0_rs2val_0x2_str)
    15ac:	00032203          	lw	x4,0(x6)
    15b0:	01820863          	beq	x4,x24,15c0 <I_add_cg_cr_rs1_rs2_edges_rs1val_0x0_rs2val_0x2+0x18>
    15b4:	709022ef          	jal	x5,44bc <failedtest_x5_x4>
    15b8:	000015a8          	.word	0x000015a8
    15bc:	0000a4ce          	.word	0x0000a4ce
    15c0:	00430313          	addi	x6,x6,4

# Testcase cr_rs1_rs2_edges (Test source rs1 = 0x00000000 rs2 = 0x80000000)
  RVTEST_TESTDATA_LOAD_INT(x21, x17) # load rs1: x17 = 0x00000000
    15c4:	000aa883          	lw	x17,0(x21)
    15c8:	004a8a93          	addi	x21,x21,4
  RVTEST_TESTDATA_LOAD_INT(x21, x23) # load rs2: x23 = 0x80000000
    15cc:	000aab83          	lw	x23,0(x21)
    15d0:	004a8a93          	addi	x21,x21,4

000015d4 <I_add_cg_cr_rs1_rs2_edges_rs1val_0x0_rs2val_0x80000000>:
I_add_cg_cr_rs1_rs2_edges_rs1val_0x0_rs2val_0x80000000:
  add x7, x17, x23 # perform operation
    15d4:	017883b3          	add	x7,x17,x23
  # Check if x7 contains the expected result. x6 is the signature ptr, x5 is the link ptr, x4 is a temp reg.
  RVTEST_SIGUPD(x6, x5, x4, x7, I_add_cg_cr_rs1_rs2_edges_rs1val_0x0_rs2val_0x80000000, I_add_cg_cr_rs1_rs2_edges_rs1val_0x0_rs2val_0x80000000_str)
    15d8:	00032203          	lw	x4,0(x6)
    15dc:	00720863          	beq	x4,x7,15ec <I_add_cg_cr_rs1_rs2_edges_rs1val_0x0_rs2val_0x80000000+0x18>
    15e0:	6dd022ef          	jal	x5,44bc <failedtest_x5_x4>
    15e4:	000015d4          	.word	0x000015d4
    15e8:	0000a51b          	.word	0x0000a51b
    15ec:	00430313          	addi	x6,x6,4

# Testcase cr_rs1_rs2_edges (Test source rs1 = 0x00000000 rs2 = 0x80000001)
  RVTEST_TESTDATA_LOAD_INT(x21, x16) # load rs1: x16 = 0x00000000
    15f0:	000aa803          	lw	x16,0(x21)
    15f4:	004a8a93          	addi	x21,x21,4
  RVTEST_TESTDATA_LOAD_INT(x21, x12) # load rs2: x12 = 0x80000001
    15f8:	000aa603          	lw	x12,0(x21)
    15fc:	004a8a93          	addi	x21,x21,4

00001600 <I_add_cg_cr_rs1_rs2_edges_rs1val_0x0_rs2val_0x80000001>:
I_add_cg_cr_rs1_rs2_edges_rs1val_0x0_rs2val_0x80000001:
  add x31, x16, x12 # perform operation
    1600:	00c80fb3          	add	x31,x16,x12
  # Check if x31 contains the expected result. x6 is the signature ptr, x5 is the link ptr, x4 is a temp reg.
  RVTEST_SIGUPD(x6, x5, x4, x31, I_add_cg_cr_rs1_rs2_edges_rs1val_0x0_rs2val_0x80000001, I_add_cg_cr_rs1_rs2_edges_rs1val_0x0_rs2val_0x80000001_str)
    1604:	00032203          	lw	x4,0(x6)
    1608:	01f20863          	beq	x4,x31,1618 <I_add_cg_cr_rs1_rs2_edges_rs1val_0x0_rs2val_0x80000001+0x18>
    160c:	6b1022ef          	jal	x5,44bc <failedtest_x5_x4>
    1610:	00001600          	.word	0x00001600
    1614:	0000a56f          	.word	0x0000a56f
    1618:	00430313          	addi	x6,x6,4

# Testcase cr_rs1_rs2_edges (Test source rs1 = 0x00000000 rs2 = 0x7fffffff)
  RVTEST_TESTDATA_LOAD_INT(x21, x12) # load rs1: x12 = 0x00000000
    161c:	000aa603          	lw	x12,0(x21)
    1620:	004a8a93          	addi	x21,x21,4
  RVTEST_TESTDATA_LOAD_INT(x21, x25) # load rs2: x25 = 0x7fffffff
    1624:	000aac83          	lw	x25,0(x21)
    1628:	004a8a93          	addi	x21,x21,4

0000162c <I_add_cg_cr_rs1_rs2_edges_rs1val_0x0_rs2val_0x7fffffff>:
I_add_cg_cr_rs1_rs2_edges_rs1val_0x0_rs2val_0x7fffffff:
  add x9, x12, x25 # perform operation
    162c:	019604b3          	add	x9,x12,x25
  # Check if x9 contains the expected result. x6 is the signature ptr, x5 is the link ptr, x4 is a temp reg.
  RVTEST_SIGUPD(x6, x5, x4, x9, I_add_cg_cr_rs1_rs2_edges_rs1val_0x0_rs2val_0x7fffffff, I_add_cg_cr_rs1_rs2_edges_rs1val_0x0_rs2val_0x7fffffff_str)
    1630:	00032203          	lw	x4,0(x6)
    1634:	00920863          	beq	x4,x9,1644 <I_add_cg_cr_rs1_rs2_edges_rs1val_0x0_rs2val_0x7fffffff+0x18>
    1638:	685022ef          	jal	x5,44bc <failedtest_x5_x4>
    163c:	0000162c          	.word	0x0000162c
    1640:	0000a5c3          	.word	0x0000a5c3
    1644:	00430313          	addi	x6,x6,4

# Testcase cr_rs1_rs2_edges (Test source rs1 = 0x00000000 rs2 = 0x7ffffffe)
  RVTEST_TESTDATA_LOAD_INT(x21, x1) # load rs1: x1 = 0x00000000
    1648:	000aa083          	lw	x1,0(x21)
    164c:	004a8a93          	addi	x21,x21,4
  RVTEST_TESTDATA_LOAD_INT(x21, x20) # load rs2: x20 = 0x7ffffffe
    1650:	000aaa03          	lw	x20,0(x21)
    1654:	004a8a93          	addi	x21,x21,4

00001658 <I_add_cg_cr_rs1_rs2_edges_rs1val_0x0_rs2val_0x7ffffffe>:
I_add_cg_cr_rs1_rs2_edges_rs1val_0x0_rs2val_0x7ffffffe:
  add x13, x1, x20 # perform operation
    1658:	014086b3          	add	x13,x1,x20
  # Check if x13 contains the expected result. x6 is the signature ptr, x5 is the link ptr, x4 is a temp reg.
  RVTEST_SIGUPD(x6, x5, x4, x13, I_add_cg_cr_rs1_rs2_edges_rs1val_0x0_rs2val_0x7ffffffe, I_add_cg_cr_rs1_rs2_edges_rs1val_0x0_rs2val_0x7ffffffe_str)
    165c:	00032203          	lw	x4,0(x6)
    1660:	00d20863          	beq	x4,x13,1670 <I_add_cg_cr_rs1_rs2_edges_rs1val_0x0_rs2val_0x7ffffffe+0x18>
    1664:	659022ef          	jal	x5,44bc <failedtest_x5_x4>
    1668:	00001658          	.word	0x00001658
    166c:	0000a617          	.word	0x0000a617
    1670:	00430313          	addi	x6,x6,4

# Testcase cr_rs1_rs2_edges (Test source rs1 = 0x00000000 rs2 = 0xffffffff)
  RVTEST_TESTDATA_LOAD_INT(x21, x7) # load rs1: x7 = 0x00000000
    1674:	000aa383          	lw	x7,0(x21)
    1678:	004a8a93          	addi	x21,x21,4
  RVTEST_TESTDATA_LOAD_INT(x21, x18) # load rs2: x18 = 0xffffffff
    167c:	000aa903          	lw	x18,0(x21)
    1680:	004a8a93          	addi	x21,x21,4

00001684 <I_add_cg_cr_rs1_rs2_edges_rs1val_0x0_rs2val_0xffffffff>:
I_add_cg_cr_rs1_rs2_edges_rs1val_0x0_rs2val_0xffffffff:
  add x20, x7, x18 # perform operation
    1684:	01238a33          	add	x20,x7,x18
  # Check if x20 contains the expected result. x6 is the signature ptr, x5 is the link ptr, x4 is a temp reg.
  RVTEST_SIGUPD(x6, x5, x4, x20, I_add_cg_cr_rs1_rs2_edges_rs1val_0x0_rs2val_0xffffffff, I_add_cg_cr_rs1_rs2_edges_rs1val_0x0_rs2val_0xffffffff_str)
    1688:	00032203          	lw	x4,0(x6)
    168c:	01420863          	beq	x4,x20,169c <I_add_cg_cr_rs1_rs2_edges_rs1val_0x0_rs2val_0xffffffff+0x18>
    1690:	62d022ef          	jal	x5,44bc <failedtest_x5_x4>
    1694:	00001684          	.word	0x00001684
    1698:	0000a66b          	.word	0x0000a66b
    169c:	00430313          	addi	x6,x6,4

# Testcase cr_rs1_rs2_edges (Test source rs1 = 0x00000000 rs2 = 0xfffffffe)
  RVTEST_TESTDATA_LOAD_INT(x21, x25) # load rs1: x25 = 0x00000000
    16a0:	000aac83          	lw	x25,0(x21)
    16a4:	004a8a93          	addi	x21,x21,4
  RVTEST_TESTDATA_LOAD_INT(x21, x11) # load rs2: x11 = 0xfffffffe
    16a8:	000aa583          	lw	x11,0(x21)
    16ac:	004a8a93          	addi	x21,x21,4

000016b0 <I_add_cg_cr_rs1_rs2_edges_rs1val_0x0_rs2val_0xfffffffe>:
I_add_cg_cr_rs1_rs2_edges_rs1val_0x0_rs2val_0xfffffffe:
  add x23, x25, x11 # perform operation
    16b0:	00bc8bb3          	add	x23,x25,x11
  # Check if x23 contains the expected result. x6 is the signature ptr, x5 is the link ptr, x4 is a temp reg.
  RVTEST_SIGUPD(x6, x5, x4, x23, I_add_cg_cr_rs1_rs2_edges_rs1val_0x0_rs2val_0xfffffffe, I_add_cg_cr_rs1_rs2_edges_rs1val_0x0_rs2val_0xfffffffe_str)
    16b4:	00032203          	lw	x4,0(x6)
    16b8:	01720863          	beq	x4,x23,16c8 <I_add_cg_cr_rs1_rs2_edges_rs1val_0x0_rs2val_0xfffffffe+0x18>
    16bc:	601022ef          	jal	x5,44bc <failedtest_x5_x4>
    16c0:	000016b0          	.word	0x000016b0
    16c4:	0000a6bf          	.word	0x0000a6bf
    16c8:	00430313          	addi	x6,x6,4

# Testcase cr_rs1_rs2_edges (Test source rs1 = 0x00000000 rs2 = 0x5bbc8872)
  RVTEST_TESTDATA_LOAD_INT(x21, x16) # load rs1: x16 = 0x00000000
    16cc:	000aa803          	lw	x16,0(x21)
    16d0:	004a8a93          	addi	x21,x21,4
  RVTEST_TESTDATA_LOAD_INT(x21, x8) # load rs2: x8 = 0x5bbc8872
    16d4:	000aa403          	lw	x8,0(x21)
    16d8:	004a8a93          	addi	x21,x21,4

000016dc <I_add_cg_cr_rs1_rs2_edges_rs1val_0x0_rs2val_0x5bbc8872>:
I_add_cg_cr_rs1_rs2_edges_rs1val_0x0_rs2val_0x5bbc8872:
  add x22, x16, x8 # perform operation
    16dc:	00880b33          	add	x22,x16,x8
  # Check if x22 contains the expected result. x6 is the signature ptr, x5 is the link ptr, x4 is a temp reg.
  RVTEST_SIGUPD(x6, x5, x4, x22, I_add_cg_cr_rs1_rs2_edges_rs1val_0x0_rs2val_0x5bbc8872, I_add_cg_cr_rs1_rs2_edges_rs1val_0x0_rs2val_0x5bbc8872_str)
    16e0:	00032203          	lw	x4,0(x6)
    16e4:	01620863          	beq	x4,x22,16f4 <I_add_cg_cr_rs1_rs2_edges_rs1val_0x0_rs2val_0x5bbc8872+0x18>
    16e8:	5d5022ef          	jal	x5,44bc <failedtest_x5_x4>
    16ec:	000016dc          	.word	0x000016dc
    16f0:	0000a713          	.word	0x0000a713
    16f4:	00430313          	addi	x6,x6,4

# Testcase cr_rs1_rs2_edges (Test source rs1 = 0x00000000 rs2 = 0xaaaaaaaa)
  RVTEST_TESTDATA_LOAD_INT(x21, x25) # load rs1: x25 = 0x00000000
    16f8:	000aac83          	lw	x25,0(x21)
    16fc:	004a8a93          	addi	x21,x21,4
  RVTEST_TESTDATA_LOAD_INT(x21, x17) # load rs2: x17 = 0xaaaaaaaa
    1700:	000aa883          	lw	x17,0(x21)
    1704:	004a8a93          	addi	x21,x21,4

00001708 <I_add_cg_cr_rs1_rs2_edges_rs1val_0x0_rs2val_0xaaaaaaaa>:
I_add_cg_cr_rs1_rs2_edges_rs1val_0x0_rs2val_0xaaaaaaaa:
  add x12, x25, x17 # perform operation
    1708:	011c8633          	add	x12,x25,x17
  # Check if x12 contains the expected result. x6 is the signature ptr, x5 is the link ptr, x4 is a temp reg.
  RVTEST_SIGUPD(x6, x5, x4, x12, I_add_cg_cr_rs1_rs2_edges_rs1val_0x0_rs2val_0xaaaaaaaa, I_add_cg_cr_rs1_rs2_edges_rs1val_0x0_rs2val_0xaaaaaaaa_str)
    170c:	00032203          	lw	x4,0(x6)
    1710:	00c20863          	beq	x4,x12,1720 <I_add_cg_cr_rs1_rs2_edges_rs1val_0x0_rs2val_0xaaaaaaaa+0x18>
    1714:	5a9022ef          	jal	x5,44bc <failedtest_x5_x4>
    1718:	00001708          	.word	0x00001708
    171c:	0000a767          	.word	0x0000a767
    1720:	00430313          	addi	x6,x6,4

# Testcase cr_rs1_rs2_edges (Test source rs1 = 0x00000000 rs2 = 0x55555555)
  RVTEST_TESTDATA_LOAD_INT(x21, x27) # load rs1: x27 = 0x00000000
    1724:	000aad83          	lw	x27,0(x21)
    1728:	004a8a93          	addi	x21,x21,4
  RVTEST_TESTDATA_LOAD_INT(x21, x24) # load rs2: x24 = 0x55555555
    172c:	000aac03          	lw	x24,0(x21)
    1730:	004a8a93          	addi	x21,x21,4

00001734 <I_add_cg_cr_rs1_rs2_edges_rs1val_0x0_rs2val_0x55555555>:
I_add_cg_cr_rs1_rs2_edges_rs1val_0x0_rs2val_0x55555555:
  add x25, x27, x24 # perform operation
    1734:	018d8cb3          	add	x25,x27,x24
  # Check if x25 contains the expected result. x6 is the signature ptr, x5 is the link ptr, x4 is a temp reg.
  RVTEST_SIGUPD(x6, x5, x4, x25, I_add_cg_cr_rs1_rs2_edges_rs1val_0x0_rs2val_0x55555555, I_add_cg_cr_rs1_rs2_edges_rs1val_0x0_rs2val_0x55555555_str)
    1738:	00032203          	lw	x4,0(x6)
    173c:	01920863          	beq	x4,x25,174c <I_add_cg_cr_rs1_rs2_edges_rs1val_0x0_rs2val_0x55555555+0x18>
    1740:	57d022ef          	jal	x5,44bc <failedtest_x5_x4>
    1744:	00001734          	.word	0x00001734
    1748:	0000a7bb          	.word	0x0000a7bb
    174c:	00430313          	addi	x6,x6,4

# Testcase cr_rs1_rs2_edges (Test source rs1 = 0x00000001 rs2 = 0x00000000)
  RVTEST_TESTDATA_LOAD_INT(x21, x15) # load rs1: x15 = 0x00000001
    1750:	000aa783          	lw	x15,0(x21)
    1754:	004a8a93          	addi	x21,x21,4
  RVTEST_TESTDATA_LOAD_INT(x21, x31) # load rs2: x31 = 0x00000000
    1758:	000aaf83          	lw	x31,0(x21)
    175c:	004a8a93          	addi	x21,x21,4

00001760 <I_add_cg_cr_rs1_rs2_edges_rs1val_0x1_rs2val_0x0>:
I_add_cg_cr_rs1_rs2_edges_rs1val_0x1_rs2val_0x0:
  add x9, x15, x31 # perform operation
    1760:	01f784b3          	add	x9,x15,x31
  # Check if x9 contains the expected result. x6 is the signature ptr, x5 is the link ptr, x4 is a temp reg.
  RVTEST_SIGUPD(x6, x5, x4, x9, I_add_cg_cr_rs1_rs2_edges_rs1val_0x1_rs2val_0x0, I_add_cg_cr_rs1_rs2_edges_rs1val_0x1_rs2val_0x0_str)
    1764:	00032203          	lw	x4,0(x6)
    1768:	00920863          	beq	x4,x9,1778 <I_add_cg_cr_rs1_rs2_edges_rs1val_0x1_rs2val_0x0+0x18>
    176c:	551022ef          	jal	x5,44bc <failedtest_x5_x4>
    1770:	00001760          	.word	0x00001760
    1774:	0000a80f          	.word	0x0000a80f
    1778:	00430313          	addi	x6,x6,4

# Testcase cr_rs1_rs2_edges (Test source rs1 = 0x00000001 rs2 = 0x00000001)
  RVTEST_TESTDATA_LOAD_INT(x21, x20) # load rs1: x20 = 0x00000001
    177c:	000aaa03          	lw	x20,0(x21)
    1780:	004a8a93          	addi	x21,x21,4
  RVTEST_TESTDATA_LOAD_INT(x21, x15) # load rs2: x15 = 0x00000001
    1784:	000aa783          	lw	x15,0(x21)
    1788:	004a8a93          	addi	x21,x21,4

0000178c <I_add_cg_cr_rs1_rs2_edges_rs1val_0x1_rs2val_0x1>:
I_add_cg_cr_rs1_rs2_edges_rs1val_0x1_rs2val_0x1:
  add x1, x20, x15 # perform operation
    178c:	00fa00b3          	add	x1,x20,x15
  # Check if x1 contains the expected result. x6 is the signature ptr, x5 is the link ptr, x4 is a temp reg.
  RVTEST_SIGUPD(x6, x5, x4, x1, I_add_cg_cr_rs1_rs2_edges_rs1val_0x1_rs2val_0x1, I_add_cg_cr_rs1_rs2_edges_rs1val_0x1_rs2val_0x1_str)
    1790:	00032203          	lw	x4,0(x6)
    1794:	00120863          	beq	x4,x1,17a4 <I_add_cg_cr_rs1_rs2_edges_rs1val_0x1_rs2val_0x1+0x18>
    1798:	525022ef          	jal	x5,44bc <failedtest_x5_x4>
    179c:	0000178c          	.word	0x0000178c
    17a0:	0000a85c          	.word	0x0000a85c
    17a4:	00430313          	addi	x6,x6,4

# Testcase cr_rs1_rs2_edges (Test source rs1 = 0x00000001 rs2 = 0x00000002)
  RVTEST_TESTDATA_LOAD_INT(x21, x26) # load rs1: x26 = 0x00000001
    17a8:	000aad03          	lw	x26,0(x21)
    17ac:	004a8a93          	addi	x21,x21,4
  RVTEST_TESTDATA_LOAD_INT(x21, x27) # load rs2: x27 = 0x00000002
    17b0:	000aad83          	lw	x27,0(x21)
    17b4:	004a8a93          	addi	x21,x21,4

000017b8 <I_add_cg_cr_rs1_rs2_edges_rs1val_0x1_rs2val_0x2>:
I_add_cg_cr_rs1_rs2_edges_rs1val_0x1_rs2val_0x2:
  add x24, x26, x27 # perform operation
    17b8:	01bd0c33          	add	x24,x26,x27
  # Check if x24 contains the expected result. x6 is the signature ptr, x5 is the link ptr, x4 is a temp reg.
  RVTEST_SIGUPD(x6, x5, x4, x24, I_add_cg_cr_rs1_rs2_edges_rs1val_0x1_rs2val_0x2, I_add_cg_cr_rs1_rs2_edges_rs1val_0x1_rs2val_0x2_str)
    17bc:	00032203          	lw	x4,0(x6)
    17c0:	01820863          	beq	x4,x24,17d0 <I_add_cg_cr_rs1_rs2_edges_rs1val_0x1_rs2val_0x2+0x18>
    17c4:	4f9022ef          	jal	x5,44bc <failedtest_x5_x4>
    17c8:	000017b8          	.word	0x000017b8
    17cc:	0000a8a9          	.word	0x0000a8a9
    17d0:	00430313          	addi	x6,x6,4

# Testcase cr_rs1_rs2_edges (Test source rs1 = 0x00000001 rs2 = 0x80000000)
  RVTEST_TESTDATA_LOAD_INT(x21, x15) # load rs1: x15 = 0x00000001
    17d4:	000aa783          	lw	x15,0(x21)
    17d8:	004a8a93          	addi	x21,x21,4
  RVTEST_TESTDATA_LOAD_INT(x21, x8) # load rs2: x8 = 0x80000000
    17dc:	000aa403          	lw	x8,0(x21)
    17e0:	004a8a93          	addi	x21,x21,4

000017e4 <I_add_cg_cr_rs1_rs2_edges_rs1val_0x1_rs2val_0x80000000>:
I_add_cg_cr_rs1_rs2_edges_rs1val_0x1_rs2val_0x80000000:
  add x29, x15, x8 # perform operation
    17e4:	00878eb3          	add	x29,x15,x8
  # Check if x29 contains the expected result. x6 is the signature ptr, x5 is the link ptr, x4 is a temp reg.
  RVTEST_SIGUPD(x6, x5, x4, x29, I_add_cg_cr_rs1_rs2_edges_rs1val_0x1_rs2val_0x80000000, I_add_cg_cr_rs1_rs2_edges_rs1val_0x1_rs2val_0x80000000_str)
    17e8:	00032203          	lw	x4,0(x6)
    17ec:	01d20863          	beq	x4,x29,17fc <I_add_cg_cr_rs1_rs2_edges_rs1val_0x1_rs2val_0x80000000+0x18>
    17f0:	4cd022ef          	jal	x5,44bc <failedtest_x5_x4>
    17f4:	000017e4          	.word	0x000017e4
    17f8:	0000a8f6          	.word	0x0000a8f6
    17fc:	00430313          	addi	x6,x6,4

# Testcase cr_rs1_rs2_edges (Test source rs1 = 0x00000001 rs2 = 0x80000001)
  RVTEST_TESTDATA_LOAD_INT(x21, x9) # load rs1: x9 = 0x00000001
    1800:	000aa483          	lw	x9,0(x21)
    1804:	004a8a93          	addi	x21,x21,4
  RVTEST_TESTDATA_LOAD_INT(x21, x20) # load rs2: x20 = 0x80000001
    1808:	000aaa03          	lw	x20,0(x21)
    180c:	004a8a93          	addi	x21,x21,4

00001810 <I_add_cg_cr_rs1_rs2_edges_rs1val_0x1_rs2val_0x80000001>:
I_add_cg_cr_rs1_rs2_edges_rs1val_0x1_rs2val_0x80000001:
  add x24, x9, x20 # perform operation
    1810:	01448c33          	add	x24,x9,x20
  # Check if x24 contains the expected result. x6 is the signature ptr, x5 is the link ptr, x4 is a temp reg.
  RVTEST_SIGUPD(x6, x5, x4, x24, I_add_cg_cr_rs1_rs2_edges_rs1val_0x1_rs2val_0x80000001, I_add_cg_cr_rs1_rs2_edges_rs1val_0x1_rs2val_0x80000001_str)
    1814:	00032203          	lw	x4,0(x6)
    1818:	01820863          	beq	x4,x24,1828 <I_add_cg_cr_rs1_rs2_edges_rs1val_0x1_rs2val_0x80000001+0x18>
    181c:	4a1022ef          	jal	x5,44bc <failedtest_x5_x4>
    1820:	00001810          	.word	0x00001810
    1824:	0000a94a          	.word	0x0000a94a
    1828:	00430313          	addi	x6,x6,4

# Testcase cr_rs1_rs2_edges (Test source rs1 = 0x00000001 rs2 = 0x7fffffff)
  RVTEST_TESTDATA_LOAD_INT(x21, x27) # load rs1: x27 = 0x00000001
    182c:	000aad83          	lw	x27,0(x21)
    1830:	004a8a93          	addi	x21,x21,4
  RVTEST_TESTDATA_LOAD_INT(x21, x29) # load rs2: x29 = 0x7fffffff
    1834:	000aae83          	lw	x29,0(x21)
    1838:	004a8a93          	addi	x21,x21,4

0000183c <I_add_cg_cr_rs1_rs2_edges_rs1val_0x1_rs2val_0x7fffffff>:
I_add_cg_cr_rs1_rs2_edges_rs1val_0x1_rs2val_0x7fffffff:
  add x8, x27, x29 # perform operation
    183c:	01dd8433          	add	x8,x27,x29
  # Check if x8 contains the expected result. x6 is the signature ptr, x5 is the link ptr, x4 is a temp reg.
  RVTEST_SIGUPD(x6, x5, x4, x8, I_add_cg_cr_rs1_rs2_edges_rs1val_0x1_rs2val_0x7fffffff, I_add_cg_cr_rs1_rs2_edges_rs1val_0x1_rs2val_0x7fffffff_str)
    1840:	00032203          	lw	x4,0(x6)
    1844:	00820863          	beq	x4,x8,1854 <I_add_cg_cr_rs1_rs2_edges_rs1val_0x1_rs2val_0x7fffffff+0x18>
    1848:	475022ef          	jal	x5,44bc <failedtest_x5_x4>
    184c:	0000183c          	.word	0x0000183c
    1850:	0000a99e          	.word	0x0000a99e
    1854:	00430313          	addi	x6,x6,4

# Testcase cr_rs1_rs2_edges (Test source rs1 = 0x00000001 rs2 = 0x7ffffffe)
  RVTEST_TESTDATA_LOAD_INT(x21, x28) # load rs1: x28 = 0x00000001
    1858:	000aae03          	lw	x28,0(x21)
    185c:	004a8a93          	addi	x21,x21,4
  RVTEST_TESTDATA_LOAD_INT(x21, x12) # load rs2: x12 = 0x7ffffffe
    1860:	000aa603          	lw	x12,0(x21)
    1864:	004a8a93          	addi	x21,x21,4

00001868 <I_add_cg_cr_rs1_rs2_edges_rs1val_0x1_rs2val_0x7ffffffe>:
I_add_cg_cr_rs1_rs2_edges_rs1val_0x1_rs2val_0x7ffffffe:
  add x7, x28, x12 # perform operation
    1868:	00ce03b3          	add	x7,x28,x12
  # Check if x7 contains the expected result. x6 is the signature ptr, x5 is the link ptr, x4 is a temp reg.
  RVTEST_SIGUPD(x6, x5, x4, x7, I_add_cg_cr_rs1_rs2_edges_rs1val_0x1_rs2val_0x7ffffffe, I_add_cg_cr_rs1_rs2_edges_rs1val_0x1_rs2val_0x7ffffffe_str)
    186c:	00032203          	lw	x4,0(x6)
    1870:	00720863          	beq	x4,x7,1880 <I_add_cg_cr_rs1_rs2_edges_rs1val_0x1_rs2val_0x7ffffffe+0x18>
    1874:	449022ef          	jal	x5,44bc <failedtest_x5_x4>
    1878:	00001868          	.word	0x00001868
    187c:	0000a9f2          	.word	0x0000a9f2
    1880:	00430313          	addi	x6,x6,4

# Testcase cr_rs1_rs2_edges (Test source rs1 = 0x00000001 rs2 = 0xffffffff)
  RVTEST_TESTDATA_LOAD_INT(x21, x19) # load rs1: x19 = 0x00000001
    1884:	000aa983          	lw	x19,0(x21)
    1888:	004a8a93          	addi	x21,x21,4
  RVTEST_TESTDATA_LOAD_INT(x21, x29) # load rs2: x29 = 0xffffffff
    188c:	000aae83          	lw	x29,0(x21)
    1890:	004a8a93          	addi	x21,x21,4

00001894 <I_add_cg_cr_rs1_rs2_edges_rs1val_0x1_rs2val_0xffffffff>:
I_add_cg_cr_rs1_rs2_edges_rs1val_0x1_rs2val_0xffffffff:
  add x16, x19, x29 # perform operation
    1894:	01d98833          	add	x16,x19,x29
  # Check if x16 contains the expected result. x6 is the signature ptr, x5 is the link ptr, x4 is a temp reg.
  RVTEST_SIGUPD(x6, x5, x4, x16, I_add_cg_cr_rs1_rs2_edges_rs1val_0x1_rs2val_0xffffffff, I_add_cg_cr_rs1_rs2_edges_rs1val_0x1_rs2val_0xffffffff_str)
    1898:	00032203          	lw	x4,0(x6)
    189c:	01020863          	beq	x4,x16,18ac <I_add_cg_cr_rs1_rs2_edges_rs1val_0x1_rs2val_0xffffffff+0x18>
    18a0:	41d022ef          	jal	x5,44bc <failedtest_x5_x4>
    18a4:	00001894          	.word	0x00001894
    18a8:	0000aa46          	.word	0x0000aa46
    18ac:	00430313          	addi	x6,x6,4

# Testcase cr_rs1_rs2_edges (Test source rs1 = 0x00000001 rs2 = 0xfffffffe)
  RVTEST_TESTDATA_LOAD_INT(x21, x24) # load rs1: x24 = 0x00000001
    18b0:	000aac03          	lw	x24,0(x21)
    18b4:	004a8a93          	addi	x21,x21,4
  RVTEST_TESTDATA_LOAD_INT(x21, x11) # load rs2: x11 = 0xfffffffe
    18b8:	000aa583          	lw	x11,0(x21)
    18bc:	004a8a93          	addi	x21,x21,4

000018c0 <I_add_cg_cr_rs1_rs2_edges_rs1val_0x1_rs2val_0xfffffffe>:
I_add_cg_cr_rs1_rs2_edges_rs1val_0x1_rs2val_0xfffffffe:
  add x9, x24, x11 # perform operation
    18c0:	00bc04b3          	add	x9,x24,x11
  # Check if x9 contains the expected result. x6 is the signature ptr, x5 is the link ptr, x4 is a temp reg.
  RVTEST_SIGUPD(x6, x5, x4, x9, I_add_cg_cr_rs1_rs2_edges_rs1val_0x1_rs2val_0xfffffffe, I_add_cg_cr_rs1_rs2_edges_rs1val_0x1_rs2val_0xfffffffe_str)
    18c4:	00032203          	lw	x4,0(x6)
    18c8:	00920863          	beq	x4,x9,18d8 <I_add_cg_cr_rs1_rs2_edges_rs1val_0x1_rs2val_0xfffffffe+0x18>
    18cc:	3f1022ef          	jal	x5,44bc <failedtest_x5_x4>
    18d0:	000018c0          	.word	0x000018c0
    18d4:	0000aa9a          	.word	0x0000aa9a
    18d8:	00430313          	addi	x6,x6,4

# Testcase cr_rs1_rs2_edges (Test source rs1 = 0x00000001 rs2 = 0x5bbc8872)
  RVTEST_TESTDATA_LOAD_INT(x21, x18) # load rs1: x18 = 0x00000001
    18dc:	000aa903          	lw	x18,0(x21)
    18e0:	004a8a93          	addi	x21,x21,4
  RVTEST_TESTDATA_LOAD_INT(x21, x23) # load rs2: x23 = 0x5bbc8872
    18e4:	000aab83          	lw	x23,0(x21)
    18e8:	004a8a93          	addi	x21,x21,4

000018ec <I_add_cg_cr_rs1_rs2_edges_rs1val_0x1_rs2val_0x5bbc8872>:
I_add_cg_cr_rs1_rs2_edges_rs1val_0x1_rs2val_0x5bbc8872:
  add x15, x18, x23 # perform operation
    18ec:	017907b3          	add	x15,x18,x23
  # Check if x15 contains the expected result. x6 is the signature ptr, x5 is the link ptr, x4 is a temp reg.
  RVTEST_SIGUPD(x6, x5, x4, x15, I_add_cg_cr_rs1_rs2_edges_rs1val_0x1_rs2val_0x5bbc8872, I_add_cg_cr_rs1_rs2_edges_rs1val_0x1_rs2val_0x5bbc8872_str)
    18f0:	00032203          	lw	x4,0(x6)
    18f4:	00f20863          	beq	x4,x15,1904 <I_add_cg_cr_rs1_rs2_edges_rs1val_0x1_rs2val_0x5bbc8872+0x18>
    18f8:	3c5022ef          	jal	x5,44bc <failedtest_x5_x4>
    18fc:	000018ec          	.word	0x000018ec
    1900:	0000aaee          	.word	0x0000aaee
    1904:	00430313          	addi	x6,x6,4

# Testcase cr_rs1_rs2_edges (Test source rs1 = 0x00000001 rs2 = 0xaaaaaaaa)
  RVTEST_TESTDATA_LOAD_INT(x21, x3) # load rs1: x3 = 0x00000001
    1908:	000aa183          	lw	x3,0(x21)
    190c:	004a8a93          	addi	x21,x21,4
  RVTEST_TESTDATA_LOAD_INT(x21, x22) # load rs2: x22 = 0xaaaaaaaa
    1910:	000aab03          	lw	x22,0(x21)
    1914:	004a8a93          	addi	x21,x21,4

00001918 <I_add_cg_cr_rs1_rs2_edges_rs1val_0x1_rs2val_0xaaaaaaaa>:
I_add_cg_cr_rs1_rs2_edges_rs1val_0x1_rs2val_0xaaaaaaaa:
  add x18, x3, x22 # perform operation
    1918:	01618933          	add	x18,x3,x22
  # Check if x18 contains the expected result. x6 is the signature ptr, x5 is the link ptr, x4 is a temp reg.
  RVTEST_SIGUPD(x6, x5, x4, x18, I_add_cg_cr_rs1_rs2_edges_rs1val_0x1_rs2val_0xaaaaaaaa, I_add_cg_cr_rs1_rs2_edges_rs1val_0x1_rs2val_0xaaaaaaaa_str)
    191c:	00032203          	lw	x4,0(x6)
    1920:	01220863          	beq	x4,x18,1930 <I_add_cg_cr_rs1_rs2_edges_rs1val_0x1_rs2val_0xaaaaaaaa+0x18>
    1924:	399022ef          	jal	x5,44bc <failedtest_x5_x4>
    1928:	00001918          	.word	0x00001918
    192c:	0000ab42          	.word	0x0000ab42
    1930:	00430313          	addi	x6,x6,4

# Testcase cr_rs1_rs2_edges (Test source rs1 = 0x00000001 rs2 = 0x55555555)
  RVTEST_TESTDATA_LOAD_INT(x21, x28) # load rs1: x28 = 0x00000001
    1934:	000aae03          	lw	x28,0(x21)
    1938:	004a8a93          	addi	x21,x21,4
  RVTEST_TESTDATA_LOAD_INT(x21, x9) # load rs2: x9 = 0x55555555
    193c:	000aa483          	lw	x9,0(x21)
    1940:	004a8a93          	addi	x21,x21,4

00001944 <I_add_cg_cr_rs1_rs2_edges_rs1val_0x1_rs2val_0x55555555>:
I_add_cg_cr_rs1_rs2_edges_rs1val_0x1_rs2val_0x55555555:
  add x29, x28, x9 # perform operation
    1944:	009e0eb3          	add	x29,x28,x9
  # Check if x29 contains the expected result. x6 is the signature ptr, x5 is the link ptr, x4 is a temp reg.
  RVTEST_SIGUPD(x6, x5, x4, x29, I_add_cg_cr_rs1_rs2_edges_rs1val_0x1_rs2val_0x55555555, I_add_cg_cr_rs1_rs2_edges_rs1val_0x1_rs2val_0x55555555_str)
    1948:	00032203          	lw	x4,0(x6)
    194c:	01d20863          	beq	x4,x29,195c <I_add_cg_cr_rs1_rs2_edges_rs1val_0x1_rs2val_0x55555555+0x18>
    1950:	36d022ef          	jal	x5,44bc <failedtest_x5_x4>
    1954:	00001944          	.word	0x00001944
    1958:	0000ab96          	.word	0x0000ab96
    195c:	00430313          	addi	x6,x6,4

# Testcase cr_rs1_rs2_edges (Test source rs1 = 0x00000002 rs2 = 0x00000000)
  RVTEST_TESTDATA_LOAD_INT(x21, x27) # load rs1: x27 = 0x00000002
    1960:	000aad83          	lw	x27,0(x21)
    1964:	004a8a93          	addi	x21,x21,4
  RVTEST_TESTDATA_LOAD_INT(x21, x28) # load rs2: x28 = 0x00000000
    1968:	000aae03          	lw	x28,0(x21)
    196c:	004a8a93          	addi	x21,x21,4

00001970 <I_add_cg_cr_rs1_rs2_edges_rs1val_0x2_rs2val_0x0>:
I_add_cg_cr_rs1_rs2_edges_rs1val_0x2_rs2val_0x0:
  add x15, x27, x28 # perform operation
    1970:	01cd87b3          	add	x15,x27,x28
  # Check if x15 contains the expected result. x6 is the signature ptr, x5 is the link ptr, x4 is a temp reg.
  RVTEST_SIGUPD(x6, x5, x4, x15, I_add_cg_cr_rs1_rs2_edges_rs1val_0x2_rs2val_0x0, I_add_cg_cr_rs1_rs2_edges_rs1val_0x2_rs2val_0x0_str)
    1974:	00032203          	lw	x4,0(x6)
    1978:	00f20863          	beq	x4,x15,1988 <I_add_cg_cr_rs1_rs2_edges_rs1val_0x2_rs2val_0x0+0x18>
    197c:	341022ef          	jal	x5,44bc <failedtest_x5_x4>
    1980:	00001970          	.word	0x00001970
    1984:	0000abea          	.word	0x0000abea
    1988:	00430313          	addi	x6,x6,4

# Testcase cr_rs1_rs2_edges (Test source rs1 = 0x00000002 rs2 = 0x00000001)
  RVTEST_TESTDATA_LOAD_INT(x21, x7) # load rs1: x7 = 0x00000002
    198c:	000aa383          	lw	x7,0(x21)
    1990:	004a8a93          	addi	x21,x21,4
  RVTEST_TESTDATA_LOAD_INT(x21, x20) # load rs2: x20 = 0x00000001
    1994:	000aaa03          	lw	x20,0(x21)
    1998:	004a8a93          	addi	x21,x21,4

0000199c <I_add_cg_cr_rs1_rs2_edges_rs1val_0x2_rs2val_0x1>:
I_add_cg_cr_rs1_rs2_edges_rs1val_0x2_rs2val_0x1:
  add x13, x7, x20 # perform operation
    199c:	014386b3          	add	x13,x7,x20
  # Check if x13 contains the expected result. x6 is the signature ptr, x5 is the link ptr, x4 is a temp reg.
  RVTEST_SIGUPD(x6, x5, x4, x13, I_add_cg_cr_rs1_rs2_edges_rs1val_0x2_rs2val_0x1, I_add_cg_cr_rs1_rs2_edges_rs1val_0x2_rs2val_0x1_str)
    19a0:	00032203          	lw	x4,0(x6)
    19a4:	00d20863          	beq	x4,x13,19b4 <I_add_cg_cr_rs1_rs2_edges_rs1val_0x2_rs2val_0x1+0x18>
    19a8:	315022ef          	jal	x5,44bc <failedtest_x5_x4>
    19ac:	0000199c          	.word	0x0000199c
    19b0:	0000ac37          	.word	0x0000ac37
    19b4:	00430313          	addi	x6,x6,4

# Testcase cr_rs1_rs2_edges (Test source rs1 = 0x00000002 rs2 = 0x00000002)
  RVTEST_TESTDATA_LOAD_INT(x21, x27) # load rs1: x27 = 0x00000002
    19b8:	000aad83          	lw	x27,0(x21)
    19bc:	004a8a93          	addi	x21,x21,4
  RVTEST_TESTDATA_LOAD_INT(x21, x12) # load rs2: x12 = 0x00000002
    19c0:	000aa603          	lw	x12,0(x21)
    19c4:	004a8a93          	addi	x21,x21,4

000019c8 <I_add_cg_cr_rs1_rs2_edges_rs1val_0x2_rs2val_0x2>:
I_add_cg_cr_rs1_rs2_edges_rs1val_0x2_rs2val_0x2:
  add x30, x27, x12 # perform operation
    19c8:	00cd8f33          	add	x30,x27,x12
  # Check if x30 contains the expected result. x6 is the signature ptr, x5 is the link ptr, x4 is a temp reg.
  RVTEST_SIGUPD(x6, x5, x4, x30, I_add_cg_cr_rs1_rs2_edges_rs1val_0x2_rs2val_0x2, I_add_cg_cr_rs1_rs2_edges_rs1val_0x2_rs2val_0x2_str)
    19cc:	00032203          	lw	x4,0(x6)
    19d0:	01e20863          	beq	x4,x30,19e0 <I_add_cg_cr_rs1_rs2_edges_rs1val_0x2_rs2val_0x2+0x18>
    19d4:	2e9022ef          	jal	x5,44bc <failedtest_x5_x4>
    19d8:	000019c8          	.word	0x000019c8
    19dc:	0000ac84          	.word	0x0000ac84
    19e0:	00430313          	addi	x6,x6,4

# Testcase cr_rs1_rs2_edges (Test source rs1 = 0x00000002 rs2 = 0x80000000)
  RVTEST_TESTDATA_LOAD_INT(x21, x12) # load rs1: x12 = 0x00000002
    19e4:	000aa603          	lw	x12,0(x21)
    19e8:	004a8a93          	addi	x21,x21,4
  RVTEST_TESTDATA_LOAD_INT(x21, x17) # load rs2: x17 = 0x80000000
    19ec:	000aa883          	lw	x17,0(x21)
    19f0:	004a8a93          	addi	x21,x21,4

000019f4 <I_add_cg_cr_rs1_rs2_edges_rs1val_0x2_rs2val_0x80000000>:
I_add_cg_cr_rs1_rs2_edges_rs1val_0x2_rs2val_0x80000000:
  add x24, x12, x17 # perform operation
    19f4:	01160c33          	add	x24,x12,x17
  # Check if x24 contains the expected result. x6 is the signature ptr, x5 is the link ptr, x4 is a temp reg.
  RVTEST_SIGUPD(x6, x5, x4, x24, I_add_cg_cr_rs1_rs2_edges_rs1val_0x2_rs2val_0x80000000, I_add_cg_cr_rs1_rs2_edges_rs1val_0x2_rs2val_0x80000000_str)
    19f8:	00032203          	lw	x4,0(x6)
    19fc:	01820863          	beq	x4,x24,1a0c <I_add_cg_cr_rs1_rs2_edges_rs1val_0x2_rs2val_0x80000000+0x18>
    1a00:	2bd022ef          	jal	x5,44bc <failedtest_x5_x4>
    1a04:	000019f4          	.word	0x000019f4
    1a08:	0000acd1          	.word	0x0000acd1
    1a0c:	00430313          	addi	x6,x6,4

# Testcase cr_rs1_rs2_edges (Test source rs1 = 0x00000002 rs2 = 0x80000001)
  RVTEST_TESTDATA_LOAD_INT(x21, x20) # load rs1: x20 = 0x00000002
    1a10:	000aaa03          	lw	x20,0(x21)
    1a14:	004a8a93          	addi	x21,x21,4
  RVTEST_TESTDATA_LOAD_INT(x21, x30) # load rs2: x30 = 0x80000001
    1a18:	000aaf03          	lw	x30,0(x21)
    1a1c:	004a8a93          	addi	x21,x21,4

00001a20 <I_add_cg_cr_rs1_rs2_edges_rs1val_0x2_rs2val_0x80000001>:
I_add_cg_cr_rs1_rs2_edges_rs1val_0x2_rs2val_0x80000001:
  add x23, x20, x30 # perform operation
    1a20:	01ea0bb3          	add	x23,x20,x30
  # Check if x23 contains the expected result. x6 is the signature ptr, x5 is the link ptr, x4 is a temp reg.
  RVTEST_SIGUPD(x6, x5, x4, x23, I_add_cg_cr_rs1_rs2_edges_rs1val_0x2_rs2val_0x80000001, I_add_cg_cr_rs1_rs2_edges_rs1val_0x2_rs2val_0x80000001_str)
    1a24:	00032203          	lw	x4,0(x6)
    1a28:	01720863          	beq	x4,x23,1a38 <I_add_cg_cr_rs1_rs2_edges_rs1val_0x2_rs2val_0x80000001+0x18>
    1a2c:	291022ef          	jal	x5,44bc <failedtest_x5_x4>
    1a30:	00001a20          	.word	0x00001a20
    1a34:	0000ad25          	.word	0x0000ad25
    1a38:	00430313          	addi	x6,x6,4

# Testcase cr_rs1_rs2_edges (Test source rs1 = 0x00000002 rs2 = 0x7fffffff)
  RVTEST_TESTDATA_LOAD_INT(x21, x25) # load rs1: x25 = 0x00000002
    1a3c:	000aac83          	lw	x25,0(x21)
    1a40:	004a8a93          	addi	x21,x21,4
  RVTEST_TESTDATA_LOAD_INT(x21, x8) # load rs2: x8 = 0x7fffffff
    1a44:	000aa403          	lw	x8,0(x21)
    1a48:	004a8a93          	addi	x21,x21,4

00001a4c <I_add_cg_cr_rs1_rs2_edges_rs1val_0x2_rs2val_0x7fffffff>:
I_add_cg_cr_rs1_rs2_edges_rs1val_0x2_rs2val_0x7fffffff:
  add x2, x25, x8 # perform operation
    1a4c:	008c8133          	add	x2,x25,x8
  # Check if x2 contains the expected result. x6 is the signature ptr, x5 is the link ptr, x4 is a temp reg.
  RVTEST_SIGUPD(x6, x5, x4, x2, I_add_cg_cr_rs1_rs2_edges_rs1val_0x2_rs2val_0x7fffffff, I_add_cg_cr_rs1_rs2_edges_rs1val_0x2_rs2val_0x7fffffff_str)
    1a50:	00032203          	lw	x4,0(x6)
    1a54:	00220863          	beq	x4,x2,1a64 <I_add_cg_cr_rs1_rs2_edges_rs1val_0x2_rs2val_0x7fffffff+0x18>
    1a58:	265022ef          	jal	x5,44bc <failedtest_x5_x4>
    1a5c:	00001a4c          	.word	0x00001a4c
    1a60:	0000ad79          	.word	0x0000ad79
    1a64:	00430313          	addi	x6,x6,4

# Testcase cr_rs1_rs2_edges (Test source rs1 = 0x00000002 rs2 = 0x7ffffffe)
  RVTEST_TESTDATA_LOAD_INT(x21, x22) # load rs1: x22 = 0x00000002
    1a68:	000aab03          	lw	x22,0(x21)
    1a6c:	004a8a93          	addi	x21,x21,4
  RVTEST_TESTDATA_LOAD_INT(x21, x27) # load rs2: x27 = 0x7ffffffe
    1a70:	000aad83          	lw	x27,0(x21)
    1a74:	004a8a93          	addi	x21,x21,4

00001a78 <I_add_cg_cr_rs1_rs2_edges_rs1val_0x2_rs2val_0x7ffffffe>:
I_add_cg_cr_rs1_rs2_edges_rs1val_0x2_rs2val_0x7ffffffe:
  add x11, x22, x27 # perform operation
    1a78:	01bb05b3          	add	x11,x22,x27
  # Check if x11 contains the expected result. x6 is the signature ptr, x5 is the link ptr, x4 is a temp reg.
  RVTEST_SIGUPD(x6, x5, x4, x11, I_add_cg_cr_rs1_rs2_edges_rs1val_0x2_rs2val_0x7ffffffe, I_add_cg_cr_rs1_rs2_edges_rs1val_0x2_rs2val_0x7ffffffe_str)
    1a7c:	00032203          	lw	x4,0(x6)
    1a80:	00b20863          	beq	x4,x11,1a90 <I_add_cg_cr_rs1_rs2_edges_rs1val_0x2_rs2val_0x7ffffffe+0x18>
    1a84:	239022ef          	jal	x5,44bc <failedtest_x5_x4>
    1a88:	00001a78          	.word	0x00001a78
    1a8c:	0000adcd          	.word	0x0000adcd
    1a90:	00430313          	addi	x6,x6,4

# Testcase cr_rs1_rs2_edges (Test source rs1 = 0x00000002 rs2 = 0xffffffff)
  RVTEST_TESTDATA_LOAD_INT(x21, x19) # load rs1: x19 = 0x00000002
    1a94:	000aa983          	lw	x19,0(x21)
    1a98:	004a8a93          	addi	x21,x21,4
  RVTEST_TESTDATA_LOAD_INT(x21, x17) # load rs2: x17 = 0xffffffff
    1a9c:	000aa883          	lw	x17,0(x21)
    1aa0:	004a8a93          	addi	x21,x21,4

00001aa4 <I_add_cg_cr_rs1_rs2_edges_rs1val_0x2_rs2val_0xffffffff>:
I_add_cg_cr_rs1_rs2_edges_rs1val_0x2_rs2val_0xffffffff:
  add x3, x19, x17 # perform operation
    1aa4:	011981b3          	add	x3,x19,x17
  # Check if x3 contains the expected result. x6 is the signature ptr, x5 is the link ptr, x4 is a temp reg.
  RVTEST_SIGUPD(x6, x5, x4, x3, I_add_cg_cr_rs1_rs2_edges_rs1val_0x2_rs2val_0xffffffff, I_add_cg_cr_rs1_rs2_edges_rs1val_0x2_rs2val_0xffffffff_str)
    1aa8:	00032203          	lw	x4,0(x6)
    1aac:	00320863          	beq	x4,x3,1abc <I_add_cg_cr_rs1_rs2_edges_rs1val_0x2_rs2val_0xffffffff+0x18>
    1ab0:	20d022ef          	jal	x5,44bc <failedtest_x5_x4>
    1ab4:	00001aa4          	.word	0x00001aa4
    1ab8:	0000ae21          	.word	0x0000ae21
    1abc:	00430313          	addi	x6,x6,4

# Testcase cr_rs1_rs2_edges (Test source rs1 = 0x00000002 rs2 = 0xfffffffe)
  RVTEST_TESTDATA_LOAD_INT(x21, x14) # load rs1: x14 = 0x00000002
    1ac0:	000aa703          	lw	x14,0(x21)
    1ac4:	004a8a93          	addi	x21,x21,4
  RVTEST_TESTDATA_LOAD_INT(x21, x25) # load rs2: x25 = 0xfffffffe
    1ac8:	000aac83          	lw	x25,0(x21)
    1acc:	004a8a93          	addi	x21,x21,4

00001ad0 <I_add_cg_cr_rs1_rs2_edges_rs1val_0x2_rs2val_0xfffffffe>:
I_add_cg_cr_rs1_rs2_edges_rs1val_0x2_rs2val_0xfffffffe:
  add x31, x14, x25 # perform operation
    1ad0:	01970fb3          	add	x31,x14,x25
  # Check if x31 contains the expected result. x6 is the signature ptr, x5 is the link ptr, x4 is a temp reg.
  RVTEST_SIGUPD(x6, x5, x4, x31, I_add_cg_cr_rs1_rs2_edges_rs1val_0x2_rs2val_0xfffffffe, I_add_cg_cr_rs1_rs2_edges_rs1val_0x2_rs2val_0xfffffffe_str)
    1ad4:	00032203          	lw	x4,0(x6)
    1ad8:	01f20863          	beq	x4,x31,1ae8 <I_add_cg_cr_rs1_rs2_edges_rs1val_0x2_rs2val_0xfffffffe+0x18>
    1adc:	1e1022ef          	jal	x5,44bc <failedtest_x5_x4>
    1ae0:	00001ad0          	.word	0x00001ad0
    1ae4:	0000ae75          	.word	0x0000ae75
    1ae8:	00430313          	addi	x6,x6,4

# Testcase cr_rs1_rs2_edges (Test source rs1 = 0x00000002 rs2 = 0x5bbc8872)
  RVTEST_TESTDATA_LOAD_INT(x21, x19) # load rs1: x19 = 0x00000002
    1aec:	000aa983          	lw	x19,0(x21)
    1af0:	004a8a93          	addi	x21,x21,4
  RVTEST_TESTDATA_LOAD_INT(x21, x14) # load rs2: x14 = 0x5bbc8872
    1af4:	000aa703          	lw	x14,0(x21)
    1af8:	004a8a93          	addi	x21,x21,4

00001afc <I_add_cg_cr_rs1_rs2_edges_rs1val_0x2_rs2val_0x5bbc8872>:
I_add_cg_cr_rs1_rs2_edges_rs1val_0x2_rs2val_0x5bbc8872:
  add x8, x19, x14 # perform operation
    1afc:	00e98433          	add	x8,x19,x14
  # Check if x8 contains the expected result. x6 is the signature ptr, x5 is the link ptr, x4 is a temp reg.
  RVTEST_SIGUPD(x6, x5, x4, x8, I_add_cg_cr_rs1_rs2_edges_rs1val_0x2_rs2val_0x5bbc8872, I_add_cg_cr_rs1_rs2_edges_rs1val_0x2_rs2val_0x5bbc8872_str)
    1b00:	00032203          	lw	x4,0(x6)
    1b04:	00820863          	beq	x4,x8,1b14 <I_add_cg_cr_rs1_rs2_edges_rs1val_0x2_rs2val_0x5bbc8872+0x18>
    1b08:	1b5022ef          	jal	x5,44bc <failedtest_x5_x4>
    1b0c:	00001afc          	.word	0x00001afc
    1b10:	0000aec9          	.word	0x0000aec9
    1b14:	00430313          	addi	x6,x6,4

# Testcase cr_rs1_rs2_edges (Test source rs1 = 0x00000002 rs2 = 0xaaaaaaaa)
  RVTEST_TESTDATA_LOAD_INT(x21, x14) # load rs1: x14 = 0x00000002
    1b18:	000aa703          	lw	x14,0(x21)
    1b1c:	004a8a93          	addi	x21,x21,4
  RVTEST_TESTDATA_LOAD_INT(x21, x16) # load rs2: x16 = 0xaaaaaaaa
    1b20:	000aa803          	lw	x16,0(x21)
    1b24:	004a8a93          	addi	x21,x21,4

00001b28 <I_add_cg_cr_rs1_rs2_edges_rs1val_0x2_rs2val_0xaaaaaaaa>:
I_add_cg_cr_rs1_rs2_edges_rs1val_0x2_rs2val_0xaaaaaaaa:
  add x8, x14, x16 # perform operation
    1b28:	01070433          	add	x8,x14,x16
  # Check if x8 contains the expected result. x6 is the signature ptr, x5 is the link ptr, x4 is a temp reg.
  RVTEST_SIGUPD(x6, x5, x4, x8, I_add_cg_cr_rs1_rs2_edges_rs1val_0x2_rs2val_0xaaaaaaaa, I_add_cg_cr_rs1_rs2_edges_rs1val_0x2_rs2val_0xaaaaaaaa_str)
    1b2c:	00032203          	lw	x4,0(x6)
    1b30:	00820863          	beq	x4,x8,1b40 <I_add_cg_cr_rs1_rs2_edges_rs1val_0x2_rs2val_0xaaaaaaaa+0x18>
    1b34:	189022ef          	jal	x5,44bc <failedtest_x5_x4>
    1b38:	00001b28          	.word	0x00001b28
    1b3c:	0000af1d          	.word	0x0000af1d
    1b40:	00430313          	addi	x6,x6,4

# Testcase cr_rs1_rs2_edges (Test source rs1 = 0x00000002 rs2 = 0x55555555)
  RVTEST_TESTDATA_LOAD_INT(x21, x11) # load rs1: x11 = 0x00000002
    1b44:	000aa583          	lw	x11,0(x21)
    1b48:	004a8a93          	addi	x21,x21,4
  RVTEST_TESTDATA_LOAD_INT(x21, x1) # load rs2: x1 = 0x55555555
    1b4c:	000aa083          	lw	x1,0(x21)
    1b50:	004a8a93          	addi	x21,x21,4

00001b54 <I_add_cg_cr_rs1_rs2_edges_rs1val_0x2_rs2val_0x55555555>:
I_add_cg_cr_rs1_rs2_edges_rs1val_0x2_rs2val_0x55555555:
  add x8, x11, x1 # perform operation
    1b54:	00158433          	add	x8,x11,x1
  # Check if x8 contains the expected result. x6 is the signature ptr, x5 is the link ptr, x4 is a temp reg.
  RVTEST_SIGUPD(x6, x5, x4, x8, I_add_cg_cr_rs1_rs2_edges_rs1val_0x2_rs2val_0x55555555, I_add_cg_cr_rs1_rs2_edges_rs1val_0x2_rs2val_0x55555555_str)
    1b58:	00032203          	lw	x4,0(x6)
    1b5c:	00820863          	beq	x4,x8,1b6c <I_add_cg_cr_rs1_rs2_edges_rs1val_0x2_rs2val_0x55555555+0x18>
    1b60:	15d022ef          	jal	x5,44bc <failedtest_x5_x4>
    1b64:	00001b54          	.word	0x00001b54
    1b68:	0000af71          	.word	0x0000af71
    1b6c:	00430313          	addi	x6,x6,4

# Testcase cr_rs1_rs2_edges (Test source rs1 = 0x80000000 rs2 = 0x00000000)
  RVTEST_TESTDATA_LOAD_INT(x21, x30) # load rs1: x30 = 0x80000000
    1b70:	000aaf03          	lw	x30,0(x21)
    1b74:	004a8a93          	addi	x21,x21,4
  RVTEST_TESTDATA_LOAD_INT(x21, x16) # load rs2: x16 = 0x00000000
    1b78:	000aa803          	lw	x16,0(x21)
    1b7c:	004a8a93          	addi	x21,x21,4

00001b80 <I_add_cg_cr_rs1_rs2_edges_rs1val_0x80000000_rs2val_0x0>:
I_add_cg_cr_rs1_rs2_edges_rs1val_0x80000000_rs2val_0x0:
  add x10, x30, x16 # perform operation
    1b80:	010f0533          	add	x10,x30,x16
  # Check if x10 contains the expected result. x6 is the signature ptr, x5 is the link ptr, x4 is a temp reg.
  RVTEST_SIGUPD(x6, x5, x4, x10, I_add_cg_cr_rs1_rs2_edges_rs1val_0x80000000_rs2val_0x0, I_add_cg_cr_rs1_rs2_edges_rs1val_0x80000000_rs2val_0x0_str)
    1b84:	00032203          	lw	x4,0(x6)
    1b88:	00a20863          	beq	x4,x10,1b98 <I_add_cg_cr_rs1_rs2_edges_rs1val_0x80000000_rs2val_0x0+0x18>
    1b8c:	131022ef          	jal	x5,44bc <failedtest_x5_x4>
    1b90:	00001b80          	.word	0x00001b80
    1b94:	0000afc5          	.word	0x0000afc5
    1b98:	00430313          	addi	x6,x6,4

# Testcase cr_rs1_rs2_edges (Test source rs1 = 0x80000000 rs2 = 0x00000001)
  RVTEST_TESTDATA_LOAD_INT(x21, x26) # load rs1: x26 = 0x80000000
    1b9c:	000aad03          	lw	x26,0(x21)
    1ba0:	004a8a93          	addi	x21,x21,4
  RVTEST_TESTDATA_LOAD_INT(x21, x30) # load rs2: x30 = 0x00000001
    1ba4:	000aaf03          	lw	x30,0(x21)
    1ba8:	004a8a93          	addi	x21,x21,4

00001bac <I_add_cg_cr_rs1_rs2_edges_rs1val_0x80000000_rs2val_0x1>:
I_add_cg_cr_rs1_rs2_edges_rs1val_0x80000000_rs2val_0x1:
  add x10, x26, x30 # perform operation
    1bac:	01ed0533          	add	x10,x26,x30
  # Check if x10 contains the expected result. x6 is the signature ptr, x5 is the link ptr, x4 is a temp reg.
  RVTEST_SIGUPD(x6, x5, x4, x10, I_add_cg_cr_rs1_rs2_edges_rs1val_0x80000000_rs2val_0x1, I_add_cg_cr_rs1_rs2_edges_rs1val_0x80000000_rs2val_0x1_str)
    1bb0:	00032203          	lw	x4,0(x6)
    1bb4:	00a20863          	beq	x4,x10,1bc4 <I_add_cg_cr_rs1_rs2_edges_rs1val_0x80000000_rs2val_0x1+0x18>
    1bb8:	105022ef          	jal	x5,44bc <failedtest_x5_x4>
    1bbc:	00001bac          	.word	0x00001bac
    1bc0:	0000b019          	.word	0x0000b019
    1bc4:	00430313          	addi	x6,x6,4

# Testcase cr_rs1_rs2_edges (Test source rs1 = 0x80000000 rs2 = 0x00000002)
  RVTEST_TESTDATA_LOAD_INT(x21, x28) # load rs1: x28 = 0x80000000
    1bc8:	000aae03          	lw	x28,0(x21)
    1bcc:	004a8a93          	addi	x21,x21,4
  RVTEST_TESTDATA_LOAD_INT(x21, x29) # load rs2: x29 = 0x00000002
    1bd0:	000aae83          	lw	x29,0(x21)
    1bd4:	004a8a93          	addi	x21,x21,4

00001bd8 <I_add_cg_cr_rs1_rs2_edges_rs1val_0x80000000_rs2val_0x2>:
I_add_cg_cr_rs1_rs2_edges_rs1val_0x80000000_rs2val_0x2:
  add x25, x28, x29 # perform operation
    1bd8:	01de0cb3          	add	x25,x28,x29
  # Check if x25 contains the expected result. x6 is the signature ptr, x5 is the link ptr, x4 is a temp reg.
  RVTEST_SIGUPD(x6, x5, x4, x25, I_add_cg_cr_rs1_rs2_edges_rs1val_0x80000000_rs2val_0x2, I_add_cg_cr_rs1_rs2_edges_rs1val_0x80000000_rs2val_0x2_str)
    1bdc:	00032203          	lw	x4,0(x6)
    1be0:	01920863          	beq	x4,x25,1bf0 <I_add_cg_cr_rs1_rs2_edges_rs1val_0x80000000_rs2val_0x2+0x18>
    1be4:	0d9022ef          	jal	x5,44bc <failedtest_x5_x4>
    1be8:	00001bd8          	.word	0x00001bd8
    1bec:	0000b06d          	.word	0x0000b06d
    1bf0:	00430313          	addi	x6,x6,4

# Testcase cr_rs1_rs2_edges (Test source rs1 = 0x80000000 rs2 = 0x80000000)
  RVTEST_TESTDATA_LOAD_INT(x21, x12) # load rs1: x12 = 0x80000000
    1bf4:	000aa603          	lw	x12,0(x21)
    1bf8:	004a8a93          	addi	x21,x21,4
  RVTEST_TESTDATA_LOAD_INT(x21, x14) # load rs2: x14 = 0x80000000
    1bfc:	000aa703          	lw	x14,0(x21)
    1c00:	004a8a93          	addi	x21,x21,4

00001c04 <I_add_cg_cr_rs1_rs2_edges_rs1val_0x80000000_rs2val_0x80000000>:
I_add_cg_cr_rs1_rs2_edges_rs1val_0x80000000_rs2val_0x80000000:
  add x22, x12, x14 # perform operation
    1c04:	00e60b33          	add	x22,x12,x14
  # Check if x22 contains the expected result. x6 is the signature ptr, x5 is the link ptr, x4 is a temp reg.
  RVTEST_SIGUPD(x6, x5, x4, x22, I_add_cg_cr_rs1_rs2_edges_rs1val_0x80000000_rs2val_0x80000000, I_add_cg_cr_rs1_rs2_edges_rs1val_0x80000000_rs2val_0x80000000_str)
    1c08:	00032203          	lw	x4,0(x6)
    1c0c:	01620863          	beq	x4,x22,1c1c <I_add_cg_cr_rs1_rs2_edges_rs1val_0x80000000_rs2val_0x80000000+0x18>
    1c10:	0ad022ef          	jal	x5,44bc <failedtest_x5_x4>
    1c14:	00001c04          	.word	0x00001c04
    1c18:	0000b0c1          	.word	0x0000b0c1
    1c1c:	00430313          	addi	x6,x6,4

# Testcase cr_rs1_rs2_edges (Test source rs1 = 0x80000000 rs2 = 0x80000001)
  RVTEST_TESTDATA_LOAD_INT(x21, x26) # load rs1: x26 = 0x80000000
    1c20:	000aad03          	lw	x26,0(x21)
    1c24:	004a8a93          	addi	x21,x21,4
  RVTEST_TESTDATA_LOAD_INT(x21, x8) # load rs2: x8 = 0x80000001
    1c28:	000aa403          	lw	x8,0(x21)
    1c2c:	004a8a93          	addi	x21,x21,4

00001c30 <I_add_cg_cr_rs1_rs2_edges_rs1val_0x80000000_rs2val_0x80000001>:
I_add_cg_cr_rs1_rs2_edges_rs1val_0x80000000_rs2val_0x80000001:
  add x30, x26, x8 # perform operation
    1c30:	008d0f33          	add	x30,x26,x8
  # Check if x30 contains the expected result. x6 is the signature ptr, x5 is the link ptr, x4 is a temp reg.
  RVTEST_SIGUPD(x6, x5, x4, x30, I_add_cg_cr_rs1_rs2_edges_rs1val_0x80000000_rs2val_0x80000001, I_add_cg_cr_rs1_rs2_edges_rs1val_0x80000000_rs2val_0x80000001_str)
    1c34:	00032203          	lw	x4,0(x6)
    1c38:	01e20863          	beq	x4,x30,1c48 <I_add_cg_cr_rs1_rs2_edges_rs1val_0x80000000_rs2val_0x80000001+0x18>
    1c3c:	081022ef          	jal	x5,44bc <failedtest_x5_x4>
    1c40:	00001c30          	.word	0x00001c30
    1c44:	0000b11c          	.word	0x0000b11c
    1c48:	00430313          	addi	x6,x6,4

# Testcase cr_rs1_rs2_edges (Test source rs1 = 0x80000000 rs2 = 0x7fffffff)
  RVTEST_TESTDATA_LOAD_INT(x21, x29) # load rs1: x29 = 0x80000000
    1c4c:	000aae83          	lw	x29,0(x21)
    1c50:	004a8a93          	addi	x21,x21,4
  RVTEST_TESTDATA_LOAD_INT(x21, x25) # load rs2: x25 = 0x7fffffff
    1c54:	000aac83          	lw	x25,0(x21)
    1c58:	004a8a93          	addi	x21,x21,4

00001c5c <I_add_cg_cr_rs1_rs2_edges_rs1val_0x80000000_rs2val_0x7fffffff>:
I_add_cg_cr_rs1_rs2_edges_rs1val_0x80000000_rs2val_0x7fffffff:
  add x11, x29, x25 # perform operation
    1c5c:	019e85b3          	add	x11,x29,x25
  # Check if x11 contains the expected result. x6 is the signature ptr, x5 is the link ptr, x4 is a temp reg.
  RVTEST_SIGUPD(x6, x5, x4, x11, I_add_cg_cr_rs1_rs2_edges_rs1val_0x80000000_rs2val_0x7fffffff, I_add_cg_cr_rs1_rs2_edges_rs1val_0x80000000_rs2val_0x7fffffff_str)
    1c60:	00032203          	lw	x4,0(x6)
    1c64:	00b20863          	beq	x4,x11,1c74 <I_add_cg_cr_rs1_rs2_edges_rs1val_0x80000000_rs2val_0x7fffffff+0x18>
    1c68:	055022ef          	jal	x5,44bc <failedtest_x5_x4>
    1c6c:	00001c5c          	.word	0x00001c5c
    1c70:	0000b177          	.word	0x0000b177
    1c74:	00430313          	addi	x6,x6,4

# Testcase cr_rs1_rs2_edges (Test source rs1 = 0x80000000 rs2 = 0x7ffffffe)
  RVTEST_TESTDATA_LOAD_INT(x21, x10) # load rs1: x10 = 0x80000000
    1c78:	000aa503          	lw	x10,0(x21)
    1c7c:	004a8a93          	addi	x21,x21,4
  RVTEST_TESTDATA_LOAD_INT(x21, x17) # load rs2: x17 = 0x7ffffffe
    1c80:	000aa883          	lw	x17,0(x21)
    1c84:	004a8a93          	addi	x21,x21,4

00001c88 <I_add_cg_cr_rs1_rs2_edges_rs1val_0x80000000_rs2val_0x7ffffffe>:
I_add_cg_cr_rs1_rs2_edges_rs1val_0x80000000_rs2val_0x7ffffffe:
  add x28, x10, x17 # perform operation
    1c88:	01150e33          	add	x28,x10,x17
  # Check if x28 contains the expected result. x6 is the signature ptr, x5 is the link ptr, x4 is a temp reg.
  RVTEST_SIGUPD(x6, x5, x4, x28, I_add_cg_cr_rs1_rs2_edges_rs1val_0x80000000_rs2val_0x7ffffffe, I_add_cg_cr_rs1_rs2_edges_rs1val_0x80000000_rs2val_0x7ffffffe_str)
    1c8c:	00032203          	lw	x4,0(x6)
    1c90:	01c20863          	beq	x4,x28,1ca0 <I_add_cg_cr_rs1_rs2_edges_rs1val_0x80000000_rs2val_0x7ffffffe+0x18>
    1c94:	029022ef          	jal	x5,44bc <failedtest_x5_x4>
    1c98:	00001c88          	.word	0x00001c88
    1c9c:	0000b1d2          	.word	0x0000b1d2
    1ca0:	00430313          	addi	x6,x6,4

# Testcase cr_rs1_rs2_edges (Test source rs1 = 0x80000000 rs2 = 0xffffffff)
  RVTEST_TESTDATA_LOAD_INT(x21, x3) # load rs1: x3 = 0x80000000
    1ca4:	000aa183          	lw	x3,0(x21)
    1ca8:	004a8a93          	addi	x21,x21,4
  RVTEST_TESTDATA_LOAD_INT(x21, x14) # load rs2: x14 = 0xffffffff
    1cac:	000aa703          	lw	x14,0(x21)
    1cb0:	004a8a93          	addi	x21,x21,4

00001cb4 <I_add_cg_cr_rs1_rs2_edges_rs1val_0x80000000_rs2val_0xffffffff>:
I_add_cg_cr_rs1_rs2_edges_rs1val_0x80000000_rs2val_0xffffffff:
  add x16, x3, x14 # perform operation
    1cb4:	00e18833          	add	x16,x3,x14
  # Check if x16 contains the expected result. x6 is the signature ptr, x5 is the link ptr, x4 is a temp reg.
  RVTEST_SIGUPD(x6, x5, x4, x16, I_add_cg_cr_rs1_rs2_edges_rs1val_0x80000000_rs2val_0xffffffff, I_add_cg_cr_rs1_rs2_edges_rs1val_0x80000000_rs2val_0xffffffff_str)
    1cb8:	00032203          	lw	x4,0(x6)
    1cbc:	01020863          	beq	x4,x16,1ccc <I_add_cg_cr_rs1_rs2_edges_rs1val_0x80000000_rs2val_0xffffffff+0x18>
    1cc0:	7fc022ef          	jal	x5,44bc <failedtest_x5_x4>
    1cc4:	00001cb4          	.word	0x00001cb4
    1cc8:	0000b22d          	.word	0x0000b22d
    1ccc:	00430313          	addi	x6,x6,4

# Testcase cr_rs1_rs2_edges (Test source rs1 = 0x80000000 rs2 = 0xfffffffe)
  RVTEST_TESTDATA_LOAD_INT(x21, x27) # load rs1: x27 = 0x80000000
    1cd0:	000aad83          	lw	x27,0(x21)
    1cd4:	004a8a93          	addi	x21,x21,4
  RVTEST_TESTDATA_LOAD_INT(x21, x19) # load rs2: x19 = 0xfffffffe
