
/home/dev/github/clones/riscv-arch-test/work/rv32i-core/elfs/rv32i/I/I-add-00.elf:     file format elf32-littleriscv
/home/dev/github/clones/riscv-arch-test/work/rv32i-core/elfs/rv32i/I/I-add-00.elf
architecture: riscv:rv32, flags 0x00000112:
EXEC_P, HAS_SYMS, D_PAGED
start address 0x00000000

Program Header:
0x70000003 off    0x0001f240 vaddr 0x00000000 paddr 0x00000000 align 2**0
         filesz 0x00000033 memsz 0x00000000 flags r--
    LOAD off    0x00001000 vaddr 0x00000000 paddr 0x00000000 align 2**12
         filesz 0x00005f40 memsz 0x00005f40 flags r-x
    LOAD off    0x00007000 vaddr 0x00008000 paddr 0x00008000 align 2**12
         filesz 0x00018240 memsz 0x00018240 flags rwx

Sections:
Idx Name          Size      VMA       LMA       File off  Algn
  0 .text.init    00000040  00000000  00000000  00001000  2**5
                  CONTENTS, ALLOC, LOAD, READONLY, CODE
  1 .text.rvtest  00005f00  00000040  00000040  00001040  2**5
                  CONTENTS, ALLOC, LOAD, READONLY, CODE
  2 .data         00017d70  00008000  00008000  00007000  2**8
                  CONTENTS, ALLOC, LOAD, DATA
  3 .text.rvmodel 00000240  00020000  00020000  0001f000  2**5
                  CONTENTS, ALLOC, LOAD, READONLY, CODE
  4 .riscv.attributes 00000033  00000000  00000000  0001f240  2**0
                  CONTENTS, READONLY
  5 .debug_line   00002658  00000000  00000000  0001f273  2**0
                  CONTENTS, READONLY, DEBUGGING, OCTETS
  6 .debug_line_str 00000069  00000000  00000000  000218cb  2**0
                  CONTENTS, READONLY, DEBUGGING, OCTETS
  7 .debug_info   00000023  00000000  00000000  00021934  2**0
                  CONTENTS, READONLY, DEBUGGING, OCTETS
  8 .debug_abbrev 00000012  00000000  00000000  00021957  2**0
                  CONTENTS, READONLY, DEBUGGING, OCTETS
  9 .debug_aranges 00000028  00000000  00000000  00021970  2**3
                  CONTENTS, READONLY, DEBUGGING, OCTETS
 10 .debug_str    00000075  00000000  00000000  00021998  2**0
                  CONTENTS, READONLY, DEBUGGING, OCTETS
 11 .debug_rnglists 0000001b  00000000  00000000  00021a0d  2**0
                  CONTENTS, READONLY, DEBUGGING, OCTETS
SYMBOL TABLE:
00000000 l    d  .text.init	00000000 .text.init
00000040 l    d  .text.rvtest	00000000 .text.rvtest
00008000 l    d  .data	00000000 .data
00020000 l    d  .text.rvmodel	00000000 .text.rvmodel
00000000 l    d  .riscv.attributes	00000000 .riscv.attributes
00000000 l    d  .debug_line	00000000 .debug_line
00000000 l    d  .debug_line_str	00000000 .debug_line_str
00000000 l    d  .debug_info	00000000 .debug_info
00000000 l    d  .debug_abbrev	00000000 .debug_abbrev
00000000 l    d  .debug_aranges	00000000 .debug_aranges
00000000 l    d  .debug_str	00000000 .debug_str
00000000 l    d  .debug_rnglists	00000000 .debug_rnglists
00000000 l    df *ABS*	00000000 ccVo60BA.o
00000003 l       *ABS*	00000000 MMODE_SIG
00000001 l       *ABS*	00000000 SMODE_SIG
00000001 l       *ABS*	00000000 HMODE_SIG
00000002 l       *ABS*	00000000 VMODE_SIG
00020000 l       .text.rvmodel	00000000 rvmodel_boot
00000050 l       .text.rvtest	00000000 I_add_cg_cp_rs1_b0
000044bc l       .text.rvtest	00000000 failedtest_x5_x4
00008d50 l       .data	00000000 I_add_cg_cp_rs1_b0_str
0000007c l       .text.rvtest	00000000 I_add_cg_cp_rs1_b1
00008d7d l       .data	00000000 I_add_cg_cp_rs1_b1_str
000000ac l       .text.rvtest	00000000 I_add_cg_cp_rs1_b2
00008daa l       .data	00000000 I_add_cg_cp_rs1_b2_str
000000dc l       .text.rvtest	00000000 I_add_cg_cp_rs1_b3
00008dd7 l       .data	00000000 I_add_cg_cp_rs1_b3_str
00000110 l       .text.rvtest	00000000 I_add_cg_cp_rs1_b4
000044fc l       .text.rvtest	00000000 failedtest_x14_x13
00008e04 l       .data	00000000 I_add_cg_cp_rs1_b4_str
0000013c l       .text.rvtest	00000000 I_add_cg_cp_rs1_b5
00008e31 l       .data	00000000 I_add_cg_cp_rs1_b5_str
00000168 l       .text.rvtest	00000000 I_add_cg_cp_rs1_b6
00008e5e l       .data	00000000 I_add_cg_cp_rs1_b6_str
00000194 l       .text.rvtest	00000000 I_add_cg_cp_rs1_b7
00008e8b l       .data	00000000 I_add_cg_cp_rs1_b7_str
000001c0 l       .text.rvtest	00000000 I_add_cg_cp_rs1_b8
00008eb8 l       .data	00000000 I_add_cg_cp_rs1_b8_str
000001ec l       .text.rvtest	00000000 I_add_cg_cp_rs1_b9
00008ee5 l       .data	00000000 I_add_cg_cp_rs1_b9_str
00000218 l       .text.rvtest	00000000 I_add_cg_cp_rs1_b10
00008f13 l       .data	00000000 I_add_cg_cp_rs1_b10_str
00000248 l       .text.rvtest	00000000 I_add_cg_cp_rs1_b11
00008f42 l       .data	00000000 I_add_cg_cp_rs1_b11_str
00000274 l       .text.rvtest	00000000 I_add_cg_cp_rs1_b12
00008f71 l       .data	00000000 I_add_cg_cp_rs1_b12_str
000002a8 l       .text.rvtest	00000000 I_add_cg_cp_rs1_b13
00008fa0 l       .data	00000000 I_add_cg_cp_rs1_b13_str
000002d4 l       .text.rvtest	00000000 I_add_cg_cp_rs1_b14
00008fcf l       .data	00000000 I_add_cg_cp_rs1_b14_str
00000300 l       .text.rvtest	00000000 I_add_cg_cp_rs1_b15
00008ffe l       .data	00000000 I_add_cg_cp_rs1_b15_str
0000032c l       .text.rvtest	00000000 I_add_cg_cp_rs1_b16
0000902d l       .data	00000000 I_add_cg_cp_rs1_b16_str
00000358 l       .text.rvtest	00000000 I_add_cg_cp_rs1_b17
0000905c l       .data	00000000 I_add_cg_cp_rs1_b17_str
00000384 l       .text.rvtest	00000000 I_add_cg_cp_rs1_b18
0000908b l       .data	00000000 I_add_cg_cp_rs1_b18_str
000003b0 l       .text.rvtest	00000000 I_add_cg_cp_rs1_b19
000090ba l       .data	00000000 I_add_cg_cp_rs1_b19_str
000003e0 l       .text.rvtest	00000000 I_add_cg_cp_rs1_b20
000090e9 l       .data	00000000 I_add_cg_cp_rs1_b20_str
0000040c l       .text.rvtest	00000000 I_add_cg_cp_rs1_b21
00009118 l       .data	00000000 I_add_cg_cp_rs1_b21_str
00000438 l       .text.rvtest	00000000 I_add_cg_cp_rs1_b22
00009147 l       .data	00000000 I_add_cg_cp_rs1_b22_str
00000464 l       .text.rvtest	00000000 I_add_cg_cp_rs1_b23
00009176 l       .data	00000000 I_add_cg_cp_rs1_b23_str
00000490 l       .text.rvtest	00000000 I_add_cg_cp_rs1_b24
000091a5 l       .data	00000000 I_add_cg_cp_rs1_b24_str
000004bc l       .text.rvtest	00000000 I_add_cg_cp_rs1_b25
000091d4 l       .data	00000000 I_add_cg_cp_rs1_b25_str
000004e8 l       .text.rvtest	00000000 I_add_cg_cp_rs1_b26
00009203 l       .data	00000000 I_add_cg_cp_rs1_b26_str
00000518 l       .text.rvtest	00000000 I_add_cg_cp_rs1_b27
00009232 l       .data	00000000 I_add_cg_cp_rs1_b27_str
00000544 l       .text.rvtest	00000000 I_add_cg_cp_rs1_b28
00009261 l       .data	00000000 I_add_cg_cp_rs1_b28_str
00000570 l       .text.rvtest	00000000 I_add_cg_cp_rs1_b29
00009290 l       .data	00000000 I_add_cg_cp_rs1_b29_str
000005a0 l       .text.rvtest	00000000 I_add_cg_cp_rs1_b30
000092bf l       .data	00000000 I_add_cg_cp_rs1_b30_str
000005d0 l       .text.rvtest	00000000 I_add_cg_cp_rs1_b31
000092ee l       .data	00000000 I_add_cg_cp_rs1_b31_str
000005fc l       .text.rvtest	00000000 I_add_cg_cp_rs2_b0
0000931d l       .data	00000000 I_add_cg_cp_rs2_b0_str
0000062c l       .text.rvtest	00000000 I_add_cg_cp_rs2_b1
0000934b l       .data	00000000 I_add_cg_cp_rs2_b1_str
00000658 l       .text.rvtest	00000000 I_add_cg_cp_rs2_b2
00009379 l       .data	00000000 I_add_cg_cp_rs2_b2_str
00000684 l       .text.rvtest	00000000 I_add_cg_cp_rs2_b3
000093a7 l       .data	00000000 I_add_cg_cp_rs2_b3_str
000006b8 l       .text.rvtest	00000000 I_add_cg_cp_rs2_b4
000093d5 l       .data	00000000 I_add_cg_cp_rs2_b4_str
000006e4 l       .text.rvtest	00000000 I_add_cg_cp_rs2_b5
00009403 l       .data	00000000 I_add_cg_cp_rs2_b5_str
00000710 l       .text.rvtest	00000000 I_add_cg_cp_rs2_b6
00009431 l       .data	00000000 I_add_cg_cp_rs2_b6_str
0000073c l       .text.rvtest	00000000 I_add_cg_cp_rs2_b7
0000945f l       .data	00000000 I_add_cg_cp_rs2_b7_str
00000768 l       .text.rvtest	00000000 I_add_cg_cp_rs2_b8
0000948d l       .data	00000000 I_add_cg_cp_rs2_b8_str
00000794 l       .text.rvtest	00000000 I_add_cg_cp_rs2_b9
000094bb l       .data	00000000 I_add_cg_cp_rs2_b9_str
000007c0 l       .text.rvtest	00000000 I_add_cg_cp_rs2_b10
000094e9 l       .data	00000000 I_add_cg_cp_rs2_b10_str
000007f0 l       .text.rvtest	00000000 I_add_cg_cp_rs2_b11
00009518 l       .data	00000000 I_add_cg_cp_rs2_b11_str
0000081c l       .text.rvtest	00000000 I_add_cg_cp_rs2_b12
00009547 l       .data	00000000 I_add_cg_cp_rs2_b12_str
00000850 l       .text.rvtest	00000000 I_add_cg_cp_rs2_b13
000044d4 l       .text.rvtest	00000000 failedtest_x8_x7
00009576 l       .data	00000000 I_add_cg_cp_rs2_b13_str
0000087c l       .text.rvtest	00000000 I_add_cg_cp_rs2_b14
000095a5 l       .data	00000000 I_add_cg_cp_rs2_b14_str
000008a8 l       .text.rvtest	00000000 I_add_cg_cp_rs2_b15
000095d4 l       .data	00000000 I_add_cg_cp_rs2_b15_str
000008d4 l       .text.rvtest	00000000 I_add_cg_cp_rs2_b16
00009603 l       .data	00000000 I_add_cg_cp_rs2_b16_str
00000900 l       .text.rvtest	00000000 I_add_cg_cp_rs2_b17
00009632 l       .data	00000000 I_add_cg_cp_rs2_b17_str
0000092c l       .text.rvtest	00000000 I_add_cg_cp_rs2_b18
00009661 l       .data	00000000 I_add_cg_cp_rs2_b18_str
00000958 l       .text.rvtest	00000000 I_add_cg_cp_rs2_b19
00009690 l       .data	00000000 I_add_cg_cp_rs2_b19_str
00000984 l       .text.rvtest	00000000 I_add_cg_cp_rs2_b20
000096bf l       .data	00000000 I_add_cg_cp_rs2_b20_str
000009b4 l       .text.rvtest	00000000 I_add_cg_cp_rs2_b21
000096ee l       .data	00000000 I_add_cg_cp_rs2_b21_str
000009e0 l       .text.rvtest	00000000 I_add_cg_cp_rs2_b22
0000971d l       .data	00000000 I_add_cg_cp_rs2_b22_str
00000a0c l       .text.rvtest	00000000 I_add_cg_cp_rs2_b23
0000974c l       .data	00000000 I_add_cg_cp_rs2_b23_str
00000a38 l       .text.rvtest	00000000 I_add_cg_cp_rs2_b24
0000977b l       .data	00000000 I_add_cg_cp_rs2_b24_str
00000a64 l       .text.rvtest	00000000 I_add_cg_cp_rs2_b25
000097aa l       .data	00000000 I_add_cg_cp_rs2_b25_str
00000a90 l       .text.rvtest	00000000 I_add_cg_cp_rs2_b26
000097d9 l       .data	00000000 I_add_cg_cp_rs2_b26_str
00000abc l       .text.rvtest	00000000 I_add_cg_cp_rs2_b27
00009808 l       .data	00000000 I_add_cg_cp_rs2_b27_str
00000ae8 l       .text.rvtest	00000000 I_add_cg_cp_rs2_b28
00009837 l       .data	00000000 I_add_cg_cp_rs2_b28_str
00000b14 l       .text.rvtest	00000000 I_add_cg_cp_rs2_b29
00009866 l       .data	00000000 I_add_cg_cp_rs2_b29_str
00000b40 l       .text.rvtest	00000000 I_add_cg_cp_rs2_b30
00009895 l       .data	00000000 I_add_cg_cp_rs2_b30_str
00000b6c l       .text.rvtest	00000000 I_add_cg_cp_rs2_b31
000098c4 l       .data	00000000 I_add_cg_cp_rs2_b31_str
00000b98 l       .text.rvtest	00000000 I_add_cg_cp_rd_b0
000098f3 l       .data	00000000 I_add_cg_cp_rd_b0_str
00000bc4 l       .text.rvtest	00000000 I_add_cg_cp_rd_b1
00009920 l       .data	00000000 I_add_cg_cp_rd_b1_str
00000bf0 l       .text.rvtest	00000000 I_add_cg_cp_rd_b2
0000994d l       .data	00000000 I_add_cg_cp_rd_b2_str
00000c1c l       .text.rvtest	00000000 I_add_cg_cp_rd_b3
0000997a l       .data	00000000 I_add_cg_cp_rd_b3_str
00000c48 l       .text.rvtest	00000000 I_add_cg_cp_rd_b4
000099a7 l       .data	00000000 I_add_cg_cp_rd_b4_str
00000c74 l       .text.rvtest	00000000 I_add_cg_cp_rd_b5
000099d4 l       .data	00000000 I_add_cg_cp_rd_b5_str
00000ca0 l       .text.rvtest	00000000 I_add_cg_cp_rd_b6
00009a01 l       .data	00000000 I_add_cg_cp_rd_b6_str
00000cd4 l       .text.rvtest	00000000 I_add_cg_cp_rd_b7
00009a2e l       .data	00000000 I_add_cg_cp_rd_b7_str
00000d00 l       .text.rvtest	00000000 I_add_cg_cp_rd_b8
00009a5b l       .data	00000000 I_add_cg_cp_rd_b8_str
00000d2c l       .text.rvtest	00000000 I_add_cg_cp_rd_b9
00009a88 l       .data	00000000 I_add_cg_cp_rd_b9_str
00000d5c l       .text.rvtest	00000000 I_add_cg_cp_rd_b10
00009ab5 l       .data	00000000 I_add_cg_cp_rd_b10_str
00000d88 l       .text.rvtest	00000000 I_add_cg_cp_rd_b11
00009ae3 l       .data	00000000 I_add_cg_cp_rd_b11_str
00000db8 l       .text.rvtest	00000000 I_add_cg_cp_rd_b12
00009b11 l       .data	00000000 I_add_cg_cp_rd_b12_str
00000de4 l       .text.rvtest	00000000 I_add_cg_cp_rd_b13
00009b3f l       .data	00000000 I_add_cg_cp_rd_b13_str
00000e10 l       .text.rvtest	00000000 I_add_cg_cp_rd_b14
00009b6d l       .data	00000000 I_add_cg_cp_rd_b14_str
00000e40 l       .text.rvtest	00000000 I_add_cg_cp_rd_b15
00009b9b l       .data	00000000 I_add_cg_cp_rd_b15_str
00000e6c l       .text.rvtest	00000000 I_add_cg_cp_rd_b16
00009bc9 l       .data	00000000 I_add_cg_cp_rd_b16_str
00000e98 l       .text.rvtest	00000000 I_add_cg_cp_rd_b17
00009bf7 l       .data	00000000 I_add_cg_cp_rd_b17_str
00000ec4 l       .text.rvtest	00000000 I_add_cg_cp_rd_b18
00009c25 l       .data	00000000 I_add_cg_cp_rd_b18_str
00000ef0 l       .text.rvtest	00000000 I_add_cg_cp_rd_b19
00009c53 l       .data	00000000 I_add_cg_cp_rd_b19_str
00000f1c l       .text.rvtest	00000000 I_add_cg_cp_rd_b20
00009c81 l       .data	00000000 I_add_cg_cp_rd_b20_str
00000f48 l       .text.rvtest	00000000 I_add_cg_cp_rd_b21
00009caf l       .data	00000000 I_add_cg_cp_rd_b21_str
00000f74 l       .text.rvtest	00000000 I_add_cg_cp_rd_b22
00009cdd l       .data	00000000 I_add_cg_cp_rd_b22_str
00000fa0 l       .text.rvtest	00000000 I_add_cg_cp_rd_b23
00009d0b l       .data	00000000 I_add_cg_cp_rd_b23_str
00000fcc l       .text.rvtest	00000000 I_add_cg_cp_rd_b24
00009d39 l       .data	00000000 I_add_cg_cp_rd_b24_str
00000ff8 l       .text.rvtest	00000000 I_add_cg_cp_rd_b25
00009d67 l       .data	00000000 I_add_cg_cp_rd_b25_str
00001024 l       .text.rvtest	00000000 I_add_cg_cp_rd_b26
00009d95 l       .data	00000000 I_add_cg_cp_rd_b26_str
00001054 l       .text.rvtest	00000000 I_add_cg_cp_rd_b27
00009dc3 l       .data	00000000 I_add_cg_cp_rd_b27_str
00001080 l       .text.rvtest	00000000 I_add_cg_cp_rd_b28
00009df1 l       .data	00000000 I_add_cg_cp_rd_b28_str
000010ac l       .text.rvtest	00000000 I_add_cg_cp_rd_b29
00009e1f l       .data	00000000 I_add_cg_cp_rd_b29_str
000010d8 l       .text.rvtest	00000000 I_add_cg_cp_rd_b30
00009e4d l       .data	00000000 I_add_cg_cp_rd_b30_str
00001104 l       .text.rvtest	00000000 I_add_cg_cp_rd_b31
00009e7b l       .data	00000000 I_add_cg_cp_rd_b31_str
00001130 l       .text.rvtest	00000000 I_add_cg_cp_rs1_edges_0x0
00009ea9 l       .data	00000000 I_add_cg_cp_rs1_edges_0x0_str
0000115c l       .text.rvtest	00000000 I_add_cg_cp_rs1_edges_0x1
00009ede l       .data	00000000 I_add_cg_cp_rs1_edges_0x1_str
00001188 l       .text.rvtest	00000000 I_add_cg_cp_rs1_edges_0x2
00009f13 l       .data	00000000 I_add_cg_cp_rs1_edges_0x2_str
000011b4 l       .text.rvtest	00000000 I_add_cg_cp_rs1_edges_0x80000000
00009f48 l       .data	00000000 I_add_cg_cp_rs1_edges_0x80000000_str
000011e0 l       .text.rvtest	00000000 I_add_cg_cp_rs1_edges_0x80000001
00009f85 l       .data	00000000 I_add_cg_cp_rs1_edges_0x80000001_str
0000120c l       .text.rvtest	00000000 I_add_cg_cp_rs1_edges_0x7fffffff
00009fc2 l       .data	00000000 I_add_cg_cp_rs1_edges_0x7fffffff_str
00001238 l       .text.rvtest	00000000 I_add_cg_cp_rs1_edges_0x7ffffffe
00009fff l       .data	00000000 I_add_cg_cp_rs1_edges_0x7ffffffe_str
00001264 l       .text.rvtest	00000000 I_add_cg_cp_rs1_edges_0xffffffff
0000a03c l       .data	00000000 I_add_cg_cp_rs1_edges_0xffffffff_str
00001290 l       .text.rvtest	00000000 I_add_cg_cp_rs1_edges_0xfffffffe
0000a079 l       .data	00000000 I_add_cg_cp_rs1_edges_0xfffffffe_str
000012bc l       .text.rvtest	00000000 I_add_cg_cp_rs1_edges_0x5bbc8872
0000a0b6 l       .data	00000000 I_add_cg_cp_rs1_edges_0x5bbc8872_str
000012e8 l       .text.rvtest	00000000 I_add_cg_cp_rs1_edges_0xaaaaaaaa
0000a0f3 l       .data	00000000 I_add_cg_cp_rs1_edges_0xaaaaaaaa_str
00001314 l       .text.rvtest	00000000 I_add_cg_cp_rs1_edges_0x55555555
0000a130 l       .data	00000000 I_add_cg_cp_rs1_edges_0x55555555_str
00001340 l       .text.rvtest	00000000 I_add_cg_cp_rs2_edges_0x0
0000a16d l       .data	00000000 I_add_cg_cp_rs2_edges_0x0_str
0000136c l       .text.rvtest	00000000 I_add_cg_cp_rs2_edges_0x1
0000a1a3 l       .data	00000000 I_add_cg_cp_rs2_edges_0x1_str
00001398 l       .text.rvtest	00000000 I_add_cg_cp_rs2_edges_0x2
0000a1d9 l       .data	00000000 I_add_cg_cp_rs2_edges_0x2_str
000013c4 l       .text.rvtest	00000000 I_add_cg_cp_rs2_edges_0x80000000
0000a20f l       .data	00000000 I_add_cg_cp_rs2_edges_0x80000000_str
000013f0 l       .text.rvtest	00000000 I_add_cg_cp_rs2_edges_0x80000001
0000a24c l       .data	00000000 I_add_cg_cp_rs2_edges_0x80000001_str
0000141c l       .text.rvtest	00000000 I_add_cg_cp_rs2_edges_0x7fffffff
0000a289 l       .data	00000000 I_add_cg_cp_rs2_edges_0x7fffffff_str
00001448 l       .text.rvtest	00000000 I_add_cg_cp_rs2_edges_0x7ffffffe
0000a2c6 l       .data	00000000 I_add_cg_cp_rs2_edges_0x7ffffffe_str
00001474 l       .text.rvtest	00000000 I_add_cg_cp_rs2_edges_0xffffffff
0000a303 l       .data	00000000 I_add_cg_cp_rs2_edges_0xffffffff_str
000014a0 l       .text.rvtest	00000000 I_add_cg_cp_rs2_edges_0xfffffffe
0000a340 l       .data	00000000 I_add_cg_cp_rs2_edges_0xfffffffe_str
000014cc l       .text.rvtest	00000000 I_add_cg_cp_rs2_edges_0x5bbc8872
0000a37d l       .data	00000000 I_add_cg_cp_rs2_edges_0x5bbc8872_str
000014f8 l       .text.rvtest	00000000 I_add_cg_cp_rs2_edges_0xaaaaaaaa
0000a3ba l       .data	00000000 I_add_cg_cp_rs2_edges_0xaaaaaaaa_str
00001524 l       .text.rvtest	00000000 I_add_cg_cp_rs2_edges_0x55555555
0000a3f7 l       .data	00000000 I_add_cg_cp_rs2_edges_0x55555555_str
00001550 l       .text.rvtest	00000000 I_add_cg_cr_rs1_rs2_edges_rs1val_0x0_rs2val_0x0
0000a434 l       .data	00000000 I_add_cg_cr_rs1_rs2_edges_rs1val_0x0_rs2val_0x0_str
0000157c l       .text.rvtest	00000000 I_add_cg_cr_rs1_rs2_edges_rs1val_0x0_rs2val_0x1
0000a481 l       .data	00000000 I_add_cg_cr_rs1_rs2_edges_rs1val_0x0_rs2val_0x1_str
000015a8 l       .text.rvtest	00000000 I_add_cg_cr_rs1_rs2_edges_rs1val_0x0_rs2val_0x2
0000a4ce l       .data	00000000 I_add_cg_cr_rs1_rs2_edges_rs1val_0x0_rs2val_0x2_str
000015d4 l       .text.rvtest	00000000 I_add_cg_cr_rs1_rs2_edges_rs1val_0x0_rs2val_0x80000000
0000a51b l       .data	00000000 I_add_cg_cr_rs1_rs2_edges_rs1val_0x0_rs2val_0x80000000_str
00001600 l       .text.rvtest	00000000 I_add_cg_cr_rs1_rs2_edges_rs1val_0x0_rs2val_0x80000001
0000a56f l       .data	00000000 I_add_cg_cr_rs1_rs2_edges_rs1val_0x0_rs2val_0x80000001_str
0000162c l       .text.rvtest	00000000 I_add_cg_cr_rs1_rs2_edges_rs1val_0x0_rs2val_0x7fffffff
0000a5c3 l       .data	00000000 I_add_cg_cr_rs1_rs2_edges_rs1val_0x0_rs2val_0x7fffffff_str
00001658 l       .text.rvtest	00000000 I_add_cg_cr_rs1_rs2_edges_rs1val_0x0_rs2val_0x7ffffffe
0000a617 l       .data	00000000 I_add_cg_cr_rs1_rs2_edges_rs1val_0x0_rs2val_0x7ffffffe_str
00001684 l       .text.rvtest	00000000 I_add_cg_cr_rs1_rs2_edges_rs1val_0x0_rs2val_0xffffffff
0000a66b l       .data	00000000 I_add_cg_cr_rs1_rs2_edges_rs1val_0x0_rs2val_0xffffffff_str
000016b0 l       .text.rvtest	00000000 I_add_cg_cr_rs1_rs2_edges_rs1val_0x0_rs2val_0xfffffffe
0000a6bf l       .data	00000000 I_add_cg_cr_rs1_rs2_edges_rs1val_0x0_rs2val_0xfffffffe_str
000016dc l       .text.rvtest	00000000 I_add_cg_cr_rs1_rs2_edges_rs1val_0x0_rs2val_0x5bbc8872
0000a713 l       .data	00000000 I_add_cg_cr_rs1_rs2_edges_rs1val_0x0_rs2val_0x5bbc8872_str
00001708 l       .text.rvtest	00000000 I_add_cg_cr_rs1_rs2_edges_rs1val_0x0_rs2val_0xaaaaaaaa
0000a767 l       .data	00000000 I_add_cg_cr_rs1_rs2_edges_rs1val_0x0_rs2val_0xaaaaaaaa_str
00001734 l       .text.rvtest	00000000 I_add_cg_cr_rs1_rs2_edges_rs1val_0x0_rs2val_0x55555555
0000a7bb l       .data	00000000 I_add_cg_cr_rs1_rs2_edges_rs1val_0x0_rs2val_0x55555555_str
00001760 l       .text.rvtest	00000000 I_add_cg_cr_rs1_rs2_edges_rs1val_0x1_rs2val_0x0
0000a80f l       .data	00000000 I_add_cg_cr_rs1_rs2_edges_rs1val_0x1_rs2val_0x0_str
0000178c l       .text.rvtest	00000000 I_add_cg_cr_rs1_rs2_edges_rs1val_0x1_rs2val_0x1
0000a85c l       .data	00000000 I_add_cg_cr_rs1_rs2_edges_rs1val_0x1_rs2val_0x1_str
000017b8 l       .text.rvtest	00000000 I_add_cg_cr_rs1_rs2_edges_rs1val_0x1_rs2val_0x2
0000a8a9 l       .data	00000000 I_add_cg_cr_rs1_rs2_edges_rs1val_0x1_rs2val_0x2_str
000017e4 l       .text.rvtest	00000000 I_add_cg_cr_rs1_rs2_edges_rs1val_0x1_rs2val_0x80000000
0000a8f6 l       .data	00000000 I_add_cg_cr_rs1_rs2_edges_rs1val_0x1_rs2val_0x80000000_str
00001810 l       .text.rvtest	00000000 I_add_cg_cr_rs1_rs2_edges_rs1val_0x1_rs2val_0x80000001
0000a94a l       .data	00000000 I_add_cg_cr_rs1_rs2_edges_rs1val_0x1_rs2val_0x80000001_str
0000183c l       .text.rvtest	00000000 I_add_cg_cr_rs1_rs2_edges_rs1val_0x1_rs2val_0x7fffffff
0000a99e l       .data	00000000 I_add_cg_cr_rs1_rs2_edges_rs1val_0x1_rs2val_0x7fffffff_str
00001868 l       .text.rvtest	00000000 I_add_cg_cr_rs1_rs2_edges_rs1val_0x1_rs2val_0x7ffffffe
0000a9f2 l       .data	00000000 I_add_cg_cr_rs1_rs2_edges_rs1val_0x1_rs2val_0x7ffffffe_str
00001894 l       .text.rvtest	00000000 I_add_cg_cr_rs1_rs2_edges_rs1val_0x1_rs2val_0xffffffff
0000aa46 l       .data	00000000 I_add_cg_cr_rs1_rs2_edges_rs1val_0x1_rs2val_0xffffffff_str
000018c0 l       .text.rvtest	00000000 I_add_cg_cr_rs1_rs2_edges_rs1val_0x1_rs2val_0xfffffffe
0000aa9a l       .data	00000000 I_add_cg_cr_rs1_rs2_edges_rs1val_0x1_rs2val_0xfffffffe_str
000018ec l       .text.rvtest	00000000 I_add_cg_cr_rs1_rs2_edges_rs1val_0x1_rs2val_0x5bbc8872
0000aaee l       .data	00000000 I_add_cg_cr_rs1_rs2_edges_rs1val_0x1_rs2val_0x5bbc8872_str
00001918 l       .text.rvtest	00000000 I_add_cg_cr_rs1_rs2_edges_rs1val_0x1_rs2val_0xaaaaaaaa
0000ab42 l       .data	00000000 I_add_cg_cr_rs1_rs2_edges_rs1val_0x1_rs2val_0xaaaaaaaa_str
00001944 l       .text.rvtest	00000000 I_add_cg_cr_rs1_rs2_edges_rs1val_0x1_rs2val_0x55555555
0000ab96 l       .data	00000000 I_add_cg_cr_rs1_rs2_edges_rs1val_0x1_rs2val_0x55555555_str
00001970 l       .text.rvtest	00000000 I_add_cg_cr_rs1_rs2_edges_rs1val_0x2_rs2val_0x0
0000abea l       .data	00000000 I_add_cg_cr_rs1_rs2_edges_rs1val_0x2_rs2val_0x0_str
0000199c l       .text.rvtest	00000000 I_add_cg_cr_rs1_rs2_edges_rs1val_0x2_rs2val_0x1
0000ac37 l       .data	00000000 I_add_cg_cr_rs1_rs2_edges_rs1val_0x2_rs2val_0x1_str
000019c8 l       .text.rvtest	00000000 I_add_cg_cr_rs1_rs2_edges_rs1val_0x2_rs2val_0x2
0000ac84 l       .data	00000000 I_add_cg_cr_rs1_rs2_edges_rs1val_0x2_rs2val_0x2_str
000019f4 l       .text.rvtest	00000000 I_add_cg_cr_rs1_rs2_edges_rs1val_0x2_rs2val_0x80000000
0000acd1 l       .data	00000000 I_add_cg_cr_rs1_rs2_edges_rs1val_0x2_rs2val_0x80000000_str
00001a20 l       .text.rvtest	00000000 I_add_cg_cr_rs1_rs2_edges_rs1val_0x2_rs2val_0x80000001
0000ad25 l       .data	00000000 I_add_cg_cr_rs1_rs2_edges_rs1val_0x2_rs2val_0x80000001_str
00001a4c l       .text.rvtest	00000000 I_add_cg_cr_rs1_rs2_edges_rs1val_0x2_rs2val_0x7fffffff
0000ad79 l       .data	00000000 I_add_cg_cr_rs1_rs2_edges_rs1val_0x2_rs2val_0x7fffffff_str
00001a78 l       .text.rvtest	00000000 I_add_cg_cr_rs1_rs2_edges_rs1val_0x2_rs2val_0x7ffffffe
0000adcd l       .data	00000000 I_add_cg_cr_rs1_rs2_edges_rs1val_0x2_rs2val_0x7ffffffe_str
00001aa4 l       .text.rvtest	00000000 I_add_cg_cr_rs1_rs2_edges_rs1val_0x2_rs2val_0xffffffff
0000ae21 l       .data	00000000 I_add_cg_cr_rs1_rs2_edges_rs1val_0x2_rs2val_0xffffffff_str
00001ad0 l       .text.rvtest	00000000 I_add_cg_cr_rs1_rs2_edges_rs1val_0x2_rs2val_0xfffffffe
0000ae75 l       .data	00000000 I_add_cg_cr_rs1_rs2_edges_rs1val_0x2_rs2val_0xfffffffe_str
00001afc l       .text.rvtest	00000000 I_add_cg_cr_rs1_rs2_edges_rs1val_0x2_rs2val_0x5bbc8872
0000aec9 l       .data	00000000 I_add_cg_cr_rs1_rs2_edges_rs1val_0x2_rs2val_0x5bbc8872_str
00001b28 l       .text.rvtest	00000000 I_add_cg_cr_rs1_rs2_edges_rs1val_0x2_rs2val_0xaaaaaaaa
0000af1d l       .data	00000000 I_add_cg_cr_rs1_rs2_edges_rs1val_0x2_rs2val_0xaaaaaaaa_str
00001b54 l       .text.rvtest	00000000 I_add_cg_cr_rs1_rs2_edges_rs1val_0x2_rs2val_0x55555555
0000af71 l       .data	00000000 I_add_cg_cr_rs1_rs2_edges_rs1val_0x2_rs2val_0x55555555_str
00001b80 l       .text.rvtest	00000000 I_add_cg_cr_rs1_rs2_edges_rs1val_0x80000000_rs2val_0x0
0000afc5 l       .data	00000000 I_add_cg_cr_rs1_rs2_edges_rs1val_0x80000000_rs2val_0x0_str
00001bac l       .text.rvtest	00000000 I_add_cg_cr_rs1_rs2_edges_rs1val_0x80000000_rs2val_0x1
0000b019 l       .data	00000000 I_add_cg_cr_rs1_rs2_edges_rs1val_0x80000000_rs2val_0x1_str
00001bd8 l       .text.rvtest	00000000 I_add_cg_cr_rs1_rs2_edges_rs1val_0x80000000_rs2val_0x2
0000b06d l       .data	00000000 I_add_cg_cr_rs1_rs2_edges_rs1val_0x80000000_rs2val_0x2_str
00001c04 l       .text.rvtest	00000000 I_add_cg_cr_rs1_rs2_edges_rs1val_0x80000000_rs2val_0x80000000
0000b0c1 l       .data	00000000 I_add_cg_cr_rs1_rs2_edges_rs1val_0x80000000_rs2val_0x80000000_str
00001c30 l       .text.rvtest	00000000 I_add_cg_cr_rs1_rs2_edges_rs1val_0x80000000_rs2val_0x80000001
0000b11c l       .data	00000000 I_add_cg_cr_rs1_rs2_edges_rs1val_0x80000000_rs2val_0x80000001_str
00001c5c l       .text.rvtest	00000000 I_add_cg_cr_rs1_rs2_edges_rs1val_0x80000000_rs2val_0x7fffffff
0000b177 l       .data	00000000 I_add_cg_cr_rs1_rs2_edges_rs1val_0x80000000_rs2val_0x7fffffff_str
00001c88 l       .text.rvtest	00000000 I_add_cg_cr_rs1_rs2_edges_rs1val_0x80000000_rs2val_0x7ffffffe
0000b1d2 l       .data	00000000 I_add_cg_cr_rs1_rs2_edges_rs1val_0x80000000_rs2val_0x7ffffffe_str
00001cb4 l       .text.rvtest	00000000 I_add_cg_cr_rs1_rs2_edges_rs1val_0x80000000_rs2val_0xffffffff
0000b22d l       .data	00000000 I_add_cg_cr_rs1_rs2_edges_rs1val_0x80000000_rs2val_0xffffffff_str
00001ce0 l       .text.rvtest	00000000 I_add_cg_cr_rs1_rs2_edges_rs1val_0x80000000_rs2val_0xfffffffe
0000b288 l       .data	00000000 I_add_cg_cr_rs1_rs2_edges_rs1val_0x80000000_rs2val_0xfffffffe_str
00001d0c l       .text.rvtest	00000000 I_add_cg_cr_rs1_rs2_edges_rs1val_0x80000000_rs2val_0x5bbc8872
0000b2e3 l       .data	00000000 I_add_cg_cr_rs1_rs2_edges_rs1val_0x80000000_rs2val_0x5bbc8872_str
00001d38 l       .text.rvtest	00000000 I_add_cg_cr_rs1_rs2_edges_rs1val_0x80000000_rs2val_0xaaaaaaaa
0000b33e l       .data	00000000 I_add_cg_cr_rs1_rs2_edges_rs1val_0x80000000_rs2val_0xaaaaaaaa_str
00001d64 l       .text.rvtest	00000000 I_add_cg_cr_rs1_rs2_edges_rs1val_0x80000000_rs2val_0x55555555
0000b399 l       .data	00000000 I_add_cg_cr_rs1_rs2_edges_rs1val_0x80000000_rs2val_0x55555555_str
00001d90 l       .text.rvtest	00000000 I_add_cg_cr_rs1_rs2_edges_rs1val_0x80000001_rs2val_0x0
0000b3f4 l       .data	00000000 I_add_cg_cr_rs1_rs2_edges_rs1val_0x80000001_rs2val_0x0_str
00001dbc l       .text.rvtest	00000000 I_add_cg_cr_rs1_rs2_edges_rs1val_0x80000001_rs2val_0x1
0000b448 l       .data	00000000 I_add_cg_cr_rs1_rs2_edges_rs1val_0x80000001_rs2val_0x1_str
00001de8 l       .text.rvtest	00000000 I_add_cg_cr_rs1_rs2_edges_rs1val_0x80000001_rs2val_0x2
0000b49c l       .data	00000000 I_add_cg_cr_rs1_rs2_edges_rs1val_0x80000001_rs2val_0x2_str
00001e14 l       .text.rvtest	00000000 I_add_cg_cr_rs1_rs2_edges_rs1val_0x80000001_rs2val_0x80000000
0000b4f0 l       .data	00000000 I_add_cg_cr_rs1_rs2_edges_rs1val_0x80000001_rs2val_0x80000000_str
00001e40 l       .text.rvtest	00000000 I_add_cg_cr_rs1_rs2_edges_rs1val_0x80000001_rs2val_0x80000001
0000b54b l       .data	00000000 I_add_cg_cr_rs1_rs2_edges_rs1val_0x80000001_rs2val_0x80000001_str
00001e6c l       .text.rvtest	00000000 I_add_cg_cr_rs1_rs2_edges_rs1val_0x80000001_rs2val_0x7fffffff
0000b5a6 l       .data	00000000 I_add_cg_cr_rs1_rs2_edges_rs1val_0x80000001_rs2val_0x7fffffff_str
00001e98 l       .text.rvtest	00000000 I_add_cg_cr_rs1_rs2_edges_rs1val_0x80000001_rs2val_0x7ffffffe
0000b601 l       .data	00000000 I_add_cg_cr_rs1_rs2_edges_rs1val_0x80000001_rs2val_0x7ffffffe_str
00001ec4 l       .text.rvtest	00000000 I_add_cg_cr_rs1_rs2_edges_rs1val_0x80000001_rs2val_0xffffffff
0000b65c l       .data	00000000 I_add_cg_cr_rs1_rs2_edges_rs1val_0x80000001_rs2val_0xffffffff_str
00001ef0 l       .text.rvtest	00000000 I_add_cg_cr_rs1_rs2_edges_rs1val_0x80000001_rs2val_0xfffffffe
0000b6b7 l       .data	00000000 I_add_cg_cr_rs1_rs2_edges_rs1val_0x80000001_rs2val_0xfffffffe_str
00001f1c l       .text.rvtest	00000000 I_add_cg_cr_rs1_rs2_edges_rs1val_0x80000001_rs2val_0x5bbc8872
0000b712 l       .data	00000000 I_add_cg_cr_rs1_rs2_edges_rs1val_0x80000001_rs2val_0x5bbc8872_str
00001f48 l       .text.rvtest	00000000 I_add_cg_cr_rs1_rs2_edges_rs1val_0x80000001_rs2val_0xaaaaaaaa
0000b76d l       .data	00000000 I_add_cg_cr_rs1_rs2_edges_rs1val_0x80000001_rs2val_0xaaaaaaaa_str
00001f74 l       .text.rvtest	00000000 I_add_cg_cr_rs1_rs2_edges_rs1val_0x80000001_rs2val_0x55555555
0000b7c8 l       .data	00000000 I_add_cg_cr_rs1_rs2_edges_rs1val_0x80000001_rs2val_0x55555555_str
00001fa0 l       .text.rvtest	00000000 I_add_cg_cr_rs1_rs2_edges_rs1val_0x7fffffff_rs2val_0x0
0000b823 l       .data	00000000 I_add_cg_cr_rs1_rs2_edges_rs1val_0x7fffffff_rs2val_0x0_str
00001fcc l       .text.rvtest	00000000 I_add_cg_cr_rs1_rs2_edges_rs1val_0x7fffffff_rs2val_0x1
0000b877 l       .data	00000000 I_add_cg_cr_rs1_rs2_edges_rs1val_0x7fffffff_rs2val_0x1_str
00001ff8 l       .text.rvtest	00000000 I_add_cg_cr_rs1_rs2_edges_rs1val_0x7fffffff_rs2val_0x2
0000b8cb l       .data	00000000 I_add_cg_cr_rs1_rs2_edges_rs1val_0x7fffffff_rs2val_0x2_str
00002024 l       .text.rvtest	00000000 I_add_cg_cr_rs1_rs2_edges_rs1val_0x7fffffff_rs2val_0x80000000
0000b91f l       .data	00000000 I_add_cg_cr_rs1_rs2_edges_rs1val_0x7fffffff_rs2val_0x80000000_str
00002050 l       .text.rvtest	00000000 I_add_cg_cr_rs1_rs2_edges_rs1val_0x7fffffff_rs2val_0x80000001
0000b97a l       .data	00000000 I_add_cg_cr_rs1_rs2_edges_rs1val_0x7fffffff_rs2val_0x80000001_str
0000207c l       .text.rvtest	00000000 I_add_cg_cr_rs1_rs2_edges_rs1val_0x7fffffff_rs2val_0x7fffffff
0000b9d5 l       .data	00000000 I_add_cg_cr_rs1_rs2_edges_rs1val_0x7fffffff_rs2val_0x7fffffff_str
000020a8 l       .text.rvtest	00000000 I_add_cg_cr_rs1_rs2_edges_rs1val_0x7fffffff_rs2val_0x7ffffffe
0000ba30 l       .data	00000000 I_add_cg_cr_rs1_rs2_edges_rs1val_0x7fffffff_rs2val_0x7ffffffe_str
000020d4 l       .text.rvtest	00000000 I_add_cg_cr_rs1_rs2_edges_rs1val_0x7fffffff_rs2val_0xffffffff
0000ba8b l       .data	00000000 I_add_cg_cr_rs1_rs2_edges_rs1val_0x7fffffff_rs2val_0xffffffff_str
00002100 l       .text.rvtest	00000000 I_add_cg_cr_rs1_rs2_edges_rs1val_0x7fffffff_rs2val_0xfffffffe
0000bae6 l       .data	00000000 I_add_cg_cr_rs1_rs2_edges_rs1val_0x7fffffff_rs2val_0xfffffffe_str
0000212c l       .text.rvtest	00000000 I_add_cg_cr_rs1_rs2_edges_rs1val_0x7fffffff_rs2val_0x5bbc8872
0000bb41 l       .data	00000000 I_add_cg_cr_rs1_rs2_edges_rs1val_0x7fffffff_rs2val_0x5bbc8872_str
00002158 l       .text.rvtest	00000000 I_add_cg_cr_rs1_rs2_edges_rs1val_0x7fffffff_rs2val_0xaaaaaaaa
0000bb9c l       .data	00000000 I_add_cg_cr_rs1_rs2_edges_rs1val_0x7fffffff_rs2val_0xaaaaaaaa_str
00002184 l       .text.rvtest	00000000 I_add_cg_cr_rs1_rs2_edges_rs1val_0x7fffffff_rs2val_0x55555555
0000bbf7 l       .data	00000000 I_add_cg_cr_rs1_rs2_edges_rs1val_0x7fffffff_rs2val_0x55555555_str
000021b0 l       .text.rvtest	00000000 I_add_cg_cr_rs1_rs2_edges_rs1val_0x7ffffffe_rs2val_0x0
0000bc52 l       .data	00000000 I_add_cg_cr_rs1_rs2_edges_rs1val_0x7ffffffe_rs2val_0x0_str
000021dc l       .text.rvtest	00000000 I_add_cg_cr_rs1_rs2_edges_rs1val_0x7ffffffe_rs2val_0x1
0000bca6 l       .data	00000000 I_add_cg_cr_rs1_rs2_edges_rs1val_0x7ffffffe_rs2val_0x1_str
00002208 l       .text.rvtest	00000000 I_add_cg_cr_rs1_rs2_edges_rs1val_0x7ffffffe_rs2val_0x2
0000bcfa l       .data	00000000 I_add_cg_cr_rs1_rs2_edges_rs1val_0x7ffffffe_rs2val_0x2_str
00002234 l       .text.rvtest	00000000 I_add_cg_cr_rs1_rs2_edges_rs1val_0x7ffffffe_rs2val_0x80000000
0000bd4e l       .data	00000000 I_add_cg_cr_rs1_rs2_edges_rs1val_0x7ffffffe_rs2val_0x80000000_str
00002260 l       .text.rvtest	00000000 I_add_cg_cr_rs1_rs2_edges_rs1val_0x7ffffffe_rs2val_0x80000001
0000bda9 l       .data	00000000 I_add_cg_cr_rs1_rs2_edges_rs1val_0x7ffffffe_rs2val_0x80000001_str
0000228c l       .text.rvtest	00000000 I_add_cg_cr_rs1_rs2_edges_rs1val_0x7ffffffe_rs2val_0x7fffffff
0000be04 l       .data	00000000 I_add_cg_cr_rs1_rs2_edges_rs1val_0x7ffffffe_rs2val_0x7fffffff_str
000022b8 l       .text.rvtest	00000000 I_add_cg_cr_rs1_rs2_edges_rs1val_0x7ffffffe_rs2val_0x7ffffffe
0000be5f l       .data	00000000 I_add_cg_cr_rs1_rs2_edges_rs1val_0x7ffffffe_rs2val_0x7ffffffe_str
000022e4 l       .text.rvtest	00000000 I_add_cg_cr_rs1_rs2_edges_rs1val_0x7ffffffe_rs2val_0xffffffff
0000beba l       .data	00000000 I_add_cg_cr_rs1_rs2_edges_rs1val_0x7ffffffe_rs2val_0xffffffff_str
00002310 l       .text.rvtest	00000000 I_add_cg_cr_rs1_rs2_edges_rs1val_0x7ffffffe_rs2val_0xfffffffe
0000bf15 l       .data	00000000 I_add_cg_cr_rs1_rs2_edges_rs1val_0x7ffffffe_rs2val_0xfffffffe_str
0000233c l       .text.rvtest	00000000 I_add_cg_cr_rs1_rs2_edges_rs1val_0x7ffffffe_rs2val_0x5bbc8872
0000bf70 l       .data	00000000 I_add_cg_cr_rs1_rs2_edges_rs1val_0x7ffffffe_rs2val_0x5bbc8872_str
00002368 l       .text.rvtest	00000000 I_add_cg_cr_rs1_rs2_edges_rs1val_0x7ffffffe_rs2val_0xaaaaaaaa
0000bfcb l       .data	00000000 I_add_cg_cr_rs1_rs2_edges_rs1val_0x7ffffffe_rs2val_0xaaaaaaaa_str
00002394 l       .text.rvtest	00000000 I_add_cg_cr_rs1_rs2_edges_rs1val_0x7ffffffe_rs2val_0x55555555
0000c026 l       .data	00000000 I_add_cg_cr_rs1_rs2_edges_rs1val_0x7ffffffe_rs2val_0x55555555_str
000023c0 l       .text.rvtest	00000000 I_add_cg_cr_rs1_rs2_edges_rs1val_0xffffffff_rs2val_0x0
0000c081 l       .data	00000000 I_add_cg_cr_rs1_rs2_edges_rs1val_0xffffffff_rs2val_0x0_str
000023ec l       .text.rvtest	00000000 I_add_cg_cr_rs1_rs2_edges_rs1val_0xffffffff_rs2val_0x1
0000c0d5 l       .data	00000000 I_add_cg_cr_rs1_rs2_edges_rs1val_0xffffffff_rs2val_0x1_str
00002418 l       .text.rvtest	00000000 I_add_cg_cr_rs1_rs2_edges_rs1val_0xffffffff_rs2val_0x2
0000c129 l       .data	00000000 I_add_cg_cr_rs1_rs2_edges_rs1val_0xffffffff_rs2val_0x2_str
00002444 l       .text.rvtest	00000000 I_add_cg_cr_rs1_rs2_edges_rs1val_0xffffffff_rs2val_0x80000000
0000c17d l       .data	00000000 I_add_cg_cr_rs1_rs2_edges_rs1val_0xffffffff_rs2val_0x80000000_str
00002470 l       .text.rvtest	00000000 I_add_cg_cr_rs1_rs2_edges_rs1val_0xffffffff_rs2val_0x80000001
0000c1d8 l       .data	00000000 I_add_cg_cr_rs1_rs2_edges_rs1val_0xffffffff_rs2val_0x80000001_str
0000249c l       .text.rvtest	00000000 I_add_cg_cr_rs1_rs2_edges_rs1val_0xffffffff_rs2val_0x7fffffff
0000c233 l       .data	00000000 I_add_cg_cr_rs1_rs2_edges_rs1val_0xffffffff_rs2val_0x7fffffff_str
000024c8 l       .text.rvtest	00000000 I_add_cg_cr_rs1_rs2_edges_rs1val_0xffffffff_rs2val_0x7ffffffe
0000c28e l       .data	00000000 I_add_cg_cr_rs1_rs2_edges_rs1val_0xffffffff_rs2val_0x7ffffffe_str
000024f4 l       .text.rvtest	00000000 I_add_cg_cr_rs1_rs2_edges_rs1val_0xffffffff_rs2val_0xffffffff
0000c2e9 l       .data	00000000 I_add_cg_cr_rs1_rs2_edges_rs1val_0xffffffff_rs2val_0xffffffff_str
00002520 l       .text.rvtest	00000000 I_add_cg_cr_rs1_rs2_edges_rs1val_0xffffffff_rs2val_0xfffffffe
0000c344 l       .data	00000000 I_add_cg_cr_rs1_rs2_edges_rs1val_0xffffffff_rs2val_0xfffffffe_str
0000254c l       .text.rvtest	00000000 I_add_cg_cr_rs1_rs2_edges_rs1val_0xffffffff_rs2val_0x5bbc8872
0000c39f l       .data	00000000 I_add_cg_cr_rs1_rs2_edges_rs1val_0xffffffff_rs2val_0x5bbc8872_str
00002578 l       .text.rvtest	00000000 I_add_cg_cr_rs1_rs2_edges_rs1val_0xffffffff_rs2val_0xaaaaaaaa
0000c3fa l       .data	00000000 I_add_cg_cr_rs1_rs2_edges_rs1val_0xffffffff_rs2val_0xaaaaaaaa_str
000025a4 l       .text.rvtest	00000000 I_add_cg_cr_rs1_rs2_edges_rs1val_0xffffffff_rs2val_0x55555555
0000c455 l       .data	00000000 I_add_cg_cr_rs1_rs2_edges_rs1val_0xffffffff_rs2val_0x55555555_str
000025d0 l       .text.rvtest	00000000 I_add_cg_cr_rs1_rs2_edges_rs1val_0xfffffffe_rs2val_0x0
0000c4b0 l       .data	00000000 I_add_cg_cr_rs1_rs2_edges_rs1val_0xfffffffe_rs2val_0x0_str
000025fc l       .text.rvtest	00000000 I_add_cg_cr_rs1_rs2_edges_rs1val_0xfffffffe_rs2val_0x1
0000c504 l       .data	00000000 I_add_cg_cr_rs1_rs2_edges_rs1val_0xfffffffe_rs2val_0x1_str
00002628 l       .text.rvtest	00000000 I_add_cg_cr_rs1_rs2_edges_rs1val_0xfffffffe_rs2val_0x2
0000c558 l       .data	00000000 I_add_cg_cr_rs1_rs2_edges_rs1val_0xfffffffe_rs2val_0x2_str
00002654 l       .text.rvtest	00000000 I_add_cg_cr_rs1_rs2_edges_rs1val_0xfffffffe_rs2val_0x80000000
0000c5ac l       .data	00000000 I_add_cg_cr_rs1_rs2_edges_rs1val_0xfffffffe_rs2val_0x80000000_str
00002680 l       .text.rvtest	00000000 I_add_cg_cr_rs1_rs2_edges_rs1val_0xfffffffe_rs2val_0x80000001
0000c607 l       .data	00000000 I_add_cg_cr_rs1_rs2_edges_rs1val_0xfffffffe_rs2val_0x80000001_str
000026ac l       .text.rvtest	00000000 I_add_cg_cr_rs1_rs2_edges_rs1val_0xfffffffe_rs2val_0x7fffffff
0000c662 l       .data	00000000 I_add_cg_cr_rs1_rs2_edges_rs1val_0xfffffffe_rs2val_0x7fffffff_str
000026d8 l       .text.rvtest	00000000 I_add_cg_cr_rs1_rs2_edges_rs1val_0xfffffffe_rs2val_0x7ffffffe
0000c6bd l       .data	00000000 I_add_cg_cr_rs1_rs2_edges_rs1val_0xfffffffe_rs2val_0x7ffffffe_str
00002704 l       .text.rvtest	00000000 I_add_cg_cr_rs1_rs2_edges_rs1val_0xfffffffe_rs2val_0xffffffff
0000c718 l       .data	00000000 I_add_cg_cr_rs1_rs2_edges_rs1val_0xfffffffe_rs2val_0xffffffff_str
00002730 l       .text.rvtest	00000000 I_add_cg_cr_rs1_rs2_edges_rs1val_0xfffffffe_rs2val_0xfffffffe
0000c773 l       .data	00000000 I_add_cg_cr_rs1_rs2_edges_rs1val_0xfffffffe_rs2val_0xfffffffe_str
0000275c l       .text.rvtest	00000000 I_add_cg_cr_rs1_rs2_edges_rs1val_0xfffffffe_rs2val_0x5bbc8872
0000c7ce l       .data	00000000 I_add_cg_cr_rs1_rs2_edges_rs1val_0xfffffffe_rs2val_0x5bbc8872_str
00002788 l       .text.rvtest	00000000 I_add_cg_cr_rs1_rs2_edges_rs1val_0xfffffffe_rs2val_0xaaaaaaaa
0000c829 l       .data	00000000 I_add_cg_cr_rs1_rs2_edges_rs1val_0xfffffffe_rs2val_0xaaaaaaaa_str
000027b4 l       .text.rvtest	00000000 I_add_cg_cr_rs1_rs2_edges_rs1val_0xfffffffe_rs2val_0x55555555
0000c884 l       .data	00000000 I_add_cg_cr_rs1_rs2_edges_rs1val_0xfffffffe_rs2val_0x55555555_str
000027e0 l       .text.rvtest	00000000 I_add_cg_cr_rs1_rs2_edges_rs1val_0x5bbc8872_rs2val_0x0
0000c8df l       .data	00000000 I_add_cg_cr_rs1_rs2_edges_rs1val_0x5bbc8872_rs2val_0x0_str
0000280c l       .text.rvtest	00000000 I_add_cg_cr_rs1_rs2_edges_rs1val_0x5bbc8872_rs2val_0x1
0000c933 l       .data	00000000 I_add_cg_cr_rs1_rs2_edges_rs1val_0x5bbc8872_rs2val_0x1_str
00002838 l       .text.rvtest	00000000 I_add_cg_cr_rs1_rs2_edges_rs1val_0x5bbc8872_rs2val_0x2
0000c987 l       .data	00000000 I_add_cg_cr_rs1_rs2_edges_rs1val_0x5bbc8872_rs2val_0x2_str
00002864 l       .text.rvtest	00000000 I_add_cg_cr_rs1_rs2_edges_rs1val_0x5bbc8872_rs2val_0x80000000
0000c9db l       .data	00000000 I_add_cg_cr_rs1_rs2_edges_rs1val_0x5bbc8872_rs2val_0x80000000_str
00002890 l       .text.rvtest	00000000 I_add_cg_cr_rs1_rs2_edges_rs1val_0x5bbc8872_rs2val_0x80000001
0000ca36 l       .data	00000000 I_add_cg_cr_rs1_rs2_edges_rs1val_0x5bbc8872_rs2val_0x80000001_str
000028bc l       .text.rvtest	00000000 I_add_cg_cr_rs1_rs2_edges_rs1val_0x5bbc8872_rs2val_0x7fffffff
0000ca91 l       .data	00000000 I_add_cg_cr_rs1_rs2_edges_rs1val_0x5bbc8872_rs2val_0x7fffffff_str
000028e8 l       .text.rvtest	00000000 I_add_cg_cr_rs1_rs2_edges_rs1val_0x5bbc8872_rs2val_0x7ffffffe
0000caec l       .data	00000000 I_add_cg_cr_rs1_rs2_edges_rs1val_0x5bbc8872_rs2val_0x7ffffffe_str
00002914 l       .text.rvtest	00000000 I_add_cg_cr_rs1_rs2_edges_rs1val_0x5bbc8872_rs2val_0xffffffff
0000cb47 l       .data	00000000 I_add_cg_cr_rs1_rs2_edges_rs1val_0x5bbc8872_rs2val_0xffffffff_str
00002940 l       .text.rvtest	00000000 I_add_cg_cr_rs1_rs2_edges_rs1val_0x5bbc8872_rs2val_0xfffffffe
0000cba2 l       .data	00000000 I_add_cg_cr_rs1_rs2_edges_rs1val_0x5bbc8872_rs2val_0xfffffffe_str
0000296c l       .text.rvtest	00000000 I_add_cg_cr_rs1_rs2_edges_rs1val_0x5bbc8872_rs2val_0x5bbc8872
0000cbfd l       .data	00000000 I_add_cg_cr_rs1_rs2_edges_rs1val_0x5bbc8872_rs2val_0x5bbc8872_str
00002998 l       .text.rvtest	00000000 I_add_cg_cr_rs1_rs2_edges_rs1val_0x5bbc8872_rs2val_0xaaaaaaaa
0000cc58 l       .data	00000000 I_add_cg_cr_rs1_rs2_edges_rs1val_0x5bbc8872_rs2val_0xaaaaaaaa_str
000029c4 l       .text.rvtest	00000000 I_add_cg_cr_rs1_rs2_edges_rs1val_0x5bbc8872_rs2val_0x55555555
0000ccb3 l       .data	00000000 I_add_cg_cr_rs1_rs2_edges_rs1val_0x5bbc8872_rs2val_0x55555555_str
000029f0 l       .text.rvtest	00000000 I_add_cg_cr_rs1_rs2_edges_rs1val_0xaaaaaaaa_rs2val_0x0
0000cd0e l       .data	00000000 I_add_cg_cr_rs1_rs2_edges_rs1val_0xaaaaaaaa_rs2val_0x0_str
00002a1c l       .text.rvtest	00000000 I_add_cg_cr_rs1_rs2_edges_rs1val_0xaaaaaaaa_rs2val_0x1
0000cd62 l       .data	00000000 I_add_cg_cr_rs1_rs2_edges_rs1val_0xaaaaaaaa_rs2val_0x1_str
00002a48 l       .text.rvtest	00000000 I_add_cg_cr_rs1_rs2_edges_rs1val_0xaaaaaaaa_rs2val_0x2
0000cdb6 l       .data	00000000 I_add_cg_cr_rs1_rs2_edges_rs1val_0xaaaaaaaa_rs2val_0x2_str
00002a74 l       .text.rvtest	00000000 I_add_cg_cr_rs1_rs2_edges_rs1val_0xaaaaaaaa_rs2val_0x80000000
0000ce0a l       .data	00000000 I_add_cg_cr_rs1_rs2_edges_rs1val_0xaaaaaaaa_rs2val_0x80000000_str
00002aa0 l       .text.rvtest	00000000 I_add_cg_cr_rs1_rs2_edges_rs1val_0xaaaaaaaa_rs2val_0x80000001
0000ce65 l       .data	00000000 I_add_cg_cr_rs1_rs2_edges_rs1val_0xaaaaaaaa_rs2val_0x80000001_str
00002acc l       .text.rvtest	00000000 I_add_cg_cr_rs1_rs2_edges_rs1val_0xaaaaaaaa_rs2val_0x7fffffff
0000cec0 l       .data	00000000 I_add_cg_cr_rs1_rs2_edges_rs1val_0xaaaaaaaa_rs2val_0x7fffffff_str
00002af8 l       .text.rvtest	00000000 I_add_cg_cr_rs1_rs2_edges_rs1val_0xaaaaaaaa_rs2val_0x7ffffffe
0000cf1b l       .data	00000000 I_add_cg_cr_rs1_rs2_edges_rs1val_0xaaaaaaaa_rs2val_0x7ffffffe_str
00002b24 l       .text.rvtest	00000000 I_add_cg_cr_rs1_rs2_edges_rs1val_0xaaaaaaaa_rs2val_0xffffffff
0000cf76 l       .data	00000000 I_add_cg_cr_rs1_rs2_edges_rs1val_0xaaaaaaaa_rs2val_0xffffffff_str
00002b50 l       .text.rvtest	00000000 I_add_cg_cr_rs1_rs2_edges_rs1val_0xaaaaaaaa_rs2val_0xfffffffe
0000cfd1 l       .data	00000000 I_add_cg_cr_rs1_rs2_edges_rs1val_0xaaaaaaaa_rs2val_0xfffffffe_str
00002b7c l       .text.rvtest	00000000 I_add_cg_cr_rs1_rs2_edges_rs1val_0xaaaaaaaa_rs2val_0x5bbc8872
0000d02c l       .data	00000000 I_add_cg_cr_rs1_rs2_edges_rs1val_0xaaaaaaaa_rs2val_0x5bbc8872_str
00002ba8 l       .text.rvtest	00000000 I_add_cg_cr_rs1_rs2_edges_rs1val_0xaaaaaaaa_rs2val_0xaaaaaaaa
0000d087 l       .data	00000000 I_add_cg_cr_rs1_rs2_edges_rs1val_0xaaaaaaaa_rs2val_0xaaaaaaaa_str
00002bd4 l       .text.rvtest	00000000 I_add_cg_cr_rs1_rs2_edges_rs1val_0xaaaaaaaa_rs2val_0x55555555
0000d0e2 l       .data	00000000 I_add_cg_cr_rs1_rs2_edges_rs1val_0xaaaaaaaa_rs2val_0x55555555_str
00002c00 l       .text.rvtest	00000000 I_add_cg_cr_rs1_rs2_edges_rs1val_0x55555555_rs2val_0x0
0000d13d l       .data	00000000 I_add_cg_cr_rs1_rs2_edges_rs1val_0x55555555_rs2val_0x0_str
00002c2c l       .text.rvtest	00000000 I_add_cg_cr_rs1_rs2_edges_rs1val_0x55555555_rs2val_0x1
0000d191 l       .data	00000000 I_add_cg_cr_rs1_rs2_edges_rs1val_0x55555555_rs2val_0x1_str
00002c58 l       .text.rvtest	00000000 I_add_cg_cr_rs1_rs2_edges_rs1val_0x55555555_rs2val_0x2
0000d1e5 l       .data	00000000 I_add_cg_cr_rs1_rs2_edges_rs1val_0x55555555_rs2val_0x2_str
00002c84 l       .text.rvtest	00000000 I_add_cg_cr_rs1_rs2_edges_rs1val_0x55555555_rs2val_0x80000000
0000d239 l       .data	00000000 I_add_cg_cr_rs1_rs2_edges_rs1val_0x55555555_rs2val_0x80000000_str
00002cb0 l       .text.rvtest	00000000 I_add_cg_cr_rs1_rs2_edges_rs1val_0x55555555_rs2val_0x80000001
0000d294 l       .data	00000000 I_add_cg_cr_rs1_rs2_edges_rs1val_0x55555555_rs2val_0x80000001_str
00002cdc l       .text.rvtest	00000000 I_add_cg_cr_rs1_rs2_edges_rs1val_0x55555555_rs2val_0x7fffffff
0000d2ef l       .data	00000000 I_add_cg_cr_rs1_rs2_edges_rs1val_0x55555555_rs2val_0x7fffffff_str
00002d08 l       .text.rvtest	00000000 I_add_cg_cr_rs1_rs2_edges_rs1val_0x55555555_rs2val_0x7ffffffe
0000d34a l       .data	00000000 I_add_cg_cr_rs1_rs2_edges_rs1val_0x55555555_rs2val_0x7ffffffe_str
00002d34 l       .text.rvtest	00000000 I_add_cg_cr_rs1_rs2_edges_rs1val_0x55555555_rs2val_0xffffffff
0000d3a5 l       .data	00000000 I_add_cg_cr_rs1_rs2_edges_rs1val_0x55555555_rs2val_0xffffffff_str
00002d60 l       .text.rvtest	00000000 I_add_cg_cr_rs1_rs2_edges_rs1val_0x55555555_rs2val_0xfffffffe
0000d400 l       .data	00000000 I_add_cg_cr_rs1_rs2_edges_rs1val_0x55555555_rs2val_0xfffffffe_str
00002d8c l       .text.rvtest	00000000 I_add_cg_cr_rs1_rs2_edges_rs1val_0x55555555_rs2val_0x5bbc8872
0000d45b l       .data	00000000 I_add_cg_cr_rs1_rs2_edges_rs1val_0x55555555_rs2val_0x5bbc8872_str
00002db8 l       .text.rvtest	00000000 I_add_cg_cr_rs1_rs2_edges_rs1val_0x55555555_rs2val_0xaaaaaaaa
0000d4b6 l       .data	00000000 I_add_cg_cr_rs1_rs2_edges_rs1val_0x55555555_rs2val_0xaaaaaaaa_str
00002de4 l       .text.rvtest	00000000 I_add_cg_cr_rs1_rs2_edges_rs1val_0x55555555_rs2val_0x55555555
0000d511 l       .data	00000000 I_add_cg_cr_rs1_rs2_edges_rs1val_0x55555555_rs2val_0x55555555_str
00002e10 l       .text.rvtest	00000000 I_add_cg_cmp_rs1_rs2_b0
0000d56c l       .data	00000000 I_add_cg_cmp_rs1_rs2_b0_str
00002e3c l       .text.rvtest	00000000 I_add_cg_cmp_rs1_rs2_b1
0000d5a0 l       .data	00000000 I_add_cg_cmp_rs1_rs2_b1_str
00002e68 l       .text.rvtest	00000000 I_add_cg_cmp_rs1_rs2_b2
0000d5d4 l       .data	00000000 I_add_cg_cmp_rs1_rs2_b2_str
00002e94 l       .text.rvtest	00000000 I_add_cg_cmp_rs1_rs2_b3
0000d608 l       .data	00000000 I_add_cg_cmp_rs1_rs2_b3_str
00002ec8 l       .text.rvtest	00000000 I_add_cg_cmp_rs1_rs2_b4
0000d63c l       .data	00000000 I_add_cg_cmp_rs1_rs2_b4_str
00002ef4 l       .text.rvtest	00000000 I_add_cg_cmp_rs1_rs2_b5
0000d670 l       .data	00000000 I_add_cg_cmp_rs1_rs2_b5_str
00002f24 l       .text.rvtest	00000000 I_add_cg_cmp_rs1_rs2_b6
0000d6a4 l       .data	00000000 I_add_cg_cmp_rs1_rs2_b6_str
00002f58 l       .text.rvtest	00000000 I_add_cg_cmp_rs1_rs2_b7
0000d6d8 l       .data	00000000 I_add_cg_cmp_rs1_rs2_b7_str
00002f84 l       .text.rvtest	00000000 I_add_cg_cmp_rs1_rs2_b8
0000d70c l       .data	00000000 I_add_cg_cmp_rs1_rs2_b8_str
00002fb0 l       .text.rvtest	00000000 I_add_cg_cmp_rs1_rs2_b9
0000d740 l       .data	00000000 I_add_cg_cmp_rs1_rs2_b9_str
00002fdc l       .text.rvtest	00000000 I_add_cg_cmp_rs1_rs2_b10
0000d774 l       .data	00000000 I_add_cg_cmp_rs1_rs2_b10_str
00003008 l       .text.rvtest	00000000 I_add_cg_cmp_rs1_rs2_b11
0000d7a9 l       .data	00000000 I_add_cg_cmp_rs1_rs2_b11_str
00003034 l       .text.rvtest	00000000 I_add_cg_cmp_rs1_rs2_b12
0000d7de l       .data	00000000 I_add_cg_cmp_rs1_rs2_b12_str
00003060 l       .text.rvtest	00000000 I_add_cg_cmp_rs1_rs2_b13
0000d813 l       .data	00000000 I_add_cg_cmp_rs1_rs2_b13_str
0000308c l       .text.rvtest	00000000 I_add_cg_cmp_rs1_rs2_b14
0000d848 l       .data	00000000 I_add_cg_cmp_rs1_rs2_b14_str
000030b8 l       .text.rvtest	00000000 I_add_cg_cmp_rs1_rs2_b15
0000d87d l       .data	00000000 I_add_cg_cmp_rs1_rs2_b15_str
000030e4 l       .text.rvtest	00000000 I_add_cg_cmp_rs1_rs2_b16
0000d8b2 l       .data	00000000 I_add_cg_cmp_rs1_rs2_b16_str
00003110 l       .text.rvtest	00000000 I_add_cg_cmp_rs1_rs2_b17
0000d8e7 l       .data	00000000 I_add_cg_cmp_rs1_rs2_b17_str
0000313c l       .text.rvtest	00000000 I_add_cg_cmp_rs1_rs2_b18
0000d91c l       .data	00000000 I_add_cg_cmp_rs1_rs2_b18_str
00003168 l       .text.rvtest	00000000 I_add_cg_cmp_rs1_rs2_b19
0000d951 l       .data	00000000 I_add_cg_cmp_rs1_rs2_b19_str
00003194 l       .text.rvtest	00000000 I_add_cg_cmp_rs1_rs2_b20
0000d986 l       .data	00000000 I_add_cg_cmp_rs1_rs2_b20_str
000031c4 l       .text.rvtest	00000000 I_add_cg_cmp_rs1_rs2_b21
0000d9bb l       .data	00000000 I_add_cg_cmp_rs1_rs2_b21_str
000031f4 l       .text.rvtest	00000000 I_add_cg_cmp_rs1_rs2_b22
0000d9f0 l       .data	00000000 I_add_cg_cmp_rs1_rs2_b22_str
00003220 l       .text.rvtest	00000000 I_add_cg_cmp_rs1_rs2_b23
0000da25 l       .data	00000000 I_add_cg_cmp_rs1_rs2_b23_str
0000324c l       .text.rvtest	00000000 I_add_cg_cmp_rs1_rs2_b24
0000da5a l       .data	00000000 I_add_cg_cmp_rs1_rs2_b24_str
00003278 l       .text.rvtest	00000000 I_add_cg_cmp_rs1_rs2_b25
0000da8f l       .data	00000000 I_add_cg_cmp_rs1_rs2_b25_str
000032a4 l       .text.rvtest	00000000 I_add_cg_cmp_rs1_rs2_b26
0000dac4 l       .data	00000000 I_add_cg_cmp_rs1_rs2_b26_str
000032d0 l       .text.rvtest	00000000 I_add_cg_cmp_rs1_rs2_b27
0000daf9 l       .data	00000000 I_add_cg_cmp_rs1_rs2_b27_str
000032fc l       .text.rvtest	00000000 I_add_cg_cmp_rs1_rs2_b28
0000db2e l       .data	00000000 I_add_cg_cmp_rs1_rs2_b28_str
00003328 l       .text.rvtest	00000000 I_add_cg_cmp_rs1_rs2_b29
0000db63 l       .data	00000000 I_add_cg_cmp_rs1_rs2_b29_str
00003358 l       .text.rvtest	00000000 I_add_cg_cmp_rs1_rs2_b30
0000db98 l       .data	00000000 I_add_cg_cmp_rs1_rs2_b30_str
00003384 l       .text.rvtest	00000000 I_add_cg_cmp_rs1_rs2_b31
0000dbcd l       .data	00000000 I_add_cg_cmp_rs1_rs2_b31_str
000033b0 l       .text.rvtest	00000000 I_add_cg_cmp_rd_rs1_b0
0000dc02 l       .data	00000000 I_add_cg_cmp_rd_rs1_b0_str
000033dc l       .text.rvtest	00000000 I_add_cg_cmp_rd_rs1_b1
0000dc35 l       .data	00000000 I_add_cg_cmp_rd_rs1_b1_str
00003408 l       .text.rvtest	00000000 I_add_cg_cmp_rd_rs1_b2
0000dc68 l       .data	00000000 I_add_cg_cmp_rd_rs1_b2_str
00003434 l       .text.rvtest	00000000 I_add_cg_cmp_rd_rs1_b3
0000dc9b l       .data	00000000 I_add_cg_cmp_rd_rs1_b3_str
00003468 l       .text.rvtest	00000000 I_add_cg_cmp_rd_rs1_b4
0000dcce l       .data	00000000 I_add_cg_cmp_rd_rs1_b4_str
00003494 l       .text.rvtest	00000000 I_add_cg_cmp_rd_rs1_b5
0000dd01 l       .data	00000000 I_add_cg_cmp_rd_rs1_b5_str
000034c0 l       .text.rvtest	00000000 I_add_cg_cmp_rd_rs1_b6
0000dd34 l       .data	00000000 I_add_cg_cmp_rd_rs1_b6_str
000034ec l       .text.rvtest	00000000 I_add_cg_cmp_rd_rs1_b7
0000dd67 l       .data	00000000 I_add_cg_cmp_rd_rs1_b7_str
00003518 l       .text.rvtest	00000000 I_add_cg_cmp_rd_rs1_b8
0000dd9a l       .data	00000000 I_add_cg_cmp_rd_rs1_b8_str
00003544 l       .text.rvtest	00000000 I_add_cg_cmp_rd_rs1_b9
0000ddcd l       .data	00000000 I_add_cg_cmp_rd_rs1_b9_str
00003570 l       .text.rvtest	00000000 I_add_cg_cmp_rd_rs1_b10
0000de00 l       .data	00000000 I_add_cg_cmp_rd_rs1_b10_str
0000359c l       .text.rvtest	00000000 I_add_cg_cmp_rd_rs1_b11
0000de34 l       .data	00000000 I_add_cg_cmp_rd_rs1_b11_str
000035c8 l       .text.rvtest	00000000 I_add_cg_cmp_rd_rs1_b12
0000de68 l       .data	00000000 I_add_cg_cmp_rd_rs1_b12_str
000035fc l       .text.rvtest	00000000 I_add_cg_cmp_rd_rs1_b13
0000de9c l       .data	00000000 I_add_cg_cmp_rd_rs1_b13_str
00003628 l       .text.rvtest	00000000 I_add_cg_cmp_rd_rs1_b14
0000ded0 l       .data	00000000 I_add_cg_cmp_rd_rs1_b14_str
00003658 l       .text.rvtest	00000000 I_add_cg_cmp_rd_rs1_b15
0000df04 l       .data	00000000 I_add_cg_cmp_rd_rs1_b15_str
00003684 l       .text.rvtest	00000000 I_add_cg_cmp_rd_rs1_b16
0000df38 l       .data	00000000 I_add_cg_cmp_rd_rs1_b16_str
000036b0 l       .text.rvtest	00000000 I_add_cg_cmp_rd_rs1_b17
0000df6c l       .data	00000000 I_add_cg_cmp_rd_rs1_b17_str
000036dc l       .text.rvtest	00000000 I_add_cg_cmp_rd_rs1_b18
0000dfa0 l       .data	00000000 I_add_cg_cmp_rd_rs1_b18_str
00003708 l       .text.rvtest	00000000 I_add_cg_cmp_rd_rs1_b19
0000dfd4 l       .data	00000000 I_add_cg_cmp_rd_rs1_b19_str
00003734 l       .text.rvtest	00000000 I_add_cg_cmp_rd_rs1_b20
0000e008 l       .data	00000000 I_add_cg_cmp_rd_rs1_b20_str
00003764 l       .text.rvtest	00000000 I_add_cg_cmp_rd_rs1_b21
0000e03c l       .data	00000000 I_add_cg_cmp_rd_rs1_b21_str
00003790 l       .text.rvtest	00000000 I_add_cg_cmp_rd_rs1_b22
0000e070 l       .data	00000000 I_add_cg_cmp_rd_rs1_b22_str
000037bc l       .text.rvtest	00000000 I_add_cg_cmp_rd_rs1_b23
0000e0a4 l       .data	00000000 I_add_cg_cmp_rd_rs1_b23_str
000037e8 l       .text.rvtest	00000000 I_add_cg_cmp_rd_rs1_b24
0000e0d8 l       .data	00000000 I_add_cg_cmp_rd_rs1_b24_str
00003818 l       .text.rvtest	00000000 I_add_cg_cmp_rd_rs1_b25
0000e10c l       .data	00000000 I_add_cg_cmp_rd_rs1_b25_str
00003844 l       .text.rvtest	00000000 I_add_cg_cmp_rd_rs1_b26
0000e140 l       .data	00000000 I_add_cg_cmp_rd_rs1_b26_str
00003870 l       .text.rvtest	00000000 I_add_cg_cmp_rd_rs1_b27
0000e174 l       .data	00000000 I_add_cg_cmp_rd_rs1_b27_str
0000389c l       .text.rvtest	00000000 I_add_cg_cmp_rd_rs1_b28
0000e1a8 l       .data	00000000 I_add_cg_cmp_rd_rs1_b28_str
000038c8 l       .text.rvtest	00000000 I_add_cg_cmp_rd_rs1_b29
0000e1dc l       .data	00000000 I_add_cg_cmp_rd_rs1_b29_str
000038f4 l       .text.rvtest	00000000 I_add_cg_cmp_rd_rs1_b30
0000e210 l       .data	00000000 I_add_cg_cmp_rd_rs1_b30_str
00003920 l       .text.rvtest	00000000 I_add_cg_cmp_rd_rs1_b31
0000e244 l       .data	00000000 I_add_cg_cmp_rd_rs1_b31_str
0000394c l       .text.rvtest	00000000 I_add_cg_cmp_rd_rs2_b0
0000e278 l       .data	00000000 I_add_cg_cmp_rd_rs2_b0_str
00003978 l       .text.rvtest	00000000 I_add_cg_cmp_rd_rs2_b1
0000e2ab l       .data	00000000 I_add_cg_cmp_rd_rs2_b1_str
000039a4 l       .text.rvtest	00000000 I_add_cg_cmp_rd_rs2_b2
0000e2de l       .data	00000000 I_add_cg_cmp_rd_rs2_b2_str
000039d0 l       .text.rvtest	00000000 I_add_cg_cmp_rd_rs2_b3
0000e311 l       .data	00000000 I_add_cg_cmp_rd_rs2_b3_str
000039fc l       .text.rvtest	00000000 I_add_cg_cmp_rd_rs2_b4
0000e344 l       .data	00000000 I_add_cg_cmp_rd_rs2_b4_str
00003a28 l       .text.rvtest	00000000 I_add_cg_cmp_rd_rs2_b5
0000e377 l       .data	00000000 I_add_cg_cmp_rd_rs2_b5_str
00003a54 l       .text.rvtest	00000000 I_add_cg_cmp_rd_rs2_b6
0000e3aa l       .data	00000000 I_add_cg_cmp_rd_rs2_b6_str
00003a88 l       .text.rvtest	00000000 I_add_cg_cmp_rd_rs2_b7
0000e3dd l       .data	00000000 I_add_cg_cmp_rd_rs2_b7_str
00003ab4 l       .text.rvtest	00000000 I_add_cg_cmp_rd_rs2_b8
0000e410 l       .data	00000000 I_add_cg_cmp_rd_rs2_b8_str
00003ae4 l       .text.rvtest	00000000 I_add_cg_cmp_rd_rs2_b9
0000e443 l       .data	00000000 I_add_cg_cmp_rd_rs2_b9_str
00003b10 l       .text.rvtest	00000000 I_add_cg_cmp_rd_rs2_b10
0000e476 l       .data	00000000 I_add_cg_cmp_rd_rs2_b10_str
00003b3c l       .text.rvtest	00000000 I_add_cg_cmp_rd_rs2_b11
0000e4aa l       .data	00000000 I_add_cg_cmp_rd_rs2_b11_str
00003b68 l       .text.rvtest	00000000 I_add_cg_cmp_rd_rs2_b12
0000e4de l       .data	00000000 I_add_cg_cmp_rd_rs2_b12_str
00003b9c l       .text.rvtest	00000000 I_add_cg_cmp_rd_rs2_b13
0000e512 l       .data	00000000 I_add_cg_cmp_rd_rs2_b13_str
00003bc8 l       .text.rvtest	00000000 I_add_cg_cmp_rd_rs2_b14
0000e546 l       .data	00000000 I_add_cg_cmp_rd_rs2_b14_str
00003bf4 l       .text.rvtest	00000000 I_add_cg_cmp_rd_rs2_b15
0000e57a l       .data	00000000 I_add_cg_cmp_rd_rs2_b15_str
00003c20 l       .text.rvtest	00000000 I_add_cg_cmp_rd_rs2_b16
0000e5ae l       .data	00000000 I_add_cg_cmp_rd_rs2_b16_str
00003c4c l       .text.rvtest	00000000 I_add_cg_cmp_rd_rs2_b17
0000e5e2 l       .data	00000000 I_add_cg_cmp_rd_rs2_b17_str
00003c78 l       .text.rvtest	00000000 I_add_cg_cmp_rd_rs2_b18
0000e616 l       .data	00000000 I_add_cg_cmp_rd_rs2_b18_str
00003ca4 l       .text.rvtest	00000000 I_add_cg_cmp_rd_rs2_b19
0000e64a l       .data	00000000 I_add_cg_cmp_rd_rs2_b19_str
00003cd4 l       .text.rvtest	00000000 I_add_cg_cmp_rd_rs2_b20
0000e67e l       .data	00000000 I_add_cg_cmp_rd_rs2_b20_str
00003d00 l       .text.rvtest	00000000 I_add_cg_cmp_rd_rs2_b21
0000e6b2 l       .data	00000000 I_add_cg_cmp_rd_rs2_b21_str
00003d2c l       .text.rvtest	00000000 I_add_cg_cmp_rd_rs2_b22
0000e6e6 l       .data	00000000 I_add_cg_cmp_rd_rs2_b22_str
00003d58 l       .text.rvtest	00000000 I_add_cg_cmp_rd_rs2_b23
0000e71a l       .data	00000000 I_add_cg_cmp_rd_rs2_b23_str
00003d84 l       .text.rvtest	00000000 I_add_cg_cmp_rd_rs2_b24
0000e74e l       .data	00000000 I_add_cg_cmp_rd_rs2_b24_str
00003db0 l       .text.rvtest	00000000 I_add_cg_cmp_rd_rs2_b25
0000e782 l       .data	00000000 I_add_cg_cmp_rd_rs2_b25_str
00003ddc l       .text.rvtest	00000000 I_add_cg_cmp_rd_rs2_b26
0000e7b6 l       .data	00000000 I_add_cg_cmp_rd_rs2_b26_str
00003e08 l       .text.rvtest	00000000 I_add_cg_cmp_rd_rs2_b27
0000e7ea l       .data	00000000 I_add_cg_cmp_rd_rs2_b27_str
00003e38 l       .text.rvtest	00000000 I_add_cg_cmp_rd_rs2_b28
0000e81e l       .data	00000000 I_add_cg_cmp_rd_rs2_b28_str
00003e64 l       .text.rvtest	00000000 I_add_cg_cmp_rd_rs2_b29
0000e852 l       .data	00000000 I_add_cg_cmp_rd_rs2_b29_str
00003e90 l       .text.rvtest	00000000 I_add_cg_cmp_rd_rs2_b30
0000e886 l       .data	00000000 I_add_cg_cmp_rd_rs2_b30_str
00003ebc l       .text.rvtest	00000000 I_add_cg_cmp_rd_rs2_b31
0000e8ba l       .data	00000000 I_add_cg_cmp_rd_rs2_b31_str
00003ee8 l       .text.rvtest	00000000 I_add_cg_cmp_rd_rs1_rs2_b0
0000e8ee l       .data	00000000 I_add_cg_cmp_rd_rs1_rs2_b0_str
00003f14 l       .text.rvtest	00000000 I_add_cg_cmp_rd_rs1_rs2_b1
0000e925 l       .data	00000000 I_add_cg_cmp_rd_rs1_rs2_b1_str
00003f40 l       .text.rvtest	00000000 I_add_cg_cmp_rd_rs1_rs2_b2
0000e95c l       .data	00000000 I_add_cg_cmp_rd_rs1_rs2_b2_str
00003f6c l       .text.rvtest	00000000 I_add_cg_cmp_rd_rs1_rs2_b3
0000e993 l       .data	00000000 I_add_cg_cmp_rd_rs1_rs2_b3_str
00003fa0 l       .text.rvtest	00000000 I_add_cg_cmp_rd_rs1_rs2_b4
0000e9ca l       .data	00000000 I_add_cg_cmp_rd_rs1_rs2_b4_str
00003fcc l       .text.rvtest	00000000 I_add_cg_cmp_rd_rs1_rs2_b5
0000ea01 l       .data	00000000 I_add_cg_cmp_rd_rs1_rs2_b5_str
00003ff8 l       .text.rvtest	00000000 I_add_cg_cmp_rd_rs1_rs2_b6
0000ea38 l       .data	00000000 I_add_cg_cmp_rd_rs1_rs2_b6_str
00004024 l       .text.rvtest	00000000 I_add_cg_cmp_rd_rs1_rs2_b7
0000ea6f l       .data	00000000 I_add_cg_cmp_rd_rs1_rs2_b7_str
00004050 l       .text.rvtest	00000000 I_add_cg_cmp_rd_rs1_rs2_b8
0000eaa6 l       .data	00000000 I_add_cg_cmp_rd_rs1_rs2_b8_str
0000407c l       .text.rvtest	00000000 I_add_cg_cmp_rd_rs1_rs2_b9
0000eadd l       .data	00000000 I_add_cg_cmp_rd_rs1_rs2_b9_str
000040a8 l       .text.rvtest	00000000 I_add_cg_cmp_rd_rs1_rs2_b10
0000eb14 l       .data	00000000 I_add_cg_cmp_rd_rs1_rs2_b10_str
000040d4 l       .text.rvtest	00000000 I_add_cg_cmp_rd_rs1_rs2_b11
0000eb4c l       .data	00000000 I_add_cg_cmp_rd_rs1_rs2_b11_str
00004104 l       .text.rvtest	00000000 I_add_cg_cmp_rd_rs1_rs2_b12
0000eb84 l       .data	00000000 I_add_cg_cmp_rd_rs1_rs2_b12_str
00004138 l       .text.rvtest	00000000 I_add_cg_cmp_rd_rs1_rs2_b13
0000ebbc l       .data	00000000 I_add_cg_cmp_rd_rs1_rs2_b13_str
00004164 l       .text.rvtest	00000000 I_add_cg_cmp_rd_rs1_rs2_b14
0000ebf4 l       .data	00000000 I_add_cg_cmp_rd_rs1_rs2_b14_str
00004190 l       .text.rvtest	00000000 I_add_cg_cmp_rd_rs1_rs2_b15
0000ec2c l       .data	00000000 I_add_cg_cmp_rd_rs1_rs2_b15_str
000041bc l       .text.rvtest	00000000 I_add_cg_cmp_rd_rs1_rs2_b16
0000ec64 l       .data	00000000 I_add_cg_cmp_rd_rs1_rs2_b16_str
000041e8 l       .text.rvtest	00000000 I_add_cg_cmp_rd_rs1_rs2_b17
0000ec9c l       .data	00000000 I_add_cg_cmp_rd_rs1_rs2_b17_str
00004214 l       .text.rvtest	00000000 I_add_cg_cmp_rd_rs1_rs2_b18
0000ecd4 l       .data	00000000 I_add_cg_cmp_rd_rs1_rs2_b18_str
00004244 l       .text.rvtest	00000000 I_add_cg_cmp_rd_rs1_rs2_b19
0000ed0c l       .data	00000000 I_add_cg_cmp_rd_rs1_rs2_b19_str
00004270 l       .text.rvtest	00000000 I_add_cg_cmp_rd_rs1_rs2_b20
0000ed44 l       .data	00000000 I_add_cg_cmp_rd_rs1_rs2_b20_str
0000429c l       .text.rvtest	00000000 I_add_cg_cmp_rd_rs1_rs2_b21
0000ed7c l       .data	00000000 I_add_cg_cmp_rd_rs1_rs2_b21_str
000042c8 l       .text.rvtest	00000000 I_add_cg_cmp_rd_rs1_rs2_b22
0000edb4 l       .data	00000000 I_add_cg_cmp_rd_rs1_rs2_b22_str
000042f4 l       .text.rvtest	00000000 I_add_cg_cmp_rd_rs1_rs2_b23
0000edec l       .data	00000000 I_add_cg_cmp_rd_rs1_rs2_b23_str
00004320 l       .text.rvtest	00000000 I_add_cg_cmp_rd_rs1_rs2_b24
0000ee24 l       .data	00000000 I_add_cg_cmp_rd_rs1_rs2_b24_str
0000434c l       .text.rvtest	00000000 I_add_cg_cmp_rd_rs1_rs2_b25
0000ee5c l       .data	00000000 I_add_cg_cmp_rd_rs1_rs2_b25_str
00004378 l       .text.rvtest	00000000 I_add_cg_cmp_rd_rs1_rs2_b26
0000ee94 l       .data	00000000 I_add_cg_cmp_rd_rs1_rs2_b26_str
000043a4 l       .text.rvtest	00000000 I_add_cg_cmp_rd_rs1_rs2_b27
0000eecc l       .data	00000000 I_add_cg_cmp_rd_rs1_rs2_b27_str
000043d0 l       .text.rvtest	00000000 I_add_cg_cmp_rd_rs1_rs2_b28
0000ef04 l       .data	00000000 I_add_cg_cmp_rd_rs1_rs2_b28_str
000043fc l       .text.rvtest	00000000 I_add_cg_cmp_rd_rs1_rs2_b29
0000ef3c l       .data	00000000 I_add_cg_cmp_rd_rs1_rs2_b29_str
00004428 l       .text.rvtest	00000000 I_add_cg_cmp_rd_rs1_rs2_b30
0000ef74 l       .data	00000000 I_add_cg_cmp_rd_rs1_rs2_b30_str
00004454 l       .text.rvtest	00000000 I_add_cg_cmp_rd_rs1_rs2_b31
0000efac l       .data	00000000 I_add_cg_cmp_rd_rs1_rs2_b31_str
00004474 l       .text.rvtest	00000000 exit_cleanup
0000f654 l       .data	00000000 successstr
00020204 l       .text.rvmodel	00000000 rvmodel_io_write_str
00020208 l       .text.rvmodel	00000000 rvmodel_halt_pass
000044b0 l       .text.rvtest	00000000 abort_test
6f5ca309 l       *ABS*	00000000 immx
6f5ca309 l       *ABS*	00000000 absimm
00000000 l       *ABS*	00000000 cry
00000309 l       *ABS*	00000000 imm12
0000eff0 l       .data	00000000 begin_failure_scratch
00004580 l       .text.rvtest	00000000 failedtest_saveregs
00004524 l       .text.rvtest	00000000 failedtest_trap_x7_x9
0000f160 l       .data	00000000 saved_mcause
0000f168 l       .data	00000000 saved_mtval
0000f170 l       .data	00000000 saved_mstatus
000045f0 l       .text.rvtest	00000000 failedtest_saveresults
0000eff0 l       .data	00000000 failure_type
0000466c l       .text.rvtest	00000000 failedtest_saveresults_trap
00004600 l       .text.rvtest	00000000 failedtest_saveresults_int
00004a40 l       .text.rvtest	00000000 failedtest_saveresults_common
0000f148 l       .data	00000000 trap_diag_fail_str_ptr
0000f81a l       .data	00000000 trap_sig_offset_mismatch
00004920 l       .text.rvtest	00000000 trap_diag_offset_mismatch
0000f120 l       .data	00000000 trap_diag_subtype
0000f87e l       .data	00000000 sv_Mvect_str
000049a0 l       .text.rvtest	00000000 trap_diag_field_identified
0000f980 l       .data	00000000 sv_Mcause_str
0000fa7b l       .data	00000000 sv_Mepc_str
0000fb6e l       .data	00000000 sv_Mtval_str
0000fce1 l       .data	00000000 sv_Mip_str
0000fc65 l       .data	00000000 sv_Mtval2_str
0000fca3 l       .data	00000000 sv_Mtinst_str
0000f8be l       .data	00000000 sv_Svect_str
0000f9be l       .data	00000000 sv_Scause_str
0000fab7 l       .data	00000000 sv_Sepc_str
0000fbab l       .data	00000000 sv_Stval_str
0000fd1c l       .data	00000000 sv_Sip_str
0000f8fe l       .data	00000000 sv_Hvect_str
0000f9fc l       .data	00000000 sv_Hcause_str
0000faf3 l       .data	00000000 sv_Hepc_str
0000fbe8 l       .data	00000000 sv_Htval_str
0000fd57 l       .data	00000000 sv_Hip_str
0000f93f l       .data	00000000 sv_Vvect_str
0000fa3b l       .data	00000000 sv_Vcause_str
0000fb30 l       .data	00000000 sv_Vepc_str
0000fc26 l       .data	00000000 sv_Vtval_str
0000fd93 l       .data	00000000 sv_Vip_str
0000fdd0 l       .data	00000000 Mclr_Mext_int_str
0000fe1f l       .data	00000000 Mclr_Sext_int_str
0000ff1a l       .data	00000000 Sclr_Sext_int_str
00010016 l       .data	00000000 Hclr_Sext_int_str
00004a30 l       .text.rvtest	00000000 trap_diag_generic_report
0000f138 l       .data	00000000 trap_diag_actual_offset
0000f140 l       .data	00000000 trap_diag_expected_offset
0000f124 l       .data	00000000 trap_diag_mode
0000f128 l       .data	00000000 trap_diag_actual_value
0000f130 l       .data	00000000 trap_diag_expected_value
00004a70 l       .text.rvtest	00000000 failedtest_report
00004a70 l       .text.rvtest	00000000 print_failstr
0000f68a l       .data	00000000 failstr
00004aa8 l       .text.rvtest	00000000 print_testnamestr
0000f71d l       .data	00000000 testnamestr
00004ae8 l       .text.rvtest	00000000 print_failure_test_name_str
0000f110 l       .data	00000000 failure_string_ptr
00004af8 l       .text.rvtest	00000000 print_newline_str
0000f72f l       .data	00000000 newlinestr
00004f2c l       .text.rvtest	00000000 failedtest_report_trap_detailed
0000f731 l       .data	00000000 inststr
0000f0f0 l       .data	00000000 failing_instruction
00005e78 l       .text.rvtest	00000000 failedtest_hex_to_str
0000f178 l       .data	00000000 ascii_buffer
0000f745 l       .data	00000000 addrstr
0000f0f8 l       .data	00000000 failing_addr
000101c2 l       .data	00000000 regstr
00004cd8 l       .text.rvtest	00000000 failedtest_report_not_intreg
0000f0f4 l       .data	00000000 failing_reg
00005ef4 l       .text.rvtest	00000000 failedtest_dec_to_str
00004db4 l       .text.rvtest	00000000 failedtest_report_print_regstr
00004d2c l       .text.rvtest	00000000 failedtest_report_fpreg
00004d78 l       .text.rvtest	00000000 failedtest_report_vecreg
00010222 l       .data	00000000 fflagsstr
00004de8 l       .text.rvtest	00000000 failedtest_report_after_reg
000101d3 l       .data	00000000 badvalstr
00004e4c l       .text.rvtest	00000000 failedtest_report_badval_not_fp
0000f100 l       .data	00000000 failing_value
00004e5c l       .text.rvtest	00000000 failedtest_report_badval_done
000101ea l       .data	00000000 expvalstr
00004eec l       .text.rvtest	00000000 failedtest_report_expval_not_fp
0000f108 l       .data	00000000 expected_value
00004efc l       .text.rvtest	00000000 failedtest_report_expval_done
00005c24 l       .text.rvtest	00000000 failedtest_report_end
0001024e l       .data	00000000 trap_diag_header_str
0001027a l       .data	00000000 trap_diag_origstr_label
00005000 l       .text.rvtest	00000000 trap_report_offset_mismatch
00005ab0 l       .text.rvtest	00000000 trap_report_generic
00005374 l       .text.rvtest	00000000 trap_report_field_mismatch
0001028a l       .data	00000000 trap_diag_count_mismatch_str
000102eb l       .data	00000000 trap_diag_expected_offset_str
00010312 l       .data	00000000 trap_diag_actual_offset_str
00005254 l       .text.rvtest	00000000 trap_report_missing_traps
0000513c l       .text.rvtest	00000000 trap_report_extra_traps
00010339 l       .data	00000000 trap_diag_extra_traps_str
000103be l       .data	00000000 trap_diag_extra_bytes_str
000103e9 l       .data	00000000 trap_diag_extra_hint_str
00005c70 l       .text.rvtest	00000000 failedtest_print_csr_context
00010373 l       .data	00000000 trap_diag_missing_traps_str
000104d1 l       .data	00000000 trap_diag_missing_hint_str
000105b8 l       .data	00000000 trap_diag_handler_mode_str
00005404 l       .text.rvtest	00000000 trap_mode_m
00005444 l       .text.rvtest	00000000 trap_mode_s
00005484 l       .text.rvtest	00000000 trap_mode_h
000054c4 l       .text.rvtest	00000000 trap_mode_v
000105f4 l       .data	00000000 trap_diag_mode_unknown_str
00005500 l       .text.rvtest	00000000 trap_mode_print
000105d2 l       .data	00000000 trap_diag_mode_m_str
000105da l       .data	00000000 trap_diag_mode_s_str
000105e2 l       .data	00000000 trap_diag_mode_hs_str
000105eb l       .data	00000000 trap_diag_mode_vs_str
000105fd l       .data	00000000 trap_diag_field_str
000055c4 l       .text.rvtest	00000000 trap_field_vect
00005604 l       .text.rvtest	00000000 trap_field_cause
00005644 l       .text.rvtest	00000000 trap_field_epc
00005684 l       .text.rvtest	00000000 trap_field_tval
000056c4 l       .text.rvtest	00000000 trap_field_ip
00005704 l       .text.rvtest	00000000 trap_field_tval2
00005744 l       .text.rvtest	00000000 trap_field_tinst
00005784 l       .text.rvtest	00000000 trap_field_intid
00010754 l       .data	00000000 trap_diag_field_unknown_str
000057c0 l       .text.rvtest	00000000 trap_field_print
00010617 l       .data	00000000 trap_diag_field_vect_str
00010648 l       .data	00000000 trap_diag_field_cause_str
00010668 l       .data	00000000 trap_diag_field_epc_str
00010686 l       .data	00000000 trap_diag_field_tval_str
000106a5 l       .data	00000000 trap_diag_field_ip_str
000106cd l       .data	00000000 trap_diag_field_tval2_str
000106f9 l       .data	00000000 trap_diag_field_tinst_str
00010725 l       .data	00000000 trap_diag_field_intid_str
00010763 l       .data	00000000 trap_diag_expected_str
0001077a l       .data	00000000 trap_diag_actual_str
0000595c l       .text.rvtest	00000000 trap_field_not_cause
00010791 l       .data	00000000 trap_diag_expected_cause_name_str
00005b94 l       .text.rvtest	00000000 trap_cause_to_str
000107a8 l       .data	00000000 trap_diag_actual_cause_name_str
0000595c l       .text.rvtest	00000000 trap_field_not_epc
0001081e l       .data	00000000 trap_diag_hint_vect_str
000108f4 l       .data	00000000 trap_diag_hint_cause_str
000109e7 l       .data	00000000 trap_diag_hint_epc_str
00010ae2 l       .data	00000000 trap_diag_hint_tval_str
00010bc9 l       .data	00000000 trap_diag_hint_ip_str
000107d6 l       .data	00000000 trap_diag_generic_str
0000f158 l       .data	00000000 saved_mepc
0000f7b9 l       .data	00000000 xepcinstrstr
00005bb8 l       .text.rvtest	00000000 trap_cause_interrupt
00005b98 l       .text.rvtest	00000000 trap_cause_exception
00005be4 l       .text.rvtest	00000000 trap_cause_unknown
0000f1a0 l       .data	00000000 trap_excpt_name_tbl
0000f200 l       .data	00000000 trap_int_name_tbl
0000f63e l       .data	00000000 trap_cause_unknown_str
00010201 l       .data	00000000 endstr
00005c68 l       .text.rvtest	00000000 failedtest_terminate
00020214 l       .text.rvmodel	00000000 rvmodel_halt_fail
0000f150 l       .data	00000000 csr_context_ret_addr
0000f7da l       .data	00000000 mepcstr
0000f7ea l       .data	00000000 mcausestr
0000f7fa l       .data	00000000 mtvalstr
0000f80a l       .data	00000000 mstatusstr
00005eb8 l       .text.rvtest	00000000 failedtest_hex_to_str_loop
00005ed4 l       .text.rvtest	00000000 failedtest_hex_to_str_digit
00005ed8 l       .text.rvtest	00000000 failedtest_hex_to_str_write
00020000 l       .text.rvmodel	00000000 rvtest_boot_to_mmode
00020000 l       .text.rvmodel	00000000 rvtest_init_regs
00010cb0 l       .data	00000000 signature_base
000201a0 l       .text.rvmodel	00000000 canary_check
0001022a l       .data	00000000 canary_mismatch
00008000 l       .data	00000000 scratch
0000f1a0 l       .data	00000000 end_failure_scratch
0000f240 l       .data	00000000 trap_excpt_name_0
0000f260 l       .data	00000000 trap_excpt_name_1
0000f27a l       .data	00000000 trap_excpt_name_2
0000f28f l       .data	00000000 trap_excpt_name_3
0000f29b l       .data	00000000 trap_excpt_name_4
0000f2b4 l       .data	00000000 trap_excpt_name_5
0000f2c7 l       .data	00000000 trap_excpt_name_6
0000f2e5 l       .data	00000000 trap_excpt_name_7
0000f2fd l       .data	00000000 trap_excpt_name_8
0000f31b l       .data	00000000 trap_excpt_name_9
0000f339 l       .data	00000000 trap_excpt_name_10
0000f358 l       .data	00000000 trap_excpt_name_11
0000f376 l       .data	00000000 trap_excpt_name_12
0000f38e l       .data	00000000 trap_excpt_name_13
0000f39f l       .data	00000000 trap_excpt_name_14
0000f3ae l       .data	00000000 trap_excpt_name_15
0000f3c4 l       .data	00000000 trap_excpt_name_16
0000f3d1 l       .data	00000000 trap_excpt_name_17
0000f3e0 l       .data	00000000 trap_excpt_name_18
0000f3f0 l       .data	00000000 trap_excpt_name_19
0000f400 l       .data	00000000 trap_excpt_name_20
0000f41e l       .data	00000000 trap_excpt_name_21
0000f435 l       .data	00000000 trap_excpt_name_22
0000f44a l       .data	00000000 trap_excpt_name_23
0000f466 l       .data	00000000 trap_int_name_0
0000f47e l       .data	00000000 trap_int_name_1
0000f49d l       .data	00000000 trap_int_name_2
0000f4c4 l       .data	00000000 trap_int_name_3
0000f4e0 l       .data	00000000 trap_int_name_4
0000f4f8 l       .data	00000000 trap_int_name_5
0000f514 l       .data	00000000 trap_int_name_6
0000f538 l       .data	00000000 trap_int_name_7
0000f551 l       .data	00000000 trap_int_name_8
0000f569 l       .data	00000000 trap_int_name_9
0000f588 l       .data	00000000 trap_int_name_10
0000f5af l       .data	00000000 trap_int_name_11
0000f5cb l       .data	00000000 trap_int_name_12
0000f5f0 l       .data	00000000 trap_int_name_13
0000f60c l       .data	00000000 trap_int_name_14
0000f625 l       .data	00000000 trap_int_name_15
0000f6df l       .data	00000000 abortstr
0000f786 l       .data	00000000 xepcstr
0000fe71 l       .data	00000000 Mclr_Vext_int_str
0000fecb l       .data	00000000 Sclr_Mext_int_str
0000ff6c l       .data	00000000 Sclr_Vext_int_str
0000ffc6 l       .data	00000000 Hclr_Mext_int_str
00010069 l       .data	00000000 Hclr_Vext_int_str
000100c4 l       .data	00000000 Vclr_Mext_int_str
00010114 l       .data	00000000 Vclr_Sext_int_str
00010167 l       .data	00000000 Vclr_Vext_int_str
000107bf l       .data	00000000 trap_diag_curr_xepc_str
00011300 l       .data	00000000 trap_sigptr
0001fd70 g       .data	00000000 end_signature
0001fd70 g       .data	00000000 rvtest_sig_end
00000000 g       .text.init	00000000 rvtest_entry_point
00010cb0 g       .data	00000000 begin_signature
00004474 g       .text.rvtest	00000000 rvtest_code_end
00000040 g       .text.rvtest	00000000 rvtest_code_begin
00010cb0 g       .data	00000000 rvtest_sig_begin
00008110 g       .data	00000000 rvtest_data_begin
00010cae g       .data	00000000 rvtest_data_end
00004474 g       .text.rvtest	00000000 cleanup_epilogs
00021000 g       .text.rvmodel	00000000 _end



Disassembly of section .text.init:

00000000 <rvtest_entry_point>:

// Include framework macros
#include "riscv_arch_test.h"

// Set up test environment and declare main entry point
RVTEST_BEGIN
   0:	00020097          	auipc	x1,0x20
   4:	00008093          	addi	x1,x1,0 # 20000 <rvmodel_boot>
   8:	00000013          	addi	x0,x0,0
   c:	00000013          	addi	x0,x0,0
  10:	00000013          	addi	x0,x0,0
  14:	00000013          	addi	x0,x0,0
  18:	00000013          	addi	x0,x0,0
  1c:	00000013          	addi	x0,x0,0
  20:	000080e7          	jalr	x1,0(x1)
  24:	00000013          	addi	x0,x0,0
  28:	00000013          	addi	x0,x0,0
  2c:	00000013          	addi	x0,x0,0
  30:	00000013          	addi	x0,x0,0
  34:	00000013          	addi	x0,x0,0
  38:	00000013          	addi	x0,x0,0
  3c:	00000013          	addi	x0,x0,0

Disassembly of section .text.rvtest:

00000040 <rvtest_code_begin>:
/////////////////////////////////
// cp_rs1
/////////////////////////////////

# Testcase cp_rs1 (Test source rs1 = x0)
  RVTEST_TESTDATA_LOAD_INT(x3, x0) # load rs1: x0 = 0xed199c2a
      40:	0001a003          	lw	x0,0(x3)
      44:	00418193          	addi	x3,x3,4
  RVTEST_TESTDATA_LOAD_INT(x3, x29) # load rs2: x29 = 0x3d120729
      48:	0001ae83          	lw	x29,0(x3)
      4c:	00418193          	addi	x3,x3,4

00000050 <I_add_cg_cp_rs1_b0>:
I_add_cg_cp_rs1_b0:
  add x28, x0, x29 # perform operation
      50:	01d00e33          	add	x28,x0,x29
  # Check if x28 contains the expected result. x2 is the signature ptr, x5 is the link ptr, x4 is a temp reg.
  RVTEST_SIGUPD(x2, x5, x4, x28, I_add_cg_cp_rs1_b0, I_add_cg_cp_rs1_b0_str)
      54:	00012203          	lw	x4,0(x2)
      58:	01c20863          	beq	x4,x28,68 <I_add_cg_cp_rs1_b0+0x18>
      5c:	460042ef          	jal	x5,44bc <failedtest_x5_x4>
      60:	00000050          	.word	0x00000050
      64:	00008d50          	.word	0x00008d50
      68:	00410113          	addi	x2,x2,4

# Testcase cp_rs1 (Test source rs1 = x1)
  RVTEST_TESTDATA_LOAD_INT(x3, x1) # load rs1: x1 = 0xf95ba545
      6c:	0001a083          	lw	x1,0(x3)
      70:	00418193          	addi	x3,x3,4
  RVTEST_TESTDATA_LOAD_INT(x3, x10) # load rs2: x10 = 0x1f8b4c83
      74:	0001a503          	lw	x10,0(x3)
      78:	00418193          	addi	x3,x3,4

0000007c <I_add_cg_cp_rs1_b1>:
I_add_cg_cp_rs1_b1:
  add x25, x1, x10 # perform operation
      7c:	00a08cb3          	add	x25,x1,x10
  # Check if x25 contains the expected result. x2 is the signature ptr, x5 is the link ptr, x4 is a temp reg.
  RVTEST_SIGUPD(x2, x5, x4, x25, I_add_cg_cp_rs1_b1, I_add_cg_cp_rs1_b1_str)
      80:	00012203          	lw	x4,0(x2)
      84:	01920863          	beq	x4,x25,94 <I_add_cg_cp_rs1_b1+0x18>
      88:	434042ef          	jal	x5,44bc <failedtest_x5_x4>
      8c:	0000007c          	.word	0x0000007c
      90:	00008d7d          	.word	0x00008d7d
      94:	00410113          	addi	x2,x2,4

  mv x30, x2 # switch signature pointer register to avoid conflict with test
      98:	00010f13          	addi	x30,x2,0
# Testcase cp_rs1 (Test source rs1 = x2)
  RVTEST_TESTDATA_LOAD_INT(x3, x2) # load rs1: x2 = 0x117cfa69
      9c:	0001a103          	lw	x2,0(x3)
      a0:	00418193          	addi	x3,x3,4
  RVTEST_TESTDATA_LOAD_INT(x3, x9) # load rs2: x9 = 0x6b5ec0b1
      a4:	0001a483          	lw	x9,0(x3)
      a8:	00418193          	addi	x3,x3,4

000000ac <I_add_cg_cp_rs1_b2>:
I_add_cg_cp_rs1_b2:
  add x26, x2, x9 # perform operation
      ac:	00910d33          	add	x26,x2,x9
  # Check if x26 contains the expected result. x30 is the signature ptr, x5 is the link ptr, x4 is a temp reg.
  RVTEST_SIGUPD(x30, x5, x4, x26, I_add_cg_cp_rs1_b2, I_add_cg_cp_rs1_b2_str)
      b0:	000f2203          	lw	x4,0(x30)
      b4:	01a20863          	beq	x4,x26,c4 <I_add_cg_cp_rs1_b2+0x18>
      b8:	404042ef          	jal	x5,44bc <failedtest_x5_x4>
      bc:	000000ac          	.word	0x000000ac
      c0:	00008daa          	.word	0x00008daa
      c4:	004f0f13          	addi	x30,x30,4

  mv x11, x3 # switch data pointer register to avoid conflict with test
      c8:	00018593          	addi	x11,x3,0
# Testcase cp_rs1 (Test source rs1 = x3)
  RVTEST_TESTDATA_LOAD_INT(x11, x3) # load rs1: x3 = 0xeec5c7fc
      cc:	0005a183          	lw	x3,0(x11)
      d0:	00458593          	addi	x11,x11,4
  RVTEST_TESTDATA_LOAD_INT(x11, x21) # load rs2: x21 = 0xd8483d27
      d4:	0005aa83          	lw	x21,0(x11)
      d8:	00458593          	addi	x11,x11,4

000000dc <I_add_cg_cp_rs1_b3>:
I_add_cg_cp_rs1_b3:
  add x25, x3, x21 # perform operation
      dc:	01518cb3          	add	x25,x3,x21
  # Check if x25 contains the expected result. x30 is the signature ptr, x5 is the link ptr, x4 is a temp reg.
  RVTEST_SIGUPD(x30, x5, x4, x25, I_add_cg_cp_rs1_b3, I_add_cg_cp_rs1_b3_str)
      e0:	000f2203          	lw	x4,0(x30)
      e4:	01920863          	beq	x4,x25,f4 <I_add_cg_cp_rs1_b3+0x18>
      e8:	3d4042ef          	jal	x5,44bc <failedtest_x5_x4>
      ec:	000000dc          	.word	0x000000dc
      f0:	00008dd7          	.word	0x00008dd7
      f4:	004f0f13          	addi	x30,x30,4

  mv x13, x4 # switch temp register to avoid conflict with test
      f8:	00020693          	addi	x13,x4,0 # 0 <rvtest_entry_point>
  mv x14, x5 # switch link pointer register to avoid conflict with test
      fc:	00028713          	addi	x14,x5,0
# Testcase cp_rs1 (Test source rs1 = x4)
  RVTEST_TESTDATA_LOAD_INT(x11, x4) # load rs1: x4 = 0xe637281b
     100:	0005a203          	lw	x4,0(x11)
     104:	00458593          	addi	x11,x11,4
  RVTEST_TESTDATA_LOAD_INT(x11, x9) # load rs2: x9 = 0xf420cbf4
     108:	0005a483          	lw	x9,0(x11)
     10c:	00458593          	addi	x11,x11,4

00000110 <I_add_cg_cp_rs1_b4>:
I_add_cg_cp_rs1_b4:
  add x16, x4, x9 # perform operation
     110:	00920833          	add	x16,x4,x9
  # Check if x16 contains the expected result. x30 is the signature ptr, x14 is the link ptr, x13 is a temp reg.
  RVTEST_SIGUPD(x30, x14, x13, x16, I_add_cg_cp_rs1_b4, I_add_cg_cp_rs1_b4_str)
     114:	000f2683          	lw	x13,0(x30)
     118:	01068863          	beq	x13,x16,128 <I_add_cg_cp_rs1_b4+0x18>
     11c:	3e00476f          	jal	x14,44fc <failedtest_x14_x13>
     120:	00000110          	.word	0x00000110
     124:	00008e04          	.word	0x00008e04
     128:	004f0f13          	addi	x30,x30,4

# Testcase cp_rs1 (Test source rs1 = x5)
  RVTEST_TESTDATA_LOAD_INT(x11, x5) # load rs1: x5 = 0x26a21865
     12c:	0005a283          	lw	x5,0(x11)
     130:	00458593          	addi	x11,x11,4
  RVTEST_TESTDATA_LOAD_INT(x11, x25) # load rs2: x25 = 0x5d018fe6
     134:	0005ac83          	lw	x25,0(x11)
     138:	00458593          	addi	x11,x11,4

0000013c <I_add_cg_cp_rs1_b5>:
I_add_cg_cp_rs1_b5:
  add x27, x5, x25 # perform operation
     13c:	01928db3          	add	x27,x5,x25
  # Check if x27 contains the expected result. x30 is the signature ptr, x14 is the link ptr, x13 is a temp reg.
  RVTEST_SIGUPD(x30, x14, x13, x27, I_add_cg_cp_rs1_b5, I_add_cg_cp_rs1_b5_str)
     140:	000f2683          	lw	x13,0(x30)
     144:	01b68863          	beq	x13,x27,154 <I_add_cg_cp_rs1_b5+0x18>
     148:	3b40476f          	jal	x14,44fc <failedtest_x14_x13>
     14c:	0000013c          	.word	0x0000013c
     150:	00008e31          	.word	0x00008e31
     154:	004f0f13          	addi	x30,x30,4

# Testcase cp_rs1 (Test source rs1 = x6)
  RVTEST_TESTDATA_LOAD_INT(x11, x6) # load rs1: x6 = 0xf8934f2d
     158:	0005a303          	lw	x6,0(x11)
     15c:	00458593          	addi	x11,x11,4
  RVTEST_TESTDATA_LOAD_INT(x11, x29) # load rs2: x29 = 0x876240f5
     160:	0005ae83          	lw	x29,0(x11)
     164:	00458593          	addi	x11,x11,4

00000168 <I_add_cg_cp_rs1_b6>:
I_add_cg_cp_rs1_b6:
  add x0, x6, x29 # perform operation
     168:	01d30033          	add	x0,x6,x29
  # Check if x0 contains the expected result. x30 is the signature ptr, x14 is the link ptr, x13 is a temp reg.
  RVTEST_SIGUPD(x30, x14, x13, x0, I_add_cg_cp_rs1_b6, I_add_cg_cp_rs1_b6_str)
     16c:	000f2683          	lw	x13,0(x30)
     170:	00068863          	beq	x13,x0,180 <I_add_cg_cp_rs1_b6+0x18>
     174:	3880476f          	jal	x14,44fc <failedtest_x14_x13>
     178:	00000168          	.word	0x00000168
     17c:	00008e5e          	.word	0x00008e5e
     180:	004f0f13          	addi	x30,x30,4

# Testcase cp_rs1 (Test source rs1 = x7)
  RVTEST_TESTDATA_LOAD_INT(x11, x7) # load rs1: x7 = 0xba52de6d
     184:	0005a383          	lw	x7,0(x11)
     188:	00458593          	addi	x11,x11,4
  RVTEST_TESTDATA_LOAD_INT(x11, x26) # load rs2: x26 = 0x2d5aee8b
     18c:	0005ad03          	lw	x26,0(x11)
     190:	00458593          	addi	x11,x11,4

00000194 <I_add_cg_cp_rs1_b7>:
I_add_cg_cp_rs1_b7:
  add x15, x7, x26 # perform operation
     194:	01a387b3          	add	x15,x7,x26
  # Check if x15 contains the expected result. x30 is the signature ptr, x14 is the link ptr, x13 is a temp reg.
  RVTEST_SIGUPD(x30, x14, x13, x15, I_add_cg_cp_rs1_b7, I_add_cg_cp_rs1_b7_str)
     198:	000f2683          	lw	x13,0(x30)
     19c:	00f68863          	beq	x13,x15,1ac <I_add_cg_cp_rs1_b7+0x18>
     1a0:	35c0476f          	jal	x14,44fc <failedtest_x14_x13>
     1a4:	00000194          	.word	0x00000194
     1a8:	00008e8b          	.word	0x00008e8b
     1ac:	004f0f13          	addi	x30,x30,4

# Testcase cp_rs1 (Test source rs1 = x8)
  RVTEST_TESTDATA_LOAD_INT(x11, x8) # load rs1: x8 = 0x1856a7fa
     1b0:	0005a403          	lw	x8,0(x11)
     1b4:	00458593          	addi	x11,x11,4
  RVTEST_TESTDATA_LOAD_INT(x11, x26) # load rs2: x26 = 0xd420d633
     1b8:	0005ad03          	lw	x26,0(x11)
     1bc:	00458593          	addi	x11,x11,4

000001c0 <I_add_cg_cp_rs1_b8>:
I_add_cg_cp_rs1_b8:
  add x25, x8, x26 # perform operation
     1c0:	01a40cb3          	add	x25,x8,x26
  # Check if x25 contains the expected result. x30 is the signature ptr, x14 is the link ptr, x13 is a temp reg.
  RVTEST_SIGUPD(x30, x14, x13, x25, I_add_cg_cp_rs1_b8, I_add_cg_cp_rs1_b8_str)
     1c4:	000f2683          	lw	x13,0(x30)
     1c8:	01968863          	beq	x13,x25,1d8 <I_add_cg_cp_rs1_b8+0x18>
     1cc:	3300476f          	jal	x14,44fc <failedtest_x14_x13>
     1d0:	000001c0          	.word	0x000001c0
     1d4:	00008eb8          	.word	0x00008eb8
     1d8:	004f0f13          	addi	x30,x30,4

# Testcase cp_rs1 (Test source rs1 = x9)
  RVTEST_TESTDATA_LOAD_INT(x11, x9) # load rs1: x9 = 0xb57e79ab
     1dc:	0005a483          	lw	x9,0(x11)
     1e0:	00458593          	addi	x11,x11,4
  RVTEST_TESTDATA_LOAD_INT(x11, x5) # load rs2: x5 = 0xb45312c3
     1e4:	0005a283          	lw	x5,0(x11)
     1e8:	00458593          	addi	x11,x11,4

000001ec <I_add_cg_cp_rs1_b9>:
I_add_cg_cp_rs1_b9:
  add x3, x9, x5 # perform operation
     1ec:	005481b3          	add	x3,x9,x5
  # Check if x3 contains the expected result. x30 is the signature ptr, x14 is the link ptr, x13 is a temp reg.
  RVTEST_SIGUPD(x30, x14, x13, x3, I_add_cg_cp_rs1_b9, I_add_cg_cp_rs1_b9_str)
     1f0:	000f2683          	lw	x13,0(x30)
     1f4:	00368863          	beq	x13,x3,204 <I_add_cg_cp_rs1_b9+0x18>
     1f8:	3040476f          	jal	x14,44fc <failedtest_x14_x13>
     1fc:	000001ec          	.word	0x000001ec
     200:	00008ee5          	.word	0x00008ee5
     204:	004f0f13          	addi	x30,x30,4

# Testcase cp_rs1 (Test source rs1 = x10)
  RVTEST_TESTDATA_LOAD_INT(x11, x10) # load rs1: x10 = 0x802e5cbe
     208:	0005a503          	lw	x10,0(x11)
     20c:	00458593          	addi	x11,x11,4
  RVTEST_TESTDATA_LOAD_INT(x11, x31) # load rs2: x31 = 0x0f865f5c
     210:	0005af83          	lw	x31,0(x11)
     214:	00458593          	addi	x11,x11,4

00000218 <I_add_cg_cp_rs1_b10>:
I_add_cg_cp_rs1_b10:
  add x26, x10, x31 # perform operation
     218:	01f50d33          	add	x26,x10,x31
  # Check if x26 contains the expected result. x30 is the signature ptr, x14 is the link ptr, x13 is a temp reg.
  RVTEST_SIGUPD(x30, x14, x13, x26, I_add_cg_cp_rs1_b10, I_add_cg_cp_rs1_b10_str)
     21c:	000f2683          	lw	x13,0(x30)
     220:	01a68863          	beq	x13,x26,230 <I_add_cg_cp_rs1_b10+0x18>
     224:	2d80476f          	jal	x14,44fc <failedtest_x14_x13>
     228:	00000218          	.word	0x00000218
     22c:	00008f13          	.word	0x00008f13
     230:	004f0f13          	addi	x30,x30,4

  mv x20, x11 # switch data pointer register to avoid conflict with test
     234:	00058a13          	addi	x20,x11,0
# Testcase cp_rs1 (Test source rs1 = x11)
  RVTEST_TESTDATA_LOAD_INT(x20, x11) # load rs1: x11 = 0xbe498d49
     238:	000a2583          	lw	x11,0(x20)
     23c:	004a0a13          	addi	x20,x20,4
  RVTEST_TESTDATA_LOAD_INT(x20, x8) # load rs2: x8 = 0x5939c511
     240:	000a2403          	lw	x8,0(x20)
     244:	004a0a13          	addi	x20,x20,4

00000248 <I_add_cg_cp_rs1_b11>:
I_add_cg_cp_rs1_b11:
  add x4, x11, x8 # perform operation
     248:	00858233          	add	x4,x11,x8
  # Check if x4 contains the expected result. x30 is the signature ptr, x14 is the link ptr, x13 is a temp reg.
  RVTEST_SIGUPD(x30, x14, x13, x4, I_add_cg_cp_rs1_b11, I_add_cg_cp_rs1_b11_str)
     24c:	000f2683          	lw	x13,0(x30)
     250:	00468863          	beq	x13,x4,260 <I_add_cg_cp_rs1_b11+0x18>
     254:	2a80476f          	jal	x14,44fc <failedtest_x14_x13>
     258:	00000248          	.word	0x00000248
     25c:	00008f42          	.word	0x00008f42
     260:	004f0f13          	addi	x30,x30,4

# Testcase cp_rs1 (Test source rs1 = x12)
  RVTEST_TESTDATA_LOAD_INT(x20, x12) # load rs1: x12 = 0x72a0d783
     264:	000a2603          	lw	x12,0(x20)
     268:	004a0a13          	addi	x20,x20,4
  RVTEST_TESTDATA_LOAD_INT(x20, x1) # load rs2: x1 = 0x38679e11
     26c:	000a2083          	lw	x1,0(x20)
     270:	004a0a13          	addi	x20,x20,4

00000274 <I_add_cg_cp_rs1_b12>:
I_add_cg_cp_rs1_b12:
  add x11, x12, x1 # perform operation
     274:	001605b3          	add	x11,x12,x1
  # Check if x11 contains the expected result. x30 is the signature ptr, x14 is the link ptr, x13 is a temp reg.
  RVTEST_SIGUPD(x30, x14, x13, x11, I_add_cg_cp_rs1_b12, I_add_cg_cp_rs1_b12_str)
     278:	000f2683          	lw	x13,0(x30)
     27c:	00b68863          	beq	x13,x11,28c <I_add_cg_cp_rs1_b12+0x18>
     280:	27c0476f          	jal	x14,44fc <failedtest_x14_x13>
     284:	00000274          	.word	0x00000274
     288:	00008f71          	.word	0x00008f71
     28c:	004f0f13          	addi	x30,x30,4

  mv x4, x13 # switch temp register to avoid conflict with test
     290:	00068213          	addi	x4,x13,0
  mv x5, x14 # switch link pointer register to avoid conflict with test
     294:	00070293          	addi	x5,x14,0
# Testcase cp_rs1 (Test source rs1 = x13)
  RVTEST_TESTDATA_LOAD_INT(x20, x13) # load rs1: x13 = 0x70a493f3
     298:	000a2683          	lw	x13,0(x20)
     29c:	004a0a13          	addi	x20,x20,4
  RVTEST_TESTDATA_LOAD_INT(x20, x11) # load rs2: x11 = 0xc758b40b
     2a0:	000a2583          	lw	x11,0(x20)
     2a4:	004a0a13          	addi	x20,x20,4

000002a8 <I_add_cg_cp_rs1_b13>:
I_add_cg_cp_rs1_b13:
  add x25, x13, x11 # perform operation
     2a8:	00b68cb3          	add	x25,x13,x11
  # Check if x25 contains the expected result. x30 is the signature ptr, x5 is the link ptr, x4 is a temp reg.
  RVTEST_SIGUPD(x30, x5, x4, x25, I_add_cg_cp_rs1_b13, I_add_cg_cp_rs1_b13_str)
     2ac:	000f2203          	lw	x4,0(x30)
     2b0:	01920863          	beq	x4,x25,2c0 <I_add_cg_cp_rs1_b13+0x18>
     2b4:	208042ef          	jal	x5,44bc <failedtest_x5_x4>
     2b8:	000002a8          	.word	0x000002a8
     2bc:	00008fa0          	.word	0x00008fa0
     2c0:	004f0f13          	addi	x30,x30,4

# Testcase cp_rs1 (Test source rs1 = x14)
  RVTEST_TESTDATA_LOAD_INT(x20, x14) # load rs1: x14 = 0x40214e38
     2c4:	000a2703          	lw	x14,0(x20)
     2c8:	004a0a13          	addi	x20,x20,4
  RVTEST_TESTDATA_LOAD_INT(x20, x19) # load rs2: x19 = 0x981d9fac
     2cc:	000a2983          	lw	x19,0(x20)
     2d0:	004a0a13          	addi	x20,x20,4

000002d4 <I_add_cg_cp_rs1_b14>:
I_add_cg_cp_rs1_b14:
  add x11, x14, x19 # perform operation
     2d4:	013705b3          	add	x11,x14,x19
  # Check if x11 contains the expected result. x30 is the signature ptr, x5 is the link ptr, x4 is a temp reg.
  RVTEST_SIGUPD(x30, x5, x4, x11, I_add_cg_cp_rs1_b14, I_add_cg_cp_rs1_b14_str)
     2d8:	000f2203          	lw	x4,0(x30)
     2dc:	00b20863          	beq	x4,x11,2ec <I_add_cg_cp_rs1_b14+0x18>
     2e0:	1dc042ef          	jal	x5,44bc <failedtest_x5_x4>
     2e4:	000002d4          	.word	0x000002d4
     2e8:	00008fcf          	.word	0x00008fcf
     2ec:	004f0f13          	addi	x30,x30,4

# Testcase cp_rs1 (Test source rs1 = x15)
  RVTEST_TESTDATA_LOAD_INT(x20, x15) # load rs1: x15 = 0x260bef0c
     2f0:	000a2783          	lw	x15,0(x20)
     2f4:	004a0a13          	addi	x20,x20,4
  RVTEST_TESTDATA_LOAD_INT(x20, x29) # load rs2: x29 = 0x76c6e227
     2f8:	000a2e83          	lw	x29,0(x20)
     2fc:	004a0a13          	addi	x20,x20,4

00000300 <I_add_cg_cp_rs1_b15>:
I_add_cg_cp_rs1_b15:
  add x28, x15, x29 # perform operation
     300:	01d78e33          	add	x28,x15,x29
  # Check if x28 contains the expected result. x30 is the signature ptr, x5 is the link ptr, x4 is a temp reg.
  RVTEST_SIGUPD(x30, x5, x4, x28, I_add_cg_cp_rs1_b15, I_add_cg_cp_rs1_b15_str)
     304:	000f2203          	lw	x4,0(x30)
     308:	01c20863          	beq	x4,x28,318 <imm12+0xf>
     30c:	1b0042ef          	jal	x5,44bc <failedtest_x5_x4>
     310:	00000300          	.word	0x00000300
     314:	00008ffe          	.word	0x00008ffe
     318:	004f0f13          	addi	x30,x30,4

# Testcase cp_rs1 (Test source rs1 = x16)
  RVTEST_TESTDATA_LOAD_INT(x20, x16) # load rs1: x16 = 0x461ad3a3
     31c:	000a2803          	lw	x16,0(x20)
     320:	004a0a13          	addi	x20,x20,4
  RVTEST_TESTDATA_LOAD_INT(x20, x22) # load rs2: x22 = 0xfa1129a5
     324:	000a2b03          	lw	x22,0(x20)
     328:	004a0a13          	addi	x20,x20,4

0000032c <I_add_cg_cp_rs1_b16>:
I_add_cg_cp_rs1_b16:
  add x17, x16, x22 # perform operation
     32c:	016808b3          	add	x17,x16,x22
  # Check if x17 contains the expected result. x30 is the signature ptr, x5 is the link ptr, x4 is a temp reg.
  RVTEST_SIGUPD(x30, x5, x4, x17, I_add_cg_cp_rs1_b16, I_add_cg_cp_rs1_b16_str)
     330:	000f2203          	lw	x4,0(x30)
     334:	01120863          	beq	x4,x17,344 <I_add_cg_cp_rs1_b16+0x18>
     338:	184042ef          	jal	x5,44bc <failedtest_x5_x4>
     33c:	0000032c          	.word	0x0000032c
     340:	0000902d          	.word	0x0000902d
     344:	004f0f13          	addi	x30,x30,4

# Testcase cp_rs1 (Test source rs1 = x17)
  RVTEST_TESTDATA_LOAD_INT(x20, x17) # load rs1: x17 = 0x4afda77e
     348:	000a2883          	lw	x17,0(x20)
     34c:	004a0a13          	addi	x20,x20,4
  RVTEST_TESTDATA_LOAD_INT(x20, x2) # load rs2: x2 = 0x5cc11b57
     350:	000a2103          	lw	x2,0(x20)
     354:	004a0a13          	addi	x20,x20,4

00000358 <I_add_cg_cp_rs1_b17>:
I_add_cg_cp_rs1_b17:
  add x27, x17, x2 # perform operation
     358:	00288db3          	add	x27,x17,x2
  # Check if x27 contains the expected result. x30 is the signature ptr, x5 is the link ptr, x4 is a temp reg.
  RVTEST_SIGUPD(x30, x5, x4, x27, I_add_cg_cp_rs1_b17, I_add_cg_cp_rs1_b17_str)
     35c:	000f2203          	lw	x4,0(x30)
     360:	01b20863          	beq	x4,x27,370 <I_add_cg_cp_rs1_b17+0x18>
     364:	158042ef          	jal	x5,44bc <failedtest_x5_x4>
     368:	00000358          	.word	0x00000358
     36c:	0000905c          	.word	0x0000905c
     370:	004f0f13          	addi	x30,x30,4

# Testcase cp_rs1 (Test source rs1 = x18)
  RVTEST_TESTDATA_LOAD_INT(x20, x18) # load rs1: x18 = 0xbfb50e27
     374:	000a2903          	lw	x18,0(x20)
     378:	004a0a13          	addi	x20,x20,4
  RVTEST_TESTDATA_LOAD_INT(x20, x24) # load rs2: x24 = 0xa2773413
     37c:	000a2c03          	lw	x24,0(x20)
     380:	004a0a13          	addi	x20,x20,4

00000384 <I_add_cg_cp_rs1_b18>:
I_add_cg_cp_rs1_b18:
  add x26, x18, x24 # perform operation
     384:	01890d33          	add	x26,x18,x24
  # Check if x26 contains the expected result. x30 is the signature ptr, x5 is the link ptr, x4 is a temp reg.
  RVTEST_SIGUPD(x30, x5, x4, x26, I_add_cg_cp_rs1_b18, I_add_cg_cp_rs1_b18_str)
     388:	000f2203          	lw	x4,0(x30)
     38c:	01a20863          	beq	x4,x26,39c <I_add_cg_cp_rs1_b18+0x18>
     390:	12c042ef          	jal	x5,44bc <failedtest_x5_x4>
     394:	00000384          	.word	0x00000384
     398:	0000908b          	.word	0x0000908b
     39c:	004f0f13          	addi	x30,x30,4

# Testcase cp_rs1 (Test source rs1 = x19)
  RVTEST_TESTDATA_LOAD_INT(x20, x19) # load rs1: x19 = 0x1483c110
     3a0:	000a2983          	lw	x19,0(x20)
     3a4:	004a0a13          	addi	x20,x20,4
  RVTEST_TESTDATA_LOAD_INT(x20, x13) # load rs2: x13 = 0x41796538
     3a8:	000a2683          	lw	x13,0(x20)
     3ac:	004a0a13          	addi	x20,x20,4

000003b0 <I_add_cg_cp_rs1_b19>:
I_add_cg_cp_rs1_b19:
  add x9, x19, x13 # perform operation
     3b0:	00d984b3          	add	x9,x19,x13
  # Check if x9 contains the expected result. x30 is the signature ptr, x5 is the link ptr, x4 is a temp reg.
  RVTEST_SIGUPD(x30, x5, x4, x9, I_add_cg_cp_rs1_b19, I_add_cg_cp_rs1_b19_str)
     3b4:	000f2203          	lw	x4,0(x30)
     3b8:	00920863          	beq	x4,x9,3c8 <I_add_cg_cp_rs1_b19+0x18>
     3bc:	100042ef          	jal	x5,44bc <failedtest_x5_x4>
     3c0:	000003b0          	.word	0x000003b0
     3c4:	000090ba          	.word	0x000090ba
     3c8:	004f0f13          	addi	x30,x30,4

  mv x27, x20 # switch data pointer register to avoid conflict with test
     3cc:	000a0d93          	addi	x27,x20,0
# Testcase cp_rs1 (Test source rs1 = x20)
  RVTEST_TESTDATA_LOAD_INT(x27, x20) # load rs1: x20 = 0xfc59e86f
     3d0:	000daa03          	lw	x20,0(x27)
     3d4:	004d8d93          	addi	x27,x27,4
  RVTEST_TESTDATA_LOAD_INT(x27, x22) # load rs2: x22 = 0x88c2eb61
     3d8:	000dab03          	lw	x22,0(x27)
     3dc:	004d8d93          	addi	x27,x27,4

000003e0 <I_add_cg_cp_rs1_b20>:
I_add_cg_cp_rs1_b20:
  add x8, x20, x22 # perform operation
     3e0:	016a0433          	add	x8,x20,x22
  # Check if x8 contains the expected result. x30 is the signature ptr, x5 is the link ptr, x4 is a temp reg.
  RVTEST_SIGUPD(x30, x5, x4, x8, I_add_cg_cp_rs1_b20, I_add_cg_cp_rs1_b20_str)
     3e4:	000f2203          	lw	x4,0(x30)
     3e8:	00820863          	beq	x4,x8,3f8 <I_add_cg_cp_rs1_b20+0x18>
     3ec:	0d0042ef          	jal	x5,44bc <failedtest_x5_x4>
     3f0:	000003e0          	.word	0x000003e0
     3f4:	000090e9          	.word	0x000090e9
     3f8:	004f0f13          	addi	x30,x30,4

# Testcase cp_rs1 (Test source rs1 = x21)
  RVTEST_TESTDATA_LOAD_INT(x27, x21) # load rs1: x21 = 0x17e1045d
     3fc:	000daa83          	lw	x21,0(x27)
     400:	004d8d93          	addi	x27,x27,4
  RVTEST_TESTDATA_LOAD_INT(x27, x26) # load rs2: x26 = 0x36ec53d3
     404:	000dad03          	lw	x26,0(x27)
     408:	004d8d93          	addi	x27,x27,4

0000040c <I_add_cg_cp_rs1_b21>:
I_add_cg_cp_rs1_b21:
  add x7, x21, x26 # perform operation
     40c:	01aa83b3          	add	x7,x21,x26
  # Check if x7 contains the expected result. x30 is the signature ptr, x5 is the link ptr, x4 is a temp reg.
  RVTEST_SIGUPD(x30, x5, x4, x7, I_add_cg_cp_rs1_b21, I_add_cg_cp_rs1_b21_str)
     410:	000f2203          	lw	x4,0(x30)
     414:	00720863          	beq	x4,x7,424 <I_add_cg_cp_rs1_b21+0x18>
     418:	0a4042ef          	jal	x5,44bc <failedtest_x5_x4>
     41c:	0000040c          	.word	0x0000040c
     420:	00009118          	.word	0x00009118
     424:	004f0f13          	addi	x30,x30,4

# Testcase cp_rs1 (Test source rs1 = x22)
  RVTEST_TESTDATA_LOAD_INT(x27, x22) # load rs1: x22 = 0xfbba752e
     428:	000dab03          	lw	x22,0(x27)
     42c:	004d8d93          	addi	x27,x27,4
  RVTEST_TESTDATA_LOAD_INT(x27, x6) # load rs2: x6 = 0xf0c74336
     430:	000da303          	lw	x6,0(x27)
     434:	004d8d93          	addi	x27,x27,4

00000438 <I_add_cg_cp_rs1_b22>:
I_add_cg_cp_rs1_b22:
  add x26, x22, x6 # perform operation
     438:	006b0d33          	add	x26,x22,x6
  # Check if x26 contains the expected result. x30 is the signature ptr, x5 is the link ptr, x4 is a temp reg.
  RVTEST_SIGUPD(x30, x5, x4, x26, I_add_cg_cp_rs1_b22, I_add_cg_cp_rs1_b22_str)
     43c:	000f2203          	lw	x4,0(x30)
     440:	01a20863          	beq	x4,x26,450 <I_add_cg_cp_rs1_b22+0x18>
     444:	078042ef          	jal	x5,44bc <failedtest_x5_x4>
     448:	00000438          	.word	0x00000438
     44c:	00009147          	.word	0x00009147
     450:	004f0f13          	addi	x30,x30,4

# Testcase cp_rs1 (Test source rs1 = x23)
  RVTEST_TESTDATA_LOAD_INT(x27, x23) # load rs1: x23 = 0xdb6f1137
     454:	000dab83          	lw	x23,0(x27)
     458:	004d8d93          	addi	x27,x27,4
  RVTEST_TESTDATA_LOAD_INT(x27, x19) # load rs2: x19 = 0xc29ebecd
     45c:	000da983          	lw	x19,0(x27)
     460:	004d8d93          	addi	x27,x27,4

00000464 <I_add_cg_cp_rs1_b23>:
I_add_cg_cp_rs1_b23:
  add x3, x23, x19 # perform operation
     464:	013b81b3          	add	x3,x23,x19
  # Check if x3 contains the expected result. x30 is the signature ptr, x5 is the link ptr, x4 is a temp reg.
  RVTEST_SIGUPD(x30, x5, x4, x3, I_add_cg_cp_rs1_b23, I_add_cg_cp_rs1_b23_str)
     468:	000f2203          	lw	x4,0(x30)
     46c:	00320863          	beq	x4,x3,47c <I_add_cg_cp_rs1_b23+0x18>
     470:	04c042ef          	jal	x5,44bc <failedtest_x5_x4>
     474:	00000464          	.word	0x00000464
     478:	00009176          	.word	0x00009176
     47c:	004f0f13          	addi	x30,x30,4

# Testcase cp_rs1 (Test source rs1 = x24)
  RVTEST_TESTDATA_LOAD_INT(x27, x24) # load rs1: x24 = 0x78e8edfc
     480:	000dac03          	lw	x24,0(x27)
     484:	004d8d93          	addi	x27,x27,4
  RVTEST_TESTDATA_LOAD_INT(x27, x20) # load rs2: x20 = 0x5ccbb261
     488:	000daa03          	lw	x20,0(x27)
     48c:	004d8d93          	addi	x27,x27,4

00000490 <I_add_cg_cp_rs1_b24>:
I_add_cg_cp_rs1_b24:
  add x16, x24, x20 # perform operation
     490:	014c0833          	add	x16,x24,x20
  # Check if x16 contains the expected result. x30 is the signature ptr, x5 is the link ptr, x4 is a temp reg.
  RVTEST_SIGUPD(x30, x5, x4, x16, I_add_cg_cp_rs1_b24, I_add_cg_cp_rs1_b24_str)
     494:	000f2203          	lw	x4,0(x30)
     498:	01020863          	beq	x4,x16,4a8 <I_add_cg_cp_rs1_b24+0x18>
     49c:	020042ef          	jal	x5,44bc <failedtest_x5_x4>
     4a0:	00000490          	.word	0x00000490
     4a4:	000091a5          	.word	0x000091a5
     4a8:	004f0f13          	addi	x30,x30,4

# Testcase cp_rs1 (Test source rs1 = x25)
  RVTEST_TESTDATA_LOAD_INT(x27, x25) # load rs1: x25 = 0xfed08e43
     4ac:	000dac83          	lw	x25,0(x27)
     4b0:	004d8d93          	addi	x27,x27,4
  RVTEST_TESTDATA_LOAD_INT(x27, x2) # load rs2: x2 = 0x27bb3ee5
     4b4:	000da103          	lw	x2,0(x27)
     4b8:	004d8d93          	addi	x27,x27,4

000004bc <I_add_cg_cp_rs1_b25>:
I_add_cg_cp_rs1_b25:
  add x9, x25, x2 # perform operation
     4bc:	002c84b3          	add	x9,x25,x2
  # Check if x9 contains the expected result. x30 is the signature ptr, x5 is the link ptr, x4 is a temp reg.
  RVTEST_SIGUPD(x30, x5, x4, x9, I_add_cg_cp_rs1_b25, I_add_cg_cp_rs1_b25_str)
     4c0:	000f2203          	lw	x4,0(x30)
     4c4:	00920863          	beq	x4,x9,4d4 <I_add_cg_cp_rs1_b25+0x18>
     4c8:	7f5032ef          	jal	x5,44bc <failedtest_x5_x4>
     4cc:	000004bc          	.word	0x000004bc
     4d0:	000091d4          	.word	0x000091d4
     4d4:	004f0f13          	addi	x30,x30,4

# Testcase cp_rs1 (Test source rs1 = x26)
  RVTEST_TESTDATA_LOAD_INT(x27, x26) # load rs1: x26 = 0x2abf7cf7
     4d8:	000dad03          	lw	x26,0(x27)
     4dc:	004d8d93          	addi	x27,x27,4
  RVTEST_TESTDATA_LOAD_INT(x27, x7) # load rs2: x7 = 0x93f42a31
     4e0:	000da383          	lw	x7,0(x27)
     4e4:	004d8d93          	addi	x27,x27,4

000004e8 <I_add_cg_cp_rs1_b26>:
I_add_cg_cp_rs1_b26:
  add x10, x26, x7 # perform operation
     4e8:	007d0533          	add	x10,x26,x7
  # Check if x10 contains the expected result. x30 is the signature ptr, x5 is the link ptr, x4 is a temp reg.
  RVTEST_SIGUPD(x30, x5, x4, x10, I_add_cg_cp_rs1_b26, I_add_cg_cp_rs1_b26_str)
     4ec:	000f2203          	lw	x4,0(x30)
     4f0:	00a20863          	beq	x4,x10,500 <I_add_cg_cp_rs1_b26+0x18>
     4f4:	7c9032ef          	jal	x5,44bc <failedtest_x5_x4>
     4f8:	000004e8          	.word	0x000004e8
     4fc:	00009203          	.word	0x00009203
     500:	004f0f13          	addi	x30,x30,4

  mv x11, x27 # switch data pointer register to avoid conflict with test
     504:	000d8593          	addi	x11,x27,0
# Testcase cp_rs1 (Test source rs1 = x27)
  RVTEST_TESTDATA_LOAD_INT(x11, x27) # load rs1: x27 = 0xc71a0e78
     508:	0005ad83          	lw	x27,0(x11)
     50c:	00458593          	addi	x11,x11,4
  RVTEST_TESTDATA_LOAD_INT(x11, x19) # load rs2: x19 = 0xffc9caef
     510:	0005a983          	lw	x19,0(x11)
     514:	00458593          	addi	x11,x11,4

00000518 <I_add_cg_cp_rs1_b27>:
I_add_cg_cp_rs1_b27:
  add x10, x27, x19 # perform operation
     518:	013d8533          	add	x10,x27,x19
  # Check if x10 contains the expected result. x30 is the signature ptr, x5 is the link ptr, x4 is a temp reg.
  RVTEST_SIGUPD(x30, x5, x4, x10, I_add_cg_cp_rs1_b27, I_add_cg_cp_rs1_b27_str)
     51c:	000f2203          	lw	x4,0(x30)
     520:	00a20863          	beq	x4,x10,530 <I_add_cg_cp_rs1_b27+0x18>
     524:	799032ef          	jal	x5,44bc <failedtest_x5_x4>
     528:	00000518          	.word	0x00000518
     52c:	00009232          	.word	0x00009232
     530:	004f0f13          	addi	x30,x30,4

# Testcase cp_rs1 (Test source rs1 = x28)
  RVTEST_TESTDATA_LOAD_INT(x11, x28) # load rs1: x28 = 0xabc8b3e9
     534:	0005ae03          	lw	x28,0(x11)
     538:	00458593          	addi	x11,x11,4
  RVTEST_TESTDATA_LOAD_INT(x11, x1) # load rs2: x1 = 0x540d414f
     53c:	0005a083          	lw	x1,0(x11)
     540:	00458593          	addi	x11,x11,4

00000544 <I_add_cg_cp_rs1_b28>:
I_add_cg_cp_rs1_b28:
  add x13, x28, x1 # perform operation
     544:	001e06b3          	add	x13,x28,x1
  # Check if x13 contains the expected result. x30 is the signature ptr, x5 is the link ptr, x4 is a temp reg.
  RVTEST_SIGUPD(x30, x5, x4, x13, I_add_cg_cp_rs1_b28, I_add_cg_cp_rs1_b28_str)
     548:	000f2203          	lw	x4,0(x30)
     54c:	00d20863          	beq	x4,x13,55c <I_add_cg_cp_rs1_b28+0x18>
     550:	76d032ef          	jal	x5,44bc <failedtest_x5_x4>
     554:	00000544          	.word	0x00000544
     558:	00009261          	.word	0x00009261
     55c:	004f0f13          	addi	x30,x30,4

# Testcase cp_rs1 (Test source rs1 = x29)
  RVTEST_TESTDATA_LOAD_INT(x11, x29) # load rs1: x29 = 0x27de3f8b
     560:	0005ae83          	lw	x29,0(x11)
     564:	00458593          	addi	x11,x11,4
  RVTEST_TESTDATA_LOAD_INT(x11, x0) # load rs2: x0 = 0x4509d639
     568:	0005a003          	lw	x0,0(x11)
     56c:	00458593          	addi	x11,x11,4

00000570 <I_add_cg_cp_rs1_b29>:
I_add_cg_cp_rs1_b29:
  add x28, x29, x0 # perform operation
     570:	000e8e33          	add	x28,x29,x0
  # Check if x28 contains the expected result. x30 is the signature ptr, x5 is the link ptr, x4 is a temp reg.
  RVTEST_SIGUPD(x30, x5, x4, x28, I_add_cg_cp_rs1_b29, I_add_cg_cp_rs1_b29_str)
     574:	000f2203          	lw	x4,0(x30)
     578:	01c20863          	beq	x4,x28,588 <I_add_cg_cp_rs1_b29+0x18>
     57c:	741032ef          	jal	x5,44bc <failedtest_x5_x4>
     580:	00000570          	.word	0x00000570
     584:	00009290          	.word	0x00009290
     588:	004f0f13          	addi	x30,x30,4

  mv x31, x30 # switch signature pointer register to avoid conflict with test
     58c:	000f0f93          	addi	x31,x30,0
# Testcase cp_rs1 (Test source rs1 = x30)
  RVTEST_TESTDATA_LOAD_INT(x11, x30) # load rs1: x30 = 0x1a7149e4
     590:	0005af03          	lw	x30,0(x11)
     594:	00458593          	addi	x11,x11,4
  RVTEST_TESTDATA_LOAD_INT(x11, x19) # load rs2: x19 = 0x88d1e689
     598:	0005a983          	lw	x19,0(x11)
     59c:	00458593          	addi	x11,x11,4

000005a0 <I_add_cg_cp_rs1_b30>:
I_add_cg_cp_rs1_b30:
  add x24, x30, x19 # perform operation
     5a0:	013f0c33          	add	x24,x30,x19
  # Check if x24 contains the expected result. x31 is the signature ptr, x5 is the link ptr, x4 is a temp reg.
  RVTEST_SIGUPD(x31, x5, x4, x24, I_add_cg_cp_rs1_b30, I_add_cg_cp_rs1_b30_str)
     5a4:	000fa203          	lw	x4,0(x31)
     5a8:	01820863          	beq	x4,x24,5b8 <I_add_cg_cp_rs1_b30+0x18>
     5ac:	711032ef          	jal	x5,44bc <failedtest_x5_x4>
     5b0:	000005a0          	.word	0x000005a0
     5b4:	000092bf          	.word	0x000092bf
     5b8:	004f8f93          	addi	x31,x31,4

  mv x1, x31 # switch signature pointer register to avoid conflict with test
     5bc:	000f8093          	addi	x1,x31,0
# Testcase cp_rs1 (Test source rs1 = x31)
  RVTEST_TESTDATA_LOAD_INT(x11, x31) # load rs1: x31 = 0xa9fe1b24
     5c0:	0005af83          	lw	x31,0(x11)
     5c4:	00458593          	addi	x11,x11,4
  RVTEST_TESTDATA_LOAD_INT(x11, x26) # load rs2: x26 = 0xfdfb2019
     5c8:	0005ad03          	lw	x26,0(x11)
     5cc:	00458593          	addi	x11,x11,4

000005d0 <I_add_cg_cp_rs1_b31>:
I_add_cg_cp_rs1_b31:
  add x14, x31, x26 # perform operation
     5d0:	01af8733          	add	x14,x31,x26
  # Check if x14 contains the expected result. x1 is the signature ptr, x5 is the link ptr, x4 is a temp reg.
  RVTEST_SIGUPD(x1, x5, x4, x14, I_add_cg_cp_rs1_b31, I_add_cg_cp_rs1_b31_str)
     5d4:	0000a203          	lw	x4,0(x1)
     5d8:	00e20863          	beq	x4,x14,5e8 <I_add_cg_cp_rs1_b31+0x18>
     5dc:	6e1032ef          	jal	x5,44bc <failedtest_x5_x4>
     5e0:	000005d0          	.word	0x000005d0
     5e4:	000092ee          	.word	0x000092ee
     5e8:	00408093          	addi	x1,x1,4
/////////////////////////////////
// cp_rs2
/////////////////////////////////

# Testcase cp_rs2 (Test source rs2 = x0)
  RVTEST_TESTDATA_LOAD_INT(x11, x30) # load rs1: x30 = 0x3eaae683
     5ec:	0005af03          	lw	x30,0(x11)
     5f0:	00458593          	addi	x11,x11,4
  RVTEST_TESTDATA_LOAD_INT(x11, x0) # load rs2: x0 = 0x067ee1d1
     5f4:	0005a003          	lw	x0,0(x11)
     5f8:	00458593          	addi	x11,x11,4

000005fc <I_add_cg_cp_rs2_b0>:
I_add_cg_cp_rs2_b0:
  add x16, x30, x0 # perform operation
     5fc:	000f0833          	add	x16,x30,x0
  # Check if x16 contains the expected result. x1 is the signature ptr, x5 is the link ptr, x4 is a temp reg.
  RVTEST_SIGUPD(x1, x5, x4, x16, I_add_cg_cp_rs2_b0, I_add_cg_cp_rs2_b0_str)
     600:	0000a203          	lw	x4,0(x1)
     604:	01020863          	beq	x4,x16,614 <I_add_cg_cp_rs2_b0+0x18>
     608:	6b5032ef          	jal	x5,44bc <failedtest_x5_x4>
     60c:	000005fc          	.word	0x000005fc
     610:	0000931d          	.word	0x0000931d
     614:	00408093          	addi	x1,x1,4

  mv x21, x1 # switch signature pointer register to avoid conflict with test
     618:	00008a93          	addi	x21,x1,0
# Testcase cp_rs2 (Test source rs2 = x1)
  RVTEST_TESTDATA_LOAD_INT(x11, x31) # load rs1: x31 = 0x7f3dab23
     61c:	0005af83          	lw	x31,0(x11)
     620:	00458593          	addi	x11,x11,4
  RVTEST_TESTDATA_LOAD_INT(x11, x1) # load rs2: x1 = 0x0281b902
     624:	0005a083          	lw	x1,0(x11)
     628:	00458593          	addi	x11,x11,4

0000062c <I_add_cg_cp_rs2_b1>:
I_add_cg_cp_rs2_b1:
  add x27, x31, x1 # perform operation
     62c:	001f8db3          	add	x27,x31,x1
  # Check if x27 contains the expected result. x21 is the signature ptr, x5 is the link ptr, x4 is a temp reg.
  RVTEST_SIGUPD(x21, x5, x4, x27, I_add_cg_cp_rs2_b1, I_add_cg_cp_rs2_b1_str)
     630:	000aa203          	lw	x4,0(x21)
     634:	01b20863          	beq	x4,x27,644 <I_add_cg_cp_rs2_b1+0x18>
     638:	685032ef          	jal	x5,44bc <failedtest_x5_x4>
     63c:	0000062c          	.word	0x0000062c
     640:	0000934b          	.word	0x0000934b
     644:	004a8a93          	addi	x21,x21,4

# Testcase cp_rs2 (Test source rs2 = x2)
  RVTEST_TESTDATA_LOAD_INT(x11, x3) # load rs1: x3 = 0xc58c8f0b
     648:	0005a183          	lw	x3,0(x11)
     64c:	00458593          	addi	x11,x11,4
  RVTEST_TESTDATA_LOAD_INT(x11, x2) # load rs2: x2 = 0x84b811ba
     650:	0005a103          	lw	x2,0(x11)
     654:	00458593          	addi	x11,x11,4

00000658 <I_add_cg_cp_rs2_b2>:
I_add_cg_cp_rs2_b2:
  add x8, x3, x2 # perform operation
     658:	00218433          	add	x8,x3,x2
  # Check if x8 contains the expected result. x21 is the signature ptr, x5 is the link ptr, x4 is a temp reg.
  RVTEST_SIGUPD(x21, x5, x4, x8, I_add_cg_cp_rs2_b2, I_add_cg_cp_rs2_b2_str)
     65c:	000aa203          	lw	x4,0(x21)
     660:	00820863          	beq	x4,x8,670 <I_add_cg_cp_rs2_b2+0x18>
     664:	659032ef          	jal	x5,44bc <failedtest_x5_x4>
     668:	00000658          	.word	0x00000658
     66c:	00009379          	.word	0x00009379
     670:	004a8a93          	addi	x21,x21,4

# Testcase cp_rs2 (Test source rs2 = x3)
  RVTEST_TESTDATA_LOAD_INT(x11, x2) # load rs1: x2 = 0x63271b21
     674:	0005a103          	lw	x2,0(x11)
     678:	00458593          	addi	x11,x11,4
  RVTEST_TESTDATA_LOAD_INT(x11, x3) # load rs2: x3 = 0xc2e70e8a
     67c:	0005a183          	lw	x3,0(x11)
     680:	00458593          	addi	x11,x11,4

00000684 <I_add_cg_cp_rs2_b3>:
I_add_cg_cp_rs2_b3:
  add x25, x2, x3 # perform operation
     684:	00310cb3          	add	x25,x2,x3
  # Check if x25 contains the expected result. x21 is the signature ptr, x5 is the link ptr, x4 is a temp reg.
  RVTEST_SIGUPD(x21, x5, x4, x25, I_add_cg_cp_rs2_b3, I_add_cg_cp_rs2_b3_str)
     688:	000aa203          	lw	x4,0(x21)
     68c:	01920863          	beq	x4,x25,69c <I_add_cg_cp_rs2_b3+0x18>
     690:	62d032ef          	jal	x5,44bc <failedtest_x5_x4>
     694:	00000684          	.word	0x00000684
     698:	000093a7          	.word	0x000093a7
     69c:	004a8a93          	addi	x21,x21,4

  mv x13, x4 # switch temp register to avoid conflict with test
     6a0:	00020693          	addi	x13,x4,0 # 0 <rvtest_entry_point>
  mv x14, x5 # switch link pointer register to avoid conflict with test
     6a4:	00028713          	addi	x14,x5,0
# Testcase cp_rs2 (Test source rs2 = x4)
  RVTEST_TESTDATA_LOAD_INT(x11, x16) # load rs1: x16 = 0xa4e1b102
     6a8:	0005a803          	lw	x16,0(x11)
     6ac:	00458593          	addi	x11,x11,4
  RVTEST_TESTDATA_LOAD_INT(x11, x4) # load rs2: x4 = 0x0e3e6e1a
     6b0:	0005a203          	lw	x4,0(x11)
     6b4:	00458593          	addi	x11,x11,4

000006b8 <I_add_cg_cp_rs2_b4>:
I_add_cg_cp_rs2_b4:
  add x7, x16, x4 # perform operation
     6b8:	004803b3          	add	x7,x16,x4
  # Check if x7 contains the expected result. x21 is the signature ptr, x14 is the link ptr, x13 is a temp reg.
  RVTEST_SIGUPD(x21, x14, x13, x7, I_add_cg_cp_rs2_b4, I_add_cg_cp_rs2_b4_str)
     6bc:	000aa683          	lw	x13,0(x21)
     6c0:	00768863          	beq	x13,x7,6d0 <I_add_cg_cp_rs2_b4+0x18>
     6c4:	6390376f          	jal	x14,44fc <failedtest_x14_x13>
     6c8:	000006b8          	.word	0x000006b8
     6cc:	000093d5          	.word	0x000093d5
     6d0:	004a8a93          	addi	x21,x21,4

# Testcase cp_rs2 (Test source rs2 = x5)
  RVTEST_TESTDATA_LOAD_INT(x11, x31) # load rs1: x31 = 0x3b9b6e94
     6d4:	0005af83          	lw	x31,0(x11)
     6d8:	00458593          	addi	x11,x11,4
  RVTEST_TESTDATA_LOAD_INT(x11, x5) # load rs2: x5 = 0xc836c192
     6dc:	0005a283          	lw	x5,0(x11)
     6e0:	00458593          	addi	x11,x11,4

000006e4 <I_add_cg_cp_rs2_b5>:
I_add_cg_cp_rs2_b5:
  add x20, x31, x5 # perform operation
     6e4:	005f8a33          	add	x20,x31,x5
  # Check if x20 contains the expected result. x21 is the signature ptr, x14 is the link ptr, x13 is a temp reg.
  RVTEST_SIGUPD(x21, x14, x13, x20, I_add_cg_cp_rs2_b5, I_add_cg_cp_rs2_b5_str)
     6e8:	000aa683          	lw	x13,0(x21)
     6ec:	01468863          	beq	x13,x20,6fc <I_add_cg_cp_rs2_b5+0x18>
     6f0:	60d0376f          	jal	x14,44fc <failedtest_x14_x13>
     6f4:	000006e4          	.word	0x000006e4
     6f8:	00009403          	.word	0x00009403
     6fc:	004a8a93          	addi	x21,x21,4

# Testcase cp_rs2 (Test source rs2 = x6)
  RVTEST_TESTDATA_LOAD_INT(x11, x29) # load rs1: x29 = 0x3b5d0235
     700:	0005ae83          	lw	x29,0(x11)
     704:	00458593          	addi	x11,x11,4
  RVTEST_TESTDATA_LOAD_INT(x11, x6) # load rs2: x6 = 0xd926fe45
     708:	0005a303          	lw	x6,0(x11)
     70c:	00458593          	addi	x11,x11,4

00000710 <I_add_cg_cp_rs2_b6>:
I_add_cg_cp_rs2_b6:
  add x5, x29, x6 # perform operation
     710:	006e82b3          	add	x5,x29,x6
  # Check if x5 contains the expected result. x21 is the signature ptr, x14 is the link ptr, x13 is a temp reg.
  RVTEST_SIGUPD(x21, x14, x13, x5, I_add_cg_cp_rs2_b6, I_add_cg_cp_rs2_b6_str)
     714:	000aa683          	lw	x13,0(x21)
     718:	00568863          	beq	x13,x5,728 <I_add_cg_cp_rs2_b6+0x18>
     71c:	5e10376f          	jal	x14,44fc <failedtest_x14_x13>
     720:	00000710          	.word	0x00000710
     724:	00009431          	.word	0x00009431
     728:	004a8a93          	addi	x21,x21,4

# Testcase cp_rs2 (Test source rs2 = x7)
  RVTEST_TESTDATA_LOAD_INT(x11, x28) # load rs1: x28 = 0xfc20a9df
     72c:	0005ae03          	lw	x28,0(x11)
     730:	00458593          	addi	x11,x11,4
  RVTEST_TESTDATA_LOAD_INT(x11, x7) # load rs2: x7 = 0xdaac48c4
     734:	0005a383          	lw	x7,0(x11)
     738:	00458593          	addi	x11,x11,4

0000073c <I_add_cg_cp_rs2_b7>:
I_add_cg_cp_rs2_b7:
  add x10, x28, x7 # perform operation
     73c:	007e0533          	add	x10,x28,x7
  # Check if x10 contains the expected result. x21 is the signature ptr, x14 is the link ptr, x13 is a temp reg.
  RVTEST_SIGUPD(x21, x14, x13, x10, I_add_cg_cp_rs2_b7, I_add_cg_cp_rs2_b7_str)
     740:	000aa683          	lw	x13,0(x21)
     744:	00a68863          	beq	x13,x10,754 <I_add_cg_cp_rs2_b7+0x18>
     748:	5b50376f          	jal	x14,44fc <failedtest_x14_x13>
     74c:	0000073c          	.word	0x0000073c
     750:	0000945f          	.word	0x0000945f
     754:	004a8a93          	addi	x21,x21,4

# Testcase cp_rs2 (Test source rs2 = x8)
  RVTEST_TESTDATA_LOAD_INT(x11, x17) # load rs1: x17 = 0x3bf88405
     758:	0005a883          	lw	x17,0(x11)
     75c:	00458593          	addi	x11,x11,4
  RVTEST_TESTDATA_LOAD_INT(x11, x8) # load rs2: x8 = 0xb4a1a140
     760:	0005a403          	lw	x8,0(x11)
     764:	00458593          	addi	x11,x11,4

00000768 <I_add_cg_cp_rs2_b8>:
I_add_cg_cp_rs2_b8:
  add x31, x17, x8 # perform operation
     768:	00888fb3          	add	x31,x17,x8
  # Check if x31 contains the expected result. x21 is the signature ptr, x14 is the link ptr, x13 is a temp reg.
  RVTEST_SIGUPD(x21, x14, x13, x31, I_add_cg_cp_rs2_b8, I_add_cg_cp_rs2_b8_str)
     76c:	000aa683          	lw	x13,0(x21)
     770:	01f68863          	beq	x13,x31,780 <I_add_cg_cp_rs2_b8+0x18>
     774:	5890376f          	jal	x14,44fc <failedtest_x14_x13>
     778:	00000768          	.word	0x00000768
     77c:	0000948d          	.word	0x0000948d
     780:	004a8a93          	addi	x21,x21,4

# Testcase cp_rs2 (Test source rs2 = x9)
  RVTEST_TESTDATA_LOAD_INT(x11, x30) # load rs1: x30 = 0xde44271a
     784:	0005af03          	lw	x30,0(x11)
     788:	00458593          	addi	x11,x11,4
  RVTEST_TESTDATA_LOAD_INT(x11, x9) # load rs2: x9 = 0x8940d7c5
     78c:	0005a483          	lw	x9,0(x11)
     790:	00458593          	addi	x11,x11,4

00000794 <I_add_cg_cp_rs2_b9>:
I_add_cg_cp_rs2_b9:
  add x17, x30, x9 # perform operation
     794:	009f08b3          	add	x17,x30,x9
  # Check if x17 contains the expected result. x21 is the signature ptr, x14 is the link ptr, x13 is a temp reg.
  RVTEST_SIGUPD(x21, x14, x13, x17, I_add_cg_cp_rs2_b9, I_add_cg_cp_rs2_b9_str)
     798:	000aa683          	lw	x13,0(x21)
     79c:	01168863          	beq	x13,x17,7ac <I_add_cg_cp_rs2_b9+0x18>
     7a0:	55d0376f          	jal	x14,44fc <failedtest_x14_x13>
     7a4:	00000794          	.word	0x00000794
     7a8:	000094bb          	.word	0x000094bb
     7ac:	004a8a93          	addi	x21,x21,4

# Testcase cp_rs2 (Test source rs2 = x10)
  RVTEST_TESTDATA_LOAD_INT(x11, x1) # load rs1: x1 = 0xe32c4825
     7b0:	0005a083          	lw	x1,0(x11)
     7b4:	00458593          	addi	x11,x11,4
  RVTEST_TESTDATA_LOAD_INT(x11, x10) # load rs2: x10 = 0x7cc721c3
     7b8:	0005a503          	lw	x10,0(x11)
     7bc:	00458593          	addi	x11,x11,4

000007c0 <I_add_cg_cp_rs2_b10>:
I_add_cg_cp_rs2_b10:
  add x30, x1, x10 # perform operation
     7c0:	00a08f33          	add	x30,x1,x10
  # Check if x30 contains the expected result. x21 is the signature ptr, x14 is the link ptr, x13 is a temp reg.
  RVTEST_SIGUPD(x21, x14, x13, x30, I_add_cg_cp_rs2_b10, I_add_cg_cp_rs2_b10_str)
     7c4:	000aa683          	lw	x13,0(x21)
     7c8:	01e68863          	beq	x13,x30,7d8 <I_add_cg_cp_rs2_b10+0x18>
     7cc:	5310376f          	jal	x14,44fc <failedtest_x14_x13>
     7d0:	000007c0          	.word	0x000007c0
     7d4:	000094e9          	.word	0x000094e9
     7d8:	004a8a93          	addi	x21,x21,4

  mv x10, x11 # switch data pointer register to avoid conflict with test
     7dc:	00058513          	addi	x10,x11,0
# Testcase cp_rs2 (Test source rs2 = x11)
  RVTEST_TESTDATA_LOAD_INT(x10, x23) # load rs1: x23 = 0x5f0316e5
     7e0:	00052b83          	lw	x23,0(x10)
     7e4:	00450513          	addi	x10,x10,4
  RVTEST_TESTDATA_LOAD_INT(x10, x11) # load rs2: x11 = 0x928e3c15
     7e8:	00052583          	lw	x11,0(x10)
     7ec:	00450513          	addi	x10,x10,4

000007f0 <I_add_cg_cp_rs2_b11>:
I_add_cg_cp_rs2_b11:
  add x8, x23, x11 # perform operation
     7f0:	00bb8433          	add	x8,x23,x11
  # Check if x8 contains the expected result. x21 is the signature ptr, x14 is the link ptr, x13 is a temp reg.
  RVTEST_SIGUPD(x21, x14, x13, x8, I_add_cg_cp_rs2_b11, I_add_cg_cp_rs2_b11_str)
     7f4:	000aa683          	lw	x13,0(x21)
     7f8:	00868863          	beq	x13,x8,808 <I_add_cg_cp_rs2_b11+0x18>
     7fc:	5010376f          	jal	x14,44fc <failedtest_x14_x13>
     800:	000007f0          	.word	0x000007f0
     804:	00009518          	.word	0x00009518
     808:	004a8a93          	addi	x21,x21,4

# Testcase cp_rs2 (Test source rs2 = x12)
  RVTEST_TESTDATA_LOAD_INT(x10, x15) # load rs1: x15 = 0x5543610b
     80c:	00052783          	lw	x15,0(x10)
     810:	00450513          	addi	x10,x10,4
  RVTEST_TESTDATA_LOAD_INT(x10, x12) # load rs2: x12 = 0xf92c9db7
     814:	00052603          	lw	x12,0(x10)
     818:	00450513          	addi	x10,x10,4

0000081c <I_add_cg_cp_rs2_b12>:
I_add_cg_cp_rs2_b12:
  add x8, x15, x12 # perform operation
     81c:	00c78433          	add	x8,x15,x12
  # Check if x8 contains the expected result. x21 is the signature ptr, x14 is the link ptr, x13 is a temp reg.
  RVTEST_SIGUPD(x21, x14, x13, x8, I_add_cg_cp_rs2_b12, I_add_cg_cp_rs2_b12_str)
     820:	000aa683          	lw	x13,0(x21)
     824:	00868863          	beq	x13,x8,834 <I_add_cg_cp_rs2_b12+0x18>
     828:	4d50376f          	jal	x14,44fc <failedtest_x14_x13>
     82c:	0000081c          	.word	0x0000081c
     830:	00009547          	.word	0x00009547
     834:	004a8a93          	addi	x21,x21,4

  mv x7, x13 # switch temp register to avoid conflict with test
     838:	00068393          	addi	x7,x13,0
  mv x8, x14 # switch link pointer register to avoid conflict with test
     83c:	00070413          	addi	x8,x14,0
# Testcase cp_rs2 (Test source rs2 = x13)
  RVTEST_TESTDATA_LOAD_INT(x10, x25) # load rs1: x25 = 0x26dd3cfe
     840:	00052c83          	lw	x25,0(x10)
     844:	00450513          	addi	x10,x10,4
  RVTEST_TESTDATA_LOAD_INT(x10, x13) # load rs2: x13 = 0x6b996319
     848:	00052683          	lw	x13,0(x10)
     84c:	00450513          	addi	x10,x10,4

00000850 <I_add_cg_cp_rs2_b13>:
I_add_cg_cp_rs2_b13:
  add x28, x25, x13 # perform operation
     850:	00dc8e33          	add	x28,x25,x13
  # Check if x28 contains the expected result. x21 is the signature ptr, x8 is the link ptr, x7 is a temp reg.
  RVTEST_SIGUPD(x21, x8, x7, x28, I_add_cg_cp_rs2_b13, I_add_cg_cp_rs2_b13_str)
     854:	000aa383          	lw	x7,0(x21)
     858:	01c38863          	beq	x7,x28,868 <I_add_cg_cp_rs2_b13+0x18>
     85c:	4790346f          	jal	x8,44d4 <failedtest_x8_x7>
     860:	00000850          	.word	0x00000850
     864:	00009576          	.word	0x00009576
     868:	004a8a93          	addi	x21,x21,4

# Testcase cp_rs2 (Test source rs2 = x14)
  RVTEST_TESTDATA_LOAD_INT(x10, x27) # load rs1: x27 = 0xfb73cb6c
     86c:	00052d83          	lw	x27,0(x10)
     870:	00450513          	addi	x10,x10,4
  RVTEST_TESTDATA_LOAD_INT(x10, x14) # load rs2: x14 = 0x4141f5f9
     874:	00052703          	lw	x14,0(x10)
     878:	00450513          	addi	x10,x10,4

0000087c <I_add_cg_cp_rs2_b14>:
I_add_cg_cp_rs2_b14:
  add x6, x27, x14 # perform operation
     87c:	00ed8333          	add	x6,x27,x14
  # Check if x6 contains the expected result. x21 is the signature ptr, x8 is the link ptr, x7 is a temp reg.
  RVTEST_SIGUPD(x21, x8, x7, x6, I_add_cg_cp_rs2_b14, I_add_cg_cp_rs2_b14_str)
     880:	000aa383          	lw	x7,0(x21)
     884:	00638863          	beq	x7,x6,894 <I_add_cg_cp_rs2_b14+0x18>
     888:	44d0346f          	jal	x8,44d4 <failedtest_x8_x7>
     88c:	0000087c          	.word	0x0000087c
     890:	000095a5          	.word	0x000095a5
     894:	004a8a93          	addi	x21,x21,4

# Testcase cp_rs2 (Test source rs2 = x15)
  RVTEST_TESTDATA_LOAD_INT(x10, x9) # load rs1: x9 = 0x05cc7e6b
     898:	00052483          	lw	x9,0(x10)
     89c:	00450513          	addi	x10,x10,4
  RVTEST_TESTDATA_LOAD_INT(x10, x15) # load rs2: x15 = 0xb757937f
     8a0:	00052783          	lw	x15,0(x10)
     8a4:	00450513          	addi	x10,x10,4

000008a8 <I_add_cg_cp_rs2_b15>:
I_add_cg_cp_rs2_b15:
  add x31, x9, x15 # perform operation
     8a8:	00f48fb3          	add	x31,x9,x15
  # Check if x31 contains the expected result. x21 is the signature ptr, x8 is the link ptr, x7 is a temp reg.
  RVTEST_SIGUPD(x21, x8, x7, x31, I_add_cg_cp_rs2_b15, I_add_cg_cp_rs2_b15_str)
     8ac:	000aa383          	lw	x7,0(x21)
     8b0:	01f38863          	beq	x7,x31,8c0 <I_add_cg_cp_rs2_b15+0x18>
     8b4:	4210346f          	jal	x8,44d4 <failedtest_x8_x7>
     8b8:	000008a8          	.word	0x000008a8
     8bc:	000095d4          	.word	0x000095d4
     8c0:	004a8a93          	addi	x21,x21,4

# Testcase cp_rs2 (Test source rs2 = x16)
  RVTEST_TESTDATA_LOAD_INT(x10, x5) # load rs1: x5 = 0xb15b6fef
     8c4:	00052283          	lw	x5,0(x10)
     8c8:	00450513          	addi	x10,x10,4
  RVTEST_TESTDATA_LOAD_INT(x10, x16) # load rs2: x16 = 0xc7966030
     8cc:	00052803          	lw	x16,0(x10)
     8d0:	00450513          	addi	x10,x10,4

000008d4 <I_add_cg_cp_rs2_b16>:
I_add_cg_cp_rs2_b16:
  add x13, x5, x16 # perform operation
     8d4:	010286b3          	add	x13,x5,x16
  # Check if x13 contains the expected result. x21 is the signature ptr, x8 is the link ptr, x7 is a temp reg.
  RVTEST_SIGUPD(x21, x8, x7, x13, I_add_cg_cp_rs2_b16, I_add_cg_cp_rs2_b16_str)
     8d8:	000aa383          	lw	x7,0(x21)
     8dc:	00d38863          	beq	x7,x13,8ec <I_add_cg_cp_rs2_b16+0x18>
     8e0:	3f50346f          	jal	x8,44d4 <failedtest_x8_x7>
     8e4:	000008d4          	.word	0x000008d4
     8e8:	00009603          	.word	0x00009603
     8ec:	004a8a93          	addi	x21,x21,4

# Testcase cp_rs2 (Test source rs2 = x17)
  RVTEST_TESTDATA_LOAD_INT(x10, x14) # load rs1: x14 = 0xa4571a9b
     8f0:	00052703          	lw	x14,0(x10)
     8f4:	00450513          	addi	x10,x10,4
  RVTEST_TESTDATA_LOAD_INT(x10, x17) # load rs2: x17 = 0x3f00be87
     8f8:	00052883          	lw	x17,0(x10)
     8fc:	00450513          	addi	x10,x10,4

00000900 <I_add_cg_cp_rs2_b17>:
I_add_cg_cp_rs2_b17:
  add x16, x14, x17 # perform operation
     900:	01170833          	add	x16,x14,x17
  # Check if x16 contains the expected result. x21 is the signature ptr, x8 is the link ptr, x7 is a temp reg.
  RVTEST_SIGUPD(x21, x8, x7, x16, I_add_cg_cp_rs2_b17, I_add_cg_cp_rs2_b17_str)
     904:	000aa383          	lw	x7,0(x21)
     908:	01038863          	beq	x7,x16,918 <I_add_cg_cp_rs2_b17+0x18>
     90c:	3c90346f          	jal	x8,44d4 <failedtest_x8_x7>
     910:	00000900          	.word	0x00000900
     914:	00009632          	.word	0x00009632
     918:	004a8a93          	addi	x21,x21,4

# Testcase cp_rs2 (Test source rs2 = x18)
  RVTEST_TESTDATA_LOAD_INT(x10, x5) # load rs1: x5 = 0xbce3e7fb
     91c:	00052283          	lw	x5,0(x10)
     920:	00450513          	addi	x10,x10,4
  RVTEST_TESTDATA_LOAD_INT(x10, x18) # load rs2: x18 = 0xeeda0414
     924:	00052903          	lw	x18,0(x10)
     928:	00450513          	addi	x10,x10,4

0000092c <I_add_cg_cp_rs2_b18>:
I_add_cg_cp_rs2_b18:
  add x11, x5, x18 # perform operation
     92c:	012285b3          	add	x11,x5,x18
  # Check if x11 contains the expected result. x21 is the signature ptr, x8 is the link ptr, x7 is a temp reg.
  RVTEST_SIGUPD(x21, x8, x7, x11, I_add_cg_cp_rs2_b18, I_add_cg_cp_rs2_b18_str)
     930:	000aa383          	lw	x7,0(x21)
     934:	00b38863          	beq	x7,x11,944 <I_add_cg_cp_rs2_b18+0x18>
     938:	39d0346f          	jal	x8,44d4 <failedtest_x8_x7>
     93c:	0000092c          	.word	0x0000092c
     940:	00009661          	.word	0x00009661
     944:	004a8a93          	addi	x21,x21,4

# Testcase cp_rs2 (Test source rs2 = x19)
  RVTEST_TESTDATA_LOAD_INT(x10, x17) # load rs1: x17 = 0x7006b21d
     948:	00052883          	lw	x17,0(x10)
     94c:	00450513          	addi	x10,x10,4
  RVTEST_TESTDATA_LOAD_INT(x10, x19) # load rs2: x19 = 0x9f384bd6
     950:	00052983          	lw	x19,0(x10)
     954:	00450513          	addi	x10,x10,4

00000958 <I_add_cg_cp_rs2_b19>:
I_add_cg_cp_rs2_b19:
  add x13, x17, x19 # perform operation
     958:	013886b3          	add	x13,x17,x19
  # Check if x13 contains the expected result. x21 is the signature ptr, x8 is the link ptr, x7 is a temp reg.
  RVTEST_SIGUPD(x21, x8, x7, x13, I_add_cg_cp_rs2_b19, I_add_cg_cp_rs2_b19_str)
     95c:	000aa383          	lw	x7,0(x21)
     960:	00d38863          	beq	x7,x13,970 <I_add_cg_cp_rs2_b19+0x18>
     964:	3710346f          	jal	x8,44d4 <failedtest_x8_x7>
     968:	00000958          	.word	0x00000958
     96c:	00009690          	.word	0x00009690
     970:	004a8a93          	addi	x21,x21,4

# Testcase cp_rs2 (Test source rs2 = x20)
  RVTEST_TESTDATA_LOAD_INT(x10, x11) # load rs1: x11 = 0x44d0ddfc
     974:	00052583          	lw	x11,0(x10)
     978:	00450513          	addi	x10,x10,4
  RVTEST_TESTDATA_LOAD_INT(x10, x20) # load rs2: x20 = 0x04beb586
     97c:	00052a03          	lw	x20,0(x10)
     980:	00450513          	addi	x10,x10,4

00000984 <I_add_cg_cp_rs2_b20>:
I_add_cg_cp_rs2_b20:
  add x12, x11, x20 # perform operation
     984:	01458633          	add	x12,x11,x20
  # Check if x12 contains the expected result. x21 is the signature ptr, x8 is the link ptr, x7 is a temp reg.
  RVTEST_SIGUPD(x21, x8, x7, x12, I_add_cg_cp_rs2_b20, I_add_cg_cp_rs2_b20_str)
     988:	000aa383          	lw	x7,0(x21)
     98c:	00c38863          	beq	x7,x12,99c <I_add_cg_cp_rs2_b20+0x18>
     990:	3450346f          	jal	x8,44d4 <failedtest_x8_x7>
     994:	00000984          	.word	0x00000984
     998:	000096bf          	.word	0x000096bf
     99c:	004a8a93          	addi	x21,x21,4

  mv x12, x21 # switch signature pointer register to avoid conflict with test
     9a0:	000a8613          	addi	x12,x21,0
# Testcase cp_rs2 (Test source rs2 = x21)
  RVTEST_TESTDATA_LOAD_INT(x10, x20) # load rs1: x20 = 0xd639a8ad
     9a4:	00052a03          	lw	x20,0(x10)
     9a8:	00450513          	addi	x10,x10,4
  RVTEST_TESTDATA_LOAD_INT(x10, x21) # load rs2: x21 = 0xf83a4f86
     9ac:	00052a83          	lw	x21,0(x10)
     9b0:	00450513          	addi	x10,x10,4

000009b4 <I_add_cg_cp_rs2_b21>:
I_add_cg_cp_rs2_b21:
  add x2, x20, x21 # perform operation
     9b4:	015a0133          	add	x2,x20,x21
  # Check if x2 contains the expected result. x12 is the signature ptr, x8 is the link ptr, x7 is a temp reg.
  RVTEST_SIGUPD(x12, x8, x7, x2, I_add_cg_cp_rs2_b21, I_add_cg_cp_rs2_b21_str)
     9b8:	00062383          	lw	x7,0(x12)
     9bc:	00238863          	beq	x7,x2,9cc <I_add_cg_cp_rs2_b21+0x18>
     9c0:	3150346f          	jal	x8,44d4 <failedtest_x8_x7>
     9c4:	000009b4          	.word	0x000009b4
     9c8:	000096ee          	.word	0x000096ee
     9cc:	00460613          	addi	x12,x12,4

# Testcase cp_rs2 (Test source rs2 = x22)
  RVTEST_TESTDATA_LOAD_INT(x10, x23) # load rs1: x23 = 0x4a9cd9de
     9d0:	00052b83          	lw	x23,0(x10)
     9d4:	00450513          	addi	x10,x10,4
  RVTEST_TESTDATA_LOAD_INT(x10, x22) # load rs2: x22 = 0x714599fc
     9d8:	00052b03          	lw	x22,0(x10)
     9dc:	00450513          	addi	x10,x10,4

000009e0 <I_add_cg_cp_rs2_b22>:
I_add_cg_cp_rs2_b22:
  add x30, x23, x22 # perform operation
     9e0:	016b8f33          	add	x30,x23,x22
  # Check if x30 contains the expected result. x12 is the signature ptr, x8 is the link ptr, x7 is a temp reg.
  RVTEST_SIGUPD(x12, x8, x7, x30, I_add_cg_cp_rs2_b22, I_add_cg_cp_rs2_b22_str)
     9e4:	00062383          	lw	x7,0(x12)
     9e8:	01e38863          	beq	x7,x30,9f8 <I_add_cg_cp_rs2_b22+0x18>
     9ec:	2e90346f          	jal	x8,44d4 <failedtest_x8_x7>
     9f0:	000009e0          	.word	0x000009e0
     9f4:	0000971d          	.word	0x0000971d
     9f8:	00460613          	addi	x12,x12,4

# Testcase cp_rs2 (Test source rs2 = x23)
  RVTEST_TESTDATA_LOAD_INT(x10, x30) # load rs1: x30 = 0xf21bdfcf
     9fc:	00052f03          	lw	x30,0(x10)
     a00:	00450513          	addi	x10,x10,4
  RVTEST_TESTDATA_LOAD_INT(x10, x23) # load rs2: x23 = 0xa93f47cc
     a04:	00052b83          	lw	x23,0(x10)
     a08:	00450513          	addi	x10,x10,4

00000a0c <I_add_cg_cp_rs2_b23>:
I_add_cg_cp_rs2_b23:
  add x27, x30, x23 # perform operation
     a0c:	017f0db3          	add	x27,x30,x23
  # Check if x27 contains the expected result. x12 is the signature ptr, x8 is the link ptr, x7 is a temp reg.
  RVTEST_SIGUPD(x12, x8, x7, x27, I_add_cg_cp_rs2_b23, I_add_cg_cp_rs2_b23_str)
     a10:	00062383          	lw	x7,0(x12)
     a14:	01b38863          	beq	x7,x27,a24 <I_add_cg_cp_rs2_b23+0x18>
     a18:	2bd0346f          	jal	x8,44d4 <failedtest_x8_x7>
     a1c:	00000a0c          	.word	0x00000a0c
     a20:	0000974c          	.word	0x0000974c
     a24:	00460613          	addi	x12,x12,4

# Testcase cp_rs2 (Test source rs2 = x24)
  RVTEST_TESTDATA_LOAD_INT(x10, x30) # load rs1: x30 = 0x5fcf6182
     a28:	00052f03          	lw	x30,0(x10)
     a2c:	00450513          	addi	x10,x10,4
  RVTEST_TESTDATA_LOAD_INT(x10, x24) # load rs2: x24 = 0x07d2aa1e
     a30:	00052c03          	lw	x24,0(x10)
     a34:	00450513          	addi	x10,x10,4

00000a38 <I_add_cg_cp_rs2_b24>:
I_add_cg_cp_rs2_b24:
  add x13, x30, x24 # perform operation
     a38:	018f06b3          	add	x13,x30,x24
  # Check if x13 contains the expected result. x12 is the signature ptr, x8 is the link ptr, x7 is a temp reg.
  RVTEST_SIGUPD(x12, x8, x7, x13, I_add_cg_cp_rs2_b24, I_add_cg_cp_rs2_b24_str)
     a3c:	00062383          	lw	x7,0(x12)
     a40:	00d38863          	beq	x7,x13,a50 <I_add_cg_cp_rs2_b24+0x18>
     a44:	2910346f          	jal	x8,44d4 <failedtest_x8_x7>
     a48:	00000a38          	.word	0x00000a38
     a4c:	0000977b          	.word	0x0000977b
     a50:	00460613          	addi	x12,x12,4

# Testcase cp_rs2 (Test source rs2 = x25)
  RVTEST_TESTDATA_LOAD_INT(x10, x27) # load rs1: x27 = 0xda7f969f
     a54:	00052d83          	lw	x27,0(x10)
     a58:	00450513          	addi	x10,x10,4
  RVTEST_TESTDATA_LOAD_INT(x10, x25) # load rs2: x25 = 0xbcef98f6
     a5c:	00052c83          	lw	x25,0(x10)
     a60:	00450513          	addi	x10,x10,4

00000a64 <I_add_cg_cp_rs2_b25>:
I_add_cg_cp_rs2_b25:
  add x29, x27, x25 # perform operation
     a64:	019d8eb3          	add	x29,x27,x25
  # Check if x29 contains the expected result. x12 is the signature ptr, x8 is the link ptr, x7 is a temp reg.
  RVTEST_SIGUPD(x12, x8, x7, x29, I_add_cg_cp_rs2_b25, I_add_cg_cp_rs2_b25_str)
     a68:	00062383          	lw	x7,0(x12)
     a6c:	01d38863          	beq	x7,x29,a7c <I_add_cg_cp_rs2_b25+0x18>
     a70:	2650346f          	jal	x8,44d4 <failedtest_x8_x7>
     a74:	00000a64          	.word	0x00000a64
     a78:	000097aa          	.word	0x000097aa
     a7c:	00460613          	addi	x12,x12,4

# Testcase cp_rs2 (Test source rs2 = x26)
  RVTEST_TESTDATA_LOAD_INT(x10, x13) # load rs1: x13 = 0xccb5eb7b
     a80:	00052683          	lw	x13,0(x10)
     a84:	00450513          	addi	x10,x10,4
  RVTEST_TESTDATA_LOAD_INT(x10, x26) # load rs2: x26 = 0xe2485bb0
     a88:	00052d03          	lw	x26,0(x10)
     a8c:	00450513          	addi	x10,x10,4

00000a90 <I_add_cg_cp_rs2_b26>:
I_add_cg_cp_rs2_b26:
  add x23, x13, x26 # perform operation
     a90:	01a68bb3          	add	x23,x13,x26
  # Check if x23 contains the expected result. x12 is the signature ptr, x8 is the link ptr, x7 is a temp reg.
  RVTEST_SIGUPD(x12, x8, x7, x23, I_add_cg_cp_rs2_b26, I_add_cg_cp_rs2_b26_str)
     a94:	00062383          	lw	x7,0(x12)
     a98:	01738863          	beq	x7,x23,aa8 <I_add_cg_cp_rs2_b26+0x18>
     a9c:	2390346f          	jal	x8,44d4 <failedtest_x8_x7>
     aa0:	00000a90          	.word	0x00000a90
     aa4:	000097d9          	.word	0x000097d9
     aa8:	00460613          	addi	x12,x12,4

# Testcase cp_rs2 (Test source rs2 = x27)
  RVTEST_TESTDATA_LOAD_INT(x10, x15) # load rs1: x15 = 0x971ed8e8
     aac:	00052783          	lw	x15,0(x10)
     ab0:	00450513          	addi	x10,x10,4
  RVTEST_TESTDATA_LOAD_INT(x10, x27) # load rs2: x27 = 0xbf9abc66
     ab4:	00052d83          	lw	x27,0(x10)
     ab8:	00450513          	addi	x10,x10,4

00000abc <I_add_cg_cp_rs2_b27>:
I_add_cg_cp_rs2_b27:
  add x18, x15, x27 # perform operation
     abc:	01b78933          	add	x18,x15,x27
  # Check if x18 contains the expected result. x12 is the signature ptr, x8 is the link ptr, x7 is a temp reg.
  RVTEST_SIGUPD(x12, x8, x7, x18, I_add_cg_cp_rs2_b27, I_add_cg_cp_rs2_b27_str)
     ac0:	00062383          	lw	x7,0(x12)
     ac4:	01238863          	beq	x7,x18,ad4 <I_add_cg_cp_rs2_b27+0x18>
     ac8:	20d0346f          	jal	x8,44d4 <failedtest_x8_x7>
     acc:	00000abc          	.word	0x00000abc
     ad0:	00009808          	.word	0x00009808
     ad4:	00460613          	addi	x12,x12,4

# Testcase cp_rs2 (Test source rs2 = x28)
  RVTEST_TESTDATA_LOAD_INT(x10, x24) # load rs1: x24 = 0x0217fb16
     ad8:	00052c03          	lw	x24,0(x10)
     adc:	00450513          	addi	x10,x10,4
  RVTEST_TESTDATA_LOAD_INT(x10, x28) # load rs2: x28 = 0x46b6bde5
     ae0:	00052e03          	lw	x28,0(x10)
     ae4:	00450513          	addi	x10,x10,4

00000ae8 <I_add_cg_cp_rs2_b28>:
I_add_cg_cp_rs2_b28:
  add x5, x24, x28 # perform operation
     ae8:	01cc02b3          	add	x5,x24,x28
  # Check if x5 contains the expected result. x12 is the signature ptr, x8 is the link ptr, x7 is a temp reg.
  RVTEST_SIGUPD(x12, x8, x7, x5, I_add_cg_cp_rs2_b28, I_add_cg_cp_rs2_b28_str)
     aec:	00062383          	lw	x7,0(x12)
     af0:	00538863          	beq	x7,x5,b00 <I_add_cg_cp_rs2_b28+0x18>
     af4:	1e10346f          	jal	x8,44d4 <failedtest_x8_x7>
     af8:	00000ae8          	.word	0x00000ae8
     afc:	00009837          	.word	0x00009837
     b00:	00460613          	addi	x12,x12,4

# Testcase cp_rs2 (Test source rs2 = x29)
  RVTEST_TESTDATA_LOAD_INT(x10, x16) # load rs1: x16 = 0x14f03448
     b04:	00052803          	lw	x16,0(x10)
     b08:	00450513          	addi	x10,x10,4
  RVTEST_TESTDATA_LOAD_INT(x10, x29) # load rs2: x29 = 0x62a240ed
     b0c:	00052e83          	lw	x29,0(x10)
     b10:	00450513          	addi	x10,x10,4

00000b14 <I_add_cg_cp_rs2_b29>:
I_add_cg_cp_rs2_b29:
  add x13, x16, x29 # perform operation
     b14:	01d806b3          	add	x13,x16,x29
  # Check if x13 contains the expected result. x12 is the signature ptr, x8 is the link ptr, x7 is a temp reg.
  RVTEST_SIGUPD(x12, x8, x7, x13, I_add_cg_cp_rs2_b29, I_add_cg_cp_rs2_b29_str)
     b18:	00062383          	lw	x7,0(x12)
     b1c:	00d38863          	beq	x7,x13,b2c <I_add_cg_cp_rs2_b29+0x18>
     b20:	1b50346f          	jal	x8,44d4 <failedtest_x8_x7>
     b24:	00000b14          	.word	0x00000b14
     b28:	00009866          	.word	0x00009866
     b2c:	00460613          	addi	x12,x12,4

# Testcase cp_rs2 (Test source rs2 = x30)
  RVTEST_TESTDATA_LOAD_INT(x10, x15) # load rs1: x15 = 0x0aac8f33
     b30:	00052783          	lw	x15,0(x10)
     b34:	00450513          	addi	x10,x10,4
  RVTEST_TESTDATA_LOAD_INT(x10, x30) # load rs2: x30 = 0xd5fe5f7c
     b38:	00052f03          	lw	x30,0(x10)
     b3c:	00450513          	addi	x10,x10,4

00000b40 <I_add_cg_cp_rs2_b30>:
I_add_cg_cp_rs2_b30:
  add x31, x15, x30 # perform operation
     b40:	01e78fb3          	add	x31,x15,x30
  # Check if x31 contains the expected result. x12 is the signature ptr, x8 is the link ptr, x7 is a temp reg.
  RVTEST_SIGUPD(x12, x8, x7, x31, I_add_cg_cp_rs2_b30, I_add_cg_cp_rs2_b30_str)
     b44:	00062383          	lw	x7,0(x12)
     b48:	01f38863          	beq	x7,x31,b58 <I_add_cg_cp_rs2_b30+0x18>
     b4c:	1890346f          	jal	x8,44d4 <failedtest_x8_x7>
     b50:	00000b40          	.word	0x00000b40
     b54:	00009895          	.word	0x00009895
     b58:	00460613          	addi	x12,x12,4

# Testcase cp_rs2 (Test source rs2 = x31)
  RVTEST_TESTDATA_LOAD_INT(x10, x15) # load rs1: x15 = 0x56e80caa
     b5c:	00052783          	lw	x15,0(x10)
     b60:	00450513          	addi	x10,x10,4
  RVTEST_TESTDATA_LOAD_INT(x10, x31) # load rs2: x31 = 0xab3bd44d
     b64:	00052f83          	lw	x31,0(x10)
     b68:	00450513          	addi	x10,x10,4

00000b6c <I_add_cg_cp_rs2_b31>:
I_add_cg_cp_rs2_b31:
  add x26, x15, x31 # perform operation
     b6c:	01f78d33          	add	x26,x15,x31
  # Check if x26 contains the expected result. x12 is the signature ptr, x8 is the link ptr, x7 is a temp reg.
  RVTEST_SIGUPD(x12, x8, x7, x26, I_add_cg_cp_rs2_b31, I_add_cg_cp_rs2_b31_str)
     b70:	00062383          	lw	x7,0(x12)
     b74:	01a38863          	beq	x7,x26,b84 <I_add_cg_cp_rs2_b31+0x18>
     b78:	15d0346f          	jal	x8,44d4 <failedtest_x8_x7>
     b7c:	00000b6c          	.word	0x00000b6c
     b80:	000098c4          	.word	0x000098c4
     b84:	00460613          	addi	x12,x12,4
/////////////////////////////////
// cp_rd
/////////////////////////////////

# Testcase cp_rd (Test destination rd = x0)
  RVTEST_TESTDATA_LOAD_INT(x10, x23) # load rs1: x23 = 0xc1d58273
     b88:	00052b83          	lw	x23,0(x10)
     b8c:	00450513          	addi	x10,x10,4
  RVTEST_TESTDATA_LOAD_INT(x10, x4) # load rs2: x4 = 0xe7ceb07b
     b90:	00052203          	lw	x4,0(x10)
     b94:	00450513          	addi	x10,x10,4

00000b98 <I_add_cg_cp_rd_b0>:
I_add_cg_cp_rd_b0:
  add x0, x23, x4 # perform operation
     b98:	004b8033          	add	x0,x23,x4
  # Check if x0 contains the expected result. x12 is the signature ptr, x8 is the link ptr, x7 is a temp reg.
  RVTEST_SIGUPD(x12, x8, x7, x0, I_add_cg_cp_rd_b0, I_add_cg_cp_rd_b0_str)
     b9c:	00062383          	lw	x7,0(x12)
     ba0:	00038863          	beq	x7,x0,bb0 <I_add_cg_cp_rd_b0+0x18>
     ba4:	1310346f          	jal	x8,44d4 <failedtest_x8_x7>
     ba8:	00000b98          	.word	0x00000b98
     bac:	000098f3          	.word	0x000098f3
     bb0:	00460613          	addi	x12,x12,4

# Testcase cp_rd (Test destination rd = x1)
  RVTEST_TESTDATA_LOAD_INT(x10, x29) # load rs1: x29 = 0x9bfbf146
     bb4:	00052e83          	lw	x29,0(x10)
     bb8:	00450513          	addi	x10,x10,4
  RVTEST_TESTDATA_LOAD_INT(x10, x25) # load rs2: x25 = 0xf9444983
     bbc:	00052c83          	lw	x25,0(x10)
     bc0:	00450513          	addi	x10,x10,4

00000bc4 <I_add_cg_cp_rd_b1>:
I_add_cg_cp_rd_b1:
  add x1, x29, x25 # perform operation
     bc4:	019e80b3          	add	x1,x29,x25
  # Check if x1 contains the expected result. x12 is the signature ptr, x8 is the link ptr, x7 is a temp reg.
  RVTEST_SIGUPD(x12, x8, x7, x1, I_add_cg_cp_rd_b1, I_add_cg_cp_rd_b1_str)
     bc8:	00062383          	lw	x7,0(x12)
     bcc:	00138863          	beq	x7,x1,bdc <I_add_cg_cp_rd_b1+0x18>
     bd0:	1050346f          	jal	x8,44d4 <failedtest_x8_x7>
     bd4:	00000bc4          	.word	0x00000bc4
     bd8:	00009920          	.word	0x00009920
     bdc:	00460613          	addi	x12,x12,4

# Testcase cp_rd (Test destination rd = x2)
  RVTEST_TESTDATA_LOAD_INT(x10, x27) # load rs1: x27 = 0x13190cdb
     be0:	00052d83          	lw	x27,0(x10)
     be4:	00450513          	addi	x10,x10,4
  RVTEST_TESTDATA_LOAD_INT(x10, x31) # load rs2: x31 = 0x1796c960
     be8:	00052f83          	lw	x31,0(x10)
     bec:	00450513          	addi	x10,x10,4

00000bf0 <I_add_cg_cp_rd_b2>:
I_add_cg_cp_rd_b2:
  add x2, x27, x31 # perform operation
     bf0:	01fd8133          	add	x2,x27,x31
  # Check if x2 contains the expected result. x12 is the signature ptr, x8 is the link ptr, x7 is a temp reg.
  RVTEST_SIGUPD(x12, x8, x7, x2, I_add_cg_cp_rd_b2, I_add_cg_cp_rd_b2_str)
     bf4:	00062383          	lw	x7,0(x12)
     bf8:	00238863          	beq	x7,x2,c08 <I_add_cg_cp_rd_b2+0x18>
     bfc:	0d90346f          	jal	x8,44d4 <failedtest_x8_x7>
     c00:	00000bf0          	.word	0x00000bf0
     c04:	0000994d          	.word	0x0000994d
     c08:	00460613          	addi	x12,x12,4

# Testcase cp_rd (Test destination rd = x3)
  RVTEST_TESTDATA_LOAD_INT(x10, x4) # load rs1: x4 = 0x9f8773de
     c0c:	00052203          	lw	x4,0(x10)
     c10:	00450513          	addi	x10,x10,4
  RVTEST_TESTDATA_LOAD_INT(x10, x29) # load rs2: x29 = 0x186da37b
     c14:	00052e83          	lw	x29,0(x10)
     c18:	00450513          	addi	x10,x10,4

00000c1c <I_add_cg_cp_rd_b3>:
I_add_cg_cp_rd_b3:
  add x3, x4, x29 # perform operation
     c1c:	01d201b3          	add	x3,x4,x29
  # Check if x3 contains the expected result. x12 is the signature ptr, x8 is the link ptr, x7 is a temp reg.
  RVTEST_SIGUPD(x12, x8, x7, x3, I_add_cg_cp_rd_b3, I_add_cg_cp_rd_b3_str)
     c20:	00062383          	lw	x7,0(x12)
     c24:	00338863          	beq	x7,x3,c34 <I_add_cg_cp_rd_b3+0x18>
     c28:	0ad0346f          	jal	x8,44d4 <failedtest_x8_x7>
     c2c:	00000c1c          	.word	0x00000c1c
     c30:	0000997a          	.word	0x0000997a
     c34:	00460613          	addi	x12,x12,4

# Testcase cp_rd (Test destination rd = x4)
  RVTEST_TESTDATA_LOAD_INT(x10, x20) # load rs1: x20 = 0xf1da32b9
     c38:	00052a03          	lw	x20,0(x10)
     c3c:	00450513          	addi	x10,x10,4
  RVTEST_TESTDATA_LOAD_INT(x10, x18) # load rs2: x18 = 0x3f9d2b53
     c40:	00052903          	lw	x18,0(x10)
     c44:	00450513          	addi	x10,x10,4

00000c48 <I_add_cg_cp_rd_b4>:
I_add_cg_cp_rd_b4:
  add x4, x20, x18 # perform operation
     c48:	012a0233          	add	x4,x20,x18
  # Check if x4 contains the expected result. x12 is the signature ptr, x8 is the link ptr, x7 is a temp reg.
  RVTEST_SIGUPD(x12, x8, x7, x4, I_add_cg_cp_rd_b4, I_add_cg_cp_rd_b4_str)
     c4c:	00062383          	lw	x7,0(x12)
     c50:	00438863          	beq	x7,x4,c60 <I_add_cg_cp_rd_b4+0x18>
     c54:	0810346f          	jal	x8,44d4 <failedtest_x8_x7>
     c58:	00000c48          	.word	0x00000c48
     c5c:	000099a7          	.word	0x000099a7
     c60:	00460613          	addi	x12,x12,4

# Testcase cp_rd (Test destination rd = x5)
  RVTEST_TESTDATA_LOAD_INT(x10, x17) # load rs1: x17 = 0xfcc9c425
     c64:	00052883          	lw	x17,0(x10)
     c68:	00450513          	addi	x10,x10,4
  RVTEST_TESTDATA_LOAD_INT(x10, x2) # load rs2: x2 = 0xb8a9e200
     c6c:	00052103          	lw	x2,0(x10)
     c70:	00450513          	addi	x10,x10,4

00000c74 <I_add_cg_cp_rd_b5>:
I_add_cg_cp_rd_b5:
  add x5, x17, x2 # perform operation
     c74:	002882b3          	add	x5,x17,x2
  # Check if x5 contains the expected result. x12 is the signature ptr, x8 is the link ptr, x7 is a temp reg.
  RVTEST_SIGUPD(x12, x8, x7, x5, I_add_cg_cp_rd_b5, I_add_cg_cp_rd_b5_str)
     c78:	00062383          	lw	x7,0(x12)
     c7c:	00538863          	beq	x7,x5,c8c <I_add_cg_cp_rd_b5+0x18>
     c80:	0550346f          	jal	x8,44d4 <failedtest_x8_x7>
     c84:	00000c74          	.word	0x00000c74
     c88:	000099d4          	.word	0x000099d4
     c8c:	00460613          	addi	x12,x12,4

# Testcase cp_rd (Test destination rd = x6)
  RVTEST_TESTDATA_LOAD_INT(x10, x28) # load rs1: x28 = 0x7f142f3d
     c90:	00052e03          	lw	x28,0(x10)
     c94:	00450513          	addi	x10,x10,4
  RVTEST_TESTDATA_LOAD_INT(x10, x15) # load rs2: x15 = 0x0c2a6a82
     c98:	00052783          	lw	x15,0(x10)
     c9c:	00450513          	addi	x10,x10,4

00000ca0 <I_add_cg_cp_rd_b6>:
I_add_cg_cp_rd_b6:
  add x6, x28, x15 # perform operation
     ca0:	00fe0333          	add	x6,x28,x15
  # Check if x6 contains the expected result. x12 is the signature ptr, x8 is the link ptr, x7 is a temp reg.
  RVTEST_SIGUPD(x12, x8, x7, x6, I_add_cg_cp_rd_b6, I_add_cg_cp_rd_b6_str)
     ca4:	00062383          	lw	x7,0(x12)
     ca8:	00638863          	beq	x7,x6,cb8 <I_add_cg_cp_rd_b6+0x18>
     cac:	0290346f          	jal	x8,44d4 <failedtest_x8_x7>
     cb0:	00000ca0          	.word	0x00000ca0
     cb4:	00009a01          	.word	0x00009a01
     cb8:	00460613          	addi	x12,x12,4

  mv x4, x7 # switch temp register to avoid conflict with test
     cbc:	00038213          	addi	x4,x7,0
  mv x5, x8 # switch link pointer register to avoid conflict with test
     cc0:	00040293          	addi	x5,x8,0
# Testcase cp_rd (Test destination rd = x7)
  RVTEST_TESTDATA_LOAD_INT(x10, x19) # load rs1: x19 = 0xb30ad053
     cc4:	00052983          	lw	x19,0(x10)
     cc8:	00450513          	addi	x10,x10,4
  RVTEST_TESTDATA_LOAD_INT(x10, x21) # load rs2: x21 = 0xa622a84c
     ccc:	00052a83          	lw	x21,0(x10)
     cd0:	00450513          	addi	x10,x10,4

00000cd4 <I_add_cg_cp_rd_b7>:
I_add_cg_cp_rd_b7:
  add x7, x19, x21 # perform operation
     cd4:	015983b3          	add	x7,x19,x21
  # Check if x7 contains the expected result. x12 is the signature ptr, x5 is the link ptr, x4 is a temp reg.
  RVTEST_SIGUPD(x12, x5, x4, x7, I_add_cg_cp_rd_b7, I_add_cg_cp_rd_b7_str)
     cd8:	00062203          	lw	x4,0(x12)
     cdc:	00720863          	beq	x4,x7,cec <I_add_cg_cp_rd_b7+0x18>
     ce0:	7dc032ef          	jal	x5,44bc <failedtest_x5_x4>
     ce4:	00000cd4          	.word	0x00000cd4
     ce8:	00009a2e          	.word	0x00009a2e
     cec:	00460613          	addi	x12,x12,4

# Testcase cp_rd (Test destination rd = x8)
  RVTEST_TESTDATA_LOAD_INT(x10, x30) # load rs1: x30 = 0xc4d6907c
     cf0:	00052f03          	lw	x30,0(x10)
     cf4:	00450513          	addi	x10,x10,4
  RVTEST_TESTDATA_LOAD_INT(x10, x20) # load rs2: x20 = 0x8fde06b7
     cf8:	00052a03          	lw	x20,0(x10)
     cfc:	00450513          	addi	x10,x10,4

00000d00 <I_add_cg_cp_rd_b8>:
I_add_cg_cp_rd_b8:
  add x8, x30, x20 # perform operation
     d00:	014f0433          	add	x8,x30,x20
  # Check if x8 contains the expected result. x12 is the signature ptr, x5 is the link ptr, x4 is a temp reg.
  RVTEST_SIGUPD(x12, x5, x4, x8, I_add_cg_cp_rd_b8, I_add_cg_cp_rd_b8_str)
     d04:	00062203          	lw	x4,0(x12)
     d08:	00820863          	beq	x4,x8,d18 <I_add_cg_cp_rd_b8+0x18>
     d0c:	7b0032ef          	jal	x5,44bc <failedtest_x5_x4>
     d10:	00000d00          	.word	0x00000d00
     d14:	00009a5b          	.word	0x00009a5b
     d18:	00460613          	addi	x12,x12,4

# Testcase cp_rd (Test destination rd = x9)
  RVTEST_TESTDATA_LOAD_INT(x10, x20) # load rs1: x20 = 0x3188fc69
     d1c:	00052a03          	lw	x20,0(x10)
     d20:	00450513          	addi	x10,x10,4
  RVTEST_TESTDATA_LOAD_INT(x10, x29) # load rs2: x29 = 0xad50d179
     d24:	00052e83          	lw	x29,0(x10)
     d28:	00450513          	addi	x10,x10,4

00000d2c <I_add_cg_cp_rd_b9>:
I_add_cg_cp_rd_b9:
  add x9, x20, x29 # perform operation
     d2c:	01da04b3          	add	x9,x20,x29
  # Check if x9 contains the expected result. x12 is the signature ptr, x5 is the link ptr, x4 is a temp reg.
  RVTEST_SIGUPD(x12, x5, x4, x9, I_add_cg_cp_rd_b9, I_add_cg_cp_rd_b9_str)
     d30:	00062203          	lw	x4,0(x12)
     d34:	00920863          	beq	x4,x9,d44 <I_add_cg_cp_rd_b9+0x18>
     d38:	784032ef          	jal	x5,44bc <failedtest_x5_x4>
     d3c:	00000d2c          	.word	0x00000d2c
     d40:	00009a88          	.word	0x00009a88
     d44:	00460613          	addi	x12,x12,4

  mv x27, x10 # switch data pointer register to avoid conflict with test
     d48:	00050d93          	addi	x27,x10,0
# Testcase cp_rd (Test destination rd = x10)
  RVTEST_TESTDATA_LOAD_INT(x27, x31) # load rs1: x31 = 0x620b6023
     d4c:	000daf83          	lw	x31,0(x27)
     d50:	004d8d93          	addi	x27,x27,4
  RVTEST_TESTDATA_LOAD_INT(x27, x3) # load rs2: x3 = 0x698be42b
     d54:	000da183          	lw	x3,0(x27)
     d58:	004d8d93          	addi	x27,x27,4

00000d5c <I_add_cg_cp_rd_b10>:
I_add_cg_cp_rd_b10:
  add x10, x31, x3 # perform operation
     d5c:	003f8533          	add	x10,x31,x3
  # Check if x10 contains the expected result. x12 is the signature ptr, x5 is the link ptr, x4 is a temp reg.
  RVTEST_SIGUPD(x12, x5, x4, x10, I_add_cg_cp_rd_b10, I_add_cg_cp_rd_b10_str)
     d60:	00062203          	lw	x4,0(x12)
     d64:	00a20863          	beq	x4,x10,d74 <I_add_cg_cp_rd_b10+0x18>
     d68:	754032ef          	jal	x5,44bc <failedtest_x5_x4>
     d6c:	00000d5c          	.word	0x00000d5c
     d70:	00009ab5          	.word	0x00009ab5
     d74:	00460613          	addi	x12,x12,4

# Testcase cp_rd (Test destination rd = x11)
  RVTEST_TESTDATA_LOAD_INT(x27, x10) # load rs1: x10 = 0xf21e100d
     d78:	000da503          	lw	x10,0(x27)
     d7c:	004d8d93          	addi	x27,x27,4
  RVTEST_TESTDATA_LOAD_INT(x27, x8) # load rs2: x8 = 0xf30d76e6
     d80:	000da403          	lw	x8,0(x27)
     d84:	004d8d93          	addi	x27,x27,4

00000d88 <I_add_cg_cp_rd_b11>:
I_add_cg_cp_rd_b11:
  add x11, x10, x8 # perform operation
     d88:	008505b3          	add	x11,x10,x8
  # Check if x11 contains the expected result. x12 is the signature ptr, x5 is the link ptr, x4 is a temp reg.
  RVTEST_SIGUPD(x12, x5, x4, x11, I_add_cg_cp_rd_b11, I_add_cg_cp_rd_b11_str)
     d8c:	00062203          	lw	x4,0(x12)
     d90:	00b20863          	beq	x4,x11,da0 <I_add_cg_cp_rd_b11+0x18>
     d94:	728032ef          	jal	x5,44bc <failedtest_x5_x4>
     d98:	00000d88          	.word	0x00000d88
     d9c:	00009ae3          	.word	0x00009ae3
     da0:	00460613          	addi	x12,x12,4

  mv x15, x12 # switch signature pointer register to avoid conflict with test
     da4:	00060793          	addi	x15,x12,0
# Testcase cp_rd (Test destination rd = x12)
  RVTEST_TESTDATA_LOAD_INT(x27, x19) # load rs1: x19 = 0x16b85b2a
     da8:	000da983          	lw	x19,0(x27)
     dac:	004d8d93          	addi	x27,x27,4
  RVTEST_TESTDATA_LOAD_INT(x27, x25) # load rs2: x25 = 0x86e9a98e
     db0:	000dac83          	lw	x25,0(x27)
     db4:	004d8d93          	addi	x27,x27,4

00000db8 <I_add_cg_cp_rd_b12>:
I_add_cg_cp_rd_b12:
  add x12, x19, x25 # perform operation
     db8:	01998633          	add	x12,x19,x25
  # Check if x12 contains the expected result. x15 is the signature ptr, x5 is the link ptr, x4 is a temp reg.
  RVTEST_SIGUPD(x15, x5, x4, x12, I_add_cg_cp_rd_b12, I_add_cg_cp_rd_b12_str)
     dbc:	0007a203          	lw	x4,0(x15)
     dc0:	00c20863          	beq	x4,x12,dd0 <I_add_cg_cp_rd_b12+0x18>
     dc4:	6f8032ef          	jal	x5,44bc <failedtest_x5_x4>
     dc8:	00000db8          	.word	0x00000db8
     dcc:	00009b11          	.word	0x00009b11
     dd0:	00478793          	addi	x15,x15,4

# Testcase cp_rd (Test destination rd = x13)
  RVTEST_TESTDATA_LOAD_INT(x27, x17) # load rs1: x17 = 0x18fdab72
     dd4:	000da883          	lw	x17,0(x27)
     dd8:	004d8d93          	addi	x27,x27,4
  RVTEST_TESTDATA_LOAD_INT(x27, x0) # load rs2: x0 = 0xea2ffa7b
     ddc:	000da003          	lw	x0,0(x27)
     de0:	004d8d93          	addi	x27,x27,4

00000de4 <I_add_cg_cp_rd_b13>:
I_add_cg_cp_rd_b13:
  add x13, x17, x0 # perform operation
     de4:	000886b3          	add	x13,x17,x0
  # Check if x13 contains the expected result. x15 is the signature ptr, x5 is the link ptr, x4 is a temp reg.
  RVTEST_SIGUPD(x15, x5, x4, x13, I_add_cg_cp_rd_b13, I_add_cg_cp_rd_b13_str)
     de8:	0007a203          	lw	x4,0(x15)
     dec:	00d20863          	beq	x4,x13,dfc <I_add_cg_cp_rd_b13+0x18>
     df0:	6cc032ef          	jal	x5,44bc <failedtest_x5_x4>
     df4:	00000de4          	.word	0x00000de4
     df8:	00009b3f          	.word	0x00009b3f
     dfc:	00478793          	addi	x15,x15,4

# Testcase cp_rd (Test destination rd = x14)
  RVTEST_TESTDATA_LOAD_INT(x27, x12) # load rs1: x12 = 0x04507ba2
     e00:	000da603          	lw	x12,0(x27)
     e04:	004d8d93          	addi	x27,x27,4
  RVTEST_TESTDATA_LOAD_INT(x27, x22) # load rs2: x22 = 0xe1e6daa3
     e08:	000dab03          	lw	x22,0(x27)
     e0c:	004d8d93          	addi	x27,x27,4

00000e10 <I_add_cg_cp_rd_b14>:
I_add_cg_cp_rd_b14:
  add x14, x12, x22 # perform operation
     e10:	01660733          	add	x14,x12,x22
  # Check if x14 contains the expected result. x15 is the signature ptr, x5 is the link ptr, x4 is a temp reg.
  RVTEST_SIGUPD(x15, x5, x4, x14, I_add_cg_cp_rd_b14, I_add_cg_cp_rd_b14_str)
     e14:	0007a203          	lw	x4,0(x15)
     e18:	00e20863          	beq	x4,x14,e28 <I_add_cg_cp_rd_b14+0x18>
     e1c:	6a0032ef          	jal	x5,44bc <failedtest_x5_x4>
     e20:	00000e10          	.word	0x00000e10
     e24:	00009b6d          	.word	0x00009b6d
     e28:	00478793          	addi	x15,x15,4

  mv x6, x15 # switch signature pointer register to avoid conflict with test
     e2c:	00078313          	addi	x6,x15,0
# Testcase cp_rd (Test destination rd = x15)
  RVTEST_TESTDATA_LOAD_INT(x27, x9) # load rs1: x9 = 0xfa2dfb14
     e30:	000da483          	lw	x9,0(x27)
     e34:	004d8d93          	addi	x27,x27,4
  RVTEST_TESTDATA_LOAD_INT(x27, x13) # load rs2: x13 = 0x7f387275
     e38:	000da683          	lw	x13,0(x27)
     e3c:	004d8d93          	addi	x27,x27,4

00000e40 <I_add_cg_cp_rd_b15>:
I_add_cg_cp_rd_b15:
  add x15, x9, x13 # perform operation
     e40:	00d487b3          	add	x15,x9,x13
  # Check if x15 contains the expected result. x6 is the signature ptr, x5 is the link ptr, x4 is a temp reg.
  RVTEST_SIGUPD(x6, x5, x4, x15, I_add_cg_cp_rd_b15, I_add_cg_cp_rd_b15_str)
     e44:	00032203          	lw	x4,0(x6)
     e48:	00f20863          	beq	x4,x15,e58 <I_add_cg_cp_rd_b15+0x18>
     e4c:	670032ef          	jal	x5,44bc <failedtest_x5_x4>
     e50:	00000e40          	.word	0x00000e40
     e54:	00009b9b          	.word	0x00009b9b
     e58:	00430313          	addi	x6,x6,4

# Testcase cp_rd (Test destination rd = x16)
  RVTEST_TESTDATA_LOAD_INT(x27, x13) # load rs1: x13 = 0x452ddc23
     e5c:	000da683          	lw	x13,0(x27)
     e60:	004d8d93          	addi	x27,x27,4
  RVTEST_TESTDATA_LOAD_INT(x27, x19) # load rs2: x19 = 0x69a3c3e4
     e64:	000da983          	lw	x19,0(x27)
     e68:	004d8d93          	addi	x27,x27,4

00000e6c <I_add_cg_cp_rd_b16>:
I_add_cg_cp_rd_b16:
  add x16, x13, x19 # perform operation
     e6c:	01368833          	add	x16,x13,x19
  # Check if x16 contains the expected result. x6 is the signature ptr, x5 is the link ptr, x4 is a temp reg.
  RVTEST_SIGUPD(x6, x5, x4, x16, I_add_cg_cp_rd_b16, I_add_cg_cp_rd_b16_str)
     e70:	00032203          	lw	x4,0(x6)
     e74:	01020863          	beq	x4,x16,e84 <I_add_cg_cp_rd_b16+0x18>
     e78:	644032ef          	jal	x5,44bc <failedtest_x5_x4>
     e7c:	00000e6c          	.word	0x00000e6c
     e80:	00009bc9          	.word	0x00009bc9
     e84:	00430313          	addi	x6,x6,4

# Testcase cp_rd (Test destination rd = x17)
  RVTEST_TESTDATA_LOAD_INT(x27, x20) # load rs1: x20 = 0x0e2bd968
     e88:	000daa03          	lw	x20,0(x27)
     e8c:	004d8d93          	addi	x27,x27,4
  RVTEST_TESTDATA_LOAD_INT(x27, x7) # load rs2: x7 = 0x018da0ce
     e90:	000da383          	lw	x7,0(x27)
     e94:	004d8d93          	addi	x27,x27,4

00000e98 <I_add_cg_cp_rd_b17>:
I_add_cg_cp_rd_b17:
  add x17, x20, x7 # perform operation
     e98:	007a08b3          	add	x17,x20,x7
  # Check if x17 contains the expected result. x6 is the signature ptr, x5 is the link ptr, x4 is a temp reg.
  RVTEST_SIGUPD(x6, x5, x4, x17, I_add_cg_cp_rd_b17, I_add_cg_cp_rd_b17_str)
     e9c:	00032203          	lw	x4,0(x6)
     ea0:	01120863          	beq	x4,x17,eb0 <I_add_cg_cp_rd_b17+0x18>
     ea4:	618032ef          	jal	x5,44bc <failedtest_x5_x4>
     ea8:	00000e98          	.word	0x00000e98
     eac:	00009bf7          	.word	0x00009bf7
     eb0:	00430313          	addi	x6,x6,4

# Testcase cp_rd (Test destination rd = x18)
  RVTEST_TESTDATA_LOAD_INT(x27, x8) # load rs1: x8 = 0x83b6a059
     eb4:	000da403          	lw	x8,0(x27)
     eb8:	004d8d93          	addi	x27,x27,4
  RVTEST_TESTDATA_LOAD_INT(x27, x7) # load rs2: x7 = 0xbf25b0d1
     ebc:	000da383          	lw	x7,0(x27)
     ec0:	004d8d93          	addi	x27,x27,4

00000ec4 <I_add_cg_cp_rd_b18>:
I_add_cg_cp_rd_b18:
  add x18, x8, x7 # perform operation
     ec4:	00740933          	add	x18,x8,x7
  # Check if x18 contains the expected result. x6 is the signature ptr, x5 is the link ptr, x4 is a temp reg.
  RVTEST_SIGUPD(x6, x5, x4, x18, I_add_cg_cp_rd_b18, I_add_cg_cp_rd_b18_str)
     ec8:	00032203          	lw	x4,0(x6)
     ecc:	01220863          	beq	x4,x18,edc <I_add_cg_cp_rd_b18+0x18>
     ed0:	5ec032ef          	jal	x5,44bc <failedtest_x5_x4>
     ed4:	00000ec4          	.word	0x00000ec4
     ed8:	00009c25          	.word	0x00009c25
     edc:	00430313          	addi	x6,x6,4

# Testcase cp_rd (Test destination rd = x19)
  RVTEST_TESTDATA_LOAD_INT(x27, x7) # load rs1: x7 = 0xf8b159f8
     ee0:	000da383          	lw	x7,0(x27)
     ee4:	004d8d93          	addi	x27,x27,4
  RVTEST_TESTDATA_LOAD_INT(x27, x9) # load rs2: x9 = 0x906c4f43
     ee8:	000da483          	lw	x9,0(x27)
     eec:	004d8d93          	addi	x27,x27,4

00000ef0 <I_add_cg_cp_rd_b19>:
I_add_cg_cp_rd_b19:
  add x19, x7, x9 # perform operation
     ef0:	009389b3          	add	x19,x7,x9
  # Check if x19 contains the expected result. x6 is the signature ptr, x5 is the link ptr, x4 is a temp reg.
  RVTEST_SIGUPD(x6, x5, x4, x19, I_add_cg_cp_rd_b19, I_add_cg_cp_rd_b19_str)
     ef4:	00032203          	lw	x4,0(x6)
     ef8:	01320863          	beq	x4,x19,f08 <I_add_cg_cp_rd_b19+0x18>
     efc:	5c0032ef          	jal	x5,44bc <failedtest_x5_x4>
     f00:	00000ef0          	.word	0x00000ef0
     f04:	00009c53          	.word	0x00009c53
     f08:	00430313          	addi	x6,x6,4

# Testcase cp_rd (Test destination rd = x20)
  RVTEST_TESTDATA_LOAD_INT(x27, x25) # load rs1: x25 = 0x56fa2832
     f0c:	000dac83          	lw	x25,0(x27)
     f10:	004d8d93          	addi	x27,x27,4
  RVTEST_TESTDATA_LOAD_INT(x27, x30) # load rs2: x30 = 0xd70241be
     f14:	000daf03          	lw	x30,0(x27)
     f18:	004d8d93          	addi	x27,x27,4

00000f1c <I_add_cg_cp_rd_b20>:
I_add_cg_cp_rd_b20:
  add x20, x25, x30 # perform operation
     f1c:	01ec8a33          	add	x20,x25,x30
  # Check if x20 contains the expected result. x6 is the signature ptr, x5 is the link ptr, x4 is a temp reg.
  RVTEST_SIGUPD(x6, x5, x4, x20, I_add_cg_cp_rd_b20, I_add_cg_cp_rd_b20_str)
     f20:	00032203          	lw	x4,0(x6)
     f24:	01420863          	beq	x4,x20,f34 <I_add_cg_cp_rd_b20+0x18>
     f28:	594032ef          	jal	x5,44bc <failedtest_x5_x4>
     f2c:	00000f1c          	.word	0x00000f1c
     f30:	00009c81          	.word	0x00009c81
     f34:	00430313          	addi	x6,x6,4

# Testcase cp_rd (Test destination rd = x21)
  RVTEST_TESTDATA_LOAD_INT(x27, x23) # load rs1: x23 = 0x49bf4fdf
     f38:	000dab83          	lw	x23,0(x27)
     f3c:	004d8d93          	addi	x27,x27,4
  RVTEST_TESTDATA_LOAD_INT(x27, x20) # load rs2: x20 = 0xa3153a0c
     f40:	000daa03          	lw	x20,0(x27)
     f44:	004d8d93          	addi	x27,x27,4

00000f48 <I_add_cg_cp_rd_b21>:
I_add_cg_cp_rd_b21:
  add x21, x23, x20 # perform operation
     f48:	014b8ab3          	add	x21,x23,x20
  # Check if x21 contains the expected result. x6 is the signature ptr, x5 is the link ptr, x4 is a temp reg.
  RVTEST_SIGUPD(x6, x5, x4, x21, I_add_cg_cp_rd_b21, I_add_cg_cp_rd_b21_str)
     f4c:	00032203          	lw	x4,0(x6)
     f50:	01520863          	beq	x4,x21,f60 <I_add_cg_cp_rd_b21+0x18>
     f54:	568032ef          	jal	x5,44bc <failedtest_x5_x4>
     f58:	00000f48          	.word	0x00000f48
     f5c:	00009caf          	.word	0x00009caf
     f60:	00430313          	addi	x6,x6,4

# Testcase cp_rd (Test destination rd = x22)
  RVTEST_TESTDATA_LOAD_INT(x27, x16) # load rs1: x16 = 0xefcb5221
     f64:	000da803          	lw	x16,0(x27)
     f68:	004d8d93          	addi	x27,x27,4
  RVTEST_TESTDATA_LOAD_INT(x27, x21) # load rs2: x21 = 0xf2af9519
     f6c:	000daa83          	lw	x21,0(x27)
     f70:	004d8d93          	addi	x27,x27,4

00000f74 <I_add_cg_cp_rd_b22>:
I_add_cg_cp_rd_b22:
  add x22, x16, x21 # perform operation
     f74:	01580b33          	add	x22,x16,x21
  # Check if x22 contains the expected result. x6 is the signature ptr, x5 is the link ptr, x4 is a temp reg.
  RVTEST_SIGUPD(x6, x5, x4, x22, I_add_cg_cp_rd_b22, I_add_cg_cp_rd_b22_str)
     f78:	00032203          	lw	x4,0(x6)
     f7c:	01620863          	beq	x4,x22,f8c <I_add_cg_cp_rd_b22+0x18>
     f80:	53c032ef          	jal	x5,44bc <failedtest_x5_x4>
     f84:	00000f74          	.word	0x00000f74
     f88:	00009cdd          	.word	0x00009cdd
     f8c:	00430313          	addi	x6,x6,4

# Testcase cp_rd (Test destination rd = x23)
  RVTEST_TESTDATA_LOAD_INT(x27, x10) # load rs1: x10 = 0xfea8bcb4
     f90:	000da503          	lw	x10,0(x27)
     f94:	004d8d93          	addi	x27,x27,4
  RVTEST_TESTDATA_LOAD_INT(x27, x24) # load rs2: x24 = 0xf4430e4b
     f98:	000dac03          	lw	x24,0(x27)
     f9c:	004d8d93          	addi	x27,x27,4

00000fa0 <I_add_cg_cp_rd_b23>:
I_add_cg_cp_rd_b23:
  add x23, x10, x24 # perform operation
     fa0:	01850bb3          	add	x23,x10,x24
  # Check if x23 contains the expected result. x6 is the signature ptr, x5 is the link ptr, x4 is a temp reg.
  RVTEST_SIGUPD(x6, x5, x4, x23, I_add_cg_cp_rd_b23, I_add_cg_cp_rd_b23_str)
     fa4:	00032203          	lw	x4,0(x6)
     fa8:	01720863          	beq	x4,x23,fb8 <I_add_cg_cp_rd_b23+0x18>
     fac:	510032ef          	jal	x5,44bc <failedtest_x5_x4>
     fb0:	00000fa0          	.word	0x00000fa0
     fb4:	00009d0b          	.word	0x00009d0b
     fb8:	00430313          	addi	x6,x6,4

# Testcase cp_rd (Test destination rd = x24)
  RVTEST_TESTDATA_LOAD_INT(x27, x28) # load rs1: x28 = 0x886a1096
     fbc:	000dae03          	lw	x28,0(x27)
     fc0:	004d8d93          	addi	x27,x27,4
  RVTEST_TESTDATA_LOAD_INT(x27, x29) # load rs2: x29 = 0x2bd547b5
     fc4:	000dae83          	lw	x29,0(x27)
     fc8:	004d8d93          	addi	x27,x27,4

00000fcc <I_add_cg_cp_rd_b24>:
I_add_cg_cp_rd_b24:
  add x24, x28, x29 # perform operation
     fcc:	01de0c33          	add	x24,x28,x29
  # Check if x24 contains the expected result. x6 is the signature ptr, x5 is the link ptr, x4 is a temp reg.
  RVTEST_SIGUPD(x6, x5, x4, x24, I_add_cg_cp_rd_b24, I_add_cg_cp_rd_b24_str)
     fd0:	00032203          	lw	x4,0(x6)
     fd4:	01820863          	beq	x4,x24,fe4 <I_add_cg_cp_rd_b24+0x18>
     fd8:	4e4032ef          	jal	x5,44bc <failedtest_x5_x4>
     fdc:	00000fcc          	.word	0x00000fcc
     fe0:	00009d39          	.word	0x00009d39
     fe4:	00430313          	addi	x6,x6,4

# Testcase cp_rd (Test destination rd = x25)
  RVTEST_TESTDATA_LOAD_INT(x27, x14) # load rs1: x14 = 0xf61853a8
     fe8:	000da703          	lw	x14,0(x27)
     fec:	004d8d93          	addi	x27,x27,4
  RVTEST_TESTDATA_LOAD_INT(x27, x0) # load rs2: x0 = 0xdb6e0539
     ff0:	000da003          	lw	x0,0(x27)
     ff4:	004d8d93          	addi	x27,x27,4

00000ff8 <I_add_cg_cp_rd_b25>:
I_add_cg_cp_rd_b25:
  add x25, x14, x0 # perform operation
     ff8:	00070cb3          	add	x25,x14,x0
  # Check if x25 contains the expected result. x6 is the signature ptr, x5 is the link ptr, x4 is a temp reg.
  RVTEST_SIGUPD(x6, x5, x4, x25, I_add_cg_cp_rd_b25, I_add_cg_cp_rd_b25_str)
     ffc:	00032203          	lw	x4,0(x6)
    1000:	01920863          	beq	x4,x25,1010 <I_add_cg_cp_rd_b25+0x18>
    1004:	4b8032ef          	jal	x5,44bc <failedtest_x5_x4>
    1008:	00000ff8          	.word	0x00000ff8
    100c:	00009d67          	.word	0x00009d67
    1010:	00430313          	addi	x6,x6,4

# Testcase cp_rd (Test destination rd = x26)
  RVTEST_TESTDATA_LOAD_INT(x27, x15) # load rs1: x15 = 0x90cf6c7c
    1014:	000da783          	lw	x15,0(x27)
    1018:	004d8d93          	addi	x27,x27,4
  RVTEST_TESTDATA_LOAD_INT(x27, x28) # load rs2: x28 = 0xd14f98d9
    101c:	000dae03          	lw	x28,0(x27)
    1020:	004d8d93          	addi	x27,x27,4

00001024 <I_add_cg_cp_rd_b26>:
I_add_cg_cp_rd_b26:
  add x26, x15, x28 # perform operation
    1024:	01c78d33          	add	x26,x15,x28
  # Check if x26 contains the expected result. x6 is the signature ptr, x5 is the link ptr, x4 is a temp reg.
  RVTEST_SIGUPD(x6, x5, x4, x26, I_add_cg_cp_rd_b26, I_add_cg_cp_rd_b26_str)
    1028:	00032203          	lw	x4,0(x6)
    102c:	01a20863          	beq	x4,x26,103c <I_add_cg_cp_rd_b26+0x18>
    1030:	48c032ef          	jal	x5,44bc <failedtest_x5_x4>
    1034:	00001024          	.word	0x00001024
    1038:	00009d95          	.word	0x00009d95
    103c:	00430313          	addi	x6,x6,4

  mv x21, x27 # switch data pointer register to avoid conflict with test
    1040:	000d8a93          	addi	x21,x27,0
# Testcase cp_rd (Test destination rd = x27)
  RVTEST_TESTDATA_LOAD_INT(x21, x23) # load rs1: x23 = 0x3f00490f
    1044:	000aab83          	lw	x23,0(x21)
    1048:	004a8a93          	addi	x21,x21,4
  RVTEST_TESTDATA_LOAD_INT(x21, x0) # load rs2: x0 = 0xcd82a97a
    104c:	000aa003          	lw	x0,0(x21)
    1050:	004a8a93          	addi	x21,x21,4

00001054 <I_add_cg_cp_rd_b27>:
I_add_cg_cp_rd_b27:
  add x27, x23, x0 # perform operation
    1054:	000b8db3          	add	x27,x23,x0
  # Check if x27 contains the expected result. x6 is the signature ptr, x5 is the link ptr, x4 is a temp reg.
  RVTEST_SIGUPD(x6, x5, x4, x27, I_add_cg_cp_rd_b27, I_add_cg_cp_rd_b27_str)
    1058:	00032203          	lw	x4,0(x6)
    105c:	01b20863          	beq	x4,x27,106c <I_add_cg_cp_rd_b27+0x18>
    1060:	45c032ef          	jal	x5,44bc <failedtest_x5_x4>
    1064:	00001054          	.word	0x00001054
    1068:	00009dc3          	.word	0x00009dc3
    106c:	00430313          	addi	x6,x6,4

# Testcase cp_rd (Test destination rd = x28)
  RVTEST_TESTDATA_LOAD_INT(x21, x19) # load rs1: x19 = 0xdb55bce6
    1070:	000aa983          	lw	x19,0(x21)
    1074:	004a8a93          	addi	x21,x21,4
  RVTEST_TESTDATA_LOAD_INT(x21, x30) # load rs2: x30 = 0xb83d042f
    1078:	000aaf03          	lw	x30,0(x21)
    107c:	004a8a93          	addi	x21,x21,4

00001080 <I_add_cg_cp_rd_b28>:
I_add_cg_cp_rd_b28:
  add x28, x19, x30 # perform operation
    1080:	01e98e33          	add	x28,x19,x30
  # Check if x28 contains the expected result. x6 is the signature ptr, x5 is the link ptr, x4 is a temp reg.
  RVTEST_SIGUPD(x6, x5, x4, x28, I_add_cg_cp_rd_b28, I_add_cg_cp_rd_b28_str)
    1084:	00032203          	lw	x4,0(x6)
    1088:	01c20863          	beq	x4,x28,1098 <I_add_cg_cp_rd_b28+0x18>
    108c:	430032ef          	jal	x5,44bc <failedtest_x5_x4>
    1090:	00001080          	.word	0x00001080
    1094:	00009df1          	.word	0x00009df1
    1098:	00430313          	addi	x6,x6,4

# Testcase cp_rd (Test destination rd = x29)
  RVTEST_TESTDATA_LOAD_INT(x21, x1) # load rs1: x1 = 0x8b7b7bd7
    109c:	000aa083          	lw	x1,0(x21)
    10a0:	004a8a93          	addi	x21,x21,4
  RVTEST_TESTDATA_LOAD_INT(x21, x24) # load rs2: x24 = 0x21ccba0d
    10a4:	000aac03          	lw	x24,0(x21)
    10a8:	004a8a93          	addi	x21,x21,4

000010ac <I_add_cg_cp_rd_b29>:
I_add_cg_cp_rd_b29:
  add x29, x1, x24 # perform operation
    10ac:	01808eb3          	add	x29,x1,x24
  # Check if x29 contains the expected result. x6 is the signature ptr, x5 is the link ptr, x4 is a temp reg.
  RVTEST_SIGUPD(x6, x5, x4, x29, I_add_cg_cp_rd_b29, I_add_cg_cp_rd_b29_str)
    10b0:	00032203          	lw	x4,0(x6)
    10b4:	01d20863          	beq	x4,x29,10c4 <I_add_cg_cp_rd_b29+0x18>
    10b8:	404032ef          	jal	x5,44bc <failedtest_x5_x4>
    10bc:	000010ac          	.word	0x000010ac
    10c0:	00009e1f          	.word	0x00009e1f
    10c4:	00430313          	addi	x6,x6,4

# Testcase cp_rd (Test destination rd = x30)
  RVTEST_TESTDATA_LOAD_INT(x21, x11) # load rs1: x11 = 0xa01edcfa
    10c8:	000aa583          	lw	x11,0(x21)
    10cc:	004a8a93          	addi	x21,x21,4
  RVTEST_TESTDATA_LOAD_INT(x21, x20) # load rs2: x20 = 0x3350bfef
    10d0:	000aaa03          	lw	x20,0(x21)
    10d4:	004a8a93          	addi	x21,x21,4

000010d8 <I_add_cg_cp_rd_b30>:
I_add_cg_cp_rd_b30:
  add x30, x11, x20 # perform operation
    10d8:	01458f33          	add	x30,x11,x20
  # Check if x30 contains the expected result. x6 is the signature ptr, x5 is the link ptr, x4 is a temp reg.
  RVTEST_SIGUPD(x6, x5, x4, x30, I_add_cg_cp_rd_b30, I_add_cg_cp_rd_b30_str)
    10dc:	00032203          	lw	x4,0(x6)
    10e0:	01e20863          	beq	x4,x30,10f0 <I_add_cg_cp_rd_b30+0x18>
    10e4:	3d8032ef          	jal	x5,44bc <failedtest_x5_x4>
    10e8:	000010d8          	.word	0x000010d8
    10ec:	00009e4d          	.word	0x00009e4d
    10f0:	00430313          	addi	x6,x6,4

# Testcase cp_rd (Test destination rd = x31)
  RVTEST_TESTDATA_LOAD_INT(x21, x30) # load rs1: x30 = 0x59866d92
    10f4:	000aaf03          	lw	x30,0(x21)
    10f8:	004a8a93          	addi	x21,x21,4
  RVTEST_TESTDATA_LOAD_INT(x21, x3) # load rs2: x3 = 0x670b520c
    10fc:	000aa183          	lw	x3,0(x21)
    1100:	004a8a93          	addi	x21,x21,4

00001104 <I_add_cg_cp_rd_b31>:
I_add_cg_cp_rd_b31:
  add x31, x30, x3 # perform operation
    1104:	003f0fb3          	add	x31,x30,x3
  # Check if x31 contains the expected result. x6 is the signature ptr, x5 is the link ptr, x4 is a temp reg.
  RVTEST_SIGUPD(x6, x5, x4, x31, I_add_cg_cp_rd_b31, I_add_cg_cp_rd_b31_str)
    1108:	00032203          	lw	x4,0(x6)
    110c:	01f20863          	beq	x4,x31,111c <I_add_cg_cp_rd_b31+0x18>
    1110:	3ac032ef          	jal	x5,44bc <failedtest_x5_x4>
    1114:	00001104          	.word	0x00001104
    1118:	00009e7b          	.word	0x00009e7b
    111c:	00430313          	addi	x6,x6,4
/////////////////////////////////
// cp_rs1_edges
/////////////////////////////////

# Testcase cp_rs1_edges (Test source rs1 value = 0x00000000)
  RVTEST_TESTDATA_LOAD_INT(x21, x14) # load rs1: x14 = 0x00000000
    1120:	000aa703          	lw	x14,0(x21)
    1124:	004a8a93          	addi	x21,x21,4
  RVTEST_TESTDATA_LOAD_INT(x21, x24) # load rs2: x24 = 0xc03744aa
    1128:	000aac03          	lw	x24,0(x21)
    112c:	004a8a93          	addi	x21,x21,4

00001130 <I_add_cg_cp_rs1_edges_0x0>:
I_add_cg_cp_rs1_edges_0x0:
  add x3, x14, x24 # perform operation
    1130:	018701b3          	add	x3,x14,x24
  # Check if x3 contains the expected result. x6 is the signature ptr, x5 is the link ptr, x4 is a temp reg.
  RVTEST_SIGUPD(x6, x5, x4, x3, I_add_cg_cp_rs1_edges_0x0, I_add_cg_cp_rs1_edges_0x0_str)
    1134:	00032203          	lw	x4,0(x6)
    1138:	00320863          	beq	x4,x3,1148 <I_add_cg_cp_rs1_edges_0x0+0x18>
    113c:	380032ef          	jal	x5,44bc <failedtest_x5_x4>
    1140:	00001130          	.word	0x00001130
    1144:	00009ea9          	.word	0x00009ea9
    1148:	00430313          	addi	x6,x6,4

# Testcase cp_rs1_edges (Test source rs1 value = 0x00000001)
  RVTEST_TESTDATA_LOAD_INT(x21, x29) # load rs1: x29 = 0x00000001
    114c:	000aae83          	lw	x29,0(x21)
    1150:	004a8a93          	addi	x21,x21,4
  RVTEST_TESTDATA_LOAD_INT(x21, x9) # load rs2: x9 = 0xe2f82790
    1154:	000aa483          	lw	x9,0(x21)
    1158:	004a8a93          	addi	x21,x21,4

0000115c <I_add_cg_cp_rs1_edges_0x1>:
I_add_cg_cp_rs1_edges_0x1:
  add x15, x29, x9 # perform operation
    115c:	009e87b3          	add	x15,x29,x9
  # Check if x15 contains the expected result. x6 is the signature ptr, x5 is the link ptr, x4 is a temp reg.
  RVTEST_SIGUPD(x6, x5, x4, x15, I_add_cg_cp_rs1_edges_0x1, I_add_cg_cp_rs1_edges_0x1_str)
    1160:	00032203          	lw	x4,0(x6)
    1164:	00f20863          	beq	x4,x15,1174 <I_add_cg_cp_rs1_edges_0x1+0x18>
    1168:	354032ef          	jal	x5,44bc <failedtest_x5_x4>
    116c:	0000115c          	.word	0x0000115c
    1170:	00009ede          	.word	0x00009ede
    1174:	00430313          	addi	x6,x6,4

# Testcase cp_rs1_edges (Test source rs1 value = 0x00000002)
  RVTEST_TESTDATA_LOAD_INT(x21, x2) # load rs1: x2 = 0x00000002
    1178:	000aa103          	lw	x2,0(x21)
    117c:	004a8a93          	addi	x21,x21,4
  RVTEST_TESTDATA_LOAD_INT(x21, x20) # load rs2: x20 = 0x73426dce
    1180:	000aaa03          	lw	x20,0(x21)
    1184:	004a8a93          	addi	x21,x21,4

00001188 <I_add_cg_cp_rs1_edges_0x2>:
I_add_cg_cp_rs1_edges_0x2:
  add x15, x2, x20 # perform operation
    1188:	014107b3          	add	x15,x2,x20
  # Check if x15 contains the expected result. x6 is the signature ptr, x5 is the link ptr, x4 is a temp reg.
  RVTEST_SIGUPD(x6, x5, x4, x15, I_add_cg_cp_rs1_edges_0x2, I_add_cg_cp_rs1_edges_0x2_str)
    118c:	00032203          	lw	x4,0(x6)
    1190:	00f20863          	beq	x4,x15,11a0 <I_add_cg_cp_rs1_edges_0x2+0x18>
    1194:	328032ef          	jal	x5,44bc <failedtest_x5_x4>
    1198:	00001188          	.word	0x00001188
    119c:	00009f13          	.word	0x00009f13
    11a0:	00430313          	addi	x6,x6,4

# Testcase cp_rs1_edges (Test source rs1 value = 0x80000000)
  RVTEST_TESTDATA_LOAD_INT(x21, x27) # load rs1: x27 = 0x80000000
    11a4:	000aad83          	lw	x27,0(x21)
    11a8:	004a8a93          	addi	x21,x21,4
  RVTEST_TESTDATA_LOAD_INT(x21, x3) # load rs2: x3 = 0xa3b9ae23
    11ac:	000aa183          	lw	x3,0(x21)
    11b0:	004a8a93          	addi	x21,x21,4

000011b4 <I_add_cg_cp_rs1_edges_0x80000000>:
I_add_cg_cp_rs1_edges_0x80000000:
  add x13, x27, x3 # perform operation
    11b4:	003d86b3          	add	x13,x27,x3
  # Check if x13 contains the expected result. x6 is the signature ptr, x5 is the link ptr, x4 is a temp reg.
  RVTEST_SIGUPD(x6, x5, x4, x13, I_add_cg_cp_rs1_edges_0x80000000, I_add_cg_cp_rs1_edges_0x80000000_str)
    11b8:	00032203          	lw	x4,0(x6)
    11bc:	00d20863          	beq	x4,x13,11cc <I_add_cg_cp_rs1_edges_0x80000000+0x18>
    11c0:	2fc032ef          	jal	x5,44bc <failedtest_x5_x4>
    11c4:	000011b4          	.word	0x000011b4
    11c8:	00009f48          	.word	0x00009f48
    11cc:	00430313          	addi	x6,x6,4

# Testcase cp_rs1_edges (Test source rs1 value = 0x80000001)
  RVTEST_TESTDATA_LOAD_INT(x21, x22) # load rs1: x22 = 0x80000001
    11d0:	000aab03          	lw	x22,0(x21)
    11d4:	004a8a93          	addi	x21,x21,4
  RVTEST_TESTDATA_LOAD_INT(x21, x24) # load rs2: x24 = 0xd7f4336f
    11d8:	000aac03          	lw	x24,0(x21)
    11dc:	004a8a93          	addi	x21,x21,4

000011e0 <I_add_cg_cp_rs1_edges_0x80000001>:
I_add_cg_cp_rs1_edges_0x80000001:
  add x11, x22, x24 # perform operation
    11e0:	018b05b3          	add	x11,x22,x24
  # Check if x11 contains the expected result. x6 is the signature ptr, x5 is the link ptr, x4 is a temp reg.
  RVTEST_SIGUPD(x6, x5, x4, x11, I_add_cg_cp_rs1_edges_0x80000001, I_add_cg_cp_rs1_edges_0x80000001_str)
    11e4:	00032203          	lw	x4,0(x6)
    11e8:	00b20863          	beq	x4,x11,11f8 <I_add_cg_cp_rs1_edges_0x80000001+0x18>
    11ec:	2d0032ef          	jal	x5,44bc <failedtest_x5_x4>
    11f0:	000011e0          	.word	0x000011e0
    11f4:	00009f85          	.word	0x00009f85
    11f8:	00430313          	addi	x6,x6,4

# Testcase cp_rs1_edges (Test source rs1 value = 0x7fffffff)
  RVTEST_TESTDATA_LOAD_INT(x21, x27) # load rs1: x27 = 0x7fffffff
    11fc:	000aad83          	lw	x27,0(x21)
    1200:	004a8a93          	addi	x21,x21,4
  RVTEST_TESTDATA_LOAD_INT(x21, x22) # load rs2: x22 = 0x14718a3d
    1204:	000aab03          	lw	x22,0(x21)
    1208:	004a8a93          	addi	x21,x21,4

0000120c <I_add_cg_cp_rs1_edges_0x7fffffff>:
I_add_cg_cp_rs1_edges_0x7fffffff:
  add x13, x27, x22 # perform operation
    120c:	016d86b3          	add	x13,x27,x22
  # Check if x13 contains the expected result. x6 is the signature ptr, x5 is the link ptr, x4 is a temp reg.
  RVTEST_SIGUPD(x6, x5, x4, x13, I_add_cg_cp_rs1_edges_0x7fffffff, I_add_cg_cp_rs1_edges_0x7fffffff_str)
    1210:	00032203          	lw	x4,0(x6)
    1214:	00d20863          	beq	x4,x13,1224 <I_add_cg_cp_rs1_edges_0x7fffffff+0x18>
    1218:	2a4032ef          	jal	x5,44bc <failedtest_x5_x4>
    121c:	0000120c          	.word	0x0000120c
    1220:	00009fc2          	.word	0x00009fc2
    1224:	00430313          	addi	x6,x6,4

# Testcase cp_rs1_edges (Test source rs1 value = 0x7ffffffe)
  RVTEST_TESTDATA_LOAD_INT(x21, x16) # load rs1: x16 = 0x7ffffffe
    1228:	000aa803          	lw	x16,0(x21)
    122c:	004a8a93          	addi	x21,x21,4
  RVTEST_TESTDATA_LOAD_INT(x21, x13) # load rs2: x13 = 0x0fb1f161
    1230:	000aa683          	lw	x13,0(x21)
    1234:	004a8a93          	addi	x21,x21,4

00001238 <I_add_cg_cp_rs1_edges_0x7ffffffe>:
I_add_cg_cp_rs1_edges_0x7ffffffe:
  add x7, x16, x13 # perform operation
    1238:	00d803b3          	add	x7,x16,x13
  # Check if x7 contains the expected result. x6 is the signature ptr, x5 is the link ptr, x4 is a temp reg.
  RVTEST_SIGUPD(x6, x5, x4, x7, I_add_cg_cp_rs1_edges_0x7ffffffe, I_add_cg_cp_rs1_edges_0x7ffffffe_str)
    123c:	00032203          	lw	x4,0(x6)
    1240:	00720863          	beq	x4,x7,1250 <I_add_cg_cp_rs1_edges_0x7ffffffe+0x18>
    1244:	278032ef          	jal	x5,44bc <failedtest_x5_x4>
    1248:	00001238          	.word	0x00001238
    124c:	00009fff          	.word	0x00009fff
    1250:	00430313          	addi	x6,x6,4

# Testcase cp_rs1_edges (Test source rs1 value = 0xffffffff)
  RVTEST_TESTDATA_LOAD_INT(x21, x13) # load rs1: x13 = 0xffffffff
    1254:	000aa683          	lw	x13,0(x21)
    1258:	004a8a93          	addi	x21,x21,4
  RVTEST_TESTDATA_LOAD_INT(x21, x26) # load rs2: x26 = 0x0c446dc3
    125c:	000aad03          	lw	x26,0(x21)
    1260:	004a8a93          	addi	x21,x21,4

00001264 <I_add_cg_cp_rs1_edges_0xffffffff>:
I_add_cg_cp_rs1_edges_0xffffffff:
  add x28, x13, x26 # perform operation
    1264:	01a68e33          	add	x28,x13,x26
  # Check if x28 contains the expected result. x6 is the signature ptr, x5 is the link ptr, x4 is a temp reg.
  RVTEST_SIGUPD(x6, x5, x4, x28, I_add_cg_cp_rs1_edges_0xffffffff, I_add_cg_cp_rs1_edges_0xffffffff_str)
    1268:	00032203          	lw	x4,0(x6)
    126c:	01c20863          	beq	x4,x28,127c <I_add_cg_cp_rs1_edges_0xffffffff+0x18>
    1270:	24c032ef          	jal	x5,44bc <failedtest_x5_x4>
    1274:	00001264          	.word	0x00001264
    1278:	0000a03c          	.word	0x0000a03c
    127c:	00430313          	addi	x6,x6,4

# Testcase cp_rs1_edges (Test source rs1 value = 0xfffffffe)
  RVTEST_TESTDATA_LOAD_INT(x21, x10) # load rs1: x10 = 0xfffffffe
    1280:	000aa503          	lw	x10,0(x21)
    1284:	004a8a93          	addi	x21,x21,4
  RVTEST_TESTDATA_LOAD_INT(x21, x30) # load rs2: x30 = 0xfa02b496
    1288:	000aaf03          	lw	x30,0(x21)
    128c:	004a8a93          	addi	x21,x21,4

00001290 <I_add_cg_cp_rs1_edges_0xfffffffe>:
I_add_cg_cp_rs1_edges_0xfffffffe:
  add x12, x10, x30 # perform operation
    1290:	01e50633          	add	x12,x10,x30
  # Check if x12 contains the expected result. x6 is the signature ptr, x5 is the link ptr, x4 is a temp reg.
  RVTEST_SIGUPD(x6, x5, x4, x12, I_add_cg_cp_rs1_edges_0xfffffffe, I_add_cg_cp_rs1_edges_0xfffffffe_str)
    1294:	00032203          	lw	x4,0(x6)
    1298:	00c20863          	beq	x4,x12,12a8 <I_add_cg_cp_rs1_edges_0xfffffffe+0x18>
    129c:	220032ef          	jal	x5,44bc <failedtest_x5_x4>
    12a0:	00001290          	.word	0x00001290
    12a4:	0000a079          	.word	0x0000a079
    12a8:	00430313          	addi	x6,x6,4

# Testcase cp_rs1_edges (Test source rs1 value = 0x5bbc8872)
  RVTEST_TESTDATA_LOAD_INT(x21, x28) # load rs1: x28 = 0x5bbc8872
    12ac:	000aae03          	lw	x28,0(x21)
    12b0:	004a8a93          	addi	x21,x21,4
  RVTEST_TESTDATA_LOAD_INT(x21, x16) # load rs2: x16 = 0xee925035
    12b4:	000aa803          	lw	x16,0(x21)
    12b8:	004a8a93          	addi	x21,x21,4

000012bc <I_add_cg_cp_rs1_edges_0x5bbc8872>:
I_add_cg_cp_rs1_edges_0x5bbc8872:
  add x30, x28, x16 # perform operation
    12bc:	010e0f33          	add	x30,x28,x16
  # Check if x30 contains the expected result. x6 is the signature ptr, x5 is the link ptr, x4 is a temp reg.
  RVTEST_SIGUPD(x6, x5, x4, x30, I_add_cg_cp_rs1_edges_0x5bbc8872, I_add_cg_cp_rs1_edges_0x5bbc8872_str)
    12c0:	00032203          	lw	x4,0(x6)
    12c4:	01e20863          	beq	x4,x30,12d4 <I_add_cg_cp_rs1_edges_0x5bbc8872+0x18>
    12c8:	1f4032ef          	jal	x5,44bc <failedtest_x5_x4>
    12cc:	000012bc          	.word	0x000012bc
    12d0:	0000a0b6          	.word	0x0000a0b6
    12d4:	00430313          	addi	x6,x6,4

# Testcase cp_rs1_edges (Test source rs1 value = 0xaaaaaaaa)
  RVTEST_TESTDATA_LOAD_INT(x21, x10) # load rs1: x10 = 0xaaaaaaaa
    12d8:	000aa503          	lw	x10,0(x21)
    12dc:	004a8a93          	addi	x21,x21,4
  RVTEST_TESTDATA_LOAD_INT(x21, x11) # load rs2: x11 = 0x81ad3590
    12e0:	000aa583          	lw	x11,0(x21)
    12e4:	004a8a93          	addi	x21,x21,4

000012e8 <I_add_cg_cp_rs1_edges_0xaaaaaaaa>:
I_add_cg_cp_rs1_edges_0xaaaaaaaa:
  add x17, x10, x11 # perform operation
    12e8:	00b508b3          	add	x17,x10,x11
  # Check if x17 contains the expected result. x6 is the signature ptr, x5 is the link ptr, x4 is a temp reg.
  RVTEST_SIGUPD(x6, x5, x4, x17, I_add_cg_cp_rs1_edges_0xaaaaaaaa, I_add_cg_cp_rs1_edges_0xaaaaaaaa_str)
    12ec:	00032203          	lw	x4,0(x6)
    12f0:	01120863          	beq	x4,x17,1300 <I_add_cg_cp_rs1_edges_0xaaaaaaaa+0x18>
    12f4:	1c8032ef          	jal	x5,44bc <failedtest_x5_x4>
    12f8:	000012e8          	.word	0x000012e8
    12fc:	0000a0f3          	.word	0x0000a0f3
    1300:	00430313          	addi	x6,x6,4

# Testcase cp_rs1_edges (Test source rs1 value = 0x55555555)
  RVTEST_TESTDATA_LOAD_INT(x21, x11) # load rs1: x11 = 0x55555555
    1304:	000aa583          	lw	x11,0(x21)
    1308:	004a8a93          	addi	x21,x21,4
  RVTEST_TESTDATA_LOAD_INT(x21, x29) # load rs2: x29 = 0x125b9407
    130c:	000aae83          	lw	x29,0(x21)
    1310:	004a8a93          	addi	x21,x21,4

00001314 <I_add_cg_cp_rs1_edges_0x55555555>:
I_add_cg_cp_rs1_edges_0x55555555:
  add x22, x11, x29 # perform operation
    1314:	01d58b33          	add	x22,x11,x29
  # Check if x22 contains the expected result. x6 is the signature ptr, x5 is the link ptr, x4 is a temp reg.
  RVTEST_SIGUPD(x6, x5, x4, x22, I_add_cg_cp_rs1_edges_0x55555555, I_add_cg_cp_rs1_edges_0x55555555_str)
    1318:	00032203          	lw	x4,0(x6)
    131c:	01620863          	beq	x4,x22,132c <I_add_cg_cp_rs1_edges_0x55555555+0x18>
    1320:	19c032ef          	jal	x5,44bc <failedtest_x5_x4>
    1324:	00001314          	.word	0x00001314
    1328:	0000a130          	.word	0x0000a130
    132c:	00430313          	addi	x6,x6,4
/////////////////////////////////
// cp_rs2_edges
/////////////////////////////////

# Testcase cp_rs2_edges (Test source rs2 value = 0x00000000)
  RVTEST_TESTDATA_LOAD_INT(x21, x7) # load rs1: x7 = 0xf98291ee
    1330:	000aa383          	lw	x7,0(x21)
    1334:	004a8a93          	addi	x21,x21,4
  RVTEST_TESTDATA_LOAD_INT(x21, x25) # load rs2: x25 = 0x00000000
    1338:	000aac83          	lw	x25,0(x21)
    133c:	004a8a93          	addi	x21,x21,4

00001340 <I_add_cg_cp_rs2_edges_0x0>:
I_add_cg_cp_rs2_edges_0x0:
  add x15, x7, x25 # perform operation
    1340:	019387b3          	add	x15,x7,x25
  # Check if x15 contains the expected result. x6 is the signature ptr, x5 is the link ptr, x4 is a temp reg.
  RVTEST_SIGUPD(x6, x5, x4, x15, I_add_cg_cp_rs2_edges_0x0, I_add_cg_cp_rs2_edges_0x0_str)
    1344:	00032203          	lw	x4,0(x6)
    1348:	00f20863          	beq	x4,x15,1358 <I_add_cg_cp_rs2_edges_0x0+0x18>
    134c:	170032ef          	jal	x5,44bc <failedtest_x5_x4>
    1350:	00001340          	.word	0x00001340
    1354:	0000a16d          	.word	0x0000a16d
    1358:	00430313          	addi	x6,x6,4

# Testcase cp_rs2_edges (Test source rs2 value = 0x00000001)
  RVTEST_TESTDATA_LOAD_INT(x21, x8) # load rs1: x8 = 0x92be3f2b
    135c:	000aa403          	lw	x8,0(x21)
    1360:	004a8a93          	addi	x21,x21,4
  RVTEST_TESTDATA_LOAD_INT(x21, x23) # load rs2: x23 = 0x00000001
    1364:	000aab83          	lw	x23,0(x21)
    1368:	004a8a93          	addi	x21,x21,4

0000136c <I_add_cg_cp_rs2_edges_0x1>:
I_add_cg_cp_rs2_edges_0x1:
  add x9, x8, x23 # perform operation
    136c:	017404b3          	add	x9,x8,x23
  # Check if x9 contains the expected result. x6 is the signature ptr, x5 is the link ptr, x4 is a temp reg.
  RVTEST_SIGUPD(x6, x5, x4, x9, I_add_cg_cp_rs2_edges_0x1, I_add_cg_cp_rs2_edges_0x1_str)
    1370:	00032203          	lw	x4,0(x6)
    1374:	00920863          	beq	x4,x9,1384 <I_add_cg_cp_rs2_edges_0x1+0x18>
    1378:	144032ef          	jal	x5,44bc <failedtest_x5_x4>
    137c:	0000136c          	.word	0x0000136c
    1380:	0000a1a3          	.word	0x0000a1a3
    1384:	00430313          	addi	x6,x6,4

# Testcase cp_rs2_edges (Test source rs2 value = 0x00000002)
  RVTEST_TESTDATA_LOAD_INT(x21, x11) # load rs1: x11 = 0x30a1dae4
    1388:	000aa583          	lw	x11,0(x21)
    138c:	004a8a93          	addi	x21,x21,4
  RVTEST_TESTDATA_LOAD_INT(x21, x23) # load rs2: x23 = 0x00000002
    1390:	000aab83          	lw	x23,0(x21)
    1394:	004a8a93          	addi	x21,x21,4

00001398 <I_add_cg_cp_rs2_edges_0x2>:
I_add_cg_cp_rs2_edges_0x2:
  add x31, x11, x23 # perform operation
    1398:	01758fb3          	add	x31,x11,x23
  # Check if x31 contains the expected result. x6 is the signature ptr, x5 is the link ptr, x4 is a temp reg.
  RVTEST_SIGUPD(x6, x5, x4, x31, I_add_cg_cp_rs2_edges_0x2, I_add_cg_cp_rs2_edges_0x2_str)
    139c:	00032203          	lw	x4,0(x6)
    13a0:	01f20863          	beq	x4,x31,13b0 <I_add_cg_cp_rs2_edges_0x2+0x18>
    13a4:	118032ef          	jal	x5,44bc <failedtest_x5_x4>
    13a8:	00001398          	.word	0x00001398
    13ac:	0000a1d9          	.word	0x0000a1d9
    13b0:	00430313          	addi	x6,x6,4

# Testcase cp_rs2_edges (Test source rs2 value = 0x80000000)
  RVTEST_TESTDATA_LOAD_INT(x21, x29) # load rs1: x29 = 0x730a6ae4
    13b4:	000aae83          	lw	x29,0(x21)
    13b8:	004a8a93          	addi	x21,x21,4
  RVTEST_TESTDATA_LOAD_INT(x21, x22) # load rs2: x22 = 0x80000000
    13bc:	000aab03          	lw	x22,0(x21)
    13c0:	004a8a93          	addi	x21,x21,4

000013c4 <I_add_cg_cp_rs2_edges_0x80000000>:
I_add_cg_cp_rs2_edges_0x80000000:
  add x17, x29, x22 # perform operation
    13c4:	016e88b3          	add	x17,x29,x22
  # Check if x17 contains the expected result. x6 is the signature ptr, x5 is the link ptr, x4 is a temp reg.
  RVTEST_SIGUPD(x6, x5, x4, x17, I_add_cg_cp_rs2_edges_0x80000000, I_add_cg_cp_rs2_edges_0x80000000_str)
    13c8:	00032203          	lw	x4,0(x6)
    13cc:	01120863          	beq	x4,x17,13dc <I_add_cg_cp_rs2_edges_0x80000000+0x18>
    13d0:	0ec032ef          	jal	x5,44bc <failedtest_x5_x4>
    13d4:	000013c4          	.word	0x000013c4
    13d8:	0000a20f          	.word	0x0000a20f
    13dc:	00430313          	addi	x6,x6,4

# Testcase cp_rs2_edges (Test source rs2 value = 0x80000001)
  RVTEST_TESTDATA_LOAD_INT(x21, x23) # load rs1: x23 = 0x1e214dd4
    13e0:	000aab83          	lw	x23,0(x21)
    13e4:	004a8a93          	addi	x21,x21,4
  RVTEST_TESTDATA_LOAD_INT(x21, x9) # load rs2: x9 = 0x80000001
    13e8:	000aa483          	lw	x9,0(x21)
    13ec:	004a8a93          	addi	x21,x21,4

000013f0 <I_add_cg_cp_rs2_edges_0x80000001>:
I_add_cg_cp_rs2_edges_0x80000001:
  add x20, x23, x9 # perform operation
    13f0:	009b8a33          	add	x20,x23,x9
  # Check if x20 contains the expected result. x6 is the signature ptr, x5 is the link ptr, x4 is a temp reg.
  RVTEST_SIGUPD(x6, x5, x4, x20, I_add_cg_cp_rs2_edges_0x80000001, I_add_cg_cp_rs2_edges_0x80000001_str)
    13f4:	00032203          	lw	x4,0(x6)
    13f8:	01420863          	beq	x4,x20,1408 <I_add_cg_cp_rs2_edges_0x80000001+0x18>
    13fc:	0c0032ef          	jal	x5,44bc <failedtest_x5_x4>
    1400:	000013f0          	.word	0x000013f0
    1404:	0000a24c          	.word	0x0000a24c
    1408:	00430313          	addi	x6,x6,4

# Testcase cp_rs2_edges (Test source rs2 value = 0x7fffffff)
  RVTEST_TESTDATA_LOAD_INT(x21, x19) # load rs1: x19 = 0xb4de2b95
    140c:	000aa983          	lw	x19,0(x21)
    1410:	004a8a93          	addi	x21,x21,4
  RVTEST_TESTDATA_LOAD_INT(x21, x1) # load rs2: x1 = 0x7fffffff
    1414:	000aa083          	lw	x1,0(x21)
    1418:	004a8a93          	addi	x21,x21,4

0000141c <I_add_cg_cp_rs2_edges_0x7fffffff>:
I_add_cg_cp_rs2_edges_0x7fffffff:
  add x26, x19, x1 # perform operation
    141c:	00198d33          	add	x26,x19,x1
  # Check if x26 contains the expected result. x6 is the signature ptr, x5 is the link ptr, x4 is a temp reg.
  RVTEST_SIGUPD(x6, x5, x4, x26, I_add_cg_cp_rs2_edges_0x7fffffff, I_add_cg_cp_rs2_edges_0x7fffffff_str)
    1420:	00032203          	lw	x4,0(x6)
    1424:	01a20863          	beq	x4,x26,1434 <I_add_cg_cp_rs2_edges_0x7fffffff+0x18>
    1428:	094032ef          	jal	x5,44bc <failedtest_x5_x4>
    142c:	0000141c          	.word	0x0000141c
    1430:	0000a289          	.word	0x0000a289
    1434:	00430313          	addi	x6,x6,4

# Testcase cp_rs2_edges (Test source rs2 value = 0x7ffffffe)
  RVTEST_TESTDATA_LOAD_INT(x21, x22) # load rs1: x22 = 0x6b0265a5
    1438:	000aab03          	lw	x22,0(x21)
    143c:	004a8a93          	addi	x21,x21,4
  RVTEST_TESTDATA_LOAD_INT(x21, x20) # load rs2: x20 = 0x7ffffffe
    1440:	000aaa03          	lw	x20,0(x21)
    1444:	004a8a93          	addi	x21,x21,4

00001448 <I_add_cg_cp_rs2_edges_0x7ffffffe>:
I_add_cg_cp_rs2_edges_0x7ffffffe:
  add x31, x22, x20 # perform operation
    1448:	014b0fb3          	add	x31,x22,x20
  # Check if x31 contains the expected result. x6 is the signature ptr, x5 is the link ptr, x4 is a temp reg.
  RVTEST_SIGUPD(x6, x5, x4, x31, I_add_cg_cp_rs2_edges_0x7ffffffe, I_add_cg_cp_rs2_edges_0x7ffffffe_str)
    144c:	00032203          	lw	x4,0(x6)
    1450:	01f20863          	beq	x4,x31,1460 <I_add_cg_cp_rs2_edges_0x7ffffffe+0x18>
    1454:	068032ef          	jal	x5,44bc <failedtest_x5_x4>
    1458:	00001448          	.word	0x00001448
    145c:	0000a2c6          	.word	0x0000a2c6
    1460:	00430313          	addi	x6,x6,4

# Testcase cp_rs2_edges (Test source rs2 value = 0xffffffff)
  RVTEST_TESTDATA_LOAD_INT(x21, x29) # load rs1: x29 = 0x50ece1cc
    1464:	000aae83          	lw	x29,0(x21)
    1468:	004a8a93          	addi	x21,x21,4
  RVTEST_TESTDATA_LOAD_INT(x21, x2) # load rs2: x2 = 0xffffffff
    146c:	000aa103          	lw	x2,0(x21)
    1470:	004a8a93          	addi	x21,x21,4

00001474 <I_add_cg_cp_rs2_edges_0xffffffff>:
I_add_cg_cp_rs2_edges_0xffffffff:
  add x18, x29, x2 # perform operation
    1474:	002e8933          	add	x18,x29,x2
  # Check if x18 contains the expected result. x6 is the signature ptr, x5 is the link ptr, x4 is a temp reg.
  RVTEST_SIGUPD(x6, x5, x4, x18, I_add_cg_cp_rs2_edges_0xffffffff, I_add_cg_cp_rs2_edges_0xffffffff_str)
    1478:	00032203          	lw	x4,0(x6)
    147c:	01220863          	beq	x4,x18,148c <I_add_cg_cp_rs2_edges_0xffffffff+0x18>
    1480:	03c032ef          	jal	x5,44bc <failedtest_x5_x4>
    1484:	00001474          	.word	0x00001474
    1488:	0000a303          	.word	0x0000a303
    148c:	00430313          	addi	x6,x6,4

# Testcase cp_rs2_edges (Test source rs2 value = 0xfffffffe)
  RVTEST_TESTDATA_LOAD_INT(x21, x12) # load rs1: x12 = 0x4bb5f25c
    1490:	000aa603          	lw	x12,0(x21)
    1494:	004a8a93          	addi	x21,x21,4
  RVTEST_TESTDATA_LOAD_INT(x21, x24) # load rs2: x24 = 0xfffffffe
    1498:	000aac03          	lw	x24,0(x21)
    149c:	004a8a93          	addi	x21,x21,4

000014a0 <I_add_cg_cp_rs2_edges_0xfffffffe>:
I_add_cg_cp_rs2_edges_0xfffffffe:
  add x28, x12, x24 # perform operation
    14a0:	01860e33          	add	x28,x12,x24
  # Check if x28 contains the expected result. x6 is the signature ptr, x5 is the link ptr, x4 is a temp reg.
  RVTEST_SIGUPD(x6, x5, x4, x28, I_add_cg_cp_rs2_edges_0xfffffffe, I_add_cg_cp_rs2_edges_0xfffffffe_str)
    14a4:	00032203          	lw	x4,0(x6)
    14a8:	01c20863          	beq	x4,x28,14b8 <I_add_cg_cp_rs2_edges_0xfffffffe+0x18>
    14ac:	010032ef          	jal	x5,44bc <failedtest_x5_x4>
    14b0:	000014a0          	.word	0x000014a0
    14b4:	0000a340          	.word	0x0000a340
    14b8:	00430313          	addi	x6,x6,4

# Testcase cp_rs2_edges (Test source rs2 value = 0x5bbc8872)
  RVTEST_TESTDATA_LOAD_INT(x21, x3) # load rs1: x3 = 0xd857328e
    14bc:	000aa183          	lw	x3,0(x21)
    14c0:	004a8a93          	addi	x21,x21,4
  RVTEST_TESTDATA_LOAD_INT(x21, x16) # load rs2: x16 = 0x5bbc8872
    14c4:	000aa803          	lw	x16,0(x21)
    14c8:	004a8a93          	addi	x21,x21,4

000014cc <I_add_cg_cp_rs2_edges_0x5bbc8872>:
I_add_cg_cp_rs2_edges_0x5bbc8872:
  add x11, x3, x16 # perform operation
    14cc:	010185b3          	add	x11,x3,x16
  # Check if x11 contains the expected result. x6 is the signature ptr, x5 is the link ptr, x4 is a temp reg.
  RVTEST_SIGUPD(x6, x5, x4, x11, I_add_cg_cp_rs2_edges_0x5bbc8872, I_add_cg_cp_rs2_edges_0x5bbc8872_str)
    14d0:	00032203          	lw	x4,0(x6)
    14d4:	00b20863          	beq	x4,x11,14e4 <I_add_cg_cp_rs2_edges_0x5bbc8872+0x18>
    14d8:	7e5022ef          	jal	x5,44bc <failedtest_x5_x4>
    14dc:	000014cc          	.word	0x000014cc
    14e0:	0000a37d          	.word	0x0000a37d
    14e4:	00430313          	addi	x6,x6,4

# Testcase cp_rs2_edges (Test source rs2 value = 0xaaaaaaaa)
  RVTEST_TESTDATA_LOAD_INT(x21, x26) # load rs1: x26 = 0x0556e722
    14e8:	000aad03          	lw	x26,0(x21)
    14ec:	004a8a93          	addi	x21,x21,4
  RVTEST_TESTDATA_LOAD_INT(x21, x12) # load rs2: x12 = 0xaaaaaaaa
    14f0:	000aa603          	lw	x12,0(x21)
    14f4:	004a8a93          	addi	x21,x21,4

000014f8 <I_add_cg_cp_rs2_edges_0xaaaaaaaa>:
I_add_cg_cp_rs2_edges_0xaaaaaaaa:
  add x22, x26, x12 # perform operation
    14f8:	00cd0b33          	add	x22,x26,x12
  # Check if x22 contains the expected result. x6 is the signature ptr, x5 is the link ptr, x4 is a temp reg.
  RVTEST_SIGUPD(x6, x5, x4, x22, I_add_cg_cp_rs2_edges_0xaaaaaaaa, I_add_cg_cp_rs2_edges_0xaaaaaaaa_str)
    14fc:	00032203          	lw	x4,0(x6)
    1500:	01620863          	beq	x4,x22,1510 <I_add_cg_cp_rs2_edges_0xaaaaaaaa+0x18>
    1504:	7b9022ef          	jal	x5,44bc <failedtest_x5_x4>
    1508:	000014f8          	.word	0x000014f8
    150c:	0000a3ba          	.word	0x0000a3ba
    1510:	00430313          	addi	x6,x6,4

# Testcase cp_rs2_edges (Test source rs2 value = 0x55555555)
  RVTEST_TESTDATA_LOAD_INT(x21, x23) # load rs1: x23 = 0x00927107
    1514:	000aab83          	lw	x23,0(x21)
    1518:	004a8a93          	addi	x21,x21,4
  RVTEST_TESTDATA_LOAD_INT(x21, x19) # load rs2: x19 = 0x55555555
    151c:	000aa983          	lw	x19,0(x21)
    1520:	004a8a93          	addi	x21,x21,4

00001524 <I_add_cg_cp_rs2_edges_0x55555555>:
I_add_cg_cp_rs2_edges_0x55555555:
  add x29, x23, x19 # perform operation
    1524:	013b8eb3          	add	x29,x23,x19
  # Check if x29 contains the expected result. x6 is the signature ptr, x5 is the link ptr, x4 is a temp reg.
  RVTEST_SIGUPD(x6, x5, x4, x29, I_add_cg_cp_rs2_edges_0x55555555, I_add_cg_cp_rs2_edges_0x55555555_str)
    1528:	00032203          	lw	x4,0(x6)
    152c:	01d20863          	beq	x4,x29,153c <I_add_cg_cp_rs2_edges_0x55555555+0x18>
    1530:	78d022ef          	jal	x5,44bc <failedtest_x5_x4>
    1534:	00001524          	.word	0x00001524
    1538:	0000a3f7          	.word	0x0000a3f7
    153c:	00430313          	addi	x6,x6,4
/////////////////////////////////
// cr_rs1_rs2_edges
/////////////////////////////////

# Testcase cr_rs1_rs2_edges (Test source rs1 = 0x00000000 rs2 = 0x00000000)
  RVTEST_TESTDATA_LOAD_INT(x21, x23) # load rs1: x23 = 0x00000000
    1540:	000aab83          	lw	x23,0(x21)
    1544:	004a8a93          	addi	x21,x21,4
  RVTEST_TESTDATA_LOAD_INT(x21, x20) # load rs2: x20 = 0x00000000
    1548:	000aaa03          	lw	x20,0(x21)
    154c:	004a8a93          	addi	x21,x21,4

00001550 <I_add_cg_cr_rs1_rs2_edges_rs1val_0x0_rs2val_0x0>:
I_add_cg_cr_rs1_rs2_edges_rs1val_0x0_rs2val_0x0:
  add x11, x23, x20 # perform operation
    1550:	014b85b3          	add	x11,x23,x20
  # Check if x11 contains the expected result. x6 is the signature ptr, x5 is the link ptr, x4 is a temp reg.
  RVTEST_SIGUPD(x6, x5, x4, x11, I_add_cg_cr_rs1_rs2_edges_rs1val_0x0_rs2val_0x0, I_add_cg_cr_rs1_rs2_edges_rs1val_0x0_rs2val_0x0_str)
    1554:	00032203          	lw	x4,0(x6)
    1558:	00b20863          	beq	x4,x11,1568 <I_add_cg_cr_rs1_rs2_edges_rs1val_0x0_rs2val_0x0+0x18>
    155c:	761022ef          	jal	x5,44bc <failedtest_x5_x4>
    1560:	00001550          	.word	0x00001550
    1564:	0000a434          	.word	0x0000a434
    1568:	00430313          	addi	x6,x6,4

# Testcase cr_rs1_rs2_edges (Test source rs1 = 0x00000000 rs2 = 0x00000001)
  RVTEST_TESTDATA_LOAD_INT(x21, x2) # load rs1: x2 = 0x00000000
    156c:	000aa103          	lw	x2,0(x21)
    1570:	004a8a93          	addi	x21,x21,4
  RVTEST_TESTDATA_LOAD_INT(x21, x27) # load rs2: x27 = 0x00000001
    1574:	000aad83          	lw	x27,0(x21)
    1578:	004a8a93          	addi	x21,x21,4

0000157c <I_add_cg_cr_rs1_rs2_edges_rs1val_0x0_rs2val_0x1>:
I_add_cg_cr_rs1_rs2_edges_rs1val_0x0_rs2val_0x1:
  add x18, x2, x27 # perform operation
    157c:	01b10933          	add	x18,x2,x27
  # Check if x18 contains the expected result. x6 is the signature ptr, x5 is the link ptr, x4 is a temp reg.
  RVTEST_SIGUPD(x6, x5, x4, x18, I_add_cg_cr_rs1_rs2_edges_rs1val_0x0_rs2val_0x1, I_add_cg_cr_rs1_rs2_edges_rs1val_0x0_rs2val_0x1_str)
    1580:	00032203          	lw	x4,0(x6)
    1584:	01220863          	beq	x4,x18,1594 <I_add_cg_cr_rs1_rs2_edges_rs1val_0x0_rs2val_0x1+0x18>
    1588:	735022ef          	jal	x5,44bc <failedtest_x5_x4>
    158c:	0000157c          	.word	0x0000157c
    1590:	0000a481          	.word	0x0000a481
    1594:	00430313          	addi	x6,x6,4

# Testcase cr_rs1_rs2_edges (Test source rs1 = 0x00000000 rs2 = 0x00000002)
  RVTEST_TESTDATA_LOAD_INT(x21, x28) # load rs1: x28 = 0x00000000
    1598:	000aae03          	lw	x28,0(x21)
    159c:	004a8a93          	addi	x21,x21,4
  RVTEST_TESTDATA_LOAD_INT(x21, x25) # load rs2: x25 = 0x00000002
    15a0:	000aac83          	lw	x25,0(x21)
    15a4:	004a8a93          	addi	x21,x21,4

000015a8 <I_add_cg_cr_rs1_rs2_edges_rs1val_0x0_rs2val_0x2>:
I_add_cg_cr_rs1_rs2_edges_rs1val_0x0_rs2val_0x2:
  add x24, x28, x25 # perform operation
    15a8:	019e0c33          	add	x24,x28,x25
  # Check if x24 contains the expected result. x6 is the signature ptr, x5 is the link ptr, x4 is a temp reg.
  RVTEST_SIGUPD(x6, x5, x4, x24, I_add_cg_cr_rs1_rs2_edges_rs1val_0x0_rs2val_0x2, I_add_cg_cr_rs1_rs2_edges_rs1val_0x0_rs2val_0x2_str)
    15ac:	00032203          	lw	x4,0(x6)
    15b0:	01820863          	beq	x4,x24,15c0 <I_add_cg_cr_rs1_rs2_edges_rs1val_0x0_rs2val_0x2+0x18>
    15b4:	709022ef          	jal	x5,44bc <failedtest_x5_x4>
    15b8:	000015a8          	.word	0x000015a8
    15bc:	0000a4ce          	.word	0x0000a4ce
    15c0:	00430313          	addi	x6,x6,4

# Testcase cr_rs1_rs2_edges (Test source rs1 = 0x00000000 rs2 = 0x80000000)
  RVTEST_TESTDATA_LOAD_INT(x21, x17) # load rs1: x17 = 0x00000000
    15c4:	000aa883          	lw	x17,0(x21)
    15c8:	004a8a93          	addi	x21,x21,4
  RVTEST_TESTDATA_LOAD_INT(x21, x23) # load rs2: x23 = 0x80000000
    15cc:	000aab83          	lw	x23,0(x21)
    15d0:	004a8a93          	addi	x21,x21,4

000015d4 <I_add_cg_cr_rs1_rs2_edges_rs1val_0x0_rs2val_0x80000000>:
I_add_cg_cr_rs1_rs2_edges_rs1val_0x0_rs2val_0x80000000:
  add x7, x17, x23 # perform operation
    15d4:	017883b3          	add	x7,x17,x23
  # Check if x7 contains the expected result. x6 is the signature ptr, x5 is the link ptr, x4 is a temp reg.
  RVTEST_SIGUPD(x6, x5, x4, x7, I_add_cg_cr_rs1_rs2_edges_rs1val_0x0_rs2val_0x80000000, I_add_cg_cr_rs1_rs2_edges_rs1val_0x0_rs2val_0x80000000_str)
    15d8:	00032203          	lw	x4,0(x6)
    15dc:	00720863          	beq	x4,x7,15ec <I_add_cg_cr_rs1_rs2_edges_rs1val_0x0_rs2val_0x80000000+0x18>
    15e0:	6dd022ef          	jal	x5,44bc <failedtest_x5_x4>
    15e4:	000015d4          	.word	0x000015d4
    15e8:	0000a51b          	.word	0x0000a51b
    15ec:	00430313          	addi	x6,x6,4

# Testcase cr_rs1_rs2_edges (Test source rs1 = 0x00000000 rs2 = 0x80000001)
  RVTEST_TESTDATA_LOAD_INT(x21, x16) # load rs1: x16 = 0x00000000
    15f0:	000aa803          	lw	x16,0(x21)
    15f4:	004a8a93          	addi	x21,x21,4
  RVTEST_TESTDATA_LOAD_INT(x21, x12) # load rs2: x12 = 0x80000001
    15f8:	000aa603          	lw	x12,0(x21)
    15fc:	004a8a93          	addi	x21,x21,4

00001600 <I_add_cg_cr_rs1_rs2_edges_rs1val_0x0_rs2val_0x80000001>:
I_add_cg_cr_rs1_rs2_edges_rs1val_0x0_rs2val_0x80000001:
  add x31, x16, x12 # perform operation
    1600:	00c80fb3          	add	x31,x16,x12
  # Check if x31 contains the expected result. x6 is the signature ptr, x5 is the link ptr, x4 is a temp reg.
  RVTEST_SIGUPD(x6, x5, x4, x31, I_add_cg_cr_rs1_rs2_edges_rs1val_0x0_rs2val_0x80000001, I_add_cg_cr_rs1_rs2_edges_rs1val_0x0_rs2val_0x80000001_str)
    1604:	00032203          	lw	x4,0(x6)
    1608:	01f20863          	beq	x4,x31,1618 <I_add_cg_cr_rs1_rs2_edges_rs1val_0x0_rs2val_0x80000001+0x18>
    160c:	6b1022ef          	jal	x5,44bc <failedtest_x5_x4>
    1610:	00001600          	.word	0x00001600
    1614:	0000a56f          	.word	0x0000a56f
    1618:	00430313          	addi	x6,x6,4

# Testcase cr_rs1_rs2_edges (Test source rs1 = 0x00000000 rs2 = 0x7fffffff)
  RVTEST_TESTDATA_LOAD_INT(x21, x12) # load rs1: x12 = 0x00000000
    161c:	000aa603          	lw	x12,0(x21)
    1620:	004a8a93          	addi	x21,x21,4
  RVTEST_TESTDATA_LOAD_INT(x21, x25) # load rs2: x25 = 0x7fffffff
    1624:	000aac83          	lw	x25,0(x21)
    1628:	004a8a93          	addi	x21,x21,4

0000162c <I_add_cg_cr_rs1_rs2_edges_rs1val_0x0_rs2val_0x7fffffff>:
I_add_cg_cr_rs1_rs2_edges_rs1val_0x0_rs2val_0x7fffffff:
  add x9, x12, x25 # perform operation
    162c:	019604b3          	add	x9,x12,x25
  # Check if x9 contains the expected result. x6 is the signature ptr, x5 is the link ptr, x4 is a temp reg.
  RVTEST_SIGUPD(x6, x5, x4, x9, I_add_cg_cr_rs1_rs2_edges_rs1val_0x0_rs2val_0x7fffffff, I_add_cg_cr_rs1_rs2_edges_rs1val_0x0_rs2val_0x7fffffff_str)
    1630:	00032203          	lw	x4,0(x6)
    1634:	00920863          	beq	x4,x9,1644 <I_add_cg_cr_rs1_rs2_edges_rs1val_0x0_rs2val_0x7fffffff+0x18>
    1638:	685022ef          	jal	x5,44bc <failedtest_x5_x4>
    163c:	0000162c          	.word	0x0000162c
    1640:	0000a5c3          	.word	0x0000a5c3
    1644:	00430313          	addi	x6,x6,4

# Testcase cr_rs1_rs2_edges (Test source rs1 = 0x00000000 rs2 = 0x7ffffffe)
  RVTEST_TESTDATA_LOAD_INT(x21, x1) # load rs1: x1 = 0x00000000
    1648:	000aa083          	lw	x1,0(x21)
    164c:	004a8a93          	addi	x21,x21,4
  RVTEST_TESTDATA_LOAD_INT(x21, x20) # load rs2: x20 = 0x7ffffffe
    1650:	000aaa03          	lw	x20,0(x21)
    1654:	004a8a93          	addi	x21,x21,4

00001658 <I_add_cg_cr_rs1_rs2_edges_rs1val_0x0_rs2val_0x7ffffffe>:
I_add_cg_cr_rs1_rs2_edges_rs1val_0x0_rs2val_0x7ffffffe:
  add x13, x1, x20 # perform operation
    1658:	014086b3          	add	x13,x1,x20
  # Check if x13 contains the expected result. x6 is the signature ptr, x5 is the link ptr, x4 is a temp reg.
  RVTEST_SIGUPD(x6, x5, x4, x13, I_add_cg_cr_rs1_rs2_edges_rs1val_0x0_rs2val_0x7ffffffe, I_add_cg_cr_rs1_rs2_edges_rs1val_0x0_rs2val_0x7ffffffe_str)
    165c:	00032203          	lw	x4,0(x6)
    1660:	00d20863          	beq	x4,x13,1670 <I_add_cg_cr_rs1_rs2_edges_rs1val_0x0_rs2val_0x7ffffffe+0x18>
    1664:	659022ef          	jal	x5,44bc <failedtest_x5_x4>
    1668:	00001658          	.word	0x00001658
    166c:	0000a617          	.word	0x0000a617
    1670:	00430313          	addi	x6,x6,4

# Testcase cr_rs1_rs2_edges (Test source rs1 = 0x00000000 rs2 = 0xffffffff)
  RVTEST_TESTDATA_LOAD_INT(x21, x7) # load rs1: x7 = 0x00000000
    1674:	000aa383          	lw	x7,0(x21)
    1678:	004a8a93          	addi	x21,x21,4
  RVTEST_TESTDATA_LOAD_INT(x21, x18) # load rs2: x18 = 0xffffffff
    167c:	000aa903          	lw	x18,0(x21)
    1680:	004a8a93          	addi	x21,x21,4

00001684 <I_add_cg_cr_rs1_rs2_edges_rs1val_0x0_rs2val_0xffffffff>:
I_add_cg_cr_rs1_rs2_edges_rs1val_0x0_rs2val_0xffffffff:
  add x20, x7, x18 # perform operation
    1684:	01238a33          	add	x20,x7,x18
  # Check if x20 contains the expected result. x6 is the signature ptr, x5 is the link ptr, x4 is a temp reg.
  RVTEST_SIGUPD(x6, x5, x4, x20, I_add_cg_cr_rs1_rs2_edges_rs1val_0x0_rs2val_0xffffffff, I_add_cg_cr_rs1_rs2_edges_rs1val_0x0_rs2val_0xffffffff_str)
    1688:	00032203          	lw	x4,0(x6)
    168c:	01420863          	beq	x4,x20,169c <I_add_cg_cr_rs1_rs2_edges_rs1val_0x0_rs2val_0xffffffff+0x18>
    1690:	62d022ef          	jal	x5,44bc <failedtest_x5_x4>
    1694:	00001684          	.word	0x00001684
    1698:	0000a66b          	.word	0x0000a66b
    169c:	00430313          	addi	x6,x6,4

# Testcase cr_rs1_rs2_edges (Test source rs1 = 0x00000000 rs2 = 0xfffffffe)
  RVTEST_TESTDATA_LOAD_INT(x21, x25) # load rs1: x25 = 0x00000000
    16a0:	000aac83          	lw	x25,0(x21)
    16a4:	004a8a93          	addi	x21,x21,4
  RVTEST_TESTDATA_LOAD_INT(x21, x11) # load rs2: x11 = 0xfffffffe
    16a8:	000aa583          	lw	x11,0(x21)
    16ac:	004a8a93          	addi	x21,x21,4

000016b0 <I_add_cg_cr_rs1_rs2_edges_rs1val_0x0_rs2val_0xfffffffe>:
I_add_cg_cr_rs1_rs2_edges_rs1val_0x0_rs2val_0xfffffffe:
  add x23, x25, x11 # perform operation
    16b0:	00bc8bb3          	add	x23,x25,x11
  # Check if x23 contains the expected result. x6 is the signature ptr, x5 is the link ptr, x4 is a temp reg.
  RVTEST_SIGUPD(x6, x5, x4, x23, I_add_cg_cr_rs1_rs2_edges_rs1val_0x0_rs2val_0xfffffffe, I_add_cg_cr_rs1_rs2_edges_rs1val_0x0_rs2val_0xfffffffe_str)
    16b4:	00032203          	lw	x4,0(x6)
    16b8:	01720863          	beq	x4,x23,16c8 <I_add_cg_cr_rs1_rs2_edges_rs1val_0x0_rs2val_0xfffffffe+0x18>
    16bc:	601022ef          	jal	x5,44bc <failedtest_x5_x4>
    16c0:	000016b0          	.word	0x000016b0
    16c4:	0000a6bf          	.word	0x0000a6bf
    16c8:	00430313          	addi	x6,x6,4

# Testcase cr_rs1_rs2_edges (Test source rs1 = 0x00000000 rs2 = 0x5bbc8872)
  RVTEST_TESTDATA_LOAD_INT(x21, x16) # load rs1: x16 = 0x00000000
    16cc:	000aa803          	lw	x16,0(x21)
    16d0:	004a8a93          	addi	x21,x21,4
  RVTEST_TESTDATA_LOAD_INT(x21, x8) # load rs2: x8 = 0x5bbc8872
    16d4:	000aa403          	lw	x8,0(x21)
    16d8:	004a8a93          	addi	x21,x21,4

000016dc <I_add_cg_cr_rs1_rs2_edges_rs1val_0x0_rs2val_0x5bbc8872>:
I_add_cg_cr_rs1_rs2_edges_rs1val_0x0_rs2val_0x5bbc8872:
  add x22, x16, x8 # perform operation
    16dc:	00880b33          	add	x22,x16,x8
  # Check if x22 contains the expected result. x6 is the signature ptr, x5 is the link ptr, x4 is a temp reg.
  RVTEST_SIGUPD(x6, x5, x4, x22, I_add_cg_cr_rs1_rs2_edges_rs1val_0x0_rs2val_0x5bbc8872, I_add_cg_cr_rs1_rs2_edges_rs1val_0x0_rs2val_0x5bbc8872_str)
    16e0:	00032203          	lw	x4,0(x6)
    16e4:	01620863          	beq	x4,x22,16f4 <I_add_cg_cr_rs1_rs2_edges_rs1val_0x0_rs2val_0x5bbc8872+0x18>
    16e8:	5d5022ef          	jal	x5,44bc <failedtest_x5_x4>
    16ec:	000016dc          	.word	0x000016dc
    16f0:	0000a713          	.word	0x0000a713
    16f4:	00430313          	addi	x6,x6,4

# Testcase cr_rs1_rs2_edges (Test source rs1 = 0x00000000 rs2 = 0xaaaaaaaa)
  RVTEST_TESTDATA_LOAD_INT(x21, x25) # load rs1: x25 = 0x00000000
    16f8:	000aac83          	lw	x25,0(x21)
    16fc:	004a8a93          	addi	x21,x21,4
  RVTEST_TESTDATA_LOAD_INT(x21, x17) # load rs2: x17 = 0xaaaaaaaa
    1700:	000aa883          	lw	x17,0(x21)
    1704:	004a8a93          	addi	x21,x21,4

00001708 <I_add_cg_cr_rs1_rs2_edges_rs1val_0x0_rs2val_0xaaaaaaaa>:
I_add_cg_cr_rs1_rs2_edges_rs1val_0x0_rs2val_0xaaaaaaaa:
  add x12, x25, x17 # perform operation
    1708:	011c8633          	add	x12,x25,x17
  # Check if x12 contains the expected result. x6 is the signature ptr, x5 is the link ptr, x4 is a temp reg.
  RVTEST_SIGUPD(x6, x5, x4, x12, I_add_cg_cr_rs1_rs2_edges_rs1val_0x0_rs2val_0xaaaaaaaa, I_add_cg_cr_rs1_rs2_edges_rs1val_0x0_rs2val_0xaaaaaaaa_str)
    170c:	00032203          	lw	x4,0(x6)
    1710:	00c20863          	beq	x4,x12,1720 <I_add_cg_cr_rs1_rs2_edges_rs1val_0x0_rs2val_0xaaaaaaaa+0x18>
    1714:	5a9022ef          	jal	x5,44bc <failedtest_x5_x4>
    1718:	00001708          	.word	0x00001708
    171c:	0000a767          	.word	0x0000a767
    1720:	00430313          	addi	x6,x6,4

# Testcase cr_rs1_rs2_edges (Test source rs1 = 0x00000000 rs2 = 0x55555555)
  RVTEST_TESTDATA_LOAD_INT(x21, x27) # load rs1: x27 = 0x00000000
    1724:	000aad83          	lw	x27,0(x21)
    1728:	004a8a93          	addi	x21,x21,4
  RVTEST_TESTDATA_LOAD_INT(x21, x24) # load rs2: x24 = 0x55555555
    172c:	000aac03          	lw	x24,0(x21)
    1730:	004a8a93          	addi	x21,x21,4

00001734 <I_add_cg_cr_rs1_rs2_edges_rs1val_0x0_rs2val_0x55555555>:
I_add_cg_cr_rs1_rs2_edges_rs1val_0x0_rs2val_0x55555555:
  add x25, x27, x24 # perform operation
    1734:	018d8cb3          	add	x25,x27,x24
  # Check if x25 contains the expected result. x6 is the signature ptr, x5 is the link ptr, x4 is a temp reg.
  RVTEST_SIGUPD(x6, x5, x4, x25, I_add_cg_cr_rs1_rs2_edges_rs1val_0x0_rs2val_0x55555555, I_add_cg_cr_rs1_rs2_edges_rs1val_0x0_rs2val_0x55555555_str)
    1738:	00032203          	lw	x4,0(x6)
    173c:	01920863          	beq	x4,x25,174c <I_add_cg_cr_rs1_rs2_edges_rs1val_0x0_rs2val_0x55555555+0x18>
    1740:	57d022ef          	jal	x5,44bc <failedtest_x5_x4>
    1744:	00001734          	.word	0x00001734
    1748:	0000a7bb          	.word	0x0000a7bb
    174c:	00430313          	addi	x6,x6,4

# Testcase cr_rs1_rs2_edges (Test source rs1 = 0x00000001 rs2 = 0x00000000)
  RVTEST_TESTDATA_LOAD_INT(x21, x15) # load rs1: x15 = 0x00000001
    1750:	000aa783          	lw	x15,0(x21)
    1754:	004a8a93          	addi	x21,x21,4
  RVTEST_TESTDATA_LOAD_INT(x21, x31) # load rs2: x31 = 0x00000000
    1758:	000aaf83          	lw	x31,0(x21)
    175c:	004a8a93          	addi	x21,x21,4

00001760 <I_add_cg_cr_rs1_rs2_edges_rs1val_0x1_rs2val_0x0>:
I_add_cg_cr_rs1_rs2_edges_rs1val_0x1_rs2val_0x0:
  add x9, x15, x31 # perform operation
    1760:	01f784b3          	add	x9,x15,x31
  # Check if x9 contains the expected result. x6 is the signature ptr, x5 is the link ptr, x4 is a temp reg.
  RVTEST_SIGUPD(x6, x5, x4, x9, I_add_cg_cr_rs1_rs2_edges_rs1val_0x1_rs2val_0x0, I_add_cg_cr_rs1_rs2_edges_rs1val_0x1_rs2val_0x0_str)
    1764:	00032203          	lw	x4,0(x6)
    1768:	00920863          	beq	x4,x9,1778 <I_add_cg_cr_rs1_rs2_edges_rs1val_0x1_rs2val_0x0+0x18>
    176c:	551022ef          	jal	x5,44bc <failedtest_x5_x4>
    1770:	00001760          	.word	0x00001760
    1774:	0000a80f          	.word	0x0000a80f
    1778:	00430313          	addi	x6,x6,4

# Testcase cr_rs1_rs2_edges (Test source rs1 = 0x00000001 rs2 = 0x00000001)
  RVTEST_TESTDATA_LOAD_INT(x21, x20) # load rs1: x20 = 0x00000001
    177c:	000aaa03          	lw	x20,0(x21)
    1780:	004a8a93          	addi	x21,x21,4
  RVTEST_TESTDATA_LOAD_INT(x21, x15) # load rs2: x15 = 0x00000001
    1784:	000aa783          	lw	x15,0(x21)
    1788:	004a8a93          	addi	x21,x21,4

0000178c <I_add_cg_cr_rs1_rs2_edges_rs1val_0x1_rs2val_0x1>:
I_add_cg_cr_rs1_rs2_edges_rs1val_0x1_rs2val_0x1:
  add x1, x20, x15 # perform operation
    178c:	00fa00b3          	add	x1,x20,x15
  # Check if x1 contains the expected result. x6 is the signature ptr, x5 is the link ptr, x4 is a temp reg.
  RVTEST_SIGUPD(x6, x5, x4, x1, I_add_cg_cr_rs1_rs2_edges_rs1val_0x1_rs2val_0x1, I_add_cg_cr_rs1_rs2_edges_rs1val_0x1_rs2val_0x1_str)
    1790:	00032203          	lw	x4,0(x6)
    1794:	00120863          	beq	x4,x1,17a4 <I_add_cg_cr_rs1_rs2_edges_rs1val_0x1_rs2val_0x1+0x18>
    1798:	525022ef          	jal	x5,44bc <failedtest_x5_x4>
    179c:	0000178c          	.word	0x0000178c
    17a0:	0000a85c          	.word	0x0000a85c
    17a4:	00430313          	addi	x6,x6,4

# Testcase cr_rs1_rs2_edges (Test source rs1 = 0x00000001 rs2 = 0x00000002)
  RVTEST_TESTDATA_LOAD_INT(x21, x26) # load rs1: x26 = 0x00000001
    17a8:	000aad03          	lw	x26,0(x21)
    17ac:	004a8a93          	addi	x21,x21,4
  RVTEST_TESTDATA_LOAD_INT(x21, x27) # load rs2: x27 = 0x00000002
    17b0:	000aad83          	lw	x27,0(x21)
    17b4:	004a8a93          	addi	x21,x21,4

000017b8 <I_add_cg_cr_rs1_rs2_edges_rs1val_0x1_rs2val_0x2>:
I_add_cg_cr_rs1_rs2_edges_rs1val_0x1_rs2val_0x2:
  add x24, x26, x27 # perform operation
    17b8:	01bd0c33          	add	x24,x26,x27
  # Check if x24 contains the expected result. x6 is the signature ptr, x5 is the link ptr, x4 is a temp reg.
  RVTEST_SIGUPD(x6, x5, x4, x24, I_add_cg_cr_rs1_rs2_edges_rs1val_0x1_rs2val_0x2, I_add_cg_cr_rs1_rs2_edges_rs1val_0x1_rs2val_0x2_str)
    17bc:	00032203          	lw	x4,0(x6)
    17c0:	01820863          	beq	x4,x24,17d0 <I_add_cg_cr_rs1_rs2_edges_rs1val_0x1_rs2val_0x2+0x18>
    17c4:	4f9022ef          	jal	x5,44bc <failedtest_x5_x4>
    17c8:	000017b8          	.word	0x000017b8
    17cc:	0000a8a9          	.word	0x0000a8a9
    17d0:	00430313          	addi	x6,x6,4

# Testcase cr_rs1_rs2_edges (Test source rs1 = 0x00000001 rs2 = 0x80000000)
  RVTEST_TESTDATA_LOAD_INT(x21, x15) # load rs1: x15 = 0x00000001
    17d4:	000aa783          	lw	x15,0(x21)
    17d8:	004a8a93          	addi	x21,x21,4
  RVTEST_TESTDATA_LOAD_INT(x21, x8) # load rs2: x8 = 0x80000000
    17dc:	000aa403          	lw	x8,0(x21)
    17e0:	004a8a93          	addi	x21,x21,4

000017e4 <I_add_cg_cr_rs1_rs2_edges_rs1val_0x1_rs2val_0x80000000>:
I_add_cg_cr_rs1_rs2_edges_rs1val_0x1_rs2val_0x80000000:
  add x29, x15, x8 # perform operation
    17e4:	00878eb3          	add	x29,x15,x8
  # Check if x29 contains the expected result. x6 is the signature ptr, x5 is the link ptr, x4 is a temp reg.
  RVTEST_SIGUPD(x6, x5, x4, x29, I_add_cg_cr_rs1_rs2_edges_rs1val_0x1_rs2val_0x80000000, I_add_cg_cr_rs1_rs2_edges_rs1val_0x1_rs2val_0x80000000_str)
    17e8:	00032203          	lw	x4,0(x6)
    17ec:	01d20863          	beq	x4,x29,17fc <I_add_cg_cr_rs1_rs2_edges_rs1val_0x1_rs2val_0x80000000+0x18>
    17f0:	4cd022ef          	jal	x5,44bc <failedtest_x5_x4>
    17f4:	000017e4          	.word	0x000017e4
    17f8:	0000a8f6          	.word	0x0000a8f6
    17fc:	00430313          	addi	x6,x6,4

# Testcase cr_rs1_rs2_edges (Test source rs1 = 0x00000001 rs2 = 0x80000001)
  RVTEST_TESTDATA_LOAD_INT(x21, x9) # load rs1: x9 = 0x00000001
    1800:	000aa483          	lw	x9,0(x21)
    1804:	004a8a93          	addi	x21,x21,4
  RVTEST_TESTDATA_LOAD_INT(x21, x20) # load rs2: x20 = 0x80000001
    1808:	000aaa03          	lw	x20,0(x21)
    180c:	004a8a93          	addi	x21,x21,4

00001810 <I_add_cg_cr_rs1_rs2_edges_rs1val_0x1_rs2val_0x80000001>:
I_add_cg_cr_rs1_rs2_edges_rs1val_0x1_rs2val_0x80000001:
  add x24, x9, x20 # perform operation
    1810:	01448c33          	add	x24,x9,x20
  # Check if x24 contains the expected result. x6 is the signature ptr, x5 is the link ptr, x4 is a temp reg.
  RVTEST_SIGUPD(x6, x5, x4, x24, I_add_cg_cr_rs1_rs2_edges_rs1val_0x1_rs2val_0x80000001, I_add_cg_cr_rs1_rs2_edges_rs1val_0x1_rs2val_0x80000001_str)
    1814:	00032203          	lw	x4,0(x6)
    1818:	01820863          	beq	x4,x24,1828 <I_add_cg_cr_rs1_rs2_edges_rs1val_0x1_rs2val_0x80000001+0x18>
    181c:	4a1022ef          	jal	x5,44bc <failedtest_x5_x4>
    1820:	00001810          	.word	0x00001810
    1824:	0000a94a          	.word	0x0000a94a
    1828:	00430313          	addi	x6,x6,4

# Testcase cr_rs1_rs2_edges (Test source rs1 = 0x00000001 rs2 = 0x7fffffff)
  RVTEST_TESTDATA_LOAD_INT(x21, x27) # load rs1: x27 = 0x00000001
    182c:	000aad83          	lw	x27,0(x21)
    1830:	004a8a93          	addi	x21,x21,4
  RVTEST_TESTDATA_LOAD_INT(x21, x29) # load rs2: x29 = 0x7fffffff
    1834:	000aae83          	lw	x29,0(x21)
    1838:	004a8a93          	addi	x21,x21,4

0000183c <I_add_cg_cr_rs1_rs2_edges_rs1val_0x1_rs2val_0x7fffffff>:
I_add_cg_cr_rs1_rs2_edges_rs1val_0x1_rs2val_0x7fffffff:
  add x8, x27, x29 # perform operation
    183c:	01dd8433          	add	x8,x27,x29
  # Check if x8 contains the expected result. x6 is the signature ptr, x5 is the link ptr, x4 is a temp reg.
  RVTEST_SIGUPD(x6, x5, x4, x8, I_add_cg_cr_rs1_rs2_edges_rs1val_0x1_rs2val_0x7fffffff, I_add_cg_cr_rs1_rs2_edges_rs1val_0x1_rs2val_0x7fffffff_str)
    1840:	00032203          	lw	x4,0(x6)
    1844:	00820863          	beq	x4,x8,1854 <I_add_cg_cr_rs1_rs2_edges_rs1val_0x1_rs2val_0x7fffffff+0x18>
    1848:	475022ef          	jal	x5,44bc <failedtest_x5_x4>
    184c:	0000183c          	.word	0x0000183c
    1850:	0000a99e          	.word	0x0000a99e
    1854:	00430313          	addi	x6,x6,4

# Testcase cr_rs1_rs2_edges (Test source rs1 = 0x00000001 rs2 = 0x7ffffffe)
  RVTEST_TESTDATA_LOAD_INT(x21, x28) # load rs1: x28 = 0x00000001
    1858:	000aae03          	lw	x28,0(x21)
    185c:	004a8a93          	addi	x21,x21,4
  RVTEST_TESTDATA_LOAD_INT(x21, x12) # load rs2: x12 = 0x7ffffffe
    1860:	000aa603          	lw	x12,0(x21)
    1864:	004a8a93          	addi	x21,x21,4

00001868 <I_add_cg_cr_rs1_rs2_edges_rs1val_0x1_rs2val_0x7ffffffe>:
I_add_cg_cr_rs1_rs2_edges_rs1val_0x1_rs2val_0x7ffffffe:
  add x7, x28, x12 # perform operation
    1868:	00ce03b3          	add	x7,x28,x12
  # Check if x7 contains the expected result. x6 is the signature ptr, x5 is the link ptr, x4 is a temp reg.
  RVTEST_SIGUPD(x6, x5, x4, x7, I_add_cg_cr_rs1_rs2_edges_rs1val_0x1_rs2val_0x7ffffffe, I_add_cg_cr_rs1_rs2_edges_rs1val_0x1_rs2val_0x7ffffffe_str)
    186c:	00032203          	lw	x4,0(x6)
    1870:	00720863          	beq	x4,x7,1880 <I_add_cg_cr_rs1_rs2_edges_rs1val_0x1_rs2val_0x7ffffffe+0x18>
    1874:	449022ef          	jal	x5,44bc <failedtest_x5_x4>
    1878:	00001868          	.word	0x00001868
    187c:	0000a9f2          	.word	0x0000a9f2
    1880:	00430313          	addi	x6,x6,4

# Testcase cr_rs1_rs2_edges (Test source rs1 = 0x00000001 rs2 = 0xffffffff)
  RVTEST_TESTDATA_LOAD_INT(x21, x19) # load rs1: x19 = 0x00000001
    1884:	000aa983          	lw	x19,0(x21)
    1888:	004a8a93          	addi	x21,x21,4
  RVTEST_TESTDATA_LOAD_INT(x21, x29) # load rs2: x29 = 0xffffffff
    188c:	000aae83          	lw	x29,0(x21)
    1890:	004a8a93          	addi	x21,x21,4

00001894 <I_add_cg_cr_rs1_rs2_edges_rs1val_0x1_rs2val_0xffffffff>:
I_add_cg_cr_rs1_rs2_edges_rs1val_0x1_rs2val_0xffffffff:
  add x16, x19, x29 # perform operation
    1894:	01d98833          	add	x16,x19,x29
  # Check if x16 contains the expected result. x6 is the signature ptr, x5 is the link ptr, x4 is a temp reg.
  RVTEST_SIGUPD(x6, x5, x4, x16, I_add_cg_cr_rs1_rs2_edges_rs1val_0x1_rs2val_0xffffffff, I_add_cg_cr_rs1_rs2_edges_rs1val_0x1_rs2val_0xffffffff_str)
    1898:	00032203          	lw	x4,0(x6)
    189c:	01020863          	beq	x4,x16,18ac <I_add_cg_cr_rs1_rs2_edges_rs1val_0x1_rs2val_0xffffffff+0x18>
    18a0:	41d022ef          	jal	x5,44bc <failedtest_x5_x4>
    18a4:	00001894          	.word	0x00001894
    18a8:	0000aa46          	.word	0x0000aa46
    18ac:	00430313          	addi	x6,x6,4

# Testcase cr_rs1_rs2_edges (Test source rs1 = 0x00000001 rs2 = 0xfffffffe)
  RVTEST_TESTDATA_LOAD_INT(x21, x24) # load rs1: x24 = 0x00000001
    18b0:	000aac03          	lw	x24,0(x21)
    18b4:	004a8a93          	addi	x21,x21,4
  RVTEST_TESTDATA_LOAD_INT(x21, x11) # load rs2: x11 = 0xfffffffe
    18b8:	000aa583          	lw	x11,0(x21)
    18bc:	004a8a93          	addi	x21,x21,4

000018c0 <I_add_cg_cr_rs1_rs2_edges_rs1val_0x1_rs2val_0xfffffffe>:
I_add_cg_cr_rs1_rs2_edges_rs1val_0x1_rs2val_0xfffffffe:
  add x9, x24, x11 # perform operation
    18c0:	00bc04b3          	add	x9,x24,x11
  # Check if x9 contains the expected result. x6 is the signature ptr, x5 is the link ptr, x4 is a temp reg.
  RVTEST_SIGUPD(x6, x5, x4, x9, I_add_cg_cr_rs1_rs2_edges_rs1val_0x1_rs2val_0xfffffffe, I_add_cg_cr_rs1_rs2_edges_rs1val_0x1_rs2val_0xfffffffe_str)
    18c4:	00032203          	lw	x4,0(x6)
    18c8:	00920863          	beq	x4,x9,18d8 <I_add_cg_cr_rs1_rs2_edges_rs1val_0x1_rs2val_0xfffffffe+0x18>
    18cc:	3f1022ef          	jal	x5,44bc <failedtest_x5_x4>
    18d0:	000018c0          	.word	0x000018c0
    18d4:	0000aa9a          	.word	0x0000aa9a
    18d8:	00430313          	addi	x6,x6,4

# Testcase cr_rs1_rs2_edges (Test source rs1 = 0x00000001 rs2 = 0x5bbc8872)
  RVTEST_TESTDATA_LOAD_INT(x21, x18) # load rs1: x18 = 0x00000001
    18dc:	000aa903          	lw	x18,0(x21)
    18e0:	004a8a93          	addi	x21,x21,4
  RVTEST_TESTDATA_LOAD_INT(x21, x23) # load rs2: x23 = 0x5bbc8872
    18e4:	000aab83          	lw	x23,0(x21)
    18e8:	004a8a93          	addi	x21,x21,4

000018ec <I_add_cg_cr_rs1_rs2_edges_rs1val_0x1_rs2val_0x5bbc8872>:
I_add_cg_cr_rs1_rs2_edges_rs1val_0x1_rs2val_0x5bbc8872:
  add x15, x18, x23 # perform operation
    18ec:	017907b3          	add	x15,x18,x23
  # Check if x15 contains the expected result. x6 is the signature ptr, x5 is the link ptr, x4 is a temp reg.
  RVTEST_SIGUPD(x6, x5, x4, x15, I_add_cg_cr_rs1_rs2_edges_rs1val_0x1_rs2val_0x5bbc8872, I_add_cg_cr_rs1_rs2_edges_rs1val_0x1_rs2val_0x5bbc8872_str)
    18f0:	00032203          	lw	x4,0(x6)
    18f4:	00f20863          	beq	x4,x15,1904 <I_add_cg_cr_rs1_rs2_edges_rs1val_0x1_rs2val_0x5bbc8872+0x18>
    18f8:	3c5022ef          	jal	x5,44bc <failedtest_x5_x4>
    18fc:	000018ec          	.word	0x000018ec
    1900:	0000aaee          	.word	0x0000aaee
    1904:	00430313          	addi	x6,x6,4

# Testcase cr_rs1_rs2_edges (Test source rs1 = 0x00000001 rs2 = 0xaaaaaaaa)
  RVTEST_TESTDATA_LOAD_INT(x21, x3) # load rs1: x3 = 0x00000001
    1908:	000aa183          	lw	x3,0(x21)
    190c:	004a8a93          	addi	x21,x21,4
  RVTEST_TESTDATA_LOAD_INT(x21, x22) # load rs2: x22 = 0xaaaaaaaa
    1910:	000aab03          	lw	x22,0(x21)
    1914:	004a8a93          	addi	x21,x21,4

00001918 <I_add_cg_cr_rs1_rs2_edges_rs1val_0x1_rs2val_0xaaaaaaaa>:
I_add_cg_cr_rs1_rs2_edges_rs1val_0x1_rs2val_0xaaaaaaaa:
  add x18, x3, x22 # perform operation
    1918:	01618933          	add	x18,x3,x22
  # Check if x18 contains the expected result. x6 is the signature ptr, x5 is the link ptr, x4 is a temp reg.
  RVTEST_SIGUPD(x6, x5, x4, x18, I_add_cg_cr_rs1_rs2_edges_rs1val_0x1_rs2val_0xaaaaaaaa, I_add_cg_cr_rs1_rs2_edges_rs1val_0x1_rs2val_0xaaaaaaaa_str)
    191c:	00032203          	lw	x4,0(x6)
    1920:	01220863          	beq	x4,x18,1930 <I_add_cg_cr_rs1_rs2_edges_rs1val_0x1_rs2val_0xaaaaaaaa+0x18>
    1924:	399022ef          	jal	x5,44bc <failedtest_x5_x4>
    1928:	00001918          	.word	0x00001918
    192c:	0000ab42          	.word	0x0000ab42
    1930:	00430313          	addi	x6,x6,4

# Testcase cr_rs1_rs2_edges (Test source rs1 = 0x00000001 rs2 = 0x55555555)
  RVTEST_TESTDATA_LOAD_INT(x21, x28) # load rs1: x28 = 0x00000001
    1934:	000aae03          	lw	x28,0(x21)
    1938:	004a8a93          	addi	x21,x21,4
  RVTEST_TESTDATA_LOAD_INT(x21, x9) # load rs2: x9 = 0x55555555
    193c:	000aa483          	lw	x9,0(x21)
    1940:	004a8a93          	addi	x21,x21,4

00001944 <I_add_cg_cr_rs1_rs2_edges_rs1val_0x1_rs2val_0x55555555>:
I_add_cg_cr_rs1_rs2_edges_rs1val_0x1_rs2val_0x55555555:
  add x29, x28, x9 # perform operation
    1944:	009e0eb3          	add	x29,x28,x9
  # Check if x29 contains the expected result. x6 is the signature ptr, x5 is the link ptr, x4 is a temp reg.
  RVTEST_SIGUPD(x6, x5, x4, x29, I_add_cg_cr_rs1_rs2_edges_rs1val_0x1_rs2val_0x55555555, I_add_cg_cr_rs1_rs2_edges_rs1val_0x1_rs2val_0x55555555_str)
    1948:	00032203          	lw	x4,0(x6)
    194c:	01d20863          	beq	x4,x29,195c <I_add_cg_cr_rs1_rs2_edges_rs1val_0x1_rs2val_0x55555555+0x18>
    1950:	36d022ef          	jal	x5,44bc <failedtest_x5_x4>
    1954:	00001944          	.word	0x00001944
    1958:	0000ab96          	.word	0x0000ab96
    195c:	00430313          	addi	x6,x6,4

# Testcase cr_rs1_rs2_edges (Test source rs1 = 0x00000002 rs2 = 0x00000000)
  RVTEST_TESTDATA_LOAD_INT(x21, x27) # load rs1: x27 = 0x00000002
    1960:	000aad83          	lw	x27,0(x21)
    1964:	004a8a93          	addi	x21,x21,4
  RVTEST_TESTDATA_LOAD_INT(x21, x28) # load rs2: x28 = 0x00000000
    1968:	000aae03          	lw	x28,0(x21)
    196c:	004a8a93          	addi	x21,x21,4

00001970 <I_add_cg_cr_rs1_rs2_edges_rs1val_0x2_rs2val_0x0>:
I_add_cg_cr_rs1_rs2_edges_rs1val_0x2_rs2val_0x0:
  add x15, x27, x28 # perform operation
    1970:	01cd87b3          	add	x15,x27,x28
  # Check if x15 contains the expected result. x6 is the signature ptr, x5 is the link ptr, x4 is a temp reg.
  RVTEST_SIGUPD(x6, x5, x4, x15, I_add_cg_cr_rs1_rs2_edges_rs1val_0x2_rs2val_0x0, I_add_cg_cr_rs1_rs2_edges_rs1val_0x2_rs2val_0x0_str)
    1974:	00032203          	lw	x4,0(x6)
    1978:	00f20863          	beq	x4,x15,1988 <I_add_cg_cr_rs1_rs2_edges_rs1val_0x2_rs2val_0x0+0x18>
    197c:	341022ef          	jal	x5,44bc <failedtest_x5_x4>
    1980:	00001970          	.word	0x00001970
    1984:	0000abea          	.word	0x0000abea
    1988:	00430313          	addi	x6,x6,4

# Testcase cr_rs1_rs2_edges (Test source rs1 = 0x00000002 rs2 = 0x00000001)
  RVTEST_TESTDATA_LOAD_INT(x21, x7) # load rs1: x7 = 0x00000002
    198c:	000aa383          	lw	x7,0(x21)
    1990:	004a8a93          	addi	x21,x21,4
  RVTEST_TESTDATA_LOAD_INT(x21, x20) # load rs2: x20 = 0x00000001
    1994:	000aaa03          	lw	x20,0(x21)
    1998:	004a8a93          	addi	x21,x21,4

0000199c <I_add_cg_cr_rs1_rs2_edges_rs1val_0x2_rs2val_0x1>:
I_add_cg_cr_rs1_rs2_edges_rs1val_0x2_rs2val_0x1:
  add x13, x7, x20 # perform operation
    199c:	014386b3          	add	x13,x7,x20
  # Check if x13 contains the expected result. x6 is the signature ptr, x5 is the link ptr, x4 is a temp reg.
  RVTEST_SIGUPD(x6, x5, x4, x13, I_add_cg_cr_rs1_rs2_edges_rs1val_0x2_rs2val_0x1, I_add_cg_cr_rs1_rs2_edges_rs1val_0x2_rs2val_0x1_str)
    19a0:	00032203          	lw	x4,0(x6)
    19a4:	00d20863          	beq	x4,x13,19b4 <I_add_cg_cr_rs1_rs2_edges_rs1val_0x2_rs2val_0x1+0x18>
    19a8:	315022ef          	jal	x5,44bc <failedtest_x5_x4>
    19ac:	0000199c          	.word	0x0000199c
    19b0:	0000ac37          	.word	0x0000ac37
    19b4:	00430313          	addi	x6,x6,4

# Testcase cr_rs1_rs2_edges (Test source rs1 = 0x00000002 rs2 = 0x00000002)
  RVTEST_TESTDATA_LOAD_INT(x21, x27) # load rs1: x27 = 0x00000002
    19b8:	000aad83          	lw	x27,0(x21)
    19bc:	004a8a93          	addi	x21,x21,4
  RVTEST_TESTDATA_LOAD_INT(x21, x12) # load rs2: x12 = 0x00000002
    19c0:	000aa603          	lw	x12,0(x21)
    19c4:	004a8a93          	addi	x21,x21,4

000019c8 <I_add_cg_cr_rs1_rs2_edges_rs1val_0x2_rs2val_0x2>:
I_add_cg_cr_rs1_rs2_edges_rs1val_0x2_rs2val_0x2:
  add x30, x27, x12 # perform operation
    19c8:	00cd8f33          	add	x30,x27,x12
  # Check if x30 contains the expected result. x6 is the signature ptr, x5 is the link ptr, x4 is a temp reg.
  RVTEST_SIGUPD(x6, x5, x4, x30, I_add_cg_cr_rs1_rs2_edges_rs1val_0x2_rs2val_0x2, I_add_cg_cr_rs1_rs2_edges_rs1val_0x2_rs2val_0x2_str)
    19cc:	00032203          	lw	x4,0(x6)
    19d0:	01e20863          	beq	x4,x30,19e0 <I_add_cg_cr_rs1_rs2_edges_rs1val_0x2_rs2val_0x2+0x18>
    19d4:	2e9022ef          	jal	x5,44bc <failedtest_x5_x4>
    19d8:	000019c8          	.word	0x000019c8
    19dc:	0000ac84          	.word	0x0000ac84
    19e0:	00430313          	addi	x6,x6,4

# Testcase cr_rs1_rs2_edges (Test source rs1 = 0x00000002 rs2 = 0x80000000)
  RVTEST_TESTDATA_LOAD_INT(x21, x12) # load rs1: x12 = 0x00000002
    19e4:	000aa603          	lw	x12,0(x21)
    19e8:	004a8a93          	addi	x21,x21,4
  RVTEST_TESTDATA_LOAD_INT(x21, x17) # load rs2: x17 = 0x80000000
    19ec:	000aa883          	lw	x17,0(x21)
    19f0:	004a8a93          	addi	x21,x21,4

000019f4 <I_add_cg_cr_rs1_rs2_edges_rs1val_0x2_rs2val_0x80000000>:
I_add_cg_cr_rs1_rs2_edges_rs1val_0x2_rs2val_0x80000000:
  add x24, x12, x17 # perform operation
    19f4:	01160c33          	add	x24,x12,x17
  # Check if x24 contains the expected result. x6 is the signature ptr, x5 is the link ptr, x4 is a temp reg.
  RVTEST_SIGUPD(x6, x5, x4, x24, I_add_cg_cr_rs1_rs2_edges_rs1val_0x2_rs2val_0x80000000, I_add_cg_cr_rs1_rs2_edges_rs1val_0x2_rs2val_0x80000000_str)
    19f8:	00032203          	lw	x4,0(x6)
    19fc:	01820863          	beq	x4,x24,1a0c <I_add_cg_cr_rs1_rs2_edges_rs1val_0x2_rs2val_0x80000000+0x18>
    1a00:	2bd022ef          	jal	x5,44bc <failedtest_x5_x4>
    1a04:	000019f4          	.word	0x000019f4
    1a08:	0000acd1          	.word	0x0000acd1
    1a0c:	00430313          	addi	x6,x6,4

# Testcase cr_rs1_rs2_edges (Test source rs1 = 0x00000002 rs2 = 0x80000001)
  RVTEST_TESTDATA_LOAD_INT(x21, x20) # load rs1: x20 = 0x00000002
    1a10:	000aaa03          	lw	x20,0(x21)
    1a14:	004a8a93          	addi	x21,x21,4
  RVTEST_TESTDATA_LOAD_INT(x21, x30) # load rs2: x30 = 0x80000001
    1a18:	000aaf03          	lw	x30,0(x21)
    1a1c:	004a8a93          	addi	x21,x21,4

00001a20 <I_add_cg_cr_rs1_rs2_edges_rs1val_0x2_rs2val_0x80000001>:
I_add_cg_cr_rs1_rs2_edges_rs1val_0x2_rs2val_0x80000001:
  add x23, x20, x30 # perform operation
    1a20:	01ea0bb3          	add	x23,x20,x30
  # Check if x23 contains the expected result. x6 is the signature ptr, x5 is the link ptr, x4 is a temp reg.
  RVTEST_SIGUPD(x6, x5, x4, x23, I_add_cg_cr_rs1_rs2_edges_rs1val_0x2_rs2val_0x80000001, I_add_cg_cr_rs1_rs2_edges_rs1val_0x2_rs2val_0x80000001_str)
    1a24:	00032203          	lw	x4,0(x6)
    1a28:	01720863          	beq	x4,x23,1a38 <I_add_cg_cr_rs1_rs2_edges_rs1val_0x2_rs2val_0x80000001+0x18>
    1a2c:	291022ef          	jal	x5,44bc <failedtest_x5_x4>
    1a30:	00001a20          	.word	0x00001a20
    1a34:	0000ad25          	.word	0x0000ad25
    1a38:	00430313          	addi	x6,x6,4

# Testcase cr_rs1_rs2_edges (Test source rs1 = 0x00000002 rs2 = 0x7fffffff)
  RVTEST_TESTDATA_LOAD_INT(x21, x25) # load rs1: x25 = 0x00000002
    1a3c:	000aac83          	lw	x25,0(x21)
    1a40:	004a8a93          	addi	x21,x21,4
  RVTEST_TESTDATA_LOAD_INT(x21, x8) # load rs2: x8 = 0x7fffffff
    1a44:	000aa403          	lw	x8,0(x21)
    1a48:	004a8a93          	addi	x21,x21,4

00001a4c <I_add_cg_cr_rs1_rs2_edges_rs1val_0x2_rs2val_0x7fffffff>:
I_add_cg_cr_rs1_rs2_edges_rs1val_0x2_rs2val_0x7fffffff:
  add x2, x25, x8 # perform operation
    1a4c:	008c8133          	add	x2,x25,x8
  # Check if x2 contains the expected result. x6 is the signature ptr, x5 is the link ptr, x4 is a temp reg.
  RVTEST_SIGUPD(x6, x5, x4, x2, I_add_cg_cr_rs1_rs2_edges_rs1val_0x2_rs2val_0x7fffffff, I_add_cg_cr_rs1_rs2_edges_rs1val_0x2_rs2val_0x7fffffff_str)
    1a50:	00032203          	lw	x4,0(x6)
    1a54:	00220863          	beq	x4,x2,1a64 <I_add_cg_cr_rs1_rs2_edges_rs1val_0x2_rs2val_0x7fffffff+0x18>
    1a58:	265022ef          	jal	x5,44bc <failedtest_x5_x4>
    1a5c:	00001a4c          	.word	0x00001a4c
    1a60:	0000ad79          	.word	0x0000ad79
    1a64:	00430313          	addi	x6,x6,4

# Testcase cr_rs1_rs2_edges (Test source rs1 = 0x00000002 rs2 = 0x7ffffffe)
  RVTEST_TESTDATA_LOAD_INT(x21, x22) # load rs1: x22 = 0x00000002
    1a68:	000aab03          	lw	x22,0(x21)
    1a6c:	004a8a93          	addi	x21,x21,4
  RVTEST_TESTDATA_LOAD_INT(x21, x27) # load rs2: x27 = 0x7ffffffe
    1a70:	000aad83          	lw	x27,0(x21)
    1a74:	004a8a93          	addi	x21,x21,4

00001a78 <I_add_cg_cr_rs1_rs2_edges_rs1val_0x2_rs2val_0x7ffffffe>:
I_add_cg_cr_rs1_rs2_edges_rs1val_0x2_rs2val_0x7ffffffe:
  add x11, x22, x27 # perform operation
    1a78:	01bb05b3          	add	x11,x22,x27
  # Check if x11 contains the expected result. x6 is the signature ptr, x5 is the link ptr, x4 is a temp reg.
  RVTEST_SIGUPD(x6, x5, x4, x11, I_add_cg_cr_rs1_rs2_edges_rs1val_0x2_rs2val_0x7ffffffe, I_add_cg_cr_rs1_rs2_edges_rs1val_0x2_rs2val_0x7ffffffe_str)
    1a7c:	00032203          	lw	x4,0(x6)
    1a80:	00b20863          	beq	x4,x11,1a90 <I_add_cg_cr_rs1_rs2_edges_rs1val_0x2_rs2val_0x7ffffffe+0x18>
    1a84:	239022ef          	jal	x5,44bc <failedtest_x5_x4>
    1a88:	00001a78          	.word	0x00001a78
    1a8c:	0000adcd          	.word	0x0000adcd
    1a90:	00430313          	addi	x6,x6,4

# Testcase cr_rs1_rs2_edges (Test source rs1 = 0x00000002 rs2 = 0xffffffff)
  RVTEST_TESTDATA_LOAD_INT(x21, x19) # load rs1: x19 = 0x00000002
    1a94:	000aa983          	lw	x19,0(x21)
    1a98:	004a8a93          	addi	x21,x21,4
  RVTEST_TESTDATA_LOAD_INT(x21, x17) # load rs2: x17 = 0xffffffff
    1a9c:	000aa883          	lw	x17,0(x21)
    1aa0:	004a8a93          	addi	x21,x21,4

00001aa4 <I_add_cg_cr_rs1_rs2_edges_rs1val_0x2_rs2val_0xffffffff>:
I_add_cg_cr_rs1_rs2_edges_rs1val_0x2_rs2val_0xffffffff:
  add x3, x19, x17 # perform operation
    1aa4:	011981b3          	add	x3,x19,x17
  # Check if x3 contains the expected result. x6 is the signature ptr, x5 is the link ptr, x4 is a temp reg.
  RVTEST_SIGUPD(x6, x5, x4, x3, I_add_cg_cr_rs1_rs2_edges_rs1val_0x2_rs2val_0xffffffff, I_add_cg_cr_rs1_rs2_edges_rs1val_0x2_rs2val_0xffffffff_str)
    1aa8:	00032203          	lw	x4,0(x6)
    1aac:	00320863          	beq	x4,x3,1abc <I_add_cg_cr_rs1_rs2_edges_rs1val_0x2_rs2val_0xffffffff+0x18>
    1ab0:	20d022ef          	jal	x5,44bc <failedtest_x5_x4>
    1ab4:	00001aa4          	.word	0x00001aa4
    1ab8:	0000ae21          	.word	0x0000ae21
    1abc:	00430313          	addi	x6,x6,4

# Testcase cr_rs1_rs2_edges (Test source rs1 = 0x00000002 rs2 = 0xfffffffe)
  RVTEST_TESTDATA_LOAD_INT(x21, x14) # load rs1: x14 = 0x00000002
    1ac0:	000aa703          	lw	x14,0(x21)
    1ac4:	004a8a93          	addi	x21,x21,4
  RVTEST_TESTDATA_LOAD_INT(x21, x25) # load rs2: x25 = 0xfffffffe
    1ac8:	000aac83          	lw	x25,0(x21)
    1acc:	004a8a93          	addi	x21,x21,4

00001ad0 <I_add_cg_cr_rs1_rs2_edges_rs1val_0x2_rs2val_0xfffffffe>:
I_add_cg_cr_rs1_rs2_edges_rs1val_0x2_rs2val_0xfffffffe:
  add x31, x14, x25 # perform operation
    1ad0:	01970fb3          	add	x31,x14,x25
  # Check if x31 contains the expected result. x6 is the signature ptr, x5 is the link ptr, x4 is a temp reg.
  RVTEST_SIGUPD(x6, x5, x4, x31, I_add_cg_cr_rs1_rs2_edges_rs1val_0x2_rs2val_0xfffffffe, I_add_cg_cr_rs1_rs2_edges_rs1val_0x2_rs2val_0xfffffffe_str)
    1ad4:	00032203          	lw	x4,0(x6)
    1ad8:	01f20863          	beq	x4,x31,1ae8 <I_add_cg_cr_rs1_rs2_edges_rs1val_0x2_rs2val_0xfffffffe+0x18>
    1adc:	1e1022ef          	jal	x5,44bc <failedtest_x5_x4>
    1ae0:	00001ad0          	.word	0x00001ad0
    1ae4:	0000ae75          	.word	0x0000ae75
    1ae8:	00430313          	addi	x6,x6,4

# Testcase cr_rs1_rs2_edges (Test source rs1 = 0x00000002 rs2 = 0x5bbc8872)
  RVTEST_TESTDATA_LOAD_INT(x21, x19) # load rs1: x19 = 0x00000002
    1aec:	000aa983          	lw	x19,0(x21)
    1af0:	004a8a93          	addi	x21,x21,4
  RVTEST_TESTDATA_LOAD_INT(x21, x14) # load rs2: x14 = 0x5bbc8872
    1af4:	000aa703          	lw	x14,0(x21)
    1af8:	004a8a93          	addi	x21,x21,4

00001afc <I_add_cg_cr_rs1_rs2_edges_rs1val_0x2_rs2val_0x5bbc8872>:
I_add_cg_cr_rs1_rs2_edges_rs1val_0x2_rs2val_0x5bbc8872:
  add x8, x19, x14 # perform operation
    1afc:	00e98433          	add	x8,x19,x14
  # Check if x8 contains the expected result. x6 is the signature ptr, x5 is the link ptr, x4 is a temp reg.
  RVTEST_SIGUPD(x6, x5, x4, x8, I_add_cg_cr_rs1_rs2_edges_rs1val_0x2_rs2val_0x5bbc8872, I_add_cg_cr_rs1_rs2_edges_rs1val_0x2_rs2val_0x5bbc8872_str)
    1b00:	00032203          	lw	x4,0(x6)
    1b04:	00820863          	beq	x4,x8,1b14 <I_add_cg_cr_rs1_rs2_edges_rs1val_0x2_rs2val_0x5bbc8872+0x18>
    1b08:	1b5022ef          	jal	x5,44bc <failedtest_x5_x4>
    1b0c:	00001afc          	.word	0x00001afc
    1b10:	0000aec9          	.word	0x0000aec9
    1b14:	00430313          	addi	x6,x6,4

# Testcase cr_rs1_rs2_edges (Test source rs1 = 0x00000002 rs2 = 0xaaaaaaaa)
  RVTEST_TESTDATA_LOAD_INT(x21, x14) # load rs1: x14 = 0x00000002
    1b18:	000aa703          	lw	x14,0(x21)
    1b1c:	004a8a93          	addi	x21,x21,4
  RVTEST_TESTDATA_LOAD_INT(x21, x16) # load rs2: x16 = 0xaaaaaaaa
    1b20:	000aa803          	lw	x16,0(x21)
    1b24:	004a8a93          	addi	x21,x21,4

00001b28 <I_add_cg_cr_rs1_rs2_edges_rs1val_0x2_rs2val_0xaaaaaaaa>:
I_add_cg_cr_rs1_rs2_edges_rs1val_0x2_rs2val_0xaaaaaaaa:
  add x8, x14, x16 # perform operation
    1b28:	01070433          	add	x8,x14,x16
  # Check if x8 contains the expected result. x6 is the signature ptr, x5 is the link ptr, x4 is a temp reg.
  RVTEST_SIGUPD(x6, x5, x4, x8, I_add_cg_cr_rs1_rs2_edges_rs1val_0x2_rs2val_0xaaaaaaaa, I_add_cg_cr_rs1_rs2_edges_rs1val_0x2_rs2val_0xaaaaaaaa_str)
    1b2c:	00032203          	lw	x4,0(x6)
    1b30:	00820863          	beq	x4,x8,1b40 <I_add_cg_cr_rs1_rs2_edges_rs1val_0x2_rs2val_0xaaaaaaaa+0x18>
    1b34:	189022ef          	jal	x5,44bc <failedtest_x5_x4>
    1b38:	00001b28          	.word	0x00001b28
    1b3c:	0000af1d          	.word	0x0000af1d
    1b40:	00430313          	addi	x6,x6,4

# Testcase cr_rs1_rs2_edges (Test source rs1 = 0x00000002 rs2 = 0x55555555)
  RVTEST_TESTDATA_LOAD_INT(x21, x11) # load rs1: x11 = 0x00000002
    1b44:	000aa583          	lw	x11,0(x21)
    1b48:	004a8a93          	addi	x21,x21,4
  RVTEST_TESTDATA_LOAD_INT(x21, x1) # load rs2: x1 = 0x55555555
    1b4c:	000aa083          	lw	x1,0(x21)
    1b50:	004a8a93          	addi	x21,x21,4

00001b54 <I_add_cg_cr_rs1_rs2_edges_rs1val_0x2_rs2val_0x55555555>:
I_add_cg_cr_rs1_rs2_edges_rs1val_0x2_rs2val_0x55555555:
  add x8, x11, x1 # perform operation
    1b54:	00158433          	add	x8,x11,x1
  # Check if x8 contains the expected result. x6 is the signature ptr, x5 is the link ptr, x4 is a temp reg.
  RVTEST_SIGUPD(x6, x5, x4, x8, I_add_cg_cr_rs1_rs2_edges_rs1val_0x2_rs2val_0x55555555, I_add_cg_cr_rs1_rs2_edges_rs1val_0x2_rs2val_0x55555555_str)
    1b58:	00032203          	lw	x4,0(x6)
    1b5c:	00820863          	beq	x4,x8,1b6c <I_add_cg_cr_rs1_rs2_edges_rs1val_0x2_rs2val_0x55555555+0x18>
    1b60:	15d022ef          	jal	x5,44bc <failedtest_x5_x4>
    1b64:	00001b54          	.word	0x00001b54
    1b68:	0000af71          	.word	0x0000af71
    1b6c:	00430313          	addi	x6,x6,4

# Testcase cr_rs1_rs2_edges (Test source rs1 = 0x80000000 rs2 = 0x00000000)
  RVTEST_TESTDATA_LOAD_INT(x21, x30) # load rs1: x30 = 0x80000000
    1b70:	000aaf03          	lw	x30,0(x21)
    1b74:	004a8a93          	addi	x21,x21,4
  RVTEST_TESTDATA_LOAD_INT(x21, x16) # load rs2: x16 = 0x00000000
    1b78:	000aa803          	lw	x16,0(x21)
    1b7c:	004a8a93          	addi	x21,x21,4

00001b80 <I_add_cg_cr_rs1_rs2_edges_rs1val_0x80000000_rs2val_0x0>:
I_add_cg_cr_rs1_rs2_edges_rs1val_0x80000000_rs2val_0x0:
  add x10, x30, x16 # perform operation
    1b80:	010f0533          	add	x10,x30,x16
  # Check if x10 contains the expected result. x6 is the signature ptr, x5 is the link ptr, x4 is a temp reg.
  RVTEST_SIGUPD(x6, x5, x4, x10, I_add_cg_cr_rs1_rs2_edges_rs1val_0x80000000_rs2val_0x0, I_add_cg_cr_rs1_rs2_edges_rs1val_0x80000000_rs2val_0x0_str)
    1b84:	00032203          	lw	x4,0(x6)
    1b88:	00a20863          	beq	x4,x10,1b98 <I_add_cg_cr_rs1_rs2_edges_rs1val_0x80000000_rs2val_0x0+0x18>
    1b8c:	131022ef          	jal	x5,44bc <failedtest_x5_x4>
    1b90:	00001b80          	.word	0x00001b80
    1b94:	0000afc5          	.word	0x0000afc5
    1b98:	00430313          	addi	x6,x6,4

# Testcase cr_rs1_rs2_edges (Test source rs1 = 0x80000000 rs2 = 0x00000001)
  RVTEST_TESTDATA_LOAD_INT(x21, x26) # load rs1: x26 = 0x80000000
    1b9c:	000aad03          	lw	x26,0(x21)
    1ba0:	004a8a93          	addi	x21,x21,4
  RVTEST_TESTDATA_LOAD_INT(x21, x30) # load rs2: x30 = 0x00000001
    1ba4:	000aaf03          	lw	x30,0(x21)
    1ba8:	004a8a93          	addi	x21,x21,4

00001bac <I_add_cg_cr_rs1_rs2_edges_rs1val_0x80000000_rs2val_0x1>:
I_add_cg_cr_rs1_rs2_edges_rs1val_0x80000000_rs2val_0x1:
  add x10, x26, x30 # perform operation
    1bac:	01ed0533          	add	x10,x26,x30
  # Check if x10 contains the expected result. x6 is the signature ptr, x5 is the link ptr, x4 is a temp reg.
  RVTEST_SIGUPD(x6, x5, x4, x10, I_add_cg_cr_rs1_rs2_edges_rs1val_0x80000000_rs2val_0x1, I_add_cg_cr_rs1_rs2_edges_rs1val_0x80000000_rs2val_0x1_str)
    1bb0:	00032203          	lw	x4,0(x6)
    1bb4:	00a20863          	beq	x4,x10,1bc4 <I_add_cg_cr_rs1_rs2_edges_rs1val_0x80000000_rs2val_0x1+0x18>
    1bb8:	105022ef          	jal	x5,44bc <failedtest_x5_x4>
    1bbc:	00001bac          	.word	0x00001bac
    1bc0:	0000b019          	.word	0x0000b019
    1bc4:	00430313          	addi	x6,x6,4

# Testcase cr_rs1_rs2_edges (Test source rs1 = 0x80000000 rs2 = 0x00000002)
  RVTEST_TESTDATA_LOAD_INT(x21, x28) # load rs1: x28 = 0x80000000
    1bc8:	000aae03          	lw	x28,0(x21)
    1bcc:	004a8a93          	addi	x21,x21,4
  RVTEST_TESTDATA_LOAD_INT(x21, x29) # load rs2: x29 = 0x00000002
    1bd0:	000aae83          	lw	x29,0(x21)
    1bd4:	004a8a93          	addi	x21,x21,4

00001bd8 <I_add_cg_cr_rs1_rs2_edges_rs1val_0x80000000_rs2val_0x2>:
I_add_cg_cr_rs1_rs2_edges_rs1val_0x80000000_rs2val_0x2:
  add x25, x28, x29 # perform operation
    1bd8:	01de0cb3          	add	x25,x28,x29
  # Check if x25 contains the expected result. x6 is the signature ptr, x5 is the link ptr, x4 is a temp reg.
  RVTEST_SIGUPD(x6, x5, x4, x25, I_add_cg_cr_rs1_rs2_edges_rs1val_0x80000000_rs2val_0x2, I_add_cg_cr_rs1_rs2_edges_rs1val_0x80000000_rs2val_0x2_str)
    1bdc:	00032203          	lw	x4,0(x6)
    1be0:	01920863          	beq	x4,x25,1bf0 <I_add_cg_cr_rs1_rs2_edges_rs1val_0x80000000_rs2val_0x2+0x18>
    1be4:	0d9022ef          	jal	x5,44bc <failedtest_x5_x4>
    1be8:	00001bd8          	.word	0x00001bd8
    1bec:	0000b06d          	.word	0x0000b06d
    1bf0:	00430313          	addi	x6,x6,4

# Testcase cr_rs1_rs2_edges (Test source rs1 = 0x80000000 rs2 = 0x80000000)
  RVTEST_TESTDATA_LOAD_INT(x21, x12) # load rs1: x12 = 0x80000000
    1bf4:	000aa603          	lw	x12,0(x21)
    1bf8:	004a8a93          	addi	x21,x21,4
  RVTEST_TESTDATA_LOAD_INT(x21, x14) # load rs2: x14 = 0x80000000
    1bfc:	000aa703          	lw	x14,0(x21)
    1c00:	004a8a93          	addi	x21,x21,4

00001c04 <I_add_cg_cr_rs1_rs2_edges_rs1val_0x80000000_rs2val_0x80000000>:
I_add_cg_cr_rs1_rs2_edges_rs1val_0x80000000_rs2val_0x80000000:
  add x22, x12, x14 # perform operation
    1c04:	00e60b33          	add	x22,x12,x14
  # Check if x22 contains the expected result. x6 is the signature ptr, x5 is the link ptr, x4 is a temp reg.
  RVTEST_SIGUPD(x6, x5, x4, x22, I_add_cg_cr_rs1_rs2_edges_rs1val_0x80000000_rs2val_0x80000000, I_add_cg_cr_rs1_rs2_edges_rs1val_0x80000000_rs2val_0x80000000_str)
    1c08:	00032203          	lw	x4,0(x6)
    1c0c:	01620863          	beq	x4,x22,1c1c <I_add_cg_cr_rs1_rs2_edges_rs1val_0x80000000_rs2val_0x80000000+0x18>
    1c10:	0ad022ef          	jal	x5,44bc <failedtest_x5_x4>
    1c14:	00001c04          	.word	0x00001c04
    1c18:	0000b0c1          	.word	0x0000b0c1
    1c1c:	00430313          	addi	x6,x6,4

# Testcase cr_rs1_rs2_edges (Test source rs1 = 0x80000000 rs2 = 0x80000001)
  RVTEST_TESTDATA_LOAD_INT(x21, x26) # load rs1: x26 = 0x80000000
    1c20:	000aad03          	lw	x26,0(x21)
    1c24:	004a8a93          	addi	x21,x21,4
  RVTEST_TESTDATA_LOAD_INT(x21, x8) # load rs2: x8 = 0x80000001
    1c28:	000aa403          	lw	x8,0(x21)
    1c2c:	004a8a93          	addi	x21,x21,4

00001c30 <I_add_cg_cr_rs1_rs2_edges_rs1val_0x80000000_rs2val_0x80000001>:
I_add_cg_cr_rs1_rs2_edges_rs1val_0x80000000_rs2val_0x80000001:
  add x30, x26, x8 # perform operation
    1c30:	008d0f33          	add	x30,x26,x8
  # Check if x30 contains the expected result. x6 is the signature ptr, x5 is the link ptr, x4 is a temp reg.
  RVTEST_SIGUPD(x6, x5, x4, x30, I_add_cg_cr_rs1_rs2_edges_rs1val_0x80000000_rs2val_0x80000001, I_add_cg_cr_rs1_rs2_edges_rs1val_0x80000000_rs2val_0x80000001_str)
    1c34:	00032203          	lw	x4,0(x6)
    1c38:	01e20863          	beq	x4,x30,1c48 <I_add_cg_cr_rs1_rs2_edges_rs1val_0x80000000_rs2val_0x80000001+0x18>
    1c3c:	081022ef          	jal	x5,44bc <failedtest_x5_x4>
    1c40:	00001c30          	.word	0x00001c30
    1c44:	0000b11c          	.word	0x0000b11c
    1c48:	00430313          	addi	x6,x6,4

# Testcase cr_rs1_rs2_edges (Test source rs1 = 0x80000000 rs2 = 0x7fffffff)
  RVTEST_TESTDATA_LOAD_INT(x21, x29) # load rs1: x29 = 0x80000000
    1c4c:	000aae83          	lw	x29,0(x21)
    1c50:	004a8a93          	addi	x21,x21,4
  RVTEST_TESTDATA_LOAD_INT(x21, x25) # load rs2: x25 = 0x7fffffff
    1c54:	000aac83          	lw	x25,0(x21)
    1c58:	004a8a93          	addi	x21,x21,4

00001c5c <I_add_cg_cr_rs1_rs2_edges_rs1val_0x80000000_rs2val_0x7fffffff>:
I_add_cg_cr_rs1_rs2_edges_rs1val_0x80000000_rs2val_0x7fffffff:
  add x11, x29, x25 # perform operation
    1c5c:	019e85b3          	add	x11,x29,x25
  # Check if x11 contains the expected result. x6 is the signature ptr, x5 is the link ptr, x4 is a temp reg.
  RVTEST_SIGUPD(x6, x5, x4, x11, I_add_cg_cr_rs1_rs2_edges_rs1val_0x80000000_rs2val_0x7fffffff, I_add_cg_cr_rs1_rs2_edges_rs1val_0x80000000_rs2val_0x7fffffff_str)
    1c60:	00032203          	lw	x4,0(x6)
    1c64:	00b20863          	beq	x4,x11,1c74 <I_add_cg_cr_rs1_rs2_edges_rs1val_0x80000000_rs2val_0x7fffffff+0x18>
    1c68:	055022ef          	jal	x5,44bc <failedtest_x5_x4>
    1c6c:	00001c5c          	.word	0x00001c5c
    1c70:	0000b177          	.word	0x0000b177
    1c74:	00430313          	addi	x6,x6,4

# Testcase cr_rs1_rs2_edges (Test source rs1 = 0x80000000 rs2 = 0x7ffffffe)
  RVTEST_TESTDATA_LOAD_INT(x21, x10) # load rs1: x10 = 0x80000000
    1c78:	000aa503          	lw	x10,0(x21)
    1c7c:	004a8a93          	addi	x21,x21,4
  RVTEST_TESTDATA_LOAD_INT(x21, x17) # load rs2: x17 = 0x7ffffffe
    1c80:	000aa883          	lw	x17,0(x21)
    1c84:	004a8a93          	addi	x21,x21,4

00001c88 <I_add_cg_cr_rs1_rs2_edges_rs1val_0x80000000_rs2val_0x7ffffffe>:
I_add_cg_cr_rs1_rs2_edges_rs1val_0x80000000_rs2val_0x7ffffffe:
  add x28, x10, x17 # perform operation
    1c88:	01150e33          	add	x28,x10,x17
  # Check if x28 contains the expected result. x6 is the signature ptr, x5 is the link ptr, x4 is a temp reg.
  RVTEST_SIGUPD(x6, x5, x4, x28, I_add_cg_cr_rs1_rs2_edges_rs1val_0x80000000_rs2val_0x7ffffffe, I_add_cg_cr_rs1_rs2_edges_rs1val_0x80000000_rs2val_0x7ffffffe_str)
    1c8c:	00032203          	lw	x4,0(x6)
    1c90:	01c20863          	beq	x4,x28,1ca0 <I_add_cg_cr_rs1_rs2_edges_rs1val_0x80000000_rs2val_0x7ffffffe+0x18>
    1c94:	029022ef          	jal	x5,44bc <failedtest_x5_x4>
    1c98:	00001c88          	.word	0x00001c88
    1c9c:	0000b1d2          	.word	0x0000b1d2
    1ca0:	00430313          	addi	x6,x6,4

# Testcase cr_rs1_rs2_edges (Test source rs1 = 0x80000000 rs2 = 0xffffffff)
  RVTEST_TESTDATA_LOAD_INT(x21, x3) # load rs1: x3 = 0x80000000
    1ca4:	000aa183          	lw	x3,0(x21)
    1ca8:	004a8a93          	addi	x21,x21,4
  RVTEST_TESTDATA_LOAD_INT(x21, x14) # load rs2: x14 = 0xffffffff
    1cac:	000aa703          	lw	x14,0(x21)
    1cb0:	004a8a93          	addi	x21,x21,4

00001cb4 <I_add_cg_cr_rs1_rs2_edges_rs1val_0x80000000_rs2val_0xffffffff>:
I_add_cg_cr_rs1_rs2_edges_rs1val_0x80000000_rs2val_0xffffffff:
  add x16, x3, x14 # perform operation
    1cb4:	00e18833          	add	x16,x3,x14
  # Check if x16 contains the expected result. x6 is the signature ptr, x5 is the link ptr, x4 is a temp reg.
  RVTEST_SIGUPD(x6, x5, x4, x16, I_add_cg_cr_rs1_rs2_edges_rs1val_0x80000000_rs2val_0xffffffff, I_add_cg_cr_rs1_rs2_edges_rs1val_0x80000000_rs2val_0xffffffff_str)
    1cb8:	00032203          	lw	x4,0(x6)
    1cbc:	01020863          	beq	x4,x16,1ccc <I_add_cg_cr_rs1_rs2_edges_rs1val_0x80000000_rs2val_0xffffffff+0x18>
    1cc0:	7fc022ef          	jal	x5,44bc <failedtest_x5_x4>
    1cc4:	00001cb4          	.word	0x00001cb4
    1cc8:	0000b22d          	.word	0x0000b22d
    1ccc:	00430313          	addi	x6,x6,4

# Testcase cr_rs1_rs2_edges (Test source rs1 = 0x80000000 rs2 = 0xfffffffe)
  RVTEST_TESTDATA_LOAD_INT(x21, x27) # load rs1: x27 = 0x80000000
    1cd0:	000aad83          	lw	x27,0(x21)
    1cd4:	004a8a93          	addi	x21,x21,4
  RVTEST_TESTDATA_LOAD_INT(x21, x19) # load rs2: x19 = 0xfffffffe
    1cd8:	000aa983          	lw	x19,0(x21)
    1cdc:	004a8a93          	addi	x21,x21,4

00001ce0 <I_add_cg_cr_rs1_rs2_edges_rs1val_0x80000000_rs2val_0xfffffffe>:
I_add_cg_cr_rs1_rs2_edges_rs1val_0x80000000_rs2val_0xfffffffe:
  add x20, x27, x19 # perform operation
    1ce0:	013d8a33          	add	x20,x27,x19
  # Check if x20 contains the expected result. x6 is the signature ptr, x5 is the link ptr, x4 is a temp reg.
  RVTEST_SIGUPD(x6, x5, x4, x20, I_add_cg_cr_rs1_rs2_edges_rs1val_0x80000000_rs2val_0xfffffffe, I_add_cg_cr_rs1_rs2_edges_rs1val_0x80000000_rs2val_0xfffffffe_str)
    1ce4:	00032203          	lw	x4,0(x6)
    1ce8:	01420863          	beq	x4,x20,1cf8 <I_add_cg_cr_rs1_rs2_edges_rs1val_0x80000000_rs2val_0xfffffffe+0x18>
    1cec:	7d0022ef          	jal	x5,44bc <failedtest_x5_x4>
    1cf0:	00001ce0          	.word	0x00001ce0
    1cf4:	0000b288          	.word	0x0000b288
    1cf8:	00430313          	addi	x6,x6,4

# Testcase cr_rs1_rs2_edges (Test source rs1 = 0x80000000 rs2 = 0x5bbc8872)
  RVTEST_TESTDATA_LOAD_INT(x21, x16) # load rs1: x16 = 0x80000000
    1cfc:	000aa803          	lw	x16,0(x21)
    1d00:	004a8a93          	addi	x21,x21,4
  RVTEST_TESTDATA_LOAD_INT(x21, x3) # load rs2: x3 = 0x5bbc8872
    1d04:	000aa183          	lw	x3,0(x21)
    1d08:	004a8a93          	addi	x21,x21,4

00001d0c <I_add_cg_cr_rs1_rs2_edges_rs1val_0x80000000_rs2val_0x5bbc8872>:
I_add_cg_cr_rs1_rs2_edges_rs1val_0x80000000_rs2val_0x5bbc8872:
  add x25, x16, x3 # perform operation
    1d0c:	00380cb3          	add	x25,x16,x3
  # Check if x25 contains the expected result. x6 is the signature ptr, x5 is the link ptr, x4 is a temp reg.
  RVTEST_SIGUPD(x6, x5, x4, x25, I_add_cg_cr_rs1_rs2_edges_rs1val_0x80000000_rs2val_0x5bbc8872, I_add_cg_cr_rs1_rs2_edges_rs1val_0x80000000_rs2val_0x5bbc8872_str)
    1d10:	00032203          	lw	x4,0(x6)
    1d14:	01920863          	beq	x4,x25,1d24 <I_add_cg_cr_rs1_rs2_edges_rs1val_0x80000000_rs2val_0x5bbc8872+0x18>
    1d18:	7a4022ef          	jal	x5,44bc <failedtest_x5_x4>
    1d1c:	00001d0c          	.word	0x00001d0c
    1d20:	0000b2e3          	.word	0x0000b2e3
    1d24:	00430313          	addi	x6,x6,4

# Testcase cr_rs1_rs2_edges (Test source rs1 = 0x80000000 rs2 = 0xaaaaaaaa)
  RVTEST_TESTDATA_LOAD_INT(x21, x11) # load rs1: x11 = 0x80000000
    1d28:	000aa583          	lw	x11,0(x21)
    1d2c:	004a8a93          	addi	x21,x21,4
  RVTEST_TESTDATA_LOAD_INT(x21, x7) # load rs2: x7 = 0xaaaaaaaa
    1d30:	000aa383          	lw	x7,0(x21)
    1d34:	004a8a93          	addi	x21,x21,4

00001d38 <I_add_cg_cr_rs1_rs2_edges_rs1val_0x80000000_rs2val_0xaaaaaaaa>:
I_add_cg_cr_rs1_rs2_edges_rs1val_0x80000000_rs2val_0xaaaaaaaa:
  add x2, x11, x7 # perform operation
    1d38:	00758133          	add	x2,x11,x7
  # Check if x2 contains the expected result. x6 is the signature ptr, x5 is the link ptr, x4 is a temp reg.
  RVTEST_SIGUPD(x6, x5, x4, x2, I_add_cg_cr_rs1_rs2_edges_rs1val_0x80000000_rs2val_0xaaaaaaaa, I_add_cg_cr_rs1_rs2_edges_rs1val_0x80000000_rs2val_0xaaaaaaaa_str)
    1d3c:	00032203          	lw	x4,0(x6)
    1d40:	00220863          	beq	x4,x2,1d50 <I_add_cg_cr_rs1_rs2_edges_rs1val_0x80000000_rs2val_0xaaaaaaaa+0x18>
    1d44:	778022ef          	jal	x5,44bc <failedtest_x5_x4>
    1d48:	00001d38          	.word	0x00001d38
    1d4c:	0000b33e          	.word	0x0000b33e
    1d50:	00430313          	addi	x6,x6,4

# Testcase cr_rs1_rs2_edges (Test source rs1 = 0x80000000 rs2 = 0x55555555)
  RVTEST_TESTDATA_LOAD_INT(x21, x1) # load rs1: x1 = 0x80000000
    1d54:	000aa083          	lw	x1,0(x21)
    1d58:	004a8a93          	addi	x21,x21,4
  RVTEST_TESTDATA_LOAD_INT(x21, x16) # load rs2: x16 = 0x55555555
    1d5c:	000aa803          	lw	x16,0(x21)
    1d60:	004a8a93          	addi	x21,x21,4

00001d64 <I_add_cg_cr_rs1_rs2_edges_rs1val_0x80000000_rs2val_0x55555555>:
I_add_cg_cr_rs1_rs2_edges_rs1val_0x80000000_rs2val_0x55555555:
  add x7, x1, x16 # perform operation
    1d64:	010083b3          	add	x7,x1,x16
  # Check if x7 contains the expected result. x6 is the signature ptr, x5 is the link ptr, x4 is a temp reg.
  RVTEST_SIGUPD(x6, x5, x4, x7, I_add_cg_cr_rs1_rs2_edges_rs1val_0x80000000_rs2val_0x55555555, I_add_cg_cr_rs1_rs2_edges_rs1val_0x80000000_rs2val_0x55555555_str)
    1d68:	00032203          	lw	x4,0(x6)
    1d6c:	00720863          	beq	x4,x7,1d7c <I_add_cg_cr_rs1_rs2_edges_rs1val_0x80000000_rs2val_0x55555555+0x18>
    1d70:	74c022ef          	jal	x5,44bc <failedtest_x5_x4>
    1d74:	00001d64          	.word	0x00001d64
    1d78:	0000b399          	.word	0x0000b399
    1d7c:	00430313          	addi	x6,x6,4

# Testcase cr_rs1_rs2_edges (Test source rs1 = 0x80000001 rs2 = 0x00000000)
  RVTEST_TESTDATA_LOAD_INT(x21, x15) # load rs1: x15 = 0x80000001
    1d80:	000aa783          	lw	x15,0(x21)
    1d84:	004a8a93          	addi	x21,x21,4
  RVTEST_TESTDATA_LOAD_INT(x21, x2) # load rs2: x2 = 0x00000000
    1d88:	000aa103          	lw	x2,0(x21)
    1d8c:	004a8a93          	addi	x21,x21,4

00001d90 <I_add_cg_cr_rs1_rs2_edges_rs1val_0x80000001_rs2val_0x0>:
I_add_cg_cr_rs1_rs2_edges_rs1val_0x80000001_rs2val_0x0:
  add x30, x15, x2 # perform operation
    1d90:	00278f33          	add	x30,x15,x2
  # Check if x30 contains the expected result. x6 is the signature ptr, x5 is the link ptr, x4 is a temp reg.
  RVTEST_SIGUPD(x6, x5, x4, x30, I_add_cg_cr_rs1_rs2_edges_rs1val_0x80000001_rs2val_0x0, I_add_cg_cr_rs1_rs2_edges_rs1val_0x80000001_rs2val_0x0_str)
    1d94:	00032203          	lw	x4,0(x6)
    1d98:	01e20863          	beq	x4,x30,1da8 <I_add_cg_cr_rs1_rs2_edges_rs1val_0x80000001_rs2val_0x0+0x18>
    1d9c:	720022ef          	jal	x5,44bc <failedtest_x5_x4>
    1da0:	00001d90          	.word	0x00001d90
    1da4:	0000b3f4          	.word	0x0000b3f4
    1da8:	00430313          	addi	x6,x6,4

# Testcase cr_rs1_rs2_edges (Test source rs1 = 0x80000001 rs2 = 0x00000001)
  RVTEST_TESTDATA_LOAD_INT(x21, x13) # load rs1: x13 = 0x80000001
    1dac:	000aa683          	lw	x13,0(x21)
    1db0:	004a8a93          	addi	x21,x21,4
  RVTEST_TESTDATA_LOAD_INT(x21, x25) # load rs2: x25 = 0x00000001
    1db4:	000aac83          	lw	x25,0(x21)
    1db8:	004a8a93          	addi	x21,x21,4

00001dbc <I_add_cg_cr_rs1_rs2_edges_rs1val_0x80000001_rs2val_0x1>:
I_add_cg_cr_rs1_rs2_edges_rs1val_0x80000001_rs2val_0x1:
  add x19, x13, x25 # perform operation
    1dbc:	019689b3          	add	x19,x13,x25
  # Check if x19 contains the expected result. x6 is the signature ptr, x5 is the link ptr, x4 is a temp reg.
  RVTEST_SIGUPD(x6, x5, x4, x19, I_add_cg_cr_rs1_rs2_edges_rs1val_0x80000001_rs2val_0x1, I_add_cg_cr_rs1_rs2_edges_rs1val_0x80000001_rs2val_0x1_str)
    1dc0:	00032203          	lw	x4,0(x6)
    1dc4:	01320863          	beq	x4,x19,1dd4 <I_add_cg_cr_rs1_rs2_edges_rs1val_0x80000001_rs2val_0x1+0x18>
    1dc8:	6f4022ef          	jal	x5,44bc <failedtest_x5_x4>
    1dcc:	00001dbc          	.word	0x00001dbc
    1dd0:	0000b448          	.word	0x0000b448
    1dd4:	00430313          	addi	x6,x6,4

# Testcase cr_rs1_rs2_edges (Test source rs1 = 0x80000001 rs2 = 0x00000002)
  RVTEST_TESTDATA_LOAD_INT(x21, x18) # load rs1: x18 = 0x80000001
    1dd8:	000aa903          	lw	x18,0(x21)
    1ddc:	004a8a93          	addi	x21,x21,4
  RVTEST_TESTDATA_LOAD_INT(x21, x3) # load rs2: x3 = 0x00000002
    1de0:	000aa183          	lw	x3,0(x21)
    1de4:	004a8a93          	addi	x21,x21,4

00001de8 <I_add_cg_cr_rs1_rs2_edges_rs1val_0x80000001_rs2val_0x2>:
I_add_cg_cr_rs1_rs2_edges_rs1val_0x80000001_rs2val_0x2:
  add x23, x18, x3 # perform operation
    1de8:	00390bb3          	add	x23,x18,x3
  # Check if x23 contains the expected result. x6 is the signature ptr, x5 is the link ptr, x4 is a temp reg.
  RVTEST_SIGUPD(x6, x5, x4, x23, I_add_cg_cr_rs1_rs2_edges_rs1val_0x80000001_rs2val_0x2, I_add_cg_cr_rs1_rs2_edges_rs1val_0x80000001_rs2val_0x2_str)
    1dec:	00032203          	lw	x4,0(x6)
    1df0:	01720863          	beq	x4,x23,1e00 <I_add_cg_cr_rs1_rs2_edges_rs1val_0x80000001_rs2val_0x2+0x18>
    1df4:	6c8022ef          	jal	x5,44bc <failedtest_x5_x4>
    1df8:	00001de8          	.word	0x00001de8
    1dfc:	0000b49c          	.word	0x0000b49c
    1e00:	00430313          	addi	x6,x6,4

# Testcase cr_rs1_rs2_edges (Test source rs1 = 0x80000001 rs2 = 0x80000000)
  RVTEST_TESTDATA_LOAD_INT(x21, x28) # load rs1: x28 = 0x80000001
    1e04:	000aae03          	lw	x28,0(x21)
    1e08:	004a8a93          	addi	x21,x21,4
  RVTEST_TESTDATA_LOAD_INT(x21, x22) # load rs2: x22 = 0x80000000
    1e0c:	000aab03          	lw	x22,0(x21)
    1e10:	004a8a93          	addi	x21,x21,4

00001e14 <I_add_cg_cr_rs1_rs2_edges_rs1val_0x80000001_rs2val_0x80000000>:
I_add_cg_cr_rs1_rs2_edges_rs1val_0x80000001_rs2val_0x80000000:
  add x7, x28, x22 # perform operation
    1e14:	016e03b3          	add	x7,x28,x22
  # Check if x7 contains the expected result. x6 is the signature ptr, x5 is the link ptr, x4 is a temp reg.
  RVTEST_SIGUPD(x6, x5, x4, x7, I_add_cg_cr_rs1_rs2_edges_rs1val_0x80000001_rs2val_0x80000000, I_add_cg_cr_rs1_rs2_edges_rs1val_0x80000001_rs2val_0x80000000_str)
    1e18:	00032203          	lw	x4,0(x6)
    1e1c:	00720863          	beq	x4,x7,1e2c <I_add_cg_cr_rs1_rs2_edges_rs1val_0x80000001_rs2val_0x80000000+0x18>
    1e20:	69c022ef          	jal	x5,44bc <failedtest_x5_x4>
    1e24:	00001e14          	.word	0x00001e14
    1e28:	0000b4f0          	.word	0x0000b4f0
    1e2c:	00430313          	addi	x6,x6,4

# Testcase cr_rs1_rs2_edges (Test source rs1 = 0x80000001 rs2 = 0x80000001)
  RVTEST_TESTDATA_LOAD_INT(x21, x16) # load rs1: x16 = 0x80000001
    1e30:	000aa803          	lw	x16,0(x21)
    1e34:	004a8a93          	addi	x21,x21,4
  RVTEST_TESTDATA_LOAD_INT(x21, x27) # load rs2: x27 = 0x80000001
    1e38:	000aad83          	lw	x27,0(x21)
    1e3c:	004a8a93          	addi	x21,x21,4

00001e40 <I_add_cg_cr_rs1_rs2_edges_rs1val_0x80000001_rs2val_0x80000001>:
I_add_cg_cr_rs1_rs2_edges_rs1val_0x80000001_rs2val_0x80000001:
  add x15, x16, x27 # perform operation
    1e40:	01b807b3          	add	x15,x16,x27
  # Check if x15 contains the expected result. x6 is the signature ptr, x5 is the link ptr, x4 is a temp reg.
  RVTEST_SIGUPD(x6, x5, x4, x15, I_add_cg_cr_rs1_rs2_edges_rs1val_0x80000001_rs2val_0x80000001, I_add_cg_cr_rs1_rs2_edges_rs1val_0x80000001_rs2val_0x80000001_str)
    1e44:	00032203          	lw	x4,0(x6)
    1e48:	00f20863          	beq	x4,x15,1e58 <I_add_cg_cr_rs1_rs2_edges_rs1val_0x80000001_rs2val_0x80000001+0x18>
    1e4c:	670022ef          	jal	x5,44bc <failedtest_x5_x4>
    1e50:	00001e40          	.word	0x00001e40
    1e54:	0000b54b          	.word	0x0000b54b
    1e58:	00430313          	addi	x6,x6,4

# Testcase cr_rs1_rs2_edges (Test source rs1 = 0x80000001 rs2 = 0x7fffffff)
  RVTEST_TESTDATA_LOAD_INT(x21, x16) # load rs1: x16 = 0x80000001
    1e5c:	000aa803          	lw	x16,0(x21)
    1e60:	004a8a93          	addi	x21,x21,4
  RVTEST_TESTDATA_LOAD_INT(x21, x17) # load rs2: x17 = 0x7fffffff
    1e64:	000aa883          	lw	x17,0(x21)
    1e68:	004a8a93          	addi	x21,x21,4

00001e6c <I_add_cg_cr_rs1_rs2_edges_rs1val_0x80000001_rs2val_0x7fffffff>:
I_add_cg_cr_rs1_rs2_edges_rs1val_0x80000001_rs2val_0x7fffffff:
  add x24, x16, x17 # perform operation
    1e6c:	01180c33          	add	x24,x16,x17
  # Check if x24 contains the expected result. x6 is the signature ptr, x5 is the link ptr, x4 is a temp reg.
  RVTEST_SIGUPD(x6, x5, x4, x24, I_add_cg_cr_rs1_rs2_edges_rs1val_0x80000001_rs2val_0x7fffffff, I_add_cg_cr_rs1_rs2_edges_rs1val_0x80000001_rs2val_0x7fffffff_str)
    1e70:	00032203          	lw	x4,0(x6)
    1e74:	01820863          	beq	x4,x24,1e84 <I_add_cg_cr_rs1_rs2_edges_rs1val_0x80000001_rs2val_0x7fffffff+0x18>
    1e78:	644022ef          	jal	x5,44bc <failedtest_x5_x4>
    1e7c:	00001e6c          	.word	0x00001e6c
    1e80:	0000b5a6          	.word	0x0000b5a6
    1e84:	00430313          	addi	x6,x6,4

# Testcase cr_rs1_rs2_edges (Test source rs1 = 0x80000001 rs2 = 0x7ffffffe)
  RVTEST_TESTDATA_LOAD_INT(x21, x27) # load rs1: x27 = 0x80000001
    1e88:	000aad83          	lw	x27,0(x21)
    1e8c:	004a8a93          	addi	x21,x21,4
  RVTEST_TESTDATA_LOAD_INT(x21, x7) # load rs2: x7 = 0x7ffffffe
    1e90:	000aa383          	lw	x7,0(x21)
    1e94:	004a8a93          	addi	x21,x21,4

00001e98 <I_add_cg_cr_rs1_rs2_edges_rs1val_0x80000001_rs2val_0x7ffffffe>:
I_add_cg_cr_rs1_rs2_edges_rs1val_0x80000001_rs2val_0x7ffffffe:
  add x2, x27, x7 # perform operation
    1e98:	007d8133          	add	x2,x27,x7
  # Check if x2 contains the expected result. x6 is the signature ptr, x5 is the link ptr, x4 is a temp reg.
  RVTEST_SIGUPD(x6, x5, x4, x2, I_add_cg_cr_rs1_rs2_edges_rs1val_0x80000001_rs2val_0x7ffffffe, I_add_cg_cr_rs1_rs2_edges_rs1val_0x80000001_rs2val_0x7ffffffe_str)
    1e9c:	00032203          	lw	x4,0(x6)
    1ea0:	00220863          	beq	x4,x2,1eb0 <I_add_cg_cr_rs1_rs2_edges_rs1val_0x80000001_rs2val_0x7ffffffe+0x18>
    1ea4:	618022ef          	jal	x5,44bc <failedtest_x5_x4>
    1ea8:	00001e98          	.word	0x00001e98
    1eac:	0000b601          	.word	0x0000b601
    1eb0:	00430313          	addi	x6,x6,4

# Testcase cr_rs1_rs2_edges (Test source rs1 = 0x80000001 rs2 = 0xffffffff)
  RVTEST_TESTDATA_LOAD_INT(x21, x2) # load rs1: x2 = 0x80000001
    1eb4:	000aa103          	lw	x2,0(x21)
    1eb8:	004a8a93          	addi	x21,x21,4
  RVTEST_TESTDATA_LOAD_INT(x21, x20) # load rs2: x20 = 0xffffffff
    1ebc:	000aaa03          	lw	x20,0(x21)
    1ec0:	004a8a93          	addi	x21,x21,4

00001ec4 <I_add_cg_cr_rs1_rs2_edges_rs1val_0x80000001_rs2val_0xffffffff>:
I_add_cg_cr_rs1_rs2_edges_rs1val_0x80000001_rs2val_0xffffffff:
  add x16, x2, x20 # perform operation
    1ec4:	01410833          	add	x16,x2,x20
  # Check if x16 contains the expected result. x6 is the signature ptr, x5 is the link ptr, x4 is a temp reg.
  RVTEST_SIGUPD(x6, x5, x4, x16, I_add_cg_cr_rs1_rs2_edges_rs1val_0x80000001_rs2val_0xffffffff, I_add_cg_cr_rs1_rs2_edges_rs1val_0x80000001_rs2val_0xffffffff_str)
    1ec8:	00032203          	lw	x4,0(x6)
    1ecc:	01020863          	beq	x4,x16,1edc <I_add_cg_cr_rs1_rs2_edges_rs1val_0x80000001_rs2val_0xffffffff+0x18>
    1ed0:	5ec022ef          	jal	x5,44bc <failedtest_x5_x4>
    1ed4:	00001ec4          	.word	0x00001ec4
    1ed8:	0000b65c          	.word	0x0000b65c
    1edc:	00430313          	addi	x6,x6,4

# Testcase cr_rs1_rs2_edges (Test source rs1 = 0x80000001 rs2 = 0xfffffffe)
  RVTEST_TESTDATA_LOAD_INT(x21, x9) # load rs1: x9 = 0x80000001
    1ee0:	000aa483          	lw	x9,0(x21)
    1ee4:	004a8a93          	addi	x21,x21,4
  RVTEST_TESTDATA_LOAD_INT(x21, x16) # load rs2: x16 = 0xfffffffe
    1ee8:	000aa803          	lw	x16,0(x21)
    1eec:	004a8a93          	addi	x21,x21,4

00001ef0 <I_add_cg_cr_rs1_rs2_edges_rs1val_0x80000001_rs2val_0xfffffffe>:
I_add_cg_cr_rs1_rs2_edges_rs1val_0x80000001_rs2val_0xfffffffe:
  add x26, x9, x16 # perform operation
    1ef0:	01048d33          	add	x26,x9,x16
  # Check if x26 contains the expected result. x6 is the signature ptr, x5 is the link ptr, x4 is a temp reg.
  RVTEST_SIGUPD(x6, x5, x4, x26, I_add_cg_cr_rs1_rs2_edges_rs1val_0x80000001_rs2val_0xfffffffe, I_add_cg_cr_rs1_rs2_edges_rs1val_0x80000001_rs2val_0xfffffffe_str)
    1ef4:	00032203          	lw	x4,0(x6)
    1ef8:	01a20863          	beq	x4,x26,1f08 <I_add_cg_cr_rs1_rs2_edges_rs1val_0x80000001_rs2val_0xfffffffe+0x18>
    1efc:	5c0022ef          	jal	x5,44bc <failedtest_x5_x4>
    1f00:	00001ef0          	.word	0x00001ef0
    1f04:	0000b6b7          	.word	0x0000b6b7
    1f08:	00430313          	addi	x6,x6,4

# Testcase cr_rs1_rs2_edges (Test source rs1 = 0x80000001 rs2 = 0x5bbc8872)
  RVTEST_TESTDATA_LOAD_INT(x21, x15) # load rs1: x15 = 0x80000001
    1f0c:	000aa783          	lw	x15,0(x21)
    1f10:	004a8a93          	addi	x21,x21,4
  RVTEST_TESTDATA_LOAD_INT(x21, x24) # load rs2: x24 = 0x5bbc8872
    1f14:	000aac03          	lw	x24,0(x21)
    1f18:	004a8a93          	addi	x21,x21,4

00001f1c <I_add_cg_cr_rs1_rs2_edges_rs1val_0x80000001_rs2val_0x5bbc8872>:
I_add_cg_cr_rs1_rs2_edges_rs1val_0x80000001_rs2val_0x5bbc8872:
  add x17, x15, x24 # perform operation
    1f1c:	018788b3          	add	x17,x15,x24
  # Check if x17 contains the expected result. x6 is the signature ptr, x5 is the link ptr, x4 is a temp reg.
  RVTEST_SIGUPD(x6, x5, x4, x17, I_add_cg_cr_rs1_rs2_edges_rs1val_0x80000001_rs2val_0x5bbc8872, I_add_cg_cr_rs1_rs2_edges_rs1val_0x80000001_rs2val_0x5bbc8872_str)
    1f20:	00032203          	lw	x4,0(x6)
    1f24:	01120863          	beq	x4,x17,1f34 <I_add_cg_cr_rs1_rs2_edges_rs1val_0x80000001_rs2val_0x5bbc8872+0x18>
    1f28:	594022ef          	jal	x5,44bc <failedtest_x5_x4>
    1f2c:	00001f1c          	.word	0x00001f1c
    1f30:	0000b712          	.word	0x0000b712
    1f34:	00430313          	addi	x6,x6,4

# Testcase cr_rs1_rs2_edges (Test source rs1 = 0x80000001 rs2 = 0xaaaaaaaa)
  RVTEST_TESTDATA_LOAD_INT(x21, x28) # load rs1: x28 = 0x80000001
    1f38:	000aae03          	lw	x28,0(x21)
    1f3c:	004a8a93          	addi	x21,x21,4
  RVTEST_TESTDATA_LOAD_INT(x21, x10) # load rs2: x10 = 0xaaaaaaaa
    1f40:	000aa503          	lw	x10,0(x21)
    1f44:	004a8a93          	addi	x21,x21,4

00001f48 <I_add_cg_cr_rs1_rs2_edges_rs1val_0x80000001_rs2val_0xaaaaaaaa>:
I_add_cg_cr_rs1_rs2_edges_rs1val_0x80000001_rs2val_0xaaaaaaaa:
  add x8, x28, x10 # perform operation
    1f48:	00ae0433          	add	x8,x28,x10
  # Check if x8 contains the expected result. x6 is the signature ptr, x5 is the link ptr, x4 is a temp reg.
  RVTEST_SIGUPD(x6, x5, x4, x8, I_add_cg_cr_rs1_rs2_edges_rs1val_0x80000001_rs2val_0xaaaaaaaa, I_add_cg_cr_rs1_rs2_edges_rs1val_0x80000001_rs2val_0xaaaaaaaa_str)
    1f4c:	00032203          	lw	x4,0(x6)
    1f50:	00820863          	beq	x4,x8,1f60 <I_add_cg_cr_rs1_rs2_edges_rs1val_0x80000001_rs2val_0xaaaaaaaa+0x18>
    1f54:	568022ef          	jal	x5,44bc <failedtest_x5_x4>
    1f58:	00001f48          	.word	0x00001f48
    1f5c:	0000b76d          	.word	0x0000b76d
    1f60:	00430313          	addi	x6,x6,4

# Testcase cr_rs1_rs2_edges (Test source rs1 = 0x80000001 rs2 = 0x55555555)
  RVTEST_TESTDATA_LOAD_INT(x21, x18) # load rs1: x18 = 0x80000001
    1f64:	000aa903          	lw	x18,0(x21)
    1f68:	004a8a93          	addi	x21,x21,4
  RVTEST_TESTDATA_LOAD_INT(x21, x23) # load rs2: x23 = 0x55555555
    1f6c:	000aab83          	lw	x23,0(x21)
    1f70:	004a8a93          	addi	x21,x21,4

00001f74 <I_add_cg_cr_rs1_rs2_edges_rs1val_0x80000001_rs2val_0x55555555>:
I_add_cg_cr_rs1_rs2_edges_rs1val_0x80000001_rs2val_0x55555555:
  add x16, x18, x23 # perform operation
    1f74:	01790833          	add	x16,x18,x23
  # Check if x16 contains the expected result. x6 is the signature ptr, x5 is the link ptr, x4 is a temp reg.
  RVTEST_SIGUPD(x6, x5, x4, x16, I_add_cg_cr_rs1_rs2_edges_rs1val_0x80000001_rs2val_0x55555555, I_add_cg_cr_rs1_rs2_edges_rs1val_0x80000001_rs2val_0x55555555_str)
    1f78:	00032203          	lw	x4,0(x6)
    1f7c:	01020863          	beq	x4,x16,1f8c <I_add_cg_cr_rs1_rs2_edges_rs1val_0x80000001_rs2val_0x55555555+0x18>
    1f80:	53c022ef          	jal	x5,44bc <failedtest_x5_x4>
    1f84:	00001f74          	.word	0x00001f74
    1f88:	0000b7c8          	.word	0x0000b7c8
    1f8c:	00430313          	addi	x6,x6,4

# Testcase cr_rs1_rs2_edges (Test source rs1 = 0x7fffffff rs2 = 0x00000000)
  RVTEST_TESTDATA_LOAD_INT(x21, x27) # load rs1: x27 = 0x7fffffff
    1f90:	000aad83          	lw	x27,0(x21)
    1f94:	004a8a93          	addi	x21,x21,4
  RVTEST_TESTDATA_LOAD_INT(x21, x17) # load rs2: x17 = 0x00000000
    1f98:	000aa883          	lw	x17,0(x21)
    1f9c:	004a8a93          	addi	x21,x21,4

00001fa0 <I_add_cg_cr_rs1_rs2_edges_rs1val_0x7fffffff_rs2val_0x0>:
I_add_cg_cr_rs1_rs2_edges_rs1val_0x7fffffff_rs2val_0x0:
  add x29, x27, x17 # perform operation
    1fa0:	011d8eb3          	add	x29,x27,x17
  # Check if x29 contains the expected result. x6 is the signature ptr, x5 is the link ptr, x4 is a temp reg.
  RVTEST_SIGUPD(x6, x5, x4, x29, I_add_cg_cr_rs1_rs2_edges_rs1val_0x7fffffff_rs2val_0x0, I_add_cg_cr_rs1_rs2_edges_rs1val_0x7fffffff_rs2val_0x0_str)
    1fa4:	00032203          	lw	x4,0(x6)
    1fa8:	01d20863          	beq	x4,x29,1fb8 <I_add_cg_cr_rs1_rs2_edges_rs1val_0x7fffffff_rs2val_0x0+0x18>
    1fac:	510022ef          	jal	x5,44bc <failedtest_x5_x4>
    1fb0:	00001fa0          	.word	0x00001fa0
    1fb4:	0000b823          	.word	0x0000b823
    1fb8:	00430313          	addi	x6,x6,4

# Testcase cr_rs1_rs2_edges (Test source rs1 = 0x7fffffff rs2 = 0x00000001)
  RVTEST_TESTDATA_LOAD_INT(x21, x26) # load rs1: x26 = 0x7fffffff
    1fbc:	000aad03          	lw	x26,0(x21)
    1fc0:	004a8a93          	addi	x21,x21,4
  RVTEST_TESTDATA_LOAD_INT(x21, x28) # load rs2: x28 = 0x00000001
    1fc4:	000aae03          	lw	x28,0(x21)
    1fc8:	004a8a93          	addi	x21,x21,4

00001fcc <I_add_cg_cr_rs1_rs2_edges_rs1val_0x7fffffff_rs2val_0x1>:
I_add_cg_cr_rs1_rs2_edges_rs1val_0x7fffffff_rs2val_0x1:
  add x20, x26, x28 # perform operation
    1fcc:	01cd0a33          	add	x20,x26,x28
  # Check if x20 contains the expected result. x6 is the signature ptr, x5 is the link ptr, x4 is a temp reg.
  RVTEST_SIGUPD(x6, x5, x4, x20, I_add_cg_cr_rs1_rs2_edges_rs1val_0x7fffffff_rs2val_0x1, I_add_cg_cr_rs1_rs2_edges_rs1val_0x7fffffff_rs2val_0x1_str)
    1fd0:	00032203          	lw	x4,0(x6)
    1fd4:	01420863          	beq	x4,x20,1fe4 <I_add_cg_cr_rs1_rs2_edges_rs1val_0x7fffffff_rs2val_0x1+0x18>
    1fd8:	4e4022ef          	jal	x5,44bc <failedtest_x5_x4>
    1fdc:	00001fcc          	.word	0x00001fcc
    1fe0:	0000b877          	.word	0x0000b877
    1fe4:	00430313          	addi	x6,x6,4

# Testcase cr_rs1_rs2_edges (Test source rs1 = 0x7fffffff rs2 = 0x00000002)
  RVTEST_TESTDATA_LOAD_INT(x21, x24) # load rs1: x24 = 0x7fffffff
    1fe8:	000aac03          	lw	x24,0(x21)
    1fec:	004a8a93          	addi	x21,x21,4
  RVTEST_TESTDATA_LOAD_INT(x21, x9) # load rs2: x9 = 0x00000002
    1ff0:	000aa483          	lw	x9,0(x21)
    1ff4:	004a8a93          	addi	x21,x21,4

00001ff8 <I_add_cg_cr_rs1_rs2_edges_rs1val_0x7fffffff_rs2val_0x2>:
I_add_cg_cr_rs1_rs2_edges_rs1val_0x7fffffff_rs2val_0x2:
  add x10, x24, x9 # perform operation
    1ff8:	009c0533          	add	x10,x24,x9
  # Check if x10 contains the expected result. x6 is the signature ptr, x5 is the link ptr, x4 is a temp reg.
  RVTEST_SIGUPD(x6, x5, x4, x10, I_add_cg_cr_rs1_rs2_edges_rs1val_0x7fffffff_rs2val_0x2, I_add_cg_cr_rs1_rs2_edges_rs1val_0x7fffffff_rs2val_0x2_str)
    1ffc:	00032203          	lw	x4,0(x6)
    2000:	00a20863          	beq	x4,x10,2010 <I_add_cg_cr_rs1_rs2_edges_rs1val_0x7fffffff_rs2val_0x2+0x18>
    2004:	4b8022ef          	jal	x5,44bc <failedtest_x5_x4>
    2008:	00001ff8          	.word	0x00001ff8
    200c:	0000b8cb          	.word	0x0000b8cb
    2010:	00430313          	addi	x6,x6,4

# Testcase cr_rs1_rs2_edges (Test source rs1 = 0x7fffffff rs2 = 0x80000000)
  RVTEST_TESTDATA_LOAD_INT(x21, x30) # load rs1: x30 = 0x7fffffff
    2014:	000aaf03          	lw	x30,0(x21)
    2018:	004a8a93          	addi	x21,x21,4
  RVTEST_TESTDATA_LOAD_INT(x21, x20) # load rs2: x20 = 0x80000000
    201c:	000aaa03          	lw	x20,0(x21)
    2020:	004a8a93          	addi	x21,x21,4

00002024 <I_add_cg_cr_rs1_rs2_edges_rs1val_0x7fffffff_rs2val_0x80000000>:
I_add_cg_cr_rs1_rs2_edges_rs1val_0x7fffffff_rs2val_0x80000000:
  add x23, x30, x20 # perform operation
    2024:	014f0bb3          	add	x23,x30,x20
  # Check if x23 contains the expected result. x6 is the signature ptr, x5 is the link ptr, x4 is a temp reg.
  RVTEST_SIGUPD(x6, x5, x4, x23, I_add_cg_cr_rs1_rs2_edges_rs1val_0x7fffffff_rs2val_0x80000000, I_add_cg_cr_rs1_rs2_edges_rs1val_0x7fffffff_rs2val_0x80000000_str)
    2028:	00032203          	lw	x4,0(x6)
    202c:	01720863          	beq	x4,x23,203c <I_add_cg_cr_rs1_rs2_edges_rs1val_0x7fffffff_rs2val_0x80000000+0x18>
    2030:	48c022ef          	jal	x5,44bc <failedtest_x5_x4>
    2034:	00002024          	.word	0x00002024
    2038:	0000b91f          	.word	0x0000b91f
    203c:	00430313          	addi	x6,x6,4

# Testcase cr_rs1_rs2_edges (Test source rs1 = 0x7fffffff rs2 = 0x80000001)
  RVTEST_TESTDATA_LOAD_INT(x21, x18) # load rs1: x18 = 0x7fffffff
    2040:	000aa903          	lw	x18,0(x21)
    2044:	004a8a93          	addi	x21,x21,4
  RVTEST_TESTDATA_LOAD_INT(x21, x7) # load rs2: x7 = 0x80000001
    2048:	000aa383          	lw	x7,0(x21)
    204c:	004a8a93          	addi	x21,x21,4

00002050 <I_add_cg_cr_rs1_rs2_edges_rs1val_0x7fffffff_rs2val_0x80000001>:
I_add_cg_cr_rs1_rs2_edges_rs1val_0x7fffffff_rs2val_0x80000001:
  add x3, x18, x7 # perform operation
    2050:	007901b3          	add	x3,x18,x7
  # Check if x3 contains the expected result. x6 is the signature ptr, x5 is the link ptr, x4 is a temp reg.
  RVTEST_SIGUPD(x6, x5, x4, x3, I_add_cg_cr_rs1_rs2_edges_rs1val_0x7fffffff_rs2val_0x80000001, I_add_cg_cr_rs1_rs2_edges_rs1val_0x7fffffff_rs2val_0x80000001_str)
    2054:	00032203          	lw	x4,0(x6)
    2058:	00320863          	beq	x4,x3,2068 <I_add_cg_cr_rs1_rs2_edges_rs1val_0x7fffffff_rs2val_0x80000001+0x18>
    205c:	460022ef          	jal	x5,44bc <failedtest_x5_x4>
    2060:	00002050          	.word	0x00002050
    2064:	0000b97a          	.word	0x0000b97a
    2068:	00430313          	addi	x6,x6,4

# Testcase cr_rs1_rs2_edges (Test source rs1 = 0x7fffffff rs2 = 0x7fffffff)
  RVTEST_TESTDATA_LOAD_INT(x21, x31) # load rs1: x31 = 0x7fffffff
    206c:	000aaf83          	lw	x31,0(x21)
    2070:	004a8a93          	addi	x21,x21,4
  RVTEST_TESTDATA_LOAD_INT(x21, x23) # load rs2: x23 = 0x7fffffff
    2074:	000aab83          	lw	x23,0(x21)
    2078:	004a8a93          	addi	x21,x21,4

0000207c <I_add_cg_cr_rs1_rs2_edges_rs1val_0x7fffffff_rs2val_0x7fffffff>:
I_add_cg_cr_rs1_rs2_edges_rs1val_0x7fffffff_rs2val_0x7fffffff:
  add x1, x31, x23 # perform operation
    207c:	017f80b3          	add	x1,x31,x23
  # Check if x1 contains the expected result. x6 is the signature ptr, x5 is the link ptr, x4 is a temp reg.
  RVTEST_SIGUPD(x6, x5, x4, x1, I_add_cg_cr_rs1_rs2_edges_rs1val_0x7fffffff_rs2val_0x7fffffff, I_add_cg_cr_rs1_rs2_edges_rs1val_0x7fffffff_rs2val_0x7fffffff_str)
    2080:	00032203          	lw	x4,0(x6)
    2084:	00120863          	beq	x4,x1,2094 <I_add_cg_cr_rs1_rs2_edges_rs1val_0x7fffffff_rs2val_0x7fffffff+0x18>
    2088:	434022ef          	jal	x5,44bc <failedtest_x5_x4>
    208c:	0000207c          	.word	0x0000207c
    2090:	0000b9d5          	.word	0x0000b9d5
    2094:	00430313          	addi	x6,x6,4

# Testcase cr_rs1_rs2_edges (Test source rs1 = 0x7fffffff rs2 = 0x7ffffffe)
  RVTEST_TESTDATA_LOAD_INT(x21, x22) # load rs1: x22 = 0x7fffffff
    2098:	000aab03          	lw	x22,0(x21)
    209c:	004a8a93          	addi	x21,x21,4
  RVTEST_TESTDATA_LOAD_INT(x21, x11) # load rs2: x11 = 0x7ffffffe
    20a0:	000aa583          	lw	x11,0(x21)
    20a4:	004a8a93          	addi	x21,x21,4

000020a8 <I_add_cg_cr_rs1_rs2_edges_rs1val_0x7fffffff_rs2val_0x7ffffffe>:
I_add_cg_cr_rs1_rs2_edges_rs1val_0x7fffffff_rs2val_0x7ffffffe:
  add x27, x22, x11 # perform operation
    20a8:	00bb0db3          	add	x27,x22,x11
  # Check if x27 contains the expected result. x6 is the signature ptr, x5 is the link ptr, x4 is a temp reg.
  RVTEST_SIGUPD(x6, x5, x4, x27, I_add_cg_cr_rs1_rs2_edges_rs1val_0x7fffffff_rs2val_0x7ffffffe, I_add_cg_cr_rs1_rs2_edges_rs1val_0x7fffffff_rs2val_0x7ffffffe_str)
    20ac:	00032203          	lw	x4,0(x6)
    20b0:	01b20863          	beq	x4,x27,20c0 <I_add_cg_cr_rs1_rs2_edges_rs1val_0x7fffffff_rs2val_0x7ffffffe+0x18>
    20b4:	408022ef          	jal	x5,44bc <failedtest_x5_x4>
    20b8:	000020a8          	.word	0x000020a8
    20bc:	0000ba30          	.word	0x0000ba30
    20c0:	00430313          	addi	x6,x6,4

# Testcase cr_rs1_rs2_edges (Test source rs1 = 0x7fffffff rs2 = 0xffffffff)
  RVTEST_TESTDATA_LOAD_INT(x21, x1) # load rs1: x1 = 0x7fffffff
    20c4:	000aa083          	lw	x1,0(x21)
    20c8:	004a8a93          	addi	x21,x21,4
  RVTEST_TESTDATA_LOAD_INT(x21, x20) # load rs2: x20 = 0xffffffff
    20cc:	000aaa03          	lw	x20,0(x21)
    20d0:	004a8a93          	addi	x21,x21,4

000020d4 <I_add_cg_cr_rs1_rs2_edges_rs1val_0x7fffffff_rs2val_0xffffffff>:
I_add_cg_cr_rs1_rs2_edges_rs1val_0x7fffffff_rs2val_0xffffffff:
  add x7, x1, x20 # perform operation
    20d4:	014083b3          	add	x7,x1,x20
  # Check if x7 contains the expected result. x6 is the signature ptr, x5 is the link ptr, x4 is a temp reg.
  RVTEST_SIGUPD(x6, x5, x4, x7, I_add_cg_cr_rs1_rs2_edges_rs1val_0x7fffffff_rs2val_0xffffffff, I_add_cg_cr_rs1_rs2_edges_rs1val_0x7fffffff_rs2val_0xffffffff_str)
    20d8:	00032203          	lw	x4,0(x6)
    20dc:	00720863          	beq	x4,x7,20ec <I_add_cg_cr_rs1_rs2_edges_rs1val_0x7fffffff_rs2val_0xffffffff+0x18>
    20e0:	3dc022ef          	jal	x5,44bc <failedtest_x5_x4>
    20e4:	000020d4          	.word	0x000020d4
    20e8:	0000ba8b          	.word	0x0000ba8b
    20ec:	00430313          	addi	x6,x6,4

# Testcase cr_rs1_rs2_edges (Test source rs1 = 0x7fffffff rs2 = 0xfffffffe)
  RVTEST_TESTDATA_LOAD_INT(x21, x26) # load rs1: x26 = 0x7fffffff
    20f0:	000aad03          	lw	x26,0(x21)
    20f4:	004a8a93          	addi	x21,x21,4
  RVTEST_TESTDATA_LOAD_INT(x21, x20) # load rs2: x20 = 0xfffffffe
    20f8:	000aaa03          	lw	x20,0(x21)
    20fc:	004a8a93          	addi	x21,x21,4

00002100 <I_add_cg_cr_rs1_rs2_edges_rs1val_0x7fffffff_rs2val_0xfffffffe>:
I_add_cg_cr_rs1_rs2_edges_rs1val_0x7fffffff_rs2val_0xfffffffe:
  add x9, x26, x20 # perform operation
    2100:	014d04b3          	add	x9,x26,x20
  # Check if x9 contains the expected result. x6 is the signature ptr, x5 is the link ptr, x4 is a temp reg.
  RVTEST_SIGUPD(x6, x5, x4, x9, I_add_cg_cr_rs1_rs2_edges_rs1val_0x7fffffff_rs2val_0xfffffffe, I_add_cg_cr_rs1_rs2_edges_rs1val_0x7fffffff_rs2val_0xfffffffe_str)
    2104:	00032203          	lw	x4,0(x6)
    2108:	00920863          	beq	x4,x9,2118 <I_add_cg_cr_rs1_rs2_edges_rs1val_0x7fffffff_rs2val_0xfffffffe+0x18>
    210c:	3b0022ef          	jal	x5,44bc <failedtest_x5_x4>
    2110:	00002100          	.word	0x00002100
    2114:	0000bae6          	.word	0x0000bae6
    2118:	00430313          	addi	x6,x6,4

# Testcase cr_rs1_rs2_edges (Test source rs1 = 0x7fffffff rs2 = 0x5bbc8872)
  RVTEST_TESTDATA_LOAD_INT(x21, x26) # load rs1: x26 = 0x7fffffff
    211c:	000aad03          	lw	x26,0(x21)
    2120:	004a8a93          	addi	x21,x21,4
  RVTEST_TESTDATA_LOAD_INT(x21, x20) # load rs2: x20 = 0x5bbc8872
    2124:	000aaa03          	lw	x20,0(x21)
    2128:	004a8a93          	addi	x21,x21,4

0000212c <I_add_cg_cr_rs1_rs2_edges_rs1val_0x7fffffff_rs2val_0x5bbc8872>:
I_add_cg_cr_rs1_rs2_edges_rs1val_0x7fffffff_rs2val_0x5bbc8872:
  add x1, x26, x20 # perform operation
    212c:	014d00b3          	add	x1,x26,x20
  # Check if x1 contains the expected result. x6 is the signature ptr, x5 is the link ptr, x4 is a temp reg.
  RVTEST_SIGUPD(x6, x5, x4, x1, I_add_cg_cr_rs1_rs2_edges_rs1val_0x7fffffff_rs2val_0x5bbc8872, I_add_cg_cr_rs1_rs2_edges_rs1val_0x7fffffff_rs2val_0x5bbc8872_str)
    2130:	00032203          	lw	x4,0(x6)
    2134:	00120863          	beq	x4,x1,2144 <I_add_cg_cr_rs1_rs2_edges_rs1val_0x7fffffff_rs2val_0x5bbc8872+0x18>
    2138:	384022ef          	jal	x5,44bc <failedtest_x5_x4>
    213c:	0000212c          	.word	0x0000212c
    2140:	0000bb41          	.word	0x0000bb41
    2144:	00430313          	addi	x6,x6,4

# Testcase cr_rs1_rs2_edges (Test source rs1 = 0x7fffffff rs2 = 0xaaaaaaaa)
  RVTEST_TESTDATA_LOAD_INT(x21, x14) # load rs1: x14 = 0x7fffffff
    2148:	000aa703          	lw	x14,0(x21)
    214c:	004a8a93          	addi	x21,x21,4
  RVTEST_TESTDATA_LOAD_INT(x21, x12) # load rs2: x12 = 0xaaaaaaaa
    2150:	000aa603          	lw	x12,0(x21)
    2154:	004a8a93          	addi	x21,x21,4

00002158 <I_add_cg_cr_rs1_rs2_edges_rs1val_0x7fffffff_rs2val_0xaaaaaaaa>:
I_add_cg_cr_rs1_rs2_edges_rs1val_0x7fffffff_rs2val_0xaaaaaaaa:
  add x19, x14, x12 # perform operation
    2158:	00c709b3          	add	x19,x14,x12
  # Check if x19 contains the expected result. x6 is the signature ptr, x5 is the link ptr, x4 is a temp reg.
  RVTEST_SIGUPD(x6, x5, x4, x19, I_add_cg_cr_rs1_rs2_edges_rs1val_0x7fffffff_rs2val_0xaaaaaaaa, I_add_cg_cr_rs1_rs2_edges_rs1val_0x7fffffff_rs2val_0xaaaaaaaa_str)
    215c:	00032203          	lw	x4,0(x6)
    2160:	01320863          	beq	x4,x19,2170 <I_add_cg_cr_rs1_rs2_edges_rs1val_0x7fffffff_rs2val_0xaaaaaaaa+0x18>
    2164:	358022ef          	jal	x5,44bc <failedtest_x5_x4>
    2168:	00002158          	.word	0x00002158
    216c:	0000bb9c          	.word	0x0000bb9c
    2170:	00430313          	addi	x6,x6,4

# Testcase cr_rs1_rs2_edges (Test source rs1 = 0x7fffffff rs2 = 0x55555555)
  RVTEST_TESTDATA_LOAD_INT(x21, x13) # load rs1: x13 = 0x7fffffff
    2174:	000aa683          	lw	x13,0(x21)
    2178:	004a8a93          	addi	x21,x21,4
  RVTEST_TESTDATA_LOAD_INT(x21, x18) # load rs2: x18 = 0x55555555
    217c:	000aa903          	lw	x18,0(x21)
    2180:	004a8a93          	addi	x21,x21,4

00002184 <I_add_cg_cr_rs1_rs2_edges_rs1val_0x7fffffff_rs2val_0x55555555>:
I_add_cg_cr_rs1_rs2_edges_rs1val_0x7fffffff_rs2val_0x55555555:
  add x7, x13, x18 # perform operation
    2184:	012683b3          	add	x7,x13,x18
  # Check if x7 contains the expected result. x6 is the signature ptr, x5 is the link ptr, x4 is a temp reg.
  RVTEST_SIGUPD(x6, x5, x4, x7, I_add_cg_cr_rs1_rs2_edges_rs1val_0x7fffffff_rs2val_0x55555555, I_add_cg_cr_rs1_rs2_edges_rs1val_0x7fffffff_rs2val_0x55555555_str)
    2188:	00032203          	lw	x4,0(x6)
    218c:	00720863          	beq	x4,x7,219c <I_add_cg_cr_rs1_rs2_edges_rs1val_0x7fffffff_rs2val_0x55555555+0x18>
    2190:	32c022ef          	jal	x5,44bc <failedtest_x5_x4>
    2194:	00002184          	.word	0x00002184
    2198:	0000bbf7          	.word	0x0000bbf7
    219c:	00430313          	addi	x6,x6,4

# Testcase cr_rs1_rs2_edges (Test source rs1 = 0x7ffffffe rs2 = 0x00000000)
  RVTEST_TESTDATA_LOAD_INT(x21, x16) # load rs1: x16 = 0x7ffffffe
    21a0:	000aa803          	lw	x16,0(x21)
    21a4:	004a8a93          	addi	x21,x21,4
  RVTEST_TESTDATA_LOAD_INT(x21, x28) # load rs2: x28 = 0x00000000
    21a8:	000aae03          	lw	x28,0(x21)
    21ac:	004a8a93          	addi	x21,x21,4

000021b0 <I_add_cg_cr_rs1_rs2_edges_rs1val_0x7ffffffe_rs2val_0x0>:
I_add_cg_cr_rs1_rs2_edges_rs1val_0x7ffffffe_rs2val_0x0:
  add x11, x16, x28 # perform operation
    21b0:	01c805b3          	add	x11,x16,x28
  # Check if x11 contains the expected result. x6 is the signature ptr, x5 is the link ptr, x4 is a temp reg.
  RVTEST_SIGUPD(x6, x5, x4, x11, I_add_cg_cr_rs1_rs2_edges_rs1val_0x7ffffffe_rs2val_0x0, I_add_cg_cr_rs1_rs2_edges_rs1val_0x7ffffffe_rs2val_0x0_str)
    21b4:	00032203          	lw	x4,0(x6)
    21b8:	00b20863          	beq	x4,x11,21c8 <I_add_cg_cr_rs1_rs2_edges_rs1val_0x7ffffffe_rs2val_0x0+0x18>
    21bc:	300022ef          	jal	x5,44bc <failedtest_x5_x4>
    21c0:	000021b0          	.word	0x000021b0
    21c4:	0000bc52          	.word	0x0000bc52
    21c8:	00430313          	addi	x6,x6,4

# Testcase cr_rs1_rs2_edges (Test source rs1 = 0x7ffffffe rs2 = 0x00000001)
  RVTEST_TESTDATA_LOAD_INT(x21, x14) # load rs1: x14 = 0x7ffffffe
    21cc:	000aa703          	lw	x14,0(x21)
    21d0:	004a8a93          	addi	x21,x21,4
  RVTEST_TESTDATA_LOAD_INT(x21, x23) # load rs2: x23 = 0x00000001
    21d4:	000aab83          	lw	x23,0(x21)
    21d8:	004a8a93          	addi	x21,x21,4

000021dc <I_add_cg_cr_rs1_rs2_edges_rs1val_0x7ffffffe_rs2val_0x1>:
I_add_cg_cr_rs1_rs2_edges_rs1val_0x7ffffffe_rs2val_0x1:
  add x26, x14, x23 # perform operation
    21dc:	01770d33          	add	x26,x14,x23
  # Check if x26 contains the expected result. x6 is the signature ptr, x5 is the link ptr, x4 is a temp reg.
  RVTEST_SIGUPD(x6, x5, x4, x26, I_add_cg_cr_rs1_rs2_edges_rs1val_0x7ffffffe_rs2val_0x1, I_add_cg_cr_rs1_rs2_edges_rs1val_0x7ffffffe_rs2val_0x1_str)
    21e0:	00032203          	lw	x4,0(x6)
    21e4:	01a20863          	beq	x4,x26,21f4 <I_add_cg_cr_rs1_rs2_edges_rs1val_0x7ffffffe_rs2val_0x1+0x18>
    21e8:	2d4022ef          	jal	x5,44bc <failedtest_x5_x4>
    21ec:	000021dc          	.word	0x000021dc
    21f0:	0000bca6          	.word	0x0000bca6
    21f4:	00430313          	addi	x6,x6,4

# Testcase cr_rs1_rs2_edges (Test source rs1 = 0x7ffffffe rs2 = 0x00000002)
  RVTEST_TESTDATA_LOAD_INT(x21, x10) # load rs1: x10 = 0x7ffffffe
    21f8:	000aa503          	lw	x10,0(x21)
    21fc:	004a8a93          	addi	x21,x21,4
  RVTEST_TESTDATA_LOAD_INT(x21, x2) # load rs2: x2 = 0x00000002
    2200:	000aa103          	lw	x2,0(x21)
    2204:	004a8a93          	addi	x21,x21,4

00002208 <I_add_cg_cr_rs1_rs2_edges_rs1val_0x7ffffffe_rs2val_0x2>:
I_add_cg_cr_rs1_rs2_edges_rs1val_0x7ffffffe_rs2val_0x2:
  add x31, x10, x2 # perform operation
    2208:	00250fb3          	add	x31,x10,x2
  # Check if x31 contains the expected result. x6 is the signature ptr, x5 is the link ptr, x4 is a temp reg.
  RVTEST_SIGUPD(x6, x5, x4, x31, I_add_cg_cr_rs1_rs2_edges_rs1val_0x7ffffffe_rs2val_0x2, I_add_cg_cr_rs1_rs2_edges_rs1val_0x7ffffffe_rs2val_0x2_str)
    220c:	00032203          	lw	x4,0(x6)
    2210:	01f20863          	beq	x4,x31,2220 <I_add_cg_cr_rs1_rs2_edges_rs1val_0x7ffffffe_rs2val_0x2+0x18>
    2214:	2a8022ef          	jal	x5,44bc <failedtest_x5_x4>
    2218:	00002208          	.word	0x00002208
    221c:	0000bcfa          	.word	0x0000bcfa
    2220:	00430313          	addi	x6,x6,4

# Testcase cr_rs1_rs2_edges (Test source rs1 = 0x7ffffffe rs2 = 0x80000000)
  RVTEST_TESTDATA_LOAD_INT(x21, x7) # load rs1: x7 = 0x7ffffffe
    2224:	000aa383          	lw	x7,0(x21)
    2228:	004a8a93          	addi	x21,x21,4
  RVTEST_TESTDATA_LOAD_INT(x21, x24) # load rs2: x24 = 0x80000000
    222c:	000aac03          	lw	x24,0(x21)
    2230:	004a8a93          	addi	x21,x21,4

00002234 <I_add_cg_cr_rs1_rs2_edges_rs1val_0x7ffffffe_rs2val_0x80000000>:
I_add_cg_cr_rs1_rs2_edges_rs1val_0x7ffffffe_rs2val_0x80000000:
  add x23, x7, x24 # perform operation
    2234:	01838bb3          	add	x23,x7,x24
  # Check if x23 contains the expected result. x6 is the signature ptr, x5 is the link ptr, x4 is a temp reg.
  RVTEST_SIGUPD(x6, x5, x4, x23, I_add_cg_cr_rs1_rs2_edges_rs1val_0x7ffffffe_rs2val_0x80000000, I_add_cg_cr_rs1_rs2_edges_rs1val_0x7ffffffe_rs2val_0x80000000_str)
    2238:	00032203          	lw	x4,0(x6)
    223c:	01720863          	beq	x4,x23,224c <I_add_cg_cr_rs1_rs2_edges_rs1val_0x7ffffffe_rs2val_0x80000000+0x18>
    2240:	27c022ef          	jal	x5,44bc <failedtest_x5_x4>
    2244:	00002234          	.word	0x00002234
    2248:	0000bd4e          	.word	0x0000bd4e
    224c:	00430313          	addi	x6,x6,4

# Testcase cr_rs1_rs2_edges (Test source rs1 = 0x7ffffffe rs2 = 0x80000001)
  RVTEST_TESTDATA_LOAD_INT(x21, x25) # load rs1: x25 = 0x7ffffffe
    2250:	000aac83          	lw	x25,0(x21)
    2254:	004a8a93          	addi	x21,x21,4
  RVTEST_TESTDATA_LOAD_INT(x21, x19) # load rs2: x19 = 0x80000001
    2258:	000aa983          	lw	x19,0(x21)
    225c:	004a8a93          	addi	x21,x21,4

00002260 <I_add_cg_cr_rs1_rs2_edges_rs1val_0x7ffffffe_rs2val_0x80000001>:
I_add_cg_cr_rs1_rs2_edges_rs1val_0x7ffffffe_rs2val_0x80000001:
  add x13, x25, x19 # perform operation
    2260:	013c86b3          	add	x13,x25,x19
  # Check if x13 contains the expected result. x6 is the signature ptr, x5 is the link ptr, x4 is a temp reg.
  RVTEST_SIGUPD(x6, x5, x4, x13, I_add_cg_cr_rs1_rs2_edges_rs1val_0x7ffffffe_rs2val_0x80000001, I_add_cg_cr_rs1_rs2_edges_rs1val_0x7ffffffe_rs2val_0x80000001_str)
    2264:	00032203          	lw	x4,0(x6)
    2268:	00d20863          	beq	x4,x13,2278 <I_add_cg_cr_rs1_rs2_edges_rs1val_0x7ffffffe_rs2val_0x80000001+0x18>
    226c:	250022ef          	jal	x5,44bc <failedtest_x5_x4>
    2270:	00002260          	.word	0x00002260
    2274:	0000bda9          	.word	0x0000bda9
    2278:	00430313          	addi	x6,x6,4

# Testcase cr_rs1_rs2_edges (Test source rs1 = 0x7ffffffe rs2 = 0x7fffffff)
  RVTEST_TESTDATA_LOAD_INT(x21, x15) # load rs1: x15 = 0x7ffffffe
    227c:	000aa783          	lw	x15,0(x21)
    2280:	004a8a93          	addi	x21,x21,4
  RVTEST_TESTDATA_LOAD_INT(x21, x22) # load rs2: x22 = 0x7fffffff
    2284:	000aab03          	lw	x22,0(x21)
    2288:	004a8a93          	addi	x21,x21,4

0000228c <I_add_cg_cr_rs1_rs2_edges_rs1val_0x7ffffffe_rs2val_0x7fffffff>:
I_add_cg_cr_rs1_rs2_edges_rs1val_0x7ffffffe_rs2val_0x7fffffff:
  add x27, x15, x22 # perform operation
    228c:	01678db3          	add	x27,x15,x22
  # Check if x27 contains the expected result. x6 is the signature ptr, x5 is the link ptr, x4 is a temp reg.
  RVTEST_SIGUPD(x6, x5, x4, x27, I_add_cg_cr_rs1_rs2_edges_rs1val_0x7ffffffe_rs2val_0x7fffffff, I_add_cg_cr_rs1_rs2_edges_rs1val_0x7ffffffe_rs2val_0x7fffffff_str)
    2290:	00032203          	lw	x4,0(x6)
    2294:	01b20863          	beq	x4,x27,22a4 <I_add_cg_cr_rs1_rs2_edges_rs1val_0x7ffffffe_rs2val_0x7fffffff+0x18>
    2298:	224022ef          	jal	x5,44bc <failedtest_x5_x4>
    229c:	0000228c          	.word	0x0000228c
    22a0:	0000be04          	.word	0x0000be04
    22a4:	00430313          	addi	x6,x6,4

# Testcase cr_rs1_rs2_edges (Test source rs1 = 0x7ffffffe rs2 = 0x7ffffffe)
  RVTEST_TESTDATA_LOAD_INT(x21, x10) # load rs1: x10 = 0x7ffffffe
    22a8:	000aa503          	lw	x10,0(x21)
    22ac:	004a8a93          	addi	x21,x21,4
  RVTEST_TESTDATA_LOAD_INT(x21, x2) # load rs2: x2 = 0x7ffffffe
    22b0:	000aa103          	lw	x2,0(x21)
    22b4:	004a8a93          	addi	x21,x21,4

000022b8 <I_add_cg_cr_rs1_rs2_edges_rs1val_0x7ffffffe_rs2val_0x7ffffffe>:
I_add_cg_cr_rs1_rs2_edges_rs1val_0x7ffffffe_rs2val_0x7ffffffe:
  add x1, x10, x2 # perform operation
    22b8:	002500b3          	add	x1,x10,x2
  # Check if x1 contains the expected result. x6 is the signature ptr, x5 is the link ptr, x4 is a temp reg.
  RVTEST_SIGUPD(x6, x5, x4, x1, I_add_cg_cr_rs1_rs2_edges_rs1val_0x7ffffffe_rs2val_0x7ffffffe, I_add_cg_cr_rs1_rs2_edges_rs1val_0x7ffffffe_rs2val_0x7ffffffe_str)
    22bc:	00032203          	lw	x4,0(x6)
    22c0:	00120863          	beq	x4,x1,22d0 <I_add_cg_cr_rs1_rs2_edges_rs1val_0x7ffffffe_rs2val_0x7ffffffe+0x18>
    22c4:	1f8022ef          	jal	x5,44bc <failedtest_x5_x4>
    22c8:	000022b8          	.word	0x000022b8
    22cc:	0000be5f          	.word	0x0000be5f
    22d0:	00430313          	addi	x6,x6,4

# Testcase cr_rs1_rs2_edges (Test source rs1 = 0x7ffffffe rs2 = 0xffffffff)
  RVTEST_TESTDATA_LOAD_INT(x21, x25) # load rs1: x25 = 0x7ffffffe
    22d4:	000aac83          	lw	x25,0(x21)
    22d8:	004a8a93          	addi	x21,x21,4
  RVTEST_TESTDATA_LOAD_INT(x21, x13) # load rs2: x13 = 0xffffffff
    22dc:	000aa683          	lw	x13,0(x21)
    22e0:	004a8a93          	addi	x21,x21,4

000022e4 <I_add_cg_cr_rs1_rs2_edges_rs1val_0x7ffffffe_rs2val_0xffffffff>:
I_add_cg_cr_rs1_rs2_edges_rs1val_0x7ffffffe_rs2val_0xffffffff:
  add x22, x25, x13 # perform operation
    22e4:	00dc8b33          	add	x22,x25,x13
  # Check if x22 contains the expected result. x6 is the signature ptr, x5 is the link ptr, x4 is a temp reg.
  RVTEST_SIGUPD(x6, x5, x4, x22, I_add_cg_cr_rs1_rs2_edges_rs1val_0x7ffffffe_rs2val_0xffffffff, I_add_cg_cr_rs1_rs2_edges_rs1val_0x7ffffffe_rs2val_0xffffffff_str)
    22e8:	00032203          	lw	x4,0(x6)
    22ec:	01620863          	beq	x4,x22,22fc <I_add_cg_cr_rs1_rs2_edges_rs1val_0x7ffffffe_rs2val_0xffffffff+0x18>
    22f0:	1cc022ef          	jal	x5,44bc <failedtest_x5_x4>
    22f4:	000022e4          	.word	0x000022e4
    22f8:	0000beba          	.word	0x0000beba
    22fc:	00430313          	addi	x6,x6,4

# Testcase cr_rs1_rs2_edges (Test source rs1 = 0x7ffffffe rs2 = 0xfffffffe)
  RVTEST_TESTDATA_LOAD_INT(x21, x13) # load rs1: x13 = 0x7ffffffe
    2300:	000aa683          	lw	x13,0(x21)
    2304:	004a8a93          	addi	x21,x21,4
  RVTEST_TESTDATA_LOAD_INT(x21, x30) # load rs2: x30 = 0xfffffffe
    2308:	000aaf03          	lw	x30,0(x21)
    230c:	004a8a93          	addi	x21,x21,4

00002310 <I_add_cg_cr_rs1_rs2_edges_rs1val_0x7ffffffe_rs2val_0xfffffffe>:
I_add_cg_cr_rs1_rs2_edges_rs1val_0x7ffffffe_rs2val_0xfffffffe:
  add x24, x13, x30 # perform operation
    2310:	01e68c33          	add	x24,x13,x30
  # Check if x24 contains the expected result. x6 is the signature ptr, x5 is the link ptr, x4 is a temp reg.
  RVTEST_SIGUPD(x6, x5, x4, x24, I_add_cg_cr_rs1_rs2_edges_rs1val_0x7ffffffe_rs2val_0xfffffffe, I_add_cg_cr_rs1_rs2_edges_rs1val_0x7ffffffe_rs2val_0xfffffffe_str)
    2314:	00032203          	lw	x4,0(x6)
    2318:	01820863          	beq	x4,x24,2328 <I_add_cg_cr_rs1_rs2_edges_rs1val_0x7ffffffe_rs2val_0xfffffffe+0x18>
    231c:	1a0022ef          	jal	x5,44bc <failedtest_x5_x4>
    2320:	00002310          	.word	0x00002310
    2324:	0000bf15          	.word	0x0000bf15
    2328:	00430313          	addi	x6,x6,4

# Testcase cr_rs1_rs2_edges (Test source rs1 = 0x7ffffffe rs2 = 0x5bbc8872)
  RVTEST_TESTDATA_LOAD_INT(x21, x28) # load rs1: x28 = 0x7ffffffe
    232c:	000aae03          	lw	x28,0(x21)
    2330:	004a8a93          	addi	x21,x21,4
  RVTEST_TESTDATA_LOAD_INT(x21, x11) # load rs2: x11 = 0x5bbc8872
    2334:	000aa583          	lw	x11,0(x21)
    2338:	004a8a93          	addi	x21,x21,4

0000233c <I_add_cg_cr_rs1_rs2_edges_rs1val_0x7ffffffe_rs2val_0x5bbc8872>:
I_add_cg_cr_rs1_rs2_edges_rs1val_0x7ffffffe_rs2val_0x5bbc8872:
  add x25, x28, x11 # perform operation
    233c:	00be0cb3          	add	x25,x28,x11
  # Check if x25 contains the expected result. x6 is the signature ptr, x5 is the link ptr, x4 is a temp reg.
  RVTEST_SIGUPD(x6, x5, x4, x25, I_add_cg_cr_rs1_rs2_edges_rs1val_0x7ffffffe_rs2val_0x5bbc8872, I_add_cg_cr_rs1_rs2_edges_rs1val_0x7ffffffe_rs2val_0x5bbc8872_str)
    2340:	00032203          	lw	x4,0(x6)
    2344:	01920863          	beq	x4,x25,2354 <I_add_cg_cr_rs1_rs2_edges_rs1val_0x7ffffffe_rs2val_0x5bbc8872+0x18>
    2348:	174022ef          	jal	x5,44bc <failedtest_x5_x4>
    234c:	0000233c          	.word	0x0000233c
    2350:	0000bf70          	.word	0x0000bf70
    2354:	00430313          	addi	x6,x6,4

# Testcase cr_rs1_rs2_edges (Test source rs1 = 0x7ffffffe rs2 = 0xaaaaaaaa)
  RVTEST_TESTDATA_LOAD_INT(x21, x11) # load rs1: x11 = 0x7ffffffe
    2358:	000aa583          	lw	x11,0(x21)
    235c:	004a8a93          	addi	x21,x21,4
  RVTEST_TESTDATA_LOAD_INT(x21, x10) # load rs2: x10 = 0xaaaaaaaa
    2360:	000aa503          	lw	x10,0(x21)
    2364:	004a8a93          	addi	x21,x21,4

00002368 <I_add_cg_cr_rs1_rs2_edges_rs1val_0x7ffffffe_rs2val_0xaaaaaaaa>:
I_add_cg_cr_rs1_rs2_edges_rs1val_0x7ffffffe_rs2val_0xaaaaaaaa:
  add x27, x11, x10 # perform operation
    2368:	00a58db3          	add	x27,x11,x10
  # Check if x27 contains the expected result. x6 is the signature ptr, x5 is the link ptr, x4 is a temp reg.
  RVTEST_SIGUPD(x6, x5, x4, x27, I_add_cg_cr_rs1_rs2_edges_rs1val_0x7ffffffe_rs2val_0xaaaaaaaa, I_add_cg_cr_rs1_rs2_edges_rs1val_0x7ffffffe_rs2val_0xaaaaaaaa_str)
    236c:	00032203          	lw	x4,0(x6)
    2370:	01b20863          	beq	x4,x27,2380 <I_add_cg_cr_rs1_rs2_edges_rs1val_0x7ffffffe_rs2val_0xaaaaaaaa+0x18>
    2374:	148022ef          	jal	x5,44bc <failedtest_x5_x4>
    2378:	00002368          	.word	0x00002368
    237c:	0000bfcb          	.word	0x0000bfcb
    2380:	00430313          	addi	x6,x6,4

# Testcase cr_rs1_rs2_edges (Test source rs1 = 0x7ffffffe rs2 = 0x55555555)
  RVTEST_TESTDATA_LOAD_INT(x21, x28) # load rs1: x28 = 0x7ffffffe
    2384:	000aae03          	lw	x28,0(x21)
    2388:	004a8a93          	addi	x21,x21,4
  RVTEST_TESTDATA_LOAD_INT(x21, x8) # load rs2: x8 = 0x55555555
    238c:	000aa403          	lw	x8,0(x21)
    2390:	004a8a93          	addi	x21,x21,4

00002394 <I_add_cg_cr_rs1_rs2_edges_rs1val_0x7ffffffe_rs2val_0x55555555>:
I_add_cg_cr_rs1_rs2_edges_rs1val_0x7ffffffe_rs2val_0x55555555:
  add x23, x28, x8 # perform operation
    2394:	008e0bb3          	add	x23,x28,x8
  # Check if x23 contains the expected result. x6 is the signature ptr, x5 is the link ptr, x4 is a temp reg.
  RVTEST_SIGUPD(x6, x5, x4, x23, I_add_cg_cr_rs1_rs2_edges_rs1val_0x7ffffffe_rs2val_0x55555555, I_add_cg_cr_rs1_rs2_edges_rs1val_0x7ffffffe_rs2val_0x55555555_str)
    2398:	00032203          	lw	x4,0(x6)
    239c:	01720863          	beq	x4,x23,23ac <I_add_cg_cr_rs1_rs2_edges_rs1val_0x7ffffffe_rs2val_0x55555555+0x18>
    23a0:	11c022ef          	jal	x5,44bc <failedtest_x5_x4>
    23a4:	00002394          	.word	0x00002394
    23a8:	0000c026          	.word	0x0000c026
    23ac:	00430313          	addi	x6,x6,4

# Testcase cr_rs1_rs2_edges (Test source rs1 = 0xffffffff rs2 = 0x00000000)
  RVTEST_TESTDATA_LOAD_INT(x21, x15) # load rs1: x15 = 0xffffffff
    23b0:	000aa783          	lw	x15,0(x21)
    23b4:	004a8a93          	addi	x21,x21,4
  RVTEST_TESTDATA_LOAD_INT(x21, x3) # load rs2: x3 = 0x00000000
    23b8:	000aa183          	lw	x3,0(x21)
    23bc:	004a8a93          	addi	x21,x21,4

000023c0 <I_add_cg_cr_rs1_rs2_edges_rs1val_0xffffffff_rs2val_0x0>:
I_add_cg_cr_rs1_rs2_edges_rs1val_0xffffffff_rs2val_0x0:
  add x13, x15, x3 # perform operation
    23c0:	003786b3          	add	x13,x15,x3
  # Check if x13 contains the expected result. x6 is the signature ptr, x5 is the link ptr, x4 is a temp reg.
  RVTEST_SIGUPD(x6, x5, x4, x13, I_add_cg_cr_rs1_rs2_edges_rs1val_0xffffffff_rs2val_0x0, I_add_cg_cr_rs1_rs2_edges_rs1val_0xffffffff_rs2val_0x0_str)
    23c4:	00032203          	lw	x4,0(x6)
    23c8:	00d20863          	beq	x4,x13,23d8 <I_add_cg_cr_rs1_rs2_edges_rs1val_0xffffffff_rs2val_0x0+0x18>
    23cc:	0f0022ef          	jal	x5,44bc <failedtest_x5_x4>
    23d0:	000023c0          	.word	0x000023c0
    23d4:	0000c081          	.word	0x0000c081
    23d8:	00430313          	addi	x6,x6,4

# Testcase cr_rs1_rs2_edges (Test source rs1 = 0xffffffff rs2 = 0x00000001)
  RVTEST_TESTDATA_LOAD_INT(x21, x11) # load rs1: x11 = 0xffffffff
    23dc:	000aa583          	lw	x11,0(x21)
    23e0:	004a8a93          	addi	x21,x21,4
  RVTEST_TESTDATA_LOAD_INT(x21, x8) # load rs2: x8 = 0x00000001
    23e4:	000aa403          	lw	x8,0(x21)
    23e8:	004a8a93          	addi	x21,x21,4

000023ec <I_add_cg_cr_rs1_rs2_edges_rs1val_0xffffffff_rs2val_0x1>:
I_add_cg_cr_rs1_rs2_edges_rs1val_0xffffffff_rs2val_0x1:
  add x13, x11, x8 # perform operation
    23ec:	008586b3          	add	x13,x11,x8
  # Check if x13 contains the expected result. x6 is the signature ptr, x5 is the link ptr, x4 is a temp reg.
  RVTEST_SIGUPD(x6, x5, x4, x13, I_add_cg_cr_rs1_rs2_edges_rs1val_0xffffffff_rs2val_0x1, I_add_cg_cr_rs1_rs2_edges_rs1val_0xffffffff_rs2val_0x1_str)
    23f0:	00032203          	lw	x4,0(x6)
    23f4:	00d20863          	beq	x4,x13,2404 <I_add_cg_cr_rs1_rs2_edges_rs1val_0xffffffff_rs2val_0x1+0x18>
    23f8:	0c4022ef          	jal	x5,44bc <failedtest_x5_x4>
    23fc:	000023ec          	.word	0x000023ec
    2400:	0000c0d5          	.word	0x0000c0d5
    2404:	00430313          	addi	x6,x6,4

# Testcase cr_rs1_rs2_edges (Test source rs1 = 0xffffffff rs2 = 0x00000002)
  RVTEST_TESTDATA_LOAD_INT(x21, x3) # load rs1: x3 = 0xffffffff
    2408:	000aa183          	lw	x3,0(x21)
    240c:	004a8a93          	addi	x21,x21,4
  RVTEST_TESTDATA_LOAD_INT(x21, x18) # load rs2: x18 = 0x00000002
    2410:	000aa903          	lw	x18,0(x21)
    2414:	004a8a93          	addi	x21,x21,4

00002418 <I_add_cg_cr_rs1_rs2_edges_rs1val_0xffffffff_rs2val_0x2>:
I_add_cg_cr_rs1_rs2_edges_rs1val_0xffffffff_rs2val_0x2:
  add x2, x3, x18 # perform operation
    2418:	01218133          	add	x2,x3,x18
  # Check if x2 contains the expected result. x6 is the signature ptr, x5 is the link ptr, x4 is a temp reg.
  RVTEST_SIGUPD(x6, x5, x4, x2, I_add_cg_cr_rs1_rs2_edges_rs1val_0xffffffff_rs2val_0x2, I_add_cg_cr_rs1_rs2_edges_rs1val_0xffffffff_rs2val_0x2_str)
    241c:	00032203          	lw	x4,0(x6)
    2420:	00220863          	beq	x4,x2,2430 <I_add_cg_cr_rs1_rs2_edges_rs1val_0xffffffff_rs2val_0x2+0x18>
    2424:	098022ef          	jal	x5,44bc <failedtest_x5_x4>
    2428:	00002418          	.word	0x00002418
    242c:	0000c129          	.word	0x0000c129
    2430:	00430313          	addi	x6,x6,4

# Testcase cr_rs1_rs2_edges (Test source rs1 = 0xffffffff rs2 = 0x80000000)
  RVTEST_TESTDATA_LOAD_INT(x21, x30) # load rs1: x30 = 0xffffffff
    2434:	000aaf03          	lw	x30,0(x21)
    2438:	004a8a93          	addi	x21,x21,4
  RVTEST_TESTDATA_LOAD_INT(x21, x3) # load rs2: x3 = 0x80000000
    243c:	000aa183          	lw	x3,0(x21)
    2440:	004a8a93          	addi	x21,x21,4

00002444 <I_add_cg_cr_rs1_rs2_edges_rs1val_0xffffffff_rs2val_0x80000000>:
I_add_cg_cr_rs1_rs2_edges_rs1val_0xffffffff_rs2val_0x80000000:
  add x29, x30, x3 # perform operation
    2444:	003f0eb3          	add	x29,x30,x3
  # Check if x29 contains the expected result. x6 is the signature ptr, x5 is the link ptr, x4 is a temp reg.
  RVTEST_SIGUPD(x6, x5, x4, x29, I_add_cg_cr_rs1_rs2_edges_rs1val_0xffffffff_rs2val_0x80000000, I_add_cg_cr_rs1_rs2_edges_rs1val_0xffffffff_rs2val_0x80000000_str)
    2448:	00032203          	lw	x4,0(x6)
    244c:	01d20863          	beq	x4,x29,245c <I_add_cg_cr_rs1_rs2_edges_rs1val_0xffffffff_rs2val_0x80000000+0x18>
    2450:	06c022ef          	jal	x5,44bc <failedtest_x5_x4>
    2454:	00002444          	.word	0x00002444
    2458:	0000c17d          	.word	0x0000c17d
    245c:	00430313          	addi	x6,x6,4

# Testcase cr_rs1_rs2_edges (Test source rs1 = 0xffffffff rs2 = 0x80000001)
  RVTEST_TESTDATA_LOAD_INT(x21, x26) # load rs1: x26 = 0xffffffff
    2460:	000aad03          	lw	x26,0(x21)
    2464:	004a8a93          	addi	x21,x21,4
  RVTEST_TESTDATA_LOAD_INT(x21, x27) # load rs2: x27 = 0x80000001
    2468:	000aad83          	lw	x27,0(x21)
    246c:	004a8a93          	addi	x21,x21,4

00002470 <I_add_cg_cr_rs1_rs2_edges_rs1val_0xffffffff_rs2val_0x80000001>:
I_add_cg_cr_rs1_rs2_edges_rs1val_0xffffffff_rs2val_0x80000001:
  add x12, x26, x27 # perform operation
    2470:	01bd0633          	add	x12,x26,x27
  # Check if x12 contains the expected result. x6 is the signature ptr, x5 is the link ptr, x4 is a temp reg.
  RVTEST_SIGUPD(x6, x5, x4, x12, I_add_cg_cr_rs1_rs2_edges_rs1val_0xffffffff_rs2val_0x80000001, I_add_cg_cr_rs1_rs2_edges_rs1val_0xffffffff_rs2val_0x80000001_str)
    2474:	00032203          	lw	x4,0(x6)
    2478:	00c20863          	beq	x4,x12,2488 <I_add_cg_cr_rs1_rs2_edges_rs1val_0xffffffff_rs2val_0x80000001+0x18>
    247c:	040022ef          	jal	x5,44bc <failedtest_x5_x4>
    2480:	00002470          	.word	0x00002470
    2484:	0000c1d8          	.word	0x0000c1d8
    2488:	00430313          	addi	x6,x6,4

# Testcase cr_rs1_rs2_edges (Test source rs1 = 0xffffffff rs2 = 0x7fffffff)
  RVTEST_TESTDATA_LOAD_INT(x21, x11) # load rs1: x11 = 0xffffffff
    248c:	000aa583          	lw	x11,0(x21)
    2490:	004a8a93          	addi	x21,x21,4
  RVTEST_TESTDATA_LOAD_INT(x21, x27) # load rs2: x27 = 0x7fffffff
    2494:	000aad83          	lw	x27,0(x21)
    2498:	004a8a93          	addi	x21,x21,4

0000249c <I_add_cg_cr_rs1_rs2_edges_rs1val_0xffffffff_rs2val_0x7fffffff>:
I_add_cg_cr_rs1_rs2_edges_rs1val_0xffffffff_rs2val_0x7fffffff:
  add x2, x11, x27 # perform operation
    249c:	01b58133          	add	x2,x11,x27
  # Check if x2 contains the expected result. x6 is the signature ptr, x5 is the link ptr, x4 is a temp reg.
  RVTEST_SIGUPD(x6, x5, x4, x2, I_add_cg_cr_rs1_rs2_edges_rs1val_0xffffffff_rs2val_0x7fffffff, I_add_cg_cr_rs1_rs2_edges_rs1val_0xffffffff_rs2val_0x7fffffff_str)
    24a0:	00032203          	lw	x4,0(x6)
    24a4:	00220863          	beq	x4,x2,24b4 <I_add_cg_cr_rs1_rs2_edges_rs1val_0xffffffff_rs2val_0x7fffffff+0x18>
    24a8:	014022ef          	jal	x5,44bc <failedtest_x5_x4>
    24ac:	0000249c          	.word	0x0000249c
    24b0:	0000c233          	.word	0x0000c233
    24b4:	00430313          	addi	x6,x6,4

# Testcase cr_rs1_rs2_edges (Test source rs1 = 0xffffffff rs2 = 0x7ffffffe)
  RVTEST_TESTDATA_LOAD_INT(x21, x17) # load rs1: x17 = 0xffffffff
    24b8:	000aa883          	lw	x17,0(x21)
    24bc:	004a8a93          	addi	x21,x21,4
  RVTEST_TESTDATA_LOAD_INT(x21, x20) # load rs2: x20 = 0x7ffffffe
    24c0:	000aaa03          	lw	x20,0(x21)
    24c4:	004a8a93          	addi	x21,x21,4

000024c8 <I_add_cg_cr_rs1_rs2_edges_rs1val_0xffffffff_rs2val_0x7ffffffe>:
I_add_cg_cr_rs1_rs2_edges_rs1val_0xffffffff_rs2val_0x7ffffffe:
  add x24, x17, x20 # perform operation
    24c8:	01488c33          	add	x24,x17,x20
  # Check if x24 contains the expected result. x6 is the signature ptr, x5 is the link ptr, x4 is a temp reg.
  RVTEST_SIGUPD(x6, x5, x4, x24, I_add_cg_cr_rs1_rs2_edges_rs1val_0xffffffff_rs2val_0x7ffffffe, I_add_cg_cr_rs1_rs2_edges_rs1val_0xffffffff_rs2val_0x7ffffffe_str)
    24cc:	00032203          	lw	x4,0(x6)
    24d0:	01820863          	beq	x4,x24,24e0 <I_add_cg_cr_rs1_rs2_edges_rs1val_0xffffffff_rs2val_0x7ffffffe+0x18>
    24d4:	7e9012ef          	jal	x5,44bc <failedtest_x5_x4>
    24d8:	000024c8          	.word	0x000024c8
    24dc:	0000c28e          	.word	0x0000c28e
    24e0:	00430313          	addi	x6,x6,4

# Testcase cr_rs1_rs2_edges (Test source rs1 = 0xffffffff rs2 = 0xffffffff)
  RVTEST_TESTDATA_LOAD_INT(x21, x15) # load rs1: x15 = 0xffffffff
    24e4:	000aa783          	lw	x15,0(x21)
    24e8:	004a8a93          	addi	x21,x21,4
  RVTEST_TESTDATA_LOAD_INT(x21, x25) # load rs2: x25 = 0xffffffff
    24ec:	000aac83          	lw	x25,0(x21)
    24f0:	004a8a93          	addi	x21,x21,4

000024f4 <I_add_cg_cr_rs1_rs2_edges_rs1val_0xffffffff_rs2val_0xffffffff>:
I_add_cg_cr_rs1_rs2_edges_rs1val_0xffffffff_rs2val_0xffffffff:
  add x14, x15, x25 # perform operation
    24f4:	01978733          	add	x14,x15,x25
  # Check if x14 contains the expected result. x6 is the signature ptr, x5 is the link ptr, x4 is a temp reg.
  RVTEST_SIGUPD(x6, x5, x4, x14, I_add_cg_cr_rs1_rs2_edges_rs1val_0xffffffff_rs2val_0xffffffff, I_add_cg_cr_rs1_rs2_edges_rs1val_0xffffffff_rs2val_0xffffffff_str)
    24f8:	00032203          	lw	x4,0(x6)
    24fc:	00e20863          	beq	x4,x14,250c <I_add_cg_cr_rs1_rs2_edges_rs1val_0xffffffff_rs2val_0xffffffff+0x18>
    2500:	7bd012ef          	jal	x5,44bc <failedtest_x5_x4>
    2504:	000024f4          	.word	0x000024f4
    2508:	0000c2e9          	.word	0x0000c2e9
    250c:	00430313          	addi	x6,x6,4

# Testcase cr_rs1_rs2_edges (Test source rs1 = 0xffffffff rs2 = 0xfffffffe)
  RVTEST_TESTDATA_LOAD_INT(x21, x23) # load rs1: x23 = 0xffffffff
    2510:	000aab83          	lw	x23,0(x21)
    2514:	004a8a93          	addi	x21,x21,4
  RVTEST_TESTDATA_LOAD_INT(x21, x22) # load rs2: x22 = 0xfffffffe
    2518:	000aab03          	lw	x22,0(x21)
    251c:	004a8a93          	addi	x21,x21,4

00002520 <I_add_cg_cr_rs1_rs2_edges_rs1val_0xffffffff_rs2val_0xfffffffe>:
I_add_cg_cr_rs1_rs2_edges_rs1val_0xffffffff_rs2val_0xfffffffe:
  add x12, x23, x22 # perform operation
    2520:	016b8633          	add	x12,x23,x22
  # Check if x12 contains the expected result. x6 is the signature ptr, x5 is the link ptr, x4 is a temp reg.
  RVTEST_SIGUPD(x6, x5, x4, x12, I_add_cg_cr_rs1_rs2_edges_rs1val_0xffffffff_rs2val_0xfffffffe, I_add_cg_cr_rs1_rs2_edges_rs1val_0xffffffff_rs2val_0xfffffffe_str)
    2524:	00032203          	lw	x4,0(x6)
    2528:	00c20863          	beq	x4,x12,2538 <I_add_cg_cr_rs1_rs2_edges_rs1val_0xffffffff_rs2val_0xfffffffe+0x18>
    252c:	791012ef          	jal	x5,44bc <failedtest_x5_x4>
    2530:	00002520          	.word	0x00002520
    2534:	0000c344          	.word	0x0000c344
    2538:	00430313          	addi	x6,x6,4

# Testcase cr_rs1_rs2_edges (Test source rs1 = 0xffffffff rs2 = 0x5bbc8872)
  RVTEST_TESTDATA_LOAD_INT(x21, x16) # load rs1: x16 = 0xffffffff
    253c:	000aa803          	lw	x16,0(x21)
    2540:	004a8a93          	addi	x21,x21,4
  RVTEST_TESTDATA_LOAD_INT(x21, x19) # load rs2: x19 = 0x5bbc8872
    2544:	000aa983          	lw	x19,0(x21)
    2548:	004a8a93          	addi	x21,x21,4

0000254c <I_add_cg_cr_rs1_rs2_edges_rs1val_0xffffffff_rs2val_0x5bbc8872>:
I_add_cg_cr_rs1_rs2_edges_rs1val_0xffffffff_rs2val_0x5bbc8872:
  add x17, x16, x19 # perform operation
    254c:	013808b3          	add	x17,x16,x19
  # Check if x17 contains the expected result. x6 is the signature ptr, x5 is the link ptr, x4 is a temp reg.
  RVTEST_SIGUPD(x6, x5, x4, x17, I_add_cg_cr_rs1_rs2_edges_rs1val_0xffffffff_rs2val_0x5bbc8872, I_add_cg_cr_rs1_rs2_edges_rs1val_0xffffffff_rs2val_0x5bbc8872_str)
    2550:	00032203          	lw	x4,0(x6)
    2554:	01120863          	beq	x4,x17,2564 <I_add_cg_cr_rs1_rs2_edges_rs1val_0xffffffff_rs2val_0x5bbc8872+0x18>
    2558:	765012ef          	jal	x5,44bc <failedtest_x5_x4>
    255c:	0000254c          	.word	0x0000254c
    2560:	0000c39f          	.word	0x0000c39f
    2564:	00430313          	addi	x6,x6,4

# Testcase cr_rs1_rs2_edges (Test source rs1 = 0xffffffff rs2 = 0xaaaaaaaa)
  RVTEST_TESTDATA_LOAD_INT(x21, x23) # load rs1: x23 = 0xffffffff
    2568:	000aab83          	lw	x23,0(x21)
    256c:	004a8a93          	addi	x21,x21,4
  RVTEST_TESTDATA_LOAD_INT(x21, x31) # load rs2: x31 = 0xaaaaaaaa
    2570:	000aaf83          	lw	x31,0(x21)
    2574:	004a8a93          	addi	x21,x21,4

00002578 <I_add_cg_cr_rs1_rs2_edges_rs1val_0xffffffff_rs2val_0xaaaaaaaa>:
I_add_cg_cr_rs1_rs2_edges_rs1val_0xffffffff_rs2val_0xaaaaaaaa:
  add x30, x23, x31 # perform operation
    2578:	01fb8f33          	add	x30,x23,x31
  # Check if x30 contains the expected result. x6 is the signature ptr, x5 is the link ptr, x4 is a temp reg.
  RVTEST_SIGUPD(x6, x5, x4, x30, I_add_cg_cr_rs1_rs2_edges_rs1val_0xffffffff_rs2val_0xaaaaaaaa, I_add_cg_cr_rs1_rs2_edges_rs1val_0xffffffff_rs2val_0xaaaaaaaa_str)
    257c:	00032203          	lw	x4,0(x6)
    2580:	01e20863          	beq	x4,x30,2590 <I_add_cg_cr_rs1_rs2_edges_rs1val_0xffffffff_rs2val_0xaaaaaaaa+0x18>
    2584:	739012ef          	jal	x5,44bc <failedtest_x5_x4>
    2588:	00002578          	.word	0x00002578
    258c:	0000c3fa          	.word	0x0000c3fa
    2590:	00430313          	addi	x6,x6,4

# Testcase cr_rs1_rs2_edges (Test source rs1 = 0xffffffff rs2 = 0x55555555)
  RVTEST_TESTDATA_LOAD_INT(x21, x27) # load rs1: x27 = 0xffffffff
    2594:	000aad83          	lw	x27,0(x21)
    2598:	004a8a93          	addi	x21,x21,4
  RVTEST_TESTDATA_LOAD_INT(x21, x2) # load rs2: x2 = 0x55555555
    259c:	000aa103          	lw	x2,0(x21)
    25a0:	004a8a93          	addi	x21,x21,4

000025a4 <I_add_cg_cr_rs1_rs2_edges_rs1val_0xffffffff_rs2val_0x55555555>:
I_add_cg_cr_rs1_rs2_edges_rs1val_0xffffffff_rs2val_0x55555555:
  add x13, x27, x2 # perform operation
    25a4:	002d86b3          	add	x13,x27,x2
  # Check if x13 contains the expected result. x6 is the signature ptr, x5 is the link ptr, x4 is a temp reg.
  RVTEST_SIGUPD(x6, x5, x4, x13, I_add_cg_cr_rs1_rs2_edges_rs1val_0xffffffff_rs2val_0x55555555, I_add_cg_cr_rs1_rs2_edges_rs1val_0xffffffff_rs2val_0x55555555_str)
    25a8:	00032203          	lw	x4,0(x6)
    25ac:	00d20863          	beq	x4,x13,25bc <I_add_cg_cr_rs1_rs2_edges_rs1val_0xffffffff_rs2val_0x55555555+0x18>
    25b0:	70d012ef          	jal	x5,44bc <failedtest_x5_x4>
    25b4:	000025a4          	.word	0x000025a4
    25b8:	0000c455          	.word	0x0000c455
    25bc:	00430313          	addi	x6,x6,4

# Testcase cr_rs1_rs2_edges (Test source rs1 = 0xfffffffe rs2 = 0x00000000)
  RVTEST_TESTDATA_LOAD_INT(x21, x13) # load rs1: x13 = 0xfffffffe
    25c0:	000aa683          	lw	x13,0(x21)
    25c4:	004a8a93          	addi	x21,x21,4
  RVTEST_TESTDATA_LOAD_INT(x21, x28) # load rs2: x28 = 0x00000000
    25c8:	000aae03          	lw	x28,0(x21)
    25cc:	004a8a93          	addi	x21,x21,4

000025d0 <I_add_cg_cr_rs1_rs2_edges_rs1val_0xfffffffe_rs2val_0x0>:
I_add_cg_cr_rs1_rs2_edges_rs1val_0xfffffffe_rs2val_0x0:
  add x19, x13, x28 # perform operation
    25d0:	01c689b3          	add	x19,x13,x28
  # Check if x19 contains the expected result. x6 is the signature ptr, x5 is the link ptr, x4 is a temp reg.
  RVTEST_SIGUPD(x6, x5, x4, x19, I_add_cg_cr_rs1_rs2_edges_rs1val_0xfffffffe_rs2val_0x0, I_add_cg_cr_rs1_rs2_edges_rs1val_0xfffffffe_rs2val_0x0_str)
    25d4:	00032203          	lw	x4,0(x6)
    25d8:	01320863          	beq	x4,x19,25e8 <I_add_cg_cr_rs1_rs2_edges_rs1val_0xfffffffe_rs2val_0x0+0x18>
    25dc:	6e1012ef          	jal	x5,44bc <failedtest_x5_x4>
    25e0:	000025d0          	.word	0x000025d0
    25e4:	0000c4b0          	.word	0x0000c4b0
    25e8:	00430313          	addi	x6,x6,4

# Testcase cr_rs1_rs2_edges (Test source rs1 = 0xfffffffe rs2 = 0x00000001)
  RVTEST_TESTDATA_LOAD_INT(x21, x10) # load rs1: x10 = 0xfffffffe
    25ec:	000aa503          	lw	x10,0(x21)
    25f0:	004a8a93          	addi	x21,x21,4
  RVTEST_TESTDATA_LOAD_INT(x21, x14) # load rs2: x14 = 0x00000001
    25f4:	000aa703          	lw	x14,0(x21)
    25f8:	004a8a93          	addi	x21,x21,4

000025fc <I_add_cg_cr_rs1_rs2_edges_rs1val_0xfffffffe_rs2val_0x1>:
I_add_cg_cr_rs1_rs2_edges_rs1val_0xfffffffe_rs2val_0x1:
  add x23, x10, x14 # perform operation
    25fc:	00e50bb3          	add	x23,x10,x14
  # Check if x23 contains the expected result. x6 is the signature ptr, x5 is the link ptr, x4 is a temp reg.
  RVTEST_SIGUPD(x6, x5, x4, x23, I_add_cg_cr_rs1_rs2_edges_rs1val_0xfffffffe_rs2val_0x1, I_add_cg_cr_rs1_rs2_edges_rs1val_0xfffffffe_rs2val_0x1_str)
    2600:	00032203          	lw	x4,0(x6)
    2604:	01720863          	beq	x4,x23,2614 <I_add_cg_cr_rs1_rs2_edges_rs1val_0xfffffffe_rs2val_0x1+0x18>
    2608:	6b5012ef          	jal	x5,44bc <failedtest_x5_x4>
    260c:	000025fc          	.word	0x000025fc
    2610:	0000c504          	.word	0x0000c504
    2614:	00430313          	addi	x6,x6,4

# Testcase cr_rs1_rs2_edges (Test source rs1 = 0xfffffffe rs2 = 0x00000002)
  RVTEST_TESTDATA_LOAD_INT(x21, x3) # load rs1: x3 = 0xfffffffe
    2618:	000aa183          	lw	x3,0(x21)
    261c:	004a8a93          	addi	x21,x21,4
  RVTEST_TESTDATA_LOAD_INT(x21, x18) # load rs2: x18 = 0x00000002
    2620:	000aa903          	lw	x18,0(x21)
    2624:	004a8a93          	addi	x21,x21,4

00002628 <I_add_cg_cr_rs1_rs2_edges_rs1val_0xfffffffe_rs2val_0x2>:
I_add_cg_cr_rs1_rs2_edges_rs1val_0xfffffffe_rs2val_0x2:
  add x15, x3, x18 # perform operation
    2628:	012187b3          	add	x15,x3,x18
  # Check if x15 contains the expected result. x6 is the signature ptr, x5 is the link ptr, x4 is a temp reg.
  RVTEST_SIGUPD(x6, x5, x4, x15, I_add_cg_cr_rs1_rs2_edges_rs1val_0xfffffffe_rs2val_0x2, I_add_cg_cr_rs1_rs2_edges_rs1val_0xfffffffe_rs2val_0x2_str)
    262c:	00032203          	lw	x4,0(x6)
    2630:	00f20863          	beq	x4,x15,2640 <I_add_cg_cr_rs1_rs2_edges_rs1val_0xfffffffe_rs2val_0x2+0x18>
    2634:	689012ef          	jal	x5,44bc <failedtest_x5_x4>
    2638:	00002628          	.word	0x00002628
    263c:	0000c558          	.word	0x0000c558
    2640:	00430313          	addi	x6,x6,4

# Testcase cr_rs1_rs2_edges (Test source rs1 = 0xfffffffe rs2 = 0x80000000)
  RVTEST_TESTDATA_LOAD_INT(x21, x14) # load rs1: x14 = 0xfffffffe
    2644:	000aa703          	lw	x14,0(x21)
    2648:	004a8a93          	addi	x21,x21,4
  RVTEST_TESTDATA_LOAD_INT(x21, x26) # load rs2: x26 = 0x80000000
    264c:	000aad03          	lw	x26,0(x21)
    2650:	004a8a93          	addi	x21,x21,4

00002654 <I_add_cg_cr_rs1_rs2_edges_rs1val_0xfffffffe_rs2val_0x80000000>:
I_add_cg_cr_rs1_rs2_edges_rs1val_0xfffffffe_rs2val_0x80000000:
  add x2, x14, x26 # perform operation
    2654:	01a70133          	add	x2,x14,x26
  # Check if x2 contains the expected result. x6 is the signature ptr, x5 is the link ptr, x4 is a temp reg.
  RVTEST_SIGUPD(x6, x5, x4, x2, I_add_cg_cr_rs1_rs2_edges_rs1val_0xfffffffe_rs2val_0x80000000, I_add_cg_cr_rs1_rs2_edges_rs1val_0xfffffffe_rs2val_0x80000000_str)
    2658:	00032203          	lw	x4,0(x6)
    265c:	00220863          	beq	x4,x2,266c <I_add_cg_cr_rs1_rs2_edges_rs1val_0xfffffffe_rs2val_0x80000000+0x18>
    2660:	65d012ef          	jal	x5,44bc <failedtest_x5_x4>
    2664:	00002654          	.word	0x00002654
    2668:	0000c5ac          	.word	0x0000c5ac
    266c:	00430313          	addi	x6,x6,4

# Testcase cr_rs1_rs2_edges (Test source rs1 = 0xfffffffe rs2 = 0x80000001)
  RVTEST_TESTDATA_LOAD_INT(x21, x8) # load rs1: x8 = 0xfffffffe
    2670:	000aa403          	lw	x8,0(x21)
    2674:	004a8a93          	addi	x21,x21,4
  RVTEST_TESTDATA_LOAD_INT(x21, x28) # load rs2: x28 = 0x80000001
    2678:	000aae03          	lw	x28,0(x21)
    267c:	004a8a93          	addi	x21,x21,4

00002680 <I_add_cg_cr_rs1_rs2_edges_rs1val_0xfffffffe_rs2val_0x80000001>:
I_add_cg_cr_rs1_rs2_edges_rs1val_0xfffffffe_rs2val_0x80000001:
  add x25, x8, x28 # perform operation
    2680:	01c40cb3          	add	x25,x8,x28
  # Check if x25 contains the expected result. x6 is the signature ptr, x5 is the link ptr, x4 is a temp reg.
  RVTEST_SIGUPD(x6, x5, x4, x25, I_add_cg_cr_rs1_rs2_edges_rs1val_0xfffffffe_rs2val_0x80000001, I_add_cg_cr_rs1_rs2_edges_rs1val_0xfffffffe_rs2val_0x80000001_str)
    2684:	00032203          	lw	x4,0(x6)
    2688:	01920863          	beq	x4,x25,2698 <I_add_cg_cr_rs1_rs2_edges_rs1val_0xfffffffe_rs2val_0x80000001+0x18>
    268c:	631012ef          	jal	x5,44bc <failedtest_x5_x4>
    2690:	00002680          	.word	0x00002680
    2694:	0000c607          	.word	0x0000c607
    2698:	00430313          	addi	x6,x6,4

# Testcase cr_rs1_rs2_edges (Test source rs1 = 0xfffffffe rs2 = 0x7fffffff)
  RVTEST_TESTDATA_LOAD_INT(x21, x25) # load rs1: x25 = 0xfffffffe
    269c:	000aac83          	lw	x25,0(x21)
    26a0:	004a8a93          	addi	x21,x21,4
  RVTEST_TESTDATA_LOAD_INT(x21, x23) # load rs2: x23 = 0x7fffffff
    26a4:	000aab83          	lw	x23,0(x21)
    26a8:	004a8a93          	addi	x21,x21,4

000026ac <I_add_cg_cr_rs1_rs2_edges_rs1val_0xfffffffe_rs2val_0x7fffffff>:
I_add_cg_cr_rs1_rs2_edges_rs1val_0xfffffffe_rs2val_0x7fffffff:
  add x2, x25, x23 # perform operation
    26ac:	017c8133          	add	x2,x25,x23
  # Check if x2 contains the expected result. x6 is the signature ptr, x5 is the link ptr, x4 is a temp reg.
  RVTEST_SIGUPD(x6, x5, x4, x2, I_add_cg_cr_rs1_rs2_edges_rs1val_0xfffffffe_rs2val_0x7fffffff, I_add_cg_cr_rs1_rs2_edges_rs1val_0xfffffffe_rs2val_0x7fffffff_str)
    26b0:	00032203          	lw	x4,0(x6)
    26b4:	00220863          	beq	x4,x2,26c4 <I_add_cg_cr_rs1_rs2_edges_rs1val_0xfffffffe_rs2val_0x7fffffff+0x18>
    26b8:	605012ef          	jal	x5,44bc <failedtest_x5_x4>
    26bc:	000026ac          	.word	0x000026ac
    26c0:	0000c662          	.word	0x0000c662
    26c4:	00430313          	addi	x6,x6,4

# Testcase cr_rs1_rs2_edges (Test source rs1 = 0xfffffffe rs2 = 0x7ffffffe)
  RVTEST_TESTDATA_LOAD_INT(x21, x18) # load rs1: x18 = 0xfffffffe
    26c8:	000aa903          	lw	x18,0(x21)
    26cc:	004a8a93          	addi	x21,x21,4
  RVTEST_TESTDATA_LOAD_INT(x21, x3) # load rs2: x3 = 0x7ffffffe
    26d0:	000aa183          	lw	x3,0(x21)
    26d4:	004a8a93          	addi	x21,x21,4

000026d8 <I_add_cg_cr_rs1_rs2_edges_rs1val_0xfffffffe_rs2val_0x7ffffffe>:
I_add_cg_cr_rs1_rs2_edges_rs1val_0xfffffffe_rs2val_0x7ffffffe:
  add x13, x18, x3 # perform operation
    26d8:	003906b3          	add	x13,x18,x3
  # Check if x13 contains the expected result. x6 is the signature ptr, x5 is the link ptr, x4 is a temp reg.
  RVTEST_SIGUPD(x6, x5, x4, x13, I_add_cg_cr_rs1_rs2_edges_rs1val_0xfffffffe_rs2val_0x7ffffffe, I_add_cg_cr_rs1_rs2_edges_rs1val_0xfffffffe_rs2val_0x7ffffffe_str)
    26dc:	00032203          	lw	x4,0(x6)
    26e0:	00d20863          	beq	x4,x13,26f0 <I_add_cg_cr_rs1_rs2_edges_rs1val_0xfffffffe_rs2val_0x7ffffffe+0x18>
    26e4:	5d9012ef          	jal	x5,44bc <failedtest_x5_x4>
    26e8:	000026d8          	.word	0x000026d8
    26ec:	0000c6bd          	.word	0x0000c6bd
    26f0:	00430313          	addi	x6,x6,4

# Testcase cr_rs1_rs2_edges (Test source rs1 = 0xfffffffe rs2 = 0xffffffff)
  RVTEST_TESTDATA_LOAD_INT(x21, x22) # load rs1: x22 = 0xfffffffe
    26f4:	000aab03          	lw	x22,0(x21)
    26f8:	004a8a93          	addi	x21,x21,4
  RVTEST_TESTDATA_LOAD_INT(x21, x7) # load rs2: x7 = 0xffffffff
    26fc:	000aa383          	lw	x7,0(x21)
    2700:	004a8a93          	addi	x21,x21,4

00002704 <I_add_cg_cr_rs1_rs2_edges_rs1val_0xfffffffe_rs2val_0xffffffff>:
I_add_cg_cr_rs1_rs2_edges_rs1val_0xfffffffe_rs2val_0xffffffff:
  add x25, x22, x7 # perform operation
    2704:	007b0cb3          	add	x25,x22,x7
  # Check if x25 contains the expected result. x6 is the signature ptr, x5 is the link ptr, x4 is a temp reg.
  RVTEST_SIGUPD(x6, x5, x4, x25, I_add_cg_cr_rs1_rs2_edges_rs1val_0xfffffffe_rs2val_0xffffffff, I_add_cg_cr_rs1_rs2_edges_rs1val_0xfffffffe_rs2val_0xffffffff_str)
    2708:	00032203          	lw	x4,0(x6)
    270c:	01920863          	beq	x4,x25,271c <I_add_cg_cr_rs1_rs2_edges_rs1val_0xfffffffe_rs2val_0xffffffff+0x18>
    2710:	5ad012ef          	jal	x5,44bc <failedtest_x5_x4>
    2714:	00002704          	.word	0x00002704
    2718:	0000c718          	.word	0x0000c718
    271c:	00430313          	addi	x6,x6,4

# Testcase cr_rs1_rs2_edges (Test source rs1 = 0xfffffffe rs2 = 0xfffffffe)
  RVTEST_TESTDATA_LOAD_INT(x21, x19) # load rs1: x19 = 0xfffffffe
    2720:	000aa983          	lw	x19,0(x21)
    2724:	004a8a93          	addi	x21,x21,4
  RVTEST_TESTDATA_LOAD_INT(x21, x12) # load rs2: x12 = 0xfffffffe
    2728:	000aa603          	lw	x12,0(x21)
    272c:	004a8a93          	addi	x21,x21,4

00002730 <I_add_cg_cr_rs1_rs2_edges_rs1val_0xfffffffe_rs2val_0xfffffffe>:
I_add_cg_cr_rs1_rs2_edges_rs1val_0xfffffffe_rs2val_0xfffffffe:
  add x20, x19, x12 # perform operation
    2730:	00c98a33          	add	x20,x19,x12
  # Check if x20 contains the expected result. x6 is the signature ptr, x5 is the link ptr, x4 is a temp reg.
  RVTEST_SIGUPD(x6, x5, x4, x20, I_add_cg_cr_rs1_rs2_edges_rs1val_0xfffffffe_rs2val_0xfffffffe, I_add_cg_cr_rs1_rs2_edges_rs1val_0xfffffffe_rs2val_0xfffffffe_str)
    2734:	00032203          	lw	x4,0(x6)
    2738:	01420863          	beq	x4,x20,2748 <I_add_cg_cr_rs1_rs2_edges_rs1val_0xfffffffe_rs2val_0xfffffffe+0x18>
    273c:	581012ef          	jal	x5,44bc <failedtest_x5_x4>
    2740:	00002730          	.word	0x00002730
    2744:	0000c773          	.word	0x0000c773
    2748:	00430313          	addi	x6,x6,4

# Testcase cr_rs1_rs2_edges (Test source rs1 = 0xfffffffe rs2 = 0x5bbc8872)
  RVTEST_TESTDATA_LOAD_INT(x21, x7) # load rs1: x7 = 0xfffffffe
    274c:	000aa383          	lw	x7,0(x21)
    2750:	004a8a93          	addi	x21,x21,4
  RVTEST_TESTDATA_LOAD_INT(x21, x3) # load rs2: x3 = 0x5bbc8872
    2754:	000aa183          	lw	x3,0(x21)
    2758:	004a8a93          	addi	x21,x21,4

0000275c <I_add_cg_cr_rs1_rs2_edges_rs1val_0xfffffffe_rs2val_0x5bbc8872>:
I_add_cg_cr_rs1_rs2_edges_rs1val_0xfffffffe_rs2val_0x5bbc8872:
  add x11, x7, x3 # perform operation
    275c:	003385b3          	add	x11,x7,x3
  # Check if x11 contains the expected result. x6 is the signature ptr, x5 is the link ptr, x4 is a temp reg.
  RVTEST_SIGUPD(x6, x5, x4, x11, I_add_cg_cr_rs1_rs2_edges_rs1val_0xfffffffe_rs2val_0x5bbc8872, I_add_cg_cr_rs1_rs2_edges_rs1val_0xfffffffe_rs2val_0x5bbc8872_str)
    2760:	00032203          	lw	x4,0(x6)
    2764:	00b20863          	beq	x4,x11,2774 <I_add_cg_cr_rs1_rs2_edges_rs1val_0xfffffffe_rs2val_0x5bbc8872+0x18>
    2768:	555012ef          	jal	x5,44bc <failedtest_x5_x4>
    276c:	0000275c          	.word	0x0000275c
    2770:	0000c7ce          	.word	0x0000c7ce
    2774:	00430313          	addi	x6,x6,4

# Testcase cr_rs1_rs2_edges (Test source rs1 = 0xfffffffe rs2 = 0xaaaaaaaa)
  RVTEST_TESTDATA_LOAD_INT(x21, x19) # load rs1: x19 = 0xfffffffe
    2778:	000aa983          	lw	x19,0(x21)
    277c:	004a8a93          	addi	x21,x21,4
  RVTEST_TESTDATA_LOAD_INT(x21, x3) # load rs2: x3 = 0xaaaaaaaa
    2780:	000aa183          	lw	x3,0(x21)
    2784:	004a8a93          	addi	x21,x21,4

00002788 <I_add_cg_cr_rs1_rs2_edges_rs1val_0xfffffffe_rs2val_0xaaaaaaaa>:
I_add_cg_cr_rs1_rs2_edges_rs1val_0xfffffffe_rs2val_0xaaaaaaaa:
  add x12, x19, x3 # perform operation
    2788:	00398633          	add	x12,x19,x3
  # Check if x12 contains the expected result. x6 is the signature ptr, x5 is the link ptr, x4 is a temp reg.
  RVTEST_SIGUPD(x6, x5, x4, x12, I_add_cg_cr_rs1_rs2_edges_rs1val_0xfffffffe_rs2val_0xaaaaaaaa, I_add_cg_cr_rs1_rs2_edges_rs1val_0xfffffffe_rs2val_0xaaaaaaaa_str)
    278c:	00032203          	lw	x4,0(x6)
    2790:	00c20863          	beq	x4,x12,27a0 <I_add_cg_cr_rs1_rs2_edges_rs1val_0xfffffffe_rs2val_0xaaaaaaaa+0x18>
    2794:	529012ef          	jal	x5,44bc <failedtest_x5_x4>
    2798:	00002788          	.word	0x00002788
    279c:	0000c829          	.word	0x0000c829
    27a0:	00430313          	addi	x6,x6,4

# Testcase cr_rs1_rs2_edges (Test source rs1 = 0xfffffffe rs2 = 0x55555555)
  RVTEST_TESTDATA_LOAD_INT(x21, x19) # load rs1: x19 = 0xfffffffe
    27a4:	000aa983          	lw	x19,0(x21)
    27a8:	004a8a93          	addi	x21,x21,4
  RVTEST_TESTDATA_LOAD_INT(x21, x27) # load rs2: x27 = 0x55555555
    27ac:	000aad83          	lw	x27,0(x21)
    27b0:	004a8a93          	addi	x21,x21,4

000027b4 <I_add_cg_cr_rs1_rs2_edges_rs1val_0xfffffffe_rs2val_0x55555555>:
I_add_cg_cr_rs1_rs2_edges_rs1val_0xfffffffe_rs2val_0x55555555:
  add x8, x19, x27 # perform operation
    27b4:	01b98433          	add	x8,x19,x27
  # Check if x8 contains the expected result. x6 is the signature ptr, x5 is the link ptr, x4 is a temp reg.
  RVTEST_SIGUPD(x6, x5, x4, x8, I_add_cg_cr_rs1_rs2_edges_rs1val_0xfffffffe_rs2val_0x55555555, I_add_cg_cr_rs1_rs2_edges_rs1val_0xfffffffe_rs2val_0x55555555_str)
    27b8:	00032203          	lw	x4,0(x6)
    27bc:	00820863          	beq	x4,x8,27cc <I_add_cg_cr_rs1_rs2_edges_rs1val_0xfffffffe_rs2val_0x55555555+0x18>
    27c0:	4fd012ef          	jal	x5,44bc <failedtest_x5_x4>
    27c4:	000027b4          	.word	0x000027b4
    27c8:	0000c884          	.word	0x0000c884
    27cc:	00430313          	addi	x6,x6,4

# Testcase cr_rs1_rs2_edges (Test source rs1 = 0x5bbc8872 rs2 = 0x00000000)
  RVTEST_TESTDATA_LOAD_INT(x21, x10) # load rs1: x10 = 0x5bbc8872
    27d0:	000aa503          	lw	x10,0(x21)
    27d4:	004a8a93          	addi	x21,x21,4
  RVTEST_TESTDATA_LOAD_INT(x21, x26) # load rs2: x26 = 0x00000000
    27d8:	000aad03          	lw	x26,0(x21)
    27dc:	004a8a93          	addi	x21,x21,4

000027e0 <I_add_cg_cr_rs1_rs2_edges_rs1val_0x5bbc8872_rs2val_0x0>:
I_add_cg_cr_rs1_rs2_edges_rs1val_0x5bbc8872_rs2val_0x0:
  add x11, x10, x26 # perform operation
    27e0:	01a505b3          	add	x11,x10,x26
  # Check if x11 contains the expected result. x6 is the signature ptr, x5 is the link ptr, x4 is a temp reg.
  RVTEST_SIGUPD(x6, x5, x4, x11, I_add_cg_cr_rs1_rs2_edges_rs1val_0x5bbc8872_rs2val_0x0, I_add_cg_cr_rs1_rs2_edges_rs1val_0x5bbc8872_rs2val_0x0_str)
    27e4:	00032203          	lw	x4,0(x6)
    27e8:	00b20863          	beq	x4,x11,27f8 <I_add_cg_cr_rs1_rs2_edges_rs1val_0x5bbc8872_rs2val_0x0+0x18>
    27ec:	4d1012ef          	jal	x5,44bc <failedtest_x5_x4>
    27f0:	000027e0          	.word	0x000027e0
    27f4:	0000c8df          	.word	0x0000c8df
    27f8:	00430313          	addi	x6,x6,4

# Testcase cr_rs1_rs2_edges (Test source rs1 = 0x5bbc8872 rs2 = 0x00000001)
  RVTEST_TESTDATA_LOAD_INT(x21, x3) # load rs1: x3 = 0x5bbc8872
    27fc:	000aa183          	lw	x3,0(x21)
    2800:	004a8a93          	addi	x21,x21,4
  RVTEST_TESTDATA_LOAD_INT(x21, x18) # load rs2: x18 = 0x00000001
    2804:	000aa903          	lw	x18,0(x21)
    2808:	004a8a93          	addi	x21,x21,4

0000280c <I_add_cg_cr_rs1_rs2_edges_rs1val_0x5bbc8872_rs2val_0x1>:
I_add_cg_cr_rs1_rs2_edges_rs1val_0x5bbc8872_rs2val_0x1:
  add x12, x3, x18 # perform operation
    280c:	01218633          	add	x12,x3,x18
  # Check if x12 contains the expected result. x6 is the signature ptr, x5 is the link ptr, x4 is a temp reg.
  RVTEST_SIGUPD(x6, x5, x4, x12, I_add_cg_cr_rs1_rs2_edges_rs1val_0x5bbc8872_rs2val_0x1, I_add_cg_cr_rs1_rs2_edges_rs1val_0x5bbc8872_rs2val_0x1_str)
    2810:	00032203          	lw	x4,0(x6)
    2814:	00c20863          	beq	x4,x12,2824 <I_add_cg_cr_rs1_rs2_edges_rs1val_0x5bbc8872_rs2val_0x1+0x18>
    2818:	4a5012ef          	jal	x5,44bc <failedtest_x5_x4>
    281c:	0000280c          	.word	0x0000280c
    2820:	0000c933          	.word	0x0000c933
    2824:	00430313          	addi	x6,x6,4

# Testcase cr_rs1_rs2_edges (Test source rs1 = 0x5bbc8872 rs2 = 0x00000002)
  RVTEST_TESTDATA_LOAD_INT(x21, x28) # load rs1: x28 = 0x5bbc8872
    2828:	000aae03          	lw	x28,0(x21)
    282c:	004a8a93          	addi	x21,x21,4
  RVTEST_TESTDATA_LOAD_INT(x21, x11) # load rs2: x11 = 0x00000002
    2830:	000aa583          	lw	x11,0(x21)
    2834:	004a8a93          	addi	x21,x21,4

00002838 <I_add_cg_cr_rs1_rs2_edges_rs1val_0x5bbc8872_rs2val_0x2>:
I_add_cg_cr_rs1_rs2_edges_rs1val_0x5bbc8872_rs2val_0x2:
  add x19, x28, x11 # perform operation
    2838:	00be09b3          	add	x19,x28,x11
  # Check if x19 contains the expected result. x6 is the signature ptr, x5 is the link ptr, x4 is a temp reg.
  RVTEST_SIGUPD(x6, x5, x4, x19, I_add_cg_cr_rs1_rs2_edges_rs1val_0x5bbc8872_rs2val_0x2, I_add_cg_cr_rs1_rs2_edges_rs1val_0x5bbc8872_rs2val_0x2_str)
    283c:	00032203          	lw	x4,0(x6)
    2840:	01320863          	beq	x4,x19,2850 <I_add_cg_cr_rs1_rs2_edges_rs1val_0x5bbc8872_rs2val_0x2+0x18>
    2844:	479012ef          	jal	x5,44bc <failedtest_x5_x4>
    2848:	00002838          	.word	0x00002838
    284c:	0000c987          	.word	0x0000c987
    2850:	00430313          	addi	x6,x6,4

# Testcase cr_rs1_rs2_edges (Test source rs1 = 0x5bbc8872 rs2 = 0x80000000)
  RVTEST_TESTDATA_LOAD_INT(x21, x14) # load rs1: x14 = 0x5bbc8872
    2854:	000aa703          	lw	x14,0(x21)
    2858:	004a8a93          	addi	x21,x21,4
  RVTEST_TESTDATA_LOAD_INT(x21, x3) # load rs2: x3 = 0x80000000
    285c:	000aa183          	lw	x3,0(x21)
    2860:	004a8a93          	addi	x21,x21,4

00002864 <I_add_cg_cr_rs1_rs2_edges_rs1val_0x5bbc8872_rs2val_0x80000000>:
I_add_cg_cr_rs1_rs2_edges_rs1val_0x5bbc8872_rs2val_0x80000000:
  add x31, x14, x3 # perform operation
    2864:	00370fb3          	add	x31,x14,x3
  # Check if x31 contains the expected result. x6 is the signature ptr, x5 is the link ptr, x4 is a temp reg.
  RVTEST_SIGUPD(x6, x5, x4, x31, I_add_cg_cr_rs1_rs2_edges_rs1val_0x5bbc8872_rs2val_0x80000000, I_add_cg_cr_rs1_rs2_edges_rs1val_0x5bbc8872_rs2val_0x80000000_str)
    2868:	00032203          	lw	x4,0(x6)
    286c:	01f20863          	beq	x4,x31,287c <I_add_cg_cr_rs1_rs2_edges_rs1val_0x5bbc8872_rs2val_0x80000000+0x18>
    2870:	44d012ef          	jal	x5,44bc <failedtest_x5_x4>
    2874:	00002864          	.word	0x00002864
    2878:	0000c9db          	.word	0x0000c9db
    287c:	00430313          	addi	x6,x6,4

# Testcase cr_rs1_rs2_edges (Test source rs1 = 0x5bbc8872 rs2 = 0x80000001)
  RVTEST_TESTDATA_LOAD_INT(x21, x22) # load rs1: x22 = 0x5bbc8872
    2880:	000aab03          	lw	x22,0(x21)
    2884:	004a8a93          	addi	x21,x21,4
  RVTEST_TESTDATA_LOAD_INT(x21, x24) # load rs2: x24 = 0x80000001
    2888:	000aac03          	lw	x24,0(x21)
    288c:	004a8a93          	addi	x21,x21,4

00002890 <I_add_cg_cr_rs1_rs2_edges_rs1val_0x5bbc8872_rs2val_0x80000001>:
I_add_cg_cr_rs1_rs2_edges_rs1val_0x5bbc8872_rs2val_0x80000001:
  add x1, x22, x24 # perform operation
    2890:	018b00b3          	add	x1,x22,x24
  # Check if x1 contains the expected result. x6 is the signature ptr, x5 is the link ptr, x4 is a temp reg.
  RVTEST_SIGUPD(x6, x5, x4, x1, I_add_cg_cr_rs1_rs2_edges_rs1val_0x5bbc8872_rs2val_0x80000001, I_add_cg_cr_rs1_rs2_edges_rs1val_0x5bbc8872_rs2val_0x80000001_str)
    2894:	00032203          	lw	x4,0(x6)
    2898:	00120863          	beq	x4,x1,28a8 <I_add_cg_cr_rs1_rs2_edges_rs1val_0x5bbc8872_rs2val_0x80000001+0x18>
    289c:	421012ef          	jal	x5,44bc <failedtest_x5_x4>
    28a0:	00002890          	.word	0x00002890
    28a4:	0000ca36          	.word	0x0000ca36
    28a8:	00430313          	addi	x6,x6,4

# Testcase cr_rs1_rs2_edges (Test source rs1 = 0x5bbc8872 rs2 = 0x7fffffff)
  RVTEST_TESTDATA_LOAD_INT(x21, x1) # load rs1: x1 = 0x5bbc8872
    28ac:	000aa083          	lw	x1,0(x21)
    28b0:	004a8a93          	addi	x21,x21,4
  RVTEST_TESTDATA_LOAD_INT(x21, x22) # load rs2: x22 = 0x7fffffff
    28b4:	000aab03          	lw	x22,0(x21)
    28b8:	004a8a93          	addi	x21,x21,4

000028bc <I_add_cg_cr_rs1_rs2_edges_rs1val_0x5bbc8872_rs2val_0x7fffffff>:
I_add_cg_cr_rs1_rs2_edges_rs1val_0x5bbc8872_rs2val_0x7fffffff:
  add x23, x1, x22 # perform operation
    28bc:	01608bb3          	add	x23,x1,x22
  # Check if x23 contains the expected result. x6 is the signature ptr, x5 is the link ptr, x4 is a temp reg.
  RVTEST_SIGUPD(x6, x5, x4, x23, I_add_cg_cr_rs1_rs2_edges_rs1val_0x5bbc8872_rs2val_0x7fffffff, I_add_cg_cr_rs1_rs2_edges_rs1val_0x5bbc8872_rs2val_0x7fffffff_str)
    28c0:	00032203          	lw	x4,0(x6)
    28c4:	01720863          	beq	x4,x23,28d4 <I_add_cg_cr_rs1_rs2_edges_rs1val_0x5bbc8872_rs2val_0x7fffffff+0x18>
    28c8:	3f5012ef          	jal	x5,44bc <failedtest_x5_x4>
    28cc:	000028bc          	.word	0x000028bc
    28d0:	0000ca91          	.word	0x0000ca91
    28d4:	00430313          	addi	x6,x6,4

# Testcase cr_rs1_rs2_edges (Test source rs1 = 0x5bbc8872 rs2 = 0x7ffffffe)
  RVTEST_TESTDATA_LOAD_INT(x21, x22) # load rs1: x22 = 0x5bbc8872
    28d8:	000aab03          	lw	x22,0(x21)
    28dc:	004a8a93          	addi	x21,x21,4
  RVTEST_TESTDATA_LOAD_INT(x21, x29) # load rs2: x29 = 0x7ffffffe
    28e0:	000aae83          	lw	x29,0(x21)
    28e4:	004a8a93          	addi	x21,x21,4

000028e8 <I_add_cg_cr_rs1_rs2_edges_rs1val_0x5bbc8872_rs2val_0x7ffffffe>:
I_add_cg_cr_rs1_rs2_edges_rs1val_0x5bbc8872_rs2val_0x7ffffffe:
  add x10, x22, x29 # perform operation
    28e8:	01db0533          	add	x10,x22,x29
  # Check if x10 contains the expected result. x6 is the signature ptr, x5 is the link ptr, x4 is a temp reg.
  RVTEST_SIGUPD(x6, x5, x4, x10, I_add_cg_cr_rs1_rs2_edges_rs1val_0x5bbc8872_rs2val_0x7ffffffe, I_add_cg_cr_rs1_rs2_edges_rs1val_0x5bbc8872_rs2val_0x7ffffffe_str)
    28ec:	00032203          	lw	x4,0(x6)
    28f0:	00a20863          	beq	x4,x10,2900 <I_add_cg_cr_rs1_rs2_edges_rs1val_0x5bbc8872_rs2val_0x7ffffffe+0x18>
    28f4:	3c9012ef          	jal	x5,44bc <failedtest_x5_x4>
    28f8:	000028e8          	.word	0x000028e8
    28fc:	0000caec          	.word	0x0000caec
    2900:	00430313          	addi	x6,x6,4

# Testcase cr_rs1_rs2_edges (Test source rs1 = 0x5bbc8872 rs2 = 0xffffffff)
  RVTEST_TESTDATA_LOAD_INT(x21, x11) # load rs1: x11 = 0x5bbc8872
    2904:	000aa583          	lw	x11,0(x21)
    2908:	004a8a93          	addi	x21,x21,4
  RVTEST_TESTDATA_LOAD_INT(x21, x23) # load rs2: x23 = 0xffffffff
    290c:	000aab83          	lw	x23,0(x21)
    2910:	004a8a93          	addi	x21,x21,4

00002914 <I_add_cg_cr_rs1_rs2_edges_rs1val_0x5bbc8872_rs2val_0xffffffff>:
I_add_cg_cr_rs1_rs2_edges_rs1val_0x5bbc8872_rs2val_0xffffffff:
  add x9, x11, x23 # perform operation
    2914:	017584b3          	add	x9,x11,x23
  # Check if x9 contains the expected result. x6 is the signature ptr, x5 is the link ptr, x4 is a temp reg.
  RVTEST_SIGUPD(x6, x5, x4, x9, I_add_cg_cr_rs1_rs2_edges_rs1val_0x5bbc8872_rs2val_0xffffffff, I_add_cg_cr_rs1_rs2_edges_rs1val_0x5bbc8872_rs2val_0xffffffff_str)
    2918:	00032203          	lw	x4,0(x6)
    291c:	00920863          	beq	x4,x9,292c <I_add_cg_cr_rs1_rs2_edges_rs1val_0x5bbc8872_rs2val_0xffffffff+0x18>
    2920:	39d012ef          	jal	x5,44bc <failedtest_x5_x4>
    2924:	00002914          	.word	0x00002914
    2928:	0000cb47          	.word	0x0000cb47
    292c:	00430313          	addi	x6,x6,4

# Testcase cr_rs1_rs2_edges (Test source rs1 = 0x5bbc8872 rs2 = 0xfffffffe)
  RVTEST_TESTDATA_LOAD_INT(x21, x15) # load rs1: x15 = 0x5bbc8872
    2930:	000aa783          	lw	x15,0(x21)
    2934:	004a8a93          	addi	x21,x21,4
  RVTEST_TESTDATA_LOAD_INT(x21, x12) # load rs2: x12 = 0xfffffffe
    2938:	000aa603          	lw	x12,0(x21)
    293c:	004a8a93          	addi	x21,x21,4

00002940 <I_add_cg_cr_rs1_rs2_edges_rs1val_0x5bbc8872_rs2val_0xfffffffe>:
I_add_cg_cr_rs1_rs2_edges_rs1val_0x5bbc8872_rs2val_0xfffffffe:
  add x10, x15, x12 # perform operation
    2940:	00c78533          	add	x10,x15,x12
  # Check if x10 contains the expected result. x6 is the signature ptr, x5 is the link ptr, x4 is a temp reg.
  RVTEST_SIGUPD(x6, x5, x4, x10, I_add_cg_cr_rs1_rs2_edges_rs1val_0x5bbc8872_rs2val_0xfffffffe, I_add_cg_cr_rs1_rs2_edges_rs1val_0x5bbc8872_rs2val_0xfffffffe_str)
    2944:	00032203          	lw	x4,0(x6)
    2948:	00a20863          	beq	x4,x10,2958 <I_add_cg_cr_rs1_rs2_edges_rs1val_0x5bbc8872_rs2val_0xfffffffe+0x18>
    294c:	371012ef          	jal	x5,44bc <failedtest_x5_x4>
    2950:	00002940          	.word	0x00002940
    2954:	0000cba2          	.word	0x0000cba2
    2958:	00430313          	addi	x6,x6,4

# Testcase cr_rs1_rs2_edges (Test source rs1 = 0x5bbc8872 rs2 = 0x5bbc8872)
  RVTEST_TESTDATA_LOAD_INT(x21, x7) # load rs1: x7 = 0x5bbc8872
    295c:	000aa383          	lw	x7,0(x21)
    2960:	004a8a93          	addi	x21,x21,4
  RVTEST_TESTDATA_LOAD_INT(x21, x24) # load rs2: x24 = 0x5bbc8872
    2964:	000aac03          	lw	x24,0(x21)
    2968:	004a8a93          	addi	x21,x21,4

0000296c <I_add_cg_cr_rs1_rs2_edges_rs1val_0x5bbc8872_rs2val_0x5bbc8872>:
I_add_cg_cr_rs1_rs2_edges_rs1val_0x5bbc8872_rs2val_0x5bbc8872:
  add x10, x7, x24 # perform operation
    296c:	01838533          	add	x10,x7,x24
  # Check if x10 contains the expected result. x6 is the signature ptr, x5 is the link ptr, x4 is a temp reg.
  RVTEST_SIGUPD(x6, x5, x4, x10, I_add_cg_cr_rs1_rs2_edges_rs1val_0x5bbc8872_rs2val_0x5bbc8872, I_add_cg_cr_rs1_rs2_edges_rs1val_0x5bbc8872_rs2val_0x5bbc8872_str)
    2970:	00032203          	lw	x4,0(x6)
    2974:	00a20863          	beq	x4,x10,2984 <I_add_cg_cr_rs1_rs2_edges_rs1val_0x5bbc8872_rs2val_0x5bbc8872+0x18>
    2978:	345012ef          	jal	x5,44bc <failedtest_x5_x4>
    297c:	0000296c          	.word	0x0000296c
    2980:	0000cbfd          	.word	0x0000cbfd
    2984:	00430313          	addi	x6,x6,4

# Testcase cr_rs1_rs2_edges (Test source rs1 = 0x5bbc8872 rs2 = 0xaaaaaaaa)
  RVTEST_TESTDATA_LOAD_INT(x21, x28) # load rs1: x28 = 0x5bbc8872
    2988:	000aae03          	lw	x28,0(x21)
    298c:	004a8a93          	addi	x21,x21,4
  RVTEST_TESTDATA_LOAD_INT(x21, x18) # load rs2: x18 = 0xaaaaaaaa
    2990:	000aa903          	lw	x18,0(x21)
    2994:	004a8a93          	addi	x21,x21,4

00002998 <I_add_cg_cr_rs1_rs2_edges_rs1val_0x5bbc8872_rs2val_0xaaaaaaaa>:
I_add_cg_cr_rs1_rs2_edges_rs1val_0x5bbc8872_rs2val_0xaaaaaaaa:
  add x13, x28, x18 # perform operation
    2998:	012e06b3          	add	x13,x28,x18
  # Check if x13 contains the expected result. x6 is the signature ptr, x5 is the link ptr, x4 is a temp reg.
  RVTEST_SIGUPD(x6, x5, x4, x13, I_add_cg_cr_rs1_rs2_edges_rs1val_0x5bbc8872_rs2val_0xaaaaaaaa, I_add_cg_cr_rs1_rs2_edges_rs1val_0x5bbc8872_rs2val_0xaaaaaaaa_str)
    299c:	00032203          	lw	x4,0(x6)
    29a0:	00d20863          	beq	x4,x13,29b0 <I_add_cg_cr_rs1_rs2_edges_rs1val_0x5bbc8872_rs2val_0xaaaaaaaa+0x18>
    29a4:	319012ef          	jal	x5,44bc <failedtest_x5_x4>
    29a8:	00002998          	.word	0x00002998
    29ac:	0000cc58          	.word	0x0000cc58
    29b0:	00430313          	addi	x6,x6,4

# Testcase cr_rs1_rs2_edges (Test source rs1 = 0x5bbc8872 rs2 = 0x55555555)
  RVTEST_TESTDATA_LOAD_INT(x21, x26) # load rs1: x26 = 0x5bbc8872
    29b4:	000aad03          	lw	x26,0(x21)
    29b8:	004a8a93          	addi	x21,x21,4
  RVTEST_TESTDATA_LOAD_INT(x21, x1) # load rs2: x1 = 0x55555555
    29bc:	000aa083          	lw	x1,0(x21)
    29c0:	004a8a93          	addi	x21,x21,4

000029c4 <I_add_cg_cr_rs1_rs2_edges_rs1val_0x5bbc8872_rs2val_0x55555555>:
I_add_cg_cr_rs1_rs2_edges_rs1val_0x5bbc8872_rs2val_0x55555555:
  add x29, x26, x1 # perform operation
    29c4:	001d0eb3          	add	x29,x26,x1
  # Check if x29 contains the expected result. x6 is the signature ptr, x5 is the link ptr, x4 is a temp reg.
  RVTEST_SIGUPD(x6, x5, x4, x29, I_add_cg_cr_rs1_rs2_edges_rs1val_0x5bbc8872_rs2val_0x55555555, I_add_cg_cr_rs1_rs2_edges_rs1val_0x5bbc8872_rs2val_0x55555555_str)
    29c8:	00032203          	lw	x4,0(x6)
    29cc:	01d20863          	beq	x4,x29,29dc <I_add_cg_cr_rs1_rs2_edges_rs1val_0x5bbc8872_rs2val_0x55555555+0x18>
    29d0:	2ed012ef          	jal	x5,44bc <failedtest_x5_x4>
    29d4:	000029c4          	.word	0x000029c4
    29d8:	0000ccb3          	.word	0x0000ccb3
    29dc:	00430313          	addi	x6,x6,4

# Testcase cr_rs1_rs2_edges (Test source rs1 = 0xaaaaaaaa rs2 = 0x00000000)
  RVTEST_TESTDATA_LOAD_INT(x21, x14) # load rs1: x14 = 0xaaaaaaaa
    29e0:	000aa703          	lw	x14,0(x21)
    29e4:	004a8a93          	addi	x21,x21,4
  RVTEST_TESTDATA_LOAD_INT(x21, x3) # load rs2: x3 = 0x00000000
    29e8:	000aa183          	lw	x3,0(x21)
    29ec:	004a8a93          	addi	x21,x21,4

000029f0 <I_add_cg_cr_rs1_rs2_edges_rs1val_0xaaaaaaaa_rs2val_0x0>:
I_add_cg_cr_rs1_rs2_edges_rs1val_0xaaaaaaaa_rs2val_0x0:
  add x9, x14, x3 # perform operation
    29f0:	003704b3          	add	x9,x14,x3
  # Check if x9 contains the expected result. x6 is the signature ptr, x5 is the link ptr, x4 is a temp reg.
  RVTEST_SIGUPD(x6, x5, x4, x9, I_add_cg_cr_rs1_rs2_edges_rs1val_0xaaaaaaaa_rs2val_0x0, I_add_cg_cr_rs1_rs2_edges_rs1val_0xaaaaaaaa_rs2val_0x0_str)
    29f4:	00032203          	lw	x4,0(x6)
    29f8:	00920863          	beq	x4,x9,2a08 <I_add_cg_cr_rs1_rs2_edges_rs1val_0xaaaaaaaa_rs2val_0x0+0x18>
    29fc:	2c1012ef          	jal	x5,44bc <failedtest_x5_x4>
    2a00:	000029f0          	.word	0x000029f0
    2a04:	0000cd0e          	.word	0x0000cd0e
    2a08:	00430313          	addi	x6,x6,4

# Testcase cr_rs1_rs2_edges (Test source rs1 = 0xaaaaaaaa rs2 = 0x00000001)
  RVTEST_TESTDATA_LOAD_INT(x21, x10) # load rs1: x10 = 0xaaaaaaaa
    2a0c:	000aa503          	lw	x10,0(x21)
    2a10:	004a8a93          	addi	x21,x21,4
  RVTEST_TESTDATA_LOAD_INT(x21, x23) # load rs2: x23 = 0x00000001
    2a14:	000aab83          	lw	x23,0(x21)
    2a18:	004a8a93          	addi	x21,x21,4

00002a1c <I_add_cg_cr_rs1_rs2_edges_rs1val_0xaaaaaaaa_rs2val_0x1>:
I_add_cg_cr_rs1_rs2_edges_rs1val_0xaaaaaaaa_rs2val_0x1:
  add x27, x10, x23 # perform operation
    2a1c:	01750db3          	add	x27,x10,x23
  # Check if x27 contains the expected result. x6 is the signature ptr, x5 is the link ptr, x4 is a temp reg.
  RVTEST_SIGUPD(x6, x5, x4, x27, I_add_cg_cr_rs1_rs2_edges_rs1val_0xaaaaaaaa_rs2val_0x1, I_add_cg_cr_rs1_rs2_edges_rs1val_0xaaaaaaaa_rs2val_0x1_str)
    2a20:	00032203          	lw	x4,0(x6)
    2a24:	01b20863          	beq	x4,x27,2a34 <I_add_cg_cr_rs1_rs2_edges_rs1val_0xaaaaaaaa_rs2val_0x1+0x18>
    2a28:	295012ef          	jal	x5,44bc <failedtest_x5_x4>
    2a2c:	00002a1c          	.word	0x00002a1c
    2a30:	0000cd62          	.word	0x0000cd62
    2a34:	00430313          	addi	x6,x6,4

# Testcase cr_rs1_rs2_edges (Test source rs1 = 0xaaaaaaaa rs2 = 0x00000002)
  RVTEST_TESTDATA_LOAD_INT(x21, x1) # load rs1: x1 = 0xaaaaaaaa
    2a38:	000aa083          	lw	x1,0(x21)
    2a3c:	004a8a93          	addi	x21,x21,4
  RVTEST_TESTDATA_LOAD_INT(x21, x20) # load rs2: x20 = 0x00000002
    2a40:	000aaa03          	lw	x20,0(x21)
    2a44:	004a8a93          	addi	x21,x21,4

00002a48 <I_add_cg_cr_rs1_rs2_edges_rs1val_0xaaaaaaaa_rs2val_0x2>:
I_add_cg_cr_rs1_rs2_edges_rs1val_0xaaaaaaaa_rs2val_0x2:
  add x10, x1, x20 # perform operation
    2a48:	01408533          	add	x10,x1,x20
  # Check if x10 contains the expected result. x6 is the signature ptr, x5 is the link ptr, x4 is a temp reg.
  RVTEST_SIGUPD(x6, x5, x4, x10, I_add_cg_cr_rs1_rs2_edges_rs1val_0xaaaaaaaa_rs2val_0x2, I_add_cg_cr_rs1_rs2_edges_rs1val_0xaaaaaaaa_rs2val_0x2_str)
    2a4c:	00032203          	lw	x4,0(x6)
    2a50:	00a20863          	beq	x4,x10,2a60 <I_add_cg_cr_rs1_rs2_edges_rs1val_0xaaaaaaaa_rs2val_0x2+0x18>
    2a54:	269012ef          	jal	x5,44bc <failedtest_x5_x4>
    2a58:	00002a48          	.word	0x00002a48
    2a5c:	0000cdb6          	.word	0x0000cdb6
    2a60:	00430313          	addi	x6,x6,4

# Testcase cr_rs1_rs2_edges (Test source rs1 = 0xaaaaaaaa rs2 = 0x80000000)
  RVTEST_TESTDATA_LOAD_INT(x21, x12) # load rs1: x12 = 0xaaaaaaaa
    2a64:	000aa603          	lw	x12,0(x21)
    2a68:	004a8a93          	addi	x21,x21,4
  RVTEST_TESTDATA_LOAD_INT(x21, x27) # load rs2: x27 = 0x80000000
    2a6c:	000aad83          	lw	x27,0(x21)
    2a70:	004a8a93          	addi	x21,x21,4

00002a74 <I_add_cg_cr_rs1_rs2_edges_rs1val_0xaaaaaaaa_rs2val_0x80000000>:
I_add_cg_cr_rs1_rs2_edges_rs1val_0xaaaaaaaa_rs2val_0x80000000:
  add x24, x12, x27 # perform operation
    2a74:	01b60c33          	add	x24,x12,x27
  # Check if x24 contains the expected result. x6 is the signature ptr, x5 is the link ptr, x4 is a temp reg.
  RVTEST_SIGUPD(x6, x5, x4, x24, I_add_cg_cr_rs1_rs2_edges_rs1val_0xaaaaaaaa_rs2val_0x80000000, I_add_cg_cr_rs1_rs2_edges_rs1val_0xaaaaaaaa_rs2val_0x80000000_str)
    2a78:	00032203          	lw	x4,0(x6)
    2a7c:	01820863          	beq	x4,x24,2a8c <I_add_cg_cr_rs1_rs2_edges_rs1val_0xaaaaaaaa_rs2val_0x80000000+0x18>
    2a80:	23d012ef          	jal	x5,44bc <failedtest_x5_x4>
    2a84:	00002a74          	.word	0x00002a74
    2a88:	0000ce0a          	.word	0x0000ce0a
    2a8c:	00430313          	addi	x6,x6,4

# Testcase cr_rs1_rs2_edges (Test source rs1 = 0xaaaaaaaa rs2 = 0x80000001)
  RVTEST_TESTDATA_LOAD_INT(x21, x25) # load rs1: x25 = 0xaaaaaaaa
    2a90:	000aac83          	lw	x25,0(x21)
    2a94:	004a8a93          	addi	x21,x21,4
  RVTEST_TESTDATA_LOAD_INT(x21, x13) # load rs2: x13 = 0x80000001
    2a98:	000aa683          	lw	x13,0(x21)
    2a9c:	004a8a93          	addi	x21,x21,4

00002aa0 <I_add_cg_cr_rs1_rs2_edges_rs1val_0xaaaaaaaa_rs2val_0x80000001>:
I_add_cg_cr_rs1_rs2_edges_rs1val_0xaaaaaaaa_rs2val_0x80000001:
  add x18, x25, x13 # perform operation
    2aa0:	00dc8933          	add	x18,x25,x13
  # Check if x18 contains the expected result. x6 is the signature ptr, x5 is the link ptr, x4 is a temp reg.
  RVTEST_SIGUPD(x6, x5, x4, x18, I_add_cg_cr_rs1_rs2_edges_rs1val_0xaaaaaaaa_rs2val_0x80000001, I_add_cg_cr_rs1_rs2_edges_rs1val_0xaaaaaaaa_rs2val_0x80000001_str)
    2aa4:	00032203          	lw	x4,0(x6)
    2aa8:	01220863          	beq	x4,x18,2ab8 <I_add_cg_cr_rs1_rs2_edges_rs1val_0xaaaaaaaa_rs2val_0x80000001+0x18>
    2aac:	211012ef          	jal	x5,44bc <failedtest_x5_x4>
    2ab0:	00002aa0          	.word	0x00002aa0
    2ab4:	0000ce65          	.word	0x0000ce65
    2ab8:	00430313          	addi	x6,x6,4

# Testcase cr_rs1_rs2_edges (Test source rs1 = 0xaaaaaaaa rs2 = 0x7fffffff)
  RVTEST_TESTDATA_LOAD_INT(x21, x9) # load rs1: x9 = 0xaaaaaaaa
    2abc:	000aa483          	lw	x9,0(x21)
    2ac0:	004a8a93          	addi	x21,x21,4
  RVTEST_TESTDATA_LOAD_INT(x21, x24) # load rs2: x24 = 0x7fffffff
    2ac4:	000aac03          	lw	x24,0(x21)
    2ac8:	004a8a93          	addi	x21,x21,4

00002acc <I_add_cg_cr_rs1_rs2_edges_rs1val_0xaaaaaaaa_rs2val_0x7fffffff>:
I_add_cg_cr_rs1_rs2_edges_rs1val_0xaaaaaaaa_rs2val_0x7fffffff:
  add x18, x9, x24 # perform operation
    2acc:	01848933          	add	x18,x9,x24
  # Check if x18 contains the expected result. x6 is the signature ptr, x5 is the link ptr, x4 is a temp reg.
  RVTEST_SIGUPD(x6, x5, x4, x18, I_add_cg_cr_rs1_rs2_edges_rs1val_0xaaaaaaaa_rs2val_0x7fffffff, I_add_cg_cr_rs1_rs2_edges_rs1val_0xaaaaaaaa_rs2val_0x7fffffff_str)
    2ad0:	00032203          	lw	x4,0(x6)
    2ad4:	01220863          	beq	x4,x18,2ae4 <I_add_cg_cr_rs1_rs2_edges_rs1val_0xaaaaaaaa_rs2val_0x7fffffff+0x18>
    2ad8:	1e5012ef          	jal	x5,44bc <failedtest_x5_x4>
    2adc:	00002acc          	.word	0x00002acc
    2ae0:	0000cec0          	.word	0x0000cec0
    2ae4:	00430313          	addi	x6,x6,4

# Testcase cr_rs1_rs2_edges (Test source rs1 = 0xaaaaaaaa rs2 = 0x7ffffffe)
  RVTEST_TESTDATA_LOAD_INT(x21, x26) # load rs1: x26 = 0xaaaaaaaa
    2ae8:	000aad03          	lw	x26,0(x21)
    2aec:	004a8a93          	addi	x21,x21,4
  RVTEST_TESTDATA_LOAD_INT(x21, x25) # load rs2: x25 = 0x7ffffffe
    2af0:	000aac83          	lw	x25,0(x21)
    2af4:	004a8a93          	addi	x21,x21,4

00002af8 <I_add_cg_cr_rs1_rs2_edges_rs1val_0xaaaaaaaa_rs2val_0x7ffffffe>:
I_add_cg_cr_rs1_rs2_edges_rs1val_0xaaaaaaaa_rs2val_0x7ffffffe:
  add x15, x26, x25 # perform operation
    2af8:	019d07b3          	add	x15,x26,x25
  # Check if x15 contains the expected result. x6 is the signature ptr, x5 is the link ptr, x4 is a temp reg.
  RVTEST_SIGUPD(x6, x5, x4, x15, I_add_cg_cr_rs1_rs2_edges_rs1val_0xaaaaaaaa_rs2val_0x7ffffffe, I_add_cg_cr_rs1_rs2_edges_rs1val_0xaaaaaaaa_rs2val_0x7ffffffe_str)
    2afc:	00032203          	lw	x4,0(x6)
    2b00:	00f20863          	beq	x4,x15,2b10 <I_add_cg_cr_rs1_rs2_edges_rs1val_0xaaaaaaaa_rs2val_0x7ffffffe+0x18>
    2b04:	1b9012ef          	jal	x5,44bc <failedtest_x5_x4>
    2b08:	00002af8          	.word	0x00002af8
    2b0c:	0000cf1b          	.word	0x0000cf1b
    2b10:	00430313          	addi	x6,x6,4

# Testcase cr_rs1_rs2_edges (Test source rs1 = 0xaaaaaaaa rs2 = 0xffffffff)
  RVTEST_TESTDATA_LOAD_INT(x21, x24) # load rs1: x24 = 0xaaaaaaaa
    2b14:	000aac03          	lw	x24,0(x21)
    2b18:	004a8a93          	addi	x21,x21,4
  RVTEST_TESTDATA_LOAD_INT(x21, x7) # load rs2: x7 = 0xffffffff
    2b1c:	000aa383          	lw	x7,0(x21)
    2b20:	004a8a93          	addi	x21,x21,4

00002b24 <I_add_cg_cr_rs1_rs2_edges_rs1val_0xaaaaaaaa_rs2val_0xffffffff>:
I_add_cg_cr_rs1_rs2_edges_rs1val_0xaaaaaaaa_rs2val_0xffffffff:
  add x12, x24, x7 # perform operation
    2b24:	007c0633          	add	x12,x24,x7
  # Check if x12 contains the expected result. x6 is the signature ptr, x5 is the link ptr, x4 is a temp reg.
  RVTEST_SIGUPD(x6, x5, x4, x12, I_add_cg_cr_rs1_rs2_edges_rs1val_0xaaaaaaaa_rs2val_0xffffffff, I_add_cg_cr_rs1_rs2_edges_rs1val_0xaaaaaaaa_rs2val_0xffffffff_str)
    2b28:	00032203          	lw	x4,0(x6)
    2b2c:	00c20863          	beq	x4,x12,2b3c <I_add_cg_cr_rs1_rs2_edges_rs1val_0xaaaaaaaa_rs2val_0xffffffff+0x18>
    2b30:	18d012ef          	jal	x5,44bc <failedtest_x5_x4>
    2b34:	00002b24          	.word	0x00002b24
    2b38:	0000cf76          	.word	0x0000cf76
    2b3c:	00430313          	addi	x6,x6,4

# Testcase cr_rs1_rs2_edges (Test source rs1 = 0xaaaaaaaa rs2 = 0xfffffffe)
  RVTEST_TESTDATA_LOAD_INT(x21, x13) # load rs1: x13 = 0xaaaaaaaa
    2b40:	000aa683          	lw	x13,0(x21)
    2b44:	004a8a93          	addi	x21,x21,4
  RVTEST_TESTDATA_LOAD_INT(x21, x17) # load rs2: x17 = 0xfffffffe
    2b48:	000aa883          	lw	x17,0(x21)
    2b4c:	004a8a93          	addi	x21,x21,4

00002b50 <I_add_cg_cr_rs1_rs2_edges_rs1val_0xaaaaaaaa_rs2val_0xfffffffe>:
I_add_cg_cr_rs1_rs2_edges_rs1val_0xaaaaaaaa_rs2val_0xfffffffe:
  add x3, x13, x17 # perform operation
    2b50:	011681b3          	add	x3,x13,x17
  # Check if x3 contains the expected result. x6 is the signature ptr, x5 is the link ptr, x4 is a temp reg.
  RVTEST_SIGUPD(x6, x5, x4, x3, I_add_cg_cr_rs1_rs2_edges_rs1val_0xaaaaaaaa_rs2val_0xfffffffe, I_add_cg_cr_rs1_rs2_edges_rs1val_0xaaaaaaaa_rs2val_0xfffffffe_str)
    2b54:	00032203          	lw	x4,0(x6)
    2b58:	00320863          	beq	x4,x3,2b68 <I_add_cg_cr_rs1_rs2_edges_rs1val_0xaaaaaaaa_rs2val_0xfffffffe+0x18>
    2b5c:	161012ef          	jal	x5,44bc <failedtest_x5_x4>
    2b60:	00002b50          	.word	0x00002b50
    2b64:	0000cfd1          	.word	0x0000cfd1
    2b68:	00430313          	addi	x6,x6,4

# Testcase cr_rs1_rs2_edges (Test source rs1 = 0xaaaaaaaa rs2 = 0x5bbc8872)
  RVTEST_TESTDATA_LOAD_INT(x21, x24) # load rs1: x24 = 0xaaaaaaaa
    2b6c:	000aac03          	lw	x24,0(x21)
    2b70:	004a8a93          	addi	x21,x21,4
  RVTEST_TESTDATA_LOAD_INT(x21, x20) # load rs2: x20 = 0x5bbc8872
    2b74:	000aaa03          	lw	x20,0(x21)
    2b78:	004a8a93          	addi	x21,x21,4

00002b7c <I_add_cg_cr_rs1_rs2_edges_rs1val_0xaaaaaaaa_rs2val_0x5bbc8872>:
I_add_cg_cr_rs1_rs2_edges_rs1val_0xaaaaaaaa_rs2val_0x5bbc8872:
  add x31, x24, x20 # perform operation
    2b7c:	014c0fb3          	add	x31,x24,x20
  # Check if x31 contains the expected result. x6 is the signature ptr, x5 is the link ptr, x4 is a temp reg.
  RVTEST_SIGUPD(x6, x5, x4, x31, I_add_cg_cr_rs1_rs2_edges_rs1val_0xaaaaaaaa_rs2val_0x5bbc8872, I_add_cg_cr_rs1_rs2_edges_rs1val_0xaaaaaaaa_rs2val_0x5bbc8872_str)
    2b80:	00032203          	lw	x4,0(x6)
    2b84:	01f20863          	beq	x4,x31,2b94 <I_add_cg_cr_rs1_rs2_edges_rs1val_0xaaaaaaaa_rs2val_0x5bbc8872+0x18>
    2b88:	135012ef          	jal	x5,44bc <failedtest_x5_x4>
    2b8c:	00002b7c          	.word	0x00002b7c
    2b90:	0000d02c          	.word	0x0000d02c
    2b94:	00430313          	addi	x6,x6,4

# Testcase cr_rs1_rs2_edges (Test source rs1 = 0xaaaaaaaa rs2 = 0xaaaaaaaa)
  RVTEST_TESTDATA_LOAD_INT(x21, x12) # load rs1: x12 = 0xaaaaaaaa
    2b98:	000aa603          	lw	x12,0(x21)
    2b9c:	004a8a93          	addi	x21,x21,4
  RVTEST_TESTDATA_LOAD_INT(x21, x7) # load rs2: x7 = 0xaaaaaaaa
    2ba0:	000aa383          	lw	x7,0(x21)
    2ba4:	004a8a93          	addi	x21,x21,4

00002ba8 <I_add_cg_cr_rs1_rs2_edges_rs1val_0xaaaaaaaa_rs2val_0xaaaaaaaa>:
I_add_cg_cr_rs1_rs2_edges_rs1val_0xaaaaaaaa_rs2val_0xaaaaaaaa:
  add x16, x12, x7 # perform operation
    2ba8:	00760833          	add	x16,x12,x7
  # Check if x16 contains the expected result. x6 is the signature ptr, x5 is the link ptr, x4 is a temp reg.
  RVTEST_SIGUPD(x6, x5, x4, x16, I_add_cg_cr_rs1_rs2_edges_rs1val_0xaaaaaaaa_rs2val_0xaaaaaaaa, I_add_cg_cr_rs1_rs2_edges_rs1val_0xaaaaaaaa_rs2val_0xaaaaaaaa_str)
    2bac:	00032203          	lw	x4,0(x6)
    2bb0:	01020863          	beq	x4,x16,2bc0 <I_add_cg_cr_rs1_rs2_edges_rs1val_0xaaaaaaaa_rs2val_0xaaaaaaaa+0x18>
    2bb4:	109012ef          	jal	x5,44bc <failedtest_x5_x4>
    2bb8:	00002ba8          	.word	0x00002ba8
    2bbc:	0000d087          	.word	0x0000d087
    2bc0:	00430313          	addi	x6,x6,4

# Testcase cr_rs1_rs2_edges (Test source rs1 = 0xaaaaaaaa rs2 = 0x55555555)
  RVTEST_TESTDATA_LOAD_INT(x21, x15) # load rs1: x15 = 0xaaaaaaaa
    2bc4:	000aa783          	lw	x15,0(x21)
    2bc8:	004a8a93          	addi	x21,x21,4
  RVTEST_TESTDATA_LOAD_INT(x21, x8) # load rs2: x8 = 0x55555555
    2bcc:	000aa403          	lw	x8,0(x21)
    2bd0:	004a8a93          	addi	x21,x21,4

00002bd4 <I_add_cg_cr_rs1_rs2_edges_rs1val_0xaaaaaaaa_rs2val_0x55555555>:
I_add_cg_cr_rs1_rs2_edges_rs1val_0xaaaaaaaa_rs2val_0x55555555:
  add x2, x15, x8 # perform operation
    2bd4:	00878133          	add	x2,x15,x8
  # Check if x2 contains the expected result. x6 is the signature ptr, x5 is the link ptr, x4 is a temp reg.
  RVTEST_SIGUPD(x6, x5, x4, x2, I_add_cg_cr_rs1_rs2_edges_rs1val_0xaaaaaaaa_rs2val_0x55555555, I_add_cg_cr_rs1_rs2_edges_rs1val_0xaaaaaaaa_rs2val_0x55555555_str)
    2bd8:	00032203          	lw	x4,0(x6)
    2bdc:	00220863          	beq	x4,x2,2bec <I_add_cg_cr_rs1_rs2_edges_rs1val_0xaaaaaaaa_rs2val_0x55555555+0x18>
    2be0:	0dd012ef          	jal	x5,44bc <failedtest_x5_x4>
    2be4:	00002bd4          	.word	0x00002bd4
    2be8:	0000d0e2          	.word	0x0000d0e2
    2bec:	00430313          	addi	x6,x6,4

# Testcase cr_rs1_rs2_edges (Test source rs1 = 0x55555555 rs2 = 0x00000000)
  RVTEST_TESTDATA_LOAD_INT(x21, x15) # load rs1: x15 = 0x55555555
    2bf0:	000aa783          	lw	x15,0(x21)
    2bf4:	004a8a93          	addi	x21,x21,4
  RVTEST_TESTDATA_LOAD_INT(x21, x27) # load rs2: x27 = 0x00000000
    2bf8:	000aad83          	lw	x27,0(x21)
    2bfc:	004a8a93          	addi	x21,x21,4

00002c00 <I_add_cg_cr_rs1_rs2_edges_rs1val_0x55555555_rs2val_0x0>:
I_add_cg_cr_rs1_rs2_edges_rs1val_0x55555555_rs2val_0x0:
  add x24, x15, x27 # perform operation
    2c00:	01b78c33          	add	x24,x15,x27
  # Check if x24 contains the expected result. x6 is the signature ptr, x5 is the link ptr, x4 is a temp reg.
  RVTEST_SIGUPD(x6, x5, x4, x24, I_add_cg_cr_rs1_rs2_edges_rs1val_0x55555555_rs2val_0x0, I_add_cg_cr_rs1_rs2_edges_rs1val_0x55555555_rs2val_0x0_str)
    2c04:	00032203          	lw	x4,0(x6)
    2c08:	01820863          	beq	x4,x24,2c18 <I_add_cg_cr_rs1_rs2_edges_rs1val_0x55555555_rs2val_0x0+0x18>
    2c0c:	0b1012ef          	jal	x5,44bc <failedtest_x5_x4>
    2c10:	00002c00          	.word	0x00002c00
    2c14:	0000d13d          	.word	0x0000d13d
    2c18:	00430313          	addi	x6,x6,4

# Testcase cr_rs1_rs2_edges (Test source rs1 = 0x55555555 rs2 = 0x00000001)
  RVTEST_TESTDATA_LOAD_INT(x21, x7) # load rs1: x7 = 0x55555555
    2c1c:	000aa383          	lw	x7,0(x21)
    2c20:	004a8a93          	addi	x21,x21,4
  RVTEST_TESTDATA_LOAD_INT(x21, x14) # load rs2: x14 = 0x00000001
    2c24:	000aa703          	lw	x14,0(x21)
    2c28:	004a8a93          	addi	x21,x21,4

00002c2c <I_add_cg_cr_rs1_rs2_edges_rs1val_0x55555555_rs2val_0x1>:
I_add_cg_cr_rs1_rs2_edges_rs1val_0x55555555_rs2val_0x1:
  add x17, x7, x14 # perform operation
    2c2c:	00e388b3          	add	x17,x7,x14
  # Check if x17 contains the expected result. x6 is the signature ptr, x5 is the link ptr, x4 is a temp reg.
  RVTEST_SIGUPD(x6, x5, x4, x17, I_add_cg_cr_rs1_rs2_edges_rs1val_0x55555555_rs2val_0x1, I_add_cg_cr_rs1_rs2_edges_rs1val_0x55555555_rs2val_0x1_str)
    2c30:	00032203          	lw	x4,0(x6)
    2c34:	01120863          	beq	x4,x17,2c44 <I_add_cg_cr_rs1_rs2_edges_rs1val_0x55555555_rs2val_0x1+0x18>
    2c38:	085012ef          	jal	x5,44bc <failedtest_x5_x4>
    2c3c:	00002c2c          	.word	0x00002c2c
    2c40:	0000d191          	.word	0x0000d191
    2c44:	00430313          	addi	x6,x6,4

# Testcase cr_rs1_rs2_edges (Test source rs1 = 0x55555555 rs2 = 0x00000002)
  RVTEST_TESTDATA_LOAD_INT(x21, x26) # load rs1: x26 = 0x55555555
    2c48:	000aad03          	lw	x26,0(x21)
    2c4c:	004a8a93          	addi	x21,x21,4
  RVTEST_TESTDATA_LOAD_INT(x21, x22) # load rs2: x22 = 0x00000002
    2c50:	000aab03          	lw	x22,0(x21)
    2c54:	004a8a93          	addi	x21,x21,4

00002c58 <I_add_cg_cr_rs1_rs2_edges_rs1val_0x55555555_rs2val_0x2>:
I_add_cg_cr_rs1_rs2_edges_rs1val_0x55555555_rs2val_0x2:
  add x18, x26, x22 # perform operation
    2c58:	016d0933          	add	x18,x26,x22
  # Check if x18 contains the expected result. x6 is the signature ptr, x5 is the link ptr, x4 is a temp reg.
  RVTEST_SIGUPD(x6, x5, x4, x18, I_add_cg_cr_rs1_rs2_edges_rs1val_0x55555555_rs2val_0x2, I_add_cg_cr_rs1_rs2_edges_rs1val_0x55555555_rs2val_0x2_str)
    2c5c:	00032203          	lw	x4,0(x6)
    2c60:	01220863          	beq	x4,x18,2c70 <I_add_cg_cr_rs1_rs2_edges_rs1val_0x55555555_rs2val_0x2+0x18>
    2c64:	059012ef          	jal	x5,44bc <failedtest_x5_x4>
    2c68:	00002c58          	.word	0x00002c58
    2c6c:	0000d1e5          	.word	0x0000d1e5
    2c70:	00430313          	addi	x6,x6,4

# Testcase cr_rs1_rs2_edges (Test source rs1 = 0x55555555 rs2 = 0x80000000)
  RVTEST_TESTDATA_LOAD_INT(x21, x1) # load rs1: x1 = 0x55555555
    2c74:	000aa083          	lw	x1,0(x21)
    2c78:	004a8a93          	addi	x21,x21,4
  RVTEST_TESTDATA_LOAD_INT(x21, x12) # load rs2: x12 = 0x80000000
    2c7c:	000aa603          	lw	x12,0(x21)
    2c80:	004a8a93          	addi	x21,x21,4

00002c84 <I_add_cg_cr_rs1_rs2_edges_rs1val_0x55555555_rs2val_0x80000000>:
I_add_cg_cr_rs1_rs2_edges_rs1val_0x55555555_rs2val_0x80000000:
  add x11, x1, x12 # perform operation
    2c84:	00c085b3          	add	x11,x1,x12
  # Check if x11 contains the expected result. x6 is the signature ptr, x5 is the link ptr, x4 is a temp reg.
  RVTEST_SIGUPD(x6, x5, x4, x11, I_add_cg_cr_rs1_rs2_edges_rs1val_0x55555555_rs2val_0x80000000, I_add_cg_cr_rs1_rs2_edges_rs1val_0x55555555_rs2val_0x80000000_str)
    2c88:	00032203          	lw	x4,0(x6)
    2c8c:	00b20863          	beq	x4,x11,2c9c <I_add_cg_cr_rs1_rs2_edges_rs1val_0x55555555_rs2val_0x80000000+0x18>
    2c90:	02d012ef          	jal	x5,44bc <failedtest_x5_x4>
    2c94:	00002c84          	.word	0x00002c84
    2c98:	0000d239          	.word	0x0000d239
    2c9c:	00430313          	addi	x6,x6,4

# Testcase cr_rs1_rs2_edges (Test source rs1 = 0x55555555 rs2 = 0x80000001)
  RVTEST_TESTDATA_LOAD_INT(x21, x3) # load rs1: x3 = 0x55555555
    2ca0:	000aa183          	lw	x3,0(x21)
    2ca4:	004a8a93          	addi	x21,x21,4
  RVTEST_TESTDATA_LOAD_INT(x21, x25) # load rs2: x25 = 0x80000001
    2ca8:	000aac83          	lw	x25,0(x21)
    2cac:	004a8a93          	addi	x21,x21,4

00002cb0 <I_add_cg_cr_rs1_rs2_edges_rs1val_0x55555555_rs2val_0x80000001>:
I_add_cg_cr_rs1_rs2_edges_rs1val_0x55555555_rs2val_0x80000001:
  add x17, x3, x25 # perform operation
    2cb0:	019188b3          	add	x17,x3,x25
  # Check if x17 contains the expected result. x6 is the signature ptr, x5 is the link ptr, x4 is a temp reg.
  RVTEST_SIGUPD(x6, x5, x4, x17, I_add_cg_cr_rs1_rs2_edges_rs1val_0x55555555_rs2val_0x80000001, I_add_cg_cr_rs1_rs2_edges_rs1val_0x55555555_rs2val_0x80000001_str)
    2cb4:	00032203          	lw	x4,0(x6)
    2cb8:	01120863          	beq	x4,x17,2cc8 <I_add_cg_cr_rs1_rs2_edges_rs1val_0x55555555_rs2val_0x80000001+0x18>
    2cbc:	001012ef          	jal	x5,44bc <failedtest_x5_x4>
    2cc0:	00002cb0          	.word	0x00002cb0
    2cc4:	0000d294          	.word	0x0000d294
    2cc8:	00430313          	addi	x6,x6,4

# Testcase cr_rs1_rs2_edges (Test source rs1 = 0x55555555 rs2 = 0x7fffffff)
  RVTEST_TESTDATA_LOAD_INT(x21, x19) # load rs1: x19 = 0x55555555
    2ccc:	000aa983          	lw	x19,0(x21)
    2cd0:	004a8a93          	addi	x21,x21,4
  RVTEST_TESTDATA_LOAD_INT(x21, x20) # load rs2: x20 = 0x7fffffff
    2cd4:	000aaa03          	lw	x20,0(x21)
    2cd8:	004a8a93          	addi	x21,x21,4

00002cdc <I_add_cg_cr_rs1_rs2_edges_rs1val_0x55555555_rs2val_0x7fffffff>:
I_add_cg_cr_rs1_rs2_edges_rs1val_0x55555555_rs2val_0x7fffffff:
  add x22, x19, x20 # perform operation
    2cdc:	01498b33          	add	x22,x19,x20
  # Check if x22 contains the expected result. x6 is the signature ptr, x5 is the link ptr, x4 is a temp reg.
  RVTEST_SIGUPD(x6, x5, x4, x22, I_add_cg_cr_rs1_rs2_edges_rs1val_0x55555555_rs2val_0x7fffffff, I_add_cg_cr_rs1_rs2_edges_rs1val_0x55555555_rs2val_0x7fffffff_str)
    2ce0:	00032203          	lw	x4,0(x6)
    2ce4:	01620863          	beq	x4,x22,2cf4 <I_add_cg_cr_rs1_rs2_edges_rs1val_0x55555555_rs2val_0x7fffffff+0x18>
    2ce8:	7d4012ef          	jal	x5,44bc <failedtest_x5_x4>
    2cec:	00002cdc          	.word	0x00002cdc
    2cf0:	0000d2ef          	.word	0x0000d2ef
    2cf4:	00430313          	addi	x6,x6,4

# Testcase cr_rs1_rs2_edges (Test source rs1 = 0x55555555 rs2 = 0x7ffffffe)
  RVTEST_TESTDATA_LOAD_INT(x21, x2) # load rs1: x2 = 0x55555555
    2cf8:	000aa103          	lw	x2,0(x21)
    2cfc:	004a8a93          	addi	x21,x21,4
  RVTEST_TESTDATA_LOAD_INT(x21, x19) # load rs2: x19 = 0x7ffffffe
    2d00:	000aa983          	lw	x19,0(x21)
    2d04:	004a8a93          	addi	x21,x21,4

00002d08 <I_add_cg_cr_rs1_rs2_edges_rs1val_0x55555555_rs2val_0x7ffffffe>:
I_add_cg_cr_rs1_rs2_edges_rs1val_0x55555555_rs2val_0x7ffffffe:
  add x26, x2, x19 # perform operation
    2d08:	01310d33          	add	x26,x2,x19
  # Check if x26 contains the expected result. x6 is the signature ptr, x5 is the link ptr, x4 is a temp reg.
  RVTEST_SIGUPD(x6, x5, x4, x26, I_add_cg_cr_rs1_rs2_edges_rs1val_0x55555555_rs2val_0x7ffffffe, I_add_cg_cr_rs1_rs2_edges_rs1val_0x55555555_rs2val_0x7ffffffe_str)
    2d0c:	00032203          	lw	x4,0(x6)
    2d10:	01a20863          	beq	x4,x26,2d20 <I_add_cg_cr_rs1_rs2_edges_rs1val_0x55555555_rs2val_0x7ffffffe+0x18>
    2d14:	7a8012ef          	jal	x5,44bc <failedtest_x5_x4>
    2d18:	00002d08          	.word	0x00002d08
    2d1c:	0000d34a          	.word	0x0000d34a
    2d20:	00430313          	addi	x6,x6,4

# Testcase cr_rs1_rs2_edges (Test source rs1 = 0x55555555 rs2 = 0xffffffff)
  RVTEST_TESTDATA_LOAD_INT(x21, x17) # load rs1: x17 = 0x55555555
    2d24:	000aa883          	lw	x17,0(x21)
    2d28:	004a8a93          	addi	x21,x21,4
  RVTEST_TESTDATA_LOAD_INT(x21, x16) # load rs2: x16 = 0xffffffff
    2d2c:	000aa803          	lw	x16,0(x21)
    2d30:	004a8a93          	addi	x21,x21,4

00002d34 <I_add_cg_cr_rs1_rs2_edges_rs1val_0x55555555_rs2val_0xffffffff>:
I_add_cg_cr_rs1_rs2_edges_rs1val_0x55555555_rs2val_0xffffffff:
  add x25, x17, x16 # perform operation
    2d34:	01088cb3          	add	x25,x17,x16
  # Check if x25 contains the expected result. x6 is the signature ptr, x5 is the link ptr, x4 is a temp reg.
  RVTEST_SIGUPD(x6, x5, x4, x25, I_add_cg_cr_rs1_rs2_edges_rs1val_0x55555555_rs2val_0xffffffff, I_add_cg_cr_rs1_rs2_edges_rs1val_0x55555555_rs2val_0xffffffff_str)
    2d38:	00032203          	lw	x4,0(x6)
    2d3c:	01920863          	beq	x4,x25,2d4c <I_add_cg_cr_rs1_rs2_edges_rs1val_0x55555555_rs2val_0xffffffff+0x18>
    2d40:	77c012ef          	jal	x5,44bc <failedtest_x5_x4>
    2d44:	00002d34          	.word	0x00002d34
    2d48:	0000d3a5          	.word	0x0000d3a5
    2d4c:	00430313          	addi	x6,x6,4

# Testcase cr_rs1_rs2_edges (Test source rs1 = 0x55555555 rs2 = 0xfffffffe)
  RVTEST_TESTDATA_LOAD_INT(x21, x27) # load rs1: x27 = 0x55555555
    2d50:	000aad83          	lw	x27,0(x21)
    2d54:	004a8a93          	addi	x21,x21,4
  RVTEST_TESTDATA_LOAD_INT(x21, x26) # load rs2: x26 = 0xfffffffe
    2d58:	000aad03          	lw	x26,0(x21)
    2d5c:	004a8a93          	addi	x21,x21,4

00002d60 <I_add_cg_cr_rs1_rs2_edges_rs1val_0x55555555_rs2val_0xfffffffe>:
I_add_cg_cr_rs1_rs2_edges_rs1val_0x55555555_rs2val_0xfffffffe:
  add x12, x27, x26 # perform operation
    2d60:	01ad8633          	add	x12,x27,x26
  # Check if x12 contains the expected result. x6 is the signature ptr, x5 is the link ptr, x4 is a temp reg.
  RVTEST_SIGUPD(x6, x5, x4, x12, I_add_cg_cr_rs1_rs2_edges_rs1val_0x55555555_rs2val_0xfffffffe, I_add_cg_cr_rs1_rs2_edges_rs1val_0x55555555_rs2val_0xfffffffe_str)
    2d64:	00032203          	lw	x4,0(x6)
    2d68:	00c20863          	beq	x4,x12,2d78 <I_add_cg_cr_rs1_rs2_edges_rs1val_0x55555555_rs2val_0xfffffffe+0x18>
    2d6c:	750012ef          	jal	x5,44bc <failedtest_x5_x4>
    2d70:	00002d60          	.word	0x00002d60
    2d74:	0000d400          	.word	0x0000d400
    2d78:	00430313          	addi	x6,x6,4

# Testcase cr_rs1_rs2_edges (Test source rs1 = 0x55555555 rs2 = 0x5bbc8872)
  RVTEST_TESTDATA_LOAD_INT(x21, x9) # load rs1: x9 = 0x55555555
    2d7c:	000aa483          	lw	x9,0(x21)
    2d80:	004a8a93          	addi	x21,x21,4
  RVTEST_TESTDATA_LOAD_INT(x21, x29) # load rs2: x29 = 0x5bbc8872
    2d84:	000aae83          	lw	x29,0(x21)
    2d88:	004a8a93          	addi	x21,x21,4

00002d8c <I_add_cg_cr_rs1_rs2_edges_rs1val_0x55555555_rs2val_0x5bbc8872>:
I_add_cg_cr_rs1_rs2_edges_rs1val_0x55555555_rs2val_0x5bbc8872:
  add x10, x9, x29 # perform operation
    2d8c:	01d48533          	add	x10,x9,x29
  # Check if x10 contains the expected result. x6 is the signature ptr, x5 is the link ptr, x4 is a temp reg.
  RVTEST_SIGUPD(x6, x5, x4, x10, I_add_cg_cr_rs1_rs2_edges_rs1val_0x55555555_rs2val_0x5bbc8872, I_add_cg_cr_rs1_rs2_edges_rs1val_0x55555555_rs2val_0x5bbc8872_str)
    2d90:	00032203          	lw	x4,0(x6)
    2d94:	00a20863          	beq	x4,x10,2da4 <I_add_cg_cr_rs1_rs2_edges_rs1val_0x55555555_rs2val_0x5bbc8872+0x18>
    2d98:	724012ef          	jal	x5,44bc <failedtest_x5_x4>
    2d9c:	00002d8c          	.word	0x00002d8c
    2da0:	0000d45b          	.word	0x0000d45b
    2da4:	00430313          	addi	x6,x6,4

# Testcase cr_rs1_rs2_edges (Test source rs1 = 0x55555555 rs2 = 0xaaaaaaaa)
  RVTEST_TESTDATA_LOAD_INT(x21, x3) # load rs1: x3 = 0x55555555
    2da8:	000aa183          	lw	x3,0(x21)
    2dac:	004a8a93          	addi	x21,x21,4
  RVTEST_TESTDATA_LOAD_INT(x21, x10) # load rs2: x10 = 0xaaaaaaaa
    2db0:	000aa503          	lw	x10,0(x21)
    2db4:	004a8a93          	addi	x21,x21,4

00002db8 <I_add_cg_cr_rs1_rs2_edges_rs1val_0x55555555_rs2val_0xaaaaaaaa>:
I_add_cg_cr_rs1_rs2_edges_rs1val_0x55555555_rs2val_0xaaaaaaaa:
  add x16, x3, x10 # perform operation
    2db8:	00a18833          	add	x16,x3,x10
  # Check if x16 contains the expected result. x6 is the signature ptr, x5 is the link ptr, x4 is a temp reg.
  RVTEST_SIGUPD(x6, x5, x4, x16, I_add_cg_cr_rs1_rs2_edges_rs1val_0x55555555_rs2val_0xaaaaaaaa, I_add_cg_cr_rs1_rs2_edges_rs1val_0x55555555_rs2val_0xaaaaaaaa_str)
    2dbc:	00032203          	lw	x4,0(x6)
    2dc0:	01020863          	beq	x4,x16,2dd0 <I_add_cg_cr_rs1_rs2_edges_rs1val_0x55555555_rs2val_0xaaaaaaaa+0x18>
    2dc4:	6f8012ef          	jal	x5,44bc <failedtest_x5_x4>
    2dc8:	00002db8          	.word	0x00002db8
    2dcc:	0000d4b6          	.word	0x0000d4b6
    2dd0:	00430313          	addi	x6,x6,4

# Testcase cr_rs1_rs2_edges (Test source rs1 = 0x55555555 rs2 = 0x55555555)
  RVTEST_TESTDATA_LOAD_INT(x21, x29) # load rs1: x29 = 0x55555555
    2dd4:	000aae83          	lw	x29,0(x21)
    2dd8:	004a8a93          	addi	x21,x21,4
  RVTEST_TESTDATA_LOAD_INT(x21, x8) # load rs2: x8 = 0x55555555
    2ddc:	000aa403          	lw	x8,0(x21)
    2de0:	004a8a93          	addi	x21,x21,4

00002de4 <I_add_cg_cr_rs1_rs2_edges_rs1val_0x55555555_rs2val_0x55555555>:
I_add_cg_cr_rs1_rs2_edges_rs1val_0x55555555_rs2val_0x55555555:
  add x13, x29, x8 # perform operation
    2de4:	008e86b3          	add	x13,x29,x8
  # Check if x13 contains the expected result. x6 is the signature ptr, x5 is the link ptr, x4 is a temp reg.
  RVTEST_SIGUPD(x6, x5, x4, x13, I_add_cg_cr_rs1_rs2_edges_rs1val_0x55555555_rs2val_0x55555555, I_add_cg_cr_rs1_rs2_edges_rs1val_0x55555555_rs2val_0x55555555_str)
    2de8:	00032203          	lw	x4,0(x6)
    2dec:	00d20863          	beq	x4,x13,2dfc <I_add_cg_cr_rs1_rs2_edges_rs1val_0x55555555_rs2val_0x55555555+0x18>
    2df0:	6cc012ef          	jal	x5,44bc <failedtest_x5_x4>
    2df4:	00002de4          	.word	0x00002de4
    2df8:	0000d511          	.word	0x0000d511
    2dfc:	00430313          	addi	x6,x6,4
/////////////////////////////////
// cmp_rs1_rs2
/////////////////////////////////

# Testcase cmp_rs1_rs2 (Test rs1 = rs2 = x0)
  RVTEST_TESTDATA_LOAD_INT(x21, x0) # load rs1: x0 = 0x3b0abf30
    2e00:	000aa003          	lw	x0,0(x21)
    2e04:	004a8a93          	addi	x21,x21,4
  RVTEST_TESTDATA_LOAD_INT(x21, x0) # load rs2: x0 = 0x639c4a01
    2e08:	000aa003          	lw	x0,0(x21)
    2e0c:	004a8a93          	addi	x21,x21,4

00002e10 <I_add_cg_cmp_rs1_rs2_b0>:
I_add_cg_cmp_rs1_rs2_b0:
  add x22, x0, x0 # perform operation
    2e10:	00000b33          	add	x22,x0,x0
  # Check if x22 contains the expected result. x6 is the signature ptr, x5 is the link ptr, x4 is a temp reg.
  RVTEST_SIGUPD(x6, x5, x4, x22, I_add_cg_cmp_rs1_rs2_b0, I_add_cg_cmp_rs1_rs2_b0_str)
    2e14:	00032203          	lw	x4,0(x6)
    2e18:	01620863          	beq	x4,x22,2e28 <I_add_cg_cmp_rs1_rs2_b0+0x18>
    2e1c:	6a0012ef          	jal	x5,44bc <failedtest_x5_x4>
    2e20:	00002e10          	.word	0x00002e10
    2e24:	0000d56c          	.word	0x0000d56c
    2e28:	00430313          	addi	x6,x6,4

# Testcase cmp_rs1_rs2 (Test rs1 = rs2 = x1)
  RVTEST_TESTDATA_LOAD_INT(x21, x1) # load rs1: x1 = 0x2b1adbb8
    2e2c:	000aa083          	lw	x1,0(x21)
    2e30:	004a8a93          	addi	x21,x21,4
  RVTEST_TESTDATA_LOAD_INT(x21, x1) # load rs2: x1 = 0x89da5142
    2e34:	000aa083          	lw	x1,0(x21)
    2e38:	004a8a93          	addi	x21,x21,4

00002e3c <I_add_cg_cmp_rs1_rs2_b1>:
I_add_cg_cmp_rs1_rs2_b1:
  add x3, x1, x1 # perform operation
    2e3c:	001081b3          	add	x3,x1,x1
  # Check if x3 contains the expected result. x6 is the signature ptr, x5 is the link ptr, x4 is a temp reg.
  RVTEST_SIGUPD(x6, x5, x4, x3, I_add_cg_cmp_rs1_rs2_b1, I_add_cg_cmp_rs1_rs2_b1_str)
    2e40:	00032203          	lw	x4,0(x6)
    2e44:	00320863          	beq	x4,x3,2e54 <I_add_cg_cmp_rs1_rs2_b1+0x18>
    2e48:	674012ef          	jal	x5,44bc <failedtest_x5_x4>
    2e4c:	00002e3c          	.word	0x00002e3c
    2e50:	0000d5a0          	.word	0x0000d5a0
    2e54:	00430313          	addi	x6,x6,4

# Testcase cmp_rs1_rs2 (Test rs1 = rs2 = x2)
  RVTEST_TESTDATA_LOAD_INT(x21, x2) # load rs1: x2 = 0x9f134ce1
    2e58:	000aa103          	lw	x2,0(x21)
    2e5c:	004a8a93          	addi	x21,x21,4
  RVTEST_TESTDATA_LOAD_INT(x21, x2) # load rs2: x2 = 0xeab15f50
    2e60:	000aa103          	lw	x2,0(x21)
    2e64:	004a8a93          	addi	x21,x21,4

00002e68 <I_add_cg_cmp_rs1_rs2_b2>:
I_add_cg_cmp_rs1_rs2_b2:
  add x15, x2, x2 # perform operation
    2e68:	002107b3          	add	x15,x2,x2
  # Check if x15 contains the expected result. x6 is the signature ptr, x5 is the link ptr, x4 is a temp reg.
  RVTEST_SIGUPD(x6, x5, x4, x15, I_add_cg_cmp_rs1_rs2_b2, I_add_cg_cmp_rs1_rs2_b2_str)
    2e6c:	00032203          	lw	x4,0(x6)
    2e70:	00f20863          	beq	x4,x15,2e80 <I_add_cg_cmp_rs1_rs2_b2+0x18>
    2e74:	648012ef          	jal	x5,44bc <failedtest_x5_x4>
    2e78:	00002e68          	.word	0x00002e68
    2e7c:	0000d5d4          	.word	0x0000d5d4
    2e80:	00430313          	addi	x6,x6,4

# Testcase cmp_rs1_rs2 (Test rs1 = rs2 = x3)
  RVTEST_TESTDATA_LOAD_INT(x21, x3) # load rs1: x3 = 0xbeca5ac0
    2e84:	000aa183          	lw	x3,0(x21)
    2e88:	004a8a93          	addi	x21,x21,4
  RVTEST_TESTDATA_LOAD_INT(x21, x3) # load rs2: x3 = 0xa5595774
    2e8c:	000aa183          	lw	x3,0(x21)
    2e90:	004a8a93          	addi	x21,x21,4

00002e94 <I_add_cg_cmp_rs1_rs2_b3>:
I_add_cg_cmp_rs1_rs2_b3:
  add x14, x3, x3 # perform operation
    2e94:	00318733          	add	x14,x3,x3
  # Check if x14 contains the expected result. x6 is the signature ptr, x5 is the link ptr, x4 is a temp reg.
  RVTEST_SIGUPD(x6, x5, x4, x14, I_add_cg_cmp_rs1_rs2_b3, I_add_cg_cmp_rs1_rs2_b3_str)
    2e98:	00032203          	lw	x4,0(x6)
    2e9c:	00e20863          	beq	x4,x14,2eac <I_add_cg_cmp_rs1_rs2_b3+0x18>
    2ea0:	61c012ef          	jal	x5,44bc <failedtest_x5_x4>
    2ea4:	00002e94          	.word	0x00002e94
    2ea8:	0000d608          	.word	0x0000d608
    2eac:	00430313          	addi	x6,x6,4

  mv x7, x4 # switch temp register to avoid conflict with test
    2eb0:	00020393          	addi	x7,x4,0 # 0 <rvtest_entry_point>
  mv x8, x5 # switch link pointer register to avoid conflict with test
    2eb4:	00028413          	addi	x8,x5,0
# Testcase cmp_rs1_rs2 (Test rs1 = rs2 = x4)
  RVTEST_TESTDATA_LOAD_INT(x21, x4) # load rs1: x4 = 0x6f8e6afd
    2eb8:	000aa203          	lw	x4,0(x21)
    2ebc:	004a8a93          	addi	x21,x21,4
  RVTEST_TESTDATA_LOAD_INT(x21, x4) # load rs2: x4 = 0x727d80fc
    2ec0:	000aa203          	lw	x4,0(x21)
    2ec4:	004a8a93          	addi	x21,x21,4

00002ec8 <I_add_cg_cmp_rs1_rs2_b4>:
I_add_cg_cmp_rs1_rs2_b4:
  add x18, x4, x4 # perform operation
    2ec8:	00420933          	add	x18,x4,x4
  # Check if x18 contains the expected result. x6 is the signature ptr, x8 is the link ptr, x7 is a temp reg.
  RVTEST_SIGUPD(x6, x8, x7, x18, I_add_cg_cmp_rs1_rs2_b4, I_add_cg_cmp_rs1_rs2_b4_str)
    2ecc:	00032383          	lw	x7,0(x6)
    2ed0:	01238863          	beq	x7,x18,2ee0 <I_add_cg_cmp_rs1_rs2_b4+0x18>
    2ed4:	6000146f          	jal	x8,44d4 <failedtest_x8_x7>
    2ed8:	00002ec8          	.word	0x00002ec8
    2edc:	0000d63c          	.word	0x0000d63c
    2ee0:	00430313          	addi	x6,x6,4

# Testcase cmp_rs1_rs2 (Test rs1 = rs2 = x5)
  RVTEST_TESTDATA_LOAD_INT(x21, x5) # load rs1: x5 = 0xa307a3a6
    2ee4:	000aa283          	lw	x5,0(x21)
    2ee8:	004a8a93          	addi	x21,x21,4
  RVTEST_TESTDATA_LOAD_INT(x21, x5) # load rs2: x5 = 0xdffcd93f
    2eec:	000aa283          	lw	x5,0(x21)
    2ef0:	004a8a93          	addi	x21,x21,4

00002ef4 <I_add_cg_cmp_rs1_rs2_b5>:
I_add_cg_cmp_rs1_rs2_b5:
  add x17, x5, x5 # perform operation
    2ef4:	005288b3          	add	x17,x5,x5
  # Check if x17 contains the expected result. x6 is the signature ptr, x8 is the link ptr, x7 is a temp reg.
  RVTEST_SIGUPD(x6, x8, x7, x17, I_add_cg_cmp_rs1_rs2_b5, I_add_cg_cmp_rs1_rs2_b5_str)
    2ef8:	00032383          	lw	x7,0(x6)
    2efc:	01138863          	beq	x7,x17,2f0c <I_add_cg_cmp_rs1_rs2_b5+0x18>
    2f00:	5d40146f          	jal	x8,44d4 <failedtest_x8_x7>
    2f04:	00002ef4          	.word	0x00002ef4
    2f08:	0000d670          	.word	0x0000d670
    2f0c:	00430313          	addi	x6,x6,4

  mv x30, x6 # switch signature pointer register to avoid conflict with test
    2f10:	00030f13          	addi	x30,x6,0
# Testcase cmp_rs1_rs2 (Test rs1 = rs2 = x6)
  RVTEST_TESTDATA_LOAD_INT(x21, x6) # load rs1: x6 = 0x857fbb8c
    2f14:	000aa303          	lw	x6,0(x21)
    2f18:	004a8a93          	addi	x21,x21,4
  RVTEST_TESTDATA_LOAD_INT(x21, x6) # load rs2: x6 = 0x6c26f19f
    2f1c:	000aa303          	lw	x6,0(x21)
    2f20:	004a8a93          	addi	x21,x21,4

00002f24 <I_add_cg_cmp_rs1_rs2_b6>:
I_add_cg_cmp_rs1_rs2_b6:
  add x19, x6, x6 # perform operation
    2f24:	006309b3          	add	x19,x6,x6
  # Check if x19 contains the expected result. x30 is the signature ptr, x8 is the link ptr, x7 is a temp reg.
  RVTEST_SIGUPD(x30, x8, x7, x19, I_add_cg_cmp_rs1_rs2_b6, I_add_cg_cmp_rs1_rs2_b6_str)
    2f28:	000f2383          	lw	x7,0(x30)
    2f2c:	01338863          	beq	x7,x19,2f3c <I_add_cg_cmp_rs1_rs2_b6+0x18>
    2f30:	5a40146f          	jal	x8,44d4 <failedtest_x8_x7>
    2f34:	00002f24          	.word	0x00002f24
    2f38:	0000d6a4          	.word	0x0000d6a4
    2f3c:	004f0f13          	addi	x30,x30,4

  mv x4, x7 # switch temp register to avoid conflict with test
    2f40:	00038213          	addi	x4,x7,0
  mv x5, x8 # switch link pointer register to avoid conflict with test
    2f44:	00040293          	addi	x5,x8,0
# Testcase cmp_rs1_rs2 (Test rs1 = rs2 = x7)
  RVTEST_TESTDATA_LOAD_INT(x21, x7) # load rs1: x7 = 0x49731977
    2f48:	000aa383          	lw	x7,0(x21)
    2f4c:	004a8a93          	addi	x21,x21,4
  RVTEST_TESTDATA_LOAD_INT(x21, x7) # load rs2: x7 = 0x563f2056
    2f50:	000aa383          	lw	x7,0(x21)
    2f54:	004a8a93          	addi	x21,x21,4

00002f58 <I_add_cg_cmp_rs1_rs2_b7>:
I_add_cg_cmp_rs1_rs2_b7:
  add x0, x7, x7 # perform operation
    2f58:	00738033          	add	x0,x7,x7
  # Check if x0 contains the expected result. x30 is the signature ptr, x5 is the link ptr, x4 is a temp reg.
  RVTEST_SIGUPD(x30, x5, x4, x0, I_add_cg_cmp_rs1_rs2_b7, I_add_cg_cmp_rs1_rs2_b7_str)
    2f5c:	000f2203          	lw	x4,0(x30)
    2f60:	00020863          	beq	x4,x0,2f70 <I_add_cg_cmp_rs1_rs2_b7+0x18>
    2f64:	558012ef          	jal	x5,44bc <failedtest_x5_x4>
    2f68:	00002f58          	.word	0x00002f58
    2f6c:	0000d6d8          	.word	0x0000d6d8
    2f70:	004f0f13          	addi	x30,x30,4

# Testcase cmp_rs1_rs2 (Test rs1 = rs2 = x8)
  RVTEST_TESTDATA_LOAD_INT(x21, x8) # load rs1: x8 = 0x3c52b5ec
    2f74:	000aa403          	lw	x8,0(x21)
    2f78:	004a8a93          	addi	x21,x21,4
  RVTEST_TESTDATA_LOAD_INT(x21, x8) # load rs2: x8 = 0xa21abb0a
    2f7c:	000aa403          	lw	x8,0(x21)
    2f80:	004a8a93          	addi	x21,x21,4

00002f84 <I_add_cg_cmp_rs1_rs2_b8>:
I_add_cg_cmp_rs1_rs2_b8:
  add x6, x8, x8 # perform operation
    2f84:	00840333          	add	x6,x8,x8
  # Check if x6 contains the expected result. x30 is the signature ptr, x5 is the link ptr, x4 is a temp reg.
  RVTEST_SIGUPD(x30, x5, x4, x6, I_add_cg_cmp_rs1_rs2_b8, I_add_cg_cmp_rs1_rs2_b8_str)
    2f88:	000f2203          	lw	x4,0(x30)
    2f8c:	00620863          	beq	x4,x6,2f9c <I_add_cg_cmp_rs1_rs2_b8+0x18>
    2f90:	52c012ef          	jal	x5,44bc <failedtest_x5_x4>
    2f94:	00002f84          	.word	0x00002f84
    2f98:	0000d70c          	.word	0x0000d70c
    2f9c:	004f0f13          	addi	x30,x30,4

# Testcase cmp_rs1_rs2 (Test rs1 = rs2 = x9)
  RVTEST_TESTDATA_LOAD_INT(x21, x9) # load rs1: x9 = 0x8934aeb0
    2fa0:	000aa483          	lw	x9,0(x21)
    2fa4:	004a8a93          	addi	x21,x21,4
  RVTEST_TESTDATA_LOAD_INT(x21, x9) # load rs2: x9 = 0x30ad6ba4
    2fa8:	000aa483          	lw	x9,0(x21)
    2fac:	004a8a93          	addi	x21,x21,4

00002fb0 <I_add_cg_cmp_rs1_rs2_b9>:
I_add_cg_cmp_rs1_rs2_b9:
  add x8, x9, x9 # perform operation
    2fb0:	00948433          	add	x8,x9,x9
  # Check if x8 contains the expected result. x30 is the signature ptr, x5 is the link ptr, x4 is a temp reg.
  RVTEST_SIGUPD(x30, x5, x4, x8, I_add_cg_cmp_rs1_rs2_b9, I_add_cg_cmp_rs1_rs2_b9_str)
    2fb4:	000f2203          	lw	x4,0(x30)
    2fb8:	00820863          	beq	x4,x8,2fc8 <I_add_cg_cmp_rs1_rs2_b9+0x18>
    2fbc:	500012ef          	jal	x5,44bc <failedtest_x5_x4>
    2fc0:	00002fb0          	.word	0x00002fb0
    2fc4:	0000d740          	.word	0x0000d740
    2fc8:	004f0f13          	addi	x30,x30,4

# Testcase cmp_rs1_rs2 (Test rs1 = rs2 = x10)
  RVTEST_TESTDATA_LOAD_INT(x21, x10) # load rs1: x10 = 0x02695c89
    2fcc:	000aa503          	lw	x10,0(x21)
    2fd0:	004a8a93          	addi	x21,x21,4
  RVTEST_TESTDATA_LOAD_INT(x21, x10) # load rs2: x10 = 0x06d68808
    2fd4:	000aa503          	lw	x10,0(x21)
    2fd8:	004a8a93          	addi	x21,x21,4

00002fdc <I_add_cg_cmp_rs1_rs2_b10>:
I_add_cg_cmp_rs1_rs2_b10:
  add x12, x10, x10 # perform operation
    2fdc:	00a50633          	add	x12,x10,x10
  # Check if x12 contains the expected result. x30 is the signature ptr, x5 is the link ptr, x4 is a temp reg.
  RVTEST_SIGUPD(x30, x5, x4, x12, I_add_cg_cmp_rs1_rs2_b10, I_add_cg_cmp_rs1_rs2_b10_str)
    2fe0:	000f2203          	lw	x4,0(x30)
    2fe4:	00c20863          	beq	x4,x12,2ff4 <I_add_cg_cmp_rs1_rs2_b10+0x18>
    2fe8:	4d4012ef          	jal	x5,44bc <failedtest_x5_x4>
    2fec:	00002fdc          	.word	0x00002fdc
    2ff0:	0000d774          	.word	0x0000d774
    2ff4:	004f0f13          	addi	x30,x30,4

# Testcase cmp_rs1_rs2 (Test rs1 = rs2 = x11)
  RVTEST_TESTDATA_LOAD_INT(x21, x11) # load rs1: x11 = 0x0ca7e115
    2ff8:	000aa583          	lw	x11,0(x21)
    2ffc:	004a8a93          	addi	x21,x21,4
  RVTEST_TESTDATA_LOAD_INT(x21, x11) # load rs2: x11 = 0x1eb33c93
    3000:	000aa583          	lw	x11,0(x21)
    3004:	004a8a93          	addi	x21,x21,4

00003008 <I_add_cg_cmp_rs1_rs2_b11>:
I_add_cg_cmp_rs1_rs2_b11:
  add x29, x11, x11 # perform operation
    3008:	00b58eb3          	add	x29,x11,x11
  # Check if x29 contains the expected result. x30 is the signature ptr, x5 is the link ptr, x4 is a temp reg.
  RVTEST_SIGUPD(x30, x5, x4, x29, I_add_cg_cmp_rs1_rs2_b11, I_add_cg_cmp_rs1_rs2_b11_str)
    300c:	000f2203          	lw	x4,0(x30)
    3010:	01d20863          	beq	x4,x29,3020 <I_add_cg_cmp_rs1_rs2_b11+0x18>
    3014:	4a8012ef          	jal	x5,44bc <failedtest_x5_x4>
    3018:	00003008          	.word	0x00003008
    301c:	0000d7a9          	.word	0x0000d7a9
    3020:	004f0f13          	addi	x30,x30,4

# Testcase cmp_rs1_rs2 (Test rs1 = rs2 = x12)
  RVTEST_TESTDATA_LOAD_INT(x21, x12) # load rs1: x12 = 0x6ccd9165
    3024:	000aa603          	lw	x12,0(x21)
    3028:	004a8a93          	addi	x21,x21,4
  RVTEST_TESTDATA_LOAD_INT(x21, x12) # load rs2: x12 = 0xf7873c28
    302c:	000aa603          	lw	x12,0(x21)
    3030:	004a8a93          	addi	x21,x21,4

00003034 <I_add_cg_cmp_rs1_rs2_b12>:
I_add_cg_cmp_rs1_rs2_b12:
  add x17, x12, x12 # perform operation
    3034:	00c608b3          	add	x17,x12,x12
  # Check if x17 contains the expected result. x30 is the signature ptr, x5 is the link ptr, x4 is a temp reg.
  RVTEST_SIGUPD(x30, x5, x4, x17, I_add_cg_cmp_rs1_rs2_b12, I_add_cg_cmp_rs1_rs2_b12_str)
    3038:	000f2203          	lw	x4,0(x30)
    303c:	01120863          	beq	x4,x17,304c <I_add_cg_cmp_rs1_rs2_b12+0x18>
    3040:	47c012ef          	jal	x5,44bc <failedtest_x5_x4>
    3044:	00003034          	.word	0x00003034
    3048:	0000d7de          	.word	0x0000d7de
    304c:	004f0f13          	addi	x30,x30,4

# Testcase cmp_rs1_rs2 (Test rs1 = rs2 = x13)
  RVTEST_TESTDATA_LOAD_INT(x21, x13) # load rs1: x13 = 0x3c55197b
    3050:	000aa683          	lw	x13,0(x21)
    3054:	004a8a93          	addi	x21,x21,4
  RVTEST_TESTDATA_LOAD_INT(x21, x13) # load rs2: x13 = 0xf0c129c5
    3058:	000aa683          	lw	x13,0(x21)
    305c:	004a8a93          	addi	x21,x21,4

00003060 <I_add_cg_cmp_rs1_rs2_b13>:
I_add_cg_cmp_rs1_rs2_b13:
  add x24, x13, x13 # perform operation
    3060:	00d68c33          	add	x24,x13,x13
  # Check if x24 contains the expected result. x30 is the signature ptr, x5 is the link ptr, x4 is a temp reg.
  RVTEST_SIGUPD(x30, x5, x4, x24, I_add_cg_cmp_rs1_rs2_b13, I_add_cg_cmp_rs1_rs2_b13_str)
    3064:	000f2203          	lw	x4,0(x30)
    3068:	01820863          	beq	x4,x24,3078 <I_add_cg_cmp_rs1_rs2_b13+0x18>
    306c:	450012ef          	jal	x5,44bc <failedtest_x5_x4>
    3070:	00003060          	.word	0x00003060
    3074:	0000d813          	.word	0x0000d813
    3078:	004f0f13          	addi	x30,x30,4

# Testcase cmp_rs1_rs2 (Test rs1 = rs2 = x14)
  RVTEST_TESTDATA_LOAD_INT(x21, x14) # load rs1: x14 = 0x25d1cda0
    307c:	000aa703          	lw	x14,0(x21)
    3080:	004a8a93          	addi	x21,x21,4
  RVTEST_TESTDATA_LOAD_INT(x21, x14) # load rs2: x14 = 0xcafcf856
    3084:	000aa703          	lw	x14,0(x21)
    3088:	004a8a93          	addi	x21,x21,4

0000308c <I_add_cg_cmp_rs1_rs2_b14>:
I_add_cg_cmp_rs1_rs2_b14:
  add x7, x14, x14 # perform operation
    308c:	00e703b3          	add	x7,x14,x14
  # Check if x7 contains the expected result. x30 is the signature ptr, x5 is the link ptr, x4 is a temp reg.
  RVTEST_SIGUPD(x30, x5, x4, x7, I_add_cg_cmp_rs1_rs2_b14, I_add_cg_cmp_rs1_rs2_b14_str)
    3090:	000f2203          	lw	x4,0(x30)
    3094:	00720863          	beq	x4,x7,30a4 <I_add_cg_cmp_rs1_rs2_b14+0x18>
    3098:	424012ef          	jal	x5,44bc <failedtest_x5_x4>
    309c:	0000308c          	.word	0x0000308c
    30a0:	0000d848          	.word	0x0000d848
    30a4:	004f0f13          	addi	x30,x30,4

# Testcase cmp_rs1_rs2 (Test rs1 = rs2 = x15)
  RVTEST_TESTDATA_LOAD_INT(x21, x15) # load rs1: x15 = 0x4cf29f92
    30a8:	000aa783          	lw	x15,0(x21)
    30ac:	004a8a93          	addi	x21,x21,4
  RVTEST_TESTDATA_LOAD_INT(x21, x15) # load rs2: x15 = 0xdbe3d009
    30b0:	000aa783          	lw	x15,0(x21)
    30b4:	004a8a93          	addi	x21,x21,4

000030b8 <I_add_cg_cmp_rs1_rs2_b15>:
I_add_cg_cmp_rs1_rs2_b15:
  add x20, x15, x15 # perform operation
    30b8:	00f78a33          	add	x20,x15,x15
  # Check if x20 contains the expected result. x30 is the signature ptr, x5 is the link ptr, x4 is a temp reg.
  RVTEST_SIGUPD(x30, x5, x4, x20, I_add_cg_cmp_rs1_rs2_b15, I_add_cg_cmp_rs1_rs2_b15_str)
    30bc:	000f2203          	lw	x4,0(x30)
    30c0:	01420863          	beq	x4,x20,30d0 <I_add_cg_cmp_rs1_rs2_b15+0x18>
    30c4:	3f8012ef          	jal	x5,44bc <failedtest_x5_x4>
    30c8:	000030b8          	.word	0x000030b8
    30cc:	0000d87d          	.word	0x0000d87d
    30d0:	004f0f13          	addi	x30,x30,4

# Testcase cmp_rs1_rs2 (Test rs1 = rs2 = x16)
  RVTEST_TESTDATA_LOAD_INT(x21, x16) # load rs1: x16 = 0x75dbe834
    30d4:	000aa803          	lw	x16,0(x21)
    30d8:	004a8a93          	addi	x21,x21,4
  RVTEST_TESTDATA_LOAD_INT(x21, x16) # load rs2: x16 = 0x73d4b766
    30dc:	000aa803          	lw	x16,0(x21)
    30e0:	004a8a93          	addi	x21,x21,4

000030e4 <I_add_cg_cmp_rs1_rs2_b16>:
I_add_cg_cmp_rs1_rs2_b16:
  add x9, x16, x16 # perform operation
    30e4:	010804b3          	add	x9,x16,x16
  # Check if x9 contains the expected result. x30 is the signature ptr, x5 is the link ptr, x4 is a temp reg.
  RVTEST_SIGUPD(x30, x5, x4, x9, I_add_cg_cmp_rs1_rs2_b16, I_add_cg_cmp_rs1_rs2_b16_str)
    30e8:	000f2203          	lw	x4,0(x30)
    30ec:	00920863          	beq	x4,x9,30fc <I_add_cg_cmp_rs1_rs2_b16+0x18>
    30f0:	3cc012ef          	jal	x5,44bc <failedtest_x5_x4>
    30f4:	000030e4          	.word	0x000030e4
    30f8:	0000d8b2          	.word	0x0000d8b2
    30fc:	004f0f13          	addi	x30,x30,4

# Testcase cmp_rs1_rs2 (Test rs1 = rs2 = x17)
  RVTEST_TESTDATA_LOAD_INT(x21, x17) # load rs1: x17 = 0x541c0d73
    3100:	000aa883          	lw	x17,0(x21)
    3104:	004a8a93          	addi	x21,x21,4
  RVTEST_TESTDATA_LOAD_INT(x21, x17) # load rs2: x17 = 0xe4982b4e
    3108:	000aa883          	lw	x17,0(x21)
    310c:	004a8a93          	addi	x21,x21,4

00003110 <I_add_cg_cmp_rs1_rs2_b17>:
I_add_cg_cmp_rs1_rs2_b17:
  add x11, x17, x17 # perform operation
    3110:	011885b3          	add	x11,x17,x17
  # Check if x11 contains the expected result. x30 is the signature ptr, x5 is the link ptr, x4 is a temp reg.
  RVTEST_SIGUPD(x30, x5, x4, x11, I_add_cg_cmp_rs1_rs2_b17, I_add_cg_cmp_rs1_rs2_b17_str)
    3114:	000f2203          	lw	x4,0(x30)
    3118:	00b20863          	beq	x4,x11,3128 <I_add_cg_cmp_rs1_rs2_b17+0x18>
    311c:	3a0012ef          	jal	x5,44bc <failedtest_x5_x4>
    3120:	00003110          	.word	0x00003110
    3124:	0000d8e7          	.word	0x0000d8e7
    3128:	004f0f13          	addi	x30,x30,4

# Testcase cmp_rs1_rs2 (Test rs1 = rs2 = x18)
  RVTEST_TESTDATA_LOAD_INT(x21, x18) # load rs1: x18 = 0xe957797a
    312c:	000aa903          	lw	x18,0(x21)
    3130:	004a8a93          	addi	x21,x21,4
  RVTEST_TESTDATA_LOAD_INT(x21, x18) # load rs2: x18 = 0xd488c840
    3134:	000aa903          	lw	x18,0(x21)
    3138:	004a8a93          	addi	x21,x21,4

0000313c <I_add_cg_cmp_rs1_rs2_b18>:
I_add_cg_cmp_rs1_rs2_b18:
  add x22, x18, x18 # perform operation
    313c:	01290b33          	add	x22,x18,x18
  # Check if x22 contains the expected result. x30 is the signature ptr, x5 is the link ptr, x4 is a temp reg.
  RVTEST_SIGUPD(x30, x5, x4, x22, I_add_cg_cmp_rs1_rs2_b18, I_add_cg_cmp_rs1_rs2_b18_str)
    3140:	000f2203          	lw	x4,0(x30)
    3144:	01620863          	beq	x4,x22,3154 <I_add_cg_cmp_rs1_rs2_b18+0x18>
    3148:	374012ef          	jal	x5,44bc <failedtest_x5_x4>
    314c:	0000313c          	.word	0x0000313c
    3150:	0000d91c          	.word	0x0000d91c
    3154:	004f0f13          	addi	x30,x30,4

# Testcase cmp_rs1_rs2 (Test rs1 = rs2 = x19)
  RVTEST_TESTDATA_LOAD_INT(x21, x19) # load rs1: x19 = 0xa6bb39ef
    3158:	000aa983          	lw	x19,0(x21)
    315c:	004a8a93          	addi	x21,x21,4
  RVTEST_TESTDATA_LOAD_INT(x21, x19) # load rs2: x19 = 0x471d5c13
    3160:	000aa983          	lw	x19,0(x21)
    3164:	004a8a93          	addi	x21,x21,4

00003168 <I_add_cg_cmp_rs1_rs2_b19>:
I_add_cg_cmp_rs1_rs2_b19:
  add x12, x19, x19 # perform operation
    3168:	01398633          	add	x12,x19,x19
  # Check if x12 contains the expected result. x30 is the signature ptr, x5 is the link ptr, x4 is a temp reg.
  RVTEST_SIGUPD(x30, x5, x4, x12, I_add_cg_cmp_rs1_rs2_b19, I_add_cg_cmp_rs1_rs2_b19_str)
    316c:	000f2203          	lw	x4,0(x30)
    3170:	00c20863          	beq	x4,x12,3180 <I_add_cg_cmp_rs1_rs2_b19+0x18>
    3174:	348012ef          	jal	x5,44bc <failedtest_x5_x4>
    3178:	00003168          	.word	0x00003168
    317c:	0000d951          	.word	0x0000d951
    3180:	004f0f13          	addi	x30,x30,4

# Testcase cmp_rs1_rs2 (Test rs1 = rs2 = x20)
  RVTEST_TESTDATA_LOAD_INT(x21, x20) # load rs1: x20 = 0x63492b23
    3184:	000aaa03          	lw	x20,0(x21)
    3188:	004a8a93          	addi	x21,x21,4
  RVTEST_TESTDATA_LOAD_INT(x21, x20) # load rs2: x20 = 0x953395f3
    318c:	000aaa03          	lw	x20,0(x21)
    3190:	004a8a93          	addi	x21,x21,4

00003194 <I_add_cg_cmp_rs1_rs2_b20>:
I_add_cg_cmp_rs1_rs2_b20:
  add x13, x20, x20 # perform operation
    3194:	014a06b3          	add	x13,x20,x20
  # Check if x13 contains the expected result. x30 is the signature ptr, x5 is the link ptr, x4 is a temp reg.
  RVTEST_SIGUPD(x30, x5, x4, x13, I_add_cg_cmp_rs1_rs2_b20, I_add_cg_cmp_rs1_rs2_b20_str)
    3198:	000f2203          	lw	x4,0(x30)
    319c:	00d20863          	beq	x4,x13,31ac <I_add_cg_cmp_rs1_rs2_b20+0x18>
    31a0:	31c012ef          	jal	x5,44bc <failedtest_x5_x4>
    31a4:	00003194          	.word	0x00003194
    31a8:	0000d986          	.word	0x0000d986
    31ac:	004f0f13          	addi	x30,x30,4

  mv x22, x21 # switch data pointer register to avoid conflict with test
    31b0:	000a8b13          	addi	x22,x21,0
# Testcase cmp_rs1_rs2 (Test rs1 = rs2 = x21)
  RVTEST_TESTDATA_LOAD_INT(x22, x21) # load rs1: x21 = 0x27673112
    31b4:	000b2a83          	lw	x21,0(x22)
    31b8:	004b0b13          	addi	x22,x22,4
  RVTEST_TESTDATA_LOAD_INT(x22, x21) # load rs2: x21 = 0xe0bf5d4c
    31bc:	000b2a83          	lw	x21,0(x22)
    31c0:	004b0b13          	addi	x22,x22,4

000031c4 <I_add_cg_cmp_rs1_rs2_b21>:
I_add_cg_cmp_rs1_rs2_b21:
  add x24, x21, x21 # perform operation
    31c4:	015a8c33          	add	x24,x21,x21
  # Check if x24 contains the expected result. x30 is the signature ptr, x5 is the link ptr, x4 is a temp reg.
  RVTEST_SIGUPD(x30, x5, x4, x24, I_add_cg_cmp_rs1_rs2_b21, I_add_cg_cmp_rs1_rs2_b21_str)
    31c8:	000f2203          	lw	x4,0(x30)
    31cc:	01820863          	beq	x4,x24,31dc <I_add_cg_cmp_rs1_rs2_b21+0x18>
    31d0:	2ec012ef          	jal	x5,44bc <failedtest_x5_x4>
    31d4:	000031c4          	.word	0x000031c4
    31d8:	0000d9bb          	.word	0x0000d9bb
    31dc:	004f0f13          	addi	x30,x30,4

  mv x15, x22 # switch data pointer register to avoid conflict with test
    31e0:	000b0793          	addi	x15,x22,0
# Testcase cmp_rs1_rs2 (Test rs1 = rs2 = x22)
  RVTEST_TESTDATA_LOAD_INT(x15, x22) # load rs1: x22 = 0xb6f26b28
    31e4:	0007ab03          	lw	x22,0(x15)
    31e8:	00478793          	addi	x15,x15,4
  RVTEST_TESTDATA_LOAD_INT(x15, x22) # load rs2: x22 = 0x81b08eca
    31ec:	0007ab03          	lw	x22,0(x15)
    31f0:	00478793          	addi	x15,x15,4

000031f4 <I_add_cg_cmp_rs1_rs2_b22>:
I_add_cg_cmp_rs1_rs2_b22:
  add x9, x22, x22 # perform operation
    31f4:	016b04b3          	add	x9,x22,x22
  # Check if x9 contains the expected result. x30 is the signature ptr, x5 is the link ptr, x4 is a temp reg.
  RVTEST_SIGUPD(x30, x5, x4, x9, I_add_cg_cmp_rs1_rs2_b22, I_add_cg_cmp_rs1_rs2_b22_str)
    31f8:	000f2203          	lw	x4,0(x30)
    31fc:	00920863          	beq	x4,x9,320c <I_add_cg_cmp_rs1_rs2_b22+0x18>
    3200:	2bc012ef          	jal	x5,44bc <failedtest_x5_x4>
    3204:	000031f4          	.word	0x000031f4
    3208:	0000d9f0          	.word	0x0000d9f0
    320c:	004f0f13          	addi	x30,x30,4

# Testcase cmp_rs1_rs2 (Test rs1 = rs2 = x23)
  RVTEST_TESTDATA_LOAD_INT(x15, x23) # load rs1: x23 = 0x8566132f
    3210:	0007ab83          	lw	x23,0(x15)
    3214:	00478793          	addi	x15,x15,4
  RVTEST_TESTDATA_LOAD_INT(x15, x23) # load rs2: x23 = 0x0cc35e40
    3218:	0007ab83          	lw	x23,0(x15)
    321c:	00478793          	addi	x15,x15,4

00003220 <I_add_cg_cmp_rs1_rs2_b23>:
I_add_cg_cmp_rs1_rs2_b23:
  add x19, x23, x23 # perform operation
    3220:	017b89b3          	add	x19,x23,x23
  # Check if x19 contains the expected result. x30 is the signature ptr, x5 is the link ptr, x4 is a temp reg.
  RVTEST_SIGUPD(x30, x5, x4, x19, I_add_cg_cmp_rs1_rs2_b23, I_add_cg_cmp_rs1_rs2_b23_str)
    3224:	000f2203          	lw	x4,0(x30)
    3228:	01320863          	beq	x4,x19,3238 <I_add_cg_cmp_rs1_rs2_b23+0x18>
    322c:	290012ef          	jal	x5,44bc <failedtest_x5_x4>
    3230:	00003220          	.word	0x00003220
    3234:	0000da25          	.word	0x0000da25
    3238:	004f0f13          	addi	x30,x30,4

# Testcase cmp_rs1_rs2 (Test rs1 = rs2 = x24)
  RVTEST_TESTDATA_LOAD_INT(x15, x24) # load rs1: x24 = 0xb8c69043
    323c:	0007ac03          	lw	x24,0(x15)
    3240:	00478793          	addi	x15,x15,4
  RVTEST_TESTDATA_LOAD_INT(x15, x24) # load rs2: x24 = 0x4fd7fb75
    3244:	0007ac03          	lw	x24,0(x15)
    3248:	00478793          	addi	x15,x15,4

0000324c <I_add_cg_cmp_rs1_rs2_b24>:
I_add_cg_cmp_rs1_rs2_b24:
  add x31, x24, x24 # perform operation
    324c:	018c0fb3          	add	x31,x24,x24
  # Check if x31 contains the expected result. x30 is the signature ptr, x5 is the link ptr, x4 is a temp reg.
  RVTEST_SIGUPD(x30, x5, x4, x31, I_add_cg_cmp_rs1_rs2_b24, I_add_cg_cmp_rs1_rs2_b24_str)
    3250:	000f2203          	lw	x4,0(x30)
    3254:	01f20863          	beq	x4,x31,3264 <I_add_cg_cmp_rs1_rs2_b24+0x18>
    3258:	264012ef          	jal	x5,44bc <failedtest_x5_x4>
    325c:	0000324c          	.word	0x0000324c
    3260:	0000da5a          	.word	0x0000da5a
    3264:	004f0f13          	addi	x30,x30,4

# Testcase cmp_rs1_rs2 (Test rs1 = rs2 = x25)
  RVTEST_TESTDATA_LOAD_INT(x15, x25) # load rs1: x25 = 0x43e58899
    3268:	0007ac83          	lw	x25,0(x15)
    326c:	00478793          	addi	x15,x15,4
  RVTEST_TESTDATA_LOAD_INT(x15, x25) # load rs2: x25 = 0x848e967f
    3270:	0007ac83          	lw	x25,0(x15)
    3274:	00478793          	addi	x15,x15,4

00003278 <I_add_cg_cmp_rs1_rs2_b25>:
I_add_cg_cmp_rs1_rs2_b25:
  add x27, x25, x25 # perform operation
    3278:	019c8db3          	add	x27,x25,x25
  # Check if x27 contains the expected result. x30 is the signature ptr, x5 is the link ptr, x4 is a temp reg.
  RVTEST_SIGUPD(x30, x5, x4, x27, I_add_cg_cmp_rs1_rs2_b25, I_add_cg_cmp_rs1_rs2_b25_str)
    327c:	000f2203          	lw	x4,0(x30)
    3280:	01b20863          	beq	x4,x27,3290 <I_add_cg_cmp_rs1_rs2_b25+0x18>
    3284:	238012ef          	jal	x5,44bc <failedtest_x5_x4>
    3288:	00003278          	.word	0x00003278
    328c:	0000da8f          	.word	0x0000da8f
    3290:	004f0f13          	addi	x30,x30,4

# Testcase cmp_rs1_rs2 (Test rs1 = rs2 = x26)
  RVTEST_TESTDATA_LOAD_INT(x15, x26) # load rs1: x26 = 0x5e40e8a5
    3294:	0007ad03          	lw	x26,0(x15)
    3298:	00478793          	addi	x15,x15,4
  RVTEST_TESTDATA_LOAD_INT(x15, x26) # load rs2: x26 = 0xd4954596
    329c:	0007ad03          	lw	x26,0(x15)
    32a0:	00478793          	addi	x15,x15,4

000032a4 <I_add_cg_cmp_rs1_rs2_b26>:
I_add_cg_cmp_rs1_rs2_b26:
  add x10, x26, x26 # perform operation
    32a4:	01ad0533          	add	x10,x26,x26
  # Check if x10 contains the expected result. x30 is the signature ptr, x5 is the link ptr, x4 is a temp reg.
  RVTEST_SIGUPD(x30, x5, x4, x10, I_add_cg_cmp_rs1_rs2_b26, I_add_cg_cmp_rs1_rs2_b26_str)
    32a8:	000f2203          	lw	x4,0(x30)
    32ac:	00a20863          	beq	x4,x10,32bc <I_add_cg_cmp_rs1_rs2_b26+0x18>
    32b0:	20c012ef          	jal	x5,44bc <failedtest_x5_x4>
    32b4:	000032a4          	.word	0x000032a4
    32b8:	0000dac4          	.word	0x0000dac4
    32bc:	004f0f13          	addi	x30,x30,4

# Testcase cmp_rs1_rs2 (Test rs1 = rs2 = x27)
  RVTEST_TESTDATA_LOAD_INT(x15, x27) # load rs1: x27 = 0xcfa5b9a1
    32c0:	0007ad83          	lw	x27,0(x15)
    32c4:	00478793          	addi	x15,x15,4
  RVTEST_TESTDATA_LOAD_INT(x15, x27) # load rs2: x27 = 0x9643bcfa
    32c8:	0007ad83          	lw	x27,0(x15)
    32cc:	00478793          	addi	x15,x15,4

000032d0 <I_add_cg_cmp_rs1_rs2_b27>:
I_add_cg_cmp_rs1_rs2_b27:
  add x16, x27, x27 # perform operation
    32d0:	01bd8833          	add	x16,x27,x27
  # Check if x16 contains the expected result. x30 is the signature ptr, x5 is the link ptr, x4 is a temp reg.
  RVTEST_SIGUPD(x30, x5, x4, x16, I_add_cg_cmp_rs1_rs2_b27, I_add_cg_cmp_rs1_rs2_b27_str)
    32d4:	000f2203          	lw	x4,0(x30)
    32d8:	01020863          	beq	x4,x16,32e8 <I_add_cg_cmp_rs1_rs2_b27+0x18>
    32dc:	1e0012ef          	jal	x5,44bc <failedtest_x5_x4>
    32e0:	000032d0          	.word	0x000032d0
    32e4:	0000daf9          	.word	0x0000daf9
    32e8:	004f0f13          	addi	x30,x30,4

# Testcase cmp_rs1_rs2 (Test rs1 = rs2 = x28)
  RVTEST_TESTDATA_LOAD_INT(x15, x28) # load rs1: x28 = 0xa9d4cf1a
    32ec:	0007ae03          	lw	x28,0(x15)
    32f0:	00478793          	addi	x15,x15,4
  RVTEST_TESTDATA_LOAD_INT(x15, x28) # load rs2: x28 = 0x07a15622
    32f4:	0007ae03          	lw	x28,0(x15)
    32f8:	00478793          	addi	x15,x15,4

000032fc <I_add_cg_cmp_rs1_rs2_b28>:
I_add_cg_cmp_rs1_rs2_b28:
  add x18, x28, x28 # perform operation
    32fc:	01ce0933          	add	x18,x28,x28
  # Check if x18 contains the expected result. x30 is the signature ptr, x5 is the link ptr, x4 is a temp reg.
  RVTEST_SIGUPD(x30, x5, x4, x18, I_add_cg_cmp_rs1_rs2_b28, I_add_cg_cmp_rs1_rs2_b28_str)
    3300:	000f2203          	lw	x4,0(x30)
    3304:	01220863          	beq	x4,x18,3314 <I_add_cg_cmp_rs1_rs2_b28+0x18>
    3308:	1b4012ef          	jal	x5,44bc <failedtest_x5_x4>
    330c:	000032fc          	.word	0x000032fc
    3310:	0000db2e          	.word	0x0000db2e
    3314:	004f0f13          	addi	x30,x30,4

# Testcase cmp_rs1_rs2 (Test rs1 = rs2 = x29)
  RVTEST_TESTDATA_LOAD_INT(x15, x29) # load rs1: x29 = 0x64566dca
    3318:	0007ae83          	lw	x29,0(x15)
    331c:	00478793          	addi	x15,x15,4
  RVTEST_TESTDATA_LOAD_INT(x15, x29) # load rs2: x29 = 0xe7ca12e6
    3320:	0007ae83          	lw	x29,0(x15)
    3324:	00478793          	addi	x15,x15,4

00003328 <I_add_cg_cmp_rs1_rs2_b29>:
I_add_cg_cmp_rs1_rs2_b29:
  add x26, x29, x29 # perform operation
    3328:	01de8d33          	add	x26,x29,x29
  # Check if x26 contains the expected result. x30 is the signature ptr, x5 is the link ptr, x4 is a temp reg.
  RVTEST_SIGUPD(x30, x5, x4, x26, I_add_cg_cmp_rs1_rs2_b29, I_add_cg_cmp_rs1_rs2_b29_str)
    332c:	000f2203          	lw	x4,0(x30)
    3330:	01a20863          	beq	x4,x26,3340 <I_add_cg_cmp_rs1_rs2_b29+0x18>
    3334:	188012ef          	jal	x5,44bc <failedtest_x5_x4>
    3338:	00003328          	.word	0x00003328
    333c:	0000db63          	.word	0x0000db63
    3340:	004f0f13          	addi	x30,x30,4

  mv x21, x30 # switch signature pointer register to avoid conflict with test
    3344:	000f0a93          	addi	x21,x30,0
# Testcase cmp_rs1_rs2 (Test rs1 = rs2 = x30)
  RVTEST_TESTDATA_LOAD_INT(x15, x30) # load rs1: x30 = 0x674a861b
    3348:	0007af03          	lw	x30,0(x15)
    334c:	00478793          	addi	x15,x15,4
  RVTEST_TESTDATA_LOAD_INT(x15, x30) # load rs2: x30 = 0xdc788394
    3350:	0007af03          	lw	x30,0(x15)
    3354:	00478793          	addi	x15,x15,4

00003358 <I_add_cg_cmp_rs1_rs2_b30>:
I_add_cg_cmp_rs1_rs2_b30:
  add x6, x30, x30 # perform operation
    3358:	01ef0333          	add	x6,x30,x30
  # Check if x6 contains the expected result. x21 is the signature ptr, x5 is the link ptr, x4 is a temp reg.
  RVTEST_SIGUPD(x21, x5, x4, x6, I_add_cg_cmp_rs1_rs2_b30, I_add_cg_cmp_rs1_rs2_b30_str)
    335c:	000aa203          	lw	x4,0(x21)
    3360:	00620863          	beq	x4,x6,3370 <I_add_cg_cmp_rs1_rs2_b30+0x18>
    3364:	158012ef          	jal	x5,44bc <failedtest_x5_x4>
    3368:	00003358          	.word	0x00003358
    336c:	0000db98          	.word	0x0000db98
    3370:	004a8a93          	addi	x21,x21,4

# Testcase cmp_rs1_rs2 (Test rs1 = rs2 = x31)
  RVTEST_TESTDATA_LOAD_INT(x15, x31) # load rs1: x31 = 0x70c3f3b2
    3374:	0007af83          	lw	x31,0(x15)
    3378:	00478793          	addi	x15,x15,4
  RVTEST_TESTDATA_LOAD_INT(x15, x31) # load rs2: x31 = 0x293c5fbd
    337c:	0007af83          	lw	x31,0(x15)
    3380:	00478793          	addi	x15,x15,4

00003384 <I_add_cg_cmp_rs1_rs2_b31>:
I_add_cg_cmp_rs1_rs2_b31:
  add x16, x31, x31 # perform operation
    3384:	01ff8833          	add	x16,x31,x31
  # Check if x16 contains the expected result. x21 is the signature ptr, x5 is the link ptr, x4 is a temp reg.
  RVTEST_SIGUPD(x21, x5, x4, x16, I_add_cg_cmp_rs1_rs2_b31, I_add_cg_cmp_rs1_rs2_b31_str)
    3388:	000aa203          	lw	x4,0(x21)
    338c:	01020863          	beq	x4,x16,339c <I_add_cg_cmp_rs1_rs2_b31+0x18>
    3390:	12c012ef          	jal	x5,44bc <failedtest_x5_x4>
    3394:	00003384          	.word	0x00003384
    3398:	0000dbcd          	.word	0x0000dbcd
    339c:	004a8a93          	addi	x21,x21,4
/////////////////////////////////
// cmp_rd_rs1
/////////////////////////////////

# Testcase cmp_rd_rs1 (Test rd = rs1 = x0)
  RVTEST_TESTDATA_LOAD_INT(x15, x0) # load rs1: x0 = 0xdad8c80c
    33a0:	0007a003          	lw	x0,0(x15)
    33a4:	00478793          	addi	x15,x15,4
  RVTEST_TESTDATA_LOAD_INT(x15, x31) # load rs2: x31 = 0xd8fde627
    33a8:	0007af83          	lw	x31,0(x15)
    33ac:	00478793          	addi	x15,x15,4

000033b0 <I_add_cg_cmp_rd_rs1_b0>:
I_add_cg_cmp_rd_rs1_b0:
  add x0, x0, x31 # perform operation
    33b0:	01f00033          	add	x0,x0,x31
  # Check if x0 contains the expected result. x21 is the signature ptr, x5 is the link ptr, x4 is a temp reg.
  RVTEST_SIGUPD(x21, x5, x4, x0, I_add_cg_cmp_rd_rs1_b0, I_add_cg_cmp_rd_rs1_b0_str)
    33b4:	000aa203          	lw	x4,0(x21)
    33b8:	00020863          	beq	x4,x0,33c8 <I_add_cg_cmp_rd_rs1_b0+0x18>
    33bc:	100012ef          	jal	x5,44bc <failedtest_x5_x4>
    33c0:	000033b0          	.word	0x000033b0
    33c4:	0000dc02          	.word	0x0000dc02
    33c8:	004a8a93          	addi	x21,x21,4

# Testcase cmp_rd_rs1 (Test rd = rs1 = x1)
  RVTEST_TESTDATA_LOAD_INT(x15, x1) # load rs1: x1 = 0x13d230a8
    33cc:	0007a083          	lw	x1,0(x15)
    33d0:	00478793          	addi	x15,x15,4
  RVTEST_TESTDATA_LOAD_INT(x15, x27) # load rs2: x27 = 0x2dc38077
    33d4:	0007ad83          	lw	x27,0(x15)
    33d8:	00478793          	addi	x15,x15,4

000033dc <I_add_cg_cmp_rd_rs1_b1>:
I_add_cg_cmp_rd_rs1_b1:
  add x1, x1, x27 # perform operation
    33dc:	01b080b3          	add	x1,x1,x27
  # Check if x1 contains the expected result. x21 is the signature ptr, x5 is the link ptr, x4 is a temp reg.
  RVTEST_SIGUPD(x21, x5, x4, x1, I_add_cg_cmp_rd_rs1_b1, I_add_cg_cmp_rd_rs1_b1_str)
    33e0:	000aa203          	lw	x4,0(x21)
    33e4:	00120863          	beq	x4,x1,33f4 <I_add_cg_cmp_rd_rs1_b1+0x18>
    33e8:	0d4012ef          	jal	x5,44bc <failedtest_x5_x4>
    33ec:	000033dc          	.word	0x000033dc
    33f0:	0000dc35          	.word	0x0000dc35
    33f4:	004a8a93          	addi	x21,x21,4

# Testcase cmp_rd_rs1 (Test rd = rs1 = x2)
  RVTEST_TESTDATA_LOAD_INT(x15, x2) # load rs1: x2 = 0x14d2b4ae
    33f8:	0007a103          	lw	x2,0(x15)
    33fc:	00478793          	addi	x15,x15,4
  RVTEST_TESTDATA_LOAD_INT(x15, x20) # load rs2: x20 = 0x6475c77f
    3400:	0007aa03          	lw	x20,0(x15)
    3404:	00478793          	addi	x15,x15,4

00003408 <I_add_cg_cmp_rd_rs1_b2>:
I_add_cg_cmp_rd_rs1_b2:
  add x2, x2, x20 # perform operation
    3408:	01410133          	add	x2,x2,x20
  # Check if x2 contains the expected result. x21 is the signature ptr, x5 is the link ptr, x4 is a temp reg.
  RVTEST_SIGUPD(x21, x5, x4, x2, I_add_cg_cmp_rd_rs1_b2, I_add_cg_cmp_rd_rs1_b2_str)
    340c:	000aa203          	lw	x4,0(x21)
    3410:	00220863          	beq	x4,x2,3420 <I_add_cg_cmp_rd_rs1_b2+0x18>
    3414:	0a8012ef          	jal	x5,44bc <failedtest_x5_x4>
    3418:	00003408          	.word	0x00003408
    341c:	0000dc68          	.word	0x0000dc68
    3420:	004a8a93          	addi	x21,x21,4

# Testcase cmp_rd_rs1 (Test rd = rs1 = x3)
  RVTEST_TESTDATA_LOAD_INT(x15, x3) # load rs1: x3 = 0x210976e0
    3424:	0007a183          	lw	x3,0(x15)
    3428:	00478793          	addi	x15,x15,4
  RVTEST_TESTDATA_LOAD_INT(x15, x16) # load rs2: x16 = 0x1d0ea0c7
    342c:	0007a803          	lw	x16,0(x15)
    3430:	00478793          	addi	x15,x15,4

00003434 <I_add_cg_cmp_rd_rs1_b3>:
I_add_cg_cmp_rd_rs1_b3:
  add x3, x3, x16 # perform operation
    3434:	010181b3          	add	x3,x3,x16
  # Check if x3 contains the expected result. x21 is the signature ptr, x5 is the link ptr, x4 is a temp reg.
  RVTEST_SIGUPD(x21, x5, x4, x3, I_add_cg_cmp_rd_rs1_b3, I_add_cg_cmp_rd_rs1_b3_str)
    3438:	000aa203          	lw	x4,0(x21)
    343c:	00320863          	beq	x4,x3,344c <I_add_cg_cmp_rd_rs1_b3+0x18>
    3440:	07c012ef          	jal	x5,44bc <failedtest_x5_x4>
    3444:	00003434          	.word	0x00003434
    3448:	0000dc9b          	.word	0x0000dc9b
    344c:	004a8a93          	addi	x21,x21,4

  mv x13, x4 # switch temp register to avoid conflict with test
    3450:	00020693          	addi	x13,x4,0 # 0 <rvtest_entry_point>
  mv x14, x5 # switch link pointer register to avoid conflict with test
    3454:	00028713          	addi	x14,x5,0
# Testcase cmp_rd_rs1 (Test rd = rs1 = x4)
  RVTEST_TESTDATA_LOAD_INT(x15, x4) # load rs1: x4 = 0x40f76593
    3458:	0007a203          	lw	x4,0(x15)
    345c:	00478793          	addi	x15,x15,4
  RVTEST_TESTDATA_LOAD_INT(x15, x1) # load rs2: x1 = 0x66da39c0
    3460:	0007a083          	lw	x1,0(x15)
    3464:	00478793          	addi	x15,x15,4

00003468 <I_add_cg_cmp_rd_rs1_b4>:
I_add_cg_cmp_rd_rs1_b4:
  add x4, x4, x1 # perform operation
    3468:	00120233          	add	x4,x4,x1
  # Check if x4 contains the expected result. x21 is the signature ptr, x14 is the link ptr, x13 is a temp reg.
  RVTEST_SIGUPD(x21, x14, x13, x4, I_add_cg_cmp_rd_rs1_b4, I_add_cg_cmp_rd_rs1_b4_str)
    346c:	000aa683          	lw	x13,0(x21)
    3470:	00468863          	beq	x13,x4,3480 <I_add_cg_cmp_rd_rs1_b4+0x18>
    3474:	0880176f          	jal	x14,44fc <failedtest_x14_x13>
    3478:	00003468          	.word	0x00003468
    347c:	0000dcce          	.word	0x0000dcce
    3480:	004a8a93          	addi	x21,x21,4

# Testcase cmp_rd_rs1 (Test rd = rs1 = x5)
  RVTEST_TESTDATA_LOAD_INT(x15, x5) # load rs1: x5 = 0x950d3da8
    3484:	0007a283          	lw	x5,0(x15)
    3488:	00478793          	addi	x15,x15,4
  RVTEST_TESTDATA_LOAD_INT(x15, x24) # load rs2: x24 = 0xbbfc5568
    348c:	0007ac03          	lw	x24,0(x15)
    3490:	00478793          	addi	x15,x15,4

00003494 <I_add_cg_cmp_rd_rs1_b5>:
I_add_cg_cmp_rd_rs1_b5:
  add x5, x5, x24 # perform operation
    3494:	018282b3          	add	x5,x5,x24
  # Check if x5 contains the expected result. x21 is the signature ptr, x14 is the link ptr, x13 is a temp reg.
  RVTEST_SIGUPD(x21, x14, x13, x5, I_add_cg_cmp_rd_rs1_b5, I_add_cg_cmp_rd_rs1_b5_str)
    3498:	000aa683          	lw	x13,0(x21)
    349c:	00568863          	beq	x13,x5,34ac <I_add_cg_cmp_rd_rs1_b5+0x18>
    34a0:	05c0176f          	jal	x14,44fc <failedtest_x14_x13>
    34a4:	00003494          	.word	0x00003494
    34a8:	0000dd01          	.word	0x0000dd01
    34ac:	004a8a93          	addi	x21,x21,4

# Testcase cmp_rd_rs1 (Test rd = rs1 = x6)
  RVTEST_TESTDATA_LOAD_INT(x15, x6) # load rs1: x6 = 0x93e13662
    34b0:	0007a303          	lw	x6,0(x15)
    34b4:	00478793          	addi	x15,x15,4
  RVTEST_TESTDATA_LOAD_INT(x15, x4) # load rs2: x4 = 0xd4856578
    34b8:	0007a203          	lw	x4,0(x15)
    34bc:	00478793          	addi	x15,x15,4

000034c0 <I_add_cg_cmp_rd_rs1_b6>:
I_add_cg_cmp_rd_rs1_b6:
  add x6, x6, x4 # perform operation
    34c0:	00430333          	add	x6,x6,x4
  # Check if x6 contains the expected result. x21 is the signature ptr, x14 is the link ptr, x13 is a temp reg.
  RVTEST_SIGUPD(x21, x14, x13, x6, I_add_cg_cmp_rd_rs1_b6, I_add_cg_cmp_rd_rs1_b6_str)
    34c4:	000aa683          	lw	x13,0(x21)
    34c8:	00668863          	beq	x13,x6,34d8 <I_add_cg_cmp_rd_rs1_b6+0x18>
    34cc:	0300176f          	jal	x14,44fc <failedtest_x14_x13>
    34d0:	000034c0          	.word	0x000034c0
    34d4:	0000dd34          	.word	0x0000dd34
    34d8:	004a8a93          	addi	x21,x21,4

# Testcase cmp_rd_rs1 (Test rd = rs1 = x7)
  RVTEST_TESTDATA_LOAD_INT(x15, x7) # load rs1: x7 = 0x4b83d603
    34dc:	0007a383          	lw	x7,0(x15)
    34e0:	00478793          	addi	x15,x15,4
  RVTEST_TESTDATA_LOAD_INT(x15, x3) # load rs2: x3 = 0x49352329
    34e4:	0007a183          	lw	x3,0(x15)
    34e8:	00478793          	addi	x15,x15,4

000034ec <I_add_cg_cmp_rd_rs1_b7>:
I_add_cg_cmp_rd_rs1_b7:
  add x7, x7, x3 # perform operation
    34ec:	003383b3          	add	x7,x7,x3
  # Check if x7 contains the expected result. x21 is the signature ptr, x14 is the link ptr, x13 is a temp reg.
  RVTEST_SIGUPD(x21, x14, x13, x7, I_add_cg_cmp_rd_rs1_b7, I_add_cg_cmp_rd_rs1_b7_str)
    34f0:	000aa683          	lw	x13,0(x21)
    34f4:	00768863          	beq	x13,x7,3504 <I_add_cg_cmp_rd_rs1_b7+0x18>
    34f8:	0040176f          	jal	x14,44fc <failedtest_x14_x13>
    34fc:	000034ec          	.word	0x000034ec
    3500:	0000dd67          	.word	0x0000dd67
    3504:	004a8a93          	addi	x21,x21,4

# Testcase cmp_rd_rs1 (Test rd = rs1 = x8)
  RVTEST_TESTDATA_LOAD_INT(x15, x8) # load rs1: x8 = 0x1575438d
    3508:	0007a403          	lw	x8,0(x15)
    350c:	00478793          	addi	x15,x15,4
  RVTEST_TESTDATA_LOAD_INT(x15, x4) # load rs2: x4 = 0xd4473d9e
    3510:	0007a203          	lw	x4,0(x15)
    3514:	00478793          	addi	x15,x15,4

00003518 <I_add_cg_cmp_rd_rs1_b8>:
I_add_cg_cmp_rd_rs1_b8:
  add x8, x8, x4 # perform operation
    3518:	00440433          	add	x8,x8,x4
  # Check if x8 contains the expected result. x21 is the signature ptr, x14 is the link ptr, x13 is a temp reg.
  RVTEST_SIGUPD(x21, x14, x13, x8, I_add_cg_cmp_rd_rs1_b8, I_add_cg_cmp_rd_rs1_b8_str)
    351c:	000aa683          	lw	x13,0(x21)
    3520:	00868863          	beq	x13,x8,3530 <I_add_cg_cmp_rd_rs1_b8+0x18>
    3524:	7d90076f          	jal	x14,44fc <failedtest_x14_x13>
    3528:	00003518          	.word	0x00003518
    352c:	0000dd9a          	.word	0x0000dd9a
    3530:	004a8a93          	addi	x21,x21,4

# Testcase cmp_rd_rs1 (Test rd = rs1 = x9)
  RVTEST_TESTDATA_LOAD_INT(x15, x9) # load rs1: x9 = 0x1435e05b
    3534:	0007a483          	lw	x9,0(x15)
    3538:	00478793          	addi	x15,x15,4
  RVTEST_TESTDATA_LOAD_INT(x15, x24) # load rs2: x24 = 0xb81b9c35
    353c:	0007ac03          	lw	x24,0(x15)
    3540:	00478793          	addi	x15,x15,4

00003544 <I_add_cg_cmp_rd_rs1_b9>:
I_add_cg_cmp_rd_rs1_b9:
  add x9, x9, x24 # perform operation
    3544:	018484b3          	add	x9,x9,x24
  # Check if x9 contains the expected result. x21 is the signature ptr, x14 is the link ptr, x13 is a temp reg.
  RVTEST_SIGUPD(x21, x14, x13, x9, I_add_cg_cmp_rd_rs1_b9, I_add_cg_cmp_rd_rs1_b9_str)
    3548:	000aa683          	lw	x13,0(x21)
    354c:	00968863          	beq	x13,x9,355c <I_add_cg_cmp_rd_rs1_b9+0x18>
    3550:	7ad0076f          	jal	x14,44fc <failedtest_x14_x13>
    3554:	00003544          	.word	0x00003544
    3558:	0000ddcd          	.word	0x0000ddcd
    355c:	004a8a93          	addi	x21,x21,4

# Testcase cmp_rd_rs1 (Test rd = rs1 = x10)
  RVTEST_TESTDATA_LOAD_INT(x15, x10) # load rs1: x10 = 0x284ca876
    3560:	0007a503          	lw	x10,0(x15)
    3564:	00478793          	addi	x15,x15,4
  RVTEST_TESTDATA_LOAD_INT(x15, x6) # load rs2: x6 = 0xe2e1c233
    3568:	0007a303          	lw	x6,0(x15)
    356c:	00478793          	addi	x15,x15,4

00003570 <I_add_cg_cmp_rd_rs1_b10>:
I_add_cg_cmp_rd_rs1_b10:
  add x10, x10, x6 # perform operation
    3570:	00650533          	add	x10,x10,x6
  # Check if x10 contains the expected result. x21 is the signature ptr, x14 is the link ptr, x13 is a temp reg.
  RVTEST_SIGUPD(x21, x14, x13, x10, I_add_cg_cmp_rd_rs1_b10, I_add_cg_cmp_rd_rs1_b10_str)
    3574:	000aa683          	lw	x13,0(x21)
    3578:	00a68863          	beq	x13,x10,3588 <I_add_cg_cmp_rd_rs1_b10+0x18>
    357c:	7810076f          	jal	x14,44fc <failedtest_x14_x13>
    3580:	00003570          	.word	0x00003570
    3584:	0000de00          	.word	0x0000de00
    3588:	004a8a93          	addi	x21,x21,4

# Testcase cmp_rd_rs1 (Test rd = rs1 = x11)
  RVTEST_TESTDATA_LOAD_INT(x15, x11) # load rs1: x11 = 0xd4df032d
    358c:	0007a583          	lw	x11,0(x15)
    3590:	00478793          	addi	x15,x15,4
  RVTEST_TESTDATA_LOAD_INT(x15, x20) # load rs2: x20 = 0x94ddf741
    3594:	0007aa03          	lw	x20,0(x15)
    3598:	00478793          	addi	x15,x15,4

0000359c <I_add_cg_cmp_rd_rs1_b11>:
I_add_cg_cmp_rd_rs1_b11:
  add x11, x11, x20 # perform operation
    359c:	014585b3          	add	x11,x11,x20
  # Check if x11 contains the expected result. x21 is the signature ptr, x14 is the link ptr, x13 is a temp reg.
  RVTEST_SIGUPD(x21, x14, x13, x11, I_add_cg_cmp_rd_rs1_b11, I_add_cg_cmp_rd_rs1_b11_str)
    35a0:	000aa683          	lw	x13,0(x21)
    35a4:	00b68863          	beq	x13,x11,35b4 <I_add_cg_cmp_rd_rs1_b11+0x18>
    35a8:	7550076f          	jal	x14,44fc <failedtest_x14_x13>
    35ac:	0000359c          	.word	0x0000359c
    35b0:	0000de34          	.word	0x0000de34
    35b4:	004a8a93          	addi	x21,x21,4

# Testcase cmp_rd_rs1 (Test rd = rs1 = x12)
  RVTEST_TESTDATA_LOAD_INT(x15, x12) # load rs1: x12 = 0xe31ea90b
    35b8:	0007a603          	lw	x12,0(x15)
    35bc:	00478793          	addi	x15,x15,4
  RVTEST_TESTDATA_LOAD_INT(x15, x6) # load rs2: x6 = 0x74b65606
    35c0:	0007a303          	lw	x6,0(x15)
    35c4:	00478793          	addi	x15,x15,4

000035c8 <I_add_cg_cmp_rd_rs1_b12>:
I_add_cg_cmp_rd_rs1_b12:
  add x12, x12, x6 # perform operation
    35c8:	00660633          	add	x12,x12,x6
  # Check if x12 contains the expected result. x21 is the signature ptr, x14 is the link ptr, x13 is a temp reg.
  RVTEST_SIGUPD(x21, x14, x13, x12, I_add_cg_cmp_rd_rs1_b12, I_add_cg_cmp_rd_rs1_b12_str)
    35cc:	000aa683          	lw	x13,0(x21)
    35d0:	00c68863          	beq	x13,x12,35e0 <I_add_cg_cmp_rd_rs1_b12+0x18>
    35d4:	7290076f          	jal	x14,44fc <failedtest_x14_x13>
    35d8:	000035c8          	.word	0x000035c8
    35dc:	0000de68          	.word	0x0000de68
    35e0:	004a8a93          	addi	x21,x21,4

  mv x7, x13 # switch temp register to avoid conflict with test
    35e4:	00068393          	addi	x7,x13,0
  mv x8, x14 # switch link pointer register to avoid conflict with test
    35e8:	00070413          	addi	x8,x14,0
# Testcase cmp_rd_rs1 (Test rd = rs1 = x13)
  RVTEST_TESTDATA_LOAD_INT(x15, x13) # load rs1: x13 = 0xef53371d
    35ec:	0007a683          	lw	x13,0(x15)
    35f0:	00478793          	addi	x15,x15,4
  RVTEST_TESTDATA_LOAD_INT(x15, x12) # load rs2: x12 = 0x8fd5025d
    35f4:	0007a603          	lw	x12,0(x15)
    35f8:	00478793          	addi	x15,x15,4

000035fc <I_add_cg_cmp_rd_rs1_b13>:
I_add_cg_cmp_rd_rs1_b13:
  add x13, x13, x12 # perform operation
    35fc:	00c686b3          	add	x13,x13,x12
  # Check if x13 contains the expected result. x21 is the signature ptr, x8 is the link ptr, x7 is a temp reg.
  RVTEST_SIGUPD(x21, x8, x7, x13, I_add_cg_cmp_rd_rs1_b13, I_add_cg_cmp_rd_rs1_b13_str)
    3600:	000aa383          	lw	x7,0(x21)
    3604:	00d38863          	beq	x7,x13,3614 <I_add_cg_cmp_rd_rs1_b13+0x18>
    3608:	6cd0046f          	jal	x8,44d4 <failedtest_x8_x7>
    360c:	000035fc          	.word	0x000035fc
    3610:	0000de9c          	.word	0x0000de9c
    3614:	004a8a93          	addi	x21,x21,4

# Testcase cmp_rd_rs1 (Test rd = rs1 = x14)
  RVTEST_TESTDATA_LOAD_INT(x15, x14) # load rs1: x14 = 0xd31c6727
    3618:	0007a703          	lw	x14,0(x15)
    361c:	00478793          	addi	x15,x15,4
  RVTEST_TESTDATA_LOAD_INT(x15, x5) # load rs2: x5 = 0x45603e7a
    3620:	0007a283          	lw	x5,0(x15)
    3624:	00478793          	addi	x15,x15,4

00003628 <I_add_cg_cmp_rd_rs1_b14>:
I_add_cg_cmp_rd_rs1_b14:
  add x14, x14, x5 # perform operation
    3628:	00570733          	add	x14,x14,x5
  # Check if x14 contains the expected result. x21 is the signature ptr, x8 is the link ptr, x7 is a temp reg.
  RVTEST_SIGUPD(x21, x8, x7, x14, I_add_cg_cmp_rd_rs1_b14, I_add_cg_cmp_rd_rs1_b14_str)
    362c:	000aa383          	lw	x7,0(x21)
    3630:	00e38863          	beq	x7,x14,3640 <I_add_cg_cmp_rd_rs1_b14+0x18>
    3634:	6a10046f          	jal	x8,44d4 <failedtest_x8_x7>
    3638:	00003628          	.word	0x00003628
    363c:	0000ded0          	.word	0x0000ded0
    3640:	004a8a93          	addi	x21,x21,4

  mv x25, x15 # switch data pointer register to avoid conflict with test
    3644:	00078c93          	addi	x25,x15,0
# Testcase cmp_rd_rs1 (Test rd = rs1 = x15)
  RVTEST_TESTDATA_LOAD_INT(x25, x15) # load rs1: x15 = 0xb6da2abf
    3648:	000ca783          	lw	x15,0(x25)
    364c:	004c8c93          	addi	x25,x25,4
  RVTEST_TESTDATA_LOAD_INT(x25, x19) # load rs2: x19 = 0x5b13009d
    3650:	000ca983          	lw	x19,0(x25)
    3654:	004c8c93          	addi	x25,x25,4

00003658 <I_add_cg_cmp_rd_rs1_b15>:
I_add_cg_cmp_rd_rs1_b15:
  add x15, x15, x19 # perform operation
    3658:	013787b3          	add	x15,x15,x19
  # Check if x15 contains the expected result. x21 is the signature ptr, x8 is the link ptr, x7 is a temp reg.
  RVTEST_SIGUPD(x21, x8, x7, x15, I_add_cg_cmp_rd_rs1_b15, I_add_cg_cmp_rd_rs1_b15_str)
    365c:	000aa383          	lw	x7,0(x21)
    3660:	00f38863          	beq	x7,x15,3670 <I_add_cg_cmp_rd_rs1_b15+0x18>
    3664:	6710046f          	jal	x8,44d4 <failedtest_x8_x7>
    3668:	00003658          	.word	0x00003658
    366c:	0000df04          	.word	0x0000df04
    3670:	004a8a93          	addi	x21,x21,4

# Testcase cmp_rd_rs1 (Test rd = rs1 = x16)
  RVTEST_TESTDATA_LOAD_INT(x25, x16) # load rs1: x16 = 0x65175ec0
    3674:	000ca803          	lw	x16,0(x25)
    3678:	004c8c93          	addi	x25,x25,4
  RVTEST_TESTDATA_LOAD_INT(x25, x29) # load rs2: x29 = 0x3bbb2c2b
    367c:	000cae83          	lw	x29,0(x25)
    3680:	004c8c93          	addi	x25,x25,4

00003684 <I_add_cg_cmp_rd_rs1_b16>:
I_add_cg_cmp_rd_rs1_b16:
  add x16, x16, x29 # perform operation
    3684:	01d80833          	add	x16,x16,x29
  # Check if x16 contains the expected result. x21 is the signature ptr, x8 is the link ptr, x7 is a temp reg.
  RVTEST_SIGUPD(x21, x8, x7, x16, I_add_cg_cmp_rd_rs1_b16, I_add_cg_cmp_rd_rs1_b16_str)
    3688:	000aa383          	lw	x7,0(x21)
    368c:	01038863          	beq	x7,x16,369c <I_add_cg_cmp_rd_rs1_b16+0x18>
    3690:	6450046f          	jal	x8,44d4 <failedtest_x8_x7>
    3694:	00003684          	.word	0x00003684
    3698:	0000df38          	.word	0x0000df38
    369c:	004a8a93          	addi	x21,x21,4

# Testcase cmp_rd_rs1 (Test rd = rs1 = x17)
  RVTEST_TESTDATA_LOAD_INT(x25, x17) # load rs1: x17 = 0xd44a85e2
    36a0:	000ca883          	lw	x17,0(x25)
    36a4:	004c8c93          	addi	x25,x25,4
  RVTEST_TESTDATA_LOAD_INT(x25, x10) # load rs2: x10 = 0x8a29a4e0
    36a8:	000ca503          	lw	x10,0(x25)
    36ac:	004c8c93          	addi	x25,x25,4

000036b0 <I_add_cg_cmp_rd_rs1_b17>:
I_add_cg_cmp_rd_rs1_b17:
  add x17, x17, x10 # perform operation
    36b0:	00a888b3          	add	x17,x17,x10
  # Check if x17 contains the expected result. x21 is the signature ptr, x8 is the link ptr, x7 is a temp reg.
  RVTEST_SIGUPD(x21, x8, x7, x17, I_add_cg_cmp_rd_rs1_b17, I_add_cg_cmp_rd_rs1_b17_str)
    36b4:	000aa383          	lw	x7,0(x21)
    36b8:	01138863          	beq	x7,x17,36c8 <I_add_cg_cmp_rd_rs1_b17+0x18>
    36bc:	6190046f          	jal	x8,44d4 <failedtest_x8_x7>
    36c0:	000036b0          	.word	0x000036b0
    36c4:	0000df6c          	.word	0x0000df6c
    36c8:	004a8a93          	addi	x21,x21,4

# Testcase cmp_rd_rs1 (Test rd = rs1 = x18)
  RVTEST_TESTDATA_LOAD_INT(x25, x18) # load rs1: x18 = 0x99c8cf97
    36cc:	000ca903          	lw	x18,0(x25)
    36d0:	004c8c93          	addi	x25,x25,4
  RVTEST_TESTDATA_LOAD_INT(x25, x27) # load rs2: x27 = 0xeb59aece
    36d4:	000cad83          	lw	x27,0(x25)
    36d8:	004c8c93          	addi	x25,x25,4

000036dc <I_add_cg_cmp_rd_rs1_b18>:
I_add_cg_cmp_rd_rs1_b18:
  add x18, x18, x27 # perform operation
    36dc:	01b90933          	add	x18,x18,x27
  # Check if x18 contains the expected result. x21 is the signature ptr, x8 is the link ptr, x7 is a temp reg.
  RVTEST_SIGUPD(x21, x8, x7, x18, I_add_cg_cmp_rd_rs1_b18, I_add_cg_cmp_rd_rs1_b18_str)
    36e0:	000aa383          	lw	x7,0(x21)
    36e4:	01238863          	beq	x7,x18,36f4 <I_add_cg_cmp_rd_rs1_b18+0x18>
    36e8:	5ed0046f          	jal	x8,44d4 <failedtest_x8_x7>
    36ec:	000036dc          	.word	0x000036dc
    36f0:	0000dfa0          	.word	0x0000dfa0
    36f4:	004a8a93          	addi	x21,x21,4

# Testcase cmp_rd_rs1 (Test rd = rs1 = x19)
  RVTEST_TESTDATA_LOAD_INT(x25, x19) # load rs1: x19 = 0x338ec7c4
    36f8:	000ca983          	lw	x19,0(x25)
    36fc:	004c8c93          	addi	x25,x25,4
  RVTEST_TESTDATA_LOAD_INT(x25, x23) # load rs2: x23 = 0x0310f2fa
    3700:	000cab83          	lw	x23,0(x25)
    3704:	004c8c93          	addi	x25,x25,4

00003708 <I_add_cg_cmp_rd_rs1_b19>:
I_add_cg_cmp_rd_rs1_b19:
  add x19, x19, x23 # perform operation
    3708:	017989b3          	add	x19,x19,x23
  # Check if x19 contains the expected result. x21 is the signature ptr, x8 is the link ptr, x7 is a temp reg.
  RVTEST_SIGUPD(x21, x8, x7, x19, I_add_cg_cmp_rd_rs1_b19, I_add_cg_cmp_rd_rs1_b19_str)
    370c:	000aa383          	lw	x7,0(x21)
    3710:	01338863          	beq	x7,x19,3720 <I_add_cg_cmp_rd_rs1_b19+0x18>
    3714:	5c10046f          	jal	x8,44d4 <failedtest_x8_x7>
    3718:	00003708          	.word	0x00003708
    371c:	0000dfd4          	.word	0x0000dfd4
    3720:	004a8a93          	addi	x21,x21,4

# Testcase cmp_rd_rs1 (Test rd = rs1 = x20)
  RVTEST_TESTDATA_LOAD_INT(x25, x20) # load rs1: x20 = 0x5096c87a
    3724:	000caa03          	lw	x20,0(x25)
    3728:	004c8c93          	addi	x25,x25,4
  RVTEST_TESTDATA_LOAD_INT(x25, x28) # load rs2: x28 = 0xb7d495d9
    372c:	000cae03          	lw	x28,0(x25)
    3730:	004c8c93          	addi	x25,x25,4

00003734 <I_add_cg_cmp_rd_rs1_b20>:
I_add_cg_cmp_rd_rs1_b20:
  add x20, x20, x28 # perform operation
    3734:	01ca0a33          	add	x20,x20,x28
  # Check if x20 contains the expected result. x21 is the signature ptr, x8 is the link ptr, x7 is a temp reg.
  RVTEST_SIGUPD(x21, x8, x7, x20, I_add_cg_cmp_rd_rs1_b20, I_add_cg_cmp_rd_rs1_b20_str)
    3738:	000aa383          	lw	x7,0(x21)
    373c:	01438863          	beq	x7,x20,374c <I_add_cg_cmp_rd_rs1_b20+0x18>
    3740:	5950046f          	jal	x8,44d4 <failedtest_x8_x7>
    3744:	00003734          	.word	0x00003734
    3748:	0000e008          	.word	0x0000e008
    374c:	004a8a93          	addi	x21,x21,4

  mv x20, x21 # switch signature pointer register to avoid conflict with test
    3750:	000a8a13          	addi	x20,x21,0
# Testcase cmp_rd_rs1 (Test rd = rs1 = x21)
  RVTEST_TESTDATA_LOAD_INT(x25, x21) # load rs1: x21 = 0xff45877f
    3754:	000caa83          	lw	x21,0(x25)
    3758:	004c8c93          	addi	x25,x25,4
  RVTEST_TESTDATA_LOAD_INT(x25, x15) # load rs2: x15 = 0x25c0fe14
    375c:	000ca783          	lw	x15,0(x25)
    3760:	004c8c93          	addi	x25,x25,4

00003764 <I_add_cg_cmp_rd_rs1_b21>:
I_add_cg_cmp_rd_rs1_b21:
  add x21, x21, x15 # perform operation
    3764:	00fa8ab3          	add	x21,x21,x15
  # Check if x21 contains the expected result. x20 is the signature ptr, x8 is the link ptr, x7 is a temp reg.
  RVTEST_SIGUPD(x20, x8, x7, x21, I_add_cg_cmp_rd_rs1_b21, I_add_cg_cmp_rd_rs1_b21_str)
    3768:	000a2383          	lw	x7,0(x20)
    376c:	01538863          	beq	x7,x21,377c <I_add_cg_cmp_rd_rs1_b21+0x18>
    3770:	5650046f          	jal	x8,44d4 <failedtest_x8_x7>
    3774:	00003764          	.word	0x00003764
    3778:	0000e03c          	.word	0x0000e03c
    377c:	004a0a13          	addi	x20,x20,4

# Testcase cmp_rd_rs1 (Test rd = rs1 = x22)
  RVTEST_TESTDATA_LOAD_INT(x25, x22) # load rs1: x22 = 0xda6a65d8
    3780:	000cab03          	lw	x22,0(x25)
    3784:	004c8c93          	addi	x25,x25,4
  RVTEST_TESTDATA_LOAD_INT(x25, x6) # load rs2: x6 = 0x8d4de868
    3788:	000ca303          	lw	x6,0(x25)
    378c:	004c8c93          	addi	x25,x25,4

00003790 <I_add_cg_cmp_rd_rs1_b22>:
I_add_cg_cmp_rd_rs1_b22:
  add x22, x22, x6 # perform operation
    3790:	006b0b33          	add	x22,x22,x6
  # Check if x22 contains the expected result. x20 is the signature ptr, x8 is the link ptr, x7 is a temp reg.
  RVTEST_SIGUPD(x20, x8, x7, x22, I_add_cg_cmp_rd_rs1_b22, I_add_cg_cmp_rd_rs1_b22_str)
    3794:	000a2383          	lw	x7,0(x20)
    3798:	01638863          	beq	x7,x22,37a8 <I_add_cg_cmp_rd_rs1_b22+0x18>
    379c:	5390046f          	jal	x8,44d4 <failedtest_x8_x7>
    37a0:	00003790          	.word	0x00003790
    37a4:	0000e070          	.word	0x0000e070
    37a8:	004a0a13          	addi	x20,x20,4

# Testcase cmp_rd_rs1 (Test rd = rs1 = x23)
  RVTEST_TESTDATA_LOAD_INT(x25, x23) # load rs1: x23 = 0x8f2263d8
    37ac:	000cab83          	lw	x23,0(x25)
    37b0:	004c8c93          	addi	x25,x25,4
  RVTEST_TESTDATA_LOAD_INT(x25, x28) # load rs2: x28 = 0x7370dd1a
    37b4:	000cae03          	lw	x28,0(x25)
    37b8:	004c8c93          	addi	x25,x25,4

000037bc <I_add_cg_cmp_rd_rs1_b23>:
I_add_cg_cmp_rd_rs1_b23:
  add x23, x23, x28 # perform operation
    37bc:	01cb8bb3          	add	x23,x23,x28
  # Check if x23 contains the expected result. x20 is the signature ptr, x8 is the link ptr, x7 is a temp reg.
  RVTEST_SIGUPD(x20, x8, x7, x23, I_add_cg_cmp_rd_rs1_b23, I_add_cg_cmp_rd_rs1_b23_str)
    37c0:	000a2383          	lw	x7,0(x20)
    37c4:	01738863          	beq	x7,x23,37d4 <I_add_cg_cmp_rd_rs1_b23+0x18>
    37c8:	50d0046f          	jal	x8,44d4 <failedtest_x8_x7>
    37cc:	000037bc          	.word	0x000037bc
    37d0:	0000e0a4          	.word	0x0000e0a4
    37d4:	004a0a13          	addi	x20,x20,4

# Testcase cmp_rd_rs1 (Test rd = rs1 = x24)
  RVTEST_TESTDATA_LOAD_INT(x25, x24) # load rs1: x24 = 0x05df0d07
    37d8:	000cac03          	lw	x24,0(x25)
    37dc:	004c8c93          	addi	x25,x25,4
  RVTEST_TESTDATA_LOAD_INT(x25, x27) # load rs2: x27 = 0x8cf3785a
    37e0:	000cad83          	lw	x27,0(x25)
    37e4:	004c8c93          	addi	x25,x25,4

000037e8 <I_add_cg_cmp_rd_rs1_b24>:
I_add_cg_cmp_rd_rs1_b24:
  add x24, x24, x27 # perform operation
    37e8:	01bc0c33          	add	x24,x24,x27
  # Check if x24 contains the expected result. x20 is the signature ptr, x8 is the link ptr, x7 is a temp reg.
  RVTEST_SIGUPD(x20, x8, x7, x24, I_add_cg_cmp_rd_rs1_b24, I_add_cg_cmp_rd_rs1_b24_str)
    37ec:	000a2383          	lw	x7,0(x20)
    37f0:	01838863          	beq	x7,x24,3800 <I_add_cg_cmp_rd_rs1_b24+0x18>
    37f4:	4e10046f          	jal	x8,44d4 <failedtest_x8_x7>
    37f8:	000037e8          	.word	0x000037e8
    37fc:	0000e0d8          	.word	0x0000e0d8
    3800:	004a0a13          	addi	x20,x20,4

  mv x9, x25 # switch data pointer register to avoid conflict with test
    3804:	000c8493          	addi	x9,x25,0
# Testcase cmp_rd_rs1 (Test rd = rs1 = x25)
  RVTEST_TESTDATA_LOAD_INT(x9, x25) # load rs1: x25 = 0x95a30b12
    3808:	0004ac83          	lw	x25,0(x9)
    380c:	00448493          	addi	x9,x9,4
  RVTEST_TESTDATA_LOAD_INT(x9, x0) # load rs2: x0 = 0xcbb3e49c
    3810:	0004a003          	lw	x0,0(x9)
    3814:	00448493          	addi	x9,x9,4

00003818 <I_add_cg_cmp_rd_rs1_b25>:
I_add_cg_cmp_rd_rs1_b25:
  add x25, x25, x0 # perform operation
    3818:	000c8cb3          	add	x25,x25,x0
  # Check if x25 contains the expected result. x20 is the signature ptr, x8 is the link ptr, x7 is a temp reg.
  RVTEST_SIGUPD(x20, x8, x7, x25, I_add_cg_cmp_rd_rs1_b25, I_add_cg_cmp_rd_rs1_b25_str)
    381c:	000a2383          	lw	x7,0(x20)
    3820:	01938863          	beq	x7,x25,3830 <I_add_cg_cmp_rd_rs1_b25+0x18>
    3824:	4b10046f          	jal	x8,44d4 <failedtest_x8_x7>
    3828:	00003818          	.word	0x00003818
    382c:	0000e10c          	.word	0x0000e10c
    3830:	004a0a13          	addi	x20,x20,4

# Testcase cmp_rd_rs1 (Test rd = rs1 = x26)
  RVTEST_TESTDATA_LOAD_INT(x9, x26) # load rs1: x26 = 0x38b30e43
    3834:	0004ad03          	lw	x26,0(x9)
    3838:	00448493          	addi	x9,x9,4
  RVTEST_TESTDATA_LOAD_INT(x9, x4) # load rs2: x4 = 0xff4d76c5
    383c:	0004a203          	lw	x4,0(x9)
    3840:	00448493          	addi	x9,x9,4

00003844 <I_add_cg_cmp_rd_rs1_b26>:
I_add_cg_cmp_rd_rs1_b26:
  add x26, x26, x4 # perform operation
    3844:	004d0d33          	add	x26,x26,x4
  # Check if x26 contains the expected result. x20 is the signature ptr, x8 is the link ptr, x7 is a temp reg.
  RVTEST_SIGUPD(x20, x8, x7, x26, I_add_cg_cmp_rd_rs1_b26, I_add_cg_cmp_rd_rs1_b26_str)
    3848:	000a2383          	lw	x7,0(x20)
    384c:	01a38863          	beq	x7,x26,385c <I_add_cg_cmp_rd_rs1_b26+0x18>
    3850:	4850046f          	jal	x8,44d4 <failedtest_x8_x7>
    3854:	00003844          	.word	0x00003844
    3858:	0000e140          	.word	0x0000e140
    385c:	004a0a13          	addi	x20,x20,4

# Testcase cmp_rd_rs1 (Test rd = rs1 = x27)
  RVTEST_TESTDATA_LOAD_INT(x9, x27) # load rs1: x27 = 0x7f6630a3
    3860:	0004ad83          	lw	x27,0(x9)
    3864:	00448493          	addi	x9,x9,4
  RVTEST_TESTDATA_LOAD_INT(x9, x5) # load rs2: x5 = 0xa812ee41
    3868:	0004a283          	lw	x5,0(x9)
    386c:	00448493          	addi	x9,x9,4

00003870 <I_add_cg_cmp_rd_rs1_b27>:
I_add_cg_cmp_rd_rs1_b27:
  add x27, x27, x5 # perform operation
    3870:	005d8db3          	add	x27,x27,x5
  # Check if x27 contains the expected result. x20 is the signature ptr, x8 is the link ptr, x7 is a temp reg.
  RVTEST_SIGUPD(x20, x8, x7, x27, I_add_cg_cmp_rd_rs1_b27, I_add_cg_cmp_rd_rs1_b27_str)
    3874:	000a2383          	lw	x7,0(x20)
    3878:	01b38863          	beq	x7,x27,3888 <I_add_cg_cmp_rd_rs1_b27+0x18>
    387c:	4590046f          	jal	x8,44d4 <failedtest_x8_x7>
    3880:	00003870          	.word	0x00003870
    3884:	0000e174          	.word	0x0000e174
    3888:	004a0a13          	addi	x20,x20,4

# Testcase cmp_rd_rs1 (Test rd = rs1 = x28)
  RVTEST_TESTDATA_LOAD_INT(x9, x28) # load rs1: x28 = 0x9208bf2c
    388c:	0004ae03          	lw	x28,0(x9)
    3890:	00448493          	addi	x9,x9,4
  RVTEST_TESTDATA_LOAD_INT(x9, x29) # load rs2: x29 = 0xd9be163b
    3894:	0004ae83          	lw	x29,0(x9)
    3898:	00448493          	addi	x9,x9,4

0000389c <I_add_cg_cmp_rd_rs1_b28>:
I_add_cg_cmp_rd_rs1_b28:
  add x28, x28, x29 # perform operation
    389c:	01de0e33          	add	x28,x28,x29
  # Check if x28 contains the expected result. x20 is the signature ptr, x8 is the link ptr, x7 is a temp reg.
  RVTEST_SIGUPD(x20, x8, x7, x28, I_add_cg_cmp_rd_rs1_b28, I_add_cg_cmp_rd_rs1_b28_str)
    38a0:	000a2383          	lw	x7,0(x20)
    38a4:	01c38863          	beq	x7,x28,38b4 <I_add_cg_cmp_rd_rs1_b28+0x18>
    38a8:	42d0046f          	jal	x8,44d4 <failedtest_x8_x7>
    38ac:	0000389c          	.word	0x0000389c
    38b0:	0000e1a8          	.word	0x0000e1a8
    38b4:	004a0a13          	addi	x20,x20,4

# Testcase cmp_rd_rs1 (Test rd = rs1 = x29)
  RVTEST_TESTDATA_LOAD_INT(x9, x29) # load rs1: x29 = 0x8e9e4bba
    38b8:	0004ae83          	lw	x29,0(x9)
    38bc:	00448493          	addi	x9,x9,4
  RVTEST_TESTDATA_LOAD_INT(x9, x31) # load rs2: x31 = 0x34ccdb63
    38c0:	0004af83          	lw	x31,0(x9)
    38c4:	00448493          	addi	x9,x9,4

000038c8 <I_add_cg_cmp_rd_rs1_b29>:
I_add_cg_cmp_rd_rs1_b29:
  add x29, x29, x31 # perform operation
    38c8:	01fe8eb3          	add	x29,x29,x31
  # Check if x29 contains the expected result. x20 is the signature ptr, x8 is the link ptr, x7 is a temp reg.
  RVTEST_SIGUPD(x20, x8, x7, x29, I_add_cg_cmp_rd_rs1_b29, I_add_cg_cmp_rd_rs1_b29_str)
    38cc:	000a2383          	lw	x7,0(x20)
    38d0:	01d38863          	beq	x7,x29,38e0 <I_add_cg_cmp_rd_rs1_b29+0x18>
    38d4:	4010046f          	jal	x8,44d4 <failedtest_x8_x7>
    38d8:	000038c8          	.word	0x000038c8
    38dc:	0000e1dc          	.word	0x0000e1dc
    38e0:	004a0a13          	addi	x20,x20,4

# Testcase cmp_rd_rs1 (Test rd = rs1 = x30)
  RVTEST_TESTDATA_LOAD_INT(x9, x30) # load rs1: x30 = 0xa6b63fea
    38e4:	0004af03          	lw	x30,0(x9)
    38e8:	00448493          	addi	x9,x9,4
  RVTEST_TESTDATA_LOAD_INT(x9, x31) # load rs2: x31 = 0xf3844b43
    38ec:	0004af83          	lw	x31,0(x9)
    38f0:	00448493          	addi	x9,x9,4

000038f4 <I_add_cg_cmp_rd_rs1_b30>:
I_add_cg_cmp_rd_rs1_b30:
  add x30, x30, x31 # perform operation
    38f4:	01ff0f33          	add	x30,x30,x31
  # Check if x30 contains the expected result. x20 is the signature ptr, x8 is the link ptr, x7 is a temp reg.
  RVTEST_SIGUPD(x20, x8, x7, x30, I_add_cg_cmp_rd_rs1_b30, I_add_cg_cmp_rd_rs1_b30_str)
    38f8:	000a2383          	lw	x7,0(x20)
    38fc:	01e38863          	beq	x7,x30,390c <I_add_cg_cmp_rd_rs1_b30+0x18>
    3900:	3d50046f          	jal	x8,44d4 <failedtest_x8_x7>
    3904:	000038f4          	.word	0x000038f4
    3908:	0000e210          	.word	0x0000e210
    390c:	004a0a13          	addi	x20,x20,4

# Testcase cmp_rd_rs1 (Test rd = rs1 = x31)
  RVTEST_TESTDATA_LOAD_INT(x9, x31) # load rs1: x31 = 0xa7abde18
    3910:	0004af83          	lw	x31,0(x9)
    3914:	00448493          	addi	x9,x9,4
  RVTEST_TESTDATA_LOAD_INT(x9, x6) # load rs2: x6 = 0x1f4dc0bc
    3918:	0004a303          	lw	x6,0(x9)
    391c:	00448493          	addi	x9,x9,4

00003920 <I_add_cg_cmp_rd_rs1_b31>:
I_add_cg_cmp_rd_rs1_b31:
  add x31, x31, x6 # perform operation
    3920:	006f8fb3          	add	x31,x31,x6
  # Check if x31 contains the expected result. x20 is the signature ptr, x8 is the link ptr, x7 is a temp reg.
  RVTEST_SIGUPD(x20, x8, x7, x31, I_add_cg_cmp_rd_rs1_b31, I_add_cg_cmp_rd_rs1_b31_str)
    3924:	000a2383          	lw	x7,0(x20)
    3928:	01f38863          	beq	x7,x31,3938 <I_add_cg_cmp_rd_rs1_b31+0x18>
    392c:	3a90046f          	jal	x8,44d4 <failedtest_x8_x7>
    3930:	00003920          	.word	0x00003920
    3934:	0000e244          	.word	0x0000e244
    3938:	004a0a13          	addi	x20,x20,4
/////////////////////////////////
// cmp_rd_rs2
/////////////////////////////////

# Testcase cmp_rd_rs2 (Test rd = rs2 = x0)
  RVTEST_TESTDATA_LOAD_INT(x9, x15) # load rs1: x15 = 0x11c38f06
    393c:	0004a783          	lw	x15,0(x9)
    3940:	00448493          	addi	x9,x9,4
  RVTEST_TESTDATA_LOAD_INT(x9, x0) # load rs2: x0 = 0x6cadc7ef
    3944:	0004a003          	lw	x0,0(x9)
    3948:	00448493          	addi	x9,x9,4

0000394c <I_add_cg_cmp_rd_rs2_b0>:
I_add_cg_cmp_rd_rs2_b0:
  add x0, x15, x0 # perform operation
    394c:	00078033          	add	x0,x15,x0
  # Check if x0 contains the expected result. x20 is the signature ptr, x8 is the link ptr, x7 is a temp reg.
  RVTEST_SIGUPD(x20, x8, x7, x0, I_add_cg_cmp_rd_rs2_b0, I_add_cg_cmp_rd_rs2_b0_str)
    3950:	000a2383          	lw	x7,0(x20)
    3954:	00038863          	beq	x7,x0,3964 <I_add_cg_cmp_rd_rs2_b0+0x18>
    3958:	37d0046f          	jal	x8,44d4 <failedtest_x8_x7>
    395c:	0000394c          	.word	0x0000394c
    3960:	0000e278          	.word	0x0000e278
    3964:	004a0a13          	addi	x20,x20,4

# Testcase cmp_rd_rs2 (Test rd = rs2 = x1)
  RVTEST_TESTDATA_LOAD_INT(x9, x26) # load rs1: x26 = 0xd5775b36
    3968:	0004ad03          	lw	x26,0(x9)
    396c:	00448493          	addi	x9,x9,4
  RVTEST_TESTDATA_LOAD_INT(x9, x1) # load rs2: x1 = 0x9616bc4e
    3970:	0004a083          	lw	x1,0(x9)
    3974:	00448493          	addi	x9,x9,4

00003978 <I_add_cg_cmp_rd_rs2_b1>:
I_add_cg_cmp_rd_rs2_b1:
  add x1, x26, x1 # perform operation
    3978:	001d00b3          	add	x1,x26,x1
  # Check if x1 contains the expected result. x20 is the signature ptr, x8 is the link ptr, x7 is a temp reg.
  RVTEST_SIGUPD(x20, x8, x7, x1, I_add_cg_cmp_rd_rs2_b1, I_add_cg_cmp_rd_rs2_b1_str)
    397c:	000a2383          	lw	x7,0(x20)
    3980:	00138863          	beq	x7,x1,3990 <I_add_cg_cmp_rd_rs2_b1+0x18>
    3984:	3510046f          	jal	x8,44d4 <failedtest_x8_x7>
    3988:	00003978          	.word	0x00003978
    398c:	0000e2ab          	.word	0x0000e2ab
    3990:	004a0a13          	addi	x20,x20,4

# Testcase cmp_rd_rs2 (Test rd = rs2 = x2)
  RVTEST_TESTDATA_LOAD_INT(x9, x21) # load rs1: x21 = 0x445dd5d6
    3994:	0004aa83          	lw	x21,0(x9)
    3998:	00448493          	addi	x9,x9,4
  RVTEST_TESTDATA_LOAD_INT(x9, x2) # load rs2: x2 = 0xe4375136
    399c:	0004a103          	lw	x2,0(x9)
    39a0:	00448493          	addi	x9,x9,4

000039a4 <I_add_cg_cmp_rd_rs2_b2>:
I_add_cg_cmp_rd_rs2_b2:
  add x2, x21, x2 # perform operation
    39a4:	002a8133          	add	x2,x21,x2
  # Check if x2 contains the expected result. x20 is the signature ptr, x8 is the link ptr, x7 is a temp reg.
  RVTEST_SIGUPD(x20, x8, x7, x2, I_add_cg_cmp_rd_rs2_b2, I_add_cg_cmp_rd_rs2_b2_str)
    39a8:	000a2383          	lw	x7,0(x20)
    39ac:	00238863          	beq	x7,x2,39bc <I_add_cg_cmp_rd_rs2_b2+0x18>
    39b0:	3250046f          	jal	x8,44d4 <failedtest_x8_x7>
    39b4:	000039a4          	.word	0x000039a4
    39b8:	0000e2de          	.word	0x0000e2de
    39bc:	004a0a13          	addi	x20,x20,4

# Testcase cmp_rd_rs2 (Test rd = rs2 = x3)
  RVTEST_TESTDATA_LOAD_INT(x9, x10) # load rs1: x10 = 0x74d90a87
    39c0:	0004a503          	lw	x10,0(x9)
    39c4:	00448493          	addi	x9,x9,4
  RVTEST_TESTDATA_LOAD_INT(x9, x3) # load rs2: x3 = 0xc19c6366
    39c8:	0004a183          	lw	x3,0(x9)
    39cc:	00448493          	addi	x9,x9,4

000039d0 <I_add_cg_cmp_rd_rs2_b3>:
I_add_cg_cmp_rd_rs2_b3:
  add x3, x10, x3 # perform operation
    39d0:	003501b3          	add	x3,x10,x3
  # Check if x3 contains the expected result. x20 is the signature ptr, x8 is the link ptr, x7 is a temp reg.
  RVTEST_SIGUPD(x20, x8, x7, x3, I_add_cg_cmp_rd_rs2_b3, I_add_cg_cmp_rd_rs2_b3_str)
    39d4:	000a2383          	lw	x7,0(x20)
    39d8:	00338863          	beq	x7,x3,39e8 <I_add_cg_cmp_rd_rs2_b3+0x18>
    39dc:	2f90046f          	jal	x8,44d4 <failedtest_x8_x7>
    39e0:	000039d0          	.word	0x000039d0
    39e4:	0000e311          	.word	0x0000e311
    39e8:	004a0a13          	addi	x20,x20,4

# Testcase cmp_rd_rs2 (Test rd = rs2 = x4)
  RVTEST_TESTDATA_LOAD_INT(x9, x0) # load rs1: x0 = 0xabb2c353
    39ec:	0004a003          	lw	x0,0(x9)
    39f0:	00448493          	addi	x9,x9,4
  RVTEST_TESTDATA_LOAD_INT(x9, x4) # load rs2: x4 = 0x5a19c166
    39f4:	0004a203          	lw	x4,0(x9)
    39f8:	00448493          	addi	x9,x9,4

000039fc <I_add_cg_cmp_rd_rs2_b4>:
I_add_cg_cmp_rd_rs2_b4:
  add x4, x0, x4 # perform operation
    39fc:	00400233          	add	x4,x0,x4
  # Check if x4 contains the expected result. x20 is the signature ptr, x8 is the link ptr, x7 is a temp reg.
  RVTEST_SIGUPD(x20, x8, x7, x4, I_add_cg_cmp_rd_rs2_b4, I_add_cg_cmp_rd_rs2_b4_str)
    3a00:	000a2383          	lw	x7,0(x20)
    3a04:	00438863          	beq	x7,x4,3a14 <I_add_cg_cmp_rd_rs2_b4+0x18>
    3a08:	2cd0046f          	jal	x8,44d4 <failedtest_x8_x7>
    3a0c:	000039fc          	.word	0x000039fc
    3a10:	0000e344          	.word	0x0000e344
    3a14:	004a0a13          	addi	x20,x20,4

# Testcase cmp_rd_rs2 (Test rd = rs2 = x5)
  RVTEST_TESTDATA_LOAD_INT(x9, x19) # load rs1: x19 = 0xf0b59163
    3a18:	0004a983          	lw	x19,0(x9)
    3a1c:	00448493          	addi	x9,x9,4
  RVTEST_TESTDATA_LOAD_INT(x9, x5) # load rs2: x5 = 0x1b379fa6
    3a20:	0004a283          	lw	x5,0(x9)
    3a24:	00448493          	addi	x9,x9,4

00003a28 <I_add_cg_cmp_rd_rs2_b5>:
I_add_cg_cmp_rd_rs2_b5:
  add x5, x19, x5 # perform operation
    3a28:	005982b3          	add	x5,x19,x5
  # Check if x5 contains the expected result. x20 is the signature ptr, x8 is the link ptr, x7 is a temp reg.
  RVTEST_SIGUPD(x20, x8, x7, x5, I_add_cg_cmp_rd_rs2_b5, I_add_cg_cmp_rd_rs2_b5_str)
    3a2c:	000a2383          	lw	x7,0(x20)
    3a30:	00538863          	beq	x7,x5,3a40 <I_add_cg_cmp_rd_rs2_b5+0x18>
    3a34:	2a10046f          	jal	x8,44d4 <failedtest_x8_x7>
    3a38:	00003a28          	.word	0x00003a28
    3a3c:	0000e377          	.word	0x0000e377
    3a40:	004a0a13          	addi	x20,x20,4

# Testcase cmp_rd_rs2 (Test rd = rs2 = x6)
  RVTEST_TESTDATA_LOAD_INT(x9, x4) # load rs1: x4 = 0x08fd4b09
    3a44:	0004a203          	lw	x4,0(x9)
    3a48:	00448493          	addi	x9,x9,4
  RVTEST_TESTDATA_LOAD_INT(x9, x6) # load rs2: x6 = 0x07a9dbc3
    3a4c:	0004a303          	lw	x6,0(x9)
    3a50:	00448493          	addi	x9,x9,4

00003a54 <I_add_cg_cmp_rd_rs2_b6>:
I_add_cg_cmp_rd_rs2_b6:
  add x6, x4, x6 # perform operation
    3a54:	00620333          	add	x6,x4,x6
  # Check if x6 contains the expected result. x20 is the signature ptr, x8 is the link ptr, x7 is a temp reg.
  RVTEST_SIGUPD(x20, x8, x7, x6, I_add_cg_cmp_rd_rs2_b6, I_add_cg_cmp_rd_rs2_b6_str)
    3a58:	000a2383          	lw	x7,0(x20)
    3a5c:	00638863          	beq	x7,x6,3a6c <I_add_cg_cmp_rd_rs2_b6+0x18>
    3a60:	2750046f          	jal	x8,44d4 <failedtest_x8_x7>
    3a64:	00003a54          	.word	0x00003a54
    3a68:	0000e3aa          	.word	0x0000e3aa
    3a6c:	004a0a13          	addi	x20,x20,4

  mv x13, x7 # switch temp register to avoid conflict with test
    3a70:	00038693          	addi	x13,x7,0
  mv x14, x8 # switch link pointer register to avoid conflict with test
    3a74:	00040713          	addi	x14,x8,0
# Testcase cmp_rd_rs2 (Test rd = rs2 = x7)
  RVTEST_TESTDATA_LOAD_INT(x9, x23) # load rs1: x23 = 0x41df21e3
    3a78:	0004ab83          	lw	x23,0(x9)
    3a7c:	00448493          	addi	x9,x9,4
  RVTEST_TESTDATA_LOAD_INT(x9, x7) # load rs2: x7 = 0x7185dde1
    3a80:	0004a383          	lw	x7,0(x9)
    3a84:	00448493          	addi	x9,x9,4

00003a88 <I_add_cg_cmp_rd_rs2_b7>:
I_add_cg_cmp_rd_rs2_b7:
  add x7, x23, x7 # perform operation
    3a88:	007b83b3          	add	x7,x23,x7
  # Check if x7 contains the expected result. x20 is the signature ptr, x14 is the link ptr, x13 is a temp reg.
  RVTEST_SIGUPD(x20, x14, x13, x7, I_add_cg_cmp_rd_rs2_b7, I_add_cg_cmp_rd_rs2_b7_str)
    3a8c:	000a2683          	lw	x13,0(x20)
    3a90:	00768863          	beq	x13,x7,3aa0 <I_add_cg_cmp_rd_rs2_b7+0x18>
    3a94:	2690076f          	jal	x14,44fc <failedtest_x14_x13>
    3a98:	00003a88          	.word	0x00003a88
    3a9c:	0000e3dd          	.word	0x0000e3dd
    3aa0:	004a0a13          	addi	x20,x20,4

# Testcase cmp_rd_rs2 (Test rd = rs2 = x8)
  RVTEST_TESTDATA_LOAD_INT(x9, x7) # load rs1: x7 = 0xc813c759
    3aa4:	0004a383          	lw	x7,0(x9)
    3aa8:	00448493          	addi	x9,x9,4
  RVTEST_TESTDATA_LOAD_INT(x9, x8) # load rs2: x8 = 0x93559ff4
    3aac:	0004a403          	lw	x8,0(x9)
    3ab0:	00448493          	addi	x9,x9,4

00003ab4 <I_add_cg_cmp_rd_rs2_b8>:
I_add_cg_cmp_rd_rs2_b8:
  add x8, x7, x8 # perform operation
    3ab4:	00838433          	add	x8,x7,x8
  # Check if x8 contains the expected result. x20 is the signature ptr, x14 is the link ptr, x13 is a temp reg.
  RVTEST_SIGUPD(x20, x14, x13, x8, I_add_cg_cmp_rd_rs2_b8, I_add_cg_cmp_rd_rs2_b8_str)
    3ab8:	000a2683          	lw	x13,0(x20)
    3abc:	00868863          	beq	x13,x8,3acc <I_add_cg_cmp_rd_rs2_b8+0x18>
    3ac0:	23d0076f          	jal	x14,44fc <failedtest_x14_x13>
    3ac4:	00003ab4          	.word	0x00003ab4
    3ac8:	0000e410          	.word	0x0000e410
    3acc:	004a0a13          	addi	x20,x20,4

  mv x28, x9 # switch data pointer register to avoid conflict with test
    3ad0:	00048e13          	addi	x28,x9,0
# Testcase cmp_rd_rs2 (Test rd = rs2 = x9)
  RVTEST_TESTDATA_LOAD_INT(x28, x10) # load rs1: x10 = 0xdd91a4d6
    3ad4:	000e2503          	lw	x10,0(x28)
    3ad8:	004e0e13          	addi	x28,x28,4
  RVTEST_TESTDATA_LOAD_INT(x28, x9) # load rs2: x9 = 0x73b79244
    3adc:	000e2483          	lw	x9,0(x28)
    3ae0:	004e0e13          	addi	x28,x28,4

00003ae4 <I_add_cg_cmp_rd_rs2_b9>:
I_add_cg_cmp_rd_rs2_b9:
  add x9, x10, x9 # perform operation
    3ae4:	009504b3          	add	x9,x10,x9
  # Check if x9 contains the expected result. x20 is the signature ptr, x14 is the link ptr, x13 is a temp reg.
  RVTEST_SIGUPD(x20, x14, x13, x9, I_add_cg_cmp_rd_rs2_b9, I_add_cg_cmp_rd_rs2_b9_str)
    3ae8:	000a2683          	lw	x13,0(x20)
    3aec:	00968863          	beq	x13,x9,3afc <I_add_cg_cmp_rd_rs2_b9+0x18>
    3af0:	20d0076f          	jal	x14,44fc <failedtest_x14_x13>
    3af4:	00003ae4          	.word	0x00003ae4
    3af8:	0000e443          	.word	0x0000e443
    3afc:	004a0a13          	addi	x20,x20,4

# Testcase cmp_rd_rs2 (Test rd = rs2 = x10)
  RVTEST_TESTDATA_LOAD_INT(x28, x9) # load rs1: x9 = 0xf2239287
    3b00:	000e2483          	lw	x9,0(x28)
    3b04:	004e0e13          	addi	x28,x28,4
  RVTEST_TESTDATA_LOAD_INT(x28, x10) # load rs2: x10 = 0x853fd25e
    3b08:	000e2503          	lw	x10,0(x28)
    3b0c:	004e0e13          	addi	x28,x28,4

00003b10 <I_add_cg_cmp_rd_rs2_b10>:
I_add_cg_cmp_rd_rs2_b10:
  add x10, x9, x10 # perform operation
    3b10:	00a48533          	add	x10,x9,x10
  # Check if x10 contains the expected result. x20 is the signature ptr, x14 is the link ptr, x13 is a temp reg.
  RVTEST_SIGUPD(x20, x14, x13, x10, I_add_cg_cmp_rd_rs2_b10, I_add_cg_cmp_rd_rs2_b10_str)
    3b14:	000a2683          	lw	x13,0(x20)
    3b18:	00a68863          	beq	x13,x10,3b28 <I_add_cg_cmp_rd_rs2_b10+0x18>
    3b1c:	1e10076f          	jal	x14,44fc <failedtest_x14_x13>
    3b20:	00003b10          	.word	0x00003b10
    3b24:	0000e476          	.word	0x0000e476
    3b28:	004a0a13          	addi	x20,x20,4

# Testcase cmp_rd_rs2 (Test rd = rs2 = x11)
  RVTEST_TESTDATA_LOAD_INT(x28, x27) # load rs1: x27 = 0x186aa668
    3b2c:	000e2d83          	lw	x27,0(x28)
    3b30:	004e0e13          	addi	x28,x28,4
  RVTEST_TESTDATA_LOAD_INT(x28, x11) # load rs2: x11 = 0x5d64803c
    3b34:	000e2583          	lw	x11,0(x28)
    3b38:	004e0e13          	addi	x28,x28,4

00003b3c <I_add_cg_cmp_rd_rs2_b11>:
I_add_cg_cmp_rd_rs2_b11:
  add x11, x27, x11 # perform operation
    3b3c:	00bd85b3          	add	x11,x27,x11
  # Check if x11 contains the expected result. x20 is the signature ptr, x14 is the link ptr, x13 is a temp reg.
  RVTEST_SIGUPD(x20, x14, x13, x11, I_add_cg_cmp_rd_rs2_b11, I_add_cg_cmp_rd_rs2_b11_str)
    3b40:	000a2683          	lw	x13,0(x20)
    3b44:	00b68863          	beq	x13,x11,3b54 <I_add_cg_cmp_rd_rs2_b11+0x18>
    3b48:	1b50076f          	jal	x14,44fc <failedtest_x14_x13>
    3b4c:	00003b3c          	.word	0x00003b3c
    3b50:	0000e4aa          	.word	0x0000e4aa
    3b54:	004a0a13          	addi	x20,x20,4

# Testcase cmp_rd_rs2 (Test rd = rs2 = x12)
  RVTEST_TESTDATA_LOAD_INT(x28, x2) # load rs1: x2 = 0x49c42e8a
    3b58:	000e2103          	lw	x2,0(x28)
    3b5c:	004e0e13          	addi	x28,x28,4
  RVTEST_TESTDATA_LOAD_INT(x28, x12) # load rs2: x12 = 0xcb1b613c
    3b60:	000e2603          	lw	x12,0(x28)
    3b64:	004e0e13          	addi	x28,x28,4

00003b68 <I_add_cg_cmp_rd_rs2_b12>:
I_add_cg_cmp_rd_rs2_b12:
  add x12, x2, x12 # perform operation
    3b68:	00c10633          	add	x12,x2,x12
  # Check if x12 contains the expected result. x20 is the signature ptr, x14 is the link ptr, x13 is a temp reg.
  RVTEST_SIGUPD(x20, x14, x13, x12, I_add_cg_cmp_rd_rs2_b12, I_add_cg_cmp_rd_rs2_b12_str)
    3b6c:	000a2683          	lw	x13,0(x20)
    3b70:	00c68863          	beq	x13,x12,3b80 <I_add_cg_cmp_rd_rs2_b12+0x18>
    3b74:	1890076f          	jal	x14,44fc <failedtest_x14_x13>
    3b78:	00003b68          	.word	0x00003b68
    3b7c:	0000e4de          	.word	0x0000e4de
    3b80:	004a0a13          	addi	x20,x20,4

  mv x4, x13 # switch temp register to avoid conflict with test
    3b84:	00068213          	addi	x4,x13,0
  mv x5, x14 # switch link pointer register to avoid conflict with test
    3b88:	00070293          	addi	x5,x14,0
# Testcase cmp_rd_rs2 (Test rd = rs2 = x13)
  RVTEST_TESTDATA_LOAD_INT(x28, x2) # load rs1: x2 = 0xe9d5edb8
    3b8c:	000e2103          	lw	x2,0(x28)
    3b90:	004e0e13          	addi	x28,x28,4
  RVTEST_TESTDATA_LOAD_INT(x28, x13) # load rs2: x13 = 0xa22c5472
    3b94:	000e2683          	lw	x13,0(x28)
    3b98:	004e0e13          	addi	x28,x28,4

00003b9c <I_add_cg_cmp_rd_rs2_b13>:
I_add_cg_cmp_rd_rs2_b13:
  add x13, x2, x13 # perform operation
    3b9c:	00d106b3          	add	x13,x2,x13
  # Check if x13 contains the expected result. x20 is the signature ptr, x5 is the link ptr, x4 is a temp reg.
  RVTEST_SIGUPD(x20, x5, x4, x13, I_add_cg_cmp_rd_rs2_b13, I_add_cg_cmp_rd_rs2_b13_str)
    3ba0:	000a2203          	lw	x4,0(x20)
    3ba4:	00d20863          	beq	x4,x13,3bb4 <I_add_cg_cmp_rd_rs2_b13+0x18>
    3ba8:	115002ef          	jal	x5,44bc <failedtest_x5_x4>
    3bac:	00003b9c          	.word	0x00003b9c
    3bb0:	0000e512          	.word	0x0000e512
    3bb4:	004a0a13          	addi	x20,x20,4

# Testcase cmp_rd_rs2 (Test rd = rs2 = x14)
  RVTEST_TESTDATA_LOAD_INT(x28, x17) # load rs1: x17 = 0x7dae30f7
    3bb8:	000e2883          	lw	x17,0(x28)
    3bbc:	004e0e13          	addi	x28,x28,4
  RVTEST_TESTDATA_LOAD_INT(x28, x14) # load rs2: x14 = 0xed7fac23
    3bc0:	000e2703          	lw	x14,0(x28)
    3bc4:	004e0e13          	addi	x28,x28,4

00003bc8 <I_add_cg_cmp_rd_rs2_b14>:
I_add_cg_cmp_rd_rs2_b14:
  add x14, x17, x14 # perform operation
    3bc8:	00e88733          	add	x14,x17,x14
  # Check if x14 contains the expected result. x20 is the signature ptr, x5 is the link ptr, x4 is a temp reg.
  RVTEST_SIGUPD(x20, x5, x4, x14, I_add_cg_cmp_rd_rs2_b14, I_add_cg_cmp_rd_rs2_b14_str)
    3bcc:	000a2203          	lw	x4,0(x20)
    3bd0:	00e20863          	beq	x4,x14,3be0 <I_add_cg_cmp_rd_rs2_b14+0x18>
    3bd4:	0e9002ef          	jal	x5,44bc <failedtest_x5_x4>
    3bd8:	00003bc8          	.word	0x00003bc8
    3bdc:	0000e546          	.word	0x0000e546
    3be0:	004a0a13          	addi	x20,x20,4

# Testcase cmp_rd_rs2 (Test rd = rs2 = x15)
  RVTEST_TESTDATA_LOAD_INT(x28, x11) # load rs1: x11 = 0x2cb3eb5a
    3be4:	000e2583          	lw	x11,0(x28)
    3be8:	004e0e13          	addi	x28,x28,4
  RVTEST_TESTDATA_LOAD_INT(x28, x15) # load rs2: x15 = 0xd6e5f23c
    3bec:	000e2783          	lw	x15,0(x28)
    3bf0:	004e0e13          	addi	x28,x28,4

00003bf4 <I_add_cg_cmp_rd_rs2_b15>:
I_add_cg_cmp_rd_rs2_b15:
  add x15, x11, x15 # perform operation
    3bf4:	00f587b3          	add	x15,x11,x15
  # Check if x15 contains the expected result. x20 is the signature ptr, x5 is the link ptr, x4 is a temp reg.
  RVTEST_SIGUPD(x20, x5, x4, x15, I_add_cg_cmp_rd_rs2_b15, I_add_cg_cmp_rd_rs2_b15_str)
    3bf8:	000a2203          	lw	x4,0(x20)
    3bfc:	00f20863          	beq	x4,x15,3c0c <I_add_cg_cmp_rd_rs2_b15+0x18>
    3c00:	0bd002ef          	jal	x5,44bc <failedtest_x5_x4>
    3c04:	00003bf4          	.word	0x00003bf4
    3c08:	0000e57a          	.word	0x0000e57a
    3c0c:	004a0a13          	addi	x20,x20,4

# Testcase cmp_rd_rs2 (Test rd = rs2 = x16)
  RVTEST_TESTDATA_LOAD_INT(x28, x2) # load rs1: x2 = 0x99feef16
    3c10:	000e2103          	lw	x2,0(x28)
    3c14:	004e0e13          	addi	x28,x28,4
  RVTEST_TESTDATA_LOAD_INT(x28, x16) # load rs2: x16 = 0x0d12258a
    3c18:	000e2803          	lw	x16,0(x28)
    3c1c:	004e0e13          	addi	x28,x28,4

00003c20 <I_add_cg_cmp_rd_rs2_b16>:
I_add_cg_cmp_rd_rs2_b16:
  add x16, x2, x16 # perform operation
    3c20:	01010833          	add	x16,x2,x16
  # Check if x16 contains the expected result. x20 is the signature ptr, x5 is the link ptr, x4 is a temp reg.
  RVTEST_SIGUPD(x20, x5, x4, x16, I_add_cg_cmp_rd_rs2_b16, I_add_cg_cmp_rd_rs2_b16_str)
    3c24:	000a2203          	lw	x4,0(x20)
    3c28:	01020863          	beq	x4,x16,3c38 <I_add_cg_cmp_rd_rs2_b16+0x18>
    3c2c:	091002ef          	jal	x5,44bc <failedtest_x5_x4>
    3c30:	00003c20          	.word	0x00003c20
    3c34:	0000e5ae          	.word	0x0000e5ae
    3c38:	004a0a13          	addi	x20,x20,4

# Testcase cmp_rd_rs2 (Test rd = rs2 = x17)
  RVTEST_TESTDATA_LOAD_INT(x28, x9) # load rs1: x9 = 0x8a064d5f
    3c3c:	000e2483          	lw	x9,0(x28)
    3c40:	004e0e13          	addi	x28,x28,4
  RVTEST_TESTDATA_LOAD_INT(x28, x17) # load rs2: x17 = 0x62afbf47
    3c44:	000e2883          	lw	x17,0(x28)
    3c48:	004e0e13          	addi	x28,x28,4

00003c4c <I_add_cg_cmp_rd_rs2_b17>:
I_add_cg_cmp_rd_rs2_b17:
  add x17, x9, x17 # perform operation
    3c4c:	011488b3          	add	x17,x9,x17
  # Check if x17 contains the expected result. x20 is the signature ptr, x5 is the link ptr, x4 is a temp reg.
  RVTEST_SIGUPD(x20, x5, x4, x17, I_add_cg_cmp_rd_rs2_b17, I_add_cg_cmp_rd_rs2_b17_str)
    3c50:	000a2203          	lw	x4,0(x20)
    3c54:	01120863          	beq	x4,x17,3c64 <I_add_cg_cmp_rd_rs2_b17+0x18>
    3c58:	065002ef          	jal	x5,44bc <failedtest_x5_x4>
    3c5c:	00003c4c          	.word	0x00003c4c
    3c60:	0000e5e2          	.word	0x0000e5e2
    3c64:	004a0a13          	addi	x20,x20,4

# Testcase cmp_rd_rs2 (Test rd = rs2 = x18)
  RVTEST_TESTDATA_LOAD_INT(x28, x13) # load rs1: x13 = 0xef35d077
    3c68:	000e2683          	lw	x13,0(x28)
    3c6c:	004e0e13          	addi	x28,x28,4
  RVTEST_TESTDATA_LOAD_INT(x28, x18) # load rs2: x18 = 0x08b49946
    3c70:	000e2903          	lw	x18,0(x28)
    3c74:	004e0e13          	addi	x28,x28,4

00003c78 <I_add_cg_cmp_rd_rs2_b18>:
I_add_cg_cmp_rd_rs2_b18:
  add x18, x13, x18 # perform operation
    3c78:	01268933          	add	x18,x13,x18
  # Check if x18 contains the expected result. x20 is the signature ptr, x5 is the link ptr, x4 is a temp reg.
  RVTEST_SIGUPD(x20, x5, x4, x18, I_add_cg_cmp_rd_rs2_b18, I_add_cg_cmp_rd_rs2_b18_str)
    3c7c:	000a2203          	lw	x4,0(x20)
    3c80:	01220863          	beq	x4,x18,3c90 <I_add_cg_cmp_rd_rs2_b18+0x18>
    3c84:	039002ef          	jal	x5,44bc <failedtest_x5_x4>
    3c88:	00003c78          	.word	0x00003c78
    3c8c:	0000e616          	.word	0x0000e616
    3c90:	004a0a13          	addi	x20,x20,4

# Testcase cmp_rd_rs2 (Test rd = rs2 = x19)
  RVTEST_TESTDATA_LOAD_INT(x28, x14) # load rs1: x14 = 0x801a2522
    3c94:	000e2703          	lw	x14,0(x28)
    3c98:	004e0e13          	addi	x28,x28,4
  RVTEST_TESTDATA_LOAD_INT(x28, x19) # load rs2: x19 = 0x67058c65
    3c9c:	000e2983          	lw	x19,0(x28)
    3ca0:	004e0e13          	addi	x28,x28,4

00003ca4 <I_add_cg_cmp_rd_rs2_b19>:
I_add_cg_cmp_rd_rs2_b19:
  add x19, x14, x19 # perform operation
    3ca4:	013709b3          	add	x19,x14,x19
  # Check if x19 contains the expected result. x20 is the signature ptr, x5 is the link ptr, x4 is a temp reg.
  RVTEST_SIGUPD(x20, x5, x4, x19, I_add_cg_cmp_rd_rs2_b19, I_add_cg_cmp_rd_rs2_b19_str)
    3ca8:	000a2203          	lw	x4,0(x20)
    3cac:	01320863          	beq	x4,x19,3cbc <I_add_cg_cmp_rd_rs2_b19+0x18>
    3cb0:	00d002ef          	jal	x5,44bc <failedtest_x5_x4>
    3cb4:	00003ca4          	.word	0x00003ca4
    3cb8:	0000e64a          	.word	0x0000e64a
    3cbc:	004a0a13          	addi	x20,x20,4

  mv x12, x20 # switch signature pointer register to avoid conflict with test
    3cc0:	000a0613          	addi	x12,x20,0
# Testcase cmp_rd_rs2 (Test rd = rs2 = x20)
  RVTEST_TESTDATA_LOAD_INT(x28, x3) # load rs1: x3 = 0xf79599c5
    3cc4:	000e2183          	lw	x3,0(x28)
    3cc8:	004e0e13          	addi	x28,x28,4
  RVTEST_TESTDATA_LOAD_INT(x28, x20) # load rs2: x20 = 0x48f7768d
    3ccc:	000e2a03          	lw	x20,0(x28)
    3cd0:	004e0e13          	addi	x28,x28,4

00003cd4 <I_add_cg_cmp_rd_rs2_b20>:
I_add_cg_cmp_rd_rs2_b20:
  add x20, x3, x20 # perform operation
    3cd4:	01418a33          	add	x20,x3,x20
  # Check if x20 contains the expected result. x12 is the signature ptr, x5 is the link ptr, x4 is a temp reg.
  RVTEST_SIGUPD(x12, x5, x4, x20, I_add_cg_cmp_rd_rs2_b20, I_add_cg_cmp_rd_rs2_b20_str)
    3cd8:	00062203          	lw	x4,0(x12)
    3cdc:	01420863          	beq	x4,x20,3cec <I_add_cg_cmp_rd_rs2_b20+0x18>
    3ce0:	7dc002ef          	jal	x5,44bc <failedtest_x5_x4>
    3ce4:	00003cd4          	.word	0x00003cd4
    3ce8:	0000e67e          	.word	0x0000e67e
    3cec:	00460613          	addi	x12,x12,4

# Testcase cmp_rd_rs2 (Test rd = rs2 = x21)
  RVTEST_TESTDATA_LOAD_INT(x28, x15) # load rs1: x15 = 0x3583ad40
    3cf0:	000e2783          	lw	x15,0(x28)
    3cf4:	004e0e13          	addi	x28,x28,4
  RVTEST_TESTDATA_LOAD_INT(x28, x21) # load rs2: x21 = 0x03700c3f
    3cf8:	000e2a83          	lw	x21,0(x28)
    3cfc:	004e0e13          	addi	x28,x28,4

00003d00 <I_add_cg_cmp_rd_rs2_b21>:
I_add_cg_cmp_rd_rs2_b21:
  add x21, x15, x21 # perform operation
    3d00:	01578ab3          	add	x21,x15,x21
  # Check if x21 contains the expected result. x12 is the signature ptr, x5 is the link ptr, x4 is a temp reg.
  RVTEST_SIGUPD(x12, x5, x4, x21, I_add_cg_cmp_rd_rs2_b21, I_add_cg_cmp_rd_rs2_b21_str)
    3d04:	00062203          	lw	x4,0(x12)
    3d08:	01520863          	beq	x4,x21,3d18 <I_add_cg_cmp_rd_rs2_b21+0x18>
    3d0c:	7b0002ef          	jal	x5,44bc <failedtest_x5_x4>
    3d10:	00003d00          	.word	0x00003d00
    3d14:	0000e6b2          	.word	0x0000e6b2
    3d18:	00460613          	addi	x12,x12,4

# Testcase cmp_rd_rs2 (Test rd = rs2 = x22)
  RVTEST_TESTDATA_LOAD_INT(x28, x23) # load rs1: x23 = 0x26fd4608
    3d1c:	000e2b83          	lw	x23,0(x28)
    3d20:	004e0e13          	addi	x28,x28,4
  RVTEST_TESTDATA_LOAD_INT(x28, x22) # load rs2: x22 = 0x924c60ff
    3d24:	000e2b03          	lw	x22,0(x28)
    3d28:	004e0e13          	addi	x28,x28,4

00003d2c <I_add_cg_cmp_rd_rs2_b22>:
I_add_cg_cmp_rd_rs2_b22:
  add x22, x23, x22 # perform operation
    3d2c:	016b8b33          	add	x22,x23,x22
  # Check if x22 contains the expected result. x12 is the signature ptr, x5 is the link ptr, x4 is a temp reg.
  RVTEST_SIGUPD(x12, x5, x4, x22, I_add_cg_cmp_rd_rs2_b22, I_add_cg_cmp_rd_rs2_b22_str)
    3d30:	00062203          	lw	x4,0(x12)
    3d34:	01620863          	beq	x4,x22,3d44 <I_add_cg_cmp_rd_rs2_b22+0x18>
    3d38:	784002ef          	jal	x5,44bc <failedtest_x5_x4>
    3d3c:	00003d2c          	.word	0x00003d2c
    3d40:	0000e6e6          	.word	0x0000e6e6
    3d44:	00460613          	addi	x12,x12,4

# Testcase cmp_rd_rs2 (Test rd = rs2 = x23)
  RVTEST_TESTDATA_LOAD_INT(x28, x24) # load rs1: x24 = 0xa5aac909
    3d48:	000e2c03          	lw	x24,0(x28)
    3d4c:	004e0e13          	addi	x28,x28,4
  RVTEST_TESTDATA_LOAD_INT(x28, x23) # load rs2: x23 = 0x6181f190
    3d50:	000e2b83          	lw	x23,0(x28)
    3d54:	004e0e13          	addi	x28,x28,4

00003d58 <I_add_cg_cmp_rd_rs2_b23>:
I_add_cg_cmp_rd_rs2_b23:
  add x23, x24, x23 # perform operation
    3d58:	017c0bb3          	add	x23,x24,x23
  # Check if x23 contains the expected result. x12 is the signature ptr, x5 is the link ptr, x4 is a temp reg.
  RVTEST_SIGUPD(x12, x5, x4, x23, I_add_cg_cmp_rd_rs2_b23, I_add_cg_cmp_rd_rs2_b23_str)
    3d5c:	00062203          	lw	x4,0(x12)
    3d60:	01720863          	beq	x4,x23,3d70 <I_add_cg_cmp_rd_rs2_b23+0x18>
    3d64:	758002ef          	jal	x5,44bc <failedtest_x5_x4>
    3d68:	00003d58          	.word	0x00003d58
    3d6c:	0000e71a          	.word	0x0000e71a
    3d70:	00460613          	addi	x12,x12,4

# Testcase cmp_rd_rs2 (Test rd = rs2 = x24)
  RVTEST_TESTDATA_LOAD_INT(x28, x19) # load rs1: x19 = 0xc5b09f99
    3d74:	000e2983          	lw	x19,0(x28)
    3d78:	004e0e13          	addi	x28,x28,4
  RVTEST_TESTDATA_LOAD_INT(x28, x24) # load rs2: x24 = 0x356880c0
    3d7c:	000e2c03          	lw	x24,0(x28)
    3d80:	004e0e13          	addi	x28,x28,4

00003d84 <I_add_cg_cmp_rd_rs2_b24>:
I_add_cg_cmp_rd_rs2_b24:
  add x24, x19, x24 # perform operation
    3d84:	01898c33          	add	x24,x19,x24
  # Check if x24 contains the expected result. x12 is the signature ptr, x5 is the link ptr, x4 is a temp reg.
  RVTEST_SIGUPD(x12, x5, x4, x24, I_add_cg_cmp_rd_rs2_b24, I_add_cg_cmp_rd_rs2_b24_str)
    3d88:	00062203          	lw	x4,0(x12)
    3d8c:	01820863          	beq	x4,x24,3d9c <I_add_cg_cmp_rd_rs2_b24+0x18>
    3d90:	72c002ef          	jal	x5,44bc <failedtest_x5_x4>
    3d94:	00003d84          	.word	0x00003d84
    3d98:	0000e74e          	.word	0x0000e74e
    3d9c:	00460613          	addi	x12,x12,4

# Testcase cmp_rd_rs2 (Test rd = rs2 = x25)
  RVTEST_TESTDATA_LOAD_INT(x28, x0) # load rs1: x0 = 0xa346625a
    3da0:	000e2003          	lw	x0,0(x28)
    3da4:	004e0e13          	addi	x28,x28,4
  RVTEST_TESTDATA_LOAD_INT(x28, x25) # load rs2: x25 = 0xc1d870de
    3da8:	000e2c83          	lw	x25,0(x28)
    3dac:	004e0e13          	addi	x28,x28,4

00003db0 <I_add_cg_cmp_rd_rs2_b25>:
I_add_cg_cmp_rd_rs2_b25:
  add x25, x0, x25 # perform operation
    3db0:	01900cb3          	add	x25,x0,x25
  # Check if x25 contains the expected result. x12 is the signature ptr, x5 is the link ptr, x4 is a temp reg.
  RVTEST_SIGUPD(x12, x5, x4, x25, I_add_cg_cmp_rd_rs2_b25, I_add_cg_cmp_rd_rs2_b25_str)
    3db4:	00062203          	lw	x4,0(x12)
    3db8:	01920863          	beq	x4,x25,3dc8 <I_add_cg_cmp_rd_rs2_b25+0x18>
    3dbc:	700002ef          	jal	x5,44bc <failedtest_x5_x4>
    3dc0:	00003db0          	.word	0x00003db0
    3dc4:	0000e782          	.word	0x0000e782
    3dc8:	00460613          	addi	x12,x12,4

# Testcase cmp_rd_rs2 (Test rd = rs2 = x26)
  RVTEST_TESTDATA_LOAD_INT(x28, x8) # load rs1: x8 = 0x33618588
    3dcc:	000e2403          	lw	x8,0(x28)
    3dd0:	004e0e13          	addi	x28,x28,4
  RVTEST_TESTDATA_LOAD_INT(x28, x26) # load rs2: x26 = 0x3c552c59
    3dd4:	000e2d03          	lw	x26,0(x28)
    3dd8:	004e0e13          	addi	x28,x28,4

00003ddc <I_add_cg_cmp_rd_rs2_b26>:
I_add_cg_cmp_rd_rs2_b26:
  add x26, x8, x26 # perform operation
    3ddc:	01a40d33          	add	x26,x8,x26
  # Check if x26 contains the expected result. x12 is the signature ptr, x5 is the link ptr, x4 is a temp reg.
  RVTEST_SIGUPD(x12, x5, x4, x26, I_add_cg_cmp_rd_rs2_b26, I_add_cg_cmp_rd_rs2_b26_str)
    3de0:	00062203          	lw	x4,0(x12)
    3de4:	01a20863          	beq	x4,x26,3df4 <I_add_cg_cmp_rd_rs2_b26+0x18>
    3de8:	6d4002ef          	jal	x5,44bc <failedtest_x5_x4>
    3dec:	00003ddc          	.word	0x00003ddc
    3df0:	0000e7b6          	.word	0x0000e7b6
    3df4:	00460613          	addi	x12,x12,4

# Testcase cmp_rd_rs2 (Test rd = rs2 = x27)
  RVTEST_TESTDATA_LOAD_INT(x28, x24) # load rs1: x24 = 0xd8c0d979
    3df8:	000e2c03          	lw	x24,0(x28)
    3dfc:	004e0e13          	addi	x28,x28,4
  RVTEST_TESTDATA_LOAD_INT(x28, x27) # load rs2: x27 = 0x33b1805a
    3e00:	000e2d83          	lw	x27,0(x28)
    3e04:	004e0e13          	addi	x28,x28,4

00003e08 <I_add_cg_cmp_rd_rs2_b27>:
I_add_cg_cmp_rd_rs2_b27:
  add x27, x24, x27 # perform operation
    3e08:	01bc0db3          	add	x27,x24,x27
  # Check if x27 contains the expected result. x12 is the signature ptr, x5 is the link ptr, x4 is a temp reg.
  RVTEST_SIGUPD(x12, x5, x4, x27, I_add_cg_cmp_rd_rs2_b27, I_add_cg_cmp_rd_rs2_b27_str)
    3e0c:	00062203          	lw	x4,0(x12)
    3e10:	01b20863          	beq	x4,x27,3e20 <I_add_cg_cmp_rd_rs2_b27+0x18>
    3e14:	6a8002ef          	jal	x5,44bc <failedtest_x5_x4>
    3e18:	00003e08          	.word	0x00003e08
    3e1c:	0000e7ea          	.word	0x0000e7ea
    3e20:	00460613          	addi	x12,x12,4

  mv x19, x28 # switch data pointer register to avoid conflict with test
    3e24:	000e0993          	addi	x19,x28,0
# Testcase cmp_rd_rs2 (Test rd = rs2 = x28)
  RVTEST_TESTDATA_LOAD_INT(x19, x3) # load rs1: x3 = 0x98018d68
    3e28:	0009a183          	lw	x3,0(x19)
    3e2c:	00498993          	addi	x19,x19,4
  RVTEST_TESTDATA_LOAD_INT(x19, x28) # load rs2: x28 = 0x862215f9
    3e30:	0009ae03          	lw	x28,0(x19)
    3e34:	00498993          	addi	x19,x19,4

00003e38 <I_add_cg_cmp_rd_rs2_b28>:
I_add_cg_cmp_rd_rs2_b28:
  add x28, x3, x28 # perform operation
    3e38:	01c18e33          	add	x28,x3,x28
  # Check if x28 contains the expected result. x12 is the signature ptr, x5 is the link ptr, x4 is a temp reg.
  RVTEST_SIGUPD(x12, x5, x4, x28, I_add_cg_cmp_rd_rs2_b28, I_add_cg_cmp_rd_rs2_b28_str)
    3e3c:	00062203          	lw	x4,0(x12)
    3e40:	01c20863          	beq	x4,x28,3e50 <I_add_cg_cmp_rd_rs2_b28+0x18>
    3e44:	678002ef          	jal	x5,44bc <failedtest_x5_x4>
    3e48:	00003e38          	.word	0x00003e38
    3e4c:	0000e81e          	.word	0x0000e81e
    3e50:	00460613          	addi	x12,x12,4

# Testcase cmp_rd_rs2 (Test rd = rs2 = x29)
  RVTEST_TESTDATA_LOAD_INT(x19, x7) # load rs1: x7 = 0x75b2f4df
    3e54:	0009a383          	lw	x7,0(x19)
    3e58:	00498993          	addi	x19,x19,4
  RVTEST_TESTDATA_LOAD_INT(x19, x29) # load rs2: x29 = 0xda4cc5e3
    3e5c:	0009ae83          	lw	x29,0(x19)
    3e60:	00498993          	addi	x19,x19,4

00003e64 <I_add_cg_cmp_rd_rs2_b29>:
I_add_cg_cmp_rd_rs2_b29:
  add x29, x7, x29 # perform operation
    3e64:	01d38eb3          	add	x29,x7,x29
  # Check if x29 contains the expected result. x12 is the signature ptr, x5 is the link ptr, x4 is a temp reg.
  RVTEST_SIGUPD(x12, x5, x4, x29, I_add_cg_cmp_rd_rs2_b29, I_add_cg_cmp_rd_rs2_b29_str)
    3e68:	00062203          	lw	x4,0(x12)
    3e6c:	01d20863          	beq	x4,x29,3e7c <I_add_cg_cmp_rd_rs2_b29+0x18>
    3e70:	64c002ef          	jal	x5,44bc <failedtest_x5_x4>
    3e74:	00003e64          	.word	0x00003e64
    3e78:	0000e852          	.word	0x0000e852
    3e7c:	00460613          	addi	x12,x12,4

# Testcase cmp_rd_rs2 (Test rd = rs2 = x30)
  RVTEST_TESTDATA_LOAD_INT(x19, x27) # load rs1: x27 = 0x0b8ea9f4
    3e80:	0009ad83          	lw	x27,0(x19)
    3e84:	00498993          	addi	x19,x19,4
  RVTEST_TESTDATA_LOAD_INT(x19, x30) # load rs2: x30 = 0x90bcd290
    3e88:	0009af03          	lw	x30,0(x19)
    3e8c:	00498993          	addi	x19,x19,4

00003e90 <I_add_cg_cmp_rd_rs2_b30>:
I_add_cg_cmp_rd_rs2_b30:
  add x30, x27, x30 # perform operation
    3e90:	01ed8f33          	add	x30,x27,x30
  # Check if x30 contains the expected result. x12 is the signature ptr, x5 is the link ptr, x4 is a temp reg.
  RVTEST_SIGUPD(x12, x5, x4, x30, I_add_cg_cmp_rd_rs2_b30, I_add_cg_cmp_rd_rs2_b30_str)
    3e94:	00062203          	lw	x4,0(x12)
    3e98:	01e20863          	beq	x4,x30,3ea8 <I_add_cg_cmp_rd_rs2_b30+0x18>
    3e9c:	620002ef          	jal	x5,44bc <failedtest_x5_x4>
    3ea0:	00003e90          	.word	0x00003e90
    3ea4:	0000e886          	.word	0x0000e886
    3ea8:	00460613          	addi	x12,x12,4

# Testcase cmp_rd_rs2 (Test rd = rs2 = x31)
  RVTEST_TESTDATA_LOAD_INT(x19, x2) # load rs1: x2 = 0x6bb7f0de
    3eac:	0009a103          	lw	x2,0(x19)
    3eb0:	00498993          	addi	x19,x19,4
  RVTEST_TESTDATA_LOAD_INT(x19, x31) # load rs2: x31 = 0x0e25e8dd
    3eb4:	0009af83          	lw	x31,0(x19)
    3eb8:	00498993          	addi	x19,x19,4

00003ebc <I_add_cg_cmp_rd_rs2_b31>:
I_add_cg_cmp_rd_rs2_b31:
  add x31, x2, x31 # perform operation
    3ebc:	01f10fb3          	add	x31,x2,x31
  # Check if x31 contains the expected result. x12 is the signature ptr, x5 is the link ptr, x4 is a temp reg.
  RVTEST_SIGUPD(x12, x5, x4, x31, I_add_cg_cmp_rd_rs2_b31, I_add_cg_cmp_rd_rs2_b31_str)
    3ec0:	00062203          	lw	x4,0(x12)
    3ec4:	01f20863          	beq	x4,x31,3ed4 <I_add_cg_cmp_rd_rs2_b31+0x18>
    3ec8:	5f4002ef          	jal	x5,44bc <failedtest_x5_x4>
    3ecc:	00003ebc          	.word	0x00003ebc
    3ed0:	0000e8ba          	.word	0x0000e8ba
    3ed4:	00460613          	addi	x12,x12,4
/////////////////////////////////
// cmp_rd_rs1_rs2
/////////////////////////////////

# Testcase cmp_rd_rs1_rs2 (Test rd = rs1 = rs2 = x0)
  RVTEST_TESTDATA_LOAD_INT(x19, x0) # load rs1: x0 = 0x3aab7231
    3ed8:	0009a003          	lw	x0,0(x19)
    3edc:	00498993          	addi	x19,x19,4
  RVTEST_TESTDATA_LOAD_INT(x19, x0) # load rs2: x0 = 0x4a584c85
    3ee0:	0009a003          	lw	x0,0(x19)
    3ee4:	00498993          	addi	x19,x19,4

00003ee8 <I_add_cg_cmp_rd_rs1_rs2_b0>:
I_add_cg_cmp_rd_rs1_rs2_b0:
  add x0, x0, x0 # perform operation
    3ee8:	00000033          	add	x0,x0,x0
  # Check if x0 contains the expected result. x12 is the signature ptr, x5 is the link ptr, x4 is a temp reg.
  RVTEST_SIGUPD(x12, x5, x4, x0, I_add_cg_cmp_rd_rs1_rs2_b0, I_add_cg_cmp_rd_rs1_rs2_b0_str)
    3eec:	00062203          	lw	x4,0(x12)
    3ef0:	00020863          	beq	x4,x0,3f00 <I_add_cg_cmp_rd_rs1_rs2_b0+0x18>
    3ef4:	5c8002ef          	jal	x5,44bc <failedtest_x5_x4>
    3ef8:	00003ee8          	.word	0x00003ee8
    3efc:	0000e8ee          	.word	0x0000e8ee
    3f00:	00460613          	addi	x12,x12,4

# Testcase cmp_rd_rs1_rs2 (Test rd = rs1 = rs2 = x1)
  RVTEST_TESTDATA_LOAD_INT(x19, x1) # load rs1: x1 = 0xf991fce4
    3f04:	0009a083          	lw	x1,0(x19)
    3f08:	00498993          	addi	x19,x19,4
  RVTEST_TESTDATA_LOAD_INT(x19, x1) # load rs2: x1 = 0x309f2cbe
    3f0c:	0009a083          	lw	x1,0(x19)
    3f10:	00498993          	addi	x19,x19,4

00003f14 <I_add_cg_cmp_rd_rs1_rs2_b1>:
I_add_cg_cmp_rd_rs1_rs2_b1:
  add x1, x1, x1 # perform operation
    3f14:	001080b3          	add	x1,x1,x1
  # Check if x1 contains the expected result. x12 is the signature ptr, x5 is the link ptr, x4 is a temp reg.
  RVTEST_SIGUPD(x12, x5, x4, x1, I_add_cg_cmp_rd_rs1_rs2_b1, I_add_cg_cmp_rd_rs1_rs2_b1_str)
    3f18:	00062203          	lw	x4,0(x12)
    3f1c:	00120863          	beq	x4,x1,3f2c <I_add_cg_cmp_rd_rs1_rs2_b1+0x18>
    3f20:	59c002ef          	jal	x5,44bc <failedtest_x5_x4>
    3f24:	00003f14          	.word	0x00003f14
    3f28:	0000e925          	.word	0x0000e925
    3f2c:	00460613          	addi	x12,x12,4

# Testcase cmp_rd_rs1_rs2 (Test rd = rs1 = rs2 = x2)
  RVTEST_TESTDATA_LOAD_INT(x19, x2) # load rs1: x2 = 0x2fa9008d
    3f30:	0009a103          	lw	x2,0(x19)
    3f34:	00498993          	addi	x19,x19,4
  RVTEST_TESTDATA_LOAD_INT(x19, x2) # load rs2: x2 = 0xa9101faf
    3f38:	0009a103          	lw	x2,0(x19)
    3f3c:	00498993          	addi	x19,x19,4

00003f40 <I_add_cg_cmp_rd_rs1_rs2_b2>:
I_add_cg_cmp_rd_rs1_rs2_b2:
  add x2, x2, x2 # perform operation
    3f40:	00210133          	add	x2,x2,x2
  # Check if x2 contains the expected result. x12 is the signature ptr, x5 is the link ptr, x4 is a temp reg.
  RVTEST_SIGUPD(x12, x5, x4, x2, I_add_cg_cmp_rd_rs1_rs2_b2, I_add_cg_cmp_rd_rs1_rs2_b2_str)
    3f44:	00062203          	lw	x4,0(x12)
    3f48:	00220863          	beq	x4,x2,3f58 <I_add_cg_cmp_rd_rs1_rs2_b2+0x18>
    3f4c:	570002ef          	jal	x5,44bc <failedtest_x5_x4>
    3f50:	00003f40          	.word	0x00003f40
    3f54:	0000e95c          	.word	0x0000e95c
    3f58:	00460613          	addi	x12,x12,4

# Testcase cmp_rd_rs1_rs2 (Test rd = rs1 = rs2 = x3)
  RVTEST_TESTDATA_LOAD_INT(x19, x3) # load rs1: x3 = 0x444959bc
    3f5c:	0009a183          	lw	x3,0(x19)
    3f60:	00498993          	addi	x19,x19,4
  RVTEST_TESTDATA_LOAD_INT(x19, x3) # load rs2: x3 = 0x5e46329b
    3f64:	0009a183          	lw	x3,0(x19)
    3f68:	00498993          	addi	x19,x19,4

00003f6c <I_add_cg_cmp_rd_rs1_rs2_b3>:
I_add_cg_cmp_rd_rs1_rs2_b3:
  add x3, x3, x3 # perform operation
    3f6c:	003181b3          	add	x3,x3,x3
  # Check if x3 contains the expected result. x12 is the signature ptr, x5 is the link ptr, x4 is a temp reg.
  RVTEST_SIGUPD(x12, x5, x4, x3, I_add_cg_cmp_rd_rs1_rs2_b3, I_add_cg_cmp_rd_rs1_rs2_b3_str)
    3f70:	00062203          	lw	x4,0(x12)
    3f74:	00320863          	beq	x4,x3,3f84 <I_add_cg_cmp_rd_rs1_rs2_b3+0x18>
    3f78:	544002ef          	jal	x5,44bc <failedtest_x5_x4>
    3f7c:	00003f6c          	.word	0x00003f6c
    3f80:	0000e993          	.word	0x0000e993
    3f84:	00460613          	addi	x12,x12,4

  mv x13, x4 # switch temp register to avoid conflict with test
    3f88:	00020693          	addi	x13,x4,0 # 0 <rvtest_entry_point>
  mv x14, x5 # switch link pointer register to avoid conflict with test
    3f8c:	00028713          	addi	x14,x5,0
# Testcase cmp_rd_rs1_rs2 (Test rd = rs1 = rs2 = x4)
  RVTEST_TESTDATA_LOAD_INT(x19, x4) # load rs1: x4 = 0xe09868da
    3f90:	0009a203          	lw	x4,0(x19)
    3f94:	00498993          	addi	x19,x19,4
  RVTEST_TESTDATA_LOAD_INT(x19, x4) # load rs2: x4 = 0x1f930592
    3f98:	0009a203          	lw	x4,0(x19)
    3f9c:	00498993          	addi	x19,x19,4

00003fa0 <I_add_cg_cmp_rd_rs1_rs2_b4>:
I_add_cg_cmp_rd_rs1_rs2_b4:
  add x4, x4, x4 # perform operation
    3fa0:	00420233          	add	x4,x4,x4
  # Check if x4 contains the expected result. x12 is the signature ptr, x14 is the link ptr, x13 is a temp reg.
  RVTEST_SIGUPD(x12, x14, x13, x4, I_add_cg_cmp_rd_rs1_rs2_b4, I_add_cg_cmp_rd_rs1_rs2_b4_str)
    3fa4:	00062683          	lw	x13,0(x12)
    3fa8:	00468863          	beq	x13,x4,3fb8 <I_add_cg_cmp_rd_rs1_rs2_b4+0x18>
    3fac:	5500076f          	jal	x14,44fc <failedtest_x14_x13>
    3fb0:	00003fa0          	.word	0x00003fa0
    3fb4:	0000e9ca          	.word	0x0000e9ca
    3fb8:	00460613          	addi	x12,x12,4

# Testcase cmp_rd_rs1_rs2 (Test rd = rs1 = rs2 = x5)
  RVTEST_TESTDATA_LOAD_INT(x19, x5) # load rs1: x5 = 0xc9651700
    3fbc:	0009a283          	lw	x5,0(x19)
    3fc0:	00498993          	addi	x19,x19,4
  RVTEST_TESTDATA_LOAD_INT(x19, x5) # load rs2: x5 = 0x5cf04e6e
    3fc4:	0009a283          	lw	x5,0(x19)
    3fc8:	00498993          	addi	x19,x19,4

00003fcc <I_add_cg_cmp_rd_rs1_rs2_b5>:
I_add_cg_cmp_rd_rs1_rs2_b5:
  add x5, x5, x5 # perform operation
    3fcc:	005282b3          	add	x5,x5,x5
  # Check if x5 contains the expected result. x12 is the signature ptr, x14 is the link ptr, x13 is a temp reg.
  RVTEST_SIGUPD(x12, x14, x13, x5, I_add_cg_cmp_rd_rs1_rs2_b5, I_add_cg_cmp_rd_rs1_rs2_b5_str)
    3fd0:	00062683          	lw	x13,0(x12)
    3fd4:	00568863          	beq	x13,x5,3fe4 <I_add_cg_cmp_rd_rs1_rs2_b5+0x18>
    3fd8:	5240076f          	jal	x14,44fc <failedtest_x14_x13>
    3fdc:	00003fcc          	.word	0x00003fcc
    3fe0:	0000ea01          	.word	0x0000ea01
    3fe4:	00460613          	addi	x12,x12,4

# Testcase cmp_rd_rs1_rs2 (Test rd = rs1 = rs2 = x6)
  RVTEST_TESTDATA_LOAD_INT(x19, x6) # load rs1: x6 = 0x80e0bc7a
    3fe8:	0009a303          	lw	x6,0(x19)
    3fec:	00498993          	addi	x19,x19,4
  RVTEST_TESTDATA_LOAD_INT(x19, x6) # load rs2: x6 = 0xaf5c8f2c
    3ff0:	0009a303          	lw	x6,0(x19)
    3ff4:	00498993          	addi	x19,x19,4

00003ff8 <I_add_cg_cmp_rd_rs1_rs2_b6>:
I_add_cg_cmp_rd_rs1_rs2_b6:
  add x6, x6, x6 # perform operation
    3ff8:	00630333          	add	x6,x6,x6
  # Check if x6 contains the expected result. x12 is the signature ptr, x14 is the link ptr, x13 is a temp reg.
  RVTEST_SIGUPD(x12, x14, x13, x6, I_add_cg_cmp_rd_rs1_rs2_b6, I_add_cg_cmp_rd_rs1_rs2_b6_str)
    3ffc:	00062683          	lw	x13,0(x12)
    4000:	00668863          	beq	x13,x6,4010 <I_add_cg_cmp_rd_rs1_rs2_b6+0x18>
    4004:	4f80076f          	jal	x14,44fc <failedtest_x14_x13>
    4008:	00003ff8          	.word	0x00003ff8
    400c:	0000ea38          	.word	0x0000ea38
    4010:	00460613          	addi	x12,x12,4

# Testcase cmp_rd_rs1_rs2 (Test rd = rs1 = rs2 = x7)
  RVTEST_TESTDATA_LOAD_INT(x19, x7) # load rs1: x7 = 0x6902a31d
    4014:	0009a383          	lw	x7,0(x19)
    4018:	00498993          	addi	x19,x19,4
  RVTEST_TESTDATA_LOAD_INT(x19, x7) # load rs2: x7 = 0xea842f48
    401c:	0009a383          	lw	x7,0(x19)
    4020:	00498993          	addi	x19,x19,4

00004024 <I_add_cg_cmp_rd_rs1_rs2_b7>:
I_add_cg_cmp_rd_rs1_rs2_b7:
  add x7, x7, x7 # perform operation
    4024:	007383b3          	add	x7,x7,x7
  # Check if x7 contains the expected result. x12 is the signature ptr, x14 is the link ptr, x13 is a temp reg.
  RVTEST_SIGUPD(x12, x14, x13, x7, I_add_cg_cmp_rd_rs1_rs2_b7, I_add_cg_cmp_rd_rs1_rs2_b7_str)
    4028:	00062683          	lw	x13,0(x12)
    402c:	00768863          	beq	x13,x7,403c <I_add_cg_cmp_rd_rs1_rs2_b7+0x18>
    4030:	4cc0076f          	jal	x14,44fc <failedtest_x14_x13>
    4034:	00004024          	.word	0x00004024
    4038:	0000ea6f          	.word	0x0000ea6f
    403c:	00460613          	addi	x12,x12,4

# Testcase cmp_rd_rs1_rs2 (Test rd = rs1 = rs2 = x8)
  RVTEST_TESTDATA_LOAD_INT(x19, x8) # load rs1: x8 = 0x0162d981
    4040:	0009a403          	lw	x8,0(x19)
    4044:	00498993          	addi	x19,x19,4
  RVTEST_TESTDATA_LOAD_INT(x19, x8) # load rs2: x8 = 0x259b7218
    4048:	0009a403          	lw	x8,0(x19)
    404c:	00498993          	addi	x19,x19,4

00004050 <I_add_cg_cmp_rd_rs1_rs2_b8>:
I_add_cg_cmp_rd_rs1_rs2_b8:
  add x8, x8, x8 # perform operation
    4050:	00840433          	add	x8,x8,x8
  # Check if x8 contains the expected result. x12 is the signature ptr, x14 is the link ptr, x13 is a temp reg.
  RVTEST_SIGUPD(x12, x14, x13, x8, I_add_cg_cmp_rd_rs1_rs2_b8, I_add_cg_cmp_rd_rs1_rs2_b8_str)
    4054:	00062683          	lw	x13,0(x12)
    4058:	00868863          	beq	x13,x8,4068 <I_add_cg_cmp_rd_rs1_rs2_b8+0x18>
    405c:	4a00076f          	jal	x14,44fc <failedtest_x14_x13>
    4060:	00004050          	.word	0x00004050
    4064:	0000eaa6          	.word	0x0000eaa6
    4068:	00460613          	addi	x12,x12,4

# Testcase cmp_rd_rs1_rs2 (Test rd = rs1 = rs2 = x9)
  RVTEST_TESTDATA_LOAD_INT(x19, x9) # load rs1: x9 = 0x3e8ee4e5
    406c:	0009a483          	lw	x9,0(x19)
    4070:	00498993          	addi	x19,x19,4
  RVTEST_TESTDATA_LOAD_INT(x19, x9) # load rs2: x9 = 0x4cb1b75d
    4074:	0009a483          	lw	x9,0(x19)
    4078:	00498993          	addi	x19,x19,4

0000407c <I_add_cg_cmp_rd_rs1_rs2_b9>:
I_add_cg_cmp_rd_rs1_rs2_b9:
  add x9, x9, x9 # perform operation
    407c:	009484b3          	add	x9,x9,x9
  # Check if x9 contains the expected result. x12 is the signature ptr, x14 is the link ptr, x13 is a temp reg.
  RVTEST_SIGUPD(x12, x14, x13, x9, I_add_cg_cmp_rd_rs1_rs2_b9, I_add_cg_cmp_rd_rs1_rs2_b9_str)
    4080:	00062683          	lw	x13,0(x12)
    4084:	00968863          	beq	x13,x9,4094 <I_add_cg_cmp_rd_rs1_rs2_b9+0x18>
    4088:	4740076f          	jal	x14,44fc <failedtest_x14_x13>
    408c:	0000407c          	.word	0x0000407c
    4090:	0000eadd          	.word	0x0000eadd
    4094:	00460613          	addi	x12,x12,4

# Testcase cmp_rd_rs1_rs2 (Test rd = rs1 = rs2 = x10)
  RVTEST_TESTDATA_LOAD_INT(x19, x10) # load rs1: x10 = 0xe92e1dcb
    4098:	0009a503          	lw	x10,0(x19)
    409c:	00498993          	addi	x19,x19,4
  RVTEST_TESTDATA_LOAD_INT(x19, x10) # load rs2: x10 = 0xa80261bf
    40a0:	0009a503          	lw	x10,0(x19)
    40a4:	00498993          	addi	x19,x19,4

000040a8 <I_add_cg_cmp_rd_rs1_rs2_b10>:
I_add_cg_cmp_rd_rs1_rs2_b10:
  add x10, x10, x10 # perform operation
    40a8:	00a50533          	add	x10,x10,x10
  # Check if x10 contains the expected result. x12 is the signature ptr, x14 is the link ptr, x13 is a temp reg.
  RVTEST_SIGUPD(x12, x14, x13, x10, I_add_cg_cmp_rd_rs1_rs2_b10, I_add_cg_cmp_rd_rs1_rs2_b10_str)
    40ac:	00062683          	lw	x13,0(x12)
    40b0:	00a68863          	beq	x13,x10,40c0 <I_add_cg_cmp_rd_rs1_rs2_b10+0x18>
    40b4:	4480076f          	jal	x14,44fc <failedtest_x14_x13>
    40b8:	000040a8          	.word	0x000040a8
    40bc:	0000eb14          	.word	0x0000eb14
    40c0:	00460613          	addi	x12,x12,4

# Testcase cmp_rd_rs1_rs2 (Test rd = rs1 = rs2 = x11)
  RVTEST_TESTDATA_LOAD_INT(x19, x11) # load rs1: x11 = 0x00823a28
    40c4:	0009a583          	lw	x11,0(x19)
    40c8:	00498993          	addi	x19,x19,4
  RVTEST_TESTDATA_LOAD_INT(x19, x11) # load rs2: x11 = 0x05a141e1
    40cc:	0009a583          	lw	x11,0(x19)
    40d0:	00498993          	addi	x19,x19,4

000040d4 <I_add_cg_cmp_rd_rs1_rs2_b11>:
I_add_cg_cmp_rd_rs1_rs2_b11:
  add x11, x11, x11 # perform operation
    40d4:	00b585b3          	add	x11,x11,x11
  # Check if x11 contains the expected result. x12 is the signature ptr, x14 is the link ptr, x13 is a temp reg.
  RVTEST_SIGUPD(x12, x14, x13, x11, I_add_cg_cmp_rd_rs1_rs2_b11, I_add_cg_cmp_rd_rs1_rs2_b11_str)
    40d8:	00062683          	lw	x13,0(x12)
    40dc:	00b68863          	beq	x13,x11,40ec <I_add_cg_cmp_rd_rs1_rs2_b11+0x18>
    40e0:	41c0076f          	jal	x14,44fc <failedtest_x14_x13>
    40e4:	000040d4          	.word	0x000040d4
    40e8:	0000eb4c          	.word	0x0000eb4c
    40ec:	00460613          	addi	x12,x12,4

  mv x6, x12 # switch signature pointer register to avoid conflict with test
    40f0:	00060313          	addi	x6,x12,0
# Testcase cmp_rd_rs1_rs2 (Test rd = rs1 = rs2 = x12)
  RVTEST_TESTDATA_LOAD_INT(x19, x12) # load rs1: x12 = 0xde8a6c21
    40f4:	0009a603          	lw	x12,0(x19)
    40f8:	00498993          	addi	x19,x19,4
  RVTEST_TESTDATA_LOAD_INT(x19, x12) # load rs2: x12 = 0x9a6a75e9
    40fc:	0009a603          	lw	x12,0(x19)
    4100:	00498993          	addi	x19,x19,4

00004104 <I_add_cg_cmp_rd_rs1_rs2_b12>:
I_add_cg_cmp_rd_rs1_rs2_b12:
  add x12, x12, x12 # perform operation
    4104:	00c60633          	add	x12,x12,x12
  # Check if x12 contains the expected result. x6 is the signature ptr, x14 is the link ptr, x13 is a temp reg.
  RVTEST_SIGUPD(x6, x14, x13, x12, I_add_cg_cmp_rd_rs1_rs2_b12, I_add_cg_cmp_rd_rs1_rs2_b12_str)
    4108:	00032683          	lw	x13,0(x6)
    410c:	00c68863          	beq	x13,x12,411c <I_add_cg_cmp_rd_rs1_rs2_b12+0x18>
    4110:	3ec0076f          	jal	x14,44fc <failedtest_x14_x13>
    4114:	00004104          	.word	0x00004104
    4118:	0000eb84          	.word	0x0000eb84
    411c:	00430313          	addi	x6,x6,4

  mv x4, x13 # switch temp register to avoid conflict with test
    4120:	00068213          	addi	x4,x13,0
  mv x5, x14 # switch link pointer register to avoid conflict with test
    4124:	00070293          	addi	x5,x14,0
# Testcase cmp_rd_rs1_rs2 (Test rd = rs1 = rs2 = x13)
  RVTEST_TESTDATA_LOAD_INT(x19, x13) # load rs1: x13 = 0x70b8ae2b
    4128:	0009a683          	lw	x13,0(x19)
    412c:	00498993          	addi	x19,x19,4
  RVTEST_TESTDATA_LOAD_INT(x19, x13) # load rs2: x13 = 0x1ff796c9
    4130:	0009a683          	lw	x13,0(x19)
    4134:	00498993          	addi	x19,x19,4

00004138 <I_add_cg_cmp_rd_rs1_rs2_b13>:
I_add_cg_cmp_rd_rs1_rs2_b13:
  add x13, x13, x13 # perform operation
    4138:	00d686b3          	add	x13,x13,x13
  # Check if x13 contains the expected result. x6 is the signature ptr, x5 is the link ptr, x4 is a temp reg.
  RVTEST_SIGUPD(x6, x5, x4, x13, I_add_cg_cmp_rd_rs1_rs2_b13, I_add_cg_cmp_rd_rs1_rs2_b13_str)
    413c:	00032203          	lw	x4,0(x6)
    4140:	00d20863          	beq	x4,x13,4150 <I_add_cg_cmp_rd_rs1_rs2_b13+0x18>
    4144:	378002ef          	jal	x5,44bc <failedtest_x5_x4>
    4148:	00004138          	.word	0x00004138
    414c:	0000ebbc          	.word	0x0000ebbc
    4150:	00430313          	addi	x6,x6,4

# Testcase cmp_rd_rs1_rs2 (Test rd = rs1 = rs2 = x14)
  RVTEST_TESTDATA_LOAD_INT(x19, x14) # load rs1: x14 = 0xcd2d175d
    4154:	0009a703          	lw	x14,0(x19)
    4158:	00498993          	addi	x19,x19,4
  RVTEST_TESTDATA_LOAD_INT(x19, x14) # load rs2: x14 = 0x406c2329
    415c:	0009a703          	lw	x14,0(x19)
    4160:	00498993          	addi	x19,x19,4

00004164 <I_add_cg_cmp_rd_rs1_rs2_b14>:
I_add_cg_cmp_rd_rs1_rs2_b14:
  add x14, x14, x14 # perform operation
    4164:	00e70733          	add	x14,x14,x14
  # Check if x14 contains the expected result. x6 is the signature ptr, x5 is the link ptr, x4 is a temp reg.
  RVTEST_SIGUPD(x6, x5, x4, x14, I_add_cg_cmp_rd_rs1_rs2_b14, I_add_cg_cmp_rd_rs1_rs2_b14_str)
    4168:	00032203          	lw	x4,0(x6)
    416c:	00e20863          	beq	x4,x14,417c <I_add_cg_cmp_rd_rs1_rs2_b14+0x18>
    4170:	34c002ef          	jal	x5,44bc <failedtest_x5_x4>
    4174:	00004164          	.word	0x00004164
    4178:	0000ebf4          	.word	0x0000ebf4
    417c:	00430313          	addi	x6,x6,4

# Testcase cmp_rd_rs1_rs2 (Test rd = rs1 = rs2 = x15)
  RVTEST_TESTDATA_LOAD_INT(x19, x15) # load rs1: x15 = 0xb0b178ee
    4180:	0009a783          	lw	x15,0(x19)
    4184:	00498993          	addi	x19,x19,4
  RVTEST_TESTDATA_LOAD_INT(x19, x15) # load rs2: x15 = 0xb673eaa6
    4188:	0009a783          	lw	x15,0(x19)
    418c:	00498993          	addi	x19,x19,4

00004190 <I_add_cg_cmp_rd_rs1_rs2_b15>:
I_add_cg_cmp_rd_rs1_rs2_b15:
  add x15, x15, x15 # perform operation
    4190:	00f787b3          	add	x15,x15,x15
  # Check if x15 contains the expected result. x6 is the signature ptr, x5 is the link ptr, x4 is a temp reg.
  RVTEST_SIGUPD(x6, x5, x4, x15, I_add_cg_cmp_rd_rs1_rs2_b15, I_add_cg_cmp_rd_rs1_rs2_b15_str)
    4194:	00032203          	lw	x4,0(x6)
    4198:	00f20863          	beq	x4,x15,41a8 <I_add_cg_cmp_rd_rs1_rs2_b15+0x18>
    419c:	320002ef          	jal	x5,44bc <failedtest_x5_x4>
    41a0:	00004190          	.word	0x00004190
    41a4:	0000ec2c          	.word	0x0000ec2c
    41a8:	00430313          	addi	x6,x6,4

# Testcase cmp_rd_rs1_rs2 (Test rd = rs1 = rs2 = x16)
  RVTEST_TESTDATA_LOAD_INT(x19, x16) # load rs1: x16 = 0xd816993e
    41ac:	0009a803          	lw	x16,0(x19)
    41b0:	00498993          	addi	x19,x19,4
  RVTEST_TESTDATA_LOAD_INT(x19, x16) # load rs2: x16 = 0x5dc351c2
    41b4:	0009a803          	lw	x16,0(x19)
    41b8:	00498993          	addi	x19,x19,4

000041bc <I_add_cg_cmp_rd_rs1_rs2_b16>:
I_add_cg_cmp_rd_rs1_rs2_b16:
  add x16, x16, x16 # perform operation
    41bc:	01080833          	add	x16,x16,x16
  # Check if x16 contains the expected result. x6 is the signature ptr, x5 is the link ptr, x4 is a temp reg.
  RVTEST_SIGUPD(x6, x5, x4, x16, I_add_cg_cmp_rd_rs1_rs2_b16, I_add_cg_cmp_rd_rs1_rs2_b16_str)
    41c0:	00032203          	lw	x4,0(x6)
    41c4:	01020863          	beq	x4,x16,41d4 <I_add_cg_cmp_rd_rs1_rs2_b16+0x18>
    41c8:	2f4002ef          	jal	x5,44bc <failedtest_x5_x4>
    41cc:	000041bc          	.word	0x000041bc
    41d0:	0000ec64          	.word	0x0000ec64
    41d4:	00430313          	addi	x6,x6,4

# Testcase cmp_rd_rs1_rs2 (Test rd = rs1 = rs2 = x17)
  RVTEST_TESTDATA_LOAD_INT(x19, x17) # load rs1: x17 = 0x6f3e3200
    41d8:	0009a883          	lw	x17,0(x19)
    41dc:	00498993          	addi	x19,x19,4
  RVTEST_TESTDATA_LOAD_INT(x19, x17) # load rs2: x17 = 0xc3f9a1b2
    41e0:	0009a883          	lw	x17,0(x19)
    41e4:	00498993          	addi	x19,x19,4

000041e8 <I_add_cg_cmp_rd_rs1_rs2_b17>:
I_add_cg_cmp_rd_rs1_rs2_b17:
  add x17, x17, x17 # perform operation
    41e8:	011888b3          	add	x17,x17,x17
  # Check if x17 contains the expected result. x6 is the signature ptr, x5 is the link ptr, x4 is a temp reg.
  RVTEST_SIGUPD(x6, x5, x4, x17, I_add_cg_cmp_rd_rs1_rs2_b17, I_add_cg_cmp_rd_rs1_rs2_b17_str)
    41ec:	00032203          	lw	x4,0(x6)
    41f0:	01120863          	beq	x4,x17,4200 <I_add_cg_cmp_rd_rs1_rs2_b17+0x18>
    41f4:	2c8002ef          	jal	x5,44bc <failedtest_x5_x4>
    41f8:	000041e8          	.word	0x000041e8
    41fc:	0000ec9c          	.word	0x0000ec9c
    4200:	00430313          	addi	x6,x6,4

# Testcase cmp_rd_rs1_rs2 (Test rd = rs1 = rs2 = x18)
  RVTEST_TESTDATA_LOAD_INT(x19, x18) # load rs1: x18 = 0xb990488b
    4204:	0009a903          	lw	x18,0(x19)
    4208:	00498993          	addi	x19,x19,4
  RVTEST_TESTDATA_LOAD_INT(x19, x18) # load rs2: x18 = 0x02ad0ee5
    420c:	0009a903          	lw	x18,0(x19)
    4210:	00498993          	addi	x19,x19,4

00004214 <I_add_cg_cmp_rd_rs1_rs2_b18>:
I_add_cg_cmp_rd_rs1_rs2_b18:
  add x18, x18, x18 # perform operation
    4214:	01290933          	add	x18,x18,x18
  # Check if x18 contains the expected result. x6 is the signature ptr, x5 is the link ptr, x4 is a temp reg.
  RVTEST_SIGUPD(x6, x5, x4, x18, I_add_cg_cmp_rd_rs1_rs2_b18, I_add_cg_cmp_rd_rs1_rs2_b18_str)
    4218:	00032203          	lw	x4,0(x6)
    421c:	01220863          	beq	x4,x18,422c <I_add_cg_cmp_rd_rs1_rs2_b18+0x18>
    4220:	29c002ef          	jal	x5,44bc <failedtest_x5_x4>
    4224:	00004214          	.word	0x00004214
    4228:	0000ecd4          	.word	0x0000ecd4
    422c:	00430313          	addi	x6,x6,4

  mv x12, x19 # switch data pointer register to avoid conflict with test
    4230:	00098613          	addi	x12,x19,0
# Testcase cmp_rd_rs1_rs2 (Test rd = rs1 = rs2 = x19)
  RVTEST_TESTDATA_LOAD_INT(x12, x19) # load rs1: x19 = 0xe372ba32
    4234:	00062983          	lw	x19,0(x12)
    4238:	00460613          	addi	x12,x12,4
  RVTEST_TESTDATA_LOAD_INT(x12, x19) # load rs2: x19 = 0xbae3c17d
    423c:	00062983          	lw	x19,0(x12)
    4240:	00460613          	addi	x12,x12,4

00004244 <I_add_cg_cmp_rd_rs1_rs2_b19>:
I_add_cg_cmp_rd_rs1_rs2_b19:
  add x19, x19, x19 # perform operation
    4244:	013989b3          	add	x19,x19,x19
  # Check if x19 contains the expected result. x6 is the signature ptr, x5 is the link ptr, x4 is a temp reg.
  RVTEST_SIGUPD(x6, x5, x4, x19, I_add_cg_cmp_rd_rs1_rs2_b19, I_add_cg_cmp_rd_rs1_rs2_b19_str)
    4248:	00032203          	lw	x4,0(x6)
    424c:	01320863          	beq	x4,x19,425c <I_add_cg_cmp_rd_rs1_rs2_b19+0x18>
    4250:	26c002ef          	jal	x5,44bc <failedtest_x5_x4>
    4254:	00004244          	.word	0x00004244
    4258:	0000ed0c          	.word	0x0000ed0c
    425c:	00430313          	addi	x6,x6,4

# Testcase cmp_rd_rs1_rs2 (Test rd = rs1 = rs2 = x20)
  RVTEST_TESTDATA_LOAD_INT(x12, x20) # load rs1: x20 = 0x7fe74790
    4260:	00062a03          	lw	x20,0(x12)
    4264:	00460613          	addi	x12,x12,4
  RVTEST_TESTDATA_LOAD_INT(x12, x20) # load rs2: x20 = 0x76e210e9
    4268:	00062a03          	lw	x20,0(x12)
    426c:	00460613          	addi	x12,x12,4

00004270 <I_add_cg_cmp_rd_rs1_rs2_b20>:
I_add_cg_cmp_rd_rs1_rs2_b20:
  add x20, x20, x20 # perform operation
    4270:	014a0a33          	add	x20,x20,x20
  # Check if x20 contains the expected result. x6 is the signature ptr, x5 is the link ptr, x4 is a temp reg.
  RVTEST_SIGUPD(x6, x5, x4, x20, I_add_cg_cmp_rd_rs1_rs2_b20, I_add_cg_cmp_rd_rs1_rs2_b20_str)
    4274:	00032203          	lw	x4,0(x6)
    4278:	01420863          	beq	x4,x20,4288 <I_add_cg_cmp_rd_rs1_rs2_b20+0x18>
    427c:	240002ef          	jal	x5,44bc <failedtest_x5_x4>
    4280:	00004270          	.word	0x00004270
    4284:	0000ed44          	.word	0x0000ed44
    4288:	00430313          	addi	x6,x6,4

# Testcase cmp_rd_rs1_rs2 (Test rd = rs1 = rs2 = x21)
  RVTEST_TESTDATA_LOAD_INT(x12, x21) # load rs1: x21 = 0x291cddf2
    428c:	00062a83          	lw	x21,0(x12)
    4290:	00460613          	addi	x12,x12,4
  RVTEST_TESTDATA_LOAD_INT(x12, x21) # load rs2: x21 = 0x6b20b8d1
    4294:	00062a83          	lw	x21,0(x12)
    4298:	00460613          	addi	x12,x12,4

0000429c <I_add_cg_cmp_rd_rs1_rs2_b21>:
I_add_cg_cmp_rd_rs1_rs2_b21:
  add x21, x21, x21 # perform operation
    429c:	015a8ab3          	add	x21,x21,x21
  # Check if x21 contains the expected result. x6 is the signature ptr, x5 is the link ptr, x4 is a temp reg.
  RVTEST_SIGUPD(x6, x5, x4, x21, I_add_cg_cmp_rd_rs1_rs2_b21, I_add_cg_cmp_rd_rs1_rs2_b21_str)
    42a0:	00032203          	lw	x4,0(x6)
    42a4:	01520863          	beq	x4,x21,42b4 <I_add_cg_cmp_rd_rs1_rs2_b21+0x18>
    42a8:	214002ef          	jal	x5,44bc <failedtest_x5_x4>
    42ac:	0000429c          	.word	0x0000429c
    42b0:	0000ed7c          	.word	0x0000ed7c
    42b4:	00430313          	addi	x6,x6,4

# Testcase cmp_rd_rs1_rs2 (Test rd = rs1 = rs2 = x22)
  RVTEST_TESTDATA_LOAD_INT(x12, x22) # load rs1: x22 = 0x2f1448a1
    42b8:	00062b03          	lw	x22,0(x12)
    42bc:	00460613          	addi	x12,x12,4
  RVTEST_TESTDATA_LOAD_INT(x12, x22) # load rs2: x22 = 0xff40d5af
    42c0:	00062b03          	lw	x22,0(x12)
    42c4:	00460613          	addi	x12,x12,4

000042c8 <I_add_cg_cmp_rd_rs1_rs2_b22>:
I_add_cg_cmp_rd_rs1_rs2_b22:
  add x22, x22, x22 # perform operation
    42c8:	016b0b33          	add	x22,x22,x22
  # Check if x22 contains the expected result. x6 is the signature ptr, x5 is the link ptr, x4 is a temp reg.
  RVTEST_SIGUPD(x6, x5, x4, x22, I_add_cg_cmp_rd_rs1_rs2_b22, I_add_cg_cmp_rd_rs1_rs2_b22_str)
    42cc:	00032203          	lw	x4,0(x6)
    42d0:	01620863          	beq	x4,x22,42e0 <I_add_cg_cmp_rd_rs1_rs2_b22+0x18>
    42d4:	1e8002ef          	jal	x5,44bc <failedtest_x5_x4>
    42d8:	000042c8          	.word	0x000042c8
    42dc:	0000edb4          	.word	0x0000edb4
    42e0:	00430313          	addi	x6,x6,4

# Testcase cmp_rd_rs1_rs2 (Test rd = rs1 = rs2 = x23)
  RVTEST_TESTDATA_LOAD_INT(x12, x23) # load rs1: x23 = 0xe97ad07f
    42e4:	00062b83          	lw	x23,0(x12)
    42e8:	00460613          	addi	x12,x12,4
  RVTEST_TESTDATA_LOAD_INT(x12, x23) # load rs2: x23 = 0xe39482df
    42ec:	00062b83          	lw	x23,0(x12)
    42f0:	00460613          	addi	x12,x12,4

000042f4 <I_add_cg_cmp_rd_rs1_rs2_b23>:
I_add_cg_cmp_rd_rs1_rs2_b23:
  add x23, x23, x23 # perform operation
    42f4:	017b8bb3          	add	x23,x23,x23
  # Check if x23 contains the expected result. x6 is the signature ptr, x5 is the link ptr, x4 is a temp reg.
  RVTEST_SIGUPD(x6, x5, x4, x23, I_add_cg_cmp_rd_rs1_rs2_b23, I_add_cg_cmp_rd_rs1_rs2_b23_str)
    42f8:	00032203          	lw	x4,0(x6)
    42fc:	01720863          	beq	x4,x23,430c <I_add_cg_cmp_rd_rs1_rs2_b23+0x18>
    4300:	1bc002ef          	jal	x5,44bc <failedtest_x5_x4>
    4304:	000042f4          	.word	0x000042f4
    4308:	0000edec          	.word	0x0000edec
    430c:	00430313          	addi	x6,x6,4

# Testcase cmp_rd_rs1_rs2 (Test rd = rs1 = rs2 = x24)
  RVTEST_TESTDATA_LOAD_INT(x12, x24) # load rs1: x24 = 0xc87316b1
    4310:	00062c03          	lw	x24,0(x12)
    4314:	00460613          	addi	x12,x12,4
  RVTEST_TESTDATA_LOAD_INT(x12, x24) # load rs2: x24 = 0xb8c8c322
    4318:	00062c03          	lw	x24,0(x12)
    431c:	00460613          	addi	x12,x12,4

00004320 <I_add_cg_cmp_rd_rs1_rs2_b24>:
I_add_cg_cmp_rd_rs1_rs2_b24:
  add x24, x24, x24 # perform operation
    4320:	018c0c33          	add	x24,x24,x24
  # Check if x24 contains the expected result. x6 is the signature ptr, x5 is the link ptr, x4 is a temp reg.
  RVTEST_SIGUPD(x6, x5, x4, x24, I_add_cg_cmp_rd_rs1_rs2_b24, I_add_cg_cmp_rd_rs1_rs2_b24_str)
    4324:	00032203          	lw	x4,0(x6)
    4328:	01820863          	beq	x4,x24,4338 <I_add_cg_cmp_rd_rs1_rs2_b24+0x18>
    432c:	190002ef          	jal	x5,44bc <failedtest_x5_x4>
    4330:	00004320          	.word	0x00004320
    4334:	0000ee24          	.word	0x0000ee24
    4338:	00430313          	addi	x6,x6,4

# Testcase cmp_rd_rs1_rs2 (Test rd = rs1 = rs2 = x25)
  RVTEST_TESTDATA_LOAD_INT(x12, x25) # load rs1: x25 = 0xbdc0a76c
    433c:	00062c83          	lw	x25,0(x12)
    4340:	00460613          	addi	x12,x12,4
  RVTEST_TESTDATA_LOAD_INT(x12, x25) # load rs2: x25 = 0x3c9cfdf3
    4344:	00062c83          	lw	x25,0(x12)
    4348:	00460613          	addi	x12,x12,4

0000434c <I_add_cg_cmp_rd_rs1_rs2_b25>:
I_add_cg_cmp_rd_rs1_rs2_b25:
  add x25, x25, x25 # perform operation
    434c:	019c8cb3          	add	x25,x25,x25
  # Check if x25 contains the expected result. x6 is the signature ptr, x5 is the link ptr, x4 is a temp reg.
  RVTEST_SIGUPD(x6, x5, x4, x25, I_add_cg_cmp_rd_rs1_rs2_b25, I_add_cg_cmp_rd_rs1_rs2_b25_str)
    4350:	00032203          	lw	x4,0(x6)
    4354:	01920863          	beq	x4,x25,4364 <I_add_cg_cmp_rd_rs1_rs2_b25+0x18>
    4358:	164002ef          	jal	x5,44bc <failedtest_x5_x4>
    435c:	0000434c          	.word	0x0000434c
    4360:	0000ee5c          	.word	0x0000ee5c
    4364:	00430313          	addi	x6,x6,4

# Testcase cmp_rd_rs1_rs2 (Test rd = rs1 = rs2 = x26)
  RVTEST_TESTDATA_LOAD_INT(x12, x26) # load rs1: x26 = 0xc719c7a5
    4368:	00062d03          	lw	x26,0(x12)
    436c:	00460613          	addi	x12,x12,4
  RVTEST_TESTDATA_LOAD_INT(x12, x26) # load rs2: x26 = 0x66154043
    4370:	00062d03          	lw	x26,0(x12)
    4374:	00460613          	addi	x12,x12,4

00004378 <I_add_cg_cmp_rd_rs1_rs2_b26>:
I_add_cg_cmp_rd_rs1_rs2_b26:
  add x26, x26, x26 # perform operation
    4378:	01ad0d33          	add	x26,x26,x26
  # Check if x26 contains the expected result. x6 is the signature ptr, x5 is the link ptr, x4 is a temp reg.
  RVTEST_SIGUPD(x6, x5, x4, x26, I_add_cg_cmp_rd_rs1_rs2_b26, I_add_cg_cmp_rd_rs1_rs2_b26_str)
    437c:	00032203          	lw	x4,0(x6)
    4380:	01a20863          	beq	x4,x26,4390 <I_add_cg_cmp_rd_rs1_rs2_b26+0x18>
    4384:	138002ef          	jal	x5,44bc <failedtest_x5_x4>
    4388:	00004378          	.word	0x00004378
    438c:	0000ee94          	.word	0x0000ee94
    4390:	00430313          	addi	x6,x6,4

# Testcase cmp_rd_rs1_rs2 (Test rd = rs1 = rs2 = x27)
  RVTEST_TESTDATA_LOAD_INT(x12, x27) # load rs1: x27 = 0xc9761a48
    4394:	00062d83          	lw	x27,0(x12)
    4398:	00460613          	addi	x12,x12,4
  RVTEST_TESTDATA_LOAD_INT(x12, x27) # load rs2: x27 = 0x454ed176
    439c:	00062d83          	lw	x27,0(x12)
    43a0:	00460613          	addi	x12,x12,4

000043a4 <I_add_cg_cmp_rd_rs1_rs2_b27>:
I_add_cg_cmp_rd_rs1_rs2_b27:
  add x27, x27, x27 # perform operation
    43a4:	01bd8db3          	add	x27,x27,x27
  # Check if x27 contains the expected result. x6 is the signature ptr, x5 is the link ptr, x4 is a temp reg.
  RVTEST_SIGUPD(x6, x5, x4, x27, I_add_cg_cmp_rd_rs1_rs2_b27, I_add_cg_cmp_rd_rs1_rs2_b27_str)
    43a8:	00032203          	lw	x4,0(x6)
    43ac:	01b20863          	beq	x4,x27,43bc <I_add_cg_cmp_rd_rs1_rs2_b27+0x18>
    43b0:	10c002ef          	jal	x5,44bc <failedtest_x5_x4>
    43b4:	000043a4          	.word	0x000043a4
    43b8:	0000eecc          	.word	0x0000eecc
    43bc:	00430313          	addi	x6,x6,4

# Testcase cmp_rd_rs1_rs2 (Test rd = rs1 = rs2 = x28)
  RVTEST_TESTDATA_LOAD_INT(x12, x28) # load rs1: x28 = 0x4e54e998
    43c0:	00062e03          	lw	x28,0(x12)
    43c4:	00460613          	addi	x12,x12,4
  RVTEST_TESTDATA_LOAD_INT(x12, x28) # load rs2: x28 = 0xff10bb19
    43c8:	00062e03          	lw	x28,0(x12)
    43cc:	00460613          	addi	x12,x12,4

000043d0 <I_add_cg_cmp_rd_rs1_rs2_b28>:
I_add_cg_cmp_rd_rs1_rs2_b28:
  add x28, x28, x28 # perform operation
    43d0:	01ce0e33          	add	x28,x28,x28
  # Check if x28 contains the expected result. x6 is the signature ptr, x5 is the link ptr, x4 is a temp reg.
  RVTEST_SIGUPD(x6, x5, x4, x28, I_add_cg_cmp_rd_rs1_rs2_b28, I_add_cg_cmp_rd_rs1_rs2_b28_str)
    43d4:	00032203          	lw	x4,0(x6)
    43d8:	01c20863          	beq	x4,x28,43e8 <I_add_cg_cmp_rd_rs1_rs2_b28+0x18>
    43dc:	0e0002ef          	jal	x5,44bc <failedtest_x5_x4>
    43e0:	000043d0          	.word	0x000043d0
    43e4:	0000ef04          	.word	0x0000ef04
    43e8:	00430313          	addi	x6,x6,4

# Testcase cmp_rd_rs1_rs2 (Test rd = rs1 = rs2 = x29)
  RVTEST_TESTDATA_LOAD_INT(x12, x29) # load rs1: x29 = 0x04b9e694
    43ec:	00062e83          	lw	x29,0(x12)
    43f0:	00460613          	addi	x12,x12,4
  RVTEST_TESTDATA_LOAD_INT(x12, x29) # load rs2: x29 = 0xd9ddecd9
    43f4:	00062e83          	lw	x29,0(x12)
    43f8:	00460613          	addi	x12,x12,4

000043fc <I_add_cg_cmp_rd_rs1_rs2_b29>:
I_add_cg_cmp_rd_rs1_rs2_b29:
  add x29, x29, x29 # perform operation
    43fc:	01de8eb3          	add	x29,x29,x29
  # Check if x29 contains the expected result. x6 is the signature ptr, x5 is the link ptr, x4 is a temp reg.
  RVTEST_SIGUPD(x6, x5, x4, x29, I_add_cg_cmp_rd_rs1_rs2_b29, I_add_cg_cmp_rd_rs1_rs2_b29_str)
    4400:	00032203          	lw	x4,0(x6)
    4404:	01d20863          	beq	x4,x29,4414 <I_add_cg_cmp_rd_rs1_rs2_b29+0x18>
    4408:	0b4002ef          	jal	x5,44bc <failedtest_x5_x4>
    440c:	000043fc          	.word	0x000043fc
    4410:	0000ef3c          	.word	0x0000ef3c
    4414:	00430313          	addi	x6,x6,4

# Testcase cmp_rd_rs1_rs2 (Test rd = rs1 = rs2 = x30)
  RVTEST_TESTDATA_LOAD_INT(x12, x30) # load rs1: x30 = 0xd994fd0a
    4418:	00062f03          	lw	x30,0(x12)
    441c:	00460613          	addi	x12,x12,4
  RVTEST_TESTDATA_LOAD_INT(x12, x30) # load rs2: x30 = 0x8c404a65
    4420:	00062f03          	lw	x30,0(x12)
    4424:	00460613          	addi	x12,x12,4

00004428 <I_add_cg_cmp_rd_rs1_rs2_b30>:
I_add_cg_cmp_rd_rs1_rs2_b30:
  add x30, x30, x30 # perform operation
    4428:	01ef0f33          	add	x30,x30,x30
  # Check if x30 contains the expected result. x6 is the signature ptr, x5 is the link ptr, x4 is a temp reg.
  RVTEST_SIGUPD(x6, x5, x4, x30, I_add_cg_cmp_rd_rs1_rs2_b30, I_add_cg_cmp_rd_rs1_rs2_b30_str)
    442c:	00032203          	lw	x4,0(x6)
    4430:	01e20863          	beq	x4,x30,4440 <I_add_cg_cmp_rd_rs1_rs2_b30+0x18>
    4434:	088002ef          	jal	x5,44bc <failedtest_x5_x4>
    4438:	00004428          	.word	0x00004428
    443c:	0000ef74          	.word	0x0000ef74
    4440:	00430313          	addi	x6,x6,4

# Testcase cmp_rd_rs1_rs2 (Test rd = rs1 = rs2 = x31)
  RVTEST_TESTDATA_LOAD_INT(x12, x31) # load rs1: x31 = 0x353c07f2
    4444:	00062f83          	lw	x31,0(x12)
    4448:	00460613          	addi	x12,x12,4
  RVTEST_TESTDATA_LOAD_INT(x12, x31) # load rs2: x31 = 0x54308b8f
    444c:	00062f83          	lw	x31,0(x12)
    4450:	00460613          	addi	x12,x12,4

00004454 <I_add_cg_cmp_rd_rs1_rs2_b31>:
I_add_cg_cmp_rd_rs1_rs2_b31:
  add x31, x31, x31 # perform operation
    4454:	01ff8fb3          	add	x31,x31,x31
  # Check if x31 contains the expected result. x6 is the signature ptr, x5 is the link ptr, x4 is a temp reg.
  RVTEST_SIGUPD(x6, x5, x4, x31, I_add_cg_cmp_rd_rs1_rs2_b31, I_add_cg_cmp_rd_rs1_rs2_b31_str)
    4458:	00032203          	lw	x4,0(x6)
    445c:	01f20863          	beq	x4,x31,446c <I_add_cg_cmp_rd_rs1_rs2_b31+0x18>
    4460:	05c002ef          	jal	x5,44bc <failedtest_x5_x4>
    4464:	00004454          	.word	0x00004454
    4468:	0000efac          	.word	0x0000efac
    446c:	00430313          	addi	x6,x6,4

  mv x2, x6 # restore signature pointer to default register for teardown
    4470:	00030113          	addi	x2,x6,0

00004474 <cleanup_epilogs>:
    4474:	00000013          	addi	x0,x0,0
    4478:	00000013          	addi	x0,x0,0
    447c:	00000013          	addi	x0,x0,0

// Instantiate trap handlers and other epilog code, call RVMODEL_HALT at end of test
RVTEST_CODE_END
    4480:	0000b517          	auipc	x10,0xb
    4484:	1d450513          	addi	x10,x10,468 # f654 <successstr>
    4488:	00000013          	addi	x0,x0,0
    448c:	00000013          	addi	x0,x0,0
    4490:	00000013          	addi	x0,x0,0
    4494:	00000013          	addi	x0,x0,0
    4498:	00000013          	addi	x0,x0,0
    449c:	00000013          	addi	x0,x0,0
    44a0:	0001c097          	auipc	x1,0x1c
    44a4:	d64080e7          	jalr	x1,-668(x1) # 20204 <rvmodel_io_write_str>
    44a8:	0001c097          	auipc	x1,0x1c
    44ac:	d60080e7          	jalr	x1,-672(x1) # 20208 <rvmodel_halt_pass>

000044b0 <abort_test>:
    44b0:	bad0e737          	lui	x14,0xbad0e
    44b4:	ead70713          	addi	x14,x14,-339 # bad0dead <absimm+0x4b743ba4>
    44b8:	fbdff06f          	jal	x0,4474 <cleanup_epilogs>

000044bc <failedtest_x5_x4>:
    44bc:	0000b217          	auipc	x4,0xb
    44c0:	b3420213          	addi	x4,x4,-1228 # eff0 <begin_failure_scratch>
    44c4:	02522423          	sw	x5,40(x4) # 28 <MMODE_SIG+0x25>
    44c8:	00122423          	sw	x1,8(x4) # 8 <MMODE_SIG+0x5>
    44cc:	00022023          	sw	x0,0(x4) # 0 <rvtest_entry_point>
    44d0:	0b00006f          	jal	x0,4580 <failedtest_saveregs>

000044d4 <failedtest_x8_x7>:
    44d4:	0000b397          	auipc	x7,0xb
    44d8:	b1c38393          	addi	x7,x7,-1252 # eff0 <begin_failure_scratch>
    44dc:	0483a023          	sw	x8,64(x7)
    44e0:	0243a023          	sw	x4,32(x7)
    44e4:	0253a423          	sw	x5,40(x7)
    44e8:	0013a423          	sw	x1,8(x7)
    44ec:	0003a023          	sw	x0,0(x7)
    44f0:	00038213          	addi	x4,x7,0
    44f4:	00040293          	addi	x5,x8,0
    44f8:	0880006f          	jal	x0,4580 <failedtest_saveregs>

000044fc <failedtest_x14_x13>:
    44fc:	0000b697          	auipc	x13,0xb
    4500:	af468693          	addi	x13,x13,-1292 # eff0 <begin_failure_scratch>
    4504:	06e6a823          	sw	x14,112(x13)
    4508:	0246a023          	sw	x4,32(x13)
    450c:	0256a423          	sw	x5,40(x13)
    4510:	0016a423          	sw	x1,8(x13)
    4514:	0006a023          	sw	x0,0(x13)
    4518:	00068213          	addi	x4,x13,0
    451c:	00070293          	addi	x5,x14,0
    4520:	0600006f          	jal	x0,4580 <failedtest_saveregs>

00004524 <failedtest_trap_x7_x9>:
    4524:	0000b497          	auipc	x9,0xb
    4528:	acc48493          	addi	x9,x9,-1332 # eff0 <begin_failure_scratch>
    452c:	0674a423          	sw	x7,104(x9)
    4530:	0244a023          	sw	x4,32(x9)
    4534:	0254a423          	sw	x5,40(x9)
    4538:	0014a423          	sw	x1,8(x9)
    453c:	00300093          	addi	x1,x0,3
    4540:	0014a023          	sw	x1,0(x9)
    4544:	00048213          	addi	x4,x9,0
    4548:	00038293          	addi	x5,x7,0
    454c:	342020f3          	csrrs	x1,mcause,x0
    4550:	0000b497          	auipc	x9,0xb
    4554:	c1048493          	addi	x9,x9,-1008 # f160 <saved_mcause>
    4558:	0014a023          	sw	x1,0(x9)
    455c:	343020f3          	csrrs	x1,mtval,x0
    4560:	0000b497          	auipc	x9,0xb
    4564:	c0848493          	addi	x9,x9,-1016 # f168 <saved_mtval>
    4568:	0014a023          	sw	x1,0(x9)
    456c:	300020f3          	csrrs	x1,mstatus,x0
    4570:	0000b497          	auipc	x9,0xb
    4574:	c0048493          	addi	x9,x9,-1024 # f170 <saved_mstatus>
    4578:	0014a023          	sw	x1,0(x9)
    457c:	0040006f          	jal	x0,4580 <failedtest_saveregs>

00004580 <failedtest_saveregs>:
    4580:	00222823          	sw	x2,16(x4) # 10 <MMODE_SIG+0xd>
    4584:	00322c23          	sw	x3,24(x4) # 18 <MMODE_SIG+0x15>
    4588:	02622823          	sw	x6,48(x4) # 30 <MMODE_SIG+0x2d>
    458c:	02722c23          	sw	x7,56(x4) # 38 <MMODE_SIG+0x35>
    4590:	04822023          	sw	x8,64(x4) # 40 <rvtest_code_begin>
    4594:	04922423          	sw	x9,72(x4) # 48 <rvtest_code_begin+0x8>
    4598:	04a22823          	sw	x10,80(x4) # 50 <I_add_cg_cp_rs1_b0>
    459c:	04b22c23          	sw	x11,88(x4) # 58 <I_add_cg_cp_rs1_b0+0x8>
    45a0:	06c22023          	sw	x12,96(x4) # 60 <I_add_cg_cp_rs1_b0+0x10>
    45a4:	06d22423          	sw	x13,104(x4) # 68 <I_add_cg_cp_rs1_b0+0x18>
    45a8:	06e22823          	sw	x14,112(x4) # 70 <I_add_cg_cp_rs1_b0+0x20>
    45ac:	06f22c23          	sw	x15,120(x4) # 78 <I_add_cg_cp_rs1_b0+0x28>
    45b0:	09022023          	sw	x16,128(x4) # 80 <I_add_cg_cp_rs1_b1+0x4>
    45b4:	09122423          	sw	x17,136(x4) # 88 <I_add_cg_cp_rs1_b1+0xc>
    45b8:	09222823          	sw	x18,144(x4) # 90 <I_add_cg_cp_rs1_b1+0x14>
    45bc:	09322c23          	sw	x19,152(x4) # 98 <I_add_cg_cp_rs1_b1+0x1c>
    45c0:	0b422023          	sw	x20,160(x4) # a0 <I_add_cg_cp_rs1_b1+0x24>
    45c4:	0b522423          	sw	x21,168(x4) # a8 <I_add_cg_cp_rs1_b1+0x2c>
    45c8:	0b622823          	sw	x22,176(x4) # b0 <I_add_cg_cp_rs1_b2+0x4>
    45cc:	0b722c23          	sw	x23,184(x4) # b8 <I_add_cg_cp_rs1_b2+0xc>
    45d0:	0d822023          	sw	x24,192(x4) # c0 <I_add_cg_cp_rs1_b2+0x14>
    45d4:	0d922423          	sw	x25,200(x4) # c8 <I_add_cg_cp_rs1_b2+0x1c>
    45d8:	0da22823          	sw	x26,208(x4) # d0 <I_add_cg_cp_rs1_b2+0x24>
    45dc:	0db22c23          	sw	x27,216(x4) # d8 <I_add_cg_cp_rs1_b2+0x2c>
    45e0:	0fc22023          	sw	x28,224(x4) # e0 <I_add_cg_cp_rs1_b3+0x4>
    45e4:	0fd22423          	sw	x29,232(x4) # e8 <I_add_cg_cp_rs1_b3+0xc>
    45e8:	0fe22823          	sw	x30,240(x4) # f0 <I_add_cg_cp_rs1_b3+0x14>
    45ec:	0ff22c23          	sw	x31,248(x4) # f8 <I_add_cg_cp_rs1_b3+0x1c>

000045f0 <failedtest_saveresults>:
    45f0:	0000b497          	auipc	x9,0xb
    45f4:	a004a483          	lw	x9,-1536(x9) # eff0 <begin_failure_scratch>
    45f8:	00300513          	addi	x10,x0,3
    45fc:	06a48863          	beq	x9,x10,466c <failedtest_saveresults_trap>

00004600 <failedtest_saveresults_int>:
    4600:	ffa2d303          	lhu	x6,-6(x5)
    4604:	ff82d383          	lhu	x7,-8(x5)
    4608:	01031313          	slli	x6,x6,0x10
    460c:	00736333          	or	x6,x6,x7
    4610:	00f35393          	srli	x7,x6,0xf
    4614:	01f3f393          	andi	x7,x7,31
    4618:	01435413          	srli	x8,x6,0x14
    461c:	01f47413          	andi	x8,x8,31
    4620:	10822223          	sw	x8,260(x4) # 104 <I_add_cg_cp_rs1_b3+0x28>
    4624:	00341313          	slli	x6,x8,0x3
    4628:	00620333          	add	x6,x4,x6
    462c:	00032303          	lw	x6,0(x6)
    4630:	10622823          	sw	x6,272(x4) # 110 <I_add_cg_cp_rs1_b4>
    4634:	ff62d303          	lhu	x6,-10(x5)
    4638:	ff42d383          	lhu	x7,-12(x5)
    463c:	01031313          	slli	x6,x6,0x10
    4640:	00736333          	or	x6,x6,x7
    4644:	41435393          	srai	x7,x6,0x14
    4648:	00f35313          	srli	x6,x6,0xf
    464c:	01f37313          	andi	x6,x6,31
    4650:	00331313          	slli	x6,x6,0x3
    4654:	00620333          	add	x6,x4,x6
    4658:	00032303          	lw	x6,0(x6)
    465c:	00730333          	add	x6,x6,x7
    4660:	00032303          	lw	x6,0(x6)
    4664:	10622c23          	sw	x6,280(x4) # 118 <I_add_cg_cp_rs1_b4+0x8>
    4668:	3d80006f          	jal	x0,4a40 <failedtest_saveresults_common>

0000466c <failedtest_saveresults_trap>:
    466c:	0042a303          	lw	x6,4(x5)
    4670:	0000b817          	auipc	x16,0xb
    4674:	ad880813          	addi	x16,x16,-1320 # f148 <trap_diag_fail_str_ptr>
    4678:	00682023          	sw	x6,0(x16)
    467c:	0002a303          	lw	x6,0(x5)
    4680:	10622423          	sw	x6,264(x4) # 108 <I_add_cg_cp_rs1_b3+0x2c>
    4684:	0000b817          	auipc	x16,0xb
    4688:	ac480813          	addi	x16,x16,-1340 # f148 <trap_diag_fail_str_ptr>
    468c:	00082303          	lw	x6,0(x16)
    4690:	0000b397          	auipc	x7,0xb
    4694:	18a38393          	addi	x7,x7,394 # f81a <trap_sig_offset_mismatch>
    4698:	28730463          	beq	x6,x7,4920 <trap_diag_offset_mismatch>
    469c:	00000413          	addi	x8,x0,0
    46a0:	0000b817          	auipc	x16,0xb
    46a4:	a8080813          	addi	x16,x16,-1408 # f120 <trap_diag_subtype>
    46a8:	00882023          	sw	x8,0(x16)
    46ac:	0000b397          	auipc	x7,0xb
    46b0:	1d238393          	addi	x7,x7,466 # f87e <sv_Mvect_str>
    46b4:	00731863          	bne	x6,x7,46c4 <failedtest_saveresults_trap+0x58>
    46b8:	00100413          	addi	x8,x0,1
    46bc:	00000493          	addi	x9,x0,0
    46c0:	2e00006f          	jal	x0,49a0 <trap_diag_field_identified>
    46c4:	0000b397          	auipc	x7,0xb
    46c8:	2bc38393          	addi	x7,x7,700 # f980 <sv_Mcause_str>
    46cc:	00731863          	bne	x6,x7,46dc <failedtest_saveresults_trap+0x70>
    46d0:	00200413          	addi	x8,x0,2
    46d4:	00000493          	addi	x9,x0,0
    46d8:	2c80006f          	jal	x0,49a0 <trap_diag_field_identified>
    46dc:	0000b397          	auipc	x7,0xb
    46e0:	39f38393          	addi	x7,x7,927 # fa7b <sv_Mepc_str>
    46e4:	00731863          	bne	x6,x7,46f4 <failedtest_saveresults_trap+0x88>
    46e8:	00300413          	addi	x8,x0,3
    46ec:	00000493          	addi	x9,x0,0
    46f0:	2b00006f          	jal	x0,49a0 <trap_diag_field_identified>
    46f4:	0000b397          	auipc	x7,0xb
    46f8:	47a38393          	addi	x7,x7,1146 # fb6e <sv_Mtval_str>
    46fc:	00731863          	bne	x6,x7,470c <failedtest_saveresults_trap+0xa0>
    4700:	00400413          	addi	x8,x0,4
    4704:	00000493          	addi	x9,x0,0
    4708:	2980006f          	jal	x0,49a0 <trap_diag_field_identified>
    470c:	0000b397          	auipc	x7,0xb
    4710:	5d538393          	addi	x7,x7,1493 # fce1 <sv_Mip_str>
    4714:	00731863          	bne	x6,x7,4724 <failedtest_saveresults_trap+0xb8>
    4718:	00500413          	addi	x8,x0,5
    471c:	00000493          	addi	x9,x0,0
    4720:	2800006f          	jal	x0,49a0 <trap_diag_field_identified>
    4724:	0000b397          	auipc	x7,0xb
    4728:	54138393          	addi	x7,x7,1345 # fc65 <sv_Mtval2_str>
    472c:	00731863          	bne	x6,x7,473c <failedtest_saveresults_trap+0xd0>
    4730:	00600413          	addi	x8,x0,6
    4734:	00000493          	addi	x9,x0,0
    4738:	2680006f          	jal	x0,49a0 <trap_diag_field_identified>
    473c:	0000b397          	auipc	x7,0xb
    4740:	56738393          	addi	x7,x7,1383 # fca3 <sv_Mtinst_str>
    4744:	00731863          	bne	x6,x7,4754 <failedtest_saveresults_trap+0xe8>
    4748:	00700413          	addi	x8,x0,7
    474c:	00000493          	addi	x9,x0,0
    4750:	2500006f          	jal	x0,49a0 <trap_diag_field_identified>
    4754:	0000b397          	auipc	x7,0xb
    4758:	16a38393          	addi	x7,x7,362 # f8be <sv_Svect_str>
    475c:	00731863          	bne	x6,x7,476c <failedtest_saveresults_trap+0x100>
    4760:	00100413          	addi	x8,x0,1
    4764:	00100493          	addi	x9,x0,1
    4768:	2380006f          	jal	x0,49a0 <trap_diag_field_identified>
    476c:	0000b397          	auipc	x7,0xb
    4770:	25238393          	addi	x7,x7,594 # f9be <sv_Scause_str>
    4774:	00731863          	bne	x6,x7,4784 <failedtest_saveresults_trap+0x118>
    4778:	00200413          	addi	x8,x0,2
    477c:	00100493          	addi	x9,x0,1
    4780:	2200006f          	jal	x0,49a0 <trap_diag_field_identified>
    4784:	0000b397          	auipc	x7,0xb
    4788:	33338393          	addi	x7,x7,819 # fab7 <sv_Sepc_str>
    478c:	00731863          	bne	x6,x7,479c <failedtest_saveresults_trap+0x130>
    4790:	00300413          	addi	x8,x0,3
    4794:	00100493          	addi	x9,x0,1
    4798:	2080006f          	jal	x0,49a0 <trap_diag_field_identified>
    479c:	0000b397          	auipc	x7,0xb
    47a0:	40f38393          	addi	x7,x7,1039 # fbab <sv_Stval_str>
    47a4:	00731863          	bne	x6,x7,47b4 <failedtest_saveresults_trap+0x148>
    47a8:	00400413          	addi	x8,x0,4
    47ac:	00100493          	addi	x9,x0,1
    47b0:	1f00006f          	jal	x0,49a0 <trap_diag_field_identified>
    47b4:	0000b397          	auipc	x7,0xb
    47b8:	56838393          	addi	x7,x7,1384 # fd1c <sv_Sip_str>
    47bc:	00731863          	bne	x6,x7,47cc <failedtest_saveresults_trap+0x160>
    47c0:	00500413          	addi	x8,x0,5
    47c4:	00100493          	addi	x9,x0,1
    47c8:	1d80006f          	jal	x0,49a0 <trap_diag_field_identified>
    47cc:	0000b397          	auipc	x7,0xb
    47d0:	13238393          	addi	x7,x7,306 # f8fe <sv_Hvect_str>
    47d4:	00731863          	bne	x6,x7,47e4 <failedtest_saveresults_trap+0x178>
    47d8:	00100413          	addi	x8,x0,1
    47dc:	00200493          	addi	x9,x0,2
    47e0:	1c00006f          	jal	x0,49a0 <trap_diag_field_identified>
    47e4:	0000b397          	auipc	x7,0xb
    47e8:	21838393          	addi	x7,x7,536 # f9fc <sv_Hcause_str>
    47ec:	00731863          	bne	x6,x7,47fc <failedtest_saveresults_trap+0x190>
    47f0:	00200413          	addi	x8,x0,2
    47f4:	00200493          	addi	x9,x0,2
    47f8:	1a80006f          	jal	x0,49a0 <trap_diag_field_identified>
    47fc:	0000b397          	auipc	x7,0xb
    4800:	2f738393          	addi	x7,x7,759 # faf3 <sv_Hepc_str>
    4804:	00731863          	bne	x6,x7,4814 <failedtest_saveresults_trap+0x1a8>
    4808:	00300413          	addi	x8,x0,3
    480c:	00200493          	addi	x9,x0,2
    4810:	1900006f          	jal	x0,49a0 <trap_diag_field_identified>
    4814:	0000b397          	auipc	x7,0xb
    4818:	3d438393          	addi	x7,x7,980 # fbe8 <sv_Htval_str>
    481c:	00731863          	bne	x6,x7,482c <failedtest_saveresults_trap+0x1c0>
    4820:	00400413          	addi	x8,x0,4
    4824:	00200493          	addi	x9,x0,2
    4828:	1780006f          	jal	x0,49a0 <trap_diag_field_identified>
    482c:	0000b397          	auipc	x7,0xb
    4830:	52b38393          	addi	x7,x7,1323 # fd57 <sv_Hip_str>
    4834:	00731863          	bne	x6,x7,4844 <failedtest_saveresults_trap+0x1d8>
    4838:	00500413          	addi	x8,x0,5
    483c:	00200493          	addi	x9,x0,2
    4840:	1600006f          	jal	x0,49a0 <trap_diag_field_identified>
    4844:	0000b397          	auipc	x7,0xb
    4848:	0fb38393          	addi	x7,x7,251 # f93f <sv_Vvect_str>
    484c:	00731863          	bne	x6,x7,485c <failedtest_saveresults_trap+0x1f0>
    4850:	00100413          	addi	x8,x0,1
    4854:	00300493          	addi	x9,x0,3
    4858:	1480006f          	jal	x0,49a0 <trap_diag_field_identified>
    485c:	0000b397          	auipc	x7,0xb
    4860:	1df38393          	addi	x7,x7,479 # fa3b <sv_Vcause_str>
    4864:	00731863          	bne	x6,x7,4874 <failedtest_saveresults_trap+0x208>
    4868:	00200413          	addi	x8,x0,2
    486c:	00300493          	addi	x9,x0,3
    4870:	1300006f          	jal	x0,49a0 <trap_diag_field_identified>
    4874:	0000b397          	auipc	x7,0xb
    4878:	2bc38393          	addi	x7,x7,700 # fb30 <sv_Vepc_str>
    487c:	00731863          	bne	x6,x7,488c <failedtest_saveresults_trap+0x220>
    4880:	00300413          	addi	x8,x0,3
    4884:	00300493          	addi	x9,x0,3
    4888:	1180006f          	jal	x0,49a0 <trap_diag_field_identified>
    488c:	0000b397          	auipc	x7,0xb
    4890:	39a38393          	addi	x7,x7,922 # fc26 <sv_Vtval_str>
    4894:	00731863          	bne	x6,x7,48a4 <failedtest_saveresults_trap+0x238>
    4898:	00400413          	addi	x8,x0,4
    489c:	00300493          	addi	x9,x0,3
    48a0:	1000006f          	jal	x0,49a0 <trap_diag_field_identified>
    48a4:	0000b397          	auipc	x7,0xb
    48a8:	4ef38393          	addi	x7,x7,1263 # fd93 <sv_Vip_str>
    48ac:	00731863          	bne	x6,x7,48bc <failedtest_saveresults_trap+0x250>
    48b0:	00500413          	addi	x8,x0,5
    48b4:	00300493          	addi	x9,x0,3
    48b8:	0e80006f          	jal	x0,49a0 <trap_diag_field_identified>
    48bc:	0000b397          	auipc	x7,0xb
    48c0:	51438393          	addi	x7,x7,1300 # fdd0 <Mclr_Mext_int_str>
    48c4:	00731863          	bne	x6,x7,48d4 <failedtest_saveresults_trap+0x268>
    48c8:	00800413          	addi	x8,x0,8
    48cc:	00000493          	addi	x9,x0,0
    48d0:	0d00006f          	jal	x0,49a0 <trap_diag_field_identified>
    48d4:	0000b397          	auipc	x7,0xb
    48d8:	54b38393          	addi	x7,x7,1355 # fe1f <Mclr_Sext_int_str>
    48dc:	00731863          	bne	x6,x7,48ec <failedtest_saveresults_trap+0x280>
    48e0:	00800413          	addi	x8,x0,8
    48e4:	00000493          	addi	x9,x0,0
    48e8:	0b80006f          	jal	x0,49a0 <trap_diag_field_identified>
    48ec:	0000b397          	auipc	x7,0xb
    48f0:	62e38393          	addi	x7,x7,1582 # ff1a <Sclr_Sext_int_str>
    48f4:	00731863          	bne	x6,x7,4904 <failedtest_saveresults_trap+0x298>
    48f8:	00800413          	addi	x8,x0,8
    48fc:	00100493          	addi	x9,x0,1
    4900:	0a00006f          	jal	x0,49a0 <trap_diag_field_identified>
    4904:	0000b397          	auipc	x7,0xb
    4908:	71238393          	addi	x7,x7,1810 # 10016 <Hclr_Sext_int_str>
    490c:	00731863          	bne	x6,x7,491c <failedtest_saveresults_trap+0x2b0>
    4910:	00800413          	addi	x8,x0,8
    4914:	00200493          	addi	x9,x0,2
    4918:	0880006f          	jal	x0,49a0 <trap_diag_field_identified>
    491c:	1140006f          	jal	x0,4a30 <trap_diag_generic_report>

00004920 <trap_diag_offset_mismatch>:
    4920:	00900413          	addi	x8,x0,9
    4924:	0000a817          	auipc	x16,0xa
    4928:	7fc80813          	addi	x16,x16,2044 # f120 <trap_diag_subtype>
    492c:	00882023          	sw	x8,0(x16)
    4930:	ffa2d303          	lhu	x6,-6(x5)
    4934:	ff82d383          	lhu	x7,-8(x5)
    4938:	01031313          	slli	x6,x6,0x10
    493c:	00736333          	or	x6,x6,x7
    4940:	01435413          	srli	x8,x6,0x14
    4944:	01f47413          	andi	x8,x8,31
    4948:	00341313          	slli	x6,x8,0x3
    494c:	00620333          	add	x6,x4,x6
    4950:	00032303          	lw	x6,0(x6)
    4954:	0000a817          	auipc	x16,0xa
    4958:	7e480813          	addi	x16,x16,2020 # f138 <trap_diag_actual_offset>
    495c:	00682023          	sw	x6,0(x16)
    4960:	ff62d303          	lhu	x6,-10(x5)
    4964:	ff42d383          	lhu	x7,-12(x5)
    4968:	01031313          	slli	x6,x6,0x10
    496c:	00736333          	or	x6,x6,x7
    4970:	41435393          	srai	x7,x6,0x14
    4974:	00f35313          	srli	x6,x6,0xf
    4978:	01f37313          	andi	x6,x6,31
    497c:	00331313          	slli	x6,x6,0x3
    4980:	00620333          	add	x6,x4,x6
    4984:	00032303          	lw	x6,0(x6)
    4988:	00730333          	add	x6,x6,x7
    498c:	00032303          	lw	x6,0(x6)
    4990:	0000a817          	auipc	x16,0xa
    4994:	7b080813          	addi	x16,x16,1968 # f140 <trap_diag_expected_offset>
    4998:	00682023          	sw	x6,0(x16)
    499c:	0a40006f          	jal	x0,4a40 <failedtest_saveresults_common>

000049a0 <trap_diag_field_identified>:
    49a0:	0000a817          	auipc	x16,0xa
    49a4:	78080813          	addi	x16,x16,1920 # f120 <trap_diag_subtype>
    49a8:	00882023          	sw	x8,0(x16)
    49ac:	0000a817          	auipc	x16,0xa
    49b0:	77880813          	addi	x16,x16,1912 # f124 <trap_diag_mode>
    49b4:	00982023          	sw	x9,0(x16)
    49b8:	ffa2d303          	lhu	x6,-6(x5)
    49bc:	ff82d383          	lhu	x7,-8(x5)
    49c0:	01031313          	slli	x6,x6,0x10
    49c4:	00736333          	or	x6,x6,x7
    49c8:	01435713          	srli	x14,x6,0x14
    49cc:	01f77713          	andi	x14,x14,31
    49d0:	00371313          	slli	x6,x14,0x3
    49d4:	00620333          	add	x6,x4,x6
    49d8:	00032303          	lw	x6,0(x6)
    49dc:	10622823          	sw	x6,272(x4) # 110 <I_add_cg_cp_rs1_b4>
    49e0:	0000a817          	auipc	x16,0xa
    49e4:	74880813          	addi	x16,x16,1864 # f128 <trap_diag_actual_value>
    49e8:	00682023          	sw	x6,0(x16)
    49ec:	ff62d303          	lhu	x6,-10(x5)
    49f0:	ff42d383          	lhu	x7,-12(x5)
    49f4:	01031313          	slli	x6,x6,0x10
    49f8:	00736333          	or	x6,x6,x7
    49fc:	41435393          	srai	x7,x6,0x14
    4a00:	00f35313          	srli	x6,x6,0xf
    4a04:	01f37313          	andi	x6,x6,31
    4a08:	00331313          	slli	x6,x6,0x3
    4a0c:	00620333          	add	x6,x4,x6
    4a10:	00032303          	lw	x6,0(x6)
    4a14:	00730333          	add	x6,x6,x7
    4a18:	00032303          	lw	x6,0(x6)
    4a1c:	10622c23          	sw	x6,280(x4) # 118 <I_add_cg_cp_rs1_b4+0x8>
    4a20:	0000a817          	auipc	x16,0xa
    4a24:	71080813          	addi	x16,x16,1808 # f130 <trap_diag_expected_value>
    4a28:	00682023          	sw	x6,0(x16)
    4a2c:	0140006f          	jal	x0,4a40 <failedtest_saveresults_common>

00004a30 <trap_diag_generic_report>:
    4a30:	0000a817          	auipc	x16,0xa
    4a34:	6f080813          	addi	x16,x16,1776 # f120 <trap_diag_subtype>
    4a38:	00082023          	sw	x0,0(x16)
    4a3c:	0040006f          	jal	x0,4a40 <failedtest_saveresults_common>

00004a40 <failedtest_saveresults_common>:
    4a40:	0002a303          	lw	x6,0(x5)
    4a44:	10622423          	sw	x6,264(x4) # 108 <I_add_cg_cp_rs1_b3+0x2c>
    4a48:	00035383          	lhu	x7,0(x6)
    4a4c:	0033f413          	andi	x8,x7,3
    4a50:	00300493          	addi	x9,x0,3
    4a54:	00941863          	bne	x8,x9,4a64 <failedtest_saveresults_common+0x24>
    4a58:	00235403          	lhu	x8,2(x6)
    4a5c:	01041413          	slli	x8,x8,0x10
    4a60:	0083e3b3          	or	x7,x7,x8
    4a64:	10722023          	sw	x7,256(x4) # 100 <I_add_cg_cp_rs1_b3+0x24>
    4a68:	0042a303          	lw	x6,4(x5)
    4a6c:	12622023          	sw	x6,288(x4) # 120 <I_add_cg_cp_rs1_b4+0x10>

00004a70 <failedtest_report>:
    4a70:	00000013          	addi	x0,x0,0
    4a74:	00000013          	addi	x0,x0,0
    4a78:	00000013          	addi	x0,x0,0
    4a7c:	00000013          	addi	x0,x0,0
    4a80:	0000b517          	auipc	x10,0xb
    4a84:	c0a50513          	addi	x10,x10,-1014 # f68a <failstr>
    4a88:	00000013          	addi	x0,x0,0
    4a8c:	00000013          	addi	x0,x0,0
    4a90:	00000013          	addi	x0,x0,0
    4a94:	00000013          	addi	x0,x0,0
    4a98:	00000013          	addi	x0,x0,0
    4a9c:	00000013          	addi	x0,x0,0
    4aa0:	0001b097          	auipc	x1,0x1b
    4aa4:	764080e7          	jalr	x1,1892(x1) # 20204 <rvmodel_io_write_str>

00004aa8 <print_testnamestr>:
    4aa8:	00000013          	addi	x0,x0,0
    4aac:	00000013          	addi	x0,x0,0
    4ab0:	00000013          	addi	x0,x0,0
    4ab4:	00000013          	addi	x0,x0,0
    4ab8:	00000013          	addi	x0,x0,0
    4abc:	00000013          	addi	x0,x0,0
    4ac0:	0000b517          	auipc	x10,0xb
    4ac4:	c5d50513          	addi	x10,x10,-931 # f71d <testnamestr>
    4ac8:	00000013          	addi	x0,x0,0
    4acc:	00000013          	addi	x0,x0,0
    4ad0:	00000013          	addi	x0,x0,0
    4ad4:	00000013          	addi	x0,x0,0
    4ad8:	00000013          	addi	x0,x0,0
    4adc:	00000013          	addi	x0,x0,0
    4ae0:	0001b097          	auipc	x1,0x1b
    4ae4:	724080e7          	jalr	x1,1828(x1) # 20204 <rvmodel_io_write_str>

00004ae8 <print_failure_test_name_str>:
    4ae8:	0000a517          	auipc	x10,0xa
    4aec:	62852503          	lw	x10,1576(x10) # f110 <failure_string_ptr>
    4af0:	0001b097          	auipc	x1,0x1b
    4af4:	714080e7          	jalr	x1,1812(x1) # 20204 <rvmodel_io_write_str>

00004af8 <print_newline_str>:
    4af8:	00000013          	addi	x0,x0,0
    4afc:	00000013          	addi	x0,x0,0
    4b00:	0000b517          	auipc	x10,0xb
    4b04:	c2f50513          	addi	x10,x10,-977 # f72f <newlinestr>
    4b08:	00000013          	addi	x0,x0,0
    4b0c:	00000013          	addi	x0,x0,0
    4b10:	00000013          	addi	x0,x0,0
    4b14:	00000013          	addi	x0,x0,0
    4b18:	00000013          	addi	x0,x0,0
    4b1c:	00000013          	addi	x0,x0,0
    4b20:	0001b097          	auipc	x1,0x1b
    4b24:	6e4080e7          	jalr	x1,1764(x1) # 20204 <rvmodel_io_write_str>
    4b28:	0000a517          	auipc	x10,0xa
    4b2c:	4c852503          	lw	x10,1224(x10) # eff0 <begin_failure_scratch>
    4b30:	00300593          	addi	x11,x0,3
    4b34:	3eb50c63          	beq	x10,x11,4f2c <failedtest_report_trap_detailed>
    4b38:	00000013          	addi	x0,x0,0
    4b3c:	00000013          	addi	x0,x0,0
    4b40:	0000b517          	auipc	x10,0xb
    4b44:	bf150513          	addi	x10,x10,-1039 # f731 <inststr>
    4b48:	00000013          	addi	x0,x0,0
    4b4c:	00000013          	addi	x0,x0,0
    4b50:	00000013          	addi	x0,x0,0
    4b54:	00000013          	addi	x0,x0,0
    4b58:	00000013          	addi	x0,x0,0
    4b5c:	00000013          	addi	x0,x0,0
    4b60:	0001b097          	auipc	x1,0x1b
    4b64:	6a4080e7          	jalr	x1,1700(x1) # 20204 <rvmodel_io_write_str>
    4b68:	0000a517          	auipc	x10,0xa
    4b6c:	58852503          	lw	x10,1416(x10) # f0f0 <failing_instruction>
    4b70:	02000593          	addi	x11,x0,32
    4b74:	00357613          	andi	x12,x10,3
    4b78:	00300693          	addi	x13,x0,3
    4b7c:	00d60463          	beq	x12,x13,4b84 <print_newline_str+0x8c>
    4b80:	01000593          	addi	x11,x0,16
    4b84:	2f4010ef          	jal	x1,5e78 <failedtest_hex_to_str>
    4b88:	00000013          	addi	x0,x0,0
    4b8c:	00000013          	addi	x0,x0,0
    4b90:	00000013          	addi	x0,x0,0
    4b94:	00000013          	addi	x0,x0,0
    4b98:	00000013          	addi	x0,x0,0
    4b9c:	00000013          	addi	x0,x0,0
    4ba0:	0000a517          	auipc	x10,0xa
    4ba4:	5d850513          	addi	x10,x10,1496 # f178 <ascii_buffer>
    4ba8:	00000013          	addi	x0,x0,0
    4bac:	00000013          	addi	x0,x0,0
    4bb0:	00000013          	addi	x0,x0,0
    4bb4:	00000013          	addi	x0,x0,0
    4bb8:	00000013          	addi	x0,x0,0
    4bbc:	00000013          	addi	x0,x0,0
    4bc0:	0001b097          	auipc	x1,0x1b
    4bc4:	644080e7          	jalr	x1,1604(x1) # 20204 <rvmodel_io_write_str>
    4bc8:	00000013          	addi	x0,x0,0
    4bcc:	00000013          	addi	x0,x0,0
    4bd0:	00000013          	addi	x0,x0,0
    4bd4:	00000013          	addi	x0,x0,0
    4bd8:	00000013          	addi	x0,x0,0
    4bdc:	00000013          	addi	x0,x0,0
    4be0:	0000b517          	auipc	x10,0xb
    4be4:	b6550513          	addi	x10,x10,-1179 # f745 <addrstr>
    4be8:	00000013          	addi	x0,x0,0
    4bec:	00000013          	addi	x0,x0,0
    4bf0:	00000013          	addi	x0,x0,0
    4bf4:	00000013          	addi	x0,x0,0
    4bf8:	00000013          	addi	x0,x0,0
    4bfc:	00000013          	addi	x0,x0,0
    4c00:	0001b097          	auipc	x1,0x1b
    4c04:	604080e7          	jalr	x1,1540(x1) # 20204 <rvmodel_io_write_str>
    4c08:	0000a517          	auipc	x10,0xa
    4c0c:	4f052503          	lw	x10,1264(x10) # f0f8 <failing_addr>
    4c10:	02000593          	addi	x11,x0,32
    4c14:	264010ef          	jal	x1,5e78 <failedtest_hex_to_str>
    4c18:	00000013          	addi	x0,x0,0
    4c1c:	00000013          	addi	x0,x0,0
    4c20:	0000a517          	auipc	x10,0xa
    4c24:	55850513          	addi	x10,x10,1368 # f178 <ascii_buffer>
    4c28:	00000013          	addi	x0,x0,0
    4c2c:	00000013          	addi	x0,x0,0
    4c30:	00000013          	addi	x0,x0,0
    4c34:	00000013          	addi	x0,x0,0
    4c38:	00000013          	addi	x0,x0,0
    4c3c:	00000013          	addi	x0,x0,0
    4c40:	0001b097          	auipc	x1,0x1b
    4c44:	5c4080e7          	jalr	x1,1476(x1) # 20204 <rvmodel_io_write_str>
    4c48:	00000013          	addi	x0,x0,0
    4c4c:	00000013          	addi	x0,x0,0
    4c50:	00000013          	addi	x0,x0,0
    4c54:	00000013          	addi	x0,x0,0
    4c58:	00000013          	addi	x0,x0,0
    4c5c:	00000013          	addi	x0,x0,0
    4c60:	0000b517          	auipc	x10,0xb
    4c64:	56250513          	addi	x10,x10,1378 # 101c2 <regstr>
    4c68:	00000013          	addi	x0,x0,0
    4c6c:	00000013          	addi	x0,x0,0
    4c70:	00000013          	addi	x0,x0,0
    4c74:	00000013          	addi	x0,x0,0
    4c78:	00000013          	addi	x0,x0,0
    4c7c:	00000013          	addi	x0,x0,0
    4c80:	0001b097          	auipc	x1,0x1b
    4c84:	584080e7          	jalr	x1,1412(x1) # 20204 <rvmodel_io_write_str>
    4c88:	0000a517          	auipc	x10,0xa
    4c8c:	36852503          	lw	x10,872(x10) # eff0 <begin_failure_scratch>
    4c90:	00050663          	beq	x10,x0,4c9c <print_newline_str+0x1a4>
    4c94:	00300593          	addi	x11,x0,3
    4c98:	04b51063          	bne	x10,x11,4cd8 <failedtest_report_not_intreg>
    4c9c:	07800593          	addi	x11,x0,120
    4ca0:	0000a617          	auipc	x12,0xa
    4ca4:	4d860613          	addi	x12,x12,1240 # f178 <ascii_buffer>
    4ca8:	00000013          	addi	x0,x0,0
    4cac:	00000013          	addi	x0,x0,0
    4cb0:	00000013          	addi	x0,x0,0
    4cb4:	00000013          	addi	x0,x0,0
    4cb8:	00000013          	addi	x0,x0,0
    4cbc:	00000013          	addi	x0,x0,0
    4cc0:	00b60023          	sb	x11,0(x12)
    4cc4:	00160613          	addi	x12,x12,1
    4cc8:	0000a517          	auipc	x10,0xa
    4ccc:	42c52503          	lw	x10,1068(x10) # f0f4 <failing_reg>
    4cd0:	224010ef          	jal	x1,5ef4 <failedtest_dec_to_str>
    4cd4:	0e00006f          	jal	x0,4db4 <failedtest_report_print_regstr>

00004cd8 <failedtest_report_not_intreg>:
    4cd8:	00100593          	addi	x11,x0,1
    4cdc:	04b50863          	beq	x10,x11,4d2c <failedtest_report_fpreg>
    4ce0:	00400593          	addi	x11,x0,4
    4ce4:	08b50a63          	beq	x10,x11,4d78 <failedtest_report_vecreg>
    4ce8:	00000013          	addi	x0,x0,0
    4cec:	00000013          	addi	x0,x0,0
    4cf0:	00000013          	addi	x0,x0,0
    4cf4:	00000013          	addi	x0,x0,0
    4cf8:	00000013          	addi	x0,x0,0
    4cfc:	00000013          	addi	x0,x0,0
    4d00:	0000b517          	auipc	x10,0xb
    4d04:	52250513          	addi	x10,x10,1314 # 10222 <fflagsstr>
    4d08:	00000013          	addi	x0,x0,0
    4d0c:	00000013          	addi	x0,x0,0
    4d10:	00000013          	addi	x0,x0,0
    4d14:	00000013          	addi	x0,x0,0
    4d18:	00000013          	addi	x0,x0,0
    4d1c:	00000013          	addi	x0,x0,0
    4d20:	0001b097          	auipc	x1,0x1b
    4d24:	4e4080e7          	jalr	x1,1252(x1) # 20204 <rvmodel_io_write_str>
    4d28:	0c00006f          	jal	x0,4de8 <failedtest_report_after_reg>

00004d2c <failedtest_report_fpreg>:
    4d2c:	06600593          	addi	x11,x0,102
    4d30:	00000013          	addi	x0,x0,0
    4d34:	00000013          	addi	x0,x0,0
    4d38:	00000013          	addi	x0,x0,0
    4d3c:	00000013          	addi	x0,x0,0
    4d40:	0000a617          	auipc	x12,0xa
    4d44:	43860613          	addi	x12,x12,1080 # f178 <ascii_buffer>
    4d48:	00000013          	addi	x0,x0,0
    4d4c:	00000013          	addi	x0,x0,0
    4d50:	00000013          	addi	x0,x0,0
    4d54:	00000013          	addi	x0,x0,0
    4d58:	00000013          	addi	x0,x0,0
    4d5c:	00000013          	addi	x0,x0,0
    4d60:	00b60023          	sb	x11,0(x12)
    4d64:	00160613          	addi	x12,x12,1
    4d68:	0000a517          	auipc	x10,0xa
    4d6c:	38c52503          	lw	x10,908(x10) # f0f4 <failing_reg>
    4d70:	184010ef          	jal	x1,5ef4 <failedtest_dec_to_str>
    4d74:	0400006f          	jal	x0,4db4 <failedtest_report_print_regstr>

00004d78 <failedtest_report_vecreg>:
    4d78:	07600593          	addi	x11,x0,118
    4d7c:	00000013          	addi	x0,x0,0
    4d80:	0000a617          	auipc	x12,0xa
    4d84:	3f860613          	addi	x12,x12,1016 # f178 <ascii_buffer>
    4d88:	00000013          	addi	x0,x0,0
    4d8c:	00000013          	addi	x0,x0,0
    4d90:	00000013          	addi	x0,x0,0
    4d94:	00000013          	addi	x0,x0,0
    4d98:	00000013          	addi	x0,x0,0
    4d9c:	00000013          	addi	x0,x0,0
    4da0:	00b60023          	sb	x11,0(x12)
    4da4:	00160613          	addi	x12,x12,1
    4da8:	0000a517          	auipc	x10,0xa
    4dac:	34c52503          	lw	x10,844(x10) # f0f4 <failing_reg>
    4db0:	144010ef          	jal	x1,5ef4 <failedtest_dec_to_str>

00004db4 <failedtest_report_print_regstr>:
    4db4:	00000013          	addi	x0,x0,0
    4db8:	00000013          	addi	x0,x0,0
    4dbc:	00000013          	addi	x0,x0,0
    4dc0:	0000a517          	auipc	x10,0xa
    4dc4:	3b850513          	addi	x10,x10,952 # f178 <ascii_buffer>
    4dc8:	00000013          	addi	x0,x0,0
    4dcc:	00000013          	addi	x0,x0,0
    4dd0:	00000013          	addi	x0,x0,0
    4dd4:	00000013          	addi	x0,x0,0
    4dd8:	00000013          	addi	x0,x0,0
    4ddc:	00000013          	addi	x0,x0,0
    4de0:	0001b097          	auipc	x1,0x1b
    4de4:	424080e7          	jalr	x1,1060(x1) # 20204 <rvmodel_io_write_str>

00004de8 <failedtest_report_after_reg>:
    4de8:	00000013          	addi	x0,x0,0
    4dec:	00000013          	addi	x0,x0,0
    4df0:	00000013          	addi	x0,x0,0
    4df4:	00000013          	addi	x0,x0,0
    4df8:	00000013          	addi	x0,x0,0
    4dfc:	00000013          	addi	x0,x0,0
    4e00:	0000b517          	auipc	x10,0xb
    4e04:	3d350513          	addi	x10,x10,979 # 101d3 <badvalstr>
    4e08:	00000013          	addi	x0,x0,0
    4e0c:	00000013          	addi	x0,x0,0
    4e10:	00000013          	addi	x0,x0,0
    4e14:	00000013          	addi	x0,x0,0
    4e18:	00000013          	addi	x0,x0,0
    4e1c:	00000013          	addi	x0,x0,0
    4e20:	0001b097          	auipc	x1,0x1b
    4e24:	3e4080e7          	jalr	x1,996(x1) # 20204 <rvmodel_io_write_str>
    4e28:	0000a517          	auipc	x10,0xa
    4e2c:	1c852503          	lw	x10,456(x10) # eff0 <begin_failure_scratch>
    4e30:	00100593          	addi	x11,x0,1
    4e34:	00b51c63          	bne	x10,x11,4e4c <failedtest_report_badval_not_fp>
    4e38:	0000a517          	auipc	x10,0xa
    4e3c:	2c852503          	lw	x10,712(x10) # f100 <failing_value>
    4e40:	02000593          	addi	x11,x0,32
    4e44:	034010ef          	jal	x1,5e78 <failedtest_hex_to_str>
    4e48:	0140006f          	jal	x0,4e5c <failedtest_report_badval_done>

00004e4c <failedtest_report_badval_not_fp>:
    4e4c:	0000a517          	auipc	x10,0xa
    4e50:	2b452503          	lw	x10,692(x10) # f100 <failing_value>
    4e54:	02000593          	addi	x11,x0,32
    4e58:	020010ef          	jal	x1,5e78 <failedtest_hex_to_str>

00004e5c <failedtest_report_badval_done>:
    4e5c:	00000013          	addi	x0,x0,0
    4e60:	0000a517          	auipc	x10,0xa
    4e64:	31850513          	addi	x10,x10,792 # f178 <ascii_buffer>
    4e68:	00000013          	addi	x0,x0,0
    4e6c:	00000013          	addi	x0,x0,0
    4e70:	00000013          	addi	x0,x0,0
    4e74:	00000013          	addi	x0,x0,0
    4e78:	00000013          	addi	x0,x0,0
    4e7c:	00000013          	addi	x0,x0,0
    4e80:	0001b097          	auipc	x1,0x1b
    4e84:	384080e7          	jalr	x1,900(x1) # 20204 <rvmodel_io_write_str>
    4e88:	00000013          	addi	x0,x0,0
    4e8c:	00000013          	addi	x0,x0,0
    4e90:	00000013          	addi	x0,x0,0
    4e94:	00000013          	addi	x0,x0,0
    4e98:	00000013          	addi	x0,x0,0
    4e9c:	00000013          	addi	x0,x0,0
    4ea0:	0000b517          	auipc	x10,0xb
    4ea4:	34a50513          	addi	x10,x10,842 # 101ea <expvalstr>
    4ea8:	00000013          	addi	x0,x0,0
    4eac:	00000013          	addi	x0,x0,0
    4eb0:	00000013          	addi	x0,x0,0
    4eb4:	00000013          	addi	x0,x0,0
    4eb8:	00000013          	addi	x0,x0,0
    4ebc:	00000013          	addi	x0,x0,0
    4ec0:	0001b097          	auipc	x1,0x1b
    4ec4:	344080e7          	jalr	x1,836(x1) # 20204 <rvmodel_io_write_str>
    4ec8:	0000a517          	auipc	x10,0xa
    4ecc:	12852503          	lw	x10,296(x10) # eff0 <begin_failure_scratch>
    4ed0:	00100593          	addi	x11,x0,1
    4ed4:	00b51c63          	bne	x10,x11,4eec <failedtest_report_expval_not_fp>
    4ed8:	0000a517          	auipc	x10,0xa
    4edc:	23052503          	lw	x10,560(x10) # f108 <expected_value>
    4ee0:	02000593          	addi	x11,x0,32
    4ee4:	795000ef          	jal	x1,5e78 <failedtest_hex_to_str>
    4ee8:	0140006f          	jal	x0,4efc <failedtest_report_expval_done>

00004eec <failedtest_report_expval_not_fp>:
    4eec:	0000a517          	auipc	x10,0xa
    4ef0:	21c52503          	lw	x10,540(x10) # f108 <expected_value>
    4ef4:	02000593          	addi	x11,x0,32
    4ef8:	781000ef          	jal	x1,5e78 <failedtest_hex_to_str>

00004efc <failedtest_report_expval_done>:
    4efc:	00000013          	addi	x0,x0,0
    4f00:	0000a517          	auipc	x10,0xa
    4f04:	27850513          	addi	x10,x10,632 # f178 <ascii_buffer>
    4f08:	00000013          	addi	x0,x0,0
    4f0c:	00000013          	addi	x0,x0,0
    4f10:	00000013          	addi	x0,x0,0
    4f14:	00000013          	addi	x0,x0,0
    4f18:	00000013          	addi	x0,x0,0
    4f1c:	00000013          	addi	x0,x0,0
    4f20:	0001b097          	auipc	x1,0x1b
    4f24:	2e4080e7          	jalr	x1,740(x1) # 20204 <rvmodel_io_write_str>
    4f28:	4fd0006f          	jal	x0,5c24 <failedtest_report_end>

00004f2c <failedtest_report_trap_detailed>:
    4f2c:	00000013          	addi	x0,x0,0
    4f30:	00000013          	addi	x0,x0,0
    4f34:	00000013          	addi	x0,x0,0
    4f38:	00000013          	addi	x0,x0,0
    4f3c:	00000013          	addi	x0,x0,0
    4f40:	0000b517          	auipc	x10,0xb
    4f44:	30e50513          	addi	x10,x10,782 # 1024e <trap_diag_header_str>
    4f48:	00000013          	addi	x0,x0,0
    4f4c:	00000013          	addi	x0,x0,0
    4f50:	00000013          	addi	x0,x0,0
    4f54:	00000013          	addi	x0,x0,0
    4f58:	00000013          	addi	x0,x0,0
    4f5c:	00000013          	addi	x0,x0,0
    4f60:	0001b097          	auipc	x1,0x1b
    4f64:	2a4080e7          	jalr	x1,676(x1) # 20204 <rvmodel_io_write_str>
    4f68:	00000013          	addi	x0,x0,0
    4f6c:	00000013          	addi	x0,x0,0
    4f70:	00000013          	addi	x0,x0,0
    4f74:	00000013          	addi	x0,x0,0
    4f78:	00000013          	addi	x0,x0,0
    4f7c:	00000013          	addi	x0,x0,0
    4f80:	0000b517          	auipc	x10,0xb
    4f84:	2fa50513          	addi	x10,x10,762 # 1027a <trap_diag_origstr_label>
    4f88:	00000013          	addi	x0,x0,0
    4f8c:	00000013          	addi	x0,x0,0
    4f90:	00000013          	addi	x0,x0,0
    4f94:	00000013          	addi	x0,x0,0
    4f98:	00000013          	addi	x0,x0,0
    4f9c:	00000013          	addi	x0,x0,0
    4fa0:	0001b097          	auipc	x1,0x1b
    4fa4:	264080e7          	jalr	x1,612(x1) # 20204 <rvmodel_io_write_str>
    4fa8:	0000a817          	auipc	x16,0xa
    4fac:	1a080813          	addi	x16,x16,416 # f148 <trap_diag_fail_str_ptr>
    4fb0:	00082503          	lw	x10,0(x16)
    4fb4:	0001b097          	auipc	x1,0x1b
    4fb8:	250080e7          	jalr	x1,592(x1) # 20204 <rvmodel_io_write_str>
    4fbc:	00000013          	addi	x0,x0,0
    4fc0:	0000a517          	auipc	x10,0xa
    4fc4:	76f50513          	addi	x10,x10,1903 # f72f <newlinestr>
    4fc8:	00000013          	addi	x0,x0,0
    4fcc:	00000013          	addi	x0,x0,0
    4fd0:	00000013          	addi	x0,x0,0
    4fd4:	00000013          	addi	x0,x0,0
    4fd8:	00000013          	addi	x0,x0,0
    4fdc:	00000013          	addi	x0,x0,0
    4fe0:	0001b097          	auipc	x1,0x1b
    4fe4:	224080e7          	jalr	x1,548(x1) # 20204 <rvmodel_io_write_str>
    4fe8:	0000a417          	auipc	x8,0xa
    4fec:	13842403          	lw	x8,312(x8) # f120 <trap_diag_subtype>
    4ff0:	00900493          	addi	x9,x0,9
    4ff4:	00940663          	beq	x8,x9,5000 <trap_report_offset_mismatch>
    4ff8:	2a040ce3          	beq	x8,x0,5ab0 <trap_report_generic>
    4ffc:	3780006f          	jal	x0,5374 <trap_report_field_mismatch>

00005000 <trap_report_offset_mismatch>:
    5000:	0000b517          	auipc	x10,0xb
    5004:	28a50513          	addi	x10,x10,650 # 1028a <trap_diag_count_mismatch_str>
    5008:	00000013          	addi	x0,x0,0
    500c:	00000013          	addi	x0,x0,0
    5010:	00000013          	addi	x0,x0,0
    5014:	00000013          	addi	x0,x0,0
    5018:	00000013          	addi	x0,x0,0
    501c:	00000013          	addi	x0,x0,0
    5020:	0001b097          	auipc	x1,0x1b
    5024:	1e4080e7          	jalr	x1,484(x1) # 20204 <rvmodel_io_write_str>
    5028:	00000013          	addi	x0,x0,0
    502c:	00000013          	addi	x0,x0,0
    5030:	00000013          	addi	x0,x0,0
    5034:	00000013          	addi	x0,x0,0
    5038:	00000013          	addi	x0,x0,0
    503c:	00000013          	addi	x0,x0,0
    5040:	0000b517          	auipc	x10,0xb
    5044:	2ab50513          	addi	x10,x10,683 # 102eb <trap_diag_expected_offset_str>
    5048:	00000013          	addi	x0,x0,0
    504c:	00000013          	addi	x0,x0,0
    5050:	00000013          	addi	x0,x0,0
    5054:	00000013          	addi	x0,x0,0
    5058:	00000013          	addi	x0,x0,0
    505c:	00000013          	addi	x0,x0,0
    5060:	0001b097          	auipc	x1,0x1b
    5064:	1a4080e7          	jalr	x1,420(x1) # 20204 <rvmodel_io_write_str>
    5068:	0000a517          	auipc	x10,0xa
    506c:	0d852503          	lw	x10,216(x10) # f140 <trap_diag_expected_offset>
    5070:	02000593          	addi	x11,x0,32
    5074:	605000ef          	jal	x1,5e78 <failedtest_hex_to_str>
    5078:	00000013          	addi	x0,x0,0
    507c:	00000013          	addi	x0,x0,0
    5080:	0000a517          	auipc	x10,0xa
    5084:	0f850513          	addi	x10,x10,248 # f178 <ascii_buffer>
    5088:	00000013          	addi	x0,x0,0
    508c:	00000013          	addi	x0,x0,0
    5090:	00000013          	addi	x0,x0,0
    5094:	00000013          	addi	x0,x0,0
    5098:	00000013          	addi	x0,x0,0
    509c:	00000013          	addi	x0,x0,0
    50a0:	0001b097          	auipc	x1,0x1b
    50a4:	164080e7          	jalr	x1,356(x1) # 20204 <rvmodel_io_write_str>
    50a8:	00000013          	addi	x0,x0,0
    50ac:	00000013          	addi	x0,x0,0
    50b0:	00000013          	addi	x0,x0,0
    50b4:	00000013          	addi	x0,x0,0
    50b8:	00000013          	addi	x0,x0,0
    50bc:	00000013          	addi	x0,x0,0
    50c0:	0000b517          	auipc	x10,0xb
    50c4:	25250513          	addi	x10,x10,594 # 10312 <trap_diag_actual_offset_str>
    50c8:	00000013          	addi	x0,x0,0
    50cc:	00000013          	addi	x0,x0,0
    50d0:	00000013          	addi	x0,x0,0
    50d4:	00000013          	addi	x0,x0,0
    50d8:	00000013          	addi	x0,x0,0
    50dc:	00000013          	addi	x0,x0,0
    50e0:	0001b097          	auipc	x1,0x1b
    50e4:	124080e7          	jalr	x1,292(x1) # 20204 <rvmodel_io_write_str>
    50e8:	0000a517          	auipc	x10,0xa
    50ec:	05052503          	lw	x10,80(x10) # f138 <trap_diag_actual_offset>
    50f0:	02000593          	addi	x11,x0,32
    50f4:	585000ef          	jal	x1,5e78 <failedtest_hex_to_str>
    50f8:	00000013          	addi	x0,x0,0
    50fc:	00000013          	addi	x0,x0,0
    5100:	0000a517          	auipc	x10,0xa
    5104:	07850513          	addi	x10,x10,120 # f178 <ascii_buffer>
    5108:	00000013          	addi	x0,x0,0
    510c:	00000013          	addi	x0,x0,0
    5110:	00000013          	addi	x0,x0,0
    5114:	00000013          	addi	x0,x0,0
    5118:	00000013          	addi	x0,x0,0
    511c:	00000013          	addi	x0,x0,0
    5120:	0001b097          	auipc	x1,0x1b
    5124:	0e4080e7          	jalr	x1,228(x1) # 20204 <rvmodel_io_write_str>
    5128:	0000a317          	auipc	x6,0xa
    512c:	01032303          	lw	x6,16(x6) # f138 <trap_diag_actual_offset>
    5130:	0000a397          	auipc	x7,0xa
    5134:	0103a383          	lw	x7,16(x7) # f140 <trap_diag_expected_offset>
    5138:	10734e63          	blt	x6,x7,5254 <trap_report_missing_traps>

0000513c <trap_report_extra_traps>:
    513c:	00000013          	addi	x0,x0,0
    5140:	0000b517          	auipc	x10,0xb
    5144:	1f950513          	addi	x10,x10,505 # 10339 <trap_diag_extra_traps_str>
    5148:	00000013          	addi	x0,x0,0
    514c:	00000013          	addi	x0,x0,0
    5150:	00000013          	addi	x0,x0,0
    5154:	00000013          	addi	x0,x0,0
    5158:	00000013          	addi	x0,x0,0
    515c:	00000013          	addi	x0,x0,0
    5160:	0001b097          	auipc	x1,0x1b
    5164:	0a4080e7          	jalr	x1,164(x1) # 20204 <rvmodel_io_write_str>
    5168:	0000a317          	auipc	x6,0xa
    516c:	fd032303          	lw	x6,-48(x6) # f138 <trap_diag_actual_offset>
    5170:	0000a397          	auipc	x7,0xa
    5174:	fd03a383          	lw	x7,-48(x7) # f140 <trap_diag_expected_offset>
    5178:	40730333          	sub	x6,x6,x7
    517c:	00235313          	srli	x6,x6,0x2
    5180:	0000b517          	auipc	x10,0xb
    5184:	23e50513          	addi	x10,x10,574 # 103be <trap_diag_extra_bytes_str>
    5188:	00000013          	addi	x0,x0,0
    518c:	00000013          	addi	x0,x0,0
    5190:	00000013          	addi	x0,x0,0
    5194:	00000013          	addi	x0,x0,0
    5198:	00000013          	addi	x0,x0,0
    519c:	00000013          	addi	x0,x0,0
    51a0:	0001b097          	auipc	x1,0x1b
    51a4:	064080e7          	jalr	x1,100(x1) # 20204 <rvmodel_io_write_str>
    51a8:	0000a317          	auipc	x6,0xa
    51ac:	f9032303          	lw	x6,-112(x6) # f138 <trap_diag_actual_offset>
    51b0:	0000a397          	auipc	x7,0xa
    51b4:	f903a383          	lw	x7,-112(x7) # f140 <trap_diag_expected_offset>
    51b8:	40730533          	sub	x10,x6,x7
    51bc:	02000593          	addi	x11,x0,32
    51c0:	4b9000ef          	jal	x1,5e78 <failedtest_hex_to_str>
    51c4:	00000013          	addi	x0,x0,0
    51c8:	00000013          	addi	x0,x0,0
    51cc:	00000013          	addi	x0,x0,0
    51d0:	00000013          	addi	x0,x0,0
    51d4:	00000013          	addi	x0,x0,0
    51d8:	00000013          	addi	x0,x0,0
    51dc:	00000013          	addi	x0,x0,0
    51e0:	0000a517          	auipc	x10,0xa
    51e4:	f9850513          	addi	x10,x10,-104 # f178 <ascii_buffer>
    51e8:	00000013          	addi	x0,x0,0
    51ec:	00000013          	addi	x0,x0,0
    51f0:	00000013          	addi	x0,x0,0
    51f4:	00000013          	addi	x0,x0,0
    51f8:	00000013          	addi	x0,x0,0
    51fc:	00000013          	addi	x0,x0,0
    5200:	0001b097          	auipc	x1,0x1b
    5204:	004080e7          	jalr	x1,4(x1) # 20204 <rvmodel_io_write_str>
    5208:	00000013          	addi	x0,x0,0
    520c:	00000013          	addi	x0,x0,0
    5210:	00000013          	addi	x0,x0,0
    5214:	00000013          	addi	x0,x0,0
    5218:	00000013          	addi	x0,x0,0
    521c:	00000013          	addi	x0,x0,0
    5220:	0000b517          	auipc	x10,0xb
    5224:	1c950513          	addi	x10,x10,457 # 103e9 <trap_diag_extra_hint_str>
    5228:	00000013          	addi	x0,x0,0
    522c:	00000013          	addi	x0,x0,0
    5230:	00000013          	addi	x0,x0,0
    5234:	00000013          	addi	x0,x0,0
    5238:	00000013          	addi	x0,x0,0
    523c:	00000013          	addi	x0,x0,0
    5240:	0001b097          	auipc	x1,0x1b
    5244:	fc4080e7          	jalr	x1,-60(x1) # 20204 <rvmodel_io_write_str>
    5248:	00001097          	auipc	x1,0x1
    524c:	a28080e7          	jalr	x1,-1496(x1) # 5c70 <failedtest_print_csr_context>
    5250:	1d50006f          	jal	x0,5c24 <failedtest_report_end>

00005254 <trap_report_missing_traps>:
    5254:	00000013          	addi	x0,x0,0
    5258:	00000013          	addi	x0,x0,0
    525c:	00000013          	addi	x0,x0,0
    5260:	0000b517          	auipc	x10,0xb
    5264:	11350513          	addi	x10,x10,275 # 10373 <trap_diag_missing_traps_str>
    5268:	00000013          	addi	x0,x0,0
    526c:	00000013          	addi	x0,x0,0
    5270:	00000013          	addi	x0,x0,0
    5274:	00000013          	addi	x0,x0,0
    5278:	00000013          	addi	x0,x0,0
    527c:	00000013          	addi	x0,x0,0
    5280:	0001b097          	auipc	x1,0x1b
    5284:	f84080e7          	jalr	x1,-124(x1) # 20204 <rvmodel_io_write_str>
    5288:	00000013          	addi	x0,x0,0
    528c:	00000013          	addi	x0,x0,0
    5290:	00000013          	addi	x0,x0,0
    5294:	00000013          	addi	x0,x0,0
    5298:	00000013          	addi	x0,x0,0
    529c:	00000013          	addi	x0,x0,0
    52a0:	0000b517          	auipc	x10,0xb
    52a4:	11e50513          	addi	x10,x10,286 # 103be <trap_diag_extra_bytes_str>
    52a8:	00000013          	addi	x0,x0,0
    52ac:	00000013          	addi	x0,x0,0
    52b0:	00000013          	addi	x0,x0,0
    52b4:	00000013          	addi	x0,x0,0
    52b8:	00000013          	addi	x0,x0,0
    52bc:	00000013          	addi	x0,x0,0
    52c0:	0001b097          	auipc	x1,0x1b
    52c4:	f44080e7          	jalr	x1,-188(x1) # 20204 <rvmodel_io_write_str>
    52c8:	0000a317          	auipc	x6,0xa
    52cc:	e7832303          	lw	x6,-392(x6) # f140 <trap_diag_expected_offset>
    52d0:	0000a397          	auipc	x7,0xa
    52d4:	e683a383          	lw	x7,-408(x7) # f138 <trap_diag_actual_offset>
    52d8:	40730533          	sub	x10,x6,x7
    52dc:	02000593          	addi	x11,x0,32
    52e0:	399000ef          	jal	x1,5e78 <failedtest_hex_to_str>
    52e4:	00000013          	addi	x0,x0,0
    52e8:	00000013          	addi	x0,x0,0
    52ec:	00000013          	addi	x0,x0,0
    52f0:	00000013          	addi	x0,x0,0
    52f4:	00000013          	addi	x0,x0,0
    52f8:	00000013          	addi	x0,x0,0
    52fc:	00000013          	addi	x0,x0,0
    5300:	0000a517          	auipc	x10,0xa
    5304:	e7850513          	addi	x10,x10,-392 # f178 <ascii_buffer>
    5308:	00000013          	addi	x0,x0,0
    530c:	00000013          	addi	x0,x0,0
    5310:	00000013          	addi	x0,x0,0
    5314:	00000013          	addi	x0,x0,0
    5318:	00000013          	addi	x0,x0,0
    531c:	00000013          	addi	x0,x0,0
    5320:	0001b097          	auipc	x1,0x1b
    5324:	ee4080e7          	jalr	x1,-284(x1) # 20204 <rvmodel_io_write_str>
    5328:	00000013          	addi	x0,x0,0
    532c:	00000013          	addi	x0,x0,0
    5330:	00000013          	addi	x0,x0,0
    5334:	00000013          	addi	x0,x0,0
    5338:	00000013          	addi	x0,x0,0
    533c:	00000013          	addi	x0,x0,0
    5340:	0000b517          	auipc	x10,0xb
    5344:	19150513          	addi	x10,x10,401 # 104d1 <trap_diag_missing_hint_str>
    5348:	00000013          	addi	x0,x0,0
    534c:	00000013          	addi	x0,x0,0
    5350:	00000013          	addi	x0,x0,0
    5354:	00000013          	addi	x0,x0,0
    5358:	00000013          	addi	x0,x0,0
    535c:	00000013          	addi	x0,x0,0
    5360:	0001b097          	auipc	x1,0x1b
    5364:	ea4080e7          	jalr	x1,-348(x1) # 20204 <rvmodel_io_write_str>
    5368:	00001097          	auipc	x1,0x1
    536c:	908080e7          	jalr	x1,-1784(x1) # 5c70 <failedtest_print_csr_context>
    5370:	0b50006f          	jal	x0,5c24 <failedtest_report_end>

00005374 <trap_report_field_mismatch>:
    5374:	00000013          	addi	x0,x0,0
    5378:	00000013          	addi	x0,x0,0
    537c:	00000013          	addi	x0,x0,0
    5380:	0000b517          	auipc	x10,0xb
    5384:	23850513          	addi	x10,x10,568 # 105b8 <trap_diag_handler_mode_str>
    5388:	00000013          	addi	x0,x0,0
    538c:	00000013          	addi	x0,x0,0
    5390:	00000013          	addi	x0,x0,0
    5394:	00000013          	addi	x0,x0,0
    5398:	00000013          	addi	x0,x0,0
    539c:	00000013          	addi	x0,x0,0
    53a0:	0001b097          	auipc	x1,0x1b
    53a4:	e64080e7          	jalr	x1,-412(x1) # 20204 <rvmodel_io_write_str>
    53a8:	0000a517          	auipc	x10,0xa
    53ac:	d7c52503          	lw	x10,-644(x10) # f124 <trap_diag_mode>
    53b0:	04050a63          	beq	x10,x0,5404 <trap_mode_m>
    53b4:	00100593          	addi	x11,x0,1
    53b8:	08b50663          	beq	x10,x11,5444 <trap_mode_s>
    53bc:	00200593          	addi	x11,x0,2
    53c0:	0cb50263          	beq	x10,x11,5484 <trap_mode_h>
    53c4:	00300593          	addi	x11,x0,3
    53c8:	0eb50e63          	beq	x10,x11,54c4 <trap_mode_v>
    53cc:	00000013          	addi	x0,x0,0
    53d0:	00000013          	addi	x0,x0,0
    53d4:	00000013          	addi	x0,x0,0
    53d8:	00000013          	addi	x0,x0,0
    53dc:	00000013          	addi	x0,x0,0
    53e0:	0000b517          	auipc	x10,0xb
    53e4:	21450513          	addi	x10,x10,532 # 105f4 <trap_diag_mode_unknown_str>
    53e8:	00000013          	addi	x0,x0,0
    53ec:	00000013          	addi	x0,x0,0
    53f0:	00000013          	addi	x0,x0,0
    53f4:	00000013          	addi	x0,x0,0
    53f8:	00000013          	addi	x0,x0,0
    53fc:	00000013          	addi	x0,x0,0
    5400:	1000006f          	jal	x0,5500 <trap_mode_print>

00005404 <trap_mode_m>:
    5404:	00000013          	addi	x0,x0,0
    5408:	00000013          	addi	x0,x0,0
    540c:	00000013          	addi	x0,x0,0
    5410:	00000013          	addi	x0,x0,0
    5414:	00000013          	addi	x0,x0,0
    5418:	00000013          	addi	x0,x0,0
    541c:	00000013          	addi	x0,x0,0
    5420:	0000b517          	auipc	x10,0xb
    5424:	1b250513          	addi	x10,x10,434 # 105d2 <trap_diag_mode_m_str>
    5428:	00000013          	addi	x0,x0,0
    542c:	00000013          	addi	x0,x0,0
    5430:	00000013          	addi	x0,x0,0
    5434:	00000013          	addi	x0,x0,0
    5438:	00000013          	addi	x0,x0,0
    543c:	00000013          	addi	x0,x0,0
    5440:	0c00006f          	jal	x0,5500 <trap_mode_print>

00005444 <trap_mode_s>:
    5444:	00000013          	addi	x0,x0,0
    5448:	00000013          	addi	x0,x0,0
    544c:	00000013          	addi	x0,x0,0
    5450:	00000013          	addi	x0,x0,0
    5454:	00000013          	addi	x0,x0,0
    5458:	00000013          	addi	x0,x0,0
    545c:	00000013          	addi	x0,x0,0
    5460:	0000b517          	auipc	x10,0xb
    5464:	17a50513          	addi	x10,x10,378 # 105da <trap_diag_mode_s_str>
    5468:	00000013          	addi	x0,x0,0
    546c:	00000013          	addi	x0,x0,0
    5470:	00000013          	addi	x0,x0,0
    5474:	00000013          	addi	x0,x0,0
    5478:	00000013          	addi	x0,x0,0
    547c:	00000013          	addi	x0,x0,0
    5480:	0800006f          	jal	x0,5500 <trap_mode_print>

00005484 <trap_mode_h>:
    5484:	00000013          	addi	x0,x0,0
    5488:	00000013          	addi	x0,x0,0
    548c:	00000013          	addi	x0,x0,0
    5490:	00000013          	addi	x0,x0,0
    5494:	00000013          	addi	x0,x0,0
    5498:	00000013          	addi	x0,x0,0
    549c:	00000013          	addi	x0,x0,0
    54a0:	0000b517          	auipc	x10,0xb
    54a4:	14250513          	addi	x10,x10,322 # 105e2 <trap_diag_mode_hs_str>
    54a8:	00000013          	addi	x0,x0,0
    54ac:	00000013          	addi	x0,x0,0
    54b0:	00000013          	addi	x0,x0,0
    54b4:	00000013          	addi	x0,x0,0
    54b8:	00000013          	addi	x0,x0,0
    54bc:	00000013          	addi	x0,x0,0
    54c0:	0400006f          	jal	x0,5500 <trap_mode_print>

000054c4 <trap_mode_v>:
    54c4:	00000013          	addi	x0,x0,0
    54c8:	00000013          	addi	x0,x0,0
    54cc:	00000013          	addi	x0,x0,0
    54d0:	00000013          	addi	x0,x0,0
    54d4:	00000013          	addi	x0,x0,0
    54d8:	00000013          	addi	x0,x0,0
    54dc:	00000013          	addi	x0,x0,0
    54e0:	0000b517          	auipc	x10,0xb
    54e4:	10b50513          	addi	x10,x10,267 # 105eb <trap_diag_mode_vs_str>
    54e8:	00000013          	addi	x0,x0,0
    54ec:	00000013          	addi	x0,x0,0
    54f0:	00000013          	addi	x0,x0,0
    54f4:	00000013          	addi	x0,x0,0
    54f8:	00000013          	addi	x0,x0,0
    54fc:	00000013          	addi	x0,x0,0

00005500 <trap_mode_print>:
    5500:	0001b097          	auipc	x1,0x1b
    5504:	d04080e7          	jalr	x1,-764(x1) # 20204 <rvmodel_io_write_str>
    5508:	00000013          	addi	x0,x0,0
    550c:	00000013          	addi	x0,x0,0
    5510:	00000013          	addi	x0,x0,0
    5514:	00000013          	addi	x0,x0,0
    5518:	00000013          	addi	x0,x0,0
    551c:	00000013          	addi	x0,x0,0
    5520:	0000b517          	auipc	x10,0xb
    5524:	0dd50513          	addi	x10,x10,221 # 105fd <trap_diag_field_str>
    5528:	00000013          	addi	x0,x0,0
    552c:	00000013          	addi	x0,x0,0
    5530:	00000013          	addi	x0,x0,0
    5534:	00000013          	addi	x0,x0,0
    5538:	00000013          	addi	x0,x0,0
    553c:	00000013          	addi	x0,x0,0
    5540:	0001b097          	auipc	x1,0x1b
    5544:	cc4080e7          	jalr	x1,-828(x1) # 20204 <rvmodel_io_write_str>
    5548:	0000a517          	auipc	x10,0xa
    554c:	bd852503          	lw	x10,-1064(x10) # f120 <trap_diag_subtype>
    5550:	00100593          	addi	x11,x0,1
    5554:	06b50863          	beq	x10,x11,55c4 <trap_field_vect>
    5558:	00200593          	addi	x11,x0,2
    555c:	0ab50463          	beq	x10,x11,5604 <trap_field_cause>
    5560:	00300593          	addi	x11,x0,3
    5564:	0eb50063          	beq	x10,x11,5644 <trap_field_epc>
    5568:	00400593          	addi	x11,x0,4
    556c:	10b50c63          	beq	x10,x11,5684 <trap_field_tval>
    5570:	00500593          	addi	x11,x0,5
    5574:	14b50863          	beq	x10,x11,56c4 <trap_field_ip>
    5578:	00600593          	addi	x11,x0,6
    557c:	18b50463          	beq	x10,x11,5704 <trap_field_tval2>
    5580:	00700593          	addi	x11,x0,7
    5584:	1cb50063          	beq	x10,x11,5744 <trap_field_tinst>
    5588:	00800593          	addi	x11,x0,8
    558c:	1eb50c63          	beq	x10,x11,5784 <trap_field_intid>
    5590:	00000013          	addi	x0,x0,0
    5594:	00000013          	addi	x0,x0,0
    5598:	00000013          	addi	x0,x0,0
    559c:	00000013          	addi	x0,x0,0
    55a0:	0000b517          	auipc	x10,0xb
    55a4:	1b450513          	addi	x10,x10,436 # 10754 <trap_diag_field_unknown_str>
    55a8:	00000013          	addi	x0,x0,0
    55ac:	00000013          	addi	x0,x0,0
    55b0:	00000013          	addi	x0,x0,0
    55b4:	00000013          	addi	x0,x0,0
    55b8:	00000013          	addi	x0,x0,0
    55bc:	00000013          	addi	x0,x0,0
    55c0:	2000006f          	jal	x0,57c0 <trap_field_print>

000055c4 <trap_field_vect>:
    55c4:	00000013          	addi	x0,x0,0
    55c8:	00000013          	addi	x0,x0,0
    55cc:	00000013          	addi	x0,x0,0
    55d0:	00000013          	addi	x0,x0,0
    55d4:	00000013          	addi	x0,x0,0
    55d8:	00000013          	addi	x0,x0,0
    55dc:	00000013          	addi	x0,x0,0
    55e0:	0000b517          	auipc	x10,0xb
    55e4:	03750513          	addi	x10,x10,55 # 10617 <trap_diag_field_vect_str>
    55e8:	00000013          	addi	x0,x0,0
    55ec:	00000013          	addi	x0,x0,0
    55f0:	00000013          	addi	x0,x0,0
    55f4:	00000013          	addi	x0,x0,0
    55f8:	00000013          	addi	x0,x0,0
    55fc:	00000013          	addi	x0,x0,0
    5600:	1c00006f          	jal	x0,57c0 <trap_field_print>

00005604 <trap_field_cause>:
    5604:	00000013          	addi	x0,x0,0
    5608:	00000013          	addi	x0,x0,0
    560c:	00000013          	addi	x0,x0,0
    5610:	00000013          	addi	x0,x0,0
    5614:	00000013          	addi	x0,x0,0
    5618:	00000013          	addi	x0,x0,0
    561c:	00000013          	addi	x0,x0,0
    5620:	0000b517          	auipc	x10,0xb
    5624:	02850513          	addi	x10,x10,40 # 10648 <trap_diag_field_cause_str>
    5628:	00000013          	addi	x0,x0,0
    562c:	00000013          	addi	x0,x0,0
    5630:	00000013          	addi	x0,x0,0
    5634:	00000013          	addi	x0,x0,0
    5638:	00000013          	addi	x0,x0,0
    563c:	00000013          	addi	x0,x0,0
    5640:	1800006f          	jal	x0,57c0 <trap_field_print>

00005644 <trap_field_epc>:
    5644:	00000013          	addi	x0,x0,0
    5648:	00000013          	addi	x0,x0,0
    564c:	00000013          	addi	x0,x0,0
    5650:	00000013          	addi	x0,x0,0
    5654:	00000013          	addi	x0,x0,0
    5658:	00000013          	addi	x0,x0,0
    565c:	00000013          	addi	x0,x0,0
    5660:	0000b517          	auipc	x10,0xb
    5664:	00850513          	addi	x10,x10,8 # 10668 <trap_diag_field_epc_str>
    5668:	00000013          	addi	x0,x0,0
    566c:	00000013          	addi	x0,x0,0
    5670:	00000013          	addi	x0,x0,0
    5674:	00000013          	addi	x0,x0,0
    5678:	00000013          	addi	x0,x0,0
    567c:	00000013          	addi	x0,x0,0
    5680:	1400006f          	jal	x0,57c0 <trap_field_print>

00005684 <trap_field_tval>:
    5684:	00000013          	addi	x0,x0,0
    5688:	00000013          	addi	x0,x0,0
    568c:	00000013          	addi	x0,x0,0
    5690:	00000013          	addi	x0,x0,0
    5694:	00000013          	addi	x0,x0,0
    5698:	00000013          	addi	x0,x0,0
    569c:	00000013          	addi	x0,x0,0
    56a0:	0000b517          	auipc	x10,0xb
    56a4:	fe650513          	addi	x10,x10,-26 # 10686 <trap_diag_field_tval_str>
    56a8:	00000013          	addi	x0,x0,0
    56ac:	00000013          	addi	x0,x0,0
    56b0:	00000013          	addi	x0,x0,0
    56b4:	00000013          	addi	x0,x0,0
    56b8:	00000013          	addi	x0,x0,0
    56bc:	00000013          	addi	x0,x0,0
    56c0:	1000006f          	jal	x0,57c0 <trap_field_print>

000056c4 <trap_field_ip>:
    56c4:	00000013          	addi	x0,x0,0
    56c8:	00000013          	addi	x0,x0,0
    56cc:	00000013          	addi	x0,x0,0
    56d0:	00000013          	addi	x0,x0,0
    56d4:	00000013          	addi	x0,x0,0
    56d8:	00000013          	addi	x0,x0,0
    56dc:	00000013          	addi	x0,x0,0
    56e0:	0000b517          	auipc	x10,0xb
    56e4:	fc550513          	addi	x10,x10,-59 # 106a5 <trap_diag_field_ip_str>
    56e8:	00000013          	addi	x0,x0,0
    56ec:	00000013          	addi	x0,x0,0
    56f0:	00000013          	addi	x0,x0,0
    56f4:	00000013          	addi	x0,x0,0
    56f8:	00000013          	addi	x0,x0,0
    56fc:	00000013          	addi	x0,x0,0
    5700:	0c00006f          	jal	x0,57c0 <trap_field_print>

00005704 <trap_field_tval2>:
    5704:	00000013          	addi	x0,x0,0
    5708:	00000013          	addi	x0,x0,0
    570c:	00000013          	addi	x0,x0,0
    5710:	00000013          	addi	x0,x0,0
    5714:	00000013          	addi	x0,x0,0
    5718:	00000013          	addi	x0,x0,0
    571c:	00000013          	addi	x0,x0,0
    5720:	0000b517          	auipc	x10,0xb
    5724:	fad50513          	addi	x10,x10,-83 # 106cd <trap_diag_field_tval2_str>
    5728:	00000013          	addi	x0,x0,0
    572c:	00000013          	addi	x0,x0,0
    5730:	00000013          	addi	x0,x0,0
    5734:	00000013          	addi	x0,x0,0
    5738:	00000013          	addi	x0,x0,0
    573c:	00000013          	addi	x0,x0,0
    5740:	0800006f          	jal	x0,57c0 <trap_field_print>

00005744 <trap_field_tinst>:
    5744:	00000013          	addi	x0,x0,0
    5748:	00000013          	addi	x0,x0,0
    574c:	00000013          	addi	x0,x0,0
    5750:	00000013          	addi	x0,x0,0
    5754:	00000013          	addi	x0,x0,0
    5758:	00000013          	addi	x0,x0,0
    575c:	00000013          	addi	x0,x0,0
    5760:	0000b517          	auipc	x10,0xb
    5764:	f9950513          	addi	x10,x10,-103 # 106f9 <trap_diag_field_tinst_str>
    5768:	00000013          	addi	x0,x0,0
    576c:	00000013          	addi	x0,x0,0
    5770:	00000013          	addi	x0,x0,0
    5774:	00000013          	addi	x0,x0,0
    5778:	00000013          	addi	x0,x0,0
    577c:	00000013          	addi	x0,x0,0
    5780:	0400006f          	jal	x0,57c0 <trap_field_print>

00005784 <trap_field_intid>:
    5784:	00000013          	addi	x0,x0,0
    5788:	00000013          	addi	x0,x0,0
    578c:	00000013          	addi	x0,x0,0
    5790:	00000013          	addi	x0,x0,0
    5794:	00000013          	addi	x0,x0,0
    5798:	00000013          	addi	x0,x0,0
    579c:	00000013          	addi	x0,x0,0
    57a0:	0000b517          	auipc	x10,0xb
    57a4:	f8550513          	addi	x10,x10,-123 # 10725 <trap_diag_field_intid_str>
    57a8:	00000013          	addi	x0,x0,0
    57ac:	00000013          	addi	x0,x0,0
    57b0:	00000013          	addi	x0,x0,0
    57b4:	00000013          	addi	x0,x0,0
    57b8:	00000013          	addi	x0,x0,0
    57bc:	00000013          	addi	x0,x0,0

000057c0 <trap_field_print>:
    57c0:	0001b097          	auipc	x1,0x1b
    57c4:	a44080e7          	jalr	x1,-1468(x1) # 20204 <rvmodel_io_write_str>
    57c8:	00000013          	addi	x0,x0,0
    57cc:	00000013          	addi	x0,x0,0
    57d0:	00000013          	addi	x0,x0,0
    57d4:	00000013          	addi	x0,x0,0
    57d8:	00000013          	addi	x0,x0,0
    57dc:	00000013          	addi	x0,x0,0
    57e0:	0000b517          	auipc	x10,0xb
    57e4:	f8350513          	addi	x10,x10,-125 # 10763 <trap_diag_expected_str>
    57e8:	00000013          	addi	x0,x0,0
    57ec:	00000013          	addi	x0,x0,0
    57f0:	00000013          	addi	x0,x0,0
    57f4:	00000013          	addi	x0,x0,0
    57f8:	00000013          	addi	x0,x0,0
    57fc:	00000013          	addi	x0,x0,0
    5800:	0001b097          	auipc	x1,0x1b
    5804:	a04080e7          	jalr	x1,-1532(x1) # 20204 <rvmodel_io_write_str>
    5808:	0000a517          	auipc	x10,0xa
    580c:	92852503          	lw	x10,-1752(x10) # f130 <trap_diag_expected_value>
    5810:	02000593          	addi	x11,x0,32
    5814:	664000ef          	jal	x1,5e78 <failedtest_hex_to_str>
    5818:	00000013          	addi	x0,x0,0
    581c:	00000013          	addi	x0,x0,0
    5820:	0000a517          	auipc	x10,0xa
    5824:	95850513          	addi	x10,x10,-1704 # f178 <ascii_buffer>
    5828:	00000013          	addi	x0,x0,0
    582c:	00000013          	addi	x0,x0,0
    5830:	00000013          	addi	x0,x0,0
    5834:	00000013          	addi	x0,x0,0
    5838:	00000013          	addi	x0,x0,0
    583c:	00000013          	addi	x0,x0,0
    5840:	0001b097          	auipc	x1,0x1b
    5844:	9c4080e7          	jalr	x1,-1596(x1) # 20204 <rvmodel_io_write_str>
    5848:	00000013          	addi	x0,x0,0
    584c:	00000013          	addi	x0,x0,0
    5850:	00000013          	addi	x0,x0,0
    5854:	00000013          	addi	x0,x0,0
    5858:	00000013          	addi	x0,x0,0
    585c:	00000013          	addi	x0,x0,0
    5860:	0000b517          	auipc	x10,0xb
    5864:	f1a50513          	addi	x10,x10,-230 # 1077a <trap_diag_actual_str>
    5868:	00000013          	addi	x0,x0,0
    586c:	00000013          	addi	x0,x0,0
    5870:	00000013          	addi	x0,x0,0
    5874:	00000013          	addi	x0,x0,0
    5878:	00000013          	addi	x0,x0,0
    587c:	00000013          	addi	x0,x0,0
    5880:	0001b097          	auipc	x1,0x1b
    5884:	984080e7          	jalr	x1,-1660(x1) # 20204 <rvmodel_io_write_str>
    5888:	0000a517          	auipc	x10,0xa
    588c:	8a052503          	lw	x10,-1888(x10) # f128 <trap_diag_actual_value>
    5890:	02000593          	addi	x11,x0,32
    5894:	5e4000ef          	jal	x1,5e78 <failedtest_hex_to_str>
    5898:	00000013          	addi	x0,x0,0
    589c:	00000013          	addi	x0,x0,0
    58a0:	0000a517          	auipc	x10,0xa
    58a4:	8d850513          	addi	x10,x10,-1832 # f178 <ascii_buffer>
    58a8:	00000013          	addi	x0,x0,0
    58ac:	00000013          	addi	x0,x0,0
    58b0:	00000013          	addi	x0,x0,0
    58b4:	00000013          	addi	x0,x0,0
    58b8:	00000013          	addi	x0,x0,0
    58bc:	00000013          	addi	x0,x0,0
    58c0:	0001b097          	auipc	x1,0x1b
    58c4:	944080e7          	jalr	x1,-1724(x1) # 20204 <rvmodel_io_write_str>
    58c8:	0000a517          	auipc	x10,0xa
    58cc:	85852503          	lw	x10,-1960(x10) # f120 <trap_diag_subtype>
    58d0:	00200593          	addi	x11,x0,2
    58d4:	08b51463          	bne	x10,x11,595c <trap_field_not_cause>
    58d8:	00000013          	addi	x0,x0,0
    58dc:	00000013          	addi	x0,x0,0
    58e0:	0000b517          	auipc	x10,0xb
    58e4:	eb150513          	addi	x10,x10,-335 # 10791 <trap_diag_expected_cause_name_str>
    58e8:	00000013          	addi	x0,x0,0
    58ec:	00000013          	addi	x0,x0,0
    58f0:	00000013          	addi	x0,x0,0
    58f4:	00000013          	addi	x0,x0,0
    58f8:	00000013          	addi	x0,x0,0
    58fc:	00000013          	addi	x0,x0,0
    5900:	0001b097          	auipc	x1,0x1b
    5904:	904080e7          	jalr	x1,-1788(x1) # 20204 <rvmodel_io_write_str>
    5908:	0000a517          	auipc	x10,0xa
    590c:	82852503          	lw	x10,-2008(x10) # f130 <trap_diag_expected_value>
    5910:	284000ef          	jal	x1,5b94 <trap_cause_to_str>
    5914:	0001b097          	auipc	x1,0x1b
    5918:	8f0080e7          	jalr	x1,-1808(x1) # 20204 <rvmodel_io_write_str>
    591c:	00000013          	addi	x0,x0,0
    5920:	0000b517          	auipc	x10,0xb
    5924:	e8850513          	addi	x10,x10,-376 # 107a8 <trap_diag_actual_cause_name_str>
    5928:	00000013          	addi	x0,x0,0
    592c:	00000013          	addi	x0,x0,0
    5930:	00000013          	addi	x0,x0,0
    5934:	00000013          	addi	x0,x0,0
    5938:	00000013          	addi	x0,x0,0
    593c:	00000013          	addi	x0,x0,0
    5940:	0001b097          	auipc	x1,0x1b
    5944:	8c4080e7          	jalr	x1,-1852(x1) # 20204 <rvmodel_io_write_str>
    5948:	00009517          	auipc	x10,0x9
    594c:	7e052503          	lw	x10,2016(x10) # f128 <trap_diag_actual_value>
    5950:	244000ef          	jal	x1,5b94 <trap_cause_to_str>
    5954:	0001b097          	auipc	x1,0x1b
    5958:	8b0080e7          	jalr	x1,-1872(x1) # 20204 <rvmodel_io_write_str>

0000595c <trap_field_not_cause>:
    595c:	00000097          	auipc	x1,0x0
    5960:	314080e7          	jalr	x1,788(x1) # 5c70 <failedtest_print_csr_context>
    5964:	00009517          	auipc	x10,0x9
    5968:	7bc52503          	lw	x10,1980(x10) # f120 <trap_diag_subtype>
    596c:	00100593          	addi	x11,x0,1
    5970:	02b51e63          	bne	x10,x11,59ac <trap_field_not_cause+0x50>
    5974:	00000013          	addi	x0,x0,0
    5978:	00000013          	addi	x0,x0,0
    597c:	00000013          	addi	x0,x0,0
    5980:	0000b517          	auipc	x10,0xb
    5984:	e9e50513          	addi	x10,x10,-354 # 1081e <trap_diag_hint_vect_str>
    5988:	00000013          	addi	x0,x0,0
    598c:	00000013          	addi	x0,x0,0
    5990:	00000013          	addi	x0,x0,0
    5994:	00000013          	addi	x0,x0,0
    5998:	00000013          	addi	x0,x0,0
    599c:	00000013          	addi	x0,x0,0
    59a0:	0001b097          	auipc	x1,0x1b
    59a4:	864080e7          	jalr	x1,-1948(x1) # 20204 <rvmodel_io_write_str>
    59a8:	27c0006f          	jal	x0,5c24 <failedtest_report_end>
    59ac:	00200593          	addi	x11,x0,2
    59b0:	02b51e63          	bne	x10,x11,59ec <trap_field_not_cause+0x90>
    59b4:	00000013          	addi	x0,x0,0
    59b8:	00000013          	addi	x0,x0,0
    59bc:	00000013          	addi	x0,x0,0
    59c0:	0000b517          	auipc	x10,0xb
    59c4:	f3450513          	addi	x10,x10,-204 # 108f4 <trap_diag_hint_cause_str>
    59c8:	00000013          	addi	x0,x0,0
    59cc:	00000013          	addi	x0,x0,0
    59d0:	00000013          	addi	x0,x0,0
    59d4:	00000013          	addi	x0,x0,0
    59d8:	00000013          	addi	x0,x0,0
    59dc:	00000013          	addi	x0,x0,0
    59e0:	0001b097          	auipc	x1,0x1b
    59e4:	824080e7          	jalr	x1,-2012(x1) # 20204 <rvmodel_io_write_str>
    59e8:	23c0006f          	jal	x0,5c24 <failedtest_report_end>
    59ec:	00300593          	addi	x11,x0,3
    59f0:	02b51e63          	bne	x10,x11,5a2c <trap_field_not_cause+0xd0>
    59f4:	00000013          	addi	x0,x0,0
    59f8:	00000013          	addi	x0,x0,0
    59fc:	00000013          	addi	x0,x0,0
    5a00:	0000b517          	auipc	x10,0xb
    5a04:	fe750513          	addi	x10,x10,-25 # 109e7 <trap_diag_hint_epc_str>
    5a08:	00000013          	addi	x0,x0,0
    5a0c:	00000013          	addi	x0,x0,0
    5a10:	00000013          	addi	x0,x0,0
    5a14:	00000013          	addi	x0,x0,0
    5a18:	00000013          	addi	x0,x0,0
    5a1c:	00000013          	addi	x0,x0,0
    5a20:	0001a097          	auipc	x1,0x1a
    5a24:	7e4080e7          	jalr	x1,2020(x1) # 20204 <rvmodel_io_write_str>
    5a28:	1fc0006f          	jal	x0,5c24 <failedtest_report_end>
    5a2c:	00400593          	addi	x11,x0,4
    5a30:	02b51e63          	bne	x10,x11,5a6c <trap_field_not_cause+0x110>
    5a34:	00000013          	addi	x0,x0,0
    5a38:	00000013          	addi	x0,x0,0
    5a3c:	00000013          	addi	x0,x0,0
    5a40:	0000b517          	auipc	x10,0xb
    5a44:	0a250513          	addi	x10,x10,162 # 10ae2 <trap_diag_hint_tval_str>
    5a48:	00000013          	addi	x0,x0,0
    5a4c:	00000013          	addi	x0,x0,0
    5a50:	00000013          	addi	x0,x0,0
    5a54:	00000013          	addi	x0,x0,0
    5a58:	00000013          	addi	x0,x0,0
    5a5c:	00000013          	addi	x0,x0,0
    5a60:	0001a097          	auipc	x1,0x1a
    5a64:	7a4080e7          	jalr	x1,1956(x1) # 20204 <rvmodel_io_write_str>
    5a68:	1bc0006f          	jal	x0,5c24 <failedtest_report_end>
    5a6c:	00500593          	addi	x11,x0,5
    5a70:	02b51e63          	bne	x10,x11,5aac <trap_field_not_cause+0x150>
    5a74:	00000013          	addi	x0,x0,0
    5a78:	00000013          	addi	x0,x0,0
    5a7c:	00000013          	addi	x0,x0,0
    5a80:	0000b517          	auipc	x10,0xb
    5a84:	14950513          	addi	x10,x10,329 # 10bc9 <trap_diag_hint_ip_str>
    5a88:	00000013          	addi	x0,x0,0
    5a8c:	00000013          	addi	x0,x0,0
    5a90:	00000013          	addi	x0,x0,0
    5a94:	00000013          	addi	x0,x0,0
    5a98:	00000013          	addi	x0,x0,0
    5a9c:	00000013          	addi	x0,x0,0
    5aa0:	0001a097          	auipc	x1,0x1a
    5aa4:	764080e7          	jalr	x1,1892(x1) # 20204 <rvmodel_io_write_str>
    5aa8:	17c0006f          	jal	x0,5c24 <failedtest_report_end>
    5aac:	1780006f          	jal	x0,5c24 <failedtest_report_end>

00005ab0 <trap_report_generic>:
    5ab0:	00000013          	addi	x0,x0,0
    5ab4:	00000013          	addi	x0,x0,0
    5ab8:	00000013          	addi	x0,x0,0
    5abc:	00000013          	addi	x0,x0,0
    5ac0:	0000b517          	auipc	x10,0xb
    5ac4:	d1650513          	addi	x10,x10,-746 # 107d6 <trap_diag_generic_str>
    5ac8:	00000013          	addi	x0,x0,0
    5acc:	00000013          	addi	x0,x0,0
    5ad0:	00000013          	addi	x0,x0,0
    5ad4:	00000013          	addi	x0,x0,0
    5ad8:	00000013          	addi	x0,x0,0
    5adc:	00000013          	addi	x0,x0,0
    5ae0:	0001a097          	auipc	x1,0x1a
    5ae4:	724080e7          	jalr	x1,1828(x1) # 20204 <rvmodel_io_write_str>
    5ae8:	00009617          	auipc	x12,0x9
    5aec:	67062603          	lw	x12,1648(x12) # f158 <saved_mepc>
    5af0:	00000013          	addi	x0,x0,0
    5af4:	00000013          	addi	x0,x0,0
    5af8:	00000013          	addi	x0,x0,0
    5afc:	00000013          	addi	x0,x0,0
    5b00:	0000a517          	auipc	x10,0xa
    5b04:	cb950513          	addi	x10,x10,-839 # f7b9 <xepcinstrstr>
    5b08:	00000013          	addi	x0,x0,0
    5b0c:	00000013          	addi	x0,x0,0
    5b10:	00000013          	addi	x0,x0,0
    5b14:	00000013          	addi	x0,x0,0
    5b18:	00000013          	addi	x0,x0,0
    5b1c:	00000013          	addi	x0,x0,0
    5b20:	0001a097          	auipc	x1,0x1a
    5b24:	6e4080e7          	jalr	x1,1764(x1) # 20204 <rvmodel_io_write_str>
    5b28:	00065503          	lhu	x10,0(x12)
    5b2c:	01000593          	addi	x11,x0,16
    5b30:	00357413          	andi	x8,x10,3
    5b34:	00300493          	addi	x9,x0,3
    5b38:	00941a63          	bne	x8,x9,5b4c <trap_report_generic+0x9c>
    5b3c:	00265403          	lhu	x8,2(x12)
    5b40:	01041413          	slli	x8,x8,0x10
    5b44:	00856533          	or	x10,x10,x8
    5b48:	02000593          	addi	x11,x0,32
    5b4c:	32c000ef          	jal	x1,5e78 <failedtest_hex_to_str>
    5b50:	00000013          	addi	x0,x0,0
    5b54:	00000013          	addi	x0,x0,0
    5b58:	00000013          	addi	x0,x0,0
    5b5c:	00000013          	addi	x0,x0,0
    5b60:	00009517          	auipc	x10,0x9
    5b64:	61850513          	addi	x10,x10,1560 # f178 <ascii_buffer>
    5b68:	00000013          	addi	x0,x0,0
    5b6c:	00000013          	addi	x0,x0,0
    5b70:	00000013          	addi	x0,x0,0
    5b74:	00000013          	addi	x0,x0,0
    5b78:	00000013          	addi	x0,x0,0
    5b7c:	00000013          	addi	x0,x0,0
    5b80:	0001a097          	auipc	x1,0x1a
    5b84:	684080e7          	jalr	x1,1668(x1) # 20204 <rvmodel_io_write_str>
    5b88:	00000097          	auipc	x1,0x0
    5b8c:	0e8080e7          	jalr	x1,232(x1) # 5c70 <failedtest_print_csr_context>
    5b90:	0940006f          	jal	x0,5c24 <failedtest_report_end>

00005b94 <trap_cause_to_str>:
    5b94:	02054263          	blt	x10,x0,5bb8 <trap_cause_interrupt>

00005b98 <trap_cause_exception>:
    5b98:	01800593          	addi	x11,x0,24
    5b9c:	04b55463          	bge	x10,x11,5be4 <trap_cause_unknown>
    5ba0:	00009597          	auipc	x11,0x9
    5ba4:	60058593          	addi	x11,x11,1536 # f1a0 <end_failure_scratch>
    5ba8:	00251613          	slli	x12,x10,0x2
    5bac:	00c585b3          	add	x11,x11,x12
    5bb0:	0005a503          	lw	x10,0(x11)
    5bb4:	00008067          	jalr	x0,0(x1)

00005bb8 <trap_cause_interrupt>:
    5bb8:	00100593          	addi	x11,x0,1
    5bbc:	01f59593          	slli	x11,x11,0x1f
    5bc0:	00b54533          	xor	x10,x10,x11
    5bc4:	01000593          	addi	x11,x0,16
    5bc8:	00b55e63          	bge	x10,x11,5be4 <trap_cause_unknown>
    5bcc:	00009597          	auipc	x11,0x9
    5bd0:	63458593          	addi	x11,x11,1588 # f200 <trap_int_name_tbl>
    5bd4:	00251613          	slli	x12,x10,0x2
    5bd8:	00c585b3          	add	x11,x11,x12
    5bdc:	0005a503          	lw	x10,0(x11)
    5be0:	00008067          	jalr	x0,0(x1)

00005be4 <trap_cause_unknown>:
    5be4:	00000013          	addi	x0,x0,0
    5be8:	00000013          	addi	x0,x0,0
    5bec:	00000013          	addi	x0,x0,0
    5bf0:	00000013          	addi	x0,x0,0
    5bf4:	00000013          	addi	x0,x0,0
    5bf8:	00000013          	addi	x0,x0,0
    5bfc:	00000013          	addi	x0,x0,0
    5c00:	0000a517          	auipc	x10,0xa
    5c04:	a3e50513          	addi	x10,x10,-1474 # f63e <trap_cause_unknown_str>
    5c08:	00000013          	addi	x0,x0,0
    5c0c:	00000013          	addi	x0,x0,0
    5c10:	00000013          	addi	x0,x0,0
    5c14:	00000013          	addi	x0,x0,0
    5c18:	00000013          	addi	x0,x0,0
    5c1c:	00000013          	addi	x0,x0,0
    5c20:	00008067          	jalr	x0,0(x1)

00005c24 <failedtest_report_end>:
    5c24:	00000013          	addi	x0,x0,0
    5c28:	00000013          	addi	x0,x0,0
    5c2c:	00000013          	addi	x0,x0,0
    5c30:	00000013          	addi	x0,x0,0
    5c34:	00000013          	addi	x0,x0,0
    5c38:	00000013          	addi	x0,x0,0
    5c3c:	00000013          	addi	x0,x0,0
    5c40:	0000a517          	auipc	x10,0xa
    5c44:	5c150513          	addi	x10,x10,1473 # 10201 <endstr>
    5c48:	00000013          	addi	x0,x0,0
    5c4c:	00000013          	addi	x0,x0,0
    5c50:	00000013          	addi	x0,x0,0
    5c54:	00000013          	addi	x0,x0,0
    5c58:	00000013          	addi	x0,x0,0
    5c5c:	00000013          	addi	x0,x0,0
    5c60:	0001a097          	auipc	x1,0x1a
    5c64:	5a4080e7          	jalr	x1,1444(x1) # 20204 <rvmodel_io_write_str>

00005c68 <failedtest_terminate>:
    5c68:	0001a097          	auipc	x1,0x1a
    5c6c:	5ac080e7          	jalr	x1,1452(x1) # 20214 <rvmodel_halt_fail>

00005c70 <failedtest_print_csr_context>:
    5c70:	00009617          	auipc	x12,0x9
    5c74:	4e060613          	addi	x12,x12,1248 # f150 <csr_context_ret_addr>
    5c78:	00162023          	sw	x1,0(x12)
    5c7c:	00000013          	addi	x0,x0,0
    5c80:	0000a517          	auipc	x10,0xa
    5c84:	b5a50513          	addi	x10,x10,-1190 # f7da <mepcstr>
    5c88:	00000013          	addi	x0,x0,0
    5c8c:	00000013          	addi	x0,x0,0
    5c90:	00000013          	addi	x0,x0,0
    5c94:	00000013          	addi	x0,x0,0
    5c98:	00000013          	addi	x0,x0,0
    5c9c:	00000013          	addi	x0,x0,0
    5ca0:	0001a097          	auipc	x1,0x1a
    5ca4:	564080e7          	jalr	x1,1380(x1) # 20204 <rvmodel_io_write_str>
    5ca8:	00009517          	auipc	x10,0x9
    5cac:	4b052503          	lw	x10,1200(x10) # f158 <saved_mepc>
    5cb0:	02000593          	addi	x11,x0,32
    5cb4:	1c4000ef          	jal	x1,5e78 <failedtest_hex_to_str>
    5cb8:	00000013          	addi	x0,x0,0
    5cbc:	00000013          	addi	x0,x0,0
    5cc0:	00009517          	auipc	x10,0x9
    5cc4:	4b850513          	addi	x10,x10,1208 # f178 <ascii_buffer>
    5cc8:	00000013          	addi	x0,x0,0
    5ccc:	00000013          	addi	x0,x0,0
    5cd0:	00000013          	addi	x0,x0,0
    5cd4:	00000013          	addi	x0,x0,0
    5cd8:	00000013          	addi	x0,x0,0
    5cdc:	00000013          	addi	x0,x0,0
    5ce0:	0001a097          	auipc	x1,0x1a
    5ce4:	524080e7          	jalr	x1,1316(x1) # 20204 <rvmodel_io_write_str>
    5ce8:	00000013          	addi	x0,x0,0
    5cec:	00000013          	addi	x0,x0,0
    5cf0:	00000013          	addi	x0,x0,0
    5cf4:	00000013          	addi	x0,x0,0
    5cf8:	00000013          	addi	x0,x0,0
    5cfc:	00000013          	addi	x0,x0,0
    5d00:	0000a517          	auipc	x10,0xa
    5d04:	aea50513          	addi	x10,x10,-1302 # f7ea <mcausestr>
    5d08:	00000013          	addi	x0,x0,0
    5d0c:	00000013          	addi	x0,x0,0
    5d10:	00000013          	addi	x0,x0,0
    5d14:	00000013          	addi	x0,x0,0
    5d18:	00000013          	addi	x0,x0,0
    5d1c:	00000013          	addi	x0,x0,0
    5d20:	0001a097          	auipc	x1,0x1a
    5d24:	4e4080e7          	jalr	x1,1252(x1) # 20204 <rvmodel_io_write_str>
    5d28:	00009517          	auipc	x10,0x9
    5d2c:	43852503          	lw	x10,1080(x10) # f160 <saved_mcause>
    5d30:	02000593          	addi	x11,x0,32
    5d34:	144000ef          	jal	x1,5e78 <failedtest_hex_to_str>
    5d38:	00000013          	addi	x0,x0,0
    5d3c:	00000013          	addi	x0,x0,0
    5d40:	00009517          	auipc	x10,0x9
    5d44:	43850513          	addi	x10,x10,1080 # f178 <ascii_buffer>
    5d48:	00000013          	addi	x0,x0,0
    5d4c:	00000013          	addi	x0,x0,0
    5d50:	00000013          	addi	x0,x0,0
    5d54:	00000013          	addi	x0,x0,0
    5d58:	00000013          	addi	x0,x0,0
    5d5c:	00000013          	addi	x0,x0,0
    5d60:	0001a097          	auipc	x1,0x1a
    5d64:	4a4080e7          	jalr	x1,1188(x1) # 20204 <rvmodel_io_write_str>
    5d68:	00000013          	addi	x0,x0,0
    5d6c:	00000013          	addi	x0,x0,0
    5d70:	00000013          	addi	x0,x0,0
    5d74:	00000013          	addi	x0,x0,0
    5d78:	00000013          	addi	x0,x0,0
    5d7c:	00000013          	addi	x0,x0,0
    5d80:	0000a517          	auipc	x10,0xa
    5d84:	a7a50513          	addi	x10,x10,-1414 # f7fa <mtvalstr>
    5d88:	00000013          	addi	x0,x0,0
    5d8c:	00000013          	addi	x0,x0,0
    5d90:	00000013          	addi	x0,x0,0
    5d94:	00000013          	addi	x0,x0,0
    5d98:	00000013          	addi	x0,x0,0
    5d9c:	00000013          	addi	x0,x0,0
    5da0:	0001a097          	auipc	x1,0x1a
    5da4:	464080e7          	jalr	x1,1124(x1) # 20204 <rvmodel_io_write_str>
    5da8:	00009517          	auipc	x10,0x9
    5dac:	3c052503          	lw	x10,960(x10) # f168 <saved_mtval>
    5db0:	02000593          	addi	x11,x0,32
    5db4:	0c4000ef          	jal	x1,5e78 <failedtest_hex_to_str>
    5db8:	00000013          	addi	x0,x0,0
    5dbc:	00000013          	addi	x0,x0,0
    5dc0:	00009517          	auipc	x10,0x9
    5dc4:	3b850513          	addi	x10,x10,952 # f178 <ascii_buffer>
    5dc8:	00000013          	addi	x0,x0,0
    5dcc:	00000013          	addi	x0,x0,0
    5dd0:	00000013          	addi	x0,x0,0
    5dd4:	00000013          	addi	x0,x0,0
    5dd8:	00000013          	addi	x0,x0,0
    5ddc:	00000013          	addi	x0,x0,0
    5de0:	0001a097          	auipc	x1,0x1a
    5de4:	424080e7          	jalr	x1,1060(x1) # 20204 <rvmodel_io_write_str>
    5de8:	00000013          	addi	x0,x0,0
    5dec:	00000013          	addi	x0,x0,0
    5df0:	00000013          	addi	x0,x0,0
    5df4:	00000013          	addi	x0,x0,0
    5df8:	00000013          	addi	x0,x0,0
    5dfc:	00000013          	addi	x0,x0,0
    5e00:	0000a517          	auipc	x10,0xa
    5e04:	a0a50513          	addi	x10,x10,-1526 # f80a <mstatusstr>
    5e08:	00000013          	addi	x0,x0,0
    5e0c:	00000013          	addi	x0,x0,0
    5e10:	00000013          	addi	x0,x0,0
    5e14:	00000013          	addi	x0,x0,0
    5e18:	00000013          	addi	x0,x0,0
    5e1c:	00000013          	addi	x0,x0,0
    5e20:	0001a097          	auipc	x1,0x1a
    5e24:	3e4080e7          	jalr	x1,996(x1) # 20204 <rvmodel_io_write_str>
    5e28:	00009517          	auipc	x10,0x9
    5e2c:	34852503          	lw	x10,840(x10) # f170 <saved_mstatus>
    5e30:	02000593          	addi	x11,x0,32
    5e34:	044000ef          	jal	x1,5e78 <failedtest_hex_to_str>
    5e38:	00000013          	addi	x0,x0,0
    5e3c:	00000013          	addi	x0,x0,0
    5e40:	00009517          	auipc	x10,0x9
    5e44:	33850513          	addi	x10,x10,824 # f178 <ascii_buffer>
    5e48:	00000013          	addi	x0,x0,0
    5e4c:	00000013          	addi	x0,x0,0
    5e50:	00000013          	addi	x0,x0,0
    5e54:	00000013          	addi	x0,x0,0
    5e58:	00000013          	addi	x0,x0,0
    5e5c:	00000013          	addi	x0,x0,0
    5e60:	0001a097          	auipc	x1,0x1a
    5e64:	3a4080e7          	jalr	x1,932(x1) # 20204 <rvmodel_io_write_str>
    5e68:	00009617          	auipc	x12,0x9
    5e6c:	2e860613          	addi	x12,x12,744 # f150 <csr_context_ret_addr>
    5e70:	00062083          	lw	x1,0(x12)
    5e74:	00008067          	jalr	x0,0(x1)

00005e78 <failedtest_hex_to_str>:
    5e78:	00000013          	addi	x0,x0,0
    5e7c:	00000013          	addi	x0,x0,0
    5e80:	00009617          	auipc	x12,0x9
    5e84:	2f860613          	addi	x12,x12,760 # f178 <ascii_buffer>
    5e88:	00000013          	addi	x0,x0,0
    5e8c:	00000013          	addi	x0,x0,0
    5e90:	00000013          	addi	x0,x0,0
    5e94:	00000013          	addi	x0,x0,0
    5e98:	00000013          	addi	x0,x0,0
    5e9c:	00000013          	addi	x0,x0,0
    5ea0:	03000693          	addi	x13,x0,48
    5ea4:	00d60023          	sb	x13,0(x12)
    5ea8:	07800693          	addi	x13,x0,120
    5eac:	00d600a3          	sb	x13,1(x12)
    5eb0:	00260613          	addi	x12,x12,2
    5eb4:	00058693          	addi	x13,x11,0

00005eb8 <failedtest_hex_to_str_loop>:
    5eb8:	ffc68693          	addi	x13,x13,-4
    5ebc:	00d55733          	srl	x14,x10,x13
    5ec0:	00f77713          	andi	x14,x14,15
    5ec4:	00a00793          	addi	x15,x0,10
    5ec8:	00f74663          	blt	x14,x15,5ed4 <failedtest_hex_to_str_digit>
    5ecc:	05770713          	addi	x14,x14,87
    5ed0:	0080006f          	jal	x0,5ed8 <failedtest_hex_to_str_write>

00005ed4 <failedtest_hex_to_str_digit>:
    5ed4:	03070713          	addi	x14,x14,48

00005ed8 <failedtest_hex_to_str_write>:
    5ed8:	00e60023          	sb	x14,0(x12)
    5edc:	00160613          	addi	x12,x12,1
    5ee0:	fc069ce3          	bne	x13,x0,5eb8 <failedtest_hex_to_str_loop>
    5ee4:	00a00693          	addi	x13,x0,10
    5ee8:	00d60023          	sb	x13,0(x12)
    5eec:	000600a3          	sb	x0,1(x12)
    5ef0:	00008067          	jalr	x0,0(x1)

00005ef4 <failedtest_dec_to_str>:
    5ef4:	00a00693          	addi	x13,x0,10
    5ef8:	02d54663          	blt	x10,x13,5f24 <failedtest_dec_to_str+0x30>
    5efc:	ff650513          	addi	x10,x10,-10
    5f00:	03100713          	addi	x14,x0,49
    5f04:	00d54c63          	blt	x10,x13,5f1c <failedtest_dec_to_str+0x28>
    5f08:	ff650513          	addi	x10,x10,-10
    5f0c:	03200713          	addi	x14,x0,50
    5f10:	00d54663          	blt	x10,x13,5f1c <failedtest_dec_to_str+0x28>
    5f14:	ff650513          	addi	x10,x10,-10
    5f18:	03300713          	addi	x14,x0,51
    5f1c:	00e60023          	sb	x14,0(x12)
    5f20:	00160613          	addi	x12,x12,1
    5f24:	03050513          	addi	x10,x10,48
    5f28:	00a60023          	sb	x10,0(x12)
    5f2c:	00a00693          	addi	x13,x0,10
    5f30:	00d600a3          	sb	x13,1(x12)
    5f34:	00060123          	sb	x0,2(x12)
    5f38:	00008067          	jalr	x0,0(x1)
    5f3c:	00000013          	addi	x0,x0,0

Disassembly of section .text.rvmodel:

00020000 <rvmodel_boot>:
   20000:	feedc0b7          	lui	x1,0xfeedc
   20004:	ead08093          	addi	x1,x1,-339 # feedbead <absimm+0x8f911ba4>
   20008:	01909793          	slli	x15,x1,0x19
   2000c:	0070d113          	srli	x2,x1,0x7
   20010:	00f16133          	or	x2,x2,x15
   20014:	01911793          	slli	x15,x2,0x19
   20018:	00715193          	srli	x3,x2,0x7
   2001c:	00f1e1b3          	or	x3,x3,x15
   20020:	01919793          	slli	x15,x3,0x19
   20024:	0071d213          	srli	x4,x3,0x7
   20028:	00f26233          	or	x4,x4,x15
   2002c:	01921793          	slli	x15,x4,0x19
   20030:	00725293          	srli	x5,x4,0x7
   20034:	00f2e2b3          	or	x5,x5,x15
   20038:	01929793          	slli	x15,x5,0x19
   2003c:	0072d313          	srli	x6,x5,0x7
   20040:	00f36333          	or	x6,x6,x15
   20044:	01931793          	slli	x15,x6,0x19
   20048:	00735393          	srli	x7,x6,0x7
   2004c:	00f3e3b3          	or	x7,x7,x15
   20050:	01939793          	slli	x15,x7,0x19
   20054:	0073d413          	srli	x8,x7,0x7
   20058:	00f46433          	or	x8,x8,x15
   2005c:	01941793          	slli	x15,x8,0x19
   20060:	00745493          	srli	x9,x8,0x7
   20064:	00f4e4b3          	or	x9,x9,x15
   20068:	01949793          	slli	x15,x9,0x19
   2006c:	0074d513          	srli	x10,x9,0x7
   20070:	00f56533          	or	x10,x10,x15
   20074:	01951793          	slli	x15,x10,0x19
   20078:	00755593          	srli	x11,x10,0x7
   2007c:	00f5e5b3          	or	x11,x11,x15
   20080:	01959793          	slli	x15,x11,0x19
   20084:	0075d613          	srli	x12,x11,0x7
   20088:	00f66633          	or	x12,x12,x15
   2008c:	01961793          	slli	x15,x12,0x19
   20090:	00765693          	srli	x13,x12,0x7
   20094:	00f6e6b3          	or	x13,x13,x15
   20098:	01969793          	slli	x15,x13,0x19
   2009c:	0076d713          	srli	x14,x13,0x7
   200a0:	00f76733          	or	x14,x14,x15
   200a4:	fab807b7          	lui	x15,0xfab80
   200a8:	bb678793          	addi	x15,x15,-1098 # fab7fbb6 <absimm+0x8b5b58ad>
   200ac:	7d5c0837          	lui	x16,0x7d5c0
   200b0:	ddb80813          	addi	x16,x16,-549 # 7d5bfddb <absimm+0xdff5ad2>
   200b4:	01981793          	slli	x15,x16,0x19
   200b8:	00785893          	srli	x17,x16,0x7
   200bc:	00f8e8b3          	or	x17,x17,x15
   200c0:	01989793          	slli	x15,x17,0x19
   200c4:	0078d913          	srli	x18,x17,0x7
   200c8:	00f96933          	or	x18,x18,x15
   200cc:	01991793          	slli	x15,x18,0x19
   200d0:	00795993          	srli	x19,x18,0x7
   200d4:	00f9e9b3          	or	x19,x19,x15
   200d8:	01999793          	slli	x15,x19,0x19
   200dc:	0079da13          	srli	x20,x19,0x7
   200e0:	00fa6a33          	or	x20,x20,x15
   200e4:	019a1793          	slli	x15,x20,0x19
   200e8:	007a5a93          	srli	x21,x20,0x7
   200ec:	00faeab3          	or	x21,x21,x15
   200f0:	019a9793          	slli	x15,x21,0x19
   200f4:	007adb13          	srli	x22,x21,0x7
   200f8:	00fb6b33          	or	x22,x22,x15
   200fc:	019b1793          	slli	x15,x22,0x19
   20100:	007b5b93          	srli	x23,x22,0x7
   20104:	00fbebb3          	or	x23,x23,x15
   20108:	019b9793          	slli	x15,x23,0x19
   2010c:	007bdc13          	srli	x24,x23,0x7
   20110:	00fc6c33          	or	x24,x24,x15
   20114:	019c1793          	slli	x15,x24,0x19
   20118:	007c5c93          	srli	x25,x24,0x7
   2011c:	00fcecb3          	or	x25,x25,x15
   20120:	019c9793          	slli	x15,x25,0x19
   20124:	007cdd13          	srli	x26,x25,0x7
   20128:	00fd6d33          	or	x26,x26,x15
   2012c:	019d1793          	slli	x15,x26,0x19
   20130:	007d5d93          	srli	x27,x26,0x7
   20134:	00fdedb3          	or	x27,x27,x15
   20138:	019d9793          	slli	x15,x27,0x19
   2013c:	007dde13          	srli	x28,x27,0x7
   20140:	00fe6e33          	or	x28,x28,x15
   20144:	019e1793          	slli	x15,x28,0x19
   20148:	007e5e93          	srli	x29,x28,0x7
   2014c:	00feeeb3          	or	x29,x29,x15
   20150:	019e9793          	slli	x15,x29,0x19
   20154:	007edf13          	srli	x30,x29,0x7
   20158:	00ff6f33          	or	x30,x30,x15
   2015c:	019f1793          	slli	x15,x30,0x19
   20160:	007f5f93          	srli	x31,x30,0x7
   20164:	00ffefb3          	or	x31,x31,x15
   20168:	00000013          	addi	x0,x0,0
   2016c:	00000013          	addi	x0,x0,0
   20170:	00000013          	addi	x0,x0,0
   20174:	00000013          	addi	x0,x0,0
   20178:	00000013          	addi	x0,x0,0
   2017c:	00000013          	addi	x0,x0,0
   20180:	ffff1117          	auipc	x2,0xffff1
   20184:	b3010113          	addi	x2,x2,-1232 # 10cb0 <begin_signature>
   20188:	00000013          	addi	x0,x0,0
   2018c:	00000013          	addi	x0,x0,0
   20190:	00000013          	addi	x0,x0,0
   20194:	00000013          	addi	x0,x0,0
   20198:	00000013          	addi	x0,x0,0
   2019c:	00000013          	addi	x0,x0,0

000201a0 <canary_check>:
   201a0:	6f5ca337          	lui	x6,0x6f5ca
   201a4:	30930313          	addi	x6,x6,777 # 6f5ca309 <absimm>
   201a8:	00012203          	lw	x4,0(x2)
   201ac:	00620863          	beq	x4,x6,201bc <canary_check+0x1c>
   201b0:	b0ce42ef          	jal	x5,44bc <failedtest_x5_x4>
   201b4:	000201a0          	.word	0x000201a0
   201b8:	0001022a          	.word	0x0001022a
   201bc:	00410113          	addi	x2,x2,4
   201c0:	fffe8197          	auipc	x3,0xfffe8
   201c4:	f5018193          	addi	x3,x3,-176 # 8110 <rvtest_data_begin>
   201c8:	00000013          	addi	x0,x0,0
   201cc:	00000013          	addi	x0,x0,0
   201d0:	00000013          	addi	x0,x0,0
   201d4:	00000013          	addi	x0,x0,0
   201d8:	00000013          	addi	x0,x0,0
   201dc:	00000013          	addi	x0,x0,0
   201e0:	fffe0317          	auipc	x6,0xfffe0
   201e4:	e6030313          	addi	x6,x6,-416 # 40 <rvtest_code_begin>
   201e8:	00000013          	addi	x0,x0,0
   201ec:	00000013          	addi	x0,x0,0
   201f0:	00000013          	addi	x0,x0,0
   201f4:	00000013          	addi	x0,x0,0
   201f8:	00000013          	addi	x0,x0,0
   201fc:	00000013          	addi	x0,x0,0
   20200:	00030067          	jalr	x0,0(x6)

00020204 <rvmodel_io_write_str>:
   20204:	00008067          	jalr	x0,0(x1)

00020208 <rvmodel_halt_pass>:
   20208:	00000513          	addi	x10,x0,0
   2020c:	00000073          	ecall
   20210:	0000006f          	jal	x0,20210 <rvmodel_halt_pass+0x8>

00020214 <rvmodel_halt_fail>:
   20214:	00100513          	addi	x10,x0,1
   20218:	00000073          	ecall
   2021c:	0000006f          	jal	x0,2021c <rvmodel_halt_fail+0x8>
   20220:	00000013          	addi	x0,x0,0
   20224:	00000013          	addi	x0,x0,0
   20228:	00000013          	addi	x0,x0,0
   2022c:	00000013          	addi	x0,x0,0
   20230:	00000013          	addi	x0,x0,0
   20234:	00000013          	addi	x0,x0,0
   20238:	00000013          	addi	x0,x0,0
   2023c:	00000013          	addi	x0,x0,0
