
/home/dev/github/clones/riscv-arch-test/work/rv32i-core/elfs/rv32i/I/I-addi-00.elf:     file format elf32-littleriscv
/home/dev/github/clones/riscv-arch-test/work/rv32i-core/elfs/rv32i/I/I-addi-00.elf
architecture: riscv:rv32, flags 0x00000112:
EXEC_P, HAS_SYMS, D_PAGED
start address 0x00000000

Program Header:
0x70000003 off    0x0001e240 vaddr 0x00000000 paddr 0x00000000 align 2**0
         filesz 0x00000033 memsz 0x00000000 flags r--
    LOAD off    0x00001000 vaddr 0x00000000 paddr 0x00000000 align 2**12
         filesz 0x00004f40 memsz 0x00004f40 flags r-x
    LOAD off    0x00006000 vaddr 0x00008000 paddr 0x00008000 align 2**12
         filesz 0x00018240 memsz 0x00018240 flags rwx

Sections:
Idx Name          Size      VMA       LMA       File off  Algn
  0 .text.init    00000040  00000000  00000000  00001000  2**5
                  CONTENTS, ALLOC, LOAD, READONLY, CODE
  1 .text.rvtest  00004f00  00000040  00000040  00001040  2**5
                  CONTENTS, ALLOC, LOAD, READONLY, CODE
  2 .data         00017c90  00008000  00008000  00006000  2**8
                  CONTENTS, ALLOC, LOAD, DATA
  3 .text.rvmodel 00000240  00020000  00020000  0001e000  2**5
                  CONTENTS, ALLOC, LOAD, READONLY, CODE
  4 .riscv.attributes 00000033  00000000  00000000  0001e240  2**0
                  CONTENTS, READONLY
  5 .debug_line   00001adc  00000000  00000000  0001e273  2**0
                  CONTENTS, READONLY, DEBUGGING, OCTETS
  6 .debug_line_str 0000006a  00000000  00000000  0001fd4f  2**0
                  CONTENTS, READONLY, DEBUGGING, OCTETS
  7 .debug_info   00000023  00000000  00000000  0001fdb9  2**0
                  CONTENTS, READONLY, DEBUGGING, OCTETS
  8 .debug_abbrev 00000012  00000000  00000000  0001fddc  2**0
                  CONTENTS, READONLY, DEBUGGING, OCTETS
  9 .debug_aranges 00000028  00000000  00000000  0001fdf0  2**3
                  CONTENTS, READONLY, DEBUGGING, OCTETS
 10 .debug_str    00000076  00000000  00000000  0001fe18  2**0
                  CONTENTS, READONLY, DEBUGGING, OCTETS
 11 .debug_rnglists 0000001b  00000000  00000000  0001fe8e  2**0
                  CONTENTS, READONLY, DEBUGGING, OCTETS
SYMBOL TABLE:
00000000 l    d  .text.init	00000000 .text.init
00000040 l    d  .text.rvtest	00000000 .text.rvtest
00008000 l    d  .data	00000000 .data
00020000 l    d  .text.rvmodel	00000000 .text.rvmodel
00000000 l    d  .riscv.attributes	00000000 .riscv.attributes
00000000 l    d  .debug_line	00000000 .debug_line
00000000 l    d  .debug_line_str	00000000 .debug_line_str
00000000 l    d  .debug_info	00000000 .debug_info
00000000 l    d  .debug_abbrev	00000000 .debug_abbrev
00000000 l    d  .debug_aranges	00000000 .debug_aranges
00000000 l    d  .debug_str	00000000 .debug_str
00000000 l    d  .debug_rnglists	00000000 .debug_rnglists
00000000 l    df *ABS*	00000000 ccqsHD8w.o
00000003 l       *ABS*	00000000 MMODE_SIG
00000001 l       *ABS*	00000000 SMODE_SIG
00000001 l       *ABS*	00000000 HMODE_SIG
00000002 l       *ABS*	00000000 VMODE_SIG
00020000 l       .text.rvmodel	00000000 rvmodel_boot
00000048 l       .text.rvtest	00000000 I_addi_cg_cp_rs1_b0
000034bc l       .text.rvtest	00000000 failedtest_x5_x4
000086d0 l       .data	00000000 I_addi_cg_cp_rs1_b0_str
0000006c l       .text.rvtest	00000000 I_addi_cg_cp_rs1_b1
000086fe l       .data	00000000 I_addi_cg_cp_rs1_b1_str
00000094 l       .text.rvtest	00000000 I_addi_cg_cp_rs1_b2
0000872c l       .data	00000000 I_addi_cg_cp_rs1_b2_str
000000bc l       .text.rvtest	00000000 I_addi_cg_cp_rs1_b3
0000875a l       .data	00000000 I_addi_cg_cp_rs1_b3_str
000000e8 l       .text.rvtest	00000000 I_addi_cg_cp_rs1_b4
000034d4 l       .text.rvtest	00000000 failedtest_x8_x7
00008788 l       .data	00000000 I_addi_cg_cp_rs1_b4_str
0000010c l       .text.rvtest	00000000 I_addi_cg_cp_rs1_b5
000087b6 l       .data	00000000 I_addi_cg_cp_rs1_b5_str
00000130 l       .text.rvtest	00000000 I_addi_cg_cp_rs1_b6
000087e4 l       .data	00000000 I_addi_cg_cp_rs1_b6_str
0000015c l       .text.rvtest	00000000 I_addi_cg_cp_rs1_b7
000034fc l       .text.rvtest	00000000 failedtest_x14_x13
00008812 l       .data	00000000 I_addi_cg_cp_rs1_b7_str
00000180 l       .text.rvtest	00000000 I_addi_cg_cp_rs1_b8
00008840 l       .data	00000000 I_addi_cg_cp_rs1_b8_str
000001a8 l       .text.rvtest	00000000 I_addi_cg_cp_rs1_b9
0000886e l       .data	00000000 I_addi_cg_cp_rs1_b9_str
000001cc l       .text.rvtest	00000000 I_addi_cg_cp_rs1_b10
0000889d l       .data	00000000 I_addi_cg_cp_rs1_b10_str
000001f0 l       .text.rvtest	00000000 I_addi_cg_cp_rs1_b11
000088cd l       .data	00000000 I_addi_cg_cp_rs1_b11_str
00000214 l       .text.rvtest	00000000 I_addi_cg_cp_rs1_b12
000088fd l       .data	00000000 I_addi_cg_cp_rs1_b12_str
00000240 l       .text.rvtest	00000000 I_addi_cg_cp_rs1_b13
0000892d l       .data	00000000 I_addi_cg_cp_rs1_b13_str
00000264 l       .text.rvtest	00000000 I_addi_cg_cp_rs1_b14
0000895d l       .data	00000000 I_addi_cg_cp_rs1_b14_str
00000288 l       .text.rvtest	00000000 I_addi_cg_cp_rs1_b15
0000898d l       .data	00000000 I_addi_cg_cp_rs1_b15_str
000002ac l       .text.rvtest	00000000 I_addi_cg_cp_rs1_b16
000089bd l       .data	00000000 I_addi_cg_cp_rs1_b16_str
000002d0 l       .text.rvtest	00000000 I_addi_cg_cp_rs1_b17
000089ed l       .data	00000000 I_addi_cg_cp_rs1_b17_str
000002f4 l       .text.rvtest	00000000 I_addi_cg_cp_rs1_b18
00008a1d l       .data	00000000 I_addi_cg_cp_rs1_b18_str
00000318 l       .text.rvtest	00000000 I_addi_cg_cp_rs1_b19
00008a4d l       .data	00000000 I_addi_cg_cp_rs1_b19_str
0000033c l       .text.rvtest	00000000 I_addi_cg_cp_rs1_b20
00008a7d l       .data	00000000 I_addi_cg_cp_rs1_b20_str
00000360 l       .text.rvtest	00000000 I_addi_cg_cp_rs1_b21
00008aad l       .data	00000000 I_addi_cg_cp_rs1_b21_str
00000388 l       .text.rvtest	00000000 I_addi_cg_cp_rs1_b22
00008add l       .data	00000000 I_addi_cg_cp_rs1_b22_str
000003ac l       .text.rvtest	00000000 I_addi_cg_cp_rs1_b23
00008b0d l       .data	00000000 I_addi_cg_cp_rs1_b23_str
000003d0 l       .text.rvtest	00000000 I_addi_cg_cp_rs1_b24
00008b3d l       .data	00000000 I_addi_cg_cp_rs1_b24_str
000003f8 l       .text.rvtest	00000000 I_addi_cg_cp_rs1_b25
00008b6d l       .data	00000000 I_addi_cg_cp_rs1_b25_str
0000041c l       .text.rvtest	00000000 I_addi_cg_cp_rs1_b26
00008b9d l       .data	00000000 I_addi_cg_cp_rs1_b26_str
00000440 l       .text.rvtest	00000000 I_addi_cg_cp_rs1_b27
00008bcd l       .data	00000000 I_addi_cg_cp_rs1_b27_str
00000464 l       .text.rvtest	00000000 I_addi_cg_cp_rs1_b28
00008bfd l       .data	00000000 I_addi_cg_cp_rs1_b28_str
00000488 l       .text.rvtest	00000000 I_addi_cg_cp_rs1_b29
00008c2d l       .data	00000000 I_addi_cg_cp_rs1_b29_str
000004ac l       .text.rvtest	00000000 I_addi_cg_cp_rs1_b30
00008c5d l       .data	00000000 I_addi_cg_cp_rs1_b30_str
000004d0 l       .text.rvtest	00000000 I_addi_cg_cp_rs1_b31
00008c8d l       .data	00000000 I_addi_cg_cp_rs1_b31_str
000004f4 l       .text.rvtest	00000000 I_addi_cg_cp_rd_b0
00008cbd l       .data	00000000 I_addi_cg_cp_rd_b0_str
00000518 l       .text.rvtest	00000000 I_addi_cg_cp_rd_b1
00008ceb l       .data	00000000 I_addi_cg_cp_rd_b1_str
0000053c l       .text.rvtest	00000000 I_addi_cg_cp_rd_b2
00008d19 l       .data	00000000 I_addi_cg_cp_rd_b2_str
00000560 l       .text.rvtest	00000000 I_addi_cg_cp_rd_b3
00008d47 l       .data	00000000 I_addi_cg_cp_rd_b3_str
0000058c l       .text.rvtest	00000000 I_addi_cg_cp_rd_b4
00008d75 l       .data	00000000 I_addi_cg_cp_rd_b4_str
000005b0 l       .text.rvtest	00000000 I_addi_cg_cp_rd_b5
00008da3 l       .data	00000000 I_addi_cg_cp_rd_b5_str
000005d4 l       .text.rvtest	00000000 I_addi_cg_cp_rd_b6
00008dd1 l       .data	00000000 I_addi_cg_cp_rd_b6_str
000005f8 l       .text.rvtest	00000000 I_addi_cg_cp_rd_b7
00008dff l       .data	00000000 I_addi_cg_cp_rd_b7_str
0000061c l       .text.rvtest	00000000 I_addi_cg_cp_rd_b8
00008e2d l       .data	00000000 I_addi_cg_cp_rd_b8_str
00000640 l       .text.rvtest	00000000 I_addi_cg_cp_rd_b9
00008e5b l       .data	00000000 I_addi_cg_cp_rd_b9_str
00000664 l       .text.rvtest	00000000 I_addi_cg_cp_rd_b10
00008e89 l       .data	00000000 I_addi_cg_cp_rd_b10_str
00000688 l       .text.rvtest	00000000 I_addi_cg_cp_rd_b11
00008eb8 l       .data	00000000 I_addi_cg_cp_rd_b11_str
000006ac l       .text.rvtest	00000000 I_addi_cg_cp_rd_b12
00008ee7 l       .data	00000000 I_addi_cg_cp_rd_b12_str
000006d8 l       .text.rvtest	00000000 I_addi_cg_cp_rd_b13
00008f16 l       .data	00000000 I_addi_cg_cp_rd_b13_str
000006fc l       .text.rvtest	00000000 I_addi_cg_cp_rd_b14
00008f45 l       .data	00000000 I_addi_cg_cp_rd_b14_str
00000720 l       .text.rvtest	00000000 I_addi_cg_cp_rd_b15
00008f74 l       .data	00000000 I_addi_cg_cp_rd_b15_str
00000744 l       .text.rvtest	00000000 I_addi_cg_cp_rd_b16
00008fa3 l       .data	00000000 I_addi_cg_cp_rd_b16_str
0000076c l       .text.rvtest	00000000 I_addi_cg_cp_rd_b17
00008fd2 l       .data	00000000 I_addi_cg_cp_rd_b17_str
00000794 l       .text.rvtest	00000000 I_addi_cg_cp_rd_b18
00009001 l       .data	00000000 I_addi_cg_cp_rd_b18_str
000007b8 l       .text.rvtest	00000000 I_addi_cg_cp_rd_b19
00009030 l       .data	00000000 I_addi_cg_cp_rd_b19_str
000007dc l       .text.rvtest	00000000 I_addi_cg_cp_rd_b20
0000905f l       .data	00000000 I_addi_cg_cp_rd_b20_str
00000800 l       .text.rvtest	00000000 I_addi_cg_cp_rd_b21
0000908e l       .data	00000000 I_addi_cg_cp_rd_b21_str
00000824 l       .text.rvtest	00000000 I_addi_cg_cp_rd_b22
000090bd l       .data	00000000 I_addi_cg_cp_rd_b22_str
00000848 l       .text.rvtest	00000000 I_addi_cg_cp_rd_b23
000090ec l       .data	00000000 I_addi_cg_cp_rd_b23_str
0000086c l       .text.rvtest	00000000 I_addi_cg_cp_rd_b24
0000911b l       .data	00000000 I_addi_cg_cp_rd_b24_str
00000894 l       .text.rvtest	00000000 I_addi_cg_cp_rd_b25
0000914a l       .data	00000000 I_addi_cg_cp_rd_b25_str
000008bc l       .text.rvtest	00000000 I_addi_cg_cp_rd_b26
00009179 l       .data	00000000 I_addi_cg_cp_rd_b26_str
000008e0 l       .text.rvtest	00000000 I_addi_cg_cp_rd_b27
000091a8 l       .data	00000000 I_addi_cg_cp_rd_b27_str
00000904 l       .text.rvtest	00000000 I_addi_cg_cp_rd_b28
000091d7 l       .data	00000000 I_addi_cg_cp_rd_b28_str
00000928 l       .text.rvtest	00000000 I_addi_cg_cp_rd_b29
00009206 l       .data	00000000 I_addi_cg_cp_rd_b29_str
0000094c l       .text.rvtest	00000000 I_addi_cg_cp_rd_b30
00009235 l       .data	00000000 I_addi_cg_cp_rd_b30_str
00000974 l       .text.rvtest	00000000 I_addi_cg_cp_rd_b31
00009264 l       .data	00000000 I_addi_cg_cp_rd_b31_str
00000998 l       .text.rvtest	00000000 I_addi_cg_cp_rs1_edges_0x0
00009293 l       .data	00000000 I_addi_cg_cp_rs1_edges_0x0_str
000009bc l       .text.rvtest	00000000 I_addi_cg_cp_rs1_edges_0x1
000092c9 l       .data	00000000 I_addi_cg_cp_rs1_edges_0x1_str
000009e0 l       .text.rvtest	00000000 I_addi_cg_cp_rs1_edges_0x2
000092ff l       .data	00000000 I_addi_cg_cp_rs1_edges_0x2_str
00000a04 l       .text.rvtest	00000000 I_addi_cg_cp_rs1_edges_0x80000000
00009335 l       .data	00000000 I_addi_cg_cp_rs1_edges_0x80000000_str
00000a28 l       .text.rvtest	00000000 I_addi_cg_cp_rs1_edges_0x80000001
00009372 l       .data	00000000 I_addi_cg_cp_rs1_edges_0x80000001_str
00000a4c l       .text.rvtest	00000000 I_addi_cg_cp_rs1_edges_0x7fffffff
000093af l       .data	00000000 I_addi_cg_cp_rs1_edges_0x7fffffff_str
00000a70 l       .text.rvtest	00000000 I_addi_cg_cp_rs1_edges_0x7ffffffe
000093ec l       .data	00000000 I_addi_cg_cp_rs1_edges_0x7ffffffe_str
00000a94 l       .text.rvtest	00000000 I_addi_cg_cp_rs1_edges_0xffffffff
00009429 l       .data	00000000 I_addi_cg_cp_rs1_edges_0xffffffff_str
00000ab8 l       .text.rvtest	00000000 I_addi_cg_cp_rs1_edges_0xfffffffe
00009466 l       .data	00000000 I_addi_cg_cp_rs1_edges_0xfffffffe_str
00000adc l       .text.rvtest	00000000 I_addi_cg_cp_rs1_edges_0x5bbc8872
000094a3 l       .data	00000000 I_addi_cg_cp_rs1_edges_0x5bbc8872_str
00000b00 l       .text.rvtest	00000000 I_addi_cg_cp_rs1_edges_0xaaaaaaaa
000094e0 l       .data	00000000 I_addi_cg_cp_rs1_edges_0xaaaaaaaa_str
00000b24 l       .text.rvtest	00000000 I_addi_cg_cp_rs1_edges_0x55555555
0000951d l       .data	00000000 I_addi_cg_cp_rs1_edges_0x55555555_str
00000b48 l       .text.rvtest	00000000 I_addi_cg_cr_rs1_imm_edges_rs1val_0x0_immval_0x0
0000955a l       .data	00000000 I_addi_cg_cr_rs1_imm_edges_rs1val_0x0_immval_0x0_str
00000b6c l       .text.rvtest	00000000 I_addi_cg_cr_rs1_imm_edges_rs1val_0x0_immval_0x1
000095a7 l       .data	00000000 I_addi_cg_cr_rs1_imm_edges_rs1val_0x0_immval_0x1_str
00000b90 l       .text.rvtest	00000000 I_addi_cg_cr_rs1_imm_edges_rs1val_0x0_immval_0x2
000095f4 l       .data	00000000 I_addi_cg_cr_rs1_imm_edges_rs1val_0x0_immval_0x2_str
00000bb4 l       .text.rvtest	00000000 I_addi_cg_cr_rs1_imm_edges_rs1val_0x0_immval_0x3
00009641 l       .data	00000000 I_addi_cg_cr_rs1_imm_edges_rs1val_0x0_immval_0x3_str
00000bd8 l       .text.rvtest	00000000 I_addi_cg_cr_rs1_imm_edges_rs1val_0x0_immval_0x4
0000968e l       .data	00000000 I_addi_cg_cr_rs1_imm_edges_rs1val_0x0_immval_0x4_str
00000bfc l       .text.rvtest	00000000 I_addi_cg_cr_rs1_imm_edges_rs1val_0x0_immval_0x8
000096db l       .data	00000000 I_addi_cg_cr_rs1_imm_edges_rs1val_0x0_immval_0x8_str
00000c20 l       .text.rvtest	00000000 I_addi_cg_cr_rs1_imm_edges_rs1val_0x0_immval_0x10
00009728 l       .data	00000000 I_addi_cg_cr_rs1_imm_edges_rs1val_0x0_immval_0x10_str
00000c44 l       .text.rvtest	00000000 I_addi_cg_cr_rs1_imm_edges_rs1val_0x0_immval_0x20
00009776 l       .data	00000000 I_addi_cg_cr_rs1_imm_edges_rs1val_0x0_immval_0x20_str
00000c68 l       .text.rvtest	00000000 I_addi_cg_cr_rs1_imm_edges_rs1val_0x0_immval_0x40
000097c4 l       .data	00000000 I_addi_cg_cr_rs1_imm_edges_rs1val_0x0_immval_0x40_str
00000c8c l       .text.rvtest	00000000 I_addi_cg_cr_rs1_imm_edges_rs1val_0x0_immval_0x80
00009812 l       .data	00000000 I_addi_cg_cr_rs1_imm_edges_rs1val_0x0_immval_0x80_str
00000cb0 l       .text.rvtest	00000000 I_addi_cg_cr_rs1_imm_edges_rs1val_0x0_immval_0x100
00009860 l       .data	00000000 I_addi_cg_cr_rs1_imm_edges_rs1val_0x0_immval_0x100_str
00000cd4 l       .text.rvtest	00000000 I_addi_cg_cr_rs1_imm_edges_rs1val_0x0_immval_0x200
000098af l       .data	00000000 I_addi_cg_cr_rs1_imm_edges_rs1val_0x0_immval_0x200_str
00000cf8 l       .text.rvtest	00000000 I_addi_cg_cr_rs1_imm_edges_rs1val_0x0_immval_0x3ff
000098fe l       .data	00000000 I_addi_cg_cr_rs1_imm_edges_rs1val_0x0_immval_0x3ff_str
00000d1c l       .text.rvtest	00000000 I_addi_cg_cr_rs1_imm_edges_rs1val_0x0_immval_0x400
0000994d l       .data	00000000 I_addi_cg_cr_rs1_imm_edges_rs1val_0x0_immval_0x400_str
00000d40 l       .text.rvtest	00000000 I_addi_cg_cr_rs1_imm_edges_rs1val_0x0_immval_0x703
0000999c l       .data	00000000 I_addi_cg_cr_rs1_imm_edges_rs1val_0x0_immval_0x703_str
00000d64 l       .text.rvtest	00000000 I_addi_cg_cr_rs1_imm_edges_rs1val_0x0_immval_0x7ff
000099eb l       .data	00000000 I_addi_cg_cr_rs1_imm_edges_rs1val_0x0_immval_0x7ff_str
00000d88 l       .text.rvtest	00000000 I_addi_cg_cr_rs1_imm_edges_rs1val_0x0_immval_m0x800
00009a3a l       .data	00000000 I_addi_cg_cr_rs1_imm_edges_rs1val_0x0_immval_m0x800_str
00000dac l       .text.rvtest	00000000 I_addi_cg_cr_rs1_imm_edges_rs1val_0x0_immval_m0x7ff
00009a8a l       .data	00000000 I_addi_cg_cr_rs1_imm_edges_rs1val_0x0_immval_m0x7ff_str
00000dd0 l       .text.rvtest	00000000 I_addi_cg_cr_rs1_imm_edges_rs1val_0x0_immval_m0x2
00009ada l       .data	00000000 I_addi_cg_cr_rs1_imm_edges_rs1val_0x0_immval_m0x2_str
00000df4 l       .text.rvtest	00000000 I_addi_cg_cr_rs1_imm_edges_rs1val_0x0_immval_m0x1
00009b28 l       .data	00000000 I_addi_cg_cr_rs1_imm_edges_rs1val_0x0_immval_m0x1_str
00000e18 l       .text.rvtest	00000000 I_addi_cg_cr_rs1_imm_edges_rs1val_0x1_immval_0x0
00009b76 l       .data	00000000 I_addi_cg_cr_rs1_imm_edges_rs1val_0x1_immval_0x0_str
00000e3c l       .text.rvtest	00000000 I_addi_cg_cr_rs1_imm_edges_rs1val_0x1_immval_0x1
00009bc3 l       .data	00000000 I_addi_cg_cr_rs1_imm_edges_rs1val_0x1_immval_0x1_str
00000e60 l       .text.rvtest	00000000 I_addi_cg_cr_rs1_imm_edges_rs1val_0x1_immval_0x2
00009c10 l       .data	00000000 I_addi_cg_cr_rs1_imm_edges_rs1val_0x1_immval_0x2_str
00000e84 l       .text.rvtest	00000000 I_addi_cg_cr_rs1_imm_edges_rs1val_0x1_immval_0x3
00009c5d l       .data	00000000 I_addi_cg_cr_rs1_imm_edges_rs1val_0x1_immval_0x3_str
00000ea8 l       .text.rvtest	00000000 I_addi_cg_cr_rs1_imm_edges_rs1val_0x1_immval_0x4
00009cab l       .data	00000000 I_addi_cg_cr_rs1_imm_edges_rs1val_0x1_immval_0x4_str
00000ecc l       .text.rvtest	00000000 I_addi_cg_cr_rs1_imm_edges_rs1val_0x1_immval_0x8
00009cf9 l       .data	00000000 I_addi_cg_cr_rs1_imm_edges_rs1val_0x1_immval_0x8_str
00000ef0 l       .text.rvtest	00000000 I_addi_cg_cr_rs1_imm_edges_rs1val_0x1_immval_0x10
00009d47 l       .data	00000000 I_addi_cg_cr_rs1_imm_edges_rs1val_0x1_immval_0x10_str
00000f14 l       .text.rvtest	00000000 I_addi_cg_cr_rs1_imm_edges_rs1val_0x1_immval_0x20
00009d96 l       .data	00000000 I_addi_cg_cr_rs1_imm_edges_rs1val_0x1_immval_0x20_str
00000f38 l       .text.rvtest	00000000 I_addi_cg_cr_rs1_imm_edges_rs1val_0x1_immval_0x40
00009de5 l       .data	00000000 I_addi_cg_cr_rs1_imm_edges_rs1val_0x1_immval_0x40_str
00000f5c l       .text.rvtest	00000000 I_addi_cg_cr_rs1_imm_edges_rs1val_0x1_immval_0x80
00009e34 l       .data	00000000 I_addi_cg_cr_rs1_imm_edges_rs1val_0x1_immval_0x80_str
00000f80 l       .text.rvtest	00000000 I_addi_cg_cr_rs1_imm_edges_rs1val_0x1_immval_0x100
00009e83 l       .data	00000000 I_addi_cg_cr_rs1_imm_edges_rs1val_0x1_immval_0x100_str
00000fa4 l       .text.rvtest	00000000 I_addi_cg_cr_rs1_imm_edges_rs1val_0x1_immval_0x200
00009ed3 l       .data	00000000 I_addi_cg_cr_rs1_imm_edges_rs1val_0x1_immval_0x200_str
00000fc8 l       .text.rvtest	00000000 I_addi_cg_cr_rs1_imm_edges_rs1val_0x1_immval_0x3ff
00009f23 l       .data	00000000 I_addi_cg_cr_rs1_imm_edges_rs1val_0x1_immval_0x3ff_str
00000fec l       .text.rvtest	00000000 I_addi_cg_cr_rs1_imm_edges_rs1val_0x1_immval_0x400
00009f73 l       .data	00000000 I_addi_cg_cr_rs1_imm_edges_rs1val_0x1_immval_0x400_str
00001010 l       .text.rvtest	00000000 I_addi_cg_cr_rs1_imm_edges_rs1val_0x1_immval_0x703
00009fc3 l       .data	00000000 I_addi_cg_cr_rs1_imm_edges_rs1val_0x1_immval_0x703_str
00001034 l       .text.rvtest	00000000 I_addi_cg_cr_rs1_imm_edges_rs1val_0x1_immval_0x7ff
0000a013 l       .data	00000000 I_addi_cg_cr_rs1_imm_edges_rs1val_0x1_immval_0x7ff_str
00001058 l       .text.rvtest	00000000 I_addi_cg_cr_rs1_imm_edges_rs1val_0x1_immval_m0x800
0000a063 l       .data	00000000 I_addi_cg_cr_rs1_imm_edges_rs1val_0x1_immval_m0x800_str
0000107c l       .text.rvtest	00000000 I_addi_cg_cr_rs1_imm_edges_rs1val_0x1_immval_m0x7ff
0000a0b4 l       .data	00000000 I_addi_cg_cr_rs1_imm_edges_rs1val_0x1_immval_m0x7ff_str
000010a0 l       .text.rvtest	00000000 I_addi_cg_cr_rs1_imm_edges_rs1val_0x1_immval_m0x2
0000a105 l       .data	00000000 I_addi_cg_cr_rs1_imm_edges_rs1val_0x1_immval_m0x2_str
000010c4 l       .text.rvtest	00000000 I_addi_cg_cr_rs1_imm_edges_rs1val_0x1_immval_m0x1
0000a154 l       .data	00000000 I_addi_cg_cr_rs1_imm_edges_rs1val_0x1_immval_m0x1_str
000010e8 l       .text.rvtest	00000000 I_addi_cg_cr_rs1_imm_edges_rs1val_0x2_immval_0x0
0000a1a3 l       .data	00000000 I_addi_cg_cr_rs1_imm_edges_rs1val_0x2_immval_0x0_str
0000110c l       .text.rvtest	00000000 I_addi_cg_cr_rs1_imm_edges_rs1val_0x2_immval_0x1
0000a1f1 l       .data	00000000 I_addi_cg_cr_rs1_imm_edges_rs1val_0x2_immval_0x1_str
00001130 l       .text.rvtest	00000000 I_addi_cg_cr_rs1_imm_edges_rs1val_0x2_immval_0x2
0000a23f l       .data	00000000 I_addi_cg_cr_rs1_imm_edges_rs1val_0x2_immval_0x2_str
00001154 l       .text.rvtest	00000000 I_addi_cg_cr_rs1_imm_edges_rs1val_0x2_immval_0x3
0000a28d l       .data	00000000 I_addi_cg_cr_rs1_imm_edges_rs1val_0x2_immval_0x3_str
00001178 l       .text.rvtest	00000000 I_addi_cg_cr_rs1_imm_edges_rs1val_0x2_immval_0x4
0000a2db l       .data	00000000 I_addi_cg_cr_rs1_imm_edges_rs1val_0x2_immval_0x4_str
0000119c l       .text.rvtest	00000000 I_addi_cg_cr_rs1_imm_edges_rs1val_0x2_immval_0x8
0000a329 l       .data	00000000 I_addi_cg_cr_rs1_imm_edges_rs1val_0x2_immval_0x8_str
000011c0 l       .text.rvtest	00000000 I_addi_cg_cr_rs1_imm_edges_rs1val_0x2_immval_0x10
0000a377 l       .data	00000000 I_addi_cg_cr_rs1_imm_edges_rs1val_0x2_immval_0x10_str
000011e4 l       .text.rvtest	00000000 I_addi_cg_cr_rs1_imm_edges_rs1val_0x2_immval_0x20
0000a3c6 l       .data	00000000 I_addi_cg_cr_rs1_imm_edges_rs1val_0x2_immval_0x20_str
00001208 l       .text.rvtest	00000000 I_addi_cg_cr_rs1_imm_edges_rs1val_0x2_immval_0x40
0000a415 l       .data	00000000 I_addi_cg_cr_rs1_imm_edges_rs1val_0x2_immval_0x40_str
0000122c l       .text.rvtest	00000000 I_addi_cg_cr_rs1_imm_edges_rs1val_0x2_immval_0x80
0000a464 l       .data	00000000 I_addi_cg_cr_rs1_imm_edges_rs1val_0x2_immval_0x80_str
00001250 l       .text.rvtest	00000000 I_addi_cg_cr_rs1_imm_edges_rs1val_0x2_immval_0x100
0000a4b3 l       .data	00000000 I_addi_cg_cr_rs1_imm_edges_rs1val_0x2_immval_0x100_str
00001274 l       .text.rvtest	00000000 I_addi_cg_cr_rs1_imm_edges_rs1val_0x2_immval_0x200
0000a503 l       .data	00000000 I_addi_cg_cr_rs1_imm_edges_rs1val_0x2_immval_0x200_str
00001298 l       .text.rvtest	00000000 I_addi_cg_cr_rs1_imm_edges_rs1val_0x2_immval_0x3ff
0000a553 l       .data	00000000 I_addi_cg_cr_rs1_imm_edges_rs1val_0x2_immval_0x3ff_str
000012bc l       .text.rvtest	00000000 I_addi_cg_cr_rs1_imm_edges_rs1val_0x2_immval_0x400
0000a5a3 l       .data	00000000 I_addi_cg_cr_rs1_imm_edges_rs1val_0x2_immval_0x400_str
000012e0 l       .text.rvtest	00000000 I_addi_cg_cr_rs1_imm_edges_rs1val_0x2_immval_0x703
0000a5f3 l       .data	00000000 I_addi_cg_cr_rs1_imm_edges_rs1val_0x2_immval_0x703_str
00001304 l       .text.rvtest	00000000 I_addi_cg_cr_rs1_imm_edges_rs1val_0x2_immval_0x7ff
0000a643 l       .data	00000000 I_addi_cg_cr_rs1_imm_edges_rs1val_0x2_immval_0x7ff_str
00001328 l       .text.rvtest	00000000 I_addi_cg_cr_rs1_imm_edges_rs1val_0x2_immval_m0x800
0000a693 l       .data	00000000 I_addi_cg_cr_rs1_imm_edges_rs1val_0x2_immval_m0x800_str
0000134c l       .text.rvtest	00000000 I_addi_cg_cr_rs1_imm_edges_rs1val_0x2_immval_m0x7ff
0000a6e4 l       .data	00000000 I_addi_cg_cr_rs1_imm_edges_rs1val_0x2_immval_m0x7ff_str
00001370 l       .text.rvtest	00000000 I_addi_cg_cr_rs1_imm_edges_rs1val_0x2_immval_m0x2
0000a735 l       .data	00000000 I_addi_cg_cr_rs1_imm_edges_rs1val_0x2_immval_m0x2_str
00001394 l       .text.rvtest	00000000 I_addi_cg_cr_rs1_imm_edges_rs1val_0x2_immval_m0x1
0000a784 l       .data	00000000 I_addi_cg_cr_rs1_imm_edges_rs1val_0x2_immval_m0x1_str
000013b8 l       .text.rvtest	00000000 I_addi_cg_cr_rs1_imm_edges_rs1val_0x80000000_immval_0x0
0000a7d3 l       .data	00000000 I_addi_cg_cr_rs1_imm_edges_rs1val_0x80000000_immval_0x0_str
000013dc l       .text.rvtest	00000000 I_addi_cg_cr_rs1_imm_edges_rs1val_0x80000000_immval_0x1
0000a828 l       .data	00000000 I_addi_cg_cr_rs1_imm_edges_rs1val_0x80000000_immval_0x1_str
00001400 l       .text.rvtest	00000000 I_addi_cg_cr_rs1_imm_edges_rs1val_0x80000000_immval_0x2
0000a87d l       .data	00000000 I_addi_cg_cr_rs1_imm_edges_rs1val_0x80000000_immval_0x2_str
00001424 l       .text.rvtest	00000000 I_addi_cg_cr_rs1_imm_edges_rs1val_0x80000000_immval_0x3
0000a8d2 l       .data	00000000 I_addi_cg_cr_rs1_imm_edges_rs1val_0x80000000_immval_0x3_str
00001448 l       .text.rvtest	00000000 I_addi_cg_cr_rs1_imm_edges_rs1val_0x80000000_immval_0x4
0000a927 l       .data	00000000 I_addi_cg_cr_rs1_imm_edges_rs1val_0x80000000_immval_0x4_str
0000146c l       .text.rvtest	00000000 I_addi_cg_cr_rs1_imm_edges_rs1val_0x80000000_immval_0x8
0000a97c l       .data	00000000 I_addi_cg_cr_rs1_imm_edges_rs1val_0x80000000_immval_0x8_str
00001490 l       .text.rvtest	00000000 I_addi_cg_cr_rs1_imm_edges_rs1val_0x80000000_immval_0x10
0000a9d1 l       .data	00000000 I_addi_cg_cr_rs1_imm_edges_rs1val_0x80000000_immval_0x10_str
000014b4 l       .text.rvtest	00000000 I_addi_cg_cr_rs1_imm_edges_rs1val_0x80000000_immval_0x20
0000aa27 l       .data	00000000 I_addi_cg_cr_rs1_imm_edges_rs1val_0x80000000_immval_0x20_str
000014d8 l       .text.rvtest	00000000 I_addi_cg_cr_rs1_imm_edges_rs1val_0x80000000_immval_0x40
0000aa7d l       .data	00000000 I_addi_cg_cr_rs1_imm_edges_rs1val_0x80000000_immval_0x40_str
000014fc l       .text.rvtest	00000000 I_addi_cg_cr_rs1_imm_edges_rs1val_0x80000000_immval_0x80
0000aad3 l       .data	00000000 I_addi_cg_cr_rs1_imm_edges_rs1val_0x80000000_immval_0x80_str
00001520 l       .text.rvtest	00000000 I_addi_cg_cr_rs1_imm_edges_rs1val_0x80000000_immval_0x100
0000ab29 l       .data	00000000 I_addi_cg_cr_rs1_imm_edges_rs1val_0x80000000_immval_0x100_str
00001544 l       .text.rvtest	00000000 I_addi_cg_cr_rs1_imm_edges_rs1val_0x80000000_immval_0x200
0000ab80 l       .data	00000000 I_addi_cg_cr_rs1_imm_edges_rs1val_0x80000000_immval_0x200_str
00001568 l       .text.rvtest	00000000 I_addi_cg_cr_rs1_imm_edges_rs1val_0x80000000_immval_0x3ff
0000abd7 l       .data	00000000 I_addi_cg_cr_rs1_imm_edges_rs1val_0x80000000_immval_0x3ff_str
0000158c l       .text.rvtest	00000000 I_addi_cg_cr_rs1_imm_edges_rs1val_0x80000000_immval_0x400
0000ac2e l       .data	00000000 I_addi_cg_cr_rs1_imm_edges_rs1val_0x80000000_immval_0x400_str
000015b0 l       .text.rvtest	00000000 I_addi_cg_cr_rs1_imm_edges_rs1val_0x80000000_immval_0x703
0000ac85 l       .data	00000000 I_addi_cg_cr_rs1_imm_edges_rs1val_0x80000000_immval_0x703_str
000015d4 l       .text.rvtest	00000000 I_addi_cg_cr_rs1_imm_edges_rs1val_0x80000000_immval_0x7ff
0000acdc l       .data	00000000 I_addi_cg_cr_rs1_imm_edges_rs1val_0x80000000_immval_0x7ff_str
000015f8 l       .text.rvtest	00000000 I_addi_cg_cr_rs1_imm_edges_rs1val_0x80000000_immval_m0x800
0000ad33 l       .data	00000000 I_addi_cg_cr_rs1_imm_edges_rs1val_0x80000000_immval_m0x800_str
0000161c l       .text.rvtest	00000000 I_addi_cg_cr_rs1_imm_edges_rs1val_0x80000000_immval_m0x7ff
0000ad8b l       .data	00000000 I_addi_cg_cr_rs1_imm_edges_rs1val_0x80000000_immval_m0x7ff_str
00001640 l       .text.rvtest	00000000 I_addi_cg_cr_rs1_imm_edges_rs1val_0x80000000_immval_m0x2
0000ade3 l       .data	00000000 I_addi_cg_cr_rs1_imm_edges_rs1val_0x80000000_immval_m0x2_str
00001664 l       .text.rvtest	00000000 I_addi_cg_cr_rs1_imm_edges_rs1val_0x80000000_immval_m0x1
0000ae39 l       .data	00000000 I_addi_cg_cr_rs1_imm_edges_rs1val_0x80000000_immval_m0x1_str
00001688 l       .text.rvtest	00000000 I_addi_cg_cr_rs1_imm_edges_rs1val_0x80000001_immval_0x0
0000ae8f l       .data	00000000 I_addi_cg_cr_rs1_imm_edges_rs1val_0x80000001_immval_0x0_str
000016ac l       .text.rvtest	00000000 I_addi_cg_cr_rs1_imm_edges_rs1val_0x80000001_immval_0x1
0000aee4 l       .data	00000000 I_addi_cg_cr_rs1_imm_edges_rs1val_0x80000001_immval_0x1_str
000016d0 l       .text.rvtest	00000000 I_addi_cg_cr_rs1_imm_edges_rs1val_0x80000001_immval_0x2
0000af39 l       .data	00000000 I_addi_cg_cr_rs1_imm_edges_rs1val_0x80000001_immval_0x2_str
000016f4 l       .text.rvtest	00000000 I_addi_cg_cr_rs1_imm_edges_rs1val_0x80000001_immval_0x3
0000af8e l       .data	00000000 I_addi_cg_cr_rs1_imm_edges_rs1val_0x80000001_immval_0x3_str
00001718 l       .text.rvtest	00000000 I_addi_cg_cr_rs1_imm_edges_rs1val_0x80000001_immval_0x4
0000afe3 l       .data	00000000 I_addi_cg_cr_rs1_imm_edges_rs1val_0x80000001_immval_0x4_str
0000173c l       .text.rvtest	00000000 I_addi_cg_cr_rs1_imm_edges_rs1val_0x80000001_immval_0x8
0000b038 l       .data	00000000 I_addi_cg_cr_rs1_imm_edges_rs1val_0x80000001_immval_0x8_str
00001760 l       .text.rvtest	00000000 I_addi_cg_cr_rs1_imm_edges_rs1val_0x80000001_immval_0x10
0000b08d l       .data	00000000 I_addi_cg_cr_rs1_imm_edges_rs1val_0x80000001_immval_0x10_str
00001784 l       .text.rvtest	00000000 I_addi_cg_cr_rs1_imm_edges_rs1val_0x80000001_immval_0x20
0000b0e3 l       .data	00000000 I_addi_cg_cr_rs1_imm_edges_rs1val_0x80000001_immval_0x20_str
000017a8 l       .text.rvtest	00000000 I_addi_cg_cr_rs1_imm_edges_rs1val_0x80000001_immval_0x40
0000b139 l       .data	00000000 I_addi_cg_cr_rs1_imm_edges_rs1val_0x80000001_immval_0x40_str
000017cc l       .text.rvtest	00000000 I_addi_cg_cr_rs1_imm_edges_rs1val_0x80000001_immval_0x80
0000b18f l       .data	00000000 I_addi_cg_cr_rs1_imm_edges_rs1val_0x80000001_immval_0x80_str
000017f0 l       .text.rvtest	00000000 I_addi_cg_cr_rs1_imm_edges_rs1val_0x80000001_immval_0x100
0000b1e5 l       .data	00000000 I_addi_cg_cr_rs1_imm_edges_rs1val_0x80000001_immval_0x100_str
00001814 l       .text.rvtest	00000000 I_addi_cg_cr_rs1_imm_edges_rs1val_0x80000001_immval_0x200
0000b23c l       .data	00000000 I_addi_cg_cr_rs1_imm_edges_rs1val_0x80000001_immval_0x200_str
00001838 l       .text.rvtest	00000000 I_addi_cg_cr_rs1_imm_edges_rs1val_0x80000001_immval_0x3ff
0000b293 l       .data	00000000 I_addi_cg_cr_rs1_imm_edges_rs1val_0x80000001_immval_0x3ff_str
0000185c l       .text.rvtest	00000000 I_addi_cg_cr_rs1_imm_edges_rs1val_0x80000001_immval_0x400
0000b2ea l       .data	00000000 I_addi_cg_cr_rs1_imm_edges_rs1val_0x80000001_immval_0x400_str
00001880 l       .text.rvtest	00000000 I_addi_cg_cr_rs1_imm_edges_rs1val_0x80000001_immval_0x703
0000b341 l       .data	00000000 I_addi_cg_cr_rs1_imm_edges_rs1val_0x80000001_immval_0x703_str
000018a4 l       .text.rvtest	00000000 I_addi_cg_cr_rs1_imm_edges_rs1val_0x80000001_immval_0x7ff
0000b398 l       .data	00000000 I_addi_cg_cr_rs1_imm_edges_rs1val_0x80000001_immval_0x7ff_str
000018c8 l       .text.rvtest	00000000 I_addi_cg_cr_rs1_imm_edges_rs1val_0x80000001_immval_m0x800
0000b3ef l       .data	00000000 I_addi_cg_cr_rs1_imm_edges_rs1val_0x80000001_immval_m0x800_str
000018ec l       .text.rvtest	00000000 I_addi_cg_cr_rs1_imm_edges_rs1val_0x80000001_immval_m0x7ff
0000b447 l       .data	00000000 I_addi_cg_cr_rs1_imm_edges_rs1val_0x80000001_immval_m0x7ff_str
00001910 l       .text.rvtest	00000000 I_addi_cg_cr_rs1_imm_edges_rs1val_0x80000001_immval_m0x2
0000b49f l       .data	00000000 I_addi_cg_cr_rs1_imm_edges_rs1val_0x80000001_immval_m0x2_str
00001934 l       .text.rvtest	00000000 I_addi_cg_cr_rs1_imm_edges_rs1val_0x80000001_immval_m0x1
0000b4f5 l       .data	00000000 I_addi_cg_cr_rs1_imm_edges_rs1val_0x80000001_immval_m0x1_str
00001958 l       .text.rvtest	00000000 I_addi_cg_cr_rs1_imm_edges_rs1val_0x7fffffff_immval_0x0
0000b54b l       .data	00000000 I_addi_cg_cr_rs1_imm_edges_rs1val_0x7fffffff_immval_0x0_str
0000197c l       .text.rvtest	00000000 I_addi_cg_cr_rs1_imm_edges_rs1val_0x7fffffff_immval_0x1
0000b5a0 l       .data	00000000 I_addi_cg_cr_rs1_imm_edges_rs1val_0x7fffffff_immval_0x1_str
000019a0 l       .text.rvtest	00000000 I_addi_cg_cr_rs1_imm_edges_rs1val_0x7fffffff_immval_0x2
0000b5f5 l       .data	00000000 I_addi_cg_cr_rs1_imm_edges_rs1val_0x7fffffff_immval_0x2_str
000019c4 l       .text.rvtest	00000000 I_addi_cg_cr_rs1_imm_edges_rs1val_0x7fffffff_immval_0x3
0000b64a l       .data	00000000 I_addi_cg_cr_rs1_imm_edges_rs1val_0x7fffffff_immval_0x3_str
000019e8 l       .text.rvtest	00000000 I_addi_cg_cr_rs1_imm_edges_rs1val_0x7fffffff_immval_0x4
0000b69f l       .data	00000000 I_addi_cg_cr_rs1_imm_edges_rs1val_0x7fffffff_immval_0x4_str
00001a0c l       .text.rvtest	00000000 I_addi_cg_cr_rs1_imm_edges_rs1val_0x7fffffff_immval_0x8
0000b6f4 l       .data	00000000 I_addi_cg_cr_rs1_imm_edges_rs1val_0x7fffffff_immval_0x8_str
00001a30 l       .text.rvtest	00000000 I_addi_cg_cr_rs1_imm_edges_rs1val_0x7fffffff_immval_0x10
0000b749 l       .data	00000000 I_addi_cg_cr_rs1_imm_edges_rs1val_0x7fffffff_immval_0x10_str
00001a54 l       .text.rvtest	00000000 I_addi_cg_cr_rs1_imm_edges_rs1val_0x7fffffff_immval_0x20
0000b79f l       .data	00000000 I_addi_cg_cr_rs1_imm_edges_rs1val_0x7fffffff_immval_0x20_str
00001a78 l       .text.rvtest	00000000 I_addi_cg_cr_rs1_imm_edges_rs1val_0x7fffffff_immval_0x40
0000b7f5 l       .data	00000000 I_addi_cg_cr_rs1_imm_edges_rs1val_0x7fffffff_immval_0x40_str
00001a9c l       .text.rvtest	00000000 I_addi_cg_cr_rs1_imm_edges_rs1val_0x7fffffff_immval_0x80
0000b84b l       .data	00000000 I_addi_cg_cr_rs1_imm_edges_rs1val_0x7fffffff_immval_0x80_str
00001ac0 l       .text.rvtest	00000000 I_addi_cg_cr_rs1_imm_edges_rs1val_0x7fffffff_immval_0x100
0000b8a1 l       .data	00000000 I_addi_cg_cr_rs1_imm_edges_rs1val_0x7fffffff_immval_0x100_str
00001ae4 l       .text.rvtest	00000000 I_addi_cg_cr_rs1_imm_edges_rs1val_0x7fffffff_immval_0x200
0000b8f8 l       .data	00000000 I_addi_cg_cr_rs1_imm_edges_rs1val_0x7fffffff_immval_0x200_str
00001b08 l       .text.rvtest	00000000 I_addi_cg_cr_rs1_imm_edges_rs1val_0x7fffffff_immval_0x3ff
0000b94f l       .data	00000000 I_addi_cg_cr_rs1_imm_edges_rs1val_0x7fffffff_immval_0x3ff_str
00001b2c l       .text.rvtest	00000000 I_addi_cg_cr_rs1_imm_edges_rs1val_0x7fffffff_immval_0x400
0000b9a6 l       .data	00000000 I_addi_cg_cr_rs1_imm_edges_rs1val_0x7fffffff_immval_0x400_str
00001b50 l       .text.rvtest	00000000 I_addi_cg_cr_rs1_imm_edges_rs1val_0x7fffffff_immval_0x703
0000b9fd l       .data	00000000 I_addi_cg_cr_rs1_imm_edges_rs1val_0x7fffffff_immval_0x703_str
00001b74 l       .text.rvtest	00000000 I_addi_cg_cr_rs1_imm_edges_rs1val_0x7fffffff_immval_0x7ff
0000ba54 l       .data	00000000 I_addi_cg_cr_rs1_imm_edges_rs1val_0x7fffffff_immval_0x7ff_str
00001b98 l       .text.rvtest	00000000 I_addi_cg_cr_rs1_imm_edges_rs1val_0x7fffffff_immval_m0x800
0000baab l       .data	00000000 I_addi_cg_cr_rs1_imm_edges_rs1val_0x7fffffff_immval_m0x800_str
00001bbc l       .text.rvtest	00000000 I_addi_cg_cr_rs1_imm_edges_rs1val_0x7fffffff_immval_m0x7ff
0000bb03 l       .data	00000000 I_addi_cg_cr_rs1_imm_edges_rs1val_0x7fffffff_immval_m0x7ff_str
00001be0 l       .text.rvtest	00000000 I_addi_cg_cr_rs1_imm_edges_rs1val_0x7fffffff_immval_m0x2
0000bb5b l       .data	00000000 I_addi_cg_cr_rs1_imm_edges_rs1val_0x7fffffff_immval_m0x2_str
00001c04 l       .text.rvtest	00000000 I_addi_cg_cr_rs1_imm_edges_rs1val_0x7fffffff_immval_m0x1
0000bbb1 l       .data	00000000 I_addi_cg_cr_rs1_imm_edges_rs1val_0x7fffffff_immval_m0x1_str
00001c28 l       .text.rvtest	00000000 I_addi_cg_cr_rs1_imm_edges_rs1val_0x7ffffffe_immval_0x0
0000bc07 l       .data	00000000 I_addi_cg_cr_rs1_imm_edges_rs1val_0x7ffffffe_immval_0x0_str
00001c4c l       .text.rvtest	00000000 I_addi_cg_cr_rs1_imm_edges_rs1val_0x7ffffffe_immval_0x1
0000bc5c l       .data	00000000 I_addi_cg_cr_rs1_imm_edges_rs1val_0x7ffffffe_immval_0x1_str
00001c70 l       .text.rvtest	00000000 I_addi_cg_cr_rs1_imm_edges_rs1val_0x7ffffffe_immval_0x2
0000bcb1 l       .data	00000000 I_addi_cg_cr_rs1_imm_edges_rs1val_0x7ffffffe_immval_0x2_str
00001c94 l       .text.rvtest	00000000 I_addi_cg_cr_rs1_imm_edges_rs1val_0x7ffffffe_immval_0x3
0000bd06 l       .data	00000000 I_addi_cg_cr_rs1_imm_edges_rs1val_0x7ffffffe_immval_0x3_str
00001cb8 l       .text.rvtest	00000000 I_addi_cg_cr_rs1_imm_edges_rs1val_0x7ffffffe_immval_0x4
0000bd5b l       .data	00000000 I_addi_cg_cr_rs1_imm_edges_rs1val_0x7ffffffe_immval_0x4_str
00001cdc l       .text.rvtest	00000000 I_addi_cg_cr_rs1_imm_edges_rs1val_0x7ffffffe_immval_0x8
0000bdb0 l       .data	00000000 I_addi_cg_cr_rs1_imm_edges_rs1val_0x7ffffffe_immval_0x8_str
00001d00 l       .text.rvtest	00000000 I_addi_cg_cr_rs1_imm_edges_rs1val_0x7ffffffe_immval_0x10
0000be05 l       .data	00000000 I_addi_cg_cr_rs1_imm_edges_rs1val_0x7ffffffe_immval_0x10_str
00001d24 l       .text.rvtest	00000000 I_addi_cg_cr_rs1_imm_edges_rs1val_0x7ffffffe_immval_0x20
0000be5b l       .data	00000000 I_addi_cg_cr_rs1_imm_edges_rs1val_0x7ffffffe_immval_0x20_str
00001d48 l       .text.rvtest	00000000 I_addi_cg_cr_rs1_imm_edges_rs1val_0x7ffffffe_immval_0x40
0000beb1 l       .data	00000000 I_addi_cg_cr_rs1_imm_edges_rs1val_0x7ffffffe_immval_0x40_str
00001d6c l       .text.rvtest	00000000 I_addi_cg_cr_rs1_imm_edges_rs1val_0x7ffffffe_immval_0x80
0000bf07 l       .data	00000000 I_addi_cg_cr_rs1_imm_edges_rs1val_0x7ffffffe_immval_0x80_str
00001d90 l       .text.rvtest	00000000 I_addi_cg_cr_rs1_imm_edges_rs1val_0x7ffffffe_immval_0x100
0000bf5d l       .data	00000000 I_addi_cg_cr_rs1_imm_edges_rs1val_0x7ffffffe_immval_0x100_str
00001db4 l       .text.rvtest	00000000 I_addi_cg_cr_rs1_imm_edges_rs1val_0x7ffffffe_immval_0x200
0000bfb4 l       .data	00000000 I_addi_cg_cr_rs1_imm_edges_rs1val_0x7ffffffe_immval_0x200_str
00001dd8 l       .text.rvtest	00000000 I_addi_cg_cr_rs1_imm_edges_rs1val_0x7ffffffe_immval_0x3ff
0000c00b l       .data	00000000 I_addi_cg_cr_rs1_imm_edges_rs1val_0x7ffffffe_immval_0x3ff_str
00001dfc l       .text.rvtest	00000000 I_addi_cg_cr_rs1_imm_edges_rs1val_0x7ffffffe_immval_0x400
0000c062 l       .data	00000000 I_addi_cg_cr_rs1_imm_edges_rs1val_0x7ffffffe_immval_0x400_str
00001e20 l       .text.rvtest	00000000 I_addi_cg_cr_rs1_imm_edges_rs1val_0x7ffffffe_immval_0x703
0000c0b9 l       .data	00000000 I_addi_cg_cr_rs1_imm_edges_rs1val_0x7ffffffe_immval_0x703_str
00001e44 l       .text.rvtest	00000000 I_addi_cg_cr_rs1_imm_edges_rs1val_0x7ffffffe_immval_0x7ff
0000c110 l       .data	00000000 I_addi_cg_cr_rs1_imm_edges_rs1val_0x7ffffffe_immval_0x7ff_str
00001e68 l       .text.rvtest	00000000 I_addi_cg_cr_rs1_imm_edges_rs1val_0x7ffffffe_immval_m0x800
0000c167 l       .data	00000000 I_addi_cg_cr_rs1_imm_edges_rs1val_0x7ffffffe_immval_m0x800_str
00001e8c l       .text.rvtest	00000000 I_addi_cg_cr_rs1_imm_edges_rs1val_0x7ffffffe_immval_m0x7ff
0000c1bf l       .data	00000000 I_addi_cg_cr_rs1_imm_edges_rs1val_0x7ffffffe_immval_m0x7ff_str
00001eb0 l       .text.rvtest	00000000 I_addi_cg_cr_rs1_imm_edges_rs1val_0x7ffffffe_immval_m0x2
0000c217 l       .data	00000000 I_addi_cg_cr_rs1_imm_edges_rs1val_0x7ffffffe_immval_m0x2_str
00001ed4 l       .text.rvtest	00000000 I_addi_cg_cr_rs1_imm_edges_rs1val_0x7ffffffe_immval_m0x1
0000c26d l       .data	00000000 I_addi_cg_cr_rs1_imm_edges_rs1val_0x7ffffffe_immval_m0x1_str
00001ef8 l       .text.rvtest	00000000 I_addi_cg_cr_rs1_imm_edges_rs1val_0xffffffff_immval_0x0
0000c2c3 l       .data	00000000 I_addi_cg_cr_rs1_imm_edges_rs1val_0xffffffff_immval_0x0_str
00001f1c l       .text.rvtest	00000000 I_addi_cg_cr_rs1_imm_edges_rs1val_0xffffffff_immval_0x1
0000c318 l       .data	00000000 I_addi_cg_cr_rs1_imm_edges_rs1val_0xffffffff_immval_0x1_str
00001f40 l       .text.rvtest	00000000 I_addi_cg_cr_rs1_imm_edges_rs1val_0xffffffff_immval_0x2
0000c36d l       .data	00000000 I_addi_cg_cr_rs1_imm_edges_rs1val_0xffffffff_immval_0x2_str
00001f64 l       .text.rvtest	00000000 I_addi_cg_cr_rs1_imm_edges_rs1val_0xffffffff_immval_0x3
0000c3c2 l       .data	00000000 I_addi_cg_cr_rs1_imm_edges_rs1val_0xffffffff_immval_0x3_str
00001f88 l       .text.rvtest	00000000 I_addi_cg_cr_rs1_imm_edges_rs1val_0xffffffff_immval_0x4
0000c417 l       .data	00000000 I_addi_cg_cr_rs1_imm_edges_rs1val_0xffffffff_immval_0x4_str
00001fac l       .text.rvtest	00000000 I_addi_cg_cr_rs1_imm_edges_rs1val_0xffffffff_immval_0x8
0000c46c l       .data	00000000 I_addi_cg_cr_rs1_imm_edges_rs1val_0xffffffff_immval_0x8_str
00001fd0 l       .text.rvtest	00000000 I_addi_cg_cr_rs1_imm_edges_rs1val_0xffffffff_immval_0x10
0000c4c1 l       .data	00000000 I_addi_cg_cr_rs1_imm_edges_rs1val_0xffffffff_immval_0x10_str
00001ff4 l       .text.rvtest	00000000 I_addi_cg_cr_rs1_imm_edges_rs1val_0xffffffff_immval_0x20
0000c517 l       .data	00000000 I_addi_cg_cr_rs1_imm_edges_rs1val_0xffffffff_immval_0x20_str
00002018 l       .text.rvtest	00000000 I_addi_cg_cr_rs1_imm_edges_rs1val_0xffffffff_immval_0x40
0000c56d l       .data	00000000 I_addi_cg_cr_rs1_imm_edges_rs1val_0xffffffff_immval_0x40_str
0000203c l       .text.rvtest	00000000 I_addi_cg_cr_rs1_imm_edges_rs1val_0xffffffff_immval_0x80
0000c5c3 l       .data	00000000 I_addi_cg_cr_rs1_imm_edges_rs1val_0xffffffff_immval_0x80_str
00002060 l       .text.rvtest	00000000 I_addi_cg_cr_rs1_imm_edges_rs1val_0xffffffff_immval_0x100
0000c619 l       .data	00000000 I_addi_cg_cr_rs1_imm_edges_rs1val_0xffffffff_immval_0x100_str
00002084 l       .text.rvtest	00000000 I_addi_cg_cr_rs1_imm_edges_rs1val_0xffffffff_immval_0x200
0000c670 l       .data	00000000 I_addi_cg_cr_rs1_imm_edges_rs1val_0xffffffff_immval_0x200_str
000020a8 l       .text.rvtest	00000000 I_addi_cg_cr_rs1_imm_edges_rs1val_0xffffffff_immval_0x3ff
0000c6c7 l       .data	00000000 I_addi_cg_cr_rs1_imm_edges_rs1val_0xffffffff_immval_0x3ff_str
000020cc l       .text.rvtest	00000000 I_addi_cg_cr_rs1_imm_edges_rs1val_0xffffffff_immval_0x400
0000c71e l       .data	00000000 I_addi_cg_cr_rs1_imm_edges_rs1val_0xffffffff_immval_0x400_str
000020f0 l       .text.rvtest	00000000 I_addi_cg_cr_rs1_imm_edges_rs1val_0xffffffff_immval_0x703
0000c775 l       .data	00000000 I_addi_cg_cr_rs1_imm_edges_rs1val_0xffffffff_immval_0x703_str
00002114 l       .text.rvtest	00000000 I_addi_cg_cr_rs1_imm_edges_rs1val_0xffffffff_immval_0x7ff
0000c7cc l       .data	00000000 I_addi_cg_cr_rs1_imm_edges_rs1val_0xffffffff_immval_0x7ff_str
00002138 l       .text.rvtest	00000000 I_addi_cg_cr_rs1_imm_edges_rs1val_0xffffffff_immval_m0x800
0000c823 l       .data	00000000 I_addi_cg_cr_rs1_imm_edges_rs1val_0xffffffff_immval_m0x800_str
0000215c l       .text.rvtest	00000000 I_addi_cg_cr_rs1_imm_edges_rs1val_0xffffffff_immval_m0x7ff
0000c87b l       .data	00000000 I_addi_cg_cr_rs1_imm_edges_rs1val_0xffffffff_immval_m0x7ff_str
00002180 l       .text.rvtest	00000000 I_addi_cg_cr_rs1_imm_edges_rs1val_0xffffffff_immval_m0x2
0000c8d3 l       .data	00000000 I_addi_cg_cr_rs1_imm_edges_rs1val_0xffffffff_immval_m0x2_str
000021a4 l       .text.rvtest	00000000 I_addi_cg_cr_rs1_imm_edges_rs1val_0xffffffff_immval_m0x1
0000c929 l       .data	00000000 I_addi_cg_cr_rs1_imm_edges_rs1val_0xffffffff_immval_m0x1_str
000021c8 l       .text.rvtest	00000000 I_addi_cg_cr_rs1_imm_edges_rs1val_0xfffffffe_immval_0x0
0000c97f l       .data	00000000 I_addi_cg_cr_rs1_imm_edges_rs1val_0xfffffffe_immval_0x0_str
000021ec l       .text.rvtest	00000000 I_addi_cg_cr_rs1_imm_edges_rs1val_0xfffffffe_immval_0x1
0000c9d4 l       .data	00000000 I_addi_cg_cr_rs1_imm_edges_rs1val_0xfffffffe_immval_0x1_str
00002210 l       .text.rvtest	00000000 I_addi_cg_cr_rs1_imm_edges_rs1val_0xfffffffe_immval_0x2
0000ca29 l       .data	00000000 I_addi_cg_cr_rs1_imm_edges_rs1val_0xfffffffe_immval_0x2_str
00002234 l       .text.rvtest	00000000 I_addi_cg_cr_rs1_imm_edges_rs1val_0xfffffffe_immval_0x3
0000ca7e l       .data	00000000 I_addi_cg_cr_rs1_imm_edges_rs1val_0xfffffffe_immval_0x3_str
00002258 l       .text.rvtest	00000000 I_addi_cg_cr_rs1_imm_edges_rs1val_0xfffffffe_immval_0x4
0000cad3 l       .data	00000000 I_addi_cg_cr_rs1_imm_edges_rs1val_0xfffffffe_immval_0x4_str
0000227c l       .text.rvtest	00000000 I_addi_cg_cr_rs1_imm_edges_rs1val_0xfffffffe_immval_0x8
0000cb28 l       .data	00000000 I_addi_cg_cr_rs1_imm_edges_rs1val_0xfffffffe_immval_0x8_str
000022a0 l       .text.rvtest	00000000 I_addi_cg_cr_rs1_imm_edges_rs1val_0xfffffffe_immval_0x10
0000cb7d l       .data	00000000 I_addi_cg_cr_rs1_imm_edges_rs1val_0xfffffffe_immval_0x10_str
000022c4 l       .text.rvtest	00000000 I_addi_cg_cr_rs1_imm_edges_rs1val_0xfffffffe_immval_0x20
0000cbd3 l       .data	00000000 I_addi_cg_cr_rs1_imm_edges_rs1val_0xfffffffe_immval_0x20_str
000022e8 l       .text.rvtest	00000000 I_addi_cg_cr_rs1_imm_edges_rs1val_0xfffffffe_immval_0x40
0000cc29 l       .data	00000000 I_addi_cg_cr_rs1_imm_edges_rs1val_0xfffffffe_immval_0x40_str
0000230c l       .text.rvtest	00000000 I_addi_cg_cr_rs1_imm_edges_rs1val_0xfffffffe_immval_0x80
0000cc7f l       .data	00000000 I_addi_cg_cr_rs1_imm_edges_rs1val_0xfffffffe_immval_0x80_str
00002330 l       .text.rvtest	00000000 I_addi_cg_cr_rs1_imm_edges_rs1val_0xfffffffe_immval_0x100
0000ccd5 l       .data	00000000 I_addi_cg_cr_rs1_imm_edges_rs1val_0xfffffffe_immval_0x100_str
00002354 l       .text.rvtest	00000000 I_addi_cg_cr_rs1_imm_edges_rs1val_0xfffffffe_immval_0x200
0000cd2c l       .data	00000000 I_addi_cg_cr_rs1_imm_edges_rs1val_0xfffffffe_immval_0x200_str
00002378 l       .text.rvtest	00000000 I_addi_cg_cr_rs1_imm_edges_rs1val_0xfffffffe_immval_0x3ff
0000cd83 l       .data	00000000 I_addi_cg_cr_rs1_imm_edges_rs1val_0xfffffffe_immval_0x3ff_str
0000239c l       .text.rvtest	00000000 I_addi_cg_cr_rs1_imm_edges_rs1val_0xfffffffe_immval_0x400
0000cdda l       .data	00000000 I_addi_cg_cr_rs1_imm_edges_rs1val_0xfffffffe_immval_0x400_str
000023c0 l       .text.rvtest	00000000 I_addi_cg_cr_rs1_imm_edges_rs1val_0xfffffffe_immval_0x703
0000ce31 l       .data	00000000 I_addi_cg_cr_rs1_imm_edges_rs1val_0xfffffffe_immval_0x703_str
000023e4 l       .text.rvtest	00000000 I_addi_cg_cr_rs1_imm_edges_rs1val_0xfffffffe_immval_0x7ff
0000ce88 l       .data	00000000 I_addi_cg_cr_rs1_imm_edges_rs1val_0xfffffffe_immval_0x7ff_str
00002408 l       .text.rvtest	00000000 I_addi_cg_cr_rs1_imm_edges_rs1val_0xfffffffe_immval_m0x800
0000cedf l       .data	00000000 I_addi_cg_cr_rs1_imm_edges_rs1val_0xfffffffe_immval_m0x800_str
0000242c l       .text.rvtest	00000000 I_addi_cg_cr_rs1_imm_edges_rs1val_0xfffffffe_immval_m0x7ff
0000cf37 l       .data	00000000 I_addi_cg_cr_rs1_imm_edges_rs1val_0xfffffffe_immval_m0x7ff_str
00002450 l       .text.rvtest	00000000 I_addi_cg_cr_rs1_imm_edges_rs1val_0xfffffffe_immval_m0x2
0000cf8f l       .data	00000000 I_addi_cg_cr_rs1_imm_edges_rs1val_0xfffffffe_immval_m0x2_str
00002474 l       .text.rvtest	00000000 I_addi_cg_cr_rs1_imm_edges_rs1val_0xfffffffe_immval_m0x1
0000cfe5 l       .data	00000000 I_addi_cg_cr_rs1_imm_edges_rs1val_0xfffffffe_immval_m0x1_str
00002498 l       .text.rvtest	00000000 I_addi_cg_cr_rs1_imm_edges_rs1val_0x5bbc8872_immval_0x0
0000d03b l       .data	00000000 I_addi_cg_cr_rs1_imm_edges_rs1val_0x5bbc8872_immval_0x0_str
000024bc l       .text.rvtest	00000000 I_addi_cg_cr_rs1_imm_edges_rs1val_0x5bbc8872_immval_0x1
0000d090 l       .data	00000000 I_addi_cg_cr_rs1_imm_edges_rs1val_0x5bbc8872_immval_0x1_str
000024e0 l       .text.rvtest	00000000 I_addi_cg_cr_rs1_imm_edges_rs1val_0x5bbc8872_immval_0x2
0000d0e5 l       .data	00000000 I_addi_cg_cr_rs1_imm_edges_rs1val_0x5bbc8872_immval_0x2_str
00002504 l       .text.rvtest	00000000 I_addi_cg_cr_rs1_imm_edges_rs1val_0x5bbc8872_immval_0x3
0000d13a l       .data	00000000 I_addi_cg_cr_rs1_imm_edges_rs1val_0x5bbc8872_immval_0x3_str
00002528 l       .text.rvtest	00000000 I_addi_cg_cr_rs1_imm_edges_rs1val_0x5bbc8872_immval_0x4
0000d18f l       .data	00000000 I_addi_cg_cr_rs1_imm_edges_rs1val_0x5bbc8872_immval_0x4_str
0000254c l       .text.rvtest	00000000 I_addi_cg_cr_rs1_imm_edges_rs1val_0x5bbc8872_immval_0x8
0000d1e4 l       .data	00000000 I_addi_cg_cr_rs1_imm_edges_rs1val_0x5bbc8872_immval_0x8_str
00002570 l       .text.rvtest	00000000 I_addi_cg_cr_rs1_imm_edges_rs1val_0x5bbc8872_immval_0x10
0000d239 l       .data	00000000 I_addi_cg_cr_rs1_imm_edges_rs1val_0x5bbc8872_immval_0x10_str
00002594 l       .text.rvtest	00000000 I_addi_cg_cr_rs1_imm_edges_rs1val_0x5bbc8872_immval_0x20
0000d28f l       .data	00000000 I_addi_cg_cr_rs1_imm_edges_rs1val_0x5bbc8872_immval_0x20_str
000025b8 l       .text.rvtest	00000000 I_addi_cg_cr_rs1_imm_edges_rs1val_0x5bbc8872_immval_0x40
0000d2e5 l       .data	00000000 I_addi_cg_cr_rs1_imm_edges_rs1val_0x5bbc8872_immval_0x40_str
000025dc l       .text.rvtest	00000000 I_addi_cg_cr_rs1_imm_edges_rs1val_0x5bbc8872_immval_0x80
0000d33b l       .data	00000000 I_addi_cg_cr_rs1_imm_edges_rs1val_0x5bbc8872_immval_0x80_str
00002600 l       .text.rvtest	00000000 I_addi_cg_cr_rs1_imm_edges_rs1val_0x5bbc8872_immval_0x100
0000d391 l       .data	00000000 I_addi_cg_cr_rs1_imm_edges_rs1val_0x5bbc8872_immval_0x100_str
00002624 l       .text.rvtest	00000000 I_addi_cg_cr_rs1_imm_edges_rs1val_0x5bbc8872_immval_0x200
0000d3e8 l       .data	00000000 I_addi_cg_cr_rs1_imm_edges_rs1val_0x5bbc8872_immval_0x200_str
00002648 l       .text.rvtest	00000000 I_addi_cg_cr_rs1_imm_edges_rs1val_0x5bbc8872_immval_0x3ff
0000d43f l       .data	00000000 I_addi_cg_cr_rs1_imm_edges_rs1val_0x5bbc8872_immval_0x3ff_str
0000266c l       .text.rvtest	00000000 I_addi_cg_cr_rs1_imm_edges_rs1val_0x5bbc8872_immval_0x400
0000d496 l       .data	00000000 I_addi_cg_cr_rs1_imm_edges_rs1val_0x5bbc8872_immval_0x400_str
00002690 l       .text.rvtest	00000000 I_addi_cg_cr_rs1_imm_edges_rs1val_0x5bbc8872_immval_0x703
0000d4ed l       .data	00000000 I_addi_cg_cr_rs1_imm_edges_rs1val_0x5bbc8872_immval_0x703_str
000026b4 l       .text.rvtest	00000000 I_addi_cg_cr_rs1_imm_edges_rs1val_0x5bbc8872_immval_0x7ff
0000d544 l       .data	00000000 I_addi_cg_cr_rs1_imm_edges_rs1val_0x5bbc8872_immval_0x7ff_str
000026d8 l       .text.rvtest	00000000 I_addi_cg_cr_rs1_imm_edges_rs1val_0x5bbc8872_immval_m0x800
0000d59b l       .data	00000000 I_addi_cg_cr_rs1_imm_edges_rs1val_0x5bbc8872_immval_m0x800_str
000026fc l       .text.rvtest	00000000 I_addi_cg_cr_rs1_imm_edges_rs1val_0x5bbc8872_immval_m0x7ff
0000d5f3 l       .data	00000000 I_addi_cg_cr_rs1_imm_edges_rs1val_0x5bbc8872_immval_m0x7ff_str
00002720 l       .text.rvtest	00000000 I_addi_cg_cr_rs1_imm_edges_rs1val_0x5bbc8872_immval_m0x2
0000d64b l       .data	00000000 I_addi_cg_cr_rs1_imm_edges_rs1val_0x5bbc8872_immval_m0x2_str
00002744 l       .text.rvtest	00000000 I_addi_cg_cr_rs1_imm_edges_rs1val_0x5bbc8872_immval_m0x1
0000d6a1 l       .data	00000000 I_addi_cg_cr_rs1_imm_edges_rs1val_0x5bbc8872_immval_m0x1_str
00002768 l       .text.rvtest	00000000 I_addi_cg_cr_rs1_imm_edges_rs1val_0xaaaaaaaa_immval_0x0
0000d6f7 l       .data	00000000 I_addi_cg_cr_rs1_imm_edges_rs1val_0xaaaaaaaa_immval_0x0_str
0000278c l       .text.rvtest	00000000 I_addi_cg_cr_rs1_imm_edges_rs1val_0xaaaaaaaa_immval_0x1
0000d74c l       .data	00000000 I_addi_cg_cr_rs1_imm_edges_rs1val_0xaaaaaaaa_immval_0x1_str
000027b0 l       .text.rvtest	00000000 I_addi_cg_cr_rs1_imm_edges_rs1val_0xaaaaaaaa_immval_0x2
0000d7a1 l       .data	00000000 I_addi_cg_cr_rs1_imm_edges_rs1val_0xaaaaaaaa_immval_0x2_str
000027d4 l       .text.rvtest	00000000 I_addi_cg_cr_rs1_imm_edges_rs1val_0xaaaaaaaa_immval_0x3
0000d7f6 l       .data	00000000 I_addi_cg_cr_rs1_imm_edges_rs1val_0xaaaaaaaa_immval_0x3_str
000027f8 l       .text.rvtest	00000000 I_addi_cg_cr_rs1_imm_edges_rs1val_0xaaaaaaaa_immval_0x4
0000d84b l       .data	00000000 I_addi_cg_cr_rs1_imm_edges_rs1val_0xaaaaaaaa_immval_0x4_str
0000281c l       .text.rvtest	00000000 I_addi_cg_cr_rs1_imm_edges_rs1val_0xaaaaaaaa_immval_0x8
0000d8a0 l       .data	00000000 I_addi_cg_cr_rs1_imm_edges_rs1val_0xaaaaaaaa_immval_0x8_str
00002840 l       .text.rvtest	00000000 I_addi_cg_cr_rs1_imm_edges_rs1val_0xaaaaaaaa_immval_0x10
0000d8f5 l       .data	00000000 I_addi_cg_cr_rs1_imm_edges_rs1val_0xaaaaaaaa_immval_0x10_str
00002864 l       .text.rvtest	00000000 I_addi_cg_cr_rs1_imm_edges_rs1val_0xaaaaaaaa_immval_0x20
0000d94b l       .data	00000000 I_addi_cg_cr_rs1_imm_edges_rs1val_0xaaaaaaaa_immval_0x20_str
00002888 l       .text.rvtest	00000000 I_addi_cg_cr_rs1_imm_edges_rs1val_0xaaaaaaaa_immval_0x40
0000d9a1 l       .data	00000000 I_addi_cg_cr_rs1_imm_edges_rs1val_0xaaaaaaaa_immval_0x40_str
000028ac l       .text.rvtest	00000000 I_addi_cg_cr_rs1_imm_edges_rs1val_0xaaaaaaaa_immval_0x80
0000d9f7 l       .data	00000000 I_addi_cg_cr_rs1_imm_edges_rs1val_0xaaaaaaaa_immval_0x80_str
000028d0 l       .text.rvtest	00000000 I_addi_cg_cr_rs1_imm_edges_rs1val_0xaaaaaaaa_immval_0x100
0000da4d l       .data	00000000 I_addi_cg_cr_rs1_imm_edges_rs1val_0xaaaaaaaa_immval_0x100_str
000028f4 l       .text.rvtest	00000000 I_addi_cg_cr_rs1_imm_edges_rs1val_0xaaaaaaaa_immval_0x200
0000daa4 l       .data	00000000 I_addi_cg_cr_rs1_imm_edges_rs1val_0xaaaaaaaa_immval_0x200_str
00002918 l       .text.rvtest	00000000 I_addi_cg_cr_rs1_imm_edges_rs1val_0xaaaaaaaa_immval_0x3ff
0000dafb l       .data	00000000 I_addi_cg_cr_rs1_imm_edges_rs1val_0xaaaaaaaa_immval_0x3ff_str
0000293c l       .text.rvtest	00000000 I_addi_cg_cr_rs1_imm_edges_rs1val_0xaaaaaaaa_immval_0x400
0000db52 l       .data	00000000 I_addi_cg_cr_rs1_imm_edges_rs1val_0xaaaaaaaa_immval_0x400_str
00002960 l       .text.rvtest	00000000 I_addi_cg_cr_rs1_imm_edges_rs1val_0xaaaaaaaa_immval_0x703
0000dba9 l       .data	00000000 I_addi_cg_cr_rs1_imm_edges_rs1val_0xaaaaaaaa_immval_0x703_str
00002984 l       .text.rvtest	00000000 I_addi_cg_cr_rs1_imm_edges_rs1val_0xaaaaaaaa_immval_0x7ff
0000dc00 l       .data	00000000 I_addi_cg_cr_rs1_imm_edges_rs1val_0xaaaaaaaa_immval_0x7ff_str
000029a8 l       .text.rvtest	00000000 I_addi_cg_cr_rs1_imm_edges_rs1val_0xaaaaaaaa_immval_m0x800
0000dc57 l       .data	00000000 I_addi_cg_cr_rs1_imm_edges_rs1val_0xaaaaaaaa_immval_m0x800_str
000029cc l       .text.rvtest	00000000 I_addi_cg_cr_rs1_imm_edges_rs1val_0xaaaaaaaa_immval_m0x7ff
0000dcaf l       .data	00000000 I_addi_cg_cr_rs1_imm_edges_rs1val_0xaaaaaaaa_immval_m0x7ff_str
000029f0 l       .text.rvtest	00000000 I_addi_cg_cr_rs1_imm_edges_rs1val_0xaaaaaaaa_immval_m0x2
0000dd07 l       .data	00000000 I_addi_cg_cr_rs1_imm_edges_rs1val_0xaaaaaaaa_immval_m0x2_str
00002a14 l       .text.rvtest	00000000 I_addi_cg_cr_rs1_imm_edges_rs1val_0xaaaaaaaa_immval_m0x1
0000dd5d l       .data	00000000 I_addi_cg_cr_rs1_imm_edges_rs1val_0xaaaaaaaa_immval_m0x1_str
00002a38 l       .text.rvtest	00000000 I_addi_cg_cr_rs1_imm_edges_rs1val_0x55555555_immval_0x0
0000ddb3 l       .data	00000000 I_addi_cg_cr_rs1_imm_edges_rs1val_0x55555555_immval_0x0_str
00002a5c l       .text.rvtest	00000000 I_addi_cg_cr_rs1_imm_edges_rs1val_0x55555555_immval_0x1
0000de08 l       .data	00000000 I_addi_cg_cr_rs1_imm_edges_rs1val_0x55555555_immval_0x1_str
00002a80 l       .text.rvtest	00000000 I_addi_cg_cr_rs1_imm_edges_rs1val_0x55555555_immval_0x2
0000de5d l       .data	00000000 I_addi_cg_cr_rs1_imm_edges_rs1val_0x55555555_immval_0x2_str
00002aa4 l       .text.rvtest	00000000 I_addi_cg_cr_rs1_imm_edges_rs1val_0x55555555_immval_0x3
0000deb2 l       .data	00000000 I_addi_cg_cr_rs1_imm_edges_rs1val_0x55555555_immval_0x3_str
00002ac8 l       .text.rvtest	00000000 I_addi_cg_cr_rs1_imm_edges_rs1val_0x55555555_immval_0x4
0000df07 l       .data	00000000 I_addi_cg_cr_rs1_imm_edges_rs1val_0x55555555_immval_0x4_str
00002aec l       .text.rvtest	00000000 I_addi_cg_cr_rs1_imm_edges_rs1val_0x55555555_immval_0x8
0000df5c l       .data	00000000 I_addi_cg_cr_rs1_imm_edges_rs1val_0x55555555_immval_0x8_str
00002b10 l       .text.rvtest	00000000 I_addi_cg_cr_rs1_imm_edges_rs1val_0x55555555_immval_0x10
0000dfb1 l       .data	00000000 I_addi_cg_cr_rs1_imm_edges_rs1val_0x55555555_immval_0x10_str
00002b34 l       .text.rvtest	00000000 I_addi_cg_cr_rs1_imm_edges_rs1val_0x55555555_immval_0x20
0000e007 l       .data	00000000 I_addi_cg_cr_rs1_imm_edges_rs1val_0x55555555_immval_0x20_str
00002b58 l       .text.rvtest	00000000 I_addi_cg_cr_rs1_imm_edges_rs1val_0x55555555_immval_0x40
0000e05d l       .data	00000000 I_addi_cg_cr_rs1_imm_edges_rs1val_0x55555555_immval_0x40_str
00002b7c l       .text.rvtest	00000000 I_addi_cg_cr_rs1_imm_edges_rs1val_0x55555555_immval_0x80
0000e0b3 l       .data	00000000 I_addi_cg_cr_rs1_imm_edges_rs1val_0x55555555_immval_0x80_str
00002ba0 l       .text.rvtest	00000000 I_addi_cg_cr_rs1_imm_edges_rs1val_0x55555555_immval_0x100
0000e109 l       .data	00000000 I_addi_cg_cr_rs1_imm_edges_rs1val_0x55555555_immval_0x100_str
00002bc4 l       .text.rvtest	00000000 I_addi_cg_cr_rs1_imm_edges_rs1val_0x55555555_immval_0x200
0000e160 l       .data	00000000 I_addi_cg_cr_rs1_imm_edges_rs1val_0x55555555_immval_0x200_str
00002be8 l       .text.rvtest	00000000 I_addi_cg_cr_rs1_imm_edges_rs1val_0x55555555_immval_0x3ff
0000e1b7 l       .data	00000000 I_addi_cg_cr_rs1_imm_edges_rs1val_0x55555555_immval_0x3ff_str
00002c0c l       .text.rvtest	00000000 I_addi_cg_cr_rs1_imm_edges_rs1val_0x55555555_immval_0x400
0000e20e l       .data	00000000 I_addi_cg_cr_rs1_imm_edges_rs1val_0x55555555_immval_0x400_str
00002c30 l       .text.rvtest	00000000 I_addi_cg_cr_rs1_imm_edges_rs1val_0x55555555_immval_0x703
0000e265 l       .data	00000000 I_addi_cg_cr_rs1_imm_edges_rs1val_0x55555555_immval_0x703_str
00002c54 l       .text.rvtest	00000000 I_addi_cg_cr_rs1_imm_edges_rs1val_0x55555555_immval_0x7ff
0000e2bc l       .data	00000000 I_addi_cg_cr_rs1_imm_edges_rs1val_0x55555555_immval_0x7ff_str
00002c78 l       .text.rvtest	00000000 I_addi_cg_cr_rs1_imm_edges_rs1val_0x55555555_immval_m0x800
0000e313 l       .data	00000000 I_addi_cg_cr_rs1_imm_edges_rs1val_0x55555555_immval_m0x800_str
00002c9c l       .text.rvtest	00000000 I_addi_cg_cr_rs1_imm_edges_rs1val_0x55555555_immval_m0x7ff
0000e36b l       .data	00000000 I_addi_cg_cr_rs1_imm_edges_rs1val_0x55555555_immval_m0x7ff_str
00002cc0 l       .text.rvtest	00000000 I_addi_cg_cr_rs1_imm_edges_rs1val_0x55555555_immval_m0x2
0000e3c3 l       .data	00000000 I_addi_cg_cr_rs1_imm_edges_rs1val_0x55555555_immval_m0x2_str
00002ce4 l       .text.rvtest	00000000 I_addi_cg_cr_rs1_imm_edges_rs1val_0x55555555_immval_m0x1
0000e419 l       .data	00000000 I_addi_cg_cr_rs1_imm_edges_rs1val_0x55555555_immval_m0x1_str
00002d08 l       .text.rvtest	00000000 I_addi_cg_cmp_rd_rs1_b0
0000e46f l       .data	00000000 I_addi_cg_cmp_rd_rs1_b0_str
00002d2c l       .text.rvtest	00000000 I_addi_cg_cmp_rd_rs1_b1
0000e4a3 l       .data	00000000 I_addi_cg_cmp_rd_rs1_b1_str
00002d50 l       .text.rvtest	00000000 I_addi_cg_cmp_rd_rs1_b2
0000e4d7 l       .data	00000000 I_addi_cg_cmp_rd_rs1_b2_str
00002d74 l       .text.rvtest	00000000 I_addi_cg_cmp_rd_rs1_b3
0000e50b l       .data	00000000 I_addi_cg_cmp_rd_rs1_b3_str
00002d98 l       .text.rvtest	00000000 I_addi_cg_cmp_rd_rs1_b4
0000e53f l       .data	00000000 I_addi_cg_cmp_rd_rs1_b4_str
00002dbc l       .text.rvtest	00000000 I_addi_cg_cmp_rd_rs1_b5
0000e573 l       .data	00000000 I_addi_cg_cmp_rd_rs1_b5_str
00002de0 l       .text.rvtest	00000000 I_addi_cg_cmp_rd_rs1_b6
0000e5a7 l       .data	00000000 I_addi_cg_cmp_rd_rs1_b6_str
00002e0c l       .text.rvtest	00000000 I_addi_cg_cmp_rd_rs1_b7
0000e5db l       .data	00000000 I_addi_cg_cmp_rd_rs1_b7_str
00002e30 l       .text.rvtest	00000000 I_addi_cg_cmp_rd_rs1_b8
0000e60f l       .data	00000000 I_addi_cg_cmp_rd_rs1_b8_str
00002e58 l       .text.rvtest	00000000 I_addi_cg_cmp_rd_rs1_b9
0000e643 l       .data	00000000 I_addi_cg_cmp_rd_rs1_b9_str
00002e7c l       .text.rvtest	00000000 I_addi_cg_cmp_rd_rs1_b10
0000e677 l       .data	00000000 I_addi_cg_cmp_rd_rs1_b10_str
00002ea4 l       .text.rvtest	00000000 I_addi_cg_cmp_rd_rs1_b11
0000e6ac l       .data	00000000 I_addi_cg_cmp_rd_rs1_b11_str
00002ec8 l       .text.rvtest	00000000 I_addi_cg_cmp_rd_rs1_b12
0000e6e1 l       .data	00000000 I_addi_cg_cmp_rd_rs1_b12_str
00002eec l       .text.rvtest	00000000 I_addi_cg_cmp_rd_rs1_b13
0000e716 l       .data	00000000 I_addi_cg_cmp_rd_rs1_b13_str
00002f10 l       .text.rvtest	00000000 I_addi_cg_cmp_rd_rs1_b14
0000e74b l       .data	00000000 I_addi_cg_cmp_rd_rs1_b14_str
00002f34 l       .text.rvtest	00000000 I_addi_cg_cmp_rd_rs1_b15
0000e780 l       .data	00000000 I_addi_cg_cmp_rd_rs1_b15_str
00002f58 l       .text.rvtest	00000000 I_addi_cg_cmp_rd_rs1_b16
0000e7b5 l       .data	00000000 I_addi_cg_cmp_rd_rs1_b16_str
00002f7c l       .text.rvtest	00000000 I_addi_cg_cmp_rd_rs1_b17
0000e7ea l       .data	00000000 I_addi_cg_cmp_rd_rs1_b17_str
00002fa0 l       .text.rvtest	00000000 I_addi_cg_cmp_rd_rs1_b18
0000e81f l       .data	00000000 I_addi_cg_cmp_rd_rs1_b18_str
00002fc8 l       .text.rvtest	00000000 I_addi_cg_cmp_rd_rs1_b19
0000e854 l       .data	00000000 I_addi_cg_cmp_rd_rs1_b19_str
00002ff0 l       .text.rvtest	00000000 I_addi_cg_cmp_rd_rs1_b20
0000e889 l       .data	00000000 I_addi_cg_cmp_rd_rs1_b20_str
00003014 l       .text.rvtest	00000000 I_addi_cg_cmp_rd_rs1_b21
0000e8be l       .data	00000000 I_addi_cg_cmp_rd_rs1_b21_str
00003038 l       .text.rvtest	00000000 I_addi_cg_cmp_rd_rs1_b22
0000e8f3 l       .data	00000000 I_addi_cg_cmp_rd_rs1_b22_str
0000305c l       .text.rvtest	00000000 I_addi_cg_cmp_rd_rs1_b23
0000e928 l       .data	00000000 I_addi_cg_cmp_rd_rs1_b23_str
00003080 l       .text.rvtest	00000000 I_addi_cg_cmp_rd_rs1_b24
0000e95d l       .data	00000000 I_addi_cg_cmp_rd_rs1_b24_str
000030a4 l       .text.rvtest	00000000 I_addi_cg_cmp_rd_rs1_b25
0000e992 l       .data	00000000 I_addi_cg_cmp_rd_rs1_b25_str
000030c8 l       .text.rvtest	00000000 I_addi_cg_cmp_rd_rs1_b26
0000e9c7 l       .data	00000000 I_addi_cg_cmp_rd_rs1_b26_str
000030ec l       .text.rvtest	00000000 I_addi_cg_cmp_rd_rs1_b27
0000e9fc l       .data	00000000 I_addi_cg_cmp_rd_rs1_b27_str
00003110 l       .text.rvtest	00000000 I_addi_cg_cmp_rd_rs1_b28
0000ea31 l       .data	00000000 I_addi_cg_cmp_rd_rs1_b28_str
00003134 l       .text.rvtest	00000000 I_addi_cg_cmp_rd_rs1_b29
0000ea66 l       .data	00000000 I_addi_cg_cmp_rd_rs1_b29_str
00003158 l       .text.rvtest	00000000 I_addi_cg_cmp_rd_rs1_b30
0000ea9b l       .data	00000000 I_addi_cg_cmp_rd_rs1_b30_str
0000317c l       .text.rvtest	00000000 I_addi_cg_cmp_rd_rs1_b31
0000ead0 l       .data	00000000 I_addi_cg_cmp_rd_rs1_b31_str
000031a0 l       .text.rvtest	00000000 I_addi_cg_cp_imm_edges_0x0
0000eb05 l       .data	00000000 I_addi_cg_cp_imm_edges_0x0_str
000031c4 l       .text.rvtest	00000000 I_addi_cg_cp_imm_edges_0x1
0000eb3c l       .data	00000000 I_addi_cg_cp_imm_edges_0x1_str
000031e8 l       .text.rvtest	00000000 I_addi_cg_cp_imm_edges_0x2
0000eb73 l       .data	00000000 I_addi_cg_cp_imm_edges_0x2_str
0000320c l       .text.rvtest	00000000 I_addi_cg_cp_imm_edges_0x3
0000ebaa l       .data	00000000 I_addi_cg_cp_imm_edges_0x3_str
00003230 l       .text.rvtest	00000000 I_addi_cg_cp_imm_edges_0x4
0000ebe1 l       .data	00000000 I_addi_cg_cp_imm_edges_0x4_str
00003254 l       .text.rvtest	00000000 I_addi_cg_cp_imm_edges_0x8
0000ec18 l       .data	00000000 I_addi_cg_cp_imm_edges_0x8_str
00003278 l       .text.rvtest	00000000 I_addi_cg_cp_imm_edges_0x10
0000ec4f l       .data	00000000 I_addi_cg_cp_imm_edges_0x10_str
0000329c l       .text.rvtest	00000000 I_addi_cg_cp_imm_edges_0x20
0000ec87 l       .data	00000000 I_addi_cg_cp_imm_edges_0x20_str
000032c0 l       .text.rvtest	00000000 I_addi_cg_cp_imm_edges_0x40
0000ecbf l       .data	00000000 I_addi_cg_cp_imm_edges_0x40_str
000032e4 l       .text.rvtest	00000000 I_addi_cg_cp_imm_edges_0x80
0000ecf7 l       .data	00000000 I_addi_cg_cp_imm_edges_0x80_str
00003308 l       .text.rvtest	00000000 I_addi_cg_cp_imm_edges_0x100
0000ed2f l       .data	00000000 I_addi_cg_cp_imm_edges_0x100_str
0000332c l       .text.rvtest	00000000 I_addi_cg_cp_imm_edges_0x200
0000ed68 l       .data	00000000 I_addi_cg_cp_imm_edges_0x200_str
00003350 l       .text.rvtest	00000000 I_addi_cg_cp_imm_edges_0x3ff
0000eda1 l       .data	00000000 I_addi_cg_cp_imm_edges_0x3ff_str
00003374 l       .text.rvtest	00000000 I_addi_cg_cp_imm_edges_0x400
0000edda l       .data	00000000 I_addi_cg_cp_imm_edges_0x400_str
00003398 l       .text.rvtest	00000000 I_addi_cg_cp_imm_edges_0x703
0000ee13 l       .data	00000000 I_addi_cg_cp_imm_edges_0x703_str
000033bc l       .text.rvtest	00000000 I_addi_cg_cp_imm_edges_0x7ff
0000ee4c l       .data	00000000 I_addi_cg_cp_imm_edges_0x7ff_str
000033e0 l       .text.rvtest	00000000 I_addi_cg_cp_imm_edges_m0x800
0000ee85 l       .data	00000000 I_addi_cg_cp_imm_edges_m0x800_str
00003404 l       .text.rvtest	00000000 I_addi_cg_cp_imm_edges_m0x7ff
0000eebf l       .data	00000000 I_addi_cg_cp_imm_edges_m0x7ff_str
00003428 l       .text.rvtest	00000000 I_addi_cg_cp_imm_edges_m0x2
0000eef9 l       .data	00000000 I_addi_cg_cp_imm_edges_m0x2_str
0000344c l       .text.rvtest	00000000 I_addi_cg_cp_imm_edges_m0x1
0000ef31 l       .data	00000000 I_addi_cg_cp_imm_edges_m0x1_str
0000346c l       .text.rvtest	00000000 exit_cleanup
0000f5d4 l       .data	00000000 successstr
00020204 l       .text.rvmodel	00000000 rvmodel_io_write_str
00020208 l       .text.rvmodel	00000000 rvmodel_halt_pass
000034b0 l       .text.rvtest	00000000 abort_test
6f5ca309 l       *ABS*	00000000 immx
6f5ca309 l       *ABS*	00000000 absimm
00000000 l       *ABS*	00000000 cry
00000309 l       *ABS*	00000000 imm12
0000ef70 l       .data	00000000 begin_failure_scratch
00003580 l       .text.rvtest	00000000 failedtest_saveregs
00003524 l       .text.rvtest	00000000 failedtest_trap_x7_x9
0000f0e0 l       .data	00000000 saved_mcause
0000f0e8 l       .data	00000000 saved_mtval
0000f0f0 l       .data	00000000 saved_mstatus
000035f0 l       .text.rvtest	00000000 failedtest_saveresults
0000ef70 l       .data	00000000 failure_type
0000366c l       .text.rvtest	00000000 failedtest_saveresults_trap
00003600 l       .text.rvtest	00000000 failedtest_saveresults_int
00003a40 l       .text.rvtest	00000000 failedtest_saveresults_common
0000f0c8 l       .data	00000000 trap_diag_fail_str_ptr
0000f79c l       .data	00000000 trap_sig_offset_mismatch
00003920 l       .text.rvtest	00000000 trap_diag_offset_mismatch
0000f0a0 l       .data	00000000 trap_diag_subtype
0000f800 l       .data	00000000 sv_Mvect_str
000039a0 l       .text.rvtest	00000000 trap_diag_field_identified
0000f902 l       .data	00000000 sv_Mcause_str
0000f9fd l       .data	00000000 sv_Mepc_str
0000faf0 l       .data	00000000 sv_Mtval_str
0000fc63 l       .data	00000000 sv_Mip_str
0000fbe7 l       .data	00000000 sv_Mtval2_str
0000fc25 l       .data	00000000 sv_Mtinst_str
0000f840 l       .data	00000000 sv_Svect_str
0000f940 l       .data	00000000 sv_Scause_str
0000fa39 l       .data	00000000 sv_Sepc_str
0000fb2d l       .data	00000000 sv_Stval_str
0000fc9e l       .data	00000000 sv_Sip_str
0000f880 l       .data	00000000 sv_Hvect_str
0000f97e l       .data	00000000 sv_Hcause_str
0000fa75 l       .data	00000000 sv_Hepc_str
0000fb6a l       .data	00000000 sv_Htval_str
0000fcd9 l       .data	00000000 sv_Hip_str
0000f8c1 l       .data	00000000 sv_Vvect_str
0000f9bd l       .data	00000000 sv_Vcause_str
0000fab2 l       .data	00000000 sv_Vepc_str
0000fba8 l       .data	00000000 sv_Vtval_str
0000fd15 l       .data	00000000 sv_Vip_str
0000fd52 l       .data	00000000 Mclr_Mext_int_str
0000fda1 l       .data	00000000 Mclr_Sext_int_str
0000fe9c l       .data	00000000 Sclr_Sext_int_str
0000ff98 l       .data	00000000 Hclr_Sext_int_str
00003a30 l       .text.rvtest	00000000 trap_diag_generic_report
0000f0b8 l       .data	00000000 trap_diag_actual_offset
0000f0c0 l       .data	00000000 trap_diag_expected_offset
0000f0a4 l       .data	00000000 trap_diag_mode
0000f0a8 l       .data	00000000 trap_diag_actual_value
0000f0b0 l       .data	00000000 trap_diag_expected_value
00003a70 l       .text.rvtest	00000000 failedtest_report
00003a70 l       .text.rvtest	00000000 print_failstr
0000f60b l       .data	00000000 failstr
00003aa8 l       .text.rvtest	00000000 print_testnamestr
0000f69f l       .data	00000000 testnamestr
00003ae8 l       .text.rvtest	00000000 print_failure_test_name_str
0000f090 l       .data	00000000 failure_string_ptr
00003af8 l       .text.rvtest	00000000 print_newline_str
0000f6b1 l       .data	00000000 newlinestr
00003f2c l       .text.rvtest	00000000 failedtest_report_trap_detailed
0000f6b3 l       .data	00000000 inststr
0000f070 l       .data	00000000 failing_instruction
00004e78 l       .text.rvtest	00000000 failedtest_hex_to_str
0000f0f8 l       .data	00000000 ascii_buffer
0000f6c7 l       .data	00000000 addrstr
0000f078 l       .data	00000000 failing_addr
00010144 l       .data	00000000 regstr
00003cd8 l       .text.rvtest	00000000 failedtest_report_not_intreg
0000f074 l       .data	00000000 failing_reg
00004ef4 l       .text.rvtest	00000000 failedtest_dec_to_str
00003db4 l       .text.rvtest	00000000 failedtest_report_print_regstr
00003d2c l       .text.rvtest	00000000 failedtest_report_fpreg
00003d78 l       .text.rvtest	00000000 failedtest_report_vecreg
000101a4 l       .data	00000000 fflagsstr
00003de8 l       .text.rvtest	00000000 failedtest_report_after_reg
00010155 l       .data	00000000 badvalstr
00003e4c l       .text.rvtest	00000000 failedtest_report_badval_not_fp
0000f080 l       .data	00000000 failing_value
00003e5c l       .text.rvtest	00000000 failedtest_report_badval_done
0001016c l       .data	00000000 expvalstr
00003eec l       .text.rvtest	00000000 failedtest_report_expval_not_fp
0000f088 l       .data	00000000 expected_value
00003efc l       .text.rvtest	00000000 failedtest_report_expval_done
00004c24 l       .text.rvtest	00000000 failedtest_report_end
000101d0 l       .data	00000000 trap_diag_header_str
000101fc l       .data	00000000 trap_diag_origstr_label
00004000 l       .text.rvtest	00000000 trap_report_offset_mismatch
00004ab0 l       .text.rvtest	00000000 trap_report_generic
00004374 l       .text.rvtest	00000000 trap_report_field_mismatch
0001020c l       .data	00000000 trap_diag_count_mismatch_str
0001026d l       .data	00000000 trap_diag_expected_offset_str
00010294 l       .data	00000000 trap_diag_actual_offset_str
00004254 l       .text.rvtest	00000000 trap_report_missing_traps
0000413c l       .text.rvtest	00000000 trap_report_extra_traps
000102bb l       .data	00000000 trap_diag_extra_traps_str
00010340 l       .data	00000000 trap_diag_extra_bytes_str
0001036b l       .data	00000000 trap_diag_extra_hint_str
00004c70 l       .text.rvtest	00000000 failedtest_print_csr_context
000102f5 l       .data	00000000 trap_diag_missing_traps_str
00010453 l       .data	00000000 trap_diag_missing_hint_str
0001053a l       .data	00000000 trap_diag_handler_mode_str
00004404 l       .text.rvtest	00000000 trap_mode_m
00004444 l       .text.rvtest	00000000 trap_mode_s
00004484 l       .text.rvtest	00000000 trap_mode_h
000044c4 l       .text.rvtest	00000000 trap_mode_v
00010576 l       .data	00000000 trap_diag_mode_unknown_str
00004500 l       .text.rvtest	00000000 trap_mode_print
00010554 l       .data	00000000 trap_diag_mode_m_str
0001055c l       .data	00000000 trap_diag_mode_s_str
00010564 l       .data	00000000 trap_diag_mode_hs_str
0001056d l       .data	00000000 trap_diag_mode_vs_str
0001057f l       .data	00000000 trap_diag_field_str
000045c4 l       .text.rvtest	00000000 trap_field_vect
00004604 l       .text.rvtest	00000000 trap_field_cause
00004644 l       .text.rvtest	00000000 trap_field_epc
00004684 l       .text.rvtest	00000000 trap_field_tval
000046c4 l       .text.rvtest	00000000 trap_field_ip
00004704 l       .text.rvtest	00000000 trap_field_tval2
00004744 l       .text.rvtest	00000000 trap_field_tinst
00004784 l       .text.rvtest	00000000 trap_field_intid
000106d6 l       .data	00000000 trap_diag_field_unknown_str
000047c0 l       .text.rvtest	00000000 trap_field_print
00010599 l       .data	00000000 trap_diag_field_vect_str
000105ca l       .data	00000000 trap_diag_field_cause_str
000105ea l       .data	00000000 trap_diag_field_epc_str
00010608 l       .data	00000000 trap_diag_field_tval_str
00010627 l       .data	00000000 trap_diag_field_ip_str
0001064f l       .data	00000000 trap_diag_field_tval2_str
0001067b l       .data	00000000 trap_diag_field_tinst_str
000106a7 l       .data	00000000 trap_diag_field_intid_str
000106e5 l       .data	00000000 trap_diag_expected_str
000106fc l       .data	00000000 trap_diag_actual_str
0000495c l       .text.rvtest	00000000 trap_field_not_cause
00010713 l       .data	00000000 trap_diag_expected_cause_name_str
00004b94 l       .text.rvtest	00000000 trap_cause_to_str
0001072a l       .data	00000000 trap_diag_actual_cause_name_str
0000495c l       .text.rvtest	00000000 trap_field_not_epc
000107a0 l       .data	00000000 trap_diag_hint_vect_str
00010876 l       .data	00000000 trap_diag_hint_cause_str
00010969 l       .data	00000000 trap_diag_hint_epc_str
00010a64 l       .data	00000000 trap_diag_hint_tval_str
00010b4b l       .data	00000000 trap_diag_hint_ip_str
00010758 l       .data	00000000 trap_diag_generic_str
0000f0d8 l       .data	00000000 saved_mepc
0000f73b l       .data	00000000 xepcinstrstr
00004bb8 l       .text.rvtest	00000000 trap_cause_interrupt
00004b98 l       .text.rvtest	00000000 trap_cause_exception
00004be4 l       .text.rvtest	00000000 trap_cause_unknown
0000f120 l       .data	00000000 trap_excpt_name_tbl
0000f180 l       .data	00000000 trap_int_name_tbl
0000f5be l       .data	00000000 trap_cause_unknown_str
00010183 l       .data	00000000 endstr
00004c68 l       .text.rvtest	00000000 failedtest_terminate
00020214 l       .text.rvmodel	00000000 rvmodel_halt_fail
0000f0d0 l       .data	00000000 csr_context_ret_addr
0000f75c l       .data	00000000 mepcstr
0000f76c l       .data	00000000 mcausestr
0000f77c l       .data	00000000 mtvalstr
0000f78c l       .data	00000000 mstatusstr
00004eb8 l       .text.rvtest	00000000 failedtest_hex_to_str_loop
00004ed4 l       .text.rvtest	00000000 failedtest_hex_to_str_digit
00004ed8 l       .text.rvtest	00000000 failedtest_hex_to_str_write
00020000 l       .text.rvmodel	00000000 rvtest_boot_to_mmode
00020000 l       .text.rvmodel	00000000 rvtest_init_regs
00010c30 l       .data	00000000 signature_base
000201a0 l       .text.rvmodel	00000000 canary_check
000101ac l       .data	00000000 canary_mismatch
00008000 l       .data	00000000 scratch
0000f120 l       .data	00000000 end_failure_scratch
0000f1c0 l       .data	00000000 trap_excpt_name_0
0000f1e0 l       .data	00000000 trap_excpt_name_1
0000f1fa l       .data	00000000 trap_excpt_name_2
0000f20f l       .data	00000000 trap_excpt_name_3
0000f21b l       .data	00000000 trap_excpt_name_4
0000f234 l       .data	00000000 trap_excpt_name_5
0000f247 l       .data	00000000 trap_excpt_name_6
0000f265 l       .data	00000000 trap_excpt_name_7
0000f27d l       .data	00000000 trap_excpt_name_8
0000f29b l       .data	00000000 trap_excpt_name_9
0000f2b9 l       .data	00000000 trap_excpt_name_10
0000f2d8 l       .data	00000000 trap_excpt_name_11
0000f2f6 l       .data	00000000 trap_excpt_name_12
0000f30e l       .data	00000000 trap_excpt_name_13
0000f31f l       .data	00000000 trap_excpt_name_14
0000f32e l       .data	00000000 trap_excpt_name_15
0000f344 l       .data	00000000 trap_excpt_name_16
0000f351 l       .data	00000000 trap_excpt_name_17
0000f360 l       .data	00000000 trap_excpt_name_18
0000f370 l       .data	00000000 trap_excpt_name_19
0000f380 l       .data	00000000 trap_excpt_name_20
0000f39e l       .data	00000000 trap_excpt_name_21
0000f3b5 l       .data	00000000 trap_excpt_name_22
0000f3ca l       .data	00000000 trap_excpt_name_23
0000f3e6 l       .data	00000000 trap_int_name_0
0000f3fe l       .data	00000000 trap_int_name_1
0000f41d l       .data	00000000 trap_int_name_2
0000f444 l       .data	00000000 trap_int_name_3
0000f460 l       .data	00000000 trap_int_name_4
0000f478 l       .data	00000000 trap_int_name_5
0000f494 l       .data	00000000 trap_int_name_6
0000f4b8 l       .data	00000000 trap_int_name_7
0000f4d1 l       .data	00000000 trap_int_name_8
0000f4e9 l       .data	00000000 trap_int_name_9
0000f508 l       .data	00000000 trap_int_name_10
0000f52f l       .data	00000000 trap_int_name_11
0000f54b l       .data	00000000 trap_int_name_12
0000f570 l       .data	00000000 trap_int_name_13
0000f58c l       .data	00000000 trap_int_name_14
0000f5a5 l       .data	00000000 trap_int_name_15
0000f661 l       .data	00000000 abortstr
0000f708 l       .data	00000000 xepcstr
0000fdf3 l       .data	00000000 Mclr_Vext_int_str
0000fe4d l       .data	00000000 Sclr_Mext_int_str
0000feee l       .data	00000000 Sclr_Vext_int_str
0000ff48 l       .data	00000000 Hclr_Mext_int_str
0000ffeb l       .data	00000000 Hclr_Vext_int_str
00010046 l       .data	00000000 Vclr_Mext_int_str
00010096 l       .data	00000000 Vclr_Sext_int_str
000100e9 l       .data	00000000 Vclr_Vext_int_str
00010741 l       .data	00000000 trap_diag_curr_xepc_str
00011220 l       .data	00000000 trap_sigptr
0001fc90 g       .data	00000000 end_signature
0001fc90 g       .data	00000000 rvtest_sig_end
00000000 g       .text.init	00000000 rvtest_entry_point
00010c30 g       .data	00000000 begin_signature
0000346c g       .text.rvtest	00000000 rvtest_code_end
00000040 g       .text.rvtest	00000000 rvtest_code_begin
00010c30 g       .data	00000000 rvtest_sig_begin
00008110 g       .data	00000000 rvtest_data_begin
00010c30 g       .data	00000000 rvtest_data_end
0000346c g       .text.rvtest	00000000 cleanup_epilogs
00021000 g       .text.rvmodel	00000000 _end



Disassembly of section .text.init:

00000000 <rvtest_entry_point>:

// Include framework macros
#include "riscv_arch_test.h"

// Set up test environment and declare main entry point
RVTEST_BEGIN
   0:	00020097          	auipc	x1,0x20
   4:	00008093          	addi	x1,x1,0 # 20000 <rvmodel_boot>
   8:	00000013          	addi	x0,x0,0
   c:	00000013          	addi	x0,x0,0
  10:	00000013          	addi	x0,x0,0
  14:	00000013          	addi	x0,x0,0
  18:	00000013          	addi	x0,x0,0
  1c:	00000013          	addi	x0,x0,0
  20:	000080e7          	jalr	x1,0(x1)
  24:	00000013          	addi	x0,x0,0
  28:	00000013          	addi	x0,x0,0
  2c:	00000013          	addi	x0,x0,0
  30:	00000013          	addi	x0,x0,0
  34:	00000013          	addi	x0,x0,0
  38:	00000013          	addi	x0,x0,0
  3c:	00000013          	addi	x0,x0,0

Disassembly of section .text.rvtest:

00000040 <rvtest_code_begin>:
/////////////////////////////////
// cp_rs1
/////////////////////////////////

# Testcase cp_rs1 (Test source rs1 = x0)
  RVTEST_TESTDATA_LOAD_INT(x3, x0) # load rs1: x0 = 0x05245fd3
      40:	0001a003          	lw	x0,0(x3)
      44:	00418193          	addi	x3,x3,4

00000048 <I_addi_cg_cp_rs1_b0>:
I_addi_cg_cp_rs1_b0:
  addi x8, x0, 764 # perform operation
      48:	2fc00413          	addi	x8,x0,764
  # Check if x8 contains the expected result. x2 is the signature ptr, x5 is the link ptr, x4 is a temp reg.
  RVTEST_SIGUPD(x2, x5, x4, x8, I_addi_cg_cp_rs1_b0, I_addi_cg_cp_rs1_b0_str)
      4c:	00012203          	lw	x4,0(x2)
      50:	00820863          	beq	x4,x8,60 <I_addi_cg_cp_rs1_b0+0x18>
      54:	468032ef          	jal	x5,34bc <failedtest_x5_x4>
      58:	00000048          	.word	0x00000048
      5c:	000086d0          	.word	0x000086d0
      60:	00410113          	addi	x2,x2,4

# Testcase cp_rs1 (Test source rs1 = x1)
  RVTEST_TESTDATA_LOAD_INT(x3, x1) # load rs1: x1 = 0x18b7f774
      64:	0001a083          	lw	x1,0(x3)
      68:	00418193          	addi	x3,x3,4

0000006c <I_addi_cg_cp_rs1_b1>:
I_addi_cg_cp_rs1_b1:
  addi x6, x1, -293 # perform operation
      6c:	edb08313          	addi	x6,x1,-293
  # Check if x6 contains the expected result. x2 is the signature ptr, x5 is the link ptr, x4 is a temp reg.
  RVTEST_SIGUPD(x2, x5, x4, x6, I_addi_cg_cp_rs1_b1, I_addi_cg_cp_rs1_b1_str)
      70:	00012203          	lw	x4,0(x2)
      74:	00620863          	beq	x4,x6,84 <I_addi_cg_cp_rs1_b1+0x18>
      78:	444032ef          	jal	x5,34bc <failedtest_x5_x4>
      7c:	0000006c          	.word	0x0000006c
      80:	000086fe          	.word	0x000086fe
      84:	00410113          	addi	x2,x2,4

  mv x25, x2 # switch signature pointer register to avoid conflict with test
      88:	00010c93          	addi	x25,x2,0
# Testcase cp_rs1 (Test source rs1 = x2)
  RVTEST_TESTDATA_LOAD_INT(x3, x2) # load rs1: x2 = 0x0aa06323
      8c:	0001a103          	lw	x2,0(x3)
      90:	00418193          	addi	x3,x3,4

00000094 <I_addi_cg_cp_rs1_b2>:
I_addi_cg_cp_rs1_b2:
  addi x8, x2, 1693 # perform operation
      94:	69d10413          	addi	x8,x2,1693
  # Check if x8 contains the expected result. x25 is the signature ptr, x5 is the link ptr, x4 is a temp reg.
  RVTEST_SIGUPD(x25, x5, x4, x8, I_addi_cg_cp_rs1_b2, I_addi_cg_cp_rs1_b2_str)
      98:	000ca203          	lw	x4,0(x25)
      9c:	00820863          	beq	x4,x8,ac <I_addi_cg_cp_rs1_b2+0x18>
      a0:	41c032ef          	jal	x5,34bc <failedtest_x5_x4>
      a4:	00000094          	.word	0x00000094
      a8:	0000872c          	.word	0x0000872c
      ac:	004c8c93          	addi	x25,x25,4

  mv x9, x3 # switch data pointer register to avoid conflict with test
      b0:	00018493          	addi	x9,x3,0
# Testcase cp_rs1 (Test source rs1 = x3)
  RVTEST_TESTDATA_LOAD_INT(x9, x3) # load rs1: x3 = 0x9cf1ef82
      b4:	0004a183          	lw	x3,0(x9)
      b8:	00448493          	addi	x9,x9,4

000000bc <I_addi_cg_cp_rs1_b3>:
I_addi_cg_cp_rs1_b3:
  addi x22, x3, 1260 # perform operation
      bc:	4ec18b13          	addi	x22,x3,1260
  # Check if x22 contains the expected result. x25 is the signature ptr, x5 is the link ptr, x4 is a temp reg.
  RVTEST_SIGUPD(x25, x5, x4, x22, I_addi_cg_cp_rs1_b3, I_addi_cg_cp_rs1_b3_str)
      c0:	000ca203          	lw	x4,0(x25)
      c4:	01620863          	beq	x4,x22,d4 <I_addi_cg_cp_rs1_b3+0x18>
      c8:	3f4032ef          	jal	x5,34bc <failedtest_x5_x4>
      cc:	000000bc          	.word	0x000000bc
      d0:	0000875a          	.word	0x0000875a
      d4:	004c8c93          	addi	x25,x25,4

  mv x7, x4 # switch temp register to avoid conflict with test
      d8:	00020393          	addi	x7,x4,0 # 0 <rvtest_entry_point>
  mv x8, x5 # switch link pointer register to avoid conflict with test
      dc:	00028413          	addi	x8,x5,0
# Testcase cp_rs1 (Test source rs1 = x4)
  RVTEST_TESTDATA_LOAD_INT(x9, x4) # load rs1: x4 = 0xca7af0fe
      e0:	0004a203          	lw	x4,0(x9)
      e4:	00448493          	addi	x9,x9,4

000000e8 <I_addi_cg_cp_rs1_b4>:
I_addi_cg_cp_rs1_b4:
  addi x3, x4, 675 # perform operation
      e8:	2a320193          	addi	x3,x4,675 # 2a3 <I_addi_cg_cp_rs1_b15+0x1b>
  # Check if x3 contains the expected result. x25 is the signature ptr, x8 is the link ptr, x7 is a temp reg.
  RVTEST_SIGUPD(x25, x8, x7, x3, I_addi_cg_cp_rs1_b4, I_addi_cg_cp_rs1_b4_str)
      ec:	000ca383          	lw	x7,0(x25)
      f0:	00338863          	beq	x7,x3,100 <I_addi_cg_cp_rs1_b4+0x18>
      f4:	3e00346f          	jal	x8,34d4 <failedtest_x8_x7>
      f8:	000000e8          	.word	0x000000e8
      fc:	00008788          	.word	0x00008788
     100:	004c8c93          	addi	x25,x25,4

# Testcase cp_rs1 (Test source rs1 = x5)
  RVTEST_TESTDATA_LOAD_INT(x9, x5) # load rs1: x5 = 0x1bb0bef9
     104:	0004a283          	lw	x5,0(x9)
     108:	00448493          	addi	x9,x9,4

0000010c <I_addi_cg_cp_rs1_b5>:
I_addi_cg_cp_rs1_b5:
  addi x20, x5, 49 # perform operation
     10c:	03128a13          	addi	x20,x5,49
  # Check if x20 contains the expected result. x25 is the signature ptr, x8 is the link ptr, x7 is a temp reg.
  RVTEST_SIGUPD(x25, x8, x7, x20, I_addi_cg_cp_rs1_b5, I_addi_cg_cp_rs1_b5_str)
     110:	000ca383          	lw	x7,0(x25)
     114:	01438863          	beq	x7,x20,124 <I_addi_cg_cp_rs1_b5+0x18>
     118:	3bc0346f          	jal	x8,34d4 <failedtest_x8_x7>
     11c:	0000010c          	.word	0x0000010c
     120:	000087b6          	.word	0x000087b6
     124:	004c8c93          	addi	x25,x25,4

# Testcase cp_rs1 (Test source rs1 = x6)
  RVTEST_TESTDATA_LOAD_INT(x9, x6) # load rs1: x6 = 0xb7bc3f7f
     128:	0004a303          	lw	x6,0(x9)
     12c:	00448493          	addi	x9,x9,4

00000130 <I_addi_cg_cp_rs1_b6>:
I_addi_cg_cp_rs1_b6:
  addi x23, x6, -1418 # perform operation
     130:	a7630b93          	addi	x23,x6,-1418
  # Check if x23 contains the expected result. x25 is the signature ptr, x8 is the link ptr, x7 is a temp reg.
  RVTEST_SIGUPD(x25, x8, x7, x23, I_addi_cg_cp_rs1_b6, I_addi_cg_cp_rs1_b6_str)
     134:	000ca383          	lw	x7,0(x25)
     138:	01738863          	beq	x7,x23,148 <I_addi_cg_cp_rs1_b6+0x18>
     13c:	3980346f          	jal	x8,34d4 <failedtest_x8_x7>
     140:	00000130          	.word	0x00000130
     144:	000087e4          	.word	0x000087e4
     148:	004c8c93          	addi	x25,x25,4

  mv x13, x7 # switch temp register to avoid conflict with test
     14c:	00038693          	addi	x13,x7,0
  mv x14, x8 # switch link pointer register to avoid conflict with test
     150:	00040713          	addi	x14,x8,0
# Testcase cp_rs1 (Test source rs1 = x7)
  RVTEST_TESTDATA_LOAD_INT(x9, x7) # load rs1: x7 = 0x26c79a1a
     154:	0004a383          	lw	x7,0(x9)
     158:	00448493          	addi	x9,x9,4

0000015c <I_addi_cg_cp_rs1_b7>:
I_addi_cg_cp_rs1_b7:
  addi x1, x7, 1871 # perform operation
     15c:	74f38093          	addi	x1,x7,1871
  # Check if x1 contains the expected result. x25 is the signature ptr, x14 is the link ptr, x13 is a temp reg.
  RVTEST_SIGUPD(x25, x14, x13, x1, I_addi_cg_cp_rs1_b7, I_addi_cg_cp_rs1_b7_str)
     160:	000ca683          	lw	x13,0(x25)
     164:	00168863          	beq	x13,x1,174 <I_addi_cg_cp_rs1_b7+0x18>
     168:	3940376f          	jal	x14,34fc <failedtest_x14_x13>
     16c:	0000015c          	.word	0x0000015c
     170:	00008812          	.word	0x00008812
     174:	004c8c93          	addi	x25,x25,4

# Testcase cp_rs1 (Test source rs1 = x8)
  RVTEST_TESTDATA_LOAD_INT(x9, x8) # load rs1: x8 = 0x9b60f168
     178:	0004a403          	lw	x8,0(x9)
     17c:	00448493          	addi	x9,x9,4

00000180 <I_addi_cg_cp_rs1_b8>:
I_addi_cg_cp_rs1_b8:
  addi x28, x8, 1301 # perform operation
     180:	51540e13          	addi	x28,x8,1301
  # Check if x28 contains the expected result. x25 is the signature ptr, x14 is the link ptr, x13 is a temp reg.
  RVTEST_SIGUPD(x25, x14, x13, x28, I_addi_cg_cp_rs1_b8, I_addi_cg_cp_rs1_b8_str)
     184:	000ca683          	lw	x13,0(x25)
     188:	01c68863          	beq	x13,x28,198 <I_addi_cg_cp_rs1_b8+0x18>
     18c:	3700376f          	jal	x14,34fc <failedtest_x14_x13>
     190:	00000180          	.word	0x00000180
     194:	00008840          	.word	0x00008840
     198:	004c8c93          	addi	x25,x25,4

  mv x22, x9 # switch data pointer register to avoid conflict with test
     19c:	00048b13          	addi	x22,x9,0
# Testcase cp_rs1 (Test source rs1 = x9)
  RVTEST_TESTDATA_LOAD_INT(x22, x9) # load rs1: x9 = 0xb24f11ba
     1a0:	000b2483          	lw	x9,0(x22)
     1a4:	004b0b13          	addi	x22,x22,4

000001a8 <I_addi_cg_cp_rs1_b9>:
I_addi_cg_cp_rs1_b9:
  addi x10, x9, 59 # perform operation
     1a8:	03b48513          	addi	x10,x9,59
  # Check if x10 contains the expected result. x25 is the signature ptr, x14 is the link ptr, x13 is a temp reg.
  RVTEST_SIGUPD(x25, x14, x13, x10, I_addi_cg_cp_rs1_b9, I_addi_cg_cp_rs1_b9_str)
     1ac:	000ca683          	lw	x13,0(x25)
     1b0:	00a68863          	beq	x13,x10,1c0 <I_addi_cg_cp_rs1_b9+0x18>
     1b4:	3480376f          	jal	x14,34fc <failedtest_x14_x13>
     1b8:	000001a8          	.word	0x000001a8
     1bc:	0000886e          	.word	0x0000886e
     1c0:	004c8c93          	addi	x25,x25,4

# Testcase cp_rs1 (Test source rs1 = x10)
  RVTEST_TESTDATA_LOAD_INT(x22, x10) # load rs1: x10 = 0x40f11b39
     1c4:	000b2503          	lw	x10,0(x22)
     1c8:	004b0b13          	addi	x22,x22,4

000001cc <I_addi_cg_cp_rs1_b10>:
I_addi_cg_cp_rs1_b10:
  addi x16, x10, -1005 # perform operation
     1cc:	c1350813          	addi	x16,x10,-1005
  # Check if x16 contains the expected result. x25 is the signature ptr, x14 is the link ptr, x13 is a temp reg.
  RVTEST_SIGUPD(x25, x14, x13, x16, I_addi_cg_cp_rs1_b10, I_addi_cg_cp_rs1_b10_str)
     1d0:	000ca683          	lw	x13,0(x25)
     1d4:	01068863          	beq	x13,x16,1e4 <I_addi_cg_cp_rs1_b10+0x18>
     1d8:	3240376f          	jal	x14,34fc <failedtest_x14_x13>
     1dc:	000001cc          	.word	0x000001cc
     1e0:	0000889d          	.word	0x0000889d
     1e4:	004c8c93          	addi	x25,x25,4

# Testcase cp_rs1 (Test source rs1 = x11)
  RVTEST_TESTDATA_LOAD_INT(x22, x11) # load rs1: x11 = 0xa00cbc8d
     1e8:	000b2583          	lw	x11,0(x22)
     1ec:	004b0b13          	addi	x22,x22,4

000001f0 <I_addi_cg_cp_rs1_b11>:
I_addi_cg_cp_rs1_b11:
  addi x28, x11, 818 # perform operation
     1f0:	33258e13          	addi	x28,x11,818
  # Check if x28 contains the expected result. x25 is the signature ptr, x14 is the link ptr, x13 is a temp reg.
  RVTEST_SIGUPD(x25, x14, x13, x28, I_addi_cg_cp_rs1_b11, I_addi_cg_cp_rs1_b11_str)
     1f4:	000ca683          	lw	x13,0(x25)
     1f8:	01c68863          	beq	x13,x28,208 <I_addi_cg_cp_rs1_b11+0x18>
     1fc:	3000376f          	jal	x14,34fc <failedtest_x14_x13>
     200:	000001f0          	.word	0x000001f0
     204:	000088cd          	.word	0x000088cd
     208:	004c8c93          	addi	x25,x25,4

# Testcase cp_rs1 (Test source rs1 = x12)
  RVTEST_TESTDATA_LOAD_INT(x22, x12) # load rs1: x12 = 0x75750ad6
     20c:	000b2603          	lw	x12,0(x22)
     210:	004b0b13          	addi	x22,x22,4

00000214 <I_addi_cg_cp_rs1_b12>:
I_addi_cg_cp_rs1_b12:
  addi x18, x12, 1325 # perform operation
     214:	52d60913          	addi	x18,x12,1325
  # Check if x18 contains the expected result. x25 is the signature ptr, x14 is the link ptr, x13 is a temp reg.
  RVTEST_SIGUPD(x25, x14, x13, x18, I_addi_cg_cp_rs1_b12, I_addi_cg_cp_rs1_b12_str)
     218:	000ca683          	lw	x13,0(x25)
     21c:	01268863          	beq	x13,x18,22c <I_addi_cg_cp_rs1_b12+0x18>
     220:	2dc0376f          	jal	x14,34fc <failedtest_x14_x13>
     224:	00000214          	.word	0x00000214
     228:	000088fd          	.word	0x000088fd
     22c:	004c8c93          	addi	x25,x25,4

  mv x4, x13 # switch temp register to avoid conflict with test
     230:	00068213          	addi	x4,x13,0
  mv x5, x14 # switch link pointer register to avoid conflict with test
     234:	00070293          	addi	x5,x14,0
# Testcase cp_rs1 (Test source rs1 = x13)
  RVTEST_TESTDATA_LOAD_INT(x22, x13) # load rs1: x13 = 0x1aab03e6
     238:	000b2683          	lw	x13,0(x22)
     23c:	004b0b13          	addi	x22,x22,4

00000240 <I_addi_cg_cp_rs1_b13>:
I_addi_cg_cp_rs1_b13:
  addi x9, x13, 1342 # perform operation
     240:	53e68493          	addi	x9,x13,1342
  # Check if x9 contains the expected result. x25 is the signature ptr, x5 is the link ptr, x4 is a temp reg.
  RVTEST_SIGUPD(x25, x5, x4, x9, I_addi_cg_cp_rs1_b13, I_addi_cg_cp_rs1_b13_str)
     244:	000ca203          	lw	x4,0(x25)
     248:	00920863          	beq	x4,x9,258 <I_addi_cg_cp_rs1_b13+0x18>
     24c:	270032ef          	jal	x5,34bc <failedtest_x5_x4>
     250:	00000240          	.word	0x00000240
     254:	0000892d          	.word	0x0000892d
     258:	004c8c93          	addi	x25,x25,4

# Testcase cp_rs1 (Test source rs1 = x14)
  RVTEST_TESTDATA_LOAD_INT(x22, x14) # load rs1: x14 = 0x05e583ef
     25c:	000b2703          	lw	x14,0(x22)
     260:	004b0b13          	addi	x22,x22,4

00000264 <I_addi_cg_cp_rs1_b14>:
I_addi_cg_cp_rs1_b14:
  addi x8, x14, 1711 # perform operation
     264:	6af70413          	addi	x8,x14,1711
  # Check if x8 contains the expected result. x25 is the signature ptr, x5 is the link ptr, x4 is a temp reg.
  RVTEST_SIGUPD(x25, x5, x4, x8, I_addi_cg_cp_rs1_b14, I_addi_cg_cp_rs1_b14_str)
     268:	000ca203          	lw	x4,0(x25)
     26c:	00820863          	beq	x4,x8,27c <I_addi_cg_cp_rs1_b14+0x18>
     270:	24c032ef          	jal	x5,34bc <failedtest_x5_x4>
     274:	00000264          	.word	0x00000264
     278:	0000895d          	.word	0x0000895d
     27c:	004c8c93          	addi	x25,x25,4

# Testcase cp_rs1 (Test source rs1 = x15)
  RVTEST_TESTDATA_LOAD_INT(x22, x15) # load rs1: x15 = 0xe19c0590
     280:	000b2783          	lw	x15,0(x22)
     284:	004b0b13          	addi	x22,x22,4

00000288 <I_addi_cg_cp_rs1_b15>:
I_addi_cg_cp_rs1_b15:
  addi x18, x15, -188 # perform operation
     288:	f4478913          	addi	x18,x15,-188
  # Check if x18 contains the expected result. x25 is the signature ptr, x5 is the link ptr, x4 is a temp reg.
  RVTEST_SIGUPD(x25, x5, x4, x18, I_addi_cg_cp_rs1_b15, I_addi_cg_cp_rs1_b15_str)
     28c:	000ca203          	lw	x4,0(x25)
     290:	01220863          	beq	x4,x18,2a0 <I_addi_cg_cp_rs1_b15+0x18>
     294:	228032ef          	jal	x5,34bc <failedtest_x5_x4>
     298:	00000288          	.word	0x00000288
     29c:	0000898d          	.word	0x0000898d
     2a0:	004c8c93          	addi	x25,x25,4

# Testcase cp_rs1 (Test source rs1 = x16)
  RVTEST_TESTDATA_LOAD_INT(x22, x16) # load rs1: x16 = 0xfca8ab12
     2a4:	000b2803          	lw	x16,0(x22)
     2a8:	004b0b13          	addi	x22,x22,4

000002ac <I_addi_cg_cp_rs1_b16>:
I_addi_cg_cp_rs1_b16:
  addi x7, x16, -597 # perform operation
     2ac:	dab80393          	addi	x7,x16,-597
  # Check if x7 contains the expected result. x25 is the signature ptr, x5 is the link ptr, x4 is a temp reg.
  RVTEST_SIGUPD(x25, x5, x4, x7, I_addi_cg_cp_rs1_b16, I_addi_cg_cp_rs1_b16_str)
     2b0:	000ca203          	lw	x4,0(x25)
     2b4:	00720863          	beq	x4,x7,2c4 <I_addi_cg_cp_rs1_b16+0x18>
     2b8:	204032ef          	jal	x5,34bc <failedtest_x5_x4>
     2bc:	000002ac          	.word	0x000002ac
     2c0:	000089bd          	.word	0x000089bd
     2c4:	004c8c93          	addi	x25,x25,4

# Testcase cp_rs1 (Test source rs1 = x17)
  RVTEST_TESTDATA_LOAD_INT(x22, x17) # load rs1: x17 = 0xf7e05b2e
     2c8:	000b2883          	lw	x17,0(x22)
     2cc:	004b0b13          	addi	x22,x22,4

000002d0 <I_addi_cg_cp_rs1_b17>:
I_addi_cg_cp_rs1_b17:
  addi x26, x17, 1073 # perform operation
     2d0:	43188d13          	addi	x26,x17,1073
  # Check if x26 contains the expected result. x25 is the signature ptr, x5 is the link ptr, x4 is a temp reg.
  RVTEST_SIGUPD(x25, x5, x4, x26, I_addi_cg_cp_rs1_b17, I_addi_cg_cp_rs1_b17_str)
     2d4:	000ca203          	lw	x4,0(x25)
     2d8:	01a20863          	beq	x4,x26,2e8 <I_addi_cg_cp_rs1_b17+0x18>
     2dc:	1e0032ef          	jal	x5,34bc <failedtest_x5_x4>
     2e0:	000002d0          	.word	0x000002d0
     2e4:	000089ed          	.word	0x000089ed
     2e8:	004c8c93          	addi	x25,x25,4

# Testcase cp_rs1 (Test source rs1 = x18)
  RVTEST_TESTDATA_LOAD_INT(x22, x18) # load rs1: x18 = 0xd7d2059e
     2ec:	000b2903          	lw	x18,0(x22)
     2f0:	004b0b13          	addi	x22,x22,4

000002f4 <I_addi_cg_cp_rs1_b18>:
I_addi_cg_cp_rs1_b18:
  addi x7, x18, -993 # perform operation
     2f4:	c1f90393          	addi	x7,x18,-993
  # Check if x7 contains the expected result. x25 is the signature ptr, x5 is the link ptr, x4 is a temp reg.
  RVTEST_SIGUPD(x25, x5, x4, x7, I_addi_cg_cp_rs1_b18, I_addi_cg_cp_rs1_b18_str)
     2f8:	000ca203          	lw	x4,0(x25)
     2fc:	00720863          	beq	x4,x7,30c <imm12+0x3>
     300:	1bc032ef          	jal	x5,34bc <failedtest_x5_x4>
     304:	000002f4          	.word	0x000002f4
     308:	00008a1d          	.word	0x00008a1d
     30c:	004c8c93          	addi	x25,x25,4

# Testcase cp_rs1 (Test source rs1 = x19)
  RVTEST_TESTDATA_LOAD_INT(x22, x19) # load rs1: x19 = 0xaa5e9e68
     310:	000b2983          	lw	x19,0(x22)
     314:	004b0b13          	addi	x22,x22,4

00000318 <I_addi_cg_cp_rs1_b19>:
I_addi_cg_cp_rs1_b19:
  addi x17, x19, 267 # perform operation
     318:	10b98893          	addi	x17,x19,267
  # Check if x17 contains the expected result. x25 is the signature ptr, x5 is the link ptr, x4 is a temp reg.
  RVTEST_SIGUPD(x25, x5, x4, x17, I_addi_cg_cp_rs1_b19, I_addi_cg_cp_rs1_b19_str)
     31c:	000ca203          	lw	x4,0(x25)
     320:	01120863          	beq	x4,x17,330 <I_addi_cg_cp_rs1_b19+0x18>
     324:	198032ef          	jal	x5,34bc <failedtest_x5_x4>
     328:	00000318          	.word	0x00000318
     32c:	00008a4d          	.word	0x00008a4d
     330:	004c8c93          	addi	x25,x25,4

# Testcase cp_rs1 (Test source rs1 = x20)
  RVTEST_TESTDATA_LOAD_INT(x22, x20) # load rs1: x20 = 0x80ad83d3
     334:	000b2a03          	lw	x20,0(x22)
     338:	004b0b13          	addi	x22,x22,4

0000033c <I_addi_cg_cp_rs1_b20>:
I_addi_cg_cp_rs1_b20:
  addi x3, x20, 1632 # perform operation
     33c:	660a0193          	addi	x3,x20,1632
  # Check if x3 contains the expected result. x25 is the signature ptr, x5 is the link ptr, x4 is a temp reg.
  RVTEST_SIGUPD(x25, x5, x4, x3, I_addi_cg_cp_rs1_b20, I_addi_cg_cp_rs1_b20_str)
     340:	000ca203          	lw	x4,0(x25)
     344:	00320863          	beq	x4,x3,354 <I_addi_cg_cp_rs1_b20+0x18>
     348:	174032ef          	jal	x5,34bc <failedtest_x5_x4>
     34c:	0000033c          	.word	0x0000033c
     350:	00008a7d          	.word	0x00008a7d
     354:	004c8c93          	addi	x25,x25,4

# Testcase cp_rs1 (Test source rs1 = x21)
  RVTEST_TESTDATA_LOAD_INT(x22, x21) # load rs1: x21 = 0xadcb0de0
     358:	000b2a83          	lw	x21,0(x22)
     35c:	004b0b13          	addi	x22,x22,4

00000360 <I_addi_cg_cp_rs1_b21>:
I_addi_cg_cp_rs1_b21:
  addi x27, x21, -561 # perform operation
     360:	dcfa8d93          	addi	x27,x21,-561
  # Check if x27 contains the expected result. x25 is the signature ptr, x5 is the link ptr, x4 is a temp reg.
  RVTEST_SIGUPD(x25, x5, x4, x27, I_addi_cg_cp_rs1_b21, I_addi_cg_cp_rs1_b21_str)
     364:	000ca203          	lw	x4,0(x25)
     368:	01b20863          	beq	x4,x27,378 <I_addi_cg_cp_rs1_b21+0x18>
     36c:	150032ef          	jal	x5,34bc <failedtest_x5_x4>
     370:	00000360          	.word	0x00000360
     374:	00008aad          	.word	0x00008aad
     378:	004c8c93          	addi	x25,x25,4

  mv x17, x22 # switch data pointer register to avoid conflict with test
     37c:	000b0893          	addi	x17,x22,0
# Testcase cp_rs1 (Test source rs1 = x22)
  RVTEST_TESTDATA_LOAD_INT(x17, x22) # load rs1: x22 = 0x353690b0
     380:	0008ab03          	lw	x22,0(x17)
     384:	00488893          	addi	x17,x17,4

00000388 <I_addi_cg_cp_rs1_b22>:
I_addi_cg_cp_rs1_b22:
  addi x18, x22, 789 # perform operation
     388:	315b0913          	addi	x18,x22,789
  # Check if x18 contains the expected result. x25 is the signature ptr, x5 is the link ptr, x4 is a temp reg.
  RVTEST_SIGUPD(x25, x5, x4, x18, I_addi_cg_cp_rs1_b22, I_addi_cg_cp_rs1_b22_str)
     38c:	000ca203          	lw	x4,0(x25)
     390:	01220863          	beq	x4,x18,3a0 <I_addi_cg_cp_rs1_b22+0x18>
     394:	128032ef          	jal	x5,34bc <failedtest_x5_x4>
     398:	00000388          	.word	0x00000388
     39c:	00008add          	.word	0x00008add
     3a0:	004c8c93          	addi	x25,x25,4

# Testcase cp_rs1 (Test source rs1 = x23)
  RVTEST_TESTDATA_LOAD_INT(x17, x23) # load rs1: x23 = 0xb5e30ea6
     3a4:	0008ab83          	lw	x23,0(x17)
     3a8:	00488893          	addi	x17,x17,4

000003ac <I_addi_cg_cp_rs1_b23>:
I_addi_cg_cp_rs1_b23:
  addi x24, x23, -935 # perform operation
     3ac:	c59b8c13          	addi	x24,x23,-935
  # Check if x24 contains the expected result. x25 is the signature ptr, x5 is the link ptr, x4 is a temp reg.
  RVTEST_SIGUPD(x25, x5, x4, x24, I_addi_cg_cp_rs1_b23, I_addi_cg_cp_rs1_b23_str)
     3b0:	000ca203          	lw	x4,0(x25)
     3b4:	01820863          	beq	x4,x24,3c4 <I_addi_cg_cp_rs1_b23+0x18>
     3b8:	104032ef          	jal	x5,34bc <failedtest_x5_x4>
     3bc:	000003ac          	.word	0x000003ac
     3c0:	00008b0d          	.word	0x00008b0d
     3c4:	004c8c93          	addi	x25,x25,4

# Testcase cp_rs1 (Test source rs1 = x24)
  RVTEST_TESTDATA_LOAD_INT(x17, x24) # load rs1: x24 = 0x1f5c7868
     3c8:	0008ac03          	lw	x24,0(x17)
     3cc:	00488893          	addi	x17,x17,4

000003d0 <I_addi_cg_cp_rs1_b24>:
I_addi_cg_cp_rs1_b24:
  addi x19, x24, -2029 # perform operation
     3d0:	813c0993          	addi	x19,x24,-2029
  # Check if x19 contains the expected result. x25 is the signature ptr, x5 is the link ptr, x4 is a temp reg.
  RVTEST_SIGUPD(x25, x5, x4, x19, I_addi_cg_cp_rs1_b24, I_addi_cg_cp_rs1_b24_str)
     3d4:	000ca203          	lw	x4,0(x25)
     3d8:	01320863          	beq	x4,x19,3e8 <I_addi_cg_cp_rs1_b24+0x18>
     3dc:	0e0032ef          	jal	x5,34bc <failedtest_x5_x4>
     3e0:	000003d0          	.word	0x000003d0
     3e4:	00008b3d          	.word	0x00008b3d
     3e8:	004c8c93          	addi	x25,x25,4

  mv x18, x25 # switch signature pointer register to avoid conflict with test
     3ec:	000c8913          	addi	x18,x25,0
# Testcase cp_rs1 (Test source rs1 = x25)
  RVTEST_TESTDATA_LOAD_INT(x17, x25) # load rs1: x25 = 0xd8fa2e3a
     3f0:	0008ac83          	lw	x25,0(x17)
     3f4:	00488893          	addi	x17,x17,4

000003f8 <I_addi_cg_cp_rs1_b25>:
I_addi_cg_cp_rs1_b25:
  addi x15, x25, -253 # perform operation
     3f8:	f03c8793          	addi	x15,x25,-253
  # Check if x15 contains the expected result. x18 is the signature ptr, x5 is the link ptr, x4 is a temp reg.
  RVTEST_SIGUPD(x18, x5, x4, x15, I_addi_cg_cp_rs1_b25, I_addi_cg_cp_rs1_b25_str)
     3fc:	00092203          	lw	x4,0(x18)
     400:	00f20863          	beq	x4,x15,410 <I_addi_cg_cp_rs1_b25+0x18>
     404:	0b8032ef          	jal	x5,34bc <failedtest_x5_x4>
     408:	000003f8          	.word	0x000003f8
     40c:	00008b6d          	.word	0x00008b6d
     410:	00490913          	addi	x18,x18,4

# Testcase cp_rs1 (Test source rs1 = x26)
  RVTEST_TESTDATA_LOAD_INT(x17, x26) # load rs1: x26 = 0x299ffc3d
     414:	0008ad03          	lw	x26,0(x17)
     418:	00488893          	addi	x17,x17,4

0000041c <I_addi_cg_cp_rs1_b26>:
I_addi_cg_cp_rs1_b26:
  addi x28, x26, 670 # perform operation
     41c:	29ed0e13          	addi	x28,x26,670
  # Check if x28 contains the expected result. x18 is the signature ptr, x5 is the link ptr, x4 is a temp reg.
  RVTEST_SIGUPD(x18, x5, x4, x28, I_addi_cg_cp_rs1_b26, I_addi_cg_cp_rs1_b26_str)
     420:	00092203          	lw	x4,0(x18)
     424:	01c20863          	beq	x4,x28,434 <I_addi_cg_cp_rs1_b26+0x18>
     428:	094032ef          	jal	x5,34bc <failedtest_x5_x4>
     42c:	0000041c          	.word	0x0000041c
     430:	00008b9d          	.word	0x00008b9d
     434:	00490913          	addi	x18,x18,4

# Testcase cp_rs1 (Test source rs1 = x27)
  RVTEST_TESTDATA_LOAD_INT(x17, x27) # load rs1: x27 = 0xc8470859
     438:	0008ad83          	lw	x27,0(x17)
     43c:	00488893          	addi	x17,x17,4

00000440 <I_addi_cg_cp_rs1_b27>:
I_addi_cg_cp_rs1_b27:
  addi x11, x27, -240 # perform operation
     440:	f10d8593          	addi	x11,x27,-240
  # Check if x11 contains the expected result. x18 is the signature ptr, x5 is the link ptr, x4 is a temp reg.
  RVTEST_SIGUPD(x18, x5, x4, x11, I_addi_cg_cp_rs1_b27, I_addi_cg_cp_rs1_b27_str)
     444:	00092203          	lw	x4,0(x18)
     448:	00b20863          	beq	x4,x11,458 <I_addi_cg_cp_rs1_b27+0x18>
     44c:	070032ef          	jal	x5,34bc <failedtest_x5_x4>
     450:	00000440          	.word	0x00000440
     454:	00008bcd          	.word	0x00008bcd
     458:	00490913          	addi	x18,x18,4

# Testcase cp_rs1 (Test source rs1 = x28)
  RVTEST_TESTDATA_LOAD_INT(x17, x28) # load rs1: x28 = 0x8fc90337
     45c:	0008ae03          	lw	x28,0(x17)
     460:	00488893          	addi	x17,x17,4

00000464 <I_addi_cg_cp_rs1_b28>:
I_addi_cg_cp_rs1_b28:
  addi x12, x28, -1986 # perform operation
     464:	83ee0613          	addi	x12,x28,-1986
  # Check if x12 contains the expected result. x18 is the signature ptr, x5 is the link ptr, x4 is a temp reg.
  RVTEST_SIGUPD(x18, x5, x4, x12, I_addi_cg_cp_rs1_b28, I_addi_cg_cp_rs1_b28_str)
     468:	00092203          	lw	x4,0(x18)
     46c:	00c20863          	beq	x4,x12,47c <I_addi_cg_cp_rs1_b28+0x18>
     470:	04c032ef          	jal	x5,34bc <failedtest_x5_x4>
     474:	00000464          	.word	0x00000464
     478:	00008bfd          	.word	0x00008bfd
     47c:	00490913          	addi	x18,x18,4

# Testcase cp_rs1 (Test source rs1 = x29)
  RVTEST_TESTDATA_LOAD_INT(x17, x29) # load rs1: x29 = 0x96b4a195
     480:	0008ae83          	lw	x29,0(x17)
     484:	00488893          	addi	x17,x17,4

00000488 <I_addi_cg_cp_rs1_b29>:
I_addi_cg_cp_rs1_b29:
  addi x30, x29, 939 # perform operation
     488:	3abe8f13          	addi	x30,x29,939
  # Check if x30 contains the expected result. x18 is the signature ptr, x5 is the link ptr, x4 is a temp reg.
  RVTEST_SIGUPD(x18, x5, x4, x30, I_addi_cg_cp_rs1_b29, I_addi_cg_cp_rs1_b29_str)
     48c:	00092203          	lw	x4,0(x18)
     490:	01e20863          	beq	x4,x30,4a0 <I_addi_cg_cp_rs1_b29+0x18>
     494:	028032ef          	jal	x5,34bc <failedtest_x5_x4>
     498:	00000488          	.word	0x00000488
     49c:	00008c2d          	.word	0x00008c2d
     4a0:	00490913          	addi	x18,x18,4

# Testcase cp_rs1 (Test source rs1 = x30)
  RVTEST_TESTDATA_LOAD_INT(x17, x30) # load rs1: x30 = 0x4f20682a
     4a4:	0008af03          	lw	x30,0(x17)
     4a8:	00488893          	addi	x17,x17,4

000004ac <I_addi_cg_cp_rs1_b30>:
I_addi_cg_cp_rs1_b30:
  addi x25, x30, -1372 # perform operation
     4ac:	aa4f0c93          	addi	x25,x30,-1372
  # Check if x25 contains the expected result. x18 is the signature ptr, x5 is the link ptr, x4 is a temp reg.
  RVTEST_SIGUPD(x18, x5, x4, x25, I_addi_cg_cp_rs1_b30, I_addi_cg_cp_rs1_b30_str)
     4b0:	00092203          	lw	x4,0(x18)
     4b4:	01920863          	beq	x4,x25,4c4 <I_addi_cg_cp_rs1_b30+0x18>
     4b8:	004032ef          	jal	x5,34bc <failedtest_x5_x4>
     4bc:	000004ac          	.word	0x000004ac
     4c0:	00008c5d          	.word	0x00008c5d
     4c4:	00490913          	addi	x18,x18,4

# Testcase cp_rs1 (Test source rs1 = x31)
  RVTEST_TESTDATA_LOAD_INT(x17, x31) # load rs1: x31 = 0xe23ac5d0
     4c8:	0008af83          	lw	x31,0(x17)
     4cc:	00488893          	addi	x17,x17,4

000004d0 <I_addi_cg_cp_rs1_b31>:
I_addi_cg_cp_rs1_b31:
  addi x29, x31, -1719 # perform operation
     4d0:	949f8e93          	addi	x29,x31,-1719
  # Check if x29 contains the expected result. x18 is the signature ptr, x5 is the link ptr, x4 is a temp reg.
  RVTEST_SIGUPD(x18, x5, x4, x29, I_addi_cg_cp_rs1_b31, I_addi_cg_cp_rs1_b31_str)
     4d4:	00092203          	lw	x4,0(x18)
     4d8:	01d20863          	beq	x4,x29,4e8 <I_addi_cg_cp_rs1_b31+0x18>
     4dc:	7e1022ef          	jal	x5,34bc <failedtest_x5_x4>
     4e0:	000004d0          	.word	0x000004d0
     4e4:	00008c8d          	.word	0x00008c8d
     4e8:	00490913          	addi	x18,x18,4
/////////////////////////////////
// cp_rd
/////////////////////////////////

# Testcase cp_rd (Test destination rd = x0)
  RVTEST_TESTDATA_LOAD_INT(x17, x24) # load rs1: x24 = 0x08e9703f
     4ec:	0008ac03          	lw	x24,0(x17)
     4f0:	00488893          	addi	x17,x17,4

000004f4 <I_addi_cg_cp_rd_b0>:
I_addi_cg_cp_rd_b0:
  addi x0, x24, 489 # perform operation
     4f4:	1e9c0013          	addi	x0,x24,489
  # Check if x0 contains the expected result. x18 is the signature ptr, x5 is the link ptr, x4 is a temp reg.
  RVTEST_SIGUPD(x18, x5, x4, x0, I_addi_cg_cp_rd_b0, I_addi_cg_cp_rd_b0_str)
     4f8:	00092203          	lw	x4,0(x18)
     4fc:	00020863          	beq	x4,x0,50c <I_addi_cg_cp_rd_b0+0x18>
     500:	7bd022ef          	jal	x5,34bc <failedtest_x5_x4>
     504:	000004f4          	.word	0x000004f4
     508:	00008cbd          	.word	0x00008cbd
     50c:	00490913          	addi	x18,x18,4

# Testcase cp_rd (Test destination rd = x1)
  RVTEST_TESTDATA_LOAD_INT(x17, x19) # load rs1: x19 = 0xa322e604
     510:	0008a983          	lw	x19,0(x17)
     514:	00488893          	addi	x17,x17,4

00000518 <I_addi_cg_cp_rd_b1>:
I_addi_cg_cp_rd_b1:
  addi x1, x19, 1106 # perform operation
     518:	45298093          	addi	x1,x19,1106
  # Check if x1 contains the expected result. x18 is the signature ptr, x5 is the link ptr, x4 is a temp reg.
  RVTEST_SIGUPD(x18, x5, x4, x1, I_addi_cg_cp_rd_b1, I_addi_cg_cp_rd_b1_str)
     51c:	00092203          	lw	x4,0(x18)
     520:	00120863          	beq	x4,x1,530 <I_addi_cg_cp_rd_b1+0x18>
     524:	799022ef          	jal	x5,34bc <failedtest_x5_x4>
     528:	00000518          	.word	0x00000518
     52c:	00008ceb          	.word	0x00008ceb
     530:	00490913          	addi	x18,x18,4

# Testcase cp_rd (Test destination rd = x2)
  RVTEST_TESTDATA_LOAD_INT(x17, x1) # load rs1: x1 = 0x0be9d7a4
     534:	0008a083          	lw	x1,0(x17)
     538:	00488893          	addi	x17,x17,4

0000053c <I_addi_cg_cp_rd_b2>:
I_addi_cg_cp_rd_b2:
  addi x2, x1, -424 # perform operation
     53c:	e5808113          	addi	x2,x1,-424
  # Check if x2 contains the expected result. x18 is the signature ptr, x5 is the link ptr, x4 is a temp reg.
  RVTEST_SIGUPD(x18, x5, x4, x2, I_addi_cg_cp_rd_b2, I_addi_cg_cp_rd_b2_str)
     540:	00092203          	lw	x4,0(x18)
     544:	00220863          	beq	x4,x2,554 <I_addi_cg_cp_rd_b2+0x18>
     548:	775022ef          	jal	x5,34bc <failedtest_x5_x4>
     54c:	0000053c          	.word	0x0000053c
     550:	00008d19          	.word	0x00008d19
     554:	00490913          	addi	x18,x18,4

# Testcase cp_rd (Test destination rd = x3)
  RVTEST_TESTDATA_LOAD_INT(x17, x25) # load rs1: x25 = 0x3615b581
     558:	0008ac83          	lw	x25,0(x17)
     55c:	00488893          	addi	x17,x17,4

00000560 <I_addi_cg_cp_rd_b3>:
I_addi_cg_cp_rd_b3:
  addi x3, x25, 1269 # perform operation
     560:	4f5c8193          	addi	x3,x25,1269
  # Check if x3 contains the expected result. x18 is the signature ptr, x5 is the link ptr, x4 is a temp reg.
  RVTEST_SIGUPD(x18, x5, x4, x3, I_addi_cg_cp_rd_b3, I_addi_cg_cp_rd_b3_str)
     564:	00092203          	lw	x4,0(x18)
     568:	00320863          	beq	x4,x3,578 <I_addi_cg_cp_rd_b3+0x18>
     56c:	751022ef          	jal	x5,34bc <failedtest_x5_x4>
     570:	00000560          	.word	0x00000560
     574:	00008d47          	.word	0x00008d47
     578:	00490913          	addi	x18,x18,4

  mv x13, x4 # switch temp register to avoid conflict with test
     57c:	00020693          	addi	x13,x4,0 # 0 <rvtest_entry_point>
  mv x14, x5 # switch link pointer register to avoid conflict with test
     580:	00028713          	addi	x14,x5,0
# Testcase cp_rd (Test destination rd = x4)
  RVTEST_TESTDATA_LOAD_INT(x17, x0) # load rs1: x0 = 0xb4cf6b77
     584:	0008a003          	lw	x0,0(x17)
     588:	00488893          	addi	x17,x17,4

0000058c <I_addi_cg_cp_rd_b4>:
I_addi_cg_cp_rd_b4:
  addi x4, x0, -1543 # perform operation
     58c:	9f900213          	addi	x4,x0,-1543
  # Check if x4 contains the expected result. x18 is the signature ptr, x14 is the link ptr, x13 is a temp reg.
  RVTEST_SIGUPD(x18, x14, x13, x4, I_addi_cg_cp_rd_b4, I_addi_cg_cp_rd_b4_str)
     590:	00092683          	lw	x13,0(x18)
     594:	00468863          	beq	x13,x4,5a4 <I_addi_cg_cp_rd_b4+0x18>
     598:	7650276f          	jal	x14,34fc <failedtest_x14_x13>
     59c:	0000058c          	.word	0x0000058c
     5a0:	00008d75          	.word	0x00008d75
     5a4:	00490913          	addi	x18,x18,4

# Testcase cp_rd (Test destination rd = x5)
  RVTEST_TESTDATA_LOAD_INT(x17, x4) # load rs1: x4 = 0x3fef7926
     5a8:	0008a203          	lw	x4,0(x17)
     5ac:	00488893          	addi	x17,x17,4

000005b0 <I_addi_cg_cp_rd_b5>:
I_addi_cg_cp_rd_b5:
  addi x5, x4, -225 # perform operation
     5b0:	f1f20293          	addi	x5,x4,-225 # ffffff1f <absimm+0x90a35c16>
  # Check if x5 contains the expected result. x18 is the signature ptr, x14 is the link ptr, x13 is a temp reg.
  RVTEST_SIGUPD(x18, x14, x13, x5, I_addi_cg_cp_rd_b5, I_addi_cg_cp_rd_b5_str)
     5b4:	00092683          	lw	x13,0(x18)
     5b8:	00568863          	beq	x13,x5,5c8 <I_addi_cg_cp_rd_b5+0x18>
     5bc:	7410276f          	jal	x14,34fc <failedtest_x14_x13>
     5c0:	000005b0          	.word	0x000005b0
     5c4:	00008da3          	.word	0x00008da3
     5c8:	00490913          	addi	x18,x18,4

# Testcase cp_rd (Test destination rd = x6)
  RVTEST_TESTDATA_LOAD_INT(x17, x30) # load rs1: x30 = 0x332ceb48
     5cc:	0008af03          	lw	x30,0(x17)
     5d0:	00488893          	addi	x17,x17,4

000005d4 <I_addi_cg_cp_rd_b6>:
I_addi_cg_cp_rd_b6:
  addi x6, x30, 1705 # perform operation
     5d4:	6a9f0313          	addi	x6,x30,1705
  # Check if x6 contains the expected result. x18 is the signature ptr, x14 is the link ptr, x13 is a temp reg.
  RVTEST_SIGUPD(x18, x14, x13, x6, I_addi_cg_cp_rd_b6, I_addi_cg_cp_rd_b6_str)
     5d8:	00092683          	lw	x13,0(x18)
     5dc:	00668863          	beq	x13,x6,5ec <I_addi_cg_cp_rd_b6+0x18>
     5e0:	71d0276f          	jal	x14,34fc <failedtest_x14_x13>
     5e4:	000005d4          	.word	0x000005d4
     5e8:	00008dd1          	.word	0x00008dd1
     5ec:	00490913          	addi	x18,x18,4

# Testcase cp_rd (Test destination rd = x7)
  RVTEST_TESTDATA_LOAD_INT(x17, x20) # load rs1: x20 = 0x121cb7c0
     5f0:	0008aa03          	lw	x20,0(x17)
     5f4:	00488893          	addi	x17,x17,4

000005f8 <I_addi_cg_cp_rd_b7>:
I_addi_cg_cp_rd_b7:
  addi x7, x20, -608 # perform operation
     5f8:	da0a0393          	addi	x7,x20,-608
  # Check if x7 contains the expected result. x18 is the signature ptr, x14 is the link ptr, x13 is a temp reg.
  RVTEST_SIGUPD(x18, x14, x13, x7, I_addi_cg_cp_rd_b7, I_addi_cg_cp_rd_b7_str)
     5fc:	00092683          	lw	x13,0(x18)
     600:	00768863          	beq	x13,x7,610 <I_addi_cg_cp_rd_b7+0x18>
     604:	6f90276f          	jal	x14,34fc <failedtest_x14_x13>
     608:	000005f8          	.word	0x000005f8
     60c:	00008dff          	.word	0x00008dff
     610:	00490913          	addi	x18,x18,4

# Testcase cp_rd (Test destination rd = x8)
  RVTEST_TESTDATA_LOAD_INT(x17, x29) # load rs1: x29 = 0x1ea0faf3
     614:	0008ae83          	lw	x29,0(x17)
     618:	00488893          	addi	x17,x17,4

0000061c <I_addi_cg_cp_rd_b8>:
I_addi_cg_cp_rd_b8:
  addi x8, x29, 257 # perform operation
     61c:	101e8413          	addi	x8,x29,257
  # Check if x8 contains the expected result. x18 is the signature ptr, x14 is the link ptr, x13 is a temp reg.
  RVTEST_SIGUPD(x18, x14, x13, x8, I_addi_cg_cp_rd_b8, I_addi_cg_cp_rd_b8_str)
     620:	00092683          	lw	x13,0(x18)
     624:	00868863          	beq	x13,x8,634 <I_addi_cg_cp_rd_b8+0x18>
     628:	6d50276f          	jal	x14,34fc <failedtest_x14_x13>
     62c:	0000061c          	.word	0x0000061c
     630:	00008e2d          	.word	0x00008e2d
     634:	00490913          	addi	x18,x18,4

# Testcase cp_rd (Test destination rd = x9)
  RVTEST_TESTDATA_LOAD_INT(x17, x1) # load rs1: x1 = 0x204ac672
     638:	0008a083          	lw	x1,0(x17)
     63c:	00488893          	addi	x17,x17,4

00000640 <I_addi_cg_cp_rd_b9>:
I_addi_cg_cp_rd_b9:
  addi x9, x1, 227 # perform operation
     640:	0e308493          	addi	x9,x1,227
  # Check if x9 contains the expected result. x18 is the signature ptr, x14 is the link ptr, x13 is a temp reg.
  RVTEST_SIGUPD(x18, x14, x13, x9, I_addi_cg_cp_rd_b9, I_addi_cg_cp_rd_b9_str)
     644:	00092683          	lw	x13,0(x18)
     648:	00968863          	beq	x13,x9,658 <I_addi_cg_cp_rd_b9+0x18>
     64c:	6b10276f          	jal	x14,34fc <failedtest_x14_x13>
     650:	00000640          	.word	0x00000640
     654:	00008e5b          	.word	0x00008e5b
     658:	00490913          	addi	x18,x18,4

# Testcase cp_rd (Test destination rd = x10)
  RVTEST_TESTDATA_LOAD_INT(x17, x15) # load rs1: x15 = 0x52262a85
     65c:	0008a783          	lw	x15,0(x17)
     660:	00488893          	addi	x17,x17,4

00000664 <I_addi_cg_cp_rd_b10>:
I_addi_cg_cp_rd_b10:
  addi x10, x15, -1095 # perform operation
     664:	bb978513          	addi	x10,x15,-1095
  # Check if x10 contains the expected result. x18 is the signature ptr, x14 is the link ptr, x13 is a temp reg.
  RVTEST_SIGUPD(x18, x14, x13, x10, I_addi_cg_cp_rd_b10, I_addi_cg_cp_rd_b10_str)
     668:	00092683          	lw	x13,0(x18)
     66c:	00a68863          	beq	x13,x10,67c <I_addi_cg_cp_rd_b10+0x18>
     670:	68d0276f          	jal	x14,34fc <failedtest_x14_x13>
     674:	00000664          	.word	0x00000664
     678:	00008e89          	.word	0x00008e89
     67c:	00490913          	addi	x18,x18,4

# Testcase cp_rd (Test destination rd = x11)
  RVTEST_TESTDATA_LOAD_INT(x17, x16) # load rs1: x16 = 0xdff02d18
     680:	0008a803          	lw	x16,0(x17)
     684:	00488893          	addi	x17,x17,4

00000688 <I_addi_cg_cp_rd_b11>:
I_addi_cg_cp_rd_b11:
  addi x11, x16, -731 # perform operation
     688:	d2580593          	addi	x11,x16,-731
  # Check if x11 contains the expected result. x18 is the signature ptr, x14 is the link ptr, x13 is a temp reg.
  RVTEST_SIGUPD(x18, x14, x13, x11, I_addi_cg_cp_rd_b11, I_addi_cg_cp_rd_b11_str)
     68c:	00092683          	lw	x13,0(x18)
     690:	00b68863          	beq	x13,x11,6a0 <I_addi_cg_cp_rd_b11+0x18>
     694:	6690276f          	jal	x14,34fc <failedtest_x14_x13>
     698:	00000688          	.word	0x00000688
     69c:	00008eb8          	.word	0x00008eb8
     6a0:	00490913          	addi	x18,x18,4

# Testcase cp_rd (Test destination rd = x12)
  RVTEST_TESTDATA_LOAD_INT(x17, x30) # load rs1: x30 = 0x103cead2
     6a4:	0008af03          	lw	x30,0(x17)
     6a8:	00488893          	addi	x17,x17,4

000006ac <I_addi_cg_cp_rd_b12>:
I_addi_cg_cp_rd_b12:
  addi x12, x30, -1832 # perform operation
     6ac:	8d8f0613          	addi	x12,x30,-1832
  # Check if x12 contains the expected result. x18 is the signature ptr, x14 is the link ptr, x13 is a temp reg.
  RVTEST_SIGUPD(x18, x14, x13, x12, I_addi_cg_cp_rd_b12, I_addi_cg_cp_rd_b12_str)
     6b0:	00092683          	lw	x13,0(x18)
     6b4:	00c68863          	beq	x13,x12,6c4 <I_addi_cg_cp_rd_b12+0x18>
     6b8:	6450276f          	jal	x14,34fc <failedtest_x14_x13>
     6bc:	000006ac          	.word	0x000006ac
     6c0:	00008ee7          	.word	0x00008ee7
     6c4:	00490913          	addi	x18,x18,4

  mv x7, x13 # switch temp register to avoid conflict with test
     6c8:	00068393          	addi	x7,x13,0
  mv x8, x14 # switch link pointer register to avoid conflict with test
     6cc:	00070413          	addi	x8,x14,0
# Testcase cp_rd (Test destination rd = x13)
  RVTEST_TESTDATA_LOAD_INT(x17, x0) # load rs1: x0 = 0xcf8d8128
     6d0:	0008a003          	lw	x0,0(x17)
     6d4:	00488893          	addi	x17,x17,4

000006d8 <I_addi_cg_cp_rd_b13>:
I_addi_cg_cp_rd_b13:
  addi x13, x0, 1601 # perform operation
     6d8:	64100693          	addi	x13,x0,1601
  # Check if x13 contains the expected result. x18 is the signature ptr, x8 is the link ptr, x7 is a temp reg.
  RVTEST_SIGUPD(x18, x8, x7, x13, I_addi_cg_cp_rd_b13, I_addi_cg_cp_rd_b13_str)
     6dc:	00092383          	lw	x7,0(x18)
     6e0:	00d38863          	beq	x7,x13,6f0 <I_addi_cg_cp_rd_b13+0x18>
     6e4:	5f10246f          	jal	x8,34d4 <failedtest_x8_x7>
     6e8:	000006d8          	.word	0x000006d8
     6ec:	00008f16          	.word	0x00008f16
     6f0:	00490913          	addi	x18,x18,4

# Testcase cp_rd (Test destination rd = x14)
  RVTEST_TESTDATA_LOAD_INT(x17, x10) # load rs1: x10 = 0x10e841df
     6f4:	0008a503          	lw	x10,0(x17)
     6f8:	00488893          	addi	x17,x17,4

000006fc <I_addi_cg_cp_rd_b14>:
I_addi_cg_cp_rd_b14:
  addi x14, x10, -61 # perform operation
     6fc:	fc350713          	addi	x14,x10,-61
  # Check if x14 contains the expected result. x18 is the signature ptr, x8 is the link ptr, x7 is a temp reg.
  RVTEST_SIGUPD(x18, x8, x7, x14, I_addi_cg_cp_rd_b14, I_addi_cg_cp_rd_b14_str)
     700:	00092383          	lw	x7,0(x18)
     704:	00e38863          	beq	x7,x14,714 <I_addi_cg_cp_rd_b14+0x18>
     708:	5cd0246f          	jal	x8,34d4 <failedtest_x8_x7>
     70c:	000006fc          	.word	0x000006fc
     710:	00008f45          	.word	0x00008f45
     714:	00490913          	addi	x18,x18,4

# Testcase cp_rd (Test destination rd = x15)
  RVTEST_TESTDATA_LOAD_INT(x17, x25) # load rs1: x25 = 0x33d7c6a0
     718:	0008ac83          	lw	x25,0(x17)
     71c:	00488893          	addi	x17,x17,4

00000720 <I_addi_cg_cp_rd_b15>:
I_addi_cg_cp_rd_b15:
  addi x15, x25, 1961 # perform operation
     720:	7a9c8793          	addi	x15,x25,1961
  # Check if x15 contains the expected result. x18 is the signature ptr, x8 is the link ptr, x7 is a temp reg.
  RVTEST_SIGUPD(x18, x8, x7, x15, I_addi_cg_cp_rd_b15, I_addi_cg_cp_rd_b15_str)
     724:	00092383          	lw	x7,0(x18)
     728:	00f38863          	beq	x7,x15,738 <I_addi_cg_cp_rd_b15+0x18>
     72c:	5a90246f          	jal	x8,34d4 <failedtest_x8_x7>
     730:	00000720          	.word	0x00000720
     734:	00008f74          	.word	0x00008f74
     738:	00490913          	addi	x18,x18,4

# Testcase cp_rd (Test destination rd = x16)
  RVTEST_TESTDATA_LOAD_INT(x17, x23) # load rs1: x23 = 0x2202375e
     73c:	0008ab83          	lw	x23,0(x17)
     740:	00488893          	addi	x17,x17,4

00000744 <I_addi_cg_cp_rd_b16>:
I_addi_cg_cp_rd_b16:
  addi x16, x23, 76 # perform operation
     744:	04cb8813          	addi	x16,x23,76
  # Check if x16 contains the expected result. x18 is the signature ptr, x8 is the link ptr, x7 is a temp reg.
  RVTEST_SIGUPD(x18, x8, x7, x16, I_addi_cg_cp_rd_b16, I_addi_cg_cp_rd_b16_str)
     748:	00092383          	lw	x7,0(x18)
     74c:	01038863          	beq	x7,x16,75c <I_addi_cg_cp_rd_b16+0x18>
     750:	5850246f          	jal	x8,34d4 <failedtest_x8_x7>
     754:	00000744          	.word	0x00000744
     758:	00008fa3          	.word	0x00008fa3
     75c:	00490913          	addi	x18,x18,4

  mv x25, x17 # switch data pointer register to avoid conflict with test
     760:	00088c93          	addi	x25,x17,0
# Testcase cp_rd (Test destination rd = x17)
  RVTEST_TESTDATA_LOAD_INT(x25, x5) # load rs1: x5 = 0x9e4d9509
     764:	000ca283          	lw	x5,0(x25)
     768:	004c8c93          	addi	x25,x25,4

0000076c <I_addi_cg_cp_rd_b17>:
I_addi_cg_cp_rd_b17:
  addi x17, x5, -6 # perform operation
     76c:	ffa28893          	addi	x17,x5,-6
  # Check if x17 contains the expected result. x18 is the signature ptr, x8 is the link ptr, x7 is a temp reg.
  RVTEST_SIGUPD(x18, x8, x7, x17, I_addi_cg_cp_rd_b17, I_addi_cg_cp_rd_b17_str)
     770:	00092383          	lw	x7,0(x18)
     774:	01138863          	beq	x7,x17,784 <I_addi_cg_cp_rd_b17+0x18>
     778:	55d0246f          	jal	x8,34d4 <failedtest_x8_x7>
     77c:	0000076c          	.word	0x0000076c
     780:	00008fd2          	.word	0x00008fd2
     784:	00490913          	addi	x18,x18,4

  mv x26, x18 # switch signature pointer register to avoid conflict with test
     788:	00090d13          	addi	x26,x18,0
# Testcase cp_rd (Test destination rd = x18)
  RVTEST_TESTDATA_LOAD_INT(x25, x5) # load rs1: x5 = 0x4bc7c44d
     78c:	000ca283          	lw	x5,0(x25)
     790:	004c8c93          	addi	x25,x25,4

00000794 <I_addi_cg_cp_rd_b18>:
I_addi_cg_cp_rd_b18:
  addi x18, x5, 1484 # perform operation
     794:	5cc28913          	addi	x18,x5,1484
  # Check if x18 contains the expected result. x26 is the signature ptr, x8 is the link ptr, x7 is a temp reg.
  RVTEST_SIGUPD(x26, x8, x7, x18, I_addi_cg_cp_rd_b18, I_addi_cg_cp_rd_b18_str)
     798:	000d2383          	lw	x7,0(x26)
     79c:	01238863          	beq	x7,x18,7ac <I_addi_cg_cp_rd_b18+0x18>
     7a0:	5350246f          	jal	x8,34d4 <failedtest_x8_x7>
     7a4:	00000794          	.word	0x00000794
     7a8:	00009001          	.word	0x00009001
     7ac:	004d0d13          	addi	x26,x26,4

# Testcase cp_rd (Test destination rd = x19)
  RVTEST_TESTDATA_LOAD_INT(x25, x21) # load rs1: x21 = 0x3c295328
     7b0:	000caa83          	lw	x21,0(x25)
     7b4:	004c8c93          	addi	x25,x25,4

000007b8 <I_addi_cg_cp_rd_b19>:
I_addi_cg_cp_rd_b19:
  addi x19, x21, 472 # perform operation
     7b8:	1d8a8993          	addi	x19,x21,472
  # Check if x19 contains the expected result. x26 is the signature ptr, x8 is the link ptr, x7 is a temp reg.
  RVTEST_SIGUPD(x26, x8, x7, x19, I_addi_cg_cp_rd_b19, I_addi_cg_cp_rd_b19_str)
     7bc:	000d2383          	lw	x7,0(x26)
     7c0:	01338863          	beq	x7,x19,7d0 <I_addi_cg_cp_rd_b19+0x18>
     7c4:	5110246f          	jal	x8,34d4 <failedtest_x8_x7>
     7c8:	000007b8          	.word	0x000007b8
     7cc:	00009030          	.word	0x00009030
     7d0:	004d0d13          	addi	x26,x26,4

# Testcase cp_rd (Test destination rd = x20)
  RVTEST_TESTDATA_LOAD_INT(x25, x11) # load rs1: x11 = 0x3b1e3d77
     7d4:	000ca583          	lw	x11,0(x25)
     7d8:	004c8c93          	addi	x25,x25,4

000007dc <I_addi_cg_cp_rd_b20>:
I_addi_cg_cp_rd_b20:
  addi x20, x11, -1391 # perform operation
     7dc:	a9158a13          	addi	x20,x11,-1391
  # Check if x20 contains the expected result. x26 is the signature ptr, x8 is the link ptr, x7 is a temp reg.
  RVTEST_SIGUPD(x26, x8, x7, x20, I_addi_cg_cp_rd_b20, I_addi_cg_cp_rd_b20_str)
     7e0:	000d2383          	lw	x7,0(x26)
     7e4:	01438863          	beq	x7,x20,7f4 <I_addi_cg_cp_rd_b20+0x18>
     7e8:	4ed0246f          	jal	x8,34d4 <failedtest_x8_x7>
     7ec:	000007dc          	.word	0x000007dc
     7f0:	0000905f          	.word	0x0000905f
     7f4:	004d0d13          	addi	x26,x26,4

# Testcase cp_rd (Test destination rd = x21)
  RVTEST_TESTDATA_LOAD_INT(x25, x16) # load rs1: x16 = 0x597fda7b
     7f8:	000ca803          	lw	x16,0(x25)
     7fc:	004c8c93          	addi	x25,x25,4

00000800 <I_addi_cg_cp_rd_b21>:
I_addi_cg_cp_rd_b21:
  addi x21, x16, -1491 # perform operation
     800:	a2d80a93          	addi	x21,x16,-1491
  # Check if x21 contains the expected result. x26 is the signature ptr, x8 is the link ptr, x7 is a temp reg.
  RVTEST_SIGUPD(x26, x8, x7, x21, I_addi_cg_cp_rd_b21, I_addi_cg_cp_rd_b21_str)
     804:	000d2383          	lw	x7,0(x26)
     808:	01538863          	beq	x7,x21,818 <I_addi_cg_cp_rd_b21+0x18>
     80c:	4c90246f          	jal	x8,34d4 <failedtest_x8_x7>
     810:	00000800          	.word	0x00000800
     814:	0000908e          	.word	0x0000908e
     818:	004d0d13          	addi	x26,x26,4

# Testcase cp_rd (Test destination rd = x22)
  RVTEST_TESTDATA_LOAD_INT(x25, x31) # load rs1: x31 = 0x0af70b96
     81c:	000caf83          	lw	x31,0(x25)
     820:	004c8c93          	addi	x25,x25,4

00000824 <I_addi_cg_cp_rd_b22>:
I_addi_cg_cp_rd_b22:
  addi x22, x31, 12 # perform operation
     824:	00cf8b13          	addi	x22,x31,12
  # Check if x22 contains the expected result. x26 is the signature ptr, x8 is the link ptr, x7 is a temp reg.
  RVTEST_SIGUPD(x26, x8, x7, x22, I_addi_cg_cp_rd_b22, I_addi_cg_cp_rd_b22_str)
     828:	000d2383          	lw	x7,0(x26)
     82c:	01638863          	beq	x7,x22,83c <I_addi_cg_cp_rd_b22+0x18>
     830:	4a50246f          	jal	x8,34d4 <failedtest_x8_x7>
     834:	00000824          	.word	0x00000824
     838:	000090bd          	.word	0x000090bd
     83c:	004d0d13          	addi	x26,x26,4

# Testcase cp_rd (Test destination rd = x23)
  RVTEST_TESTDATA_LOAD_INT(x25, x6) # load rs1: x6 = 0x57ec10a2
     840:	000ca303          	lw	x6,0(x25)
     844:	004c8c93          	addi	x25,x25,4

00000848 <I_addi_cg_cp_rd_b23>:
I_addi_cg_cp_rd_b23:
  addi x23, x6, -943 # perform operation
     848:	c5130b93          	addi	x23,x6,-943
  # Check if x23 contains the expected result. x26 is the signature ptr, x8 is the link ptr, x7 is a temp reg.
  RVTEST_SIGUPD(x26, x8, x7, x23, I_addi_cg_cp_rd_b23, I_addi_cg_cp_rd_b23_str)
     84c:	000d2383          	lw	x7,0(x26)
     850:	01738863          	beq	x7,x23,860 <I_addi_cg_cp_rd_b23+0x18>
     854:	4810246f          	jal	x8,34d4 <failedtest_x8_x7>
     858:	00000848          	.word	0x00000848
     85c:	000090ec          	.word	0x000090ec
     860:	004d0d13          	addi	x26,x26,4

# Testcase cp_rd (Test destination rd = x24)
  RVTEST_TESTDATA_LOAD_INT(x25, x23) # load rs1: x23 = 0x8e598415
     864:	000cab83          	lw	x23,0(x25)
     868:	004c8c93          	addi	x25,x25,4

0000086c <I_addi_cg_cp_rd_b24>:
I_addi_cg_cp_rd_b24:
  addi x24, x23, 975 # perform operation
     86c:	3cfb8c13          	addi	x24,x23,975
  # Check if x24 contains the expected result. x26 is the signature ptr, x8 is the link ptr, x7 is a temp reg.
  RVTEST_SIGUPD(x26, x8, x7, x24, I_addi_cg_cp_rd_b24, I_addi_cg_cp_rd_b24_str)
     870:	000d2383          	lw	x7,0(x26)
     874:	01838863          	beq	x7,x24,884 <I_addi_cg_cp_rd_b24+0x18>
     878:	45d0246f          	jal	x8,34d4 <failedtest_x8_x7>
     87c:	0000086c          	.word	0x0000086c
     880:	0000911b          	.word	0x0000911b
     884:	004d0d13          	addi	x26,x26,4

  mv x31, x25 # switch data pointer register to avoid conflict with test
     888:	000c8f93          	addi	x31,x25,0
# Testcase cp_rd (Test destination rd = x25)
  RVTEST_TESTDATA_LOAD_INT(x31, x9) # load rs1: x9 = 0xbbf1993a
     88c:	000fa483          	lw	x9,0(x31)
     890:	004f8f93          	addi	x31,x31,4

00000894 <I_addi_cg_cp_rd_b25>:
I_addi_cg_cp_rd_b25:
  addi x25, x9, 1638 # perform operation
     894:	66648c93          	addi	x25,x9,1638
  # Check if x25 contains the expected result. x26 is the signature ptr, x8 is the link ptr, x7 is a temp reg.
  RVTEST_SIGUPD(x26, x8, x7, x25, I_addi_cg_cp_rd_b25, I_addi_cg_cp_rd_b25_str)
     898:	000d2383          	lw	x7,0(x26)
     89c:	01938863          	beq	x7,x25,8ac <I_addi_cg_cp_rd_b25+0x18>
     8a0:	4350246f          	jal	x8,34d4 <failedtest_x8_x7>
     8a4:	00000894          	.word	0x00000894
     8a8:	0000914a          	.word	0x0000914a
     8ac:	004d0d13          	addi	x26,x26,4

  mv x9, x26 # switch signature pointer register to avoid conflict with test
     8b0:	000d0493          	addi	x9,x26,0
# Testcase cp_rd (Test destination rd = x26)
  RVTEST_TESTDATA_LOAD_INT(x31, x25) # load rs1: x25 = 0xa90d1f3b
     8b4:	000fac83          	lw	x25,0(x31)
     8b8:	004f8f93          	addi	x31,x31,4

000008bc <I_addi_cg_cp_rd_b26>:
I_addi_cg_cp_rd_b26:
  addi x26, x25, 1429 # perform operation
     8bc:	595c8d13          	addi	x26,x25,1429
  # Check if x26 contains the expected result. x9 is the signature ptr, x8 is the link ptr, x7 is a temp reg.
  RVTEST_SIGUPD(x9, x8, x7, x26, I_addi_cg_cp_rd_b26, I_addi_cg_cp_rd_b26_str)
     8c0:	0004a383          	lw	x7,0(x9)
     8c4:	01a38863          	beq	x7,x26,8d4 <I_addi_cg_cp_rd_b26+0x18>
     8c8:	40d0246f          	jal	x8,34d4 <failedtest_x8_x7>
     8cc:	000008bc          	.word	0x000008bc
     8d0:	00009179          	.word	0x00009179
     8d4:	00448493          	addi	x9,x9,4

# Testcase cp_rd (Test destination rd = x27)
  RVTEST_TESTDATA_LOAD_INT(x31, x14) # load rs1: x14 = 0xf965234d
     8d8:	000fa703          	lw	x14,0(x31)
     8dc:	004f8f93          	addi	x31,x31,4

000008e0 <I_addi_cg_cp_rd_b27>:
I_addi_cg_cp_rd_b27:
  addi x27, x14, 347 # perform operation
     8e0:	15b70d93          	addi	x27,x14,347
  # Check if x27 contains the expected result. x9 is the signature ptr, x8 is the link ptr, x7 is a temp reg.
  RVTEST_SIGUPD(x9, x8, x7, x27, I_addi_cg_cp_rd_b27, I_addi_cg_cp_rd_b27_str)
     8e4:	0004a383          	lw	x7,0(x9)
     8e8:	01b38863          	beq	x7,x27,8f8 <I_addi_cg_cp_rd_b27+0x18>
     8ec:	3e90246f          	jal	x8,34d4 <failedtest_x8_x7>
     8f0:	000008e0          	.word	0x000008e0
     8f4:	000091a8          	.word	0x000091a8
     8f8:	00448493          	addi	x9,x9,4

# Testcase cp_rd (Test destination rd = x28)
  RVTEST_TESTDATA_LOAD_INT(x31, x11) # load rs1: x11 = 0xc038f94c
     8fc:	000fa583          	lw	x11,0(x31)
     900:	004f8f93          	addi	x31,x31,4

00000904 <I_addi_cg_cp_rd_b28>:
I_addi_cg_cp_rd_b28:
  addi x28, x11, 214 # perform operation
     904:	0d658e13          	addi	x28,x11,214
  # Check if x28 contains the expected result. x9 is the signature ptr, x8 is the link ptr, x7 is a temp reg.
  RVTEST_SIGUPD(x9, x8, x7, x28, I_addi_cg_cp_rd_b28, I_addi_cg_cp_rd_b28_str)
     908:	0004a383          	lw	x7,0(x9)
     90c:	01c38863          	beq	x7,x28,91c <I_addi_cg_cp_rd_b28+0x18>
     910:	3c50246f          	jal	x8,34d4 <failedtest_x8_x7>
     914:	00000904          	.word	0x00000904
     918:	000091d7          	.word	0x000091d7
     91c:	00448493          	addi	x9,x9,4

# Testcase cp_rd (Test destination rd = x29)
  RVTEST_TESTDATA_LOAD_INT(x31, x12) # load rs1: x12 = 0x607ef173
     920:	000fa603          	lw	x12,0(x31)
     924:	004f8f93          	addi	x31,x31,4

00000928 <I_addi_cg_cp_rd_b29>:
I_addi_cg_cp_rd_b29:
  addi x29, x12, 682 # perform operation
     928:	2aa60e93          	addi	x29,x12,682
  # Check if x29 contains the expected result. x9 is the signature ptr, x8 is the link ptr, x7 is a temp reg.
  RVTEST_SIGUPD(x9, x8, x7, x29, I_addi_cg_cp_rd_b29, I_addi_cg_cp_rd_b29_str)
     92c:	0004a383          	lw	x7,0(x9)
     930:	01d38863          	beq	x7,x29,940 <I_addi_cg_cp_rd_b29+0x18>
     934:	3a10246f          	jal	x8,34d4 <failedtest_x8_x7>
     938:	00000928          	.word	0x00000928
     93c:	00009206          	.word	0x00009206
     940:	00448493          	addi	x9,x9,4

# Testcase cp_rd (Test destination rd = x30)
  RVTEST_TESTDATA_LOAD_INT(x31, x24) # load rs1: x24 = 0xc0581916
     944:	000fac03          	lw	x24,0(x31)
     948:	004f8f93          	addi	x31,x31,4

0000094c <I_addi_cg_cp_rd_b30>:
I_addi_cg_cp_rd_b30:
  addi x30, x24, 157 # perform operation
     94c:	09dc0f13          	addi	x30,x24,157
  # Check if x30 contains the expected result. x9 is the signature ptr, x8 is the link ptr, x7 is a temp reg.
  RVTEST_SIGUPD(x9, x8, x7, x30, I_addi_cg_cp_rd_b30, I_addi_cg_cp_rd_b30_str)
     950:	0004a383          	lw	x7,0(x9)
     954:	01e38863          	beq	x7,x30,964 <I_addi_cg_cp_rd_b30+0x18>
     958:	37d0246f          	jal	x8,34d4 <failedtest_x8_x7>
     95c:	0000094c          	.word	0x0000094c
     960:	00009235          	.word	0x00009235
     964:	00448493          	addi	x9,x9,4

  mv x19, x31 # switch data pointer register to avoid conflict with test
     968:	000f8993          	addi	x19,x31,0
# Testcase cp_rd (Test destination rd = x31)
  RVTEST_TESTDATA_LOAD_INT(x19, x15) # load rs1: x15 = 0xada0ddd0
     96c:	0009a783          	lw	x15,0(x19)
     970:	00498993          	addi	x19,x19,4

00000974 <I_addi_cg_cp_rd_b31>:
I_addi_cg_cp_rd_b31:
  addi x31, x15, -1014 # perform operation
     974:	c0a78f93          	addi	x31,x15,-1014
  # Check if x31 contains the expected result. x9 is the signature ptr, x8 is the link ptr, x7 is a temp reg.
  RVTEST_SIGUPD(x9, x8, x7, x31, I_addi_cg_cp_rd_b31, I_addi_cg_cp_rd_b31_str)
     978:	0004a383          	lw	x7,0(x9)
     97c:	01f38863          	beq	x7,x31,98c <I_addi_cg_cp_rd_b31+0x18>
     980:	3550246f          	jal	x8,34d4 <failedtest_x8_x7>
     984:	00000974          	.word	0x00000974
     988:	00009264          	.word	0x00009264
     98c:	00448493          	addi	x9,x9,4
/////////////////////////////////
// cp_rs1_edges
/////////////////////////////////

# Testcase cp_rs1_edges (Test source rs1 value = 0x00000000)
  RVTEST_TESTDATA_LOAD_INT(x19, x16) # load rs1: x16 = 0x00000000
     990:	0009a803          	lw	x16,0(x19)
     994:	00498993          	addi	x19,x19,4

00000998 <I_addi_cg_cp_rs1_edges_0x0>:
I_addi_cg_cp_rs1_edges_0x0:
  addi x13, x16, 209 # perform operation
     998:	0d180693          	addi	x13,x16,209
  # Check if x13 contains the expected result. x9 is the signature ptr, x8 is the link ptr, x7 is a temp reg.
  RVTEST_SIGUPD(x9, x8, x7, x13, I_addi_cg_cp_rs1_edges_0x0, I_addi_cg_cp_rs1_edges_0x0_str)
     99c:	0004a383          	lw	x7,0(x9)
     9a0:	00d38863          	beq	x7,x13,9b0 <I_addi_cg_cp_rs1_edges_0x0+0x18>
     9a4:	3310246f          	jal	x8,34d4 <failedtest_x8_x7>
     9a8:	00000998          	.word	0x00000998
     9ac:	00009293          	.word	0x00009293
     9b0:	00448493          	addi	x9,x9,4

# Testcase cp_rs1_edges (Test source rs1 value = 0x00000001)
  RVTEST_TESTDATA_LOAD_INT(x19, x1) # load rs1: x1 = 0x00000001
     9b4:	0009a083          	lw	x1,0(x19)
     9b8:	00498993          	addi	x19,x19,4

000009bc <I_addi_cg_cp_rs1_edges_0x1>:
I_addi_cg_cp_rs1_edges_0x1:
  addi x3, x1, 1070 # perform operation
     9bc:	42e08193          	addi	x3,x1,1070
  # Check if x3 contains the expected result. x9 is the signature ptr, x8 is the link ptr, x7 is a temp reg.
  RVTEST_SIGUPD(x9, x8, x7, x3, I_addi_cg_cp_rs1_edges_0x1, I_addi_cg_cp_rs1_edges_0x1_str)
     9c0:	0004a383          	lw	x7,0(x9)
     9c4:	00338863          	beq	x7,x3,9d4 <I_addi_cg_cp_rs1_edges_0x1+0x18>
     9c8:	30d0246f          	jal	x8,34d4 <failedtest_x8_x7>
     9cc:	000009bc          	.word	0x000009bc
     9d0:	000092c9          	.word	0x000092c9
     9d4:	00448493          	addi	x9,x9,4

# Testcase cp_rs1_edges (Test source rs1 value = 0x00000002)
  RVTEST_TESTDATA_LOAD_INT(x19, x28) # load rs1: x28 = 0x00000002
     9d8:	0009ae03          	lw	x28,0(x19)
     9dc:	00498993          	addi	x19,x19,4

000009e0 <I_addi_cg_cp_rs1_edges_0x2>:
I_addi_cg_cp_rs1_edges_0x2:
  addi x2, x28, -201 # perform operation
     9e0:	f37e0113          	addi	x2,x28,-201
  # Check if x2 contains the expected result. x9 is the signature ptr, x8 is the link ptr, x7 is a temp reg.
  RVTEST_SIGUPD(x9, x8, x7, x2, I_addi_cg_cp_rs1_edges_0x2, I_addi_cg_cp_rs1_edges_0x2_str)
     9e4:	0004a383          	lw	x7,0(x9)
     9e8:	00238863          	beq	x7,x2,9f8 <I_addi_cg_cp_rs1_edges_0x2+0x18>
     9ec:	2e90246f          	jal	x8,34d4 <failedtest_x8_x7>
     9f0:	000009e0          	.word	0x000009e0
     9f4:	000092ff          	.word	0x000092ff
     9f8:	00448493          	addi	x9,x9,4

# Testcase cp_rs1_edges (Test source rs1 value = 0x80000000)
  RVTEST_TESTDATA_LOAD_INT(x19, x20) # load rs1: x20 = 0x80000000
     9fc:	0009aa03          	lw	x20,0(x19)
     a00:	00498993          	addi	x19,x19,4

00000a04 <I_addi_cg_cp_rs1_edges_0x80000000>:
I_addi_cg_cp_rs1_edges_0x80000000:
  addi x23, x20, -117 # perform operation
     a04:	f8ba0b93          	addi	x23,x20,-117
  # Check if x23 contains the expected result. x9 is the signature ptr, x8 is the link ptr, x7 is a temp reg.
  RVTEST_SIGUPD(x9, x8, x7, x23, I_addi_cg_cp_rs1_edges_0x80000000, I_addi_cg_cp_rs1_edges_0x80000000_str)
     a08:	0004a383          	lw	x7,0(x9)
     a0c:	01738863          	beq	x7,x23,a1c <I_addi_cg_cp_rs1_edges_0x80000000+0x18>
     a10:	2c50246f          	jal	x8,34d4 <failedtest_x8_x7>
     a14:	00000a04          	.word	0x00000a04
     a18:	00009335          	.word	0x00009335
     a1c:	00448493          	addi	x9,x9,4

# Testcase cp_rs1_edges (Test source rs1 value = 0x80000001)
  RVTEST_TESTDATA_LOAD_INT(x19, x10) # load rs1: x10 = 0x80000001
     a20:	0009a503          	lw	x10,0(x19)
     a24:	00498993          	addi	x19,x19,4

00000a28 <I_addi_cg_cp_rs1_edges_0x80000001>:
I_addi_cg_cp_rs1_edges_0x80000001:
  addi x15, x10, 230 # perform operation
     a28:	0e650793          	addi	x15,x10,230
  # Check if x15 contains the expected result. x9 is the signature ptr, x8 is the link ptr, x7 is a temp reg.
  RVTEST_SIGUPD(x9, x8, x7, x15, I_addi_cg_cp_rs1_edges_0x80000001, I_addi_cg_cp_rs1_edges_0x80000001_str)
     a2c:	0004a383          	lw	x7,0(x9)
     a30:	00f38863          	beq	x7,x15,a40 <I_addi_cg_cp_rs1_edges_0x80000001+0x18>
     a34:	2a10246f          	jal	x8,34d4 <failedtest_x8_x7>
     a38:	00000a28          	.word	0x00000a28
     a3c:	00009372          	.word	0x00009372
     a40:	00448493          	addi	x9,x9,4

# Testcase cp_rs1_edges (Test source rs1 value = 0x7fffffff)
  RVTEST_TESTDATA_LOAD_INT(x19, x30) # load rs1: x30 = 0x7fffffff
     a44:	0009af03          	lw	x30,0(x19)
     a48:	00498993          	addi	x19,x19,4

00000a4c <I_addi_cg_cp_rs1_edges_0x7fffffff>:
I_addi_cg_cp_rs1_edges_0x7fffffff:
  addi x25, x30, 963 # perform operation
     a4c:	3c3f0c93          	addi	x25,x30,963
  # Check if x25 contains the expected result. x9 is the signature ptr, x8 is the link ptr, x7 is a temp reg.
  RVTEST_SIGUPD(x9, x8, x7, x25, I_addi_cg_cp_rs1_edges_0x7fffffff, I_addi_cg_cp_rs1_edges_0x7fffffff_str)
     a50:	0004a383          	lw	x7,0(x9)
     a54:	01938863          	beq	x7,x25,a64 <I_addi_cg_cp_rs1_edges_0x7fffffff+0x18>
     a58:	27d0246f          	jal	x8,34d4 <failedtest_x8_x7>
     a5c:	00000a4c          	.word	0x00000a4c
     a60:	000093af          	.word	0x000093af
     a64:	00448493          	addi	x9,x9,4

# Testcase cp_rs1_edges (Test source rs1 value = 0x7ffffffe)
  RVTEST_TESTDATA_LOAD_INT(x19, x24) # load rs1: x24 = 0x7ffffffe
     a68:	0009ac03          	lw	x24,0(x19)
     a6c:	00498993          	addi	x19,x19,4

00000a70 <I_addi_cg_cp_rs1_edges_0x7ffffffe>:
I_addi_cg_cp_rs1_edges_0x7ffffffe:
  addi x23, x24, 1599 # perform operation
     a70:	63fc0b93          	addi	x23,x24,1599
  # Check if x23 contains the expected result. x9 is the signature ptr, x8 is the link ptr, x7 is a temp reg.
  RVTEST_SIGUPD(x9, x8, x7, x23, I_addi_cg_cp_rs1_edges_0x7ffffffe, I_addi_cg_cp_rs1_edges_0x7ffffffe_str)
     a74:	0004a383          	lw	x7,0(x9)
     a78:	01738863          	beq	x7,x23,a88 <I_addi_cg_cp_rs1_edges_0x7ffffffe+0x18>
     a7c:	2590246f          	jal	x8,34d4 <failedtest_x8_x7>
     a80:	00000a70          	.word	0x00000a70
     a84:	000093ec          	.word	0x000093ec
     a88:	00448493          	addi	x9,x9,4

# Testcase cp_rs1_edges (Test source rs1 value = 0xffffffff)
  RVTEST_TESTDATA_LOAD_INT(x19, x15) # load rs1: x15 = 0xffffffff
     a8c:	0009a783          	lw	x15,0(x19)
     a90:	00498993          	addi	x19,x19,4

00000a94 <I_addi_cg_cp_rs1_edges_0xffffffff>:
I_addi_cg_cp_rs1_edges_0xffffffff:
  addi x31, x15, -817 # perform operation
     a94:	ccf78f93          	addi	x31,x15,-817
  # Check if x31 contains the expected result. x9 is the signature ptr, x8 is the link ptr, x7 is a temp reg.
  RVTEST_SIGUPD(x9, x8, x7, x31, I_addi_cg_cp_rs1_edges_0xffffffff, I_addi_cg_cp_rs1_edges_0xffffffff_str)
     a98:	0004a383          	lw	x7,0(x9)
     a9c:	01f38863          	beq	x7,x31,aac <I_addi_cg_cp_rs1_edges_0xffffffff+0x18>
     aa0:	2350246f          	jal	x8,34d4 <failedtest_x8_x7>
     aa4:	00000a94          	.word	0x00000a94
     aa8:	00009429          	.word	0x00009429
     aac:	00448493          	addi	x9,x9,4

# Testcase cp_rs1_edges (Test source rs1 value = 0xfffffffe)
  RVTEST_TESTDATA_LOAD_INT(x19, x12) # load rs1: x12 = 0xfffffffe
     ab0:	0009a603          	lw	x12,0(x19)
     ab4:	00498993          	addi	x19,x19,4

00000ab8 <I_addi_cg_cp_rs1_edges_0xfffffffe>:
I_addi_cg_cp_rs1_edges_0xfffffffe:
  addi x17, x12, -2027 # perform operation
     ab8:	81560893          	addi	x17,x12,-2027
  # Check if x17 contains the expected result. x9 is the signature ptr, x8 is the link ptr, x7 is a temp reg.
  RVTEST_SIGUPD(x9, x8, x7, x17, I_addi_cg_cp_rs1_edges_0xfffffffe, I_addi_cg_cp_rs1_edges_0xfffffffe_str)
     abc:	0004a383          	lw	x7,0(x9)
     ac0:	01138863          	beq	x7,x17,ad0 <I_addi_cg_cp_rs1_edges_0xfffffffe+0x18>
     ac4:	2110246f          	jal	x8,34d4 <failedtest_x8_x7>
     ac8:	00000ab8          	.word	0x00000ab8
     acc:	00009466          	.word	0x00009466
     ad0:	00448493          	addi	x9,x9,4

# Testcase cp_rs1_edges (Test source rs1 value = 0x5bbc8872)
  RVTEST_TESTDATA_LOAD_INT(x19, x23) # load rs1: x23 = 0x5bbc8872
     ad4:	0009ab83          	lw	x23,0(x19)
     ad8:	00498993          	addi	x19,x19,4

00000adc <I_addi_cg_cp_rs1_edges_0x5bbc8872>:
I_addi_cg_cp_rs1_edges_0x5bbc8872:
  addi x29, x23, -1891 # perform operation
     adc:	89db8e93          	addi	x29,x23,-1891
  # Check if x29 contains the expected result. x9 is the signature ptr, x8 is the link ptr, x7 is a temp reg.
  RVTEST_SIGUPD(x9, x8, x7, x29, I_addi_cg_cp_rs1_edges_0x5bbc8872, I_addi_cg_cp_rs1_edges_0x5bbc8872_str)
     ae0:	0004a383          	lw	x7,0(x9)
     ae4:	01d38863          	beq	x7,x29,af4 <I_addi_cg_cp_rs1_edges_0x5bbc8872+0x18>
     ae8:	1ed0246f          	jal	x8,34d4 <failedtest_x8_x7>
     aec:	00000adc          	.word	0x00000adc
     af0:	000094a3          	.word	0x000094a3
     af4:	00448493          	addi	x9,x9,4

# Testcase cp_rs1_edges (Test source rs1 value = 0xaaaaaaaa)
  RVTEST_TESTDATA_LOAD_INT(x19, x3) # load rs1: x3 = 0xaaaaaaaa
     af8:	0009a183          	lw	x3,0(x19)
     afc:	00498993          	addi	x19,x19,4

00000b00 <I_addi_cg_cp_rs1_edges_0xaaaaaaaa>:
I_addi_cg_cp_rs1_edges_0xaaaaaaaa:
  addi x10, x3, 222 # perform operation
     b00:	0de18513          	addi	x10,x3,222
  # Check if x10 contains the expected result. x9 is the signature ptr, x8 is the link ptr, x7 is a temp reg.
  RVTEST_SIGUPD(x9, x8, x7, x10, I_addi_cg_cp_rs1_edges_0xaaaaaaaa, I_addi_cg_cp_rs1_edges_0xaaaaaaaa_str)
     b04:	0004a383          	lw	x7,0(x9)
     b08:	00a38863          	beq	x7,x10,b18 <I_addi_cg_cp_rs1_edges_0xaaaaaaaa+0x18>
     b0c:	1c90246f          	jal	x8,34d4 <failedtest_x8_x7>
     b10:	00000b00          	.word	0x00000b00
     b14:	000094e0          	.word	0x000094e0
     b18:	00448493          	addi	x9,x9,4

# Testcase cp_rs1_edges (Test source rs1 value = 0x55555555)
  RVTEST_TESTDATA_LOAD_INT(x19, x29) # load rs1: x29 = 0x55555555
     b1c:	0009ae83          	lw	x29,0(x19)
     b20:	00498993          	addi	x19,x19,4

00000b24 <I_addi_cg_cp_rs1_edges_0x55555555>:
I_addi_cg_cp_rs1_edges_0x55555555:
  addi x1, x29, -444 # perform operation
     b24:	e44e8093          	addi	x1,x29,-444
  # Check if x1 contains the expected result. x9 is the signature ptr, x8 is the link ptr, x7 is a temp reg.
  RVTEST_SIGUPD(x9, x8, x7, x1, I_addi_cg_cp_rs1_edges_0x55555555, I_addi_cg_cp_rs1_edges_0x55555555_str)
     b28:	0004a383          	lw	x7,0(x9)
     b2c:	00138863          	beq	x7,x1,b3c <I_addi_cg_cp_rs1_edges_0x55555555+0x18>
     b30:	1a50246f          	jal	x8,34d4 <failedtest_x8_x7>
     b34:	00000b24          	.word	0x00000b24
     b38:	0000951d          	.word	0x0000951d
     b3c:	00448493          	addi	x9,x9,4
/////////////////////////////////
// cr_rs1_imm_edges
/////////////////////////////////

# Testcase cr_rs1_imm_edges (rs1 = 0x00000000, imm = 0)
  RVTEST_TESTDATA_LOAD_INT(x19, x16) # load rs1: x16 = 0x00000000
     b40:	0009a803          	lw	x16,0(x19)
     b44:	00498993          	addi	x19,x19,4

00000b48 <I_addi_cg_cr_rs1_imm_edges_rs1val_0x0_immval_0x0>:
I_addi_cg_cr_rs1_imm_edges_rs1val_0x0_immval_0x0:
  addi x6, x16, 0 # perform operation
     b48:	00080313          	addi	x6,x16,0
  # Check if x6 contains the expected result. x9 is the signature ptr, x8 is the link ptr, x7 is a temp reg.
  RVTEST_SIGUPD(x9, x8, x7, x6, I_addi_cg_cr_rs1_imm_edges_rs1val_0x0_immval_0x0, I_addi_cg_cr_rs1_imm_edges_rs1val_0x0_immval_0x0_str)
     b4c:	0004a383          	lw	x7,0(x9)
     b50:	00638863          	beq	x7,x6,b60 <I_addi_cg_cr_rs1_imm_edges_rs1val_0x0_immval_0x0+0x18>
     b54:	1810246f          	jal	x8,34d4 <failedtest_x8_x7>
     b58:	00000b48          	.word	0x00000b48
     b5c:	0000955a          	.word	0x0000955a
     b60:	00448493          	addi	x9,x9,4

# Testcase cr_rs1_imm_edges (rs1 = 0x00000000, imm = 1)
  RVTEST_TESTDATA_LOAD_INT(x19, x29) # load rs1: x29 = 0x00000000
     b64:	0009ae83          	lw	x29,0(x19)
     b68:	00498993          	addi	x19,x19,4

00000b6c <I_addi_cg_cr_rs1_imm_edges_rs1val_0x0_immval_0x1>:
I_addi_cg_cr_rs1_imm_edges_rs1val_0x0_immval_0x1:
  addi x10, x29, 1 # perform operation
     b6c:	001e8513          	addi	x10,x29,1
  # Check if x10 contains the expected result. x9 is the signature ptr, x8 is the link ptr, x7 is a temp reg.
  RVTEST_SIGUPD(x9, x8, x7, x10, I_addi_cg_cr_rs1_imm_edges_rs1val_0x0_immval_0x1, I_addi_cg_cr_rs1_imm_edges_rs1val_0x0_immval_0x1_str)
     b70:	0004a383          	lw	x7,0(x9)
     b74:	00a38863          	beq	x7,x10,b84 <I_addi_cg_cr_rs1_imm_edges_rs1val_0x0_immval_0x1+0x18>
     b78:	15d0246f          	jal	x8,34d4 <failedtest_x8_x7>
     b7c:	00000b6c          	.word	0x00000b6c
     b80:	000095a7          	.word	0x000095a7
     b84:	00448493          	addi	x9,x9,4

# Testcase cr_rs1_imm_edges (rs1 = 0x00000000, imm = 2)
  RVTEST_TESTDATA_LOAD_INT(x19, x30) # load rs1: x30 = 0x00000000
     b88:	0009af03          	lw	x30,0(x19)
     b8c:	00498993          	addi	x19,x19,4

00000b90 <I_addi_cg_cr_rs1_imm_edges_rs1val_0x0_immval_0x2>:
I_addi_cg_cr_rs1_imm_edges_rs1val_0x0_immval_0x2:
  addi x2, x30, 2 # perform operation
     b90:	002f0113          	addi	x2,x30,2
  # Check if x2 contains the expected result. x9 is the signature ptr, x8 is the link ptr, x7 is a temp reg.
  RVTEST_SIGUPD(x9, x8, x7, x2, I_addi_cg_cr_rs1_imm_edges_rs1val_0x0_immval_0x2, I_addi_cg_cr_rs1_imm_edges_rs1val_0x0_immval_0x2_str)
     b94:	0004a383          	lw	x7,0(x9)
     b98:	00238863          	beq	x7,x2,ba8 <I_addi_cg_cr_rs1_imm_edges_rs1val_0x0_immval_0x2+0x18>
     b9c:	1390246f          	jal	x8,34d4 <failedtest_x8_x7>
     ba0:	00000b90          	.word	0x00000b90
     ba4:	000095f4          	.word	0x000095f4
     ba8:	00448493          	addi	x9,x9,4

# Testcase cr_rs1_imm_edges (rs1 = 0x00000000, imm = 3)
  RVTEST_TESTDATA_LOAD_INT(x19, x21) # load rs1: x21 = 0x00000000
     bac:	0009aa83          	lw	x21,0(x19)
     bb0:	00498993          	addi	x19,x19,4

00000bb4 <I_addi_cg_cr_rs1_imm_edges_rs1val_0x0_immval_0x3>:
I_addi_cg_cr_rs1_imm_edges_rs1val_0x0_immval_0x3:
  addi x4, x21, 3 # perform operation
     bb4:	003a8213          	addi	x4,x21,3
  # Check if x4 contains the expected result. x9 is the signature ptr, x8 is the link ptr, x7 is a temp reg.
  RVTEST_SIGUPD(x9, x8, x7, x4, I_addi_cg_cr_rs1_imm_edges_rs1val_0x0_immval_0x3, I_addi_cg_cr_rs1_imm_edges_rs1val_0x0_immval_0x3_str)
     bb8:	0004a383          	lw	x7,0(x9)
     bbc:	00438863          	beq	x7,x4,bcc <I_addi_cg_cr_rs1_imm_edges_rs1val_0x0_immval_0x3+0x18>
     bc0:	1150246f          	jal	x8,34d4 <failedtest_x8_x7>
     bc4:	00000bb4          	.word	0x00000bb4
     bc8:	00009641          	.word	0x00009641
     bcc:	00448493          	addi	x9,x9,4

# Testcase cr_rs1_imm_edges (rs1 = 0x00000000, imm = 4)
  RVTEST_TESTDATA_LOAD_INT(x19, x23) # load rs1: x23 = 0x00000000
     bd0:	0009ab83          	lw	x23,0(x19)
     bd4:	00498993          	addi	x19,x19,4

00000bd8 <I_addi_cg_cr_rs1_imm_edges_rs1val_0x0_immval_0x4>:
I_addi_cg_cr_rs1_imm_edges_rs1val_0x0_immval_0x4:
  addi x1, x23, 4 # perform operation
     bd8:	004b8093          	addi	x1,x23,4
  # Check if x1 contains the expected result. x9 is the signature ptr, x8 is the link ptr, x7 is a temp reg.
  RVTEST_SIGUPD(x9, x8, x7, x1, I_addi_cg_cr_rs1_imm_edges_rs1val_0x0_immval_0x4, I_addi_cg_cr_rs1_imm_edges_rs1val_0x0_immval_0x4_str)
     bdc:	0004a383          	lw	x7,0(x9)
     be0:	00138863          	beq	x7,x1,bf0 <I_addi_cg_cr_rs1_imm_edges_rs1val_0x0_immval_0x4+0x18>
     be4:	0f10246f          	jal	x8,34d4 <failedtest_x8_x7>
     be8:	00000bd8          	.word	0x00000bd8
     bec:	0000968e          	.word	0x0000968e
     bf0:	00448493          	addi	x9,x9,4

# Testcase cr_rs1_imm_edges (rs1 = 0x00000000, imm = 8)
  RVTEST_TESTDATA_LOAD_INT(x19, x1) # load rs1: x1 = 0x00000000
     bf4:	0009a083          	lw	x1,0(x19)
     bf8:	00498993          	addi	x19,x19,4

00000bfc <I_addi_cg_cr_rs1_imm_edges_rs1val_0x0_immval_0x8>:
I_addi_cg_cr_rs1_imm_edges_rs1val_0x0_immval_0x8:
  addi x24, x1, 8 # perform operation
     bfc:	00808c13          	addi	x24,x1,8
  # Check if x24 contains the expected result. x9 is the signature ptr, x8 is the link ptr, x7 is a temp reg.
  RVTEST_SIGUPD(x9, x8, x7, x24, I_addi_cg_cr_rs1_imm_edges_rs1val_0x0_immval_0x8, I_addi_cg_cr_rs1_imm_edges_rs1val_0x0_immval_0x8_str)
     c00:	0004a383          	lw	x7,0(x9)
     c04:	01838863          	beq	x7,x24,c14 <I_addi_cg_cr_rs1_imm_edges_rs1val_0x0_immval_0x8+0x18>
     c08:	0cd0246f          	jal	x8,34d4 <failedtest_x8_x7>
     c0c:	00000bfc          	.word	0x00000bfc
     c10:	000096db          	.word	0x000096db
     c14:	00448493          	addi	x9,x9,4

# Testcase cr_rs1_imm_edges (rs1 = 0x00000000, imm = 16)
  RVTEST_TESTDATA_LOAD_INT(x19, x27) # load rs1: x27 = 0x00000000
     c18:	0009ad83          	lw	x27,0(x19)
     c1c:	00498993          	addi	x19,x19,4

00000c20 <I_addi_cg_cr_rs1_imm_edges_rs1val_0x0_immval_0x10>:
I_addi_cg_cr_rs1_imm_edges_rs1val_0x0_immval_0x10:
  addi x28, x27, 16 # perform operation
     c20:	010d8e13          	addi	x28,x27,16
  # Check if x28 contains the expected result. x9 is the signature ptr, x8 is the link ptr, x7 is a temp reg.
  RVTEST_SIGUPD(x9, x8, x7, x28, I_addi_cg_cr_rs1_imm_edges_rs1val_0x0_immval_0x10, I_addi_cg_cr_rs1_imm_edges_rs1val_0x0_immval_0x10_str)
     c24:	0004a383          	lw	x7,0(x9)
     c28:	01c38863          	beq	x7,x28,c38 <I_addi_cg_cr_rs1_imm_edges_rs1val_0x0_immval_0x10+0x18>
     c2c:	0a90246f          	jal	x8,34d4 <failedtest_x8_x7>
     c30:	00000c20          	.word	0x00000c20
     c34:	00009728          	.word	0x00009728
     c38:	00448493          	addi	x9,x9,4

# Testcase cr_rs1_imm_edges (rs1 = 0x00000000, imm = 32)
  RVTEST_TESTDATA_LOAD_INT(x19, x6) # load rs1: x6 = 0x00000000
     c3c:	0009a303          	lw	x6,0(x19)
     c40:	00498993          	addi	x19,x19,4

00000c44 <I_addi_cg_cr_rs1_imm_edges_rs1val_0x0_immval_0x20>:
I_addi_cg_cr_rs1_imm_edges_rs1val_0x0_immval_0x20:
  addi x1, x6, 32 # perform operation
     c44:	02030093          	addi	x1,x6,32
  # Check if x1 contains the expected result. x9 is the signature ptr, x8 is the link ptr, x7 is a temp reg.
  RVTEST_SIGUPD(x9, x8, x7, x1, I_addi_cg_cr_rs1_imm_edges_rs1val_0x0_immval_0x20, I_addi_cg_cr_rs1_imm_edges_rs1val_0x0_immval_0x20_str)
     c48:	0004a383          	lw	x7,0(x9)
     c4c:	00138863          	beq	x7,x1,c5c <I_addi_cg_cr_rs1_imm_edges_rs1val_0x0_immval_0x20+0x18>
     c50:	0850246f          	jal	x8,34d4 <failedtest_x8_x7>
     c54:	00000c44          	.word	0x00000c44
     c58:	00009776          	.word	0x00009776
     c5c:	00448493          	addi	x9,x9,4

# Testcase cr_rs1_imm_edges (rs1 = 0x00000000, imm = 64)
  RVTEST_TESTDATA_LOAD_INT(x19, x24) # load rs1: x24 = 0x00000000
     c60:	0009ac03          	lw	x24,0(x19)
     c64:	00498993          	addi	x19,x19,4

00000c68 <I_addi_cg_cr_rs1_imm_edges_rs1val_0x0_immval_0x40>:
I_addi_cg_cr_rs1_imm_edges_rs1val_0x0_immval_0x40:
  addi x16, x24, 64 # perform operation
     c68:	040c0813          	addi	x16,x24,64
  # Check if x16 contains the expected result. x9 is the signature ptr, x8 is the link ptr, x7 is a temp reg.
  RVTEST_SIGUPD(x9, x8, x7, x16, I_addi_cg_cr_rs1_imm_edges_rs1val_0x0_immval_0x40, I_addi_cg_cr_rs1_imm_edges_rs1val_0x0_immval_0x40_str)
     c6c:	0004a383          	lw	x7,0(x9)
     c70:	01038863          	beq	x7,x16,c80 <I_addi_cg_cr_rs1_imm_edges_rs1val_0x0_immval_0x40+0x18>
     c74:	0610246f          	jal	x8,34d4 <failedtest_x8_x7>
     c78:	00000c68          	.word	0x00000c68
     c7c:	000097c4          	.word	0x000097c4
     c80:	00448493          	addi	x9,x9,4

# Testcase cr_rs1_imm_edges (rs1 = 0x00000000, imm = 128)
  RVTEST_TESTDATA_LOAD_INT(x19, x18) # load rs1: x18 = 0x00000000
     c84:	0009a903          	lw	x18,0(x19)
     c88:	00498993          	addi	x19,x19,4

00000c8c <I_addi_cg_cr_rs1_imm_edges_rs1val_0x0_immval_0x80>:
I_addi_cg_cr_rs1_imm_edges_rs1val_0x0_immval_0x80:
  addi x31, x18, 128 # perform operation
     c8c:	08090f93          	addi	x31,x18,128
  # Check if x31 contains the expected result. x9 is the signature ptr, x8 is the link ptr, x7 is a temp reg.
  RVTEST_SIGUPD(x9, x8, x7, x31, I_addi_cg_cr_rs1_imm_edges_rs1val_0x0_immval_0x80, I_addi_cg_cr_rs1_imm_edges_rs1val_0x0_immval_0x80_str)
     c90:	0004a383          	lw	x7,0(x9)
     c94:	01f38863          	beq	x7,x31,ca4 <I_addi_cg_cr_rs1_imm_edges_rs1val_0x0_immval_0x80+0x18>
     c98:	03d0246f          	jal	x8,34d4 <failedtest_x8_x7>
     c9c:	00000c8c          	.word	0x00000c8c
     ca0:	00009812          	.word	0x00009812
     ca4:	00448493          	addi	x9,x9,4

# Testcase cr_rs1_imm_edges (rs1 = 0x00000000, imm = 256)
  RVTEST_TESTDATA_LOAD_INT(x19, x21) # load rs1: x21 = 0x00000000
     ca8:	0009aa83          	lw	x21,0(x19)
     cac:	00498993          	addi	x19,x19,4

00000cb0 <I_addi_cg_cr_rs1_imm_edges_rs1val_0x0_immval_0x100>:
I_addi_cg_cr_rs1_imm_edges_rs1val_0x0_immval_0x100:
  addi x22, x21, 256 # perform operation
     cb0:	100a8b13          	addi	x22,x21,256
  # Check if x22 contains the expected result. x9 is the signature ptr, x8 is the link ptr, x7 is a temp reg.
  RVTEST_SIGUPD(x9, x8, x7, x22, I_addi_cg_cr_rs1_imm_edges_rs1val_0x0_immval_0x100, I_addi_cg_cr_rs1_imm_edges_rs1val_0x0_immval_0x100_str)
     cb4:	0004a383          	lw	x7,0(x9)
     cb8:	01638863          	beq	x7,x22,cc8 <I_addi_cg_cr_rs1_imm_edges_rs1val_0x0_immval_0x100+0x18>
     cbc:	0190246f          	jal	x8,34d4 <failedtest_x8_x7>
     cc0:	00000cb0          	.word	0x00000cb0
     cc4:	00009860          	.word	0x00009860
     cc8:	00448493          	addi	x9,x9,4

# Testcase cr_rs1_imm_edges (rs1 = 0x00000000, imm = 512)
  RVTEST_TESTDATA_LOAD_INT(x19, x4) # load rs1: x4 = 0x00000000
     ccc:	0009a203          	lw	x4,0(x19)
     cd0:	00498993          	addi	x19,x19,4

00000cd4 <I_addi_cg_cr_rs1_imm_edges_rs1val_0x0_immval_0x200>:
I_addi_cg_cr_rs1_imm_edges_rs1val_0x0_immval_0x200:
  addi x31, x4, 512 # perform operation
     cd4:	20020f93          	addi	x31,x4,512 # 200 <I_addi_cg_cp_rs1_b11+0x10>
  # Check if x31 contains the expected result. x9 is the signature ptr, x8 is the link ptr, x7 is a temp reg.
  RVTEST_SIGUPD(x9, x8, x7, x31, I_addi_cg_cr_rs1_imm_edges_rs1val_0x0_immval_0x200, I_addi_cg_cr_rs1_imm_edges_rs1val_0x0_immval_0x200_str)
     cd8:	0004a383          	lw	x7,0(x9)
     cdc:	01f38863          	beq	x7,x31,cec <I_addi_cg_cr_rs1_imm_edges_rs1val_0x0_immval_0x200+0x18>
     ce0:	7f40246f          	jal	x8,34d4 <failedtest_x8_x7>
     ce4:	00000cd4          	.word	0x00000cd4
     ce8:	000098af          	.word	0x000098af
     cec:	00448493          	addi	x9,x9,4

# Testcase cr_rs1_imm_edges (rs1 = 0x00000000, imm = 1023)
  RVTEST_TESTDATA_LOAD_INT(x19, x22) # load rs1: x22 = 0x00000000
     cf0:	0009ab03          	lw	x22,0(x19)
     cf4:	00498993          	addi	x19,x19,4

00000cf8 <I_addi_cg_cr_rs1_imm_edges_rs1val_0x0_immval_0x3ff>:
I_addi_cg_cr_rs1_imm_edges_rs1val_0x0_immval_0x3ff:
  addi x1, x22, 1023 # perform operation
     cf8:	3ffb0093          	addi	x1,x22,1023
  # Check if x1 contains the expected result. x9 is the signature ptr, x8 is the link ptr, x7 is a temp reg.
  RVTEST_SIGUPD(x9, x8, x7, x1, I_addi_cg_cr_rs1_imm_edges_rs1val_0x0_immval_0x3ff, I_addi_cg_cr_rs1_imm_edges_rs1val_0x0_immval_0x3ff_str)
     cfc:	0004a383          	lw	x7,0(x9)
     d00:	00138863          	beq	x7,x1,d10 <I_addi_cg_cr_rs1_imm_edges_rs1val_0x0_immval_0x3ff+0x18>
     d04:	7d00246f          	jal	x8,34d4 <failedtest_x8_x7>
     d08:	00000cf8          	.word	0x00000cf8
     d0c:	000098fe          	.word	0x000098fe
     d10:	00448493          	addi	x9,x9,4

# Testcase cr_rs1_imm_edges (rs1 = 0x00000000, imm = 1024)
  RVTEST_TESTDATA_LOAD_INT(x19, x12) # load rs1: x12 = 0x00000000
     d14:	0009a603          	lw	x12,0(x19)
     d18:	00498993          	addi	x19,x19,4

00000d1c <I_addi_cg_cr_rs1_imm_edges_rs1val_0x0_immval_0x400>:
I_addi_cg_cr_rs1_imm_edges_rs1val_0x0_immval_0x400:
  addi x10, x12, 1024 # perform operation
     d1c:	40060513          	addi	x10,x12,1024
  # Check if x10 contains the expected result. x9 is the signature ptr, x8 is the link ptr, x7 is a temp reg.
  RVTEST_SIGUPD(x9, x8, x7, x10, I_addi_cg_cr_rs1_imm_edges_rs1val_0x0_immval_0x400, I_addi_cg_cr_rs1_imm_edges_rs1val_0x0_immval_0x400_str)
     d20:	0004a383          	lw	x7,0(x9)
     d24:	00a38863          	beq	x7,x10,d34 <I_addi_cg_cr_rs1_imm_edges_rs1val_0x0_immval_0x400+0x18>
     d28:	7ac0246f          	jal	x8,34d4 <failedtest_x8_x7>
     d2c:	00000d1c          	.word	0x00000d1c
     d30:	0000994d          	.word	0x0000994d
     d34:	00448493          	addi	x9,x9,4

# Testcase cr_rs1_imm_edges (rs1 = 0x00000000, imm = 1795)
  RVTEST_TESTDATA_LOAD_INT(x19, x1) # load rs1: x1 = 0x00000000
     d38:	0009a083          	lw	x1,0(x19)
     d3c:	00498993          	addi	x19,x19,4

00000d40 <I_addi_cg_cr_rs1_imm_edges_rs1val_0x0_immval_0x703>:
I_addi_cg_cr_rs1_imm_edges_rs1val_0x0_immval_0x703:
  addi x13, x1, 1795 # perform operation
     d40:	70308693          	addi	x13,x1,1795
  # Check if x13 contains the expected result. x9 is the signature ptr, x8 is the link ptr, x7 is a temp reg.
  RVTEST_SIGUPD(x9, x8, x7, x13, I_addi_cg_cr_rs1_imm_edges_rs1val_0x0_immval_0x703, I_addi_cg_cr_rs1_imm_edges_rs1val_0x0_immval_0x703_str)
     d44:	0004a383          	lw	x7,0(x9)
     d48:	00d38863          	beq	x7,x13,d58 <I_addi_cg_cr_rs1_imm_edges_rs1val_0x0_immval_0x703+0x18>
     d4c:	7880246f          	jal	x8,34d4 <failedtest_x8_x7>
     d50:	00000d40          	.word	0x00000d40
     d54:	0000999c          	.word	0x0000999c
     d58:	00448493          	addi	x9,x9,4

# Testcase cr_rs1_imm_edges (rs1 = 0x00000000, imm = 2047)
  RVTEST_TESTDATA_LOAD_INT(x19, x21) # load rs1: x21 = 0x00000000
     d5c:	0009aa83          	lw	x21,0(x19)
     d60:	00498993          	addi	x19,x19,4

00000d64 <I_addi_cg_cr_rs1_imm_edges_rs1val_0x0_immval_0x7ff>:
I_addi_cg_cr_rs1_imm_edges_rs1val_0x0_immval_0x7ff:
  addi x31, x21, 2047 # perform operation
     d64:	7ffa8f93          	addi	x31,x21,2047
  # Check if x31 contains the expected result. x9 is the signature ptr, x8 is the link ptr, x7 is a temp reg.
  RVTEST_SIGUPD(x9, x8, x7, x31, I_addi_cg_cr_rs1_imm_edges_rs1val_0x0_immval_0x7ff, I_addi_cg_cr_rs1_imm_edges_rs1val_0x0_immval_0x7ff_str)
     d68:	0004a383          	lw	x7,0(x9)
     d6c:	01f38863          	beq	x7,x31,d7c <I_addi_cg_cr_rs1_imm_edges_rs1val_0x0_immval_0x7ff+0x18>
     d70:	7640246f          	jal	x8,34d4 <failedtest_x8_x7>
     d74:	00000d64          	.word	0x00000d64
     d78:	000099eb          	.word	0x000099eb
     d7c:	00448493          	addi	x9,x9,4

# Testcase cr_rs1_imm_edges (rs1 = 0x00000000, imm = -2048)
  RVTEST_TESTDATA_LOAD_INT(x19, x31) # load rs1: x31 = 0x00000000
     d80:	0009af83          	lw	x31,0(x19)
     d84:	00498993          	addi	x19,x19,4

00000d88 <I_addi_cg_cr_rs1_imm_edges_rs1val_0x0_immval_m0x800>:
I_addi_cg_cr_rs1_imm_edges_rs1val_0x0_immval_m0x800:
  addi x23, x31, -2048 # perform operation
     d88:	800f8b93          	addi	x23,x31,-2048
  # Check if x23 contains the expected result. x9 is the signature ptr, x8 is the link ptr, x7 is a temp reg.
  RVTEST_SIGUPD(x9, x8, x7, x23, I_addi_cg_cr_rs1_imm_edges_rs1val_0x0_immval_m0x800, I_addi_cg_cr_rs1_imm_edges_rs1val_0x0_immval_m0x800_str)
     d8c:	0004a383          	lw	x7,0(x9)
     d90:	01738863          	beq	x7,x23,da0 <I_addi_cg_cr_rs1_imm_edges_rs1val_0x0_immval_m0x800+0x18>
     d94:	7400246f          	jal	x8,34d4 <failedtest_x8_x7>
     d98:	00000d88          	.word	0x00000d88
     d9c:	00009a3a          	.word	0x00009a3a
     da0:	00448493          	addi	x9,x9,4

# Testcase cr_rs1_imm_edges (rs1 = 0x00000000, imm = -2047)
  RVTEST_TESTDATA_LOAD_INT(x19, x21) # load rs1: x21 = 0x00000000
     da4:	0009aa83          	lw	x21,0(x19)
     da8:	00498993          	addi	x19,x19,4

00000dac <I_addi_cg_cr_rs1_imm_edges_rs1val_0x0_immval_m0x7ff>:
I_addi_cg_cr_rs1_imm_edges_rs1val_0x0_immval_m0x7ff:
  addi x6, x21, -2047 # perform operation
     dac:	801a8313          	addi	x6,x21,-2047
  # Check if x6 contains the expected result. x9 is the signature ptr, x8 is the link ptr, x7 is a temp reg.
  RVTEST_SIGUPD(x9, x8, x7, x6, I_addi_cg_cr_rs1_imm_edges_rs1val_0x0_immval_m0x7ff, I_addi_cg_cr_rs1_imm_edges_rs1val_0x0_immval_m0x7ff_str)
     db0:	0004a383          	lw	x7,0(x9)
     db4:	00638863          	beq	x7,x6,dc4 <I_addi_cg_cr_rs1_imm_edges_rs1val_0x0_immval_m0x7ff+0x18>
     db8:	71c0246f          	jal	x8,34d4 <failedtest_x8_x7>
     dbc:	00000dac          	.word	0x00000dac
     dc0:	00009a8a          	.word	0x00009a8a
     dc4:	00448493          	addi	x9,x9,4

# Testcase cr_rs1_imm_edges (rs1 = 0x00000000, imm = -2)
  RVTEST_TESTDATA_LOAD_INT(x19, x2) # load rs1: x2 = 0x00000000
     dc8:	0009a103          	lw	x2,0(x19)
     dcc:	00498993          	addi	x19,x19,4

00000dd0 <I_addi_cg_cr_rs1_imm_edges_rs1val_0x0_immval_m0x2>:
I_addi_cg_cr_rs1_imm_edges_rs1val_0x0_immval_m0x2:
  addi x10, x2, -2 # perform operation
     dd0:	ffe10513          	addi	x10,x2,-2
  # Check if x10 contains the expected result. x9 is the signature ptr, x8 is the link ptr, x7 is a temp reg.
  RVTEST_SIGUPD(x9, x8, x7, x10, I_addi_cg_cr_rs1_imm_edges_rs1val_0x0_immval_m0x2, I_addi_cg_cr_rs1_imm_edges_rs1val_0x0_immval_m0x2_str)
     dd4:	0004a383          	lw	x7,0(x9)
     dd8:	00a38863          	beq	x7,x10,de8 <I_addi_cg_cr_rs1_imm_edges_rs1val_0x0_immval_m0x2+0x18>
     ddc:	6f80246f          	jal	x8,34d4 <failedtest_x8_x7>
     de0:	00000dd0          	.word	0x00000dd0
     de4:	00009ada          	.word	0x00009ada
     de8:	00448493          	addi	x9,x9,4

# Testcase cr_rs1_imm_edges (rs1 = 0x00000000, imm = -1)
  RVTEST_TESTDATA_LOAD_INT(x19, x20) # load rs1: x20 = 0x00000000
     dec:	0009aa03          	lw	x20,0(x19)
     df0:	00498993          	addi	x19,x19,4

00000df4 <I_addi_cg_cr_rs1_imm_edges_rs1val_0x0_immval_m0x1>:
I_addi_cg_cr_rs1_imm_edges_rs1val_0x0_immval_m0x1:
  addi x1, x20, -1 # perform operation
     df4:	fffa0093          	addi	x1,x20,-1
  # Check if x1 contains the expected result. x9 is the signature ptr, x8 is the link ptr, x7 is a temp reg.
  RVTEST_SIGUPD(x9, x8, x7, x1, I_addi_cg_cr_rs1_imm_edges_rs1val_0x0_immval_m0x1, I_addi_cg_cr_rs1_imm_edges_rs1val_0x0_immval_m0x1_str)
     df8:	0004a383          	lw	x7,0(x9)
     dfc:	00138863          	beq	x7,x1,e0c <I_addi_cg_cr_rs1_imm_edges_rs1val_0x0_immval_m0x1+0x18>
     e00:	6d40246f          	jal	x8,34d4 <failedtest_x8_x7>
     e04:	00000df4          	.word	0x00000df4
     e08:	00009b28          	.word	0x00009b28
     e0c:	00448493          	addi	x9,x9,4

# Testcase cr_rs1_imm_edges (rs1 = 0x00000001, imm = 0)
  RVTEST_TESTDATA_LOAD_INT(x19, x25) # load rs1: x25 = 0x00000001
     e10:	0009ac83          	lw	x25,0(x19)
     e14:	00498993          	addi	x19,x19,4

00000e18 <I_addi_cg_cr_rs1_imm_edges_rs1val_0x1_immval_0x0>:
I_addi_cg_cr_rs1_imm_edges_rs1val_0x1_immval_0x0:
  addi x2, x25, 0 # perform operation
     e18:	000c8113          	addi	x2,x25,0
  # Check if x2 contains the expected result. x9 is the signature ptr, x8 is the link ptr, x7 is a temp reg.
  RVTEST_SIGUPD(x9, x8, x7, x2, I_addi_cg_cr_rs1_imm_edges_rs1val_0x1_immval_0x0, I_addi_cg_cr_rs1_imm_edges_rs1val_0x1_immval_0x0_str)
     e1c:	0004a383          	lw	x7,0(x9)
     e20:	00238863          	beq	x7,x2,e30 <I_addi_cg_cr_rs1_imm_edges_rs1val_0x1_immval_0x0+0x18>
     e24:	6b00246f          	jal	x8,34d4 <failedtest_x8_x7>
     e28:	00000e18          	.word	0x00000e18
     e2c:	00009b76          	.word	0x00009b76
     e30:	00448493          	addi	x9,x9,4

# Testcase cr_rs1_imm_edges (rs1 = 0x00000001, imm = 1)
  RVTEST_TESTDATA_LOAD_INT(x19, x18) # load rs1: x18 = 0x00000001
     e34:	0009a903          	lw	x18,0(x19)
     e38:	00498993          	addi	x19,x19,4

00000e3c <I_addi_cg_cr_rs1_imm_edges_rs1val_0x1_immval_0x1>:
I_addi_cg_cr_rs1_imm_edges_rs1val_0x1_immval_0x1:
  addi x24, x18, 1 # perform operation
     e3c:	00190c13          	addi	x24,x18,1
  # Check if x24 contains the expected result. x9 is the signature ptr, x8 is the link ptr, x7 is a temp reg.
  RVTEST_SIGUPD(x9, x8, x7, x24, I_addi_cg_cr_rs1_imm_edges_rs1val_0x1_immval_0x1, I_addi_cg_cr_rs1_imm_edges_rs1val_0x1_immval_0x1_str)
     e40:	0004a383          	lw	x7,0(x9)
     e44:	01838863          	beq	x7,x24,e54 <I_addi_cg_cr_rs1_imm_edges_rs1val_0x1_immval_0x1+0x18>
     e48:	68c0246f          	jal	x8,34d4 <failedtest_x8_x7>
     e4c:	00000e3c          	.word	0x00000e3c
     e50:	00009bc3          	.word	0x00009bc3
     e54:	00448493          	addi	x9,x9,4

# Testcase cr_rs1_imm_edges (rs1 = 0x00000001, imm = 2)
  RVTEST_TESTDATA_LOAD_INT(x19, x2) # load rs1: x2 = 0x00000001
     e58:	0009a103          	lw	x2,0(x19)
     e5c:	00498993          	addi	x19,x19,4

00000e60 <I_addi_cg_cr_rs1_imm_edges_rs1val_0x1_immval_0x2>:
I_addi_cg_cr_rs1_imm_edges_rs1val_0x1_immval_0x2:
  addi x17, x2, 2 # perform operation
     e60:	00210893          	addi	x17,x2,2
  # Check if x17 contains the expected result. x9 is the signature ptr, x8 is the link ptr, x7 is a temp reg.
  RVTEST_SIGUPD(x9, x8, x7, x17, I_addi_cg_cr_rs1_imm_edges_rs1val_0x1_immval_0x2, I_addi_cg_cr_rs1_imm_edges_rs1val_0x1_immval_0x2_str)
     e64:	0004a383          	lw	x7,0(x9)
     e68:	01138863          	beq	x7,x17,e78 <I_addi_cg_cr_rs1_imm_edges_rs1val_0x1_immval_0x2+0x18>
     e6c:	6680246f          	jal	x8,34d4 <failedtest_x8_x7>
     e70:	00000e60          	.word	0x00000e60
     e74:	00009c10          	.word	0x00009c10
     e78:	00448493          	addi	x9,x9,4

# Testcase cr_rs1_imm_edges (rs1 = 0x00000001, imm = 3)
  RVTEST_TESTDATA_LOAD_INT(x19, x15) # load rs1: x15 = 0x00000001
     e7c:	0009a783          	lw	x15,0(x19)
     e80:	00498993          	addi	x19,x19,4

00000e84 <I_addi_cg_cr_rs1_imm_edges_rs1val_0x1_immval_0x3>:
I_addi_cg_cr_rs1_imm_edges_rs1val_0x1_immval_0x3:
  addi x5, x15, 3 # perform operation
     e84:	00378293          	addi	x5,x15,3
  # Check if x5 contains the expected result. x9 is the signature ptr, x8 is the link ptr, x7 is a temp reg.
  RVTEST_SIGUPD(x9, x8, x7, x5, I_addi_cg_cr_rs1_imm_edges_rs1val_0x1_immval_0x3, I_addi_cg_cr_rs1_imm_edges_rs1val_0x1_immval_0x3_str)
     e88:	0004a383          	lw	x7,0(x9)
     e8c:	00538863          	beq	x7,x5,e9c <I_addi_cg_cr_rs1_imm_edges_rs1val_0x1_immval_0x3+0x18>
     e90:	6440246f          	jal	x8,34d4 <failedtest_x8_x7>
     e94:	00000e84          	.word	0x00000e84
     e98:	00009c5d          	.word	0x00009c5d
     e9c:	00448493          	addi	x9,x9,4

# Testcase cr_rs1_imm_edges (rs1 = 0x00000001, imm = 4)
  RVTEST_TESTDATA_LOAD_INT(x19, x6) # load rs1: x6 = 0x00000001
     ea0:	0009a303          	lw	x6,0(x19)
     ea4:	00498993          	addi	x19,x19,4

00000ea8 <I_addi_cg_cr_rs1_imm_edges_rs1val_0x1_immval_0x4>:
I_addi_cg_cr_rs1_imm_edges_rs1val_0x1_immval_0x4:
  addi x3, x6, 4 # perform operation
     ea8:	00430193          	addi	x3,x6,4
  # Check if x3 contains the expected result. x9 is the signature ptr, x8 is the link ptr, x7 is a temp reg.
  RVTEST_SIGUPD(x9, x8, x7, x3, I_addi_cg_cr_rs1_imm_edges_rs1val_0x1_immval_0x4, I_addi_cg_cr_rs1_imm_edges_rs1val_0x1_immval_0x4_str)
     eac:	0004a383          	lw	x7,0(x9)
     eb0:	00338863          	beq	x7,x3,ec0 <I_addi_cg_cr_rs1_imm_edges_rs1val_0x1_immval_0x4+0x18>
     eb4:	6200246f          	jal	x8,34d4 <failedtest_x8_x7>
     eb8:	00000ea8          	.word	0x00000ea8
     ebc:	00009cab          	.word	0x00009cab
     ec0:	00448493          	addi	x9,x9,4

# Testcase cr_rs1_imm_edges (rs1 = 0x00000001, imm = 8)
  RVTEST_TESTDATA_LOAD_INT(x19, x16) # load rs1: x16 = 0x00000001
     ec4:	0009a803          	lw	x16,0(x19)
     ec8:	00498993          	addi	x19,x19,4

00000ecc <I_addi_cg_cr_rs1_imm_edges_rs1val_0x1_immval_0x8>:
I_addi_cg_cr_rs1_imm_edges_rs1val_0x1_immval_0x8:
  addi x18, x16, 8 # perform operation
     ecc:	00880913          	addi	x18,x16,8
  # Check if x18 contains the expected result. x9 is the signature ptr, x8 is the link ptr, x7 is a temp reg.
  RVTEST_SIGUPD(x9, x8, x7, x18, I_addi_cg_cr_rs1_imm_edges_rs1val_0x1_immval_0x8, I_addi_cg_cr_rs1_imm_edges_rs1val_0x1_immval_0x8_str)
     ed0:	0004a383          	lw	x7,0(x9)
     ed4:	01238863          	beq	x7,x18,ee4 <I_addi_cg_cr_rs1_imm_edges_rs1val_0x1_immval_0x8+0x18>
     ed8:	5fc0246f          	jal	x8,34d4 <failedtest_x8_x7>
     edc:	00000ecc          	.word	0x00000ecc
     ee0:	00009cf9          	.word	0x00009cf9
     ee4:	00448493          	addi	x9,x9,4

# Testcase cr_rs1_imm_edges (rs1 = 0x00000001, imm = 16)
  RVTEST_TESTDATA_LOAD_INT(x19, x31) # load rs1: x31 = 0x00000001
     ee8:	0009af83          	lw	x31,0(x19)
     eec:	00498993          	addi	x19,x19,4

00000ef0 <I_addi_cg_cr_rs1_imm_edges_rs1val_0x1_immval_0x10>:
I_addi_cg_cr_rs1_imm_edges_rs1val_0x1_immval_0x10:
  addi x26, x31, 16 # perform operation
     ef0:	010f8d13          	addi	x26,x31,16
  # Check if x26 contains the expected result. x9 is the signature ptr, x8 is the link ptr, x7 is a temp reg.
  RVTEST_SIGUPD(x9, x8, x7, x26, I_addi_cg_cr_rs1_imm_edges_rs1val_0x1_immval_0x10, I_addi_cg_cr_rs1_imm_edges_rs1val_0x1_immval_0x10_str)
     ef4:	0004a383          	lw	x7,0(x9)
     ef8:	01a38863          	beq	x7,x26,f08 <I_addi_cg_cr_rs1_imm_edges_rs1val_0x1_immval_0x10+0x18>
     efc:	5d80246f          	jal	x8,34d4 <failedtest_x8_x7>
     f00:	00000ef0          	.word	0x00000ef0
     f04:	00009d47          	.word	0x00009d47
     f08:	00448493          	addi	x9,x9,4

# Testcase cr_rs1_imm_edges (rs1 = 0x00000001, imm = 32)
  RVTEST_TESTDATA_LOAD_INT(x19, x14) # load rs1: x14 = 0x00000001
     f0c:	0009a703          	lw	x14,0(x19)
     f10:	00498993          	addi	x19,x19,4

00000f14 <I_addi_cg_cr_rs1_imm_edges_rs1val_0x1_immval_0x20>:
I_addi_cg_cr_rs1_imm_edges_rs1val_0x1_immval_0x20:
  addi x11, x14, 32 # perform operation
     f14:	02070593          	addi	x11,x14,32
  # Check if x11 contains the expected result. x9 is the signature ptr, x8 is the link ptr, x7 is a temp reg.
  RVTEST_SIGUPD(x9, x8, x7, x11, I_addi_cg_cr_rs1_imm_edges_rs1val_0x1_immval_0x20, I_addi_cg_cr_rs1_imm_edges_rs1val_0x1_immval_0x20_str)
     f18:	0004a383          	lw	x7,0(x9)
     f1c:	00b38863          	beq	x7,x11,f2c <I_addi_cg_cr_rs1_imm_edges_rs1val_0x1_immval_0x20+0x18>
     f20:	5b40246f          	jal	x8,34d4 <failedtest_x8_x7>
     f24:	00000f14          	.word	0x00000f14
     f28:	00009d96          	.word	0x00009d96
     f2c:	00448493          	addi	x9,x9,4

# Testcase cr_rs1_imm_edges (rs1 = 0x00000001, imm = 64)
  RVTEST_TESTDATA_LOAD_INT(x19, x2) # load rs1: x2 = 0x00000001
     f30:	0009a103          	lw	x2,0(x19)
     f34:	00498993          	addi	x19,x19,4

00000f38 <I_addi_cg_cr_rs1_imm_edges_rs1val_0x1_immval_0x40>:
I_addi_cg_cr_rs1_imm_edges_rs1val_0x1_immval_0x40:
  addi x10, x2, 64 # perform operation
     f38:	04010513          	addi	x10,x2,64
  # Check if x10 contains the expected result. x9 is the signature ptr, x8 is the link ptr, x7 is a temp reg.
  RVTEST_SIGUPD(x9, x8, x7, x10, I_addi_cg_cr_rs1_imm_edges_rs1val_0x1_immval_0x40, I_addi_cg_cr_rs1_imm_edges_rs1val_0x1_immval_0x40_str)
     f3c:	0004a383          	lw	x7,0(x9)
     f40:	00a38863          	beq	x7,x10,f50 <I_addi_cg_cr_rs1_imm_edges_rs1val_0x1_immval_0x40+0x18>
     f44:	5900246f          	jal	x8,34d4 <failedtest_x8_x7>
     f48:	00000f38          	.word	0x00000f38
     f4c:	00009de5          	.word	0x00009de5
     f50:	00448493          	addi	x9,x9,4

# Testcase cr_rs1_imm_edges (rs1 = 0x00000001, imm = 128)
  RVTEST_TESTDATA_LOAD_INT(x19, x2) # load rs1: x2 = 0x00000001
     f54:	0009a103          	lw	x2,0(x19)
     f58:	00498993          	addi	x19,x19,4

00000f5c <I_addi_cg_cr_rs1_imm_edges_rs1val_0x1_immval_0x80>:
I_addi_cg_cr_rs1_imm_edges_rs1val_0x1_immval_0x80:
  addi x17, x2, 128 # perform operation
     f5c:	08010893          	addi	x17,x2,128
  # Check if x17 contains the expected result. x9 is the signature ptr, x8 is the link ptr, x7 is a temp reg.
  RVTEST_SIGUPD(x9, x8, x7, x17, I_addi_cg_cr_rs1_imm_edges_rs1val_0x1_immval_0x80, I_addi_cg_cr_rs1_imm_edges_rs1val_0x1_immval_0x80_str)
     f60:	0004a383          	lw	x7,0(x9)
     f64:	01138863          	beq	x7,x17,f74 <I_addi_cg_cr_rs1_imm_edges_rs1val_0x1_immval_0x80+0x18>
     f68:	56c0246f          	jal	x8,34d4 <failedtest_x8_x7>
     f6c:	00000f5c          	.word	0x00000f5c
     f70:	00009e34          	.word	0x00009e34
     f74:	00448493          	addi	x9,x9,4

# Testcase cr_rs1_imm_edges (rs1 = 0x00000001, imm = 256)
  RVTEST_TESTDATA_LOAD_INT(x19, x22) # load rs1: x22 = 0x00000001
     f78:	0009ab03          	lw	x22,0(x19)
     f7c:	00498993          	addi	x19,x19,4

00000f80 <I_addi_cg_cr_rs1_imm_edges_rs1val_0x1_immval_0x100>:
I_addi_cg_cr_rs1_imm_edges_rs1val_0x1_immval_0x100:
  addi x10, x22, 256 # perform operation
     f80:	100b0513          	addi	x10,x22,256
  # Check if x10 contains the expected result. x9 is the signature ptr, x8 is the link ptr, x7 is a temp reg.
  RVTEST_SIGUPD(x9, x8, x7, x10, I_addi_cg_cr_rs1_imm_edges_rs1val_0x1_immval_0x100, I_addi_cg_cr_rs1_imm_edges_rs1val_0x1_immval_0x100_str)
     f84:	0004a383          	lw	x7,0(x9)
     f88:	00a38863          	beq	x7,x10,f98 <I_addi_cg_cr_rs1_imm_edges_rs1val_0x1_immval_0x100+0x18>
     f8c:	5480246f          	jal	x8,34d4 <failedtest_x8_x7>
     f90:	00000f80          	.word	0x00000f80
     f94:	00009e83          	.word	0x00009e83
     f98:	00448493          	addi	x9,x9,4

# Testcase cr_rs1_imm_edges (rs1 = 0x00000001, imm = 512)
  RVTEST_TESTDATA_LOAD_INT(x19, x20) # load rs1: x20 = 0x00000001
     f9c:	0009aa03          	lw	x20,0(x19)
     fa0:	00498993          	addi	x19,x19,4

00000fa4 <I_addi_cg_cr_rs1_imm_edges_rs1val_0x1_immval_0x200>:
I_addi_cg_cr_rs1_imm_edges_rs1val_0x1_immval_0x200:
  addi x22, x20, 512 # perform operation
     fa4:	200a0b13          	addi	x22,x20,512
  # Check if x22 contains the expected result. x9 is the signature ptr, x8 is the link ptr, x7 is a temp reg.
  RVTEST_SIGUPD(x9, x8, x7, x22, I_addi_cg_cr_rs1_imm_edges_rs1val_0x1_immval_0x200, I_addi_cg_cr_rs1_imm_edges_rs1val_0x1_immval_0x200_str)
     fa8:	0004a383          	lw	x7,0(x9)
     fac:	01638863          	beq	x7,x22,fbc <I_addi_cg_cr_rs1_imm_edges_rs1val_0x1_immval_0x200+0x18>
     fb0:	5240246f          	jal	x8,34d4 <failedtest_x8_x7>
     fb4:	00000fa4          	.word	0x00000fa4
     fb8:	00009ed3          	.word	0x00009ed3
     fbc:	00448493          	addi	x9,x9,4

# Testcase cr_rs1_imm_edges (rs1 = 0x00000001, imm = 1023)
  RVTEST_TESTDATA_LOAD_INT(x19, x25) # load rs1: x25 = 0x00000001
     fc0:	0009ac83          	lw	x25,0(x19)
     fc4:	00498993          	addi	x19,x19,4

00000fc8 <I_addi_cg_cr_rs1_imm_edges_rs1val_0x1_immval_0x3ff>:
I_addi_cg_cr_rs1_imm_edges_rs1val_0x1_immval_0x3ff:
  addi x23, x25, 1023 # perform operation
     fc8:	3ffc8b93          	addi	x23,x25,1023
  # Check if x23 contains the expected result. x9 is the signature ptr, x8 is the link ptr, x7 is a temp reg.
  RVTEST_SIGUPD(x9, x8, x7, x23, I_addi_cg_cr_rs1_imm_edges_rs1val_0x1_immval_0x3ff, I_addi_cg_cr_rs1_imm_edges_rs1val_0x1_immval_0x3ff_str)
     fcc:	0004a383          	lw	x7,0(x9)
     fd0:	01738863          	beq	x7,x23,fe0 <I_addi_cg_cr_rs1_imm_edges_rs1val_0x1_immval_0x3ff+0x18>
     fd4:	5000246f          	jal	x8,34d4 <failedtest_x8_x7>
     fd8:	00000fc8          	.word	0x00000fc8
     fdc:	00009f23          	.word	0x00009f23
     fe0:	00448493          	addi	x9,x9,4

# Testcase cr_rs1_imm_edges (rs1 = 0x00000001, imm = 1024)
  RVTEST_TESTDATA_LOAD_INT(x19, x4) # load rs1: x4 = 0x00000001
     fe4:	0009a203          	lw	x4,0(x19)
     fe8:	00498993          	addi	x19,x19,4

00000fec <I_addi_cg_cr_rs1_imm_edges_rs1val_0x1_immval_0x400>:
I_addi_cg_cr_rs1_imm_edges_rs1val_0x1_immval_0x400:
  addi x18, x4, 1024 # perform operation
     fec:	40020913          	addi	x18,x4,1024 # 400 <I_addi_cg_cp_rs1_b25+0x8>
  # Check if x18 contains the expected result. x9 is the signature ptr, x8 is the link ptr, x7 is a temp reg.
  RVTEST_SIGUPD(x9, x8, x7, x18, I_addi_cg_cr_rs1_imm_edges_rs1val_0x1_immval_0x400, I_addi_cg_cr_rs1_imm_edges_rs1val_0x1_immval_0x400_str)
     ff0:	0004a383          	lw	x7,0(x9)
     ff4:	01238863          	beq	x7,x18,1004 <I_addi_cg_cr_rs1_imm_edges_rs1val_0x1_immval_0x400+0x18>
     ff8:	4dc0246f          	jal	x8,34d4 <failedtest_x8_x7>
     ffc:	00000fec          	.word	0x00000fec
    1000:	00009f73          	.word	0x00009f73
    1004:	00448493          	addi	x9,x9,4

# Testcase cr_rs1_imm_edges (rs1 = 0x00000001, imm = 1795)
  RVTEST_TESTDATA_LOAD_INT(x19, x3) # load rs1: x3 = 0x00000001
    1008:	0009a183          	lw	x3,0(x19)
    100c:	00498993          	addi	x19,x19,4

00001010 <I_addi_cg_cr_rs1_imm_edges_rs1val_0x1_immval_0x703>:
I_addi_cg_cr_rs1_imm_edges_rs1val_0x1_immval_0x703:
  addi x14, x3, 1795 # perform operation
    1010:	70318713          	addi	x14,x3,1795
  # Check if x14 contains the expected result. x9 is the signature ptr, x8 is the link ptr, x7 is a temp reg.
  RVTEST_SIGUPD(x9, x8, x7, x14, I_addi_cg_cr_rs1_imm_edges_rs1val_0x1_immval_0x703, I_addi_cg_cr_rs1_imm_edges_rs1val_0x1_immval_0x703_str)
    1014:	0004a383          	lw	x7,0(x9)
    1018:	00e38863          	beq	x7,x14,1028 <I_addi_cg_cr_rs1_imm_edges_rs1val_0x1_immval_0x703+0x18>
    101c:	4b80246f          	jal	x8,34d4 <failedtest_x8_x7>
    1020:	00001010          	.word	0x00001010
    1024:	00009fc3          	.word	0x00009fc3
    1028:	00448493          	addi	x9,x9,4

# Testcase cr_rs1_imm_edges (rs1 = 0x00000001, imm = 2047)
  RVTEST_TESTDATA_LOAD_INT(x19, x24) # load rs1: x24 = 0x00000001
    102c:	0009ac03          	lw	x24,0(x19)
    1030:	00498993          	addi	x19,x19,4

00001034 <I_addi_cg_cr_rs1_imm_edges_rs1val_0x1_immval_0x7ff>:
I_addi_cg_cr_rs1_imm_edges_rs1val_0x1_immval_0x7ff:
  addi x6, x24, 2047 # perform operation
    1034:	7ffc0313          	addi	x6,x24,2047
  # Check if x6 contains the expected result. x9 is the signature ptr, x8 is the link ptr, x7 is a temp reg.
  RVTEST_SIGUPD(x9, x8, x7, x6, I_addi_cg_cr_rs1_imm_edges_rs1val_0x1_immval_0x7ff, I_addi_cg_cr_rs1_imm_edges_rs1val_0x1_immval_0x7ff_str)
    1038:	0004a383          	lw	x7,0(x9)
    103c:	00638863          	beq	x7,x6,104c <I_addi_cg_cr_rs1_imm_edges_rs1val_0x1_immval_0x7ff+0x18>
    1040:	4940246f          	jal	x8,34d4 <failedtest_x8_x7>
    1044:	00001034          	.word	0x00001034
    1048:	0000a013          	.word	0x0000a013
    104c:	00448493          	addi	x9,x9,4

# Testcase cr_rs1_imm_edges (rs1 = 0x00000001, imm = -2048)
  RVTEST_TESTDATA_LOAD_INT(x19, x11) # load rs1: x11 = 0x00000001
    1050:	0009a583          	lw	x11,0(x19)
    1054:	00498993          	addi	x19,x19,4

00001058 <I_addi_cg_cr_rs1_imm_edges_rs1val_0x1_immval_m0x800>:
I_addi_cg_cr_rs1_imm_edges_rs1val_0x1_immval_m0x800:
  addi x23, x11, -2048 # perform operation
    1058:	80058b93          	addi	x23,x11,-2048
  # Check if x23 contains the expected result. x9 is the signature ptr, x8 is the link ptr, x7 is a temp reg.
  RVTEST_SIGUPD(x9, x8, x7, x23, I_addi_cg_cr_rs1_imm_edges_rs1val_0x1_immval_m0x800, I_addi_cg_cr_rs1_imm_edges_rs1val_0x1_immval_m0x800_str)
    105c:	0004a383          	lw	x7,0(x9)
    1060:	01738863          	beq	x7,x23,1070 <I_addi_cg_cr_rs1_imm_edges_rs1val_0x1_immval_m0x800+0x18>
    1064:	4700246f          	jal	x8,34d4 <failedtest_x8_x7>
    1068:	00001058          	.word	0x00001058
    106c:	0000a063          	.word	0x0000a063
    1070:	00448493          	addi	x9,x9,4

# Testcase cr_rs1_imm_edges (rs1 = 0x00000001, imm = -2047)
  RVTEST_TESTDATA_LOAD_INT(x19, x11) # load rs1: x11 = 0x00000001
    1074:	0009a583          	lw	x11,0(x19)
    1078:	00498993          	addi	x19,x19,4

0000107c <I_addi_cg_cr_rs1_imm_edges_rs1val_0x1_immval_m0x7ff>:
I_addi_cg_cr_rs1_imm_edges_rs1val_0x1_immval_m0x7ff:
  addi x5, x11, -2047 # perform operation
    107c:	80158293          	addi	x5,x11,-2047
  # Check if x5 contains the expected result. x9 is the signature ptr, x8 is the link ptr, x7 is a temp reg.
  RVTEST_SIGUPD(x9, x8, x7, x5, I_addi_cg_cr_rs1_imm_edges_rs1val_0x1_immval_m0x7ff, I_addi_cg_cr_rs1_imm_edges_rs1val_0x1_immval_m0x7ff_str)
    1080:	0004a383          	lw	x7,0(x9)
    1084:	00538863          	beq	x7,x5,1094 <I_addi_cg_cr_rs1_imm_edges_rs1val_0x1_immval_m0x7ff+0x18>
    1088:	44c0246f          	jal	x8,34d4 <failedtest_x8_x7>
    108c:	0000107c          	.word	0x0000107c
    1090:	0000a0b4          	.word	0x0000a0b4
    1094:	00448493          	addi	x9,x9,4

# Testcase cr_rs1_imm_edges (rs1 = 0x00000001, imm = -2)
  RVTEST_TESTDATA_LOAD_INT(x19, x27) # load rs1: x27 = 0x00000001
    1098:	0009ad83          	lw	x27,0(x19)
    109c:	00498993          	addi	x19,x19,4

000010a0 <I_addi_cg_cr_rs1_imm_edges_rs1val_0x1_immval_m0x2>:
I_addi_cg_cr_rs1_imm_edges_rs1val_0x1_immval_m0x2:
  addi x18, x27, -2 # perform operation
    10a0:	ffed8913          	addi	x18,x27,-2
  # Check if x18 contains the expected result. x9 is the signature ptr, x8 is the link ptr, x7 is a temp reg.
  RVTEST_SIGUPD(x9, x8, x7, x18, I_addi_cg_cr_rs1_imm_edges_rs1val_0x1_immval_m0x2, I_addi_cg_cr_rs1_imm_edges_rs1val_0x1_immval_m0x2_str)
    10a4:	0004a383          	lw	x7,0(x9)
    10a8:	01238863          	beq	x7,x18,10b8 <I_addi_cg_cr_rs1_imm_edges_rs1val_0x1_immval_m0x2+0x18>
    10ac:	4280246f          	jal	x8,34d4 <failedtest_x8_x7>
    10b0:	000010a0          	.word	0x000010a0
    10b4:	0000a105          	.word	0x0000a105
    10b8:	00448493          	addi	x9,x9,4

# Testcase cr_rs1_imm_edges (rs1 = 0x00000001, imm = -1)
  RVTEST_TESTDATA_LOAD_INT(x19, x3) # load rs1: x3 = 0x00000001
    10bc:	0009a183          	lw	x3,0(x19)
    10c0:	00498993          	addi	x19,x19,4

000010c4 <I_addi_cg_cr_rs1_imm_edges_rs1val_0x1_immval_m0x1>:
I_addi_cg_cr_rs1_imm_edges_rs1val_0x1_immval_m0x1:
  addi x15, x3, -1 # perform operation
    10c4:	fff18793          	addi	x15,x3,-1
  # Check if x15 contains the expected result. x9 is the signature ptr, x8 is the link ptr, x7 is a temp reg.
  RVTEST_SIGUPD(x9, x8, x7, x15, I_addi_cg_cr_rs1_imm_edges_rs1val_0x1_immval_m0x1, I_addi_cg_cr_rs1_imm_edges_rs1val_0x1_immval_m0x1_str)
    10c8:	0004a383          	lw	x7,0(x9)
    10cc:	00f38863          	beq	x7,x15,10dc <I_addi_cg_cr_rs1_imm_edges_rs1val_0x1_immval_m0x1+0x18>
    10d0:	4040246f          	jal	x8,34d4 <failedtest_x8_x7>
    10d4:	000010c4          	.word	0x000010c4
    10d8:	0000a154          	.word	0x0000a154
    10dc:	00448493          	addi	x9,x9,4

# Testcase cr_rs1_imm_edges (rs1 = 0x00000002, imm = 0)
  RVTEST_TESTDATA_LOAD_INT(x19, x11) # load rs1: x11 = 0x00000002
    10e0:	0009a583          	lw	x11,0(x19)
    10e4:	00498993          	addi	x19,x19,4

000010e8 <I_addi_cg_cr_rs1_imm_edges_rs1val_0x2_immval_0x0>:
I_addi_cg_cr_rs1_imm_edges_rs1val_0x2_immval_0x0:
  addi x12, x11, 0 # perform operation
    10e8:	00058613          	addi	x12,x11,0
  # Check if x12 contains the expected result. x9 is the signature ptr, x8 is the link ptr, x7 is a temp reg.
  RVTEST_SIGUPD(x9, x8, x7, x12, I_addi_cg_cr_rs1_imm_edges_rs1val_0x2_immval_0x0, I_addi_cg_cr_rs1_imm_edges_rs1val_0x2_immval_0x0_str)
    10ec:	0004a383          	lw	x7,0(x9)
    10f0:	00c38863          	beq	x7,x12,1100 <I_addi_cg_cr_rs1_imm_edges_rs1val_0x2_immval_0x0+0x18>
    10f4:	3e00246f          	jal	x8,34d4 <failedtest_x8_x7>
    10f8:	000010e8          	.word	0x000010e8
    10fc:	0000a1a3          	.word	0x0000a1a3
    1100:	00448493          	addi	x9,x9,4

# Testcase cr_rs1_imm_edges (rs1 = 0x00000002, imm = 1)
  RVTEST_TESTDATA_LOAD_INT(x19, x13) # load rs1: x13 = 0x00000002
    1104:	0009a683          	lw	x13,0(x19)
    1108:	00498993          	addi	x19,x19,4

0000110c <I_addi_cg_cr_rs1_imm_edges_rs1val_0x2_immval_0x1>:
I_addi_cg_cr_rs1_imm_edges_rs1val_0x2_immval_0x1:
  addi x21, x13, 1 # perform operation
    110c:	00168a93          	addi	x21,x13,1
  # Check if x21 contains the expected result. x9 is the signature ptr, x8 is the link ptr, x7 is a temp reg.
  RVTEST_SIGUPD(x9, x8, x7, x21, I_addi_cg_cr_rs1_imm_edges_rs1val_0x2_immval_0x1, I_addi_cg_cr_rs1_imm_edges_rs1val_0x2_immval_0x1_str)
    1110:	0004a383          	lw	x7,0(x9)
    1114:	01538863          	beq	x7,x21,1124 <I_addi_cg_cr_rs1_imm_edges_rs1val_0x2_immval_0x1+0x18>
    1118:	3bc0246f          	jal	x8,34d4 <failedtest_x8_x7>
    111c:	0000110c          	.word	0x0000110c
    1120:	0000a1f1          	.word	0x0000a1f1
    1124:	00448493          	addi	x9,x9,4

# Testcase cr_rs1_imm_edges (rs1 = 0x00000002, imm = 2)
  RVTEST_TESTDATA_LOAD_INT(x19, x24) # load rs1: x24 = 0x00000002
    1128:	0009ac03          	lw	x24,0(x19)
    112c:	00498993          	addi	x19,x19,4

00001130 <I_addi_cg_cr_rs1_imm_edges_rs1val_0x2_immval_0x2>:
I_addi_cg_cr_rs1_imm_edges_rs1val_0x2_immval_0x2:
  addi x15, x24, 2 # perform operation
    1130:	002c0793          	addi	x15,x24,2
  # Check if x15 contains the expected result. x9 is the signature ptr, x8 is the link ptr, x7 is a temp reg.
  RVTEST_SIGUPD(x9, x8, x7, x15, I_addi_cg_cr_rs1_imm_edges_rs1val_0x2_immval_0x2, I_addi_cg_cr_rs1_imm_edges_rs1val_0x2_immval_0x2_str)
    1134:	0004a383          	lw	x7,0(x9)
    1138:	00f38863          	beq	x7,x15,1148 <I_addi_cg_cr_rs1_imm_edges_rs1val_0x2_immval_0x2+0x18>
    113c:	3980246f          	jal	x8,34d4 <failedtest_x8_x7>
    1140:	00001130          	.word	0x00001130
    1144:	0000a23f          	.word	0x0000a23f
    1148:	00448493          	addi	x9,x9,4

# Testcase cr_rs1_imm_edges (rs1 = 0x00000002, imm = 3)
  RVTEST_TESTDATA_LOAD_INT(x19, x17) # load rs1: x17 = 0x00000002
    114c:	0009a883          	lw	x17,0(x19)
    1150:	00498993          	addi	x19,x19,4

00001154 <I_addi_cg_cr_rs1_imm_edges_rs1val_0x2_immval_0x3>:
I_addi_cg_cr_rs1_imm_edges_rs1val_0x2_immval_0x3:
  addi x26, x17, 3 # perform operation
    1154:	00388d13          	addi	x26,x17,3
  # Check if x26 contains the expected result. x9 is the signature ptr, x8 is the link ptr, x7 is a temp reg.
  RVTEST_SIGUPD(x9, x8, x7, x26, I_addi_cg_cr_rs1_imm_edges_rs1val_0x2_immval_0x3, I_addi_cg_cr_rs1_imm_edges_rs1val_0x2_immval_0x3_str)
    1158:	0004a383          	lw	x7,0(x9)
    115c:	01a38863          	beq	x7,x26,116c <I_addi_cg_cr_rs1_imm_edges_rs1val_0x2_immval_0x3+0x18>
    1160:	3740246f          	jal	x8,34d4 <failedtest_x8_x7>
    1164:	00001154          	.word	0x00001154
    1168:	0000a28d          	.word	0x0000a28d
    116c:	00448493          	addi	x9,x9,4

# Testcase cr_rs1_imm_edges (rs1 = 0x00000002, imm = 4)
  RVTEST_TESTDATA_LOAD_INT(x19, x6) # load rs1: x6 = 0x00000002
    1170:	0009a303          	lw	x6,0(x19)
    1174:	00498993          	addi	x19,x19,4

00001178 <I_addi_cg_cr_rs1_imm_edges_rs1val_0x2_immval_0x4>:
I_addi_cg_cr_rs1_imm_edges_rs1val_0x2_immval_0x4:
  addi x25, x6, 4 # perform operation
    1178:	00430c93          	addi	x25,x6,4
  # Check if x25 contains the expected result. x9 is the signature ptr, x8 is the link ptr, x7 is a temp reg.
  RVTEST_SIGUPD(x9, x8, x7, x25, I_addi_cg_cr_rs1_imm_edges_rs1val_0x2_immval_0x4, I_addi_cg_cr_rs1_imm_edges_rs1val_0x2_immval_0x4_str)
    117c:	0004a383          	lw	x7,0(x9)
    1180:	01938863          	beq	x7,x25,1190 <I_addi_cg_cr_rs1_imm_edges_rs1val_0x2_immval_0x4+0x18>
    1184:	3500246f          	jal	x8,34d4 <failedtest_x8_x7>
    1188:	00001178          	.word	0x00001178
    118c:	0000a2db          	.word	0x0000a2db
    1190:	00448493          	addi	x9,x9,4

# Testcase cr_rs1_imm_edges (rs1 = 0x00000002, imm = 8)
  RVTEST_TESTDATA_LOAD_INT(x19, x25) # load rs1: x25 = 0x00000002
    1194:	0009ac83          	lw	x25,0(x19)
    1198:	00498993          	addi	x19,x19,4

0000119c <I_addi_cg_cr_rs1_imm_edges_rs1val_0x2_immval_0x8>:
I_addi_cg_cr_rs1_imm_edges_rs1val_0x2_immval_0x8:
  addi x17, x25, 8 # perform operation
    119c:	008c8893          	addi	x17,x25,8
  # Check if x17 contains the expected result. x9 is the signature ptr, x8 is the link ptr, x7 is a temp reg.
  RVTEST_SIGUPD(x9, x8, x7, x17, I_addi_cg_cr_rs1_imm_edges_rs1val_0x2_immval_0x8, I_addi_cg_cr_rs1_imm_edges_rs1val_0x2_immval_0x8_str)
    11a0:	0004a383          	lw	x7,0(x9)
    11a4:	01138863          	beq	x7,x17,11b4 <I_addi_cg_cr_rs1_imm_edges_rs1val_0x2_immval_0x8+0x18>
    11a8:	32c0246f          	jal	x8,34d4 <failedtest_x8_x7>
    11ac:	0000119c          	.word	0x0000119c
    11b0:	0000a329          	.word	0x0000a329
    11b4:	00448493          	addi	x9,x9,4

# Testcase cr_rs1_imm_edges (rs1 = 0x00000002, imm = 16)
  RVTEST_TESTDATA_LOAD_INT(x19, x1) # load rs1: x1 = 0x00000002
    11b8:	0009a083          	lw	x1,0(x19)
    11bc:	00498993          	addi	x19,x19,4

000011c0 <I_addi_cg_cr_rs1_imm_edges_rs1val_0x2_immval_0x10>:
I_addi_cg_cr_rs1_imm_edges_rs1val_0x2_immval_0x10:
  addi x28, x1, 16 # perform operation
    11c0:	01008e13          	addi	x28,x1,16
  # Check if x28 contains the expected result. x9 is the signature ptr, x8 is the link ptr, x7 is a temp reg.
  RVTEST_SIGUPD(x9, x8, x7, x28, I_addi_cg_cr_rs1_imm_edges_rs1val_0x2_immval_0x10, I_addi_cg_cr_rs1_imm_edges_rs1val_0x2_immval_0x10_str)
    11c4:	0004a383          	lw	x7,0(x9)
    11c8:	01c38863          	beq	x7,x28,11d8 <I_addi_cg_cr_rs1_imm_edges_rs1val_0x2_immval_0x10+0x18>
    11cc:	3080246f          	jal	x8,34d4 <failedtest_x8_x7>
    11d0:	000011c0          	.word	0x000011c0
    11d4:	0000a377          	.word	0x0000a377
    11d8:	00448493          	addi	x9,x9,4

# Testcase cr_rs1_imm_edges (rs1 = 0x00000002, imm = 32)
  RVTEST_TESTDATA_LOAD_INT(x19, x2) # load rs1: x2 = 0x00000002
    11dc:	0009a103          	lw	x2,0(x19)
    11e0:	00498993          	addi	x19,x19,4

000011e4 <I_addi_cg_cr_rs1_imm_edges_rs1val_0x2_immval_0x20>:
I_addi_cg_cr_rs1_imm_edges_rs1val_0x2_immval_0x20:
  addi x11, x2, 32 # perform operation
    11e4:	02010593          	addi	x11,x2,32
  # Check if x11 contains the expected result. x9 is the signature ptr, x8 is the link ptr, x7 is a temp reg.
  RVTEST_SIGUPD(x9, x8, x7, x11, I_addi_cg_cr_rs1_imm_edges_rs1val_0x2_immval_0x20, I_addi_cg_cr_rs1_imm_edges_rs1val_0x2_immval_0x20_str)
    11e8:	0004a383          	lw	x7,0(x9)
    11ec:	00b38863          	beq	x7,x11,11fc <I_addi_cg_cr_rs1_imm_edges_rs1val_0x2_immval_0x20+0x18>
    11f0:	2e40246f          	jal	x8,34d4 <failedtest_x8_x7>
    11f4:	000011e4          	.word	0x000011e4
    11f8:	0000a3c6          	.word	0x0000a3c6
    11fc:	00448493          	addi	x9,x9,4

# Testcase cr_rs1_imm_edges (rs1 = 0x00000002, imm = 64)
  RVTEST_TESTDATA_LOAD_INT(x19, x26) # load rs1: x26 = 0x00000002
    1200:	0009ad03          	lw	x26,0(x19)
    1204:	00498993          	addi	x19,x19,4

00001208 <I_addi_cg_cr_rs1_imm_edges_rs1val_0x2_immval_0x40>:
I_addi_cg_cr_rs1_imm_edges_rs1val_0x2_immval_0x40:
  addi x15, x26, 64 # perform operation
    1208:	040d0793          	addi	x15,x26,64
  # Check if x15 contains the expected result. x9 is the signature ptr, x8 is the link ptr, x7 is a temp reg.
  RVTEST_SIGUPD(x9, x8, x7, x15, I_addi_cg_cr_rs1_imm_edges_rs1val_0x2_immval_0x40, I_addi_cg_cr_rs1_imm_edges_rs1val_0x2_immval_0x40_str)
    120c:	0004a383          	lw	x7,0(x9)
    1210:	00f38863          	beq	x7,x15,1220 <I_addi_cg_cr_rs1_imm_edges_rs1val_0x2_immval_0x40+0x18>
    1214:	2c00246f          	jal	x8,34d4 <failedtest_x8_x7>
    1218:	00001208          	.word	0x00001208
    121c:	0000a415          	.word	0x0000a415
    1220:	00448493          	addi	x9,x9,4

# Testcase cr_rs1_imm_edges (rs1 = 0x00000002, imm = 128)
  RVTEST_TESTDATA_LOAD_INT(x19, x17) # load rs1: x17 = 0x00000002
    1224:	0009a883          	lw	x17,0(x19)
    1228:	00498993          	addi	x19,x19,4

0000122c <I_addi_cg_cr_rs1_imm_edges_rs1val_0x2_immval_0x80>:
I_addi_cg_cr_rs1_imm_edges_rs1val_0x2_immval_0x80:
  addi x4, x17, 128 # perform operation
    122c:	08088213          	addi	x4,x17,128
  # Check if x4 contains the expected result. x9 is the signature ptr, x8 is the link ptr, x7 is a temp reg.
  RVTEST_SIGUPD(x9, x8, x7, x4, I_addi_cg_cr_rs1_imm_edges_rs1val_0x2_immval_0x80, I_addi_cg_cr_rs1_imm_edges_rs1val_0x2_immval_0x80_str)
    1230:	0004a383          	lw	x7,0(x9)
    1234:	00438863          	beq	x7,x4,1244 <I_addi_cg_cr_rs1_imm_edges_rs1val_0x2_immval_0x80+0x18>
    1238:	29c0246f          	jal	x8,34d4 <failedtest_x8_x7>
    123c:	0000122c          	.word	0x0000122c
    1240:	0000a464          	.word	0x0000a464
    1244:	00448493          	addi	x9,x9,4

# Testcase cr_rs1_imm_edges (rs1 = 0x00000002, imm = 256)
  RVTEST_TESTDATA_LOAD_INT(x19, x26) # load rs1: x26 = 0x00000002
    1248:	0009ad03          	lw	x26,0(x19)
    124c:	00498993          	addi	x19,x19,4

00001250 <I_addi_cg_cr_rs1_imm_edges_rs1val_0x2_immval_0x100>:
I_addi_cg_cr_rs1_imm_edges_rs1val_0x2_immval_0x100:
  addi x5, x26, 256 # perform operation
    1250:	100d0293          	addi	x5,x26,256
  # Check if x5 contains the expected result. x9 is the signature ptr, x8 is the link ptr, x7 is a temp reg.
  RVTEST_SIGUPD(x9, x8, x7, x5, I_addi_cg_cr_rs1_imm_edges_rs1val_0x2_immval_0x100, I_addi_cg_cr_rs1_imm_edges_rs1val_0x2_immval_0x100_str)
    1254:	0004a383          	lw	x7,0(x9)
    1258:	00538863          	beq	x7,x5,1268 <I_addi_cg_cr_rs1_imm_edges_rs1val_0x2_immval_0x100+0x18>
    125c:	2780246f          	jal	x8,34d4 <failedtest_x8_x7>
    1260:	00001250          	.word	0x00001250
    1264:	0000a4b3          	.word	0x0000a4b3
    1268:	00448493          	addi	x9,x9,4

# Testcase cr_rs1_imm_edges (rs1 = 0x00000002, imm = 512)
  RVTEST_TESTDATA_LOAD_INT(x19, x23) # load rs1: x23 = 0x00000002
    126c:	0009ab83          	lw	x23,0(x19)
    1270:	00498993          	addi	x19,x19,4

00001274 <I_addi_cg_cr_rs1_imm_edges_rs1val_0x2_immval_0x200>:
I_addi_cg_cr_rs1_imm_edges_rs1val_0x2_immval_0x200:
  addi x18, x23, 512 # perform operation
    1274:	200b8913          	addi	x18,x23,512
  # Check if x18 contains the expected result. x9 is the signature ptr, x8 is the link ptr, x7 is a temp reg.
  RVTEST_SIGUPD(x9, x8, x7, x18, I_addi_cg_cr_rs1_imm_edges_rs1val_0x2_immval_0x200, I_addi_cg_cr_rs1_imm_edges_rs1val_0x2_immval_0x200_str)
    1278:	0004a383          	lw	x7,0(x9)
    127c:	01238863          	beq	x7,x18,128c <I_addi_cg_cr_rs1_imm_edges_rs1val_0x2_immval_0x200+0x18>
    1280:	2540246f          	jal	x8,34d4 <failedtest_x8_x7>
    1284:	00001274          	.word	0x00001274
    1288:	0000a503          	.word	0x0000a503
    128c:	00448493          	addi	x9,x9,4

# Testcase cr_rs1_imm_edges (rs1 = 0x00000002, imm = 1023)
  RVTEST_TESTDATA_LOAD_INT(x19, x12) # load rs1: x12 = 0x00000002
    1290:	0009a603          	lw	x12,0(x19)
    1294:	00498993          	addi	x19,x19,4

00001298 <I_addi_cg_cr_rs1_imm_edges_rs1val_0x2_immval_0x3ff>:
I_addi_cg_cr_rs1_imm_edges_rs1val_0x2_immval_0x3ff:
  addi x5, x12, 1023 # perform operation
    1298:	3ff60293          	addi	x5,x12,1023
  # Check if x5 contains the expected result. x9 is the signature ptr, x8 is the link ptr, x7 is a temp reg.
  RVTEST_SIGUPD(x9, x8, x7, x5, I_addi_cg_cr_rs1_imm_edges_rs1val_0x2_immval_0x3ff, I_addi_cg_cr_rs1_imm_edges_rs1val_0x2_immval_0x3ff_str)
    129c:	0004a383          	lw	x7,0(x9)
    12a0:	00538863          	beq	x7,x5,12b0 <I_addi_cg_cr_rs1_imm_edges_rs1val_0x2_immval_0x3ff+0x18>
    12a4:	2300246f          	jal	x8,34d4 <failedtest_x8_x7>
    12a8:	00001298          	.word	0x00001298
    12ac:	0000a553          	.word	0x0000a553
    12b0:	00448493          	addi	x9,x9,4

# Testcase cr_rs1_imm_edges (rs1 = 0x00000002, imm = 1024)
  RVTEST_TESTDATA_LOAD_INT(x19, x15) # load rs1: x15 = 0x00000002
    12b4:	0009a783          	lw	x15,0(x19)
    12b8:	00498993          	addi	x19,x19,4

000012bc <I_addi_cg_cr_rs1_imm_edges_rs1val_0x2_immval_0x400>:
I_addi_cg_cr_rs1_imm_edges_rs1val_0x2_immval_0x400:
  addi x17, x15, 1024 # perform operation
    12bc:	40078893          	addi	x17,x15,1024
  # Check if x17 contains the expected result. x9 is the signature ptr, x8 is the link ptr, x7 is a temp reg.
  RVTEST_SIGUPD(x9, x8, x7, x17, I_addi_cg_cr_rs1_imm_edges_rs1val_0x2_immval_0x400, I_addi_cg_cr_rs1_imm_edges_rs1val_0x2_immval_0x400_str)
    12c0:	0004a383          	lw	x7,0(x9)
    12c4:	01138863          	beq	x7,x17,12d4 <I_addi_cg_cr_rs1_imm_edges_rs1val_0x2_immval_0x400+0x18>
    12c8:	20c0246f          	jal	x8,34d4 <failedtest_x8_x7>
    12cc:	000012bc          	.word	0x000012bc
    12d0:	0000a5a3          	.word	0x0000a5a3
    12d4:	00448493          	addi	x9,x9,4

# Testcase cr_rs1_imm_edges (rs1 = 0x00000002, imm = 1795)
  RVTEST_TESTDATA_LOAD_INT(x19, x23) # load rs1: x23 = 0x00000002
    12d8:	0009ab83          	lw	x23,0(x19)
    12dc:	00498993          	addi	x19,x19,4

000012e0 <I_addi_cg_cr_rs1_imm_edges_rs1val_0x2_immval_0x703>:
I_addi_cg_cr_rs1_imm_edges_rs1val_0x2_immval_0x703:
  addi x15, x23, 1795 # perform operation
    12e0:	703b8793          	addi	x15,x23,1795
  # Check if x15 contains the expected result. x9 is the signature ptr, x8 is the link ptr, x7 is a temp reg.
  RVTEST_SIGUPD(x9, x8, x7, x15, I_addi_cg_cr_rs1_imm_edges_rs1val_0x2_immval_0x703, I_addi_cg_cr_rs1_imm_edges_rs1val_0x2_immval_0x703_str)
    12e4:	0004a383          	lw	x7,0(x9)
    12e8:	00f38863          	beq	x7,x15,12f8 <I_addi_cg_cr_rs1_imm_edges_rs1val_0x2_immval_0x703+0x18>
    12ec:	1e80246f          	jal	x8,34d4 <failedtest_x8_x7>
    12f0:	000012e0          	.word	0x000012e0
    12f4:	0000a5f3          	.word	0x0000a5f3
    12f8:	00448493          	addi	x9,x9,4

# Testcase cr_rs1_imm_edges (rs1 = 0x00000002, imm = 2047)
  RVTEST_TESTDATA_LOAD_INT(x19, x5) # load rs1: x5 = 0x00000002
    12fc:	0009a283          	lw	x5,0(x19)
    1300:	00498993          	addi	x19,x19,4

00001304 <I_addi_cg_cr_rs1_imm_edges_rs1val_0x2_immval_0x7ff>:
I_addi_cg_cr_rs1_imm_edges_rs1val_0x2_immval_0x7ff:
  addi x25, x5, 2047 # perform operation
    1304:	7ff28c93          	addi	x25,x5,2047
  # Check if x25 contains the expected result. x9 is the signature ptr, x8 is the link ptr, x7 is a temp reg.
  RVTEST_SIGUPD(x9, x8, x7, x25, I_addi_cg_cr_rs1_imm_edges_rs1val_0x2_immval_0x7ff, I_addi_cg_cr_rs1_imm_edges_rs1val_0x2_immval_0x7ff_str)
    1308:	0004a383          	lw	x7,0(x9)
    130c:	01938863          	beq	x7,x25,131c <I_addi_cg_cr_rs1_imm_edges_rs1val_0x2_immval_0x7ff+0x18>
    1310:	1c40246f          	jal	x8,34d4 <failedtest_x8_x7>
    1314:	00001304          	.word	0x00001304
    1318:	0000a643          	.word	0x0000a643
    131c:	00448493          	addi	x9,x9,4

# Testcase cr_rs1_imm_edges (rs1 = 0x00000002, imm = -2048)
  RVTEST_TESTDATA_LOAD_INT(x19, x26) # load rs1: x26 = 0x00000002
    1320:	0009ad03          	lw	x26,0(x19)
    1324:	00498993          	addi	x19,x19,4

00001328 <I_addi_cg_cr_rs1_imm_edges_rs1val_0x2_immval_m0x800>:
I_addi_cg_cr_rs1_imm_edges_rs1val_0x2_immval_m0x800:
  addi x15, x26, -2048 # perform operation
    1328:	800d0793          	addi	x15,x26,-2048
  # Check if x15 contains the expected result. x9 is the signature ptr, x8 is the link ptr, x7 is a temp reg.
  RVTEST_SIGUPD(x9, x8, x7, x15, I_addi_cg_cr_rs1_imm_edges_rs1val_0x2_immval_m0x800, I_addi_cg_cr_rs1_imm_edges_rs1val_0x2_immval_m0x800_str)
    132c:	0004a383          	lw	x7,0(x9)
    1330:	00f38863          	beq	x7,x15,1340 <I_addi_cg_cr_rs1_imm_edges_rs1val_0x2_immval_m0x800+0x18>
    1334:	1a00246f          	jal	x8,34d4 <failedtest_x8_x7>
    1338:	00001328          	.word	0x00001328
    133c:	0000a693          	.word	0x0000a693
    1340:	00448493          	addi	x9,x9,4

# Testcase cr_rs1_imm_edges (rs1 = 0x00000002, imm = -2047)
  RVTEST_TESTDATA_LOAD_INT(x19, x20) # load rs1: x20 = 0x00000002
    1344:	0009aa03          	lw	x20,0(x19)
    1348:	00498993          	addi	x19,x19,4

0000134c <I_addi_cg_cr_rs1_imm_edges_rs1val_0x2_immval_m0x7ff>:
I_addi_cg_cr_rs1_imm_edges_rs1val_0x2_immval_m0x7ff:
  addi x18, x20, -2047 # perform operation
    134c:	801a0913          	addi	x18,x20,-2047
  # Check if x18 contains the expected result. x9 is the signature ptr, x8 is the link ptr, x7 is a temp reg.
  RVTEST_SIGUPD(x9, x8, x7, x18, I_addi_cg_cr_rs1_imm_edges_rs1val_0x2_immval_m0x7ff, I_addi_cg_cr_rs1_imm_edges_rs1val_0x2_immval_m0x7ff_str)
    1350:	0004a383          	lw	x7,0(x9)
    1354:	01238863          	beq	x7,x18,1364 <I_addi_cg_cr_rs1_imm_edges_rs1val_0x2_immval_m0x7ff+0x18>
    1358:	17c0246f          	jal	x8,34d4 <failedtest_x8_x7>
    135c:	0000134c          	.word	0x0000134c
    1360:	0000a6e4          	.word	0x0000a6e4
    1364:	00448493          	addi	x9,x9,4

# Testcase cr_rs1_imm_edges (rs1 = 0x00000002, imm = -2)
  RVTEST_TESTDATA_LOAD_INT(x19, x15) # load rs1: x15 = 0x00000002
    1368:	0009a783          	lw	x15,0(x19)
    136c:	00498993          	addi	x19,x19,4

00001370 <I_addi_cg_cr_rs1_imm_edges_rs1val_0x2_immval_m0x2>:
I_addi_cg_cr_rs1_imm_edges_rs1val_0x2_immval_m0x2:
  addi x14, x15, -2 # perform operation
    1370:	ffe78713          	addi	x14,x15,-2
  # Check if x14 contains the expected result. x9 is the signature ptr, x8 is the link ptr, x7 is a temp reg.
  RVTEST_SIGUPD(x9, x8, x7, x14, I_addi_cg_cr_rs1_imm_edges_rs1val_0x2_immval_m0x2, I_addi_cg_cr_rs1_imm_edges_rs1val_0x2_immval_m0x2_str)
    1374:	0004a383          	lw	x7,0(x9)
    1378:	00e38863          	beq	x7,x14,1388 <I_addi_cg_cr_rs1_imm_edges_rs1val_0x2_immval_m0x2+0x18>
    137c:	1580246f          	jal	x8,34d4 <failedtest_x8_x7>
    1380:	00001370          	.word	0x00001370
    1384:	0000a735          	.word	0x0000a735
    1388:	00448493          	addi	x9,x9,4

# Testcase cr_rs1_imm_edges (rs1 = 0x00000002, imm = -1)
  RVTEST_TESTDATA_LOAD_INT(x19, x24) # load rs1: x24 = 0x00000002
    138c:	0009ac03          	lw	x24,0(x19)
    1390:	00498993          	addi	x19,x19,4

00001394 <I_addi_cg_cr_rs1_imm_edges_rs1val_0x2_immval_m0x1>:
I_addi_cg_cr_rs1_imm_edges_rs1val_0x2_immval_m0x1:
  addi x16, x24, -1 # perform operation
    1394:	fffc0813          	addi	x16,x24,-1
  # Check if x16 contains the expected result. x9 is the signature ptr, x8 is the link ptr, x7 is a temp reg.
  RVTEST_SIGUPD(x9, x8, x7, x16, I_addi_cg_cr_rs1_imm_edges_rs1val_0x2_immval_m0x1, I_addi_cg_cr_rs1_imm_edges_rs1val_0x2_immval_m0x1_str)
    1398:	0004a383          	lw	x7,0(x9)
    139c:	01038863          	beq	x7,x16,13ac <I_addi_cg_cr_rs1_imm_edges_rs1val_0x2_immval_m0x1+0x18>
    13a0:	1340246f          	jal	x8,34d4 <failedtest_x8_x7>
    13a4:	00001394          	.word	0x00001394
    13a8:	0000a784          	.word	0x0000a784
    13ac:	00448493          	addi	x9,x9,4

# Testcase cr_rs1_imm_edges (rs1 = 0x80000000, imm = 0)
  RVTEST_TESTDATA_LOAD_INT(x19, x1) # load rs1: x1 = 0x80000000
    13b0:	0009a083          	lw	x1,0(x19)
    13b4:	00498993          	addi	x19,x19,4

000013b8 <I_addi_cg_cr_rs1_imm_edges_rs1val_0x80000000_immval_0x0>:
I_addi_cg_cr_rs1_imm_edges_rs1val_0x80000000_immval_0x0:
  addi x17, x1, 0 # perform operation
    13b8:	00008893          	addi	x17,x1,0
  # Check if x17 contains the expected result. x9 is the signature ptr, x8 is the link ptr, x7 is a temp reg.
  RVTEST_SIGUPD(x9, x8, x7, x17, I_addi_cg_cr_rs1_imm_edges_rs1val_0x80000000_immval_0x0, I_addi_cg_cr_rs1_imm_edges_rs1val_0x80000000_immval_0x0_str)
    13bc:	0004a383          	lw	x7,0(x9)
    13c0:	01138863          	beq	x7,x17,13d0 <I_addi_cg_cr_rs1_imm_edges_rs1val_0x80000000_immval_0x0+0x18>
    13c4:	1100246f          	jal	x8,34d4 <failedtest_x8_x7>
    13c8:	000013b8          	.word	0x000013b8
    13cc:	0000a7d3          	.word	0x0000a7d3
    13d0:	00448493          	addi	x9,x9,4

# Testcase cr_rs1_imm_edges (rs1 = 0x80000000, imm = 1)
  RVTEST_TESTDATA_LOAD_INT(x19, x17) # load rs1: x17 = 0x80000000
    13d4:	0009a883          	lw	x17,0(x19)
    13d8:	00498993          	addi	x19,x19,4

000013dc <I_addi_cg_cr_rs1_imm_edges_rs1val_0x80000000_immval_0x1>:
I_addi_cg_cr_rs1_imm_edges_rs1val_0x80000000_immval_0x1:
  addi x25, x17, 1 # perform operation
    13dc:	00188c93          	addi	x25,x17,1
  # Check if x25 contains the expected result. x9 is the signature ptr, x8 is the link ptr, x7 is a temp reg.
  RVTEST_SIGUPD(x9, x8, x7, x25, I_addi_cg_cr_rs1_imm_edges_rs1val_0x80000000_immval_0x1, I_addi_cg_cr_rs1_imm_edges_rs1val_0x80000000_immval_0x1_str)
    13e0:	0004a383          	lw	x7,0(x9)
    13e4:	01938863          	beq	x7,x25,13f4 <I_addi_cg_cr_rs1_imm_edges_rs1val_0x80000000_immval_0x1+0x18>
    13e8:	0ec0246f          	jal	x8,34d4 <failedtest_x8_x7>
    13ec:	000013dc          	.word	0x000013dc
    13f0:	0000a828          	.word	0x0000a828
    13f4:	00448493          	addi	x9,x9,4

# Testcase cr_rs1_imm_edges (rs1 = 0x80000000, imm = 2)
  RVTEST_TESTDATA_LOAD_INT(x19, x20) # load rs1: x20 = 0x80000000
    13f8:	0009aa03          	lw	x20,0(x19)
    13fc:	00498993          	addi	x19,x19,4

00001400 <I_addi_cg_cr_rs1_imm_edges_rs1val_0x80000000_immval_0x2>:
I_addi_cg_cr_rs1_imm_edges_rs1val_0x80000000_immval_0x2:
  addi x29, x20, 2 # perform operation
    1400:	002a0e93          	addi	x29,x20,2
  # Check if x29 contains the expected result. x9 is the signature ptr, x8 is the link ptr, x7 is a temp reg.
  RVTEST_SIGUPD(x9, x8, x7, x29, I_addi_cg_cr_rs1_imm_edges_rs1val_0x80000000_immval_0x2, I_addi_cg_cr_rs1_imm_edges_rs1val_0x80000000_immval_0x2_str)
    1404:	0004a383          	lw	x7,0(x9)
    1408:	01d38863          	beq	x7,x29,1418 <I_addi_cg_cr_rs1_imm_edges_rs1val_0x80000000_immval_0x2+0x18>
    140c:	0c80246f          	jal	x8,34d4 <failedtest_x8_x7>
    1410:	00001400          	.word	0x00001400
    1414:	0000a87d          	.word	0x0000a87d
    1418:	00448493          	addi	x9,x9,4

# Testcase cr_rs1_imm_edges (rs1 = 0x80000000, imm = 3)
  RVTEST_TESTDATA_LOAD_INT(x19, x1) # load rs1: x1 = 0x80000000
    141c:	0009a083          	lw	x1,0(x19)
    1420:	00498993          	addi	x19,x19,4

00001424 <I_addi_cg_cr_rs1_imm_edges_rs1val_0x80000000_immval_0x3>:
I_addi_cg_cr_rs1_imm_edges_rs1val_0x80000000_immval_0x3:
  addi x5, x1, 3 # perform operation
    1424:	00308293          	addi	x5,x1,3
  # Check if x5 contains the expected result. x9 is the signature ptr, x8 is the link ptr, x7 is a temp reg.
  RVTEST_SIGUPD(x9, x8, x7, x5, I_addi_cg_cr_rs1_imm_edges_rs1val_0x80000000_immval_0x3, I_addi_cg_cr_rs1_imm_edges_rs1val_0x80000000_immval_0x3_str)
    1428:	0004a383          	lw	x7,0(x9)
    142c:	00538863          	beq	x7,x5,143c <I_addi_cg_cr_rs1_imm_edges_rs1val_0x80000000_immval_0x3+0x18>
    1430:	0a40246f          	jal	x8,34d4 <failedtest_x8_x7>
    1434:	00001424          	.word	0x00001424
    1438:	0000a8d2          	.word	0x0000a8d2
    143c:	00448493          	addi	x9,x9,4

# Testcase cr_rs1_imm_edges (rs1 = 0x80000000, imm = 4)
  RVTEST_TESTDATA_LOAD_INT(x19, x26) # load rs1: x26 = 0x80000000
    1440:	0009ad03          	lw	x26,0(x19)
    1444:	00498993          	addi	x19,x19,4

00001448 <I_addi_cg_cr_rs1_imm_edges_rs1val_0x80000000_immval_0x4>:
I_addi_cg_cr_rs1_imm_edges_rs1val_0x80000000_immval_0x4:
  addi x11, x26, 4 # perform operation
    1448:	004d0593          	addi	x11,x26,4
  # Check if x11 contains the expected result. x9 is the signature ptr, x8 is the link ptr, x7 is a temp reg.
  RVTEST_SIGUPD(x9, x8, x7, x11, I_addi_cg_cr_rs1_imm_edges_rs1val_0x80000000_immval_0x4, I_addi_cg_cr_rs1_imm_edges_rs1val_0x80000000_immval_0x4_str)
    144c:	0004a383          	lw	x7,0(x9)
    1450:	00b38863          	beq	x7,x11,1460 <I_addi_cg_cr_rs1_imm_edges_rs1val_0x80000000_immval_0x4+0x18>
    1454:	0800246f          	jal	x8,34d4 <failedtest_x8_x7>
    1458:	00001448          	.word	0x00001448
    145c:	0000a927          	.word	0x0000a927
    1460:	00448493          	addi	x9,x9,4

# Testcase cr_rs1_imm_edges (rs1 = 0x80000000, imm = 8)
  RVTEST_TESTDATA_LOAD_INT(x19, x25) # load rs1: x25 = 0x80000000
    1464:	0009ac83          	lw	x25,0(x19)
    1468:	00498993          	addi	x19,x19,4

0000146c <I_addi_cg_cr_rs1_imm_edges_rs1val_0x80000000_immval_0x8>:
I_addi_cg_cr_rs1_imm_edges_rs1val_0x80000000_immval_0x8:
  addi x1, x25, 8 # perform operation
    146c:	008c8093          	addi	x1,x25,8
  # Check if x1 contains the expected result. x9 is the signature ptr, x8 is the link ptr, x7 is a temp reg.
  RVTEST_SIGUPD(x9, x8, x7, x1, I_addi_cg_cr_rs1_imm_edges_rs1val_0x80000000_immval_0x8, I_addi_cg_cr_rs1_imm_edges_rs1val_0x80000000_immval_0x8_str)
    1470:	0004a383          	lw	x7,0(x9)
    1474:	00138863          	beq	x7,x1,1484 <I_addi_cg_cr_rs1_imm_edges_rs1val_0x80000000_immval_0x8+0x18>
    1478:	05c0246f          	jal	x8,34d4 <failedtest_x8_x7>
    147c:	0000146c          	.word	0x0000146c
    1480:	0000a97c          	.word	0x0000a97c
    1484:	00448493          	addi	x9,x9,4

# Testcase cr_rs1_imm_edges (rs1 = 0x80000000, imm = 16)
  RVTEST_TESTDATA_LOAD_INT(x19, x6) # load rs1: x6 = 0x80000000
    1488:	0009a303          	lw	x6,0(x19)
    148c:	00498993          	addi	x19,x19,4

00001490 <I_addi_cg_cr_rs1_imm_edges_rs1val_0x80000000_immval_0x10>:
I_addi_cg_cr_rs1_imm_edges_rs1val_0x80000000_immval_0x10:
  addi x14, x6, 16 # perform operation
    1490:	01030713          	addi	x14,x6,16
  # Check if x14 contains the expected result. x9 is the signature ptr, x8 is the link ptr, x7 is a temp reg.
  RVTEST_SIGUPD(x9, x8, x7, x14, I_addi_cg_cr_rs1_imm_edges_rs1val_0x80000000_immval_0x10, I_addi_cg_cr_rs1_imm_edges_rs1val_0x80000000_immval_0x10_str)
    1494:	0004a383          	lw	x7,0(x9)
    1498:	00e38863          	beq	x7,x14,14a8 <I_addi_cg_cr_rs1_imm_edges_rs1val_0x80000000_immval_0x10+0x18>
    149c:	0380246f          	jal	x8,34d4 <failedtest_x8_x7>
    14a0:	00001490          	.word	0x00001490
    14a4:	0000a9d1          	.word	0x0000a9d1
    14a8:	00448493          	addi	x9,x9,4

# Testcase cr_rs1_imm_edges (rs1 = 0x80000000, imm = 32)
  RVTEST_TESTDATA_LOAD_INT(x19, x10) # load rs1: x10 = 0x80000000
    14ac:	0009a503          	lw	x10,0(x19)
    14b0:	00498993          	addi	x19,x19,4

000014b4 <I_addi_cg_cr_rs1_imm_edges_rs1val_0x80000000_immval_0x20>:
I_addi_cg_cr_rs1_imm_edges_rs1val_0x80000000_immval_0x20:
  addi x26, x10, 32 # perform operation
    14b4:	02050d13          	addi	x26,x10,32
  # Check if x26 contains the expected result. x9 is the signature ptr, x8 is the link ptr, x7 is a temp reg.
  RVTEST_SIGUPD(x9, x8, x7, x26, I_addi_cg_cr_rs1_imm_edges_rs1val_0x80000000_immval_0x20, I_addi_cg_cr_rs1_imm_edges_rs1val_0x80000000_immval_0x20_str)
    14b8:	0004a383          	lw	x7,0(x9)
    14bc:	01a38863          	beq	x7,x26,14cc <I_addi_cg_cr_rs1_imm_edges_rs1val_0x80000000_immval_0x20+0x18>
    14c0:	0140246f          	jal	x8,34d4 <failedtest_x8_x7>
    14c4:	000014b4          	.word	0x000014b4
    14c8:	0000aa27          	.word	0x0000aa27
    14cc:	00448493          	addi	x9,x9,4

# Testcase cr_rs1_imm_edges (rs1 = 0x80000000, imm = 64)
  RVTEST_TESTDATA_LOAD_INT(x19, x21) # load rs1: x21 = 0x80000000
    14d0:	0009aa83          	lw	x21,0(x19)
    14d4:	00498993          	addi	x19,x19,4

000014d8 <I_addi_cg_cr_rs1_imm_edges_rs1val_0x80000000_immval_0x40>:
I_addi_cg_cr_rs1_imm_edges_rs1val_0x80000000_immval_0x40:
  addi x4, x21, 64 # perform operation
    14d8:	040a8213          	addi	x4,x21,64
  # Check if x4 contains the expected result. x9 is the signature ptr, x8 is the link ptr, x7 is a temp reg.
  RVTEST_SIGUPD(x9, x8, x7, x4, I_addi_cg_cr_rs1_imm_edges_rs1val_0x80000000_immval_0x40, I_addi_cg_cr_rs1_imm_edges_rs1val_0x80000000_immval_0x40_str)
    14dc:	0004a383          	lw	x7,0(x9)
    14e0:	00438863          	beq	x7,x4,14f0 <I_addi_cg_cr_rs1_imm_edges_rs1val_0x80000000_immval_0x40+0x18>
    14e4:	7f10146f          	jal	x8,34d4 <failedtest_x8_x7>
    14e8:	000014d8          	.word	0x000014d8
    14ec:	0000aa7d          	.word	0x0000aa7d
    14f0:	00448493          	addi	x9,x9,4

# Testcase cr_rs1_imm_edges (rs1 = 0x80000000, imm = 128)
  RVTEST_TESTDATA_LOAD_INT(x19, x3) # load rs1: x3 = 0x80000000
    14f4:	0009a183          	lw	x3,0(x19)
    14f8:	00498993          	addi	x19,x19,4

000014fc <I_addi_cg_cr_rs1_imm_edges_rs1val_0x80000000_immval_0x80>:
I_addi_cg_cr_rs1_imm_edges_rs1val_0x80000000_immval_0x80:
  addi x11, x3, 128 # perform operation
    14fc:	08018593          	addi	x11,x3,128
  # Check if x11 contains the expected result. x9 is the signature ptr, x8 is the link ptr, x7 is a temp reg.
  RVTEST_SIGUPD(x9, x8, x7, x11, I_addi_cg_cr_rs1_imm_edges_rs1val_0x80000000_immval_0x80, I_addi_cg_cr_rs1_imm_edges_rs1val_0x80000000_immval_0x80_str)
    1500:	0004a383          	lw	x7,0(x9)
    1504:	00b38863          	beq	x7,x11,1514 <I_addi_cg_cr_rs1_imm_edges_rs1val_0x80000000_immval_0x80+0x18>
    1508:	7cd0146f          	jal	x8,34d4 <failedtest_x8_x7>
    150c:	000014fc          	.word	0x000014fc
    1510:	0000aad3          	.word	0x0000aad3
    1514:	00448493          	addi	x9,x9,4

# Testcase cr_rs1_imm_edges (rs1 = 0x80000000, imm = 256)
  RVTEST_TESTDATA_LOAD_INT(x19, x31) # load rs1: x31 = 0x80000000
    1518:	0009af83          	lw	x31,0(x19)
    151c:	00498993          	addi	x19,x19,4

00001520 <I_addi_cg_cr_rs1_imm_edges_rs1val_0x80000000_immval_0x100>:
I_addi_cg_cr_rs1_imm_edges_rs1val_0x80000000_immval_0x100:
  addi x6, x31, 256 # perform operation
    1520:	100f8313          	addi	x6,x31,256
  # Check if x6 contains the expected result. x9 is the signature ptr, x8 is the link ptr, x7 is a temp reg.
  RVTEST_SIGUPD(x9, x8, x7, x6, I_addi_cg_cr_rs1_imm_edges_rs1val_0x80000000_immval_0x100, I_addi_cg_cr_rs1_imm_edges_rs1val_0x80000000_immval_0x100_str)
    1524:	0004a383          	lw	x7,0(x9)
    1528:	00638863          	beq	x7,x6,1538 <I_addi_cg_cr_rs1_imm_edges_rs1val_0x80000000_immval_0x100+0x18>
    152c:	7a90146f          	jal	x8,34d4 <failedtest_x8_x7>
    1530:	00001520          	.word	0x00001520
    1534:	0000ab29          	.word	0x0000ab29
    1538:	00448493          	addi	x9,x9,4

# Testcase cr_rs1_imm_edges (rs1 = 0x80000000, imm = 512)
  RVTEST_TESTDATA_LOAD_INT(x19, x12) # load rs1: x12 = 0x80000000
    153c:	0009a603          	lw	x12,0(x19)
    1540:	00498993          	addi	x19,x19,4

00001544 <I_addi_cg_cr_rs1_imm_edges_rs1val_0x80000000_immval_0x200>:
I_addi_cg_cr_rs1_imm_edges_rs1val_0x80000000_immval_0x200:
  addi x13, x12, 512 # perform operation
    1544:	20060693          	addi	x13,x12,512
  # Check if x13 contains the expected result. x9 is the signature ptr, x8 is the link ptr, x7 is a temp reg.
  RVTEST_SIGUPD(x9, x8, x7, x13, I_addi_cg_cr_rs1_imm_edges_rs1val_0x80000000_immval_0x200, I_addi_cg_cr_rs1_imm_edges_rs1val_0x80000000_immval_0x200_str)
    1548:	0004a383          	lw	x7,0(x9)
    154c:	00d38863          	beq	x7,x13,155c <I_addi_cg_cr_rs1_imm_edges_rs1val_0x80000000_immval_0x200+0x18>
    1550:	7850146f          	jal	x8,34d4 <failedtest_x8_x7>
    1554:	00001544          	.word	0x00001544
    1558:	0000ab80          	.word	0x0000ab80
    155c:	00448493          	addi	x9,x9,4

# Testcase cr_rs1_imm_edges (rs1 = 0x80000000, imm = 1023)
  RVTEST_TESTDATA_LOAD_INT(x19, x11) # load rs1: x11 = 0x80000000
    1560:	0009a583          	lw	x11,0(x19)
    1564:	00498993          	addi	x19,x19,4

00001568 <I_addi_cg_cr_rs1_imm_edges_rs1val_0x80000000_immval_0x3ff>:
I_addi_cg_cr_rs1_imm_edges_rs1val_0x80000000_immval_0x3ff:
  addi x24, x11, 1023 # perform operation
    1568:	3ff58c13          	addi	x24,x11,1023
  # Check if x24 contains the expected result. x9 is the signature ptr, x8 is the link ptr, x7 is a temp reg.
  RVTEST_SIGUPD(x9, x8, x7, x24, I_addi_cg_cr_rs1_imm_edges_rs1val_0x80000000_immval_0x3ff, I_addi_cg_cr_rs1_imm_edges_rs1val_0x80000000_immval_0x3ff_str)
    156c:	0004a383          	lw	x7,0(x9)
    1570:	01838863          	beq	x7,x24,1580 <I_addi_cg_cr_rs1_imm_edges_rs1val_0x80000000_immval_0x3ff+0x18>
    1574:	7610146f          	jal	x8,34d4 <failedtest_x8_x7>
    1578:	00001568          	.word	0x00001568
    157c:	0000abd7          	.word	0x0000abd7
    1580:	00448493          	addi	x9,x9,4

# Testcase cr_rs1_imm_edges (rs1 = 0x80000000, imm = 1024)
  RVTEST_TESTDATA_LOAD_INT(x19, x13) # load rs1: x13 = 0x80000000
    1584:	0009a683          	lw	x13,0(x19)
    1588:	00498993          	addi	x19,x19,4

0000158c <I_addi_cg_cr_rs1_imm_edges_rs1val_0x80000000_immval_0x400>:
I_addi_cg_cr_rs1_imm_edges_rs1val_0x80000000_immval_0x400:
  addi x22, x13, 1024 # perform operation
    158c:	40068b13          	addi	x22,x13,1024
  # Check if x22 contains the expected result. x9 is the signature ptr, x8 is the link ptr, x7 is a temp reg.
  RVTEST_SIGUPD(x9, x8, x7, x22, I_addi_cg_cr_rs1_imm_edges_rs1val_0x80000000_immval_0x400, I_addi_cg_cr_rs1_imm_edges_rs1val_0x80000000_immval_0x400_str)
    1590:	0004a383          	lw	x7,0(x9)
    1594:	01638863          	beq	x7,x22,15a4 <I_addi_cg_cr_rs1_imm_edges_rs1val_0x80000000_immval_0x400+0x18>
    1598:	73d0146f          	jal	x8,34d4 <failedtest_x8_x7>
    159c:	0000158c          	.word	0x0000158c
    15a0:	0000ac2e          	.word	0x0000ac2e
    15a4:	00448493          	addi	x9,x9,4

# Testcase cr_rs1_imm_edges (rs1 = 0x80000000, imm = 1795)
  RVTEST_TESTDATA_LOAD_INT(x19, x17) # load rs1: x17 = 0x80000000
    15a8:	0009a883          	lw	x17,0(x19)
    15ac:	00498993          	addi	x19,x19,4

000015b0 <I_addi_cg_cr_rs1_imm_edges_rs1val_0x80000000_immval_0x703>:
I_addi_cg_cr_rs1_imm_edges_rs1val_0x80000000_immval_0x703:
  addi x28, x17, 1795 # perform operation
    15b0:	70388e13          	addi	x28,x17,1795
  # Check if x28 contains the expected result. x9 is the signature ptr, x8 is the link ptr, x7 is a temp reg.
  RVTEST_SIGUPD(x9, x8, x7, x28, I_addi_cg_cr_rs1_imm_edges_rs1val_0x80000000_immval_0x703, I_addi_cg_cr_rs1_imm_edges_rs1val_0x80000000_immval_0x703_str)
    15b4:	0004a383          	lw	x7,0(x9)
    15b8:	01c38863          	beq	x7,x28,15c8 <I_addi_cg_cr_rs1_imm_edges_rs1val_0x80000000_immval_0x703+0x18>
    15bc:	7190146f          	jal	x8,34d4 <failedtest_x8_x7>
    15c0:	000015b0          	.word	0x000015b0
    15c4:	0000ac85          	.word	0x0000ac85
    15c8:	00448493          	addi	x9,x9,4

# Testcase cr_rs1_imm_edges (rs1 = 0x80000000, imm = 2047)
  RVTEST_TESTDATA_LOAD_INT(x19, x16) # load rs1: x16 = 0x80000000
    15cc:	0009a803          	lw	x16,0(x19)
    15d0:	00498993          	addi	x19,x19,4

000015d4 <I_addi_cg_cr_rs1_imm_edges_rs1val_0x80000000_immval_0x7ff>:
I_addi_cg_cr_rs1_imm_edges_rs1val_0x80000000_immval_0x7ff:
  addi x26, x16, 2047 # perform operation
    15d4:	7ff80d13          	addi	x26,x16,2047
  # Check if x26 contains the expected result. x9 is the signature ptr, x8 is the link ptr, x7 is a temp reg.
  RVTEST_SIGUPD(x9, x8, x7, x26, I_addi_cg_cr_rs1_imm_edges_rs1val_0x80000000_immval_0x7ff, I_addi_cg_cr_rs1_imm_edges_rs1val_0x80000000_immval_0x7ff_str)
    15d8:	0004a383          	lw	x7,0(x9)
    15dc:	01a38863          	beq	x7,x26,15ec <I_addi_cg_cr_rs1_imm_edges_rs1val_0x80000000_immval_0x7ff+0x18>
    15e0:	6f50146f          	jal	x8,34d4 <failedtest_x8_x7>
    15e4:	000015d4          	.word	0x000015d4
    15e8:	0000acdc          	.word	0x0000acdc
    15ec:	00448493          	addi	x9,x9,4

# Testcase cr_rs1_imm_edges (rs1 = 0x80000000, imm = -2048)
  RVTEST_TESTDATA_LOAD_INT(x19, x3) # load rs1: x3 = 0x80000000
    15f0:	0009a183          	lw	x3,0(x19)
    15f4:	00498993          	addi	x19,x19,4

000015f8 <I_addi_cg_cr_rs1_imm_edges_rs1val_0x80000000_immval_m0x800>:
I_addi_cg_cr_rs1_imm_edges_rs1val_0x80000000_immval_m0x800:
  addi x11, x3, -2048 # perform operation
    15f8:	80018593          	addi	x11,x3,-2048
  # Check if x11 contains the expected result. x9 is the signature ptr, x8 is the link ptr, x7 is a temp reg.
  RVTEST_SIGUPD(x9, x8, x7, x11, I_addi_cg_cr_rs1_imm_edges_rs1val_0x80000000_immval_m0x800, I_addi_cg_cr_rs1_imm_edges_rs1val_0x80000000_immval_m0x800_str)
    15fc:	0004a383          	lw	x7,0(x9)
    1600:	00b38863          	beq	x7,x11,1610 <I_addi_cg_cr_rs1_imm_edges_rs1val_0x80000000_immval_m0x800+0x18>
    1604:	6d10146f          	jal	x8,34d4 <failedtest_x8_x7>
    1608:	000015f8          	.word	0x000015f8
    160c:	0000ad33          	.word	0x0000ad33
    1610:	00448493          	addi	x9,x9,4

# Testcase cr_rs1_imm_edges (rs1 = 0x80000000, imm = -2047)
  RVTEST_TESTDATA_LOAD_INT(x19, x26) # load rs1: x26 = 0x80000000
    1614:	0009ad03          	lw	x26,0(x19)
    1618:	00498993          	addi	x19,x19,4

0000161c <I_addi_cg_cr_rs1_imm_edges_rs1val_0x80000000_immval_m0x7ff>:
I_addi_cg_cr_rs1_imm_edges_rs1val_0x80000000_immval_m0x7ff:
  addi x30, x26, -2047 # perform operation
    161c:	801d0f13          	addi	x30,x26,-2047
  # Check if x30 contains the expected result. x9 is the signature ptr, x8 is the link ptr, x7 is a temp reg.
  RVTEST_SIGUPD(x9, x8, x7, x30, I_addi_cg_cr_rs1_imm_edges_rs1val_0x80000000_immval_m0x7ff, I_addi_cg_cr_rs1_imm_edges_rs1val_0x80000000_immval_m0x7ff_str)
    1620:	0004a383          	lw	x7,0(x9)
    1624:	01e38863          	beq	x7,x30,1634 <I_addi_cg_cr_rs1_imm_edges_rs1val_0x80000000_immval_m0x7ff+0x18>
    1628:	6ad0146f          	jal	x8,34d4 <failedtest_x8_x7>
    162c:	0000161c          	.word	0x0000161c
    1630:	0000ad8b          	.word	0x0000ad8b
    1634:	00448493          	addi	x9,x9,4

# Testcase cr_rs1_imm_edges (rs1 = 0x80000000, imm = -2)
  RVTEST_TESTDATA_LOAD_INT(x19, x28) # load rs1: x28 = 0x80000000
    1638:	0009ae03          	lw	x28,0(x19)
    163c:	00498993          	addi	x19,x19,4

00001640 <I_addi_cg_cr_rs1_imm_edges_rs1val_0x80000000_immval_m0x2>:
I_addi_cg_cr_rs1_imm_edges_rs1val_0x80000000_immval_m0x2:
  addi x26, x28, -2 # perform operation
    1640:	ffee0d13          	addi	x26,x28,-2
  # Check if x26 contains the expected result. x9 is the signature ptr, x8 is the link ptr, x7 is a temp reg.
  RVTEST_SIGUPD(x9, x8, x7, x26, I_addi_cg_cr_rs1_imm_edges_rs1val_0x80000000_immval_m0x2, I_addi_cg_cr_rs1_imm_edges_rs1val_0x80000000_immval_m0x2_str)
    1644:	0004a383          	lw	x7,0(x9)
    1648:	01a38863          	beq	x7,x26,1658 <I_addi_cg_cr_rs1_imm_edges_rs1val_0x80000000_immval_m0x2+0x18>
    164c:	6890146f          	jal	x8,34d4 <failedtest_x8_x7>
    1650:	00001640          	.word	0x00001640
    1654:	0000ade3          	.word	0x0000ade3
    1658:	00448493          	addi	x9,x9,4

# Testcase cr_rs1_imm_edges (rs1 = 0x80000000, imm = -1)
  RVTEST_TESTDATA_LOAD_INT(x19, x14) # load rs1: x14 = 0x80000000
    165c:	0009a703          	lw	x14,0(x19)
    1660:	00498993          	addi	x19,x19,4

00001664 <I_addi_cg_cr_rs1_imm_edges_rs1val_0x80000000_immval_m0x1>:
I_addi_cg_cr_rs1_imm_edges_rs1val_0x80000000_immval_m0x1:
  addi x28, x14, -1 # perform operation
    1664:	fff70e13          	addi	x28,x14,-1
  # Check if x28 contains the expected result. x9 is the signature ptr, x8 is the link ptr, x7 is a temp reg.
  RVTEST_SIGUPD(x9, x8, x7, x28, I_addi_cg_cr_rs1_imm_edges_rs1val_0x80000000_immval_m0x1, I_addi_cg_cr_rs1_imm_edges_rs1val_0x80000000_immval_m0x1_str)
    1668:	0004a383          	lw	x7,0(x9)
    166c:	01c38863          	beq	x7,x28,167c <I_addi_cg_cr_rs1_imm_edges_rs1val_0x80000000_immval_m0x1+0x18>
    1670:	6650146f          	jal	x8,34d4 <failedtest_x8_x7>
    1674:	00001664          	.word	0x00001664
    1678:	0000ae39          	.word	0x0000ae39
    167c:	00448493          	addi	x9,x9,4

# Testcase cr_rs1_imm_edges (rs1 = 0x80000001, imm = 0)
  RVTEST_TESTDATA_LOAD_INT(x19, x21) # load rs1: x21 = 0x80000001
    1680:	0009aa83          	lw	x21,0(x19)
    1684:	00498993          	addi	x19,x19,4

00001688 <I_addi_cg_cr_rs1_imm_edges_rs1val_0x80000001_immval_0x0>:
I_addi_cg_cr_rs1_imm_edges_rs1val_0x80000001_immval_0x0:
  addi x16, x21, 0 # perform operation
    1688:	000a8813          	addi	x16,x21,0
  # Check if x16 contains the expected result. x9 is the signature ptr, x8 is the link ptr, x7 is a temp reg.
  RVTEST_SIGUPD(x9, x8, x7, x16, I_addi_cg_cr_rs1_imm_edges_rs1val_0x80000001_immval_0x0, I_addi_cg_cr_rs1_imm_edges_rs1val_0x80000001_immval_0x0_str)
    168c:	0004a383          	lw	x7,0(x9)
    1690:	01038863          	beq	x7,x16,16a0 <I_addi_cg_cr_rs1_imm_edges_rs1val_0x80000001_immval_0x0+0x18>
    1694:	6410146f          	jal	x8,34d4 <failedtest_x8_x7>
    1698:	00001688          	.word	0x00001688
    169c:	0000ae8f          	.word	0x0000ae8f
    16a0:	00448493          	addi	x9,x9,4

# Testcase cr_rs1_imm_edges (rs1 = 0x80000001, imm = 1)
  RVTEST_TESTDATA_LOAD_INT(x19, x24) # load rs1: x24 = 0x80000001
    16a4:	0009ac03          	lw	x24,0(x19)
    16a8:	00498993          	addi	x19,x19,4

000016ac <I_addi_cg_cr_rs1_imm_edges_rs1val_0x80000001_immval_0x1>:
I_addi_cg_cr_rs1_imm_edges_rs1val_0x80000001_immval_0x1:
  addi x22, x24, 1 # perform operation
    16ac:	001c0b13          	addi	x22,x24,1
  # Check if x22 contains the expected result. x9 is the signature ptr, x8 is the link ptr, x7 is a temp reg.
  RVTEST_SIGUPD(x9, x8, x7, x22, I_addi_cg_cr_rs1_imm_edges_rs1val_0x80000001_immval_0x1, I_addi_cg_cr_rs1_imm_edges_rs1val_0x80000001_immval_0x1_str)
    16b0:	0004a383          	lw	x7,0(x9)
    16b4:	01638863          	beq	x7,x22,16c4 <I_addi_cg_cr_rs1_imm_edges_rs1val_0x80000001_immval_0x1+0x18>
    16b8:	61d0146f          	jal	x8,34d4 <failedtest_x8_x7>
    16bc:	000016ac          	.word	0x000016ac
    16c0:	0000aee4          	.word	0x0000aee4
    16c4:	00448493          	addi	x9,x9,4

# Testcase cr_rs1_imm_edges (rs1 = 0x80000001, imm = 2)
  RVTEST_TESTDATA_LOAD_INT(x19, x12) # load rs1: x12 = 0x80000001
    16c8:	0009a603          	lw	x12,0(x19)
    16cc:	00498993          	addi	x19,x19,4

000016d0 <I_addi_cg_cr_rs1_imm_edges_rs1val_0x80000001_immval_0x2>:
I_addi_cg_cr_rs1_imm_edges_rs1val_0x80000001_immval_0x2:
  addi x17, x12, 2 # perform operation
    16d0:	00260893          	addi	x17,x12,2
  # Check if x17 contains the expected result. x9 is the signature ptr, x8 is the link ptr, x7 is a temp reg.
  RVTEST_SIGUPD(x9, x8, x7, x17, I_addi_cg_cr_rs1_imm_edges_rs1val_0x80000001_immval_0x2, I_addi_cg_cr_rs1_imm_edges_rs1val_0x80000001_immval_0x2_str)
    16d4:	0004a383          	lw	x7,0(x9)
    16d8:	01138863          	beq	x7,x17,16e8 <I_addi_cg_cr_rs1_imm_edges_rs1val_0x80000001_immval_0x2+0x18>
    16dc:	5f90146f          	jal	x8,34d4 <failedtest_x8_x7>
    16e0:	000016d0          	.word	0x000016d0
    16e4:	0000af39          	.word	0x0000af39
    16e8:	00448493          	addi	x9,x9,4

# Testcase cr_rs1_imm_edges (rs1 = 0x80000001, imm = 3)
  RVTEST_TESTDATA_LOAD_INT(x19, x11) # load rs1: x11 = 0x80000001
    16ec:	0009a583          	lw	x11,0(x19)
    16f0:	00498993          	addi	x19,x19,4

000016f4 <I_addi_cg_cr_rs1_imm_edges_rs1val_0x80000001_immval_0x3>:
I_addi_cg_cr_rs1_imm_edges_rs1val_0x80000001_immval_0x3:
  addi x30, x11, 3 # perform operation
    16f4:	00358f13          	addi	x30,x11,3
  # Check if x30 contains the expected result. x9 is the signature ptr, x8 is the link ptr, x7 is a temp reg.
  RVTEST_SIGUPD(x9, x8, x7, x30, I_addi_cg_cr_rs1_imm_edges_rs1val_0x80000001_immval_0x3, I_addi_cg_cr_rs1_imm_edges_rs1val_0x80000001_immval_0x3_str)
    16f8:	0004a383          	lw	x7,0(x9)
    16fc:	01e38863          	beq	x7,x30,170c <I_addi_cg_cr_rs1_imm_edges_rs1val_0x80000001_immval_0x3+0x18>
    1700:	5d50146f          	jal	x8,34d4 <failedtest_x8_x7>
    1704:	000016f4          	.word	0x000016f4
    1708:	0000af8e          	.word	0x0000af8e
    170c:	00448493          	addi	x9,x9,4

# Testcase cr_rs1_imm_edges (rs1 = 0x80000001, imm = 4)
  RVTEST_TESTDATA_LOAD_INT(x19, x16) # load rs1: x16 = 0x80000001
    1710:	0009a803          	lw	x16,0(x19)
    1714:	00498993          	addi	x19,x19,4

00001718 <I_addi_cg_cr_rs1_imm_edges_rs1val_0x80000001_immval_0x4>:
I_addi_cg_cr_rs1_imm_edges_rs1val_0x80000001_immval_0x4:
  addi x18, x16, 4 # perform operation
    1718:	00480913          	addi	x18,x16,4
  # Check if x18 contains the expected result. x9 is the signature ptr, x8 is the link ptr, x7 is a temp reg.
  RVTEST_SIGUPD(x9, x8, x7, x18, I_addi_cg_cr_rs1_imm_edges_rs1val_0x80000001_immval_0x4, I_addi_cg_cr_rs1_imm_edges_rs1val_0x80000001_immval_0x4_str)
    171c:	0004a383          	lw	x7,0(x9)
    1720:	01238863          	beq	x7,x18,1730 <I_addi_cg_cr_rs1_imm_edges_rs1val_0x80000001_immval_0x4+0x18>
    1724:	5b10146f          	jal	x8,34d4 <failedtest_x8_x7>
    1728:	00001718          	.word	0x00001718
    172c:	0000afe3          	.word	0x0000afe3
    1730:	00448493          	addi	x9,x9,4

# Testcase cr_rs1_imm_edges (rs1 = 0x80000001, imm = 8)
  RVTEST_TESTDATA_LOAD_INT(x19, x4) # load rs1: x4 = 0x80000001
    1734:	0009a203          	lw	x4,0(x19)
    1738:	00498993          	addi	x19,x19,4

0000173c <I_addi_cg_cr_rs1_imm_edges_rs1val_0x80000001_immval_0x8>:
I_addi_cg_cr_rs1_imm_edges_rs1val_0x80000001_immval_0x8:
  addi x24, x4, 8 # perform operation
    173c:	00820c13          	addi	x24,x4,8 # 8 <MMODE_SIG+0x5>
  # Check if x24 contains the expected result. x9 is the signature ptr, x8 is the link ptr, x7 is a temp reg.
  RVTEST_SIGUPD(x9, x8, x7, x24, I_addi_cg_cr_rs1_imm_edges_rs1val_0x80000001_immval_0x8, I_addi_cg_cr_rs1_imm_edges_rs1val_0x80000001_immval_0x8_str)
    1740:	0004a383          	lw	x7,0(x9)
    1744:	01838863          	beq	x7,x24,1754 <I_addi_cg_cr_rs1_imm_edges_rs1val_0x80000001_immval_0x8+0x18>
    1748:	58d0146f          	jal	x8,34d4 <failedtest_x8_x7>
    174c:	0000173c          	.word	0x0000173c
    1750:	0000b038          	.word	0x0000b038
    1754:	00448493          	addi	x9,x9,4

# Testcase cr_rs1_imm_edges (rs1 = 0x80000001, imm = 16)
  RVTEST_TESTDATA_LOAD_INT(x19, x31) # load rs1: x31 = 0x80000001
    1758:	0009af83          	lw	x31,0(x19)
    175c:	00498993          	addi	x19,x19,4

00001760 <I_addi_cg_cr_rs1_imm_edges_rs1val_0x80000001_immval_0x10>:
I_addi_cg_cr_rs1_imm_edges_rs1val_0x80000001_immval_0x10:
  addi x23, x31, 16 # perform operation
    1760:	010f8b93          	addi	x23,x31,16
  # Check if x23 contains the expected result. x9 is the signature ptr, x8 is the link ptr, x7 is a temp reg.
  RVTEST_SIGUPD(x9, x8, x7, x23, I_addi_cg_cr_rs1_imm_edges_rs1val_0x80000001_immval_0x10, I_addi_cg_cr_rs1_imm_edges_rs1val_0x80000001_immval_0x10_str)
    1764:	0004a383          	lw	x7,0(x9)
    1768:	01738863          	beq	x7,x23,1778 <I_addi_cg_cr_rs1_imm_edges_rs1val_0x80000001_immval_0x10+0x18>
    176c:	5690146f          	jal	x8,34d4 <failedtest_x8_x7>
    1770:	00001760          	.word	0x00001760
    1774:	0000b08d          	.word	0x0000b08d
    1778:	00448493          	addi	x9,x9,4

# Testcase cr_rs1_imm_edges (rs1 = 0x80000001, imm = 32)
  RVTEST_TESTDATA_LOAD_INT(x19, x22) # load rs1: x22 = 0x80000001
    177c:	0009ab03          	lw	x22,0(x19)
    1780:	00498993          	addi	x19,x19,4

00001784 <I_addi_cg_cr_rs1_imm_edges_rs1val_0x80000001_immval_0x20>:
I_addi_cg_cr_rs1_imm_edges_rs1val_0x80000001_immval_0x20:
  addi x28, x22, 32 # perform operation
    1784:	020b0e13          	addi	x28,x22,32
  # Check if x28 contains the expected result. x9 is the signature ptr, x8 is the link ptr, x7 is a temp reg.
  RVTEST_SIGUPD(x9, x8, x7, x28, I_addi_cg_cr_rs1_imm_edges_rs1val_0x80000001_immval_0x20, I_addi_cg_cr_rs1_imm_edges_rs1val_0x80000001_immval_0x20_str)
    1788:	0004a383          	lw	x7,0(x9)
    178c:	01c38863          	beq	x7,x28,179c <I_addi_cg_cr_rs1_imm_edges_rs1val_0x80000001_immval_0x20+0x18>
    1790:	5450146f          	jal	x8,34d4 <failedtest_x8_x7>
    1794:	00001784          	.word	0x00001784
    1798:	0000b0e3          	.word	0x0000b0e3
    179c:	00448493          	addi	x9,x9,4

# Testcase cr_rs1_imm_edges (rs1 = 0x80000001, imm = 64)
  RVTEST_TESTDATA_LOAD_INT(x19, x25) # load rs1: x25 = 0x80000001
    17a0:	0009ac83          	lw	x25,0(x19)
    17a4:	00498993          	addi	x19,x19,4

000017a8 <I_addi_cg_cr_rs1_imm_edges_rs1val_0x80000001_immval_0x40>:
I_addi_cg_cr_rs1_imm_edges_rs1val_0x80000001_immval_0x40:
  addi x11, x25, 64 # perform operation
    17a8:	040c8593          	addi	x11,x25,64
  # Check if x11 contains the expected result. x9 is the signature ptr, x8 is the link ptr, x7 is a temp reg.
  RVTEST_SIGUPD(x9, x8, x7, x11, I_addi_cg_cr_rs1_imm_edges_rs1val_0x80000001_immval_0x40, I_addi_cg_cr_rs1_imm_edges_rs1val_0x80000001_immval_0x40_str)
    17ac:	0004a383          	lw	x7,0(x9)
    17b0:	00b38863          	beq	x7,x11,17c0 <I_addi_cg_cr_rs1_imm_edges_rs1val_0x80000001_immval_0x40+0x18>
    17b4:	5210146f          	jal	x8,34d4 <failedtest_x8_x7>
    17b8:	000017a8          	.word	0x000017a8
    17bc:	0000b139          	.word	0x0000b139
    17c0:	00448493          	addi	x9,x9,4

# Testcase cr_rs1_imm_edges (rs1 = 0x80000001, imm = 128)
  RVTEST_TESTDATA_LOAD_INT(x19, x29) # load rs1: x29 = 0x80000001
    17c4:	0009ae83          	lw	x29,0(x19)
    17c8:	00498993          	addi	x19,x19,4

000017cc <I_addi_cg_cr_rs1_imm_edges_rs1val_0x80000001_immval_0x80>:
I_addi_cg_cr_rs1_imm_edges_rs1val_0x80000001_immval_0x80:
  addi x15, x29, 128 # perform operation
    17cc:	080e8793          	addi	x15,x29,128
  # Check if x15 contains the expected result. x9 is the signature ptr, x8 is the link ptr, x7 is a temp reg.
  RVTEST_SIGUPD(x9, x8, x7, x15, I_addi_cg_cr_rs1_imm_edges_rs1val_0x80000001_immval_0x80, I_addi_cg_cr_rs1_imm_edges_rs1val_0x80000001_immval_0x80_str)
    17d0:	0004a383          	lw	x7,0(x9)
    17d4:	00f38863          	beq	x7,x15,17e4 <I_addi_cg_cr_rs1_imm_edges_rs1val_0x80000001_immval_0x80+0x18>
    17d8:	4fd0146f          	jal	x8,34d4 <failedtest_x8_x7>
    17dc:	000017cc          	.word	0x000017cc
    17e0:	0000b18f          	.word	0x0000b18f
    17e4:	00448493          	addi	x9,x9,4

# Testcase cr_rs1_imm_edges (rs1 = 0x80000001, imm = 256)
  RVTEST_TESTDATA_LOAD_INT(x19, x12) # load rs1: x12 = 0x80000001
    17e8:	0009a603          	lw	x12,0(x19)
    17ec:	00498993          	addi	x19,x19,4

000017f0 <I_addi_cg_cr_rs1_imm_edges_rs1val_0x80000001_immval_0x100>:
I_addi_cg_cr_rs1_imm_edges_rs1val_0x80000001_immval_0x100:
  addi x25, x12, 256 # perform operation
    17f0:	10060c93          	addi	x25,x12,256
  # Check if x25 contains the expected result. x9 is the signature ptr, x8 is the link ptr, x7 is a temp reg.
  RVTEST_SIGUPD(x9, x8, x7, x25, I_addi_cg_cr_rs1_imm_edges_rs1val_0x80000001_immval_0x100, I_addi_cg_cr_rs1_imm_edges_rs1val_0x80000001_immval_0x100_str)
    17f4:	0004a383          	lw	x7,0(x9)
    17f8:	01938863          	beq	x7,x25,1808 <I_addi_cg_cr_rs1_imm_edges_rs1val_0x80000001_immval_0x100+0x18>
    17fc:	4d90146f          	jal	x8,34d4 <failedtest_x8_x7>
    1800:	000017f0          	.word	0x000017f0
    1804:	0000b1e5          	.word	0x0000b1e5
    1808:	00448493          	addi	x9,x9,4

# Testcase cr_rs1_imm_edges (rs1 = 0x80000001, imm = 512)
  RVTEST_TESTDATA_LOAD_INT(x19, x10) # load rs1: x10 = 0x80000001
    180c:	0009a503          	lw	x10,0(x19)
    1810:	00498993          	addi	x19,x19,4

00001814 <I_addi_cg_cr_rs1_imm_edges_rs1val_0x80000001_immval_0x200>:
I_addi_cg_cr_rs1_imm_edges_rs1val_0x80000001_immval_0x200:
  addi x2, x10, 512 # perform operation
    1814:	20050113          	addi	x2,x10,512
  # Check if x2 contains the expected result. x9 is the signature ptr, x8 is the link ptr, x7 is a temp reg.
  RVTEST_SIGUPD(x9, x8, x7, x2, I_addi_cg_cr_rs1_imm_edges_rs1val_0x80000001_immval_0x200, I_addi_cg_cr_rs1_imm_edges_rs1val_0x80000001_immval_0x200_str)
    1818:	0004a383          	lw	x7,0(x9)
    181c:	00238863          	beq	x7,x2,182c <I_addi_cg_cr_rs1_imm_edges_rs1val_0x80000001_immval_0x200+0x18>
    1820:	4b50146f          	jal	x8,34d4 <failedtest_x8_x7>
    1824:	00001814          	.word	0x00001814
    1828:	0000b23c          	.word	0x0000b23c
    182c:	00448493          	addi	x9,x9,4

# Testcase cr_rs1_imm_edges (rs1 = 0x80000001, imm = 1023)
  RVTEST_TESTDATA_LOAD_INT(x19, x26) # load rs1: x26 = 0x80000001
    1830:	0009ad03          	lw	x26,0(x19)
    1834:	00498993          	addi	x19,x19,4

00001838 <I_addi_cg_cr_rs1_imm_edges_rs1val_0x80000001_immval_0x3ff>:
I_addi_cg_cr_rs1_imm_edges_rs1val_0x80000001_immval_0x3ff:
  addi x17, x26, 1023 # perform operation
    1838:	3ffd0893          	addi	x17,x26,1023
  # Check if x17 contains the expected result. x9 is the signature ptr, x8 is the link ptr, x7 is a temp reg.
  RVTEST_SIGUPD(x9, x8, x7, x17, I_addi_cg_cr_rs1_imm_edges_rs1val_0x80000001_immval_0x3ff, I_addi_cg_cr_rs1_imm_edges_rs1val_0x80000001_immval_0x3ff_str)
    183c:	0004a383          	lw	x7,0(x9)
    1840:	01138863          	beq	x7,x17,1850 <I_addi_cg_cr_rs1_imm_edges_rs1val_0x80000001_immval_0x3ff+0x18>
    1844:	4910146f          	jal	x8,34d4 <failedtest_x8_x7>
    1848:	00001838          	.word	0x00001838
    184c:	0000b293          	.word	0x0000b293
    1850:	00448493          	addi	x9,x9,4

# Testcase cr_rs1_imm_edges (rs1 = 0x80000001, imm = 1024)
  RVTEST_TESTDATA_LOAD_INT(x19, x11) # load rs1: x11 = 0x80000001
    1854:	0009a583          	lw	x11,0(x19)
    1858:	00498993          	addi	x19,x19,4

0000185c <I_addi_cg_cr_rs1_imm_edges_rs1val_0x80000001_immval_0x400>:
I_addi_cg_cr_rs1_imm_edges_rs1val_0x80000001_immval_0x400:
  addi x22, x11, 1024 # perform operation
    185c:	40058b13          	addi	x22,x11,1024
  # Check if x22 contains the expected result. x9 is the signature ptr, x8 is the link ptr, x7 is a temp reg.
  RVTEST_SIGUPD(x9, x8, x7, x22, I_addi_cg_cr_rs1_imm_edges_rs1val_0x80000001_immval_0x400, I_addi_cg_cr_rs1_imm_edges_rs1val_0x80000001_immval_0x400_str)
    1860:	0004a383          	lw	x7,0(x9)
    1864:	01638863          	beq	x7,x22,1874 <I_addi_cg_cr_rs1_imm_edges_rs1val_0x80000001_immval_0x400+0x18>
    1868:	46d0146f          	jal	x8,34d4 <failedtest_x8_x7>
    186c:	0000185c          	.word	0x0000185c
    1870:	0000b2ea          	.word	0x0000b2ea
    1874:	00448493          	addi	x9,x9,4

# Testcase cr_rs1_imm_edges (rs1 = 0x80000001, imm = 1795)
  RVTEST_TESTDATA_LOAD_INT(x19, x29) # load rs1: x29 = 0x80000001
    1878:	0009ae83          	lw	x29,0(x19)
    187c:	00498993          	addi	x19,x19,4

00001880 <I_addi_cg_cr_rs1_imm_edges_rs1val_0x80000001_immval_0x703>:
I_addi_cg_cr_rs1_imm_edges_rs1val_0x80000001_immval_0x703:
  addi x25, x29, 1795 # perform operation
    1880:	703e8c93          	addi	x25,x29,1795
  # Check if x25 contains the expected result. x9 is the signature ptr, x8 is the link ptr, x7 is a temp reg.
  RVTEST_SIGUPD(x9, x8, x7, x25, I_addi_cg_cr_rs1_imm_edges_rs1val_0x80000001_immval_0x703, I_addi_cg_cr_rs1_imm_edges_rs1val_0x80000001_immval_0x703_str)
    1884:	0004a383          	lw	x7,0(x9)
    1888:	01938863          	beq	x7,x25,1898 <I_addi_cg_cr_rs1_imm_edges_rs1val_0x80000001_immval_0x703+0x18>
    188c:	4490146f          	jal	x8,34d4 <failedtest_x8_x7>
    1890:	00001880          	.word	0x00001880
    1894:	0000b341          	.word	0x0000b341
    1898:	00448493          	addi	x9,x9,4

# Testcase cr_rs1_imm_edges (rs1 = 0x80000001, imm = 2047)
  RVTEST_TESTDATA_LOAD_INT(x19, x1) # load rs1: x1 = 0x80000001
    189c:	0009a083          	lw	x1,0(x19)
    18a0:	00498993          	addi	x19,x19,4

000018a4 <I_addi_cg_cr_rs1_imm_edges_rs1val_0x80000001_immval_0x7ff>:
I_addi_cg_cr_rs1_imm_edges_rs1val_0x80000001_immval_0x7ff:
  addi x23, x1, 2047 # perform operation
    18a4:	7ff08b93          	addi	x23,x1,2047
  # Check if x23 contains the expected result. x9 is the signature ptr, x8 is the link ptr, x7 is a temp reg.
  RVTEST_SIGUPD(x9, x8, x7, x23, I_addi_cg_cr_rs1_imm_edges_rs1val_0x80000001_immval_0x7ff, I_addi_cg_cr_rs1_imm_edges_rs1val_0x80000001_immval_0x7ff_str)
    18a8:	0004a383          	lw	x7,0(x9)
    18ac:	01738863          	beq	x7,x23,18bc <I_addi_cg_cr_rs1_imm_edges_rs1val_0x80000001_immval_0x7ff+0x18>
    18b0:	4250146f          	jal	x8,34d4 <failedtest_x8_x7>
    18b4:	000018a4          	.word	0x000018a4
    18b8:	0000b398          	.word	0x0000b398
    18bc:	00448493          	addi	x9,x9,4

# Testcase cr_rs1_imm_edges (rs1 = 0x80000001, imm = -2048)
  RVTEST_TESTDATA_LOAD_INT(x19, x16) # load rs1: x16 = 0x80000001
    18c0:	0009a803          	lw	x16,0(x19)
    18c4:	00498993          	addi	x19,x19,4

000018c8 <I_addi_cg_cr_rs1_imm_edges_rs1val_0x80000001_immval_m0x800>:
I_addi_cg_cr_rs1_imm_edges_rs1val_0x80000001_immval_m0x800:
  addi x15, x16, -2048 # perform operation
    18c8:	80080793          	addi	x15,x16,-2048
  # Check if x15 contains the expected result. x9 is the signature ptr, x8 is the link ptr, x7 is a temp reg.
  RVTEST_SIGUPD(x9, x8, x7, x15, I_addi_cg_cr_rs1_imm_edges_rs1val_0x80000001_immval_m0x800, I_addi_cg_cr_rs1_imm_edges_rs1val_0x80000001_immval_m0x800_str)
    18cc:	0004a383          	lw	x7,0(x9)
    18d0:	00f38863          	beq	x7,x15,18e0 <I_addi_cg_cr_rs1_imm_edges_rs1val_0x80000001_immval_m0x800+0x18>
    18d4:	4010146f          	jal	x8,34d4 <failedtest_x8_x7>
    18d8:	000018c8          	.word	0x000018c8
    18dc:	0000b3ef          	.word	0x0000b3ef
    18e0:	00448493          	addi	x9,x9,4

# Testcase cr_rs1_imm_edges (rs1 = 0x80000001, imm = -2047)
  RVTEST_TESTDATA_LOAD_INT(x19, x20) # load rs1: x20 = 0x80000001
    18e4:	0009aa03          	lw	x20,0(x19)
    18e8:	00498993          	addi	x19,x19,4

000018ec <I_addi_cg_cr_rs1_imm_edges_rs1val_0x80000001_immval_m0x7ff>:
I_addi_cg_cr_rs1_imm_edges_rs1val_0x80000001_immval_m0x7ff:
  addi x13, x20, -2047 # perform operation
    18ec:	801a0693          	addi	x13,x20,-2047
  # Check if x13 contains the expected result. x9 is the signature ptr, x8 is the link ptr, x7 is a temp reg.
  RVTEST_SIGUPD(x9, x8, x7, x13, I_addi_cg_cr_rs1_imm_edges_rs1val_0x80000001_immval_m0x7ff, I_addi_cg_cr_rs1_imm_edges_rs1val_0x80000001_immval_m0x7ff_str)
    18f0:	0004a383          	lw	x7,0(x9)
    18f4:	00d38863          	beq	x7,x13,1904 <I_addi_cg_cr_rs1_imm_edges_rs1val_0x80000001_immval_m0x7ff+0x18>
    18f8:	3dd0146f          	jal	x8,34d4 <failedtest_x8_x7>
    18fc:	000018ec          	.word	0x000018ec
    1900:	0000b447          	.word	0x0000b447
    1904:	00448493          	addi	x9,x9,4

# Testcase cr_rs1_imm_edges (rs1 = 0x80000001, imm = -2)
  RVTEST_TESTDATA_LOAD_INT(x19, x6) # load rs1: x6 = 0x80000001
    1908:	0009a303          	lw	x6,0(x19)
    190c:	00498993          	addi	x19,x19,4

00001910 <I_addi_cg_cr_rs1_imm_edges_rs1val_0x80000001_immval_m0x2>:
I_addi_cg_cr_rs1_imm_edges_rs1val_0x80000001_immval_m0x2:
  addi x29, x6, -2 # perform operation
    1910:	ffe30e93          	addi	x29,x6,-2
  # Check if x29 contains the expected result. x9 is the signature ptr, x8 is the link ptr, x7 is a temp reg.
  RVTEST_SIGUPD(x9, x8, x7, x29, I_addi_cg_cr_rs1_imm_edges_rs1val_0x80000001_immval_m0x2, I_addi_cg_cr_rs1_imm_edges_rs1val_0x80000001_immval_m0x2_str)
    1914:	0004a383          	lw	x7,0(x9)
    1918:	01d38863          	beq	x7,x29,1928 <I_addi_cg_cr_rs1_imm_edges_rs1val_0x80000001_immval_m0x2+0x18>
    191c:	3b90146f          	jal	x8,34d4 <failedtest_x8_x7>
    1920:	00001910          	.word	0x00001910
    1924:	0000b49f          	.word	0x0000b49f
    1928:	00448493          	addi	x9,x9,4

# Testcase cr_rs1_imm_edges (rs1 = 0x80000001, imm = -1)
  RVTEST_TESTDATA_LOAD_INT(x19, x30) # load rs1: x30 = 0x80000001
    192c:	0009af03          	lw	x30,0(x19)
    1930:	00498993          	addi	x19,x19,4

00001934 <I_addi_cg_cr_rs1_imm_edges_rs1val_0x80000001_immval_m0x1>:
I_addi_cg_cr_rs1_imm_edges_rs1val_0x80000001_immval_m0x1:
  addi x26, x30, -1 # perform operation
    1934:	ffff0d13          	addi	x26,x30,-1
  # Check if x26 contains the expected result. x9 is the signature ptr, x8 is the link ptr, x7 is a temp reg.
  RVTEST_SIGUPD(x9, x8, x7, x26, I_addi_cg_cr_rs1_imm_edges_rs1val_0x80000001_immval_m0x1, I_addi_cg_cr_rs1_imm_edges_rs1val_0x80000001_immval_m0x1_str)
    1938:	0004a383          	lw	x7,0(x9)
    193c:	01a38863          	beq	x7,x26,194c <I_addi_cg_cr_rs1_imm_edges_rs1val_0x80000001_immval_m0x1+0x18>
    1940:	3950146f          	jal	x8,34d4 <failedtest_x8_x7>
    1944:	00001934          	.word	0x00001934
    1948:	0000b4f5          	.word	0x0000b4f5
    194c:	00448493          	addi	x9,x9,4

# Testcase cr_rs1_imm_edges (rs1 = 0x7fffffff, imm = 0)
  RVTEST_TESTDATA_LOAD_INT(x19, x11) # load rs1: x11 = 0x7fffffff
    1950:	0009a583          	lw	x11,0(x19)
    1954:	00498993          	addi	x19,x19,4

00001958 <I_addi_cg_cr_rs1_imm_edges_rs1val_0x7fffffff_immval_0x0>:
I_addi_cg_cr_rs1_imm_edges_rs1val_0x7fffffff_immval_0x0:
  addi x20, x11, 0 # perform operation
    1958:	00058a13          	addi	x20,x11,0
  # Check if x20 contains the expected result. x9 is the signature ptr, x8 is the link ptr, x7 is a temp reg.
  RVTEST_SIGUPD(x9, x8, x7, x20, I_addi_cg_cr_rs1_imm_edges_rs1val_0x7fffffff_immval_0x0, I_addi_cg_cr_rs1_imm_edges_rs1val_0x7fffffff_immval_0x0_str)
    195c:	0004a383          	lw	x7,0(x9)
    1960:	01438863          	beq	x7,x20,1970 <I_addi_cg_cr_rs1_imm_edges_rs1val_0x7fffffff_immval_0x0+0x18>
    1964:	3710146f          	jal	x8,34d4 <failedtest_x8_x7>
    1968:	00001958          	.word	0x00001958
    196c:	0000b54b          	.word	0x0000b54b
    1970:	00448493          	addi	x9,x9,4

# Testcase cr_rs1_imm_edges (rs1 = 0x7fffffff, imm = 1)
  RVTEST_TESTDATA_LOAD_INT(x19, x30) # load rs1: x30 = 0x7fffffff
    1974:	0009af03          	lw	x30,0(x19)
    1978:	00498993          	addi	x19,x19,4

0000197c <I_addi_cg_cr_rs1_imm_edges_rs1val_0x7fffffff_immval_0x1>:
I_addi_cg_cr_rs1_imm_edges_rs1val_0x7fffffff_immval_0x1:
  addi x13, x30, 1 # perform operation
    197c:	001f0693          	addi	x13,x30,1
  # Check if x13 contains the expected result. x9 is the signature ptr, x8 is the link ptr, x7 is a temp reg.
  RVTEST_SIGUPD(x9, x8, x7, x13, I_addi_cg_cr_rs1_imm_edges_rs1val_0x7fffffff_immval_0x1, I_addi_cg_cr_rs1_imm_edges_rs1val_0x7fffffff_immval_0x1_str)
    1980:	0004a383          	lw	x7,0(x9)
    1984:	00d38863          	beq	x7,x13,1994 <I_addi_cg_cr_rs1_imm_edges_rs1val_0x7fffffff_immval_0x1+0x18>
    1988:	34d0146f          	jal	x8,34d4 <failedtest_x8_x7>
    198c:	0000197c          	.word	0x0000197c
    1990:	0000b5a0          	.word	0x0000b5a0
    1994:	00448493          	addi	x9,x9,4

# Testcase cr_rs1_imm_edges (rs1 = 0x7fffffff, imm = 2)
  RVTEST_TESTDATA_LOAD_INT(x19, x16) # load rs1: x16 = 0x7fffffff
    1998:	0009a803          	lw	x16,0(x19)
    199c:	00498993          	addi	x19,x19,4

000019a0 <I_addi_cg_cr_rs1_imm_edges_rs1val_0x7fffffff_immval_0x2>:
I_addi_cg_cr_rs1_imm_edges_rs1val_0x7fffffff_immval_0x2:
  addi x22, x16, 2 # perform operation
    19a0:	00280b13          	addi	x22,x16,2
  # Check if x22 contains the expected result. x9 is the signature ptr, x8 is the link ptr, x7 is a temp reg.
  RVTEST_SIGUPD(x9, x8, x7, x22, I_addi_cg_cr_rs1_imm_edges_rs1val_0x7fffffff_immval_0x2, I_addi_cg_cr_rs1_imm_edges_rs1val_0x7fffffff_immval_0x2_str)
    19a4:	0004a383          	lw	x7,0(x9)
    19a8:	01638863          	beq	x7,x22,19b8 <I_addi_cg_cr_rs1_imm_edges_rs1val_0x7fffffff_immval_0x2+0x18>
    19ac:	3290146f          	jal	x8,34d4 <failedtest_x8_x7>
    19b0:	000019a0          	.word	0x000019a0
    19b4:	0000b5f5          	.word	0x0000b5f5
    19b8:	00448493          	addi	x9,x9,4

# Testcase cr_rs1_imm_edges (rs1 = 0x7fffffff, imm = 3)
  RVTEST_TESTDATA_LOAD_INT(x19, x27) # load rs1: x27 = 0x7fffffff
    19bc:	0009ad83          	lw	x27,0(x19)
    19c0:	00498993          	addi	x19,x19,4

000019c4 <I_addi_cg_cr_rs1_imm_edges_rs1val_0x7fffffff_immval_0x3>:
I_addi_cg_cr_rs1_imm_edges_rs1val_0x7fffffff_immval_0x3:
  addi x16, x27, 3 # perform operation
    19c4:	003d8813          	addi	x16,x27,3
  # Check if x16 contains the expected result. x9 is the signature ptr, x8 is the link ptr, x7 is a temp reg.
  RVTEST_SIGUPD(x9, x8, x7, x16, I_addi_cg_cr_rs1_imm_edges_rs1val_0x7fffffff_immval_0x3, I_addi_cg_cr_rs1_imm_edges_rs1val_0x7fffffff_immval_0x3_str)
    19c8:	0004a383          	lw	x7,0(x9)
    19cc:	01038863          	beq	x7,x16,19dc <I_addi_cg_cr_rs1_imm_edges_rs1val_0x7fffffff_immval_0x3+0x18>
    19d0:	3050146f          	jal	x8,34d4 <failedtest_x8_x7>
    19d4:	000019c4          	.word	0x000019c4
    19d8:	0000b64a          	.word	0x0000b64a
    19dc:	00448493          	addi	x9,x9,4

# Testcase cr_rs1_imm_edges (rs1 = 0x7fffffff, imm = 4)
  RVTEST_TESTDATA_LOAD_INT(x19, x26) # load rs1: x26 = 0x7fffffff
    19e0:	0009ad03          	lw	x26,0(x19)
    19e4:	00498993          	addi	x19,x19,4

000019e8 <I_addi_cg_cr_rs1_imm_edges_rs1val_0x7fffffff_immval_0x4>:
I_addi_cg_cr_rs1_imm_edges_rs1val_0x7fffffff_immval_0x4:
  addi x14, x26, 4 # perform operation
    19e8:	004d0713          	addi	x14,x26,4
  # Check if x14 contains the expected result. x9 is the signature ptr, x8 is the link ptr, x7 is a temp reg.
  RVTEST_SIGUPD(x9, x8, x7, x14, I_addi_cg_cr_rs1_imm_edges_rs1val_0x7fffffff_immval_0x4, I_addi_cg_cr_rs1_imm_edges_rs1val_0x7fffffff_immval_0x4_str)
    19ec:	0004a383          	lw	x7,0(x9)
    19f0:	00e38863          	beq	x7,x14,1a00 <I_addi_cg_cr_rs1_imm_edges_rs1val_0x7fffffff_immval_0x4+0x18>
    19f4:	2e10146f          	jal	x8,34d4 <failedtest_x8_x7>
    19f8:	000019e8          	.word	0x000019e8
    19fc:	0000b69f          	.word	0x0000b69f
    1a00:	00448493          	addi	x9,x9,4

# Testcase cr_rs1_imm_edges (rs1 = 0x7fffffff, imm = 8)
  RVTEST_TESTDATA_LOAD_INT(x19, x26) # load rs1: x26 = 0x7fffffff
    1a04:	0009ad03          	lw	x26,0(x19)
    1a08:	00498993          	addi	x19,x19,4

00001a0c <I_addi_cg_cr_rs1_imm_edges_rs1val_0x7fffffff_immval_0x8>:
I_addi_cg_cr_rs1_imm_edges_rs1val_0x7fffffff_immval_0x8:
  addi x25, x26, 8 # perform operation
    1a0c:	008d0c93          	addi	x25,x26,8
  # Check if x25 contains the expected result. x9 is the signature ptr, x8 is the link ptr, x7 is a temp reg.
  RVTEST_SIGUPD(x9, x8, x7, x25, I_addi_cg_cr_rs1_imm_edges_rs1val_0x7fffffff_immval_0x8, I_addi_cg_cr_rs1_imm_edges_rs1val_0x7fffffff_immval_0x8_str)
    1a10:	0004a383          	lw	x7,0(x9)
    1a14:	01938863          	beq	x7,x25,1a24 <I_addi_cg_cr_rs1_imm_edges_rs1val_0x7fffffff_immval_0x8+0x18>
    1a18:	2bd0146f          	jal	x8,34d4 <failedtest_x8_x7>
    1a1c:	00001a0c          	.word	0x00001a0c
    1a20:	0000b6f4          	.word	0x0000b6f4
    1a24:	00448493          	addi	x9,x9,4

# Testcase cr_rs1_imm_edges (rs1 = 0x7fffffff, imm = 16)
  RVTEST_TESTDATA_LOAD_INT(x19, x24) # load rs1: x24 = 0x7fffffff
    1a28:	0009ac03          	lw	x24,0(x19)
    1a2c:	00498993          	addi	x19,x19,4

00001a30 <I_addi_cg_cr_rs1_imm_edges_rs1val_0x7fffffff_immval_0x10>:
I_addi_cg_cr_rs1_imm_edges_rs1val_0x7fffffff_immval_0x10:
  addi x15, x24, 16 # perform operation
    1a30:	010c0793          	addi	x15,x24,16
  # Check if x15 contains the expected result. x9 is the signature ptr, x8 is the link ptr, x7 is a temp reg.
  RVTEST_SIGUPD(x9, x8, x7, x15, I_addi_cg_cr_rs1_imm_edges_rs1val_0x7fffffff_immval_0x10, I_addi_cg_cr_rs1_imm_edges_rs1val_0x7fffffff_immval_0x10_str)
    1a34:	0004a383          	lw	x7,0(x9)
    1a38:	00f38863          	beq	x7,x15,1a48 <I_addi_cg_cr_rs1_imm_edges_rs1val_0x7fffffff_immval_0x10+0x18>
    1a3c:	2990146f          	jal	x8,34d4 <failedtest_x8_x7>
    1a40:	00001a30          	.word	0x00001a30
    1a44:	0000b749          	.word	0x0000b749
    1a48:	00448493          	addi	x9,x9,4

# Testcase cr_rs1_imm_edges (rs1 = 0x7fffffff, imm = 32)
  RVTEST_TESTDATA_LOAD_INT(x19, x18) # load rs1: x18 = 0x7fffffff
    1a4c:	0009a903          	lw	x18,0(x19)
    1a50:	00498993          	addi	x19,x19,4

00001a54 <I_addi_cg_cr_rs1_imm_edges_rs1val_0x7fffffff_immval_0x20>:
I_addi_cg_cr_rs1_imm_edges_rs1val_0x7fffffff_immval_0x20:
  addi x25, x18, 32 # perform operation
    1a54:	02090c93          	addi	x25,x18,32
  # Check if x25 contains the expected result. x9 is the signature ptr, x8 is the link ptr, x7 is a temp reg.
  RVTEST_SIGUPD(x9, x8, x7, x25, I_addi_cg_cr_rs1_imm_edges_rs1val_0x7fffffff_immval_0x20, I_addi_cg_cr_rs1_imm_edges_rs1val_0x7fffffff_immval_0x20_str)
    1a58:	0004a383          	lw	x7,0(x9)
    1a5c:	01938863          	beq	x7,x25,1a6c <I_addi_cg_cr_rs1_imm_edges_rs1val_0x7fffffff_immval_0x20+0x18>
    1a60:	2750146f          	jal	x8,34d4 <failedtest_x8_x7>
    1a64:	00001a54          	.word	0x00001a54
    1a68:	0000b79f          	.word	0x0000b79f
    1a6c:	00448493          	addi	x9,x9,4

# Testcase cr_rs1_imm_edges (rs1 = 0x7fffffff, imm = 64)
  RVTEST_TESTDATA_LOAD_INT(x19, x17) # load rs1: x17 = 0x7fffffff
    1a70:	0009a883          	lw	x17,0(x19)
    1a74:	00498993          	addi	x19,x19,4

00001a78 <I_addi_cg_cr_rs1_imm_edges_rs1val_0x7fffffff_immval_0x40>:
I_addi_cg_cr_rs1_imm_edges_rs1val_0x7fffffff_immval_0x40:
  addi x25, x17, 64 # perform operation
    1a78:	04088c93          	addi	x25,x17,64
  # Check if x25 contains the expected result. x9 is the signature ptr, x8 is the link ptr, x7 is a temp reg.
  RVTEST_SIGUPD(x9, x8, x7, x25, I_addi_cg_cr_rs1_imm_edges_rs1val_0x7fffffff_immval_0x40, I_addi_cg_cr_rs1_imm_edges_rs1val_0x7fffffff_immval_0x40_str)
    1a7c:	0004a383          	lw	x7,0(x9)
    1a80:	01938863          	beq	x7,x25,1a90 <I_addi_cg_cr_rs1_imm_edges_rs1val_0x7fffffff_immval_0x40+0x18>
    1a84:	2510146f          	jal	x8,34d4 <failedtest_x8_x7>
    1a88:	00001a78          	.word	0x00001a78
    1a8c:	0000b7f5          	.word	0x0000b7f5
    1a90:	00448493          	addi	x9,x9,4

# Testcase cr_rs1_imm_edges (rs1 = 0x7fffffff, imm = 128)
  RVTEST_TESTDATA_LOAD_INT(x19, x3) # load rs1: x3 = 0x7fffffff
    1a94:	0009a183          	lw	x3,0(x19)
    1a98:	00498993          	addi	x19,x19,4

00001a9c <I_addi_cg_cr_rs1_imm_edges_rs1val_0x7fffffff_immval_0x80>:
I_addi_cg_cr_rs1_imm_edges_rs1val_0x7fffffff_immval_0x80:
  addi x25, x3, 128 # perform operation
    1a9c:	08018c93          	addi	x25,x3,128
  # Check if x25 contains the expected result. x9 is the signature ptr, x8 is the link ptr, x7 is a temp reg.
  RVTEST_SIGUPD(x9, x8, x7, x25, I_addi_cg_cr_rs1_imm_edges_rs1val_0x7fffffff_immval_0x80, I_addi_cg_cr_rs1_imm_edges_rs1val_0x7fffffff_immval_0x80_str)
    1aa0:	0004a383          	lw	x7,0(x9)
    1aa4:	01938863          	beq	x7,x25,1ab4 <I_addi_cg_cr_rs1_imm_edges_rs1val_0x7fffffff_immval_0x80+0x18>
    1aa8:	22d0146f          	jal	x8,34d4 <failedtest_x8_x7>
    1aac:	00001a9c          	.word	0x00001a9c
    1ab0:	0000b84b          	.word	0x0000b84b
    1ab4:	00448493          	addi	x9,x9,4

# Testcase cr_rs1_imm_edges (rs1 = 0x7fffffff, imm = 256)
  RVTEST_TESTDATA_LOAD_INT(x19, x30) # load rs1: x30 = 0x7fffffff
    1ab8:	0009af03          	lw	x30,0(x19)
    1abc:	00498993          	addi	x19,x19,4

00001ac0 <I_addi_cg_cr_rs1_imm_edges_rs1val_0x7fffffff_immval_0x100>:
I_addi_cg_cr_rs1_imm_edges_rs1val_0x7fffffff_immval_0x100:
  addi x17, x30, 256 # perform operation
    1ac0:	100f0893          	addi	x17,x30,256
  # Check if x17 contains the expected result. x9 is the signature ptr, x8 is the link ptr, x7 is a temp reg.
  RVTEST_SIGUPD(x9, x8, x7, x17, I_addi_cg_cr_rs1_imm_edges_rs1val_0x7fffffff_immval_0x100, I_addi_cg_cr_rs1_imm_edges_rs1val_0x7fffffff_immval_0x100_str)
    1ac4:	0004a383          	lw	x7,0(x9)
    1ac8:	01138863          	beq	x7,x17,1ad8 <I_addi_cg_cr_rs1_imm_edges_rs1val_0x7fffffff_immval_0x100+0x18>
    1acc:	2090146f          	jal	x8,34d4 <failedtest_x8_x7>
    1ad0:	00001ac0          	.word	0x00001ac0
    1ad4:	0000b8a1          	.word	0x0000b8a1
    1ad8:	00448493          	addi	x9,x9,4

# Testcase cr_rs1_imm_edges (rs1 = 0x7fffffff, imm = 512)
  RVTEST_TESTDATA_LOAD_INT(x19, x26) # load rs1: x26 = 0x7fffffff
    1adc:	0009ad03          	lw	x26,0(x19)
    1ae0:	00498993          	addi	x19,x19,4

00001ae4 <I_addi_cg_cr_rs1_imm_edges_rs1val_0x7fffffff_immval_0x200>:
I_addi_cg_cr_rs1_imm_edges_rs1val_0x7fffffff_immval_0x200:
  addi x27, x26, 512 # perform operation
    1ae4:	200d0d93          	addi	x27,x26,512
  # Check if x27 contains the expected result. x9 is the signature ptr, x8 is the link ptr, x7 is a temp reg.
  RVTEST_SIGUPD(x9, x8, x7, x27, I_addi_cg_cr_rs1_imm_edges_rs1val_0x7fffffff_immval_0x200, I_addi_cg_cr_rs1_imm_edges_rs1val_0x7fffffff_immval_0x200_str)
    1ae8:	0004a383          	lw	x7,0(x9)
    1aec:	01b38863          	beq	x7,x27,1afc <I_addi_cg_cr_rs1_imm_edges_rs1val_0x7fffffff_immval_0x200+0x18>
    1af0:	1e50146f          	jal	x8,34d4 <failedtest_x8_x7>
    1af4:	00001ae4          	.word	0x00001ae4
    1af8:	0000b8f8          	.word	0x0000b8f8
    1afc:	00448493          	addi	x9,x9,4

# Testcase cr_rs1_imm_edges (rs1 = 0x7fffffff, imm = 1023)
  RVTEST_TESTDATA_LOAD_INT(x19, x6) # load rs1: x6 = 0x7fffffff
    1b00:	0009a303          	lw	x6,0(x19)
    1b04:	00498993          	addi	x19,x19,4

00001b08 <I_addi_cg_cr_rs1_imm_edges_rs1val_0x7fffffff_immval_0x3ff>:
I_addi_cg_cr_rs1_imm_edges_rs1val_0x7fffffff_immval_0x3ff:
  addi x14, x6, 1023 # perform operation
    1b08:	3ff30713          	addi	x14,x6,1023
  # Check if x14 contains the expected result. x9 is the signature ptr, x8 is the link ptr, x7 is a temp reg.
  RVTEST_SIGUPD(x9, x8, x7, x14, I_addi_cg_cr_rs1_imm_edges_rs1val_0x7fffffff_immval_0x3ff, I_addi_cg_cr_rs1_imm_edges_rs1val_0x7fffffff_immval_0x3ff_str)
    1b0c:	0004a383          	lw	x7,0(x9)
    1b10:	00e38863          	beq	x7,x14,1b20 <I_addi_cg_cr_rs1_imm_edges_rs1val_0x7fffffff_immval_0x3ff+0x18>
    1b14:	1c10146f          	jal	x8,34d4 <failedtest_x8_x7>
    1b18:	00001b08          	.word	0x00001b08
    1b1c:	0000b94f          	.word	0x0000b94f
    1b20:	00448493          	addi	x9,x9,4

# Testcase cr_rs1_imm_edges (rs1 = 0x7fffffff, imm = 1024)
  RVTEST_TESTDATA_LOAD_INT(x19, x13) # load rs1: x13 = 0x7fffffff
    1b24:	0009a683          	lw	x13,0(x19)
    1b28:	00498993          	addi	x19,x19,4

00001b2c <I_addi_cg_cr_rs1_imm_edges_rs1val_0x7fffffff_immval_0x400>:
I_addi_cg_cr_rs1_imm_edges_rs1val_0x7fffffff_immval_0x400:
  addi x11, x13, 1024 # perform operation
    1b2c:	40068593          	addi	x11,x13,1024
  # Check if x11 contains the expected result. x9 is the signature ptr, x8 is the link ptr, x7 is a temp reg.
  RVTEST_SIGUPD(x9, x8, x7, x11, I_addi_cg_cr_rs1_imm_edges_rs1val_0x7fffffff_immval_0x400, I_addi_cg_cr_rs1_imm_edges_rs1val_0x7fffffff_immval_0x400_str)
    1b30:	0004a383          	lw	x7,0(x9)
    1b34:	00b38863          	beq	x7,x11,1b44 <I_addi_cg_cr_rs1_imm_edges_rs1val_0x7fffffff_immval_0x400+0x18>
    1b38:	19d0146f          	jal	x8,34d4 <failedtest_x8_x7>
    1b3c:	00001b2c          	.word	0x00001b2c
    1b40:	0000b9a6          	.word	0x0000b9a6
    1b44:	00448493          	addi	x9,x9,4

# Testcase cr_rs1_imm_edges (rs1 = 0x7fffffff, imm = 1795)
  RVTEST_TESTDATA_LOAD_INT(x19, x20) # load rs1: x20 = 0x7fffffff
    1b48:	0009aa03          	lw	x20,0(x19)
    1b4c:	00498993          	addi	x19,x19,4

00001b50 <I_addi_cg_cr_rs1_imm_edges_rs1val_0x7fffffff_immval_0x703>:
I_addi_cg_cr_rs1_imm_edges_rs1val_0x7fffffff_immval_0x703:
  addi x30, x20, 1795 # perform operation
    1b50:	703a0f13          	addi	x30,x20,1795
  # Check if x30 contains the expected result. x9 is the signature ptr, x8 is the link ptr, x7 is a temp reg.
  RVTEST_SIGUPD(x9, x8, x7, x30, I_addi_cg_cr_rs1_imm_edges_rs1val_0x7fffffff_immval_0x703, I_addi_cg_cr_rs1_imm_edges_rs1val_0x7fffffff_immval_0x703_str)
    1b54:	0004a383          	lw	x7,0(x9)
    1b58:	01e38863          	beq	x7,x30,1b68 <I_addi_cg_cr_rs1_imm_edges_rs1val_0x7fffffff_immval_0x703+0x18>
    1b5c:	1790146f          	jal	x8,34d4 <failedtest_x8_x7>
    1b60:	00001b50          	.word	0x00001b50
    1b64:	0000b9fd          	.word	0x0000b9fd
    1b68:	00448493          	addi	x9,x9,4

# Testcase cr_rs1_imm_edges (rs1 = 0x7fffffff, imm = 2047)
  RVTEST_TESTDATA_LOAD_INT(x19, x4) # load rs1: x4 = 0x7fffffff
    1b6c:	0009a203          	lw	x4,0(x19)
    1b70:	00498993          	addi	x19,x19,4

00001b74 <I_addi_cg_cr_rs1_imm_edges_rs1val_0x7fffffff_immval_0x7ff>:
I_addi_cg_cr_rs1_imm_edges_rs1val_0x7fffffff_immval_0x7ff:
  addi x1, x4, 2047 # perform operation
    1b74:	7ff20093          	addi	x1,x4,2047 # 7ff <I_addi_cg_cp_rd_b20+0x23>
  # Check if x1 contains the expected result. x9 is the signature ptr, x8 is the link ptr, x7 is a temp reg.
  RVTEST_SIGUPD(x9, x8, x7, x1, I_addi_cg_cr_rs1_imm_edges_rs1val_0x7fffffff_immval_0x7ff, I_addi_cg_cr_rs1_imm_edges_rs1val_0x7fffffff_immval_0x7ff_str)
    1b78:	0004a383          	lw	x7,0(x9)
    1b7c:	00138863          	beq	x7,x1,1b8c <I_addi_cg_cr_rs1_imm_edges_rs1val_0x7fffffff_immval_0x7ff+0x18>
    1b80:	1550146f          	jal	x8,34d4 <failedtest_x8_x7>
    1b84:	00001b74          	.word	0x00001b74
    1b88:	0000ba54          	.word	0x0000ba54
    1b8c:	00448493          	addi	x9,x9,4

# Testcase cr_rs1_imm_edges (rs1 = 0x7fffffff, imm = -2048)
  RVTEST_TESTDATA_LOAD_INT(x19, x12) # load rs1: x12 = 0x7fffffff
    1b90:	0009a603          	lw	x12,0(x19)
    1b94:	00498993          	addi	x19,x19,4

00001b98 <I_addi_cg_cr_rs1_imm_edges_rs1val_0x7fffffff_immval_m0x800>:
I_addi_cg_cr_rs1_imm_edges_rs1val_0x7fffffff_immval_m0x800:
  addi x22, x12, -2048 # perform operation
    1b98:	80060b13          	addi	x22,x12,-2048
  # Check if x22 contains the expected result. x9 is the signature ptr, x8 is the link ptr, x7 is a temp reg.
  RVTEST_SIGUPD(x9, x8, x7, x22, I_addi_cg_cr_rs1_imm_edges_rs1val_0x7fffffff_immval_m0x800, I_addi_cg_cr_rs1_imm_edges_rs1val_0x7fffffff_immval_m0x800_str)
    1b9c:	0004a383          	lw	x7,0(x9)
    1ba0:	01638863          	beq	x7,x22,1bb0 <I_addi_cg_cr_rs1_imm_edges_rs1val_0x7fffffff_immval_m0x800+0x18>
    1ba4:	1310146f          	jal	x8,34d4 <failedtest_x8_x7>
    1ba8:	00001b98          	.word	0x00001b98
    1bac:	0000baab          	.word	0x0000baab
    1bb0:	00448493          	addi	x9,x9,4

# Testcase cr_rs1_imm_edges (rs1 = 0x7fffffff, imm = -2047)
  RVTEST_TESTDATA_LOAD_INT(x19, x29) # load rs1: x29 = 0x7fffffff
    1bb4:	0009ae83          	lw	x29,0(x19)
    1bb8:	00498993          	addi	x19,x19,4

00001bbc <I_addi_cg_cr_rs1_imm_edges_rs1val_0x7fffffff_immval_m0x7ff>:
I_addi_cg_cr_rs1_imm_edges_rs1val_0x7fffffff_immval_m0x7ff:
  addi x28, x29, -2047 # perform operation
    1bbc:	801e8e13          	addi	x28,x29,-2047
  # Check if x28 contains the expected result. x9 is the signature ptr, x8 is the link ptr, x7 is a temp reg.
  RVTEST_SIGUPD(x9, x8, x7, x28, I_addi_cg_cr_rs1_imm_edges_rs1val_0x7fffffff_immval_m0x7ff, I_addi_cg_cr_rs1_imm_edges_rs1val_0x7fffffff_immval_m0x7ff_str)
    1bc0:	0004a383          	lw	x7,0(x9)
    1bc4:	01c38863          	beq	x7,x28,1bd4 <I_addi_cg_cr_rs1_imm_edges_rs1val_0x7fffffff_immval_m0x7ff+0x18>
    1bc8:	10d0146f          	jal	x8,34d4 <failedtest_x8_x7>
    1bcc:	00001bbc          	.word	0x00001bbc
    1bd0:	0000bb03          	.word	0x0000bb03
    1bd4:	00448493          	addi	x9,x9,4

# Testcase cr_rs1_imm_edges (rs1 = 0x7fffffff, imm = -2)
  RVTEST_TESTDATA_LOAD_INT(x19, x3) # load rs1: x3 = 0x7fffffff
    1bd8:	0009a183          	lw	x3,0(x19)
    1bdc:	00498993          	addi	x19,x19,4

00001be0 <I_addi_cg_cr_rs1_imm_edges_rs1val_0x7fffffff_immval_m0x2>:
I_addi_cg_cr_rs1_imm_edges_rs1val_0x7fffffff_immval_m0x2:
  addi x24, x3, -2 # perform operation
    1be0:	ffe18c13          	addi	x24,x3,-2
  # Check if x24 contains the expected result. x9 is the signature ptr, x8 is the link ptr, x7 is a temp reg.
  RVTEST_SIGUPD(x9, x8, x7, x24, I_addi_cg_cr_rs1_imm_edges_rs1val_0x7fffffff_immval_m0x2, I_addi_cg_cr_rs1_imm_edges_rs1val_0x7fffffff_immval_m0x2_str)
    1be4:	0004a383          	lw	x7,0(x9)
    1be8:	01838863          	beq	x7,x24,1bf8 <I_addi_cg_cr_rs1_imm_edges_rs1val_0x7fffffff_immval_m0x2+0x18>
    1bec:	0e90146f          	jal	x8,34d4 <failedtest_x8_x7>
    1bf0:	00001be0          	.word	0x00001be0
    1bf4:	0000bb5b          	.word	0x0000bb5b
    1bf8:	00448493          	addi	x9,x9,4

# Testcase cr_rs1_imm_edges (rs1 = 0x7fffffff, imm = -1)
  RVTEST_TESTDATA_LOAD_INT(x19, x5) # load rs1: x5 = 0x7fffffff
    1bfc:	0009a283          	lw	x5,0(x19)
    1c00:	00498993          	addi	x19,x19,4

00001c04 <I_addi_cg_cr_rs1_imm_edges_rs1val_0x7fffffff_immval_m0x1>:
I_addi_cg_cr_rs1_imm_edges_rs1val_0x7fffffff_immval_m0x1:
  addi x14, x5, -1 # perform operation
    1c04:	fff28713          	addi	x14,x5,-1
  # Check if x14 contains the expected result. x9 is the signature ptr, x8 is the link ptr, x7 is a temp reg.
  RVTEST_SIGUPD(x9, x8, x7, x14, I_addi_cg_cr_rs1_imm_edges_rs1val_0x7fffffff_immval_m0x1, I_addi_cg_cr_rs1_imm_edges_rs1val_0x7fffffff_immval_m0x1_str)
    1c08:	0004a383          	lw	x7,0(x9)
    1c0c:	00e38863          	beq	x7,x14,1c1c <I_addi_cg_cr_rs1_imm_edges_rs1val_0x7fffffff_immval_m0x1+0x18>
    1c10:	0c50146f          	jal	x8,34d4 <failedtest_x8_x7>
    1c14:	00001c04          	.word	0x00001c04
    1c18:	0000bbb1          	.word	0x0000bbb1
    1c1c:	00448493          	addi	x9,x9,4

# Testcase cr_rs1_imm_edges (rs1 = 0x7ffffffe, imm = 0)
  RVTEST_TESTDATA_LOAD_INT(x19, x27) # load rs1: x27 = 0x7ffffffe
    1c20:	0009ad83          	lw	x27,0(x19)
    1c24:	00498993          	addi	x19,x19,4

00001c28 <I_addi_cg_cr_rs1_imm_edges_rs1val_0x7ffffffe_immval_0x0>:
I_addi_cg_cr_rs1_imm_edges_rs1val_0x7ffffffe_immval_0x0:
  addi x6, x27, 0 # perform operation
    1c28:	000d8313          	addi	x6,x27,0
  # Check if x6 contains the expected result. x9 is the signature ptr, x8 is the link ptr, x7 is a temp reg.
  RVTEST_SIGUPD(x9, x8, x7, x6, I_addi_cg_cr_rs1_imm_edges_rs1val_0x7ffffffe_immval_0x0, I_addi_cg_cr_rs1_imm_edges_rs1val_0x7ffffffe_immval_0x0_str)
    1c2c:	0004a383          	lw	x7,0(x9)
    1c30:	00638863          	beq	x7,x6,1c40 <I_addi_cg_cr_rs1_imm_edges_rs1val_0x7ffffffe_immval_0x0+0x18>
    1c34:	0a10146f          	jal	x8,34d4 <failedtest_x8_x7>
    1c38:	00001c28          	.word	0x00001c28
    1c3c:	0000bc07          	.word	0x0000bc07
    1c40:	00448493          	addi	x9,x9,4

# Testcase cr_rs1_imm_edges (rs1 = 0x7ffffffe, imm = 1)
  RVTEST_TESTDATA_LOAD_INT(x19, x5) # load rs1: x5 = 0x7ffffffe
    1c44:	0009a283          	lw	x5,0(x19)
    1c48:	00498993          	addi	x19,x19,4

00001c4c <I_addi_cg_cr_rs1_imm_edges_rs1val_0x7ffffffe_immval_0x1>:
I_addi_cg_cr_rs1_imm_edges_rs1val_0x7ffffffe_immval_0x1:
  addi x23, x5, 1 # perform operation
    1c4c:	00128b93          	addi	x23,x5,1
  # Check if x23 contains the expected result. x9 is the signature ptr, x8 is the link ptr, x7 is a temp reg.
  RVTEST_SIGUPD(x9, x8, x7, x23, I_addi_cg_cr_rs1_imm_edges_rs1val_0x7ffffffe_immval_0x1, I_addi_cg_cr_rs1_imm_edges_rs1val_0x7ffffffe_immval_0x1_str)
    1c50:	0004a383          	lw	x7,0(x9)
    1c54:	01738863          	beq	x7,x23,1c64 <I_addi_cg_cr_rs1_imm_edges_rs1val_0x7ffffffe_immval_0x1+0x18>
    1c58:	07d0146f          	jal	x8,34d4 <failedtest_x8_x7>
    1c5c:	00001c4c          	.word	0x00001c4c
    1c60:	0000bc5c          	.word	0x0000bc5c
    1c64:	00448493          	addi	x9,x9,4

# Testcase cr_rs1_imm_edges (rs1 = 0x7ffffffe, imm = 2)
  RVTEST_TESTDATA_LOAD_INT(x19, x10) # load rs1: x10 = 0x7ffffffe
    1c68:	0009a503          	lw	x10,0(x19)
    1c6c:	00498993          	addi	x19,x19,4

00001c70 <I_addi_cg_cr_rs1_imm_edges_rs1val_0x7ffffffe_immval_0x2>:
I_addi_cg_cr_rs1_imm_edges_rs1val_0x7ffffffe_immval_0x2:
  addi x13, x10, 2 # perform operation
    1c70:	00250693          	addi	x13,x10,2
  # Check if x13 contains the expected result. x9 is the signature ptr, x8 is the link ptr, x7 is a temp reg.
  RVTEST_SIGUPD(x9, x8, x7, x13, I_addi_cg_cr_rs1_imm_edges_rs1val_0x7ffffffe_immval_0x2, I_addi_cg_cr_rs1_imm_edges_rs1val_0x7ffffffe_immval_0x2_str)
    1c74:	0004a383          	lw	x7,0(x9)
    1c78:	00d38863          	beq	x7,x13,1c88 <I_addi_cg_cr_rs1_imm_edges_rs1val_0x7ffffffe_immval_0x2+0x18>
    1c7c:	0590146f          	jal	x8,34d4 <failedtest_x8_x7>
    1c80:	00001c70          	.word	0x00001c70
    1c84:	0000bcb1          	.word	0x0000bcb1
    1c88:	00448493          	addi	x9,x9,4

# Testcase cr_rs1_imm_edges (rs1 = 0x7ffffffe, imm = 3)
  RVTEST_TESTDATA_LOAD_INT(x19, x21) # load rs1: x21 = 0x7ffffffe
    1c8c:	0009aa83          	lw	x21,0(x19)
    1c90:	00498993          	addi	x19,x19,4

00001c94 <I_addi_cg_cr_rs1_imm_edges_rs1val_0x7ffffffe_immval_0x3>:
I_addi_cg_cr_rs1_imm_edges_rs1val_0x7ffffffe_immval_0x3:
  addi x2, x21, 3 # perform operation
    1c94:	003a8113          	addi	x2,x21,3
  # Check if x2 contains the expected result. x9 is the signature ptr, x8 is the link ptr, x7 is a temp reg.
  RVTEST_SIGUPD(x9, x8, x7, x2, I_addi_cg_cr_rs1_imm_edges_rs1val_0x7ffffffe_immval_0x3, I_addi_cg_cr_rs1_imm_edges_rs1val_0x7ffffffe_immval_0x3_str)
    1c98:	0004a383          	lw	x7,0(x9)
    1c9c:	00238863          	beq	x7,x2,1cac <I_addi_cg_cr_rs1_imm_edges_rs1val_0x7ffffffe_immval_0x3+0x18>
    1ca0:	0350146f          	jal	x8,34d4 <failedtest_x8_x7>
    1ca4:	00001c94          	.word	0x00001c94
    1ca8:	0000bd06          	.word	0x0000bd06
    1cac:	00448493          	addi	x9,x9,4

# Testcase cr_rs1_imm_edges (rs1 = 0x7ffffffe, imm = 4)
  RVTEST_TESTDATA_LOAD_INT(x19, x16) # load rs1: x16 = 0x7ffffffe
    1cb0:	0009a803          	lw	x16,0(x19)
    1cb4:	00498993          	addi	x19,x19,4

00001cb8 <I_addi_cg_cr_rs1_imm_edges_rs1val_0x7ffffffe_immval_0x4>:
I_addi_cg_cr_rs1_imm_edges_rs1val_0x7ffffffe_immval_0x4:
  addi x25, x16, 4 # perform operation
    1cb8:	00480c93          	addi	x25,x16,4
  # Check if x25 contains the expected result. x9 is the signature ptr, x8 is the link ptr, x7 is a temp reg.
  RVTEST_SIGUPD(x9, x8, x7, x25, I_addi_cg_cr_rs1_imm_edges_rs1val_0x7ffffffe_immval_0x4, I_addi_cg_cr_rs1_imm_edges_rs1val_0x7ffffffe_immval_0x4_str)
    1cbc:	0004a383          	lw	x7,0(x9)
    1cc0:	01938863          	beq	x7,x25,1cd0 <I_addi_cg_cr_rs1_imm_edges_rs1val_0x7ffffffe_immval_0x4+0x18>
    1cc4:	0110146f          	jal	x8,34d4 <failedtest_x8_x7>
    1cc8:	00001cb8          	.word	0x00001cb8
    1ccc:	0000bd5b          	.word	0x0000bd5b
    1cd0:	00448493          	addi	x9,x9,4

# Testcase cr_rs1_imm_edges (rs1 = 0x7ffffffe, imm = 8)
  RVTEST_TESTDATA_LOAD_INT(x19, x5) # load rs1: x5 = 0x7ffffffe
    1cd4:	0009a283          	lw	x5,0(x19)
    1cd8:	00498993          	addi	x19,x19,4

00001cdc <I_addi_cg_cr_rs1_imm_edges_rs1val_0x7ffffffe_immval_0x8>:
I_addi_cg_cr_rs1_imm_edges_rs1val_0x7ffffffe_immval_0x8:
  addi x28, x5, 8 # perform operation
    1cdc:	00828e13          	addi	x28,x5,8
  # Check if x28 contains the expected result. x9 is the signature ptr, x8 is the link ptr, x7 is a temp reg.
  RVTEST_SIGUPD(x9, x8, x7, x28, I_addi_cg_cr_rs1_imm_edges_rs1val_0x7ffffffe_immval_0x8, I_addi_cg_cr_rs1_imm_edges_rs1val_0x7ffffffe_immval_0x8_str)
    1ce0:	0004a383          	lw	x7,0(x9)
    1ce4:	01c38863          	beq	x7,x28,1cf4 <I_addi_cg_cr_rs1_imm_edges_rs1val_0x7ffffffe_immval_0x8+0x18>
    1ce8:	7ec0146f          	jal	x8,34d4 <failedtest_x8_x7>
    1cec:	00001cdc          	.word	0x00001cdc
    1cf0:	0000bdb0          	.word	0x0000bdb0
    1cf4:	00448493          	addi	x9,x9,4

# Testcase cr_rs1_imm_edges (rs1 = 0x7ffffffe, imm = 16)
  RVTEST_TESTDATA_LOAD_INT(x19, x10) # load rs1: x10 = 0x7ffffffe
    1cf8:	0009a503          	lw	x10,0(x19)
    1cfc:	00498993          	addi	x19,x19,4

00001d00 <I_addi_cg_cr_rs1_imm_edges_rs1val_0x7ffffffe_immval_0x10>:
I_addi_cg_cr_rs1_imm_edges_rs1val_0x7ffffffe_immval_0x10:
  addi x11, x10, 16 # perform operation
    1d00:	01050593          	addi	x11,x10,16
  # Check if x11 contains the expected result. x9 is the signature ptr, x8 is the link ptr, x7 is a temp reg.
  RVTEST_SIGUPD(x9, x8, x7, x11, I_addi_cg_cr_rs1_imm_edges_rs1val_0x7ffffffe_immval_0x10, I_addi_cg_cr_rs1_imm_edges_rs1val_0x7ffffffe_immval_0x10_str)
    1d04:	0004a383          	lw	x7,0(x9)
    1d08:	00b38863          	beq	x7,x11,1d18 <I_addi_cg_cr_rs1_imm_edges_rs1val_0x7ffffffe_immval_0x10+0x18>
    1d0c:	7c80146f          	jal	x8,34d4 <failedtest_x8_x7>
    1d10:	00001d00          	.word	0x00001d00
    1d14:	0000be05          	.word	0x0000be05
    1d18:	00448493          	addi	x9,x9,4

# Testcase cr_rs1_imm_edges (rs1 = 0x7ffffffe, imm = 32)
  RVTEST_TESTDATA_LOAD_INT(x19, x14) # load rs1: x14 = 0x7ffffffe
    1d1c:	0009a703          	lw	x14,0(x19)
    1d20:	00498993          	addi	x19,x19,4

00001d24 <I_addi_cg_cr_rs1_imm_edges_rs1val_0x7ffffffe_immval_0x20>:
I_addi_cg_cr_rs1_imm_edges_rs1val_0x7ffffffe_immval_0x20:
  addi x13, x14, 32 # perform operation
    1d24:	02070693          	addi	x13,x14,32
  # Check if x13 contains the expected result. x9 is the signature ptr, x8 is the link ptr, x7 is a temp reg.
  RVTEST_SIGUPD(x9, x8, x7, x13, I_addi_cg_cr_rs1_imm_edges_rs1val_0x7ffffffe_immval_0x20, I_addi_cg_cr_rs1_imm_edges_rs1val_0x7ffffffe_immval_0x20_str)
    1d28:	0004a383          	lw	x7,0(x9)
    1d2c:	00d38863          	beq	x7,x13,1d3c <I_addi_cg_cr_rs1_imm_edges_rs1val_0x7ffffffe_immval_0x20+0x18>
    1d30:	7a40146f          	jal	x8,34d4 <failedtest_x8_x7>
    1d34:	00001d24          	.word	0x00001d24
    1d38:	0000be5b          	.word	0x0000be5b
    1d3c:	00448493          	addi	x9,x9,4

# Testcase cr_rs1_imm_edges (rs1 = 0x7ffffffe, imm = 64)
  RVTEST_TESTDATA_LOAD_INT(x19, x12) # load rs1: x12 = 0x7ffffffe
    1d40:	0009a603          	lw	x12,0(x19)
    1d44:	00498993          	addi	x19,x19,4

00001d48 <I_addi_cg_cr_rs1_imm_edges_rs1val_0x7ffffffe_immval_0x40>:
I_addi_cg_cr_rs1_imm_edges_rs1val_0x7ffffffe_immval_0x40:
  addi x6, x12, 64 # perform operation
    1d48:	04060313          	addi	x6,x12,64
  # Check if x6 contains the expected result. x9 is the signature ptr, x8 is the link ptr, x7 is a temp reg.
  RVTEST_SIGUPD(x9, x8, x7, x6, I_addi_cg_cr_rs1_imm_edges_rs1val_0x7ffffffe_immval_0x40, I_addi_cg_cr_rs1_imm_edges_rs1val_0x7ffffffe_immval_0x40_str)
    1d4c:	0004a383          	lw	x7,0(x9)
    1d50:	00638863          	beq	x7,x6,1d60 <I_addi_cg_cr_rs1_imm_edges_rs1val_0x7ffffffe_immval_0x40+0x18>
    1d54:	7800146f          	jal	x8,34d4 <failedtest_x8_x7>
    1d58:	00001d48          	.word	0x00001d48
    1d5c:	0000beb1          	.word	0x0000beb1
    1d60:	00448493          	addi	x9,x9,4

# Testcase cr_rs1_imm_edges (rs1 = 0x7ffffffe, imm = 128)
  RVTEST_TESTDATA_LOAD_INT(x19, x12) # load rs1: x12 = 0x7ffffffe
    1d64:	0009a603          	lw	x12,0(x19)
    1d68:	00498993          	addi	x19,x19,4

00001d6c <I_addi_cg_cr_rs1_imm_edges_rs1val_0x7ffffffe_immval_0x80>:
I_addi_cg_cr_rs1_imm_edges_rs1val_0x7ffffffe_immval_0x80:
  addi x3, x12, 128 # perform operation
    1d6c:	08060193          	addi	x3,x12,128
  # Check if x3 contains the expected result. x9 is the signature ptr, x8 is the link ptr, x7 is a temp reg.
  RVTEST_SIGUPD(x9, x8, x7, x3, I_addi_cg_cr_rs1_imm_edges_rs1val_0x7ffffffe_immval_0x80, I_addi_cg_cr_rs1_imm_edges_rs1val_0x7ffffffe_immval_0x80_str)
    1d70:	0004a383          	lw	x7,0(x9)
    1d74:	00338863          	beq	x7,x3,1d84 <I_addi_cg_cr_rs1_imm_edges_rs1val_0x7ffffffe_immval_0x80+0x18>
    1d78:	75c0146f          	jal	x8,34d4 <failedtest_x8_x7>
    1d7c:	00001d6c          	.word	0x00001d6c
    1d80:	0000bf07          	.word	0x0000bf07
    1d84:	00448493          	addi	x9,x9,4

# Testcase cr_rs1_imm_edges (rs1 = 0x7ffffffe, imm = 256)
  RVTEST_TESTDATA_LOAD_INT(x19, x28) # load rs1: x28 = 0x7ffffffe
    1d88:	0009ae03          	lw	x28,0(x19)
    1d8c:	00498993          	addi	x19,x19,4

00001d90 <I_addi_cg_cr_rs1_imm_edges_rs1val_0x7ffffffe_immval_0x100>:
I_addi_cg_cr_rs1_imm_edges_rs1val_0x7ffffffe_immval_0x100:
  addi x10, x28, 256 # perform operation
    1d90:	100e0513          	addi	x10,x28,256
  # Check if x10 contains the expected result. x9 is the signature ptr, x8 is the link ptr, x7 is a temp reg.
  RVTEST_SIGUPD(x9, x8, x7, x10, I_addi_cg_cr_rs1_imm_edges_rs1val_0x7ffffffe_immval_0x100, I_addi_cg_cr_rs1_imm_edges_rs1val_0x7ffffffe_immval_0x100_str)
    1d94:	0004a383          	lw	x7,0(x9)
    1d98:	00a38863          	beq	x7,x10,1da8 <I_addi_cg_cr_rs1_imm_edges_rs1val_0x7ffffffe_immval_0x100+0x18>
    1d9c:	7380146f          	jal	x8,34d4 <failedtest_x8_x7>
    1da0:	00001d90          	.word	0x00001d90
    1da4:	0000bf5d          	.word	0x0000bf5d
    1da8:	00448493          	addi	x9,x9,4

# Testcase cr_rs1_imm_edges (rs1 = 0x7ffffffe, imm = 512)
  RVTEST_TESTDATA_LOAD_INT(x19, x24) # load rs1: x24 = 0x7ffffffe
    1dac:	0009ac03          	lw	x24,0(x19)
    1db0:	00498993          	addi	x19,x19,4

00001db4 <I_addi_cg_cr_rs1_imm_edges_rs1val_0x7ffffffe_immval_0x200>:
I_addi_cg_cr_rs1_imm_edges_rs1val_0x7ffffffe_immval_0x200:
  addi x11, x24, 512 # perform operation
    1db4:	200c0593          	addi	x11,x24,512
  # Check if x11 contains the expected result. x9 is the signature ptr, x8 is the link ptr, x7 is a temp reg.
  RVTEST_SIGUPD(x9, x8, x7, x11, I_addi_cg_cr_rs1_imm_edges_rs1val_0x7ffffffe_immval_0x200, I_addi_cg_cr_rs1_imm_edges_rs1val_0x7ffffffe_immval_0x200_str)
    1db8:	0004a383          	lw	x7,0(x9)
    1dbc:	00b38863          	beq	x7,x11,1dcc <I_addi_cg_cr_rs1_imm_edges_rs1val_0x7ffffffe_immval_0x200+0x18>
    1dc0:	7140146f          	jal	x8,34d4 <failedtest_x8_x7>
    1dc4:	00001db4          	.word	0x00001db4
    1dc8:	0000bfb4          	.word	0x0000bfb4
    1dcc:	00448493          	addi	x9,x9,4

# Testcase cr_rs1_imm_edges (rs1 = 0x7ffffffe, imm = 1023)
  RVTEST_TESTDATA_LOAD_INT(x19, x11) # load rs1: x11 = 0x7ffffffe
    1dd0:	0009a583          	lw	x11,0(x19)
    1dd4:	00498993          	addi	x19,x19,4

00001dd8 <I_addi_cg_cr_rs1_imm_edges_rs1val_0x7ffffffe_immval_0x3ff>:
I_addi_cg_cr_rs1_imm_edges_rs1val_0x7ffffffe_immval_0x3ff:
  addi x30, x11, 1023 # perform operation
    1dd8:	3ff58f13          	addi	x30,x11,1023
  # Check if x30 contains the expected result. x9 is the signature ptr, x8 is the link ptr, x7 is a temp reg.
  RVTEST_SIGUPD(x9, x8, x7, x30, I_addi_cg_cr_rs1_imm_edges_rs1val_0x7ffffffe_immval_0x3ff, I_addi_cg_cr_rs1_imm_edges_rs1val_0x7ffffffe_immval_0x3ff_str)
    1ddc:	0004a383          	lw	x7,0(x9)
    1de0:	01e38863          	beq	x7,x30,1df0 <I_addi_cg_cr_rs1_imm_edges_rs1val_0x7ffffffe_immval_0x3ff+0x18>
    1de4:	6f00146f          	jal	x8,34d4 <failedtest_x8_x7>
    1de8:	00001dd8          	.word	0x00001dd8
    1dec:	0000c00b          	.word	0x0000c00b
    1df0:	00448493          	addi	x9,x9,4

# Testcase cr_rs1_imm_edges (rs1 = 0x7ffffffe, imm = 1024)
  RVTEST_TESTDATA_LOAD_INT(x19, x26) # load rs1: x26 = 0x7ffffffe
    1df4:	0009ad03          	lw	x26,0(x19)
    1df8:	00498993          	addi	x19,x19,4

00001dfc <I_addi_cg_cr_rs1_imm_edges_rs1val_0x7ffffffe_immval_0x400>:
I_addi_cg_cr_rs1_imm_edges_rs1val_0x7ffffffe_immval_0x400:
  addi x24, x26, 1024 # perform operation
    1dfc:	400d0c13          	addi	x24,x26,1024
  # Check if x24 contains the expected result. x9 is the signature ptr, x8 is the link ptr, x7 is a temp reg.
  RVTEST_SIGUPD(x9, x8, x7, x24, I_addi_cg_cr_rs1_imm_edges_rs1val_0x7ffffffe_immval_0x400, I_addi_cg_cr_rs1_imm_edges_rs1val_0x7ffffffe_immval_0x400_str)
    1e00:	0004a383          	lw	x7,0(x9)
    1e04:	01838863          	beq	x7,x24,1e14 <I_addi_cg_cr_rs1_imm_edges_rs1val_0x7ffffffe_immval_0x400+0x18>
    1e08:	6cc0146f          	jal	x8,34d4 <failedtest_x8_x7>
    1e0c:	00001dfc          	.word	0x00001dfc
    1e10:	0000c062          	.word	0x0000c062
    1e14:	00448493          	addi	x9,x9,4

# Testcase cr_rs1_imm_edges (rs1 = 0x7ffffffe, imm = 1795)
  RVTEST_TESTDATA_LOAD_INT(x19, x26) # load rs1: x26 = 0x7ffffffe
    1e18:	0009ad03          	lw	x26,0(x19)
    1e1c:	00498993          	addi	x19,x19,4

00001e20 <I_addi_cg_cr_rs1_imm_edges_rs1val_0x7ffffffe_immval_0x703>:
I_addi_cg_cr_rs1_imm_edges_rs1val_0x7ffffffe_immval_0x703:
  addi x10, x26, 1795 # perform operation
    1e20:	703d0513          	addi	x10,x26,1795
  # Check if x10 contains the expected result. x9 is the signature ptr, x8 is the link ptr, x7 is a temp reg.
  RVTEST_SIGUPD(x9, x8, x7, x10, I_addi_cg_cr_rs1_imm_edges_rs1val_0x7ffffffe_immval_0x703, I_addi_cg_cr_rs1_imm_edges_rs1val_0x7ffffffe_immval_0x703_str)
    1e24:	0004a383          	lw	x7,0(x9)
    1e28:	00a38863          	beq	x7,x10,1e38 <I_addi_cg_cr_rs1_imm_edges_rs1val_0x7ffffffe_immval_0x703+0x18>
    1e2c:	6a80146f          	jal	x8,34d4 <failedtest_x8_x7>
    1e30:	00001e20          	.word	0x00001e20
    1e34:	0000c0b9          	.word	0x0000c0b9
    1e38:	00448493          	addi	x9,x9,4

# Testcase cr_rs1_imm_edges (rs1 = 0x7ffffffe, imm = 2047)
  RVTEST_TESTDATA_LOAD_INT(x19, x27) # load rs1: x27 = 0x7ffffffe
    1e3c:	0009ad83          	lw	x27,0(x19)
    1e40:	00498993          	addi	x19,x19,4

00001e44 <I_addi_cg_cr_rs1_imm_edges_rs1val_0x7ffffffe_immval_0x7ff>:
I_addi_cg_cr_rs1_imm_edges_rs1val_0x7ffffffe_immval_0x7ff:
  addi x31, x27, 2047 # perform operation
    1e44:	7ffd8f93          	addi	x31,x27,2047
  # Check if x31 contains the expected result. x9 is the signature ptr, x8 is the link ptr, x7 is a temp reg.
  RVTEST_SIGUPD(x9, x8, x7, x31, I_addi_cg_cr_rs1_imm_edges_rs1val_0x7ffffffe_immval_0x7ff, I_addi_cg_cr_rs1_imm_edges_rs1val_0x7ffffffe_immval_0x7ff_str)
    1e48:	0004a383          	lw	x7,0(x9)
    1e4c:	01f38863          	beq	x7,x31,1e5c <I_addi_cg_cr_rs1_imm_edges_rs1val_0x7ffffffe_immval_0x7ff+0x18>
    1e50:	6840146f          	jal	x8,34d4 <failedtest_x8_x7>
    1e54:	00001e44          	.word	0x00001e44
    1e58:	0000c110          	.word	0x0000c110
    1e5c:	00448493          	addi	x9,x9,4

# Testcase cr_rs1_imm_edges (rs1 = 0x7ffffffe, imm = -2048)
  RVTEST_TESTDATA_LOAD_INT(x19, x25) # load rs1: x25 = 0x7ffffffe
    1e60:	0009ac83          	lw	x25,0(x19)
    1e64:	00498993          	addi	x19,x19,4

00001e68 <I_addi_cg_cr_rs1_imm_edges_rs1val_0x7ffffffe_immval_m0x800>:
I_addi_cg_cr_rs1_imm_edges_rs1val_0x7ffffffe_immval_m0x800:
  addi x20, x25, -2048 # perform operation
    1e68:	800c8a13          	addi	x20,x25,-2048
  # Check if x20 contains the expected result. x9 is the signature ptr, x8 is the link ptr, x7 is a temp reg.
  RVTEST_SIGUPD(x9, x8, x7, x20, I_addi_cg_cr_rs1_imm_edges_rs1val_0x7ffffffe_immval_m0x800, I_addi_cg_cr_rs1_imm_edges_rs1val_0x7ffffffe_immval_m0x800_str)
    1e6c:	0004a383          	lw	x7,0(x9)
    1e70:	01438863          	beq	x7,x20,1e80 <I_addi_cg_cr_rs1_imm_edges_rs1val_0x7ffffffe_immval_m0x800+0x18>
    1e74:	6600146f          	jal	x8,34d4 <failedtest_x8_x7>
    1e78:	00001e68          	.word	0x00001e68
    1e7c:	0000c167          	.word	0x0000c167
    1e80:	00448493          	addi	x9,x9,4

# Testcase cr_rs1_imm_edges (rs1 = 0x7ffffffe, imm = -2047)
  RVTEST_TESTDATA_LOAD_INT(x19, x11) # load rs1: x11 = 0x7ffffffe
    1e84:	0009a583          	lw	x11,0(x19)
    1e88:	00498993          	addi	x19,x19,4

00001e8c <I_addi_cg_cr_rs1_imm_edges_rs1val_0x7ffffffe_immval_m0x7ff>:
I_addi_cg_cr_rs1_imm_edges_rs1val_0x7ffffffe_immval_m0x7ff:
  addi x15, x11, -2047 # perform operation
    1e8c:	80158793          	addi	x15,x11,-2047
  # Check if x15 contains the expected result. x9 is the signature ptr, x8 is the link ptr, x7 is a temp reg.
  RVTEST_SIGUPD(x9, x8, x7, x15, I_addi_cg_cr_rs1_imm_edges_rs1val_0x7ffffffe_immval_m0x7ff, I_addi_cg_cr_rs1_imm_edges_rs1val_0x7ffffffe_immval_m0x7ff_str)
    1e90:	0004a383          	lw	x7,0(x9)
    1e94:	00f38863          	beq	x7,x15,1ea4 <I_addi_cg_cr_rs1_imm_edges_rs1val_0x7ffffffe_immval_m0x7ff+0x18>
    1e98:	63c0146f          	jal	x8,34d4 <failedtest_x8_x7>
    1e9c:	00001e8c          	.word	0x00001e8c
    1ea0:	0000c1bf          	.word	0x0000c1bf
    1ea4:	00448493          	addi	x9,x9,4

# Testcase cr_rs1_imm_edges (rs1 = 0x7ffffffe, imm = -2)
  RVTEST_TESTDATA_LOAD_INT(x19, x29) # load rs1: x29 = 0x7ffffffe
    1ea8:	0009ae83          	lw	x29,0(x19)
    1eac:	00498993          	addi	x19,x19,4

00001eb0 <I_addi_cg_cr_rs1_imm_edges_rs1val_0x7ffffffe_immval_m0x2>:
I_addi_cg_cr_rs1_imm_edges_rs1val_0x7ffffffe_immval_m0x2:
  addi x22, x29, -2 # perform operation
    1eb0:	ffee8b13          	addi	x22,x29,-2
  # Check if x22 contains the expected result. x9 is the signature ptr, x8 is the link ptr, x7 is a temp reg.
  RVTEST_SIGUPD(x9, x8, x7, x22, I_addi_cg_cr_rs1_imm_edges_rs1val_0x7ffffffe_immval_m0x2, I_addi_cg_cr_rs1_imm_edges_rs1val_0x7ffffffe_immval_m0x2_str)
    1eb4:	0004a383          	lw	x7,0(x9)
    1eb8:	01638863          	beq	x7,x22,1ec8 <I_addi_cg_cr_rs1_imm_edges_rs1val_0x7ffffffe_immval_m0x2+0x18>
    1ebc:	6180146f          	jal	x8,34d4 <failedtest_x8_x7>
    1ec0:	00001eb0          	.word	0x00001eb0
    1ec4:	0000c217          	.word	0x0000c217
    1ec8:	00448493          	addi	x9,x9,4

# Testcase cr_rs1_imm_edges (rs1 = 0x7ffffffe, imm = -1)
  RVTEST_TESTDATA_LOAD_INT(x19, x20) # load rs1: x20 = 0x7ffffffe
    1ecc:	0009aa03          	lw	x20,0(x19)
    1ed0:	00498993          	addi	x19,x19,4

00001ed4 <I_addi_cg_cr_rs1_imm_edges_rs1val_0x7ffffffe_immval_m0x1>:
I_addi_cg_cr_rs1_imm_edges_rs1val_0x7ffffffe_immval_m0x1:
  addi x4, x20, -1 # perform operation
    1ed4:	fffa0213          	addi	x4,x20,-1
  # Check if x4 contains the expected result. x9 is the signature ptr, x8 is the link ptr, x7 is a temp reg.
  RVTEST_SIGUPD(x9, x8, x7, x4, I_addi_cg_cr_rs1_imm_edges_rs1val_0x7ffffffe_immval_m0x1, I_addi_cg_cr_rs1_imm_edges_rs1val_0x7ffffffe_immval_m0x1_str)
    1ed8:	0004a383          	lw	x7,0(x9)
    1edc:	00438863          	beq	x7,x4,1eec <I_addi_cg_cr_rs1_imm_edges_rs1val_0x7ffffffe_immval_m0x1+0x18>
    1ee0:	5f40146f          	jal	x8,34d4 <failedtest_x8_x7>
    1ee4:	00001ed4          	.word	0x00001ed4
    1ee8:	0000c26d          	.word	0x0000c26d
    1eec:	00448493          	addi	x9,x9,4

# Testcase cr_rs1_imm_edges (rs1 = 0xffffffff, imm = 0)
  RVTEST_TESTDATA_LOAD_INT(x19, x10) # load rs1: x10 = 0xffffffff
    1ef0:	0009a503          	lw	x10,0(x19)
    1ef4:	00498993          	addi	x19,x19,4

00001ef8 <I_addi_cg_cr_rs1_imm_edges_rs1val_0xffffffff_immval_0x0>:
I_addi_cg_cr_rs1_imm_edges_rs1val_0xffffffff_immval_0x0:
  addi x23, x10, 0 # perform operation
    1ef8:	00050b93          	addi	x23,x10,0
  # Check if x23 contains the expected result. x9 is the signature ptr, x8 is the link ptr, x7 is a temp reg.
  RVTEST_SIGUPD(x9, x8, x7, x23, I_addi_cg_cr_rs1_imm_edges_rs1val_0xffffffff_immval_0x0, I_addi_cg_cr_rs1_imm_edges_rs1val_0xffffffff_immval_0x0_str)
    1efc:	0004a383          	lw	x7,0(x9)
    1f00:	01738863          	beq	x7,x23,1f10 <I_addi_cg_cr_rs1_imm_edges_rs1val_0xffffffff_immval_0x0+0x18>
    1f04:	5d00146f          	jal	x8,34d4 <failedtest_x8_x7>
    1f08:	00001ef8          	.word	0x00001ef8
    1f0c:	0000c2c3          	.word	0x0000c2c3
    1f10:	00448493          	addi	x9,x9,4

# Testcase cr_rs1_imm_edges (rs1 = 0xffffffff, imm = 1)
  RVTEST_TESTDATA_LOAD_INT(x19, x1) # load rs1: x1 = 0xffffffff
    1f14:	0009a083          	lw	x1,0(x19)
    1f18:	00498993          	addi	x19,x19,4

00001f1c <I_addi_cg_cr_rs1_imm_edges_rs1val_0xffffffff_immval_0x1>:
I_addi_cg_cr_rs1_imm_edges_rs1val_0xffffffff_immval_0x1:
  addi x26, x1, 1 # perform operation
    1f1c:	00108d13          	addi	x26,x1,1
  # Check if x26 contains the expected result. x9 is the signature ptr, x8 is the link ptr, x7 is a temp reg.
  RVTEST_SIGUPD(x9, x8, x7, x26, I_addi_cg_cr_rs1_imm_edges_rs1val_0xffffffff_immval_0x1, I_addi_cg_cr_rs1_imm_edges_rs1val_0xffffffff_immval_0x1_str)
    1f20:	0004a383          	lw	x7,0(x9)
    1f24:	01a38863          	beq	x7,x26,1f34 <I_addi_cg_cr_rs1_imm_edges_rs1val_0xffffffff_immval_0x1+0x18>
    1f28:	5ac0146f          	jal	x8,34d4 <failedtest_x8_x7>
    1f2c:	00001f1c          	.word	0x00001f1c
    1f30:	0000c318          	.word	0x0000c318
    1f34:	00448493          	addi	x9,x9,4

# Testcase cr_rs1_imm_edges (rs1 = 0xffffffff, imm = 2)
  RVTEST_TESTDATA_LOAD_INT(x19, x2) # load rs1: x2 = 0xffffffff
    1f38:	0009a103          	lw	x2,0(x19)
    1f3c:	00498993          	addi	x19,x19,4

00001f40 <I_addi_cg_cr_rs1_imm_edges_rs1val_0xffffffff_immval_0x2>:
I_addi_cg_cr_rs1_imm_edges_rs1val_0xffffffff_immval_0x2:
  addi x20, x2, 2 # perform operation
    1f40:	00210a13          	addi	x20,x2,2
  # Check if x20 contains the expected result. x9 is the signature ptr, x8 is the link ptr, x7 is a temp reg.
  RVTEST_SIGUPD(x9, x8, x7, x20, I_addi_cg_cr_rs1_imm_edges_rs1val_0xffffffff_immval_0x2, I_addi_cg_cr_rs1_imm_edges_rs1val_0xffffffff_immval_0x2_str)
    1f44:	0004a383          	lw	x7,0(x9)
    1f48:	01438863          	beq	x7,x20,1f58 <I_addi_cg_cr_rs1_imm_edges_rs1val_0xffffffff_immval_0x2+0x18>
    1f4c:	5880146f          	jal	x8,34d4 <failedtest_x8_x7>
    1f50:	00001f40          	.word	0x00001f40
    1f54:	0000c36d          	.word	0x0000c36d
    1f58:	00448493          	addi	x9,x9,4

# Testcase cr_rs1_imm_edges (rs1 = 0xffffffff, imm = 3)
  RVTEST_TESTDATA_LOAD_INT(x19, x31) # load rs1: x31 = 0xffffffff
    1f5c:	0009af83          	lw	x31,0(x19)
    1f60:	00498993          	addi	x19,x19,4

00001f64 <I_addi_cg_cr_rs1_imm_edges_rs1val_0xffffffff_immval_0x3>:
I_addi_cg_cr_rs1_imm_edges_rs1val_0xffffffff_immval_0x3:
  addi x3, x31, 3 # perform operation
    1f64:	003f8193          	addi	x3,x31,3
  # Check if x3 contains the expected result. x9 is the signature ptr, x8 is the link ptr, x7 is a temp reg.
  RVTEST_SIGUPD(x9, x8, x7, x3, I_addi_cg_cr_rs1_imm_edges_rs1val_0xffffffff_immval_0x3, I_addi_cg_cr_rs1_imm_edges_rs1val_0xffffffff_immval_0x3_str)
    1f68:	0004a383          	lw	x7,0(x9)
    1f6c:	00338863          	beq	x7,x3,1f7c <I_addi_cg_cr_rs1_imm_edges_rs1val_0xffffffff_immval_0x3+0x18>
    1f70:	5640146f          	jal	x8,34d4 <failedtest_x8_x7>
    1f74:	00001f64          	.word	0x00001f64
    1f78:	0000c3c2          	.word	0x0000c3c2
    1f7c:	00448493          	addi	x9,x9,4

# Testcase cr_rs1_imm_edges (rs1 = 0xffffffff, imm = 4)
  RVTEST_TESTDATA_LOAD_INT(x19, x25) # load rs1: x25 = 0xffffffff
    1f80:	0009ac83          	lw	x25,0(x19)
    1f84:	00498993          	addi	x19,x19,4

00001f88 <I_addi_cg_cr_rs1_imm_edges_rs1val_0xffffffff_immval_0x4>:
I_addi_cg_cr_rs1_imm_edges_rs1val_0xffffffff_immval_0x4:
  addi x18, x25, 4 # perform operation
    1f88:	004c8913          	addi	x18,x25,4
  # Check if x18 contains the expected result. x9 is the signature ptr, x8 is the link ptr, x7 is a temp reg.
  RVTEST_SIGUPD(x9, x8, x7, x18, I_addi_cg_cr_rs1_imm_edges_rs1val_0xffffffff_immval_0x4, I_addi_cg_cr_rs1_imm_edges_rs1val_0xffffffff_immval_0x4_str)
    1f8c:	0004a383          	lw	x7,0(x9)
    1f90:	01238863          	beq	x7,x18,1fa0 <I_addi_cg_cr_rs1_imm_edges_rs1val_0xffffffff_immval_0x4+0x18>
    1f94:	5400146f          	jal	x8,34d4 <failedtest_x8_x7>
    1f98:	00001f88          	.word	0x00001f88
    1f9c:	0000c417          	.word	0x0000c417
    1fa0:	00448493          	addi	x9,x9,4

# Testcase cr_rs1_imm_edges (rs1 = 0xffffffff, imm = 8)
  RVTEST_TESTDATA_LOAD_INT(x19, x12) # load rs1: x12 = 0xffffffff
    1fa4:	0009a603          	lw	x12,0(x19)
    1fa8:	00498993          	addi	x19,x19,4

00001fac <I_addi_cg_cr_rs1_imm_edges_rs1val_0xffffffff_immval_0x8>:
I_addi_cg_cr_rs1_imm_edges_rs1val_0xffffffff_immval_0x8:
  addi x18, x12, 8 # perform operation
    1fac:	00860913          	addi	x18,x12,8
  # Check if x18 contains the expected result. x9 is the signature ptr, x8 is the link ptr, x7 is a temp reg.
  RVTEST_SIGUPD(x9, x8, x7, x18, I_addi_cg_cr_rs1_imm_edges_rs1val_0xffffffff_immval_0x8, I_addi_cg_cr_rs1_imm_edges_rs1val_0xffffffff_immval_0x8_str)
    1fb0:	0004a383          	lw	x7,0(x9)
    1fb4:	01238863          	beq	x7,x18,1fc4 <I_addi_cg_cr_rs1_imm_edges_rs1val_0xffffffff_immval_0x8+0x18>
    1fb8:	51c0146f          	jal	x8,34d4 <failedtest_x8_x7>
    1fbc:	00001fac          	.word	0x00001fac
    1fc0:	0000c46c          	.word	0x0000c46c
    1fc4:	00448493          	addi	x9,x9,4

# Testcase cr_rs1_imm_edges (rs1 = 0xffffffff, imm = 16)
  RVTEST_TESTDATA_LOAD_INT(x19, x10) # load rs1: x10 = 0xffffffff
    1fc8:	0009a503          	lw	x10,0(x19)
    1fcc:	00498993          	addi	x19,x19,4

00001fd0 <I_addi_cg_cr_rs1_imm_edges_rs1val_0xffffffff_immval_0x10>:
I_addi_cg_cr_rs1_imm_edges_rs1val_0xffffffff_immval_0x10:
  addi x1, x10, 16 # perform operation
    1fd0:	01050093          	addi	x1,x10,16
  # Check if x1 contains the expected result. x9 is the signature ptr, x8 is the link ptr, x7 is a temp reg.
  RVTEST_SIGUPD(x9, x8, x7, x1, I_addi_cg_cr_rs1_imm_edges_rs1val_0xffffffff_immval_0x10, I_addi_cg_cr_rs1_imm_edges_rs1val_0xffffffff_immval_0x10_str)
    1fd4:	0004a383          	lw	x7,0(x9)
    1fd8:	00138863          	beq	x7,x1,1fe8 <I_addi_cg_cr_rs1_imm_edges_rs1val_0xffffffff_immval_0x10+0x18>
    1fdc:	4f80146f          	jal	x8,34d4 <failedtest_x8_x7>
    1fe0:	00001fd0          	.word	0x00001fd0
    1fe4:	0000c4c1          	.word	0x0000c4c1
    1fe8:	00448493          	addi	x9,x9,4

# Testcase cr_rs1_imm_edges (rs1 = 0xffffffff, imm = 32)
  RVTEST_TESTDATA_LOAD_INT(x19, x10) # load rs1: x10 = 0xffffffff
    1fec:	0009a503          	lw	x10,0(x19)
    1ff0:	00498993          	addi	x19,x19,4

00001ff4 <I_addi_cg_cr_rs1_imm_edges_rs1val_0xffffffff_immval_0x20>:
I_addi_cg_cr_rs1_imm_edges_rs1val_0xffffffff_immval_0x20:
  addi x12, x10, 32 # perform operation
    1ff4:	02050613          	addi	x12,x10,32
  # Check if x12 contains the expected result. x9 is the signature ptr, x8 is the link ptr, x7 is a temp reg.
  RVTEST_SIGUPD(x9, x8, x7, x12, I_addi_cg_cr_rs1_imm_edges_rs1val_0xffffffff_immval_0x20, I_addi_cg_cr_rs1_imm_edges_rs1val_0xffffffff_immval_0x20_str)
    1ff8:	0004a383          	lw	x7,0(x9)
    1ffc:	00c38863          	beq	x7,x12,200c <I_addi_cg_cr_rs1_imm_edges_rs1val_0xffffffff_immval_0x20+0x18>
    2000:	4d40146f          	jal	x8,34d4 <failedtest_x8_x7>
    2004:	00001ff4          	.word	0x00001ff4
    2008:	0000c517          	.word	0x0000c517
    200c:	00448493          	addi	x9,x9,4

# Testcase cr_rs1_imm_edges (rs1 = 0xffffffff, imm = 64)
  RVTEST_TESTDATA_LOAD_INT(x19, x29) # load rs1: x29 = 0xffffffff
    2010:	0009ae83          	lw	x29,0(x19)
    2014:	00498993          	addi	x19,x19,4

00002018 <I_addi_cg_cr_rs1_imm_edges_rs1val_0xffffffff_immval_0x40>:
I_addi_cg_cr_rs1_imm_edges_rs1val_0xffffffff_immval_0x40:
  addi x26, x29, 64 # perform operation
    2018:	040e8d13          	addi	x26,x29,64
  # Check if x26 contains the expected result. x9 is the signature ptr, x8 is the link ptr, x7 is a temp reg.
  RVTEST_SIGUPD(x9, x8, x7, x26, I_addi_cg_cr_rs1_imm_edges_rs1val_0xffffffff_immval_0x40, I_addi_cg_cr_rs1_imm_edges_rs1val_0xffffffff_immval_0x40_str)
    201c:	0004a383          	lw	x7,0(x9)
    2020:	01a38863          	beq	x7,x26,2030 <I_addi_cg_cr_rs1_imm_edges_rs1val_0xffffffff_immval_0x40+0x18>
    2024:	4b00146f          	jal	x8,34d4 <failedtest_x8_x7>
    2028:	00002018          	.word	0x00002018
    202c:	0000c56d          	.word	0x0000c56d
    2030:	00448493          	addi	x9,x9,4

# Testcase cr_rs1_imm_edges (rs1 = 0xffffffff, imm = 128)
  RVTEST_TESTDATA_LOAD_INT(x19, x30) # load rs1: x30 = 0xffffffff
    2034:	0009af03          	lw	x30,0(x19)
    2038:	00498993          	addi	x19,x19,4

0000203c <I_addi_cg_cr_rs1_imm_edges_rs1val_0xffffffff_immval_0x80>:
I_addi_cg_cr_rs1_imm_edges_rs1val_0xffffffff_immval_0x80:
  addi x6, x30, 128 # perform operation
    203c:	080f0313          	addi	x6,x30,128
  # Check if x6 contains the expected result. x9 is the signature ptr, x8 is the link ptr, x7 is a temp reg.
  RVTEST_SIGUPD(x9, x8, x7, x6, I_addi_cg_cr_rs1_imm_edges_rs1val_0xffffffff_immval_0x80, I_addi_cg_cr_rs1_imm_edges_rs1val_0xffffffff_immval_0x80_str)
    2040:	0004a383          	lw	x7,0(x9)
    2044:	00638863          	beq	x7,x6,2054 <I_addi_cg_cr_rs1_imm_edges_rs1val_0xffffffff_immval_0x80+0x18>
    2048:	48c0146f          	jal	x8,34d4 <failedtest_x8_x7>
    204c:	0000203c          	.word	0x0000203c
    2050:	0000c5c3          	.word	0x0000c5c3
    2054:	00448493          	addi	x9,x9,4

# Testcase cr_rs1_imm_edges (rs1 = 0xffffffff, imm = 256)
  RVTEST_TESTDATA_LOAD_INT(x19, x30) # load rs1: x30 = 0xffffffff
    2058:	0009af03          	lw	x30,0(x19)
    205c:	00498993          	addi	x19,x19,4

00002060 <I_addi_cg_cr_rs1_imm_edges_rs1val_0xffffffff_immval_0x100>:
I_addi_cg_cr_rs1_imm_edges_rs1val_0xffffffff_immval_0x100:
  addi x25, x30, 256 # perform operation
    2060:	100f0c93          	addi	x25,x30,256
  # Check if x25 contains the expected result. x9 is the signature ptr, x8 is the link ptr, x7 is a temp reg.
  RVTEST_SIGUPD(x9, x8, x7, x25, I_addi_cg_cr_rs1_imm_edges_rs1val_0xffffffff_immval_0x100, I_addi_cg_cr_rs1_imm_edges_rs1val_0xffffffff_immval_0x100_str)
    2064:	0004a383          	lw	x7,0(x9)
    2068:	01938863          	beq	x7,x25,2078 <I_addi_cg_cr_rs1_imm_edges_rs1val_0xffffffff_immval_0x100+0x18>
    206c:	4680146f          	jal	x8,34d4 <failedtest_x8_x7>
    2070:	00002060          	.word	0x00002060
    2074:	0000c619          	.word	0x0000c619
    2078:	00448493          	addi	x9,x9,4

# Testcase cr_rs1_imm_edges (rs1 = 0xffffffff, imm = 512)
  RVTEST_TESTDATA_LOAD_INT(x19, x18) # load rs1: x18 = 0xffffffff
    207c:	0009a903          	lw	x18,0(x19)
    2080:	00498993          	addi	x19,x19,4

00002084 <I_addi_cg_cr_rs1_imm_edges_rs1val_0xffffffff_immval_0x200>:
I_addi_cg_cr_rs1_imm_edges_rs1val_0xffffffff_immval_0x200:
  addi x5, x18, 512 # perform operation
    2084:	20090293          	addi	x5,x18,512
  # Check if x5 contains the expected result. x9 is the signature ptr, x8 is the link ptr, x7 is a temp reg.
  RVTEST_SIGUPD(x9, x8, x7, x5, I_addi_cg_cr_rs1_imm_edges_rs1val_0xffffffff_immval_0x200, I_addi_cg_cr_rs1_imm_edges_rs1val_0xffffffff_immval_0x200_str)
    2088:	0004a383          	lw	x7,0(x9)
    208c:	00538863          	beq	x7,x5,209c <I_addi_cg_cr_rs1_imm_edges_rs1val_0xffffffff_immval_0x200+0x18>
    2090:	4440146f          	jal	x8,34d4 <failedtest_x8_x7>
    2094:	00002084          	.word	0x00002084
    2098:	0000c670          	.word	0x0000c670
    209c:	00448493          	addi	x9,x9,4

# Testcase cr_rs1_imm_edges (rs1 = 0xffffffff, imm = 1023)
  RVTEST_TESTDATA_LOAD_INT(x19, x28) # load rs1: x28 = 0xffffffff
    20a0:	0009ae03          	lw	x28,0(x19)
    20a4:	00498993          	addi	x19,x19,4

000020a8 <I_addi_cg_cr_rs1_imm_edges_rs1val_0xffffffff_immval_0x3ff>:
I_addi_cg_cr_rs1_imm_edges_rs1val_0xffffffff_immval_0x3ff:
  addi x30, x28, 1023 # perform operation
    20a8:	3ffe0f13          	addi	x30,x28,1023
  # Check if x30 contains the expected result. x9 is the signature ptr, x8 is the link ptr, x7 is a temp reg.
  RVTEST_SIGUPD(x9, x8, x7, x30, I_addi_cg_cr_rs1_imm_edges_rs1val_0xffffffff_immval_0x3ff, I_addi_cg_cr_rs1_imm_edges_rs1val_0xffffffff_immval_0x3ff_str)
    20ac:	0004a383          	lw	x7,0(x9)
    20b0:	01e38863          	beq	x7,x30,20c0 <I_addi_cg_cr_rs1_imm_edges_rs1val_0xffffffff_immval_0x3ff+0x18>
    20b4:	4200146f          	jal	x8,34d4 <failedtest_x8_x7>
    20b8:	000020a8          	.word	0x000020a8
    20bc:	0000c6c7          	.word	0x0000c6c7
    20c0:	00448493          	addi	x9,x9,4

# Testcase cr_rs1_imm_edges (rs1 = 0xffffffff, imm = 1024)
  RVTEST_TESTDATA_LOAD_INT(x19, x4) # load rs1: x4 = 0xffffffff
    20c4:	0009a203          	lw	x4,0(x19)
    20c8:	00498993          	addi	x19,x19,4

000020cc <I_addi_cg_cr_rs1_imm_edges_rs1val_0xffffffff_immval_0x400>:
I_addi_cg_cr_rs1_imm_edges_rs1val_0xffffffff_immval_0x400:
  addi x15, x4, 1024 # perform operation
    20cc:	40020793          	addi	x15,x4,1024 # 400 <I_addi_cg_cp_rs1_b25+0x8>
  # Check if x15 contains the expected result. x9 is the signature ptr, x8 is the link ptr, x7 is a temp reg.
  RVTEST_SIGUPD(x9, x8, x7, x15, I_addi_cg_cr_rs1_imm_edges_rs1val_0xffffffff_immval_0x400, I_addi_cg_cr_rs1_imm_edges_rs1val_0xffffffff_immval_0x400_str)
    20d0:	0004a383          	lw	x7,0(x9)
    20d4:	00f38863          	beq	x7,x15,20e4 <I_addi_cg_cr_rs1_imm_edges_rs1val_0xffffffff_immval_0x400+0x18>
    20d8:	3fc0146f          	jal	x8,34d4 <failedtest_x8_x7>
    20dc:	000020cc          	.word	0x000020cc
    20e0:	0000c71e          	.word	0x0000c71e
    20e4:	00448493          	addi	x9,x9,4

# Testcase cr_rs1_imm_edges (rs1 = 0xffffffff, imm = 1795)
  RVTEST_TESTDATA_LOAD_INT(x19, x25) # load rs1: x25 = 0xffffffff
    20e8:	0009ac83          	lw	x25,0(x19)
    20ec:	00498993          	addi	x19,x19,4

000020f0 <I_addi_cg_cr_rs1_imm_edges_rs1val_0xffffffff_immval_0x703>:
I_addi_cg_cr_rs1_imm_edges_rs1val_0xffffffff_immval_0x703:
  addi x11, x25, 1795 # perform operation
    20f0:	703c8593          	addi	x11,x25,1795
  # Check if x11 contains the expected result. x9 is the signature ptr, x8 is the link ptr, x7 is a temp reg.
  RVTEST_SIGUPD(x9, x8, x7, x11, I_addi_cg_cr_rs1_imm_edges_rs1val_0xffffffff_immval_0x703, I_addi_cg_cr_rs1_imm_edges_rs1val_0xffffffff_immval_0x703_str)
    20f4:	0004a383          	lw	x7,0(x9)
    20f8:	00b38863          	beq	x7,x11,2108 <I_addi_cg_cr_rs1_imm_edges_rs1val_0xffffffff_immval_0x703+0x18>
    20fc:	3d80146f          	jal	x8,34d4 <failedtest_x8_x7>
    2100:	000020f0          	.word	0x000020f0
    2104:	0000c775          	.word	0x0000c775
    2108:	00448493          	addi	x9,x9,4

# Testcase cr_rs1_imm_edges (rs1 = 0xffffffff, imm = 2047)
  RVTEST_TESTDATA_LOAD_INT(x19, x26) # load rs1: x26 = 0xffffffff
    210c:	0009ad03          	lw	x26,0(x19)
    2110:	00498993          	addi	x19,x19,4

00002114 <I_addi_cg_cr_rs1_imm_edges_rs1val_0xffffffff_immval_0x7ff>:
I_addi_cg_cr_rs1_imm_edges_rs1val_0xffffffff_immval_0x7ff:
  addi x20, x26, 2047 # perform operation
    2114:	7ffd0a13          	addi	x20,x26,2047
  # Check if x20 contains the expected result. x9 is the signature ptr, x8 is the link ptr, x7 is a temp reg.
  RVTEST_SIGUPD(x9, x8, x7, x20, I_addi_cg_cr_rs1_imm_edges_rs1val_0xffffffff_immval_0x7ff, I_addi_cg_cr_rs1_imm_edges_rs1val_0xffffffff_immval_0x7ff_str)
    2118:	0004a383          	lw	x7,0(x9)
    211c:	01438863          	beq	x7,x20,212c <I_addi_cg_cr_rs1_imm_edges_rs1val_0xffffffff_immval_0x7ff+0x18>
    2120:	3b40146f          	jal	x8,34d4 <failedtest_x8_x7>
    2124:	00002114          	.word	0x00002114
    2128:	0000c7cc          	.word	0x0000c7cc
    212c:	00448493          	addi	x9,x9,4

# Testcase cr_rs1_imm_edges (rs1 = 0xffffffff, imm = -2048)
  RVTEST_TESTDATA_LOAD_INT(x19, x12) # load rs1: x12 = 0xffffffff
    2130:	0009a603          	lw	x12,0(x19)
    2134:	00498993          	addi	x19,x19,4

00002138 <I_addi_cg_cr_rs1_imm_edges_rs1val_0xffffffff_immval_m0x800>:
I_addi_cg_cr_rs1_imm_edges_rs1val_0xffffffff_immval_m0x800:
  addi x22, x12, -2048 # perform operation
    2138:	80060b13          	addi	x22,x12,-2048
  # Check if x22 contains the expected result. x9 is the signature ptr, x8 is the link ptr, x7 is a temp reg.
  RVTEST_SIGUPD(x9, x8, x7, x22, I_addi_cg_cr_rs1_imm_edges_rs1val_0xffffffff_immval_m0x800, I_addi_cg_cr_rs1_imm_edges_rs1val_0xffffffff_immval_m0x800_str)
    213c:	0004a383          	lw	x7,0(x9)
    2140:	01638863          	beq	x7,x22,2150 <I_addi_cg_cr_rs1_imm_edges_rs1val_0xffffffff_immval_m0x800+0x18>
    2144:	3900146f          	jal	x8,34d4 <failedtest_x8_x7>
    2148:	00002138          	.word	0x00002138
    214c:	0000c823          	.word	0x0000c823
    2150:	00448493          	addi	x9,x9,4

# Testcase cr_rs1_imm_edges (rs1 = 0xffffffff, imm = -2047)
  RVTEST_TESTDATA_LOAD_INT(x19, x11) # load rs1: x11 = 0xffffffff
    2154:	0009a583          	lw	x11,0(x19)
    2158:	00498993          	addi	x19,x19,4

0000215c <I_addi_cg_cr_rs1_imm_edges_rs1val_0xffffffff_immval_m0x7ff>:
I_addi_cg_cr_rs1_imm_edges_rs1val_0xffffffff_immval_m0x7ff:
  addi x4, x11, -2047 # perform operation
    215c:	80158213          	addi	x4,x11,-2047
  # Check if x4 contains the expected result. x9 is the signature ptr, x8 is the link ptr, x7 is a temp reg.
  RVTEST_SIGUPD(x9, x8, x7, x4, I_addi_cg_cr_rs1_imm_edges_rs1val_0xffffffff_immval_m0x7ff, I_addi_cg_cr_rs1_imm_edges_rs1val_0xffffffff_immval_m0x7ff_str)
    2160:	0004a383          	lw	x7,0(x9)
    2164:	00438863          	beq	x7,x4,2174 <I_addi_cg_cr_rs1_imm_edges_rs1val_0xffffffff_immval_m0x7ff+0x18>
    2168:	36c0146f          	jal	x8,34d4 <failedtest_x8_x7>
    216c:	0000215c          	.word	0x0000215c
    2170:	0000c87b          	.word	0x0000c87b
    2174:	00448493          	addi	x9,x9,4

# Testcase cr_rs1_imm_edges (rs1 = 0xffffffff, imm = -2)
  RVTEST_TESTDATA_LOAD_INT(x19, x10) # load rs1: x10 = 0xffffffff
    2178:	0009a503          	lw	x10,0(x19)
    217c:	00498993          	addi	x19,x19,4

00002180 <I_addi_cg_cr_rs1_imm_edges_rs1val_0xffffffff_immval_m0x2>:
I_addi_cg_cr_rs1_imm_edges_rs1val_0xffffffff_immval_m0x2:
  addi x15, x10, -2 # perform operation
    2180:	ffe50793          	addi	x15,x10,-2
  # Check if x15 contains the expected result. x9 is the signature ptr, x8 is the link ptr, x7 is a temp reg.
  RVTEST_SIGUPD(x9, x8, x7, x15, I_addi_cg_cr_rs1_imm_edges_rs1val_0xffffffff_immval_m0x2, I_addi_cg_cr_rs1_imm_edges_rs1val_0xffffffff_immval_m0x2_str)
    2184:	0004a383          	lw	x7,0(x9)
    2188:	00f38863          	beq	x7,x15,2198 <I_addi_cg_cr_rs1_imm_edges_rs1val_0xffffffff_immval_m0x2+0x18>
    218c:	3480146f          	jal	x8,34d4 <failedtest_x8_x7>
    2190:	00002180          	.word	0x00002180
    2194:	0000c8d3          	.word	0x0000c8d3
    2198:	00448493          	addi	x9,x9,4

# Testcase cr_rs1_imm_edges (rs1 = 0xffffffff, imm = -1)
  RVTEST_TESTDATA_LOAD_INT(x19, x24) # load rs1: x24 = 0xffffffff
    219c:	0009ac03          	lw	x24,0(x19)
    21a0:	00498993          	addi	x19,x19,4

000021a4 <I_addi_cg_cr_rs1_imm_edges_rs1val_0xffffffff_immval_m0x1>:
I_addi_cg_cr_rs1_imm_edges_rs1val_0xffffffff_immval_m0x1:
  addi x1, x24, -1 # perform operation
    21a4:	fffc0093          	addi	x1,x24,-1
  # Check if x1 contains the expected result. x9 is the signature ptr, x8 is the link ptr, x7 is a temp reg.
  RVTEST_SIGUPD(x9, x8, x7, x1, I_addi_cg_cr_rs1_imm_edges_rs1val_0xffffffff_immval_m0x1, I_addi_cg_cr_rs1_imm_edges_rs1val_0xffffffff_immval_m0x1_str)
    21a8:	0004a383          	lw	x7,0(x9)
    21ac:	00138863          	beq	x7,x1,21bc <I_addi_cg_cr_rs1_imm_edges_rs1val_0xffffffff_immval_m0x1+0x18>
    21b0:	3240146f          	jal	x8,34d4 <failedtest_x8_x7>
    21b4:	000021a4          	.word	0x000021a4
    21b8:	0000c929          	.word	0x0000c929
    21bc:	00448493          	addi	x9,x9,4

# Testcase cr_rs1_imm_edges (rs1 = 0xfffffffe, imm = 0)
  RVTEST_TESTDATA_LOAD_INT(x19, x21) # load rs1: x21 = 0xfffffffe
    21c0:	0009aa83          	lw	x21,0(x19)
    21c4:	00498993          	addi	x19,x19,4

000021c8 <I_addi_cg_cr_rs1_imm_edges_rs1val_0xfffffffe_immval_0x0>:
I_addi_cg_cr_rs1_imm_edges_rs1val_0xfffffffe_immval_0x0:
  addi x27, x21, 0 # perform operation
    21c8:	000a8d93          	addi	x27,x21,0
  # Check if x27 contains the expected result. x9 is the signature ptr, x8 is the link ptr, x7 is a temp reg.
  RVTEST_SIGUPD(x9, x8, x7, x27, I_addi_cg_cr_rs1_imm_edges_rs1val_0xfffffffe_immval_0x0, I_addi_cg_cr_rs1_imm_edges_rs1val_0xfffffffe_immval_0x0_str)
    21cc:	0004a383          	lw	x7,0(x9)
    21d0:	01b38863          	beq	x7,x27,21e0 <I_addi_cg_cr_rs1_imm_edges_rs1val_0xfffffffe_immval_0x0+0x18>
    21d4:	3000146f          	jal	x8,34d4 <failedtest_x8_x7>
    21d8:	000021c8          	.word	0x000021c8
    21dc:	0000c97f          	.word	0x0000c97f
    21e0:	00448493          	addi	x9,x9,4

# Testcase cr_rs1_imm_edges (rs1 = 0xfffffffe, imm = 1)
  RVTEST_TESTDATA_LOAD_INT(x19, x5) # load rs1: x5 = 0xfffffffe
    21e4:	0009a283          	lw	x5,0(x19)
    21e8:	00498993          	addi	x19,x19,4

000021ec <I_addi_cg_cr_rs1_imm_edges_rs1val_0xfffffffe_immval_0x1>:
I_addi_cg_cr_rs1_imm_edges_rs1val_0xfffffffe_immval_0x1:
  addi x1, x5, 1 # perform operation
    21ec:	00128093          	addi	x1,x5,1
  # Check if x1 contains the expected result. x9 is the signature ptr, x8 is the link ptr, x7 is a temp reg.
  RVTEST_SIGUPD(x9, x8, x7, x1, I_addi_cg_cr_rs1_imm_edges_rs1val_0xfffffffe_immval_0x1, I_addi_cg_cr_rs1_imm_edges_rs1val_0xfffffffe_immval_0x1_str)
    21f0:	0004a383          	lw	x7,0(x9)
    21f4:	00138863          	beq	x7,x1,2204 <I_addi_cg_cr_rs1_imm_edges_rs1val_0xfffffffe_immval_0x1+0x18>
    21f8:	2dc0146f          	jal	x8,34d4 <failedtest_x8_x7>
    21fc:	000021ec          	.word	0x000021ec
    2200:	0000c9d4          	.word	0x0000c9d4
    2204:	00448493          	addi	x9,x9,4

# Testcase cr_rs1_imm_edges (rs1 = 0xfffffffe, imm = 2)
  RVTEST_TESTDATA_LOAD_INT(x19, x10) # load rs1: x10 = 0xfffffffe
    2208:	0009a503          	lw	x10,0(x19)
    220c:	00498993          	addi	x19,x19,4

00002210 <I_addi_cg_cr_rs1_imm_edges_rs1val_0xfffffffe_immval_0x2>:
I_addi_cg_cr_rs1_imm_edges_rs1val_0xfffffffe_immval_0x2:
  addi x25, x10, 2 # perform operation
    2210:	00250c93          	addi	x25,x10,2
  # Check if x25 contains the expected result. x9 is the signature ptr, x8 is the link ptr, x7 is a temp reg.
  RVTEST_SIGUPD(x9, x8, x7, x25, I_addi_cg_cr_rs1_imm_edges_rs1val_0xfffffffe_immval_0x2, I_addi_cg_cr_rs1_imm_edges_rs1val_0xfffffffe_immval_0x2_str)
    2214:	0004a383          	lw	x7,0(x9)
    2218:	01938863          	beq	x7,x25,2228 <I_addi_cg_cr_rs1_imm_edges_rs1val_0xfffffffe_immval_0x2+0x18>
    221c:	2b80146f          	jal	x8,34d4 <failedtest_x8_x7>
    2220:	00002210          	.word	0x00002210
    2224:	0000ca29          	.word	0x0000ca29
    2228:	00448493          	addi	x9,x9,4

# Testcase cr_rs1_imm_edges (rs1 = 0xfffffffe, imm = 3)
  RVTEST_TESTDATA_LOAD_INT(x19, x11) # load rs1: x11 = 0xfffffffe
    222c:	0009a583          	lw	x11,0(x19)
    2230:	00498993          	addi	x19,x19,4

00002234 <I_addi_cg_cr_rs1_imm_edges_rs1val_0xfffffffe_immval_0x3>:
I_addi_cg_cr_rs1_imm_edges_rs1val_0xfffffffe_immval_0x3:
  addi x30, x11, 3 # perform operation
    2234:	00358f13          	addi	x30,x11,3
  # Check if x30 contains the expected result. x9 is the signature ptr, x8 is the link ptr, x7 is a temp reg.
  RVTEST_SIGUPD(x9, x8, x7, x30, I_addi_cg_cr_rs1_imm_edges_rs1val_0xfffffffe_immval_0x3, I_addi_cg_cr_rs1_imm_edges_rs1val_0xfffffffe_immval_0x3_str)
    2238:	0004a383          	lw	x7,0(x9)
    223c:	01e38863          	beq	x7,x30,224c <I_addi_cg_cr_rs1_imm_edges_rs1val_0xfffffffe_immval_0x3+0x18>
    2240:	2940146f          	jal	x8,34d4 <failedtest_x8_x7>
    2244:	00002234          	.word	0x00002234
    2248:	0000ca7e          	.word	0x0000ca7e
    224c:	00448493          	addi	x9,x9,4

# Testcase cr_rs1_imm_edges (rs1 = 0xfffffffe, imm = 4)
  RVTEST_TESTDATA_LOAD_INT(x19, x23) # load rs1: x23 = 0xfffffffe
    2250:	0009ab83          	lw	x23,0(x19)
    2254:	00498993          	addi	x19,x19,4

00002258 <I_addi_cg_cr_rs1_imm_edges_rs1val_0xfffffffe_immval_0x4>:
I_addi_cg_cr_rs1_imm_edges_rs1val_0xfffffffe_immval_0x4:
  addi x28, x23, 4 # perform operation
    2258:	004b8e13          	addi	x28,x23,4
  # Check if x28 contains the expected result. x9 is the signature ptr, x8 is the link ptr, x7 is a temp reg.
  RVTEST_SIGUPD(x9, x8, x7, x28, I_addi_cg_cr_rs1_imm_edges_rs1val_0xfffffffe_immval_0x4, I_addi_cg_cr_rs1_imm_edges_rs1val_0xfffffffe_immval_0x4_str)
    225c:	0004a383          	lw	x7,0(x9)
    2260:	01c38863          	beq	x7,x28,2270 <I_addi_cg_cr_rs1_imm_edges_rs1val_0xfffffffe_immval_0x4+0x18>
    2264:	2700146f          	jal	x8,34d4 <failedtest_x8_x7>
    2268:	00002258          	.word	0x00002258
    226c:	0000cad3          	.word	0x0000cad3
    2270:	00448493          	addi	x9,x9,4

# Testcase cr_rs1_imm_edges (rs1 = 0xfffffffe, imm = 8)
  RVTEST_TESTDATA_LOAD_INT(x19, x25) # load rs1: x25 = 0xfffffffe
    2274:	0009ac83          	lw	x25,0(x19)
    2278:	00498993          	addi	x19,x19,4

0000227c <I_addi_cg_cr_rs1_imm_edges_rs1val_0xfffffffe_immval_0x8>:
I_addi_cg_cr_rs1_imm_edges_rs1val_0xfffffffe_immval_0x8:
  addi x22, x25, 8 # perform operation
    227c:	008c8b13          	addi	x22,x25,8
  # Check if x22 contains the expected result. x9 is the signature ptr, x8 is the link ptr, x7 is a temp reg.
  RVTEST_SIGUPD(x9, x8, x7, x22, I_addi_cg_cr_rs1_imm_edges_rs1val_0xfffffffe_immval_0x8, I_addi_cg_cr_rs1_imm_edges_rs1val_0xfffffffe_immval_0x8_str)
    2280:	0004a383          	lw	x7,0(x9)
    2284:	01638863          	beq	x7,x22,2294 <I_addi_cg_cr_rs1_imm_edges_rs1val_0xfffffffe_immval_0x8+0x18>
    2288:	24c0146f          	jal	x8,34d4 <failedtest_x8_x7>
    228c:	0000227c          	.word	0x0000227c
    2290:	0000cb28          	.word	0x0000cb28
    2294:	00448493          	addi	x9,x9,4

# Testcase cr_rs1_imm_edges (rs1 = 0xfffffffe, imm = 16)
  RVTEST_TESTDATA_LOAD_INT(x19, x28) # load rs1: x28 = 0xfffffffe
    2298:	0009ae03          	lw	x28,0(x19)
    229c:	00498993          	addi	x19,x19,4

000022a0 <I_addi_cg_cr_rs1_imm_edges_rs1val_0xfffffffe_immval_0x10>:
I_addi_cg_cr_rs1_imm_edges_rs1val_0xfffffffe_immval_0x10:
  addi x30, x28, 16 # perform operation
    22a0:	010e0f13          	addi	x30,x28,16
  # Check if x30 contains the expected result. x9 is the signature ptr, x8 is the link ptr, x7 is a temp reg.
  RVTEST_SIGUPD(x9, x8, x7, x30, I_addi_cg_cr_rs1_imm_edges_rs1val_0xfffffffe_immval_0x10, I_addi_cg_cr_rs1_imm_edges_rs1val_0xfffffffe_immval_0x10_str)
    22a4:	0004a383          	lw	x7,0(x9)
    22a8:	01e38863          	beq	x7,x30,22b8 <I_addi_cg_cr_rs1_imm_edges_rs1val_0xfffffffe_immval_0x10+0x18>
    22ac:	2280146f          	jal	x8,34d4 <failedtest_x8_x7>
    22b0:	000022a0          	.word	0x000022a0
    22b4:	0000cb7d          	.word	0x0000cb7d
    22b8:	00448493          	addi	x9,x9,4

# Testcase cr_rs1_imm_edges (rs1 = 0xfffffffe, imm = 32)
  RVTEST_TESTDATA_LOAD_INT(x19, x10) # load rs1: x10 = 0xfffffffe
    22bc:	0009a503          	lw	x10,0(x19)
    22c0:	00498993          	addi	x19,x19,4

000022c4 <I_addi_cg_cr_rs1_imm_edges_rs1val_0xfffffffe_immval_0x20>:
I_addi_cg_cr_rs1_imm_edges_rs1val_0xfffffffe_immval_0x20:
  addi x2, x10, 32 # perform operation
    22c4:	02050113          	addi	x2,x10,32
  # Check if x2 contains the expected result. x9 is the signature ptr, x8 is the link ptr, x7 is a temp reg.
  RVTEST_SIGUPD(x9, x8, x7, x2, I_addi_cg_cr_rs1_imm_edges_rs1val_0xfffffffe_immval_0x20, I_addi_cg_cr_rs1_imm_edges_rs1val_0xfffffffe_immval_0x20_str)
    22c8:	0004a383          	lw	x7,0(x9)
    22cc:	00238863          	beq	x7,x2,22dc <I_addi_cg_cr_rs1_imm_edges_rs1val_0xfffffffe_immval_0x20+0x18>
    22d0:	2040146f          	jal	x8,34d4 <failedtest_x8_x7>
    22d4:	000022c4          	.word	0x000022c4
    22d8:	0000cbd3          	.word	0x0000cbd3
    22dc:	00448493          	addi	x9,x9,4

# Testcase cr_rs1_imm_edges (rs1 = 0xfffffffe, imm = 64)
  RVTEST_TESTDATA_LOAD_INT(x19, x26) # load rs1: x26 = 0xfffffffe
    22e0:	0009ad03          	lw	x26,0(x19)
    22e4:	00498993          	addi	x19,x19,4

000022e8 <I_addi_cg_cr_rs1_imm_edges_rs1val_0xfffffffe_immval_0x40>:
I_addi_cg_cr_rs1_imm_edges_rs1val_0xfffffffe_immval_0x40:
  addi x10, x26, 64 # perform operation
    22e8:	040d0513          	addi	x10,x26,64
  # Check if x10 contains the expected result. x9 is the signature ptr, x8 is the link ptr, x7 is a temp reg.
  RVTEST_SIGUPD(x9, x8, x7, x10, I_addi_cg_cr_rs1_imm_edges_rs1val_0xfffffffe_immval_0x40, I_addi_cg_cr_rs1_imm_edges_rs1val_0xfffffffe_immval_0x40_str)
    22ec:	0004a383          	lw	x7,0(x9)
    22f0:	00a38863          	beq	x7,x10,2300 <I_addi_cg_cr_rs1_imm_edges_rs1val_0xfffffffe_immval_0x40+0x18>
    22f4:	1e00146f          	jal	x8,34d4 <failedtest_x8_x7>
    22f8:	000022e8          	.word	0x000022e8
    22fc:	0000cc29          	.word	0x0000cc29
    2300:	00448493          	addi	x9,x9,4

# Testcase cr_rs1_imm_edges (rs1 = 0xfffffffe, imm = 128)
  RVTEST_TESTDATA_LOAD_INT(x19, x11) # load rs1: x11 = 0xfffffffe
    2304:	0009a583          	lw	x11,0(x19)
    2308:	00498993          	addi	x19,x19,4

0000230c <I_addi_cg_cr_rs1_imm_edges_rs1val_0xfffffffe_immval_0x80>:
I_addi_cg_cr_rs1_imm_edges_rs1val_0xfffffffe_immval_0x80:
  addi x27, x11, 128 # perform operation
    230c:	08058d93          	addi	x27,x11,128
  # Check if x27 contains the expected result. x9 is the signature ptr, x8 is the link ptr, x7 is a temp reg.
  RVTEST_SIGUPD(x9, x8, x7, x27, I_addi_cg_cr_rs1_imm_edges_rs1val_0xfffffffe_immval_0x80, I_addi_cg_cr_rs1_imm_edges_rs1val_0xfffffffe_immval_0x80_str)
    2310:	0004a383          	lw	x7,0(x9)
    2314:	01b38863          	beq	x7,x27,2324 <I_addi_cg_cr_rs1_imm_edges_rs1val_0xfffffffe_immval_0x80+0x18>
    2318:	1bc0146f          	jal	x8,34d4 <failedtest_x8_x7>
    231c:	0000230c          	.word	0x0000230c
    2320:	0000cc7f          	.word	0x0000cc7f
    2324:	00448493          	addi	x9,x9,4

# Testcase cr_rs1_imm_edges (rs1 = 0xfffffffe, imm = 256)
  RVTEST_TESTDATA_LOAD_INT(x19, x18) # load rs1: x18 = 0xfffffffe
    2328:	0009a903          	lw	x18,0(x19)
    232c:	00498993          	addi	x19,x19,4

00002330 <I_addi_cg_cr_rs1_imm_edges_rs1val_0xfffffffe_immval_0x100>:
I_addi_cg_cr_rs1_imm_edges_rs1val_0xfffffffe_immval_0x100:
  addi x16, x18, 256 # perform operation
    2330:	10090813          	addi	x16,x18,256
  # Check if x16 contains the expected result. x9 is the signature ptr, x8 is the link ptr, x7 is a temp reg.
  RVTEST_SIGUPD(x9, x8, x7, x16, I_addi_cg_cr_rs1_imm_edges_rs1val_0xfffffffe_immval_0x100, I_addi_cg_cr_rs1_imm_edges_rs1val_0xfffffffe_immval_0x100_str)
    2334:	0004a383          	lw	x7,0(x9)
    2338:	01038863          	beq	x7,x16,2348 <I_addi_cg_cr_rs1_imm_edges_rs1val_0xfffffffe_immval_0x100+0x18>
    233c:	1980146f          	jal	x8,34d4 <failedtest_x8_x7>
    2340:	00002330          	.word	0x00002330
    2344:	0000ccd5          	.word	0x0000ccd5
    2348:	00448493          	addi	x9,x9,4

# Testcase cr_rs1_imm_edges (rs1 = 0xfffffffe, imm = 512)
  RVTEST_TESTDATA_LOAD_INT(x19, x28) # load rs1: x28 = 0xfffffffe
    234c:	0009ae03          	lw	x28,0(x19)
    2350:	00498993          	addi	x19,x19,4

00002354 <I_addi_cg_cr_rs1_imm_edges_rs1val_0xfffffffe_immval_0x200>:
I_addi_cg_cr_rs1_imm_edges_rs1val_0xfffffffe_immval_0x200:
  addi x5, x28, 512 # perform operation
    2354:	200e0293          	addi	x5,x28,512
  # Check if x5 contains the expected result. x9 is the signature ptr, x8 is the link ptr, x7 is a temp reg.
  RVTEST_SIGUPD(x9, x8, x7, x5, I_addi_cg_cr_rs1_imm_edges_rs1val_0xfffffffe_immval_0x200, I_addi_cg_cr_rs1_imm_edges_rs1val_0xfffffffe_immval_0x200_str)
    2358:	0004a383          	lw	x7,0(x9)
    235c:	00538863          	beq	x7,x5,236c <I_addi_cg_cr_rs1_imm_edges_rs1val_0xfffffffe_immval_0x200+0x18>
    2360:	1740146f          	jal	x8,34d4 <failedtest_x8_x7>
    2364:	00002354          	.word	0x00002354
    2368:	0000cd2c          	.word	0x0000cd2c
    236c:	00448493          	addi	x9,x9,4

# Testcase cr_rs1_imm_edges (rs1 = 0xfffffffe, imm = 1023)
  RVTEST_TESTDATA_LOAD_INT(x19, x16) # load rs1: x16 = 0xfffffffe
    2370:	0009a803          	lw	x16,0(x19)
    2374:	00498993          	addi	x19,x19,4

00002378 <I_addi_cg_cr_rs1_imm_edges_rs1val_0xfffffffe_immval_0x3ff>:
I_addi_cg_cr_rs1_imm_edges_rs1val_0xfffffffe_immval_0x3ff:
  addi x30, x16, 1023 # perform operation
    2378:	3ff80f13          	addi	x30,x16,1023
  # Check if x30 contains the expected result. x9 is the signature ptr, x8 is the link ptr, x7 is a temp reg.
  RVTEST_SIGUPD(x9, x8, x7, x30, I_addi_cg_cr_rs1_imm_edges_rs1val_0xfffffffe_immval_0x3ff, I_addi_cg_cr_rs1_imm_edges_rs1val_0xfffffffe_immval_0x3ff_str)
    237c:	0004a383          	lw	x7,0(x9)
    2380:	01e38863          	beq	x7,x30,2390 <I_addi_cg_cr_rs1_imm_edges_rs1val_0xfffffffe_immval_0x3ff+0x18>
    2384:	1500146f          	jal	x8,34d4 <failedtest_x8_x7>
    2388:	00002378          	.word	0x00002378
    238c:	0000cd83          	.word	0x0000cd83
    2390:	00448493          	addi	x9,x9,4

# Testcase cr_rs1_imm_edges (rs1 = 0xfffffffe, imm = 1024)
  RVTEST_TESTDATA_LOAD_INT(x19, x4) # load rs1: x4 = 0xfffffffe
    2394:	0009a203          	lw	x4,0(x19)
    2398:	00498993          	addi	x19,x19,4

0000239c <I_addi_cg_cr_rs1_imm_edges_rs1val_0xfffffffe_immval_0x400>:
I_addi_cg_cr_rs1_imm_edges_rs1val_0xfffffffe_immval_0x400:
  addi x27, x4, 1024 # perform operation
    239c:	40020d93          	addi	x27,x4,1024 # 400 <I_addi_cg_cp_rs1_b25+0x8>
  # Check if x27 contains the expected result. x9 is the signature ptr, x8 is the link ptr, x7 is a temp reg.
  RVTEST_SIGUPD(x9, x8, x7, x27, I_addi_cg_cr_rs1_imm_edges_rs1val_0xfffffffe_immval_0x400, I_addi_cg_cr_rs1_imm_edges_rs1val_0xfffffffe_immval_0x400_str)
    23a0:	0004a383          	lw	x7,0(x9)
    23a4:	01b38863          	beq	x7,x27,23b4 <I_addi_cg_cr_rs1_imm_edges_rs1val_0xfffffffe_immval_0x400+0x18>
    23a8:	12c0146f          	jal	x8,34d4 <failedtest_x8_x7>
    23ac:	0000239c          	.word	0x0000239c
    23b0:	0000cdda          	.word	0x0000cdda
    23b4:	00448493          	addi	x9,x9,4

# Testcase cr_rs1_imm_edges (rs1 = 0xfffffffe, imm = 1795)
  RVTEST_TESTDATA_LOAD_INT(x19, x22) # load rs1: x22 = 0xfffffffe
    23b8:	0009ab03          	lw	x22,0(x19)
    23bc:	00498993          	addi	x19,x19,4

000023c0 <I_addi_cg_cr_rs1_imm_edges_rs1val_0xfffffffe_immval_0x703>:
I_addi_cg_cr_rs1_imm_edges_rs1val_0xfffffffe_immval_0x703:
  addi x4, x22, 1795 # perform operation
    23c0:	703b0213          	addi	x4,x22,1795
  # Check if x4 contains the expected result. x9 is the signature ptr, x8 is the link ptr, x7 is a temp reg.
  RVTEST_SIGUPD(x9, x8, x7, x4, I_addi_cg_cr_rs1_imm_edges_rs1val_0xfffffffe_immval_0x703, I_addi_cg_cr_rs1_imm_edges_rs1val_0xfffffffe_immval_0x703_str)
    23c4:	0004a383          	lw	x7,0(x9)
    23c8:	00438863          	beq	x7,x4,23d8 <I_addi_cg_cr_rs1_imm_edges_rs1val_0xfffffffe_immval_0x703+0x18>
    23cc:	1080146f          	jal	x8,34d4 <failedtest_x8_x7>
    23d0:	000023c0          	.word	0x000023c0
    23d4:	0000ce31          	.word	0x0000ce31
    23d8:	00448493          	addi	x9,x9,4

# Testcase cr_rs1_imm_edges (rs1 = 0xfffffffe, imm = 2047)
  RVTEST_TESTDATA_LOAD_INT(x19, x26) # load rs1: x26 = 0xfffffffe
    23dc:	0009ad03          	lw	x26,0(x19)
    23e0:	00498993          	addi	x19,x19,4

000023e4 <I_addi_cg_cr_rs1_imm_edges_rs1val_0xfffffffe_immval_0x7ff>:
I_addi_cg_cr_rs1_imm_edges_rs1val_0xfffffffe_immval_0x7ff:
  addi x1, x26, 2047 # perform operation
    23e4:	7ffd0093          	addi	x1,x26,2047
  # Check if x1 contains the expected result. x9 is the signature ptr, x8 is the link ptr, x7 is a temp reg.
  RVTEST_SIGUPD(x9, x8, x7, x1, I_addi_cg_cr_rs1_imm_edges_rs1val_0xfffffffe_immval_0x7ff, I_addi_cg_cr_rs1_imm_edges_rs1val_0xfffffffe_immval_0x7ff_str)
    23e8:	0004a383          	lw	x7,0(x9)
    23ec:	00138863          	beq	x7,x1,23fc <I_addi_cg_cr_rs1_imm_edges_rs1val_0xfffffffe_immval_0x7ff+0x18>
    23f0:	0e40146f          	jal	x8,34d4 <failedtest_x8_x7>
    23f4:	000023e4          	.word	0x000023e4
    23f8:	0000ce88          	.word	0x0000ce88
    23fc:	00448493          	addi	x9,x9,4

# Testcase cr_rs1_imm_edges (rs1 = 0xfffffffe, imm = -2048)
  RVTEST_TESTDATA_LOAD_INT(x19, x15) # load rs1: x15 = 0xfffffffe
    2400:	0009a783          	lw	x15,0(x19)
    2404:	00498993          	addi	x19,x19,4

00002408 <I_addi_cg_cr_rs1_imm_edges_rs1val_0xfffffffe_immval_m0x800>:
I_addi_cg_cr_rs1_imm_edges_rs1val_0xfffffffe_immval_m0x800:
  addi x28, x15, -2048 # perform operation
    2408:	80078e13          	addi	x28,x15,-2048
  # Check if x28 contains the expected result. x9 is the signature ptr, x8 is the link ptr, x7 is a temp reg.
  RVTEST_SIGUPD(x9, x8, x7, x28, I_addi_cg_cr_rs1_imm_edges_rs1val_0xfffffffe_immval_m0x800, I_addi_cg_cr_rs1_imm_edges_rs1val_0xfffffffe_immval_m0x800_str)
    240c:	0004a383          	lw	x7,0(x9)
    2410:	01c38863          	beq	x7,x28,2420 <I_addi_cg_cr_rs1_imm_edges_rs1val_0xfffffffe_immval_m0x800+0x18>
    2414:	0c00146f          	jal	x8,34d4 <failedtest_x8_x7>
    2418:	00002408          	.word	0x00002408
    241c:	0000cedf          	.word	0x0000cedf
    2420:	00448493          	addi	x9,x9,4

# Testcase cr_rs1_imm_edges (rs1 = 0xfffffffe, imm = -2047)
  RVTEST_TESTDATA_LOAD_INT(x19, x5) # load rs1: x5 = 0xfffffffe
    2424:	0009a283          	lw	x5,0(x19)
    2428:	00498993          	addi	x19,x19,4

0000242c <I_addi_cg_cr_rs1_imm_edges_rs1val_0xfffffffe_immval_m0x7ff>:
I_addi_cg_cr_rs1_imm_edges_rs1val_0xfffffffe_immval_m0x7ff:
  addi x17, x5, -2047 # perform operation
    242c:	80128893          	addi	x17,x5,-2047
  # Check if x17 contains the expected result. x9 is the signature ptr, x8 is the link ptr, x7 is a temp reg.
  RVTEST_SIGUPD(x9, x8, x7, x17, I_addi_cg_cr_rs1_imm_edges_rs1val_0xfffffffe_immval_m0x7ff, I_addi_cg_cr_rs1_imm_edges_rs1val_0xfffffffe_immval_m0x7ff_str)
    2430:	0004a383          	lw	x7,0(x9)
    2434:	01138863          	beq	x7,x17,2444 <I_addi_cg_cr_rs1_imm_edges_rs1val_0xfffffffe_immval_m0x7ff+0x18>
    2438:	09c0146f          	jal	x8,34d4 <failedtest_x8_x7>
    243c:	0000242c          	.word	0x0000242c
    2440:	0000cf37          	.word	0x0000cf37
    2444:	00448493          	addi	x9,x9,4

# Testcase cr_rs1_imm_edges (rs1 = 0xfffffffe, imm = -2)
  RVTEST_TESTDATA_LOAD_INT(x19, x16) # load rs1: x16 = 0xfffffffe
    2448:	0009a803          	lw	x16,0(x19)
    244c:	00498993          	addi	x19,x19,4

00002450 <I_addi_cg_cr_rs1_imm_edges_rs1val_0xfffffffe_immval_m0x2>:
I_addi_cg_cr_rs1_imm_edges_rs1val_0xfffffffe_immval_m0x2:
  addi x31, x16, -2 # perform operation
    2450:	ffe80f93          	addi	x31,x16,-2
  # Check if x31 contains the expected result. x9 is the signature ptr, x8 is the link ptr, x7 is a temp reg.
  RVTEST_SIGUPD(x9, x8, x7, x31, I_addi_cg_cr_rs1_imm_edges_rs1val_0xfffffffe_immval_m0x2, I_addi_cg_cr_rs1_imm_edges_rs1val_0xfffffffe_immval_m0x2_str)
    2454:	0004a383          	lw	x7,0(x9)
    2458:	01f38863          	beq	x7,x31,2468 <I_addi_cg_cr_rs1_imm_edges_rs1val_0xfffffffe_immval_m0x2+0x18>
    245c:	0780146f          	jal	x8,34d4 <failedtest_x8_x7>
    2460:	00002450          	.word	0x00002450
    2464:	0000cf8f          	.word	0x0000cf8f
    2468:	00448493          	addi	x9,x9,4

# Testcase cr_rs1_imm_edges (rs1 = 0xfffffffe, imm = -1)
  RVTEST_TESTDATA_LOAD_INT(x19, x12) # load rs1: x12 = 0xfffffffe
    246c:	0009a603          	lw	x12,0(x19)
    2470:	00498993          	addi	x19,x19,4

00002474 <I_addi_cg_cr_rs1_imm_edges_rs1val_0xfffffffe_immval_m0x1>:
I_addi_cg_cr_rs1_imm_edges_rs1val_0xfffffffe_immval_m0x1:
  addi x23, x12, -1 # perform operation
    2474:	fff60b93          	addi	x23,x12,-1
  # Check if x23 contains the expected result. x9 is the signature ptr, x8 is the link ptr, x7 is a temp reg.
  RVTEST_SIGUPD(x9, x8, x7, x23, I_addi_cg_cr_rs1_imm_edges_rs1val_0xfffffffe_immval_m0x1, I_addi_cg_cr_rs1_imm_edges_rs1val_0xfffffffe_immval_m0x1_str)
    2478:	0004a383          	lw	x7,0(x9)
    247c:	01738863          	beq	x7,x23,248c <I_addi_cg_cr_rs1_imm_edges_rs1val_0xfffffffe_immval_m0x1+0x18>
    2480:	0540146f          	jal	x8,34d4 <failedtest_x8_x7>
    2484:	00002474          	.word	0x00002474
    2488:	0000cfe5          	.word	0x0000cfe5
    248c:	00448493          	addi	x9,x9,4

# Testcase cr_rs1_imm_edges (rs1 = 0x5bbc8872, imm = 0)
  RVTEST_TESTDATA_LOAD_INT(x19, x14) # load rs1: x14 = 0x5bbc8872
    2490:	0009a703          	lw	x14,0(x19)
    2494:	00498993          	addi	x19,x19,4

00002498 <I_addi_cg_cr_rs1_imm_edges_rs1val_0x5bbc8872_immval_0x0>:
I_addi_cg_cr_rs1_imm_edges_rs1val_0x5bbc8872_immval_0x0:
  addi x15, x14, 0 # perform operation
    2498:	00070793          	addi	x15,x14,0
  # Check if x15 contains the expected result. x9 is the signature ptr, x8 is the link ptr, x7 is a temp reg.
  RVTEST_SIGUPD(x9, x8, x7, x15, I_addi_cg_cr_rs1_imm_edges_rs1val_0x5bbc8872_immval_0x0, I_addi_cg_cr_rs1_imm_edges_rs1val_0x5bbc8872_immval_0x0_str)
    249c:	0004a383          	lw	x7,0(x9)
    24a0:	00f38863          	beq	x7,x15,24b0 <I_addi_cg_cr_rs1_imm_edges_rs1val_0x5bbc8872_immval_0x0+0x18>
    24a4:	0300146f          	jal	x8,34d4 <failedtest_x8_x7>
    24a8:	00002498          	.word	0x00002498
    24ac:	0000d03b          	.word	0x0000d03b
    24b0:	00448493          	addi	x9,x9,4

# Testcase cr_rs1_imm_edges (rs1 = 0x5bbc8872, imm = 1)
  RVTEST_TESTDATA_LOAD_INT(x19, x17) # load rs1: x17 = 0x5bbc8872
    24b4:	0009a883          	lw	x17,0(x19)
    24b8:	00498993          	addi	x19,x19,4

000024bc <I_addi_cg_cr_rs1_imm_edges_rs1val_0x5bbc8872_immval_0x1>:
I_addi_cg_cr_rs1_imm_edges_rs1val_0x5bbc8872_immval_0x1:
  addi x10, x17, 1 # perform operation
    24bc:	00188513          	addi	x10,x17,1
  # Check if x10 contains the expected result. x9 is the signature ptr, x8 is the link ptr, x7 is a temp reg.
  RVTEST_SIGUPD(x9, x8, x7, x10, I_addi_cg_cr_rs1_imm_edges_rs1val_0x5bbc8872_immval_0x1, I_addi_cg_cr_rs1_imm_edges_rs1val_0x5bbc8872_immval_0x1_str)
    24c0:	0004a383          	lw	x7,0(x9)
    24c4:	00a38863          	beq	x7,x10,24d4 <I_addi_cg_cr_rs1_imm_edges_rs1val_0x5bbc8872_immval_0x1+0x18>
    24c8:	00c0146f          	jal	x8,34d4 <failedtest_x8_x7>
    24cc:	000024bc          	.word	0x000024bc
    24d0:	0000d090          	.word	0x0000d090
    24d4:	00448493          	addi	x9,x9,4

# Testcase cr_rs1_imm_edges (rs1 = 0x5bbc8872, imm = 2)
  RVTEST_TESTDATA_LOAD_INT(x19, x12) # load rs1: x12 = 0x5bbc8872
    24d8:	0009a603          	lw	x12,0(x19)
    24dc:	00498993          	addi	x19,x19,4

000024e0 <I_addi_cg_cr_rs1_imm_edges_rs1val_0x5bbc8872_immval_0x2>:
I_addi_cg_cr_rs1_imm_edges_rs1val_0x5bbc8872_immval_0x2:
  addi x16, x12, 2 # perform operation
    24e0:	00260813          	addi	x16,x12,2
  # Check if x16 contains the expected result. x9 is the signature ptr, x8 is the link ptr, x7 is a temp reg.
  RVTEST_SIGUPD(x9, x8, x7, x16, I_addi_cg_cr_rs1_imm_edges_rs1val_0x5bbc8872_immval_0x2, I_addi_cg_cr_rs1_imm_edges_rs1val_0x5bbc8872_immval_0x2_str)
    24e4:	0004a383          	lw	x7,0(x9)
    24e8:	01038863          	beq	x7,x16,24f8 <I_addi_cg_cr_rs1_imm_edges_rs1val_0x5bbc8872_immval_0x2+0x18>
    24ec:	7e90046f          	jal	x8,34d4 <failedtest_x8_x7>
    24f0:	000024e0          	.word	0x000024e0
    24f4:	0000d0e5          	.word	0x0000d0e5
    24f8:	00448493          	addi	x9,x9,4

# Testcase cr_rs1_imm_edges (rs1 = 0x5bbc8872, imm = 3)
  RVTEST_TESTDATA_LOAD_INT(x19, x30) # load rs1: x30 = 0x5bbc8872
    24fc:	0009af03          	lw	x30,0(x19)
    2500:	00498993          	addi	x19,x19,4

00002504 <I_addi_cg_cr_rs1_imm_edges_rs1val_0x5bbc8872_immval_0x3>:
I_addi_cg_cr_rs1_imm_edges_rs1val_0x5bbc8872_immval_0x3:
  addi x29, x30, 3 # perform operation
    2504:	003f0e93          	addi	x29,x30,3
  # Check if x29 contains the expected result. x9 is the signature ptr, x8 is the link ptr, x7 is a temp reg.
  RVTEST_SIGUPD(x9, x8, x7, x29, I_addi_cg_cr_rs1_imm_edges_rs1val_0x5bbc8872_immval_0x3, I_addi_cg_cr_rs1_imm_edges_rs1val_0x5bbc8872_immval_0x3_str)
    2508:	0004a383          	lw	x7,0(x9)
    250c:	01d38863          	beq	x7,x29,251c <I_addi_cg_cr_rs1_imm_edges_rs1val_0x5bbc8872_immval_0x3+0x18>
    2510:	7c50046f          	jal	x8,34d4 <failedtest_x8_x7>
    2514:	00002504          	.word	0x00002504
    2518:	0000d13a          	.word	0x0000d13a
    251c:	00448493          	addi	x9,x9,4

# Testcase cr_rs1_imm_edges (rs1 = 0x5bbc8872, imm = 4)
  RVTEST_TESTDATA_LOAD_INT(x19, x20) # load rs1: x20 = 0x5bbc8872
    2520:	0009aa03          	lw	x20,0(x19)
    2524:	00498993          	addi	x19,x19,4

00002528 <I_addi_cg_cr_rs1_imm_edges_rs1val_0x5bbc8872_immval_0x4>:
I_addi_cg_cr_rs1_imm_edges_rs1val_0x5bbc8872_immval_0x4:
  addi x6, x20, 4 # perform operation
    2528:	004a0313          	addi	x6,x20,4
  # Check if x6 contains the expected result. x9 is the signature ptr, x8 is the link ptr, x7 is a temp reg.
  RVTEST_SIGUPD(x9, x8, x7, x6, I_addi_cg_cr_rs1_imm_edges_rs1val_0x5bbc8872_immval_0x4, I_addi_cg_cr_rs1_imm_edges_rs1val_0x5bbc8872_immval_0x4_str)
    252c:	0004a383          	lw	x7,0(x9)
    2530:	00638863          	beq	x7,x6,2540 <I_addi_cg_cr_rs1_imm_edges_rs1val_0x5bbc8872_immval_0x4+0x18>
    2534:	7a10046f          	jal	x8,34d4 <failedtest_x8_x7>
    2538:	00002528          	.word	0x00002528
    253c:	0000d18f          	.word	0x0000d18f
    2540:	00448493          	addi	x9,x9,4

# Testcase cr_rs1_imm_edges (rs1 = 0x5bbc8872, imm = 8)
  RVTEST_TESTDATA_LOAD_INT(x19, x26) # load rs1: x26 = 0x5bbc8872
    2544:	0009ad03          	lw	x26,0(x19)
    2548:	00498993          	addi	x19,x19,4

0000254c <I_addi_cg_cr_rs1_imm_edges_rs1val_0x5bbc8872_immval_0x8>:
I_addi_cg_cr_rs1_imm_edges_rs1val_0x5bbc8872_immval_0x8:
  addi x21, x26, 8 # perform operation
    254c:	008d0a93          	addi	x21,x26,8
  # Check if x21 contains the expected result. x9 is the signature ptr, x8 is the link ptr, x7 is a temp reg.
  RVTEST_SIGUPD(x9, x8, x7, x21, I_addi_cg_cr_rs1_imm_edges_rs1val_0x5bbc8872_immval_0x8, I_addi_cg_cr_rs1_imm_edges_rs1val_0x5bbc8872_immval_0x8_str)
    2550:	0004a383          	lw	x7,0(x9)
    2554:	01538863          	beq	x7,x21,2564 <I_addi_cg_cr_rs1_imm_edges_rs1val_0x5bbc8872_immval_0x8+0x18>
    2558:	77d0046f          	jal	x8,34d4 <failedtest_x8_x7>
    255c:	0000254c          	.word	0x0000254c
    2560:	0000d1e4          	.word	0x0000d1e4
    2564:	00448493          	addi	x9,x9,4

# Testcase cr_rs1_imm_edges (rs1 = 0x5bbc8872, imm = 16)
  RVTEST_TESTDATA_LOAD_INT(x19, x6) # load rs1: x6 = 0x5bbc8872
    2568:	0009a303          	lw	x6,0(x19)
    256c:	00498993          	addi	x19,x19,4

00002570 <I_addi_cg_cr_rs1_imm_edges_rs1val_0x5bbc8872_immval_0x10>:
I_addi_cg_cr_rs1_imm_edges_rs1val_0x5bbc8872_immval_0x10:
  addi x15, x6, 16 # perform operation
    2570:	01030793          	addi	x15,x6,16
  # Check if x15 contains the expected result. x9 is the signature ptr, x8 is the link ptr, x7 is a temp reg.
  RVTEST_SIGUPD(x9, x8, x7, x15, I_addi_cg_cr_rs1_imm_edges_rs1val_0x5bbc8872_immval_0x10, I_addi_cg_cr_rs1_imm_edges_rs1val_0x5bbc8872_immval_0x10_str)
    2574:	0004a383          	lw	x7,0(x9)
    2578:	00f38863          	beq	x7,x15,2588 <I_addi_cg_cr_rs1_imm_edges_rs1val_0x5bbc8872_immval_0x10+0x18>
    257c:	7590046f          	jal	x8,34d4 <failedtest_x8_x7>
    2580:	00002570          	.word	0x00002570
    2584:	0000d239          	.word	0x0000d239
    2588:	00448493          	addi	x9,x9,4

# Testcase cr_rs1_imm_edges (rs1 = 0x5bbc8872, imm = 32)
  RVTEST_TESTDATA_LOAD_INT(x19, x26) # load rs1: x26 = 0x5bbc8872
    258c:	0009ad03          	lw	x26,0(x19)
    2590:	00498993          	addi	x19,x19,4

00002594 <I_addi_cg_cr_rs1_imm_edges_rs1val_0x5bbc8872_immval_0x20>:
I_addi_cg_cr_rs1_imm_edges_rs1val_0x5bbc8872_immval_0x20:
  addi x12, x26, 32 # perform operation
    2594:	020d0613          	addi	x12,x26,32
  # Check if x12 contains the expected result. x9 is the signature ptr, x8 is the link ptr, x7 is a temp reg.
  RVTEST_SIGUPD(x9, x8, x7, x12, I_addi_cg_cr_rs1_imm_edges_rs1val_0x5bbc8872_immval_0x20, I_addi_cg_cr_rs1_imm_edges_rs1val_0x5bbc8872_immval_0x20_str)
    2598:	0004a383          	lw	x7,0(x9)
    259c:	00c38863          	beq	x7,x12,25ac <I_addi_cg_cr_rs1_imm_edges_rs1val_0x5bbc8872_immval_0x20+0x18>
    25a0:	7350046f          	jal	x8,34d4 <failedtest_x8_x7>
    25a4:	00002594          	.word	0x00002594
    25a8:	0000d28f          	.word	0x0000d28f
    25ac:	00448493          	addi	x9,x9,4

# Testcase cr_rs1_imm_edges (rs1 = 0x5bbc8872, imm = 64)
  RVTEST_TESTDATA_LOAD_INT(x19, x13) # load rs1: x13 = 0x5bbc8872
    25b0:	0009a683          	lw	x13,0(x19)
    25b4:	00498993          	addi	x19,x19,4

000025b8 <I_addi_cg_cr_rs1_imm_edges_rs1val_0x5bbc8872_immval_0x40>:
I_addi_cg_cr_rs1_imm_edges_rs1val_0x5bbc8872_immval_0x40:
  addi x11, x13, 64 # perform operation
    25b8:	04068593          	addi	x11,x13,64
  # Check if x11 contains the expected result. x9 is the signature ptr, x8 is the link ptr, x7 is a temp reg.
  RVTEST_SIGUPD(x9, x8, x7, x11, I_addi_cg_cr_rs1_imm_edges_rs1val_0x5bbc8872_immval_0x40, I_addi_cg_cr_rs1_imm_edges_rs1val_0x5bbc8872_immval_0x40_str)
    25bc:	0004a383          	lw	x7,0(x9)
    25c0:	00b38863          	beq	x7,x11,25d0 <I_addi_cg_cr_rs1_imm_edges_rs1val_0x5bbc8872_immval_0x40+0x18>
    25c4:	7110046f          	jal	x8,34d4 <failedtest_x8_x7>
    25c8:	000025b8          	.word	0x000025b8
    25cc:	0000d2e5          	.word	0x0000d2e5
    25d0:	00448493          	addi	x9,x9,4

# Testcase cr_rs1_imm_edges (rs1 = 0x5bbc8872, imm = 128)
  RVTEST_TESTDATA_LOAD_INT(x19, x2) # load rs1: x2 = 0x5bbc8872
    25d4:	0009a103          	lw	x2,0(x19)
    25d8:	00498993          	addi	x19,x19,4

000025dc <I_addi_cg_cr_rs1_imm_edges_rs1val_0x5bbc8872_immval_0x80>:
I_addi_cg_cr_rs1_imm_edges_rs1val_0x5bbc8872_immval_0x80:
  addi x30, x2, 128 # perform operation
    25dc:	08010f13          	addi	x30,x2,128
  # Check if x30 contains the expected result. x9 is the signature ptr, x8 is the link ptr, x7 is a temp reg.
  RVTEST_SIGUPD(x9, x8, x7, x30, I_addi_cg_cr_rs1_imm_edges_rs1val_0x5bbc8872_immval_0x80, I_addi_cg_cr_rs1_imm_edges_rs1val_0x5bbc8872_immval_0x80_str)
    25e0:	0004a383          	lw	x7,0(x9)
    25e4:	01e38863          	beq	x7,x30,25f4 <I_addi_cg_cr_rs1_imm_edges_rs1val_0x5bbc8872_immval_0x80+0x18>
    25e8:	6ed0046f          	jal	x8,34d4 <failedtest_x8_x7>
    25ec:	000025dc          	.word	0x000025dc
    25f0:	0000d33b          	.word	0x0000d33b
    25f4:	00448493          	addi	x9,x9,4

# Testcase cr_rs1_imm_edges (rs1 = 0x5bbc8872, imm = 256)
  RVTEST_TESTDATA_LOAD_INT(x19, x13) # load rs1: x13 = 0x5bbc8872
    25f8:	0009a683          	lw	x13,0(x19)
    25fc:	00498993          	addi	x19,x19,4

00002600 <I_addi_cg_cr_rs1_imm_edges_rs1val_0x5bbc8872_immval_0x100>:
I_addi_cg_cr_rs1_imm_edges_rs1val_0x5bbc8872_immval_0x100:
  addi x28, x13, 256 # perform operation
    2600:	10068e13          	addi	x28,x13,256
  # Check if x28 contains the expected result. x9 is the signature ptr, x8 is the link ptr, x7 is a temp reg.
  RVTEST_SIGUPD(x9, x8, x7, x28, I_addi_cg_cr_rs1_imm_edges_rs1val_0x5bbc8872_immval_0x100, I_addi_cg_cr_rs1_imm_edges_rs1val_0x5bbc8872_immval_0x100_str)
    2604:	0004a383          	lw	x7,0(x9)
    2608:	01c38863          	beq	x7,x28,2618 <I_addi_cg_cr_rs1_imm_edges_rs1val_0x5bbc8872_immval_0x100+0x18>
    260c:	6c90046f          	jal	x8,34d4 <failedtest_x8_x7>
    2610:	00002600          	.word	0x00002600
    2614:	0000d391          	.word	0x0000d391
    2618:	00448493          	addi	x9,x9,4

# Testcase cr_rs1_imm_edges (rs1 = 0x5bbc8872, imm = 512)
  RVTEST_TESTDATA_LOAD_INT(x19, x5) # load rs1: x5 = 0x5bbc8872
    261c:	0009a283          	lw	x5,0(x19)
    2620:	00498993          	addi	x19,x19,4

00002624 <I_addi_cg_cr_rs1_imm_edges_rs1val_0x5bbc8872_immval_0x200>:
I_addi_cg_cr_rs1_imm_edges_rs1val_0x5bbc8872_immval_0x200:
  addi x20, x5, 512 # perform operation
    2624:	20028a13          	addi	x20,x5,512
  # Check if x20 contains the expected result. x9 is the signature ptr, x8 is the link ptr, x7 is a temp reg.
  RVTEST_SIGUPD(x9, x8, x7, x20, I_addi_cg_cr_rs1_imm_edges_rs1val_0x5bbc8872_immval_0x200, I_addi_cg_cr_rs1_imm_edges_rs1val_0x5bbc8872_immval_0x200_str)
    2628:	0004a383          	lw	x7,0(x9)
    262c:	01438863          	beq	x7,x20,263c <I_addi_cg_cr_rs1_imm_edges_rs1val_0x5bbc8872_immval_0x200+0x18>
    2630:	6a50046f          	jal	x8,34d4 <failedtest_x8_x7>
    2634:	00002624          	.word	0x00002624
    2638:	0000d3e8          	.word	0x0000d3e8
    263c:	00448493          	addi	x9,x9,4

# Testcase cr_rs1_imm_edges (rs1 = 0x5bbc8872, imm = 1023)
  RVTEST_TESTDATA_LOAD_INT(x19, x12) # load rs1: x12 = 0x5bbc8872
    2640:	0009a603          	lw	x12,0(x19)
    2644:	00498993          	addi	x19,x19,4

00002648 <I_addi_cg_cr_rs1_imm_edges_rs1val_0x5bbc8872_immval_0x3ff>:
I_addi_cg_cr_rs1_imm_edges_rs1val_0x5bbc8872_immval_0x3ff:
  addi x11, x12, 1023 # perform operation
    2648:	3ff60593          	addi	x11,x12,1023
  # Check if x11 contains the expected result. x9 is the signature ptr, x8 is the link ptr, x7 is a temp reg.
  RVTEST_SIGUPD(x9, x8, x7, x11, I_addi_cg_cr_rs1_imm_edges_rs1val_0x5bbc8872_immval_0x3ff, I_addi_cg_cr_rs1_imm_edges_rs1val_0x5bbc8872_immval_0x3ff_str)
    264c:	0004a383          	lw	x7,0(x9)
    2650:	00b38863          	beq	x7,x11,2660 <I_addi_cg_cr_rs1_imm_edges_rs1val_0x5bbc8872_immval_0x3ff+0x18>
    2654:	6810046f          	jal	x8,34d4 <failedtest_x8_x7>
    2658:	00002648          	.word	0x00002648
    265c:	0000d43f          	.word	0x0000d43f
    2660:	00448493          	addi	x9,x9,4

# Testcase cr_rs1_imm_edges (rs1 = 0x5bbc8872, imm = 1024)
  RVTEST_TESTDATA_LOAD_INT(x19, x30) # load rs1: x30 = 0x5bbc8872
    2664:	0009af03          	lw	x30,0(x19)
    2668:	00498993          	addi	x19,x19,4

0000266c <I_addi_cg_cr_rs1_imm_edges_rs1val_0x5bbc8872_immval_0x400>:
I_addi_cg_cr_rs1_imm_edges_rs1val_0x5bbc8872_immval_0x400:
  addi x25, x30, 1024 # perform operation
    266c:	400f0c93          	addi	x25,x30,1024
  # Check if x25 contains the expected result. x9 is the signature ptr, x8 is the link ptr, x7 is a temp reg.
  RVTEST_SIGUPD(x9, x8, x7, x25, I_addi_cg_cr_rs1_imm_edges_rs1val_0x5bbc8872_immval_0x400, I_addi_cg_cr_rs1_imm_edges_rs1val_0x5bbc8872_immval_0x400_str)
    2670:	0004a383          	lw	x7,0(x9)
    2674:	01938863          	beq	x7,x25,2684 <I_addi_cg_cr_rs1_imm_edges_rs1val_0x5bbc8872_immval_0x400+0x18>
    2678:	65d0046f          	jal	x8,34d4 <failedtest_x8_x7>
    267c:	0000266c          	.word	0x0000266c
    2680:	0000d496          	.word	0x0000d496
    2684:	00448493          	addi	x9,x9,4

# Testcase cr_rs1_imm_edges (rs1 = 0x5bbc8872, imm = 1795)
  RVTEST_TESTDATA_LOAD_INT(x19, x26) # load rs1: x26 = 0x5bbc8872
    2688:	0009ad03          	lw	x26,0(x19)
    268c:	00498993          	addi	x19,x19,4

00002690 <I_addi_cg_cr_rs1_imm_edges_rs1val_0x5bbc8872_immval_0x703>:
I_addi_cg_cr_rs1_imm_edges_rs1val_0x5bbc8872_immval_0x703:
  addi x10, x26, 1795 # perform operation
    2690:	703d0513          	addi	x10,x26,1795
  # Check if x10 contains the expected result. x9 is the signature ptr, x8 is the link ptr, x7 is a temp reg.
  RVTEST_SIGUPD(x9, x8, x7, x10, I_addi_cg_cr_rs1_imm_edges_rs1val_0x5bbc8872_immval_0x703, I_addi_cg_cr_rs1_imm_edges_rs1val_0x5bbc8872_immval_0x703_str)
    2694:	0004a383          	lw	x7,0(x9)
    2698:	00a38863          	beq	x7,x10,26a8 <I_addi_cg_cr_rs1_imm_edges_rs1val_0x5bbc8872_immval_0x703+0x18>
    269c:	6390046f          	jal	x8,34d4 <failedtest_x8_x7>
    26a0:	00002690          	.word	0x00002690
    26a4:	0000d4ed          	.word	0x0000d4ed
    26a8:	00448493          	addi	x9,x9,4

# Testcase cr_rs1_imm_edges (rs1 = 0x5bbc8872, imm = 2047)
  RVTEST_TESTDATA_LOAD_INT(x19, x16) # load rs1: x16 = 0x5bbc8872
    26ac:	0009a803          	lw	x16,0(x19)
    26b0:	00498993          	addi	x19,x19,4

000026b4 <I_addi_cg_cr_rs1_imm_edges_rs1val_0x5bbc8872_immval_0x7ff>:
I_addi_cg_cr_rs1_imm_edges_rs1val_0x5bbc8872_immval_0x7ff:
  addi x5, x16, 2047 # perform operation
    26b4:	7ff80293          	addi	x5,x16,2047
  # Check if x5 contains the expected result. x9 is the signature ptr, x8 is the link ptr, x7 is a temp reg.
  RVTEST_SIGUPD(x9, x8, x7, x5, I_addi_cg_cr_rs1_imm_edges_rs1val_0x5bbc8872_immval_0x7ff, I_addi_cg_cr_rs1_imm_edges_rs1val_0x5bbc8872_immval_0x7ff_str)
    26b8:	0004a383          	lw	x7,0(x9)
    26bc:	00538863          	beq	x7,x5,26cc <I_addi_cg_cr_rs1_imm_edges_rs1val_0x5bbc8872_immval_0x7ff+0x18>
    26c0:	6150046f          	jal	x8,34d4 <failedtest_x8_x7>
    26c4:	000026b4          	.word	0x000026b4
    26c8:	0000d544          	.word	0x0000d544
    26cc:	00448493          	addi	x9,x9,4

# Testcase cr_rs1_imm_edges (rs1 = 0x5bbc8872, imm = -2048)
  RVTEST_TESTDATA_LOAD_INT(x19, x26) # load rs1: x26 = 0x5bbc8872
    26d0:	0009ad03          	lw	x26,0(x19)
    26d4:	00498993          	addi	x19,x19,4

000026d8 <I_addi_cg_cr_rs1_imm_edges_rs1val_0x5bbc8872_immval_m0x800>:
I_addi_cg_cr_rs1_imm_edges_rs1val_0x5bbc8872_immval_m0x800:
  addi x4, x26, -2048 # perform operation
    26d8:	800d0213          	addi	x4,x26,-2048
  # Check if x4 contains the expected result. x9 is the signature ptr, x8 is the link ptr, x7 is a temp reg.
  RVTEST_SIGUPD(x9, x8, x7, x4, I_addi_cg_cr_rs1_imm_edges_rs1val_0x5bbc8872_immval_m0x800, I_addi_cg_cr_rs1_imm_edges_rs1val_0x5bbc8872_immval_m0x800_str)
    26dc:	0004a383          	lw	x7,0(x9)
    26e0:	00438863          	beq	x7,x4,26f0 <I_addi_cg_cr_rs1_imm_edges_rs1val_0x5bbc8872_immval_m0x800+0x18>
    26e4:	5f10046f          	jal	x8,34d4 <failedtest_x8_x7>
    26e8:	000026d8          	.word	0x000026d8
    26ec:	0000d59b          	.word	0x0000d59b
    26f0:	00448493          	addi	x9,x9,4

# Testcase cr_rs1_imm_edges (rs1 = 0x5bbc8872, imm = -2047)
  RVTEST_TESTDATA_LOAD_INT(x19, x21) # load rs1: x21 = 0x5bbc8872
    26f4:	0009aa83          	lw	x21,0(x19)
    26f8:	00498993          	addi	x19,x19,4

000026fc <I_addi_cg_cr_rs1_imm_edges_rs1val_0x5bbc8872_immval_m0x7ff>:
I_addi_cg_cr_rs1_imm_edges_rs1val_0x5bbc8872_immval_m0x7ff:
  addi x16, x21, -2047 # perform operation
    26fc:	801a8813          	addi	x16,x21,-2047
  # Check if x16 contains the expected result. x9 is the signature ptr, x8 is the link ptr, x7 is a temp reg.
  RVTEST_SIGUPD(x9, x8, x7, x16, I_addi_cg_cr_rs1_imm_edges_rs1val_0x5bbc8872_immval_m0x7ff, I_addi_cg_cr_rs1_imm_edges_rs1val_0x5bbc8872_immval_m0x7ff_str)
    2700:	0004a383          	lw	x7,0(x9)
    2704:	01038863          	beq	x7,x16,2714 <I_addi_cg_cr_rs1_imm_edges_rs1val_0x5bbc8872_immval_m0x7ff+0x18>
    2708:	5cd0046f          	jal	x8,34d4 <failedtest_x8_x7>
    270c:	000026fc          	.word	0x000026fc
    2710:	0000d5f3          	.word	0x0000d5f3
    2714:	00448493          	addi	x9,x9,4

# Testcase cr_rs1_imm_edges (rs1 = 0x5bbc8872, imm = -2)
  RVTEST_TESTDATA_LOAD_INT(x19, x21) # load rs1: x21 = 0x5bbc8872
    2718:	0009aa83          	lw	x21,0(x19)
    271c:	00498993          	addi	x19,x19,4

00002720 <I_addi_cg_cr_rs1_imm_edges_rs1val_0x5bbc8872_immval_m0x2>:
I_addi_cg_cr_rs1_imm_edges_rs1val_0x5bbc8872_immval_m0x2:
  addi x15, x21, -2 # perform operation
    2720:	ffea8793          	addi	x15,x21,-2
  # Check if x15 contains the expected result. x9 is the signature ptr, x8 is the link ptr, x7 is a temp reg.
  RVTEST_SIGUPD(x9, x8, x7, x15, I_addi_cg_cr_rs1_imm_edges_rs1val_0x5bbc8872_immval_m0x2, I_addi_cg_cr_rs1_imm_edges_rs1val_0x5bbc8872_immval_m0x2_str)
    2724:	0004a383          	lw	x7,0(x9)
    2728:	00f38863          	beq	x7,x15,2738 <I_addi_cg_cr_rs1_imm_edges_rs1val_0x5bbc8872_immval_m0x2+0x18>
    272c:	5a90046f          	jal	x8,34d4 <failedtest_x8_x7>
    2730:	00002720          	.word	0x00002720
    2734:	0000d64b          	.word	0x0000d64b
    2738:	00448493          	addi	x9,x9,4

# Testcase cr_rs1_imm_edges (rs1 = 0x5bbc8872, imm = -1)
  RVTEST_TESTDATA_LOAD_INT(x19, x10) # load rs1: x10 = 0x5bbc8872
    273c:	0009a503          	lw	x10,0(x19)
    2740:	00498993          	addi	x19,x19,4

00002744 <I_addi_cg_cr_rs1_imm_edges_rs1val_0x5bbc8872_immval_m0x1>:
I_addi_cg_cr_rs1_imm_edges_rs1val_0x5bbc8872_immval_m0x1:
  addi x6, x10, -1 # perform operation
    2744:	fff50313          	addi	x6,x10,-1
  # Check if x6 contains the expected result. x9 is the signature ptr, x8 is the link ptr, x7 is a temp reg.
  RVTEST_SIGUPD(x9, x8, x7, x6, I_addi_cg_cr_rs1_imm_edges_rs1val_0x5bbc8872_immval_m0x1, I_addi_cg_cr_rs1_imm_edges_rs1val_0x5bbc8872_immval_m0x1_str)
    2748:	0004a383          	lw	x7,0(x9)
    274c:	00638863          	beq	x7,x6,275c <I_addi_cg_cr_rs1_imm_edges_rs1val_0x5bbc8872_immval_m0x1+0x18>
    2750:	5850046f          	jal	x8,34d4 <failedtest_x8_x7>
    2754:	00002744          	.word	0x00002744
    2758:	0000d6a1          	.word	0x0000d6a1
    275c:	00448493          	addi	x9,x9,4

# Testcase cr_rs1_imm_edges (rs1 = 0xaaaaaaaa, imm = 0)
  RVTEST_TESTDATA_LOAD_INT(x19, x12) # load rs1: x12 = 0xaaaaaaaa
    2760:	0009a603          	lw	x12,0(x19)
    2764:	00498993          	addi	x19,x19,4

00002768 <I_addi_cg_cr_rs1_imm_edges_rs1val_0xaaaaaaaa_immval_0x0>:
I_addi_cg_cr_rs1_imm_edges_rs1val_0xaaaaaaaa_immval_0x0:
  addi x16, x12, 0 # perform operation
    2768:	00060813          	addi	x16,x12,0
  # Check if x16 contains the expected result. x9 is the signature ptr, x8 is the link ptr, x7 is a temp reg.
  RVTEST_SIGUPD(x9, x8, x7, x16, I_addi_cg_cr_rs1_imm_edges_rs1val_0xaaaaaaaa_immval_0x0, I_addi_cg_cr_rs1_imm_edges_rs1val_0xaaaaaaaa_immval_0x0_str)
    276c:	0004a383          	lw	x7,0(x9)
    2770:	01038863          	beq	x7,x16,2780 <I_addi_cg_cr_rs1_imm_edges_rs1val_0xaaaaaaaa_immval_0x0+0x18>
    2774:	5610046f          	jal	x8,34d4 <failedtest_x8_x7>
    2778:	00002768          	.word	0x00002768
    277c:	0000d6f7          	.word	0x0000d6f7
    2780:	00448493          	addi	x9,x9,4

# Testcase cr_rs1_imm_edges (rs1 = 0xaaaaaaaa, imm = 1)
  RVTEST_TESTDATA_LOAD_INT(x19, x28) # load rs1: x28 = 0xaaaaaaaa
    2784:	0009ae03          	lw	x28,0(x19)
    2788:	00498993          	addi	x19,x19,4

0000278c <I_addi_cg_cr_rs1_imm_edges_rs1val_0xaaaaaaaa_immval_0x1>:
I_addi_cg_cr_rs1_imm_edges_rs1val_0xaaaaaaaa_immval_0x1:
  addi x17, x28, 1 # perform operation
    278c:	001e0893          	addi	x17,x28,1
  # Check if x17 contains the expected result. x9 is the signature ptr, x8 is the link ptr, x7 is a temp reg.
  RVTEST_SIGUPD(x9, x8, x7, x17, I_addi_cg_cr_rs1_imm_edges_rs1val_0xaaaaaaaa_immval_0x1, I_addi_cg_cr_rs1_imm_edges_rs1val_0xaaaaaaaa_immval_0x1_str)
    2790:	0004a383          	lw	x7,0(x9)
    2794:	01138863          	beq	x7,x17,27a4 <I_addi_cg_cr_rs1_imm_edges_rs1val_0xaaaaaaaa_immval_0x1+0x18>
    2798:	53d0046f          	jal	x8,34d4 <failedtest_x8_x7>
    279c:	0000278c          	.word	0x0000278c
    27a0:	0000d74c          	.word	0x0000d74c
    27a4:	00448493          	addi	x9,x9,4

# Testcase cr_rs1_imm_edges (rs1 = 0xaaaaaaaa, imm = 2)
  RVTEST_TESTDATA_LOAD_INT(x19, x17) # load rs1: x17 = 0xaaaaaaaa
    27a8:	0009a883          	lw	x17,0(x19)
    27ac:	00498993          	addi	x19,x19,4

000027b0 <I_addi_cg_cr_rs1_imm_edges_rs1val_0xaaaaaaaa_immval_0x2>:
I_addi_cg_cr_rs1_imm_edges_rs1val_0xaaaaaaaa_immval_0x2:
  addi x24, x17, 2 # perform operation
    27b0:	00288c13          	addi	x24,x17,2
  # Check if x24 contains the expected result. x9 is the signature ptr, x8 is the link ptr, x7 is a temp reg.
  RVTEST_SIGUPD(x9, x8, x7, x24, I_addi_cg_cr_rs1_imm_edges_rs1val_0xaaaaaaaa_immval_0x2, I_addi_cg_cr_rs1_imm_edges_rs1val_0xaaaaaaaa_immval_0x2_str)
    27b4:	0004a383          	lw	x7,0(x9)
    27b8:	01838863          	beq	x7,x24,27c8 <I_addi_cg_cr_rs1_imm_edges_rs1val_0xaaaaaaaa_immval_0x2+0x18>
    27bc:	5190046f          	jal	x8,34d4 <failedtest_x8_x7>
    27c0:	000027b0          	.word	0x000027b0
    27c4:	0000d7a1          	.word	0x0000d7a1
    27c8:	00448493          	addi	x9,x9,4

# Testcase cr_rs1_imm_edges (rs1 = 0xaaaaaaaa, imm = 3)
  RVTEST_TESTDATA_LOAD_INT(x19, x13) # load rs1: x13 = 0xaaaaaaaa
    27cc:	0009a683          	lw	x13,0(x19)
    27d0:	00498993          	addi	x19,x19,4

000027d4 <I_addi_cg_cr_rs1_imm_edges_rs1val_0xaaaaaaaa_immval_0x3>:
I_addi_cg_cr_rs1_imm_edges_rs1val_0xaaaaaaaa_immval_0x3:
  addi x25, x13, 3 # perform operation
    27d4:	00368c93          	addi	x25,x13,3
  # Check if x25 contains the expected result. x9 is the signature ptr, x8 is the link ptr, x7 is a temp reg.
  RVTEST_SIGUPD(x9, x8, x7, x25, I_addi_cg_cr_rs1_imm_edges_rs1val_0xaaaaaaaa_immval_0x3, I_addi_cg_cr_rs1_imm_edges_rs1val_0xaaaaaaaa_immval_0x3_str)
    27d8:	0004a383          	lw	x7,0(x9)
    27dc:	01938863          	beq	x7,x25,27ec <I_addi_cg_cr_rs1_imm_edges_rs1val_0xaaaaaaaa_immval_0x3+0x18>
    27e0:	4f50046f          	jal	x8,34d4 <failedtest_x8_x7>
    27e4:	000027d4          	.word	0x000027d4
    27e8:	0000d7f6          	.word	0x0000d7f6
    27ec:	00448493          	addi	x9,x9,4

# Testcase cr_rs1_imm_edges (rs1 = 0xaaaaaaaa, imm = 4)
  RVTEST_TESTDATA_LOAD_INT(x19, x21) # load rs1: x21 = 0xaaaaaaaa
    27f0:	0009aa83          	lw	x21,0(x19)
    27f4:	00498993          	addi	x19,x19,4

000027f8 <I_addi_cg_cr_rs1_imm_edges_rs1val_0xaaaaaaaa_immval_0x4>:
I_addi_cg_cr_rs1_imm_edges_rs1val_0xaaaaaaaa_immval_0x4:
  addi x6, x21, 4 # perform operation
    27f8:	004a8313          	addi	x6,x21,4
  # Check if x6 contains the expected result. x9 is the signature ptr, x8 is the link ptr, x7 is a temp reg.
  RVTEST_SIGUPD(x9, x8, x7, x6, I_addi_cg_cr_rs1_imm_edges_rs1val_0xaaaaaaaa_immval_0x4, I_addi_cg_cr_rs1_imm_edges_rs1val_0xaaaaaaaa_immval_0x4_str)
    27fc:	0004a383          	lw	x7,0(x9)
    2800:	00638863          	beq	x7,x6,2810 <I_addi_cg_cr_rs1_imm_edges_rs1val_0xaaaaaaaa_immval_0x4+0x18>
    2804:	4d10046f          	jal	x8,34d4 <failedtest_x8_x7>
    2808:	000027f8          	.word	0x000027f8
    280c:	0000d84b          	.word	0x0000d84b
    2810:	00448493          	addi	x9,x9,4

# Testcase cr_rs1_imm_edges (rs1 = 0xaaaaaaaa, imm = 8)
  RVTEST_TESTDATA_LOAD_INT(x19, x11) # load rs1: x11 = 0xaaaaaaaa
    2814:	0009a583          	lw	x11,0(x19)
    2818:	00498993          	addi	x19,x19,4

0000281c <I_addi_cg_cr_rs1_imm_edges_rs1val_0xaaaaaaaa_immval_0x8>:
I_addi_cg_cr_rs1_imm_edges_rs1val_0xaaaaaaaa_immval_0x8:
  addi x23, x11, 8 # perform operation
    281c:	00858b93          	addi	x23,x11,8
  # Check if x23 contains the expected result. x9 is the signature ptr, x8 is the link ptr, x7 is a temp reg.
  RVTEST_SIGUPD(x9, x8, x7, x23, I_addi_cg_cr_rs1_imm_edges_rs1val_0xaaaaaaaa_immval_0x8, I_addi_cg_cr_rs1_imm_edges_rs1val_0xaaaaaaaa_immval_0x8_str)
    2820:	0004a383          	lw	x7,0(x9)
    2824:	01738863          	beq	x7,x23,2834 <I_addi_cg_cr_rs1_imm_edges_rs1val_0xaaaaaaaa_immval_0x8+0x18>
    2828:	4ad0046f          	jal	x8,34d4 <failedtest_x8_x7>
    282c:	0000281c          	.word	0x0000281c
    2830:	0000d8a0          	.word	0x0000d8a0
    2834:	00448493          	addi	x9,x9,4

# Testcase cr_rs1_imm_edges (rs1 = 0xaaaaaaaa, imm = 16)
  RVTEST_TESTDATA_LOAD_INT(x19, x30) # load rs1: x30 = 0xaaaaaaaa
    2838:	0009af03          	lw	x30,0(x19)
    283c:	00498993          	addi	x19,x19,4

00002840 <I_addi_cg_cr_rs1_imm_edges_rs1val_0xaaaaaaaa_immval_0x10>:
I_addi_cg_cr_rs1_imm_edges_rs1val_0xaaaaaaaa_immval_0x10:
  addi x14, x30, 16 # perform operation
    2840:	010f0713          	addi	x14,x30,16
  # Check if x14 contains the expected result. x9 is the signature ptr, x8 is the link ptr, x7 is a temp reg.
  RVTEST_SIGUPD(x9, x8, x7, x14, I_addi_cg_cr_rs1_imm_edges_rs1val_0xaaaaaaaa_immval_0x10, I_addi_cg_cr_rs1_imm_edges_rs1val_0xaaaaaaaa_immval_0x10_str)
    2844:	0004a383          	lw	x7,0(x9)
    2848:	00e38863          	beq	x7,x14,2858 <I_addi_cg_cr_rs1_imm_edges_rs1val_0xaaaaaaaa_immval_0x10+0x18>
    284c:	4890046f          	jal	x8,34d4 <failedtest_x8_x7>
    2850:	00002840          	.word	0x00002840
    2854:	0000d8f5          	.word	0x0000d8f5
    2858:	00448493          	addi	x9,x9,4

# Testcase cr_rs1_imm_edges (rs1 = 0xaaaaaaaa, imm = 32)
  RVTEST_TESTDATA_LOAD_INT(x19, x30) # load rs1: x30 = 0xaaaaaaaa
    285c:	0009af03          	lw	x30,0(x19)
    2860:	00498993          	addi	x19,x19,4

00002864 <I_addi_cg_cr_rs1_imm_edges_rs1val_0xaaaaaaaa_immval_0x20>:
I_addi_cg_cr_rs1_imm_edges_rs1val_0xaaaaaaaa_immval_0x20:
  addi x27, x30, 32 # perform operation
    2864:	020f0d93          	addi	x27,x30,32
  # Check if x27 contains the expected result. x9 is the signature ptr, x8 is the link ptr, x7 is a temp reg.
  RVTEST_SIGUPD(x9, x8, x7, x27, I_addi_cg_cr_rs1_imm_edges_rs1val_0xaaaaaaaa_immval_0x20, I_addi_cg_cr_rs1_imm_edges_rs1val_0xaaaaaaaa_immval_0x20_str)
    2868:	0004a383          	lw	x7,0(x9)
    286c:	01b38863          	beq	x7,x27,287c <I_addi_cg_cr_rs1_imm_edges_rs1val_0xaaaaaaaa_immval_0x20+0x18>
    2870:	4650046f          	jal	x8,34d4 <failedtest_x8_x7>
    2874:	00002864          	.word	0x00002864
    2878:	0000d94b          	.word	0x0000d94b
    287c:	00448493          	addi	x9,x9,4

# Testcase cr_rs1_imm_edges (rs1 = 0xaaaaaaaa, imm = 64)
  RVTEST_TESTDATA_LOAD_INT(x19, x22) # load rs1: x22 = 0xaaaaaaaa
    2880:	0009ab03          	lw	x22,0(x19)
    2884:	00498993          	addi	x19,x19,4

00002888 <I_addi_cg_cr_rs1_imm_edges_rs1val_0xaaaaaaaa_immval_0x40>:
I_addi_cg_cr_rs1_imm_edges_rs1val_0xaaaaaaaa_immval_0x40:
  addi x24, x22, 64 # perform operation
    2888:	040b0c13          	addi	x24,x22,64
  # Check if x24 contains the expected result. x9 is the signature ptr, x8 is the link ptr, x7 is a temp reg.
  RVTEST_SIGUPD(x9, x8, x7, x24, I_addi_cg_cr_rs1_imm_edges_rs1val_0xaaaaaaaa_immval_0x40, I_addi_cg_cr_rs1_imm_edges_rs1val_0xaaaaaaaa_immval_0x40_str)
    288c:	0004a383          	lw	x7,0(x9)
    2890:	01838863          	beq	x7,x24,28a0 <I_addi_cg_cr_rs1_imm_edges_rs1val_0xaaaaaaaa_immval_0x40+0x18>
    2894:	4410046f          	jal	x8,34d4 <failedtest_x8_x7>
    2898:	00002888          	.word	0x00002888
    289c:	0000d9a1          	.word	0x0000d9a1
    28a0:	00448493          	addi	x9,x9,4

# Testcase cr_rs1_imm_edges (rs1 = 0xaaaaaaaa, imm = 128)
  RVTEST_TESTDATA_LOAD_INT(x19, x20) # load rs1: x20 = 0xaaaaaaaa
    28a4:	0009aa03          	lw	x20,0(x19)
    28a8:	00498993          	addi	x19,x19,4

000028ac <I_addi_cg_cr_rs1_imm_edges_rs1val_0xaaaaaaaa_immval_0x80>:
I_addi_cg_cr_rs1_imm_edges_rs1val_0xaaaaaaaa_immval_0x80:
  addi x11, x20, 128 # perform operation
    28ac:	080a0593          	addi	x11,x20,128
  # Check if x11 contains the expected result. x9 is the signature ptr, x8 is the link ptr, x7 is a temp reg.
  RVTEST_SIGUPD(x9, x8, x7, x11, I_addi_cg_cr_rs1_imm_edges_rs1val_0xaaaaaaaa_immval_0x80, I_addi_cg_cr_rs1_imm_edges_rs1val_0xaaaaaaaa_immval_0x80_str)
    28b0:	0004a383          	lw	x7,0(x9)
    28b4:	00b38863          	beq	x7,x11,28c4 <I_addi_cg_cr_rs1_imm_edges_rs1val_0xaaaaaaaa_immval_0x80+0x18>
    28b8:	41d0046f          	jal	x8,34d4 <failedtest_x8_x7>
    28bc:	000028ac          	.word	0x000028ac
    28c0:	0000d9f7          	.word	0x0000d9f7
    28c4:	00448493          	addi	x9,x9,4

# Testcase cr_rs1_imm_edges (rs1 = 0xaaaaaaaa, imm = 256)
  RVTEST_TESTDATA_LOAD_INT(x19, x15) # load rs1: x15 = 0xaaaaaaaa
    28c8:	0009a783          	lw	x15,0(x19)
    28cc:	00498993          	addi	x19,x19,4

000028d0 <I_addi_cg_cr_rs1_imm_edges_rs1val_0xaaaaaaaa_immval_0x100>:
I_addi_cg_cr_rs1_imm_edges_rs1val_0xaaaaaaaa_immval_0x100:
  addi x3, x15, 256 # perform operation
    28d0:	10078193          	addi	x3,x15,256
  # Check if x3 contains the expected result. x9 is the signature ptr, x8 is the link ptr, x7 is a temp reg.
  RVTEST_SIGUPD(x9, x8, x7, x3, I_addi_cg_cr_rs1_imm_edges_rs1val_0xaaaaaaaa_immval_0x100, I_addi_cg_cr_rs1_imm_edges_rs1val_0xaaaaaaaa_immval_0x100_str)
    28d4:	0004a383          	lw	x7,0(x9)
    28d8:	00338863          	beq	x7,x3,28e8 <I_addi_cg_cr_rs1_imm_edges_rs1val_0xaaaaaaaa_immval_0x100+0x18>
    28dc:	3f90046f          	jal	x8,34d4 <failedtest_x8_x7>
    28e0:	000028d0          	.word	0x000028d0
    28e4:	0000da4d          	.word	0x0000da4d
    28e8:	00448493          	addi	x9,x9,4

# Testcase cr_rs1_imm_edges (rs1 = 0xaaaaaaaa, imm = 512)
  RVTEST_TESTDATA_LOAD_INT(x19, x2) # load rs1: x2 = 0xaaaaaaaa
    28ec:	0009a103          	lw	x2,0(x19)
    28f0:	00498993          	addi	x19,x19,4

000028f4 <I_addi_cg_cr_rs1_imm_edges_rs1val_0xaaaaaaaa_immval_0x200>:
I_addi_cg_cr_rs1_imm_edges_rs1val_0xaaaaaaaa_immval_0x200:
  addi x11, x2, 512 # perform operation
    28f4:	20010593          	addi	x11,x2,512
  # Check if x11 contains the expected result. x9 is the signature ptr, x8 is the link ptr, x7 is a temp reg.
  RVTEST_SIGUPD(x9, x8, x7, x11, I_addi_cg_cr_rs1_imm_edges_rs1val_0xaaaaaaaa_immval_0x200, I_addi_cg_cr_rs1_imm_edges_rs1val_0xaaaaaaaa_immval_0x200_str)
    28f8:	0004a383          	lw	x7,0(x9)
    28fc:	00b38863          	beq	x7,x11,290c <I_addi_cg_cr_rs1_imm_edges_rs1val_0xaaaaaaaa_immval_0x200+0x18>
    2900:	3d50046f          	jal	x8,34d4 <failedtest_x8_x7>
    2904:	000028f4          	.word	0x000028f4
    2908:	0000daa4          	.word	0x0000daa4
    290c:	00448493          	addi	x9,x9,4

# Testcase cr_rs1_imm_edges (rs1 = 0xaaaaaaaa, imm = 1023)
  RVTEST_TESTDATA_LOAD_INT(x19, x22) # load rs1: x22 = 0xaaaaaaaa
    2910:	0009ab03          	lw	x22,0(x19)
    2914:	00498993          	addi	x19,x19,4

00002918 <I_addi_cg_cr_rs1_imm_edges_rs1val_0xaaaaaaaa_immval_0x3ff>:
I_addi_cg_cr_rs1_imm_edges_rs1val_0xaaaaaaaa_immval_0x3ff:
  addi x10, x22, 1023 # perform operation
    2918:	3ffb0513          	addi	x10,x22,1023
  # Check if x10 contains the expected result. x9 is the signature ptr, x8 is the link ptr, x7 is a temp reg.
  RVTEST_SIGUPD(x9, x8, x7, x10, I_addi_cg_cr_rs1_imm_edges_rs1val_0xaaaaaaaa_immval_0x3ff, I_addi_cg_cr_rs1_imm_edges_rs1val_0xaaaaaaaa_immval_0x3ff_str)
    291c:	0004a383          	lw	x7,0(x9)
    2920:	00a38863          	beq	x7,x10,2930 <I_addi_cg_cr_rs1_imm_edges_rs1val_0xaaaaaaaa_immval_0x3ff+0x18>
    2924:	3b10046f          	jal	x8,34d4 <failedtest_x8_x7>
    2928:	00002918          	.word	0x00002918
    292c:	0000dafb          	.word	0x0000dafb
    2930:	00448493          	addi	x9,x9,4

# Testcase cr_rs1_imm_edges (rs1 = 0xaaaaaaaa, imm = 1024)
  RVTEST_TESTDATA_LOAD_INT(x19, x14) # load rs1: x14 = 0xaaaaaaaa
    2934:	0009a703          	lw	x14,0(x19)
    2938:	00498993          	addi	x19,x19,4

0000293c <I_addi_cg_cr_rs1_imm_edges_rs1val_0xaaaaaaaa_immval_0x400>:
I_addi_cg_cr_rs1_imm_edges_rs1val_0xaaaaaaaa_immval_0x400:
  addi x1, x14, 1024 # perform operation
    293c:	40070093          	addi	x1,x14,1024
  # Check if x1 contains the expected result. x9 is the signature ptr, x8 is the link ptr, x7 is a temp reg.
  RVTEST_SIGUPD(x9, x8, x7, x1, I_addi_cg_cr_rs1_imm_edges_rs1val_0xaaaaaaaa_immval_0x400, I_addi_cg_cr_rs1_imm_edges_rs1val_0xaaaaaaaa_immval_0x400_str)
    2940:	0004a383          	lw	x7,0(x9)
    2944:	00138863          	beq	x7,x1,2954 <I_addi_cg_cr_rs1_imm_edges_rs1val_0xaaaaaaaa_immval_0x400+0x18>
    2948:	38d0046f          	jal	x8,34d4 <failedtest_x8_x7>
    294c:	0000293c          	.word	0x0000293c
    2950:	0000db52          	.word	0x0000db52
    2954:	00448493          	addi	x9,x9,4

# Testcase cr_rs1_imm_edges (rs1 = 0xaaaaaaaa, imm = 1795)
  RVTEST_TESTDATA_LOAD_INT(x19, x29) # load rs1: x29 = 0xaaaaaaaa
    2958:	0009ae83          	lw	x29,0(x19)
    295c:	00498993          	addi	x19,x19,4

00002960 <I_addi_cg_cr_rs1_imm_edges_rs1val_0xaaaaaaaa_immval_0x703>:
I_addi_cg_cr_rs1_imm_edges_rs1val_0xaaaaaaaa_immval_0x703:
  addi x12, x29, 1795 # perform operation
    2960:	703e8613          	addi	x12,x29,1795
  # Check if x12 contains the expected result. x9 is the signature ptr, x8 is the link ptr, x7 is a temp reg.
  RVTEST_SIGUPD(x9, x8, x7, x12, I_addi_cg_cr_rs1_imm_edges_rs1val_0xaaaaaaaa_immval_0x703, I_addi_cg_cr_rs1_imm_edges_rs1val_0xaaaaaaaa_immval_0x703_str)
    2964:	0004a383          	lw	x7,0(x9)
    2968:	00c38863          	beq	x7,x12,2978 <I_addi_cg_cr_rs1_imm_edges_rs1val_0xaaaaaaaa_immval_0x703+0x18>
    296c:	3690046f          	jal	x8,34d4 <failedtest_x8_x7>
    2970:	00002960          	.word	0x00002960
    2974:	0000dba9          	.word	0x0000dba9
    2978:	00448493          	addi	x9,x9,4

# Testcase cr_rs1_imm_edges (rs1 = 0xaaaaaaaa, imm = 2047)
  RVTEST_TESTDATA_LOAD_INT(x19, x30) # load rs1: x30 = 0xaaaaaaaa
    297c:	0009af03          	lw	x30,0(x19)
    2980:	00498993          	addi	x19,x19,4

00002984 <I_addi_cg_cr_rs1_imm_edges_rs1val_0xaaaaaaaa_immval_0x7ff>:
I_addi_cg_cr_rs1_imm_edges_rs1val_0xaaaaaaaa_immval_0x7ff:
  addi x1, x30, 2047 # perform operation
    2984:	7fff0093          	addi	x1,x30,2047
  # Check if x1 contains the expected result. x9 is the signature ptr, x8 is the link ptr, x7 is a temp reg.
  RVTEST_SIGUPD(x9, x8, x7, x1, I_addi_cg_cr_rs1_imm_edges_rs1val_0xaaaaaaaa_immval_0x7ff, I_addi_cg_cr_rs1_imm_edges_rs1val_0xaaaaaaaa_immval_0x7ff_str)
    2988:	0004a383          	lw	x7,0(x9)
    298c:	00138863          	beq	x7,x1,299c <I_addi_cg_cr_rs1_imm_edges_rs1val_0xaaaaaaaa_immval_0x7ff+0x18>
    2990:	3450046f          	jal	x8,34d4 <failedtest_x8_x7>
    2994:	00002984          	.word	0x00002984
    2998:	0000dc00          	.word	0x0000dc00
    299c:	00448493          	addi	x9,x9,4

# Testcase cr_rs1_imm_edges (rs1 = 0xaaaaaaaa, imm = -2048)
  RVTEST_TESTDATA_LOAD_INT(x19, x3) # load rs1: x3 = 0xaaaaaaaa
    29a0:	0009a183          	lw	x3,0(x19)
    29a4:	00498993          	addi	x19,x19,4

000029a8 <I_addi_cg_cr_rs1_imm_edges_rs1val_0xaaaaaaaa_immval_m0x800>:
I_addi_cg_cr_rs1_imm_edges_rs1val_0xaaaaaaaa_immval_m0x800:
  addi x27, x3, -2048 # perform operation
    29a8:	80018d93          	addi	x27,x3,-2048
  # Check if x27 contains the expected result. x9 is the signature ptr, x8 is the link ptr, x7 is a temp reg.
  RVTEST_SIGUPD(x9, x8, x7, x27, I_addi_cg_cr_rs1_imm_edges_rs1val_0xaaaaaaaa_immval_m0x800, I_addi_cg_cr_rs1_imm_edges_rs1val_0xaaaaaaaa_immval_m0x800_str)
    29ac:	0004a383          	lw	x7,0(x9)
    29b0:	01b38863          	beq	x7,x27,29c0 <I_addi_cg_cr_rs1_imm_edges_rs1val_0xaaaaaaaa_immval_m0x800+0x18>
    29b4:	3210046f          	jal	x8,34d4 <failedtest_x8_x7>
    29b8:	000029a8          	.word	0x000029a8
    29bc:	0000dc57          	.word	0x0000dc57
    29c0:	00448493          	addi	x9,x9,4

# Testcase cr_rs1_imm_edges (rs1 = 0xaaaaaaaa, imm = -2047)
  RVTEST_TESTDATA_LOAD_INT(x19, x29) # load rs1: x29 = 0xaaaaaaaa
    29c4:	0009ae83          	lw	x29,0(x19)
    29c8:	00498993          	addi	x19,x19,4

000029cc <I_addi_cg_cr_rs1_imm_edges_rs1val_0xaaaaaaaa_immval_m0x7ff>:
I_addi_cg_cr_rs1_imm_edges_rs1val_0xaaaaaaaa_immval_m0x7ff:
  addi x22, x29, -2047 # perform operation
    29cc:	801e8b13          	addi	x22,x29,-2047
  # Check if x22 contains the expected result. x9 is the signature ptr, x8 is the link ptr, x7 is a temp reg.
  RVTEST_SIGUPD(x9, x8, x7, x22, I_addi_cg_cr_rs1_imm_edges_rs1val_0xaaaaaaaa_immval_m0x7ff, I_addi_cg_cr_rs1_imm_edges_rs1val_0xaaaaaaaa_immval_m0x7ff_str)
    29d0:	0004a383          	lw	x7,0(x9)
    29d4:	01638863          	beq	x7,x22,29e4 <I_addi_cg_cr_rs1_imm_edges_rs1val_0xaaaaaaaa_immval_m0x7ff+0x18>
    29d8:	2fd0046f          	jal	x8,34d4 <failedtest_x8_x7>
    29dc:	000029cc          	.word	0x000029cc
    29e0:	0000dcaf          	.word	0x0000dcaf
    29e4:	00448493          	addi	x9,x9,4

# Testcase cr_rs1_imm_edges (rs1 = 0xaaaaaaaa, imm = -2)
  RVTEST_TESTDATA_LOAD_INT(x19, x26) # load rs1: x26 = 0xaaaaaaaa
    29e8:	0009ad03          	lw	x26,0(x19)
    29ec:	00498993          	addi	x19,x19,4

000029f0 <I_addi_cg_cr_rs1_imm_edges_rs1val_0xaaaaaaaa_immval_m0x2>:
I_addi_cg_cr_rs1_imm_edges_rs1val_0xaaaaaaaa_immval_m0x2:
  addi x1, x26, -2 # perform operation
    29f0:	ffed0093          	addi	x1,x26,-2
  # Check if x1 contains the expected result. x9 is the signature ptr, x8 is the link ptr, x7 is a temp reg.
  RVTEST_SIGUPD(x9, x8, x7, x1, I_addi_cg_cr_rs1_imm_edges_rs1val_0xaaaaaaaa_immval_m0x2, I_addi_cg_cr_rs1_imm_edges_rs1val_0xaaaaaaaa_immval_m0x2_str)
    29f4:	0004a383          	lw	x7,0(x9)
    29f8:	00138863          	beq	x7,x1,2a08 <I_addi_cg_cr_rs1_imm_edges_rs1val_0xaaaaaaaa_immval_m0x2+0x18>
    29fc:	2d90046f          	jal	x8,34d4 <failedtest_x8_x7>
    2a00:	000029f0          	.word	0x000029f0
    2a04:	0000dd07          	.word	0x0000dd07
    2a08:	00448493          	addi	x9,x9,4

# Testcase cr_rs1_imm_edges (rs1 = 0xaaaaaaaa, imm = -1)
  RVTEST_TESTDATA_LOAD_INT(x19, x13) # load rs1: x13 = 0xaaaaaaaa
    2a0c:	0009a683          	lw	x13,0(x19)
    2a10:	00498993          	addi	x19,x19,4

00002a14 <I_addi_cg_cr_rs1_imm_edges_rs1val_0xaaaaaaaa_immval_m0x1>:
I_addi_cg_cr_rs1_imm_edges_rs1val_0xaaaaaaaa_immval_m0x1:
  addi x11, x13, -1 # perform operation
    2a14:	fff68593          	addi	x11,x13,-1
  # Check if x11 contains the expected result. x9 is the signature ptr, x8 is the link ptr, x7 is a temp reg.
  RVTEST_SIGUPD(x9, x8, x7, x11, I_addi_cg_cr_rs1_imm_edges_rs1val_0xaaaaaaaa_immval_m0x1, I_addi_cg_cr_rs1_imm_edges_rs1val_0xaaaaaaaa_immval_m0x1_str)
    2a18:	0004a383          	lw	x7,0(x9)
    2a1c:	00b38863          	beq	x7,x11,2a2c <I_addi_cg_cr_rs1_imm_edges_rs1val_0xaaaaaaaa_immval_m0x1+0x18>
    2a20:	2b50046f          	jal	x8,34d4 <failedtest_x8_x7>
    2a24:	00002a14          	.word	0x00002a14
    2a28:	0000dd5d          	.word	0x0000dd5d
    2a2c:	00448493          	addi	x9,x9,4

# Testcase cr_rs1_imm_edges (rs1 = 0x55555555, imm = 0)
  RVTEST_TESTDATA_LOAD_INT(x19, x25) # load rs1: x25 = 0x55555555
    2a30:	0009ac83          	lw	x25,0(x19)
    2a34:	00498993          	addi	x19,x19,4

00002a38 <I_addi_cg_cr_rs1_imm_edges_rs1val_0x55555555_immval_0x0>:
I_addi_cg_cr_rs1_imm_edges_rs1val_0x55555555_immval_0x0:
  addi x6, x25, 0 # perform operation
    2a38:	000c8313          	addi	x6,x25,0
  # Check if x6 contains the expected result. x9 is the signature ptr, x8 is the link ptr, x7 is a temp reg.
  RVTEST_SIGUPD(x9, x8, x7, x6, I_addi_cg_cr_rs1_imm_edges_rs1val_0x55555555_immval_0x0, I_addi_cg_cr_rs1_imm_edges_rs1val_0x55555555_immval_0x0_str)
    2a3c:	0004a383          	lw	x7,0(x9)
    2a40:	00638863          	beq	x7,x6,2a50 <I_addi_cg_cr_rs1_imm_edges_rs1val_0x55555555_immval_0x0+0x18>
    2a44:	2910046f          	jal	x8,34d4 <failedtest_x8_x7>
    2a48:	00002a38          	.word	0x00002a38
    2a4c:	0000ddb3          	.word	0x0000ddb3
    2a50:	00448493          	addi	x9,x9,4

# Testcase cr_rs1_imm_edges (rs1 = 0x55555555, imm = 1)
  RVTEST_TESTDATA_LOAD_INT(x19, x27) # load rs1: x27 = 0x55555555
    2a54:	0009ad83          	lw	x27,0(x19)
    2a58:	00498993          	addi	x19,x19,4

00002a5c <I_addi_cg_cr_rs1_imm_edges_rs1val_0x55555555_immval_0x1>:
I_addi_cg_cr_rs1_imm_edges_rs1val_0x55555555_immval_0x1:
  addi x14, x27, 1 # perform operation
    2a5c:	001d8713          	addi	x14,x27,1
  # Check if x14 contains the expected result. x9 is the signature ptr, x8 is the link ptr, x7 is a temp reg.
  RVTEST_SIGUPD(x9, x8, x7, x14, I_addi_cg_cr_rs1_imm_edges_rs1val_0x55555555_immval_0x1, I_addi_cg_cr_rs1_imm_edges_rs1val_0x55555555_immval_0x1_str)
    2a60:	0004a383          	lw	x7,0(x9)
    2a64:	00e38863          	beq	x7,x14,2a74 <I_addi_cg_cr_rs1_imm_edges_rs1val_0x55555555_immval_0x1+0x18>
    2a68:	26d0046f          	jal	x8,34d4 <failedtest_x8_x7>
    2a6c:	00002a5c          	.word	0x00002a5c
    2a70:	0000de08          	.word	0x0000de08
    2a74:	00448493          	addi	x9,x9,4

# Testcase cr_rs1_imm_edges (rs1 = 0x55555555, imm = 2)
  RVTEST_TESTDATA_LOAD_INT(x19, x27) # load rs1: x27 = 0x55555555
    2a78:	0009ad83          	lw	x27,0(x19)
    2a7c:	00498993          	addi	x19,x19,4

00002a80 <I_addi_cg_cr_rs1_imm_edges_rs1val_0x55555555_immval_0x2>:
I_addi_cg_cr_rs1_imm_edges_rs1val_0x55555555_immval_0x2:
  addi x22, x27, 2 # perform operation
    2a80:	002d8b13          	addi	x22,x27,2
  # Check if x22 contains the expected result. x9 is the signature ptr, x8 is the link ptr, x7 is a temp reg.
  RVTEST_SIGUPD(x9, x8, x7, x22, I_addi_cg_cr_rs1_imm_edges_rs1val_0x55555555_immval_0x2, I_addi_cg_cr_rs1_imm_edges_rs1val_0x55555555_immval_0x2_str)
    2a84:	0004a383          	lw	x7,0(x9)
    2a88:	01638863          	beq	x7,x22,2a98 <I_addi_cg_cr_rs1_imm_edges_rs1val_0x55555555_immval_0x2+0x18>
    2a8c:	2490046f          	jal	x8,34d4 <failedtest_x8_x7>
    2a90:	00002a80          	.word	0x00002a80
    2a94:	0000de5d          	.word	0x0000de5d
    2a98:	00448493          	addi	x9,x9,4

# Testcase cr_rs1_imm_edges (rs1 = 0x55555555, imm = 3)
  RVTEST_TESTDATA_LOAD_INT(x19, x25) # load rs1: x25 = 0x55555555
    2a9c:	0009ac83          	lw	x25,0(x19)
    2aa0:	00498993          	addi	x19,x19,4

00002aa4 <I_addi_cg_cr_rs1_imm_edges_rs1val_0x55555555_immval_0x3>:
I_addi_cg_cr_rs1_imm_edges_rs1val_0x55555555_immval_0x3:
  addi x6, x25, 3 # perform operation
    2aa4:	003c8313          	addi	x6,x25,3
  # Check if x6 contains the expected result. x9 is the signature ptr, x8 is the link ptr, x7 is a temp reg.
  RVTEST_SIGUPD(x9, x8, x7, x6, I_addi_cg_cr_rs1_imm_edges_rs1val_0x55555555_immval_0x3, I_addi_cg_cr_rs1_imm_edges_rs1val_0x55555555_immval_0x3_str)
    2aa8:	0004a383          	lw	x7,0(x9)
    2aac:	00638863          	beq	x7,x6,2abc <I_addi_cg_cr_rs1_imm_edges_rs1val_0x55555555_immval_0x3+0x18>
    2ab0:	2250046f          	jal	x8,34d4 <failedtest_x8_x7>
    2ab4:	00002aa4          	.word	0x00002aa4
    2ab8:	0000deb2          	.word	0x0000deb2
    2abc:	00448493          	addi	x9,x9,4

# Testcase cr_rs1_imm_edges (rs1 = 0x55555555, imm = 4)
  RVTEST_TESTDATA_LOAD_INT(x19, x15) # load rs1: x15 = 0x55555555
    2ac0:	0009a783          	lw	x15,0(x19)
    2ac4:	00498993          	addi	x19,x19,4

00002ac8 <I_addi_cg_cr_rs1_imm_edges_rs1val_0x55555555_immval_0x4>:
I_addi_cg_cr_rs1_imm_edges_rs1val_0x55555555_immval_0x4:
  addi x21, x15, 4 # perform operation
    2ac8:	00478a93          	addi	x21,x15,4
  # Check if x21 contains the expected result. x9 is the signature ptr, x8 is the link ptr, x7 is a temp reg.
  RVTEST_SIGUPD(x9, x8, x7, x21, I_addi_cg_cr_rs1_imm_edges_rs1val_0x55555555_immval_0x4, I_addi_cg_cr_rs1_imm_edges_rs1val_0x55555555_immval_0x4_str)
    2acc:	0004a383          	lw	x7,0(x9)
    2ad0:	01538863          	beq	x7,x21,2ae0 <I_addi_cg_cr_rs1_imm_edges_rs1val_0x55555555_immval_0x4+0x18>
    2ad4:	2010046f          	jal	x8,34d4 <failedtest_x8_x7>
    2ad8:	00002ac8          	.word	0x00002ac8
    2adc:	0000df07          	.word	0x0000df07
    2ae0:	00448493          	addi	x9,x9,4

# Testcase cr_rs1_imm_edges (rs1 = 0x55555555, imm = 8)
  RVTEST_TESTDATA_LOAD_INT(x19, x26) # load rs1: x26 = 0x55555555
    2ae4:	0009ad03          	lw	x26,0(x19)
    2ae8:	00498993          	addi	x19,x19,4

00002aec <I_addi_cg_cr_rs1_imm_edges_rs1val_0x55555555_immval_0x8>:
I_addi_cg_cr_rs1_imm_edges_rs1val_0x55555555_immval_0x8:
  addi x24, x26, 8 # perform operation
    2aec:	008d0c13          	addi	x24,x26,8
  # Check if x24 contains the expected result. x9 is the signature ptr, x8 is the link ptr, x7 is a temp reg.
  RVTEST_SIGUPD(x9, x8, x7, x24, I_addi_cg_cr_rs1_imm_edges_rs1val_0x55555555_immval_0x8, I_addi_cg_cr_rs1_imm_edges_rs1val_0x55555555_immval_0x8_str)
    2af0:	0004a383          	lw	x7,0(x9)
    2af4:	01838863          	beq	x7,x24,2b04 <I_addi_cg_cr_rs1_imm_edges_rs1val_0x55555555_immval_0x8+0x18>
    2af8:	1dd0046f          	jal	x8,34d4 <failedtest_x8_x7>
    2afc:	00002aec          	.word	0x00002aec
    2b00:	0000df5c          	.word	0x0000df5c
    2b04:	00448493          	addi	x9,x9,4

# Testcase cr_rs1_imm_edges (rs1 = 0x55555555, imm = 16)
  RVTEST_TESTDATA_LOAD_INT(x19, x20) # load rs1: x20 = 0x55555555
    2b08:	0009aa03          	lw	x20,0(x19)
    2b0c:	00498993          	addi	x19,x19,4

00002b10 <I_addi_cg_cr_rs1_imm_edges_rs1val_0x55555555_immval_0x10>:
I_addi_cg_cr_rs1_imm_edges_rs1val_0x55555555_immval_0x10:
  addi x1, x20, 16 # perform operation
    2b10:	010a0093          	addi	x1,x20,16
  # Check if x1 contains the expected result. x9 is the signature ptr, x8 is the link ptr, x7 is a temp reg.
  RVTEST_SIGUPD(x9, x8, x7, x1, I_addi_cg_cr_rs1_imm_edges_rs1val_0x55555555_immval_0x10, I_addi_cg_cr_rs1_imm_edges_rs1val_0x55555555_immval_0x10_str)
    2b14:	0004a383          	lw	x7,0(x9)
    2b18:	00138863          	beq	x7,x1,2b28 <I_addi_cg_cr_rs1_imm_edges_rs1val_0x55555555_immval_0x10+0x18>
    2b1c:	1b90046f          	jal	x8,34d4 <failedtest_x8_x7>
    2b20:	00002b10          	.word	0x00002b10
    2b24:	0000dfb1          	.word	0x0000dfb1
    2b28:	00448493          	addi	x9,x9,4

# Testcase cr_rs1_imm_edges (rs1 = 0x55555555, imm = 32)
  RVTEST_TESTDATA_LOAD_INT(x19, x6) # load rs1: x6 = 0x55555555
    2b2c:	0009a303          	lw	x6,0(x19)
    2b30:	00498993          	addi	x19,x19,4

00002b34 <I_addi_cg_cr_rs1_imm_edges_rs1val_0x55555555_immval_0x20>:
I_addi_cg_cr_rs1_imm_edges_rs1val_0x55555555_immval_0x20:
  addi x5, x6, 32 # perform operation
    2b34:	02030293          	addi	x5,x6,32
  # Check if x5 contains the expected result. x9 is the signature ptr, x8 is the link ptr, x7 is a temp reg.
  RVTEST_SIGUPD(x9, x8, x7, x5, I_addi_cg_cr_rs1_imm_edges_rs1val_0x55555555_immval_0x20, I_addi_cg_cr_rs1_imm_edges_rs1val_0x55555555_immval_0x20_str)
    2b38:	0004a383          	lw	x7,0(x9)
    2b3c:	00538863          	beq	x7,x5,2b4c <I_addi_cg_cr_rs1_imm_edges_rs1val_0x55555555_immval_0x20+0x18>
    2b40:	1950046f          	jal	x8,34d4 <failedtest_x8_x7>
    2b44:	00002b34          	.word	0x00002b34
    2b48:	0000e007          	.word	0x0000e007
    2b4c:	00448493          	addi	x9,x9,4

# Testcase cr_rs1_imm_edges (rs1 = 0x55555555, imm = 64)
  RVTEST_TESTDATA_LOAD_INT(x19, x28) # load rs1: x28 = 0x55555555
    2b50:	0009ae03          	lw	x28,0(x19)
    2b54:	00498993          	addi	x19,x19,4

00002b58 <I_addi_cg_cr_rs1_imm_edges_rs1val_0x55555555_immval_0x40>:
I_addi_cg_cr_rs1_imm_edges_rs1val_0x55555555_immval_0x40:
  addi x27, x28, 64 # perform operation
    2b58:	040e0d93          	addi	x27,x28,64
  # Check if x27 contains the expected result. x9 is the signature ptr, x8 is the link ptr, x7 is a temp reg.
  RVTEST_SIGUPD(x9, x8, x7, x27, I_addi_cg_cr_rs1_imm_edges_rs1val_0x55555555_immval_0x40, I_addi_cg_cr_rs1_imm_edges_rs1val_0x55555555_immval_0x40_str)
    2b5c:	0004a383          	lw	x7,0(x9)
    2b60:	01b38863          	beq	x7,x27,2b70 <I_addi_cg_cr_rs1_imm_edges_rs1val_0x55555555_immval_0x40+0x18>
    2b64:	1710046f          	jal	x8,34d4 <failedtest_x8_x7>
    2b68:	00002b58          	.word	0x00002b58
    2b6c:	0000e05d          	.word	0x0000e05d
    2b70:	00448493          	addi	x9,x9,4

# Testcase cr_rs1_imm_edges (rs1 = 0x55555555, imm = 128)
  RVTEST_TESTDATA_LOAD_INT(x19, x17) # load rs1: x17 = 0x55555555
    2b74:	0009a883          	lw	x17,0(x19)
    2b78:	00498993          	addi	x19,x19,4

00002b7c <I_addi_cg_cr_rs1_imm_edges_rs1val_0x55555555_immval_0x80>:
I_addi_cg_cr_rs1_imm_edges_rs1val_0x55555555_immval_0x80:
  addi x22, x17, 128 # perform operation
    2b7c:	08088b13          	addi	x22,x17,128
  # Check if x22 contains the expected result. x9 is the signature ptr, x8 is the link ptr, x7 is a temp reg.
  RVTEST_SIGUPD(x9, x8, x7, x22, I_addi_cg_cr_rs1_imm_edges_rs1val_0x55555555_immval_0x80, I_addi_cg_cr_rs1_imm_edges_rs1val_0x55555555_immval_0x80_str)
    2b80:	0004a383          	lw	x7,0(x9)
    2b84:	01638863          	beq	x7,x22,2b94 <I_addi_cg_cr_rs1_imm_edges_rs1val_0x55555555_immval_0x80+0x18>
    2b88:	14d0046f          	jal	x8,34d4 <failedtest_x8_x7>
    2b8c:	00002b7c          	.word	0x00002b7c
    2b90:	0000e0b3          	.word	0x0000e0b3
    2b94:	00448493          	addi	x9,x9,4

# Testcase cr_rs1_imm_edges (rs1 = 0x55555555, imm = 256)
  RVTEST_TESTDATA_LOAD_INT(x19, x15) # load rs1: x15 = 0x55555555
    2b98:	0009a783          	lw	x15,0(x19)
    2b9c:	00498993          	addi	x19,x19,4

00002ba0 <I_addi_cg_cr_rs1_imm_edges_rs1val_0x55555555_immval_0x100>:
I_addi_cg_cr_rs1_imm_edges_rs1val_0x55555555_immval_0x100:
  addi x14, x15, 256 # perform operation
    2ba0:	10078713          	addi	x14,x15,256
  # Check if x14 contains the expected result. x9 is the signature ptr, x8 is the link ptr, x7 is a temp reg.
  RVTEST_SIGUPD(x9, x8, x7, x14, I_addi_cg_cr_rs1_imm_edges_rs1val_0x55555555_immval_0x100, I_addi_cg_cr_rs1_imm_edges_rs1val_0x55555555_immval_0x100_str)
    2ba4:	0004a383          	lw	x7,0(x9)
    2ba8:	00e38863          	beq	x7,x14,2bb8 <I_addi_cg_cr_rs1_imm_edges_rs1val_0x55555555_immval_0x100+0x18>
    2bac:	1290046f          	jal	x8,34d4 <failedtest_x8_x7>
    2bb0:	00002ba0          	.word	0x00002ba0
    2bb4:	0000e109          	.word	0x0000e109
    2bb8:	00448493          	addi	x9,x9,4

# Testcase cr_rs1_imm_edges (rs1 = 0x55555555, imm = 512)
  RVTEST_TESTDATA_LOAD_INT(x19, x25) # load rs1: x25 = 0x55555555
    2bbc:	0009ac83          	lw	x25,0(x19)
    2bc0:	00498993          	addi	x19,x19,4

00002bc4 <I_addi_cg_cr_rs1_imm_edges_rs1val_0x55555555_immval_0x200>:
I_addi_cg_cr_rs1_imm_edges_rs1val_0x55555555_immval_0x200:
  addi x15, x25, 512 # perform operation
    2bc4:	200c8793          	addi	x15,x25,512
  # Check if x15 contains the expected result. x9 is the signature ptr, x8 is the link ptr, x7 is a temp reg.
  RVTEST_SIGUPD(x9, x8, x7, x15, I_addi_cg_cr_rs1_imm_edges_rs1val_0x55555555_immval_0x200, I_addi_cg_cr_rs1_imm_edges_rs1val_0x55555555_immval_0x200_str)
    2bc8:	0004a383          	lw	x7,0(x9)
    2bcc:	00f38863          	beq	x7,x15,2bdc <I_addi_cg_cr_rs1_imm_edges_rs1val_0x55555555_immval_0x200+0x18>
    2bd0:	1050046f          	jal	x8,34d4 <failedtest_x8_x7>
    2bd4:	00002bc4          	.word	0x00002bc4
    2bd8:	0000e160          	.word	0x0000e160
    2bdc:	00448493          	addi	x9,x9,4

# Testcase cr_rs1_imm_edges (rs1 = 0x55555555, imm = 1023)
  RVTEST_TESTDATA_LOAD_INT(x19, x20) # load rs1: x20 = 0x55555555
    2be0:	0009aa03          	lw	x20,0(x19)
    2be4:	00498993          	addi	x19,x19,4

00002be8 <I_addi_cg_cr_rs1_imm_edges_rs1val_0x55555555_immval_0x3ff>:
I_addi_cg_cr_rs1_imm_edges_rs1val_0x55555555_immval_0x3ff:
  addi x27, x20, 1023 # perform operation
    2be8:	3ffa0d93          	addi	x27,x20,1023
  # Check if x27 contains the expected result. x9 is the signature ptr, x8 is the link ptr, x7 is a temp reg.
  RVTEST_SIGUPD(x9, x8, x7, x27, I_addi_cg_cr_rs1_imm_edges_rs1val_0x55555555_immval_0x3ff, I_addi_cg_cr_rs1_imm_edges_rs1val_0x55555555_immval_0x3ff_str)
    2bec:	0004a383          	lw	x7,0(x9)
    2bf0:	01b38863          	beq	x7,x27,2c00 <I_addi_cg_cr_rs1_imm_edges_rs1val_0x55555555_immval_0x3ff+0x18>
    2bf4:	0e10046f          	jal	x8,34d4 <failedtest_x8_x7>
    2bf8:	00002be8          	.word	0x00002be8
    2bfc:	0000e1b7          	.word	0x0000e1b7
    2c00:	00448493          	addi	x9,x9,4

# Testcase cr_rs1_imm_edges (rs1 = 0x55555555, imm = 1024)
  RVTEST_TESTDATA_LOAD_INT(x19, x20) # load rs1: x20 = 0x55555555
    2c04:	0009aa03          	lw	x20,0(x19)
    2c08:	00498993          	addi	x19,x19,4

00002c0c <I_addi_cg_cr_rs1_imm_edges_rs1val_0x55555555_immval_0x400>:
I_addi_cg_cr_rs1_imm_edges_rs1val_0x55555555_immval_0x400:
  addi x13, x20, 1024 # perform operation
    2c0c:	400a0693          	addi	x13,x20,1024
  # Check if x13 contains the expected result. x9 is the signature ptr, x8 is the link ptr, x7 is a temp reg.
  RVTEST_SIGUPD(x9, x8, x7, x13, I_addi_cg_cr_rs1_imm_edges_rs1val_0x55555555_immval_0x400, I_addi_cg_cr_rs1_imm_edges_rs1val_0x55555555_immval_0x400_str)
    2c10:	0004a383          	lw	x7,0(x9)
    2c14:	00d38863          	beq	x7,x13,2c24 <I_addi_cg_cr_rs1_imm_edges_rs1val_0x55555555_immval_0x400+0x18>
    2c18:	0bd0046f          	jal	x8,34d4 <failedtest_x8_x7>
    2c1c:	00002c0c          	.word	0x00002c0c
    2c20:	0000e20e          	.word	0x0000e20e
    2c24:	00448493          	addi	x9,x9,4

# Testcase cr_rs1_imm_edges (rs1 = 0x55555555, imm = 1795)
  RVTEST_TESTDATA_LOAD_INT(x19, x11) # load rs1: x11 = 0x55555555
    2c28:	0009a583          	lw	x11,0(x19)
    2c2c:	00498993          	addi	x19,x19,4

00002c30 <I_addi_cg_cr_rs1_imm_edges_rs1val_0x55555555_immval_0x703>:
I_addi_cg_cr_rs1_imm_edges_rs1val_0x55555555_immval_0x703:
  addi x23, x11, 1795 # perform operation
    2c30:	70358b93          	addi	x23,x11,1795
  # Check if x23 contains the expected result. x9 is the signature ptr, x8 is the link ptr, x7 is a temp reg.
  RVTEST_SIGUPD(x9, x8, x7, x23, I_addi_cg_cr_rs1_imm_edges_rs1val_0x55555555_immval_0x703, I_addi_cg_cr_rs1_imm_edges_rs1val_0x55555555_immval_0x703_str)
    2c34:	0004a383          	lw	x7,0(x9)
    2c38:	01738863          	beq	x7,x23,2c48 <I_addi_cg_cr_rs1_imm_edges_rs1val_0x55555555_immval_0x703+0x18>
    2c3c:	0990046f          	jal	x8,34d4 <failedtest_x8_x7>
    2c40:	00002c30          	.word	0x00002c30
    2c44:	0000e265          	.word	0x0000e265
    2c48:	00448493          	addi	x9,x9,4

# Testcase cr_rs1_imm_edges (rs1 = 0x55555555, imm = 2047)
  RVTEST_TESTDATA_LOAD_INT(x19, x22) # load rs1: x22 = 0x55555555
    2c4c:	0009ab03          	lw	x22,0(x19)
    2c50:	00498993          	addi	x19,x19,4

00002c54 <I_addi_cg_cr_rs1_imm_edges_rs1val_0x55555555_immval_0x7ff>:
I_addi_cg_cr_rs1_imm_edges_rs1val_0x55555555_immval_0x7ff:
  addi x24, x22, 2047 # perform operation
    2c54:	7ffb0c13          	addi	x24,x22,2047
  # Check if x24 contains the expected result. x9 is the signature ptr, x8 is the link ptr, x7 is a temp reg.
  RVTEST_SIGUPD(x9, x8, x7, x24, I_addi_cg_cr_rs1_imm_edges_rs1val_0x55555555_immval_0x7ff, I_addi_cg_cr_rs1_imm_edges_rs1val_0x55555555_immval_0x7ff_str)
    2c58:	0004a383          	lw	x7,0(x9)
    2c5c:	01838863          	beq	x7,x24,2c6c <I_addi_cg_cr_rs1_imm_edges_rs1val_0x55555555_immval_0x7ff+0x18>
    2c60:	0750046f          	jal	x8,34d4 <failedtest_x8_x7>
    2c64:	00002c54          	.word	0x00002c54
    2c68:	0000e2bc          	.word	0x0000e2bc
    2c6c:	00448493          	addi	x9,x9,4

# Testcase cr_rs1_imm_edges (rs1 = 0x55555555, imm = -2048)
  RVTEST_TESTDATA_LOAD_INT(x19, x13) # load rs1: x13 = 0x55555555
    2c70:	0009a683          	lw	x13,0(x19)
    2c74:	00498993          	addi	x19,x19,4

00002c78 <I_addi_cg_cr_rs1_imm_edges_rs1val_0x55555555_immval_m0x800>:
I_addi_cg_cr_rs1_imm_edges_rs1val_0x55555555_immval_m0x800:
  addi x16, x13, -2048 # perform operation
    2c78:	80068813          	addi	x16,x13,-2048
  # Check if x16 contains the expected result. x9 is the signature ptr, x8 is the link ptr, x7 is a temp reg.
  RVTEST_SIGUPD(x9, x8, x7, x16, I_addi_cg_cr_rs1_imm_edges_rs1val_0x55555555_immval_m0x800, I_addi_cg_cr_rs1_imm_edges_rs1val_0x55555555_immval_m0x800_str)
    2c7c:	0004a383          	lw	x7,0(x9)
    2c80:	01038863          	beq	x7,x16,2c90 <I_addi_cg_cr_rs1_imm_edges_rs1val_0x55555555_immval_m0x800+0x18>
    2c84:	0510046f          	jal	x8,34d4 <failedtest_x8_x7>
    2c88:	00002c78          	.word	0x00002c78
    2c8c:	0000e313          	.word	0x0000e313
    2c90:	00448493          	addi	x9,x9,4

# Testcase cr_rs1_imm_edges (rs1 = 0x55555555, imm = -2047)
  RVTEST_TESTDATA_LOAD_INT(x19, x26) # load rs1: x26 = 0x55555555
    2c94:	0009ad03          	lw	x26,0(x19)
    2c98:	00498993          	addi	x19,x19,4

00002c9c <I_addi_cg_cr_rs1_imm_edges_rs1val_0x55555555_immval_m0x7ff>:
I_addi_cg_cr_rs1_imm_edges_rs1val_0x55555555_immval_m0x7ff:
  addi x25, x26, -2047 # perform operation
    2c9c:	801d0c93          	addi	x25,x26,-2047
  # Check if x25 contains the expected result. x9 is the signature ptr, x8 is the link ptr, x7 is a temp reg.
  RVTEST_SIGUPD(x9, x8, x7, x25, I_addi_cg_cr_rs1_imm_edges_rs1val_0x55555555_immval_m0x7ff, I_addi_cg_cr_rs1_imm_edges_rs1val_0x55555555_immval_m0x7ff_str)
    2ca0:	0004a383          	lw	x7,0(x9)
    2ca4:	01938863          	beq	x7,x25,2cb4 <I_addi_cg_cr_rs1_imm_edges_rs1val_0x55555555_immval_m0x7ff+0x18>
    2ca8:	02d0046f          	jal	x8,34d4 <failedtest_x8_x7>
    2cac:	00002c9c          	.word	0x00002c9c
    2cb0:	0000e36b          	.word	0x0000e36b
    2cb4:	00448493          	addi	x9,x9,4

# Testcase cr_rs1_imm_edges (rs1 = 0x55555555, imm = -2)
  RVTEST_TESTDATA_LOAD_INT(x19, x23) # load rs1: x23 = 0x55555555
    2cb8:	0009ab83          	lw	x23,0(x19)
    2cbc:	00498993          	addi	x19,x19,4

00002cc0 <I_addi_cg_cr_rs1_imm_edges_rs1val_0x55555555_immval_m0x2>:
I_addi_cg_cr_rs1_imm_edges_rs1val_0x55555555_immval_m0x2:
  addi x14, x23, -2 # perform operation
    2cc0:	ffeb8713          	addi	x14,x23,-2
  # Check if x14 contains the expected result. x9 is the signature ptr, x8 is the link ptr, x7 is a temp reg.
  RVTEST_SIGUPD(x9, x8, x7, x14, I_addi_cg_cr_rs1_imm_edges_rs1val_0x55555555_immval_m0x2, I_addi_cg_cr_rs1_imm_edges_rs1val_0x55555555_immval_m0x2_str)
    2cc4:	0004a383          	lw	x7,0(x9)
    2cc8:	00e38863          	beq	x7,x14,2cd8 <I_addi_cg_cr_rs1_imm_edges_rs1val_0x55555555_immval_m0x2+0x18>
    2ccc:	0090046f          	jal	x8,34d4 <failedtest_x8_x7>
    2cd0:	00002cc0          	.word	0x00002cc0
    2cd4:	0000e3c3          	.word	0x0000e3c3
    2cd8:	00448493          	addi	x9,x9,4

# Testcase cr_rs1_imm_edges (rs1 = 0x55555555, imm = -1)
  RVTEST_TESTDATA_LOAD_INT(x19, x4) # load rs1: x4 = 0x55555555
    2cdc:	0009a203          	lw	x4,0(x19)
    2ce0:	00498993          	addi	x19,x19,4

00002ce4 <I_addi_cg_cr_rs1_imm_edges_rs1val_0x55555555_immval_m0x1>:
I_addi_cg_cr_rs1_imm_edges_rs1val_0x55555555_immval_m0x1:
  addi x6, x4, -1 # perform operation
    2ce4:	fff20313          	addi	x6,x4,-1 # ffffffff <absimm+0x90a35cf6>
  # Check if x6 contains the expected result. x9 is the signature ptr, x8 is the link ptr, x7 is a temp reg.
  RVTEST_SIGUPD(x9, x8, x7, x6, I_addi_cg_cr_rs1_imm_edges_rs1val_0x55555555_immval_m0x1, I_addi_cg_cr_rs1_imm_edges_rs1val_0x55555555_immval_m0x1_str)
    2ce8:	0004a383          	lw	x7,0(x9)
    2cec:	00638863          	beq	x7,x6,2cfc <I_addi_cg_cr_rs1_imm_edges_rs1val_0x55555555_immval_m0x1+0x18>
    2cf0:	7e40046f          	jal	x8,34d4 <failedtest_x8_x7>
    2cf4:	00002ce4          	.word	0x00002ce4
    2cf8:	0000e419          	.word	0x0000e419
    2cfc:	00448493          	addi	x9,x9,4
/////////////////////////////////
// cmp_rd_rs1
/////////////////////////////////

# Testcase cmp_rd_rs1 (Test rd = rs1 = x0)
  RVTEST_TESTDATA_LOAD_INT(x19, x0) # load rs1: x0 = 0x22ae8c27
    2d00:	0009a003          	lw	x0,0(x19)
    2d04:	00498993          	addi	x19,x19,4

00002d08 <I_addi_cg_cmp_rd_rs1_b0>:
I_addi_cg_cmp_rd_rs1_b0:
  addi x0, x0, 235 # perform operation
    2d08:	0eb00013          	addi	x0,x0,235
  # Check if x0 contains the expected result. x9 is the signature ptr, x8 is the link ptr, x7 is a temp reg.
  RVTEST_SIGUPD(x9, x8, x7, x0, I_addi_cg_cmp_rd_rs1_b0, I_addi_cg_cmp_rd_rs1_b0_str)
    2d0c:	0004a383          	lw	x7,0(x9)
    2d10:	00038863          	beq	x7,x0,2d20 <I_addi_cg_cmp_rd_rs1_b0+0x18>
    2d14:	7c00046f          	jal	x8,34d4 <failedtest_x8_x7>
    2d18:	00002d08          	.word	0x00002d08
    2d1c:	0000e46f          	.word	0x0000e46f
    2d20:	00448493          	addi	x9,x9,4

# Testcase cmp_rd_rs1 (Test rd = rs1 = x1)
  RVTEST_TESTDATA_LOAD_INT(x19, x1) # load rs1: x1 = 0x2ca0964c
    2d24:	0009a083          	lw	x1,0(x19)
    2d28:	00498993          	addi	x19,x19,4

00002d2c <I_addi_cg_cmp_rd_rs1_b1>:
I_addi_cg_cmp_rd_rs1_b1:
  addi x1, x1, 303 # perform operation
    2d2c:	12f08093          	addi	x1,x1,303
  # Check if x1 contains the expected result. x9 is the signature ptr, x8 is the link ptr, x7 is a temp reg.
  RVTEST_SIGUPD(x9, x8, x7, x1, I_addi_cg_cmp_rd_rs1_b1, I_addi_cg_cmp_rd_rs1_b1_str)
    2d30:	0004a383          	lw	x7,0(x9)
    2d34:	00138863          	beq	x7,x1,2d44 <I_addi_cg_cmp_rd_rs1_b1+0x18>
    2d38:	79c0046f          	jal	x8,34d4 <failedtest_x8_x7>
    2d3c:	00002d2c          	.word	0x00002d2c
    2d40:	0000e4a3          	.word	0x0000e4a3
    2d44:	00448493          	addi	x9,x9,4

# Testcase cmp_rd_rs1 (Test rd = rs1 = x2)
  RVTEST_TESTDATA_LOAD_INT(x19, x2) # load rs1: x2 = 0x933bd420
    2d48:	0009a103          	lw	x2,0(x19)
    2d4c:	00498993          	addi	x19,x19,4

00002d50 <I_addi_cg_cmp_rd_rs1_b2>:
I_addi_cg_cmp_rd_rs1_b2:
  addi x2, x2, 1172 # perform operation
    2d50:	49410113          	addi	x2,x2,1172
  # Check if x2 contains the expected result. x9 is the signature ptr, x8 is the link ptr, x7 is a temp reg.
  RVTEST_SIGUPD(x9, x8, x7, x2, I_addi_cg_cmp_rd_rs1_b2, I_addi_cg_cmp_rd_rs1_b2_str)
    2d54:	0004a383          	lw	x7,0(x9)
    2d58:	00238863          	beq	x7,x2,2d68 <I_addi_cg_cmp_rd_rs1_b2+0x18>
    2d5c:	7780046f          	jal	x8,34d4 <failedtest_x8_x7>
    2d60:	00002d50          	.word	0x00002d50
    2d64:	0000e4d7          	.word	0x0000e4d7
    2d68:	00448493          	addi	x9,x9,4

# Testcase cmp_rd_rs1 (Test rd = rs1 = x3)
  RVTEST_TESTDATA_LOAD_INT(x19, x3) # load rs1: x3 = 0x43037f69
    2d6c:	0009a183          	lw	x3,0(x19)
    2d70:	00498993          	addi	x19,x19,4

00002d74 <I_addi_cg_cmp_rd_rs1_b3>:
I_addi_cg_cmp_rd_rs1_b3:
  addi x3, x3, 1536 # perform operation
    2d74:	60018193          	addi	x3,x3,1536
  # Check if x3 contains the expected result. x9 is the signature ptr, x8 is the link ptr, x7 is a temp reg.
  RVTEST_SIGUPD(x9, x8, x7, x3, I_addi_cg_cmp_rd_rs1_b3, I_addi_cg_cmp_rd_rs1_b3_str)
    2d78:	0004a383          	lw	x7,0(x9)
    2d7c:	00338863          	beq	x7,x3,2d8c <I_addi_cg_cmp_rd_rs1_b3+0x18>
    2d80:	7540046f          	jal	x8,34d4 <failedtest_x8_x7>
    2d84:	00002d74          	.word	0x00002d74
    2d88:	0000e50b          	.word	0x0000e50b
    2d8c:	00448493          	addi	x9,x9,4

# Testcase cmp_rd_rs1 (Test rd = rs1 = x4)
  RVTEST_TESTDATA_LOAD_INT(x19, x4) # load rs1: x4 = 0x358a1d9d
    2d90:	0009a203          	lw	x4,0(x19)
    2d94:	00498993          	addi	x19,x19,4

00002d98 <I_addi_cg_cmp_rd_rs1_b4>:
I_addi_cg_cmp_rd_rs1_b4:
  addi x4, x4, 1564 # perform operation
    2d98:	61c20213          	addi	x4,x4,1564 # 61c <I_addi_cg_cp_rd_b8>
  # Check if x4 contains the expected result. x9 is the signature ptr, x8 is the link ptr, x7 is a temp reg.
  RVTEST_SIGUPD(x9, x8, x7, x4, I_addi_cg_cmp_rd_rs1_b4, I_addi_cg_cmp_rd_rs1_b4_str)
    2d9c:	0004a383          	lw	x7,0(x9)
    2da0:	00438863          	beq	x7,x4,2db0 <I_addi_cg_cmp_rd_rs1_b4+0x18>
    2da4:	7300046f          	jal	x8,34d4 <failedtest_x8_x7>
    2da8:	00002d98          	.word	0x00002d98
    2dac:	0000e53f          	.word	0x0000e53f
    2db0:	00448493          	addi	x9,x9,4

# Testcase cmp_rd_rs1 (Test rd = rs1 = x5)
  RVTEST_TESTDATA_LOAD_INT(x19, x5) # load rs1: x5 = 0x7741da92
    2db4:	0009a283          	lw	x5,0(x19)
    2db8:	00498993          	addi	x19,x19,4

00002dbc <I_addi_cg_cmp_rd_rs1_b5>:
I_addi_cg_cmp_rd_rs1_b5:
  addi x5, x5, -481 # perform operation
    2dbc:	e1f28293          	addi	x5,x5,-481
  # Check if x5 contains the expected result. x9 is the signature ptr, x8 is the link ptr, x7 is a temp reg.
  RVTEST_SIGUPD(x9, x8, x7, x5, I_addi_cg_cmp_rd_rs1_b5, I_addi_cg_cmp_rd_rs1_b5_str)
    2dc0:	0004a383          	lw	x7,0(x9)
    2dc4:	00538863          	beq	x7,x5,2dd4 <I_addi_cg_cmp_rd_rs1_b5+0x18>
    2dc8:	70c0046f          	jal	x8,34d4 <failedtest_x8_x7>
    2dcc:	00002dbc          	.word	0x00002dbc
    2dd0:	0000e573          	.word	0x0000e573
    2dd4:	00448493          	addi	x9,x9,4

# Testcase cmp_rd_rs1 (Test rd = rs1 = x6)
  RVTEST_TESTDATA_LOAD_INT(x19, x6) # load rs1: x6 = 0x3ed4d086
    2dd8:	0009a303          	lw	x6,0(x19)
    2ddc:	00498993          	addi	x19,x19,4

00002de0 <I_addi_cg_cmp_rd_rs1_b6>:
I_addi_cg_cmp_rd_rs1_b6:
  addi x6, x6, -1075 # perform operation
    2de0:	bcd30313          	addi	x6,x6,-1075
  # Check if x6 contains the expected result. x9 is the signature ptr, x8 is the link ptr, x7 is a temp reg.
  RVTEST_SIGUPD(x9, x8, x7, x6, I_addi_cg_cmp_rd_rs1_b6, I_addi_cg_cmp_rd_rs1_b6_str)
    2de4:	0004a383          	lw	x7,0(x9)
    2de8:	00638863          	beq	x7,x6,2df8 <I_addi_cg_cmp_rd_rs1_b6+0x18>
    2dec:	6e80046f          	jal	x8,34d4 <failedtest_x8_x7>
    2df0:	00002de0          	.word	0x00002de0
    2df4:	0000e5a7          	.word	0x0000e5a7
    2df8:	00448493          	addi	x9,x9,4

  mv x4, x7 # switch temp register to avoid conflict with test
    2dfc:	00038213          	addi	x4,x7,0
  mv x5, x8 # switch link pointer register to avoid conflict with test
    2e00:	00040293          	addi	x5,x8,0
# Testcase cmp_rd_rs1 (Test rd = rs1 = x7)
  RVTEST_TESTDATA_LOAD_INT(x19, x7) # load rs1: x7 = 0x4e18c5b3
    2e04:	0009a383          	lw	x7,0(x19)
    2e08:	00498993          	addi	x19,x19,4

00002e0c <I_addi_cg_cmp_rd_rs1_b7>:
I_addi_cg_cmp_rd_rs1_b7:
  addi x7, x7, -1111 # perform operation
    2e0c:	ba938393          	addi	x7,x7,-1111
  # Check if x7 contains the expected result. x9 is the signature ptr, x5 is the link ptr, x4 is a temp reg.
  RVTEST_SIGUPD(x9, x5, x4, x7, I_addi_cg_cmp_rd_rs1_b7, I_addi_cg_cmp_rd_rs1_b7_str)
    2e10:	0004a203          	lw	x4,0(x9)
    2e14:	00720863          	beq	x4,x7,2e24 <I_addi_cg_cmp_rd_rs1_b7+0x18>
    2e18:	6a4002ef          	jal	x5,34bc <failedtest_x5_x4>
    2e1c:	00002e0c          	.word	0x00002e0c
    2e20:	0000e5db          	.word	0x0000e5db
    2e24:	00448493          	addi	x9,x9,4

# Testcase cmp_rd_rs1 (Test rd = rs1 = x8)
  RVTEST_TESTDATA_LOAD_INT(x19, x8) # load rs1: x8 = 0x9773ad5b
    2e28:	0009a403          	lw	x8,0(x19)
    2e2c:	00498993          	addi	x19,x19,4

00002e30 <I_addi_cg_cmp_rd_rs1_b8>:
I_addi_cg_cmp_rd_rs1_b8:
  addi x8, x8, 1000 # perform operation
    2e30:	3e840413          	addi	x8,x8,1000
  # Check if x8 contains the expected result. x9 is the signature ptr, x5 is the link ptr, x4 is a temp reg.
  RVTEST_SIGUPD(x9, x5, x4, x8, I_addi_cg_cmp_rd_rs1_b8, I_addi_cg_cmp_rd_rs1_b8_str)
    2e34:	0004a203          	lw	x4,0(x9)
    2e38:	00820863          	beq	x4,x8,2e48 <I_addi_cg_cmp_rd_rs1_b8+0x18>
    2e3c:	680002ef          	jal	x5,34bc <failedtest_x5_x4>
    2e40:	00002e30          	.word	0x00002e30
    2e44:	0000e60f          	.word	0x0000e60f
    2e48:	00448493          	addi	x9,x9,4

  mv x11, x9 # switch signature pointer register to avoid conflict with test
    2e4c:	00048593          	addi	x11,x9,0
# Testcase cmp_rd_rs1 (Test rd = rs1 = x9)
  RVTEST_TESTDATA_LOAD_INT(x19, x9) # load rs1: x9 = 0xa0a1788e
    2e50:	0009a483          	lw	x9,0(x19)
    2e54:	00498993          	addi	x19,x19,4

00002e58 <I_addi_cg_cmp_rd_rs1_b9>:
I_addi_cg_cmp_rd_rs1_b9:
  addi x9, x9, 197 # perform operation
    2e58:	0c548493          	addi	x9,x9,197
  # Check if x9 contains the expected result. x11 is the signature ptr, x5 is the link ptr, x4 is a temp reg.
  RVTEST_SIGUPD(x11, x5, x4, x9, I_addi_cg_cmp_rd_rs1_b9, I_addi_cg_cmp_rd_rs1_b9_str)
    2e5c:	0005a203          	lw	x4,0(x11)
    2e60:	00920863          	beq	x4,x9,2e70 <I_addi_cg_cmp_rd_rs1_b9+0x18>
    2e64:	658002ef          	jal	x5,34bc <failedtest_x5_x4>
    2e68:	00002e58          	.word	0x00002e58
    2e6c:	0000e643          	.word	0x0000e643
    2e70:	00458593          	addi	x11,x11,4

# Testcase cmp_rd_rs1 (Test rd = rs1 = x10)
  RVTEST_TESTDATA_LOAD_INT(x19, x10) # load rs1: x10 = 0x55085dea
    2e74:	0009a503          	lw	x10,0(x19)
    2e78:	00498993          	addi	x19,x19,4

00002e7c <I_addi_cg_cmp_rd_rs1_b10>:
I_addi_cg_cmp_rd_rs1_b10:
  addi x10, x10, -327 # perform operation
    2e7c:	eb950513          	addi	x10,x10,-327
  # Check if x10 contains the expected result. x11 is the signature ptr, x5 is the link ptr, x4 is a temp reg.
  RVTEST_SIGUPD(x11, x5, x4, x10, I_addi_cg_cmp_rd_rs1_b10, I_addi_cg_cmp_rd_rs1_b10_str)
    2e80:	0005a203          	lw	x4,0(x11)
    2e84:	00a20863          	beq	x4,x10,2e94 <I_addi_cg_cmp_rd_rs1_b10+0x18>
    2e88:	634002ef          	jal	x5,34bc <failedtest_x5_x4>
    2e8c:	00002e7c          	.word	0x00002e7c
    2e90:	0000e677          	.word	0x0000e677
    2e94:	00458593          	addi	x11,x11,4

  mv x20, x11 # switch signature pointer register to avoid conflict with test
    2e98:	00058a13          	addi	x20,x11,0
# Testcase cmp_rd_rs1 (Test rd = rs1 = x11)
  RVTEST_TESTDATA_LOAD_INT(x19, x11) # load rs1: x11 = 0x5fdfa5e5
    2e9c:	0009a583          	lw	x11,0(x19)
    2ea0:	00498993          	addi	x19,x19,4

00002ea4 <I_addi_cg_cmp_rd_rs1_b11>:
I_addi_cg_cmp_rd_rs1_b11:
  addi x11, x11, 870 # perform operation
    2ea4:	36658593          	addi	x11,x11,870
  # Check if x11 contains the expected result. x20 is the signature ptr, x5 is the link ptr, x4 is a temp reg.
  RVTEST_SIGUPD(x20, x5, x4, x11, I_addi_cg_cmp_rd_rs1_b11, I_addi_cg_cmp_rd_rs1_b11_str)
    2ea8:	000a2203          	lw	x4,0(x20)
    2eac:	00b20863          	beq	x4,x11,2ebc <I_addi_cg_cmp_rd_rs1_b11+0x18>
    2eb0:	60c002ef          	jal	x5,34bc <failedtest_x5_x4>
    2eb4:	00002ea4          	.word	0x00002ea4
    2eb8:	0000e6ac          	.word	0x0000e6ac
    2ebc:	004a0a13          	addi	x20,x20,4

# Testcase cmp_rd_rs1 (Test rd = rs1 = x12)
  RVTEST_TESTDATA_LOAD_INT(x19, x12) # load rs1: x12 = 0x536c35e5
    2ec0:	0009a603          	lw	x12,0(x19)
    2ec4:	00498993          	addi	x19,x19,4

00002ec8 <I_addi_cg_cmp_rd_rs1_b12>:
I_addi_cg_cmp_rd_rs1_b12:
  addi x12, x12, -463 # perform operation
    2ec8:	e3160613          	addi	x12,x12,-463
  # Check if x12 contains the expected result. x20 is the signature ptr, x5 is the link ptr, x4 is a temp reg.
  RVTEST_SIGUPD(x20, x5, x4, x12, I_addi_cg_cmp_rd_rs1_b12, I_addi_cg_cmp_rd_rs1_b12_str)
    2ecc:	000a2203          	lw	x4,0(x20)
    2ed0:	00c20863          	beq	x4,x12,2ee0 <I_addi_cg_cmp_rd_rs1_b12+0x18>
    2ed4:	5e8002ef          	jal	x5,34bc <failedtest_x5_x4>
    2ed8:	00002ec8          	.word	0x00002ec8
    2edc:	0000e6e1          	.word	0x0000e6e1
    2ee0:	004a0a13          	addi	x20,x20,4

# Testcase cmp_rd_rs1 (Test rd = rs1 = x13)
  RVTEST_TESTDATA_LOAD_INT(x19, x13) # load rs1: x13 = 0x34f70acd
    2ee4:	0009a683          	lw	x13,0(x19)
    2ee8:	00498993          	addi	x19,x19,4

00002eec <I_addi_cg_cmp_rd_rs1_b13>:
I_addi_cg_cmp_rd_rs1_b13:
  addi x13, x13, 36 # perform operation
    2eec:	02468693          	addi	x13,x13,36
  # Check if x13 contains the expected result. x20 is the signature ptr, x5 is the link ptr, x4 is a temp reg.
  RVTEST_SIGUPD(x20, x5, x4, x13, I_addi_cg_cmp_rd_rs1_b13, I_addi_cg_cmp_rd_rs1_b13_str)
    2ef0:	000a2203          	lw	x4,0(x20)
    2ef4:	00d20863          	beq	x4,x13,2f04 <I_addi_cg_cmp_rd_rs1_b13+0x18>
    2ef8:	5c4002ef          	jal	x5,34bc <failedtest_x5_x4>
    2efc:	00002eec          	.word	0x00002eec
    2f00:	0000e716          	.word	0x0000e716
    2f04:	004a0a13          	addi	x20,x20,4

# Testcase cmp_rd_rs1 (Test rd = rs1 = x14)
  RVTEST_TESTDATA_LOAD_INT(x19, x14) # load rs1: x14 = 0x1fdcd2aa
    2f08:	0009a703          	lw	x14,0(x19)
    2f0c:	00498993          	addi	x19,x19,4

00002f10 <I_addi_cg_cmp_rd_rs1_b14>:
I_addi_cg_cmp_rd_rs1_b14:
  addi x14, x14, -1302 # perform operation
    2f10:	aea70713          	addi	x14,x14,-1302
  # Check if x14 contains the expected result. x20 is the signature ptr, x5 is the link ptr, x4 is a temp reg.
  RVTEST_SIGUPD(x20, x5, x4, x14, I_addi_cg_cmp_rd_rs1_b14, I_addi_cg_cmp_rd_rs1_b14_str)
    2f14:	000a2203          	lw	x4,0(x20)
    2f18:	00e20863          	beq	x4,x14,2f28 <I_addi_cg_cmp_rd_rs1_b14+0x18>
    2f1c:	5a0002ef          	jal	x5,34bc <failedtest_x5_x4>
    2f20:	00002f10          	.word	0x00002f10
    2f24:	0000e74b          	.word	0x0000e74b
    2f28:	004a0a13          	addi	x20,x20,4

# Testcase cmp_rd_rs1 (Test rd = rs1 = x15)
  RVTEST_TESTDATA_LOAD_INT(x19, x15) # load rs1: x15 = 0x30dd8368
    2f2c:	0009a783          	lw	x15,0(x19)
    2f30:	00498993          	addi	x19,x19,4

00002f34 <I_addi_cg_cmp_rd_rs1_b15>:
I_addi_cg_cmp_rd_rs1_b15:
  addi x15, x15, 310 # perform operation
    2f34:	13678793          	addi	x15,x15,310
  # Check if x15 contains the expected result. x20 is the signature ptr, x5 is the link ptr, x4 is a temp reg.
  RVTEST_SIGUPD(x20, x5, x4, x15, I_addi_cg_cmp_rd_rs1_b15, I_addi_cg_cmp_rd_rs1_b15_str)
    2f38:	000a2203          	lw	x4,0(x20)
    2f3c:	00f20863          	beq	x4,x15,2f4c <I_addi_cg_cmp_rd_rs1_b15+0x18>
    2f40:	57c002ef          	jal	x5,34bc <failedtest_x5_x4>
    2f44:	00002f34          	.word	0x00002f34
    2f48:	0000e780          	.word	0x0000e780
    2f4c:	004a0a13          	addi	x20,x20,4

# Testcase cmp_rd_rs1 (Test rd = rs1 = x16)
  RVTEST_TESTDATA_LOAD_INT(x19, x16) # load rs1: x16 = 0xf616403c
    2f50:	0009a803          	lw	x16,0(x19)
    2f54:	00498993          	addi	x19,x19,4

00002f58 <I_addi_cg_cmp_rd_rs1_b16>:
I_addi_cg_cmp_rd_rs1_b16:
  addi x16, x16, 698 # perform operation
    2f58:	2ba80813          	addi	x16,x16,698
  # Check if x16 contains the expected result. x20 is the signature ptr, x5 is the link ptr, x4 is a temp reg.
  RVTEST_SIGUPD(x20, x5, x4, x16, I_addi_cg_cmp_rd_rs1_b16, I_addi_cg_cmp_rd_rs1_b16_str)
    2f5c:	000a2203          	lw	x4,0(x20)
    2f60:	01020863          	beq	x4,x16,2f70 <I_addi_cg_cmp_rd_rs1_b16+0x18>
    2f64:	558002ef          	jal	x5,34bc <failedtest_x5_x4>
    2f68:	00002f58          	.word	0x00002f58
    2f6c:	0000e7b5          	.word	0x0000e7b5
    2f70:	004a0a13          	addi	x20,x20,4

# Testcase cmp_rd_rs1 (Test rd = rs1 = x17)
  RVTEST_TESTDATA_LOAD_INT(x19, x17) # load rs1: x17 = 0xc4457a0c
    2f74:	0009a883          	lw	x17,0(x19)
    2f78:	00498993          	addi	x19,x19,4

00002f7c <I_addi_cg_cmp_rd_rs1_b17>:
I_addi_cg_cmp_rd_rs1_b17:
  addi x17, x17, 151 # perform operation
    2f7c:	09788893          	addi	x17,x17,151
  # Check if x17 contains the expected result. x20 is the signature ptr, x5 is the link ptr, x4 is a temp reg.
  RVTEST_SIGUPD(x20, x5, x4, x17, I_addi_cg_cmp_rd_rs1_b17, I_addi_cg_cmp_rd_rs1_b17_str)
    2f80:	000a2203          	lw	x4,0(x20)
    2f84:	01120863          	beq	x4,x17,2f94 <I_addi_cg_cmp_rd_rs1_b17+0x18>
    2f88:	534002ef          	jal	x5,34bc <failedtest_x5_x4>
    2f8c:	00002f7c          	.word	0x00002f7c
    2f90:	0000e7ea          	.word	0x0000e7ea
    2f94:	004a0a13          	addi	x20,x20,4

# Testcase cmp_rd_rs1 (Test rd = rs1 = x18)
  RVTEST_TESTDATA_LOAD_INT(x19, x18) # load rs1: x18 = 0x46206b37
    2f98:	0009a903          	lw	x18,0(x19)
    2f9c:	00498993          	addi	x19,x19,4

00002fa0 <I_addi_cg_cmp_rd_rs1_b18>:
I_addi_cg_cmp_rd_rs1_b18:
  addi x18, x18, 231 # perform operation
    2fa0:	0e790913          	addi	x18,x18,231
  # Check if x18 contains the expected result. x20 is the signature ptr, x5 is the link ptr, x4 is a temp reg.
  RVTEST_SIGUPD(x20, x5, x4, x18, I_addi_cg_cmp_rd_rs1_b18, I_addi_cg_cmp_rd_rs1_b18_str)
    2fa4:	000a2203          	lw	x4,0(x20)
    2fa8:	01220863          	beq	x4,x18,2fb8 <I_addi_cg_cmp_rd_rs1_b18+0x18>
    2fac:	510002ef          	jal	x5,34bc <failedtest_x5_x4>
    2fb0:	00002fa0          	.word	0x00002fa0
    2fb4:	0000e81f          	.word	0x0000e81f
    2fb8:	004a0a13          	addi	x20,x20,4

  mv x10, x19 # switch data pointer register to avoid conflict with test
    2fbc:	00098513          	addi	x10,x19,0
# Testcase cmp_rd_rs1 (Test rd = rs1 = x19)
  RVTEST_TESTDATA_LOAD_INT(x10, x19) # load rs1: x19 = 0x6a08cb2b
    2fc0:	00052983          	lw	x19,0(x10)
    2fc4:	00450513          	addi	x10,x10,4

00002fc8 <I_addi_cg_cmp_rd_rs1_b19>:
I_addi_cg_cmp_rd_rs1_b19:
  addi x19, x19, 582 # perform operation
    2fc8:	24698993          	addi	x19,x19,582
  # Check if x19 contains the expected result. x20 is the signature ptr, x5 is the link ptr, x4 is a temp reg.
  RVTEST_SIGUPD(x20, x5, x4, x19, I_addi_cg_cmp_rd_rs1_b19, I_addi_cg_cmp_rd_rs1_b19_str)
    2fcc:	000a2203          	lw	x4,0(x20)
    2fd0:	01320863          	beq	x4,x19,2fe0 <I_addi_cg_cmp_rd_rs1_b19+0x18>
    2fd4:	4e8002ef          	jal	x5,34bc <failedtest_x5_x4>
    2fd8:	00002fc8          	.word	0x00002fc8
    2fdc:	0000e854          	.word	0x0000e854
    2fe0:	004a0a13          	addi	x20,x20,4

  mv x3, x20 # switch signature pointer register to avoid conflict with test
    2fe4:	000a0193          	addi	x3,x20,0
# Testcase cmp_rd_rs1 (Test rd = rs1 = x20)
  RVTEST_TESTDATA_LOAD_INT(x10, x20) # load rs1: x20 = 0x24dc6462
    2fe8:	00052a03          	lw	x20,0(x10)
    2fec:	00450513          	addi	x10,x10,4

00002ff0 <I_addi_cg_cmp_rd_rs1_b20>:
I_addi_cg_cmp_rd_rs1_b20:
  addi x20, x20, -422 # perform operation
    2ff0:	e5aa0a13          	addi	x20,x20,-422
  # Check if x20 contains the expected result. x3 is the signature ptr, x5 is the link ptr, x4 is a temp reg.
  RVTEST_SIGUPD(x3, x5, x4, x20, I_addi_cg_cmp_rd_rs1_b20, I_addi_cg_cmp_rd_rs1_b20_str)
    2ff4:	0001a203          	lw	x4,0(x3)
    2ff8:	01420863          	beq	x4,x20,3008 <I_addi_cg_cmp_rd_rs1_b20+0x18>
    2ffc:	4c0002ef          	jal	x5,34bc <failedtest_x5_x4>
    3000:	00002ff0          	.word	0x00002ff0
    3004:	0000e889          	.word	0x0000e889
    3008:	00418193          	addi	x3,x3,4

# Testcase cmp_rd_rs1 (Test rd = rs1 = x21)
  RVTEST_TESTDATA_LOAD_INT(x10, x21) # load rs1: x21 = 0x1bbab29f
    300c:	00052a83          	lw	x21,0(x10)
    3010:	00450513          	addi	x10,x10,4

00003014 <I_addi_cg_cmp_rd_rs1_b21>:
I_addi_cg_cmp_rd_rs1_b21:
  addi x21, x21, -796 # perform operation
    3014:	ce4a8a93          	addi	x21,x21,-796
  # Check if x21 contains the expected result. x3 is the signature ptr, x5 is the link ptr, x4 is a temp reg.
  RVTEST_SIGUPD(x3, x5, x4, x21, I_addi_cg_cmp_rd_rs1_b21, I_addi_cg_cmp_rd_rs1_b21_str)
    3018:	0001a203          	lw	x4,0(x3)
    301c:	01520863          	beq	x4,x21,302c <I_addi_cg_cmp_rd_rs1_b21+0x18>
    3020:	49c002ef          	jal	x5,34bc <failedtest_x5_x4>
    3024:	00003014          	.word	0x00003014
    3028:	0000e8be          	.word	0x0000e8be
    302c:	00418193          	addi	x3,x3,4

# Testcase cmp_rd_rs1 (Test rd = rs1 = x22)
  RVTEST_TESTDATA_LOAD_INT(x10, x22) # load rs1: x22 = 0x685e1e53
    3030:	00052b03          	lw	x22,0(x10)
    3034:	00450513          	addi	x10,x10,4

00003038 <I_addi_cg_cmp_rd_rs1_b22>:
I_addi_cg_cmp_rd_rs1_b22:
  addi x22, x22, -704 # perform operation
    3038:	d40b0b13          	addi	x22,x22,-704
  # Check if x22 contains the expected result. x3 is the signature ptr, x5 is the link ptr, x4 is a temp reg.
  RVTEST_SIGUPD(x3, x5, x4, x22, I_addi_cg_cmp_rd_rs1_b22, I_addi_cg_cmp_rd_rs1_b22_str)
    303c:	0001a203          	lw	x4,0(x3)
    3040:	01620863          	beq	x4,x22,3050 <I_addi_cg_cmp_rd_rs1_b22+0x18>
    3044:	478002ef          	jal	x5,34bc <failedtest_x5_x4>
    3048:	00003038          	.word	0x00003038
    304c:	0000e8f3          	.word	0x0000e8f3
    3050:	00418193          	addi	x3,x3,4

# Testcase cmp_rd_rs1 (Test rd = rs1 = x23)
  RVTEST_TESTDATA_LOAD_INT(x10, x23) # load rs1: x23 = 0x3200a692
    3054:	00052b83          	lw	x23,0(x10)
    3058:	00450513          	addi	x10,x10,4

0000305c <I_addi_cg_cmp_rd_rs1_b23>:
I_addi_cg_cmp_rd_rs1_b23:
  addi x23, x23, 2040 # perform operation
    305c:	7f8b8b93          	addi	x23,x23,2040
  # Check if x23 contains the expected result. x3 is the signature ptr, x5 is the link ptr, x4 is a temp reg.
  RVTEST_SIGUPD(x3, x5, x4, x23, I_addi_cg_cmp_rd_rs1_b23, I_addi_cg_cmp_rd_rs1_b23_str)
    3060:	0001a203          	lw	x4,0(x3)
    3064:	01720863          	beq	x4,x23,3074 <I_addi_cg_cmp_rd_rs1_b23+0x18>
    3068:	454002ef          	jal	x5,34bc <failedtest_x5_x4>
    306c:	0000305c          	.word	0x0000305c
    3070:	0000e928          	.word	0x0000e928
    3074:	00418193          	addi	x3,x3,4

# Testcase cmp_rd_rs1 (Test rd = rs1 = x24)
  RVTEST_TESTDATA_LOAD_INT(x10, x24) # load rs1: x24 = 0xef0f27d4
    3078:	00052c03          	lw	x24,0(x10)
    307c:	00450513          	addi	x10,x10,4

00003080 <I_addi_cg_cmp_rd_rs1_b24>:
I_addi_cg_cmp_rd_rs1_b24:
  addi x24, x24, -86 # perform operation
    3080:	faac0c13          	addi	x24,x24,-86
  # Check if x24 contains the expected result. x3 is the signature ptr, x5 is the link ptr, x4 is a temp reg.
  RVTEST_SIGUPD(x3, x5, x4, x24, I_addi_cg_cmp_rd_rs1_b24, I_addi_cg_cmp_rd_rs1_b24_str)
    3084:	0001a203          	lw	x4,0(x3)
    3088:	01820863          	beq	x4,x24,3098 <I_addi_cg_cmp_rd_rs1_b24+0x18>
    308c:	430002ef          	jal	x5,34bc <failedtest_x5_x4>
    3090:	00003080          	.word	0x00003080
    3094:	0000e95d          	.word	0x0000e95d
    3098:	00418193          	addi	x3,x3,4

# Testcase cmp_rd_rs1 (Test rd = rs1 = x25)
  RVTEST_TESTDATA_LOAD_INT(x10, x25) # load rs1: x25 = 0x9e967577
    309c:	00052c83          	lw	x25,0(x10)
    30a0:	00450513          	addi	x10,x10,4

000030a4 <I_addi_cg_cmp_rd_rs1_b25>:
I_addi_cg_cmp_rd_rs1_b25:
  addi x25, x25, -1611 # perform operation
    30a4:	9b5c8c93          	addi	x25,x25,-1611
  # Check if x25 contains the expected result. x3 is the signature ptr, x5 is the link ptr, x4 is a temp reg.
  RVTEST_SIGUPD(x3, x5, x4, x25, I_addi_cg_cmp_rd_rs1_b25, I_addi_cg_cmp_rd_rs1_b25_str)
    30a8:	0001a203          	lw	x4,0(x3)
    30ac:	01920863          	beq	x4,x25,30bc <I_addi_cg_cmp_rd_rs1_b25+0x18>
    30b0:	40c002ef          	jal	x5,34bc <failedtest_x5_x4>
    30b4:	000030a4          	.word	0x000030a4
    30b8:	0000e992          	.word	0x0000e992
    30bc:	00418193          	addi	x3,x3,4

# Testcase cmp_rd_rs1 (Test rd = rs1 = x26)
  RVTEST_TESTDATA_LOAD_INT(x10, x26) # load rs1: x26 = 0xafeea978
    30c0:	00052d03          	lw	x26,0(x10)
    30c4:	00450513          	addi	x10,x10,4

000030c8 <I_addi_cg_cmp_rd_rs1_b26>:
I_addi_cg_cmp_rd_rs1_b26:
  addi x26, x26, 1777 # perform operation
    30c8:	6f1d0d13          	addi	x26,x26,1777
  # Check if x26 contains the expected result. x3 is the signature ptr, x5 is the link ptr, x4 is a temp reg.
  RVTEST_SIGUPD(x3, x5, x4, x26, I_addi_cg_cmp_rd_rs1_b26, I_addi_cg_cmp_rd_rs1_b26_str)
    30cc:	0001a203          	lw	x4,0(x3)
    30d0:	01a20863          	beq	x4,x26,30e0 <I_addi_cg_cmp_rd_rs1_b26+0x18>
    30d4:	3e8002ef          	jal	x5,34bc <failedtest_x5_x4>
    30d8:	000030c8          	.word	0x000030c8
    30dc:	0000e9c7          	.word	0x0000e9c7
    30e0:	00418193          	addi	x3,x3,4

# Testcase cmp_rd_rs1 (Test rd = rs1 = x27)
  RVTEST_TESTDATA_LOAD_INT(x10, x27) # load rs1: x27 = 0xe02d511e
    30e4:	00052d83          	lw	x27,0(x10)
    30e8:	00450513          	addi	x10,x10,4

000030ec <I_addi_cg_cmp_rd_rs1_b27>:
I_addi_cg_cmp_rd_rs1_b27:
  addi x27, x27, -1710 # perform operation
    30ec:	952d8d93          	addi	x27,x27,-1710
  # Check if x27 contains the expected result. x3 is the signature ptr, x5 is the link ptr, x4 is a temp reg.
  RVTEST_SIGUPD(x3, x5, x4, x27, I_addi_cg_cmp_rd_rs1_b27, I_addi_cg_cmp_rd_rs1_b27_str)
    30f0:	0001a203          	lw	x4,0(x3)
    30f4:	01b20863          	beq	x4,x27,3104 <I_addi_cg_cmp_rd_rs1_b27+0x18>
    30f8:	3c4002ef          	jal	x5,34bc <failedtest_x5_x4>
    30fc:	000030ec          	.word	0x000030ec
    3100:	0000e9fc          	.word	0x0000e9fc
    3104:	00418193          	addi	x3,x3,4

# Testcase cmp_rd_rs1 (Test rd = rs1 = x28)
  RVTEST_TESTDATA_LOAD_INT(x10, x28) # load rs1: x28 = 0x6732dc0d
    3108:	00052e03          	lw	x28,0(x10)
    310c:	00450513          	addi	x10,x10,4

00003110 <I_addi_cg_cmp_rd_rs1_b28>:
I_addi_cg_cmp_rd_rs1_b28:
  addi x28, x28, -1192 # perform operation
    3110:	b58e0e13          	addi	x28,x28,-1192
  # Check if x28 contains the expected result. x3 is the signature ptr, x5 is the link ptr, x4 is a temp reg.
  RVTEST_SIGUPD(x3, x5, x4, x28, I_addi_cg_cmp_rd_rs1_b28, I_addi_cg_cmp_rd_rs1_b28_str)
    3114:	0001a203          	lw	x4,0(x3)
    3118:	01c20863          	beq	x4,x28,3128 <I_addi_cg_cmp_rd_rs1_b28+0x18>
    311c:	3a0002ef          	jal	x5,34bc <failedtest_x5_x4>
    3120:	00003110          	.word	0x00003110
    3124:	0000ea31          	.word	0x0000ea31
    3128:	00418193          	addi	x3,x3,4

# Testcase cmp_rd_rs1 (Test rd = rs1 = x29)
  RVTEST_TESTDATA_LOAD_INT(x10, x29) # load rs1: x29 = 0xa78a8eaa
    312c:	00052e83          	lw	x29,0(x10)
    3130:	00450513          	addi	x10,x10,4

00003134 <I_addi_cg_cmp_rd_rs1_b29>:
I_addi_cg_cmp_rd_rs1_b29:
  addi x29, x29, -351 # perform operation
    3134:	ea1e8e93          	addi	x29,x29,-351
  # Check if x29 contains the expected result. x3 is the signature ptr, x5 is the link ptr, x4 is a temp reg.
  RVTEST_SIGUPD(x3, x5, x4, x29, I_addi_cg_cmp_rd_rs1_b29, I_addi_cg_cmp_rd_rs1_b29_str)
    3138:	0001a203          	lw	x4,0(x3)
    313c:	01d20863          	beq	x4,x29,314c <I_addi_cg_cmp_rd_rs1_b29+0x18>
    3140:	37c002ef          	jal	x5,34bc <failedtest_x5_x4>
    3144:	00003134          	.word	0x00003134
    3148:	0000ea66          	.word	0x0000ea66
    314c:	00418193          	addi	x3,x3,4

# Testcase cmp_rd_rs1 (Test rd = rs1 = x30)
  RVTEST_TESTDATA_LOAD_INT(x10, x30) # load rs1: x30 = 0x0a68b9de
    3150:	00052f03          	lw	x30,0(x10)
    3154:	00450513          	addi	x10,x10,4

00003158 <I_addi_cg_cmp_rd_rs1_b30>:
I_addi_cg_cmp_rd_rs1_b30:
  addi x30, x30, -492 # perform operation
    3158:	e14f0f13          	addi	x30,x30,-492
  # Check if x30 contains the expected result. x3 is the signature ptr, x5 is the link ptr, x4 is a temp reg.
  RVTEST_SIGUPD(x3, x5, x4, x30, I_addi_cg_cmp_rd_rs1_b30, I_addi_cg_cmp_rd_rs1_b30_str)
    315c:	0001a203          	lw	x4,0(x3)
    3160:	01e20863          	beq	x4,x30,3170 <I_addi_cg_cmp_rd_rs1_b30+0x18>
    3164:	358002ef          	jal	x5,34bc <failedtest_x5_x4>
    3168:	00003158          	.word	0x00003158
    316c:	0000ea9b          	.word	0x0000ea9b
    3170:	00418193          	addi	x3,x3,4

# Testcase cmp_rd_rs1 (Test rd = rs1 = x31)
  RVTEST_TESTDATA_LOAD_INT(x10, x31) # load rs1: x31 = 0xd48933f3
    3174:	00052f83          	lw	x31,0(x10)
    3178:	00450513          	addi	x10,x10,4

0000317c <I_addi_cg_cmp_rd_rs1_b31>:
I_addi_cg_cmp_rd_rs1_b31:
  addi x31, x31, -816 # perform operation
    317c:	cd0f8f93          	addi	x31,x31,-816
  # Check if x31 contains the expected result. x3 is the signature ptr, x5 is the link ptr, x4 is a temp reg.
  RVTEST_SIGUPD(x3, x5, x4, x31, I_addi_cg_cmp_rd_rs1_b31, I_addi_cg_cmp_rd_rs1_b31_str)
    3180:	0001a203          	lw	x4,0(x3)
    3184:	01f20863          	beq	x4,x31,3194 <I_addi_cg_cmp_rd_rs1_b31+0x18>
    3188:	334002ef          	jal	x5,34bc <failedtest_x5_x4>
    318c:	0000317c          	.word	0x0000317c
    3190:	0000ead0          	.word	0x0000ead0
    3194:	00418193          	addi	x3,x3,4
/////////////////////////////////
// cp_imm_edges
/////////////////////////////////

# Testcase cp_imm_edges (imm = 0)
  RVTEST_TESTDATA_LOAD_INT(x10, x25) # load rs1: x25 = 0xa0480c3e
    3198:	00052c83          	lw	x25,0(x10)
    319c:	00450513          	addi	x10,x10,4

000031a0 <I_addi_cg_cp_imm_edges_0x0>:
I_addi_cg_cp_imm_edges_0x0:
  addi x18, x25, 0 # perform operation
    31a0:	000c8913          	addi	x18,x25,0
  # Check if x18 contains the expected result. x3 is the signature ptr, x5 is the link ptr, x4 is a temp reg.
  RVTEST_SIGUPD(x3, x5, x4, x18, I_addi_cg_cp_imm_edges_0x0, I_addi_cg_cp_imm_edges_0x0_str)
    31a4:	0001a203          	lw	x4,0(x3)
    31a8:	01220863          	beq	x4,x18,31b8 <I_addi_cg_cp_imm_edges_0x0+0x18>
    31ac:	310002ef          	jal	x5,34bc <failedtest_x5_x4>
    31b0:	000031a0          	.word	0x000031a0
    31b4:	0000eb05          	.word	0x0000eb05
    31b8:	00418193          	addi	x3,x3,4

# Testcase cp_imm_edges (imm = 1)
  RVTEST_TESTDATA_LOAD_INT(x10, x30) # load rs1: x30 = 0xfba68bf1
    31bc:	00052f03          	lw	x30,0(x10)
    31c0:	00450513          	addi	x10,x10,4

000031c4 <I_addi_cg_cp_imm_edges_0x1>:
I_addi_cg_cp_imm_edges_0x1:
  addi x8, x30, 1 # perform operation
    31c4:	001f0413          	addi	x8,x30,1
  # Check if x8 contains the expected result. x3 is the signature ptr, x5 is the link ptr, x4 is a temp reg.
  RVTEST_SIGUPD(x3, x5, x4, x8, I_addi_cg_cp_imm_edges_0x1, I_addi_cg_cp_imm_edges_0x1_str)
    31c8:	0001a203          	lw	x4,0(x3)
    31cc:	00820863          	beq	x4,x8,31dc <I_addi_cg_cp_imm_edges_0x1+0x18>
    31d0:	2ec002ef          	jal	x5,34bc <failedtest_x5_x4>
    31d4:	000031c4          	.word	0x000031c4
    31d8:	0000eb3c          	.word	0x0000eb3c
    31dc:	00418193          	addi	x3,x3,4

# Testcase cp_imm_edges (imm = 2)
  RVTEST_TESTDATA_LOAD_INT(x10, x16) # load rs1: x16 = 0xb16b2e5e
    31e0:	00052803          	lw	x16,0(x10)
    31e4:	00450513          	addi	x10,x10,4

000031e8 <I_addi_cg_cp_imm_edges_0x2>:
I_addi_cg_cp_imm_edges_0x2:
  addi x11, x16, 2 # perform operation
    31e8:	00280593          	addi	x11,x16,2
  # Check if x11 contains the expected result. x3 is the signature ptr, x5 is the link ptr, x4 is a temp reg.
  RVTEST_SIGUPD(x3, x5, x4, x11, I_addi_cg_cp_imm_edges_0x2, I_addi_cg_cp_imm_edges_0x2_str)
    31ec:	0001a203          	lw	x4,0(x3)
    31f0:	00b20863          	beq	x4,x11,3200 <I_addi_cg_cp_imm_edges_0x2+0x18>
    31f4:	2c8002ef          	jal	x5,34bc <failedtest_x5_x4>
    31f8:	000031e8          	.word	0x000031e8
    31fc:	0000eb73          	.word	0x0000eb73
    3200:	00418193          	addi	x3,x3,4

# Testcase cp_imm_edges (imm = 3)
  RVTEST_TESTDATA_LOAD_INT(x10, x9) # load rs1: x9 = 0x0271e71a
    3204:	00052483          	lw	x9,0(x10)
    3208:	00450513          	addi	x10,x10,4

0000320c <I_addi_cg_cp_imm_edges_0x3>:
I_addi_cg_cp_imm_edges_0x3:
  addi x30, x9, 3 # perform operation
    320c:	00348f13          	addi	x30,x9,3
  # Check if x30 contains the expected result. x3 is the signature ptr, x5 is the link ptr, x4 is a temp reg.
  RVTEST_SIGUPD(x3, x5, x4, x30, I_addi_cg_cp_imm_edges_0x3, I_addi_cg_cp_imm_edges_0x3_str)
    3210:	0001a203          	lw	x4,0(x3)
    3214:	01e20863          	beq	x4,x30,3224 <I_addi_cg_cp_imm_edges_0x3+0x18>
    3218:	2a4002ef          	jal	x5,34bc <failedtest_x5_x4>
    321c:	0000320c          	.word	0x0000320c
    3220:	0000ebaa          	.word	0x0000ebaa
    3224:	00418193          	addi	x3,x3,4

# Testcase cp_imm_edges (imm = 4)
  RVTEST_TESTDATA_LOAD_INT(x10, x23) # load rs1: x23 = 0x48650232
    3228:	00052b83          	lw	x23,0(x10)
    322c:	00450513          	addi	x10,x10,4

00003230 <I_addi_cg_cp_imm_edges_0x4>:
I_addi_cg_cp_imm_edges_0x4:
  addi x12, x23, 4 # perform operation
    3230:	004b8613          	addi	x12,x23,4
  # Check if x12 contains the expected result. x3 is the signature ptr, x5 is the link ptr, x4 is a temp reg.
  RVTEST_SIGUPD(x3, x5, x4, x12, I_addi_cg_cp_imm_edges_0x4, I_addi_cg_cp_imm_edges_0x4_str)
    3234:	0001a203          	lw	x4,0(x3)
    3238:	00c20863          	beq	x4,x12,3248 <I_addi_cg_cp_imm_edges_0x4+0x18>
    323c:	280002ef          	jal	x5,34bc <failedtest_x5_x4>
    3240:	00003230          	.word	0x00003230
    3244:	0000ebe1          	.word	0x0000ebe1
    3248:	00418193          	addi	x3,x3,4

# Testcase cp_imm_edges (imm = 8)
  RVTEST_TESTDATA_LOAD_INT(x10, x15) # load rs1: x15 = 0xdb25ed37
    324c:	00052783          	lw	x15,0(x10)
    3250:	00450513          	addi	x10,x10,4

00003254 <I_addi_cg_cp_imm_edges_0x8>:
I_addi_cg_cp_imm_edges_0x8:
  addi x29, x15, 8 # perform operation
    3254:	00878e93          	addi	x29,x15,8
  # Check if x29 contains the expected result. x3 is the signature ptr, x5 is the link ptr, x4 is a temp reg.
  RVTEST_SIGUPD(x3, x5, x4, x29, I_addi_cg_cp_imm_edges_0x8, I_addi_cg_cp_imm_edges_0x8_str)
    3258:	0001a203          	lw	x4,0(x3)
    325c:	01d20863          	beq	x4,x29,326c <I_addi_cg_cp_imm_edges_0x8+0x18>
    3260:	25c002ef          	jal	x5,34bc <failedtest_x5_x4>
    3264:	00003254          	.word	0x00003254
    3268:	0000ec18          	.word	0x0000ec18
    326c:	00418193          	addi	x3,x3,4

# Testcase cp_imm_edges (imm = 16)
  RVTEST_TESTDATA_LOAD_INT(x10, x14) # load rs1: x14 = 0x1123e1ad
    3270:	00052703          	lw	x14,0(x10)
    3274:	00450513          	addi	x10,x10,4

00003278 <I_addi_cg_cp_imm_edges_0x10>:
I_addi_cg_cp_imm_edges_0x10:
  addi x1, x14, 16 # perform operation
    3278:	01070093          	addi	x1,x14,16
  # Check if x1 contains the expected result. x3 is the signature ptr, x5 is the link ptr, x4 is a temp reg.
  RVTEST_SIGUPD(x3, x5, x4, x1, I_addi_cg_cp_imm_edges_0x10, I_addi_cg_cp_imm_edges_0x10_str)
    327c:	0001a203          	lw	x4,0(x3)
    3280:	00120863          	beq	x4,x1,3290 <I_addi_cg_cp_imm_edges_0x10+0x18>
    3284:	238002ef          	jal	x5,34bc <failedtest_x5_x4>
    3288:	00003278          	.word	0x00003278
    328c:	0000ec4f          	.word	0x0000ec4f
    3290:	00418193          	addi	x3,x3,4

# Testcase cp_imm_edges (imm = 32)
  RVTEST_TESTDATA_LOAD_INT(x10, x29) # load rs1: x29 = 0xe9968697
    3294:	00052e83          	lw	x29,0(x10)
    3298:	00450513          	addi	x10,x10,4

0000329c <I_addi_cg_cp_imm_edges_0x20>:
I_addi_cg_cp_imm_edges_0x20:
  addi x16, x29, 32 # perform operation
    329c:	020e8813          	addi	x16,x29,32
  # Check if x16 contains the expected result. x3 is the signature ptr, x5 is the link ptr, x4 is a temp reg.
  RVTEST_SIGUPD(x3, x5, x4, x16, I_addi_cg_cp_imm_edges_0x20, I_addi_cg_cp_imm_edges_0x20_str)
    32a0:	0001a203          	lw	x4,0(x3)
    32a4:	01020863          	beq	x4,x16,32b4 <I_addi_cg_cp_imm_edges_0x20+0x18>
    32a8:	214002ef          	jal	x5,34bc <failedtest_x5_x4>
    32ac:	0000329c          	.word	0x0000329c
    32b0:	0000ec87          	.word	0x0000ec87
    32b4:	00418193          	addi	x3,x3,4

# Testcase cp_imm_edges (imm = 64)
  RVTEST_TESTDATA_LOAD_INT(x10, x24) # load rs1: x24 = 0x567420f6
    32b8:	00052c03          	lw	x24,0(x10)
    32bc:	00450513          	addi	x10,x10,4

000032c0 <I_addi_cg_cp_imm_edges_0x40>:
I_addi_cg_cp_imm_edges_0x40:
  addi x17, x24, 64 # perform operation
    32c0:	040c0893          	addi	x17,x24,64
  # Check if x17 contains the expected result. x3 is the signature ptr, x5 is the link ptr, x4 is a temp reg.
  RVTEST_SIGUPD(x3, x5, x4, x17, I_addi_cg_cp_imm_edges_0x40, I_addi_cg_cp_imm_edges_0x40_str)
    32c4:	0001a203          	lw	x4,0(x3)
    32c8:	01120863          	beq	x4,x17,32d8 <I_addi_cg_cp_imm_edges_0x40+0x18>
    32cc:	1f0002ef          	jal	x5,34bc <failedtest_x5_x4>
    32d0:	000032c0          	.word	0x000032c0
    32d4:	0000ecbf          	.word	0x0000ecbf
    32d8:	00418193          	addi	x3,x3,4

# Testcase cp_imm_edges (imm = 128)
  RVTEST_TESTDATA_LOAD_INT(x10, x31) # load rs1: x31 = 0xab4a521f
    32dc:	00052f83          	lw	x31,0(x10)
    32e0:	00450513          	addi	x10,x10,4

000032e4 <I_addi_cg_cp_imm_edges_0x80>:
I_addi_cg_cp_imm_edges_0x80:
  addi x2, x31, 128 # perform operation
    32e4:	080f8113          	addi	x2,x31,128
  # Check if x2 contains the expected result. x3 is the signature ptr, x5 is the link ptr, x4 is a temp reg.
  RVTEST_SIGUPD(x3, x5, x4, x2, I_addi_cg_cp_imm_edges_0x80, I_addi_cg_cp_imm_edges_0x80_str)
    32e8:	0001a203          	lw	x4,0(x3)
    32ec:	00220863          	beq	x4,x2,32fc <I_addi_cg_cp_imm_edges_0x80+0x18>
    32f0:	1cc002ef          	jal	x5,34bc <failedtest_x5_x4>
    32f4:	000032e4          	.word	0x000032e4
    32f8:	0000ecf7          	.word	0x0000ecf7
    32fc:	00418193          	addi	x3,x3,4

# Testcase cp_imm_edges (imm = 256)
  RVTEST_TESTDATA_LOAD_INT(x10, x6) # load rs1: x6 = 0x1dbd152d
    3300:	00052303          	lw	x6,0(x10)
    3304:	00450513          	addi	x10,x10,4

00003308 <I_addi_cg_cp_imm_edges_0x100>:
I_addi_cg_cp_imm_edges_0x100:
  addi x25, x6, 256 # perform operation
    3308:	10030c93          	addi	x25,x6,256
  # Check if x25 contains the expected result. x3 is the signature ptr, x5 is the link ptr, x4 is a temp reg.
  RVTEST_SIGUPD(x3, x5, x4, x25, I_addi_cg_cp_imm_edges_0x100, I_addi_cg_cp_imm_edges_0x100_str)
    330c:	0001a203          	lw	x4,0(x3)
    3310:	01920863          	beq	x4,x25,3320 <I_addi_cg_cp_imm_edges_0x100+0x18>
    3314:	1a8002ef          	jal	x5,34bc <failedtest_x5_x4>
    3318:	00003308          	.word	0x00003308
    331c:	0000ed2f          	.word	0x0000ed2f
    3320:	00418193          	addi	x3,x3,4

# Testcase cp_imm_edges (imm = 512)
  RVTEST_TESTDATA_LOAD_INT(x10, x31) # load rs1: x31 = 0xef3eb1d9
    3324:	00052f83          	lw	x31,0(x10)
    3328:	00450513          	addi	x10,x10,4

0000332c <I_addi_cg_cp_imm_edges_0x200>:
I_addi_cg_cp_imm_edges_0x200:
  addi x2, x31, 512 # perform operation
    332c:	200f8113          	addi	x2,x31,512
  # Check if x2 contains the expected result. x3 is the signature ptr, x5 is the link ptr, x4 is a temp reg.
  RVTEST_SIGUPD(x3, x5, x4, x2, I_addi_cg_cp_imm_edges_0x200, I_addi_cg_cp_imm_edges_0x200_str)
    3330:	0001a203          	lw	x4,0(x3)
    3334:	00220863          	beq	x4,x2,3344 <I_addi_cg_cp_imm_edges_0x200+0x18>
    3338:	184002ef          	jal	x5,34bc <failedtest_x5_x4>
    333c:	0000332c          	.word	0x0000332c
    3340:	0000ed68          	.word	0x0000ed68
    3344:	00418193          	addi	x3,x3,4

# Testcase cp_imm_edges (imm = 1023)
  RVTEST_TESTDATA_LOAD_INT(x10, x7) # load rs1: x7 = 0xda220de6
    3348:	00052383          	lw	x7,0(x10)
    334c:	00450513          	addi	x10,x10,4

00003350 <I_addi_cg_cp_imm_edges_0x3ff>:
I_addi_cg_cp_imm_edges_0x3ff:
  addi x6, x7, 1023 # perform operation
    3350:	3ff38313          	addi	x6,x7,1023
  # Check if x6 contains the expected result. x3 is the signature ptr, x5 is the link ptr, x4 is a temp reg.
  RVTEST_SIGUPD(x3, x5, x4, x6, I_addi_cg_cp_imm_edges_0x3ff, I_addi_cg_cp_imm_edges_0x3ff_str)
    3354:	0001a203          	lw	x4,0(x3)
    3358:	00620863          	beq	x4,x6,3368 <I_addi_cg_cp_imm_edges_0x3ff+0x18>
    335c:	160002ef          	jal	x5,34bc <failedtest_x5_x4>
    3360:	00003350          	.word	0x00003350
    3364:	0000eda1          	.word	0x0000eda1
    3368:	00418193          	addi	x3,x3,4

# Testcase cp_imm_edges (imm = 1024)
  RVTEST_TESTDATA_LOAD_INT(x10, x12) # load rs1: x12 = 0x0107d35b
    336c:	00052603          	lw	x12,0(x10)
    3370:	00450513          	addi	x10,x10,4

00003374 <I_addi_cg_cp_imm_edges_0x400>:
I_addi_cg_cp_imm_edges_0x400:
  addi x8, x12, 1024 # perform operation
    3374:	40060413          	addi	x8,x12,1024
  # Check if x8 contains the expected result. x3 is the signature ptr, x5 is the link ptr, x4 is a temp reg.
  RVTEST_SIGUPD(x3, x5, x4, x8, I_addi_cg_cp_imm_edges_0x400, I_addi_cg_cp_imm_edges_0x400_str)
    3378:	0001a203          	lw	x4,0(x3)
    337c:	00820863          	beq	x4,x8,338c <I_addi_cg_cp_imm_edges_0x400+0x18>
    3380:	13c002ef          	jal	x5,34bc <failedtest_x5_x4>
    3384:	00003374          	.word	0x00003374
    3388:	0000edda          	.word	0x0000edda
    338c:	00418193          	addi	x3,x3,4

# Testcase cp_imm_edges (imm = 1795)
  RVTEST_TESTDATA_LOAD_INT(x10, x11) # load rs1: x11 = 0x08ee1c06
    3390:	00052583          	lw	x11,0(x10)
    3394:	00450513          	addi	x10,x10,4

00003398 <I_addi_cg_cp_imm_edges_0x703>:
I_addi_cg_cp_imm_edges_0x703:
  addi x9, x11, 1795 # perform operation
    3398:	70358493          	addi	x9,x11,1795
  # Check if x9 contains the expected result. x3 is the signature ptr, x5 is the link ptr, x4 is a temp reg.
  RVTEST_SIGUPD(x3, x5, x4, x9, I_addi_cg_cp_imm_edges_0x703, I_addi_cg_cp_imm_edges_0x703_str)
    339c:	0001a203          	lw	x4,0(x3)
    33a0:	00920863          	beq	x4,x9,33b0 <I_addi_cg_cp_imm_edges_0x703+0x18>
    33a4:	118002ef          	jal	x5,34bc <failedtest_x5_x4>
    33a8:	00003398          	.word	0x00003398
    33ac:	0000ee13          	.word	0x0000ee13
    33b0:	00418193          	addi	x3,x3,4

# Testcase cp_imm_edges (imm = 2047)
  RVTEST_TESTDATA_LOAD_INT(x10, x20) # load rs1: x20 = 0x684c7ca0
    33b4:	00052a03          	lw	x20,0(x10)
    33b8:	00450513          	addi	x10,x10,4

000033bc <I_addi_cg_cp_imm_edges_0x7ff>:
I_addi_cg_cp_imm_edges_0x7ff:
  addi x19, x20, 2047 # perform operation
    33bc:	7ffa0993          	addi	x19,x20,2047
  # Check if x19 contains the expected result. x3 is the signature ptr, x5 is the link ptr, x4 is a temp reg.
  RVTEST_SIGUPD(x3, x5, x4, x19, I_addi_cg_cp_imm_edges_0x7ff, I_addi_cg_cp_imm_edges_0x7ff_str)
    33c0:	0001a203          	lw	x4,0(x3)
    33c4:	01320863          	beq	x4,x19,33d4 <I_addi_cg_cp_imm_edges_0x7ff+0x18>
    33c8:	0f4002ef          	jal	x5,34bc <failedtest_x5_x4>
    33cc:	000033bc          	.word	0x000033bc
    33d0:	0000ee4c          	.word	0x0000ee4c
    33d4:	00418193          	addi	x3,x3,4

# Testcase cp_imm_edges (imm = -2048)
  RVTEST_TESTDATA_LOAD_INT(x10, x2) # load rs1: x2 = 0x439af727
    33d8:	00052103          	lw	x2,0(x10)
    33dc:	00450513          	addi	x10,x10,4

000033e0 <I_addi_cg_cp_imm_edges_m0x800>:
I_addi_cg_cp_imm_edges_m0x800:
  addi x6, x2, -2048 # perform operation
    33e0:	80010313          	addi	x6,x2,-2048
  # Check if x6 contains the expected result. x3 is the signature ptr, x5 is the link ptr, x4 is a temp reg.
  RVTEST_SIGUPD(x3, x5, x4, x6, I_addi_cg_cp_imm_edges_m0x800, I_addi_cg_cp_imm_edges_m0x800_str)
    33e4:	0001a203          	lw	x4,0(x3)
    33e8:	00620863          	beq	x4,x6,33f8 <I_addi_cg_cp_imm_edges_m0x800+0x18>
    33ec:	0d0002ef          	jal	x5,34bc <failedtest_x5_x4>
    33f0:	000033e0          	.word	0x000033e0
    33f4:	0000ee85          	.word	0x0000ee85
    33f8:	00418193          	addi	x3,x3,4

# Testcase cp_imm_edges (imm = -2047)
  RVTEST_TESTDATA_LOAD_INT(x10, x16) # load rs1: x16 = 0xefbc03ea
    33fc:	00052803          	lw	x16,0(x10)
    3400:	00450513          	addi	x10,x10,4

00003404 <I_addi_cg_cp_imm_edges_m0x7ff>:
I_addi_cg_cp_imm_edges_m0x7ff:
  addi x6, x16, -2047 # perform operation
    3404:	80180313          	addi	x6,x16,-2047
  # Check if x6 contains the expected result. x3 is the signature ptr, x5 is the link ptr, x4 is a temp reg.
  RVTEST_SIGUPD(x3, x5, x4, x6, I_addi_cg_cp_imm_edges_m0x7ff, I_addi_cg_cp_imm_edges_m0x7ff_str)
    3408:	0001a203          	lw	x4,0(x3)
    340c:	00620863          	beq	x4,x6,341c <I_addi_cg_cp_imm_edges_m0x7ff+0x18>
    3410:	0ac002ef          	jal	x5,34bc <failedtest_x5_x4>
    3414:	00003404          	.word	0x00003404
    3418:	0000eebf          	.word	0x0000eebf
    341c:	00418193          	addi	x3,x3,4

# Testcase cp_imm_edges (imm = -2)
  RVTEST_TESTDATA_LOAD_INT(x10, x17) # load rs1: x17 = 0xc837605e
    3420:	00052883          	lw	x17,0(x10)
    3424:	00450513          	addi	x10,x10,4

00003428 <I_addi_cg_cp_imm_edges_m0x2>:
I_addi_cg_cp_imm_edges_m0x2:
  addi x19, x17, -2 # perform operation
    3428:	ffe88993          	addi	x19,x17,-2
  # Check if x19 contains the expected result. x3 is the signature ptr, x5 is the link ptr, x4 is a temp reg.
  RVTEST_SIGUPD(x3, x5, x4, x19, I_addi_cg_cp_imm_edges_m0x2, I_addi_cg_cp_imm_edges_m0x2_str)
    342c:	0001a203          	lw	x4,0(x3)
    3430:	01320863          	beq	x4,x19,3440 <I_addi_cg_cp_imm_edges_m0x2+0x18>
    3434:	088002ef          	jal	x5,34bc <failedtest_x5_x4>
    3438:	00003428          	.word	0x00003428
    343c:	0000eef9          	.word	0x0000eef9
    3440:	00418193          	addi	x3,x3,4

# Testcase cp_imm_edges (imm = -1)
  RVTEST_TESTDATA_LOAD_INT(x10, x7) # load rs1: x7 = 0xb2e0f6ef
    3444:	00052383          	lw	x7,0(x10)
    3448:	00450513          	addi	x10,x10,4

0000344c <I_addi_cg_cp_imm_edges_m0x1>:
I_addi_cg_cp_imm_edges_m0x1:
  addi x18, x7, -1 # perform operation
    344c:	fff38913          	addi	x18,x7,-1
  # Check if x18 contains the expected result. x3 is the signature ptr, x5 is the link ptr, x4 is a temp reg.
  RVTEST_SIGUPD(x3, x5, x4, x18, I_addi_cg_cp_imm_edges_m0x1, I_addi_cg_cp_imm_edges_m0x1_str)
    3450:	0001a203          	lw	x4,0(x3)
    3454:	01220863          	beq	x4,x18,3464 <I_addi_cg_cp_imm_edges_m0x1+0x18>
    3458:	064002ef          	jal	x5,34bc <failedtest_x5_x4>
    345c:	0000344c          	.word	0x0000344c
    3460:	0000ef31          	.word	0x0000ef31
    3464:	00418193          	addi	x3,x3,4

  mv x2, x3 # restore signature pointer to default register for teardown
    3468:	00018113          	addi	x2,x3,0

0000346c <cleanup_epilogs>:
    346c:	00000013          	addi	x0,x0,0
    3470:	00000013          	addi	x0,x0,0
    3474:	00000013          	addi	x0,x0,0
    3478:	00000013          	addi	x0,x0,0
    347c:	00000013          	addi	x0,x0,0

// Instantiate trap handlers and other epilog code, call RVMODEL_HALT at end of test
RVTEST_CODE_END
    3480:	0000c517          	auipc	x10,0xc
    3484:	15450513          	addi	x10,x10,340 # f5d4 <successstr>
    3488:	00000013          	addi	x0,x0,0
    348c:	00000013          	addi	x0,x0,0
    3490:	00000013          	addi	x0,x0,0
    3494:	00000013          	addi	x0,x0,0
    3498:	00000013          	addi	x0,x0,0
    349c:	00000013          	addi	x0,x0,0
    34a0:	0001d097          	auipc	x1,0x1d
    34a4:	d64080e7          	jalr	x1,-668(x1) # 20204 <rvmodel_io_write_str>
    34a8:	0001d097          	auipc	x1,0x1d
    34ac:	d60080e7          	jalr	x1,-672(x1) # 20208 <rvmodel_halt_pass>

000034b0 <abort_test>:
    34b0:	bad0e737          	lui	x14,0xbad0e
    34b4:	ead70713          	addi	x14,x14,-339 # bad0dead <absimm+0x4b743ba4>
    34b8:	fb5ff06f          	jal	x0,346c <cleanup_epilogs>

000034bc <failedtest_x5_x4>:
    34bc:	0000c217          	auipc	x4,0xc
    34c0:	ab420213          	addi	x4,x4,-1356 # ef70 <begin_failure_scratch>
    34c4:	02522423          	sw	x5,40(x4) # 28 <MMODE_SIG+0x25>
    34c8:	00122423          	sw	x1,8(x4) # 8 <MMODE_SIG+0x5>
    34cc:	00022023          	sw	x0,0(x4) # 0 <rvtest_entry_point>
    34d0:	0b00006f          	jal	x0,3580 <failedtest_saveregs>

000034d4 <failedtest_x8_x7>:
    34d4:	0000c397          	auipc	x7,0xc
    34d8:	a9c38393          	addi	x7,x7,-1380 # ef70 <begin_failure_scratch>
    34dc:	0483a023          	sw	x8,64(x7)
    34e0:	0243a023          	sw	x4,32(x7)
    34e4:	0253a423          	sw	x5,40(x7)
    34e8:	0013a423          	sw	x1,8(x7)
    34ec:	0003a023          	sw	x0,0(x7)
    34f0:	00038213          	addi	x4,x7,0
    34f4:	00040293          	addi	x5,x8,0
    34f8:	0880006f          	jal	x0,3580 <failedtest_saveregs>

000034fc <failedtest_x14_x13>:
    34fc:	0000c697          	auipc	x13,0xc
    3500:	a7468693          	addi	x13,x13,-1420 # ef70 <begin_failure_scratch>
    3504:	06e6a823          	sw	x14,112(x13)
    3508:	0246a023          	sw	x4,32(x13)
    350c:	0256a423          	sw	x5,40(x13)
    3510:	0016a423          	sw	x1,8(x13)
    3514:	0006a023          	sw	x0,0(x13)
    3518:	00068213          	addi	x4,x13,0
    351c:	00070293          	addi	x5,x14,0
    3520:	0600006f          	jal	x0,3580 <failedtest_saveregs>

00003524 <failedtest_trap_x7_x9>:
    3524:	0000c497          	auipc	x9,0xc
    3528:	a4c48493          	addi	x9,x9,-1460 # ef70 <begin_failure_scratch>
    352c:	0674a423          	sw	x7,104(x9)
    3530:	0244a023          	sw	x4,32(x9)
    3534:	0254a423          	sw	x5,40(x9)
    3538:	0014a423          	sw	x1,8(x9)
    353c:	00300093          	addi	x1,x0,3
    3540:	0014a023          	sw	x1,0(x9)
    3544:	00048213          	addi	x4,x9,0
    3548:	00038293          	addi	x5,x7,0
    354c:	342020f3          	csrrs	x1,mcause,x0
    3550:	0000c497          	auipc	x9,0xc
    3554:	b9048493          	addi	x9,x9,-1136 # f0e0 <saved_mcause>
    3558:	0014a023          	sw	x1,0(x9)
    355c:	343020f3          	csrrs	x1,mtval,x0
    3560:	0000c497          	auipc	x9,0xc
    3564:	b8848493          	addi	x9,x9,-1144 # f0e8 <saved_mtval>
    3568:	0014a023          	sw	x1,0(x9)
    356c:	300020f3          	csrrs	x1,mstatus,x0
    3570:	0000c497          	auipc	x9,0xc
    3574:	b8048493          	addi	x9,x9,-1152 # f0f0 <saved_mstatus>
    3578:	0014a023          	sw	x1,0(x9)
    357c:	0040006f          	jal	x0,3580 <failedtest_saveregs>

00003580 <failedtest_saveregs>:
    3580:	00222823          	sw	x2,16(x4) # 10 <MMODE_SIG+0xd>
    3584:	00322c23          	sw	x3,24(x4) # 18 <MMODE_SIG+0x15>
    3588:	02622823          	sw	x6,48(x4) # 30 <MMODE_SIG+0x2d>
    358c:	02722c23          	sw	x7,56(x4) # 38 <MMODE_SIG+0x35>
    3590:	04822023          	sw	x8,64(x4) # 40 <rvtest_code_begin>
    3594:	04922423          	sw	x9,72(x4) # 48 <I_addi_cg_cp_rs1_b0>
    3598:	04a22823          	sw	x10,80(x4) # 50 <I_addi_cg_cp_rs1_b0+0x8>
    359c:	04b22c23          	sw	x11,88(x4) # 58 <I_addi_cg_cp_rs1_b0+0x10>
    35a0:	06c22023          	sw	x12,96(x4) # 60 <I_addi_cg_cp_rs1_b0+0x18>
    35a4:	06d22423          	sw	x13,104(x4) # 68 <I_addi_cg_cp_rs1_b0+0x20>
    35a8:	06e22823          	sw	x14,112(x4) # 70 <I_addi_cg_cp_rs1_b1+0x4>
    35ac:	06f22c23          	sw	x15,120(x4) # 78 <I_addi_cg_cp_rs1_b1+0xc>
    35b0:	09022023          	sw	x16,128(x4) # 80 <I_addi_cg_cp_rs1_b1+0x14>
    35b4:	09122423          	sw	x17,136(x4) # 88 <I_addi_cg_cp_rs1_b1+0x1c>
    35b8:	09222823          	sw	x18,144(x4) # 90 <I_addi_cg_cp_rs1_b1+0x24>
    35bc:	09322c23          	sw	x19,152(x4) # 98 <I_addi_cg_cp_rs1_b2+0x4>
    35c0:	0b422023          	sw	x20,160(x4) # a0 <I_addi_cg_cp_rs1_b2+0xc>
    35c4:	0b522423          	sw	x21,168(x4) # a8 <I_addi_cg_cp_rs1_b2+0x14>
    35c8:	0b622823          	sw	x22,176(x4) # b0 <I_addi_cg_cp_rs1_b2+0x1c>
    35cc:	0b722c23          	sw	x23,184(x4) # b8 <I_addi_cg_cp_rs1_b2+0x24>
    35d0:	0d822023          	sw	x24,192(x4) # c0 <I_addi_cg_cp_rs1_b3+0x4>
    35d4:	0d922423          	sw	x25,200(x4) # c8 <I_addi_cg_cp_rs1_b3+0xc>
    35d8:	0da22823          	sw	x26,208(x4) # d0 <I_addi_cg_cp_rs1_b3+0x14>
    35dc:	0db22c23          	sw	x27,216(x4) # d8 <I_addi_cg_cp_rs1_b3+0x1c>
    35e0:	0fc22023          	sw	x28,224(x4) # e0 <I_addi_cg_cp_rs1_b3+0x24>
    35e4:	0fd22423          	sw	x29,232(x4) # e8 <I_addi_cg_cp_rs1_b4>
    35e8:	0fe22823          	sw	x30,240(x4) # f0 <I_addi_cg_cp_rs1_b4+0x8>
    35ec:	0ff22c23          	sw	x31,248(x4) # f8 <I_addi_cg_cp_rs1_b4+0x10>

000035f0 <failedtest_saveresults>:
    35f0:	0000c497          	auipc	x9,0xc
    35f4:	9804a483          	lw	x9,-1664(x9) # ef70 <begin_failure_scratch>
    35f8:	00300513          	addi	x10,x0,3
    35fc:	06a48863          	beq	x9,x10,366c <failedtest_saveresults_trap>

00003600 <failedtest_saveresults_int>:
    3600:	ffa2d303          	lhu	x6,-6(x5)
    3604:	ff82d383          	lhu	x7,-8(x5)
    3608:	01031313          	slli	x6,x6,0x10
    360c:	00736333          	or	x6,x6,x7
    3610:	00f35393          	srli	x7,x6,0xf
    3614:	01f3f393          	andi	x7,x7,31
    3618:	01435413          	srli	x8,x6,0x14
    361c:	01f47413          	andi	x8,x8,31
    3620:	10822223          	sw	x8,260(x4) # 104 <I_addi_cg_cp_rs1_b4+0x1c>
    3624:	00341313          	slli	x6,x8,0x3
    3628:	00620333          	add	x6,x4,x6
    362c:	00032303          	lw	x6,0(x6)
    3630:	10622823          	sw	x6,272(x4) # 110 <I_addi_cg_cp_rs1_b5+0x4>
    3634:	ff62d303          	lhu	x6,-10(x5)
    3638:	ff42d383          	lhu	x7,-12(x5)
    363c:	01031313          	slli	x6,x6,0x10
    3640:	00736333          	or	x6,x6,x7
    3644:	41435393          	srai	x7,x6,0x14
    3648:	00f35313          	srli	x6,x6,0xf
    364c:	01f37313          	andi	x6,x6,31
    3650:	00331313          	slli	x6,x6,0x3
    3654:	00620333          	add	x6,x4,x6
    3658:	00032303          	lw	x6,0(x6)
    365c:	00730333          	add	x6,x6,x7
    3660:	00032303          	lw	x6,0(x6)
    3664:	10622c23          	sw	x6,280(x4) # 118 <I_addi_cg_cp_rs1_b5+0xc>
    3668:	3d80006f          	jal	x0,3a40 <failedtest_saveresults_common>

0000366c <failedtest_saveresults_trap>:
    366c:	0042a303          	lw	x6,4(x5)
    3670:	0000c817          	auipc	x16,0xc
    3674:	a5880813          	addi	x16,x16,-1448 # f0c8 <trap_diag_fail_str_ptr>
    3678:	00682023          	sw	x6,0(x16)
    367c:	0002a303          	lw	x6,0(x5)
    3680:	10622423          	sw	x6,264(x4) # 108 <I_addi_cg_cp_rs1_b4+0x20>
    3684:	0000c817          	auipc	x16,0xc
    3688:	a4480813          	addi	x16,x16,-1468 # f0c8 <trap_diag_fail_str_ptr>
    368c:	00082303          	lw	x6,0(x16)
    3690:	0000c397          	auipc	x7,0xc
    3694:	10c38393          	addi	x7,x7,268 # f79c <trap_sig_offset_mismatch>
    3698:	28730463          	beq	x6,x7,3920 <trap_diag_offset_mismatch>
    369c:	00000413          	addi	x8,x0,0
    36a0:	0000c817          	auipc	x16,0xc
    36a4:	a0080813          	addi	x16,x16,-1536 # f0a0 <trap_diag_subtype>
    36a8:	00882023          	sw	x8,0(x16)
    36ac:	0000c397          	auipc	x7,0xc
    36b0:	15438393          	addi	x7,x7,340 # f800 <sv_Mvect_str>
    36b4:	00731863          	bne	x6,x7,36c4 <failedtest_saveresults_trap+0x58>
    36b8:	00100413          	addi	x8,x0,1
    36bc:	00000493          	addi	x9,x0,0
    36c0:	2e00006f          	jal	x0,39a0 <trap_diag_field_identified>
    36c4:	0000c397          	auipc	x7,0xc
    36c8:	23e38393          	addi	x7,x7,574 # f902 <sv_Mcause_str>
    36cc:	00731863          	bne	x6,x7,36dc <failedtest_saveresults_trap+0x70>
    36d0:	00200413          	addi	x8,x0,2
    36d4:	00000493          	addi	x9,x0,0
    36d8:	2c80006f          	jal	x0,39a0 <trap_diag_field_identified>
    36dc:	0000c397          	auipc	x7,0xc
    36e0:	32138393          	addi	x7,x7,801 # f9fd <sv_Mepc_str>
    36e4:	00731863          	bne	x6,x7,36f4 <failedtest_saveresults_trap+0x88>
    36e8:	00300413          	addi	x8,x0,3
    36ec:	00000493          	addi	x9,x0,0
    36f0:	2b00006f          	jal	x0,39a0 <trap_diag_field_identified>
    36f4:	0000c397          	auipc	x7,0xc
    36f8:	3fc38393          	addi	x7,x7,1020 # faf0 <sv_Mtval_str>
    36fc:	00731863          	bne	x6,x7,370c <failedtest_saveresults_trap+0xa0>
    3700:	00400413          	addi	x8,x0,4
    3704:	00000493          	addi	x9,x0,0
    3708:	2980006f          	jal	x0,39a0 <trap_diag_field_identified>
    370c:	0000c397          	auipc	x7,0xc
    3710:	55738393          	addi	x7,x7,1367 # fc63 <sv_Mip_str>
    3714:	00731863          	bne	x6,x7,3724 <failedtest_saveresults_trap+0xb8>
    3718:	00500413          	addi	x8,x0,5
    371c:	00000493          	addi	x9,x0,0
    3720:	2800006f          	jal	x0,39a0 <trap_diag_field_identified>
    3724:	0000c397          	auipc	x7,0xc
    3728:	4c338393          	addi	x7,x7,1219 # fbe7 <sv_Mtval2_str>
    372c:	00731863          	bne	x6,x7,373c <failedtest_saveresults_trap+0xd0>
    3730:	00600413          	addi	x8,x0,6
    3734:	00000493          	addi	x9,x0,0
    3738:	2680006f          	jal	x0,39a0 <trap_diag_field_identified>
    373c:	0000c397          	auipc	x7,0xc
    3740:	4e938393          	addi	x7,x7,1257 # fc25 <sv_Mtinst_str>
    3744:	00731863          	bne	x6,x7,3754 <failedtest_saveresults_trap+0xe8>
    3748:	00700413          	addi	x8,x0,7
    374c:	00000493          	addi	x9,x0,0
    3750:	2500006f          	jal	x0,39a0 <trap_diag_field_identified>
    3754:	0000c397          	auipc	x7,0xc
    3758:	0ec38393          	addi	x7,x7,236 # f840 <sv_Svect_str>
    375c:	00731863          	bne	x6,x7,376c <failedtest_saveresults_trap+0x100>
    3760:	00100413          	addi	x8,x0,1
    3764:	00100493          	addi	x9,x0,1
    3768:	2380006f          	jal	x0,39a0 <trap_diag_field_identified>
    376c:	0000c397          	auipc	x7,0xc
    3770:	1d438393          	addi	x7,x7,468 # f940 <sv_Scause_str>
    3774:	00731863          	bne	x6,x7,3784 <failedtest_saveresults_trap+0x118>
    3778:	00200413          	addi	x8,x0,2
    377c:	00100493          	addi	x9,x0,1
    3780:	2200006f          	jal	x0,39a0 <trap_diag_field_identified>
    3784:	0000c397          	auipc	x7,0xc
    3788:	2b538393          	addi	x7,x7,693 # fa39 <sv_Sepc_str>
    378c:	00731863          	bne	x6,x7,379c <failedtest_saveresults_trap+0x130>
    3790:	00300413          	addi	x8,x0,3
    3794:	00100493          	addi	x9,x0,1
    3798:	2080006f          	jal	x0,39a0 <trap_diag_field_identified>
    379c:	0000c397          	auipc	x7,0xc
    37a0:	39138393          	addi	x7,x7,913 # fb2d <sv_Stval_str>
    37a4:	00731863          	bne	x6,x7,37b4 <failedtest_saveresults_trap+0x148>
    37a8:	00400413          	addi	x8,x0,4
    37ac:	00100493          	addi	x9,x0,1
    37b0:	1f00006f          	jal	x0,39a0 <trap_diag_field_identified>
    37b4:	0000c397          	auipc	x7,0xc
    37b8:	4ea38393          	addi	x7,x7,1258 # fc9e <sv_Sip_str>
    37bc:	00731863          	bne	x6,x7,37cc <failedtest_saveresults_trap+0x160>
    37c0:	00500413          	addi	x8,x0,5
    37c4:	00100493          	addi	x9,x0,1
    37c8:	1d80006f          	jal	x0,39a0 <trap_diag_field_identified>
    37cc:	0000c397          	auipc	x7,0xc
    37d0:	0b438393          	addi	x7,x7,180 # f880 <sv_Hvect_str>
    37d4:	00731863          	bne	x6,x7,37e4 <failedtest_saveresults_trap+0x178>
    37d8:	00100413          	addi	x8,x0,1
    37dc:	00200493          	addi	x9,x0,2
    37e0:	1c00006f          	jal	x0,39a0 <trap_diag_field_identified>
    37e4:	0000c397          	auipc	x7,0xc
    37e8:	19a38393          	addi	x7,x7,410 # f97e <sv_Hcause_str>
    37ec:	00731863          	bne	x6,x7,37fc <failedtest_saveresults_trap+0x190>
    37f0:	00200413          	addi	x8,x0,2
    37f4:	00200493          	addi	x9,x0,2
    37f8:	1a80006f          	jal	x0,39a0 <trap_diag_field_identified>
    37fc:	0000c397          	auipc	x7,0xc
    3800:	27938393          	addi	x7,x7,633 # fa75 <sv_Hepc_str>
    3804:	00731863          	bne	x6,x7,3814 <failedtest_saveresults_trap+0x1a8>
    3808:	00300413          	addi	x8,x0,3
    380c:	00200493          	addi	x9,x0,2
    3810:	1900006f          	jal	x0,39a0 <trap_diag_field_identified>
    3814:	0000c397          	auipc	x7,0xc
    3818:	35638393          	addi	x7,x7,854 # fb6a <sv_Htval_str>
    381c:	00731863          	bne	x6,x7,382c <failedtest_saveresults_trap+0x1c0>
    3820:	00400413          	addi	x8,x0,4
    3824:	00200493          	addi	x9,x0,2
    3828:	1780006f          	jal	x0,39a0 <trap_diag_field_identified>
    382c:	0000c397          	auipc	x7,0xc
    3830:	4ad38393          	addi	x7,x7,1197 # fcd9 <sv_Hip_str>
    3834:	00731863          	bne	x6,x7,3844 <failedtest_saveresults_trap+0x1d8>
    3838:	00500413          	addi	x8,x0,5
    383c:	00200493          	addi	x9,x0,2
    3840:	1600006f          	jal	x0,39a0 <trap_diag_field_identified>
    3844:	0000c397          	auipc	x7,0xc
    3848:	07d38393          	addi	x7,x7,125 # f8c1 <sv_Vvect_str>
    384c:	00731863          	bne	x6,x7,385c <failedtest_saveresults_trap+0x1f0>
    3850:	00100413          	addi	x8,x0,1
    3854:	00300493          	addi	x9,x0,3
    3858:	1480006f          	jal	x0,39a0 <trap_diag_field_identified>
    385c:	0000c397          	auipc	x7,0xc
    3860:	16138393          	addi	x7,x7,353 # f9bd <sv_Vcause_str>
    3864:	00731863          	bne	x6,x7,3874 <failedtest_saveresults_trap+0x208>
    3868:	00200413          	addi	x8,x0,2
    386c:	00300493          	addi	x9,x0,3
    3870:	1300006f          	jal	x0,39a0 <trap_diag_field_identified>
    3874:	0000c397          	auipc	x7,0xc
    3878:	23e38393          	addi	x7,x7,574 # fab2 <sv_Vepc_str>
    387c:	00731863          	bne	x6,x7,388c <failedtest_saveresults_trap+0x220>
    3880:	00300413          	addi	x8,x0,3
    3884:	00300493          	addi	x9,x0,3
    3888:	1180006f          	jal	x0,39a0 <trap_diag_field_identified>
    388c:	0000c397          	auipc	x7,0xc
    3890:	31c38393          	addi	x7,x7,796 # fba8 <sv_Vtval_str>
    3894:	00731863          	bne	x6,x7,38a4 <failedtest_saveresults_trap+0x238>
    3898:	00400413          	addi	x8,x0,4
    389c:	00300493          	addi	x9,x0,3
    38a0:	1000006f          	jal	x0,39a0 <trap_diag_field_identified>
    38a4:	0000c397          	auipc	x7,0xc
    38a8:	47138393          	addi	x7,x7,1137 # fd15 <sv_Vip_str>
    38ac:	00731863          	bne	x6,x7,38bc <failedtest_saveresults_trap+0x250>
    38b0:	00500413          	addi	x8,x0,5
    38b4:	00300493          	addi	x9,x0,3
    38b8:	0e80006f          	jal	x0,39a0 <trap_diag_field_identified>
    38bc:	0000c397          	auipc	x7,0xc
    38c0:	49638393          	addi	x7,x7,1174 # fd52 <Mclr_Mext_int_str>
    38c4:	00731863          	bne	x6,x7,38d4 <failedtest_saveresults_trap+0x268>
    38c8:	00800413          	addi	x8,x0,8
    38cc:	00000493          	addi	x9,x0,0
    38d0:	0d00006f          	jal	x0,39a0 <trap_diag_field_identified>
    38d4:	0000c397          	auipc	x7,0xc
    38d8:	4cd38393          	addi	x7,x7,1229 # fda1 <Mclr_Sext_int_str>
    38dc:	00731863          	bne	x6,x7,38ec <failedtest_saveresults_trap+0x280>
    38e0:	00800413          	addi	x8,x0,8
    38e4:	00000493          	addi	x9,x0,0
    38e8:	0b80006f          	jal	x0,39a0 <trap_diag_field_identified>
    38ec:	0000c397          	auipc	x7,0xc
    38f0:	5b038393          	addi	x7,x7,1456 # fe9c <Sclr_Sext_int_str>
    38f4:	00731863          	bne	x6,x7,3904 <failedtest_saveresults_trap+0x298>
    38f8:	00800413          	addi	x8,x0,8
    38fc:	00100493          	addi	x9,x0,1
    3900:	0a00006f          	jal	x0,39a0 <trap_diag_field_identified>
    3904:	0000c397          	auipc	x7,0xc
    3908:	69438393          	addi	x7,x7,1684 # ff98 <Hclr_Sext_int_str>
    390c:	00731863          	bne	x6,x7,391c <failedtest_saveresults_trap+0x2b0>
    3910:	00800413          	addi	x8,x0,8
    3914:	00200493          	addi	x9,x0,2
    3918:	0880006f          	jal	x0,39a0 <trap_diag_field_identified>
    391c:	1140006f          	jal	x0,3a30 <trap_diag_generic_report>

00003920 <trap_diag_offset_mismatch>:
    3920:	00900413          	addi	x8,x0,9
    3924:	0000b817          	auipc	x16,0xb
    3928:	77c80813          	addi	x16,x16,1916 # f0a0 <trap_diag_subtype>
    392c:	00882023          	sw	x8,0(x16)
    3930:	ffa2d303          	lhu	x6,-6(x5)
    3934:	ff82d383          	lhu	x7,-8(x5)
    3938:	01031313          	slli	x6,x6,0x10
    393c:	00736333          	or	x6,x6,x7
    3940:	01435413          	srli	x8,x6,0x14
    3944:	01f47413          	andi	x8,x8,31
    3948:	00341313          	slli	x6,x8,0x3
    394c:	00620333          	add	x6,x4,x6
    3950:	00032303          	lw	x6,0(x6)
    3954:	0000b817          	auipc	x16,0xb
    3958:	76480813          	addi	x16,x16,1892 # f0b8 <trap_diag_actual_offset>
    395c:	00682023          	sw	x6,0(x16)
    3960:	ff62d303          	lhu	x6,-10(x5)
    3964:	ff42d383          	lhu	x7,-12(x5)
    3968:	01031313          	slli	x6,x6,0x10
    396c:	00736333          	or	x6,x6,x7
    3970:	41435393          	srai	x7,x6,0x14
    3974:	00f35313          	srli	x6,x6,0xf
    3978:	01f37313          	andi	x6,x6,31
    397c:	00331313          	slli	x6,x6,0x3
    3980:	00620333          	add	x6,x4,x6
    3984:	00032303          	lw	x6,0(x6)
    3988:	00730333          	add	x6,x6,x7
    398c:	00032303          	lw	x6,0(x6)
    3990:	0000b817          	auipc	x16,0xb
    3994:	73080813          	addi	x16,x16,1840 # f0c0 <trap_diag_expected_offset>
    3998:	00682023          	sw	x6,0(x16)
    399c:	0a40006f          	jal	x0,3a40 <failedtest_saveresults_common>

000039a0 <trap_diag_field_identified>:
    39a0:	0000b817          	auipc	x16,0xb
    39a4:	70080813          	addi	x16,x16,1792 # f0a0 <trap_diag_subtype>
    39a8:	00882023          	sw	x8,0(x16)
    39ac:	0000b817          	auipc	x16,0xb
    39b0:	6f880813          	addi	x16,x16,1784 # f0a4 <trap_diag_mode>
    39b4:	00982023          	sw	x9,0(x16)
    39b8:	ffa2d303          	lhu	x6,-6(x5)
    39bc:	ff82d383          	lhu	x7,-8(x5)
    39c0:	01031313          	slli	x6,x6,0x10
    39c4:	00736333          	or	x6,x6,x7
    39c8:	01435713          	srli	x14,x6,0x14
    39cc:	01f77713          	andi	x14,x14,31
    39d0:	00371313          	slli	x6,x14,0x3
    39d4:	00620333          	add	x6,x4,x6
    39d8:	00032303          	lw	x6,0(x6)
    39dc:	10622823          	sw	x6,272(x4) # 110 <I_addi_cg_cp_rs1_b5+0x4>
    39e0:	0000b817          	auipc	x16,0xb
    39e4:	6c880813          	addi	x16,x16,1736 # f0a8 <trap_diag_actual_value>
    39e8:	00682023          	sw	x6,0(x16)
    39ec:	ff62d303          	lhu	x6,-10(x5)
    39f0:	ff42d383          	lhu	x7,-12(x5)
    39f4:	01031313          	slli	x6,x6,0x10
    39f8:	00736333          	or	x6,x6,x7
    39fc:	41435393          	srai	x7,x6,0x14
    3a00:	00f35313          	srli	x6,x6,0xf
    3a04:	01f37313          	andi	x6,x6,31
    3a08:	00331313          	slli	x6,x6,0x3
    3a0c:	00620333          	add	x6,x4,x6
    3a10:	00032303          	lw	x6,0(x6)
    3a14:	00730333          	add	x6,x6,x7
    3a18:	00032303          	lw	x6,0(x6)
    3a1c:	10622c23          	sw	x6,280(x4) # 118 <I_addi_cg_cp_rs1_b5+0xc>
    3a20:	0000b817          	auipc	x16,0xb
    3a24:	69080813          	addi	x16,x16,1680 # f0b0 <trap_diag_expected_value>
    3a28:	00682023          	sw	x6,0(x16)
    3a2c:	0140006f          	jal	x0,3a40 <failedtest_saveresults_common>

00003a30 <trap_diag_generic_report>:
    3a30:	0000b817          	auipc	x16,0xb
    3a34:	67080813          	addi	x16,x16,1648 # f0a0 <trap_diag_subtype>
    3a38:	00082023          	sw	x0,0(x16)
    3a3c:	0040006f          	jal	x0,3a40 <failedtest_saveresults_common>

00003a40 <failedtest_saveresults_common>:
    3a40:	0002a303          	lw	x6,0(x5)
    3a44:	10622423          	sw	x6,264(x4) # 108 <I_addi_cg_cp_rs1_b4+0x20>
    3a48:	00035383          	lhu	x7,0(x6)
    3a4c:	0033f413          	andi	x8,x7,3
    3a50:	00300493          	addi	x9,x0,3
    3a54:	00941863          	bne	x8,x9,3a64 <failedtest_saveresults_common+0x24>
    3a58:	00235403          	lhu	x8,2(x6)
    3a5c:	01041413          	slli	x8,x8,0x10
    3a60:	0083e3b3          	or	x7,x7,x8
    3a64:	10722023          	sw	x7,256(x4) # 100 <I_addi_cg_cp_rs1_b4+0x18>
    3a68:	0042a303          	lw	x6,4(x5)
    3a6c:	12622023          	sw	x6,288(x4) # 120 <I_addi_cg_cp_rs1_b5+0x14>

00003a70 <failedtest_report>:
    3a70:	00000013          	addi	x0,x0,0
    3a74:	00000013          	addi	x0,x0,0
    3a78:	00000013          	addi	x0,x0,0
    3a7c:	00000013          	addi	x0,x0,0
    3a80:	0000c517          	auipc	x10,0xc
    3a84:	b8b50513          	addi	x10,x10,-1141 # f60b <failstr>
    3a88:	00000013          	addi	x0,x0,0
    3a8c:	00000013          	addi	x0,x0,0
    3a90:	00000013          	addi	x0,x0,0
    3a94:	00000013          	addi	x0,x0,0
    3a98:	00000013          	addi	x0,x0,0
    3a9c:	00000013          	addi	x0,x0,0
    3aa0:	0001c097          	auipc	x1,0x1c
    3aa4:	764080e7          	jalr	x1,1892(x1) # 20204 <rvmodel_io_write_str>

00003aa8 <print_testnamestr>:
    3aa8:	00000013          	addi	x0,x0,0
    3aac:	00000013          	addi	x0,x0,0
    3ab0:	00000013          	addi	x0,x0,0
    3ab4:	00000013          	addi	x0,x0,0
    3ab8:	00000013          	addi	x0,x0,0
    3abc:	00000013          	addi	x0,x0,0
    3ac0:	0000c517          	auipc	x10,0xc
    3ac4:	bdf50513          	addi	x10,x10,-1057 # f69f <testnamestr>
    3ac8:	00000013          	addi	x0,x0,0
    3acc:	00000013          	addi	x0,x0,0
    3ad0:	00000013          	addi	x0,x0,0
    3ad4:	00000013          	addi	x0,x0,0
    3ad8:	00000013          	addi	x0,x0,0
    3adc:	00000013          	addi	x0,x0,0
    3ae0:	0001c097          	auipc	x1,0x1c
    3ae4:	724080e7          	jalr	x1,1828(x1) # 20204 <rvmodel_io_write_str>

00003ae8 <print_failure_test_name_str>:
    3ae8:	0000b517          	auipc	x10,0xb
    3aec:	5a852503          	lw	x10,1448(x10) # f090 <failure_string_ptr>
    3af0:	0001c097          	auipc	x1,0x1c
    3af4:	714080e7          	jalr	x1,1812(x1) # 20204 <rvmodel_io_write_str>

00003af8 <print_newline_str>:
    3af8:	00000013          	addi	x0,x0,0
    3afc:	00000013          	addi	x0,x0,0
    3b00:	0000c517          	auipc	x10,0xc
    3b04:	bb150513          	addi	x10,x10,-1103 # f6b1 <newlinestr>
    3b08:	00000013          	addi	x0,x0,0
    3b0c:	00000013          	addi	x0,x0,0
    3b10:	00000013          	addi	x0,x0,0
    3b14:	00000013          	addi	x0,x0,0
    3b18:	00000013          	addi	x0,x0,0
    3b1c:	00000013          	addi	x0,x0,0
    3b20:	0001c097          	auipc	x1,0x1c
    3b24:	6e4080e7          	jalr	x1,1764(x1) # 20204 <rvmodel_io_write_str>
    3b28:	0000b517          	auipc	x10,0xb
    3b2c:	44852503          	lw	x10,1096(x10) # ef70 <begin_failure_scratch>
    3b30:	00300593          	addi	x11,x0,3
    3b34:	3eb50c63          	beq	x10,x11,3f2c <failedtest_report_trap_detailed>
    3b38:	00000013          	addi	x0,x0,0
    3b3c:	00000013          	addi	x0,x0,0
    3b40:	0000c517          	auipc	x10,0xc
    3b44:	b7350513          	addi	x10,x10,-1165 # f6b3 <inststr>
    3b48:	00000013          	addi	x0,x0,0
    3b4c:	00000013          	addi	x0,x0,0
    3b50:	00000013          	addi	x0,x0,0
    3b54:	00000013          	addi	x0,x0,0
    3b58:	00000013          	addi	x0,x0,0
    3b5c:	00000013          	addi	x0,x0,0
    3b60:	0001c097          	auipc	x1,0x1c
    3b64:	6a4080e7          	jalr	x1,1700(x1) # 20204 <rvmodel_io_write_str>
    3b68:	0000b517          	auipc	x10,0xb
    3b6c:	50852503          	lw	x10,1288(x10) # f070 <failing_instruction>
    3b70:	02000593          	addi	x11,x0,32
    3b74:	00357613          	andi	x12,x10,3
    3b78:	00300693          	addi	x13,x0,3
    3b7c:	00d60463          	beq	x12,x13,3b84 <print_newline_str+0x8c>
    3b80:	01000593          	addi	x11,x0,16
    3b84:	2f4010ef          	jal	x1,4e78 <failedtest_hex_to_str>
    3b88:	00000013          	addi	x0,x0,0
    3b8c:	00000013          	addi	x0,x0,0
    3b90:	00000013          	addi	x0,x0,0
    3b94:	00000013          	addi	x0,x0,0
    3b98:	00000013          	addi	x0,x0,0
    3b9c:	00000013          	addi	x0,x0,0
    3ba0:	0000b517          	auipc	x10,0xb
    3ba4:	55850513          	addi	x10,x10,1368 # f0f8 <ascii_buffer>
    3ba8:	00000013          	addi	x0,x0,0
    3bac:	00000013          	addi	x0,x0,0
    3bb0:	00000013          	addi	x0,x0,0
    3bb4:	00000013          	addi	x0,x0,0
    3bb8:	00000013          	addi	x0,x0,0
    3bbc:	00000013          	addi	x0,x0,0
    3bc0:	0001c097          	auipc	x1,0x1c
    3bc4:	644080e7          	jalr	x1,1604(x1) # 20204 <rvmodel_io_write_str>
    3bc8:	00000013          	addi	x0,x0,0
    3bcc:	00000013          	addi	x0,x0,0
    3bd0:	00000013          	addi	x0,x0,0
    3bd4:	00000013          	addi	x0,x0,0
    3bd8:	00000013          	addi	x0,x0,0
    3bdc:	00000013          	addi	x0,x0,0
    3be0:	0000c517          	auipc	x10,0xc
    3be4:	ae750513          	addi	x10,x10,-1305 # f6c7 <addrstr>
    3be8:	00000013          	addi	x0,x0,0
    3bec:	00000013          	addi	x0,x0,0
    3bf0:	00000013          	addi	x0,x0,0
    3bf4:	00000013          	addi	x0,x0,0
    3bf8:	00000013          	addi	x0,x0,0
    3bfc:	00000013          	addi	x0,x0,0
    3c00:	0001c097          	auipc	x1,0x1c
    3c04:	604080e7          	jalr	x1,1540(x1) # 20204 <rvmodel_io_write_str>
    3c08:	0000b517          	auipc	x10,0xb
    3c0c:	47052503          	lw	x10,1136(x10) # f078 <failing_addr>
    3c10:	02000593          	addi	x11,x0,32
    3c14:	264010ef          	jal	x1,4e78 <failedtest_hex_to_str>
    3c18:	00000013          	addi	x0,x0,0
    3c1c:	00000013          	addi	x0,x0,0
    3c20:	0000b517          	auipc	x10,0xb
    3c24:	4d850513          	addi	x10,x10,1240 # f0f8 <ascii_buffer>
    3c28:	00000013          	addi	x0,x0,0
    3c2c:	00000013          	addi	x0,x0,0
    3c30:	00000013          	addi	x0,x0,0
    3c34:	00000013          	addi	x0,x0,0
    3c38:	00000013          	addi	x0,x0,0
    3c3c:	00000013          	addi	x0,x0,0
    3c40:	0001c097          	auipc	x1,0x1c
    3c44:	5c4080e7          	jalr	x1,1476(x1) # 20204 <rvmodel_io_write_str>
    3c48:	00000013          	addi	x0,x0,0
    3c4c:	00000013          	addi	x0,x0,0
    3c50:	00000013          	addi	x0,x0,0
    3c54:	00000013          	addi	x0,x0,0
    3c58:	00000013          	addi	x0,x0,0
    3c5c:	00000013          	addi	x0,x0,0
    3c60:	0000c517          	auipc	x10,0xc
    3c64:	4e450513          	addi	x10,x10,1252 # 10144 <regstr>
    3c68:	00000013          	addi	x0,x0,0
    3c6c:	00000013          	addi	x0,x0,0
    3c70:	00000013          	addi	x0,x0,0
    3c74:	00000013          	addi	x0,x0,0
    3c78:	00000013          	addi	x0,x0,0
    3c7c:	00000013          	addi	x0,x0,0
    3c80:	0001c097          	auipc	x1,0x1c
    3c84:	584080e7          	jalr	x1,1412(x1) # 20204 <rvmodel_io_write_str>
    3c88:	0000b517          	auipc	x10,0xb
    3c8c:	2e852503          	lw	x10,744(x10) # ef70 <begin_failure_scratch>
    3c90:	00050663          	beq	x10,x0,3c9c <print_newline_str+0x1a4>
    3c94:	00300593          	addi	x11,x0,3
    3c98:	04b51063          	bne	x10,x11,3cd8 <failedtest_report_not_intreg>
    3c9c:	07800593          	addi	x11,x0,120
    3ca0:	0000b617          	auipc	x12,0xb
    3ca4:	45860613          	addi	x12,x12,1112 # f0f8 <ascii_buffer>
    3ca8:	00000013          	addi	x0,x0,0
    3cac:	00000013          	addi	x0,x0,0
    3cb0:	00000013          	addi	x0,x0,0
    3cb4:	00000013          	addi	x0,x0,0
    3cb8:	00000013          	addi	x0,x0,0
    3cbc:	00000013          	addi	x0,x0,0
    3cc0:	00b60023          	sb	x11,0(x12)
    3cc4:	00160613          	addi	x12,x12,1
    3cc8:	0000b517          	auipc	x10,0xb
    3ccc:	3ac52503          	lw	x10,940(x10) # f074 <failing_reg>
    3cd0:	224010ef          	jal	x1,4ef4 <failedtest_dec_to_str>
    3cd4:	0e00006f          	jal	x0,3db4 <failedtest_report_print_regstr>

00003cd8 <failedtest_report_not_intreg>:
    3cd8:	00100593          	addi	x11,x0,1
    3cdc:	04b50863          	beq	x10,x11,3d2c <failedtest_report_fpreg>
    3ce0:	00400593          	addi	x11,x0,4
    3ce4:	08b50a63          	beq	x10,x11,3d78 <failedtest_report_vecreg>
    3ce8:	00000013          	addi	x0,x0,0
    3cec:	00000013          	addi	x0,x0,0
    3cf0:	00000013          	addi	x0,x0,0
    3cf4:	00000013          	addi	x0,x0,0
    3cf8:	00000013          	addi	x0,x0,0
    3cfc:	00000013          	addi	x0,x0,0
    3d00:	0000c517          	auipc	x10,0xc
    3d04:	4a450513          	addi	x10,x10,1188 # 101a4 <fflagsstr>
    3d08:	00000013          	addi	x0,x0,0
    3d0c:	00000013          	addi	x0,x0,0
    3d10:	00000013          	addi	x0,x0,0
    3d14:	00000013          	addi	x0,x0,0
    3d18:	00000013          	addi	x0,x0,0
    3d1c:	00000013          	addi	x0,x0,0
    3d20:	0001c097          	auipc	x1,0x1c
    3d24:	4e4080e7          	jalr	x1,1252(x1) # 20204 <rvmodel_io_write_str>
    3d28:	0c00006f          	jal	x0,3de8 <failedtest_report_after_reg>

00003d2c <failedtest_report_fpreg>:
    3d2c:	06600593          	addi	x11,x0,102
    3d30:	00000013          	addi	x0,x0,0
    3d34:	00000013          	addi	x0,x0,0
    3d38:	00000013          	addi	x0,x0,0
    3d3c:	00000013          	addi	x0,x0,0
    3d40:	0000b617          	auipc	x12,0xb
    3d44:	3b860613          	addi	x12,x12,952 # f0f8 <ascii_buffer>
    3d48:	00000013          	addi	x0,x0,0
    3d4c:	00000013          	addi	x0,x0,0
    3d50:	00000013          	addi	x0,x0,0
    3d54:	00000013          	addi	x0,x0,0
    3d58:	00000013          	addi	x0,x0,0
    3d5c:	00000013          	addi	x0,x0,0
    3d60:	00b60023          	sb	x11,0(x12)
    3d64:	00160613          	addi	x12,x12,1
    3d68:	0000b517          	auipc	x10,0xb
    3d6c:	30c52503          	lw	x10,780(x10) # f074 <failing_reg>
    3d70:	184010ef          	jal	x1,4ef4 <failedtest_dec_to_str>
    3d74:	0400006f          	jal	x0,3db4 <failedtest_report_print_regstr>

00003d78 <failedtest_report_vecreg>:
    3d78:	07600593          	addi	x11,x0,118
    3d7c:	00000013          	addi	x0,x0,0
    3d80:	0000b617          	auipc	x12,0xb
    3d84:	37860613          	addi	x12,x12,888 # f0f8 <ascii_buffer>
    3d88:	00000013          	addi	x0,x0,0
    3d8c:	00000013          	addi	x0,x0,0
    3d90:	00000013          	addi	x0,x0,0
    3d94:	00000013          	addi	x0,x0,0
    3d98:	00000013          	addi	x0,x0,0
    3d9c:	00000013          	addi	x0,x0,0
    3da0:	00b60023          	sb	x11,0(x12)
    3da4:	00160613          	addi	x12,x12,1
    3da8:	0000b517          	auipc	x10,0xb
    3dac:	2cc52503          	lw	x10,716(x10) # f074 <failing_reg>
    3db0:	144010ef          	jal	x1,4ef4 <failedtest_dec_to_str>

00003db4 <failedtest_report_print_regstr>:
    3db4:	00000013          	addi	x0,x0,0
    3db8:	00000013          	addi	x0,x0,0
    3dbc:	00000013          	addi	x0,x0,0
    3dc0:	0000b517          	auipc	x10,0xb
    3dc4:	33850513          	addi	x10,x10,824 # f0f8 <ascii_buffer>
    3dc8:	00000013          	addi	x0,x0,0
    3dcc:	00000013          	addi	x0,x0,0
    3dd0:	00000013          	addi	x0,x0,0
    3dd4:	00000013          	addi	x0,x0,0
    3dd8:	00000013          	addi	x0,x0,0
    3ddc:	00000013          	addi	x0,x0,0
    3de0:	0001c097          	auipc	x1,0x1c
    3de4:	424080e7          	jalr	x1,1060(x1) # 20204 <rvmodel_io_write_str>

00003de8 <failedtest_report_after_reg>:
    3de8:	00000013          	addi	x0,x0,0
    3dec:	00000013          	addi	x0,x0,0
    3df0:	00000013          	addi	x0,x0,0
    3df4:	00000013          	addi	x0,x0,0
    3df8:	00000013          	addi	x0,x0,0
    3dfc:	00000013          	addi	x0,x0,0
    3e00:	0000c517          	auipc	x10,0xc
    3e04:	35550513          	addi	x10,x10,853 # 10155 <badvalstr>
    3e08:	00000013          	addi	x0,x0,0
    3e0c:	00000013          	addi	x0,x0,0
    3e10:	00000013          	addi	x0,x0,0
    3e14:	00000013          	addi	x0,x0,0
    3e18:	00000013          	addi	x0,x0,0
    3e1c:	00000013          	addi	x0,x0,0
    3e20:	0001c097          	auipc	x1,0x1c
    3e24:	3e4080e7          	jalr	x1,996(x1) # 20204 <rvmodel_io_write_str>
    3e28:	0000b517          	auipc	x10,0xb
    3e2c:	14852503          	lw	x10,328(x10) # ef70 <begin_failure_scratch>
    3e30:	00100593          	addi	x11,x0,1
    3e34:	00b51c63          	bne	x10,x11,3e4c <failedtest_report_badval_not_fp>
    3e38:	0000b517          	auipc	x10,0xb
    3e3c:	24852503          	lw	x10,584(x10) # f080 <failing_value>
    3e40:	02000593          	addi	x11,x0,32
    3e44:	034010ef          	jal	x1,4e78 <failedtest_hex_to_str>
    3e48:	0140006f          	jal	x0,3e5c <failedtest_report_badval_done>

00003e4c <failedtest_report_badval_not_fp>:
    3e4c:	0000b517          	auipc	x10,0xb
    3e50:	23452503          	lw	x10,564(x10) # f080 <failing_value>
    3e54:	02000593          	addi	x11,x0,32
    3e58:	020010ef          	jal	x1,4e78 <failedtest_hex_to_str>

00003e5c <failedtest_report_badval_done>:
    3e5c:	00000013          	addi	x0,x0,0
    3e60:	0000b517          	auipc	x10,0xb
    3e64:	29850513          	addi	x10,x10,664 # f0f8 <ascii_buffer>
    3e68:	00000013          	addi	x0,x0,0
    3e6c:	00000013          	addi	x0,x0,0
    3e70:	00000013          	addi	x0,x0,0
    3e74:	00000013          	addi	x0,x0,0
    3e78:	00000013          	addi	x0,x0,0
    3e7c:	00000013          	addi	x0,x0,0
    3e80:	0001c097          	auipc	x1,0x1c
    3e84:	384080e7          	jalr	x1,900(x1) # 20204 <rvmodel_io_write_str>
    3e88:	00000013          	addi	x0,x0,0
    3e8c:	00000013          	addi	x0,x0,0
    3e90:	00000013          	addi	x0,x0,0
    3e94:	00000013          	addi	x0,x0,0
    3e98:	00000013          	addi	x0,x0,0
    3e9c:	00000013          	addi	x0,x0,0
    3ea0:	0000c517          	auipc	x10,0xc
    3ea4:	2cc50513          	addi	x10,x10,716 # 1016c <expvalstr>
    3ea8:	00000013          	addi	x0,x0,0
    3eac:	00000013          	addi	x0,x0,0
    3eb0:	00000013          	addi	x0,x0,0
    3eb4:	00000013          	addi	x0,x0,0
    3eb8:	00000013          	addi	x0,x0,0
    3ebc:	00000013          	addi	x0,x0,0
    3ec0:	0001c097          	auipc	x1,0x1c
    3ec4:	344080e7          	jalr	x1,836(x1) # 20204 <rvmodel_io_write_str>
    3ec8:	0000b517          	auipc	x10,0xb
    3ecc:	0a852503          	lw	x10,168(x10) # ef70 <begin_failure_scratch>
    3ed0:	00100593          	addi	x11,x0,1
    3ed4:	00b51c63          	bne	x10,x11,3eec <failedtest_report_expval_not_fp>
    3ed8:	0000b517          	auipc	x10,0xb
    3edc:	1b052503          	lw	x10,432(x10) # f088 <expected_value>
    3ee0:	02000593          	addi	x11,x0,32
    3ee4:	795000ef          	jal	x1,4e78 <failedtest_hex_to_str>
    3ee8:	0140006f          	jal	x0,3efc <failedtest_report_expval_done>

00003eec <failedtest_report_expval_not_fp>:
    3eec:	0000b517          	auipc	x10,0xb
    3ef0:	19c52503          	lw	x10,412(x10) # f088 <expected_value>
    3ef4:	02000593          	addi	x11,x0,32
    3ef8:	781000ef          	jal	x1,4e78 <failedtest_hex_to_str>

00003efc <failedtest_report_expval_done>:
    3efc:	00000013          	addi	x0,x0,0
    3f00:	0000b517          	auipc	x10,0xb
    3f04:	1f850513          	addi	x10,x10,504 # f0f8 <ascii_buffer>
    3f08:	00000013          	addi	x0,x0,0
    3f0c:	00000013          	addi	x0,x0,0
    3f10:	00000013          	addi	x0,x0,0
    3f14:	00000013          	addi	x0,x0,0
    3f18:	00000013          	addi	x0,x0,0
    3f1c:	00000013          	addi	x0,x0,0
    3f20:	0001c097          	auipc	x1,0x1c
    3f24:	2e4080e7          	jalr	x1,740(x1) # 20204 <rvmodel_io_write_str>
    3f28:	4fd0006f          	jal	x0,4c24 <failedtest_report_end>

00003f2c <failedtest_report_trap_detailed>:
    3f2c:	00000013          	addi	x0,x0,0
    3f30:	00000013          	addi	x0,x0,0
    3f34:	00000013          	addi	x0,x0,0
    3f38:	00000013          	addi	x0,x0,0
    3f3c:	00000013          	addi	x0,x0,0
    3f40:	0000c517          	auipc	x10,0xc
    3f44:	29050513          	addi	x10,x10,656 # 101d0 <trap_diag_header_str>
    3f48:	00000013          	addi	x0,x0,0
    3f4c:	00000013          	addi	x0,x0,0
    3f50:	00000013          	addi	x0,x0,0
    3f54:	00000013          	addi	x0,x0,0
    3f58:	00000013          	addi	x0,x0,0
    3f5c:	00000013          	addi	x0,x0,0
    3f60:	0001c097          	auipc	x1,0x1c
    3f64:	2a4080e7          	jalr	x1,676(x1) # 20204 <rvmodel_io_write_str>
    3f68:	00000013          	addi	x0,x0,0
    3f6c:	00000013          	addi	x0,x0,0
    3f70:	00000013          	addi	x0,x0,0
    3f74:	00000013          	addi	x0,x0,0
    3f78:	00000013          	addi	x0,x0,0
    3f7c:	00000013          	addi	x0,x0,0
    3f80:	0000c517          	auipc	x10,0xc
    3f84:	27c50513          	addi	x10,x10,636 # 101fc <trap_diag_origstr_label>
    3f88:	00000013          	addi	x0,x0,0
    3f8c:	00000013          	addi	x0,x0,0
    3f90:	00000013          	addi	x0,x0,0
    3f94:	00000013          	addi	x0,x0,0
    3f98:	00000013          	addi	x0,x0,0
    3f9c:	00000013          	addi	x0,x0,0
    3fa0:	0001c097          	auipc	x1,0x1c
    3fa4:	264080e7          	jalr	x1,612(x1) # 20204 <rvmodel_io_write_str>
    3fa8:	0000b817          	auipc	x16,0xb
    3fac:	12080813          	addi	x16,x16,288 # f0c8 <trap_diag_fail_str_ptr>
    3fb0:	00082503          	lw	x10,0(x16)
    3fb4:	0001c097          	auipc	x1,0x1c
    3fb8:	250080e7          	jalr	x1,592(x1) # 20204 <rvmodel_io_write_str>
    3fbc:	00000013          	addi	x0,x0,0
    3fc0:	0000b517          	auipc	x10,0xb
    3fc4:	6f150513          	addi	x10,x10,1777 # f6b1 <newlinestr>
    3fc8:	00000013          	addi	x0,x0,0
    3fcc:	00000013          	addi	x0,x0,0
    3fd0:	00000013          	addi	x0,x0,0
    3fd4:	00000013          	addi	x0,x0,0
    3fd8:	00000013          	addi	x0,x0,0
    3fdc:	00000013          	addi	x0,x0,0
    3fe0:	0001c097          	auipc	x1,0x1c
    3fe4:	224080e7          	jalr	x1,548(x1) # 20204 <rvmodel_io_write_str>
    3fe8:	0000b417          	auipc	x8,0xb
    3fec:	0b842403          	lw	x8,184(x8) # f0a0 <trap_diag_subtype>
    3ff0:	00900493          	addi	x9,x0,9
    3ff4:	00940663          	beq	x8,x9,4000 <trap_report_offset_mismatch>
    3ff8:	2a040ce3          	beq	x8,x0,4ab0 <trap_report_generic>
    3ffc:	3780006f          	jal	x0,4374 <trap_report_field_mismatch>

00004000 <trap_report_offset_mismatch>:
    4000:	0000c517          	auipc	x10,0xc
    4004:	20c50513          	addi	x10,x10,524 # 1020c <trap_diag_count_mismatch_str>
    4008:	00000013          	addi	x0,x0,0
    400c:	00000013          	addi	x0,x0,0
    4010:	00000013          	addi	x0,x0,0
    4014:	00000013          	addi	x0,x0,0
    4018:	00000013          	addi	x0,x0,0
    401c:	00000013          	addi	x0,x0,0
    4020:	0001c097          	auipc	x1,0x1c
    4024:	1e4080e7          	jalr	x1,484(x1) # 20204 <rvmodel_io_write_str>
    4028:	00000013          	addi	x0,x0,0
    402c:	00000013          	addi	x0,x0,0
    4030:	00000013          	addi	x0,x0,0
    4034:	00000013          	addi	x0,x0,0
    4038:	00000013          	addi	x0,x0,0
    403c:	00000013          	addi	x0,x0,0
    4040:	0000c517          	auipc	x10,0xc
    4044:	22d50513          	addi	x10,x10,557 # 1026d <trap_diag_expected_offset_str>
    4048:	00000013          	addi	x0,x0,0
    404c:	00000013          	addi	x0,x0,0
    4050:	00000013          	addi	x0,x0,0
    4054:	00000013          	addi	x0,x0,0
    4058:	00000013          	addi	x0,x0,0
    405c:	00000013          	addi	x0,x0,0
    4060:	0001c097          	auipc	x1,0x1c
    4064:	1a4080e7          	jalr	x1,420(x1) # 20204 <rvmodel_io_write_str>
    4068:	0000b517          	auipc	x10,0xb
    406c:	05852503          	lw	x10,88(x10) # f0c0 <trap_diag_expected_offset>
    4070:	02000593          	addi	x11,x0,32
    4074:	605000ef          	jal	x1,4e78 <failedtest_hex_to_str>
    4078:	00000013          	addi	x0,x0,0
    407c:	00000013          	addi	x0,x0,0
    4080:	0000b517          	auipc	x10,0xb
    4084:	07850513          	addi	x10,x10,120 # f0f8 <ascii_buffer>
    4088:	00000013          	addi	x0,x0,0
    408c:	00000013          	addi	x0,x0,0
    4090:	00000013          	addi	x0,x0,0
    4094:	00000013          	addi	x0,x0,0
    4098:	00000013          	addi	x0,x0,0
    409c:	00000013          	addi	x0,x0,0
    40a0:	0001c097          	auipc	x1,0x1c
    40a4:	164080e7          	jalr	x1,356(x1) # 20204 <rvmodel_io_write_str>
    40a8:	00000013          	addi	x0,x0,0
    40ac:	00000013          	addi	x0,x0,0
    40b0:	00000013          	addi	x0,x0,0
    40b4:	00000013          	addi	x0,x0,0
    40b8:	00000013          	addi	x0,x0,0
    40bc:	00000013          	addi	x0,x0,0
    40c0:	0000c517          	auipc	x10,0xc
    40c4:	1d450513          	addi	x10,x10,468 # 10294 <trap_diag_actual_offset_str>
    40c8:	00000013          	addi	x0,x0,0
    40cc:	00000013          	addi	x0,x0,0
    40d0:	00000013          	addi	x0,x0,0
    40d4:	00000013          	addi	x0,x0,0
    40d8:	00000013          	addi	x0,x0,0
    40dc:	00000013          	addi	x0,x0,0
    40e0:	0001c097          	auipc	x1,0x1c
    40e4:	124080e7          	jalr	x1,292(x1) # 20204 <rvmodel_io_write_str>
    40e8:	0000b517          	auipc	x10,0xb
    40ec:	fd052503          	lw	x10,-48(x10) # f0b8 <trap_diag_actual_offset>
    40f0:	02000593          	addi	x11,x0,32
    40f4:	585000ef          	jal	x1,4e78 <failedtest_hex_to_str>
    40f8:	00000013          	addi	x0,x0,0
    40fc:	00000013          	addi	x0,x0,0
    4100:	0000b517          	auipc	x10,0xb
    4104:	ff850513          	addi	x10,x10,-8 # f0f8 <ascii_buffer>
    4108:	00000013          	addi	x0,x0,0
    410c:	00000013          	addi	x0,x0,0
    4110:	00000013          	addi	x0,x0,0
    4114:	00000013          	addi	x0,x0,0
    4118:	00000013          	addi	x0,x0,0
    411c:	00000013          	addi	x0,x0,0
    4120:	0001c097          	auipc	x1,0x1c
    4124:	0e4080e7          	jalr	x1,228(x1) # 20204 <rvmodel_io_write_str>
    4128:	0000b317          	auipc	x6,0xb
    412c:	f9032303          	lw	x6,-112(x6) # f0b8 <trap_diag_actual_offset>
    4130:	0000b397          	auipc	x7,0xb
    4134:	f903a383          	lw	x7,-112(x7) # f0c0 <trap_diag_expected_offset>
    4138:	10734e63          	blt	x6,x7,4254 <trap_report_missing_traps>

0000413c <trap_report_extra_traps>:
    413c:	00000013          	addi	x0,x0,0
    4140:	0000c517          	auipc	x10,0xc
    4144:	17b50513          	addi	x10,x10,379 # 102bb <trap_diag_extra_traps_str>
    4148:	00000013          	addi	x0,x0,0
    414c:	00000013          	addi	x0,x0,0
    4150:	00000013          	addi	x0,x0,0
    4154:	00000013          	addi	x0,x0,0
    4158:	00000013          	addi	x0,x0,0
    415c:	00000013          	addi	x0,x0,0
    4160:	0001c097          	auipc	x1,0x1c
    4164:	0a4080e7          	jalr	x1,164(x1) # 20204 <rvmodel_io_write_str>
    4168:	0000b317          	auipc	x6,0xb
    416c:	f5032303          	lw	x6,-176(x6) # f0b8 <trap_diag_actual_offset>
    4170:	0000b397          	auipc	x7,0xb
    4174:	f503a383          	lw	x7,-176(x7) # f0c0 <trap_diag_expected_offset>
    4178:	40730333          	sub	x6,x6,x7
    417c:	00235313          	srli	x6,x6,0x2
    4180:	0000c517          	auipc	x10,0xc
    4184:	1c050513          	addi	x10,x10,448 # 10340 <trap_diag_extra_bytes_str>
    4188:	00000013          	addi	x0,x0,0
    418c:	00000013          	addi	x0,x0,0
    4190:	00000013          	addi	x0,x0,0
    4194:	00000013          	addi	x0,x0,0
    4198:	00000013          	addi	x0,x0,0
    419c:	00000013          	addi	x0,x0,0
    41a0:	0001c097          	auipc	x1,0x1c
    41a4:	064080e7          	jalr	x1,100(x1) # 20204 <rvmodel_io_write_str>
    41a8:	0000b317          	auipc	x6,0xb
    41ac:	f1032303          	lw	x6,-240(x6) # f0b8 <trap_diag_actual_offset>
    41b0:	0000b397          	auipc	x7,0xb
    41b4:	f103a383          	lw	x7,-240(x7) # f0c0 <trap_diag_expected_offset>
    41b8:	40730533          	sub	x10,x6,x7
    41bc:	02000593          	addi	x11,x0,32
    41c0:	4b9000ef          	jal	x1,4e78 <failedtest_hex_to_str>
    41c4:	00000013          	addi	x0,x0,0
    41c8:	00000013          	addi	x0,x0,0
    41cc:	00000013          	addi	x0,x0,0
    41d0:	00000013          	addi	x0,x0,0
    41d4:	00000013          	addi	x0,x0,0
    41d8:	00000013          	addi	x0,x0,0
    41dc:	00000013          	addi	x0,x0,0
    41e0:	0000b517          	auipc	x10,0xb
    41e4:	f1850513          	addi	x10,x10,-232 # f0f8 <ascii_buffer>
    41e8:	00000013          	addi	x0,x0,0
    41ec:	00000013          	addi	x0,x0,0
    41f0:	00000013          	addi	x0,x0,0
    41f4:	00000013          	addi	x0,x0,0
    41f8:	00000013          	addi	x0,x0,0
    41fc:	00000013          	addi	x0,x0,0
    4200:	0001c097          	auipc	x1,0x1c
    4204:	004080e7          	jalr	x1,4(x1) # 20204 <rvmodel_io_write_str>
    4208:	00000013          	addi	x0,x0,0
    420c:	00000013          	addi	x0,x0,0
    4210:	00000013          	addi	x0,x0,0
    4214:	00000013          	addi	x0,x0,0
    4218:	00000013          	addi	x0,x0,0
    421c:	00000013          	addi	x0,x0,0
    4220:	0000c517          	auipc	x10,0xc
    4224:	14b50513          	addi	x10,x10,331 # 1036b <trap_diag_extra_hint_str>
    4228:	00000013          	addi	x0,x0,0
    422c:	00000013          	addi	x0,x0,0
    4230:	00000013          	addi	x0,x0,0
    4234:	00000013          	addi	x0,x0,0
    4238:	00000013          	addi	x0,x0,0
    423c:	00000013          	addi	x0,x0,0
    4240:	0001c097          	auipc	x1,0x1c
    4244:	fc4080e7          	jalr	x1,-60(x1) # 20204 <rvmodel_io_write_str>
    4248:	00001097          	auipc	x1,0x1
    424c:	a28080e7          	jalr	x1,-1496(x1) # 4c70 <failedtest_print_csr_context>
    4250:	1d50006f          	jal	x0,4c24 <failedtest_report_end>

00004254 <trap_report_missing_traps>:
    4254:	00000013          	addi	x0,x0,0
    4258:	00000013          	addi	x0,x0,0
    425c:	00000013          	addi	x0,x0,0
    4260:	0000c517          	auipc	x10,0xc
    4264:	09550513          	addi	x10,x10,149 # 102f5 <trap_diag_missing_traps_str>
    4268:	00000013          	addi	x0,x0,0
    426c:	00000013          	addi	x0,x0,0
    4270:	00000013          	addi	x0,x0,0
    4274:	00000013          	addi	x0,x0,0
    4278:	00000013          	addi	x0,x0,0
    427c:	00000013          	addi	x0,x0,0
    4280:	0001c097          	auipc	x1,0x1c
    4284:	f84080e7          	jalr	x1,-124(x1) # 20204 <rvmodel_io_write_str>
    4288:	00000013          	addi	x0,x0,0
    428c:	00000013          	addi	x0,x0,0
    4290:	00000013          	addi	x0,x0,0
    4294:	00000013          	addi	x0,x0,0
    4298:	00000013          	addi	x0,x0,0
    429c:	00000013          	addi	x0,x0,0
    42a0:	0000c517          	auipc	x10,0xc
    42a4:	0a050513          	addi	x10,x10,160 # 10340 <trap_diag_extra_bytes_str>
    42a8:	00000013          	addi	x0,x0,0
    42ac:	00000013          	addi	x0,x0,0
    42b0:	00000013          	addi	x0,x0,0
    42b4:	00000013          	addi	x0,x0,0
    42b8:	00000013          	addi	x0,x0,0
    42bc:	00000013          	addi	x0,x0,0
    42c0:	0001c097          	auipc	x1,0x1c
    42c4:	f44080e7          	jalr	x1,-188(x1) # 20204 <rvmodel_io_write_str>
    42c8:	0000b317          	auipc	x6,0xb
    42cc:	df832303          	lw	x6,-520(x6) # f0c0 <trap_diag_expected_offset>
    42d0:	0000b397          	auipc	x7,0xb
    42d4:	de83a383          	lw	x7,-536(x7) # f0b8 <trap_diag_actual_offset>
    42d8:	40730533          	sub	x10,x6,x7
    42dc:	02000593          	addi	x11,x0,32
    42e0:	399000ef          	jal	x1,4e78 <failedtest_hex_to_str>
    42e4:	00000013          	addi	x0,x0,0
    42e8:	00000013          	addi	x0,x0,0
    42ec:	00000013          	addi	x0,x0,0
    42f0:	00000013          	addi	x0,x0,0
    42f4:	00000013          	addi	x0,x0,0
    42f8:	00000013          	addi	x0,x0,0
    42fc:	00000013          	addi	x0,x0,0
    4300:	0000b517          	auipc	x10,0xb
    4304:	df850513          	addi	x10,x10,-520 # f0f8 <ascii_buffer>
    4308:	00000013          	addi	x0,x0,0
    430c:	00000013          	addi	x0,x0,0
    4310:	00000013          	addi	x0,x0,0
    4314:	00000013          	addi	x0,x0,0
    4318:	00000013          	addi	x0,x0,0
    431c:	00000013          	addi	x0,x0,0
    4320:	0001c097          	auipc	x1,0x1c
    4324:	ee4080e7          	jalr	x1,-284(x1) # 20204 <rvmodel_io_write_str>
    4328:	00000013          	addi	x0,x0,0
    432c:	00000013          	addi	x0,x0,0
    4330:	00000013          	addi	x0,x0,0
    4334:	00000013          	addi	x0,x0,0
    4338:	00000013          	addi	x0,x0,0
    433c:	00000013          	addi	x0,x0,0
    4340:	0000c517          	auipc	x10,0xc
    4344:	11350513          	addi	x10,x10,275 # 10453 <trap_diag_missing_hint_str>
    4348:	00000013          	addi	x0,x0,0
    434c:	00000013          	addi	x0,x0,0
    4350:	00000013          	addi	x0,x0,0
    4354:	00000013          	addi	x0,x0,0
    4358:	00000013          	addi	x0,x0,0
    435c:	00000013          	addi	x0,x0,0
    4360:	0001c097          	auipc	x1,0x1c
    4364:	ea4080e7          	jalr	x1,-348(x1) # 20204 <rvmodel_io_write_str>
    4368:	00001097          	auipc	x1,0x1
    436c:	908080e7          	jalr	x1,-1784(x1) # 4c70 <failedtest_print_csr_context>
    4370:	0b50006f          	jal	x0,4c24 <failedtest_report_end>

00004374 <trap_report_field_mismatch>:
    4374:	00000013          	addi	x0,x0,0
    4378:	00000013          	addi	x0,x0,0
    437c:	00000013          	addi	x0,x0,0
    4380:	0000c517          	auipc	x10,0xc
    4384:	1ba50513          	addi	x10,x10,442 # 1053a <trap_diag_handler_mode_str>
    4388:	00000013          	addi	x0,x0,0
    438c:	00000013          	addi	x0,x0,0
    4390:	00000013          	addi	x0,x0,0
    4394:	00000013          	addi	x0,x0,0
    4398:	00000013          	addi	x0,x0,0
    439c:	00000013          	addi	x0,x0,0
    43a0:	0001c097          	auipc	x1,0x1c
    43a4:	e64080e7          	jalr	x1,-412(x1) # 20204 <rvmodel_io_write_str>
    43a8:	0000b517          	auipc	x10,0xb
    43ac:	cfc52503          	lw	x10,-772(x10) # f0a4 <trap_diag_mode>
    43b0:	04050a63          	beq	x10,x0,4404 <trap_mode_m>
    43b4:	00100593          	addi	x11,x0,1
    43b8:	08b50663          	beq	x10,x11,4444 <trap_mode_s>
    43bc:	00200593          	addi	x11,x0,2
    43c0:	0cb50263          	beq	x10,x11,4484 <trap_mode_h>
    43c4:	00300593          	addi	x11,x0,3
    43c8:	0eb50e63          	beq	x10,x11,44c4 <trap_mode_v>
    43cc:	00000013          	addi	x0,x0,0
    43d0:	00000013          	addi	x0,x0,0
    43d4:	00000013          	addi	x0,x0,0
    43d8:	00000013          	addi	x0,x0,0
    43dc:	00000013          	addi	x0,x0,0
    43e0:	0000c517          	auipc	x10,0xc
    43e4:	19650513          	addi	x10,x10,406 # 10576 <trap_diag_mode_unknown_str>
    43e8:	00000013          	addi	x0,x0,0
    43ec:	00000013          	addi	x0,x0,0
    43f0:	00000013          	addi	x0,x0,0
    43f4:	00000013          	addi	x0,x0,0
    43f8:	00000013          	addi	x0,x0,0
    43fc:	00000013          	addi	x0,x0,0
    4400:	1000006f          	jal	x0,4500 <trap_mode_print>

00004404 <trap_mode_m>:
    4404:	00000013          	addi	x0,x0,0
    4408:	00000013          	addi	x0,x0,0
    440c:	00000013          	addi	x0,x0,0
    4410:	00000013          	addi	x0,x0,0
    4414:	00000013          	addi	x0,x0,0
    4418:	00000013          	addi	x0,x0,0
    441c:	00000013          	addi	x0,x0,0
    4420:	0000c517          	auipc	x10,0xc
    4424:	13450513          	addi	x10,x10,308 # 10554 <trap_diag_mode_m_str>
    4428:	00000013          	addi	x0,x0,0
    442c:	00000013          	addi	x0,x0,0
    4430:	00000013          	addi	x0,x0,0
    4434:	00000013          	addi	x0,x0,0
    4438:	00000013          	addi	x0,x0,0
    443c:	00000013          	addi	x0,x0,0
    4440:	0c00006f          	jal	x0,4500 <trap_mode_print>

00004444 <trap_mode_s>:
    4444:	00000013          	addi	x0,x0,0
    4448:	00000013          	addi	x0,x0,0
    444c:	00000013          	addi	x0,x0,0
    4450:	00000013          	addi	x0,x0,0
    4454:	00000013          	addi	x0,x0,0
    4458:	00000013          	addi	x0,x0,0
    445c:	00000013          	addi	x0,x0,0
    4460:	0000c517          	auipc	x10,0xc
    4464:	0fc50513          	addi	x10,x10,252 # 1055c <trap_diag_mode_s_str>
    4468:	00000013          	addi	x0,x0,0
    446c:	00000013          	addi	x0,x0,0
    4470:	00000013          	addi	x0,x0,0
    4474:	00000013          	addi	x0,x0,0
    4478:	00000013          	addi	x0,x0,0
    447c:	00000013          	addi	x0,x0,0
    4480:	0800006f          	jal	x0,4500 <trap_mode_print>

00004484 <trap_mode_h>:
    4484:	00000013          	addi	x0,x0,0
    4488:	00000013          	addi	x0,x0,0
    448c:	00000013          	addi	x0,x0,0
    4490:	00000013          	addi	x0,x0,0
    4494:	00000013          	addi	x0,x0,0
    4498:	00000013          	addi	x0,x0,0
    449c:	00000013          	addi	x0,x0,0
    44a0:	0000c517          	auipc	x10,0xc
    44a4:	0c450513          	addi	x10,x10,196 # 10564 <trap_diag_mode_hs_str>
    44a8:	00000013          	addi	x0,x0,0
    44ac:	00000013          	addi	x0,x0,0
    44b0:	00000013          	addi	x0,x0,0
    44b4:	00000013          	addi	x0,x0,0
    44b8:	00000013          	addi	x0,x0,0
    44bc:	00000013          	addi	x0,x0,0
    44c0:	0400006f          	jal	x0,4500 <trap_mode_print>

000044c4 <trap_mode_v>:
    44c4:	00000013          	addi	x0,x0,0
    44c8:	00000013          	addi	x0,x0,0
    44cc:	00000013          	addi	x0,x0,0
    44d0:	00000013          	addi	x0,x0,0
    44d4:	00000013          	addi	x0,x0,0
    44d8:	00000013          	addi	x0,x0,0
    44dc:	00000013          	addi	x0,x0,0
    44e0:	0000c517          	auipc	x10,0xc
    44e4:	08d50513          	addi	x10,x10,141 # 1056d <trap_diag_mode_vs_str>
    44e8:	00000013          	addi	x0,x0,0
    44ec:	00000013          	addi	x0,x0,0
    44f0:	00000013          	addi	x0,x0,0
    44f4:	00000013          	addi	x0,x0,0
    44f8:	00000013          	addi	x0,x0,0
    44fc:	00000013          	addi	x0,x0,0

00004500 <trap_mode_print>:
    4500:	0001c097          	auipc	x1,0x1c
    4504:	d04080e7          	jalr	x1,-764(x1) # 20204 <rvmodel_io_write_str>
    4508:	00000013          	addi	x0,x0,0
    450c:	00000013          	addi	x0,x0,0
    4510:	00000013          	addi	x0,x0,0
    4514:	00000013          	addi	x0,x0,0
    4518:	00000013          	addi	x0,x0,0
    451c:	00000013          	addi	x0,x0,0
    4520:	0000c517          	auipc	x10,0xc
    4524:	05f50513          	addi	x10,x10,95 # 1057f <trap_diag_field_str>
    4528:	00000013          	addi	x0,x0,0
    452c:	00000013          	addi	x0,x0,0
    4530:	00000013          	addi	x0,x0,0
    4534:	00000013          	addi	x0,x0,0
    4538:	00000013          	addi	x0,x0,0
    453c:	00000013          	addi	x0,x0,0
    4540:	0001c097          	auipc	x1,0x1c
    4544:	cc4080e7          	jalr	x1,-828(x1) # 20204 <rvmodel_io_write_str>
    4548:	0000b517          	auipc	x10,0xb
    454c:	b5852503          	lw	x10,-1192(x10) # f0a0 <trap_diag_subtype>
    4550:	00100593          	addi	x11,x0,1
    4554:	06b50863          	beq	x10,x11,45c4 <trap_field_vect>
    4558:	00200593          	addi	x11,x0,2
    455c:	0ab50463          	beq	x10,x11,4604 <trap_field_cause>
    4560:	00300593          	addi	x11,x0,3
    4564:	0eb50063          	beq	x10,x11,4644 <trap_field_epc>
    4568:	00400593          	addi	x11,x0,4
    456c:	10b50c63          	beq	x10,x11,4684 <trap_field_tval>
    4570:	00500593          	addi	x11,x0,5
    4574:	14b50863          	beq	x10,x11,46c4 <trap_field_ip>
    4578:	00600593          	addi	x11,x0,6
    457c:	18b50463          	beq	x10,x11,4704 <trap_field_tval2>
    4580:	00700593          	addi	x11,x0,7
    4584:	1cb50063          	beq	x10,x11,4744 <trap_field_tinst>
    4588:	00800593          	addi	x11,x0,8
    458c:	1eb50c63          	beq	x10,x11,4784 <trap_field_intid>
    4590:	00000013          	addi	x0,x0,0
    4594:	00000013          	addi	x0,x0,0
    4598:	00000013          	addi	x0,x0,0
    459c:	00000013          	addi	x0,x0,0
    45a0:	0000c517          	auipc	x10,0xc
    45a4:	13650513          	addi	x10,x10,310 # 106d6 <trap_diag_field_unknown_str>
    45a8:	00000013          	addi	x0,x0,0
    45ac:	00000013          	addi	x0,x0,0
    45b0:	00000013          	addi	x0,x0,0
    45b4:	00000013          	addi	x0,x0,0
    45b8:	00000013          	addi	x0,x0,0
    45bc:	00000013          	addi	x0,x0,0
    45c0:	2000006f          	jal	x0,47c0 <trap_field_print>

000045c4 <trap_field_vect>:
    45c4:	00000013          	addi	x0,x0,0
    45c8:	00000013          	addi	x0,x0,0
    45cc:	00000013          	addi	x0,x0,0
    45d0:	00000013          	addi	x0,x0,0
    45d4:	00000013          	addi	x0,x0,0
    45d8:	00000013          	addi	x0,x0,0
    45dc:	00000013          	addi	x0,x0,0
    45e0:	0000c517          	auipc	x10,0xc
    45e4:	fb950513          	addi	x10,x10,-71 # 10599 <trap_diag_field_vect_str>
    45e8:	00000013          	addi	x0,x0,0
    45ec:	00000013          	addi	x0,x0,0
    45f0:	00000013          	addi	x0,x0,0
    45f4:	00000013          	addi	x0,x0,0
    45f8:	00000013          	addi	x0,x0,0
    45fc:	00000013          	addi	x0,x0,0
    4600:	1c00006f          	jal	x0,47c0 <trap_field_print>

00004604 <trap_field_cause>:
    4604:	00000013          	addi	x0,x0,0
    4608:	00000013          	addi	x0,x0,0
    460c:	00000013          	addi	x0,x0,0
    4610:	00000013          	addi	x0,x0,0
    4614:	00000013          	addi	x0,x0,0
    4618:	00000013          	addi	x0,x0,0
    461c:	00000013          	addi	x0,x0,0
    4620:	0000c517          	auipc	x10,0xc
    4624:	faa50513          	addi	x10,x10,-86 # 105ca <trap_diag_field_cause_str>
    4628:	00000013          	addi	x0,x0,0
    462c:	00000013          	addi	x0,x0,0
    4630:	00000013          	addi	x0,x0,0
    4634:	00000013          	addi	x0,x0,0
    4638:	00000013          	addi	x0,x0,0
    463c:	00000013          	addi	x0,x0,0
    4640:	1800006f          	jal	x0,47c0 <trap_field_print>

00004644 <trap_field_epc>:
    4644:	00000013          	addi	x0,x0,0
    4648:	00000013          	addi	x0,x0,0
    464c:	00000013          	addi	x0,x0,0
    4650:	00000013          	addi	x0,x0,0
    4654:	00000013          	addi	x0,x0,0
    4658:	00000013          	addi	x0,x0,0
    465c:	00000013          	addi	x0,x0,0
    4660:	0000c517          	auipc	x10,0xc
    4664:	f8a50513          	addi	x10,x10,-118 # 105ea <trap_diag_field_epc_str>
    4668:	00000013          	addi	x0,x0,0
    466c:	00000013          	addi	x0,x0,0
    4670:	00000013          	addi	x0,x0,0
    4674:	00000013          	addi	x0,x0,0
    4678:	00000013          	addi	x0,x0,0
    467c:	00000013          	addi	x0,x0,0
    4680:	1400006f          	jal	x0,47c0 <trap_field_print>

00004684 <trap_field_tval>:
    4684:	00000013          	addi	x0,x0,0
    4688:	00000013          	addi	x0,x0,0
    468c:	00000013          	addi	x0,x0,0
    4690:	00000013          	addi	x0,x0,0
    4694:	00000013          	addi	x0,x0,0
    4698:	00000013          	addi	x0,x0,0
    469c:	00000013          	addi	x0,x0,0
    46a0:	0000c517          	auipc	x10,0xc
    46a4:	f6850513          	addi	x10,x10,-152 # 10608 <trap_diag_field_tval_str>
    46a8:	00000013          	addi	x0,x0,0
    46ac:	00000013          	addi	x0,x0,0
    46b0:	00000013          	addi	x0,x0,0
    46b4:	00000013          	addi	x0,x0,0
    46b8:	00000013          	addi	x0,x0,0
    46bc:	00000013          	addi	x0,x0,0
    46c0:	1000006f          	jal	x0,47c0 <trap_field_print>

000046c4 <trap_field_ip>:
    46c4:	00000013          	addi	x0,x0,0
    46c8:	00000013          	addi	x0,x0,0
    46cc:	00000013          	addi	x0,x0,0
    46d0:	00000013          	addi	x0,x0,0
    46d4:	00000013          	addi	x0,x0,0
    46d8:	00000013          	addi	x0,x0,0
    46dc:	00000013          	addi	x0,x0,0
    46e0:	0000c517          	auipc	x10,0xc
    46e4:	f4750513          	addi	x10,x10,-185 # 10627 <trap_diag_field_ip_str>
    46e8:	00000013          	addi	x0,x0,0
    46ec:	00000013          	addi	x0,x0,0
    46f0:	00000013          	addi	x0,x0,0
    46f4:	00000013          	addi	x0,x0,0
    46f8:	00000013          	addi	x0,x0,0
    46fc:	00000013          	addi	x0,x0,0
    4700:	0c00006f          	jal	x0,47c0 <trap_field_print>

00004704 <trap_field_tval2>:
    4704:	00000013          	addi	x0,x0,0
    4708:	00000013          	addi	x0,x0,0
    470c:	00000013          	addi	x0,x0,0
    4710:	00000013          	addi	x0,x0,0
    4714:	00000013          	addi	x0,x0,0
    4718:	00000013          	addi	x0,x0,0
    471c:	00000013          	addi	x0,x0,0
    4720:	0000c517          	auipc	x10,0xc
    4724:	f2f50513          	addi	x10,x10,-209 # 1064f <trap_diag_field_tval2_str>
    4728:	00000013          	addi	x0,x0,0
    472c:	00000013          	addi	x0,x0,0
    4730:	00000013          	addi	x0,x0,0
    4734:	00000013          	addi	x0,x0,0
    4738:	00000013          	addi	x0,x0,0
    473c:	00000013          	addi	x0,x0,0
    4740:	0800006f          	jal	x0,47c0 <trap_field_print>

00004744 <trap_field_tinst>:
    4744:	00000013          	addi	x0,x0,0
    4748:	00000013          	addi	x0,x0,0
    474c:	00000013          	addi	x0,x0,0
    4750:	00000013          	addi	x0,x0,0
    4754:	00000013          	addi	x0,x0,0
    4758:	00000013          	addi	x0,x0,0
    475c:	00000013          	addi	x0,x0,0
    4760:	0000c517          	auipc	x10,0xc
    4764:	f1b50513          	addi	x10,x10,-229 # 1067b <trap_diag_field_tinst_str>
    4768:	00000013          	addi	x0,x0,0
    476c:	00000013          	addi	x0,x0,0
    4770:	00000013          	addi	x0,x0,0
    4774:	00000013          	addi	x0,x0,0
    4778:	00000013          	addi	x0,x0,0
    477c:	00000013          	addi	x0,x0,0
    4780:	0400006f          	jal	x0,47c0 <trap_field_print>

00004784 <trap_field_intid>:
    4784:	00000013          	addi	x0,x0,0
    4788:	00000013          	addi	x0,x0,0
    478c:	00000013          	addi	x0,x0,0
    4790:	00000013          	addi	x0,x0,0
    4794:	00000013          	addi	x0,x0,0
    4798:	00000013          	addi	x0,x0,0
    479c:	00000013          	addi	x0,x0,0
    47a0:	0000c517          	auipc	x10,0xc
    47a4:	f0750513          	addi	x10,x10,-249 # 106a7 <trap_diag_field_intid_str>
    47a8:	00000013          	addi	x0,x0,0
    47ac:	00000013          	addi	x0,x0,0
    47b0:	00000013          	addi	x0,x0,0
    47b4:	00000013          	addi	x0,x0,0
    47b8:	00000013          	addi	x0,x0,0
    47bc:	00000013          	addi	x0,x0,0

000047c0 <trap_field_print>:
    47c0:	0001c097          	auipc	x1,0x1c
    47c4:	a44080e7          	jalr	x1,-1468(x1) # 20204 <rvmodel_io_write_str>
    47c8:	00000013          	addi	x0,x0,0
    47cc:	00000013          	addi	x0,x0,0
    47d0:	00000013          	addi	x0,x0,0
    47d4:	00000013          	addi	x0,x0,0
    47d8:	00000013          	addi	x0,x0,0
    47dc:	00000013          	addi	x0,x0,0
    47e0:	0000c517          	auipc	x10,0xc
    47e4:	f0550513          	addi	x10,x10,-251 # 106e5 <trap_diag_expected_str>
    47e8:	00000013          	addi	x0,x0,0
    47ec:	00000013          	addi	x0,x0,0
    47f0:	00000013          	addi	x0,x0,0
    47f4:	00000013          	addi	x0,x0,0
    47f8:	00000013          	addi	x0,x0,0
    47fc:	00000013          	addi	x0,x0,0
    4800:	0001c097          	auipc	x1,0x1c
    4804:	a04080e7          	jalr	x1,-1532(x1) # 20204 <rvmodel_io_write_str>
    4808:	0000b517          	auipc	x10,0xb
    480c:	8a852503          	lw	x10,-1880(x10) # f0b0 <trap_diag_expected_value>
    4810:	02000593          	addi	x11,x0,32
    4814:	664000ef          	jal	x1,4e78 <failedtest_hex_to_str>
    4818:	00000013          	addi	x0,x0,0
    481c:	00000013          	addi	x0,x0,0
    4820:	0000b517          	auipc	x10,0xb
    4824:	8d850513          	addi	x10,x10,-1832 # f0f8 <ascii_buffer>
    4828:	00000013          	addi	x0,x0,0
    482c:	00000013          	addi	x0,x0,0
    4830:	00000013          	addi	x0,x0,0
    4834:	00000013          	addi	x0,x0,0
    4838:	00000013          	addi	x0,x0,0
    483c:	00000013          	addi	x0,x0,0
    4840:	0001c097          	auipc	x1,0x1c
    4844:	9c4080e7          	jalr	x1,-1596(x1) # 20204 <rvmodel_io_write_str>
    4848:	00000013          	addi	x0,x0,0
    484c:	00000013          	addi	x0,x0,0
    4850:	00000013          	addi	x0,x0,0
    4854:	00000013          	addi	x0,x0,0
    4858:	00000013          	addi	x0,x0,0
    485c:	00000013          	addi	x0,x0,0
    4860:	0000c517          	auipc	x10,0xc
    4864:	e9c50513          	addi	x10,x10,-356 # 106fc <trap_diag_actual_str>
    4868:	00000013          	addi	x0,x0,0
    486c:	00000013          	addi	x0,x0,0
    4870:	00000013          	addi	x0,x0,0
    4874:	00000013          	addi	x0,x0,0
    4878:	00000013          	addi	x0,x0,0
    487c:	00000013          	addi	x0,x0,0
    4880:	0001c097          	auipc	x1,0x1c
    4884:	984080e7          	jalr	x1,-1660(x1) # 20204 <rvmodel_io_write_str>
    4888:	0000b517          	auipc	x10,0xb
    488c:	82052503          	lw	x10,-2016(x10) # f0a8 <trap_diag_actual_value>
    4890:	02000593          	addi	x11,x0,32
    4894:	5e4000ef          	jal	x1,4e78 <failedtest_hex_to_str>
    4898:	00000013          	addi	x0,x0,0
    489c:	00000013          	addi	x0,x0,0
    48a0:	0000b517          	auipc	x10,0xb
    48a4:	85850513          	addi	x10,x10,-1960 # f0f8 <ascii_buffer>
    48a8:	00000013          	addi	x0,x0,0
    48ac:	00000013          	addi	x0,x0,0
    48b0:	00000013          	addi	x0,x0,0
    48b4:	00000013          	addi	x0,x0,0
    48b8:	00000013          	addi	x0,x0,0
    48bc:	00000013          	addi	x0,x0,0
    48c0:	0001c097          	auipc	x1,0x1c
    48c4:	944080e7          	jalr	x1,-1724(x1) # 20204 <rvmodel_io_write_str>
    48c8:	0000a517          	auipc	x10,0xa
    48cc:	7d852503          	lw	x10,2008(x10) # f0a0 <trap_diag_subtype>
    48d0:	00200593          	addi	x11,x0,2
    48d4:	08b51463          	bne	x10,x11,495c <trap_field_not_cause>
    48d8:	00000013          	addi	x0,x0,0
    48dc:	00000013          	addi	x0,x0,0
    48e0:	0000c517          	auipc	x10,0xc
    48e4:	e3350513          	addi	x10,x10,-461 # 10713 <trap_diag_expected_cause_name_str>
    48e8:	00000013          	addi	x0,x0,0
    48ec:	00000013          	addi	x0,x0,0
    48f0:	00000013          	addi	x0,x0,0
    48f4:	00000013          	addi	x0,x0,0
    48f8:	00000013          	addi	x0,x0,0
    48fc:	00000013          	addi	x0,x0,0
    4900:	0001c097          	auipc	x1,0x1c
    4904:	904080e7          	jalr	x1,-1788(x1) # 20204 <rvmodel_io_write_str>
    4908:	0000a517          	auipc	x10,0xa
    490c:	7a852503          	lw	x10,1960(x10) # f0b0 <trap_diag_expected_value>
    4910:	284000ef          	jal	x1,4b94 <trap_cause_to_str>
    4914:	0001c097          	auipc	x1,0x1c
    4918:	8f0080e7          	jalr	x1,-1808(x1) # 20204 <rvmodel_io_write_str>
    491c:	00000013          	addi	x0,x0,0
    4920:	0000c517          	auipc	x10,0xc
    4924:	e0a50513          	addi	x10,x10,-502 # 1072a <trap_diag_actual_cause_name_str>
    4928:	00000013          	addi	x0,x0,0
    492c:	00000013          	addi	x0,x0,0
    4930:	00000013          	addi	x0,x0,0
    4934:	00000013          	addi	x0,x0,0
    4938:	00000013          	addi	x0,x0,0
    493c:	00000013          	addi	x0,x0,0
    4940:	0001c097          	auipc	x1,0x1c
    4944:	8c4080e7          	jalr	x1,-1852(x1) # 20204 <rvmodel_io_write_str>
    4948:	0000a517          	auipc	x10,0xa
    494c:	76052503          	lw	x10,1888(x10) # f0a8 <trap_diag_actual_value>
    4950:	244000ef          	jal	x1,4b94 <trap_cause_to_str>
    4954:	0001c097          	auipc	x1,0x1c
    4958:	8b0080e7          	jalr	x1,-1872(x1) # 20204 <rvmodel_io_write_str>

0000495c <trap_field_not_cause>:
    495c:	00000097          	auipc	x1,0x0
    4960:	314080e7          	jalr	x1,788(x1) # 4c70 <failedtest_print_csr_context>
    4964:	0000a517          	auipc	x10,0xa
    4968:	73c52503          	lw	x10,1852(x10) # f0a0 <trap_diag_subtype>
    496c:	00100593          	addi	x11,x0,1
    4970:	02b51e63          	bne	x10,x11,49ac <trap_field_not_cause+0x50>
    4974:	00000013          	addi	x0,x0,0
    4978:	00000013          	addi	x0,x0,0
    497c:	00000013          	addi	x0,x0,0
    4980:	0000c517          	auipc	x10,0xc
    4984:	e2050513          	addi	x10,x10,-480 # 107a0 <trap_diag_hint_vect_str>
    4988:	00000013          	addi	x0,x0,0
    498c:	00000013          	addi	x0,x0,0
    4990:	00000013          	addi	x0,x0,0
    4994:	00000013          	addi	x0,x0,0
    4998:	00000013          	addi	x0,x0,0
    499c:	00000013          	addi	x0,x0,0
    49a0:	0001c097          	auipc	x1,0x1c
    49a4:	864080e7          	jalr	x1,-1948(x1) # 20204 <rvmodel_io_write_str>
    49a8:	27c0006f          	jal	x0,4c24 <failedtest_report_end>
    49ac:	00200593          	addi	x11,x0,2
    49b0:	02b51e63          	bne	x10,x11,49ec <trap_field_not_cause+0x90>
    49b4:	00000013          	addi	x0,x0,0
    49b8:	00000013          	addi	x0,x0,0
    49bc:	00000013          	addi	x0,x0,0
    49c0:	0000c517          	auipc	x10,0xc
    49c4:	eb650513          	addi	x10,x10,-330 # 10876 <trap_diag_hint_cause_str>
    49c8:	00000013          	addi	x0,x0,0
    49cc:	00000013          	addi	x0,x0,0
    49d0:	00000013          	addi	x0,x0,0
    49d4:	00000013          	addi	x0,x0,0
    49d8:	00000013          	addi	x0,x0,0
    49dc:	00000013          	addi	x0,x0,0
    49e0:	0001c097          	auipc	x1,0x1c
    49e4:	824080e7          	jalr	x1,-2012(x1) # 20204 <rvmodel_io_write_str>
    49e8:	23c0006f          	jal	x0,4c24 <failedtest_report_end>
    49ec:	00300593          	addi	x11,x0,3
    49f0:	02b51e63          	bne	x10,x11,4a2c <trap_field_not_cause+0xd0>
    49f4:	00000013          	addi	x0,x0,0
    49f8:	00000013          	addi	x0,x0,0
    49fc:	00000013          	addi	x0,x0,0
    4a00:	0000c517          	auipc	x10,0xc
    4a04:	f6950513          	addi	x10,x10,-151 # 10969 <trap_diag_hint_epc_str>
    4a08:	00000013          	addi	x0,x0,0
    4a0c:	00000013          	addi	x0,x0,0
    4a10:	00000013          	addi	x0,x0,0
    4a14:	00000013          	addi	x0,x0,0
    4a18:	00000013          	addi	x0,x0,0
    4a1c:	00000013          	addi	x0,x0,0
    4a20:	0001b097          	auipc	x1,0x1b
    4a24:	7e4080e7          	jalr	x1,2020(x1) # 20204 <rvmodel_io_write_str>
    4a28:	1fc0006f          	jal	x0,4c24 <failedtest_report_end>
    4a2c:	00400593          	addi	x11,x0,4
    4a30:	02b51e63          	bne	x10,x11,4a6c <trap_field_not_cause+0x110>
    4a34:	00000013          	addi	x0,x0,0
    4a38:	00000013          	addi	x0,x0,0
    4a3c:	00000013          	addi	x0,x0,0
    4a40:	0000c517          	auipc	x10,0xc
    4a44:	02450513          	addi	x10,x10,36 # 10a64 <trap_diag_hint_tval_str>
    4a48:	00000013          	addi	x0,x0,0
    4a4c:	00000013          	addi	x0,x0,0
    4a50:	00000013          	addi	x0,x0,0
    4a54:	00000013          	addi	x0,x0,0
    4a58:	00000013          	addi	x0,x0,0
    4a5c:	00000013          	addi	x0,x0,0
    4a60:	0001b097          	auipc	x1,0x1b
    4a64:	7a4080e7          	jalr	x1,1956(x1) # 20204 <rvmodel_io_write_str>
    4a68:	1bc0006f          	jal	x0,4c24 <failedtest_report_end>
    4a6c:	00500593          	addi	x11,x0,5
    4a70:	02b51e63          	bne	x10,x11,4aac <trap_field_not_cause+0x150>
    4a74:	00000013          	addi	x0,x0,0
    4a78:	00000013          	addi	x0,x0,0
    4a7c:	00000013          	addi	x0,x0,0
    4a80:	0000c517          	auipc	x10,0xc
    4a84:	0cb50513          	addi	x10,x10,203 # 10b4b <trap_diag_hint_ip_str>
    4a88:	00000013          	addi	x0,x0,0
    4a8c:	00000013          	addi	x0,x0,0
    4a90:	00000013          	addi	x0,x0,0
    4a94:	00000013          	addi	x0,x0,0
    4a98:	00000013          	addi	x0,x0,0
    4a9c:	00000013          	addi	x0,x0,0
    4aa0:	0001b097          	auipc	x1,0x1b
    4aa4:	764080e7          	jalr	x1,1892(x1) # 20204 <rvmodel_io_write_str>
    4aa8:	17c0006f          	jal	x0,4c24 <failedtest_report_end>
    4aac:	1780006f          	jal	x0,4c24 <failedtest_report_end>

00004ab0 <trap_report_generic>:
    4ab0:	00000013          	addi	x0,x0,0
    4ab4:	00000013          	addi	x0,x0,0
    4ab8:	00000013          	addi	x0,x0,0
    4abc:	00000013          	addi	x0,x0,0
    4ac0:	0000c517          	auipc	x10,0xc
    4ac4:	c9850513          	addi	x10,x10,-872 # 10758 <trap_diag_generic_str>
    4ac8:	00000013          	addi	x0,x0,0
    4acc:	00000013          	addi	x0,x0,0
    4ad0:	00000013          	addi	x0,x0,0
    4ad4:	00000013          	addi	x0,x0,0
    4ad8:	00000013          	addi	x0,x0,0
    4adc:	00000013          	addi	x0,x0,0
    4ae0:	0001b097          	auipc	x1,0x1b
    4ae4:	724080e7          	jalr	x1,1828(x1) # 20204 <rvmodel_io_write_str>
    4ae8:	0000a617          	auipc	x12,0xa
    4aec:	5f062603          	lw	x12,1520(x12) # f0d8 <saved_mepc>
    4af0:	00000013          	addi	x0,x0,0
    4af4:	00000013          	addi	x0,x0,0
    4af8:	00000013          	addi	x0,x0,0
    4afc:	00000013          	addi	x0,x0,0
    4b00:	0000b517          	auipc	x10,0xb
    4b04:	c3b50513          	addi	x10,x10,-965 # f73b <xepcinstrstr>
    4b08:	00000013          	addi	x0,x0,0
    4b0c:	00000013          	addi	x0,x0,0
    4b10:	00000013          	addi	x0,x0,0
    4b14:	00000013          	addi	x0,x0,0
    4b18:	00000013          	addi	x0,x0,0
    4b1c:	00000013          	addi	x0,x0,0
    4b20:	0001b097          	auipc	x1,0x1b
    4b24:	6e4080e7          	jalr	x1,1764(x1) # 20204 <rvmodel_io_write_str>
    4b28:	00065503          	lhu	x10,0(x12)
    4b2c:	01000593          	addi	x11,x0,16
    4b30:	00357413          	andi	x8,x10,3
    4b34:	00300493          	addi	x9,x0,3
    4b38:	00941a63          	bne	x8,x9,4b4c <trap_report_generic+0x9c>
    4b3c:	00265403          	lhu	x8,2(x12)
    4b40:	01041413          	slli	x8,x8,0x10
    4b44:	00856533          	or	x10,x10,x8
    4b48:	02000593          	addi	x11,x0,32
    4b4c:	32c000ef          	jal	x1,4e78 <failedtest_hex_to_str>
    4b50:	00000013          	addi	x0,x0,0
    4b54:	00000013          	addi	x0,x0,0
    4b58:	00000013          	addi	x0,x0,0
    4b5c:	00000013          	addi	x0,x0,0
    4b60:	0000a517          	auipc	x10,0xa
    4b64:	59850513          	addi	x10,x10,1432 # f0f8 <ascii_buffer>
    4b68:	00000013          	addi	x0,x0,0
    4b6c:	00000013          	addi	x0,x0,0
    4b70:	00000013          	addi	x0,x0,0
    4b74:	00000013          	addi	x0,x0,0
    4b78:	00000013          	addi	x0,x0,0
    4b7c:	00000013          	addi	x0,x0,0
    4b80:	0001b097          	auipc	x1,0x1b
    4b84:	684080e7          	jalr	x1,1668(x1) # 20204 <rvmodel_io_write_str>
    4b88:	00000097          	auipc	x1,0x0
    4b8c:	0e8080e7          	jalr	x1,232(x1) # 4c70 <failedtest_print_csr_context>
    4b90:	0940006f          	jal	x0,4c24 <failedtest_report_end>

00004b94 <trap_cause_to_str>:
    4b94:	02054263          	blt	x10,x0,4bb8 <trap_cause_interrupt>

00004b98 <trap_cause_exception>:
    4b98:	01800593          	addi	x11,x0,24
    4b9c:	04b55463          	bge	x10,x11,4be4 <trap_cause_unknown>
    4ba0:	0000a597          	auipc	x11,0xa
    4ba4:	58058593          	addi	x11,x11,1408 # f120 <end_failure_scratch>
    4ba8:	00251613          	slli	x12,x10,0x2
    4bac:	00c585b3          	add	x11,x11,x12
    4bb0:	0005a503          	lw	x10,0(x11)
    4bb4:	00008067          	jalr	x0,0(x1)

00004bb8 <trap_cause_interrupt>:
    4bb8:	00100593          	addi	x11,x0,1
    4bbc:	01f59593          	slli	x11,x11,0x1f
    4bc0:	00b54533          	xor	x10,x10,x11
    4bc4:	01000593          	addi	x11,x0,16
    4bc8:	00b55e63          	bge	x10,x11,4be4 <trap_cause_unknown>
    4bcc:	0000a597          	auipc	x11,0xa
    4bd0:	5b458593          	addi	x11,x11,1460 # f180 <trap_int_name_tbl>
    4bd4:	00251613          	slli	x12,x10,0x2
    4bd8:	00c585b3          	add	x11,x11,x12
    4bdc:	0005a503          	lw	x10,0(x11)
    4be0:	00008067          	jalr	x0,0(x1)

00004be4 <trap_cause_unknown>:
    4be4:	00000013          	addi	x0,x0,0
    4be8:	00000013          	addi	x0,x0,0
    4bec:	00000013          	addi	x0,x0,0
    4bf0:	00000013          	addi	x0,x0,0
    4bf4:	00000013          	addi	x0,x0,0
    4bf8:	00000013          	addi	x0,x0,0
    4bfc:	00000013          	addi	x0,x0,0
    4c00:	0000b517          	auipc	x10,0xb
    4c04:	9be50513          	addi	x10,x10,-1602 # f5be <trap_cause_unknown_str>
    4c08:	00000013          	addi	x0,x0,0
    4c0c:	00000013          	addi	x0,x0,0
    4c10:	00000013          	addi	x0,x0,0
    4c14:	00000013          	addi	x0,x0,0
    4c18:	00000013          	addi	x0,x0,0
    4c1c:	00000013          	addi	x0,x0,0
    4c20:	00008067          	jalr	x0,0(x1)

00004c24 <failedtest_report_end>:
    4c24:	00000013          	addi	x0,x0,0
    4c28:	00000013          	addi	x0,x0,0
    4c2c:	00000013          	addi	x0,x0,0
    4c30:	00000013          	addi	x0,x0,0
    4c34:	00000013          	addi	x0,x0,0
    4c38:	00000013          	addi	x0,x0,0
    4c3c:	00000013          	addi	x0,x0,0
    4c40:	0000b517          	auipc	x10,0xb
    4c44:	54350513          	addi	x10,x10,1347 # 10183 <endstr>
    4c48:	00000013          	addi	x0,x0,0
    4c4c:	00000013          	addi	x0,x0,0
    4c50:	00000013          	addi	x0,x0,0
    4c54:	00000013          	addi	x0,x0,0
    4c58:	00000013          	addi	x0,x0,0
    4c5c:	00000013          	addi	x0,x0,0
    4c60:	0001b097          	auipc	x1,0x1b
    4c64:	5a4080e7          	jalr	x1,1444(x1) # 20204 <rvmodel_io_write_str>

00004c68 <failedtest_terminate>:
    4c68:	0001b097          	auipc	x1,0x1b
    4c6c:	5ac080e7          	jalr	x1,1452(x1) # 20214 <rvmodel_halt_fail>

00004c70 <failedtest_print_csr_context>:
    4c70:	0000a617          	auipc	x12,0xa
    4c74:	46060613          	addi	x12,x12,1120 # f0d0 <csr_context_ret_addr>
    4c78:	00162023          	sw	x1,0(x12)
    4c7c:	00000013          	addi	x0,x0,0
    4c80:	0000b517          	auipc	x10,0xb
    4c84:	adc50513          	addi	x10,x10,-1316 # f75c <mepcstr>
    4c88:	00000013          	addi	x0,x0,0
    4c8c:	00000013          	addi	x0,x0,0
    4c90:	00000013          	addi	x0,x0,0
    4c94:	00000013          	addi	x0,x0,0
    4c98:	00000013          	addi	x0,x0,0
    4c9c:	00000013          	addi	x0,x0,0
    4ca0:	0001b097          	auipc	x1,0x1b
    4ca4:	564080e7          	jalr	x1,1380(x1) # 20204 <rvmodel_io_write_str>
    4ca8:	0000a517          	auipc	x10,0xa
    4cac:	43052503          	lw	x10,1072(x10) # f0d8 <saved_mepc>
    4cb0:	02000593          	addi	x11,x0,32
    4cb4:	1c4000ef          	jal	x1,4e78 <failedtest_hex_to_str>
    4cb8:	00000013          	addi	x0,x0,0
    4cbc:	00000013          	addi	x0,x0,0
    4cc0:	0000a517          	auipc	x10,0xa
    4cc4:	43850513          	addi	x10,x10,1080 # f0f8 <ascii_buffer>
    4cc8:	00000013          	addi	x0,x0,0
    4ccc:	00000013          	addi	x0,x0,0
    4cd0:	00000013          	addi	x0,x0,0
    4cd4:	00000013          	addi	x0,x0,0
    4cd8:	00000013          	addi	x0,x0,0
    4cdc:	00000013          	addi	x0,x0,0
    4ce0:	0001b097          	auipc	x1,0x1b
    4ce4:	524080e7          	jalr	x1,1316(x1) # 20204 <rvmodel_io_write_str>
    4ce8:	00000013          	addi	x0,x0,0
    4cec:	00000013          	addi	x0,x0,0
    4cf0:	00000013          	addi	x0,x0,0
    4cf4:	00000013          	addi	x0,x0,0
    4cf8:	00000013          	addi	x0,x0,0
    4cfc:	00000013          	addi	x0,x0,0
    4d00:	0000b517          	auipc	x10,0xb
    4d04:	a6c50513          	addi	x10,x10,-1428 # f76c <mcausestr>
    4d08:	00000013          	addi	x0,x0,0
    4d0c:	00000013          	addi	x0,x0,0
    4d10:	00000013          	addi	x0,x0,0
    4d14:	00000013          	addi	x0,x0,0
    4d18:	00000013          	addi	x0,x0,0
    4d1c:	00000013          	addi	x0,x0,0
    4d20:	0001b097          	auipc	x1,0x1b
    4d24:	4e4080e7          	jalr	x1,1252(x1) # 20204 <rvmodel_io_write_str>
    4d28:	0000a517          	auipc	x10,0xa
    4d2c:	3b852503          	lw	x10,952(x10) # f0e0 <saved_mcause>
    4d30:	02000593          	addi	x11,x0,32
    4d34:	144000ef          	jal	x1,4e78 <failedtest_hex_to_str>
    4d38:	00000013          	addi	x0,x0,0
    4d3c:	00000013          	addi	x0,x0,0
    4d40:	0000a517          	auipc	x10,0xa
    4d44:	3b850513          	addi	x10,x10,952 # f0f8 <ascii_buffer>
    4d48:	00000013          	addi	x0,x0,0
    4d4c:	00000013          	addi	x0,x0,0
    4d50:	00000013          	addi	x0,x0,0
    4d54:	00000013          	addi	x0,x0,0
    4d58:	00000013          	addi	x0,x0,0
    4d5c:	00000013          	addi	x0,x0,0
    4d60:	0001b097          	auipc	x1,0x1b
    4d64:	4a4080e7          	jalr	x1,1188(x1) # 20204 <rvmodel_io_write_str>
    4d68:	00000013          	addi	x0,x0,0
    4d6c:	00000013          	addi	x0,x0,0
    4d70:	00000013          	addi	x0,x0,0
    4d74:	00000013          	addi	x0,x0,0
    4d78:	00000013          	addi	x0,x0,0
    4d7c:	00000013          	addi	x0,x0,0
    4d80:	0000b517          	auipc	x10,0xb
    4d84:	9fc50513          	addi	x10,x10,-1540 # f77c <mtvalstr>
    4d88:	00000013          	addi	x0,x0,0
    4d8c:	00000013          	addi	x0,x0,0
    4d90:	00000013          	addi	x0,x0,0
    4d94:	00000013          	addi	x0,x0,0
    4d98:	00000013          	addi	x0,x0,0
    4d9c:	00000013          	addi	x0,x0,0
    4da0:	0001b097          	auipc	x1,0x1b
    4da4:	464080e7          	jalr	x1,1124(x1) # 20204 <rvmodel_io_write_str>
    4da8:	0000a517          	auipc	x10,0xa
    4dac:	34052503          	lw	x10,832(x10) # f0e8 <saved_mtval>
    4db0:	02000593          	addi	x11,x0,32
    4db4:	0c4000ef          	jal	x1,4e78 <failedtest_hex_to_str>
    4db8:	00000013          	addi	x0,x0,0
    4dbc:	00000013          	addi	x0,x0,0
    4dc0:	0000a517          	auipc	x10,0xa
    4dc4:	33850513          	addi	x10,x10,824 # f0f8 <ascii_buffer>
    4dc8:	00000013          	addi	x0,x0,0
    4dcc:	00000013          	addi	x0,x0,0
    4dd0:	00000013          	addi	x0,x0,0
    4dd4:	00000013          	addi	x0,x0,0
    4dd8:	00000013          	addi	x0,x0,0
    4ddc:	00000013          	addi	x0,x0,0
    4de0:	0001b097          	auipc	x1,0x1b
    4de4:	424080e7          	jalr	x1,1060(x1) # 20204 <rvmodel_io_write_str>
    4de8:	00000013          	addi	x0,x0,0
    4dec:	00000013          	addi	x0,x0,0
    4df0:	00000013          	addi	x0,x0,0
    4df4:	00000013          	addi	x0,x0,0
    4df8:	00000013          	addi	x0,x0,0
    4dfc:	00000013          	addi	x0,x0,0
    4e00:	0000b517          	auipc	x10,0xb
    4e04:	98c50513          	addi	x10,x10,-1652 # f78c <mstatusstr>
    4e08:	00000013          	addi	x0,x0,0
    4e0c:	00000013          	addi	x0,x0,0
    4e10:	00000013          	addi	x0,x0,0
    4e14:	00000013          	addi	x0,x0,0
    4e18:	00000013          	addi	x0,x0,0
    4e1c:	00000013          	addi	x0,x0,0
    4e20:	0001b097          	auipc	x1,0x1b
    4e24:	3e4080e7          	jalr	x1,996(x1) # 20204 <rvmodel_io_write_str>
    4e28:	0000a517          	auipc	x10,0xa
    4e2c:	2c852503          	lw	x10,712(x10) # f0f0 <saved_mstatus>
    4e30:	02000593          	addi	x11,x0,32
    4e34:	044000ef          	jal	x1,4e78 <failedtest_hex_to_str>
    4e38:	00000013          	addi	x0,x0,0
    4e3c:	00000013          	addi	x0,x0,0
    4e40:	0000a517          	auipc	x10,0xa
    4e44:	2b850513          	addi	x10,x10,696 # f0f8 <ascii_buffer>
    4e48:	00000013          	addi	x0,x0,0
    4e4c:	00000013          	addi	x0,x0,0
    4e50:	00000013          	addi	x0,x0,0
    4e54:	00000013          	addi	x0,x0,0
    4e58:	00000013          	addi	x0,x0,0
    4e5c:	00000013          	addi	x0,x0,0
    4e60:	0001b097          	auipc	x1,0x1b
    4e64:	3a4080e7          	jalr	x1,932(x1) # 20204 <rvmodel_io_write_str>
    4e68:	0000a617          	auipc	x12,0xa
    4e6c:	26860613          	addi	x12,x12,616 # f0d0 <csr_context_ret_addr>
    4e70:	00062083          	lw	x1,0(x12)
    4e74:	00008067          	jalr	x0,0(x1)

00004e78 <failedtest_hex_to_str>:
    4e78:	00000013          	addi	x0,x0,0
    4e7c:	00000013          	addi	x0,x0,0
    4e80:	0000a617          	auipc	x12,0xa
    4e84:	27860613          	addi	x12,x12,632 # f0f8 <ascii_buffer>
    4e88:	00000013          	addi	x0,x0,0
    4e8c:	00000013          	addi	x0,x0,0
    4e90:	00000013          	addi	x0,x0,0
    4e94:	00000013          	addi	x0,x0,0
    4e98:	00000013          	addi	x0,x0,0
    4e9c:	00000013          	addi	x0,x0,0
    4ea0:	03000693          	addi	x13,x0,48
    4ea4:	00d60023          	sb	x13,0(x12)
    4ea8:	07800693          	addi	x13,x0,120
    4eac:	00d600a3          	sb	x13,1(x12)
    4eb0:	00260613          	addi	x12,x12,2
    4eb4:	00058693          	addi	x13,x11,0

00004eb8 <failedtest_hex_to_str_loop>:
    4eb8:	ffc68693          	addi	x13,x13,-4
    4ebc:	00d55733          	srl	x14,x10,x13
    4ec0:	00f77713          	andi	x14,x14,15
    4ec4:	00a00793          	addi	x15,x0,10
    4ec8:	00f74663          	blt	x14,x15,4ed4 <failedtest_hex_to_str_digit>
    4ecc:	05770713          	addi	x14,x14,87
    4ed0:	0080006f          	jal	x0,4ed8 <failedtest_hex_to_str_write>

00004ed4 <failedtest_hex_to_str_digit>:
    4ed4:	03070713          	addi	x14,x14,48

00004ed8 <failedtest_hex_to_str_write>:
    4ed8:	00e60023          	sb	x14,0(x12)
    4edc:	00160613          	addi	x12,x12,1
    4ee0:	fc069ce3          	bne	x13,x0,4eb8 <failedtest_hex_to_str_loop>
    4ee4:	00a00693          	addi	x13,x0,10
    4ee8:	00d60023          	sb	x13,0(x12)
    4eec:	000600a3          	sb	x0,1(x12)
    4ef0:	00008067          	jalr	x0,0(x1)

00004ef4 <failedtest_dec_to_str>:
    4ef4:	00a00693          	addi	x13,x0,10
    4ef8:	02d54663          	blt	x10,x13,4f24 <failedtest_dec_to_str+0x30>
    4efc:	ff650513          	addi	x10,x10,-10
    4f00:	03100713          	addi	x14,x0,49
    4f04:	00d54c63          	blt	x10,x13,4f1c <failedtest_dec_to_str+0x28>
    4f08:	ff650513          	addi	x10,x10,-10
    4f0c:	03200713          	addi	x14,x0,50
    4f10:	00d54663          	blt	x10,x13,4f1c <failedtest_dec_to_str+0x28>
    4f14:	ff650513          	addi	x10,x10,-10
    4f18:	03300713          	addi	x14,x0,51
    4f1c:	00e60023          	sb	x14,0(x12)
    4f20:	00160613          	addi	x12,x12,1
    4f24:	03050513          	addi	x10,x10,48
    4f28:	00a60023          	sb	x10,0(x12)
    4f2c:	00a00693          	addi	x13,x0,10
    4f30:	00d600a3          	sb	x13,1(x12)
    4f34:	00060123          	sb	x0,2(x12)
    4f38:	00008067          	jalr	x0,0(x1)
    4f3c:	00000013          	addi	x0,x0,0

Disassembly of section .text.rvmodel:

00020000 <rvmodel_boot>:
   20000:	feedc0b7          	lui	x1,0xfeedc
   20004:	ead08093          	addi	x1,x1,-339 # feedbead <absimm+0x8f911ba4>
   20008:	01909793          	slli	x15,x1,0x19
   2000c:	0070d113          	srli	x2,x1,0x7
   20010:	00f16133          	or	x2,x2,x15
   20014:	01911793          	slli	x15,x2,0x19
   20018:	00715193          	srli	x3,x2,0x7
   2001c:	00f1e1b3          	or	x3,x3,x15
   20020:	01919793          	slli	x15,x3,0x19
   20024:	0071d213          	srli	x4,x3,0x7
   20028:	00f26233          	or	x4,x4,x15
   2002c:	01921793          	slli	x15,x4,0x19
   20030:	00725293          	srli	x5,x4,0x7
   20034:	00f2e2b3          	or	x5,x5,x15
   20038:	01929793          	slli	x15,x5,0x19
   2003c:	0072d313          	srli	x6,x5,0x7
   20040:	00f36333          	or	x6,x6,x15
   20044:	01931793          	slli	x15,x6,0x19
   20048:	00735393          	srli	x7,x6,0x7
   2004c:	00f3e3b3          	or	x7,x7,x15
   20050:	01939793          	slli	x15,x7,0x19
   20054:	0073d413          	srli	x8,x7,0x7
   20058:	00f46433          	or	x8,x8,x15
   2005c:	01941793          	slli	x15,x8,0x19
   20060:	00745493          	srli	x9,x8,0x7
   20064:	00f4e4b3          	or	x9,x9,x15
   20068:	01949793          	slli	x15,x9,0x19
   2006c:	0074d513          	srli	x10,x9,0x7
   20070:	00f56533          	or	x10,x10,x15
   20074:	01951793          	slli	x15,x10,0x19
   20078:	00755593          	srli	x11,x10,0x7
   2007c:	00f5e5b3          	or	x11,x11,x15
   20080:	01959793          	slli	x15,x11,0x19
   20084:	0075d613          	srli	x12,x11,0x7
   20088:	00f66633          	or	x12,x12,x15
   2008c:	01961793          	slli	x15,x12,0x19
   20090:	00765693          	srli	x13,x12,0x7
   20094:	00f6e6b3          	or	x13,x13,x15
   20098:	01969793          	slli	x15,x13,0x19
   2009c:	0076d713          	srli	x14,x13,0x7
   200a0:	00f76733          	or	x14,x14,x15
   200a4:	fab807b7          	lui	x15,0xfab80
   200a8:	bb678793          	addi	x15,x15,-1098 # fab7fbb6 <absimm+0x8b5b58ad>
   200ac:	7d5c0837          	lui	x16,0x7d5c0
   200b0:	ddb80813          	addi	x16,x16,-549 # 7d5bfddb <absimm+0xdff5ad2>
   200b4:	01981793          	slli	x15,x16,0x19
   200b8:	00785893          	srli	x17,x16,0x7
   200bc:	00f8e8b3          	or	x17,x17,x15
   200c0:	01989793          	slli	x15,x17,0x19
   200c4:	0078d913          	srli	x18,x17,0x7
   200c8:	00f96933          	or	x18,x18,x15
   200cc:	01991793          	slli	x15,x18,0x19
   200d0:	00795993          	srli	x19,x18,0x7
   200d4:	00f9e9b3          	or	x19,x19,x15
   200d8:	01999793          	slli	x15,x19,0x19
   200dc:	0079da13          	srli	x20,x19,0x7
   200e0:	00fa6a33          	or	x20,x20,x15
   200e4:	019a1793          	slli	x15,x20,0x19
   200e8:	007a5a93          	srli	x21,x20,0x7
   200ec:	00faeab3          	or	x21,x21,x15
   200f0:	019a9793          	slli	x15,x21,0x19
   200f4:	007adb13          	srli	x22,x21,0x7
   200f8:	00fb6b33          	or	x22,x22,x15
   200fc:	019b1793          	slli	x15,x22,0x19
   20100:	007b5b93          	srli	x23,x22,0x7
   20104:	00fbebb3          	or	x23,x23,x15
   20108:	019b9793          	slli	x15,x23,0x19
   2010c:	007bdc13          	srli	x24,x23,0x7
   20110:	00fc6c33          	or	x24,x24,x15
   20114:	019c1793          	slli	x15,x24,0x19
   20118:	007c5c93          	srli	x25,x24,0x7
   2011c:	00fcecb3          	or	x25,x25,x15
   20120:	019c9793          	slli	x15,x25,0x19
   20124:	007cdd13          	srli	x26,x25,0x7
   20128:	00fd6d33          	or	x26,x26,x15
   2012c:	019d1793          	slli	x15,x26,0x19
   20130:	007d5d93          	srli	x27,x26,0x7
   20134:	00fdedb3          	or	x27,x27,x15
   20138:	019d9793          	slli	x15,x27,0x19
   2013c:	007dde13          	srli	x28,x27,0x7
   20140:	00fe6e33          	or	x28,x28,x15
   20144:	019e1793          	slli	x15,x28,0x19
   20148:	007e5e93          	srli	x29,x28,0x7
   2014c:	00feeeb3          	or	x29,x29,x15
   20150:	019e9793          	slli	x15,x29,0x19
   20154:	007edf13          	srli	x30,x29,0x7
   20158:	00ff6f33          	or	x30,x30,x15
   2015c:	019f1793          	slli	x15,x30,0x19
   20160:	007f5f93          	srli	x31,x30,0x7
   20164:	00ffefb3          	or	x31,x31,x15
   20168:	00000013          	addi	x0,x0,0
   2016c:	00000013          	addi	x0,x0,0
   20170:	00000013          	addi	x0,x0,0
   20174:	00000013          	addi	x0,x0,0
   20178:	00000013          	addi	x0,x0,0
   2017c:	00000013          	addi	x0,x0,0
   20180:	ffff1117          	auipc	x2,0xffff1
   20184:	ab010113          	addi	x2,x2,-1360 # 10c30 <begin_signature>
   20188:	00000013          	addi	x0,x0,0
   2018c:	00000013          	addi	x0,x0,0
   20190:	00000013          	addi	x0,x0,0
   20194:	00000013          	addi	x0,x0,0
   20198:	00000013          	addi	x0,x0,0
   2019c:	00000013          	addi	x0,x0,0

000201a0 <canary_check>:
   201a0:	6f5ca337          	lui	x6,0x6f5ca
   201a4:	30930313          	addi	x6,x6,777 # 6f5ca309 <absimm>
   201a8:	00012203          	lw	x4,0(x2)
   201ac:	00620863          	beq	x4,x6,201bc <canary_check+0x1c>
   201b0:	b0ce32ef          	jal	x5,34bc <failedtest_x5_x4>
   201b4:	000201a0          	.word	0x000201a0
   201b8:	000101ac          	.word	0x000101ac
   201bc:	00410113          	addi	x2,x2,4
   201c0:	fffe8197          	auipc	x3,0xfffe8
   201c4:	f5018193          	addi	x3,x3,-176 # 8110 <rvtest_data_begin>
   201c8:	00000013          	addi	x0,x0,0
   201cc:	00000013          	addi	x0,x0,0
   201d0:	00000013          	addi	x0,x0,0
   201d4:	00000013          	addi	x0,x0,0
   201d8:	00000013          	addi	x0,x0,0
   201dc:	00000013          	addi	x0,x0,0
   201e0:	fffe0317          	auipc	x6,0xfffe0
   201e4:	e6030313          	addi	x6,x6,-416 # 40 <rvtest_code_begin>
   201e8:	00000013          	addi	x0,x0,0
   201ec:	00000013          	addi	x0,x0,0
   201f0:	00000013          	addi	x0,x0,0
   201f4:	00000013          	addi	x0,x0,0
   201f8:	00000013          	addi	x0,x0,0
   201fc:	00000013          	addi	x0,x0,0
   20200:	00030067          	jalr	x0,0(x6)

00020204 <rvmodel_io_write_str>:
   20204:	00008067          	jalr	x0,0(x1)

00020208 <rvmodel_halt_pass>:
   20208:	00000513          	addi	x10,x0,0
   2020c:	00000073          	ecall
   20210:	0000006f          	jal	x0,20210 <rvmodel_halt_pass+0x8>

00020214 <rvmodel_halt_fail>:
   20214:	00100513          	addi	x10,x0,1
   20218:	00000073          	ecall
   2021c:	0000006f          	jal	x0,2021c <rvmodel_halt_fail+0x8>
   20220:	00000013          	addi	x0,x0,0
   20224:	00000013          	addi	x0,x0,0
   20228:	00000013          	addi	x0,x0,0
   2022c:	00000013          	addi	x0,x0,0
   20230:	00000013          	addi	x0,x0,0
   20234:	00000013          	addi	x0,x0,0
   20238:	00000013          	addi	x0,x0,0
   2023c:	00000013          	addi	x0,x0,0
