
/home/dev/github/clones/riscv-arch-test/work/rv32i-core/elfs/rv32i/I/I-addi-00.elf:     file format elf32-littleriscv
/home/dev/github/clones/riscv-arch-test/work/rv32i-core/elfs/rv32i/I/I-addi-00.elf
architecture: riscv:rv32, flags 0x00000112:
EXEC_P, HAS_SYMS, D_PAGED
start address 0x00000000

Program Header:
0x70000003 off    0x0001e240 vaddr 0x00000000 paddr 0x00000000 align 2**0
         filesz 0x00000033 memsz 0x00000000 flags r--
    LOAD off    0x00001000 vaddr 0x00000000 paddr 0x00000000 align 2**12
         filesz 0x00004f40 memsz 0x00004f40 flags r-x
    LOAD off    0x00006000 vaddr 0x00008000 paddr 0x00008000 align 2**12
         filesz 0x00018240 memsz 0x00018240 flags rwx

Sections:
Idx Name          Size      VMA       LMA       File off  Algn
  0 .text.init    00000040  00000000  00000000  00001000  2**5
                  CONTENTS, ALLOC, LOAD, READONLY, CODE
  1 .text.rvtest  00004f00  00000040  00000040  00001040  2**5
                  CONTENTS, ALLOC, LOAD, READONLY, CODE
  2 .data         00017c90  00008000  00008000  00006000  2**8
                  CONTENTS, ALLOC, LOAD, DATA
  3 .text.rvmodel 00000240  00020000  00020000  0001e000  2**5
                  CONTENTS, ALLOC, LOAD, READONLY, CODE
  4 .riscv.attributes 00000033  00000000  00000000  0001e240  2**0
                  CONTENTS, READONLY
  5 .debug_line   00001adc  00000000  00000000  0001e273  2**0
                  CONTENTS, READONLY, DEBUGGING, OCTETS
  6 .debug_line_str 0000006a  00000000  00000000  0001fd4f  2**0
                  CONTENTS, READONLY, DEBUGGING, OCTETS
  7 .debug_info   00000023  00000000  00000000  0001fdb9  2**0
                  CONTENTS, READONLY, DEBUGGING, OCTETS
  8 .debug_abbrev 00000012  00000000  00000000  0001fddc  2**0
                  CONTENTS, READONLY, DEBUGGING, OCTETS
  9 .debug_aranges 00000028  00000000  00000000  0001fdf0  2**3
                  CONTENTS, READONLY, DEBUGGING, OCTETS
 10 .debug_str    00000076  00000000  00000000  0001fe18  2**0
                  CONTENTS, READONLY, DEBUGGING, OCTETS
 11 .debug_rnglists 0000001b  00000000  00000000  0001fe8e  2**0
                  CONTENTS, READONLY, DEBUGGING, OCTETS
SYMBOL TABLE:
00000000 l    d  .text.init	00000000 .text.init
00000040 l    d  .text.rvtest	00000000 .text.rvtest
00008000 l    d  .data	00000000 .data
00020000 l    d  .text.rvmodel	00000000 .text.rvmodel
00000000 l    d  .riscv.attributes	00000000 .riscv.attributes
00000000 l    d  .debug_line	00000000 .debug_line
00000000 l    d  .debug_line_str	00000000 .debug_line_str
00000000 l    d  .debug_info	00000000 .debug_info
00000000 l    d  .debug_abbrev	00000000 .debug_abbrev
00000000 l    d  .debug_aranges	00000000 .debug_aranges
00000000 l    d  .debug_str	00000000 .debug_str
00000000 l    d  .debug_rnglists	00000000 .debug_rnglists
00000000 l    df *ABS*	00000000 ccqsHD8w.o
00000003 l       *ABS*	00000000 MMODE_SIG
00000001 l       *ABS*	00000000 SMODE_SIG
00000001 l       *ABS*	00000000 HMODE_SIG
00000002 l       *ABS*	00000000 VMODE_SIG
00020000 l       .text.rvmodel	00000000 rvmodel_boot
00000048 l       .text.rvtest	00000000 I_addi_cg_cp_rs1_b0
000034bc l       .text.rvtest	00000000 failedtest_x5_x4
000086d0 l       .data	00000000 I_addi_cg_cp_rs1_b0_str
0000006c l       .text.rvtest	00000000 I_addi_cg_cp_rs1_b1
000086fe l       .data	00000000 I_addi_cg_cp_rs1_b1_str
00000094 l       .text.rvtest	00000000 I_addi_cg_cp_rs1_b2
0000872c l       .data	00000000 I_addi_cg_cp_rs1_b2_str
000000bc l       .text.rvtest	00000000 I_addi_cg_cp_rs1_b3
0000875a l       .data	00000000 I_addi_cg_cp_rs1_b3_str
000000e8 l       .text.rvtest	00000000 I_addi_cg_cp_rs1_b4
000034d4 l       .text.rvtest	00000000 failedtest_x8_x7
00008788 l       .data	00000000 I_addi_cg_cp_rs1_b4_str
0000010c l       .text.rvtest	00000000 I_addi_cg_cp_rs1_b5
000087b6 l       .data	00000000 I_addi_cg_cp_rs1_b5_str
00000130 l       .text.rvtest	00000000 I_addi_cg_cp_rs1_b6
000087e4 l       .data	00000000 I_addi_cg_cp_rs1_b6_str
0000015c l       .text.rvtest	00000000 I_addi_cg_cp_rs1_b7
000034fc l       .text.rvtest	00000000 failedtest_x14_x13
00008812 l       .data	00000000 I_addi_cg_cp_rs1_b7_str
00000180 l       .text.rvtest	00000000 I_addi_cg_cp_rs1_b8
00008840 l       .data	00000000 I_addi_cg_cp_rs1_b8_str
000001a8 l       .text.rvtest	00000000 I_addi_cg_cp_rs1_b9
0000886e l       .data	00000000 I_addi_cg_cp_rs1_b9_str
000001cc l       .text.rvtest	00000000 I_addi_cg_cp_rs1_b10
0000889d l       .data	00000000 I_addi_cg_cp_rs1_b10_str
000001f0 l       .text.rvtest	00000000 I_addi_cg_cp_rs1_b11
000088cd l       .data	00000000 I_addi_cg_cp_rs1_b11_str
00000214 l       .text.rvtest	00000000 I_addi_cg_cp_rs1_b12
000088fd l       .data	00000000 I_addi_cg_cp_rs1_b12_str
00000240 l       .text.rvtest	00000000 I_addi_cg_cp_rs1_b13
0000892d l       .data	00000000 I_addi_cg_cp_rs1_b13_str
00000264 l       .text.rvtest	00000000 I_addi_cg_cp_rs1_b14
0000895d l       .data	00000000 I_addi_cg_cp_rs1_b14_str
00000288 l       .text.rvtest	00000000 I_addi_cg_cp_rs1_b15
0000898d l       .data	00000000 I_addi_cg_cp_rs1_b15_str
000002ac l       .text.rvtest	00000000 I_addi_cg_cp_rs1_b16
000089bd l       .data	00000000 I_addi_cg_cp_rs1_b16_str
000002d0 l       .text.rvtest	00000000 I_addi_cg_cp_rs1_b17
000089ed l       .data	00000000 I_addi_cg_cp_rs1_b17_str
000002f4 l       .text.rvtest	00000000 I_addi_cg_cp_rs1_b18
00008a1d l       .data	00000000 I_addi_cg_cp_rs1_b18_str
00000318 l       .text.rvtest	00000000 I_addi_cg_cp_rs1_b19
00008a4d l       .data	00000000 I_addi_cg_cp_rs1_b19_str
0000033c l       .text.rvtest	00000000 I_addi_cg_cp_rs1_b20
00008a7d l       .data	00000000 I_addi_cg_cp_rs1_b20_str
00000360 l       .text.rvtest	00000000 I_addi_cg_cp_rs1_b21
00008aad l       .data	00000000 I_addi_cg_cp_rs1_b21_str
00000388 l       .text.rvtest	00000000 I_addi_cg_cp_rs1_b22
00008add l       .data	00000000 I_addi_cg_cp_rs1_b22_str
000003ac l       .text.rvtest	00000000 I_addi_cg_cp_rs1_b23
00008b0d l       .data	00000000 I_addi_cg_cp_rs1_b23_str
000003d0 l       .text.rvtest	00000000 I_addi_cg_cp_rs1_b24
00008b3d l       .data	00000000 I_addi_cg_cp_rs1_b24_str
000003f8 l       .text.rvtest	00000000 I_addi_cg_cp_rs1_b25
00008b6d l       .data	00000000 I_addi_cg_cp_rs1_b25_str
0000041c l       .text.rvtest	00000000 I_addi_cg_cp_rs1_b26
00008b9d l       .data	00000000 I_addi_cg_cp_rs1_b26_str
00000440 l       .text.rvtest	00000000 I_addi_cg_cp_rs1_b27
00008bcd l       .data	00000000 I_addi_cg_cp_rs1_b27_str
00000464 l       .text.rvtest	00000000 I_addi_cg_cp_rs1_b28
00008bfd l       .data	00000000 I_addi_cg_cp_rs1_b28_str
00000488 l       .text.rvtest	00000000 I_addi_cg_cp_rs1_b29
00008c2d l       .data	00000000 I_addi_cg_cp_rs1_b29_str
000004ac l       .text.rvtest	00000000 I_addi_cg_cp_rs1_b30
00008c5d l       .data	00000000 I_addi_cg_cp_rs1_b30_str
000004d0 l       .text.rvtest	00000000 I_addi_cg_cp_rs1_b31
00008c8d l       .data	00000000 I_addi_cg_cp_rs1_b31_str
000004f4 l       .text.rvtest	00000000 I_addi_cg_cp_rd_b0
00008cbd l       .data	00000000 I_addi_cg_cp_rd_b0_str
00000518 l       .text.rvtest	00000000 I_addi_cg_cp_rd_b1
00008ceb l       .data	00000000 I_addi_cg_cp_rd_b1_str
0000053c l       .text.rvtest	00000000 I_addi_cg_cp_rd_b2
00008d19 l       .data	00000000 I_addi_cg_cp_rd_b2_str
00000560 l       .text.rvtest	00000000 I_addi_cg_cp_rd_b3
00008d47 l       .data	00000000 I_addi_cg_cp_rd_b3_str
0000058c l       .text.rvtest	00000000 I_addi_cg_cp_rd_b4
00008d75 l       .data	00000000 I_addi_cg_cp_rd_b4_str
000005b0 l       .text.rvtest	00000000 I_addi_cg_cp_rd_b5
00008da3 l       .data	00000000 I_addi_cg_cp_rd_b5_str
000005d4 l       .text.rvtest	00000000 I_addi_cg_cp_rd_b6
00008dd1 l       .data	00000000 I_addi_cg_cp_rd_b6_str
000005f8 l       .text.rvtest	00000000 I_addi_cg_cp_rd_b7
00008dff l       .data	00000000 I_addi_cg_cp_rd_b7_str
0000061c l       .text.rvtest	00000000 I_addi_cg_cp_rd_b8
00008e2d l       .data	00000000 I_addi_cg_cp_rd_b8_str
00000640 l       .text.rvtest	00000000 I_addi_cg_cp_rd_b9
00008e5b l       .data	00000000 I_addi_cg_cp_rd_b9_str
00000664 l       .text.rvtest	00000000 I_addi_cg_cp_rd_b10
00008e89 l       .data	00000000 I_addi_cg_cp_rd_b10_str
00000688 l       .text.rvtest	00000000 I_addi_cg_cp_rd_b11
00008eb8 l       .data	00000000 I_addi_cg_cp_rd_b11_str
000006ac l       .text.rvtest	00000000 I_addi_cg_cp_rd_b12
00008ee7 l       .data	00000000 I_addi_cg_cp_rd_b12_str
000006d8 l       .text.rvtest	00000000 I_addi_cg_cp_rd_b13
00008f16 l       .data	00000000 I_addi_cg_cp_rd_b13_str
000006fc l       .text.rvtest	00000000 I_addi_cg_cp_rd_b14
00008f45 l       .data	00000000 I_addi_cg_cp_rd_b14_str
00000720 l       .text.rvtest	00000000 I_addi_cg_cp_rd_b15
00008f74 l       .data	00000000 I_addi_cg_cp_rd_b15_str
00000744 l       .text.rvtest	00000000 I_addi_cg_cp_rd_b16
00008fa3 l       .data	00000000 I_addi_cg_cp_rd_b16_str
0000076c l       .text.rvtest	00000000 I_addi_cg_cp_rd_b17
00008fd2 l       .data	00000000 I_addi_cg_cp_rd_b17_str
00000794 l       .text.rvtest	00000000 I_addi_cg_cp_rd_b18
00009001 l       .data	00000000 I_addi_cg_cp_rd_b18_str
000007b8 l       .text.rvtest	00000000 I_addi_cg_cp_rd_b19
00009030 l       .data	00000000 I_addi_cg_cp_rd_b19_str
000007dc l       .text.rvtest	00000000 I_addi_cg_cp_rd_b20
0000905f l       .data	00000000 I_addi_cg_cp_rd_b20_str
00000800 l       .text.rvtest	00000000 I_addi_cg_cp_rd_b21
0000908e l       .data	00000000 I_addi_cg_cp_rd_b21_str
00000824 l       .text.rvtest	00000000 I_addi_cg_cp_rd_b22
000090bd l       .data	00000000 I_addi_cg_cp_rd_b22_str
00000848 l       .text.rvtest	00000000 I_addi_cg_cp_rd_b23
000090ec l       .data	00000000 I_addi_cg_cp_rd_b23_str
0000086c l       .text.rvtest	00000000 I_addi_cg_cp_rd_b24
0000911b l       .data	00000000 I_addi_cg_cp_rd_b24_str
00000894 l       .text.rvtest	00000000 I_addi_cg_cp_rd_b25
0000914a l       .data	00000000 I_addi_cg_cp_rd_b25_str
000008bc l       .text.rvtest	00000000 I_addi_cg_cp_rd_b26
00009179 l       .data	00000000 I_addi_cg_cp_rd_b26_str
000008e0 l       .text.rvtest	00000000 I_addi_cg_cp_rd_b27
000091a8 l       .data	00000000 I_addi_cg_cp_rd_b27_str
00000904 l       .text.rvtest	00000000 I_addi_cg_cp_rd_b28
000091d7 l       .data	00000000 I_addi_cg_cp_rd_b28_str
00000928 l       .text.rvtest	00000000 I_addi_cg_cp_rd_b29
00009206 l       .data	00000000 I_addi_cg_cp_rd_b29_str
0000094c l       .text.rvtest	00000000 I_addi_cg_cp_rd_b30
00009235 l       .data	00000000 I_addi_cg_cp_rd_b30_str
00000974 l       .text.rvtest	00000000 I_addi_cg_cp_rd_b31
00009264 l       .data	00000000 I_addi_cg_cp_rd_b31_str
00000998 l       .text.rvtest	00000000 I_addi_cg_cp_rs1_edges_0x0
00009293 l       .data	00000000 I_addi_cg_cp_rs1_edges_0x0_str
000009bc l       .text.rvtest	00000000 I_addi_cg_cp_rs1_edges_0x1
000092c9 l       .data	00000000 I_addi_cg_cp_rs1_edges_0x1_str
000009e0 l       .text.rvtest	00000000 I_addi_cg_cp_rs1_edges_0x2
000092ff l       .data	00000000 I_addi_cg_cp_rs1_edges_0x2_str
00000a04 l       .text.rvtest	00000000 I_addi_cg_cp_rs1_edges_0x80000000
00009335 l       .data	00000000 I_addi_cg_cp_rs1_edges_0x80000000_str
00000a28 l       .text.rvtest	00000000 I_addi_cg_cp_rs1_edges_0x80000001
00009372 l       .data	00000000 I_addi_cg_cp_rs1_edges_0x80000001_str
00000a4c l       .text.rvtest	00000000 I_addi_cg_cp_rs1_edges_0x7fffffff
000093af l       .data	00000000 I_addi_cg_cp_rs1_edges_0x7fffffff_str
00000a70 l       .text.rvtest	00000000 I_addi_cg_cp_rs1_edges_0x7ffffffe
000093ec l       .data	00000000 I_addi_cg_cp_rs1_edges_0x7ffffffe_str
00000a94 l       .text.rvtest	00000000 I_addi_cg_cp_rs1_edges_0xffffffff
00009429 l       .data	00000000 I_addi_cg_cp_rs1_edges_0xffffffff_str
00000ab8 l       .text.rvtest	00000000 I_addi_cg_cp_rs1_edges_0xfffffffe
00009466 l       .data	00000000 I_addi_cg_cp_rs1_edges_0xfffffffe_str
00000adc l       .text.rvtest	00000000 I_addi_cg_cp_rs1_edges_0x5bbc8872
000094a3 l       .data	00000000 I_addi_cg_cp_rs1_edges_0x5bbc8872_str
00000b00 l       .text.rvtest	00000000 I_addi_cg_cp_rs1_edges_0xaaaaaaaa
000094e0 l       .data	00000000 I_addi_cg_cp_rs1_edges_0xaaaaaaaa_str
00000b24 l       .text.rvtest	00000000 I_addi_cg_cp_rs1_edges_0x55555555
0000951d l       .data	00000000 I_addi_cg_cp_rs1_edges_0x55555555_str
00000b48 l       .text.rvtest	00000000 I_addi_cg_cr_rs1_imm_edges_rs1val_0x0_immval_0x0
0000955a l       .data	00000000 I_addi_cg_cr_rs1_imm_edges_rs1val_0x0_immval_0x0_str
00000b6c l       .text.rvtest	00000000 I_addi_cg_cr_rs1_imm_edges_rs1val_0x0_immval_0x1
000095a7 l       .data	00000000 I_addi_cg_cr_rs1_imm_edges_rs1val_0x0_immval_0x1_str
00000b90 l       .text.rvtest	00000000 I_addi_cg_cr_rs1_imm_edges_rs1val_0x0_immval_0x2
000095f4 l       .data	00000000 I_addi_cg_cr_rs1_imm_edges_rs1val_0x0_immval_0x2_str
00000bb4 l       .text.rvtest	00000000 I_addi_cg_cr_rs1_imm_edges_rs1val_0x0_immval_0x3
00009641 l       .data	00000000 I_addi_cg_cr_rs1_imm_edges_rs1val_0x0_immval_0x3_str
00000bd8 l       .text.rvtest	00000000 I_addi_cg_cr_rs1_imm_edges_rs1val_0x0_immval_0x4
0000968e l       .data	00000000 I_addi_cg_cr_rs1_imm_edges_rs1val_0x0_immval_0x4_str
00000bfc l       .text.rvtest	00000000 I_addi_cg_cr_rs1_imm_edges_rs1val_0x0_immval_0x8
000096db l       .data	00000000 I_addi_cg_cr_rs1_imm_edges_rs1val_0x0_immval_0x8_str
00000c20 l       .text.rvtest	00000000 I_addi_cg_cr_rs1_imm_edges_rs1val_0x0_immval_0x10
00009728 l       .data	00000000 I_addi_cg_cr_rs1_imm_edges_rs1val_0x0_immval_0x10_str
00000c44 l       .text.rvtest	00000000 I_addi_cg_cr_rs1_imm_edges_rs1val_0x0_immval_0x20
00009776 l       .data	00000000 I_addi_cg_cr_rs1_imm_edges_rs1val_0x0_immval_0x20_str
00000c68 l       .text.rvtest	00000000 I_addi_cg_cr_rs1_imm_edges_rs1val_0x0_immval_0x40
000097c4 l       .data	00000000 I_addi_cg_cr_rs1_imm_edges_rs1val_0x0_immval_0x40_str
00000c8c l       .text.rvtest	00000000 I_addi_cg_cr_rs1_imm_edges_rs1val_0x0_immval_0x80
00009812 l       .data	00000000 I_addi_cg_cr_rs1_imm_edges_rs1val_0x0_immval_0x80_str
00000cb0 l       .text.rvtest	00000000 I_addi_cg_cr_rs1_imm_edges_rs1val_0x0_immval_0x100
00009860 l       .data	00000000 I_addi_cg_cr_rs1_imm_edges_rs1val_0x0_immval_0x100_str
00000cd4 l       .text.rvtest	00000000 I_addi_cg_cr_rs1_imm_edges_rs1val_0x0_immval_0x200
000098af l       .data	00000000 I_addi_cg_cr_rs1_imm_edges_rs1val_0x0_immval_0x200_str
00000cf8 l       .text.rvtest	00000000 I_addi_cg_cr_rs1_imm_edges_rs1val_0x0_immval_0x3ff
000098fe l       .data	00000000 I_addi_cg_cr_rs1_imm_edges_rs1val_0x0_immval_0x3ff_str
00000d1c l       .text.rvtest	00000000 I_addi_cg_cr_rs1_imm_edges_rs1val_0x0_immval_0x400
0000994d l       .data	00000000 I_addi_cg_cr_rs1_imm_edges_rs1val_0x0_immval_0x400_str
00000d40 l       .text.rvtest	00000000 I_addi_cg_cr_rs1_imm_edges_rs1val_0x0_immval_0x703
0000999c l       .data	00000000 I_addi_cg_cr_rs1_imm_edges_rs1val_0x0_immval_0x703_str
00000d64 l       .text.rvtest	00000000 I_addi_cg_cr_rs1_imm_edges_rs1val_0x0_immval_0x7ff
000099eb l       .data	00000000 I_addi_cg_cr_rs1_imm_edges_rs1val_0x0_immval_0x7ff_str
00000d88 l       .text.rvtest	00000000 I_addi_cg_cr_rs1_imm_edges_rs1val_0x0_immval_m0x800
00009a3a l       .data	00000000 I_addi_cg_cr_rs1_imm_edges_rs1val_0x0_immval_m0x800_str
00000dac l       .text.rvtest	00000000 I_addi_cg_cr_rs1_imm_edges_rs1val_0x0_immval_m0x7ff
00009a8a l       .data	00000000 I_addi_cg_cr_rs1_imm_edges_rs1val_0x0_immval_m0x7ff_str
00000dd0 l       .text.rvtest	00000000 I_addi_cg_cr_rs1_imm_edges_rs1val_0x0_immval_m0x2
00009ada l       .data	00000000 I_addi_cg_cr_rs1_imm_edges_rs1val_0x0_immval_m0x2_str
00000df4 l       .text.rvtest	00000000 I_addi_cg_cr_rs1_imm_edges_rs1val_0x0_immval_m0x1
00009b28 l       .data	00000000 I_addi_cg_cr_rs1_imm_edges_rs1val_0x0_immval_m0x1_str
00000e18 l       .text.rvtest	00000000 I_addi_cg_cr_rs1_imm_edges_rs1val_0x1_immval_0x0
00009b76 l       .data	00000000 I_addi_cg_cr_rs1_imm_edges_rs1val_0x1_immval_0x0_str
00000e3c l       .text.rvtest	00000000 I_addi_cg_cr_rs1_imm_edges_rs1val_0x1_immval_0x1
00009bc3 l       .data	00000000 I_addi_cg_cr_rs1_imm_edges_rs1val_0x1_immval_0x1_str
00000e60 l       .text.rvtest	00000000 I_addi_cg_cr_rs1_imm_edges_rs1val_0x1_immval_0x2
00009c10 l       .data	00000000 I_addi_cg_cr_rs1_imm_edges_rs1val_0x1_immval_0x2_str
00000e84 l       .text.rvtest	00000000 I_addi_cg_cr_rs1_imm_edges_rs1val_0x1_immval_0x3
00009c5d l       .data	00000000 I_addi_cg_cr_rs1_imm_edges_rs1val_0x1_immval_0x3_str
00000ea8 l       .text.rvtest	00000000 I_addi_cg_cr_rs1_imm_edges_rs1val_0x1_immval_0x4
00009cab l       .data	00000000 I_addi_cg_cr_rs1_imm_edges_rs1val_0x1_immval_0x4_str
00000ecc l       .text.rvtest	00000000 I_addi_cg_cr_rs1_imm_edges_rs1val_0x1_immval_0x8
00009cf9 l       .data	00000000 I_addi_cg_cr_rs1_imm_edges_rs1val_0x1_immval_0x8_str
00000ef0 l       .text.rvtest	00000000 I_addi_cg_cr_rs1_imm_edges_rs1val_0x1_immval_0x10
00009d47 l       .data	00000000 I_addi_cg_cr_rs1_imm_edges_rs1val_0x1_immval_0x10_str
00000f14 l       .text.rvtest	00000000 I_addi_cg_cr_rs1_imm_edges_rs1val_0x1_immval_0x20
00009d96 l       .data	00000000 I_addi_cg_cr_rs1_imm_edges_rs1val_0x1_immval_0x20_str
00000f38 l       .text.rvtest	00000000 I_addi_cg_cr_rs1_imm_edges_rs1val_0x1_immval_0x40
00009de5 l       .data	00000000 I_addi_cg_cr_rs1_imm_edges_rs1val_0x1_immval_0x40_str
00000f5c l       .text.rvtest	00000000 I_addi_cg_cr_rs1_imm_edges_rs1val_0x1_immval_0x80
00009e34 l       .data	00000000 I_addi_cg_cr_rs1_imm_edges_rs1val_0x1_immval_0x80_str
00000f80 l       .text.rvtest	00000000 I_addi_cg_cr_rs1_imm_edges_rs1val_0x1_immval_0x100
00009e83 l       .data	00000000 I_addi_cg_cr_rs1_imm_edges_rs1val_0x1_immval_0x100_str
00000fa4 l       .text.rvtest	00000000 I_addi_cg_cr_rs1_imm_edges_rs1val_0x1_immval_0x200
00009ed3 l       .data	00000000 I_addi_cg_cr_rs1_imm_edges_rs1val_0x1_immval_0x200_str
00000fc8 l       .text.rvtest	00000000 I_addi_cg_cr_rs1_imm_edges_rs1val_0x1_immval_0x3ff
00009f23 l       .data	00000000 I_addi_cg_cr_rs1_imm_edges_rs1val_0x1_immval_0x3ff_str
00000fec l       .text.rvtest	00000000 I_addi_cg_cr_rs1_imm_edges_rs1val_0x1_immval_0x400
00009f73 l       .data	00000000 I_addi_cg_cr_rs1_imm_edges_rs1val_0x1_immval_0x400_str
00001010 l       .text.rvtest	00000000 I_addi_cg_cr_rs1_imm_edges_rs1val_0x1_immval_0x703
00009fc3 l       .data	00000000 I_addi_cg_cr_rs1_imm_edges_rs1val_0x1_immval_0x703_str
00001034 l       .text.rvtest	00000000 I_addi_cg_cr_rs1_imm_edges_rs1val_0x1_immval_0x7ff
0000a013 l       .data	00000000 I_addi_cg_cr_rs1_imm_edges_rs1val_0x1_immval_0x7ff_str
00001058 l       .text.rvtest	00000000 I_addi_cg_cr_rs1_imm_edges_rs1val_0x1_immval_m0x800
0000a063 l       .data	00000000 I_addi_cg_cr_rs1_imm_edges_rs1val_0x1_immval_m0x800_str
0000107c l       .text.rvtest	00000000 I_addi_cg_cr_rs1_imm_edges_rs1val_0x1_immval_m0x7ff
0000a0b4 l       .data	00000000 I_addi_cg_cr_rs1_imm_edges_rs1val_0x1_immval_m0x7ff_str
000010a0 l       .text.rvtest	00000000 I_addi_cg_cr_rs1_imm_edges_rs1val_0x1_immval_m0x2
0000a105 l       .data	00000000 I_addi_cg_cr_rs1_imm_edges_rs1val_0x1_immval_m0x2_str
000010c4 l       .text.rvtest	00000000 I_addi_cg_cr_rs1_imm_edges_rs1val_0x1_immval_m0x1
0000a154 l       .data	00000000 I_addi_cg_cr_rs1_imm_edges_rs1val_0x1_immval_m0x1_str
000010e8 l       .text.rvtest	00000000 I_addi_cg_cr_rs1_imm_edges_rs1val_0x2_immval_0x0
0000a1a3 l       .data	00000000 I_addi_cg_cr_rs1_imm_edges_rs1val_0x2_immval_0x0_str
0000110c l       .text.rvtest	00000000 I_addi_cg_cr_rs1_imm_edges_rs1val_0x2_immval_0x1
0000a1f1 l       .data	00000000 I_addi_cg_cr_rs1_imm_edges_rs1val_0x2_immval_0x1_str
00001130 l       .text.rvtest	00000000 I_addi_cg_cr_rs1_imm_edges_rs1val_0x2_immval_0x2
0000a23f l       .data	00000000 I_addi_cg_cr_rs1_imm_edges_rs1val_0x2_immval_0x2_str
00001154 l       .text.rvtest	00000000 I_addi_cg_cr_rs1_imm_edges_rs1val_0x2_immval_0x3
0000a28d l       .data	00000000 I_addi_cg_cr_rs1_imm_edges_rs1val_0x2_immval_0x3_str
00001178 l       .text.rvtest	00000000 I_addi_cg_cr_rs1_imm_edges_rs1val_0x2_immval_0x4
0000a2db l       .data	00000000 I_addi_cg_cr_rs1_imm_edges_rs1val_0x2_immval_0x4_str
0000119c l       .text.rvtest	00000000 I_addi_cg_cr_rs1_imm_edges_rs1val_0x2_immval_0x8
0000a329 l       .data	00000000 I_addi_cg_cr_rs1_imm_edges_rs1val_0x2_immval_0x8_str
000011c0 l       .text.rvtest	00000000 I_addi_cg_cr_rs1_imm_edges_rs1val_0x2_immval_0x10
0000a377 l       .data	00000000 I_addi_cg_cr_rs1_imm_edges_rs1val_0x2_immval_0x10_str
000011e4 l       .text.rvtest	00000000 I_addi_cg_cr_rs1_imm_edges_rs1val_0x2_immval_0x20
0000a3c6 l       .data	00000000 I_addi_cg_cr_rs1_imm_edges_rs1val_0x2_immval_0x20_str
00001208 l       .text.rvtest	00000000 I_addi_cg_cr_rs1_imm_edges_rs1val_0x2_immval_0x40
0000a415 l       .data	00000000 I_addi_cg_cr_rs1_imm_edges_rs1val_0x2_immval_0x40_str
0000122c l       .text.rvtest	00000000 I_addi_cg_cr_rs1_imm_edges_rs1val_0x2_immval_0x80
0000a464 l       .data	00000000 I_addi_cg_cr_rs1_imm_edges_rs1val_0x2_immval_0x80_str
00001250 l       .text.rvtest	00000000 I_addi_cg_cr_rs1_imm_edges_rs1val_0x2_immval_0x100
0000a4b3 l       .data	00000000 I_addi_cg_cr_rs1_imm_edges_rs1val_0x2_immval_0x100_str
00001274 l       .text.rvtest	00000000 I_addi_cg_cr_rs1_imm_edges_rs1val_0x2_immval_0x200
0000a503 l       .data	00000000 I_addi_cg_cr_rs1_imm_edges_rs1val_0x2_immval_0x200_str
00001298 l       .text.rvtest	00000000 I_addi_cg_cr_rs1_imm_edges_rs1val_0x2_immval_0x3ff
0000a553 l       .data	00000000 I_addi_cg_cr_rs1_imm_edges_rs1val_0x2_immval_0x3ff_str
000012bc l       .text.rvtest	00000000 I_addi_cg_cr_rs1_imm_edges_rs1val_0x2_immval_0x400
0000a5a3 l       .data	00000000 I_addi_cg_cr_rs1_imm_edges_rs1val_0x2_immval_0x400_str
000012e0 l       .text.rvtest	00000000 I_addi_cg_cr_rs1_imm_edges_rs1val_0x2_immval_0x703
0000a5f3 l       .data	00000000 I_addi_cg_cr_rs1_imm_edges_rs1val_0x2_immval_0x703_str
00001304 l       .text.rvtest	00000000 I_addi_cg_cr_rs1_imm_edges_rs1val_0x2_immval_0x7ff
0000a643 l       .data	00000000 I_addi_cg_cr_rs1_imm_edges_rs1val_0x2_immval_0x7ff_str
00001328 l       .text.rvtest	00000000 I_addi_cg_cr_rs1_imm_edges_rs1val_0x2_immval_m0x800
0000a693 l       .data	00000000 I_addi_cg_cr_rs1_imm_edges_rs1val_0x2_immval_m0x800_str
0000134c l       .text.rvtest	00000000 I_addi_cg_cr_rs1_imm_edges_rs1val_0x2_immval_m0x7ff
0000a6e4 l       .data	00000000 I_addi_cg_cr_rs1_imm_edges_rs1val_0x2_immval_m0x7ff_str
00001370 l       .text.rvtest	00000000 I_addi_cg_cr_rs1_imm_edges_rs1val_0x2_immval_m0x2
0000a735 l       .data	00000000 I_addi_cg_cr_rs1_imm_edges_rs1val_0x2_immval_m0x2_str
00001394 l       .text.rvtest	00000000 I_addi_cg_cr_rs1_imm_edges_rs1val_0x2_immval_m0x1
0000a784 l       .data	00000000 I_addi_cg_cr_rs1_imm_edges_rs1val_0x2_immval_m0x1_str
000013b8 l       .text.rvtest	00000000 I_addi_cg_cr_rs1_imm_edges_rs1val_0x80000000_immval_0x0
0000a7d3 l       .data	00000000 I_addi_cg_cr_rs1_imm_edges_rs1val_0x80000000_immval_0x0_str
000013dc l       .text.rvtest	00000000 I_addi_cg_cr_rs1_imm_edges_rs1val_0x80000000_immval_0x1
0000a828 l       .data	00000000 I_addi_cg_cr_rs1_imm_edges_rs1val_0x80000000_immval_0x1_str
00001400 l       .text.rvtest	00000000 I_addi_cg_cr_rs1_imm_edges_rs1val_0x80000000_immval_0x2
0000a87d l       .data	00000000 I_addi_cg_cr_rs1_imm_edges_rs1val_0x80000000_immval_0x2_str
00001424 l       .text.rvtest	00000000 I_addi_cg_cr_rs1_imm_edges_rs1val_0x80000000_immval_0x3
0000a8d2 l       .data	00000000 I_addi_cg_cr_rs1_imm_edges_rs1val_0x80000000_immval_0x3_str
00001448 l       .text.rvtest	00000000 I_addi_cg_cr_rs1_imm_edges_rs1val_0x80000000_immval_0x4
0000a927 l       .data	00000000 I_addi_cg_cr_rs1_imm_edges_rs1val_0x80000000_immval_0x4_str
0000146c l       .text.rvtest	00000000 I_addi_cg_cr_rs1_imm_edges_rs1val_0x80000000_immval_0x8
0000a97c l       .data	00000000 I_addi_cg_cr_rs1_imm_edges_rs1val_0x80000000_immval_0x8_str
00001490 l       .text.rvtest	00000000 I_addi_cg_cr_rs1_imm_edges_rs1val_0x80000000_immval_0x10
0000a9d1 l       .data	00000000 I_addi_cg_cr_rs1_imm_edges_rs1val_0x80000000_immval_0x10_str
000014b4 l       .text.rvtest	00000000 I_addi_cg_cr_rs1_imm_edges_rs1val_0x80000000_immval_0x20
0000aa27 l       .data	00000000 I_addi_cg_cr_rs1_imm_edges_rs1val_0x80000000_immval_0x20_str
000014d8 l       .text.rvtest	00000000 I_addi_cg_cr_rs1_imm_edges_rs1val_0x80000000_immval_0x40
0000aa7d l       .data	00000000 I_addi_cg_cr_rs1_imm_edges_rs1val_0x80000000_immval_0x40_str
000014fc l       .text.rvtest	00000000 I_addi_cg_cr_rs1_imm_edges_rs1val_0x80000000_immval_0x80
0000aad3 l       .data	00000000 I_addi_cg_cr_rs1_imm_edges_rs1val_0x80000000_immval_0x80_str
00001520 l       .text.rvtest	00000000 I_addi_cg_cr_rs1_imm_edges_rs1val_0x80000000_immval_0x100
0000ab29 l       .data	00000000 I_addi_cg_cr_rs1_imm_edges_rs1val_0x80000000_immval_0x100_str
00001544 l       .text.rvtest	00000000 I_addi_cg_cr_rs1_imm_edges_rs1val_0x80000000_immval_0x200
0000ab80 l       .data	00000000 I_addi_cg_cr_rs1_imm_edges_rs1val_0x80000000_immval_0x200_str
00001568 l       .text.rvtest	00000000 I_addi_cg_cr_rs1_imm_edges_rs1val_0x80000000_immval_0x3ff
0000abd7 l       .data	00000000 I_addi_cg_cr_rs1_imm_edges_rs1val_0x80000000_immval_0x3ff_str
0000158c l       .text.rvtest	00000000 I_addi_cg_cr_rs1_imm_edges_rs1val_0x80000000_immval_0x400
0000ac2e l       .data	00000000 I_addi_cg_cr_rs1_imm_edges_rs1val_0x80000000_immval_0x400_str
000015b0 l       .text.rvtest	00000000 I_addi_cg_cr_rs1_imm_edges_rs1val_0x80000000_immval_0x703
0000ac85 l       .data	00000000 I_addi_cg_cr_rs1_imm_edges_rs1val_0x80000000_immval_0x703_str
000015d4 l       .text.rvtest	00000000 I_addi_cg_cr_rs1_imm_edges_rs1val_0x80000000_immval_0x7ff
0000acdc l       .data	00000000 I_addi_cg_cr_rs1_imm_edges_rs1val_0x80000000_immval_0x7ff_str
000015f8 l       .text.rvtest	00000000 I_addi_cg_cr_rs1_imm_edges_rs1val_0x80000000_immval_m0x800
0000ad33 l       .data	00000000 I_addi_cg_cr_rs1_imm_edges_rs1val_0x80000000_immval_m0x800_str
0000161c l       .text.rvtest	00000000 I_addi_cg_cr_rs1_imm_edges_rs1val_0x80000000_immval_m0x7ff
0000ad8b l       .data	00000000 I_addi_cg_cr_rs1_imm_edges_rs1val_0x80000000_immval_m0x7ff_str
00001640 l       .text.rvtest	00000000 I_addi_cg_cr_rs1_imm_edges_rs1val_0x80000000_immval_m0x2
0000ade3 l       .data	00000000 I_addi_cg_cr_rs1_imm_edges_rs1val_0x80000000_immval_m0x2_str
00001664 l       .text.rvtest	00000000 I_addi_cg_cr_rs1_imm_edges_rs1val_0x80000000_immval_m0x1
0000ae39 l       .data	00000000 I_addi_cg_cr_rs1_imm_edges_rs1val_0x80000000_immval_m0x1_str
00001688 l       .text.rvtest	00000000 I_addi_cg_cr_rs1_imm_edges_rs1val_0x80000001_immval_0x0
0000ae8f l       .data	00000000 I_addi_cg_cr_rs1_imm_edges_rs1val_0x80000001_immval_0x0_str
000016ac l       .text.rvtest	00000000 I_addi_cg_cr_rs1_imm_edges_rs1val_0x80000001_immval_0x1
0000aee4 l       .data	00000000 I_addi_cg_cr_rs1_imm_edges_rs1val_0x80000001_immval_0x1_str
000016d0 l       .text.rvtest	00000000 I_addi_cg_cr_rs1_imm_edges_rs1val_0x80000001_immval_0x2
0000af39 l       .data	00000000 I_addi_cg_cr_rs1_imm_edges_rs1val_0x80000001_immval_0x2_str
000016f4 l       .text.rvtest	00000000 I_addi_cg_cr_rs1_imm_edges_rs1val_0x80000001_immval_0x3
0000af8e l       .data	00000000 I_addi_cg_cr_rs1_imm_edges_rs1val_0x80000001_immval_0x3_str
00001718 l       .text.rvtest	00000000 I_addi_cg_cr_rs1_imm_edges_rs1val_0x80000001_immval_0x4
0000afe3 l       .data	00000000 I_addi_cg_cr_rs1_imm_edges_rs1val_0x80000001_immval_0x4_str
0000173c l       .text.rvtest	00000000 I_addi_cg_cr_rs1_imm_edges_rs1val_0x80000001_immval_0x8
0000b038 l       .data	00000000 I_addi_cg_cr_rs1_imm_edges_rs1val_0x80000001_immval_0x8_str
00001760 l       .text.rvtest	00000000 I_addi_cg_cr_rs1_imm_edges_rs1val_0x80000001_immval_0x10
0000b08d l       .data	00000000 I_addi_cg_cr_rs1_imm_edges_rs1val_0x80000001_immval_0x10_str
00001784 l       .text.rvtest	00000000 I_addi_cg_cr_rs1_imm_edges_rs1val_0x80000001_immval_0x20
0000b0e3 l       .data	00000000 I_addi_cg_cr_rs1_imm_edges_rs1val_0x80000001_immval_0x20_str
000017a8 l       .text.rvtest	00000000 I_addi_cg_cr_rs1_imm_edges_rs1val_0x80000001_immval_0x40
0000b139 l       .data	00000000 I_addi_cg_cr_rs1_imm_edges_rs1val_0x80000001_immval_0x40_str
000017cc l       .text.rvtest	00000000 I_addi_cg_cr_rs1_imm_edges_rs1val_0x80000001_immval_0x80
0000b18f l       .data	00000000 I_addi_cg_cr_rs1_imm_edges_rs1val_0x80000001_immval_0x80_str
000017f0 l       .text.rvtest	00000000 I_addi_cg_cr_rs1_imm_edges_rs1val_0x80000001_immval_0x100
0000b1e5 l       .data	00000000 I_addi_cg_cr_rs1_imm_edges_rs1val_0x80000001_immval_0x100_str
00001814 l       .text.rvtest	00000000 I_addi_cg_cr_rs1_imm_edges_rs1val_0x80000001_immval_0x200
0000b23c l       .data	00000000 I_addi_cg_cr_rs1_imm_edges_rs1val_0x80000001_immval_0x200_str
00001838 l       .text.rvtest	00000000 I_addi_cg_cr_rs1_imm_edges_rs1val_0x80000001_immval_0x3ff
0000b293 l       .data	00000000 I_addi_cg_cr_rs1_imm_edges_rs1val_0x80000001_immval_0x3ff_str
0000185c l       .text.rvtest	00000000 I_addi_cg_cr_rs1_imm_edges_rs1val_0x80000001_immval_0x400
0000b2ea l       .data	00000000 I_addi_cg_cr_rs1_imm_edges_rs1val_0x80000001_immval_0x400_str
00001880 l       .text.rvtest	00000000 I_addi_cg_cr_rs1_imm_edges_rs1val_0x80000001_immval_0x703
0000b341 l       .data	00000000 I_addi_cg_cr_rs1_imm_edges_rs1val_0x80000001_immval_0x703_str
000018a4 l       .text.rvtest	00000000 I_addi_cg_cr_rs1_imm_edges_rs1val_0x80000001_immval_0x7ff
0000b398 l       .data	00000000 I_addi_cg_cr_rs1_imm_edges_rs1val_0x80000001_immval_0x7ff_str
000018c8 l       .text.rvtest	00000000 I_addi_cg_cr_rs1_imm_edges_rs1val_0x80000001_immval_m0x800
0000b3ef l       .data	00000000 I_addi_cg_cr_rs1_imm_edges_rs1val_0x80000001_immval_m0x800_str
000018ec l       .text.rvtest	00000000 I_addi_cg_cr_rs1_imm_edges_rs1val_0x80000001_immval_m0x7ff
0000b447 l       .data	00000000 I_addi_cg_cr_rs1_imm_edges_rs1val_0x80000001_immval_m0x7ff_str
00001910 l       .text.rvtest	00000000 I_addi_cg_cr_rs1_imm_edges_rs1val_0x80000001_immval_m0x2
0000b49f l       .data	00000000 I_addi_cg_cr_rs1_imm_edges_rs1val_0x80000001_immval_m0x2_str
00001934 l       .text.rvtest	00000000 I_addi_cg_cr_rs1_imm_edges_rs1val_0x80000001_immval_m0x1
0000b4f5 l       .data	00000000 I_addi_cg_cr_rs1_imm_edges_rs1val_0x80000001_immval_m0x1_str
00001958 l       .text.rvtest	00000000 I_addi_cg_cr_rs1_imm_edges_rs1val_0x7fffffff_immval_0x0
0000b54b l       .data	00000000 I_addi_cg_cr_rs1_imm_edges_rs1val_0x7fffffff_immval_0x0_str
0000197c l       .text.rvtest	00000000 I_addi_cg_cr_rs1_imm_edges_rs1val_0x7fffffff_immval_0x1
0000b5a0 l       .data	00000000 I_addi_cg_cr_rs1_imm_edges_rs1val_0x7fffffff_immval_0x1_str
000019a0 l       .text.rvtest	00000000 I_addi_cg_cr_rs1_imm_edges_rs1val_0x7fffffff_immval_0x2
0000b5f5 l       .data	00000000 I_addi_cg_cr_rs1_imm_edges_rs1val_0x7fffffff_immval_0x2_str
000019c4 l       .text.rvtest	00000000 I_addi_cg_cr_rs1_imm_edges_rs1val_0x7fffffff_immval_0x3
0000b64a l       .data	00000000 I_addi_cg_cr_rs1_imm_edges_rs1val_0x7fffffff_immval_0x3_str
000019e8 l       .text.rvtest	00000000 I_addi_cg_cr_rs1_imm_edges_rs1val_0x7fffffff_immval_0x4
0000b69f l       .data	00000000 I_addi_cg_cr_rs1_imm_edges_rs1val_0x7fffffff_immval_0x4_str
00001a0c l       .text.rvtest	00000000 I_addi_cg_cr_rs1_imm_edges_rs1val_0x7fffffff_immval_0x8
0000b6f4 l       .data	00000000 I_addi_cg_cr_rs1_imm_edges_rs1val_0x7fffffff_immval_0x8_str
00001a30 l       .text.rvtest	00000000 I_addi_cg_cr_rs1_imm_edges_rs1val_0x7fffffff_immval_0x10
0000b749 l       .data	00000000 I_addi_cg_cr_rs1_imm_edges_rs1val_0x7fffffff_immval_0x10_str
00001a54 l       .text.rvtest	00000000 I_addi_cg_cr_rs1_imm_edges_rs1val_0x7fffffff_immval_0x20
0000b79f l       .data	00000000 I_addi_cg_cr_rs1_imm_edges_rs1val_0x7fffffff_immval_0x20_str
00001a78 l       .text.rvtest	00000000 I_addi_cg_cr_rs1_imm_edges_rs1val_0x7fffffff_immval_0x40
0000b7f5 l       .data	00000000 I_addi_cg_cr_rs1_imm_edges_rs1val_0x7fffffff_immval_0x40_str
00001a9c l       .text.rvtest	00000000 I_addi_cg_cr_rs1_imm_edges_rs1val_0x7fffffff_immval_0x80
0000b84b l       .data	00000000 I_addi_cg_cr_rs1_imm_edges_rs1val_0x7fffffff_immval_0x80_str
00001ac0 l       .text.rvtest	00000000 I_addi_cg_cr_rs1_imm_edges_rs1val_0x7fffffff_immval_0x100
0000b8a1 l       .data	00000000 I_addi_cg_cr_rs1_imm_edges_rs1val_0x7fffffff_immval_0x100_str
00001ae4 l       .text.rvtest	00000000 I_addi_cg_cr_rs1_imm_edges_rs1val_0x7fffffff_immval_0x200
0000b8f8 l       .data	00000000 I_addi_cg_cr_rs1_imm_edges_rs1val_0x7fffffff_immval_0x200_str
00001b08 l       .text.rvtest	00000000 I_addi_cg_cr_rs1_imm_edges_rs1val_0x7fffffff_immval_0x3ff
0000b94f l       .data	00000000 I_addi_cg_cr_rs1_imm_edges_rs1val_0x7fffffff_immval_0x3ff_str
00001b2c l       .text.rvtest	00000000 I_addi_cg_cr_rs1_imm_edges_rs1val_0x7fffffff_immval_0x400
0000b9a6 l       .data	00000000 I_addi_cg_cr_rs1_imm_edges_rs1val_0x7fffffff_immval_0x400_str
00001b50 l       .text.rvtest	00000000 I_addi_cg_cr_rs1_imm_edges_rs1val_0x7fffffff_immval_0x703
0000b9fd l       .data	00000000 I_addi_cg_cr_rs1_imm_edges_rs1val_0x7fffffff_immval_0x703_str
00001b74 l       .text.rvtest	00000000 I_addi_cg_cr_rs1_imm_edges_rs1val_0x7fffffff_immval_0x7ff
0000ba54 l       .data	00000000 I_addi_cg_cr_rs1_imm_edges_rs1val_0x7fffffff_immval_0x7ff_str
00001b98 l       .text.rvtest	00000000 I_addi_cg_cr_rs1_imm_edges_rs1val_0x7fffffff_immval_m0x800
0000baab l       .data	00000000 I_addi_cg_cr_rs1_imm_edges_rs1val_0x7fffffff_immval_m0x800_str
00001bbc l       .text.rvtest	00000000 I_addi_cg_cr_rs1_imm_edges_rs1val_0x7fffffff_immval_m0x7ff
0000bb03 l       .data	00000000 I_addi_cg_cr_rs1_imm_edges_rs1val_0x7fffffff_immval_m0x7ff_str
00001be0 l       .text.rvtest	00000000 I_addi_cg_cr_rs1_imm_edges_rs1val_0x7fffffff_immval_m0x2
0000bb5b l       .data	00000000 I_addi_cg_cr_rs1_imm_edges_rs1val_0x7fffffff_immval_m0x2_str
00001c04 l       .text.rvtest	00000000 I_addi_cg_cr_rs1_imm_edges_rs1val_0x7fffffff_immval_m0x1
0000bbb1 l       .data	00000000 I_addi_cg_cr_rs1_imm_edges_rs1val_0x7fffffff_immval_m0x1_str
00001c28 l       .text.rvtest	00000000 I_addi_cg_cr_rs1_imm_edges_rs1val_0x7ffffffe_immval_0x0
0000bc07 l       .data	00000000 I_addi_cg_cr_rs1_imm_edges_rs1val_0x7ffffffe_immval_0x0_str
00001c4c l       .text.rvtest	00000000 I_addi_cg_cr_rs1_imm_edges_rs1val_0x7ffffffe_immval_0x1
0000bc5c l       .data	00000000 I_addi_cg_cr_rs1_imm_edges_rs1val_0x7ffffffe_immval_0x1_str
00001c70 l       .text.rvtest	00000000 I_addi_cg_cr_rs1_imm_edges_rs1val_0x7ffffffe_immval_0x2
0000bcb1 l       .data	00000000 I_addi_cg_cr_rs1_imm_edges_rs1val_0x7ffffffe_immval_0x2_str
00001c94 l       .text.rvtest	00000000 I_addi_cg_cr_rs1_imm_edges_rs1val_0x7ffffffe_immval_0x3
0000bd06 l       .data	00000000 I_addi_cg_cr_rs1_imm_edges_rs1val_0x7ffffffe_immval_0x3_str
00001cb8 l       .text.rvtest	00000000 I_addi_cg_cr_rs1_imm_edges_rs1val_0x7ffffffe_immval_0x4
0000bd5b l       .data	00000000 I_addi_cg_cr_rs1_imm_edges_rs1val_0x7ffffffe_immval_0x4_str
00001cdc l       .text.rvtest	00000000 I_addi_cg_cr_rs1_imm_edges_rs1val_0x7ffffffe_immval_0x8
0000bdb0 l       .data	00000000 I_addi_cg_cr_rs1_imm_edges_rs1val_0x7ffffffe_immval_0x8_str
00001d00 l       .text.rvtest	00000000 I_addi_cg_cr_rs1_imm_edges_rs1val_0x7ffffffe_immval_0x10
0000be05 l       .data	00000000 I_addi_cg_cr_rs1_imm_edges_rs1val_0x7ffffffe_immval_0x10_str
00001d24 l       .text.rvtest	00000000 I_addi_cg_cr_rs1_imm_edges_rs1val_0x7ffffffe_immval_0x20
0000be5b l       .data	00000000 I_addi_cg_cr_rs1_imm_edges_rs1val_0x7ffffffe_immval_0x20_str
00001d48 l       .text.rvtest	00000000 I_addi_cg_cr_rs1_imm_edges_rs1val_0x7ffffffe_immval_0x40
0000beb1 l       .data	00000000 I_addi_cg_cr_rs1_imm_edges_rs1val_0x7ffffffe_immval_0x40_str
00001d6c l       .text.rvtest	00000000 I_addi_cg_cr_rs1_imm_edges_rs1val_0x7ffffffe_immval_0x80
0000bf07 l       .data	00000000 I_addi_cg_cr_rs1_imm_edges_rs1val_0x7ffffffe_immval_0x80_str
00001d90 l       .text.rvtest	00000000 I_addi_cg_cr_rs1_imm_edges_rs1val_0x7ffffffe_immval_0x100
0000bf5d l       .data	00000000 I_addi_cg_cr_rs1_imm_edges_rs1val_0x7ffffffe_immval_0x100_str
00001db4 l       .text.rvtest	00000000 I_addi_cg_cr_rs1_imm_edges_rs1val_0x7ffffffe_immval_0x200
0000bfb4 l       .data	00000000 I_addi_cg_cr_rs1_imm_edges_rs1val_0x7ffffffe_immval_0x200_str
00001dd8 l       .text.rvtest	00000000 I_addi_cg_cr_rs1_imm_edges_rs1val_0x7ffffffe_immval_0x3ff
0000c00b l       .data	00000000 I_addi_cg_cr_rs1_imm_edges_rs1val_0x7ffffffe_immval_0x3ff_str
00001dfc l       .text.rvtest	00000000 I_addi_cg_cr_rs1_imm_edges_rs1val_0x7ffffffe_immval_0x400
0000c062 l       .data	00000000 I_addi_cg_cr_rs1_imm_edges_rs1val_0x7ffffffe_immval_0x400_str
00001e20 l       .text.rvtest	00000000 I_addi_cg_cr_rs1_imm_edges_rs1val_0x7ffffffe_immval_0x703
0000c0b9 l       .data	00000000 I_addi_cg_cr_rs1_imm_edges_rs1val_0x7ffffffe_immval_0x703_str
00001e44 l       .text.rvtest	00000000 I_addi_cg_cr_rs1_imm_edges_rs1val_0x7ffffffe_immval_0x7ff
0000c110 l       .data	00000000 I_addi_cg_cr_rs1_imm_edges_rs1val_0x7ffffffe_immval_0x7ff_str
00001e68 l       .text.rvtest	00000000 I_addi_cg_cr_rs1_imm_edges_rs1val_0x7ffffffe_immval_m0x800
0000c167 l       .data	00000000 I_addi_cg_cr_rs1_imm_edges_rs1val_0x7ffffffe_immval_m0x800_str
00001e8c l       .text.rvtest	00000000 I_addi_cg_cr_rs1_imm_edges_rs1val_0x7ffffffe_immval_m0x7ff
0000c1bf l       .data	00000000 I_addi_cg_cr_rs1_imm_edges_rs1val_0x7ffffffe_immval_m0x7ff_str
00001eb0 l       .text.rvtest	00000000 I_addi_cg_cr_rs1_imm_edges_rs1val_0x7ffffffe_immval_m0x2
0000c217 l       .data	00000000 I_addi_cg_cr_rs1_imm_edges_rs1val_0x7ffffffe_immval_m0x2_str
00001ed4 l       .text.rvtest	00000000 I_addi_cg_cr_rs1_imm_edges_rs1val_0x7ffffffe_immval_m0x1
0000c26d l       .data	00000000 I_addi_cg_cr_rs1_imm_edges_rs1val_0x7ffffffe_immval_m0x1_str
00001ef8 l       .text.rvtest	00000000 I_addi_cg_cr_rs1_imm_edges_rs1val_0xffffffff_immval_0x0
0000c2c3 l       .data	00000000 I_addi_cg_cr_rs1_imm_edges_rs1val_0xffffffff_immval_0x0_str
00001f1c l       .text.rvtest	00000000 I_addi_cg_cr_rs1_imm_edges_rs1val_0xffffffff_immval_0x1
0000c318 l       .data	00000000 I_addi_cg_cr_rs1_imm_edges_rs1val_0xffffffff_immval_0x1_str
00001f40 l       .text.rvtest	00000000 I_addi_cg_cr_rs1_imm_edges_rs1val_0xffffffff_immval_0x2
0000c36d l       .data	00000000 I_addi_cg_cr_rs1_imm_edges_rs1val_0xffffffff_immval_0x2_str
00001f64 l       .text.rvtest	00000000 I_addi_cg_cr_rs1_imm_edges_rs1val_0xffffffff_immval_0x3
0000c3c2 l       .data	00000000 I_addi_cg_cr_rs1_imm_edges_rs1val_0xffffffff_immval_0x3_str
00001f88 l       .text.rvtest	00000000 I_addi_cg_cr_rs1_imm_edges_rs1val_0xffffffff_immval_0x4
0000c417 l       .data	00000000 I_addi_cg_cr_rs1_imm_edges_rs1val_0xffffffff_immval_0x4_str
00001fac l       .text.rvtest	00000000 I_addi_cg_cr_rs1_imm_edges_rs1val_0xffffffff_immval_0x8
0000c46c l       .data	00000000 I_addi_cg_cr_rs1_imm_edges_rs1val_0xffffffff_immval_0x8_str
00001fd0 l       .text.rvtest	00000000 I_addi_cg_cr_rs1_imm_edges_rs1val_0xffffffff_immval_0x10
0000c4c1 l       .data	00000000 I_addi_cg_cr_rs1_imm_edges_rs1val_0xffffffff_immval_0x10_str
00001ff4 l       .text.rvtest	00000000 I_addi_cg_cr_rs1_imm_edges_rs1val_0xffffffff_immval_0x20
0000c517 l       .data	00000000 I_addi_cg_cr_rs1_imm_edges_rs1val_0xffffffff_immval_0x20_str
00002018 l       .text.rvtest	00000000 I_addi_cg_cr_rs1_imm_edges_rs1val_0xffffffff_immval_0x40
0000c56d l       .data	00000000 I_addi_cg_cr_rs1_imm_edges_rs1val_0xffffffff_immval_0x40_str
0000203c l       .text.rvtest	00000000 I_addi_cg_cr_rs1_imm_edges_rs1val_0xffffffff_immval_0x80
0000c5c3 l       .data	00000000 I_addi_cg_cr_rs1_imm_edges_rs1val_0xffffffff_immval_0x80_str
00002060 l       .text.rvtest	00000000 I_addi_cg_cr_rs1_imm_edges_rs1val_0xffffffff_immval_0x100
0000c619 l       .data	00000000 I_addi_cg_cr_rs1_imm_edges_rs1val_0xffffffff_immval_0x100_str
00002084 l       .text.rvtest	00000000 I_addi_cg_cr_rs1_imm_edges_rs1val_0xffffffff_immval_0x200
0000c670 l       .data	00000000 I_addi_cg_cr_rs1_imm_edges_rs1val_0xffffffff_immval_0x200_str
000020a8 l       .text.rvtest	00000000 I_addi_cg_cr_rs1_imm_edges_rs1val_0xffffffff_immval_0x3ff
0000c6c7 l       .data	00000000 I_addi_cg_cr_rs1_imm_edges_rs1val_0xffffffff_immval_0x3ff_str
000020cc l       .text.rvtest	00000000 I_addi_cg_cr_rs1_imm_edges_rs1val_0xffffffff_immval_0x400
0000c71e l       .data	00000000 I_addi_cg_cr_rs1_imm_edges_rs1val_0xffffffff_immval_0x400_str
000020f0 l       .text.rvtest	00000000 I_addi_cg_cr_rs1_imm_edges_rs1val_0xffffffff_immval_0x703
0000c775 l       .data	00000000 I_addi_cg_cr_rs1_imm_edges_rs1val_0xffffffff_immval_0x703_str
00002114 l       .text.rvtest	00000000 I_addi_cg_cr_rs1_imm_edges_rs1val_0xffffffff_immval_0x7ff
0000c7cc l       .data	00000000 I_addi_cg_cr_rs1_imm_edges_rs1val_0xffffffff_immval_0x7ff_str
00002138 l       .text.rvtest	00000000 I_addi_cg_cr_rs1_imm_edges_rs1val_0xffffffff_immval_m0x800
0000c823 l       .data	00000000 I_addi_cg_cr_rs1_imm_edges_rs1val_0xffffffff_immval_m0x800_str
0000215c l       .text.rvtest	00000000 I_addi_cg_cr_rs1_imm_edges_rs1val_0xffffffff_immval_m0x7ff
0000c87b l       .data	00000000 I_addi_cg_cr_rs1_imm_edges_rs1val_0xffffffff_immval_m0x7ff_str
00002180 l       .text.rvtest	00000000 I_addi_cg_cr_rs1_imm_edges_rs1val_0xffffffff_immval_m0x2
0000c8d3 l       .data	00000000 I_addi_cg_cr_rs1_imm_edges_rs1val_0xffffffff_immval_m0x2_str
000021a4 l       .text.rvtest	00000000 I_addi_cg_cr_rs1_imm_edges_rs1val_0xffffffff_immval_m0x1
0000c929 l       .data	00000000 I_addi_cg_cr_rs1_imm_edges_rs1val_0xffffffff_immval_m0x1_str
000021c8 l       .text.rvtest	00000000 I_addi_cg_cr_rs1_imm_edges_rs1val_0xfffffffe_immval_0x0
0000c97f l       .data	00000000 I_addi_cg_cr_rs1_imm_edges_rs1val_0xfffffffe_immval_0x0_str
000021ec l       .text.rvtest	00000000 I_addi_cg_cr_rs1_imm_edges_rs1val_0xfffffffe_immval_0x1
0000c9d4 l       .data	00000000 I_addi_cg_cr_rs1_imm_edges_rs1val_0xfffffffe_immval_0x1_str
00002210 l       .text.rvtest	00000000 I_addi_cg_cr_rs1_imm_edges_rs1val_0xfffffffe_immval_0x2
0000ca29 l       .data	00000000 I_addi_cg_cr_rs1_imm_edges_rs1val_0xfffffffe_immval_0x2_str
00002234 l       .text.rvtest	00000000 I_addi_cg_cr_rs1_imm_edges_rs1val_0xfffffffe_immval_0x3
0000ca7e l       .data	00000000 I_addi_cg_cr_rs1_imm_edges_rs1val_0xfffffffe_immval_0x3_str
00002258 l       .text.rvtest	00000000 I_addi_cg_cr_rs1_imm_edges_rs1val_0xfffffffe_immval_0x4
0000cad3 l       .data	00000000 I_addi_cg_cr_rs1_imm_edges_rs1val_0xfffffffe_immval_0x4_str
0000227c l       .text.rvtest	00000000 I_addi_cg_cr_rs1_imm_edges_rs1val_0xfffffffe_immval_0x8
0000cb28 l       .data	00000000 I_addi_cg_cr_rs1_imm_edges_rs1val_0xfffffffe_immval_0x8_str
000022a0 l       .text.rvtest	00000000 I_addi_cg_cr_rs1_imm_edges_rs1val_0xfffffffe_immval_0x10
0000cb7d l       .data	00000000 I_addi_cg_cr_rs1_imm_edges_rs1val_0xfffffffe_immval_0x10_str
000022c4 l       .text.rvtest	00000000 I_addi_cg_cr_rs1_imm_edges_rs1val_0xfffffffe_immval_0x20
0000cbd3 l       .data	00000000 I_addi_cg_cr_rs1_imm_edges_rs1val_0xfffffffe_immval_0x20_str
000022e8 l       .text.rvtest	00000000 I_addi_cg_cr_rs1_imm_edges_rs1val_0xfffffffe_immval_0x40
0000cc29 l       .data	00000000 I_addi_cg_cr_rs1_imm_edges_rs1val_0xfffffffe_immval_0x40_str
0000230c l       .text.rvtest	00000000 I_addi_cg_cr_rs1_imm_edges_rs1val_0xfffffffe_immval_0x80
0000cc7f l       .data	00000000 I_addi_cg_cr_rs1_imm_edges_rs1val_0xfffffffe_immval_0x80_str
00002330 l       .text.rvtest	00000000 I_addi_cg_cr_rs1_imm_edges_rs1val_0xfffffffe_immval_0x100
0000ccd5 l       .data	00000000 I_addi_cg_cr_rs1_imm_edges_rs1val_0xfffffffe_immval_0x100_str
00002354 l       .text.rvtest	00000000 I_addi_cg_cr_rs1_imm_edges_rs1val_0xfffffffe_immval_0x200
0000cd2c l       .data	00000000 I_addi_cg_cr_rs1_imm_edges_rs1val_0xfffffffe_immval_0x200_str
00002378 l       .text.rvtest	00000000 I_addi_cg_cr_rs1_imm_edges_rs1val_0xfffffffe_immval_0x3ff
0000cd83 l       .data	00000000 I_addi_cg_cr_rs1_imm_edges_rs1val_0xfffffffe_immval_0x3ff_str
0000239c l       .text.rvtest	00000000 I_addi_cg_cr_rs1_imm_edges_rs1val_0xfffffffe_immval_0x400
0000cdda l       .data	00000000 I_addi_cg_cr_rs1_imm_edges_rs1val_0xfffffffe_immval_0x400_str
000023c0 l       .text.rvtest	00000000 I_addi_cg_cr_rs1_imm_edges_rs1val_0xfffffffe_immval_0x703
0000ce31 l       .data	00000000 I_addi_cg_cr_rs1_imm_edges_rs1val_0xfffffffe_immval_0x703_str
000023e4 l       .text.rvtest	00000000 I_addi_cg_cr_rs1_imm_edges_rs1val_0xfffffffe_immval_0x7ff
0000ce88 l       .data	00000000 I_addi_cg_cr_rs1_imm_edges_rs1val_0xfffffffe_immval_0x7ff_str
00002408 l       .text.rvtest	00000000 I_addi_cg_cr_rs1_imm_edges_rs1val_0xfffffffe_immval_m0x800
0000cedf l       .data	00000000 I_addi_cg_cr_rs1_imm_edges_rs1val_0xfffffffe_immval_m0x800_str
0000242c l       .text.rvtest	00000000 I_addi_cg_cr_rs1_imm_edges_rs1val_0xfffffffe_immval_m0x7ff
0000cf37 l       .data	00000000 I_addi_cg_cr_rs1_imm_edges_rs1val_0xfffffffe_immval_m0x7ff_str
00002450 l       .text.rvtest	00000000 I_addi_cg_cr_rs1_imm_edges_rs1val_0xfffffffe_immval_m0x2
0000cf8f l       .data	00000000 I_addi_cg_cr_rs1_imm_edges_rs1val_0xfffffffe_immval_m0x2_str
00002474 l       .text.rvtest	00000000 I_addi_cg_cr_rs1_imm_edges_rs1val_0xfffffffe_immval_m0x1
0000cfe5 l       .data	00000000 I_addi_cg_cr_rs1_imm_edges_rs1val_0xfffffffe_immval_m0x1_str
00002498 l       .text.rvtest	00000000 I_addi_cg_cr_rs1_imm_edges_rs1val_0x5bbc8872_immval_0x0
0000d03b l       .data	00000000 I_addi_cg_cr_rs1_imm_edges_rs1val_0x5bbc8872_immval_0x0_str
000024bc l       .text.rvtest	00000000 I_addi_cg_cr_rs1_imm_edges_rs1val_0x5bbc8872_immval_0x1
0000d090 l       .data	00000000 I_addi_cg_cr_rs1_imm_edges_rs1val_0x5bbc8872_immval_0x1_str
000024e0 l       .text.rvtest	00000000 I_addi_cg_cr_rs1_imm_edges_rs1val_0x5bbc8872_immval_0x2
0000d0e5 l       .data	00000000 I_addi_cg_cr_rs1_imm_edges_rs1val_0x5bbc8872_immval_0x2_str
00002504 l       .text.rvtest	00000000 I_addi_cg_cr_rs1_imm_edges_rs1val_0x5bbc8872_immval_0x3
0000d13a l       .data	00000000 I_addi_cg_cr_rs1_imm_edges_rs1val_0x5bbc8872_immval_0x3_str
00002528 l       .text.rvtest	00000000 I_addi_cg_cr_rs1_imm_edges_rs1val_0x5bbc8872_immval_0x4
0000d18f l       .data	00000000 I_addi_cg_cr_rs1_imm_edges_rs1val_0x5bbc8872_immval_0x4_str
0000254c l       .text.rvtest	00000000 I_addi_cg_cr_rs1_imm_edges_rs1val_0x5bbc8872_immval_0x8
0000d1e4 l       .data	00000000 I_addi_cg_cr_rs1_imm_edges_rs1val_0x5bbc8872_immval_0x8_str
00002570 l       .text.rvtest	00000000 I_addi_cg_cr_rs1_imm_edges_rs1val_0x5bbc8872_immval_0x10
0000d239 l       .data	00000000 I_addi_cg_cr_rs1_imm_edges_rs1val_0x5bbc8872_immval_0x10_str
00002594 l       .text.rvtest	00000000 I_addi_cg_cr_rs1_imm_edges_rs1val_0x5bbc8872_immval_0x20
0000d28f l       .data	00000000 I_addi_cg_cr_rs1_imm_edges_rs1val_0x5bbc8872_immval_0x20_str
000025b8 l       .text.rvtest	00000000 I_addi_cg_cr_rs1_imm_edges_rs1val_0x5bbc8872_immval_0x40
0000d2e5 l       .data	00000000 I_addi_cg_cr_rs1_imm_edges_rs1val_0x5bbc8872_immval_0x40_str
000025dc l       .text.rvtest	00000000 I_addi_cg_cr_rs1_imm_edges_rs1val_0x5bbc8872_immval_0x80
0000d33b l       .data	00000000 I_addi_cg_cr_rs1_imm_edges_rs1val_0x5bbc8872_immval_0x80_str
00002600 l       .text.rvtest	00000000 I_addi_cg_cr_rs1_imm_edges_rs1val_0x5bbc8872_immval_0x100
0000d391 l       .data	00000000 I_addi_cg_cr_rs1_imm_edges_rs1val_0x5bbc8872_immval_0x100_str
00002624 l       .text.rvtest	00000000 I_addi_cg_cr_rs1_imm_edges_rs1val_0x5bbc8872_immval_0x200
0000d3e8 l       .data	00000000 I_addi_cg_cr_rs1_imm_edges_rs1val_0x5bbc8872_immval_0x200_str
00002648 l       .text.rvtest	00000000 I_addi_cg_cr_rs1_imm_edges_rs1val_0x5bbc8872_immval_0x3ff
0000d43f l       .data	00000000 I_addi_cg_cr_rs1_imm_edges_rs1val_0x5bbc8872_immval_0x3ff_str
0000266c l       .text.rvtest	00000000 I_addi_cg_cr_rs1_imm_edges_rs1val_0x5bbc8872_immval_0x400
0000d496 l       .data	00000000 I_addi_cg_cr_rs1_imm_edges_rs1val_0x5bbc8872_immval_0x400_str
00002690 l       .text.rvtest	00000000 I_addi_cg_cr_rs1_imm_edges_rs1val_0x5bbc8872_immval_0x703
0000d4ed l       .data	00000000 I_addi_cg_cr_rs1_imm_edges_rs1val_0x5bbc8872_immval_0x703_str
000026b4 l       .text.rvtest	00000000 I_addi_cg_cr_rs1_imm_edges_rs1val_0x5bbc8872_immval_0x7ff
0000d544 l       .data	00000000 I_addi_cg_cr_rs1_imm_edges_rs1val_0x5bbc8872_immval_0x7ff_str
000026d8 l       .text.rvtest	00000000 I_addi_cg_cr_rs1_imm_edges_rs1val_0x5bbc8872_immval_m0x800
0000d59b l       .data	00000000 I_addi_cg_cr_rs1_imm_edges_rs1val_0x5bbc8872_immval_m0x800_str
000026fc l       .text.rvtest	00000000 I_addi_cg_cr_rs1_imm_edges_rs1val_0x5bbc8872_immval_m0x7ff
0000d5f3 l       .data	00000000 I_addi_cg_cr_rs1_imm_edges_rs1val_0x5bbc8872_immval_m0x7ff_str
00002720 l       .text.rvtest	00000000 I_addi_cg_cr_rs1_imm_edges_rs1val_0x5bbc8872_immval_m0x2
0000d64b l       .data	00000000 I_addi_cg_cr_rs1_imm_edges_rs1val_0x5bbc8872_immval_m0x2_str
00002744 l       .text.rvtest	00000000 I_addi_cg_cr_rs1_imm_edges_rs1val_0x5bbc8872_immval_m0x1
0000d6a1 l       .data	00000000 I_addi_cg_cr_rs1_imm_edges_rs1val_0x5bbc8872_immval_m0x1_str
00002768 l       .text.rvtest	00000000 I_addi_cg_cr_rs1_imm_edges_rs1val_0xaaaaaaaa_immval_0x0
0000d6f7 l       .data	00000000 I_addi_cg_cr_rs1_imm_edges_rs1val_0xaaaaaaaa_immval_0x0_str
0000278c l       .text.rvtest	00000000 I_addi_cg_cr_rs1_imm_edges_rs1val_0xaaaaaaaa_immval_0x1
0000d74c l       .data	00000000 I_addi_cg_cr_rs1_imm_edges_rs1val_0xaaaaaaaa_immval_0x1_str
000027b0 l       .text.rvtest	00000000 I_addi_cg_cr_rs1_imm_edges_rs1val_0xaaaaaaaa_immval_0x2
0000d7a1 l       .data	00000000 I_addi_cg_cr_rs1_imm_edges_rs1val_0xaaaaaaaa_immval_0x2_str
000027d4 l       .text.rvtest	00000000 I_addi_cg_cr_rs1_imm_edges_rs1val_0xaaaaaaaa_immval_0x3
0000d7f6 l       .data	00000000 I_addi_cg_cr_rs1_imm_edges_rs1val_0xaaaaaaaa_immval_0x3_str
000027f8 l       .text.rvtest	00000000 I_addi_cg_cr_rs1_imm_edges_rs1val_0xaaaaaaaa_immval_0x4
0000d84b l       .data	00000000 I_addi_cg_cr_rs1_imm_edges_rs1val_0xaaaaaaaa_immval_0x4_str
0000281c l       .text.rvtest	00000000 I_addi_cg_cr_rs1_imm_edges_rs1val_0xaaaaaaaa_immval_0x8
0000d8a0 l       .data	00000000 I_addi_cg_cr_rs1_imm_edges_rs1val_0xaaaaaaaa_immval_0x8_str
00002840 l       .text.rvtest	00000000 I_addi_cg_cr_rs1_imm_edges_rs1val_0xaaaaaaaa_immval_0x10
0000d8f5 l       .data	00000000 I_addi_cg_cr_rs1_imm_edges_rs1val_0xaaaaaaaa_immval_0x10_str
00002864 l       .text.rvtest	00000000 I_addi_cg_cr_rs1_imm_edges_rs1val_0xaaaaaaaa_immval_0x20
0000d94b l       .data	00000000 I_addi_cg_cr_rs1_imm_edges_rs1val_0xaaaaaaaa_immval_0x20_str
00002888 l       .text.rvtest	00000000 I_addi_cg_cr_rs1_imm_edges_rs1val_0xaaaaaaaa_immval_0x40
0000d9a1 l       .data	00000000 I_addi_cg_cr_rs1_imm_edges_rs1val_0xaaaaaaaa_immval_0x40_str
000028ac l       .text.rvtest	00000000 I_addi_cg_cr_rs1_imm_edges_rs1val_0xaaaaaaaa_immval_0x80
0000d9f7 l       .data	00000000 I_addi_cg_cr_rs1_imm_edges_rs1val_0xaaaaaaaa_immval_0x80_str
000028d0 l       .text.rvtest	00000000 I_addi_cg_cr_rs1_imm_edges_rs1val_0xaaaaaaaa_immval_0x100
0000da4d l       .data	00000000 I_addi_cg_cr_rs1_imm_edges_rs1val_0xaaaaaaaa_immval_0x100_str
000028f4 l       .text.rvtest	00000000 I_addi_cg_cr_rs1_imm_edges_rs1val_0xaaaaaaaa_immval_0x200
0000daa4 l       .data	00000000 I_addi_cg_cr_rs1_imm_edges_rs1val_0xaaaaaaaa_immval_0x200_str
00002918 l       .text.rvtest	00000000 I_addi_cg_cr_rs1_imm_edges_rs1val_0xaaaaaaaa_immval_0x3ff
0000dafb l       .data	00000000 I_addi_cg_cr_rs1_imm_edges_rs1val_0xaaaaaaaa_immval_0x3ff_str
0000293c l       .text.rvtest	00000000 I_addi_cg_cr_rs1_imm_edges_rs1val_0xaaaaaaaa_immval_0x400
0000db52 l       .data	00000000 I_addi_cg_cr_rs1_imm_edges_rs1val_0xaaaaaaaa_immval_0x400_str
00002960 l       .text.rvtest	00000000 I_addi_cg_cr_rs1_imm_edges_rs1val_0xaaaaaaaa_immval_0x703
0000dba9 l       .data	00000000 I_addi_cg_cr_rs1_imm_edges_rs1val_0xaaaaaaaa_immval_0x703_str
00002984 l       .text.rvtest	00000000 I_addi_cg_cr_rs1_imm_edges_rs1val_0xaaaaaaaa_immval_0x7ff
0000dc00 l       .data	00000000 I_addi_cg_cr_rs1_imm_edges_rs1val_0xaaaaaaaa_immval_0x7ff_str
000029a8 l       .text.rvtest	00000000 I_addi_cg_cr_rs1_imm_edges_rs1val_0xaaaaaaaa_immval_m0x800
0000dc57 l       .data	00000000 I_addi_cg_cr_rs1_imm_edges_rs1val_0xaaaaaaaa_immval_m0x800_str
000029cc l       .text.rvtest	00000000 I_addi_cg_cr_rs1_imm_edges_rs1val_0xaaaaaaaa_immval_m0x7ff
0000dcaf l       .data	00000000 I_addi_cg_cr_rs1_imm_edges_rs1val_0xaaaaaaaa_immval_m0x7ff_str
000029f0 l       .text.rvtest	00000000 I_addi_cg_cr_rs1_imm_edges_rs1val_0xaaaaaaaa_immval_m0x2
0000dd07 l       .data	00000000 I_addi_cg_cr_rs1_imm_edges_rs1val_0xaaaaaaaa_immval_m0x2_str
00002a14 l       .text.rvtest	00000000 I_addi_cg_cr_rs1_imm_edges_rs1val_0xaaaaaaaa_immval_m0x1
0000dd5d l       .data	00000000 I_addi_cg_cr_rs1_imm_edges_rs1val_0xaaaaaaaa_immval_m0x1_str
00002a38 l       .text.rvtest	00000000 I_addi_cg_cr_rs1_imm_edges_rs1val_0x55555555_immval_0x0
0000ddb3 l       .data	00000000 I_addi_cg_cr_rs1_imm_edges_rs1val_0x55555555_immval_0x0_str
00002a5c l       .text.rvtest	00000000 I_addi_cg_cr_rs1_imm_edges_rs1val_0x55555555_immval_0x1
0000de08 l       .data	00000000 I_addi_cg_cr_rs1_imm_edges_rs1val_0x55555555_immval_0x1_str
00002a80 l       .text.rvtest	00000000 I_addi_cg_cr_rs1_imm_edges_rs1val_0x55555555_immval_0x2
0000de5d l       .data	00000000 I_addi_cg_cr_rs1_imm_edges_rs1val_0x55555555_immval_0x2_str
00002aa4 l       .text.rvtest	00000000 I_addi_cg_cr_rs1_imm_edges_rs1val_0x55555555_immval_0x3
0000deb2 l       .data	00000000 I_addi_cg_cr_rs1_imm_edges_rs1val_0x55555555_immval_0x3_str
00002ac8 l       .text.rvtest	00000000 I_addi_cg_cr_rs1_imm_edges_rs1val_0x55555555_immval_0x4
0000df07 l       .data	00000000 I_addi_cg_cr_rs1_imm_edges_rs1val_0x55555555_immval_0x4_str
00002aec l       .text.rvtest	00000000 I_addi_cg_cr_rs1_imm_edges_rs1val_0x55555555_immval_0x8
0000df5c l       .data	00000000 I_addi_cg_cr_rs1_imm_edges_rs1val_0x55555555_immval_0x8_str
00002b10 l       .text.rvtest	00000000 I_addi_cg_cr_rs1_imm_edges_rs1val_0x55555555_immval_0x10
0000dfb1 l       .data	00000000 I_addi_cg_cr_rs1_imm_edges_rs1val_0x55555555_immval_0x10_str
00002b34 l       .text.rvtest	00000000 I_addi_cg_cr_rs1_imm_edges_rs1val_0x55555555_immval_0x20
0000e007 l       .data	00000000 I_addi_cg_cr_rs1_imm_edges_rs1val_0x55555555_immval_0x20_str
00002b58 l       .text.rvtest	00000000 I_addi_cg_cr_rs1_imm_edges_rs1val_0x55555555_immval_0x40
0000e05d l       .data	00000000 I_addi_cg_cr_rs1_imm_edges_rs1val_0x55555555_immval_0x40_str
00002b7c l       .text.rvtest	00000000 I_addi_cg_cr_rs1_imm_edges_rs1val_0x55555555_immval_0x80
0000e0b3 l       .data	00000000 I_addi_cg_cr_rs1_imm_edges_rs1val_0x55555555_immval_0x80_str
00002ba0 l       .text.rvtest	00000000 I_addi_cg_cr_rs1_imm_edges_rs1val_0x55555555_immval_0x100
0000e109 l       .data	00000000 I_addi_cg_cr_rs1_imm_edges_rs1val_0x55555555_immval_0x100_str
00002bc4 l       .text.rvtest	00000000 I_addi_cg_cr_rs1_imm_edges_rs1val_0x55555555_immval_0x200
0000e160 l       .data	00000000 I_addi_cg_cr_rs1_imm_edges_rs1val_0x55555555_immval_0x200_str
00002be8 l       .text.rvtest	00000000 I_addi_cg_cr_rs1_imm_edges_rs1val_0x55555555_immval_0x3ff
0000e1b7 l       .data	00000000 I_addi_cg_cr_rs1_imm_edges_rs1val_0x55555555_immval_0x3ff_str
00002c0c l       .text.rvtest	00000000 I_addi_cg_cr_rs1_imm_edges_rs1val_0x55555555_immval_0x400
0000e20e l       .data	00000000 I_addi_cg_cr_rs1_imm_edges_rs1val_0x55555555_immval_0x400_str
00002c30 l       .text.rvtest	00000000 I_addi_cg_cr_rs1_imm_edges_rs1val_0x55555555_immval_0x703
0000e265 l       .data	00000000 I_addi_cg_cr_rs1_imm_edges_rs1val_0x55555555_immval_0x703_str
00002c54 l       .text.rvtest	00000000 I_addi_cg_cr_rs1_imm_edges_rs1val_0x55555555_immval_0x7ff
0000e2bc l       .data	00000000 I_addi_cg_cr_rs1_imm_edges_rs1val_0x55555555_immval_0x7ff_str
00002c78 l       .text.rvtest	00000000 I_addi_cg_cr_rs1_imm_edges_rs1val_0x55555555_immval_m0x800
0000e313 l       .data	00000000 I_addi_cg_cr_rs1_imm_edges_rs1val_0x55555555_immval_m0x800_str
00002c9c l       .text.rvtest	00000000 I_addi_cg_cr_rs1_imm_edges_rs1val_0x55555555_immval_m0x7ff
0000e36b l       .data	00000000 I_addi_cg_cr_rs1_imm_edges_rs1val_0x55555555_immval_m0x7ff_str
00002cc0 l       .text.rvtest	00000000 I_addi_cg_cr_rs1_imm_edges_rs1val_0x55555555_immval_m0x2
0000e3c3 l       .data	00000000 I_addi_cg_cr_rs1_imm_edges_rs1val_0x55555555_immval_m0x2_str
00002ce4 l       .text.rvtest	00000000 I_addi_cg_cr_rs1_imm_edges_rs1val_0x55555555_immval_m0x1
0000e419 l       .data	00000000 I_addi_cg_cr_rs1_imm_edges_rs1val_0x55555555_immval_m0x1_str
00002d08 l       .text.rvtest	00000000 I_addi_cg_cmp_rd_rs1_b0
0000e46f l       .data	00000000 I_addi_cg_cmp_rd_rs1_b0_str
00002d2c l       .text.rvtest	00000000 I_addi_cg_cmp_rd_rs1_b1
0000e4a3 l       .data	00000000 I_addi_cg_cmp_rd_rs1_b1_str
00002d50 l       .text.rvtest	00000000 I_addi_cg_cmp_rd_rs1_b2
0000e4d7 l       .data	00000000 I_addi_cg_cmp_rd_rs1_b2_str
00002d74 l       .text.rvtest	00000000 I_addi_cg_cmp_rd_rs1_b3
0000e50b l       .data	00000000 I_addi_cg_cmp_rd_rs1_b3_str
00002d98 l       .text.rvtest	00000000 I_addi_cg_cmp_rd_rs1_b4
0000e53f l       .data	00000000 I_addi_cg_cmp_rd_rs1_b4_str
00002dbc l       .text.rvtest	00000000 I_addi_cg_cmp_rd_rs1_b5
0000e573 l       .data	00000000 I_addi_cg_cmp_rd_rs1_b5_str
00002de0 l       .text.rvtest	00000000 I_addi_cg_cmp_rd_rs1_b6
0000e5a7 l       .data	00000000 I_addi_cg_cmp_rd_rs1_b6_str
00002e0c l       .text.rvtest	00000000 I_addi_cg_cmp_rd_rs1_b7
0000e5db l       .data	00000000 I_addi_cg_cmp_rd_rs1_b7_str
00002e30 l       .text.rvtest	00000000 I_addi_cg_cmp_rd_rs1_b8
0000e60f l       .data	00000000 I_addi_cg_cmp_rd_rs1_b8_str
00002e58 l       .text.rvtest	00000000 I_addi_cg_cmp_rd_rs1_b9
0000e643 l       .data	00000000 I_addi_cg_cmp_rd_rs1_b9_str
00002e7c l       .text.rvtest	00000000 I_addi_cg_cmp_rd_rs1_b10
0000e677 l       .data	00000000 I_addi_cg_cmp_rd_rs1_b10_str
00002ea4 l       .text.rvtest	00000000 I_addi_cg_cmp_rd_rs1_b11
0000e6ac l       .data	00000000 I_addi_cg_cmp_rd_rs1_b11_str
00002ec8 l       .text.rvtest	00000000 I_addi_cg_cmp_rd_rs1_b12
0000e6e1 l       .data	00000000 I_addi_cg_cmp_rd_rs1_b12_str
00002eec l       .text.rvtest	00000000 I_addi_cg_cmp_rd_rs1_b13
0000e716 l       .data	00000000 I_addi_cg_cmp_rd_rs1_b13_str
00002f10 l       .text.rvtest	00000000 I_addi_cg_cmp_rd_rs1_b14
0000e74b l       .data	00000000 I_addi_cg_cmp_rd_rs1_b14_str
00002f34 l       .text.rvtest	00000000 I_addi_cg_cmp_rd_rs1_b15
0000e780 l       .data	00000000 I_addi_cg_cmp_rd_rs1_b15_str
00002f58 l       .text.rvtest	00000000 I_addi_cg_cmp_rd_rs1_b16
0000e7b5 l       .data	00000000 I_addi_cg_cmp_rd_rs1_b16_str
00002f7c l       .text.rvtest	00000000 I_addi_cg_cmp_rd_rs1_b17
0000e7ea l       .data	00000000 I_addi_cg_cmp_rd_rs1_b17_str
00002fa0 l       .text.rvtest	00000000 I_addi_cg_cmp_rd_rs1_b18
0000e81f l       .data	00000000 I_addi_cg_cmp_rd_rs1_b18_str
00002fc8 l       .text.rvtest	00000000 I_addi_cg_cmp_rd_rs1_b19
0000e854 l       .data	00000000 I_addi_cg_cmp_rd_rs1_b19_str
00002ff0 l       .text.rvtest	00000000 I_addi_cg_cmp_rd_rs1_b20
0000e889 l       .data	00000000 I_addi_cg_cmp_rd_rs1_b20_str
00003014 l       .text.rvtest	00000000 I_addi_cg_cmp_rd_rs1_b21
0000e8be l       .data	00000000 I_addi_cg_cmp_rd_rs1_b21_str
00003038 l       .text.rvtest	00000000 I_addi_cg_cmp_rd_rs1_b22
0000e8f3 l       .data	00000000 I_addi_cg_cmp_rd_rs1_b22_str
0000305c l       .text.rvtest	00000000 I_addi_cg_cmp_rd_rs1_b23
0000e928 l       .data	00000000 I_addi_cg_cmp_rd_rs1_b23_str
00003080 l       .text.rvtest	00000000 I_addi_cg_cmp_rd_rs1_b24
0000e95d l       .data	00000000 I_addi_cg_cmp_rd_rs1_b24_str
000030a4 l       .text.rvtest	00000000 I_addi_cg_cmp_rd_rs1_b25
0000e992 l       .data	00000000 I_addi_cg_cmp_rd_rs1_b25_str
000030c8 l       .text.rvtest	00000000 I_addi_cg_cmp_rd_rs1_b26
0000e9c7 l       .data	00000000 I_addi_cg_cmp_rd_rs1_b26_str
000030ec l       .text.rvtest	00000000 I_addi_cg_cmp_rd_rs1_b27
0000e9fc l       .data	00000000 I_addi_cg_cmp_rd_rs1_b27_str
00003110 l       .text.rvtest	00000000 I_addi_cg_cmp_rd_rs1_b28
0000ea31 l       .data	00000000 I_addi_cg_cmp_rd_rs1_b28_str
00003134 l       .text.rvtest	00000000 I_addi_cg_cmp_rd_rs1_b29
0000ea66 l       .data	00000000 I_addi_cg_cmp_rd_rs1_b29_str
00003158 l       .text.rvtest	00000000 I_addi_cg_cmp_rd_rs1_b30
0000ea9b l       .data	00000000 I_addi_cg_cmp_rd_rs1_b30_str
0000317c l       .text.rvtest	00000000 I_addi_cg_cmp_rd_rs1_b31
0000ead0 l       .data	00000000 I_addi_cg_cmp_rd_rs1_b31_str
000031a0 l       .text.rvtest	00000000 I_addi_cg_cp_imm_edges_0x0
0000eb05 l       .data	00000000 I_addi_cg_cp_imm_edges_0x0_str
000031c4 l       .text.rvtest	00000000 I_addi_cg_cp_imm_edges_0x1
0000eb3c l       .data	00000000 I_addi_cg_cp_imm_edges_0x1_str
000031e8 l       .text.rvtest	00000000 I_addi_cg_cp_imm_edges_0x2
0000eb73 l       .data	00000000 I_addi_cg_cp_imm_edges_0x2_str
0000320c l       .text.rvtest	00000000 I_addi_cg_cp_imm_edges_0x3
0000ebaa l       .data	00000000 I_addi_cg_cp_imm_edges_0x3_str
00003230 l       .text.rvtest	00000000 I_addi_cg_cp_imm_edges_0x4
0000ebe1 l       .data	00000000 I_addi_cg_cp_imm_edges_0x4_str
00003254 l       .text.rvtest	00000000 I_addi_cg_cp_imm_edges_0x8
0000ec18 l       .data	00000000 I_addi_cg_cp_imm_edges_0x8_str
00003278 l       .text.rvtest	00000000 I_addi_cg_cp_imm_edges_0x10
0000ec4f l       .data	00000000 I_addi_cg_cp_imm_edges_0x10_str
0000329c l       .text.rvtest	00000000 I_addi_cg_cp_imm_edges_0x20
0000ec87 l       .data	00000000 I_addi_cg_cp_imm_edges_0x20_str
000032c0 l       .text.rvtest	00000000 I_addi_cg_cp_imm_edges_0x40
0000ecbf l       .data	00000000 I_addi_cg_cp_imm_edges_0x40_str
000032e4 l       .text.rvtest	00000000 I_addi_cg_cp_imm_edges_0x80
0000ecf7 l       .data	00000000 I_addi_cg_cp_imm_edges_0x80_str
00003308 l       .text.rvtest	00000000 I_addi_cg_cp_imm_edges_0x100
0000ed2f l       .data	00000000 I_addi_cg_cp_imm_edges_0x100_str
0000332c l       .text.rvtest	00000000 I_addi_cg_cp_imm_edges_0x200
0000ed68 l       .data	00000000 I_addi_cg_cp_imm_edges_0x200_str
00003350 l       .text.rvtest	00000000 I_addi_cg_cp_imm_edges_0x3ff
0000eda1 l       .data	00000000 I_addi_cg_cp_imm_edges_0x3ff_str
00003374 l       .text.rvtest	00000000 I_addi_cg_cp_imm_edges_0x400
0000edda l       .data	00000000 I_addi_cg_cp_imm_edges_0x400_str
00003398 l       .text.rvtest	00000000 I_addi_cg_cp_imm_edges_0x703
0000ee13 l       .data	00000000 I_addi_cg_cp_imm_edges_0x703_str
000033bc l       .text.rvtest	00000000 I_addi_cg_cp_imm_edges_0x7ff
0000ee4c l       .data	00000000 I_addi_cg_cp_imm_edges_0x7ff_str
000033e0 l       .text.rvtest	00000000 I_addi_cg_cp_imm_edges_m0x800
0000ee85 l       .data	00000000 I_addi_cg_cp_imm_edges_m0x800_str
00003404 l       .text.rvtest	00000000 I_addi_cg_cp_imm_edges_m0x7ff
0000eebf l       .data	00000000 I_addi_cg_cp_imm_edges_m0x7ff_str
00003428 l       .text.rvtest	00000000 I_addi_cg_cp_imm_edges_m0x2
0000eef9 l       .data	00000000 I_addi_cg_cp_imm_edges_m0x2_str
0000344c l       .text.rvtest	00000000 I_addi_cg_cp_imm_edges_m0x1
0000ef31 l       .data	00000000 I_addi_cg_cp_imm_edges_m0x1_str
0000346c l       .text.rvtest	00000000 exit_cleanup
0000f5d4 l       .data	00000000 successstr
00020204 l       .text.rvmodel	00000000 rvmodel_io_write_str
00020208 l       .text.rvmodel	00000000 rvmodel_halt_pass
000034b0 l       .text.rvtest	00000000 abort_test
6f5ca309 l       *ABS*	00000000 immx
6f5ca309 l       *ABS*	00000000 absimm
00000000 l       *ABS*	00000000 cry
00000309 l       *ABS*	00000000 imm12
0000ef70 l       .data	00000000 begin_failure_scratch
00003580 l       .text.rvtest	00000000 failedtest_saveregs
00003524 l       .text.rvtest	00000000 failedtest_trap_x7_x9
0000f0e0 l       .data	00000000 saved_mcause
0000f0e8 l       .data	00000000 saved_mtval
0000f0f0 l       .data	00000000 saved_mstatus
000035f0 l       .text.rvtest	00000000 failedtest_saveresults
0000ef70 l       .data	00000000 failure_type
0000366c l       .text.rvtest	00000000 failedtest_saveresults_trap
00003600 l       .text.rvtest	00000000 failedtest_saveresults_int
00003a40 l       .text.rvtest	00000000 failedtest_saveresults_common
0000f0c8 l       .data	00000000 trap_diag_fail_str_ptr
0000f79c l       .data	00000000 trap_sig_offset_mismatch
00003920 l       .text.rvtest	00000000 trap_diag_offset_mismatch
0000f0a0 l       .data	00000000 trap_diag_subtype
0000f800 l       .data	00000000 sv_Mvect_str
000039a0 l       .text.rvtest	00000000 trap_diag_field_identified
0000f902 l       .data	00000000 sv_Mcause_str
0000f9fd l       .data	00000000 sv_Mepc_str
0000faf0 l       .data	00000000 sv_Mtval_str
0000fc63 l       .data	00000000 sv_Mip_str
0000fbe7 l       .data	00000000 sv_Mtval2_str
0000fc25 l       .data	00000000 sv_Mtinst_str
0000f840 l       .data	00000000 sv_Svect_str
0000f940 l       .data	00000000 sv_Scause_str
0000fa39 l       .data	00000000 sv_Sepc_str
0000fb2d l       .data	00000000 sv_Stval_str
0000fc9e l       .data	00000000 sv_Sip_str
0000f880 l       .data	00000000 sv_Hvect_str
0000f97e l       .data	00000000 sv_Hcause_str
0000fa75 l       .data	00000000 sv_Hepc_str
0000fb6a l       .data	00000000 sv_Htval_str
0000fcd9 l       .data	00000000 sv_Hip_str
0000f8c1 l       .data	00000000 sv_Vvect_str
0000f9bd l       .data	00000000 sv_Vcause_str
0000fab2 l       .data	00000000 sv_Vepc_str
0000fba8 l       .data	00000000 sv_Vtval_str
0000fd15 l       .data	00000000 sv_Vip_str
0000fd52 l       .data	00000000 Mclr_Mext_int_str
0000fda1 l       .data	00000000 Mclr_Sext_int_str
0000fe9c l       .data	00000000 Sclr_Sext_int_str
0000ff98 l       .data	00000000 Hclr_Sext_int_str
00003a30 l       .text.rvtest	00000000 trap_diag_generic_report
0000f0b8 l       .data	00000000 trap_diag_actual_offset
0000f0c0 l       .data	00000000 trap_diag_expected_offset
0000f0a4 l       .data	00000000 trap_diag_mode
0000f0a8 l       .data	00000000 trap_diag_actual_value
0000f0b0 l       .data	00000000 trap_diag_expected_value
00003a70 l       .text.rvtest	00000000 failedtest_report
00003a70 l       .text.rvtest	00000000 print_failstr
0000f60b l       .data	00000000 failstr
00003aa8 l       .text.rvtest	00000000 print_testnamestr
0000f69f l       .data	00000000 testnamestr
00003ae8 l       .text.rvtest	00000000 print_failure_test_name_str
0000f090 l       .data	00000000 failure_string_ptr
00003af8 l       .text.rvtest	00000000 print_newline_str
0000f6b1 l       .data	00000000 newlinestr
00003f2c l       .text.rvtest	00000000 failedtest_report_trap_detailed
0000f6b3 l       .data	00000000 inststr
0000f070 l       .data	00000000 failing_instruction
00004e78 l       .text.rvtest	00000000 failedtest_hex_to_str
0000f0f8 l       .data	00000000 ascii_buffer
0000f6c7 l       .data	00000000 addrstr
0000f078 l       .data	00000000 failing_addr
00010144 l       .data	00000000 regstr
00003cd8 l       .text.rvtest	00000000 failedtest_report_not_intreg
0000f074 l       .data	00000000 failing_reg
00004ef4 l       .text.rvtest	00000000 failedtest_dec_to_str
00003db4 l       .text.rvtest	00000000 failedtest_report_print_regstr
00003d2c l       .text.rvtest	00000000 failedtest_report_fpreg
00003d78 l       .text.rvtest	00000000 failedtest_report_vecreg
000101a4 l       .data	00000000 fflagsstr
00003de8 l       .text.rvtest	00000000 failedtest_report_after_reg
00010155 l       .data	00000000 badvalstr
00003e4c l       .text.rvtest	00000000 failedtest_report_badval_not_fp
0000f080 l       .data	00000000 failing_value
00003e5c l       .text.rvtest	00000000 failedtest_report_badval_done
0001016c l       .data	00000000 expvalstr
00003eec l       .text.rvtest	00000000 failedtest_report_expval_not_fp
0000f088 l       .data	00000000 expected_value
00003efc l       .text.rvtest	00000000 failedtest_report_expval_done
00004c24 l       .text.rvtest	00000000 failedtest_report_end
000101d0 l       .data	00000000 trap_diag_header_str
000101fc l       .data	00000000 trap_diag_origstr_label
00004000 l       .text.rvtest	00000000 trap_report_offset_mismatch
00004ab0 l       .text.rvtest	00000000 trap_report_generic
00004374 l       .text.rvtest	00000000 trap_report_field_mismatch
0001020c l       .data	00000000 trap_diag_count_mismatch_str
0001026d l       .data	00000000 trap_diag_expected_offset_str
00010294 l       .data	00000000 trap_diag_actual_offset_str
00004254 l       .text.rvtest	00000000 trap_report_missing_traps
0000413c l       .text.rvtest	00000000 trap_report_extra_traps
000102bb l       .data	00000000 trap_diag_extra_traps_str
00010340 l       .data	00000000 trap_diag_extra_bytes_str
0001036b l       .data	00000000 trap_diag_extra_hint_str
00004c70 l       .text.rvtest	00000000 failedtest_print_csr_context
000102f5 l       .data	00000000 trap_diag_missing_traps_str
00010453 l       .data	00000000 trap_diag_missing_hint_str
0001053a l       .data	00000000 trap_diag_handler_mode_str
00004404 l       .text.rvtest	00000000 trap_mode_m
00004444 l       .text.rvtest	00000000 trap_mode_s
00004484 l       .text.rvtest	00000000 trap_mode_h
000044c4 l       .text.rvtest	00000000 trap_mode_v
00010576 l       .data	00000000 trap_diag_mode_unknown_str
00004500 l       .text.rvtest	00000000 trap_mode_print
00010554 l       .data	00000000 trap_diag_mode_m_str
0001055c l       .data	00000000 trap_diag_mode_s_str
00010564 l       .data	00000000 trap_diag_mode_hs_str
0001056d l       .data	00000000 trap_diag_mode_vs_str
0001057f l       .data	00000000 trap_diag_field_str
000045c4 l       .text.rvtest	00000000 trap_field_vect
00004604 l       .text.rvtest	00000000 trap_field_cause
00004644 l       .text.rvtest	00000000 trap_field_epc
00004684 l       .text.rvtest	00000000 trap_field_tval
000046c4 l       .text.rvtest	00000000 trap_field_ip
00004704 l       .text.rvtest	00000000 trap_field_tval2
00004744 l       .text.rvtest	00000000 trap_field_tinst
00004784 l       .text.rvtest	00000000 trap_field_intid
000106d6 l       .data	00000000 trap_diag_field_unknown_str
000047c0 l       .text.rvtest	00000000 trap_field_print
00010599 l       .data	00000000 trap_diag_field_vect_str
000105ca l       .data	00000000 trap_diag_field_cause_str
000105ea l       .data	00000000 trap_diag_field_epc_str
00010608 l       .data	00000000 trap_diag_field_tval_str
00010627 l       .data	00000000 trap_diag_field_ip_str
0001064f l       .data	00000000 trap_diag_field_tval2_str
0001067b l       .data	00000000 trap_diag_field_tinst_str
000106a7 l       .data	00000000 trap_diag_field_intid_str
000106e5 l       .data	00000000 trap_diag_expected_str
000106fc l       .data	00000000 trap_diag_actual_str
0000495c l       .text.rvtest	00000000 trap_field_not_cause
00010713 l       .data	00000000 trap_diag_expected_cause_name_str
00004b94 l       .text.rvtest	00000000 trap_cause_to_str
0001072a l       .data	00000000 trap_diag_actual_cause_name_str
0000495c l       .text.rvtest	00000000 trap_field_not_epc
000107a0 l       .data	00000000 trap_diag_hint_vect_str
00010876 l       .data	00000000 trap_diag_hint_cause_str
00010969 l       .data	00000000 trap_diag_hint_epc_str
00010a64 l       .data	00000000 trap_diag_hint_tval_str
00010b4b l       .data	00000000 trap_diag_hint_ip_str
00010758 l       .data	00000000 trap_diag_generic_str
0000f0d8 l       .data	00000000 saved_mepc
0000f73b l       .data	00000000 xepcinstrstr
00004bb8 l       .text.rvtest	00000000 trap_cause_interrupt
00004b98 l       .text.rvtest	00000000 trap_cause_exception
00004be4 l       .text.rvtest	00000000 trap_cause_unknown
0000f120 l       .data	00000000 trap_excpt_name_tbl
0000f180 l       .data	00000000 trap_int_name_tbl
0000f5be l       .data	00000000 trap_cause_unknown_str
00010183 l       .data	00000000 endstr
00004c68 l       .text.rvtest	00000000 failedtest_terminate
00020214 l       .text.rvmodel	00000000 rvmodel_halt_fail
0000f0d0 l       .data	00000000 csr_context_ret_addr
0000f75c l       .data	00000000 mepcstr
0000f76c l       .data	00000000 mcausestr
0000f77c l       .data	00000000 mtvalstr
0000f78c l       .data	00000000 mstatusstr
00004eb8 l       .text.rvtest	00000000 failedtest_hex_to_str_loop
00004ed4 l       .text.rvtest	00000000 failedtest_hex_to_str_digit
00004ed8 l       .text.rvtest	00000000 failedtest_hex_to_str_write
00020000 l       .text.rvmodel	00000000 rvtest_boot_to_mmode
00020000 l       .text.rvmodel	00000000 rvtest_init_regs
00010c30 l       .data	00000000 signature_base
000201a0 l       .text.rvmodel	00000000 canary_check
000101ac l       .data	00000000 canary_mismatch
00008000 l       .data	00000000 scratch
0000f120 l       .data	00000000 end_failure_scratch
0000f1c0 l       .data	00000000 trap_excpt_name_0
0000f1e0 l       .data	00000000 trap_excpt_name_1
0000f1fa l       .data	00000000 trap_excpt_name_2
0000f20f l       .data	00000000 trap_excpt_name_3
0000f21b l       .data	00000000 trap_excpt_name_4
0000f234 l       .data	00000000 trap_excpt_name_5
0000f247 l       .data	00000000 trap_excpt_name_6
0000f265 l       .data	00000000 trap_excpt_name_7
0000f27d l       .data	00000000 trap_excpt_name_8
0000f29b l       .data	00000000 trap_excpt_name_9
0000f2b9 l       .data	00000000 trap_excpt_name_10
0000f2d8 l       .data	00000000 trap_excpt_name_11
0000f2f6 l       .data	00000000 trap_excpt_name_12
0000f30e l       .data	00000000 trap_excpt_name_13
0000f31f l       .data	00000000 trap_excpt_name_14
0000f32e l       .data	00000000 trap_excpt_name_15
0000f344 l       .data	00000000 trap_excpt_name_16
0000f351 l       .data	00000000 trap_excpt_name_17
0000f360 l       .data	00000000 trap_excpt_name_18
0000f370 l       .data	00000000 trap_excpt_name_19
0000f380 l       .data	00000000 trap_excpt_name_20
0000f39e l       .data	00000000 trap_excpt_name_21
0000f3b5 l       .data	00000000 trap_excpt_name_22
0000f3ca l       .data	00000000 trap_excpt_name_23
0000f3e6 l       .data	00000000 trap_int_name_0
0000f3fe l       .data	00000000 trap_int_name_1
0000f41d l       .data	00000000 trap_int_name_2
0000f444 l       .data	00000000 trap_int_name_3
0000f460 l       .data	00000000 trap_int_name_4
0000f478 l       .data	00000000 trap_int_name_5
0000f494 l       .data	00000000 trap_int_name_6
0000f4b8 l       .data	00000000 trap_int_name_7
0000f4d1 l       .data	00000000 trap_int_name_8
0000f4e9 l       .data	00000000 trap_int_name_9
0000f508 l       .data	00000000 trap_int_name_10
0000f52f l       .data	00000000 trap_int_name_11
0000f54b l       .data	00000000 trap_int_name_12
0000f570 l       .data	00000000 trap_int_name_13
0000f58c l       .data	00000000 trap_int_name_14
0000f5a5 l       .data	00000000 trap_int_name_15
0000f661 l       .data	00000000 abortstr
0000f708 l       .data	00000000 xepcstr
0000fdf3 l       .data	00000000 Mclr_Vext_int_str
0000fe4d l       .data	00000000 Sclr_Mext_int_str
0000feee l       .data	00000000 Sclr_Vext_int_str
0000ff48 l       .data	00000000 Hclr_Mext_int_str
0000ffeb l       .data	00000000 Hclr_Vext_int_str
00010046 l       .data	00000000 Vclr_Mext_int_str
00010096 l       .data	00000000 Vclr_Sext_int_str
000100e9 l       .data	00000000 Vclr_Vext_int_str
00010741 l       .data	00000000 trap_diag_curr_xepc_str
00011220 l       .data	00000000 trap_sigptr
0001fc90 g       .data	00000000 end_signature
0001fc90 g       .data	00000000 rvtest_sig_end
00000000 g       .text.init	00000000 rvtest_entry_point
00010c30 g       .data	00000000 begin_signature
0000346c g       .text.rvtest	00000000 rvtest_code_end
00000040 g       .text.rvtest	00000000 rvtest_code_begin
00010c30 g       .data	00000000 rvtest_sig_begin
00008110 g       .data	00000000 rvtest_data_begin
00010c30 g       .data	00000000 rvtest_data_end
0000346c g       .text.rvtest	00000000 cleanup_epilogs
00021000 g       .text.rvmodel	00000000 _end



Disassembly of section .text.init:

00000000 <rvtest_entry_point>:

// Include framework macros
#include "riscv_arch_test.h"

// Set up test environment and declare main entry point
RVTEST_BEGIN
   0:	00020097          	auipc	x1,0x20
   4:	00008093          	addi	x1,x1,0 # 20000 <rvmodel_boot>
   8:	00000013          	addi	x0,x0,0
   c:	00000013          	addi	x0,x0,0
  10:	00000013          	addi	x0,x0,0
  14:	00000013          	addi	x0,x0,0
  18:	00000013          	addi	x0,x0,0
  1c:	00000013          	addi	x0,x0,0
  20:	000080e7          	jalr	x1,0(x1)
  24:	00000013          	addi	x0,x0,0
  28:	00000013          	addi	x0,x0,0
  2c:	00000013          	addi	x0,x0,0
  30:	00000013          	addi	x0,x0,0
  34:	00000013          	addi	x0,x0,0
  38:	00000013          	addi	x0,x0,0
  3c:	00000013          	addi	x0,x0,0

Disassembly of section .text.rvtest:

00000040 <rvtest_code_begin>:
/////////////////////////////////
// cp_rs1
/////////////////////////////////

# Testcase cp_rs1 (Test source rs1 = x0)
  RVTEST_TESTDATA_LOAD_INT(x3, x0) # load rs1: x0 = 0x05245fd3
      40:	0001a003          	lw	x0,0(x3)
      44:	00418193          	addi	x3,x3,4

00000048 <I_addi_cg_cp_rs1_b0>:
I_addi_cg_cp_rs1_b0:
  addi x8, x0, 764 # perform operation
      48:	2fc00413          	addi	x8,x0,764
  # Check if x8 contains the expected result. x2 is the signature ptr, x5 is the link ptr, x4 is a temp reg.
  RVTEST_SIGUPD(x2, x5, x4, x8, I_addi_cg_cp_rs1_b0, I_addi_cg_cp_rs1_b0_str)
      4c:	00012203          	lw	x4,0(x2)
      50:	00820863          	beq	x4,x8,60 <I_addi_cg_cp_rs1_b0+0x18>
      54:	468032ef          	jal	x5,34bc <failedtest_x5_x4>
      58:	00000048          	.word	0x00000048
      5c:	000086d0          	.word	0x000086d0
      60:	00410113          	addi	x2,x2,4

# Testcase cp_rs1 (Test source rs1 = x1)
  RVTEST_TESTDATA_LOAD_INT(x3, x1) # load rs1: x1 = 0x18b7f774
      64:	0001a083          	lw	x1,0(x3)
      68:	00418193          	addi	x3,x3,4

0000006c <I_addi_cg_cp_rs1_b1>:
I_addi_cg_cp_rs1_b1:
  addi x6, x1, -293 # perform operation
      6c:	edb08313          	addi	x6,x1,-293
  # Check if x6 contains the expected result. x2 is the signature ptr, x5 is the link ptr, x4 is a temp reg.
  RVTEST_SIGUPD(x2, x5, x4, x6, I_addi_cg_cp_rs1_b1, I_addi_cg_cp_rs1_b1_str)
      70:	00012203          	lw	x4,0(x2)
      74:	00620863          	beq	x4,x6,84 <I_addi_cg_cp_rs1_b1+0x18>
      78:	444032ef          	jal	x5,34bc <failedtest_x5_x4>
      7c:	0000006c          	.word	0x0000006c
      80:	000086fe          	.word	0x000086fe
      84:	00410113          	addi	x2,x2,4

  mv x25, x2 # switch signature pointer register to avoid conflict with test
      88:	00010c93          	addi	x25,x2,0
# Testcase cp_rs1 (Test source rs1 = x2)
  RVTEST_TESTDATA_LOAD_INT(x3, x2) # load rs1: x2 = 0x0aa06323
      8c:	0001a103          	lw	x2,0(x3)
      90:	00418193          	addi	x3,x3,4

00000094 <I_addi_cg_cp_rs1_b2>:
I_addi_cg_cp_rs1_b2:
  addi x8, x2, 1693 # perform operation
      94:	69d10413          	addi	x8,x2,1693
  # Check if x8 contains the expected result. x25 is the signature ptr, x5 is the link ptr, x4 is a temp reg.
  RVTEST_SIGUPD(x25, x5, x4, x8, I_addi_cg_cp_rs1_b2, I_addi_cg_cp_rs1_b2_str)
      98:	000ca203          	lw	x4,0(x25)
      9c:	00820863          	beq	x4,x8,ac <I_addi_cg_cp_rs1_b2+0x18>
      a0:	41c032ef          	jal	x5,34bc <failedtest_x5_x4>
      a4:	00000094          	.word	0x00000094
      a8:	0000872c          	.word	0x0000872c
      ac:	004c8c93          	addi	x25,x25,4

  mv x9, x3 # switch data pointer register to avoid conflict with test
      b0:	00018493          	addi	x9,x3,0
# Testcase cp_rs1 (Test source rs1 = x3)
  RVTEST_TESTDATA_LOAD_INT(x9, x3) # load rs1: x3 = 0x9cf1ef82
      b4:	0004a183          	lw	x3,0(x9)
      b8:	00448493          	addi	x9,x9,4

000000bc <I_addi_cg_cp_rs1_b3>:
I_addi_cg_cp_rs1_b3:
  addi x22, x3, 1260 # perform operation
      bc:	4ec18b13          	addi	x22,x3,1260
  # Check if x22 contains the expected result. x25 is the signature ptr, x5 is the link ptr, x4 is a temp reg.
  RVTEST_SIGUPD(x25, x5, x4, x22, I_addi_cg_cp_rs1_b3, I_addi_cg_cp_rs1_b3_str)
      c0:	000ca203          	lw	x4,0(x25)
      c4:	01620863          	beq	x4,x22,d4 <I_addi_cg_cp_rs1_b3+0x18>
      c8:	3f4032ef          	jal	x5,34bc <failedtest_x5_x4>
      cc:	000000bc          	.word	0x000000bc
      d0:	0000875a          	.word	0x0000875a
      d4:	004c8c93          	addi	x25,x25,4

  mv x7, x4 # switch temp register to avoid conflict with test
      d8:	00020393          	addi	x7,x4,0 # 0 <rvtest_entry_point>
  mv x8, x5 # switch link pointer register to avoid conflict with test
      dc:	00028413          	addi	x8,x5,0
# Testcase cp_rs1 (Test source rs1 = x4)
  RVTEST_TESTDATA_LOAD_INT(x9, x4) # load rs1: x4 = 0xca7af0fe
      e0:	0004a203          	lw	x4,0(x9)
      e4:	00448493          	addi	x9,x9,4

000000e8 <I_addi_cg_cp_rs1_b4>:
I_addi_cg_cp_rs1_b4:
  addi x3, x4, 675 # perform operation
      e8:	2a320193          	addi	x3,x4,675 # 2a3 <I_addi_cg_cp_rs1_b15+0x1b>
  # Check if x3 contains the expected result. x25 is the signature ptr, x8 is the link ptr, x7 is a temp reg.
  RVTEST_SIGUPD(x25, x8, x7, x3, I_addi_cg_cp_rs1_b4, I_addi_cg_cp_rs1_b4_str)
      ec:	000ca383          	lw	x7,0(x25)
      f0:	00338863          	beq	x7,x3,100 <I_addi_cg_cp_rs1_b4+0x18>
      f4:	3e00346f          	jal	x8,34d4 <failedtest_x8_x7>
      f8:	000000e8          	.word	0x000000e8
      fc:	00008788          	.word	0x00008788
     100:	004c8c93          	addi	x25,x25,4

# Testcase cp_rs1 (Test source rs1 = x5)
  RVTEST_TESTDATA_LOAD_INT(x9, x5) # load rs1: x5 = 0x1bb0bef9
     104:	0004a283          	lw	x5,0(x9)
     108:	00448493          	addi	x9,x9,4

0000010c <I_addi_cg_cp_rs1_b5>:
I_addi_cg_cp_rs1_b5:
  addi x20, x5, 49 # perform operation
     10c:	03128a13          	addi	x20,x5,49
  # Check if x20 contains the expected result. x25 is the signature ptr, x8 is the link ptr, x7 is a temp reg.
  RVTEST_SIGUPD(x25, x8, x7, x20, I_addi_cg_cp_rs1_b5, I_addi_cg_cp_rs1_b5_str)
     110:	000ca383          	lw	x7,0(x25)
     114:	01438863          	beq	x7,x20,124 <I_addi_cg_cp_rs1_b5+0x18>
     118:	3bc0346f          	jal	x8,34d4 <failedtest_x8_x7>
     11c:	0000010c          	.word	0x0000010c
     120:	000087b6          	.word	0x000087b6
     124:	004c8c93          	addi	x25,x25,4

# Testcase cp_rs1 (Test source rs1 = x6)
  RVTEST_TESTDATA_LOAD_INT(x9, x6) # load rs1: x6 = 0xb7bc3f7f
     128:	0004a303          	lw	x6,0(x9)
     12c:	00448493          	addi	x9,x9,4

00000130 <I_addi_cg_cp_rs1_b6>:
I_addi_cg_cp_rs1_b6:
  addi x23, x6, -1418 # perform operation
     130:	a7630b93          	addi	x23,x6,-1418
  # Check if x23 contains the expected result. x25 is the signature ptr, x8 is the link ptr, x7 is a temp reg.
  RVTEST_SIGUPD(x25, x8, x7, x23, I_addi_cg_cp_rs1_b6, I_addi_cg_cp_rs1_b6_str)
     134:	000ca383          	lw	x7,0(x25)
     138:	01738863          	beq	x7,x23,148 <I_addi_cg_cp_rs1_b6+0x18>
     13c:	3980346f          	jal	x8,34d4 <failedtest_x8_x7>
     140:	00000130          	.word	0x00000130
     144:	000087e4          	.word	0x000087e4
     148:	004c8c93          	addi	x25,x25,4

  mv x13, x7 # switch temp register to avoid conflict with test
     14c:	00038693          	addi	x13,x7,0
  mv x14, x8 # switch link pointer register to avoid conflict with test
     150:	00040713          	addi	x14,x8,0
# Testcase cp_rs1 (Test source rs1 = x7)
  RVTEST_TESTDATA_LOAD_INT(x9, x7) # load rs1: x7 = 0x26c79a1a
     154:	0004a383          	lw	x7,0(x9)
     158:	00448493          	addi	x9,x9,4

0000015c <I_addi_cg_cp_rs1_b7>:
I_addi_cg_cp_rs1_b7:
  addi x1, x7, 1871 # perform operation
     15c:	74f38093          	addi	x1,x7,1871
  # Check if x1 contains the expected result. x25 is the signature ptr, x14 is the link ptr, x13 is a temp reg.
  RVTEST_SIGUPD(x25, x14, x13, x1, I_addi_cg_cp_rs1_b7, I_addi_cg_cp_rs1_b7_str)
     160:	000ca683          	lw	x13,0(x25)
     164:	00168863          	beq	x13,x1,174 <I_addi_cg_cp_rs1_b7+0x18>
     168:	3940376f          	jal	x14,34fc <failedtest_x14_x13>
     16c:	0000015c          	.word	0x0000015c
     170:	00008812          	.word	0x00008812
     174:	004c8c93          	addi	x25,x25,4

# Testcase cp_rs1 (Test source rs1 = x8)
  RVTEST_TESTDATA_LOAD_INT(x9, x8) # load rs1: x8 = 0x9b60f168
     178:	0004a403          	lw	x8,0(x9)
     17c:	00448493          	addi	x9,x9,4

00000180 <I_addi_cg_cp_rs1_b8>:
I_addi_cg_cp_rs1_b8:
  addi x28, x8, 1301 # perform operation
     180:	51540e13          	addi	x28,x8,1301
  # Check if x28 contains the expected result. x25 is the signature ptr, x14 is the link ptr, x13 is a temp reg.
  RVTEST_SIGUPD(x25, x14, x13, x28, I_addi_cg_cp_rs1_b8, I_addi_cg_cp_rs1_b8_str)
     184:	000ca683          	lw	x13,0(x25)
     188:	01c68863          	beq	x13,x28,198 <I_addi_cg_cp_rs1_b8+0x18>
     18c:	3700376f          	jal	x14,34fc <failedtest_x14_x13>
     190:	00000180          	.word	0x00000180
     194:	00008840          	.word	0x00008840
     198:	004c8c93          	addi	x25,x25,4

  mv x22, x9 # switch data pointer register to avoid conflict with test
     19c:	00048b13          	addi	x22,x9,0
# Testcase cp_rs1 (Test source rs1 = x9)
  RVTEST_TESTDATA_LOAD_INT(x22, x9) # load rs1: x9 = 0xb24f11ba
     1a0:	000b2483          	lw	x9,0(x22)
     1a4:	004b0b13          	addi	x22,x22,4

000001a8 <I_addi_cg_cp_rs1_b9>:
I_addi_cg_cp_rs1_b9:
  addi x10, x9, 59 # perform operation
     1a8:	03b48513          	addi	x10,x9,59
  # Check if x10 contains the expected result. x25 is the signature ptr, x14 is the link ptr, x13 is a temp reg.
  RVTEST_SIGUPD(x25, x14, x13, x10, I_addi_cg_cp_rs1_b9, I_addi_cg_cp_rs1_b9_str)
     1ac:	000ca683          	lw	x13,0(x25)
     1b0:	00a68863          	beq	x13,x10,1c0 <I_addi_cg_cp_rs1_b9+0x18>
     1b4:	3480376f          	jal	x14,34fc <failedtest_x14_x13>
     1b8:	000001a8          	.word	0x000001a8
     1bc:	0000886e          	.word	0x0000886e
     1c0:	004c8c93          	addi	x25,x25,4

# Testcase cp_rs1 (Test source rs1 = x10)
  RVTEST_TESTDATA_LOAD_INT(x22, x10) # load rs1: x10 = 0x40f11b39
     1c4:	000b2503          	lw	x10,0(x22)
     1c8:	004b0b13          	addi	x22,x22,4

000001cc <I_addi_cg_cp_rs1_b10>:
I_addi_cg_cp_rs1_b10:
  addi x16, x10, -1005 # perform operation
     1cc:	c1350813          	addi	x16,x10,-1005
  # Check if x16 contains the expected result. x25 is the signature ptr, x14 is the link ptr, x13 is a temp reg.
  RVTEST_SIGUPD(x25, x14, x13, x16, I_addi_cg_cp_rs1_b10, I_addi_cg_cp_rs1_b10_str)
     1d0:	000ca683          	lw	x13,0(x25)
     1d4:	01068863          	beq	x13,x16,1e4 <I_addi_cg_cp_rs1_b10+0x18>
     1d8:	3240376f          	jal	x14,34fc <failedtest_x14_x13>
     1dc:	000001cc          	.word	0x000001cc
     1e0:	0000889d          	.word	0x0000889d
     1e4:	004c8c93          	addi	x25,x25,4

# Testcase cp_rs1 (Test source rs1 = x11)
  RVTEST_TESTDATA_LOAD_INT(x22, x11) # load rs1: x11 = 0xa00cbc8d
     1e8:	000b2583          	lw	x11,0(x22)
     1ec:	004b0b13          	addi	x22,x22,4

000001f0 <I_addi_cg_cp_rs1_b11>:
I_addi_cg_cp_rs1_b11:
  addi x28, x11, 818 # perform operation
     1f0:	33258e13          	addi	x28,x11,818
  # Check if x28 contains the expected result. x25 is the signature ptr, x14 is the link ptr, x13 is a temp reg.
  RVTEST_SIGUPD(x25, x14, x13, x28, I_addi_cg_cp_rs1_b11, I_addi_cg_cp_rs1_b11_str)
     1f4:	000ca683          	lw	x13,0(x25)
     1f8:	01c68863          	beq	x13,x28,208 <I_addi_cg_cp_rs1_b11+0x18>
     1fc:	3000376f          	jal	x14,34fc <failedtest_x14_x13>
     200:	000001f0          	.word	0x000001f0
     204:	000088cd          	.word	0x000088cd
     208:	004c8c93          	addi	x25,x25,4

# Testcase cp_rs1 (Test source rs1 = x12)
  RVTEST_TESTDATA_LOAD_INT(x22, x12) # load rs1: x12 = 0x75750ad6
     20c:	000b2603          	lw	x12,0(x22)
     210:	004b0b13          	addi	x22,x22,4

00000214 <I_addi_cg_cp_rs1_b12>:
I_addi_cg_cp_rs1_b12:
  addi x18, x12, 1325 # perform operation
     214:	52d60913          	addi	x18,x12,1325
  # Check if x18 contains the expected result. x25 is the signature ptr, x14 is the link ptr, x13 is a temp reg.
  RVTEST_SIGUPD(x25, x14, x13, x18, I_addi_cg_cp_rs1_b12, I_addi_cg_cp_rs1_b12_str)
     218:	000ca683          	lw	x13,0(x25)
     21c:	01268863          	beq	x13,x18,22c <I_addi_cg_cp_rs1_b12+0x18>
     220:	2dc0376f          	jal	x14,34fc <failedtest_x14_x13>
     224:	00000214          	.word	0x00000214
     228:	000088fd          	.word	0x000088fd
     22c:	004c8c93          	addi	x25,x25,4

  mv x4, x13 # switch temp register to avoid conflict with test
     230:	00068213          	addi	x4,x13,0
  mv x5, x14 # switch link pointer register to avoid conflict with test
     234:	00070293          	addi	x5,x14,0
# Testcase cp_rs1 (Test source rs1 = x13)
  RVTEST_TESTDATA_LOAD_INT(x22, x13) # load rs1: x13 = 0x1aab03e6
     238:	000b2683          	lw	x13,0(x22)
     23c:	004b0b13          	addi	x22,x22,4

00000240 <I_addi_cg_cp_rs1_b13>:
I_addi_cg_cp_rs1_b13:
  addi x9, x13, 1342 # perform operation
     240:	53e68493          	addi	x9,x13,1342
  # Check if x9 contains the expected result. x25 is the signature ptr, x5 is the link ptr, x4 is a temp reg.
  RVTEST_SIGUPD(x25, x5, x4, x9, I_addi_cg_cp_rs1_b13, I_addi_cg_cp_rs1_b13_str)
     244:	000ca203          	lw	x4,0(x25)
     248:	00920863          	beq	x4,x9,258 <I_addi_cg_cp_rs1_b13+0x18>
     24c:	270032ef          	jal	x5,34bc <failedtest_x5_x4>
     250:	00000240          	.word	0x00000240
     254:	0000892d          	.word	0x0000892d
     258:	004c8c93          	addi	x25,x25,4

# Testcase cp_rs1 (Test source rs1 = x14)
  RVTEST_TESTDATA_LOAD_INT(x22, x14) # load rs1: x14 = 0x05e583ef
     25c:	000b2703          	lw	x14,0(x22)
     260:	004b0b13          	addi	x22,x22,4

00000264 <I_addi_cg_cp_rs1_b14>:
I_addi_cg_cp_rs1_b14:
  addi x8, x14, 1711 # perform operation
     264:	6af70413          	addi	x8,x14,1711
  # Check if x8 contains the expected result. x25 is the signature ptr, x5 is the link ptr, x4 is a temp reg.
  RVTEST_SIGUPD(x25, x5, x4, x8, I_addi_cg_cp_rs1_b14, I_addi_cg_cp_rs1_b14_str)
     268:	000ca203          	lw	x4,0(x25)
     26c:	00820863          	beq	x4,x8,27c <I_addi_cg_cp_rs1_b14+0x18>
     270:	24c032ef          	jal	x5,34bc <failedtest_x5_x4>
     274:	00000264          	.word	0x00000264
     278:	0000895d          	.word	0x0000895d
     27c:	004c8c93          	addi	x25,x25,4

# Testcase cp_rs1 (Test source rs1 = x15)
  RVTEST_TESTDATA_LOAD_INT(x22, x15) # load rs1: x15 = 0xe19c0590
     280:	000b2783          	lw	x15,0(x22)
     284:	004b0b13          	addi	x22,x22,4

00000288 <I_addi_cg_cp_rs1_b15>:
I_addi_cg_cp_rs1_b15:
  addi x18, x15, -188 # perform operation
     288:	f4478913          	addi	x18,x15,-188
  # Check if x18 contains the expected result. x25 is the signature ptr, x5 is the link ptr, x4 is a temp reg.
  RVTEST_SIGUPD(x25, x5, x4, x18, I_addi_cg_cp_rs1_b15, I_addi_cg_cp_rs1_b15_str)
     28c:	000ca203          	lw	x4,0(x25)
     290:	01220863          	beq	x4,x18,2a0 <I_addi_cg_cp_rs1_b15+0x18>
     294:	228032ef          	jal	x5,34bc <failedtest_x5_x4>
     298:	00000288          	.word	0x00000288
     29c:	0000898d          	.word	0x0000898d
     2a0:	004c8c93          	addi	x25,x25,4

# Testcase cp_rs1 (Test source rs1 = x16)
  RVTEST_TESTDATA_LOAD_INT(x22, x16) # load rs1: x16 = 0xfca8ab12
     2a4:	000b2803          	lw	x16,0(x22)
     2a8:	004b0b13          	addi	x22,x22,4

000002ac <I_addi_cg_cp_rs1_b16>:
I_addi_cg_cp_rs1_b16:
  addi x7, x16, -597 # perform operation
     2ac:	dab80393          	addi	x7,x16,-597
  # Check if x7 contains the expected result. x25 is the signature ptr, x5 is the link ptr, x4 is a temp reg.
  RVTEST_SIGUPD(x25, x5, x4, x7, I_addi_cg_cp_rs1_b16, I_addi_cg_cp_rs1_b16_str)
     2b0:	000ca203          	lw	x4,0(x25)
     2b4:	00720863          	beq	x4,x7,2c4 <I_addi_cg_cp_rs1_b16+0x18>
     2b8:	204032ef          	jal	x5,34bc <failedtest_x5_x4>
     2bc:	000002ac          	.word	0x000002ac
     2c0:	000089bd          	.word	0x000089bd
     2c4:	004c8c93          	addi	x25,x25,4

# Testcase cp_rs1 (Test source rs1 = x17)
  RVTEST_TESTDATA_LOAD_INT(x22, x17) # load rs1: x17 = 0xf7e05b2e
     2c8:	000b2883          	lw	x17,0(x22)
     2cc:	004b0b13          	addi	x22,x22,4

000002d0 <I_addi_cg_cp_rs1_b17>:
I_addi_cg_cp_rs1_b17:
  addi x26, x17, 1073 # perform operation
     2d0:	43188d13          	addi	x26,x17,1073
  # Check if x26 contains the expected result. x25 is the signature ptr, x5 is the link ptr, x4 is a temp reg.
  RVTEST_SIGUPD(x25, x5, x4, x26, I_addi_cg_cp_rs1_b17, I_addi_cg_cp_rs1_b17_str)
     2d4:	000ca203          	lw	x4,0(x25)
     2d8:	01a20863          	beq	x4,x26,2e8 <I_addi_cg_cp_rs1_b17+0x18>
     2dc:	1e0032ef          	jal	x5,34bc <failedtest_x5_x4>
     2e0:	000002d0          	.word	0x000002d0
     2e4:	000089ed          	.word	0x000089ed
     2e8:	004c8c93          	addi	x25,x25,4

# Testcase cp_rs1 (Test source rs1 = x18)
  RVTEST_TESTDATA_LOAD_INT(x22, x18) # load rs1: x18 = 0xd7d2059e
     2ec:	000b2903          	lw	x18,0(x22)
     2f0:	004b0b13          	addi	x22,x22,4

000002f4 <I_addi_cg_cp_rs1_b18>:
I_addi_cg_cp_rs1_b18:
  addi x7, x18, -993 # perform operation
     2f4:	c1f90393          	addi	x7,x18,-993
  # Check if x7 contains the expected result. x25 is the signature ptr, x5 is the link ptr, x4 is a temp reg.
  RVTEST_SIGUPD(x25, x5, x4, x7, I_addi_cg_cp_rs1_b18, I_addi_cg_cp_rs1_b18_str)
     2f8:	000ca203          	lw	x4,0(x25)
     2fc:	00720863          	beq	x4,x7,30c <imm12+0x3>
     300:	1bc032ef          	jal	x5,34bc <failedtest_x5_x4>
     304:	000002f4          	.word	0x000002f4
     308:	00008a1d          	.word	0x00008a1d
     30c:	004c8c93          	addi	x25,x25,4

# Testcase cp_rs1 (Test source rs1 = x19)
  RVTEST_TESTDATA_LOAD_INT(x22, x19) # load rs1: x19 = 0xaa5e9e68
     310:	000b2983          	lw	x19,0(x22)
     314:	004b0b13          	addi	x22,x22,4

00000318 <I_addi_cg_cp_rs1_b19>:
I_addi_cg_cp_rs1_b19:
  addi x17, x19, 267 # perform operation
     318:	10b98893          	addi	x17,x19,267
  # Check if x17 contains the expected result. x25 is the signature ptr, x5 is the link ptr, x4 is a temp reg.
  RVTEST_SIGUPD(x25, x5, x4, x17, I_addi_cg_cp_rs1_b19, I_addi_cg_cp_rs1_b19_str)
     31c:	000ca203          	lw	x4,0(x25)
     320:	01120863          	beq	x4,x17,330 <I_addi_cg_cp_rs1_b19+0x18>
     324:	198032ef          	jal	x5,34bc <failedtest_x5_x4>
     328:	00000318          	.word	0x00000318
     32c:	00008a4d          	.word	0x00008a4d
     330:	004c8c93          	addi	x25,x25,4

# Testcase cp_rs1 (Test source rs1 = x20)
  RVTEST_TESTDATA_LOAD_INT(x22, x20) # load rs1: x20 = 0x80ad83d3
     334:	000b2a03          	lw	x20,0(x22)
     338:	004b0b13          	addi	x22,x22,4

0000033c <I_addi_cg_cp_rs1_b20>:
I_addi_cg_cp_rs1_b20:
  addi x3, x20, 1632 # perform operation
     33c:	660a0193          	addi	x3,x20,1632
  # Check if x3 contains the expected result. x25 is the signature ptr, x5 is the link ptr, x4 is a temp reg.
  RVTEST_SIGUPD(x25, x5, x4, x3, I_addi_cg_cp_rs1_b20, I_addi_cg_cp_rs1_b20_str)
     340:	000ca203          	lw	x4,0(x25)
     344:	00320863          	beq	x4,x3,354 <I_addi_cg_cp_rs1_b20+0x18>
     348:	174032ef          	jal	x5,34bc <failedtest_x5_x4>
     34c:	0000033c          	.word	0x0000033c
     350:	00008a7d          	.word	0x00008a7d
     354:	004c8c93          	addi	x25,x25,4

# Testcase cp_rs1 (Test source rs1 = x21)
  RVTEST_TESTDATA_LOAD_INT(x22, x21) # load rs1: x21 = 0xadcb0de0
     358:	000b2a83          	lw	x21,0(x22)
     35c:	004b0b13          	addi	x22,x22,4

00000360 <I_addi_cg_cp_rs1_b21>:
I_addi_cg_cp_rs1_b21:
  addi x27, x21, -561 # perform operation
     360:	dcfa8d93          	addi	x27,x21,-561
  # Check if x27 contains the expected result. x25 is the signature ptr, x5 is the link ptr, x4 is a temp reg.
  RVTEST_SIGUPD(x25, x5, x4, x27, I_addi_cg_cp_rs1_b21, I_addi_cg_cp_rs1_b21_str)
     364:	000ca203          	lw	x4,0(x25)
     368:	01b20863          	beq	x4,x27,378 <I_addi_cg_cp_rs1_b21+0x18>
     36c:	150032ef          	jal	x5,34bc <failedtest_x5_x4>
     370:	00000360          	.word	0x00000360
     374:	00008aad          	.word	0x00008aad
     378:	004c8c93          	addi	x25,x25,4

  mv x17, x22 # switch data pointer register to avoid conflict with test
     37c:	000b0893          	addi	x17,x22,0
# Testcase cp_rs1 (Test source rs1 = x22)
  RVTEST_TESTDATA_LOAD_INT(x17, x22) # load rs1: x22 = 0x353690b0
     380:	0008ab03          	lw	x22,0(x17)
     384:	00488893          	addi	x17,x17,4

00000388 <I_addi_cg_cp_rs1_b22>:
I_addi_cg_cp_rs1_b22:
  addi x18, x22, 789 # perform operation
     388:	315b0913          	addi	x18,x22,789
  # Check if x18 contains the expected result. x25 is the signature ptr, x5 is the link ptr, x4 is a temp reg.
  RVTEST_SIGUPD(x25, x5, x4, x18, I_addi_cg_cp_rs1_b22, I_addi_cg_cp_rs1_b22_str)
     38c:	000ca203          	lw	x4,0(x25)
     390:	01220863          	beq	x4,x18,3a0 <I_addi_cg_cp_rs1_b22+0x18>
     394:	128032ef          	jal	x5,34bc <failedtest_x5_x4>
     398:	00000388          	.word	0x00000388
     39c:	00008add          	.word	0x00008add
     3a0:	004c8c93          	addi	x25,x25,4

# Testcase cp_rs1 (Test source rs1 = x23)
  RVTEST_TESTDATA_LOAD_INT(x17, x23) # load rs1: x23 = 0xb5e30ea6
     3a4:	0008ab83          	lw	x23,0(x17)
     3a8:	00488893          	addi	x17,x17,4

000003ac <I_addi_cg_cp_rs1_b23>:
I_addi_cg_cp_rs1_b23:
  addi x24, x23, -935 # perform operation
     3ac:	c59b8c13          	addi	x24,x23,-935
  # Check if x24 contains the expected result. x25 is the signature ptr, x5 is the link ptr, x4 is a temp reg.
  RVTEST_SIGUPD(x25, x5, x4, x24, I_addi_cg_cp_rs1_b23, I_addi_cg_cp_rs1_b23_str)
     3b0:	000ca203          	lw	x4,0(x25)
     3b4:	01820863          	beq	x4,x24,3c4 <I_addi_cg_cp_rs1_b23+0x18>
     3b8:	104032ef          	jal	x5,34bc <failedtest_x5_x4>
     3bc:	000003ac          	.word	0x000003ac
     3c0:	00008b0d          	.word	0x00008b0d
     3c4:	004c8c93          	addi	x25,x25,4

# Testcase cp_rs1 (Test source rs1 = x24)
  RVTEST_TESTDATA_LOAD_INT(x17, x24) # load rs1: x24 = 0x1f5c7868
     3c8:	0008ac03          	lw	x24,0(x17)
     3cc:	00488893          	addi	x17,x17,4

000003d0 <I_addi_cg_cp_rs1_b24>:
I_addi_cg_cp_rs1_b24:
  addi x19, x24, -2029 # perform operation
     3d0:	813c0993          	addi	x19,x24,-2029
  # Check if x19 contains the expected result. x25 is the signature ptr, x5 is the link ptr, x4 is a temp reg.
  RVTEST_SIGUPD(x25, x5, x4, x19, I_addi_cg_cp_rs1_b24, I_addi_cg_cp_rs1_b24_str)
     3d4:	000ca203          	lw	x4,0(x25)
     3d8:	01320863          	beq	x4,x19,3e8 <I_addi_cg_cp_rs1_b24+0x18>
     3dc:	0e0032ef          	jal	x5,34bc <failedtest_x5_x4>
     3e0:	000003d0          	.word	0x000003d0
     3e4:	00008b3d          	.word	0x00008b3d
     3e8:	004c8c93          	addi	x25,x25,4

  mv x18, x25 # switch signature pointer register to avoid conflict with test
     3ec:	000c8913          	addi	x18,x25,0
# Testcase cp_rs1 (Test source rs1 = x25)
  RVTEST_TESTDATA_LOAD_INT(x17, x25) # load rs1: x25 = 0xd8fa2e3a
     3f0:	0008ac83          	lw	x25,0(x17)
     3f4:	00488893          	addi	x17,x17,4

000003f8 <I_addi_cg_cp_rs1_b25>:
I_addi_cg_cp_rs1_b25:
  addi x15, x25, -253 # perform operation
     3f8:	f03c8793          	addi	x15,x25,-253
  # Check if x15 contains the expected result. x18 is the signature ptr, x5 is the link ptr, x4 is a temp reg.
  RVTEST_SIGUPD(x18, x5, x4, x15, I_addi_cg_cp_rs1_b25, I_addi_cg_cp_rs1_b25_str)
     3fc:	00092203          	lw	x4,0(x18)
     400:	00f20863          	beq	x4,x15,410 <I_addi_cg_cp_rs1_b25+0x18>
     404:	0b8032ef          	jal	x5,34bc <failedtest_x5_x4>
     408:	000003f8          	.word	0x000003f8
     40c:	00008b6d          	.word	0x00008b6d
     410:	00490913          	addi	x18,x18,4

# Testcase cp_rs1 (Test source rs1 = x26)
  RVTEST_TESTDATA_LOAD_INT(x17, x26) # load rs1: x26 = 0x299ffc3d
     414:	0008ad03          	lw	x26,0(x17)
     418:	00488893          	addi	x17,x17,4

0000041c <I_addi_cg_cp_rs1_b26>:
I_addi_cg_cp_rs1_b26:
  addi x28, x26, 670 # perform operation
     41c:	29ed0e13          	addi	x28,x26,670
  # Check if x28 contains the expected result. x18 is the signature ptr, x5 is the link ptr, x4 is a temp reg.
  RVTEST_SIGUPD(x18, x5, x4, x28, I_addi_cg_cp_rs1_b26, I_addi_cg_cp_rs1_b26_str)
     420:	00092203          	lw	x4,0(x18)
     424:	01c20863          	beq	x4,x28,434 <I_addi_cg_cp_rs1_b26+0x18>
     428:	094032ef          	jal	x5,34bc <failedtest_x5_x4>
     42c:	0000041c          	.word	0x0000041c
     430:	00008b9d          	.word	0x00008b9d
     434:	00490913          	addi	x18,x18,4

# Testcase cp_rs1 (Test source rs1 = x27)
  RVTEST_TESTDATA_LOAD_INT(x17, x27) # load rs1: x27 = 0xc8470859
     438:	0008ad83          	lw	x27,0(x17)
     43c:	00488893          	addi	x17,x17,4

00000440 <I_addi_cg_cp_rs1_b27>:
I_addi_cg_cp_rs1_b27:
  addi x11, x27, -240 # perform operation
     440:	f10d8593          	addi	x11,x27,-240
  # Check if x11 contains the expected result. x18 is the signature ptr, x5 is the link ptr, x4 is a temp reg.
  RVTEST_SIGUPD(x18, x5, x4, x11, I_addi_cg_cp_rs1_b27, I_addi_cg_cp_rs1_b27_str)
     444:	00092203          	lw	x4,0(x18)
     448:	00b20863          	beq	x4,x11,458 <I_addi_cg_cp_rs1_b27+0x18>
     44c:	070032ef          	jal	x5,34bc <failedtest_x5_x4>
     450:	00000440          	.word	0x00000440
     454:	00008bcd          	.word	0x00008bcd
     458:	00490913          	addi	x18,x18,4

# Testcase cp_rs1 (Test source rs1 = x28)
  RVTEST_TESTDATA_LOAD_INT(x17, x28) # load rs1: x28 = 0x8fc90337
     45c:	0008ae03          	lw	x28,0(x17)
     460:	00488893          	addi	x17,x17,4

00000464 <I_addi_cg_cp_rs1_b28>:
I_addi_cg_cp_rs1_b28:
  addi x12, x28, -1986 # perform operation
     464:	83ee0613          	addi	x12,x28,-1986
  # Check if x12 contains the expected result. x18 is the signature ptr, x5 is the link ptr, x4 is a temp reg.
  RVTEST_SIGUPD(x18, x5, x4, x12, I_addi_cg_cp_rs1_b28, I_addi_cg_cp_rs1_b28_str)
     468:	00092203          	lw	x4,0(x18)
     46c:	00c20863          	beq	x4,x12,47c <I_addi_cg_cp_rs1_b28+0x18>
     470:	04c032ef          	jal	x5,34bc <failedtest_x5_x4>
     474:	00000464          	.word	0x00000464
     478:	00008bfd          	.word	0x00008bfd
     47c:	00490913          	addi	x18,x18,4

# Testcase cp_rs1 (Test source rs1 = x29)
  RVTEST_TESTDATA_LOAD_INT(x17, x29) # load rs1: x29 = 0x96b4a195
     480:	0008ae83          	lw	x29,0(x17)
     484:	00488893          	addi	x17,x17,4

00000488 <I_addi_cg_cp_rs1_b29>:
I_addi_cg_cp_rs1_b29:
  addi x30, x29, 939 # perform operation
     488:	3abe8f13          	addi	x30,x29,939
  # Check if x30 contains the expected result. x18 is the signature ptr, x5 is the link ptr, x4 is a temp reg.
  RVTEST_SIGUPD(x18, x5, x4, x30, I_addi_cg_cp_rs1_b29, I_addi_cg_cp_rs1_b29_str)
     48c:	00092203          	lw	x4,0(x18)
     490:	01e20863          	beq	x4,x30,4a0 <I_addi_cg_cp_rs1_b29+0x18>
     494:	028032ef          	jal	x5,34bc <failedtest_x5_x4>
     498:	00000488          	.word	0x00000488
     49c:	00008c2d          	.word	0x00008c2d
     4a0:	00490913          	addi	x18,x18,4

# Testcase cp_rs1 (Test source rs1 = x30)
  RVTEST_TESTDATA_LOAD_INT(x17, x30) # load rs1: x30 = 0x4f20682a
     4a4:	0008af03          	lw	x30,0(x17)
     4a8:	00488893          	addi	x17,x17,4

000004ac <I_addi_cg_cp_rs1_b30>:
I_addi_cg_cp_rs1_b30:
  addi x25, x30, -1372 # perform operation
     4ac:	aa4f0c93          	addi	x25,x30,-1372
  # Check if x25 contains the expected result. x18 is the signature ptr, x5 is the link ptr, x4 is a temp reg.
  RVTEST_SIGUPD(x18, x5, x4, x25, I_addi_cg_cp_rs1_b30, I_addi_cg_cp_rs1_b30_str)
     4b0:	00092203          	lw	x4,0(x18)
     4b4:	01920863          	beq	x4,x25,4c4 <I_addi_cg_cp_rs1_b30+0x18>
     4b8:	004032ef          	jal	x5,34bc <failedtest_x5_x4>
     4bc:	000004ac          	.word	0x000004ac
     4c0:	00008c5d          	.word	0x00008c5d
     4c4:	00490913          	addi	x18,x18,4

# Testcase cp_rs1 (Test source rs1 = x31)
  RVTEST_TESTDATA_LOAD_INT(x17, x31) # load rs1: x31 = 0xe23ac5d0
     4c8:	0008af83          	lw	x31,0(x17)
     4cc:	00488893          	addi	x17,x17,4

000004d0 <I_addi_cg_cp_rs1_b31>:
I_addi_cg_cp_rs1_b31:
  addi x29, x31, -1719 # perform operation
     4d0:	949f8e93          	addi	x29,x31,-1719
  # Check if x29 contains the expected result. x18 is the signature ptr, x5 is the link ptr, x4 is a temp reg.
  RVTEST_SIGUPD(x18, x5, x4, x29, I_addi_cg_cp_rs1_b31, I_addi_cg_cp_rs1_b31_str)
     4d4:	00092203          	lw	x4,0(x18)
     4d8:	01d20863          	beq	x4,x29,4e8 <I_addi_cg_cp_rs1_b31+0x18>
     4dc:	7e1022ef          	jal	x5,34bc <failedtest_x5_x4>
     4e0:	000004d0          	.word	0x000004d0
     4e4:	00008c8d          	.word	0x00008c8d
     4e8:	00490913          	addi	x18,x18,4
/////////////////////////////////
// cp_rd
/////////////////////////////////

# Testcase cp_rd (Test destination rd = x0)
  RVTEST_TESTDATA_LOAD_INT(x17, x24) # load rs1: x24 = 0x08e9703f
     4ec:	0008ac03          	lw	x24,0(x17)
     4f0:	00488893          	addi	x17,x17,4

000004f4 <I_addi_cg_cp_rd_b0>:
I_addi_cg_cp_rd_b0:
  addi x0, x24, 489 # perform operation
     4f4:	1e9c0013          	addi	x0,x24,489
  # Check if x0 contains the expected result. x18 is the signature ptr, x5 is the link ptr, x4 is a temp reg.
  RVTEST_SIGUPD(x18, x5, x4, x0, I_addi_cg_cp_rd_b0, I_addi_cg_cp_rd_b0_str)
     4f8:	00092203          	lw	x4,0(x18)
     4fc:	00020863          	beq	x4,x0,50c <I_addi_cg_cp_rd_b0+0x18>
     500:	7bd022ef          	jal	x5,34bc <failedtest_x5_x4>
     504:	000004f4          	.word	0x000004f4
     508:	00008cbd          	.word	0x00008cbd
     50c:	00490913          	addi	x18,x18,4

# Testcase cp_rd (Test destination rd = x1)
  RVTEST_TESTDATA_LOAD_INT(x17, x19) # load rs1: x19 = 0xa322e604
     510:	0008a983          	lw	x19,0(x17)
     514:	00488893          	addi	x17,x17,4

00000518 <I_addi_cg_cp_rd_b1>:
I_addi_cg_cp_rd_b1:
  addi x1, x19, 1106 # perform operation
     518:	45298093          	addi	x1,x19,1106
  # Check if x1 contains the expected result. x18 is the signature ptr, x5 is the link ptr, x4 is a temp reg.
  RVTEST_SIGUPD(x18, x5, x4, x1, I_addi_cg_cp_rd_b1, I_addi_cg_cp_rd_b1_str)
     51c:	00092203          	lw	x4,0(x18)
     520:	00120863          	beq	x4,x1,530 <I_addi_cg_cp_rd_b1+0x18>
     524:	799022ef          	jal	x5,34bc <failedtest_x5_x4>
     528:	00000518          	.word	0x00000518
     52c:	00008ceb          	.word	0x00008ceb
     530:	00490913          	addi	x18,x18,4

# Testcase cp_rd (Test destination rd = x2)
  RVTEST_TESTDATA_LOAD_INT(x17, x1) # load rs1: x1 = 0x0be9d7a4
     534:	0008a083          	lw	x1,0(x17)
     538:	00488893          	addi	x17,x17,4

0000053c <I_addi_cg_cp_rd_b2>:
I_addi_cg_cp_rd_b2:
  addi x2, x1, -424 # perform operation
     53c:	e5808113          	addi	x2,x1,-424
  # Check if x2 contains the expected result. x18 is the signature ptr, x5 is the link ptr, x4 is a temp reg.
  RVTEST_SIGUPD(x18, x5, x4, x2, I_addi_cg_cp_rd_b2, I_addi_cg_cp_rd_b2_str)
     540:	00092203          	lw	x4,0(x18)
     544:	00220863          	beq	x4,x2,554 <I_addi_cg_cp_rd_b2+0x18>
     548:	775022ef          	jal	x5,34bc <failedtest_x5_x4>
     54c:	0000053c          	.word	0x0000053c
     550:	00008d19          	.word	0x00008d19
     554:	00490913          	addi	x18,x18,4

# Testcase cp_rd (Test destination rd = x3)
  RVTEST_TESTDATA_LOAD_INT(x17, x25) # load rs1: x25 = 0x3615b581
     558:	0008ac83          	lw	x25,0(x17)
     55c:	00488893          	addi	x17,x17,4

00000560 <I_addi_cg_cp_rd_b3>:
I_addi_cg_cp_rd_b3:
  addi x3, x25, 1269 # perform operation
     560:	4f5c8193          	addi	x3,x25,1269
  # Check if x3 contains the expected result. x18 is the signature ptr, x5 is the link ptr, x4 is a temp reg.
  RVTEST_SIGUPD(x18, x5, x4, x3, I_addi_cg_cp_rd_b3, I_addi_cg_cp_rd_b3_str)
     564:	00092203          	lw	x4,0(x18)
     568:	00320863          	beq	x4,x3,578 <I_addi_cg_cp_rd_b3+0x18>
     56c:	751022ef          	jal	x5,34bc <failedtest_x5_x4>
     570:	00000560          	.word	0x00000560
     574:	00008d47          	.word	0x00008d47
     578:	00490913          	addi	x18,x18,4

  mv x13, x4 # switch temp register to avoid conflict with test
     57c:	00020693          	addi	x13,x4,0 # 0 <rvtest_entry_point>
  mv x14, x5 # switch link pointer register to avoid conflict with test
     580:	00028713          	addi	x14,x5,0
# Testcase cp_rd (Test destination rd = x4)
  RVTEST_TESTDATA_LOAD_INT(x17, x0) # load rs1: x0 = 0xb4cf6b77
     584:	0008a003          	lw	x0,0(x17)
     588:	00488893          	addi	x17,x17,4

0000058c <I_addi_cg_cp_rd_b4>:
I_addi_cg_cp_rd_b4:
  addi x4, x0, -1543 # perform operation
     58c:	9f900213          	addi	x4,x0,-1543
  # Check if x4 contains the expected result. x18 is the signature ptr, x14 is the link ptr, x13 is a temp reg.
  RVTEST_SIGUPD(x18, x14, x13, x4, I_addi_cg_cp_rd_b4, I_addi_cg_cp_rd_b4_str)
     590:	00092683          	lw	x13,0(x18)
     594:	00468863          	beq	x13,x4,5a4 <I_addi_cg_cp_rd_b4+0x18>
     598:	7650276f          	jal	x14,34fc <failedtest_x14_x13>
     59c:	0000058c          	.word	0x0000058c
     5a0:	00008d75          	.word	0x00008d75
     5a4:	00490913          	addi	x18,x18,4

# Testcase cp_rd (Test destination rd = x5)
  RVTEST_TESTDATA_LOAD_INT(x17, x4) # load rs1: x4 = 0x3fef7926
     5a8:	0008a203          	lw	x4,0(x17)
     5ac:	00488893          	addi	x17,x17,4

000005b0 <I_addi_cg_cp_rd_b5>:
I_addi_cg_cp_rd_b5:
  addi x5, x4, -225 # perform operation
     5b0:	f1f20293          	addi	x5,x4,-225 # ffffff1f <absimm+0x90a35c16>
  # Check if x5 contains the expected result. x18 is the signature ptr, x14 is the link ptr, x13 is a temp reg.
  RVTEST_SIGUPD(x18, x14, x13, x5, I_addi_cg_cp_rd_b5, I_addi_cg_cp_rd_b5_str)
     5b4:	00092683          	lw	x13,0(x18)
     5b8:	00568863          	beq	x13,x5,5c8 <I_addi_cg_cp_rd_b5+0x18>
     5bc:	7410276f          	jal	x14,34fc <failedtest_x14_x13>
     5c0:	000005b0          	.word	0x000005b0
     5c4:	00008da3          	.word	0x00008da3
     5c8:	00490913          	addi	x18,x18,4

# Testcase cp_rd (Test destination rd = x6)
  RVTEST_TESTDATA_LOAD_INT(x17, x30) # load rs1: x30 = 0x332ceb48
     5cc:	0008af03          	lw	x30,0(x17)
     5d0:	00488893          	addi	x17,x17,4

000005d4 <I_addi_cg_cp_rd_b6>:
I_addi_cg_cp_rd_b6:
  addi x6, x30, 1705 # perform operation
     5d4:	6a9f0313          	addi	x6,x30,1705
  # Check if x6 contains the expected result. x18 is the signature ptr, x14 is the link ptr, x13 is a temp reg.
  RVTEST_SIGUPD(x18, x14, x13, x6, I_addi_cg_cp_rd_b6, I_addi_cg_cp_rd_b6_str)
     5d8:	00092683          	lw	x13,0(x18)
     5dc:	00668863          	beq	x13,x6,5ec <I_addi_cg_cp_rd_b6+0x18>
     5e0:	71d0276f          	jal	x14,34fc <failedtest_x14_x13>
     5e4:	000005d4          	.word	0x000005d4
     5e8:	00008dd1          	.word	0x00008dd1
     5ec:	00490913          	addi	x18,x18,4

# Testcase cp_rd (Test destination rd = x7)
  RVTEST_TESTDATA_LOAD_INT(x17, x20) # load rs1: x20 = 0x121cb7c0
     5f0:	0008aa03          	lw	x20,0(x17)
     5f4:	00488893          	addi	x17,x17,4

000005f8 <I_addi_cg_cp_rd_b7>:
I_addi_cg_cp_rd_b7:
  addi x7, x20, -608 # perform operation
     5f8:	da0a0393          	addi	x7,x20,-608
  # Check if x7 contains the expected result. x18 is the signature ptr, x14 is the link ptr, x13 is a temp reg.
  RVTEST_SIGUPD(x18, x14, x13, x7, I_addi_cg_cp_rd_b7, I_addi_cg_cp_rd_b7_str)
     5fc:	00092683          	lw	x13,0(x18)
     600:	00768863          	beq	x13,x7,610 <I_addi_cg_cp_rd_b7+0x18>
     604:	6f90276f          	jal	x14,34fc <failedtest_x14_x13>
     608:	000005f8          	.word	0x000005f8
     60c:	00008dff          	.word	0x00008dff
     610:	00490913          	addi	x18,x18,4

# Testcase cp_rd (Test destination rd = x8)
  RVTEST_TESTDATA_LOAD_INT(x17, x29) # load rs1: x29 = 0x1ea0faf3
     614:	0008ae83          	lw	x29,0(x17)
     618:	00488893          	addi	x17,x17,4

0000061c <I_addi_cg_cp_rd_b8>:
I_addi_cg_cp_rd_b8:
  addi x8, x29, 257 # perform operation
     61c:	101e8413          	addi	x8,x29,257
  # Check if x8 contains the expected result. x18 is the signature ptr, x14 is the link ptr, x13 is a temp reg.
  RVTEST_SIGUPD(x18, x14, x13, x8, I_addi_cg_cp_rd_b8, I_addi_cg_cp_rd_b8_str)
     620:	00092683          	lw	x13,0(x18)
     624:	00868863          	beq	x13,x8,634 <I_addi_cg_cp_rd_b8+0x18>
     628:	6d50276f          	jal	x14,34fc <failedtest_x14_x13>
     62c:	0000061c          	.word	0x0000061c
     630:	00008e2d          	.word	0x00008e2d
     634:	00490913          	addi	x18,x18,4

# Testcase cp_rd (Test destination rd = x9)
  RVTEST_TESTDATA_LOAD_INT(x17, x1) # load rs1: x1 = 0x204ac672
     638:	0008a083          	lw	x1,0(x17)
     63c:	00488893          	addi	x17,x17,4

00000640 <I_addi_cg_cp_rd_b9>:
I_addi_cg_cp_rd_b9:
  addi x9, x1, 227 # perform operation
     640:	0e308493          	addi	x9,x1,227
  # Check if x9 contains the expected result. x18 is the signature ptr, x14 is the link ptr, x13 is a temp reg.
  RVTEST_SIGUPD(x18, x14, x13, x9, I_addi_cg_cp_rd_b9, I_addi_cg_cp_rd_b9_str)
     644:	00092683          	lw	x13,0(x18)
     648:	00968863          	beq	x13,x9,658 <I_addi_cg_cp_rd_b9+0x18>
     64c:	6b10276f          	jal	x14,34fc <failedtest_x14_x13>
     650:	00000640          	.word	0x00000640
     654:	00008e5b          	.word	0x00008e5b
     658:	00490913          	addi	x18,x18,4

# Testcase cp_rd (Test destination rd = x10)
  RVTEST_TESTDATA_LOAD_INT(x17, x15) # load rs1: x15 = 0x52262a85
     65c:	0008a783          	lw	x15,0(x17)
     660:	00488893          	addi	x17,x17,4

00000664 <I_addi_cg_cp_rd_b10>:
I_addi_cg_cp_rd_b10:
  addi x10, x15, -1095 # perform operation
     664:	bb978513          	addi	x10,x15,-1095
  # Check if x10 contains the expected result. x18 is the signature ptr, x14 is the link ptr, x13 is a temp reg.
  RVTEST_SIGUPD(x18, x14, x13, x10, I_addi_cg_cp_rd_b10, I_addi_cg_cp_rd_b10_str)
     668:	00092683          	lw	x13,0(x18)
     66c:	00a68863          	beq	x13,x10,67c <I_addi_cg_cp_rd_b10+0x18>
     670:	68d0276f          	jal	x14,34fc <failedtest_x14_x13>
     674:	00000664          	.word	0x00000664
     678:	00008e89          	.word	0x00008e89
     67c:	00490913          	addi	x18,x18,4

# Testcase cp_rd (Test destination rd = x11)
  RVTEST_TESTDATA_LOAD_INT(x17, x16) # load rs1: x16 = 0xdff02d18
     680:	0008a803          	lw	x16,0(x17)
     684:	00488893          	addi	x17,x17,4

00000688 <I_addi_cg_cp_rd_b11>:
I_addi_cg_cp_rd_b11:
  addi x11, x16, -731 # perform operation
     688:	d2580593          	addi	x11,x16,-731
  # Check if x11 contains the expected result. x18 is the signature ptr, x14 is the link ptr, x13 is a temp reg.
  RVTEST_SIGUPD(x18, x14, x13, x11, I_addi_cg_cp_rd_b11, I_addi_cg_cp_rd_b11_str)
     68c:	00092683          	lw	x13,0(x18)
     690:	00b68863          	beq	x13,x11,6a0 <I_addi_cg_cp_rd_b11+0x18>
     694:	6690276f          	jal	x14,34fc <failedtest_x14_x13>
     698:	00000688          	.word	0x00000688
     69c:	00008eb8          	.word	0x00008eb8
     6a0:	00490913          	addi	x18,x18,4

# Testcase cp_rd (Test destination rd = x12)
  RVTEST_TESTDATA_LOAD_INT(x17, x30) # load rs1: x30 = 0x103cead2
     6a4:	0008af03          	lw	x30,0(x17)
     6a8:	00488893          	addi	x17,x17,4

000006ac <I_addi_cg_cp_rd_b12>:
I_addi_cg_cp_rd_b12:
  addi x12, x30, -1832 # perform operation
     6ac:	8d8f0613          	addi	x12,x30,-1832
  # Check if x12 contains the expected result. x18 is the signature ptr, x14 is the link ptr, x13 is a temp reg.
  RVTEST_SIGUPD(x18, x14, x13, x12, I_addi_cg_cp_rd_b12, I_addi_cg_cp_rd_b12_str)
     6b0:	00092683          	lw	x13,0(x18)
     6b4:	00c68863          	beq	x13,x12,6c4 <I_addi_cg_cp_rd_b12+0x18>
     6b8:	6450276f          	jal	x14,34fc <failedtest_x14_x13>
     6bc:	000006ac          	.word	0x000006ac
     6c0:	00008ee7          	.word	0x00008ee7
     6c4:	00490913          	addi	x18,x18,4

  mv x7, x13 # switch temp register to avoid conflict with test
     6c8:	00068393          	addi	x7,x13,0
  mv x8, x14 # switch link pointer register to avoid conflict with test
     6cc:	00070413          	addi	x8,x14,0
# Testcase cp_rd (Test destination rd = x13)
  RVTEST_TESTDATA_LOAD_INT(x17, x0) # load rs1: x0 = 0xcf8d8128
     6d0:	0008a003          	lw	x0,0(x17)
     6d4:	00488893          	addi	x17,x17,4

000006d8 <I_addi_cg_cp_rd_b13>:
I_addi_cg_cp_rd_b13:
  addi x13, x0, 1601 # perform operation
     6d8:	64100693          	addi	x13,x0,1601
  # Check if x13 contains the expected result. x18 is the signature ptr, x8 is the link ptr, x7 is a temp reg.
  RVTEST_SIGUPD(x18, x8, x7, x13, I_addi_cg_cp_rd_b13, I_addi_cg_cp_rd_b13_str)
     6dc:	00092383          	lw	x7,0(x18)
     6e0:	00d38863          	beq	x7,x13,6f0 <I_addi_cg_cp_rd_b13+0x18>
     6e4:	5f10246f          	jal	x8,34d4 <failedtest_x8_x7>
     6e8:	000006d8          	.word	0x000006d8
     6ec:	00008f16          	.word	0x00008f16
     6f0:	00490913          	addi	x18,x18,4

# Testcase cp_rd (Test destination rd = x14)
  RVTEST_TESTDATA_LOAD_INT(x17, x10) # load rs1: x10 = 0x10e841df
     6f4:	0008a503          	lw	x10,0(x17)
     6f8:	00488893          	addi	x17,x17,4

000006fc <I_addi_cg_cp_rd_b14>:
I_addi_cg_cp_rd_b14:
  addi x14, x10, -61 # perform operation
     6fc:	fc350713          	addi	x14,x10,-61
  # Check if x14 contains the expected result. x18 is the signature ptr, x8 is the link ptr, x7 is a temp reg.
  RVTEST_SIGUPD(x18, x8, x7, x14, I_addi_cg_cp_rd_b14, I_addi_cg_cp_rd_b14_str)
     700:	00092383          	lw	x7,0(x18)
     704:	00e38863          	beq	x7,x14,714 <I_addi_cg_cp_rd_b14+0x18>
     708:	5cd0246f          	jal	x8,34d4 <failedtest_x8_x7>
     70c:	000006fc          	.word	0x000006fc
     710:	00008f45          	.word	0x00008f45
     714:	00490913          	addi	x18,x18,4

# Testcase cp_rd (Test destination rd = x15)
  RVTEST_TESTDATA_LOAD_INT(x17, x25) # load rs1: x25 = 0x33d7c6a0
     718:	0008ac83          	lw	x25,0(x17)
     71c:	00488893          	addi	x17,x17,4

00000720 <I_addi_cg_cp_rd_b15>:
I_addi_cg_cp_rd_b15:
  addi x15, x25, 1961 # perform operation
     720:	7a9c8793          	addi	x15,x25,1961
  # Check if x15 contains the expected result. x18 is the signature ptr, x8 is the link ptr, x7 is a temp reg.
  RVTEST_SIGUPD(x18, x8, x7, x15, I_addi_cg_cp_rd_b15, I_addi_cg_cp_rd_b15_str)
     724:	00092383          	lw	x7,0(x18)
     728:	00f38863          	beq	x7,x15,738 <I_addi_cg_cp_rd_b15+0x18>
     72c:	5a90246f          	jal	x8,34d4 <failedtest_x8_x7>
     730:	00000720          	.word	0x00000720
     734:	00008f74          	.word	0x00008f74
     738:	00490913          	addi	x18,x18,4

# Testcase cp_rd (Test destination rd = x16)
  RVTEST_TESTDATA_LOAD_INT(x17, x23) # load rs1: x23 = 0x2202375e
     73c:	0008ab83          	lw	x23,0(x17)
     740:	00488893          	addi	x17,x17,4

00000744 <I_addi_cg_cp_rd_b16>:
I_addi_cg_cp_rd_b16:
  addi x16, x23, 76 # perform operation
     744:	04cb8813          	addi	x16,x23,76
  # Check if x16 contains the expected result. x18 is the signature ptr, x8 is the link ptr, x7 is a temp reg.
  RVTEST_SIGUPD(x18, x8, x7, x16, I_addi_cg_cp_rd_b16, I_addi_cg_cp_rd_b16_str)
     748:	00092383          	lw	x7,0(x18)
     74c:	01038863          	beq	x7,x16,75c <I_addi_cg_cp_rd_b16+0x18>
     750:	5850246f          	jal	x8,34d4 <failedtest_x8_x7>
     754:	00000744          	.word	0x00000744
     758:	00008fa3          	.word	0x00008fa3
     75c:	00490913          	addi	x18,x18,4

  mv x25, x17 # switch data pointer register to avoid conflict with test
     760:	00088c93          	addi	x25,x17,0
# Testcase cp_rd (Test destination rd = x17)
  RVTEST_TESTDATA_LOAD_INT(x25, x5) # load rs1: x5 = 0x9e4d9509
     764:	000ca283          	lw	x5,0(x25)
     768:	004c8c93          	addi	x25,x25,4

0000076c <I_addi_cg_cp_rd_b17>:
I_addi_cg_cp_rd_b17:
  addi x17, x5, -6 # perform operation
     76c:	ffa28893          	addi	x17,x5,-6
  # Check if x17 contains the expected result. x18 is the signature ptr, x8 is the link ptr, x7 is a temp reg.
  RVTEST_SIGUPD(x18, x8, x7, x17, I_addi_cg_cp_rd_b17, I_addi_cg_cp_rd_b17_str)
     770:	00092383          	lw	x7,0(x18)
     774:	01138863          	beq	x7,x17,784 <I_addi_cg_cp_rd_b17+0x18>
     778:	55d0246f          	jal	x8,34d4 <failedtest_x8_x7>
     77c:	0000076c          	.word	0x0000076c
     780:	00008fd2          	.word	0x00008fd2
     784:	00490913          	addi	x18,x18,4

  mv x26, x18 # switch signature pointer register to avoid conflict with test
     788:	00090d13          	addi	x26,x18,0
# Testcase cp_rd (Test destination rd = x18)
  RVTEST_TESTDATA_LOAD_INT(x25, x5) # load rs1: x5 = 0x4bc7c44d
     78c:	000ca283          	lw	x5,0(x25)
     790:	004c8c93          	addi	x25,x25,4

00000794 <I_addi_cg_cp_rd_b18>:
I_addi_cg_cp_rd_b18:
  addi x18, x5, 1484 # perform operation
     794:	5cc28913          	addi	x18,x5,1484
  # Check if x18 contains the expected result. x26 is the signature ptr, x8 is the link ptr, x7 is a temp reg.
  RVTEST_SIGUPD(x26, x8, x7, x18, I_addi_cg_cp_rd_b18, I_addi_cg_cp_rd_b18_str)
     798:	000d2383          	lw	x7,0(x26)
     79c:	01238863          	beq	x7,x18,7ac <I_addi_cg_cp_rd_b18+0x18>
     7a0:	5350246f          	jal	x8,34d4 <failedtest_x8_x7>
     7a4:	00000794          	.word	0x00000794
     7a8:	00009001          	.word	0x00009001
     7ac:	004d0d13          	addi	x26,x26,4

# Testcase cp_rd (Test destination rd = x19)
  RVTEST_TESTDATA_LOAD_INT(x25, x21) # load rs1: x21 = 0x3c295328
     7b0:	000caa83          	lw	x21,0(x25)
     7b4:	004c8c93          	addi	x25,x25,4

000007b8 <I_addi_cg_cp_rd_b19>:
I_addi_cg_cp_rd_b19:
  addi x19, x21, 472 # perform operation
     7b8:	1d8a8993          	addi	x19,x21,472
  # Check if x19 contains the expected result. x26 is the signature ptr, x8 is the link ptr, x7 is a temp reg.
  RVTEST_SIGUPD(x26, x8, x7, x19, I_addi_cg_cp_rd_b19, I_addi_cg_cp_rd_b19_str)
     7bc:	000d2383          	lw	x7,0(x26)
     7c0:	01338863          	beq	x7,x19,7d0 <I_addi_cg_cp_rd_b19+0x18>
     7c4:	5110246f          	jal	x8,34d4 <failedtest_x8_x7>
     7c8:	000007b8          	.word	0x000007b8
     7cc:	00009030          	.word	0x00009030
     7d0:	004d0d13          	addi	x26,x26,4

# Testcase cp_rd (Test destination rd = x20)
  RVTEST_TESTDATA_LOAD_INT(x25, x11) # load rs1: x11 = 0x3b1e3d77
     7d4:	000ca583          	lw	x11,0(x25)
     7d8:	004c8c93          	addi	x25,x25,4

000007dc <I_addi_cg_cp_rd_b20>:
I_addi_cg_cp_rd_b20:
  addi x20, x11, -1391 # perform operation
     7dc:	a9158a13          	addi	x20,x11,-1391
  # Check if x20 contains the expected result. x26 is the signature ptr, x8 is the link ptr, x7 is a temp reg.
  RVTEST_SIGUPD(x26, x8, x7, x20, I_addi_cg_cp_rd_b20, I_addi_cg_cp_rd_b20_str)
     7e0:	000d2383          	lw	x7,0(x26)
     7e4:	01438863          	beq	x7,x20,7f4 <I_addi_cg_cp_rd_b20+0x18>
     7e8:	4ed0246f          	jal	x8,34d4 <failedtest_x8_x7>
     7ec:	000007dc          	.word	0x000007dc
     7f0:	0000905f          	.word	0x0000905f
     7f4:	004d0d13          	addi	x26,x26,4

# Testcase cp_rd (Test destination rd = x21)
  RVTEST_TESTDATA_LOAD_INT(x25, x16) # load rs1: x16 = 0x597fda7b
     7f8:	000ca803          	lw	x16,0(x25)
     7fc:	004c8c93          	addi	x25,x25,4

00000800 <I_addi_cg_cp_rd_b21>:
I_addi_cg_cp_rd_b21:
  addi x21, x16, -1491 # perform operation
     800:	a2d80a93          	addi	x21,x16,-1491
  # Check if x21 contains the expected result. x26 is the signature ptr, x8 is the link ptr, x7 is a temp reg.
  RVTEST_SIGUPD(x26, x8, x7, x21, I_addi_cg_cp_rd_b21, I_addi_cg_cp_rd_b21_str)
     804:	000d2383          	lw	x7,0(x26)
     808:	01538863          	beq	x7,x21,818 <I_addi_cg_cp_rd_b21+0x18>
     80c:	4c90246f          	jal	x8,34d4 <failedtest_x8_x7>
     810:	00000800          	.word	0x00000800
     814:	0000908e          	.word	0x0000908e
     818:	004d0d13          	addi	x26,x26,4

# Testcase cp_rd (Test destination rd = x22)
  RVTEST_TESTDATA_LOAD_INT(x25, x31) # load rs1: x31 = 0x0af70b96
     81c:	000caf83          	lw	x31,0(x25)
     820:	004c8c93          	addi	x25,x25,4

00000824 <I_addi_cg_cp_rd_b22>:
I_addi_cg_cp_rd_b22:
  addi x22, x31, 12 # perform operation
     824:	00cf8b13          	addi	x22,x31,12
  # Check if x22 contains the expected result. x26 is the signature ptr, x8 is the link ptr, x7 is a temp reg.
  RVTEST_SIGUPD(x26, x8, x7, x22, I_addi_cg_cp_rd_b22, I_addi_cg_cp_rd_b22_str)
     828:	000d2383          	lw	x7,0(x26)
     82c:	01638863          	beq	x7,x22,83c <I_addi_cg_cp_rd_b22+0x18>
     830:	4a50246f          	jal	x8,34d4 <failedtest_x8_x7>
     834:	00000824          	.word	0x00000824
     838:	000090bd          	.word	0x000090bd
     83c:	004d0d13          	addi	x26,x26,4

# Testcase cp_rd (Test destination rd = x23)
  RVTEST_TESTDATA_LOAD_INT(x25, x6) # load rs1: x6 = 0x57ec10a2
     840:	000ca303          	lw	x6,0(x25)
     844:	004c8c93          	addi	x25,x25,4

00000848 <I_addi_cg_cp_rd_b23>:
I_addi_cg_cp_rd_b23:
  addi x23, x6, -943 # perform operation
     848:	c5130b93          	addi	x23,x6,-943
  # Check if x23 contains the expected result. x26 is the signature ptr, x8 is the link ptr, x7 is a temp reg.
  RVTEST_SIGUPD(x26, x8, x7, x23, I_addi_cg_cp_rd_b23, I_addi_cg_cp_rd_b23_str)
     84c:	000d2383          	lw	x7,0(x26)
     850:	01738863          	beq	x7,x23,860 <I_addi_cg_cp_rd_b23+0x18>
     854:	4810246f          	jal	x8,34d4 <failedtest_x8_x7>
     858:	00000848          	.word	0x00000848
     85c:	000090ec          	.word	0x000090ec
     860:	004d0d13          	addi	x26,x26,4

# Testcase cp_rd (Test destination rd = x24)
  RVTEST_TESTDATA_LOAD_INT(x25, x23) # load rs1: x23 = 0x8e598415
     864:	000cab83          	lw	x23,0(x25)
     868:	004c8c93          	addi	x25,x25,4

0000086c <I_addi_cg_cp_rd_b24>:
I_addi_cg_cp_rd_b24:
  addi x24, x23, 975 # perform operation
     86c:	3cfb8c13          	addi	x24,x23,975
  # Check if x24 contains the expected result. x26 is the signature ptr, x8 is the link ptr, x7 is a temp reg.
  RVTEST_SIGUPD(x26, x8, x7, x24, I_addi_cg_cp_rd_b24, I_addi_cg_cp_rd_b24_str)
     870:	000d2383          	lw	x7,0(x26)
     874:	01838863          	beq	x7,x24,884 <I_addi_cg_cp_rd_b24+0x18>
     878:	45d0246f          	jal	x8,34d4 <failedtest_x8_x7>
     87c:	0000086c          	.word	0x0000086c
     880:	0000911b          	.word	0x0000911b
     884:	004d0d13          	addi	x26,x26,4

  mv x31, x25 # switch data pointer register to avoid conflict with test
     888:	000c8f93          	addi	x31,x25,0
# Testcase cp_rd (Test destination rd = x25)
  RVTEST_TESTDATA_LOAD_INT(x31, x9) # load rs1: x9 = 0xbbf1993a
     88c:	000fa483          	lw	x9,0(x31)
     890:	004f8f93          	addi	x31,x31,4

00000894 <I_addi_cg_cp_rd_b25>:
I_addi_cg_cp_rd_b25:
  addi x25, x9, 1638 # perform operation
     894:	66648c93          	addi	x25,x9,1638
  # Check if x25 contains the expected result. x26 is the signature ptr, x8 is the link ptr, x7 is a temp reg.
  RVTEST_SIGUPD(x26, x8, x7, x25, I_addi_cg_cp_rd_b25, I_addi_cg_cp_rd_b25_str)
     898:	000d2383          	lw	x7,0(x26)
     89c:	01938863          	beq	x7,x25,8ac <I_addi_cg_cp_rd_b25+0x18>
     8a0:	4350246f          	jal	x8,34d4 <failedtest_x8_x7>
     8a4:	00000894          	.word	0x00000894
     8a8:	0000914a          	.word	0x0000914a
     8ac:	004d0d13          	addi	x26,x26,4

  mv x9, x26 # switch signature pointer register to avoid conflict with test
     8b0:	000d0493          	addi	x9,x26,0
# Testcase cp_rd (Test destination rd = x26)
  RVTEST_TESTDATA_LOAD_INT(x31, x25) # load rs1: x25 = 0xa90d1f3b
     8b4:	000fac83          	lw	x25,0(x31)
     8b8:	004f8f93          	addi	x31,x31,4

000008bc <I_addi_cg_cp_rd_b26>:
I_addi_cg_cp_rd_b26:
  addi x26, x25, 1429 # perform operation
     8bc:	595c8d13          	addi	x26,x25,1429
  # Check if x26 contains the expected result. x9 is the signature ptr, x8 is the link ptr, x7 is a temp reg.
  RVTEST_SIGUPD(x9, x8, x7, x26, I_addi_cg_cp_rd_b26, I_addi_cg_cp_rd_b26_str)
     8c0:	0004a383          	lw	x7,0(x9)
     8c4:	01a38863          	beq	x7,x26,8d4 <I_addi_cg_cp_rd_b26+0x18>
     8c8:	40d0246f          	jal	x8,34d4 <failedtest_x8_x7>
     8cc:	000008bc          	.word	0x000008bc
     8d0:	00009179          	.word	0x00009179
     8d4:	00448493          	addi	x9,x9,4

# Testcase cp_rd (Test destination rd = x27)
  RVTEST_TESTDATA_LOAD_INT(x31, x14) # load rs1: x14 = 0xf965234d
     8d8:	000fa703          	lw	x14,0(x31)
     8dc:	004f8f93          	addi	x31,x31,4

000008e0 <I_addi_cg_cp_rd_b27>:
I_addi_cg_cp_rd_b27:
  addi x27, x14, 347 # perform operation
     8e0:	15b70d93          	addi	x27,x14,347
  # Check if x27 contains the expected result. x9 is the signature ptr, x8 is the link ptr, x7 is a temp reg.
  RVTEST_SIGUPD(x9, x8, x7, x27, I_addi_cg_cp_rd_b27, I_addi_cg_cp_rd_b27_str)
     8e4:	0004a383          	lw	x7,0(x9)
     8e8:	01b38863          	beq	x7,x27,8f8 <I_addi_cg_cp_rd_b27+0x18>
     8ec:	3e90246f          	jal	x8,34d4 <failedtest_x8_x7>
     8f0:	000008e0          	.word	0x000008e0
     8f4:	000091a8          	.word	0x000091a8
     8f8:	00448493          	addi	x9,x9,4

# Testcase cp_rd (Test destination rd = x28)
  RVTEST_TESTDATA_LOAD_INT(x31, x11) # load rs1: x11 = 0xc038f94c
     8fc:	000fa583          	lw	x11,0(x31)
     900:	004f8f93          	addi	x31,x31,4

00000904 <I_addi_cg_cp_rd_b28>:
I_addi_cg_cp_rd_b28:
  addi x28, x11, 214 # perform operation
     904:	0d658e13          	addi	x28,x11,214
  # Check if x28 contains the expected result. x9 is the signature ptr, x8 is the link ptr, x7 is a temp reg.
  RVTEST_SIGUPD(x9, x8, x7, x28, I_addi_cg_cp_rd_b28, I_addi_cg_cp_rd_b28_str)
     908:	0004a383          	lw	x7,0(x9)
     90c:	01c38863          	beq	x7,x28,91c <I_addi_cg_cp_rd_b28+0x18>
     910:	3c50246f          	jal	x8,34d4 <failedtest_x8_x7>
     914:	00000904          	.word	0x00000904
     918:	000091d7          	.word	0x000091d7
     91c:	00448493          	addi	x9,x9,4

# Testcase cp_rd (Test destination rd = x29)
  RVTEST_TESTDATA_LOAD_INT(x31, x12) # load rs1: x12 = 0x607ef173
     920:	000fa603          	lw	x12,0(x31)
     924:	004f8f93          	addi	x31,x31,4

00000928 <I_addi_cg_cp_rd_b29>:
I_addi_cg_cp_rd_b29:
  addi x29, x12, 682 # perform operation
     928:	2aa60e93          	addi	x29,x12,682
  # Check if x29 contains the expected result. x9 is the signature ptr, x8 is the link ptr, x7 is a temp reg.
  RVTEST_SIGUPD(x9, x8, x7, x29, I_addi_cg_cp_rd_b29, I_addi_cg_cp_rd_b29_str)
     92c:	0004a383          	lw	x7,0(x9)
     930:	01d38863          	beq	x7,x29,940 <I_addi_cg_cp_rd_b29+0x18>
     934:	3a10246f          	jal	x8,34d4 <failedtest_x8_x7>
     938:	00000928          	.word	0x00000928
     93c:	00009206          	.word	0x00009206
     940:	00448493          	addi	x9,x9,4

# Testcase cp_rd (Test destination rd = x30)
  RVTEST_TESTDATA_LOAD_INT(x31, x24) # load rs1: x24 = 0xc0581916
     944:	000fac03          	lw	x24,0(x31)
     948:	004f8f93          	addi	x31,x31,4

0000094c <I_addi_cg_cp_rd_b30>:
I_addi_cg_cp_rd_b30:
  addi x30, x24, 157 # perform operation
     94c:	09dc0f13          	addi	x30,x24,157
  # Check if x30 contains the expected result. x9 is the signature ptr, x8 is the link ptr, x7 is a temp reg.
  RVTEST_SIGUPD(x9, x8, x7, x30, I_addi_cg_cp_rd_b30, I_addi_cg_cp_rd_b30_str)
     950:	0004a383          	lw	x7,0(x9)
     954:	01e38863          	beq	x7,x30,964 <I_addi_cg_cp_rd_b30+0x18>
     958:	37d0246f          	jal	x8,34d4 <failedtest_x8_x7>
     95c:	0000094c          	.word	0x0000094c
     960:	00009235          	.word	0x00009235
     964:	00448493          	addi	x9,x9,4

  mv x19, x31 # switch data pointer register to avoid conflict with test
     968:	000f8993          	addi	x19,x31,0
# Testcase cp_rd (Test destination rd = x31)
  RVTEST_TESTDATA_LOAD_INT(x19, x15) # load rs1: x15 = 0xada0ddd0
     96c:	0009a783          	lw	x15,0(x19)
     970:	00498993          	addi	x19,x19,4

00000974 <I_addi_cg_cp_rd_b31>:
I_addi_cg_cp_rd_b31:
  addi x31, x15, -1014 # perform operation
     974:	c0a78f93          	addi	x31,x15,-1014
  # Check if x31 contains the expected result. x9 is the signature ptr, x8 is the link ptr, x7 is a temp reg.
  RVTEST_SIGUPD(x9, x8, x7, x31, I_addi_cg_cp_rd_b31, I_addi_cg_cp_rd_b31_str)
     978:	0004a383          	lw	x7,0(x9)
     97c:	01f38863          	beq	x7,x31,98c <I_addi_cg_cp_rd_b31+0x18>
     980:	3550246f          	jal	x8,34d4 <failedtest_x8_x7>
     984:	00000974          	.word	0x00000974
     988:	00009264          	.word	0x00009264
     98c:	00448493          	addi	x9,x9,4
/////////////////////////////////
// cp_rs1_edges
/////////////////////////////////

# Testcase cp_rs1_edges (Test source rs1 value = 0x00000000)
  RVTEST_TESTDATA_LOAD_INT(x19, x16) # load rs1: x16 = 0x00000000
     990:	0009a803          	lw	x16,0(x19)
     994:	00498993          	addi	x19,x19,4

00000998 <I_addi_cg_cp_rs1_edges_0x0>:
I_addi_cg_cp_rs1_edges_0x0:
  addi x13, x16, 209 # perform operation
     998:	0d180693          	addi	x13,x16,209
  # Check if x13 contains the expected result. x9 is the signature ptr, x8 is the link ptr, x7 is a temp reg.
  RVTEST_SIGUPD(x9, x8, x7, x13, I_addi_cg_cp_rs1_edges_0x0, I_addi_cg_cp_rs1_edges_0x0_str)
     99c:	0004a383          	lw	x7,0(x9)
     9a0:	00d38863          	beq	x7,x13,9b0 <I_addi_cg_cp_rs1_edges_0x0+0x18>
     9a4:	3310246f          	jal	x8,34d4 <failedtest_x8_x7>
     9a8:	00000998          	.word	0x00000998
     9ac:	00009293          	.word	0x00009293
     9b0:	00448493          	addi	x9,x9,4

# Testcase cp_rs1_edges (Test source rs1 value = 0x00000001)
  RVTEST_TESTDATA_LOAD_INT(x19, x1) # load rs1: x1 = 0x00000001
     9b4:	0009a083          	lw	x1,0(x19)
     9b8:	00498993          	addi	x19,x19,4

000009bc <I_addi_cg_cp_rs1_edges_0x1>:
I_addi_cg_cp_rs1_edges_0x1:
  addi x3, x1, 1070 # perform operation
     9bc:	42e08193          	addi	x3,x1,1070
  # Check if x3 contains the expected result. x9 is the signature ptr, x8 is the link ptr, x7 is a temp reg.
  RVTEST_SIGUPD(x9, x8, x7, x3, I_addi_cg_cp_rs1_edges_0x1, I_addi_cg_cp_rs1_edges_0x1_str)
     9c0:	0004a383          	lw	x7,0(x9)
     9c4:	00338863          	beq	x7,x3,9d4 <I_addi_cg_cp_rs1_edges_0x1+0x18>
     9c8:	30d0246f          	jal	x8,34d4 <failedtest_x8_x7>
     9cc:	000009bc          	.word	0x000009bc
     9d0:	000092c9          	.word	0x000092c9
     9d4:	00448493          	addi	x9,x9,4

# Testcase cp_rs1_edges (Test source rs1 value = 0x00000002)
  RVTEST_TESTDATA_LOAD_INT(x19, x28) # load rs1: x28 = 0x00000002
     9d8:	0009ae03          	lw	x28,0(x19)
     9dc:	00498993          	addi	x19,x19,4

000009e0 <I_addi_cg_cp_rs1_edges_0x2>:
I_addi_cg_cp_rs1_edges_0x2:
  addi x2, x28, -201 # perform operation
     9e0:	f37e0113          	addi	x2,x28,-201
  # Check if x2 contains the expected result. x9 is the signature ptr, x8 is the link ptr, x7 is a temp reg.
  RVTEST_SIGUPD(x9, x8, x7, x2, I_addi_cg_cp_rs1_edges_0x2, I_addi_cg_cp_rs1_edges_0x2_str)
     9e4:	0004a383          	lw	x7,0(x9)
     9e8:	00238863          	beq	x7,x2,9f8 <I_addi_cg_cp_rs1_edges_0x2+0x18>
     9ec:	2e90246f          	jal	x8,34d4 <failedtest_x8_x7>
     9f0:	000009e0          	.word	0x000009e0
     9f4:	000092ff          	.word	0x000092ff
     9f8:	00448493          	addi	x9,x9,4

# Testcase cp_rs1_edges (Test source rs1 value = 0x80000000)
  RVTEST_TESTDATA_LOAD_INT(x19, x20) # load rs1: x20 = 0x80000000
     9fc:	0009aa03          	lw	x20,0(x19)
     a00:	00498993          	addi	x19,x19,4

00000a04 <I_addi_cg_cp_rs1_edges_0x80000000>:
I_addi_cg_cp_rs1_edges_0x80000000:
  addi x23, x20, -117 # perform operation
     a04:	f8ba0b93          	addi	x23,x20,-117
  # Check if x23 contains the expected result. x9 is the signature ptr, x8 is the link ptr, x7 is a temp reg.
  RVTEST_SIGUPD(x9, x8, x7, x23, I_addi_cg_cp_rs1_edges_0x80000000, I_addi_cg_cp_rs1_edges_0x80000000_str)
     a08:	0004a383          	lw	x7,0(x9)
     a0c:	01738863          	beq	x7,x23,a1c <I_addi_cg_cp_rs1_edges_0x80000000+0x18>
     a10:	2c50246f          	jal	x8,34d4 <failedtest_x8_x7>
     a14:	00000a04          	.word	0x00000a04
     a18:	00009335          	.word	0x00009335
     a1c:	00448493          	addi	x9,x9,4

# Testcase cp_rs1_edges (Test source rs1 value = 0x80000001)
  RVTEST_TESTDATA_LOAD_INT(x19, x10) # load rs1: x10 = 0x80000001
     a20:	0009a503          	lw	x10,0(x19)
     a24:	00498993          	addi	x19,x19,4

00000a28 <I_addi_cg_cp_rs1_edges_0x80000001>:
I_addi_cg_cp_rs1_edges_0x80000001:
  addi x15, x10, 230 # perform operation
     a28:	0e650793          	addi	x15,x10,230
  # Check if x15 contains the expected result. x9 is the signature ptr, x8 is the link ptr, x7 is a temp reg.
  RVTEST_SIGUPD(x9, x8, x7, x15, I_addi_cg_cp_rs1_edges_0x80000001, I_addi_cg_cp_rs1_edges_0x80000001_str)
     a2c:	0004a383          	lw	x7,0(x9)
     a30:	00f38863          	beq	x7,x15,a40 <I_addi_cg_cp_rs1_edges_0x80000001+0x18>
     a34:	2a10246f          	jal	x8,34d4 <failedtest_x8_x7>
     a38:	00000a28          	.word	0x00000a28
     a3c:	00009372          	.word	0x00009372
     a40:	00448493          	addi	x9,x9,4

# Testcase cp_rs1_edges (Test source rs1 value = 0x7fffffff)
  RVTEST_TESTDATA_LOAD_INT(x19, x30) # load rs1: x30 = 0x7fffffff
     a44:	0009af03          	lw	x30,0(x19)
     a48:	00498993          	addi	x19,x19,4

00000a4c <I_addi_cg_cp_rs1_edges_0x7fffffff>:
I_addi_cg_cp_rs1_edges_0x7fffffff:
  addi x25, x30, 963 # perform operation
     a4c:	3c3f0c93          	addi	x25,x30,963
  # Check if x25 contains the expected result. x9 is the signature ptr, x8 is the link ptr, x7 is a temp reg.
  RVTEST_SIGUPD(x9, x8, x7, x25, I_addi_cg_cp_rs1_edges_0x7fffffff, I_addi_cg_cp_rs1_edges_0x7fffffff_str)
     a50:	0004a383          	lw	x7,0(x9)
     a54:	01938863          	beq	x7,x25,a64 <I_addi_cg_cp_rs1_edges_0x7fffffff+0x18>
     a58:	27d0246f          	jal	x8,34d4 <failedtest_x8_x7>
     a5c:	00000a4c          	.word	0x00000a4c
     a60:	000093af          	.word	0x000093af
     a64:	00448493          	addi	x9,x9,4

# Testcase cp_rs1_edges (Test source rs1 value = 0x7ffffffe)
  RVTEST_TESTDATA_LOAD_INT(x19, x24) # load rs1: x24 = 0x7ffffffe
     a68:	0009ac03          	lw	x24,0(x19)
     a6c:	00498993          	addi	x19,x19,4

00000a70 <I_addi_cg_cp_rs1_edges_0x7ffffffe>:
I_addi_cg_cp_rs1_edges_0x7ffffffe:
  addi x23, x24, 1599 # perform operation
     a70:	63fc0b93          	addi	x23,x24,1599
  # Check if x23 contains the expected result. x9 is the signature ptr, x8 is the link ptr, x7 is a temp reg.
  RVTEST_SIGUPD(x9, x8, x7, x23, I_addi_cg_cp_rs1_edges_0x7ffffffe, I_addi_cg_cp_rs1_edges_0x7ffffffe_str)
     a74:	0004a383          	lw	x7,0(x9)
     a78:	01738863          	beq	x7,x23,a88 <I_addi_cg_cp_rs1_edges_0x7ffffffe+0x18>
     a7c:	2590246f          	jal	x8,34d4 <failedtest_x8_x7>
     a80:	00000a70          	.word	0x00000a70
     a84:	000093ec          	.word	0x000093ec
     a88:	00448493          	addi	x9,x9,4

# Testcase cp_rs1_edges (Test source rs1 value = 0xffffffff)
  RVTEST_TESTDATA_LOAD_INT(x19, x15) # load rs1: x15 = 0xffffffff
     a8c:	0009a783          	lw	x15,0(x19)
     a90:	00498993          	addi	x19,x19,4

00000a94 <I_addi_cg_cp_rs1_edges_0xffffffff>:
I_addi_cg_cp_rs1_edges_0xffffffff:
  addi x31, x15, -817 # perform operation
     a94:	ccf78f93          	addi	x31,x15,-817
  # Check if x31 contains the expected result. x9 is the signature ptr, x8 is the link ptr, x7 is a temp reg.
  RVTEST_SIGUPD(x9, x8, x7, x31, I_addi_cg_cp_rs1_edges_0xffffffff, I_addi_cg_cp_rs1_edges_0xffffffff_str)
     a98:	0004a383          	lw	x7,0(x9)
     a9c:	01f38863          	beq	x7,x31,aac <I_addi_cg_cp_rs1_edges_0xffffffff+0x18>
     aa0:	2350246f          	jal	x8,34d4 <failedtest_x8_x7>
     aa4:	00000a94          	.word	0x00000a94
     aa8:	00009429          	.word	0x00009429
     aac:	00448493          	addi	x9,x9,4

# Testcase cp_rs1_edges (Test source rs1 value = 0xfffffffe)
  RVTEST_TESTDATA_LOAD_INT(x19, x12) # load rs1: x12 = 0xfffffffe
     ab0:	0009a603          	lw	x12,0(x19)
     ab4:	00498993          	addi	x19,x19,4

00000ab8 <I_addi_cg_cp_rs1_edges_0xfffffffe>:
I_addi_cg_cp_rs1_edges_0xfffffffe:
  addi x17, x12, -2027 # perform operation
     ab8:	81560893          	addi	x17,x12,-2027
  # Check if x17 contains the expected result. x9 is the signature ptr, x8 is the link ptr, x7 is a temp reg.
  RVTEST_SIGUPD(x9, x8, x7, x17, I_addi_cg_cp_rs1_edges_0xfffffffe, I_addi_cg_cp_rs1_edges_0xfffffffe_str)
     abc:	0004a383          	lw	x7,0(x9)
     ac0:	01138863          	beq	x7,x17,ad0 <I_addi_cg_cp_rs1_edges_0xfffffffe+0x18>
     ac4:	2110246f          	jal	x8,34d4 <failedtest_x8_x7>
     ac8:	00000ab8          	.word	0x00000ab8
     acc:	00009466          	.word	0x00009466
     ad0:	00448493          	addi	x9,x9,4

# Testcase cp_rs1_edges (Test source rs1 value = 0x5bbc8872)
  RVTEST_TESTDATA_LOAD_INT(x19, x23) # load rs1: x23 = 0x5bbc8872
     ad4:	0009ab83          	lw	x23,0(x19)
     ad8:	00498993          	addi	x19,x19,4

00000adc <I_addi_cg_cp_rs1_edges_0x5bbc8872>:
I_addi_cg_cp_rs1_edges_0x5bbc8872:
  addi x29, x23, -1891 # perform operation
     adc:	89db8e93          	addi	x29,x23,-1891
  # Check if x29 contains the expected result. x9 is the signature ptr, x8 is the link ptr, x7 is a temp reg.
  RVTEST_SIGUPD(x9, x8, x7, x29, I_addi_cg_cp_rs1_edges_0x5bbc8872, I_addi_cg_cp_rs1_edges_0x5bbc8872_str)
     ae0:	0004a383          	lw	x7,0(x9)
     ae4:	01d38863          	beq	x7,x29,af4 <I_addi_cg_cp_rs1_edges_0x5bbc8872+0x18>
     ae8:	1ed0246f          	jal	x8,34d4 <failedtest_x8_x7>
     aec:	00000adc          	.word	0x00000adc
     af0:	000094a3          	.word	0x000094a3
     af4:	00448493          	addi	x9,x9,4

# Testcase cp_rs1_edges (Test source rs1 value = 0xaaaaaaaa)
  RVTEST_TESTDATA_LOAD_INT(x19, x3) # load rs1: x3 = 0xaaaaaaaa
     af8:	0009a183          	lw	x3,0(x19)
     afc:	00498993          	addi	x19,x19,4

00000b00 <I_addi_cg_cp_rs1_edges_0xaaaaaaaa>:
I_addi_cg_cp_rs1_edges_0xaaaaaaaa:
  addi x10, x3, 222 # perform operation
     b00:	0de18513          	addi	x10,x3,222
  # Check if x10 contains the expected result. x9 is the signature ptr, x8 is the link ptr, x7 is a temp reg.
  RVTEST_SIGUPD(x9, x8, x7, x10, I_addi_cg_cp_rs1_edges_0xaaaaaaaa, I_addi_cg_cp_rs1_edges_0xaaaaaaaa_str)
     b04:	0004a383          	lw	x7,0(x9)
     b08:	00a38863          	beq	x7,x10,b18 <I_addi_cg_cp_rs1_edges_0xaaaaaaaa+0x18>
     b0c:	1c90246f          	jal	x8,34d4 <failedtest_x8_x7>
     b10:	00000b00          	.word	0x00000b00
     b14:	000094e0          	.word	0x000094e0
     b18:	00448493          	addi	x9,x9,4

# Testcase cp_rs1_edges (Test source rs1 value = 0x55555555)
  RVTEST_TESTDATA_LOAD_INT(x19, x29) # load rs1: x29 = 0x55555555
     b1c:	0009ae83          	lw	x29,0(x19)
     b20:	00498993          	addi	x19,x19,4

00000b24 <I_addi_cg_cp_rs1_edges_0x55555555>:
I_addi_cg_cp_rs1_edges_0x55555555:
  addi x1, x29, -444 # perform operation
     b24:	e44e8093          	addi	x1,x29,-444
  # Check if x1 contains the expected result. x9 is the signature ptr, x8 is the link ptr, x7 is a temp reg.
  RVTEST_SIGUPD(x9, x8, x7, x1, I_addi_cg_cp_rs1_edges_0x55555555, I_addi_cg_cp_rs1_edges_0x55555555_str)
     b28:	0004a383          	lw	x7,0(x9)
     b2c:	00138863          	beq	x7,x1,b3c <I_addi_cg_cp_rs1_edges_0x55555555+0x18>
     b30:	1a50246f          	jal	x8,34d4 <failedtest_x8_x7>
     b34:	00000b24          	.word	0x00000b24
     b38:	0000951d          	.word	0x0000951d
     b3c:	00448493          	addi	x9,x9,4
/////////////////////////////////
// cr_rs1_imm_edges
/////////////////////////////////

# Testcase cr_rs1_imm_edges (rs1 = 0x00000000, imm = 0)
  RVTEST_TESTDATA_LOAD_INT(x19, x16) # load rs1: x16 = 0x00000000
     b40:	0009a803          	lw	x16,0(x19)
     b44:	00498993          	addi	x19,x19,4

00000b48 <I_addi_cg_cr_rs1_imm_edges_rs1val_0x0_immval_0x0>:
I_addi_cg_cr_rs1_imm_edges_rs1val_0x0_immval_0x0:
  addi x6, x16, 0 # perform operation
     b48:	00080313          	addi	x6,x16,0
  # Check if x6 contains the expected result. x9 is the signature ptr, x8 is the link ptr, x7 is a temp reg.
  RVTEST_SIGUPD(x9, x8, x7, x6, I_addi_cg_cr_rs1_imm_edges_rs1val_0x0_immval_0x0, I_addi_cg_cr_rs1_imm_edges_rs1val_0x0_immval_0x0_str)
     b4c:	0004a383          	lw	x7,0(x9)
     b50:	00638863          	beq	x7,x6,b60 <I_addi_cg_cr_rs1_imm_edges_rs1val_0x0_immval_0x0+0x18>
     b54:	1810246f          	jal	x8,34d4 <failedtest_x8_x7>
     b58:	00000b48          	.word	0x00000b48
     b5c:	0000955a          	.word	0x0000955a
     b60:	00448493          	addi	x9,x9,4

# Testcase cr_rs1_imm_edges (rs1 = 0x00000000, imm = 1)
  RVTEST_TESTDATA_LOAD_INT(x19, x29) # load rs1: x29 = 0x00000000
     b64:	0009ae83          	lw	x29,0(x19)
     b68:	00498993          	addi	x19,x19,4

00000b6c <I_addi_cg_cr_rs1_imm_edges_rs1val_0x0_immval_0x1>:
I_addi_cg_cr_rs1_imm_edges_rs1val_0x0_immval_0x1:
  addi x10, x29, 1 # perform operation
     b6c:	001e8513          	addi	x10,x29,1
  # Check if x10 contains the expected result. x9 is the signature ptr, x8 is the link ptr, x7 is a temp reg.
  RVTEST_SIGUPD(x9, x8, x7, x10, I_addi_cg_cr_rs1_imm_edges_rs1val_0x0_immval_0x1, I_addi_cg_cr_rs1_imm_edges_rs1val_0x0_immval_0x1_str)
     b70:	0004a383          	lw	x7,0(x9)
     b74:	00a38863          	beq	x7,x10,b84 <I_addi_cg_cr_rs1_imm_edges_rs1val_0x0_immval_0x1+0x18>
     b78:	15d0246f          	jal	x8,34d4 <failedtest_x8_x7>
     b7c:	00000b6c          	.word	0x00000b6c
     b80:	000095a7          	.word	0x000095a7
     b84:	00448493          	addi	x9,x9,4

# Testcase cr_rs1_imm_edges (rs1 = 0x00000000, imm = 2)
  RVTEST_TESTDATA_LOAD_INT(x19, x30) # load rs1: x30 = 0x00000000
     b88:	0009af03          	lw	x30,0(x19)
     b8c:	00498993          	addi	x19,x19,4

00000b90 <I_addi_cg_cr_rs1_imm_edges_rs1val_0x0_immval_0x2>:
I_addi_cg_cr_rs1_imm_edges_rs1val_0x0_immval_0x2:
  addi x2, x30, 2 # perform operation
     b90:	002f0113          	addi	x2,x30,2
  # Check if x2 contains the expected result. x9 is the signature ptr, x8 is the link ptr, x7 is a temp reg.
  RVTEST_SIGUPD(x9, x8, x7, x2, I_addi_cg_cr_rs1_imm_edges_rs1val_0x0_immval_0x2, I_addi_cg_cr_rs1_imm_edges_rs1val_0x0_immval_0x2_str)
     b94:	0004a383          	lw	x7,0(x9)
     b98:	00238863          	beq	x7,x2,ba8 <I_addi_cg_cr_rs1_imm_edges_rs1val_0x0_immval_0x2+0x18>
     b9c:	1390246f          	jal	x8,34d4 <failedtest_x8_x7>
     ba0:	00000b90          	.word	0x00000b90
     ba4:	000095f4          	.word	0x000095f4
     ba8:	00448493          	addi	x9,x9,4

# Testcase cr_rs1_imm_edges (rs1 = 0x00000000, imm = 3)
  RVTEST_TESTDATA_LOAD_INT(x19, x21) # load rs1: x21 = 0x00000000
     bac:	0009aa83          	lw	x21,0(x19)
     bb0:	00498993          	addi	x19,x19,4

00000bb4 <I_addi_cg_cr_rs1_imm_edges_rs1val_0x0_immval_0x3>:
I_addi_cg_cr_rs1_imm_edges_rs1val_0x0_immval_0x3:
  addi x4, x21, 3 # perform operation
     bb4:	003a8213          	addi	x4,x21,3
  # Check if x4 contains the expected result. x9 is the signature ptr, x8 is the link ptr, x7 is a temp reg.
  RVTEST_SIGUPD(x9, x8, x7, x4, I_addi_cg_cr_rs1_imm_edges_rs1val_0x0_immval_0x3, I_addi_cg_cr_rs1_imm_edges_rs1val_0x0_immval_0x3_str)
     bb8:	0004a383          	lw	x7,0(x9)
     bbc:	00438863          	beq	x7,x4,bcc <I_addi_cg_cr_rs1_imm_edges_rs1val_0x0_immval_0x3+0x18>
     bc0:	1150246f          	jal	x8,34d4 <failedtest_x8_x7>
     bc4:	00000bb4          	.word	0x00000bb4
     bc8:	00009641          	.word	0x00009641
     bcc:	00448493          	addi	x9,x9,4

# Testcase cr_rs1_imm_edges (rs1 = 0x00000000, imm = 4)
  RVTEST_TESTDATA_LOAD_INT(x19, x23) # load rs1: x23 = 0x00000000
     bd0:	0009ab83          	lw	x23,0(x19)
     bd4:	00498993          	addi	x19,x19,4

00000bd8 <I_addi_cg_cr_rs1_imm_edges_rs1val_0x0_immval_0x4>:
I_addi_cg_cr_rs1_imm_edges_rs1val_0x0_immval_0x4:
  addi x1, x23, 4 # perform operation
     bd8:	004b8093          	addi	x1,x23,4
  # Check if x1 contains the expected result. x9 is the signature ptr, x8 is the link ptr, x7 is a temp reg.
  RVTEST_SIGUPD(x9, x8, x7, x1, I_addi_cg_cr_rs1_imm_edges_rs1val_0x0_immval_0x4, I_addi_cg_cr_rs1_imm_edges_rs1val_0x0_immval_0x4_str)
     bdc:	0004a383          	lw	x7,0(x9)
     be0:	00138863          	beq	x7,x1,bf0 <I_addi_cg_cr_rs1_imm_edges_rs1val_0x0_immval_0x4+0x18>
     be4:	0f10246f          	jal	x8,34d4 <failedtest_x8_x7>
     be8:	00000bd8          	.word	0x00000bd8
     bec:	0000968e          	.word	0x0000968e
     bf0:	00448493          	addi	x9,x9,4

# Testcase cr_rs1_imm_edges (rs1 = 0x00000000, imm = 8)
  RVTEST_TESTDATA_LOAD_INT(x19, x1) # load rs1: x1 = 0x00000000
     bf4:	0009a083          	lw	x1,0(x19)
     bf8:	00498993          	addi	x19,x19,4

00000bfc <I_addi_cg_cr_rs1_imm_edges_rs1val_0x0_immval_0x8>:
I_addi_cg_cr_rs1_imm_edges_rs1val_0x0_immval_0x8:
  addi x24, x1, 8 # perform operation
     bfc:	00808c13          	addi	x24,x1,8
  # Check if x24 contains the expected result. x9 is the signature ptr, x8 is the link ptr, x7 is a temp reg.
  RVTEST_SIGUPD(x9, x8, x7, x24, I_addi_cg_cr_rs1_imm_edges_rs1val_0x0_immval_0x8, I_addi_cg_cr_rs1_imm_edges_rs1val_0x0_immval_0x8_str)
     c00:	0004a383          	lw	x7,0(x9)
     c04:	01838863          	beq	x7,x24,c14 <I_addi_cg_cr_rs1_imm_edges_rs1val_0x0_immval_0x8+0x18>
     c08:	0cd0246f          	jal	x8,34d4 <failedtest_x8_x7>
     c0c:	00000bfc          	.word	0x00000bfc
     c10:	000096db          	.word	0x000096db
     c14:	00448493          	addi	x9,x9,4

# Testcase cr_rs1_imm_edges (rs1 = 0x00000000, imm = 16)
  RVTEST_TESTDATA_LOAD_INT(x19, x27) # load rs1: x27 = 0x00000000
     c18:	0009ad83          	lw	x27,0(x19)
     c1c:	00498993          	addi	x19,x19,4

00000c20 <I_addi_cg_cr_rs1_imm_edges_rs1val_0x0_immval_0x10>:
I_addi_cg_cr_rs1_imm_edges_rs1val_0x0_immval_0x10:
  addi x28, x27, 16 # perform operation
     c20:	010d8e13          	addi	x28,x27,16
  # Check if x28 contains the expected result. x9 is the signature ptr, x8 is the link ptr, x7 is a temp reg.
  RVTEST_SIGUPD(x9, x8, x7, x28, I_addi_cg_cr_rs1_imm_edges_rs1val_0x0_immval_0x10, I_addi_cg_cr_rs1_imm_edges_rs1val_0x0_immval_0x10_str)
     c24:	0004a383          	lw	x7,0(x9)
     c28:	01c38863          	beq	x7,x28,c38 <I_addi_cg_cr_rs1_imm_edges_rs1val_0x0_immval_0x10+0x18>
     c2c:	0a90246f          	jal	x8,34d4 <failedtest_x8_x7>
     c30:	00000c20          	.word	0x00000c20
     c34:	00009728          	.word	0x00009728
     c38:	00448493          	addi	x9,x9,4

# Testcase cr_rs1_imm_edges (rs1 = 0x00000000, imm = 32)
  RVTEST_TESTDATA_LOAD_INT(x19, x6) # load rs1: x6 = 0x00000000
     c3c:	0009a303          	lw	x6,0(x19)
     c40:	00498993          	addi	x19,x19,4

00000c44 <I_addi_cg_cr_rs1_imm_edges_rs1val_0x0_immval_0x20>:
I_addi_cg_cr_rs1_imm_edges_rs1val_0x0_immval_0x20:
  addi x1, x6, 32 # perform operation
     c44:	02030093          	addi	x1,x6,32
  # Check if x1 contains the expected result. x9 is the signature ptr, x8 is the link ptr, x7 is a temp reg.
  RVTEST_SIGUPD(x9, x8, x7, x1, I_addi_cg_cr_rs1_imm_edges_rs1val_0x0_immval_0x20, I_addi_cg_cr_rs1_imm_edges_rs1val_0x0_immval_0x20_str)
     c48:	0004a383          	lw	x7,0(x9)
     c4c:	00138863          	beq	x7,x1,c5c <I_addi_cg_cr_rs1_imm_edges_rs1val_0x0_immval_0x20+0x18>
     c50:	0850246f          	jal	x8,34d4 <failedtest_x8_x7>
     c54:	00000c44          	.word	0x00000c44
     c58:	00009776          	.word	0x00009776
     c5c:	00448493          	addi	x9,x9,4

# Testcase cr_rs1_imm_edges (rs1 = 0x00000000, imm = 64)
  RVTEST_TESTDATA_LOAD_INT(x19, x24) # load rs1: x24 = 0x00000000
     c60:	0009ac03          	lw	x24,0(x19)
     c64:	00498993          	addi	x19,x19,4

00000c68 <I_addi_cg_cr_rs1_imm_edges_rs1val_0x0_immval_0x40>:
I_addi_cg_cr_rs1_imm_edges_rs1val_0x0_immval_0x40:
  addi x16, x24, 64 # perform operation
     c68:	040c0813          	addi	x16,x24,64
  # Check if x16 contains the expected result. x9 is the signature ptr, x8 is the link ptr, x7 is a temp reg.
  RVTEST_SIGUPD(x9, x8, x7, x16, I_addi_cg_cr_rs1_imm_edges_rs1val_0x0_immval_0x40, I_addi_cg_cr_rs1_imm_edges_rs1val_0x0_immval_0x40_str)
     c6c:	0004a383          	lw	x7,0(x9)
     c70:	01038863          	beq	x7,x16,c80 <I_addi_cg_cr_rs1_imm_edges_rs1val_0x0_immval_0x40+0x18>
     c74:	0610246f          	jal	x8,34d4 <failedtest_x8_x7>
     c78:	00000c68          	.word	0x00000c68
     c7c:	000097c4          	.word	0x000097c4
     c80:	00448493          	addi	x9,x9,4

# Testcase cr_rs1_imm_edges (rs1 = 0x00000000, imm = 128)
  RVTEST_TESTDATA_LOAD_INT(x19, x18) # load rs1: x18 = 0x00000000
     c84:	0009a903          	lw	x18,0(x19)
     c88:	00498993          	addi	x19,x19,4

00000c8c <I_addi_cg_cr_rs1_imm_edges_rs1val_0x0_immval_0x80>:
I_addi_cg_cr_rs1_imm_edges_rs1val_0x0_immval_0x80:
  addi x31, x18, 128 # perform operation
     c8c:	08090f93          	addi	x31,x18,128
  # Check if x31 contains the expected result. x9 is the signature ptr, x8 is the link ptr, x7 is a temp reg.
  RVTEST_SIGUPD(x9, x8, x7, x31, I_addi_cg_cr_rs1_imm_edges_rs1val_0x0_immval_0x80, I_addi_cg_cr_rs1_imm_edges_rs1val_0x0_immval_0x80_str)
     c90:	0004a383          	lw	x7,0(x9)
     c94:	01f38863          	beq	x7,x31,ca4 <I_addi_cg_cr_rs1_imm_edges_rs1val_0x0_immval_0x80+0x18>
     c98:	03d0246f          	jal	x8,34d4 <failedtest_x8_x7>
     c9c:	00000c8c          	.word	0x00000c8c
     ca0:	00009812          	.word	0x00009812
     ca4:	00448493          	addi	x9,x9,4

# Testcase cr_rs1_imm_edges (rs1 = 0x00000000, imm = 256)
  RVTEST_TESTDATA_LOAD_INT(x19, x21) # load rs1: x21 = 0x00000000
     ca8:	0009aa83          	lw	x21,0(x19)
     cac:	00498993          	addi	x19,x19,4

00000cb0 <I_addi_cg_cr_rs1_imm_edges_rs1val_0x0_immval_0x100>:
I_addi_cg_cr_rs1_imm_edges_rs1val_0x0_immval_0x100:
  addi x22, x21, 256 # perform operation
     cb0:	100a8b13          	addi	x22,x21,256
  # Check if x22 contains the expected result. x9 is the signature ptr, x8 is the link ptr, x7 is a temp reg.
  RVTEST_SIGUPD(x9, x8, x7, x22, I_addi_cg_cr_rs1_imm_edges_rs1val_0x0_immval_0x100, I_addi_cg_cr_rs1_imm_edges_rs1val_0x0_immval_0x100_str)
     cb4:	0004a383          	lw	x7,0(x9)
     cb8:	01638863          	beq	x7,x22,cc8 <I_addi_cg_cr_rs1_imm_edges_rs1val_0x0_immval_0x100+0x18>
     cbc:	0190246f          	jal	x8,34d4 <failedtest_x8_x7>
     cc0:	00000cb0          	.word	0x00000cb0
     cc4:	00009860          	.word	0x00009860
     cc8:	00448493          	addi	x9,x9,4

# Testcase cr_rs1_imm_edges (rs1 = 0x00000000, imm = 512)
  RVTEST_TESTDATA_LOAD_INT(x19, x4) # load rs1: x4 = 0x00000000
     ccc:	0009a203          	lw	x4,0(x19)
     cd0:	00498993          	addi	x19,x19,4

00000cd4 <I_addi_cg_cr_rs1_imm_edges_rs1val_0x0_immval_0x200>:
I_addi_cg_cr_rs1_imm_edges_rs1val_0x0_immval_0x200:
  addi x31, x4, 512 # perform operation
     cd4:	20020f93          	addi	x31,x4,512 # 200 <I_addi_cg_cp_rs1_b11+0x10>
  # Check if x31 contains the expected result. x9 is the signature ptr, x8 is the link ptr, x7 is a temp reg.
  RVTEST_SIGUPD(x9, x8, x7, x31, I_addi_cg_cr_rs1_imm_edges_rs1val_0x0_immval_0x200, I_addi_cg_cr_rs1_imm_edges_rs1val_0x0_immval_0x200_str)
     cd8:	0004a383          	lw	x7,0(x9)
     cdc:	01f38863          	beq	x7,x31,cec <I_addi_cg_cr_rs1_imm_edges_rs1val_0x0_immval_0x200+0x18>
     ce0:	7f40246f          	jal	x8,34d4 <failedtest_x8_x7>
     ce4:	00000cd4          	.word	0x00000cd4
     ce8:	000098af          	.word	0x000098af
     cec:	00448493          	addi	x9,x9,4

# Testcase cr_rs1_imm_edges (rs1 = 0x00000000, imm = 1023)
  RVTEST_TESTDATA_LOAD_INT(x19, x22) # load rs1: x22 = 0x00000000
     cf0:	0009ab03          	lw	x22,0(x19)
     cf4:	00498993          	addi	x19,x19,4

00000cf8 <I_addi_cg_cr_rs1_imm_edges_rs1val_0x0_immval_0x3ff>:
I_addi_cg_cr_rs1_imm_edges_rs1val_0x0_immval_0x3ff:
  addi x1, x22, 1023 # perform operation
     cf8:	3ffb0093          	addi	x1,x22,1023
  # Check if x1 contains the expected result. x9 is the signature ptr, x8 is the link ptr, x7 is a temp reg.
  RVTEST_SIGUPD(x9, x8, x7, x1, I_addi_cg_cr_rs1_imm_edges_rs1val_0x0_immval_0x3ff, I_addi_cg_cr_rs1_imm_edges_rs1val_0x0_immval_0x3ff_str)
     cfc:	0004a383          	lw	x7,0(x9)
     d00:	00138863          	beq	x7,x1,d10 <I_addi_cg_cr_rs1_imm_edges_rs1val_0x0_immval_0x3ff+0x18>
     d04:	7d00246f          	jal	x8,34d4 <failedtest_x8_x7>
     d08:	00000cf8          	.word	0x00000cf8
     d0c:	000098fe          	.word	0x000098fe
     d10:	00448493          	addi	x9,x9,4

# Testcase cr_rs1_imm_edges (rs1 = 0x00000000, imm = 1024)
  RVTEST_TESTDATA_LOAD_INT(x19, x12) # load rs1: x12 = 0x00000000
     d14:	0009a603          	lw	x12,0(x19)
     d18:	00498993          	addi	x19,x19,4

00000d1c <I_addi_cg_cr_rs1_imm_edges_rs1val_0x0_immval_0x400>:
I_addi_cg_cr_rs1_imm_edges_rs1val_0x0_immval_0x400:
  addi x10, x12, 1024 # perform operation
     d1c:	40060513          	addi	x10,x12,1024
  # Check if x10 contains the expected result. x9 is the signature ptr, x8 is the link ptr, x7 is a temp reg.
  RVTEST_SIGUPD(x9, x8, x7, x10, I_addi_cg_cr_rs1_imm_edges_rs1val_0x0_immval_0x400, I_addi_cg_cr_rs1_imm_edges_rs1val_0x0_immval_0x400_str)
     d20:	0004a383          	lw	x7,0(x9)
     d24:	00a38863          	beq	x7,x10,d34 <I_addi_cg_cr_rs1_imm_edges_rs1val_0x0_immval_0x400+0x18>
     d28:	7ac0246f          	jal	x8,34d4 <failedtest_x8_x7>
     d2c:	00000d1c          	.word	0x00000d1c
     d30:	0000994d          	.word	0x0000994d
     d34:	00448493          	addi	x9,x9,4

# Testcase cr_rs1_imm_edges (rs1 = 0x00000000, imm = 1795)
  RVTEST_TESTDATA_LOAD_INT(x19, x1) # load rs1: x1 = 0x00000000
     d38:	0009a083          	lw	x1,0(x19)
     d3c:	00498993          	addi	x19,x19,4

00000d40 <I_addi_cg_cr_rs1_imm_edges_rs1val_0x0_immval_0x703>:
I_addi_cg_cr_rs1_imm_edges_rs1val_0x0_immval_0x703:
  addi x13, x1, 1795 # perform operation
     d40:	70308693          	addi	x13,x1,1795
  # Check if x13 contains the expected result. x9 is the signature ptr, x8 is the link ptr, x7 is a temp reg.
  RVTEST_SIGUPD(x9, x8, x7, x13, I_addi_cg_cr_rs1_imm_edges_rs1val_0x0_immval_0x703, I_addi_cg_cr_rs1_imm_edges_rs1val_0x0_immval_0x703_str)
     d44:	0004a383          	lw	x7,0(x9)
     d48:	00d38863          	beq	x7,x13,d58 <I_addi_cg_cr_rs1_imm_edges_rs1val_0x0_immval_0x703+0x18>
     d4c:	7880246f          	jal	x8,34d4 <failedtest_x8_x7>
     d50:	00000d40          	.word	0x00000d40
     d54:	0000999c          	.word	0x0000999c
     d58:	00448493          	addi	x9,x9,4

# Testcase cr_rs1_imm_edges (rs1 = 0x00000000, imm = 2047)
  RVTEST_TESTDATA_LOAD_INT(x19, x21) # load rs1: x21 = 0x00000000
     d5c:	0009aa83          	lw	x21,0(x19)
     d60:	00498993          	addi	x19,x19,4

00000d64 <I_addi_cg_cr_rs1_imm_edges_rs1val_0x0_immval_0x7ff>:
I_addi_cg_cr_rs1_imm_edges_rs1val_0x0_immval_0x7ff:
  addi x31, x21, 2047 # perform operation
     d64:	7ffa8f93          	addi	x31,x21,2047
  # Check if x31 contains the expected result. x9 is the signature ptr, x8 is the link ptr, x7 is a temp reg.
  RVTEST_SIGUPD(x9, x8, x7, x31, I_addi_cg_cr_rs1_imm_edges_rs1val_0x0_immval_0x7ff, I_addi_cg_cr_rs1_imm_edges_rs1val_0x0_immval_0x7ff_str)
     d68:	0004a383          	lw	x7,0(x9)
     d6c:	01f38863          	beq	x7,x31,d7c <I_addi_cg_cr_rs1_imm_edges_rs1val_0x0_immval_0x7ff+0x18>
     d70:	7640246f          	jal	x8,34d4 <failedtest_x8_x7>
     d74:	00000d64          	.word	0x00000d64
     d78:	000099eb          	.word	0x000099eb
     d7c:	00448493          	addi	x9,x9,4

# Testcase cr_rs1_imm_edges (rs1 = 0x00000000, imm = -2048)
  RVTEST_TESTDATA_LOAD_INT(x19, x31) # load rs1: x31 = 0x00000000
     d80:	0009af83          	lw	x31,0(x19)
     d84:	00498993          	addi	x19,x19,4

00000d88 <I_addi_cg_cr_rs1_imm_edges_rs1val_0x0_immval_m0x800>:
I_addi_cg_cr_rs1_imm_edges_rs1val_0x0_immval_m0x800:
  addi x23, x31, -2048 # perform operation
     d88:	800f8b93          	addi	x23,x31,-2048
  # Check if x23 contains the expected result. x9 is the signature ptr, x8 is the link ptr, x7 is a temp reg.
  RVTEST_SIGUPD(x9, x8, x7, x23, I_addi_cg_cr_rs1_imm_edges_rs1val_0x0_immval_m0x800, I_addi_cg_cr_rs1_imm_edges_rs1val_0x0_immval_m0x800_str)
     d8c:	0004a383          	lw	x7,0(x9)
     d90:	01738863          	beq	x7,x23,da0 <I_addi_cg_cr_rs1_imm_edges_rs1val_0x0_immval_m0x800+0x18>
     d94:	7400246f          	jal	x8,34d4 <failedtest_x8_x7>
     d98:	00000d88          	.word	0x00000d88
     d9c:	00009a3a          	.word	0x00009a3a
     da0:	00448493          	addi	x9,x9,4

# Testcase cr_rs1_imm_edges (rs1 = 0x00000000, imm = -2047)
  RVTEST_TESTDATA_LOAD_INT(x19, x21) # load rs1: x21 = 0x00000000
     da4:	0009aa83          	lw	x21,0(x19)
     da8:	00498993          	addi	x19,x19,4

00000dac <I_addi_cg_cr_rs1_imm_edges_rs1val_0x0_immval_m0x7ff>:
I_addi_cg_cr_rs1_imm_edges_rs1val_0x0_immval_m0x7ff:
  addi x6, x21, -2047 # perform operation
     dac:	801a8313          	addi	x6,x21,-2047
  # Check if x6 contains the expected result. x9 is the signature ptr, x8 is the link ptr, x7 is a temp reg.
  RVTEST_SIGUPD(x9, x8, x7, x6, I_addi_cg_cr_rs1_imm_edges_rs1val_0x0_immval_m0x7ff, I_addi_cg_cr_rs1_imm_edges_rs1val_0x0_immval_m0x7ff_str)
     db0:	0004a383          	lw	x7,0(x9)
     db4:	00638863          	beq	x7,x6,dc4 <I_addi_cg_cr_rs1_imm_edges_rs1val_0x0_immval_m0x7ff+0x18>
     db8:	71c0246f          	jal	x8,34d4 <failedtest_x8_x7>
     dbc:	00000dac          	.word	0x00000dac
     dc0:	00009a8a          	.word	0x00009a8a
     dc4:	00448493          	addi	x9,x9,4

# Testcase cr_rs1_imm_edges (rs1 = 0x00000000, imm = -2)
  RVTEST_TESTDATA_LOAD_INT(x19, x2) # load rs1: x2 = 0x00000000
     dc8:	0009a103          	lw	x2,0(x19)
     dcc:	00498993          	addi	x19,x19,4

00000dd0 <I_addi_cg_cr_rs1_imm_edges_rs1val_0x0_immval_m0x2>:
I_addi_cg_cr_rs1_imm_edges_rs1val_0x0_immval_m0x2:
  addi x10, x2, -2 # perform operation
     dd0:	ffe10513          	addi	x10,x2,-2
  # Check if x10 contains the expected result. x9 is the signature ptr, x8 is the link ptr, x7 is a temp reg.
  RVTEST_SIGUPD(x9, x8, x7, x10, I_addi_cg_cr_rs1_imm_edges_rs1val_0x0_immval_m0x2, I_addi_cg_cr_rs1_imm_edges_rs1val_0x0_immval_m0x2_str)
     dd4:	0004a383          	lw	x7,0(x9)
     dd8:	00a38863          	beq	x7,x10,de8 <I_addi_cg_cr_rs1_imm_edges_rs1val_0x0_immval_m0x2+0x18>
     ddc:	6f80246f          	jal	x8,34d4 <failedtest_x8_x7>
     de0:	00000dd0          	.word	0x00000dd0
     de4:	00009ada          	.word	0x00009ada
     de8:	00448493          	addi	x9,x9,4

# Testcase cr_rs1_imm_edges (rs1 = 0x00000000, imm = -1)
  RVTEST_TESTDATA_LOAD_INT(x19, x20) # load rs1: x20 = 0x00000000
     dec:	0009aa03          	lw	x20,0(x19)
     df0:	00498993          	addi	x19,x19,4

00000df4 <I_addi_cg_cr_rs1_imm_edges_rs1val_0x0_immval_m0x1>:
I_addi_cg_cr_rs1_imm_edges_rs1val_0x0_immval_m0x1:
  addi x1, x20, -1 # perform operation
     df4:	fffa0093          	addi	x1,x20,-1
  # Check if x1 contains the expected result. x9 is the signature ptr, x8 is the link ptr, x7 is a temp reg.
  RVTEST_SIGUPD(x9, x8, x7, x1, I_addi_cg_cr_rs1_imm_edges_rs1val_0x0_immval_m0x1, I_addi_cg_cr_rs1_imm_edges_rs1val_0x0_immval_m0x1_str)
     df8:	0004a383          	lw	x7,0(x9)
     dfc:	00138863          	beq	x7,x1,e0c <I_addi_cg_cr_rs1_imm_edges_rs1val_0x0_immval_m0x1+0x18>
     e00:	6d40246f          	jal	x8,34d4 <failedtest_x8_x7>
     e04:	00000df4          	.word	0x00000df4
     e08:	00009b28          	.word	0x00009b28
     e0c:	00448493          	addi	x9,x9,4

# Testcase cr_rs1_imm_edges (rs1 = 0x00000001, imm = 0)
  RVTEST_TESTDATA_LOAD_INT(x19, x25) # load rs1: x25 = 0x00000001
     e10:	0009ac83          	lw	x25,0(x19)
     e14:	00498993          	addi	x19,x19,4

00000e18 <I_addi_cg_cr_rs1_imm_edges_rs1val_0x1_immval_0x0>:
I_addi_cg_cr_rs1_imm_edges_rs1val_0x1_immval_0x0:
  addi x2, x25, 0 # perform operation
     e18:	000c8113          	addi	x2,x25,0
  # Check if x2 contains the expected result. x9 is the signature ptr, x8 is the link ptr, x7 is a temp reg.
  RVTEST_SIGUPD(x9, x8, x7, x2, I_addi_cg_cr_rs1_imm_edges_rs1val_0x1_immval_0x0, I_addi_cg_cr_rs1_imm_edges_rs1val_0x1_immval_0x0_str)
     e1c:	0004a383          	lw	x7,0(x9)
     e20:	00238863          	beq	x7,x2,e30 <I_addi_cg_cr_rs1_imm_edges_rs1val_0x1_immval_0x0+0x18>
     e24:	6b00246f          	jal	x8,34d4 <failedtest_x8_x7>
     e28:	00000e18          	.word	0x00000e18
     e2c:	00009b76          	.word	0x00009b76
     e30:	00448493          	addi	x9,x9,4

# Testcase cr_rs1_imm_edges (rs1 = 0x00000001, imm = 1)
  RVTEST_TESTDATA_LOAD_INT(x19, x18) # load rs1: x18 = 0x00000001
     e34:	0009a903          	lw	x18,0(x19)
     e38:	00498993          	addi	x19,x19,4

00000e3c <I_addi_cg_cr_rs1_imm_edges_rs1val_0x1_immval_0x1>:
I_addi_cg_cr_rs1_imm_edges_rs1val_0x1_immval_0x1:
  addi x24, x18, 1 # perform operation
     e3c:	00190c13          	addi	x24,x18,1
  # Check if x24 contains the expected result. x9 is the signature ptr, x8 is the link ptr, x7 is a temp reg.
  RVTEST_SIGUPD(x9, x8, x7, x24, I_addi_cg_cr_rs1_imm_edges_rs1val_0x1_immval_0x1, I_addi_cg_cr_rs1_imm_edges_rs1val_0x1_immval_0x1_str)
     e40:	0004a383          	lw	x7,0(x9)
     e44:	01838863          	beq	x7,x24,e54 <I_addi_cg_cr_rs1_imm_edges_rs1val_0x1_immval_0x1+0x18>
     e48:	68c0246f          	jal	x8,34d4 <failedtest_x8_x7>
     e4c:	00000e3c          	.word	0x00000e3c
     e50:	00009bc3          	.word	0x00009bc3
     e54:	00448493          	addi	x9,x9,4

# Testcase cr_rs1_imm_edges (rs1 = 0x00000001, imm = 2)
  RVTEST_TESTDATA_LOAD_INT(x19, x2) # load rs1: x2 = 0x00000001
     e58:	0009a103          	lw	x2,0(x19)
     e5c:	00498993          	addi	x19,x19,4

00000e60 <I_addi_cg_cr_rs1_imm_edges_rs1val_0x1_immval_0x2>:
I_addi_cg_cr_rs1_imm_edges_rs1val_0x1_immval_0x2:
  addi x17, x2, 2 # perform operation
     e60:	00210893          	addi	x17,x2,2
  # Check if x17 contains the expected result. x9 is the signature ptr, x8 is the link ptr, x7 is a temp reg.
  RVTEST_SIGUPD(x9, x8, x7, x17, I_addi_cg_cr_rs1_imm_edges_rs1val_0x1_immval_0x2, I_addi_cg_cr_rs1_imm_edges_rs1val_0x1_immval_0x2_str)
     e64:	0004a383          	lw	x7,0(x9)
     e68:	01138863          	beq	x7,x17,e78 <I_addi_cg_cr_rs1_imm_edges_rs1val_0x1_immval_0x2+0x18>
     e6c:	6680246f          	jal	x8,34d4 <failedtest_x8_x7>
     e70:	00000e60          	.word	0x00000e60
     e74:	00009c10          	.word	0x00009c10
     e78:	00448493          	addi	x9,x9,4

# Testcase cr_rs1_imm_edges (rs1 = 0x00000001, imm = 3)
  RVTEST_TESTDATA_LOAD_INT(x19, x15) # load rs1: x15 = 0x00000001
     e7c:	0009a783          	lw	x15,0(x19)
     e80:	00498993          	addi	x19,x19,4

00000e84 <I_addi_cg_cr_rs1_imm_edges_rs1val_0x1_immval_0x3>:
I_addi_cg_cr_rs1_imm_edges_rs1val_0x1_immval_0x3:
  addi x5, x15, 3 # perform operation
     e84:	00378293          	addi	x5,x15,3
  # Check if x5 contains the expected result. x9 is the signature ptr, x8 is the link ptr, x7 is a temp reg.
  RVTEST_SIGUPD(x9, x8, x7, x5, I_addi_cg_cr_rs1_imm_edges_rs1val_0x1_immval_0x3, I_addi_cg_cr_rs1_imm_edges_rs1val_0x1_immval_0x3_str)
     e88:	0004a383          	lw	x7,0(x9)
     e8c:	00538863          	beq	x7,x5,e9c <I_addi_cg_cr_rs1_imm_edges_rs1val_0x1_immval_0x3+0x18>
     e90:	6440246f          	jal	x8,34d4 <failedtest_x8_x7>
     e94:	00000e84          	.word	0x00000e84
     e98:	00009c5d          	.word	0x00009c5d
     e9c:	00448493          	addi	x9,x9,4

# Testcase cr_rs1_imm_edges (rs1 = 0x00000001, imm = 4)
  RVTEST_TESTDATA_LOAD_INT(x19, x6) # load rs1: x6 = 0x00000001
     ea0:	0009a303          	lw	x6,0(x19)
     ea4:	00498993          	addi	x19,x19,4

00000ea8 <I_addi_cg_cr_rs1_imm_edges_rs1val_0x1_immval_0x4>:
I_addi_cg_cr_rs1_imm_edges_rs1val_0x1_immval_0x4:
  addi x3, x6, 4 # perform operation
     ea8:	00430193          	addi	x3,x6,4
  # Check if x3 contains the expected result. x9 is the signature ptr, x8 is the link ptr, x7 is a temp reg.
  RVTEST_SIGUPD(x9, x8, x7, x3, I_addi_cg_cr_rs1_imm_edges_rs1val_0x1_immval_0x4, I_addi_cg_cr_rs1_imm_edges_rs1val_0x1_immval_0x4_str)
     eac:	0004a383          	lw	x7,0(x9)
     eb0:	00338863          	beq	x7,x3,ec0 <I_addi_cg_cr_rs1_imm_edges_rs1val_0x1_immval_0x4+0x18>
     eb4:	6200246f          	jal	x8,34d4 <failedtest_x8_x7>
     eb8:	00000ea8          	.word	0x00000ea8
     ebc:	00009cab          	.word	0x00009cab
     ec0:	00448493          	addi	x9,x9,4

# Testcase cr_rs1_imm_edges (rs1 = 0x00000001, imm = 8)
  RVTEST_TESTDATA_LOAD_INT(x19, x16) # load rs1: x16 = 0x00000001
     ec4:	0009a803          	lw	x16,0(x19)
     ec8:	00498993          	addi	x19,x19,4

00000ecc <I_addi_cg_cr_rs1_imm_edges_rs1val_0x1_immval_0x8>:
I_addi_cg_cr_rs1_imm_edges_rs1val_0x1_immval_0x8:
  addi x18, x16, 8 # perform operation
     ecc:	00880913          	addi	x18,x16,8
  # Check if x18 contains the expected result. x9 is the signature ptr, x8 is the link ptr, x7 is a temp reg.
  RVTEST_SIGUPD(x9, x8, x7, x18, I_addi_cg_cr_rs1_imm_edges_rs1val_0x1_immval_0x8, I_addi_cg_cr_rs1_imm_edges_rs1val_0x1_immval_0x8_str)
     ed0:	0004a383          	lw	x7,0(x9)
     ed4:	01238863          	beq	x7,x18,ee4 <I_addi_cg_cr_rs1_imm_edges_rs1val_0x1_immval_0x8+0x18>
     ed8:	5fc0246f          	jal	x8,34d4 <failedtest_x8_x7>
     edc:	00000ecc          	.word	0x00000ecc
     ee0:	00009cf9          	.word	0x00009cf9
     ee4:	00448493          	addi	x9,x9,4

# Testcase cr_rs1_imm_edges (rs1 = 0x00000001, imm = 16)
  RVTEST_TESTDATA_LOAD_INT(x19, x31) # load rs1: x31 = 0x00000001
     ee8:	0009af83          	lw	x31,0(x19)
     eec:	00498993          	addi	x19,x19,4

00000ef0 <I_addi_cg_cr_rs1_imm_edges_rs1val_0x1_immval_0x10>:
I_addi_cg_cr_rs1_imm_edges_rs1val_0x1_immval_0x10:
  addi x26, x31, 16 # perform operation
     ef0:	010f8d13          	addi	x26,x31,16
  # Check if x26 contains the expected result. x9 is the signature ptr, x8 is the link ptr, x7 is a temp reg.
  RVTEST_SIGUPD(x9, x8, x7, x26, I_addi_cg_cr_rs1_imm_edges_rs1val_0x1_immval_0x10, I_addi_cg_cr_rs1_imm_edges_rs1val_0x1_immval_0x10_str)
     ef4:	0004a383          	lw	x7,0(x9)
     ef8:	01a38863          	beq	x7,x26,f08 <I_addi_cg_cr_rs1_imm_edges_rs1val_0x1_immval_0x10+0x18>
     efc:	5d80246f          	jal	x8,34d4 <failedtest_x8_x7>
     f00:	00000ef0          	.word	0x00000ef0
     f04:	00009d47          	.word	0x00009d47
     f08:	00448493          	addi	x9,x9,4

# Testcase cr_rs1_imm_edges (rs1 = 0x00000001, imm = 32)
  RVTEST_TESTDATA_LOAD_INT(x19, x14) # load rs1: x14 = 0x00000001
     f0c:	0009a703          	lw	x14,0(x19)
     f10:	00498993          	addi	x19,x19,4

00000f14 <I_addi_cg_cr_rs1_imm_edges_rs1val_0x1_immval_0x20>:
I_addi_cg_cr_rs1_imm_edges_rs1val_0x1_immval_0x20:
  addi x11, x14, 32 # perform operation
     f14:	02070593          	addi	x11,x14,32
  # Check if x11 contains the expected result. x9 is the signature ptr, x8 is the link ptr, x7 is a temp reg.
  RVTEST_SIGUPD(x9, x8, x7, x11, I_addi_cg_cr_rs1_imm_edges_rs1val_0x1_immval_0x20, I_addi_cg_cr_rs1_imm_edges_rs1val_0x1_immval_0x20_str)
     f18:	0004a383          	lw	x7,0(x9)
     f1c:	00b38863          	beq	x7,x11,f2c <I_addi_cg_cr_rs1_imm_edges_rs1val_0x1_immval_0x20+0x18>
     f20:	5b40246f          	jal	x8,34d4 <failedtest_x8_x7>
     f24:	00000f14          	.word	0x00000f14
     f28:	00009d96          	.word	0x00009d96
     f2c:	00448493          	addi	x9,x9,4

# Testcase cr_rs1_imm_edges (rs1 = 0x00000001, imm = 64)
  RVTEST_TESTDATA_LOAD_INT(x19, x2) # load rs1: x2 = 0x00000001
     f30:	0009a103          	lw	x2,0(x19)
     f34:	00498993          	addi	x19,x19,4

00000f38 <I_addi_cg_cr_rs1_imm_edges_rs1val_0x1_immval_0x40>:
I_addi_cg_cr_rs1_imm_edges_rs1val_0x1_immval_0x40:
  addi x10, x2, 64 # perform operation
     f38:	04010513          	addi	x10,x2,64
  # Check if x10 contains the expected result. x9 is the signature ptr, x8 is the link ptr, x7 is a temp reg.
  RVTEST_SIGUPD(x9, x8, x7, x10, I_addi_cg_cr_rs1_imm_edges_rs1val_0x1_immval_0x40, I_addi_cg_cr_rs1_imm_edges_rs1val_0x1_immval_0x40_str)
     f3c:	0004a383          	lw	x7,0(x9)
     f40:	00a38863          	beq	x7,x10,f50 <I_addi_cg_cr_rs1_imm_edges_rs1val_0x1_immval_0x40+0x18>
     f44:	5900246f          	jal	x8,34d4 <failedtest_x8_x7>
     f48:	00000f38          	.word	0x00000f38
     f4c:	00009de5          	.word	0x00009de5
     f50:	00448493          	addi	x9,x9,4

# Testcase cr_rs1_imm_edges (rs1 = 0x00000001, imm = 128)
  RVTEST_TESTDATA_LOAD_INT(x19, x2) # load rs1: x2 = 0x00000001
     f54:	0009a103          	lw	x2,0(x19)
     f58:	00498993          	addi	x19,x19,4

00000f5c <I_addi_cg_cr_rs1_imm_edges_rs1val_0x1_immval_0x80>:
I_addi_cg_cr_rs1_imm_edges_rs1val_0x1_immval_0x80:
  addi x17, x2, 128 # perform operation
     f5c:	08010893          	addi	x17,x2,128
  # Check if x17 contains the expected result. x9 is the signature ptr, x8 is the link ptr, x7 is a temp reg.
  RVTEST_SIGUPD(x9, x8, x7, x17, I_addi_cg_cr_rs1_imm_edges_rs1val_0x1_immval_0x80, I_addi_cg_cr_rs1_imm_edges_rs1val_0x1_immval_0x80_str)
     f60:	0004a383          	lw	x7,0(x9)
     f64:	01138863          	beq	x7,x17,f74 <I_addi_cg_cr_rs1_imm_edges_rs1val_0x1_immval_0x80+0x18>
     f68:	56c0246f          	jal	x8,34d4 <failedtest_x8_x7>
     f6c:	00000f5c          	.word	0x00000f5c
     f70:	00009e34          	.word	0x00009e34
     f74:	00448493          	addi	x9,x9,4

# Testcase cr_rs1_imm_edges (rs1 = 0x00000001, imm = 256)
  RVTEST_TESTDATA_LOAD_INT(x19, x22) # load rs1: x22 = 0x00000001
     f78:	0009ab03          	lw	x22,0(x19)
     f7c:	00498993          	addi	x19,x19,4

00000f80 <I_addi_cg_cr_rs1_imm_edges_rs1val_0x1_immval_0x100>:
I_addi_cg_cr_rs1_imm_edges_rs1val_0x1_immval_0x100:
  addi x10, x22, 256 # perform operation
     f80:	100b0513          	addi	x10,x22,256
  # Check if x10 contains the expected result. x9 is the signature ptr, x8 is the link ptr, x7 is a temp reg.
  RVTEST_SIGUPD(x9, x8, x7, x10, I_addi_cg_cr_rs1_imm_edges_rs1val_0x1_immval_0x100, I_addi_cg_cr_rs1_imm_edges_rs1val_0x1_immval_0x100_str)
     f84:	0004a383          	lw	x7,0(x9)
     f88:	00a38863          	beq	x7,x10,f98 <I_addi_cg_cr_rs1_imm_edges_rs1val_0x1_immval_0x100+0x18>
     f8c:	5480246f          	jal	x8,34d4 <failedtest_x8_x7>
     f90:	00000f80          	.word	0x00000f80
     f94:	00009e83          	.word	0x00009e83
     f98:	00448493          	addi	x9,x9,4

# Testcase cr_rs1_imm_edges (rs1 = 0x00000001, imm = 512)
  RVTEST_TESTDATA_LOAD_INT(x19, x20) # load rs1: x20 = 0x00000001
     f9c:	0009aa03          	lw	x20,0(x19)
     fa0:	00498993          	addi	x19,x19,4

00000fa4 <I_addi_cg_cr_rs1_imm_edges_rs1val_0x1_immval_0x200>:
I_addi_cg_cr_rs1_imm_edges_rs1val_0x1_immval_0x200:
  addi x22, x20, 512 # perform operation
     fa4:	200a0b13          	addi	x22,x20,512
  # Check if x22 contains the expected result. x9 is the signature ptr, x8 is the link ptr, x7 is a temp reg.
  RVTEST_SIGUPD(x9, x8, x7, x22, I_addi_cg_cr_rs1_imm_edges_rs1val_0x1_immval_0x200, I_addi_cg_cr_rs1_imm_edges_rs1val_0x1_immval_0x200_str)
     fa8:	0004a383          	lw	x7,0(x9)
     fac:	01638863          	beq	x7,x22,fbc <I_addi_cg_cr_rs1_imm_edges_rs1val_0x1_immval_0x200+0x18>
     fb0:	5240246f          	jal	x8,34d4 <failedtest_x8_x7>
     fb4:	00000fa4          	.word	0x00000fa4
     fb8:	00009ed3          	.word	0x00009ed3
     fbc:	00448493          	addi	x9,x9,4

# Testcase cr_rs1_imm_edges (rs1 = 0x00000001, imm = 1023)
  RVTEST_TESTDATA_LOAD_INT(x19, x25) # load rs1: x25 = 0x00000001
     fc0:	0009ac83          	lw	x25,0(x19)
     fc4:	00498993          	addi	x19,x19,4

00000fc8 <I_addi_cg_cr_rs1_imm_edges_rs1val_0x1_immval_0x3ff>:
I_addi_cg_cr_rs1_imm_edges_rs1val_0x1_immval_0x3ff:
  addi x23, x25, 1023 # perform operation
     fc8:	3ffc8b93          	addi	x23,x25,1023
  # Check if x23 contains the expected result. x9 is the signature ptr, x8 is the link ptr, x7 is a temp reg.
  RVTEST_SIGUPD(x9, x8, x7, x23, I_addi_cg_cr_rs1_imm_edges_rs1val_0x1_immval_0x3ff, I_addi_cg_cr_rs1_imm_edges_rs1val_0x1_immval_0x3ff_str)
     fcc:	0004a383          	lw	x7,0(x9)
     fd0:	01738863          	beq	x7,x23,fe0 <I_addi_cg_cr_rs1_imm_edges_rs1val_0x1_immval_0x3ff+0x18>
     fd4:	5000246f          	jal	x8,34d4 <failedtest_x8_x7>
     fd8:	00000fc8          	.word	0x00000fc8
     fdc:	00009f23          	.word	0x00009f23
     fe0:	00448493          	addi	x9,x9,4

# Testcase cr_rs1_imm_edges (rs1 = 0x00000001, imm = 1024)
  RVTEST_TESTDATA_LOAD_INT(x19, x4) # load rs1: x4 = 0x00000001
     fe4:	0009a203          	lw	x4,0(x19)
     fe8:	00498993          	addi	x19,x19,4

00000fec <I_addi_cg_cr_rs1_imm_edges_rs1val_0x1_immval_0x400>:
I_addi_cg_cr_rs1_imm_edges_rs1val_0x1_immval_0x400:
  addi x18, x4, 1024 # perform operation
     fec:	40020913          	addi	x18,x4,1024 # 400 <I_addi_cg_cp_rs1_b25+0x8>
  # Check if x18 contains the expected result. x9 is the signature ptr, x8 is the link ptr, x7 is a temp reg.
  RVTEST_SIGUPD(x9, x8, x7, x18, I_addi_cg_cr_rs1_imm_edges_rs1val_0x1_immval_0x400, I_addi_cg_cr_rs1_imm_edges_rs1val_0x1_immval_0x400_str)
     ff0:	0004a383          	lw	x7,0(x9)
     ff4:	01238863          	beq	x7,x18,1004 <I_addi_cg_cr_rs1_imm_edges_rs1val_0x1_immval_0x400+0x18>
     ff8:	4dc0246f          	jal	x8,34d4 <failedtest_x8_x7>
     ffc:	00000fec          	.word	0x00000fec
    1000:	00009f73          	.word	0x00009f73
    1004:	00448493          	addi	x9,x9,4

# Testcase cr_rs1_imm_edges (rs1 = 0x00000001, imm = 1795)
  RVTEST_TESTDATA_LOAD_INT(x19, x3) # load rs1: x3 = 0x00000001
    1008:	0009a183          	lw	x3,0(x19)
    100c:	00498993          	addi	x19,x19,4

00001010 <I_addi_cg_cr_rs1_imm_edges_rs1val_0x1_immval_0x703>:
I_addi_cg_cr_rs1_imm_edges_rs1val_0x1_immval_0x703:
  addi x14, x3, 1795 # perform operation
    1010:	70318713          	addi	x14,x3,1795
  # Check if x14 contains the expected result. x9 is the signature ptr, x8 is the link ptr, x7 is a temp reg.
  RVTEST_SIGUPD(x9, x8, x7, x14, I_addi_cg_cr_rs1_imm_edges_rs1val_0x1_immval_0x703, I_addi_cg_cr_rs1_imm_edges_rs1val_0x1_immval_0x703_str)
    1014:	0004a383          	lw	x7,0(x9)
    1018:	00e38863          	beq	x7,x14,1028 <I_addi_cg_cr_rs1_imm_edges_rs1val_0x1_immval_0x703+0x18>
    101c:	4b80246f          	jal	x8,34d4 <failedtest_x8_x7>
    1020:	00001010          	.word	0x00001010
    1024:	00009fc3          	.word	0x00009fc3
    1028:	00448493          	addi	x9,x9,4

# Testcase cr_rs1_imm_edges (rs1 = 0x00000001, imm = 2047)
  RVTEST_TESTDATA_LOAD_INT(x19, x24) # load rs1: x24 = 0x00000001
    102c:	0009ac03          	lw	x24,0(x19)
    1030:	00498993          	addi	x19,x19,4

00001034 <I_addi_cg_cr_rs1_imm_edges_rs1val_0x1_immval_0x7ff>:
I_addi_cg_cr_rs1_imm_edges_rs1val_0x1_immval_0x7ff:
  addi x6, x24, 2047 # perform operation
    1034:	7ffc0313          	addi	x6,x24,2047
  # Check if x6 contains the expected result. x9 is the signature ptr, x8 is the link ptr, x7 is a temp reg.
  RVTEST_SIGUPD(x9, x8, x7, x6, I_addi_cg_cr_rs1_imm_edges_rs1val_0x1_immval_0x7ff, I_addi_cg_cr_rs1_imm_edges_rs1val_0x1_immval_0x7ff_str)
    1038:	0004a383          	lw	x7,0(x9)
    103c:	00638863          	beq	x7,x6,104c <I_addi_cg_cr_rs1_imm_edges_rs1val_0x1_immval_0x7ff+0x18>
    1040:	4940246f          	jal	x8,34d4 <failedtest_x8_x7>
    1044:	00001034          	.word	0x00001034
    1048:	0000a013          	.word	0x0000a013
    104c:	00448493          	addi	x9,x9,4

# Testcase cr_rs1_imm_edges (rs1 = 0x00000001, imm = -2048)
  RVTEST_TESTDATA_LOAD_INT(x19, x11) # load rs1: x11 = 0x00000001
    1050:	0009a583          	lw	x11,0(x19)
    1054:	00498993          	addi	x19,x19,4

00001058 <I_addi_cg_cr_rs1_imm_edges_rs1val_0x1_immval_m0x800>:
I_addi_cg_cr_rs1_imm_edges_rs1val_0x1_immval_m0x800:
  addi x23, x11, -2048 # perform operation
    1058:	80058b93          	addi	x23,x11,-2048
  # Check if x23 contains the expected result. x9 is the signature ptr, x8 is the link ptr, x7 is a temp reg.
  RVTEST_SIGUPD(x9, x8, x7, x23, I_addi_cg_cr_rs1_imm_edges_rs1val_0x1_immval_m0x800, I_addi_cg_cr_rs1_imm_edges_rs1val_0x1_immval_m0x800_str)
    105c:	0004a383          	lw	x7,0(x9)
    1060:	01738863          	beq	x7,x23,1070 <I_addi_cg_cr_rs1_imm_edges_rs1val_0x1_immval_m0x800+0x18>
    1064:	4700246f          	jal	x8,34d4 <failedtest_x8_x7>
    1068:	00001058          	.word	0x00001058
    106c:	0000a063          	.word	0x0000a063
    1070:	00448493          	addi	x9,x9,4

# Testcase cr_rs1_imm_edges (rs1 = 0x00000001, imm = -2047)
  RVTEST_TESTDATA_LOAD_INT(x19, x11) # load rs1: x11 = 0x00000001
    1074:	0009a583          	lw	x11,0(x19)
    1078:	00498993          	addi	x19,x19,4

0000107c <I_addi_cg_cr_rs1_imm_edges_rs1val_0x1_immval_m0x7ff>:
I_addi_cg_cr_rs1_imm_edges_rs1val_0x1_immval_m0x7ff:
  addi x5, x11, -2047 # perform operation
    107c:	80158293          	addi	x5,x11,-2047
  # Check if x5 contains the expected result. x9 is the signature ptr, x8 is the link ptr, x7 is a temp reg.
  RVTEST_SIGUPD(x9, x8, x7, x5, I_addi_cg_cr_rs1_imm_edges_rs1val_0x1_immval_m0x7ff, I_addi_cg_cr_rs1_imm_edges_rs1val_0x1_immval_m0x7ff_str)
    1080:	0004a383          	lw	x7,0(x9)
    1084:	00538863          	beq	x7,x5,1094 <I_addi_cg_cr_rs1_imm_edges_rs1val_0x1_immval_m0x7ff+0x18>
    1088:	44c0246f          	jal	x8,34d4 <failedtest_x8_x7>
    108c:	0000107c          	.word	0x0000107c
    1090:	0000a0b4          	.word	0x0000a0b4
    1094:	00448493          	addi	x9,x9,4

# Testcase cr_rs1_imm_edges (rs1 = 0x00000001, imm = -2)
  RVTEST_TESTDATA_LOAD_INT(x19, x27) # load rs1: x27 = 0x00000001
    1098:	0009ad83          	lw	x27,0(x19)
    109c:	00498993          	addi	x19,x19,4

000010a0 <I_addi_cg_cr_rs1_imm_edges_rs1val_0x1_immval_m0x2>:
I_addi_cg_cr_rs1_imm_edges_rs1val_0x1_immval_m0x2:
  addi x18, x27, -2 # perform operation
    10a0:	ffed8913          	addi	x18,x27,-2
  # Check if x18 contains the expected result. x9 is the signature ptr, x8 is the link ptr, x7 is a temp reg.
  RVTEST_SIGUPD(x9, x8, x7, x18, I_addi_cg_cr_rs1_imm_edges_rs1val_0x1_immval_m0x2, I_addi_cg_cr_rs1_imm_edges_rs1val_0x1_immval_m0x2_str)
    10a4:	0004a383          	lw	x7,0(x9)
    10a8:	01238863          	beq	x7,x18,10b8 <I_addi_cg_cr_rs1_imm_edges_rs1val_0x1_immval_m0x2+0x18>
    10ac:	4280246f          	jal	x8,34d4 <failedtest_x8_x7>
    10b0:	000010a0          	.word	0x000010a0
    10b4:	0000a105          	.word	0x0000a105
    10b8:	00448493          	addi	x9,x9,4

# Testcase cr_rs1_imm_edges (rs1 = 0x00000001, imm = -1)
  RVTEST_TESTDATA_LOAD_INT(x19, x3) # load rs1: x3 = 0x00000001
    10bc:	0009a183          	lw	x3,0(x19)
    10c0:	00498993          	addi	x19,x19,4

000010c4 <I_addi_cg_cr_rs1_imm_edges_rs1val_0x1_immval_m0x1>:
I_addi_cg_cr_rs1_imm_edges_rs1val_0x1_immval_m0x1:
  addi x15, x3, -1 # perform operation
    10c4:	fff18793          	addi	x15,x3,-1
  # Check if x15 contains the expected result. x9 is the signature ptr, x8 is the link ptr, x7 is a temp reg.
  RVTEST_SIGUPD(x9, x8, x7, x15, I_addi_cg_cr_rs1_imm_edges_rs1val_0x1_immval_m0x1, I_addi_cg_cr_rs1_imm_edges_rs1val_0x1_immval_m0x1_str)
    10c8:	0004a383          	lw	x7,0(x9)
    10cc:	00f38863          	beq	x7,x15,10dc <I_addi_cg_cr_rs1_imm_edges_rs1val_0x1_immval_m0x1+0x18>
    10d0:	4040246f          	jal	x8,34d4 <failedtest_x8_x7>
    10d4:	000010c4          	.word	0x000010c4
    10d8:	0000a154          	.word	0x0000a154
    10dc:	00448493          	addi	x9,x9,4

# Testcase cr_rs1_imm_edges (rs1 = 0x00000002, imm = 0)
  RVTEST_TESTDATA_LOAD_INT(x19, x11) # load rs1: x11 = 0x00000002
    10e0:	0009a583          	lw	x11,0(x19)
    10e4:	00498993          	addi	x19,x19,4

000010e8 <I_addi_cg_cr_rs1_imm_edges_rs1val_0x2_immval_0x0>:
I_addi_cg_cr_rs1_imm_edges_rs1val_0x2_immval_0x0:
  addi x12, x11, 0 # perform operation
    10e8:	00058613          	addi	x12,x11,0
  # Check if x12 contains the expected result. x9 is the signature ptr, x8 is the link ptr, x7 is a temp reg.
  RVTEST_SIGUPD(x9, x8, x7, x12, I_addi_cg_cr_rs1_imm_edges_rs1val_0x2_immval_0x0, I_addi_cg_cr_rs1_imm_edges_rs1val_0x2_immval_0x0_str)
    10ec:	0004a383          	lw	x7,0(x9)
    10f0:	00c38863          	beq	x7,x12,1100 <I_addi_cg_cr_rs1_imm_edges_rs1val_0x2_immval_0x0+0x18>
    10f4:	3e00246f          	jal	x8,34d4 <failedtest_x8_x7>
    10f8:	000010e8          	.word	0x000010e8
    10fc:	0000a1a3          	.word	0x0000a1a3
    1100:	00448493          	addi	x9,x9,4

# Testcase cr_rs1_imm_edges (rs1 = 0x00000002, imm = 1)
  RVTEST_TESTDATA_LOAD_INT(x19, x13) # load rs1: x13 = 0x00000002
    1104:	0009a683          	lw	x13,0(x19)
    1108:	00498993          	addi	x19,x19,4

0000110c <I_addi_cg_cr_rs1_imm_edges_rs1val_0x2_immval_0x1>:
I_addi_cg_cr_rs1_imm_edges_rs1val_0x2_immval_0x1:
  addi x21, x13, 1 # perform operation
    110c:	00168a93          	addi	x21,x13,1
  # Check if x21 contains the expected result. x9 is the signature ptr, x8 is the link ptr, x7 is a temp reg.
  RVTEST_SIGUPD(x9, x8, x7, x21, I_addi_cg_cr_rs1_imm_edges_rs1val_0x2_immval_0x1, I_addi_cg_cr_rs1_imm_edges_rs1val_0x2_immval_0x1_str)
    1110:	0004a383          	lw	x7,0(x9)
    1114:	01538863          	beq	x7,x21,1124 <I_addi_cg_cr_rs1_imm_edges_rs1val_0x2_immval_0x1+0x18>
    1118:	3bc0246f          	jal	x8,34d4 <failedtest_x8_x7>
    111c:	0000110c          	.word	0x0000110c
    1120:	0000a1f1          	.word	0x0000a1f1
    1124:	00448493          	addi	x9,x9,4

# Testcase cr_rs1_imm_edges (rs1 = 0x00000002, imm = 2)
  RVTEST_TESTDATA_LOAD_INT(x19, x24) # load rs1: x24 = 0x00000002
    1128:	0009ac03          	lw	x24,0(x19)
    112c:	00498993          	addi	x19,x19,4

00001130 <I_addi_cg_cr_rs1_imm_edges_rs1val_0x2_immval_0x2>:
I_addi_cg_cr_rs1_imm_edges_rs1val_0x2_immval_0x2:
  addi x15, x24, 2 # perform operation
    1130:	002c0793          	addi	x15,x24,2
  # Check if x15 contains the expected result. x9 is the signature ptr, x8 is the link ptr, x7 is a temp reg.
  RVTEST_SIGUPD(x9, x8, x7, x15, I_addi_cg_cr_rs1_imm_edges_rs1val_0x2_immval_0x2, I_addi_cg_cr_rs1_imm_edges_rs1val_0x2_immval_0x2_str)
    1134:	0004a383          	lw	x7,0(x9)
    1138:	00f38863          	beq	x7,x15,1148 <I_addi_cg_cr_rs1_imm_edges_rs1val_0x2_immval_0x2+0x18>
    113c:	3980246f          	jal	x8,34d4 <failedtest_x8_x7>
    1140:	00001130          	.word	0x00001130
    1144:	0000a23f          	.word	0x0000a23f
    1148:	00448493          	addi	x9,x9,4

# Testcase cr_rs1_imm_edges (rs1 = 0x00000002, imm = 3)
  RVTEST_TESTDATA_LOAD_INT(x19, x17) # load rs1: x17 = 0x00000002
    114c:	0009a883          	lw	x17,0(x19)
    1150:	00498993          	addi	x19,x19,4

00001154 <I_addi_cg_cr_rs1_imm_edges_rs1val_0x2_immval_0x3>:
I_addi_cg_cr_rs1_imm_edges_rs1val_0x2_immval_0x3:
  addi x26, x17, 3 # perform operation
    1154:	00388d13          	addi	x26,x17,3
  # Check if x26 contains the expected result. x9 is the signature ptr, x8 is the link ptr, x7 is a temp reg.
  RVTEST_SIGUPD(x9, x8, x7, x26, I_addi_cg_cr_rs1_imm_edges_rs1val_0x2_immval_0x3, I_addi_cg_cr_rs1_imm_edges_rs1val_0x2_immval_0x3_str)
    1158:	0004a383          	lw	x7,0(x9)
    115c:	01a38863          	beq	x7,x26,116c <I_addi_cg_cr_rs1_imm_edges_rs1val_0x2_immval_0x3+0x18>
    1160:	3740246f          	jal	x8,34d4 <failedtest_x8_x7>
    1164:	00001154          	.word	0x00001154
    1168:	0000a28d          	.word	0x0000a28d
    116c:	00448493          	addi	x9,x9,4

# Testcase cr_rs1_imm_edges (rs1 = 0x00000002, imm = 4)
  RVTEST_TESTDATA_LOAD_INT(x19, x6) # load rs1: x6 = 0x00000002
    1170:	0009a303          	lw	x6,0(x19)
    1174:	00498993          	addi	x19,x19,4

00001178 <I_addi_cg_cr_rs1_imm_edges_rs1val_0x2_immval_0x4>:
I_addi_cg_cr_rs1_imm_edges_rs1val_0x2_immval_0x4:
  addi x25, x6, 4 # perform operation
    1178:	00430c93          	addi	x25,x6,4
  # Check if x25 contains the expected result. x9 is the signature ptr, x8 is the link ptr, x7 is a temp reg.
  RVTEST_SIGUPD(x9, x8, x7, x25, I_addi_cg_cr_rs1_imm_edges_rs1val_0x2_immval_0x4, I_addi_cg_cr_rs1_imm_edges_rs1val_0x2_immval_0x4_str)
    117c:	0004a383          	lw	x7,0(x9)
    1180:	01938863          	beq	x7,x25,1190 <I_addi_cg_cr_rs1_imm_edges_rs1val_0x2_immval_0x4+0x18>
    1184:	3500246f          	jal	x8,34d4 <failedtest_x8_x7>
    1188:	00001178          	.word	0x00001178
    118c:	0000a2db          	.word	0x0000a2db
    1190:	00448493          	addi	x9,x9,4

# Testcase cr_rs1_imm_edges (rs1 = 0x00000002, imm = 8)
  RVTEST_TESTDATA_LOAD_INT(x19, x25) # load rs1: x25 = 0x00000002
    1194:	0009ac83          	lw	x25,0(x19)
    1198:	00498993          	addi	x19,x19,4

0000119c <I_addi_cg_cr_rs1_imm_edges_rs1val_0x2_immval_0x8>:
I_addi_cg_cr_rs1_imm_edges_rs1val_0x2_immval_0x8:
  addi x17, x25, 8 # perform operation
    119c:	008c8893          	addi	x17,x25,8
  # Check if x17 contains the expected result. x9 is the signature ptr, x8 is the link ptr, x7 is a temp reg.
  RVTEST_SIGUPD(x9, x8, x7, x17, I_addi_cg_cr_rs1_imm_edges_rs1val_0x2_immval_0x8, I_addi_cg_cr_rs1_imm_edges_rs1val_0x2_immval_0x8_str)
    11a0:	0004a383          	lw	x7,0(x9)
    11a4:	01138863          	beq	x7,x17,11b4 <I_addi_cg_cr_rs1_imm_edges_rs1val_0x2_immval_0x8+0x18>
    11a8:	32c0246f          	jal	x8,34d4 <failedtest_x8_x7>
    11ac:	0000119c          	.word	0x0000119c
    11b0:	0000a329          	.word	0x0000a329
    11b4:	00448493          	addi	x9,x9,4

# Testcase cr_rs1_imm_edges (rs1 = 0x00000002, imm = 16)
  RVTEST_TESTDATA_LOAD_INT(x19, x1) # load rs1: x1 = 0x00000002
    11b8:	0009a083          	lw	x1,0(x19)
    11bc:	00498993          	addi	x19,x19,4

000011c0 <I_addi_cg_cr_rs1_imm_edges_rs1val_0x2_immval_0x10>:
I_addi_cg_cr_rs1_imm_edges_rs1val_0x2_immval_0x10:
  addi x28, x1, 16 # perform operation
    11c0:	01008e13          	addi	x28,x1,16
  # Check if x28 contains the expected result. x9 is the signature ptr, x8 is the link ptr, x7 is a temp reg.
  RVTEST_SIGUPD(x9, x8, x7, x28, I_addi_cg_cr_rs1_imm_edges_rs1val_0x2_immval_0x10, I_addi_cg_cr_rs1_imm_edges_rs1val_0x2_immval_0x10_str)
    11c4:	0004a383          	lw	x7,0(x9)
    11c8:	01c38863          	beq	x7,x28,11d8 <I_addi_cg_cr_rs1_imm_edges_rs1val_0x2_immval_0x10+0x18>
    11cc:	3080246f          	jal	x8,34d4 <failedtest_x8_x7>
    11d0:	000011c0          	.word	0x000011c0
    11d4:	0000a377          	.word	0x0000a377
    11d8:	00448493          	addi	x9,x9,4

# Testcase cr_rs1_imm_edges (rs1 = 0x00000002, imm = 32)
  RVTEST_TESTDATA_LOAD_INT(x19, x2) # load rs1: x2 = 0x00000002
    11dc:	0009a103          	lw	x2,0(x19)
    11e0:	00498993          	addi	x19,x19,4

000011e4 <I_addi_cg_cr_rs1_imm_edges_rs1val_0x2_immval_0x20>:
I_addi_cg_cr_rs1_imm_edges_rs1val_0x2_immval_0x20:
  addi x11, x2, 32 # perform operation
    11e4:	02010593          	addi	x11,x2,32
  # Check if x11 contains the expected result. x9 is the signature ptr, x8 is the link ptr, x7 is a temp reg.
  RVTEST_SIGUPD(x9, x8, x7, x11, I_addi_cg_cr_rs1_imm_edges_rs1val_0x2_immval_0x20, I_addi_cg_cr_rs1_imm_edges_rs1val_0x2_immval_0x20_str)
    11e8:	0004a383          	lw	x7,0(x9)
    11ec:	00b38863          	beq	x7,x11,11fc <I_addi_cg_cr_rs1_imm_edges_rs1val_0x2_immval_0x20+0x18>
    11f0:	2e40246f          	jal	x8,34d4 <failedtest_x8_x7>
    11f4:	000011e4          	.word	0x000011e4
    11f8:	0000a3c6          	.word	0x0000a3c6
    11fc:	00448493          	addi	x9,x9,4

# Testcase cr_rs1_imm_edges (rs1 = 0x00000002, imm = 64)
  RVTEST_TESTDATA_LOAD_INT(x19, x26) # load rs1: x26 = 0x00000002
    1200:	0009ad03          	lw	x26,0(x19)
    1204:	00498993          	addi	x19,x19,4

00001208 <I_addi_cg_cr_rs1_imm_edges_rs1val_0x2_immval_0x40>:
I_addi_cg_cr_rs1_imm_edges_rs1val_0x2_immval_0x40:
  addi x15, x26, 64 # perform operation
    1208:	040d0793          	addi	x15,x26,64
  # Check if x15 contains the expected result. x9 is the signature ptr, x8 is the link ptr, x7 is a temp reg.
  RVTEST_SIGUPD(x9, x8, x7, x15, I_addi_cg_cr_rs1_imm_edges_rs1val_0x2_immval_0x40, I_addi_cg_cr_rs1_imm_edges_rs1val_0x2_immval_0x40_str)
    120c:	0004a383          	lw	x7,0(x9)
    1210:	00f38863          	beq	x7,x15,1220 <I_addi_cg_cr_rs1_imm_edges_rs1val_0x2_immval_0x40+0x18>
    1214:	2c00246f          	jal	x8,34d4 <failedtest_x8_x7>
    1218:	00001208          	.word	0x00001208
    121c:	0000a415          	.word	0x0000a415
    1220:	00448493          	addi	x9,x9,4

# Testcase cr_rs1_imm_edges (rs1 = 0x00000002, imm = 128)
  RVTEST_TESTDATA_LOAD_INT(x19, x17) # load rs1: x17 = 0x00000002
    1224:	0009a883          	lw	x17,0(x19)
    1228:	00498993          	addi	x19,x19,4

0000122c <I_addi_cg_cr_rs1_imm_edges_rs1val_0x2_immval_0x80>:
I_addi_cg_cr_rs1_imm_edges_rs1val_0x2_immval_0x80:
  addi x4, x17, 128 # perform operation
    122c:	08088213          	addi	x4,x17,128
  # Check if x4 contains the expected result. x9 is the signature ptr, x8 is the link ptr, x7 is a temp reg.
  RVTEST_SIGUPD(x9, x8, x7, x4, I_addi_cg_cr_rs1_imm_edges_rs1val_0x2_immval_0x80, I_addi_cg_cr_rs1_imm_edges_rs1val_0x2_immval_0x80_str)
    1230:	0004a383          	lw	x7,0(x9)
    1234:	00438863          	beq	x7,x4,1244 <I_addi_cg_cr_rs1_imm_edges_rs1val_0x2_immval_0x80+0x18>
    1238:	29c0246f          	jal	x8,34d4 <failedtest_x8_x7>
    123c:	0000122c          	.word	0x0000122c
    1240:	0000a464          	.word	0x0000a464
    1244:	00448493          	addi	x9,x9,4

# Testcase cr_rs1_imm_edges (rs1 = 0x00000002, imm = 256)
  RVTEST_TESTDATA_LOAD_INT(x19, x26) # load rs1: x26 = 0x00000002
    1248:	0009ad03          	lw	x26,0(x19)
    124c:	00498993          	addi	x19,x19,4

00001250 <I_addi_cg_cr_rs1_imm_edges_rs1val_0x2_immval_0x100>:
I_addi_cg_cr_rs1_imm_edges_rs1val_0x2_immval_0x100:
  addi x5, x26, 256 # perform operation
    1250:	100d0293          	addi	x5,x26,256
  # Check if x5 contains the expected result. x9 is the signature ptr, x8 is the link ptr, x7 is a temp reg.
  RVTEST_SIGUPD(x9, x8, x7, x5, I_addi_cg_cr_rs1_imm_edges_rs1val_0x2_immval_0x100, I_addi_cg_cr_rs1_imm_edges_rs1val_0x2_immval_0x100_str)
    1254:	0004a383          	lw	x7,0(x9)
    1258:	00538863          	beq	x7,x5,1268 <I_addi_cg_cr_rs1_imm_edges_rs1val_0x2_immval_0x100+0x18>
    125c:	2780246f          	jal	x8,34d4 <failedtest_x8_x7>
    1260:	00001250          	.word	0x00001250
    1264:	0000a4b3          	.word	0x0000a4b3
    1268:	00448493          	addi	x9,x9,4

# Testcase cr_rs1_imm_edges (rs1 = 0x00000002, imm = 512)
  RVTEST_TESTDATA_LOAD_INT(x19, x23) # load rs1: x23 = 0x00000002
    126c:	0009ab83          	lw	x23,0(x19)
    1270:	00498993          	addi	x19,x19,4

00001274 <I_addi_cg_cr_rs1_imm_edges_rs1val_0x2_immval_0x200>:
I_addi_cg_cr_rs1_imm_edges_rs1val_0x2_immval_0x200:
  addi x18, x23, 512 # perform operation
    1274:	200b8913          	addi	x18,x23,512
  # Check if x18 contains the expected result. x9 is the signature ptr, x8 is the link ptr, x7 is a temp reg.
  RVTEST_SIGUPD(x9, x8, x7, x18, I_addi_cg_cr_rs1_imm_edges_rs1val_0x2_immval_0x200, I_addi_cg_cr_rs1_imm_edges_rs1val_0x2_immval_0x200_str)
    1278:	0004a383          	lw	x7,0(x9)
    127c:	01238863          	beq	x7,x18,128c <I_addi_cg_cr_rs1_imm_edges_rs1val_0x2_immval_0x200+0x18>
    1280:	2540246f          	jal	x8,34d4 <failedtest_x8_x7>
    1284:	00001274          	.word	0x00001274
    1288:	0000a503          	.word	0x0000a503
    128c:	00448493          	addi	x9,x9,4

# Testcase cr_rs1_imm_edges (rs1 = 0x00000002, imm = 1023)
  RVTEST_TESTDATA_LOAD_INT(x19, x12) # load rs1: x12 = 0x00000002
    1290:	0009a603          	lw	x12,0(x19)
    1294:	00498993          	addi	x19,x19,4

00001298 <I_addi_cg_cr_rs1_imm_edges_rs1val_0x2_immval_0x3ff>:
I_addi_cg_cr_rs1_imm_edges_rs1val_0x2_immval_0x3ff:
  addi x5, x12, 1023 # perform operation
    1298:	3ff60293          	addi	x5,x12,1023
  # Check if x5 contains the expected result. x9 is the signature ptr, x8 is the link ptr, x7 is a temp reg.
  RVTEST_SIGUPD(x9, x8, x7, x5, I_addi_cg_cr_rs1_imm_edges_rs1val_0x2_immval_0x3ff, I_addi_cg_cr_rs1_imm_edges_rs1val_0x2_immval_0x3ff_str)
    129c:	0004a383          	lw	x7,0(x9)
    12a0:	00538863          	beq	x7,x5,12b0 <I_addi_cg_cr_rs1_imm_edges_rs1val_0x2_immval_0x3ff+0x18>
    12a4:	2300246f          	jal	x8,34d4 <failedtest_x8_x7>
    12a8:	00001298          	.word	0x00001298
    12ac:	0000a553          	.word	0x0000a553
    12b0:	00448493          	addi	x9,x9,4

# Testcase cr_rs1_imm_edges (rs1 = 0x00000002, imm = 1024)
  RVTEST_TESTDATA_LOAD_INT(x19, x15) # load rs1: x15 = 0x00000002
    12b4:	0009a783          	lw	x15,0(x19)
    12b8:	00498993          	addi	x19,x19,4

000012bc <I_addi_cg_cr_rs1_imm_edges_rs1val_0x2_immval_0x400>:
I_addi_cg_cr_rs1_imm_edges_rs1val_0x2_immval_0x400:
  addi x17, x15, 1024 # perform operation
    12bc:	40078893          	addi	x17,x15,1024
  # Check if x17 contains the expected result. x9 is the signature ptr, x8 is the link ptr, x7 is a temp reg.
  RVTEST_SIGUPD(x9, x8, x7, x17, I_addi_cg_cr_rs1_imm_edges_rs1val_0x2_immval_0x400, I_addi_cg_cr_rs1_imm_edges_rs1val_0x2_immval_0x400_str)
    12c0:	0004a383          	lw	x7,0(x9)
    12c4:	01138863          	beq	x7,x17,12d4 <I_addi_cg_cr_rs1_imm_edges_rs1val_0x2_immval_0x400+0x18>
    12c8:	20c0246f          	jal	x8,34d4 <failedtest_x8_x7>
    12cc:	000012bc          	.word	0x000012bc
    12d0:	0000a5a3          	.word	0x0000a5a3
    12d4:	00448493          	addi	x9,x9,4

# Testcase cr_rs1_imm_edges (rs1 = 0x00000002, imm = 1795)
  RVTEST_TESTDATA_LOAD_INT(x19, x23) # load rs1: x23 = 0x00000002
    12d8:	0009ab83          	lw	x23,0(x19)
    12dc:	00498993          	addi	x19,x19,4

000012e0 <I_addi_cg_cr_rs1_imm_edges_rs1val_0x2_immval_0x703>:
I_addi_cg_cr_rs1_imm_edges_rs1val_0x2_immval_0x703:
  addi x15, x23, 1795 # perform operation
    12e0:	703b8793          	addi	x15,x23,1795
  # Check if x15 contains the expected result. x9 is the signature ptr, x8 is the link ptr, x7 is a temp reg.
  RVTEST_SIGUPD(x9, x8, x7, x15, I_addi_cg_cr_rs1_imm_edges_rs1val_0x2_immval_0x703, I_addi_cg_cr_rs1_imm_edges_rs1val_0x2_immval_0x703_str)
    12e4:	0004a383          	lw	x7,0(x9)
    12e8:	00f38863          	beq	x7,x15,12f8 <I_addi_cg_cr_rs1_imm_edges_rs1val_0x2_immval_0x703+0x18>
    12ec:	1e80246f          	jal	x8,34d4 <failedtest_x8_x7>
    12f0:	000012e0          	.word	0x000012e0
    12f4:	0000a5f3          	.word	0x0000a5f3
    12f8:	00448493          	addi	x9,x9,4

# Testcase cr_rs1_imm_edges (rs1 = 0x00000002, imm = 2047)
  RVTEST_TESTDATA_LOAD_INT(x19, x5) # load rs1: x5 = 0x00000002
    12fc:	0009a283          	lw	x5,0(x19)
    1300:	00498993          	addi	x19,x19,4

00001304 <I_addi_cg_cr_rs1_imm_edges_rs1val_0x2_immval_0x7ff>:
I_addi_cg_cr_rs1_imm_edges_rs1val_0x2_immval_0x7ff:
  addi x25, x5, 2047 # perform operation
    1304:	7ff28c93          	addi	x25,x5,2047
  # Check if x25 contains the expected result. x9 is the signature ptr, x8 is the link ptr, x7 is a temp reg.
  RVTEST_SIGUPD(x9, x8, x7, x25, I_addi_cg_cr_rs1_imm_edges_rs1val_0x2_immval_0x7ff, I_addi_cg_cr_rs1_imm_edges_rs1val_0x2_immval_0x7ff_str)
    1308:	0004a383          	lw	x7,0(x9)
    130c:	01938863          	beq	x7,x25,131c <I_addi_cg_cr_rs1_imm_edges_rs1val_0x2_immval_0x7ff+0x18>
    1310:	1c40246f          	jal	x8,34d4 <failedtest_x8_x7>
    1314:	00001304          	.word	0x00001304
    1318:	0000a643          	.word	0x0000a643
    131c:	00448493          	addi	x9,x9,4

# Testcase cr_rs1_imm_edges (rs1 = 0x00000002, imm = -2048)
  RVTEST_TESTDATA_LOAD_INT(x19, x26) # load rs1: x26 = 0x00000002
    1320:	0009ad03          	lw	x26,0(x19)
    1324:	00498993          	addi	x19,x19,4

00001328 <I_addi_cg_cr_rs1_imm_edges_rs1val_0x2_immval_m0x800>:
I_addi_cg_cr_rs1_imm_edges_rs1val_0x2_immval_m0x800:
  addi x15, x26, -2048 # perform operation
    1328:	800d0793          	addi	x15,x26,-2048
  # Check if x15 contains the expected result. x9 is the signature ptr, x8 is the link ptr, x7 is a temp reg.
  RVTEST_SIGUPD(x9, x8, x7, x15, I_addi_cg_cr_rs1_imm_edges_rs1val_0x2_immval_m0x800, I_addi_cg_cr_rs1_imm_edges_rs1val_0x2_immval_m0x800_str)
    132c:	0004a383          	lw	x7,0(x9)
    1330:	00f38863          	beq	x7,x15,1340 <I_addi_cg_cr_rs1_imm_edges_rs1val_0x2_immval_m0x800+0x18>
    1334:	1a00246f          	jal	x8,34d4 <failedtest_x8_x7>
    1338:	00001328          	.word	0x00001328
    133c:	0000a693          	.word	0x0000a693
    1340:	00448493          	addi	x9,x9,4

# Testcase cr_rs1_imm_edges (rs1 = 0x00000002, imm = -2047)
  RVTEST_TESTDATA_LOAD_INT(x19, x20) # load rs1: x20 = 0x00000002
    1344:	0009aa03          	lw	x20,0(x19)
    1348:	00498993          	addi	x19,x19,4

0000134c <I_addi_cg_cr_rs1_imm_edges_rs1val_0x2_immval_m0x7ff>:
I_addi_cg_cr_rs1_imm_edges_rs1val_0x2_immval_m0x7ff:
  addi x18, x20, -2047 # perform operation
    134c:	801a0913          	addi	x18,x20,-2047
  # Check if x18 contains the expected result. x9 is the signature ptr, x8 is the link ptr, x7 is a temp reg.
  RVTEST_SIGUPD(x9, x8, x7, x18, I_addi_cg_cr_rs1_imm_edges_rs1val_0x2_immval_m0x7ff, I_addi_cg_cr_rs1_imm_edges_rs1val_0x2_immval_m0x7ff_str)
    1350:	0004a383          	lw	x7,0(x9)
    1354:	01238863          	beq	x7,x18,1364 <I_addi_cg_cr_rs1_imm_edges_rs1val_0x2_immval_m0x7ff+0x18>
    1358:	17c0246f          	jal	x8,34d4 <failedtest_x8_x7>
    135c:	0000134c          	.word	0x0000134c
    1360:	0000a6e4          	.word	0x0000a6e4
    1364:	00448493          	addi	x9,x9,4

# Testcase cr_rs1_imm_edges (rs1 = 0x00000002, imm = -2)
  RVTEST_TESTDATA_LOAD_INT(x19, x15) # load rs1: x15 = 0x00000002
    1368:	0009a783          	lw	x15,0(x19)
    136c:	00498993          	addi	x19,x19,4

00001370 <I_addi_cg_cr_rs1_imm_edges_rs1val_0x2_immval_m0x2>:
I_addi_cg_cr_rs1_imm_edges_rs1val_0x2_immval_m0x2:
  addi x14, x15, -2 # perform operation
    1370:	ffe78713          	addi	x14,x15,-2
  # Check if x14 contains the expected result. x9 is the signature ptr, x8 is the link ptr, x7 is a temp reg.
  RVTEST_SIGUPD(x9, x8, x7, x14, I_addi_cg_cr_rs1_imm_edges_rs1val_0x2_immval_m0x2, I_addi_cg_cr_rs1_imm_edges_rs1val_0x2_immval_m0x2_str)
    1374:	0004a383          	lw	x7,0(x9)
    1378:	00e38863          	beq	x7,x14,1388 <I_addi_cg_cr_rs1_imm_edges_rs1val_0x2_immval_m0x2+0x18>
    137c:	1580246f          	jal	x8,34d4 <failedtest_x8_x7>
    1380:	00001370          	.word	0x00001370
    1384:	0000a735          	.word	0x0000a735
    1388:	00448493          	addi	x9,x9,4

# Testcase cr_rs1_imm_edges (rs1 = 0x00000002, imm = -1)
  RVTEST_TESTDATA_LOAD_INT(x19, x24) # load rs1: x24 = 0x00000002
    138c:	0009ac03          	lw	x24,0(x19)
    1390:	00498993          	addi	x19,x19,4

00001394 <I_addi_cg_cr_rs1_imm_edges_rs1val_0x2_immval_m0x1>:
I_addi_cg_cr_rs1_imm_edges_rs1val_0x2_immval_m0x1:
  addi x16, x24, -1 # perform operation
    1394:	fffc0813          	addi	x16,x24,-1
  # Check if x16 contains the expected result. x9 is the signature ptr, x8 is the link ptr, x7 is a temp reg.
  RVTEST_SIGUPD(x9, x8, x7, x16, I_addi_cg_cr_rs1_imm_edges_rs1val_0x2_immval_m0x1, I_addi_cg_cr_rs1_imm_edges_rs1val_0x2_immval_m0x1_str)
    1398:	0004a383          	lw	x7,0(x9)
    139c:	01038863          	beq	x7,x16,13ac <I_addi_cg_cr_rs1_imm_edges_rs1val_0x2_immval_m0x1+0x18>
    13a0:	1340246f          	jal	x8,34d4 <failedtest_x8_x7>
    13a4:	00001394          	.word	0x00001394
    13a8:	0000a784          	.word	0x0000a784
    13ac:	00448493          	addi	x9,x9,4

# Testcase cr_rs1_imm_edges (rs1 = 0x80000000, imm = 0)
  RVTEST_TESTDATA_LOAD_INT(x19, x1) # load rs1: x1 = 0x80000000
    13b0:	0009a083          	lw	x1,0(x19)
    13b4:	00498993          	addi	x19,x19,4

000013b8 <I_addi_cg_cr_rs1_imm_edges_rs1val_0x80000000_immval_0x0>:
I_addi_cg_cr_rs1_imm_edges_rs1val_0x80000000_immval_0x0:
  addi x17, x1, 0 # perform operation
    13b8:	00008893          	addi	x17,x1,0
  # Check if x17 contains the expected result. x9 is the signature ptr, x8 is the link ptr, x7 is a temp reg.
  RVTEST_SIGUPD(x9, x8, x7, x17, I_addi_cg_cr_rs1_imm_edges_rs1val_0x80000000_immval_0x0, I_addi_cg_cr_rs1_imm_edges_rs1val_0x80000000_immval_0x0_str)
    13bc:	0004a383          	lw	x7,0(x9)
    13c0:	01138863          	beq	x7,x17,13d0 <I_addi_cg_cr_rs1_imm_edges_rs1val_0x80000000_immval_0x0+0x18>
    13c4:	1100246f          	jal	x8,34d4 <failedtest_x8_x7>
    13c8:	000013b8          	.word	0x000013b8
    13cc:	0000a7d3          	.word	0x0000a7d3
    13d0:	00448493          	addi	x9,x9,4

# Testcase cr_rs1_imm_edges (rs1 = 0x80000000, imm = 1)
  RVTEST_TESTDATA_LOAD_INT(x19, x17) # load rs1: x17 = 0x80000000
    13d4:	0009a883          	lw	x17,0(x19)
    13d8:	00498993          	addi	x19,x19,4

000013dc <I_addi_cg_cr_rs1_imm_edges_rs1val_0x80000000_immval_0x1>:
I_addi_cg_cr_rs1_imm_edges_rs1val_0x80000000_immval_0x1:
  addi x25, x17, 1 # perform operation
    13dc:	00188c93          	addi	x25,x17,1
  # Check if x25 contains the expected result. x9 is the signature ptr, x8 is the link ptr, x7 is a temp reg.
  RVTEST_SIGUPD(x9, x8, x7, x25, I_addi_cg_cr_rs1_imm_edges_rs1val_0x80000000_immval_0x1, I_addi_cg_cr_rs1_imm_edges_rs1val_0x80000000_immval_0x1_str)
    13e0:	0004a383          	lw	x7,0(x9)
    13e4:	01938863          	beq	x7,x25,13f4 <I_addi_cg_cr_rs1_imm_edges_rs1val_0x80000000_immval_0x1+0x18>
    13e8:	0ec0246f          	jal	x8,34d4 <failedtest_x8_x7>
    13ec:	000013dc          	.word	0x000013dc
    13f0:	0000a828          	.word	0x0000a828
    13f4:	00448493          	addi	x9,x9,4

# Testcase cr_rs1_imm_edges (rs1 = 0x80000000, imm = 2)
  RVTEST_TESTDATA_LOAD_INT(x19, x20) # load rs1: x20 = 0x80000000
    13f8:	0009aa03          	lw	x20,0(x19)
    13fc:	00498993          	addi	x19,x19,4

00001400 <I_addi_cg_cr_rs1_imm_edges_rs1val_0x80000000_immval_0x2>:
I_addi_cg_cr_rs1_imm_edges_rs1val_0x80000000_immval_0x2:
  addi x29, x20, 2 # perform operation
    1400:	002a0e93          	addi	x29,x20,2
  # Check if x29 contains the expected result. x9 is the signature ptr, x8 is the link ptr, x7 is a temp reg.
  RVTEST_SIGUPD(x9, x8, x7, x29, I_addi_cg_cr_rs1_imm_edges_rs1val_0x80000000_immval_0x2, I_addi_cg_cr_rs1_imm_edges_rs1val_0x80000000_immval_0x2_str)
    1404:	0004a383          	lw	x7,0(x9)
    1408:	01d38863          	beq	x7,x29,1418 <I_addi_cg_cr_rs1_imm_edges_rs1val_0x80000000_immval_0x2+0x18>
    140c:	0c80246f          	jal	x8,34d4 <failedtest_x8_x7>
    1410:	00001400          	.word	0x00001400
    1414:	0000a87d          	.word	0x0000a87d
    1418:	00448493          	addi	x9,x9,4

# Testcase cr_rs1_imm_edges (rs1 = 0x80000000, imm = 3)
  RVTEST_TESTDATA_LOAD_INT(x19, x1) # load rs1: x1 = 0x80000000
    141c:	0009a083          	lw	x1,0(x19)
    1420:	00498993          	addi	x19,x19,4

00001424 <I_addi_cg_cr_rs1_imm_edges_rs1val_0x80000000_immval_0x3>:
I_addi_cg_cr_rs1_imm_edges_rs1val_0x80000000_immval_0x3:
  addi x5, x1, 3 # perform operation
    1424:	00308293          	addi	x5,x1,3
  # Check if x5 contains the expected result. x9 is the signature ptr, x8 is the link ptr, x7 is a temp reg.
  RVTEST_SIGUPD(x9, x8, x7, x5, I_addi_cg_cr_rs1_imm_edges_rs1val_0x80000000_immval_0x3, I_addi_cg_cr_rs1_imm_edges_rs1val_0x80000000_immval_0x3_str)
    1428:	0004a383          	lw	x7,0(x9)
    142c:	00538863          	beq	x7,x5,143c <I_addi_cg_cr_rs1_imm_edges_rs1val_0x80000000_immval_0x3+0x18>
    1430:	0a40246f          	jal	x8,34d4 <failedtest_x8_x7>
    1434:	00001424          	.word	0x00001424
    1438:	0000a8d2          	.word	0x0000a8d2
    143c:	00448493          	addi	x9,x9,4

# Testcase cr_rs1_imm_edges (rs1 = 0x80000000, imm = 4)
  RVTEST_TESTDATA_LOAD_INT(x19, x26) # load rs1: x26 = 0x80000000
    1440:	0009ad03          	lw	x26,0(x19)
    1444:	00498993          	addi	x19,x19,4

00001448 <I_addi_cg_cr_rs1_imm_edges_rs1val_0x80000000_immval_0x4>:
I_addi_cg_cr_rs1_imm_edges_rs1val_0x80000000_immval_0x4:
  addi x11, x26, 4 # perform operation
    1448:	004d0593          	addi	x11,x26,4
  # Check if x11 contains the expected result. x9 is the signature ptr, x8 is the link ptr, x7 is a temp reg.
  RVTEST_SIGUPD(x9, x8, x7, x11, I_addi_cg_cr_rs1_imm_edges_rs1val_0x80000000_immval_0x4, I_addi_cg_cr_rs1_imm_edges_rs1val_0x80000000_immval_0x4_str)
    144c:	0004a383          	lw	x7,0(x9)
    1450:	00b38863          	beq	x7,x11,1460 <I_addi_cg_cr_rs1_imm_edges_rs1val_0x80000000_immval_0x4+0x18>
    1454:	0800246f          	jal	x8,34d4 <failedtest_x8_x7>
    1458:	00001448          	.word	0x00001448
    145c:	0000a927          	.word	0x0000a927
    1460:	00448493          	addi	x9,x9,4

# Testcase cr_rs1_imm_edges (rs1 = 0x80000000, imm = 8)
  RVTEST_TESTDATA_LOAD_INT(x19, x25) # load rs1: x25 = 0x80000000
    1464:	0009ac83          	lw	x25,0(x19)
    1468:	00498993          	addi	x19,x19,4

0000146c <I_addi_cg_cr_rs1_imm_edges_rs1val_0x80000000_immval_0x8>:
I_addi_cg_cr_rs1_imm_edges_rs1val_0x80000000_immval_0x8:
  addi x1, x25, 8 # perform operation
    146c:	008c8093          	addi	x1,x25,8
  # Check if x1 contains the expected result. x9 is the signature ptr, x8 is the link ptr, x7 is a temp reg.
  RVTEST_SIGUPD(x9, x8, x7, x1, I_addi_cg_cr_rs1_imm_edges_rs1val_0x80000000_immval_0x8, I_addi_cg_cr_rs1_imm_edges_rs1val_0x80000000_immval_0x8_str)
    1470:	0004a383          	lw	x7,0(x9)
    1474:	00138863          	beq	x7,x1,1484 <I_addi_cg_cr_rs1_imm_edges_rs1val_0x80000000_immval_0x8+0x18>
    1478:	05c0246f          	jal	x8,34d4 <failedtest_x8_x7>
    147c:	0000146c          	.word	0x0000146c
    1480:	0000a97c          	.word	0x0000a97c
    1484:	00448493          	addi	x9,x9,4

# Testcase cr_rs1_imm_edges (rs1 = 0x80000000, imm = 16)
  RVTEST_TESTDATA_LOAD_INT(x19, x6) # load rs1: x6 = 0x80000000
    1488:	0009a303          	lw	x6,0(x19)
    148c:	00498993          	addi	x19,x19,4

00001490 <I_addi_cg_cr_rs1_imm_edges_rs1val_0x80000000_immval_0x10>:
I_addi_cg_cr_rs1_imm_edges_rs1val_0x80000000_immval_0x10:
  addi x14, x6, 16 # perform operation
    1490:	01030713          	addi	x14,x6,16
  # Check if x14 contains the expected result. x9 is the signature ptr, x8 is the link ptr, x7 is a temp reg.
  RVTEST_SIGUPD(x9, x8, x7, x14, I_addi_cg_cr_rs1_imm_edges_rs1val_0x80000000_immval_0x10, I_addi_cg_cr_rs1_imm_edges_rs1val_0x80000000_immval_0x10_str)
    1494:	0004a383          	lw	x7,0(x9)
    1498:	00e38863          	beq	x7,x14,14a8 <I_addi_cg_cr_rs1_imm_edges_rs1val_0x80000000_immval_0x10+0x18>
    149c:	0380246f          	jal	x8,34d4 <failedtest_x8_x7>
    14a0:	00001490          	.word	0x00001490
    14a4:	0000a9d1          	.word	0x0000a9d1
    14a8:	00448493          	addi	x9,x9,4

# Testcase cr_rs1_imm_edges (rs1 = 0x80000000, imm = 32)
  RVTEST_TESTDATA_LOAD_INT(x19, x10) # load rs1: x10 = 0x80000000
    14ac:	0009a503          	lw	x10,0(x19)
    14b0:	00498993          	addi	x19,x19,4

000014b4 <I_addi_cg_cr_rs1_imm_edges_rs1val_0x80000000_immval_0x20>:
I_addi_cg_cr_rs1_imm_edges_rs1val_0x80000000_immval_0x20:
  addi x26, x10, 32 # perform operation
    14b4:	02050d13          	addi	x26,x10,32
  # Check if x26 contains the expected result. x9 is the signature ptr, x8 is the link ptr, x7 is a temp reg.
  RVTEST_SIGUPD(x9, x8, x7, x26, I_addi_cg_cr_rs1_imm_edges_rs1val_0x80000000_immval_0x20, I_addi_cg_cr_rs1_imm_edges_rs1val_0x80000000_immval_0x20_str)
    14b8:	0004a383          	lw	x7,0(x9)
    14bc:	01a38863          	beq	x7,x26,14cc <I_addi_cg_cr_rs1_imm_edges_rs1val_0x80000000_immval_0x20+0x18>
    14c0:	0140246f          	jal	x8,34d4 <failedtest_x8_x7>
    14c4:	000014b4          	.word	0x000014b4
    14c8:	0000aa27          	.word	0x0000aa27
    14cc:	00448493          	addi	x9,x9,4

# Testcase cr_rs1_imm_edges (rs1 = 0x80000000, imm = 64)
  RVTEST_TESTDATA_LOAD_INT(x19, x21) # load rs1: x21 = 0x80000000
    14d0:	0009aa83          	lw	x21,0(x19)
    14d4:	00498993          	addi	x19,x19,4

000014d8 <I_addi_cg_cr_rs1_imm_edges_rs1val_0x80000000_immval_0x40>:
I_addi_cg_cr_rs1_imm_edges_rs1val_0x80000000_immval_0x40:
  addi x4, x21, 64 # perform operation
    14d8:	040a8213          	addi	x4,x21,64
  # Check if x4 contains the expected result. x9 is the signature ptr, x8 is the link ptr, x7 is a temp reg.
  RVTEST_SIGUPD(x9, x8, x7, x4, I_addi_cg_cr_rs1_imm_edges_rs1val_0x80000000_immval_0x40, I_addi_cg_cr_rs1_imm_edges_rs1val_0x80000000_immval_0x40_str)
    14dc:	0004a383          	lw	x7,0(x9)
    14e0:	00438863          	beq	x7,x4,14f0 <I_addi_cg_cr_rs1_imm_edges_rs1val_0x80000000_immval_0x40+0x18>
    14e4:	7f10146f          	jal	x8,34d4 <failedtest_x8_x7>
    14e8:	000014d8          	.word	0x000014d8
    14ec:	0000aa7d          	.word	0x0000aa7d
    14f0:	00448493          	addi	x9,x9,4

# Testcase cr_rs1_imm_edges (rs1 = 0x80000000, imm = 128)
  RVTEST_TESTDATA_LOAD_INT(x19, x3) # load rs1: x3 = 0x80000000
    14f4:	0009a183          	lw	x3,0(x19)
    14f8:	00498993          	addi	x19,x19,4

000014fc <I_addi_cg_cr_rs1_imm_edges_rs1val_0x80000000_immval_0x80>:
I_addi_cg_cr_rs1_imm_edges_rs1val_0x80000000_immval_0x80:
  addi x11, x3, 128 # perform operation
    14fc:	08018593          	addi	x11,x3,128
  # Check if x11 contains the expected result. x9 is the signature ptr, x8 is the link ptr, x7 is a temp reg.
  RVTEST_SIGUPD(x9, x8, x7, x11, I_addi_cg_cr_rs1_imm_edges_rs1val_0x80000000_immval_0x80, I_addi_cg_cr_rs1_imm_edges_rs1val_0x80000000_immval_0x80_str)
    1500:	0004a383          	lw	x7,0(x9)
    1504:	00b38863          	beq	x7,x11,1514 <I_addi_cg_cr_rs1_imm_edges_rs1val_0x80000000_immval_0x80+0x18>
    1508:	7cd0146f          	jal	x8,34d4 <failedtest_x8_x7>
    150c:	000014fc          	.word	0x000014fc
    1510:	0000aad3          	.word	0x0000aad3
    1514:	00448493          	addi	x9,x9,4

# Testcase cr_rs1_imm_edges (rs1 = 0x80000000, imm = 256)
  RVTEST_TESTDATA_LOAD_INT(x19, x31) # load rs1: x31 = 0x80000000
    1518:	0009af83          	lw	x31,0(x19)
    151c:	00498993          	addi	x19,x19,4

00001520 <I_addi_cg_cr_rs1_imm_edges_rs1val_0x80000000_immval_0x100>:
I_addi_cg_cr_rs1_imm_edges_rs1val_0x80000000_immval_0x100:
  addi x6, x31, 256 # perform operation
    1520:	100f8313          	addi	x6,x31,256
  # Check if x6 contains the expected result. x9 is the signature ptr, x8 is the link ptr, x7 is a temp reg.
  RVTEST_SIGUPD(x9, x8, x7, x6, I_addi_cg_cr_rs1_imm_edges_rs1val_0x80000000_immval_0x100, I_addi_cg_cr_rs1_imm_edges_rs1val_0x80000000_immval_0x100_str)
    1524:	0004a383          	lw	x7,0(x9)
    1528:	00638863          	beq	x7,x6,1538 <I_addi_cg_cr_rs1_imm_edges_rs1val_0x80000000_immval_0x100+0x18>
    152c:	7a90146f          	jal	x8,34d4 <failedtest_x8_x7>
    1530:	00001520          	.word	0x00001520
    1534:	0000ab29          	.word	0x0000ab29
    1538:	00448493          	addi	x9,x9,4

# Testcase cr_rs1_imm_edges (rs1 = 0x80000000, imm = 512)
  RVTEST_TESTDATA_LOAD_INT(x19, x12) # load rs1: x12 = 0x80000000
    153c:	0009a603          	lw	x12,0(x19)
    1540:	00498993          	addi	x19,x19,4

00001544 <I_addi_cg_cr_rs1_imm_edges_rs1val_0x80000000_immval_0x200>:
I_addi_cg_cr_rs1_imm_edges_rs1val_0x80000000_immval_0x200:
  addi x13, x12, 512 # perform operation
    1544:	20060693          	addi	x13,x12,512
  # Check if x13 contains the expected result. x9 is the signature ptr, x8 is the link ptr, x7 is a temp reg.
  RVTEST_SIGUPD(x9, x8, x7, x13, I_addi_cg_cr_rs1_imm_edges_rs1val_0x80000000_immval_0x200, I_addi_cg_cr_rs1_imm_edges_rs1val_0x80000000_immval_0x200_str)
    1548:	0004a383          	lw	x7,0(x9)
    154c:	00d38863          	beq	x7,x13,155c <I_addi_cg_cr_rs1_imm_edges_rs1val_0x80000000_immval_0x200+0x18>
    1550:	7850146f          	jal	x8,34d4 <failedtest_x8_x7>
    1554:	00001544          	.word	0x00001544
    1558:	0000ab80          	.word	0x0000ab80
    155c:	00448493          	addi	x9,x9,4

# Testcase cr_rs1_imm_edges (rs1 = 0x80000000, imm = 1023)
  RVTEST_TESTDATA_LOAD_INT(x19, x11) # load rs1: x11 = 0x80000000
    1560:	0009a583          	lw	x11,0(x19)
    1564:	00498993          	addi	x19,x19,4

00001568 <I_addi_cg_cr_rs1_imm_edges_rs1val_0x80000000_immval_0x3ff>:
I_addi_cg_cr_rs1_imm_edges_rs1val_0x80000000_immval_0x3ff:
  addi x24, x11, 1023 # perform operation
    1568:	3ff58c13          	addi	x24,x11,1023
  # Check if x24 contains the expected result. x9 is the signature ptr, x8 is the link ptr, x7 is a temp reg.
  RVTEST_SIGUPD(x9, x8, x7, x24, I_addi_cg_cr_rs1_imm_edges_rs1val_0x80000000_immval_0x3ff, I_addi_cg_cr_rs1_imm_edges_rs1val_0x80000000_immval_0x3ff_str)
    156c:	0004a383          	lw	x7,0(x9)
    1570:	01838863          	beq	x7,x24,1580 <I_addi_cg_cr_rs1_imm_edges_rs1val_0x80000000_immval_0x3ff+0x18>
    1574:	7610146f          	jal	x8,34d4 <failedtest_x8_x7>
    1578:	00001568          	.word	0x00001568
    157c:	0000abd7          	.word	0x0000abd7
    1580:	00448493          	addi	x9,x9,4

# Testcase cr_rs1_imm_edges (rs1 = 0x80000000, imm = 1024)
  RVTEST_TESTDATA_LOAD_INT(x19, x13) # load rs1: x13 = 0x80000000
    1584:	0009a683          	lw	x13,0(x19)
    1588:	00498993          	addi	x19,x19,4

0000158c <I_addi_cg_cr_rs1_imm_edges_rs1val_0x80000000_immval_0x400>:
I_addi_cg_cr_rs1_imm_edges_rs1val_0x80000000_immval_0x400:
  addi x22, x13, 1024 # perform operation
    158c:	40068b13          	addi	x22,x13,1024
  # Check if x22 contains the expected result. x9 is the signature ptr, x8 is the link ptr, x7 is a temp reg.
  RVTEST_SIGUPD(x9, x8, x7, x22, I_addi_cg_cr_rs1_imm_edges_rs1val_0x80000000_immval_0x400, I_addi_cg_cr_rs1_imm_edges_rs1val_0x80000000_immval_0x400_str)
    1590:	0004a383          	lw	x7,0(x9)
    1594:	01638863          	beq	x7,x22,15a4 <I_addi_cg_cr_rs1_imm_edges_rs1val_0x80000000_immval_0x400+0x18>
    1598:	73d0146f          	jal	x8,34d4 <failedtest_x8_x7>
    159c:	0000158c          	.word	0x0000158c
    15a0:	0000ac2e          	.word	0x0000ac2e
    15a4:	00448493          	addi	x9,x9,4

# Testcase cr_rs1_imm_edges (rs1 = 0x80000000, imm = 1795)
  RVTEST_TESTDATA_LOAD_INT(x19, x17) # load rs1: x17 = 0x80000000
    15a8:	0009a883          	lw	x17,0(x19)
    15ac:	00498993          	addi	x19,x19,4

000015b0 <I_addi_cg_cr_rs1_imm_edges_rs1val_0x80000000_immval_0x703>:
I_addi_cg_cr_rs1_imm_edges_rs1val_0x80000000_immval_0x703:
  addi x28, x17, 1795 # perform operation
    15b0:	70388e13          	addi	x28,x17,1795
  # Check if x28 contains the expected result. x9 is the signature ptr, x8 is the link ptr, x7 is a temp reg.
  RVTEST_SIGUPD(x9, x8, x7, x28, I_addi_cg_cr_rs1_imm_edges_rs1val_0x80000000_immval_0x703, I_addi_cg_cr_rs1_imm_edges_rs1val_0x80000000_immval_0x703_str)
    15b4:	0004a383          	lw	x7,0(x9)
    15b8:	01c38863          	beq	x7,x28,15c8 <I_addi_cg_cr_rs1_imm_edges_rs1val_0x80000000_immval_0x703+0x18>
    15bc:	7190146f          	jal	x8,34d4 <failedtest_x8_x7>
    15c0:	000015b0          	.word	0x000015b0
    15c4:	0000ac85          	.word	0x0000ac85
    15c8:	00448493          	addi	x9,x9,4

# Testcase cr_rs1_imm_edges (rs1 = 0x80000000, imm = 2047)
  RVTEST_TESTDATA_LOAD_INT(x19, x16) # load rs1: x16 = 0x80000000
    15cc:	0009a803          	lw	x16,0(x19)
    15d0:	00498993          	addi	x19,x19,4

000015d4 <I_addi_cg_cr_rs1_imm_edges_rs1val_0x80000000_immval_0x7ff>:
I_addi_cg_cr_rs1_imm_edges_rs1val_0x80000000_immval_0x7ff:
  addi x26, x16, 2047 # perform operation
    15d4:	7ff80d13          	addi	x26,x16,2047
  # Check if x26 contains the expected result. x9 is the signature ptr, x8 is the link ptr, x7 is a temp reg.
  RVTEST_SIGUPD(x9, x8, x7, x26, I_addi_cg_cr_rs1_imm_edges_rs1val_0x80000000_immval_0x7ff, I_addi_cg_cr_rs1_imm_edges_rs1val_0x80000000_immval_0x7ff_str)
    15d8:	0004a383          	lw	x7,0(x9)
    15dc:	01a38863          	beq	x7,x26,15ec <I_addi_cg_cr_rs1_imm_edges_rs1val_0x80000000_immval_0x7ff+0x18>
    15e0:	6f50146f          	jal	x8,34d4 <failedtest_x8_x7>
    15e4:	000015d4          	.word	0x000015d4
    15e8:	0000acdc          	.word	0x0000acdc
    15ec:	00448493          	addi	x9,x9,4

# Testcase cr_rs1_imm_edges (rs1 = 0x80000000, imm = -2048)
  RVTEST_TESTDATA_LOAD_INT(x19, x3) # load rs1: x3 = 0x80000000
    15f0:	0009a183          	lw	x3,0(x19)
    15f4:	00498993          	addi	x19,x19,4

000015f8 <I_addi_cg_cr_rs1_imm_edges_rs1val_0x80000000_immval_m0x800>:
I_addi_cg_cr_rs1_imm_edges_rs1val_0x80000000_immval_m0x800:
  addi x11, x3, -2048 # perform operation
    15f8:	80018593          	addi	x11,x3,-2048
  # Check if x11 contains the expected result. x9 is the signature ptr, x8 is the link ptr, x7 is a temp reg.
  RVTEST_SIGUPD(x9, x8, x7, x11, I_addi_cg_cr_rs1_imm_edges_rs1val_0x80000000_immval_m0x800, I_addi_cg_cr_rs1_imm_edges_rs1val_0x80000000_immval_m0x800_str)
    15fc:	0004a383          	lw	x7,0(x9)
    1600:	00b38863          	beq	x7,x11,1610 <I_addi_cg_cr_rs1_imm_edges_rs1val_0x80000000_immval_m0x800+0x18>
    1604:	6d10146f          	jal	x8,34d4 <failedtest_x8_x7>
    1608:	000015f8          	.word	0x000015f8
    160c:	0000ad33          	.word	0x0000ad33
    1610:	00448493          	addi	x9,x9,4

# Testcase cr_rs1_imm_edges (rs1 = 0x80000000, imm = -2047)
  RVTEST_TESTDATA_LOAD_INT(x19, x26) # load rs1: x26 = 0x80000000
    1614:	0009ad03          	lw	x26,0(x19)
    1618:	00498993          	addi	x19,x19,4

0000161c <I_addi_cg_cr_rs1_imm_edges_rs1val_0x80000000_immval_m0x7ff>:
I_addi_cg_cr_rs1_imm_edges_rs1val_0x80000000_immval_m0x7ff:
  addi x30, x26, -2047 # perform operation
    161c:	801d0f13          	addi	x30,x26,-2047
  # Check if x30 contains the expected result. x9 is the signature ptr, x8 is the link ptr, x7 is a temp reg.
  RVTEST_SIGUPD(x9, x8, x7, x30, I_addi_cg_cr_rs1_imm_edges_rs1val_0x80000000_immval_m0x7ff, I_addi_cg_cr_rs1_imm_edges_rs1val_0x80000000_immval_m0x7ff_str)
    1620:	0004a383          	lw	x7,0(x9)
    1624:	01e38863          	beq	x7,x30,1634 <I_addi_cg_cr_rs1_imm_edges_rs1val_0x80000000_immval_m0x7ff+0x18>
    1628:	6ad0146f          	jal	x8,34d4 <failedtest_x8_x7>
    162c:	0000161c          	.word	0x0000161c
    1630:	0000ad8b          	.word	0x0000ad8b
    1634:	00448493          	addi	x9,x9,4

# Testcase cr_rs1_imm_edges (rs1 = 0x80000000, imm = -2)
  RVTEST_TESTDATA_LOAD_INT(x19, x28) # load rs1: x28 = 0x80000000
    1638:	0009ae03          	lw	x28,0(x19)
    163c:	00498993          	addi	x19,x19,4

00001640 <I_addi_cg_cr_rs1_imm_edges_rs1val_0x80000000_immval_m0x2>:
I_addi_cg_cr_rs1_imm_edges_rs1val_0x80000000_immval_m0x2:
  addi x26, x28, -2 # perform operation
    1640:	ffee0d13          	addi	x26,x28,-2
  # Check if x26 contains the expected result. x9 is the signature ptr, x8 is the link ptr, x7 is a temp reg.
  RVTEST_SIGUPD(x9, x8, x7, x26, I_addi_cg_cr_rs1_imm_edges_rs1val_0x80000000_immval_m0x2, I_addi_cg_cr_rs1_imm_edges_rs1val_0x80000000_immval_m0x2_str)
    1644:	0004a383          	lw	x7,0(x9)
    1648:	01a38863          	beq	x7,x26,1658 <I_addi_cg_cr_rs1_imm_edges_rs1val_0x80000000_immval_m0x2+0x18>
    164c:	6890146f          	jal	x8,34d4 <failedtest_x8_x7>
    1650:	00001640          	.word	0x00001640
    1654:	0000ade3          	.word	0x0000ade3
    1658:	00448493          	addi	x9,x9,4

# Testcase cr_rs1_imm_edges (rs1 = 0x80000000, imm = -1)
  RVTEST_TESTDATA_LOAD_INT(x19, x14) # load rs1: x14 = 0x80000000
    165c:	0009a703          	lw	x14,0(x19)
    1660:	00498993          	addi	x19,x19,4

00001664 <I_addi_cg_cr_rs1_imm_edges_rs1val_0x80000000_immval_m0x1>:
I_addi_cg_cr_rs1_imm_edges_rs1val_0x80000000_immval_m0x1:
  addi x28, x14, -1 # perform operation
    1664:	fff70e13          	addi	x28,x14,-1
  # Check if x28 contains the expected result. x9 is the signature ptr, x8 is the link ptr, x7 is a temp reg.
  RVTEST_SIGUPD(x9, x8, x7, x28, I_addi_cg_cr_rs1_imm_edges_rs1val_0x80000000_immval_m0x1, I_addi_cg_cr_rs1_imm_edges_rs1val_0x80000000_immval_m0x1_str)
    1668:	0004a383          	lw	x7,0(x9)
    166c:	01c38863          	beq	x7,x28,167c <I_addi_cg_cr_rs1_imm_edges_rs1val_0x80000000_immval_m0x1+0x18>
    1670:	6650146f          	jal	x8,34d4 <failedtest_x8_x7>
    1674:	00001664          	.word	0x00001664
    1678:	0000ae39          	.word	0x0000ae39
    167c:	00448493          	addi	x9,x9,4

# Testcase cr_rs1_imm_edges (rs1 = 0x80000001, imm = 0)
  RVTEST_TESTDATA_LOAD_INT(x19, x21) # load rs1: x21 = 0x80000001
    1680:	0009aa83          	lw	x21,0(x19)
    1684:	00498993          	addi	x19,x19,4

00001688 <I_addi_cg_cr_rs1_imm_edges_rs1val_0x80000001_immval_0x0>:
I_addi_cg_cr_rs1_imm_edges_rs1val_0x80000001_immval_0x0:
  addi x16, x21, 0 # perform operation
    1688:	000a8813          	addi	x16,x21,0
  # Check if x16 contains the expected result. x9 is the signature ptr, x8 is the link ptr, x7 is a temp reg.
  RVTEST_SIGUPD(x9, x8, x7, x16, I_addi_cg_cr_rs1_imm_edges_rs1val_0x80000001_immval_0x0, I_addi_cg_cr_rs1_imm_edges_rs1val_0x80000001_immval_0x0_str)
    168c:	0004a383          	lw	x7,0(x9)
    1690:	01038863          	beq	x7,x16,16a0 <I_addi_cg_cr_rs1_imm_edges_rs1val_0x80000001_immval_0x0+0x18>
    1694:	6410146f          	jal	x8,34d4 <failedtest_x8_x7>
    1698:	00001688          	.word	0x00001688
    169c:	0000ae8f          	.word	0x0000ae8f
    16a0:	00448493          	addi	x9,x9,4

# Testcase cr_rs1_imm_edges (rs1 = 0x80000001, imm = 1)
  RVTEST_TESTDATA_LOAD_INT(x19, x24) # load rs1: x24 = 0x80000001
    16a4:	0009ac03          	lw	x24,0(x19)
    16a8:	00498993          	addi	x19,x19,4

000016ac <I_addi_cg_cr_rs1_imm_edges_rs1val_0x80000001_immval_0x1>:
I_addi_cg_cr_rs1_imm_edges_rs1val_0x80000001_immval_0x1:
  addi x22, x24, 1 # perform operation
    16ac:	001c0b13          	addi	x22,x24,1
  # Check if x22 contains the expected result. x9 is the signature ptr, x8 is the link ptr, x7 is a temp reg.
  RVTEST_SIGUPD(x9, x8, x7, x22, I_addi_cg_cr_rs1_imm_edges_rs1val_0x80000001_immval_0x1, I_addi_cg_cr_rs1_imm_edges_rs1val_0x80000001_immval_0x1_str)
    16b0:	0004a383          	lw	x7,0(x9)
    16b4:	01638863          	beq	x7,x22,16c4 <I_addi_cg_cr_rs1_imm_edges_rs1val_0x80000001_immval_0x1+0x18>
    16b8:	61d0146f          	jal	x8,34d4 <failedtest_x8_x7>
    16bc:	000016ac          	.word	0x000016ac
    16c0:	0000aee4          	.word	0x0000aee4
    16c4:	00448493          	addi	x9,x9,4

# Testcase cr_rs1_imm_edges (rs1 = 0x80000001, imm = 2)
  RVTEST_TESTDATA_LOAD_INT(x19, x12) # load rs1: x12 = 0x80000001
    16c8:	0009a603          	lw	x12,0(x19)
    16cc:	00498993          	addi	x19,x19,4

000016d0 <I_addi_cg_cr_rs1_imm_edges_rs1val_0x80000001_immval_0x2>:
I_addi_cg_cr_rs1_imm_edges_rs1val_0x80000001_immval_0x2:
  addi x17, x12, 2 # perform operation
    16d0:	00260893          	addi	x17,x12,2
  # Check if x17 contains the expected result. x9 is the signature ptr, x8 is the link ptr, x7 is a temp reg.
  RVTEST_SIGUPD(x9, x8, x7, x17, I_addi_cg_cr_rs1_imm_edges_rs1val_0x80000001_immval_0x2, I_addi_cg_cr_rs1_imm_edges_rs1val_0x80000001_immval_0x2_str)
    16d4:	0004a383          	lw	x7,0(x9)
    16d8:	01138863          	beq	x7,x17,16e8 <I_addi_cg_cr_rs1_imm_edges_rs1val_0x80000001_immval_0x2+0x18>
    16dc:	5f90146f          	jal	x8,34d4 <failedtest_x8_x7>
    16e0:	000016d0          	.word	0x000016d0
    16e4:	0000af39          	.word	0x0000af39
    16e8:	00448493          	addi	x9,x9,4

# Testcase cr_rs1_imm_edges (rs1 = 0x80000001, imm = 3)
  RVTEST_TESTDATA_LOAD_INT(x19, x11) # load rs1: x11 = 0x80000001
    16ec:	0009a583          	lw	x11,0(x19)
    16f0:	00498993          	addi	x19,x19,4

000016f4 <I_addi_cg_cr_rs1_imm_edges_rs1val_0x80000001_immval_0x3>:
I_addi_cg_cr_rs1_imm_edges_rs1val_0x80000001_immval_0x3:
  addi x30, x11, 3 # perform operation
    16f4:	00358f13          	addi	x30,x11,3
  # Check if x30 contains the expected result. x9 is the signature ptr, x8 is the link ptr, x7 is a temp reg.
  RVTEST_SIGUPD(x9, x8, x7, x30, I_addi_cg_cr_rs1_imm_edges_rs1val_0x80000001_immval_0x3, I_addi_cg_cr_rs1_imm_edges_rs1val_0x80000001_immval_0x3_str)
    16f8:	0004a383          	lw	x7,0(x9)
    16fc:	01e38863          	beq	x7,x30,170c <I_addi_cg_cr_rs1_imm_edges_rs1val_0x80000001_immval_0x3+0x18>
    1700:	5d50146f          	jal	x8,34d4 <failedtest_x8_x7>
    1704:	000016f4          	.word	0x000016f4
    1708:	0000af8e          	.word	0x0000af8e
    170c:	00448493          	addi	x9,x9,4

# Testcase cr_rs1_imm_edges (rs1 = 0x80000001, imm = 4)
  RVTEST_TESTDATA_LOAD_INT(x19, x16) # load rs1: x16 = 0x80000001
    1710:	0009a803          	lw	x16,0(x19)
    1714:	00498993          	addi	x19,x19,4

00001718 <I_addi_cg_cr_rs1_imm_edges_rs1val_0x80000001_immval_0x4>:
I_addi_cg_cr_rs1_imm_edges_rs1val_0x80000001_immval_0x4:
  addi x18, x16, 4 # perform operation
    1718:	00480913          	addi	x18,x16,4
  # Check if x18 contains the expected result. x9 is the signature ptr, x8 is the link ptr, x7 is a temp reg.
  RVTEST_SIGUPD(x9, x8, x7, x18, I_addi_cg_cr_rs1_imm_edges_rs1val_0x80000001_immval_0x4, I_addi_cg_cr_rs1_imm_edges_rs1val_0x80000001_immval_0x4_str)
    171c:	0004a383          	lw	x7,0(x9)
    1720:	01238863          	beq	x7,x18,1730 <I_addi_cg_cr_rs1_imm_edges_rs1val_0x80000001_immval_0x4+0x18>
    1724:	5b10146f          	jal	x8,34d4 <failedtest_x8_x7>
    1728:	00001718          	.word	0x00001718
    172c:	0000afe3          	.word	0x0000afe3
    1730:	00448493          	addi	x9,x9,4

# Testcase cr_rs1_imm_edges (rs1 = 0x80000001, imm = 8)
  RVTEST_TESTDATA_LOAD_INT(x19, x4) # load rs1: x4 = 0x80000001
    1734:	0009a203          	lw	x4,0(x19)
    1738:	00498993          	addi	x19,x19,4

0000173c <I_addi_cg_cr_rs1_imm_edges_rs1val_0x80000001_immval_0x8>:
I_addi_cg_cr_rs1_imm_edges_rs1val_0x80000001_immval_0x8:
  addi x24, x4, 8 # perform operation
    173c:	00820c13          	addi	x24,x4,8 # 8 <MMODE_SIG+0x5>
  # Check if x24 contains the expected result. x9 is the signature ptr, x8 is the link ptr, x7 is a temp reg.
  RVTEST_SIGUPD(x9, x8, x7, x24, I_addi_cg_cr_rs1_imm_edges_rs1val_0x80000001_immval_0x8, I_addi_cg_cr_rs1_imm_edges_rs1val_0x80000001_immval_0x8_str)
    1740:	0004a383          	lw	x7,0(x9)
    1744:	01838863          	beq	x7,x24,1754 <I_addi_cg_cr_rs1_imm_edges_rs1val_0x80000001_immval_0x8+0x18>
    1748:	58d0146f          	jal	x8,34d4 <failedtest_x8_x7>
    174c:	0000173c          	.word	0x0000173c
    1750:	0000b038          	.word	0x0000b038
    1754:	00448493          	addi	x9,x9,4

# Testcase cr_rs1_imm_edges (rs1 = 0x80000001, imm = 16)
  RVTEST_TESTDATA_LOAD_INT(x19, x31) # load rs1: x31 = 0x80000001
    1758:	0009af83          	lw	x31,0(x19)
    175c:	00498993          	addi	x19,x19,4

00001760 <I_addi_cg_cr_rs1_imm_edges_rs1val_0x80000001_immval_0x10>:
I_addi_cg_cr_rs1_imm_edges_rs1val_0x80000001_immval_0x10:
  addi x23, x31, 16 # perform operation
    1760:	010f8b93          	addi	x23,x31,16
  # Check if x23 contains the expected result. x9 is the signature ptr, x8 is the link ptr, x7 is a temp reg.
  RVTEST_SIGUPD(x9, x8, x7, x23, I_addi_cg_cr_rs1_imm_edges_rs1val_0x80000001_immval_0x10, I_addi_cg_cr_rs1_imm_edges_rs1val_0x80000001_immval_0x10_str)
    1764:	0004a383          	lw	x7,0(x9)
    1768:	01738863          	beq	x7,x23,1778 <I_addi_cg_cr_rs1_imm_edges_rs1val_0x80000001_immval_0x10+0x18>
    176c:	5690146f          	jal	x8,34d4 <failedtest_x8_x7>
    1770:	00001760          	.word	0x00001760
    1774:	0000b08d          	.word	0x0000b08d
    1778:	00448493          	addi	x9,x9,4

# Testcase cr_rs1_imm_edges (rs1 = 0x80000001, imm = 32)
  RVTEST_TESTDATA_LOAD_INT(x19, x22) # load rs1: x22 = 0x80000001
    177c:	0009ab03          	lw	x22,0(x19)
    1780:	00498993          	addi	x19,x19,4

00001784 <I_addi_cg_cr_rs1_imm_edges_rs1val_0x80000001_immval_0x20>:
I_addi_cg_cr_rs1_imm_edges_rs1val_0x80000001_immval_0x20:
  addi x28, x22, 32 # perform operation
    1784:	020b0e13          	addi	x28,x22,32
  # Check if x28 contains the expected result. x9 is the signature ptr, x8 is the link ptr, x7 is a temp reg.
  RVTEST_SIGUPD(x9, x8, x7, x28, I_addi_cg_cr_rs1_imm_edges_rs1val_0x80000001_immval_0x20, I_addi_cg_cr_rs1_imm_edges_rs1val_0x80000001_immval_0x20_str)
    1788:	0004a383          	lw	x7,0(x9)
    178c:	01c38863          	beq	x7,x28,179c <I_addi_cg_cr_rs1_imm_edges_rs1val_0x80000001_immval_0x20+0x18>
    1790:	5450146f          	jal	x8,34d4 <failedtest_x8_x7>
    1794:	00001784          	.word	0x00001784
    1798:	0000b0e3          	.word	0x0000b0e3
    179c:	00448493          	addi	x9,x9,4

# Testcase cr_rs1_imm_edges (rs1 = 0x80000001, imm = 64)
  RVTEST_TESTDATA_LOAD_INT(x19, x25) # load rs1: x25 = 0x80000001
    17a0:	0009ac83          	lw	x25,0(x19)
    17a4:	00498993          	addi	x19,x19,4

000017a8 <I_addi_cg_cr_rs1_imm_edges_rs1val_0x80000001_immval_0x40>:
I_addi_cg_cr_rs1_imm_edges_rs1val_0x80000001_immval_0x40:
  addi x11, x25, 64 # perform operation
    17a8:	040c8593          	addi	x11,x25,64
  # Check if x11 contains the expected result. x9 is the signature ptr, x8 is the link ptr, x7 is a temp reg.
  RVTEST_SIGUPD(x9, x8, x7, x11, I_addi_cg_cr_rs1_imm_edges_rs1val_0x80000001_immval_0x40, I_addi_cg_cr_rs1_imm_edges_rs1val_0x80000001_immval_0x40_str)
    17ac:	0004a383          	lw	x7,0(x9)
    17b0:	00b38863          	beq	x7,x11,17c0 <I_addi_cg_cr_rs1_imm_edges_rs1val_0x80000001_immval_0x40+0x18>
    17b4:	5210146f          	jal	x8,34d4 <failedtest_x8_x7>
    17b8:	000017a8          	.word	0x000017a8
    17bc:	0000b139          	.word	0x0000b139
    17c0:	00448493          	addi	x9,x9,4

# Testcase cr_rs1_imm_edges (rs1 = 0x80000001, imm = 128)
  RVTEST_TESTDATA_LOAD_INT(x19, x29) # load rs1: x29 = 0x80000001
    17c4:	0009ae83          	lw	x29,0(x19)
    17c8:	00498993          	addi	x19,x19,4

000017cc <I_addi_cg_cr_rs1_imm_edges_rs1val_0x80000001_immval_0x80>:
I_addi_cg_cr_rs1_imm_edges_rs1val_0x80000001_immval_0x80:
  addi x15, x29, 128 # perform operation
    17cc:	080e8793          	addi	x15,x29,128
  # Check if x15 contains the expected result. x9 is the signature ptr, x8 is the link ptr, x7 is a temp reg.
  RVTEST_SIGUPD(x9, x8, x7, x15, I_addi_cg_cr_rs1_imm_edges_rs1val_0x80000001_immval_0x80, I_addi_cg_cr_rs1_imm_edges_rs1val_0x80000001_immval_0x80_str)
    17d0:	0004a383          	lw	x7,0(x9)
    17d4:	00f38863          	beq	x7,x15,17e4 <I_addi_cg_cr_rs1_imm_edges_rs1val_0x80000001_immval_0x80+0x18>
    17d8:	4fd0146f          	jal	x8,34d4 <failedtest_x8_x7>
    17dc:	000017cc          	.word	0x000017cc
    17e0:	0000b18f          	.word	0x0000b18f
    17e4:	00448493          	addi	x9,x9,4

# Testcase cr_rs1_imm_edges (rs1 = 0x80000001, imm = 256)
  RVTEST_TESTDATA_LOAD_INT(x19, x12) # load rs1: x12 = 0x80000001
    17e8:	0009a603          	lw	x12,0(x19)
    17ec:	00498993          	addi	x19,x19,4

000017f0 <I_addi_cg_cr_rs1_imm_edges_rs1val_0x80000001_immval_0x100>:
I_addi_cg_cr_rs1_imm_edges_rs1val_0x80000001_immval_0x100:
  addi x25, x12, 256 # perform operation
    17f0:	10060c93          	addi	x25,x12,256
  # Check if x25 contains the expected result. x9 is the signature ptr, x8 is the link ptr, x7 is a temp reg.
  RVTEST_SIGUPD(x9, x8, x7, x25, I_addi_cg_cr_rs1_imm_edges_rs1val_0x80000001_immval_0x100, I_addi_cg_cr_rs1_imm_edges_rs1val_0x80000001_immval_0x100_str)
    17f4:	0004a383          	lw	x7,0(x9)
    17f8:	01938863          	beq	x7,x25,1808 <I_addi_cg_cr_rs1_imm_edges_rs1val_0x80000001_immval_0x100+0x18>
    17fc:	4d90146f          	jal	x8,34d4 <failedtest_x8_x7>
    1800:	000017f0          	.word	0x000017f0
    1804:	0000b1e5          	.word	0x0000b1e5
    1808:	00448493          	addi	x9,x9,4

# Testcase cr_rs1_imm_edges (rs1 = 0x80000001, imm = 512)
  RVTEST_TESTDATA_LOAD_INT(x19, x10) # load rs1: x10 = 0x80000001
    180c:	0009a503          	lw	x10,0(x19)
    1810:	00498993          	addi	x19,x19,4

00001814 <I_addi_cg_cr_rs1_imm_edges_rs1val_0x80000001_immval_0x200>:
I_addi_cg_cr_rs1_imm_edges_rs1val_0x80000001_immval_0x200:
  addi x2, x10, 512 # perform operation
    1814:	20050113          	addi	x2,x10,512
  # Check if x2 contains the expected result. x9 is the signature ptr, x8 is the link ptr, x7 is a temp reg.
  RVTEST_SIGUPD(x9, x8, x7, x2, I_addi_cg_cr_rs1_imm_edges_rs1val_0x80000001_immval_0x200, I_addi_cg_cr_rs1_imm_edges_rs1val_0x80000001_immval_0x200_str)
    1818:	0004a383          	lw	x7,0(x9)
    181c:	00238863          	beq	x7,x2,182c <I_addi_cg_cr_rs1_imm_edges_rs1val_0x80000001_immval_0x200+0x18>
    1820:	4b50146f          	jal	x8,34d4 <failedtest_x8_x7>
    1824:	00001814          	.word	0x00001814
    1828:	0000b23c          	.word	0x0000b23c
    182c:	00448493          	addi	x9,x9,4

# Testcase cr_rs1_imm_edges (rs1 = 0x80000001, imm = 1023)
  RVTEST_TESTDATA_LOAD_INT(x19, x26) # load rs1: x26 = 0x80000001
    1830:	0009ad03          	lw	x26,0(x19)
    1834:	00498993          	addi	x19,x19,4

00001838 <I_addi_cg_cr_rs1_imm_edges_rs1val_0x80000001_immval_0x3ff>:
I_addi_cg_cr_rs1_imm_edges_rs1val_0x80000001_immval_0x3ff:
  addi x17, x26, 1023 # perform operation
    1838:	3ffd0893          	addi	x17,x26,1023
  # Check if x17 contains the expected result. x9 is the signature ptr, x8 is the link ptr, x7 is a temp reg.
  RVTEST_SIGUPD(x9, x8, x7, x17, I_addi_cg_cr_rs1_imm_edges_rs1val_0x80000001_immval_0x3ff, I_addi_cg_cr_rs1_imm_edges_rs1val_0x80000001_immval_0x3ff_str)
    183c:	0004a383          	lw	x7,0(x9)
    1840:	01138863          	beq	x7,x17,1850 <I_addi_cg_cr_rs1_imm_edges_rs1val_0x80000001_immval_0x3ff+0x18>
    1844:	4910146f          	jal	x8,34d4 <failedtest_x8_x7>
    1848:	00001838          	.word	0x00001838
    184c:	0000b293          	.word	0x0000b293
    1850:	00448493          	addi	x9,x9,4

# Testcase cr_rs1_imm_edges (rs1 = 0x80000001, imm = 1024)
  RVTEST_TESTDATA_LOAD_INT(x19, x11) # load rs1: x11 = 0x80000001
    1854:	0009a583          	lw	x11,0(x19)
    1858:	00498993          	addi	x19,x19,4

0000185c <I_addi_cg_cr_rs1_imm_edges_rs1val_0x80000001_immval_0x400>:
I_addi_cg_cr_rs1_imm_edges_rs1val_0x80000001_immval_0x400:
  addi x22, x11, 1024 # perform operation
    185c:	40058b13          	addi	x22,x11,1024
  # Check if x22 contains the expected result. x9 is the signature ptr, x8 is the link ptr, x7 is a temp reg.
  RVTEST_SIGUPD(x9, x8, x7, x22, I_addi_cg_cr_rs1_imm_edges_rs1val_0x80000001_immval_0x400, I_addi_cg_cr_rs1_imm_edges_rs1val_0x80000001_immval_0x400_str)
    1860:	0004a383          	lw	x7,0(x9)
    1864:	01638863          	beq	x7,x22,1874 <I_addi_cg_cr_rs1_imm_edges_rs1val_0x80000001_immval_0x400+0x18>
    1868:	46d0146f          	jal	x8,34d4 <failedtest_x8_x7>
    186c:	0000185c          	.word	0x0000185c
    1870:	0000b2ea          	.word	0x0000b2ea
    1874:	00448493          	addi	x9,x9,4

# Testcase cr_rs1_imm_edges (rs1 = 0x80000001, imm = 1795)
  RVTEST_TESTDATA_LOAD_INT(x19, x29) # load rs1: x29 = 0x80000001
    1878:	0009ae83          	lw	x29,0(x19)
    187c:	00498993          	addi	x19,x19,4

00001880 <I_addi_cg_cr_rs1_imm_edges_rs1val_0x80000001_immval_0x703>:
I_addi_cg_cr_rs1_imm_edges_rs1val_0x80000001_immval_0x703:
  addi x25, x29, 1795 # perform operation
    1880:	703e8c93          	addi	x25,x29,1795
  # Check if x25 contains the expected result. x9 is the signature ptr, x8 is the link ptr, x7 is a temp reg.
  RVTEST_SIGUPD(x9, x8, x7, x25, I_addi_cg_cr_rs1_imm_edges_rs1val_0x80000001_immval_0x703, I_addi_cg_cr_rs1_imm_edges_rs1val_0x80000001_immval_0x703_str)
    1884:	0004a383          	lw	x7,0(x9)
    1888:	01938863          	beq	x7,x25,1898 <I_addi_cg_cr_rs1_imm_edges_rs1val_0x80000001_immval_0x703+0x18>
    188c:	4490146f          	jal	x8,34d4 <failedtest_x8_x7>
    1890:	00001880          	.word	0x00001880
    1894:	0000b341          	.word	0x0000b341
    1898:	00448493          	addi	x9,x9,4

# Testcase cr_rs1_imm_edges (rs1 = 0x80000001, imm = 2047)
  RVTEST_TESTDATA_LOAD_INT(x19, x1) # load rs1: x1 = 0x80000001
    189c:	0009a083          	lw	x1,0(x19)
    18a0:	00498993          	addi	x19,x19,4

000018a4 <I_addi_cg_cr_rs1_imm_edges_rs1val_0x80000001_immval_0x7ff>:
I_addi_cg_cr_rs1_imm_edges_rs1val_0x80000001_immval_0x7ff:
  addi x23, x1, 2047 # perform operation
    18a4:	7ff08b93          	addi	x23,x1,2047
  # Check if x23 contains the expected result. x9 is the signature ptr, x8 is the link ptr, x7 is a temp reg.
  RVTEST_SIGUPD(x9, x8, x7, x23, I_addi_cg_cr_rs1_imm_edges_rs1val_0x80000001_immval_0x7ff, I_addi_cg_cr_rs1_imm_edges_rs1val_0x80000001_immval_0x7ff_str)
    18a8:	0004a383          	lw	x7,0(x9)
    18ac:	01738863          	beq	x7,x23,18bc <I_addi_cg_cr_rs1_imm_edges_rs1val_0x80000001_immval_0x7ff+0x18>
    18b0:	4250146f          	jal	x8,34d4 <failedtest_x8_x7>
    18b4:	000018a4          	.word	0x000018a4
    18b8:	0000b398          	.word	0x0000b398
    18bc:	00448493          	addi	x9,x9,4

# Testcase cr_rs1_imm_edges (rs1 = 0x80000001, imm = -2048)
  RVTEST_TESTDATA_LOAD_INT(x19, x16) # load rs1: x16 = 0x80000001
    18c0:	0009a803          	lw	x16,0(x19)
    18c4:	00498993          	addi	x19,x19,4

000018c8 <I_addi_cg_cr_rs1_imm_edges_rs1val_0x80000001_immval_m0x800>:
I_addi_cg_cr_rs1_imm_edges_rs1val_0x80000001_immval_m0x800:
  addi x15, x16, -2048 # perform operation
    18c8:	80080793          	addi	x15,x16,-2048
  # Check if x15 contains the expected result. x9 is the signature ptr, x8 is the link ptr, x7 is a temp reg.
  RVTEST_SIGUPD(x9, x8, x7, x15, I_addi_cg_cr_rs1_imm_edges_rs1val_0x80000001_immval_m0x800, I_addi_cg_cr_rs1_imm_edges_rs1val_0x80000001_immval_m0x800_str)
    18cc:	0004a383          	lw	x7,0(x9)
    18d0:	00f38863          	beq	x7,x15,18e0 <I_addi_cg_cr_rs1_imm_edges_rs1val_0x80000001_immval_m0x800+0x18>
    18d4:	4010146f          	jal	x8,34d4 <failedtest_x8_x7>
    18d8:	000018c8          	.word	0x000018c8
    18dc:	0000b3ef          	.word	0x0000b3ef
    18e0:	00448493          	addi	x9,x9,4

# Testcase cr_rs1_imm_edges (rs1 = 0x80000001, imm = -2047)
  RVTEST_TESTDATA_LOAD_INT(x19, x20) # load rs1: x20 = 0x80000001
    18e4:	0009aa03          	lw	x20,0(x19)
    18e8:	00498993          	addi	x19,x19,4

000018ec <I_addi_cg_cr_rs1_imm_edges_rs1val_0x80000001_immval_m0x7ff>:
I_addi_cg_cr_rs1_imm_edges_rs1val_0x80000001_immval_m0x7ff:
  addi x13, x20, -2047 # perform operation
    18ec:	801a0693          	addi	x13,x20,-2047
  # Check if x13 contains the expected result. x9 is the signature ptr, x8 is the link ptr, x7 is a temp reg.
  RVTEST_SIGUPD(x9, x8, x7, x13, I_addi_cg_cr_rs1_imm_edges_rs1val_0x80000001_immval_m0x7ff, I_addi_cg_cr_rs1_imm_edges_rs1val_0x80000001_immval_m0x7ff_str)
    18f0:	0004a383          	lw	x7,0(x9)
    18f4:	00d38863          	beq	x7,x13,1904 <I_addi_cg_cr_rs1_imm_edges_rs1val_0x80000001_immval_m0x7ff+0x18>
    18f8:	3dd0146f          	jal	x8,34d4 <failedtest_x8_x7>
    18fc:	000018ec          	.word	0x000018ec
    1900:	0000b447          	.word	0x0000b447
    1904:	00448493          	addi	x9,x9,4

# Testcase cr_rs1_imm_edges (rs1 = 0x80000001, imm = -2)
  RVTEST_TESTDATA_LOAD_INT(x19, x6) # load rs1: x6 = 0x80000001
    1908:	0009a303          	lw	x6,0(x19)
    190c:	00498993          	addi	x19,x19,4

00001910 <I_addi_cg_cr_rs1_imm_edges_rs1val_0x80000001_immval_m0x2>:
I_addi_cg_cr_rs1_imm_edges_rs1val_0x80000001_immval_m0x2:
  addi x29, x6, -2 # perform operation
    1910:	ffe30e93          	addi	x29,x6,-2
  # Check if x29 contains the expected result. x9 is the signature ptr, x8 is the link ptr, x7 is a temp reg.
  RVTEST_SIGUPD(x9, x8, x7, x29, I_addi_cg_cr_rs1_imm_edges_rs1val_0x80000001_immval_m0x2, I_addi_cg_cr_rs1_imm_edges_rs1val_0x80000001_immval_m0x2_str)
    1914:	0004a383          	lw	x7,0(x9)
    1918:	01d38863          	beq	x7,x29,1928 <I_addi_cg_cr_rs1_imm_edges_rs1val_0x80000001_immval_m0x2+0x18>
    191c:	3b90146f          	jal	x8,34d4 <failedtest_x8_x7>
    1920:	00001910          	.word	0x00001910
    1924:	0000b49f          	.word	0x0000b49f
    1928:	00448493          	addi	x9,x9,4

# Testcase cr_rs1_imm_edges (rs1 = 0x80000001, imm = -1)
  RVTEST_TESTDATA_LOAD_INT(x19, x30) # load rs1: x30 = 0x80000001
    192c:	0009af03          	lw	x30,0(x19)
    1930:	00498993          	addi	x19,x19,4

00001934 <I_addi_cg_cr_rs1_imm_edges_rs1val_0x80000001_immval_m0x1>:
I_addi_cg_cr_rs1_imm_edges_rs1val_0x80000001_immval_m0x1:
  addi x26, x30, -1 # perform operation
    1934:	ffff0d13          	addi	x26,x30,-1
  # Check if x26 contains the expected result. x9 is the signature ptr, x8 is the link ptr, x7 is a temp reg.
  RVTEST_SIGUPD(x9, x8, x7, x26, I_addi_cg_cr_rs1_imm_edges_rs1val_0x80000001_immval_m0x1, I_addi_cg_cr_rs1_imm_edges_rs1val_0x80000001_immval_m0x1_str)
    1938:	0004a383          	lw	x7,0(x9)
    193c:	01a38863          	beq	x7,x26,194c <I_addi_cg_cr_rs1_imm_edges_rs1val_0x80000001_immval_m0x1+0x18>
    1940:	3950146f          	jal	x8,34d4 <failedtest_x8_x7>
    1944:	00001934          	.word	0x00001934
    1948:	0000b4f5          	.word	0x0000b4f5
    194c:	00448493          	addi	x9,x9,4

# Testcase cr_rs1_imm_edges (rs1 = 0x7fffffff, imm = 0)
  RVTEST_TESTDATA_LOAD_INT(x19, x11) # load rs1: x11 = 0x7fffffff
    1950:	0009a583          	lw	x11,0(x19)
    1954:	00498993          	addi	x19,x19,4

00001958 <I_addi_cg_cr_rs1_imm_edges_rs1val_0x7fffffff_immval_0x0>:
I_addi_cg_cr_rs1_imm_edges_rs1val_0x7fffffff_immval_0x0:
  addi x20, x11, 0 # perform operation
    1958:	00058a13          	addi	x20,x11,0
  # Check if x20 contains the expected result. x9 is the signature ptr, x8 is the link ptr, x7 is a temp reg.
  RVTEST_SIGUPD(x9, x8, x7, x20, I_addi_cg_cr_rs1_imm_edges_rs1val_0x7fffffff_immval_0x0, I_addi_cg_cr_rs1_imm_edges_rs1val_0x7fffffff_immval_0x0_str)
    195c:	0004a383          	lw	x7,0(x9)
    1960:	01438863          	beq	x7,x20,1970 <I_addi_cg_cr_rs1_imm_edges_rs1val_0x7fffffff_immval_0x0+0x18>
    1964:	3710146f          	jal	x8,34d4 <failedtest_x8_x7>
    1968:	00001958          	.word	0x00001958
    196c:	0000b54b          	.word	0x0000b54b
    1970:	00448493          	addi	x9,x9,4

# Testcase cr_rs1_imm_edges (rs1 = 0x7fffffff, imm = 1)
  RVTEST_TESTDATA_LOAD_INT(x19, x30) # load rs1: x30 = 0x7fffffff
    1974:	0009af03          	lw	x30,0(x19)
    1978:	00498993          	addi	x19,x19,4

0000197c <I_addi_cg_cr_rs1_imm_edges_rs1val_0x7fffffff_immval_0x1>:
I_addi_cg_cr_rs1_imm_edges_rs1val_0x7fffffff_immval_0x1:
  addi x13, x30, 1 # perform operation
    197c:	001f0693          	addi	x13,x30,1
  # Check if x13 contains the expected result. x9 is the signature ptr, x8 is the link ptr, x7 is a temp reg.
  RVTEST_SIGUPD(x9, x8, x7, x13, I_addi_cg_cr_rs1_imm_edges_rs1val_0x7fffffff_immval_0x1, I_addi_cg_cr_rs1_imm_edges_rs1val_0x7fffffff_immval_0x1_str)
    1980:	0004a383          	lw	x7,0(x9)
    1984:	00d38863          	beq	x7,x13,1994 <I_addi_cg_cr_rs1_imm_edges_rs1val_0x7fffffff_immval_0x1+0x18>
    1988:	34d0146f          	jal	x8,34d4 <failedtest_x8_x7>
    198c:	0000197c          	.word	0x0000197c
    1990:	0000b5a0          	.word	0x0000b5a0
    1994:	00448493          	addi	x9,x9,4

# Testcase cr_rs1_imm_edges (rs1 = 0x7fffffff, imm = 2)
  RVTEST_TESTDATA_LOAD_INT(x19, x16) # load rs1: x16 = 0x7fffffff
    1998:	0009a803          	lw	x16,0(x19)
    199c:	00498993          	addi	x19,x19,4

000019a0 <I_addi_cg_cr_rs1_imm_edges_rs1val_0x7fffffff_immval_0x2>:
I_addi_cg_cr_rs1_imm_edges_rs1val_0x7fffffff_immval_0x2:
  addi x22, x16, 2 # perform operation
    19a0:	00280b13          	addi	x22,x16,2
  # Check if x22 contains the expected result. x9 is the signature ptr, x8 is the link ptr, x7 is a temp reg.
  RVTEST_SIGUPD(x9, x8, x7, x22, I_addi_cg_cr_rs1_imm_edges_rs1val_0x7fffffff_immval_0x2, I_addi_cg_cr_rs1_imm_edges_rs1val_0x7fffffff_immval_0x2_str)
    19a4:	0004a383          	lw	x7,0(x9)
    19a8:	01638863          	beq	x7,x22,19b8 <I_addi_cg_cr_rs1_imm_edges_rs1val_0x7fffffff_immval_0x2+0x18>
    19ac:	3290146f          	jal	x8,34d4 <failedtest_x8_x7>
    19b0:	000019a0          	.word	0x000019a0
    19b4:	0000b5f5          	.word	0x0000b5f5
    19b8:	00448493          	addi	x9,x9,4

# Testcase cr_rs1_imm_edges (rs1 = 0x7fffffff, imm = 3)
  RVTEST_TESTDATA_LOAD_INT(x19, x27) # load rs1: x27 = 0x7fffffff
    19bc:	0009ad83          	lw	x27,0(x19)
    19c0:	00498993          	addi	x19,x19,4

000019c4 <I_addi_cg_cr_rs1_imm_edges_rs1val_0x7fffffff_immval_0x3>:
I_addi_cg_cr_rs1_imm_edges_rs1val_0x7fffffff_immval_0x3:
  addi x16, x27, 3 # perform operation
    19c4:	003d8813          	addi	x16,x27,3
  # Check if x16 contains the expected result. x9 is the signature ptr, x8 is the link ptr, x7 is a temp reg.
  RVTEST_SIGUPD(x9, x8, x7, x16, I_addi_cg_cr_rs1_imm_edges_rs1val_0x7fffffff_immval_0x3, I_addi_cg_cr_rs1_imm_edges_rs1val_0x7fffffff_immval_0x3_str)
    19c8:	0004a383          	lw	x7,0(x9)
    19cc:	01038863          	beq	x7,x16,19dc <I_addi_cg_cr_rs1_imm_edges_rs1val_0x7fffffff_immval_0x3+0x18>
    19d0:	3050146f          	jal	x8,34d4 <failedtest_x8_x7>
    19d4:	000019c4          	.word	0x000019c4
    19d8:	0000b64a          	.word	0x0000b64a
    19dc:	00448493          	addi	x9,x9,4

# Testcase cr_rs1_imm_edges (rs1 = 0x7fffffff, imm = 4)
  RVTEST_TESTDATA_LOAD_INT(x19, x26) # load rs1: x26 = 0x7fffffff
    19e0:	0009ad03          	lw	x26,0(x19)
    19e4:	00498993          	addi	x19,x19,4

000019e8 <I_addi_cg_cr_rs1_imm_edges_rs1val_0x7fffffff_immval_0x4>:
I_addi_cg_cr_rs1_imm_edges_rs1val_0x7fffffff_immval_0x4:
  addi x14, x26, 4 # perform operation
    19e8:	004d0713          	addi	x14,x26,4
