
/home/dev/github/clones/riscv-arch-test/work/rv32i-core/elfs/rv32i/I/I-andi-00.elf:     file format elf32-littleriscv
/home/dev/github/clones/riscv-arch-test/work/rv32i-core/elfs/rv32i/I/I-andi-00.elf
architecture: riscv:rv32, flags 0x00000112:
EXEC_P, HAS_SYMS, D_PAGED
start address 0x00000000

Program Header:
0x70000003 off    0x0001e240 vaddr 0x00000000 paddr 0x00000000 align 2**0
         filesz 0x00000033 memsz 0x00000000 flags r--
    LOAD off    0x00001000 vaddr 0x00000000 paddr 0x00000000 align 2**12
         filesz 0x00004f40 memsz 0x00004f40 flags r-x
    LOAD off    0x00006000 vaddr 0x00008000 paddr 0x00008000 align 2**12
         filesz 0x00018240 memsz 0x00018240 flags rwx

Sections:
Idx Name          Size      VMA       LMA       File off  Algn
  0 .text.init    00000040  00000000  00000000  00001000  2**5
                  CONTENTS, ALLOC, LOAD, READONLY, CODE
  1 .text.rvtest  00004f00  00000040  00000040  00001040  2**5
                  CONTENTS, ALLOC, LOAD, READONLY, CODE
  2 .data         00017c90  00008000  00008000  00006000  2**8
                  CONTENTS, ALLOC, LOAD, DATA
  3 .text.rvmodel 00000240  00020000  00020000  0001e000  2**5
                  CONTENTS, ALLOC, LOAD, READONLY, CODE
  4 .riscv.attributes 00000033  00000000  00000000  0001e240  2**0
                  CONTENTS, READONLY
  5 .debug_line   00001ad6  00000000  00000000  0001e273  2**0
                  CONTENTS, READONLY, DEBUGGING, OCTETS
  6 .debug_line_str 0000006a  00000000  00000000  0001fd49  2**0
                  CONTENTS, READONLY, DEBUGGING, OCTETS
  7 .debug_info   00000023  00000000  00000000  0001fdb3  2**0
                  CONTENTS, READONLY, DEBUGGING, OCTETS
  8 .debug_abbrev 00000012  00000000  00000000  0001fdd6  2**0
                  CONTENTS, READONLY, DEBUGGING, OCTETS
  9 .debug_aranges 00000028  00000000  00000000  0001fde8  2**3
                  CONTENTS, READONLY, DEBUGGING, OCTETS
 10 .debug_str    00000076  00000000  00000000  0001fe10  2**0
                  CONTENTS, READONLY, DEBUGGING, OCTETS
 11 .debug_rnglists 0000001b  00000000  00000000  0001fe86  2**0
                  CONTENTS, READONLY, DEBUGGING, OCTETS
SYMBOL TABLE:
00000000 l    d  .text.init	00000000 .text.init
00000040 l    d  .text.rvtest	00000000 .text.rvtest
00008000 l    d  .data	00000000 .data
00020000 l    d  .text.rvmodel	00000000 .text.rvmodel
00000000 l    d  .riscv.attributes	00000000 .riscv.attributes
00000000 l    d  .debug_line	00000000 .debug_line
00000000 l    d  .debug_line_str	00000000 .debug_line_str
00000000 l    d  .debug_info	00000000 .debug_info
00000000 l    d  .debug_abbrev	00000000 .debug_abbrev
00000000 l    d  .debug_aranges	00000000 .debug_aranges
00000000 l    d  .debug_str	00000000 .debug_str
00000000 l    d  .debug_rnglists	00000000 .debug_rnglists
00000000 l    df *ABS*	00000000 cc8o9NwE.o
00000003 l       *ABS*	00000000 MMODE_SIG
00000001 l       *ABS*	00000000 SMODE_SIG
00000001 l       *ABS*	00000000 HMODE_SIG
00000002 l       *ABS*	00000000 VMODE_SIG
00020000 l       .text.rvmodel	00000000 rvmodel_boot
00000048 l       .text.rvtest	00000000 I_andi_cg_cp_rs1_b0
000034bc l       .text.rvtest	00000000 failedtest_x5_x4
000086d0 l       .data	00000000 I_andi_cg_cp_rs1_b0_str
0000006c l       .text.rvtest	00000000 I_andi_cg_cp_rs1_b1
000086fe l       .data	00000000 I_andi_cg_cp_rs1_b1_str
00000094 l       .text.rvtest	00000000 I_andi_cg_cp_rs1_b2
0000872c l       .data	00000000 I_andi_cg_cp_rs1_b2_str
000000bc l       .text.rvtest	00000000 I_andi_cg_cp_rs1_b3
0000875a l       .data	00000000 I_andi_cg_cp_rs1_b3_str
000000e8 l       .text.rvtest	00000000 I_andi_cg_cp_rs1_b4
000034d4 l       .text.rvtest	00000000 failedtest_x8_x7
00008788 l       .data	00000000 I_andi_cg_cp_rs1_b4_str
0000010c l       .text.rvtest	00000000 I_andi_cg_cp_rs1_b5
000087b6 l       .data	00000000 I_andi_cg_cp_rs1_b5_str
00000130 l       .text.rvtest	00000000 I_andi_cg_cp_rs1_b6
000087e4 l       .data	00000000 I_andi_cg_cp_rs1_b6_str
0000015c l       .text.rvtest	00000000 I_andi_cg_cp_rs1_b7
00008812 l       .data	00000000 I_andi_cg_cp_rs1_b7_str
00000180 l       .text.rvtest	00000000 I_andi_cg_cp_rs1_b8
00008840 l       .data	00000000 I_andi_cg_cp_rs1_b8_str
000001a4 l       .text.rvtest	00000000 I_andi_cg_cp_rs1_b9
0000886e l       .data	00000000 I_andi_cg_cp_rs1_b9_str
000001c8 l       .text.rvtest	00000000 I_andi_cg_cp_rs1_b10
0000889d l       .data	00000000 I_andi_cg_cp_rs1_b10_str
000001ec l       .text.rvtest	00000000 I_andi_cg_cp_rs1_b11
000088cd l       .data	00000000 I_andi_cg_cp_rs1_b11_str
00000214 l       .text.rvtest	00000000 I_andi_cg_cp_rs1_b12
000088fd l       .data	00000000 I_andi_cg_cp_rs1_b12_str
00000238 l       .text.rvtest	00000000 I_andi_cg_cp_rs1_b13
0000892d l       .data	00000000 I_andi_cg_cp_rs1_b13_str
0000025c l       .text.rvtest	00000000 I_andi_cg_cp_rs1_b14
0000895d l       .data	00000000 I_andi_cg_cp_rs1_b14_str
00000280 l       .text.rvtest	00000000 I_andi_cg_cp_rs1_b15
0000898d l       .data	00000000 I_andi_cg_cp_rs1_b15_str
000002a4 l       .text.rvtest	00000000 I_andi_cg_cp_rs1_b16
000089bd l       .data	00000000 I_andi_cg_cp_rs1_b16_str
000002c8 l       .text.rvtest	00000000 I_andi_cg_cp_rs1_b17
000089ed l       .data	00000000 I_andi_cg_cp_rs1_b17_str
000002ec l       .text.rvtest	00000000 I_andi_cg_cp_rs1_b18
00008a1d l       .data	00000000 I_andi_cg_cp_rs1_b18_str
00000310 l       .text.rvtest	00000000 I_andi_cg_cp_rs1_b19
00008a4d l       .data	00000000 I_andi_cg_cp_rs1_b19_str
00000334 l       .text.rvtest	00000000 I_andi_cg_cp_rs1_b20
00008a7d l       .data	00000000 I_andi_cg_cp_rs1_b20_str
00000358 l       .text.rvtest	00000000 I_andi_cg_cp_rs1_b21
00008aad l       .data	00000000 I_andi_cg_cp_rs1_b21_str
0000037c l       .text.rvtest	00000000 I_andi_cg_cp_rs1_b22
00008add l       .data	00000000 I_andi_cg_cp_rs1_b22_str
000003a0 l       .text.rvtest	00000000 I_andi_cg_cp_rs1_b23
00008b0d l       .data	00000000 I_andi_cg_cp_rs1_b23_str
000003c8 l       .text.rvtest	00000000 I_andi_cg_cp_rs1_b24
00008b3d l       .data	00000000 I_andi_cg_cp_rs1_b24_str
000003ec l       .text.rvtest	00000000 I_andi_cg_cp_rs1_b25
00008b6d l       .data	00000000 I_andi_cg_cp_rs1_b25_str
00000410 l       .text.rvtest	00000000 I_andi_cg_cp_rs1_b26
00008b9d l       .data	00000000 I_andi_cg_cp_rs1_b26_str
00000434 l       .text.rvtest	00000000 I_andi_cg_cp_rs1_b27
00008bcd l       .data	00000000 I_andi_cg_cp_rs1_b27_str
0000045c l       .text.rvtest	00000000 I_andi_cg_cp_rs1_b28
00008bfd l       .data	00000000 I_andi_cg_cp_rs1_b28_str
00000480 l       .text.rvtest	00000000 I_andi_cg_cp_rs1_b29
00008c2d l       .data	00000000 I_andi_cg_cp_rs1_b29_str
000004a4 l       .text.rvtest	00000000 I_andi_cg_cp_rs1_b30
00008c5d l       .data	00000000 I_andi_cg_cp_rs1_b30_str
000004c8 l       .text.rvtest	00000000 I_andi_cg_cp_rs1_b31
00008c8d l       .data	00000000 I_andi_cg_cp_rs1_b31_str
000004ec l       .text.rvtest	00000000 I_andi_cg_cp_rd_b0
00008cbd l       .data	00000000 I_andi_cg_cp_rd_b0_str
00000510 l       .text.rvtest	00000000 I_andi_cg_cp_rd_b1
00008ceb l       .data	00000000 I_andi_cg_cp_rd_b1_str
00000534 l       .text.rvtest	00000000 I_andi_cg_cp_rd_b2
00008d19 l       .data	00000000 I_andi_cg_cp_rd_b2_str
00000558 l       .text.rvtest	00000000 I_andi_cg_cp_rd_b3
00008d47 l       .data	00000000 I_andi_cg_cp_rd_b3_str
00000584 l       .text.rvtest	00000000 I_andi_cg_cp_rd_b4
000034fc l       .text.rvtest	00000000 failedtest_x14_x13
00008d75 l       .data	00000000 I_andi_cg_cp_rd_b4_str
000005a8 l       .text.rvtest	00000000 I_andi_cg_cp_rd_b5
00008da3 l       .data	00000000 I_andi_cg_cp_rd_b5_str
000005cc l       .text.rvtest	00000000 I_andi_cg_cp_rd_b6
00008dd1 l       .data	00000000 I_andi_cg_cp_rd_b6_str
000005f0 l       .text.rvtest	00000000 I_andi_cg_cp_rd_b7
00008dff l       .data	00000000 I_andi_cg_cp_rd_b7_str
00000614 l       .text.rvtest	00000000 I_andi_cg_cp_rd_b8
00008e2d l       .data	00000000 I_andi_cg_cp_rd_b8_str
00000638 l       .text.rvtest	00000000 I_andi_cg_cp_rd_b9
00008e5b l       .data	00000000 I_andi_cg_cp_rd_b9_str
0000065c l       .text.rvtest	00000000 I_andi_cg_cp_rd_b10
00008e89 l       .data	00000000 I_andi_cg_cp_rd_b10_str
00000680 l       .text.rvtest	00000000 I_andi_cg_cp_rd_b11
00008eb8 l       .data	00000000 I_andi_cg_cp_rd_b11_str
000006a4 l       .text.rvtest	00000000 I_andi_cg_cp_rd_b12
00008ee7 l       .data	00000000 I_andi_cg_cp_rd_b12_str
000006d0 l       .text.rvtest	00000000 I_andi_cg_cp_rd_b13
00008f16 l       .data	00000000 I_andi_cg_cp_rd_b13_str
000006f4 l       .text.rvtest	00000000 I_andi_cg_cp_rd_b14
00008f45 l       .data	00000000 I_andi_cg_cp_rd_b14_str
00000718 l       .text.rvtest	00000000 I_andi_cg_cp_rd_b15
00008f74 l       .data	00000000 I_andi_cg_cp_rd_b15_str
0000073c l       .text.rvtest	00000000 I_andi_cg_cp_rd_b16
00008fa3 l       .data	00000000 I_andi_cg_cp_rd_b16_str
00000760 l       .text.rvtest	00000000 I_andi_cg_cp_rd_b17
00008fd2 l       .data	00000000 I_andi_cg_cp_rd_b17_str
00000784 l       .text.rvtest	00000000 I_andi_cg_cp_rd_b18
00009001 l       .data	00000000 I_andi_cg_cp_rd_b18_str
000007ac l       .text.rvtest	00000000 I_andi_cg_cp_rd_b19
00009030 l       .data	00000000 I_andi_cg_cp_rd_b19_str
000007d0 l       .text.rvtest	00000000 I_andi_cg_cp_rd_b20
0000905f l       .data	00000000 I_andi_cg_cp_rd_b20_str
000007f4 l       .text.rvtest	00000000 I_andi_cg_cp_rd_b21
0000908e l       .data	00000000 I_andi_cg_cp_rd_b21_str
00000818 l       .text.rvtest	00000000 I_andi_cg_cp_rd_b22
000090bd l       .data	00000000 I_andi_cg_cp_rd_b22_str
0000083c l       .text.rvtest	00000000 I_andi_cg_cp_rd_b23
000090ec l       .data	00000000 I_andi_cg_cp_rd_b23_str
00000860 l       .text.rvtest	00000000 I_andi_cg_cp_rd_b24
0000911b l       .data	00000000 I_andi_cg_cp_rd_b24_str
00000888 l       .text.rvtest	00000000 I_andi_cg_cp_rd_b25
0000914a l       .data	00000000 I_andi_cg_cp_rd_b25_str
000008ac l       .text.rvtest	00000000 I_andi_cg_cp_rd_b26
00009179 l       .data	00000000 I_andi_cg_cp_rd_b26_str
000008d0 l       .text.rvtest	00000000 I_andi_cg_cp_rd_b27
000091a8 l       .data	00000000 I_andi_cg_cp_rd_b27_str
000008f4 l       .text.rvtest	00000000 I_andi_cg_cp_rd_b28
000091d7 l       .data	00000000 I_andi_cg_cp_rd_b28_str
00000918 l       .text.rvtest	00000000 I_andi_cg_cp_rd_b29
00009206 l       .data	00000000 I_andi_cg_cp_rd_b29_str
0000093c l       .text.rvtest	00000000 I_andi_cg_cp_rd_b30
00009235 l       .data	00000000 I_andi_cg_cp_rd_b30_str
00000960 l       .text.rvtest	00000000 I_andi_cg_cp_rd_b31
00009264 l       .data	00000000 I_andi_cg_cp_rd_b31_str
00000984 l       .text.rvtest	00000000 I_andi_cg_cp_rs1_edges_0x0
00009293 l       .data	00000000 I_andi_cg_cp_rs1_edges_0x0_str
000009a8 l       .text.rvtest	00000000 I_andi_cg_cp_rs1_edges_0x1
000092c9 l       .data	00000000 I_andi_cg_cp_rs1_edges_0x1_str
000009cc l       .text.rvtest	00000000 I_andi_cg_cp_rs1_edges_0x2
000092ff l       .data	00000000 I_andi_cg_cp_rs1_edges_0x2_str
000009f0 l       .text.rvtest	00000000 I_andi_cg_cp_rs1_edges_0x80000000
00009335 l       .data	00000000 I_andi_cg_cp_rs1_edges_0x80000000_str
00000a14 l       .text.rvtest	00000000 I_andi_cg_cp_rs1_edges_0x80000001
00009372 l       .data	00000000 I_andi_cg_cp_rs1_edges_0x80000001_str
00000a38 l       .text.rvtest	00000000 I_andi_cg_cp_rs1_edges_0x7fffffff
000093af l       .data	00000000 I_andi_cg_cp_rs1_edges_0x7fffffff_str
00000a5c l       .text.rvtest	00000000 I_andi_cg_cp_rs1_edges_0x7ffffffe
000093ec l       .data	00000000 I_andi_cg_cp_rs1_edges_0x7ffffffe_str
00000a80 l       .text.rvtest	00000000 I_andi_cg_cp_rs1_edges_0xffffffff
00009429 l       .data	00000000 I_andi_cg_cp_rs1_edges_0xffffffff_str
00000aa4 l       .text.rvtest	00000000 I_andi_cg_cp_rs1_edges_0xfffffffe
00009466 l       .data	00000000 I_andi_cg_cp_rs1_edges_0xfffffffe_str
00000ac8 l       .text.rvtest	00000000 I_andi_cg_cp_rs1_edges_0x5bbc8872
000094a3 l       .data	00000000 I_andi_cg_cp_rs1_edges_0x5bbc8872_str
00000aec l       .text.rvtest	00000000 I_andi_cg_cp_rs1_edges_0xaaaaaaaa
000094e0 l       .data	00000000 I_andi_cg_cp_rs1_edges_0xaaaaaaaa_str
00000b10 l       .text.rvtest	00000000 I_andi_cg_cp_rs1_edges_0x55555555
0000951d l       .data	00000000 I_andi_cg_cp_rs1_edges_0x55555555_str
00000b34 l       .text.rvtest	00000000 I_andi_cg_cr_rs1_imm_edges_rs1val_0x0_immval_0x0
0000955a l       .data	00000000 I_andi_cg_cr_rs1_imm_edges_rs1val_0x0_immval_0x0_str
00000b58 l       .text.rvtest	00000000 I_andi_cg_cr_rs1_imm_edges_rs1val_0x0_immval_0x1
000095a7 l       .data	00000000 I_andi_cg_cr_rs1_imm_edges_rs1val_0x0_immval_0x1_str
00000b7c l       .text.rvtest	00000000 I_andi_cg_cr_rs1_imm_edges_rs1val_0x0_immval_0x2
000095f4 l       .data	00000000 I_andi_cg_cr_rs1_imm_edges_rs1val_0x0_immval_0x2_str
00000ba0 l       .text.rvtest	00000000 I_andi_cg_cr_rs1_imm_edges_rs1val_0x0_immval_0x3
00009641 l       .data	00000000 I_andi_cg_cr_rs1_imm_edges_rs1val_0x0_immval_0x3_str
00000bc4 l       .text.rvtest	00000000 I_andi_cg_cr_rs1_imm_edges_rs1val_0x0_immval_0x4
0000968e l       .data	00000000 I_andi_cg_cr_rs1_imm_edges_rs1val_0x0_immval_0x4_str
00000be8 l       .text.rvtest	00000000 I_andi_cg_cr_rs1_imm_edges_rs1val_0x0_immval_0x8
000096db l       .data	00000000 I_andi_cg_cr_rs1_imm_edges_rs1val_0x0_immval_0x8_str
00000c0c l       .text.rvtest	00000000 I_andi_cg_cr_rs1_imm_edges_rs1val_0x0_immval_0x10
00009728 l       .data	00000000 I_andi_cg_cr_rs1_imm_edges_rs1val_0x0_immval_0x10_str
00000c30 l       .text.rvtest	00000000 I_andi_cg_cr_rs1_imm_edges_rs1val_0x0_immval_0x20
00009776 l       .data	00000000 I_andi_cg_cr_rs1_imm_edges_rs1val_0x0_immval_0x20_str
00000c54 l       .text.rvtest	00000000 I_andi_cg_cr_rs1_imm_edges_rs1val_0x0_immval_0x40
000097c4 l       .data	00000000 I_andi_cg_cr_rs1_imm_edges_rs1val_0x0_immval_0x40_str
00000c78 l       .text.rvtest	00000000 I_andi_cg_cr_rs1_imm_edges_rs1val_0x0_immval_0x80
00009812 l       .data	00000000 I_andi_cg_cr_rs1_imm_edges_rs1val_0x0_immval_0x80_str
00000c9c l       .text.rvtest	00000000 I_andi_cg_cr_rs1_imm_edges_rs1val_0x0_immval_0x100
00009860 l       .data	00000000 I_andi_cg_cr_rs1_imm_edges_rs1val_0x0_immval_0x100_str
00000cc0 l       .text.rvtest	00000000 I_andi_cg_cr_rs1_imm_edges_rs1val_0x0_immval_0x200
000098af l       .data	00000000 I_andi_cg_cr_rs1_imm_edges_rs1val_0x0_immval_0x200_str
00000ce4 l       .text.rvtest	00000000 I_andi_cg_cr_rs1_imm_edges_rs1val_0x0_immval_0x3ff
000098fe l       .data	00000000 I_andi_cg_cr_rs1_imm_edges_rs1val_0x0_immval_0x3ff_str
00000d08 l       .text.rvtest	00000000 I_andi_cg_cr_rs1_imm_edges_rs1val_0x0_immval_0x400
0000994d l       .data	00000000 I_andi_cg_cr_rs1_imm_edges_rs1val_0x0_immval_0x400_str
00000d2c l       .text.rvtest	00000000 I_andi_cg_cr_rs1_imm_edges_rs1val_0x0_immval_0x703
0000999c l       .data	00000000 I_andi_cg_cr_rs1_imm_edges_rs1val_0x0_immval_0x703_str
00000d50 l       .text.rvtest	00000000 I_andi_cg_cr_rs1_imm_edges_rs1val_0x0_immval_0x7ff
000099eb l       .data	00000000 I_andi_cg_cr_rs1_imm_edges_rs1val_0x0_immval_0x7ff_str
00000d74 l       .text.rvtest	00000000 I_andi_cg_cr_rs1_imm_edges_rs1val_0x0_immval_m0x800
00009a3a l       .data	00000000 I_andi_cg_cr_rs1_imm_edges_rs1val_0x0_immval_m0x800_str
00000d98 l       .text.rvtest	00000000 I_andi_cg_cr_rs1_imm_edges_rs1val_0x0_immval_m0x7ff
00009a8a l       .data	00000000 I_andi_cg_cr_rs1_imm_edges_rs1val_0x0_immval_m0x7ff_str
00000dbc l       .text.rvtest	00000000 I_andi_cg_cr_rs1_imm_edges_rs1val_0x0_immval_m0x2
00009ada l       .data	00000000 I_andi_cg_cr_rs1_imm_edges_rs1val_0x0_immval_m0x2_str
00000de0 l       .text.rvtest	00000000 I_andi_cg_cr_rs1_imm_edges_rs1val_0x0_immval_m0x1
00009b28 l       .data	00000000 I_andi_cg_cr_rs1_imm_edges_rs1val_0x0_immval_m0x1_str
00000e04 l       .text.rvtest	00000000 I_andi_cg_cr_rs1_imm_edges_rs1val_0x1_immval_0x0
00009b76 l       .data	00000000 I_andi_cg_cr_rs1_imm_edges_rs1val_0x1_immval_0x0_str
00000e28 l       .text.rvtest	00000000 I_andi_cg_cr_rs1_imm_edges_rs1val_0x1_immval_0x1
00009bc3 l       .data	00000000 I_andi_cg_cr_rs1_imm_edges_rs1val_0x1_immval_0x1_str
00000e4c l       .text.rvtest	00000000 I_andi_cg_cr_rs1_imm_edges_rs1val_0x1_immval_0x2
00009c10 l       .data	00000000 I_andi_cg_cr_rs1_imm_edges_rs1val_0x1_immval_0x2_str
00000e70 l       .text.rvtest	00000000 I_andi_cg_cr_rs1_imm_edges_rs1val_0x1_immval_0x3
00009c5d l       .data	00000000 I_andi_cg_cr_rs1_imm_edges_rs1val_0x1_immval_0x3_str
00000e94 l       .text.rvtest	00000000 I_andi_cg_cr_rs1_imm_edges_rs1val_0x1_immval_0x4
00009cab l       .data	00000000 I_andi_cg_cr_rs1_imm_edges_rs1val_0x1_immval_0x4_str
00000eb8 l       .text.rvtest	00000000 I_andi_cg_cr_rs1_imm_edges_rs1val_0x1_immval_0x8
00009cf9 l       .data	00000000 I_andi_cg_cr_rs1_imm_edges_rs1val_0x1_immval_0x8_str
00000edc l       .text.rvtest	00000000 I_andi_cg_cr_rs1_imm_edges_rs1val_0x1_immval_0x10
00009d47 l       .data	00000000 I_andi_cg_cr_rs1_imm_edges_rs1val_0x1_immval_0x10_str
00000f00 l       .text.rvtest	00000000 I_andi_cg_cr_rs1_imm_edges_rs1val_0x1_immval_0x20
00009d96 l       .data	00000000 I_andi_cg_cr_rs1_imm_edges_rs1val_0x1_immval_0x20_str
00000f24 l       .text.rvtest	00000000 I_andi_cg_cr_rs1_imm_edges_rs1val_0x1_immval_0x40
00009de5 l       .data	00000000 I_andi_cg_cr_rs1_imm_edges_rs1val_0x1_immval_0x40_str
00000f48 l       .text.rvtest	00000000 I_andi_cg_cr_rs1_imm_edges_rs1val_0x1_immval_0x80
00009e34 l       .data	00000000 I_andi_cg_cr_rs1_imm_edges_rs1val_0x1_immval_0x80_str
00000f6c l       .text.rvtest	00000000 I_andi_cg_cr_rs1_imm_edges_rs1val_0x1_immval_0x100
00009e83 l       .data	00000000 I_andi_cg_cr_rs1_imm_edges_rs1val_0x1_immval_0x100_str
00000f90 l       .text.rvtest	00000000 I_andi_cg_cr_rs1_imm_edges_rs1val_0x1_immval_0x200
00009ed3 l       .data	00000000 I_andi_cg_cr_rs1_imm_edges_rs1val_0x1_immval_0x200_str
00000fb4 l       .text.rvtest	00000000 I_andi_cg_cr_rs1_imm_edges_rs1val_0x1_immval_0x3ff
00009f23 l       .data	00000000 I_andi_cg_cr_rs1_imm_edges_rs1val_0x1_immval_0x3ff_str
00000fd8 l       .text.rvtest	00000000 I_andi_cg_cr_rs1_imm_edges_rs1val_0x1_immval_0x400
00009f73 l       .data	00000000 I_andi_cg_cr_rs1_imm_edges_rs1val_0x1_immval_0x400_str
00000ffc l       .text.rvtest	00000000 I_andi_cg_cr_rs1_imm_edges_rs1val_0x1_immval_0x703
00009fc3 l       .data	00000000 I_andi_cg_cr_rs1_imm_edges_rs1val_0x1_immval_0x703_str
00001020 l       .text.rvtest	00000000 I_andi_cg_cr_rs1_imm_edges_rs1val_0x1_immval_0x7ff
0000a013 l       .data	00000000 I_andi_cg_cr_rs1_imm_edges_rs1val_0x1_immval_0x7ff_str
00001044 l       .text.rvtest	00000000 I_andi_cg_cr_rs1_imm_edges_rs1val_0x1_immval_m0x800
0000a063 l       .data	00000000 I_andi_cg_cr_rs1_imm_edges_rs1val_0x1_immval_m0x800_str
00001068 l       .text.rvtest	00000000 I_andi_cg_cr_rs1_imm_edges_rs1val_0x1_immval_m0x7ff
0000a0b4 l       .data	00000000 I_andi_cg_cr_rs1_imm_edges_rs1val_0x1_immval_m0x7ff_str
0000108c l       .text.rvtest	00000000 I_andi_cg_cr_rs1_imm_edges_rs1val_0x1_immval_m0x2
0000a105 l       .data	00000000 I_andi_cg_cr_rs1_imm_edges_rs1val_0x1_immval_m0x2_str
000010b0 l       .text.rvtest	00000000 I_andi_cg_cr_rs1_imm_edges_rs1val_0x1_immval_m0x1
0000a154 l       .data	00000000 I_andi_cg_cr_rs1_imm_edges_rs1val_0x1_immval_m0x1_str
000010d4 l       .text.rvtest	00000000 I_andi_cg_cr_rs1_imm_edges_rs1val_0x2_immval_0x0
0000a1a3 l       .data	00000000 I_andi_cg_cr_rs1_imm_edges_rs1val_0x2_immval_0x0_str
000010f8 l       .text.rvtest	00000000 I_andi_cg_cr_rs1_imm_edges_rs1val_0x2_immval_0x1
0000a1f1 l       .data	00000000 I_andi_cg_cr_rs1_imm_edges_rs1val_0x2_immval_0x1_str
0000111c l       .text.rvtest	00000000 I_andi_cg_cr_rs1_imm_edges_rs1val_0x2_immval_0x2
0000a23f l       .data	00000000 I_andi_cg_cr_rs1_imm_edges_rs1val_0x2_immval_0x2_str
00001140 l       .text.rvtest	00000000 I_andi_cg_cr_rs1_imm_edges_rs1val_0x2_immval_0x3
0000a28d l       .data	00000000 I_andi_cg_cr_rs1_imm_edges_rs1val_0x2_immval_0x3_str
00001164 l       .text.rvtest	00000000 I_andi_cg_cr_rs1_imm_edges_rs1val_0x2_immval_0x4
0000a2db l       .data	00000000 I_andi_cg_cr_rs1_imm_edges_rs1val_0x2_immval_0x4_str
00001188 l       .text.rvtest	00000000 I_andi_cg_cr_rs1_imm_edges_rs1val_0x2_immval_0x8
0000a329 l       .data	00000000 I_andi_cg_cr_rs1_imm_edges_rs1val_0x2_immval_0x8_str
000011ac l       .text.rvtest	00000000 I_andi_cg_cr_rs1_imm_edges_rs1val_0x2_immval_0x10
0000a377 l       .data	00000000 I_andi_cg_cr_rs1_imm_edges_rs1val_0x2_immval_0x10_str
000011d0 l       .text.rvtest	00000000 I_andi_cg_cr_rs1_imm_edges_rs1val_0x2_immval_0x20
0000a3c6 l       .data	00000000 I_andi_cg_cr_rs1_imm_edges_rs1val_0x2_immval_0x20_str
000011f4 l       .text.rvtest	00000000 I_andi_cg_cr_rs1_imm_edges_rs1val_0x2_immval_0x40
0000a415 l       .data	00000000 I_andi_cg_cr_rs1_imm_edges_rs1val_0x2_immval_0x40_str
00001218 l       .text.rvtest	00000000 I_andi_cg_cr_rs1_imm_edges_rs1val_0x2_immval_0x80
0000a464 l       .data	00000000 I_andi_cg_cr_rs1_imm_edges_rs1val_0x2_immval_0x80_str
0000123c l       .text.rvtest	00000000 I_andi_cg_cr_rs1_imm_edges_rs1val_0x2_immval_0x100
0000a4b3 l       .data	00000000 I_andi_cg_cr_rs1_imm_edges_rs1val_0x2_immval_0x100_str
00001260 l       .text.rvtest	00000000 I_andi_cg_cr_rs1_imm_edges_rs1val_0x2_immval_0x200
0000a503 l       .data	00000000 I_andi_cg_cr_rs1_imm_edges_rs1val_0x2_immval_0x200_str
00001284 l       .text.rvtest	00000000 I_andi_cg_cr_rs1_imm_edges_rs1val_0x2_immval_0x3ff
0000a553 l       .data	00000000 I_andi_cg_cr_rs1_imm_edges_rs1val_0x2_immval_0x3ff_str
000012a8 l       .text.rvtest	00000000 I_andi_cg_cr_rs1_imm_edges_rs1val_0x2_immval_0x400
0000a5a3 l       .data	00000000 I_andi_cg_cr_rs1_imm_edges_rs1val_0x2_immval_0x400_str
000012cc l       .text.rvtest	00000000 I_andi_cg_cr_rs1_imm_edges_rs1val_0x2_immval_0x703
0000a5f3 l       .data	00000000 I_andi_cg_cr_rs1_imm_edges_rs1val_0x2_immval_0x703_str
000012f0 l       .text.rvtest	00000000 I_andi_cg_cr_rs1_imm_edges_rs1val_0x2_immval_0x7ff
0000a643 l       .data	00000000 I_andi_cg_cr_rs1_imm_edges_rs1val_0x2_immval_0x7ff_str
00001314 l       .text.rvtest	00000000 I_andi_cg_cr_rs1_imm_edges_rs1val_0x2_immval_m0x800
0000a693 l       .data	00000000 I_andi_cg_cr_rs1_imm_edges_rs1val_0x2_immval_m0x800_str
00001338 l       .text.rvtest	00000000 I_andi_cg_cr_rs1_imm_edges_rs1val_0x2_immval_m0x7ff
0000a6e4 l       .data	00000000 I_andi_cg_cr_rs1_imm_edges_rs1val_0x2_immval_m0x7ff_str
0000135c l       .text.rvtest	00000000 I_andi_cg_cr_rs1_imm_edges_rs1val_0x2_immval_m0x2
0000a735 l       .data	00000000 I_andi_cg_cr_rs1_imm_edges_rs1val_0x2_immval_m0x2_str
00001380 l       .text.rvtest	00000000 I_andi_cg_cr_rs1_imm_edges_rs1val_0x2_immval_m0x1
0000a784 l       .data	00000000 I_andi_cg_cr_rs1_imm_edges_rs1val_0x2_immval_m0x1_str
000013a4 l       .text.rvtest	00000000 I_andi_cg_cr_rs1_imm_edges_rs1val_0x80000000_immval_0x0
0000a7d3 l       .data	00000000 I_andi_cg_cr_rs1_imm_edges_rs1val_0x80000000_immval_0x0_str
000013c8 l       .text.rvtest	00000000 I_andi_cg_cr_rs1_imm_edges_rs1val_0x80000000_immval_0x1
0000a828 l       .data	00000000 I_andi_cg_cr_rs1_imm_edges_rs1val_0x80000000_immval_0x1_str
000013ec l       .text.rvtest	00000000 I_andi_cg_cr_rs1_imm_edges_rs1val_0x80000000_immval_0x2
0000a87d l       .data	00000000 I_andi_cg_cr_rs1_imm_edges_rs1val_0x80000000_immval_0x2_str
00001410 l       .text.rvtest	00000000 I_andi_cg_cr_rs1_imm_edges_rs1val_0x80000000_immval_0x3
0000a8d2 l       .data	00000000 I_andi_cg_cr_rs1_imm_edges_rs1val_0x80000000_immval_0x3_str
00001434 l       .text.rvtest	00000000 I_andi_cg_cr_rs1_imm_edges_rs1val_0x80000000_immval_0x4
0000a927 l       .data	00000000 I_andi_cg_cr_rs1_imm_edges_rs1val_0x80000000_immval_0x4_str
00001458 l       .text.rvtest	00000000 I_andi_cg_cr_rs1_imm_edges_rs1val_0x80000000_immval_0x8
0000a97c l       .data	00000000 I_andi_cg_cr_rs1_imm_edges_rs1val_0x80000000_immval_0x8_str
0000147c l       .text.rvtest	00000000 I_andi_cg_cr_rs1_imm_edges_rs1val_0x80000000_immval_0x10
0000a9d1 l       .data	00000000 I_andi_cg_cr_rs1_imm_edges_rs1val_0x80000000_immval_0x10_str
000014a0 l       .text.rvtest	00000000 I_andi_cg_cr_rs1_imm_edges_rs1val_0x80000000_immval_0x20
0000aa27 l       .data	00000000 I_andi_cg_cr_rs1_imm_edges_rs1val_0x80000000_immval_0x20_str
000014c4 l       .text.rvtest	00000000 I_andi_cg_cr_rs1_imm_edges_rs1val_0x80000000_immval_0x40
0000aa7d l       .data	00000000 I_andi_cg_cr_rs1_imm_edges_rs1val_0x80000000_immval_0x40_str
000014e8 l       .text.rvtest	00000000 I_andi_cg_cr_rs1_imm_edges_rs1val_0x80000000_immval_0x80
0000aad3 l       .data	00000000 I_andi_cg_cr_rs1_imm_edges_rs1val_0x80000000_immval_0x80_str
0000150c l       .text.rvtest	00000000 I_andi_cg_cr_rs1_imm_edges_rs1val_0x80000000_immval_0x100
0000ab29 l       .data	00000000 I_andi_cg_cr_rs1_imm_edges_rs1val_0x80000000_immval_0x100_str
00001530 l       .text.rvtest	00000000 I_andi_cg_cr_rs1_imm_edges_rs1val_0x80000000_immval_0x200
0000ab80 l       .data	00000000 I_andi_cg_cr_rs1_imm_edges_rs1val_0x80000000_immval_0x200_str
00001554 l       .text.rvtest	00000000 I_andi_cg_cr_rs1_imm_edges_rs1val_0x80000000_immval_0x3ff
0000abd7 l       .data	00000000 I_andi_cg_cr_rs1_imm_edges_rs1val_0x80000000_immval_0x3ff_str
00001578 l       .text.rvtest	00000000 I_andi_cg_cr_rs1_imm_edges_rs1val_0x80000000_immval_0x400
0000ac2e l       .data	00000000 I_andi_cg_cr_rs1_imm_edges_rs1val_0x80000000_immval_0x400_str
0000159c l       .text.rvtest	00000000 I_andi_cg_cr_rs1_imm_edges_rs1val_0x80000000_immval_0x703
0000ac85 l       .data	00000000 I_andi_cg_cr_rs1_imm_edges_rs1val_0x80000000_immval_0x703_str
000015c0 l       .text.rvtest	00000000 I_andi_cg_cr_rs1_imm_edges_rs1val_0x80000000_immval_0x7ff
0000acdc l       .data	00000000 I_andi_cg_cr_rs1_imm_edges_rs1val_0x80000000_immval_0x7ff_str
000015e4 l       .text.rvtest	00000000 I_andi_cg_cr_rs1_imm_edges_rs1val_0x80000000_immval_m0x800
0000ad33 l       .data	00000000 I_andi_cg_cr_rs1_imm_edges_rs1val_0x80000000_immval_m0x800_str
00001608 l       .text.rvtest	00000000 I_andi_cg_cr_rs1_imm_edges_rs1val_0x80000000_immval_m0x7ff
0000ad8b l       .data	00000000 I_andi_cg_cr_rs1_imm_edges_rs1val_0x80000000_immval_m0x7ff_str
0000162c l       .text.rvtest	00000000 I_andi_cg_cr_rs1_imm_edges_rs1val_0x80000000_immval_m0x2
0000ade3 l       .data	00000000 I_andi_cg_cr_rs1_imm_edges_rs1val_0x80000000_immval_m0x2_str
00001650 l       .text.rvtest	00000000 I_andi_cg_cr_rs1_imm_edges_rs1val_0x80000000_immval_m0x1
0000ae39 l       .data	00000000 I_andi_cg_cr_rs1_imm_edges_rs1val_0x80000000_immval_m0x1_str
00001674 l       .text.rvtest	00000000 I_andi_cg_cr_rs1_imm_edges_rs1val_0x80000001_immval_0x0
0000ae8f l       .data	00000000 I_andi_cg_cr_rs1_imm_edges_rs1val_0x80000001_immval_0x0_str
00001698 l       .text.rvtest	00000000 I_andi_cg_cr_rs1_imm_edges_rs1val_0x80000001_immval_0x1
0000aee4 l       .data	00000000 I_andi_cg_cr_rs1_imm_edges_rs1val_0x80000001_immval_0x1_str
000016bc l       .text.rvtest	00000000 I_andi_cg_cr_rs1_imm_edges_rs1val_0x80000001_immval_0x2
0000af39 l       .data	00000000 I_andi_cg_cr_rs1_imm_edges_rs1val_0x80000001_immval_0x2_str
000016e0 l       .text.rvtest	00000000 I_andi_cg_cr_rs1_imm_edges_rs1val_0x80000001_immval_0x3
0000af8e l       .data	00000000 I_andi_cg_cr_rs1_imm_edges_rs1val_0x80000001_immval_0x3_str
00001704 l       .text.rvtest	00000000 I_andi_cg_cr_rs1_imm_edges_rs1val_0x80000001_immval_0x4
0000afe3 l       .data	00000000 I_andi_cg_cr_rs1_imm_edges_rs1val_0x80000001_immval_0x4_str
00001728 l       .text.rvtest	00000000 I_andi_cg_cr_rs1_imm_edges_rs1val_0x80000001_immval_0x8
0000b038 l       .data	00000000 I_andi_cg_cr_rs1_imm_edges_rs1val_0x80000001_immval_0x8_str
0000174c l       .text.rvtest	00000000 I_andi_cg_cr_rs1_imm_edges_rs1val_0x80000001_immval_0x10
0000b08d l       .data	00000000 I_andi_cg_cr_rs1_imm_edges_rs1val_0x80000001_immval_0x10_str
00001770 l       .text.rvtest	00000000 I_andi_cg_cr_rs1_imm_edges_rs1val_0x80000001_immval_0x20
0000b0e3 l       .data	00000000 I_andi_cg_cr_rs1_imm_edges_rs1val_0x80000001_immval_0x20_str
00001794 l       .text.rvtest	00000000 I_andi_cg_cr_rs1_imm_edges_rs1val_0x80000001_immval_0x40
0000b139 l       .data	00000000 I_andi_cg_cr_rs1_imm_edges_rs1val_0x80000001_immval_0x40_str
000017b8 l       .text.rvtest	00000000 I_andi_cg_cr_rs1_imm_edges_rs1val_0x80000001_immval_0x80
0000b18f l       .data	00000000 I_andi_cg_cr_rs1_imm_edges_rs1val_0x80000001_immval_0x80_str
000017dc l       .text.rvtest	00000000 I_andi_cg_cr_rs1_imm_edges_rs1val_0x80000001_immval_0x100
0000b1e5 l       .data	00000000 I_andi_cg_cr_rs1_imm_edges_rs1val_0x80000001_immval_0x100_str
00001800 l       .text.rvtest	00000000 I_andi_cg_cr_rs1_imm_edges_rs1val_0x80000001_immval_0x200
0000b23c l       .data	00000000 I_andi_cg_cr_rs1_imm_edges_rs1val_0x80000001_immval_0x200_str
00001824 l       .text.rvtest	00000000 I_andi_cg_cr_rs1_imm_edges_rs1val_0x80000001_immval_0x3ff
0000b293 l       .data	00000000 I_andi_cg_cr_rs1_imm_edges_rs1val_0x80000001_immval_0x3ff_str
00001848 l       .text.rvtest	00000000 I_andi_cg_cr_rs1_imm_edges_rs1val_0x80000001_immval_0x400
0000b2ea l       .data	00000000 I_andi_cg_cr_rs1_imm_edges_rs1val_0x80000001_immval_0x400_str
0000186c l       .text.rvtest	00000000 I_andi_cg_cr_rs1_imm_edges_rs1val_0x80000001_immval_0x703
0000b341 l       .data	00000000 I_andi_cg_cr_rs1_imm_edges_rs1val_0x80000001_immval_0x703_str
00001890 l       .text.rvtest	00000000 I_andi_cg_cr_rs1_imm_edges_rs1val_0x80000001_immval_0x7ff
0000b398 l       .data	00000000 I_andi_cg_cr_rs1_imm_edges_rs1val_0x80000001_immval_0x7ff_str
000018b4 l       .text.rvtest	00000000 I_andi_cg_cr_rs1_imm_edges_rs1val_0x80000001_immval_m0x800
0000b3ef l       .data	00000000 I_andi_cg_cr_rs1_imm_edges_rs1val_0x80000001_immval_m0x800_str
000018d8 l       .text.rvtest	00000000 I_andi_cg_cr_rs1_imm_edges_rs1val_0x80000001_immval_m0x7ff
0000b447 l       .data	00000000 I_andi_cg_cr_rs1_imm_edges_rs1val_0x80000001_immval_m0x7ff_str
000018fc l       .text.rvtest	00000000 I_andi_cg_cr_rs1_imm_edges_rs1val_0x80000001_immval_m0x2
0000b49f l       .data	00000000 I_andi_cg_cr_rs1_imm_edges_rs1val_0x80000001_immval_m0x2_str
00001920 l       .text.rvtest	00000000 I_andi_cg_cr_rs1_imm_edges_rs1val_0x80000001_immval_m0x1
0000b4f5 l       .data	00000000 I_andi_cg_cr_rs1_imm_edges_rs1val_0x80000001_immval_m0x1_str
00001944 l       .text.rvtest	00000000 I_andi_cg_cr_rs1_imm_edges_rs1val_0x7fffffff_immval_0x0
0000b54b l       .data	00000000 I_andi_cg_cr_rs1_imm_edges_rs1val_0x7fffffff_immval_0x0_str
00001968 l       .text.rvtest	00000000 I_andi_cg_cr_rs1_imm_edges_rs1val_0x7fffffff_immval_0x1
0000b5a0 l       .data	00000000 I_andi_cg_cr_rs1_imm_edges_rs1val_0x7fffffff_immval_0x1_str
0000198c l       .text.rvtest	00000000 I_andi_cg_cr_rs1_imm_edges_rs1val_0x7fffffff_immval_0x2
0000b5f5 l       .data	00000000 I_andi_cg_cr_rs1_imm_edges_rs1val_0x7fffffff_immval_0x2_str
000019b0 l       .text.rvtest	00000000 I_andi_cg_cr_rs1_imm_edges_rs1val_0x7fffffff_immval_0x3
0000b64a l       .data	00000000 I_andi_cg_cr_rs1_imm_edges_rs1val_0x7fffffff_immval_0x3_str
000019d4 l       .text.rvtest	00000000 I_andi_cg_cr_rs1_imm_edges_rs1val_0x7fffffff_immval_0x4
0000b69f l       .data	00000000 I_andi_cg_cr_rs1_imm_edges_rs1val_0x7fffffff_immval_0x4_str
000019f8 l       .text.rvtest	00000000 I_andi_cg_cr_rs1_imm_edges_rs1val_0x7fffffff_immval_0x8
0000b6f4 l       .data	00000000 I_andi_cg_cr_rs1_imm_edges_rs1val_0x7fffffff_immval_0x8_str
00001a1c l       .text.rvtest	00000000 I_andi_cg_cr_rs1_imm_edges_rs1val_0x7fffffff_immval_0x10
0000b749 l       .data	00000000 I_andi_cg_cr_rs1_imm_edges_rs1val_0x7fffffff_immval_0x10_str
00001a40 l       .text.rvtest	00000000 I_andi_cg_cr_rs1_imm_edges_rs1val_0x7fffffff_immval_0x20
0000b79f l       .data	00000000 I_andi_cg_cr_rs1_imm_edges_rs1val_0x7fffffff_immval_0x20_str
00001a64 l       .text.rvtest	00000000 I_andi_cg_cr_rs1_imm_edges_rs1val_0x7fffffff_immval_0x40
0000b7f5 l       .data	00000000 I_andi_cg_cr_rs1_imm_edges_rs1val_0x7fffffff_immval_0x40_str
00001a88 l       .text.rvtest	00000000 I_andi_cg_cr_rs1_imm_edges_rs1val_0x7fffffff_immval_0x80
0000b84b l       .data	00000000 I_andi_cg_cr_rs1_imm_edges_rs1val_0x7fffffff_immval_0x80_str
00001aac l       .text.rvtest	00000000 I_andi_cg_cr_rs1_imm_edges_rs1val_0x7fffffff_immval_0x100
0000b8a1 l       .data	00000000 I_andi_cg_cr_rs1_imm_edges_rs1val_0x7fffffff_immval_0x100_str
00001ad0 l       .text.rvtest	00000000 I_andi_cg_cr_rs1_imm_edges_rs1val_0x7fffffff_immval_0x200
0000b8f8 l       .data	00000000 I_andi_cg_cr_rs1_imm_edges_rs1val_0x7fffffff_immval_0x200_str
00001af4 l       .text.rvtest	00000000 I_andi_cg_cr_rs1_imm_edges_rs1val_0x7fffffff_immval_0x3ff
0000b94f l       .data	00000000 I_andi_cg_cr_rs1_imm_edges_rs1val_0x7fffffff_immval_0x3ff_str
00001b18 l       .text.rvtest	00000000 I_andi_cg_cr_rs1_imm_edges_rs1val_0x7fffffff_immval_0x400
0000b9a6 l       .data	00000000 I_andi_cg_cr_rs1_imm_edges_rs1val_0x7fffffff_immval_0x400_str
00001b3c l       .text.rvtest	00000000 I_andi_cg_cr_rs1_imm_edges_rs1val_0x7fffffff_immval_0x703
0000b9fd l       .data	00000000 I_andi_cg_cr_rs1_imm_edges_rs1val_0x7fffffff_immval_0x703_str
00001b60 l       .text.rvtest	00000000 I_andi_cg_cr_rs1_imm_edges_rs1val_0x7fffffff_immval_0x7ff
0000ba54 l       .data	00000000 I_andi_cg_cr_rs1_imm_edges_rs1val_0x7fffffff_immval_0x7ff_str
00001b84 l       .text.rvtest	00000000 I_andi_cg_cr_rs1_imm_edges_rs1val_0x7fffffff_immval_m0x800
0000baab l       .data	00000000 I_andi_cg_cr_rs1_imm_edges_rs1val_0x7fffffff_immval_m0x800_str
00001ba8 l       .text.rvtest	00000000 I_andi_cg_cr_rs1_imm_edges_rs1val_0x7fffffff_immval_m0x7ff
0000bb03 l       .data	00000000 I_andi_cg_cr_rs1_imm_edges_rs1val_0x7fffffff_immval_m0x7ff_str
00001bcc l       .text.rvtest	00000000 I_andi_cg_cr_rs1_imm_edges_rs1val_0x7fffffff_immval_m0x2
0000bb5b l       .data	00000000 I_andi_cg_cr_rs1_imm_edges_rs1val_0x7fffffff_immval_m0x2_str
00001bf0 l       .text.rvtest	00000000 I_andi_cg_cr_rs1_imm_edges_rs1val_0x7fffffff_immval_m0x1
0000bbb1 l       .data	00000000 I_andi_cg_cr_rs1_imm_edges_rs1val_0x7fffffff_immval_m0x1_str
00001c14 l       .text.rvtest	00000000 I_andi_cg_cr_rs1_imm_edges_rs1val_0x7ffffffe_immval_0x0
0000bc07 l       .data	00000000 I_andi_cg_cr_rs1_imm_edges_rs1val_0x7ffffffe_immval_0x0_str
00001c38 l       .text.rvtest	00000000 I_andi_cg_cr_rs1_imm_edges_rs1val_0x7ffffffe_immval_0x1
0000bc5c l       .data	00000000 I_andi_cg_cr_rs1_imm_edges_rs1val_0x7ffffffe_immval_0x1_str
00001c5c l       .text.rvtest	00000000 I_andi_cg_cr_rs1_imm_edges_rs1val_0x7ffffffe_immval_0x2
0000bcb1 l       .data	00000000 I_andi_cg_cr_rs1_imm_edges_rs1val_0x7ffffffe_immval_0x2_str
00001c80 l       .text.rvtest	00000000 I_andi_cg_cr_rs1_imm_edges_rs1val_0x7ffffffe_immval_0x3
0000bd06 l       .data	00000000 I_andi_cg_cr_rs1_imm_edges_rs1val_0x7ffffffe_immval_0x3_str
00001ca4 l       .text.rvtest	00000000 I_andi_cg_cr_rs1_imm_edges_rs1val_0x7ffffffe_immval_0x4
0000bd5b l       .data	00000000 I_andi_cg_cr_rs1_imm_edges_rs1val_0x7ffffffe_immval_0x4_str
00001cc8 l       .text.rvtest	00000000 I_andi_cg_cr_rs1_imm_edges_rs1val_0x7ffffffe_immval_0x8
0000bdb0 l       .data	00000000 I_andi_cg_cr_rs1_imm_edges_rs1val_0x7ffffffe_immval_0x8_str
00001cec l       .text.rvtest	00000000 I_andi_cg_cr_rs1_imm_edges_rs1val_0x7ffffffe_immval_0x10
0000be05 l       .data	00000000 I_andi_cg_cr_rs1_imm_edges_rs1val_0x7ffffffe_immval_0x10_str
00001d10 l       .text.rvtest	00000000 I_andi_cg_cr_rs1_imm_edges_rs1val_0x7ffffffe_immval_0x20
0000be5b l       .data	00000000 I_andi_cg_cr_rs1_imm_edges_rs1val_0x7ffffffe_immval_0x20_str
00001d34 l       .text.rvtest	00000000 I_andi_cg_cr_rs1_imm_edges_rs1val_0x7ffffffe_immval_0x40
0000beb1 l       .data	00000000 I_andi_cg_cr_rs1_imm_edges_rs1val_0x7ffffffe_immval_0x40_str
00001d58 l       .text.rvtest	00000000 I_andi_cg_cr_rs1_imm_edges_rs1val_0x7ffffffe_immval_0x80
0000bf07 l       .data	00000000 I_andi_cg_cr_rs1_imm_edges_rs1val_0x7ffffffe_immval_0x80_str
00001d7c l       .text.rvtest	00000000 I_andi_cg_cr_rs1_imm_edges_rs1val_0x7ffffffe_immval_0x100
0000bf5d l       .data	00000000 I_andi_cg_cr_rs1_imm_edges_rs1val_0x7ffffffe_immval_0x100_str
00001da0 l       .text.rvtest	00000000 I_andi_cg_cr_rs1_imm_edges_rs1val_0x7ffffffe_immval_0x200
0000bfb4 l       .data	00000000 I_andi_cg_cr_rs1_imm_edges_rs1val_0x7ffffffe_immval_0x200_str
00001dc4 l       .text.rvtest	00000000 I_andi_cg_cr_rs1_imm_edges_rs1val_0x7ffffffe_immval_0x3ff
0000c00b l       .data	00000000 I_andi_cg_cr_rs1_imm_edges_rs1val_0x7ffffffe_immval_0x3ff_str
00001de8 l       .text.rvtest	00000000 I_andi_cg_cr_rs1_imm_edges_rs1val_0x7ffffffe_immval_0x400
0000c062 l       .data	00000000 I_andi_cg_cr_rs1_imm_edges_rs1val_0x7ffffffe_immval_0x400_str
00001e0c l       .text.rvtest	00000000 I_andi_cg_cr_rs1_imm_edges_rs1val_0x7ffffffe_immval_0x703
0000c0b9 l       .data	00000000 I_andi_cg_cr_rs1_imm_edges_rs1val_0x7ffffffe_immval_0x703_str
00001e30 l       .text.rvtest	00000000 I_andi_cg_cr_rs1_imm_edges_rs1val_0x7ffffffe_immval_0x7ff
0000c110 l       .data	00000000 I_andi_cg_cr_rs1_imm_edges_rs1val_0x7ffffffe_immval_0x7ff_str
00001e54 l       .text.rvtest	00000000 I_andi_cg_cr_rs1_imm_edges_rs1val_0x7ffffffe_immval_m0x800
0000c167 l       .data	00000000 I_andi_cg_cr_rs1_imm_edges_rs1val_0x7ffffffe_immval_m0x800_str
00001e78 l       .text.rvtest	00000000 I_andi_cg_cr_rs1_imm_edges_rs1val_0x7ffffffe_immval_m0x7ff
0000c1bf l       .data	00000000 I_andi_cg_cr_rs1_imm_edges_rs1val_0x7ffffffe_immval_m0x7ff_str
00001e9c l       .text.rvtest	00000000 I_andi_cg_cr_rs1_imm_edges_rs1val_0x7ffffffe_immval_m0x2
0000c217 l       .data	00000000 I_andi_cg_cr_rs1_imm_edges_rs1val_0x7ffffffe_immval_m0x2_str
00001ec0 l       .text.rvtest	00000000 I_andi_cg_cr_rs1_imm_edges_rs1val_0x7ffffffe_immval_m0x1
0000c26d l       .data	00000000 I_andi_cg_cr_rs1_imm_edges_rs1val_0x7ffffffe_immval_m0x1_str
00001ee4 l       .text.rvtest	00000000 I_andi_cg_cr_rs1_imm_edges_rs1val_0xffffffff_immval_0x0
0000c2c3 l       .data	00000000 I_andi_cg_cr_rs1_imm_edges_rs1val_0xffffffff_immval_0x0_str
00001f08 l       .text.rvtest	00000000 I_andi_cg_cr_rs1_imm_edges_rs1val_0xffffffff_immval_0x1
0000c318 l       .data	00000000 I_andi_cg_cr_rs1_imm_edges_rs1val_0xffffffff_immval_0x1_str
00001f2c l       .text.rvtest	00000000 I_andi_cg_cr_rs1_imm_edges_rs1val_0xffffffff_immval_0x2
0000c36d l       .data	00000000 I_andi_cg_cr_rs1_imm_edges_rs1val_0xffffffff_immval_0x2_str
00001f50 l       .text.rvtest	00000000 I_andi_cg_cr_rs1_imm_edges_rs1val_0xffffffff_immval_0x3
0000c3c2 l       .data	00000000 I_andi_cg_cr_rs1_imm_edges_rs1val_0xffffffff_immval_0x3_str
00001f74 l       .text.rvtest	00000000 I_andi_cg_cr_rs1_imm_edges_rs1val_0xffffffff_immval_0x4
0000c417 l       .data	00000000 I_andi_cg_cr_rs1_imm_edges_rs1val_0xffffffff_immval_0x4_str
00001f98 l       .text.rvtest	00000000 I_andi_cg_cr_rs1_imm_edges_rs1val_0xffffffff_immval_0x8
0000c46c l       .data	00000000 I_andi_cg_cr_rs1_imm_edges_rs1val_0xffffffff_immval_0x8_str
00001fbc l       .text.rvtest	00000000 I_andi_cg_cr_rs1_imm_edges_rs1val_0xffffffff_immval_0x10
0000c4c1 l       .data	00000000 I_andi_cg_cr_rs1_imm_edges_rs1val_0xffffffff_immval_0x10_str
00001fe0 l       .text.rvtest	00000000 I_andi_cg_cr_rs1_imm_edges_rs1val_0xffffffff_immval_0x20
0000c517 l       .data	00000000 I_andi_cg_cr_rs1_imm_edges_rs1val_0xffffffff_immval_0x20_str
00002004 l       .text.rvtest	00000000 I_andi_cg_cr_rs1_imm_edges_rs1val_0xffffffff_immval_0x40
0000c56d l       .data	00000000 I_andi_cg_cr_rs1_imm_edges_rs1val_0xffffffff_immval_0x40_str
00002028 l       .text.rvtest	00000000 I_andi_cg_cr_rs1_imm_edges_rs1val_0xffffffff_immval_0x80
0000c5c3 l       .data	00000000 I_andi_cg_cr_rs1_imm_edges_rs1val_0xffffffff_immval_0x80_str
0000204c l       .text.rvtest	00000000 I_andi_cg_cr_rs1_imm_edges_rs1val_0xffffffff_immval_0x100
0000c619 l       .data	00000000 I_andi_cg_cr_rs1_imm_edges_rs1val_0xffffffff_immval_0x100_str
00002070 l       .text.rvtest	00000000 I_andi_cg_cr_rs1_imm_edges_rs1val_0xffffffff_immval_0x200
0000c670 l       .data	00000000 I_andi_cg_cr_rs1_imm_edges_rs1val_0xffffffff_immval_0x200_str
00002094 l       .text.rvtest	00000000 I_andi_cg_cr_rs1_imm_edges_rs1val_0xffffffff_immval_0x3ff
0000c6c7 l       .data	00000000 I_andi_cg_cr_rs1_imm_edges_rs1val_0xffffffff_immval_0x3ff_str
000020b8 l       .text.rvtest	00000000 I_andi_cg_cr_rs1_imm_edges_rs1val_0xffffffff_immval_0x400
0000c71e l       .data	00000000 I_andi_cg_cr_rs1_imm_edges_rs1val_0xffffffff_immval_0x400_str
000020dc l       .text.rvtest	00000000 I_andi_cg_cr_rs1_imm_edges_rs1val_0xffffffff_immval_0x703
0000c775 l       .data	00000000 I_andi_cg_cr_rs1_imm_edges_rs1val_0xffffffff_immval_0x703_str
00002100 l       .text.rvtest	00000000 I_andi_cg_cr_rs1_imm_edges_rs1val_0xffffffff_immval_0x7ff
0000c7cc l       .data	00000000 I_andi_cg_cr_rs1_imm_edges_rs1val_0xffffffff_immval_0x7ff_str
00002124 l       .text.rvtest	00000000 I_andi_cg_cr_rs1_imm_edges_rs1val_0xffffffff_immval_m0x800
0000c823 l       .data	00000000 I_andi_cg_cr_rs1_imm_edges_rs1val_0xffffffff_immval_m0x800_str
00002148 l       .text.rvtest	00000000 I_andi_cg_cr_rs1_imm_edges_rs1val_0xffffffff_immval_m0x7ff
0000c87b l       .data	00000000 I_andi_cg_cr_rs1_imm_edges_rs1val_0xffffffff_immval_m0x7ff_str
0000216c l       .text.rvtest	00000000 I_andi_cg_cr_rs1_imm_edges_rs1val_0xffffffff_immval_m0x2
0000c8d3 l       .data	00000000 I_andi_cg_cr_rs1_imm_edges_rs1val_0xffffffff_immval_m0x2_str
00002190 l       .text.rvtest	00000000 I_andi_cg_cr_rs1_imm_edges_rs1val_0xffffffff_immval_m0x1
0000c929 l       .data	00000000 I_andi_cg_cr_rs1_imm_edges_rs1val_0xffffffff_immval_m0x1_str
000021b4 l       .text.rvtest	00000000 I_andi_cg_cr_rs1_imm_edges_rs1val_0xfffffffe_immval_0x0
0000c97f l       .data	00000000 I_andi_cg_cr_rs1_imm_edges_rs1val_0xfffffffe_immval_0x0_str
000021d8 l       .text.rvtest	00000000 I_andi_cg_cr_rs1_imm_edges_rs1val_0xfffffffe_immval_0x1
0000c9d4 l       .data	00000000 I_andi_cg_cr_rs1_imm_edges_rs1val_0xfffffffe_immval_0x1_str
000021fc l       .text.rvtest	00000000 I_andi_cg_cr_rs1_imm_edges_rs1val_0xfffffffe_immval_0x2
0000ca29 l       .data	00000000 I_andi_cg_cr_rs1_imm_edges_rs1val_0xfffffffe_immval_0x2_str
00002220 l       .text.rvtest	00000000 I_andi_cg_cr_rs1_imm_edges_rs1val_0xfffffffe_immval_0x3
0000ca7e l       .data	00000000 I_andi_cg_cr_rs1_imm_edges_rs1val_0xfffffffe_immval_0x3_str
00002244 l       .text.rvtest	00000000 I_andi_cg_cr_rs1_imm_edges_rs1val_0xfffffffe_immval_0x4
0000cad3 l       .data	00000000 I_andi_cg_cr_rs1_imm_edges_rs1val_0xfffffffe_immval_0x4_str
00002268 l       .text.rvtest	00000000 I_andi_cg_cr_rs1_imm_edges_rs1val_0xfffffffe_immval_0x8
0000cb28 l       .data	00000000 I_andi_cg_cr_rs1_imm_edges_rs1val_0xfffffffe_immval_0x8_str
0000228c l       .text.rvtest	00000000 I_andi_cg_cr_rs1_imm_edges_rs1val_0xfffffffe_immval_0x10
0000cb7d l       .data	00000000 I_andi_cg_cr_rs1_imm_edges_rs1val_0xfffffffe_immval_0x10_str
000022b0 l       .text.rvtest	00000000 I_andi_cg_cr_rs1_imm_edges_rs1val_0xfffffffe_immval_0x20
0000cbd3 l       .data	00000000 I_andi_cg_cr_rs1_imm_edges_rs1val_0xfffffffe_immval_0x20_str
000022d4 l       .text.rvtest	00000000 I_andi_cg_cr_rs1_imm_edges_rs1val_0xfffffffe_immval_0x40
0000cc29 l       .data	00000000 I_andi_cg_cr_rs1_imm_edges_rs1val_0xfffffffe_immval_0x40_str
000022f8 l       .text.rvtest	00000000 I_andi_cg_cr_rs1_imm_edges_rs1val_0xfffffffe_immval_0x80
0000cc7f l       .data	00000000 I_andi_cg_cr_rs1_imm_edges_rs1val_0xfffffffe_immval_0x80_str
0000231c l       .text.rvtest	00000000 I_andi_cg_cr_rs1_imm_edges_rs1val_0xfffffffe_immval_0x100
0000ccd5 l       .data	00000000 I_andi_cg_cr_rs1_imm_edges_rs1val_0xfffffffe_immval_0x100_str
00002340 l       .text.rvtest	00000000 I_andi_cg_cr_rs1_imm_edges_rs1val_0xfffffffe_immval_0x200
0000cd2c l       .data	00000000 I_andi_cg_cr_rs1_imm_edges_rs1val_0xfffffffe_immval_0x200_str
00002364 l       .text.rvtest	00000000 I_andi_cg_cr_rs1_imm_edges_rs1val_0xfffffffe_immval_0x3ff
0000cd83 l       .data	00000000 I_andi_cg_cr_rs1_imm_edges_rs1val_0xfffffffe_immval_0x3ff_str
00002388 l       .text.rvtest	00000000 I_andi_cg_cr_rs1_imm_edges_rs1val_0xfffffffe_immval_0x400
0000cdda l       .data	00000000 I_andi_cg_cr_rs1_imm_edges_rs1val_0xfffffffe_immval_0x400_str
000023ac l       .text.rvtest	00000000 I_andi_cg_cr_rs1_imm_edges_rs1val_0xfffffffe_immval_0x703
0000ce31 l       .data	00000000 I_andi_cg_cr_rs1_imm_edges_rs1val_0xfffffffe_immval_0x703_str
000023d0 l       .text.rvtest	00000000 I_andi_cg_cr_rs1_imm_edges_rs1val_0xfffffffe_immval_0x7ff
0000ce88 l       .data	00000000 I_andi_cg_cr_rs1_imm_edges_rs1val_0xfffffffe_immval_0x7ff_str
000023f4 l       .text.rvtest	00000000 I_andi_cg_cr_rs1_imm_edges_rs1val_0xfffffffe_immval_m0x800
0000cedf l       .data	00000000 I_andi_cg_cr_rs1_imm_edges_rs1val_0xfffffffe_immval_m0x800_str
00002418 l       .text.rvtest	00000000 I_andi_cg_cr_rs1_imm_edges_rs1val_0xfffffffe_immval_m0x7ff
0000cf37 l       .data	00000000 I_andi_cg_cr_rs1_imm_edges_rs1val_0xfffffffe_immval_m0x7ff_str
0000243c l       .text.rvtest	00000000 I_andi_cg_cr_rs1_imm_edges_rs1val_0xfffffffe_immval_m0x2
0000cf8f l       .data	00000000 I_andi_cg_cr_rs1_imm_edges_rs1val_0xfffffffe_immval_m0x2_str
00002460 l       .text.rvtest	00000000 I_andi_cg_cr_rs1_imm_edges_rs1val_0xfffffffe_immval_m0x1
0000cfe5 l       .data	00000000 I_andi_cg_cr_rs1_imm_edges_rs1val_0xfffffffe_immval_m0x1_str
00002484 l       .text.rvtest	00000000 I_andi_cg_cr_rs1_imm_edges_rs1val_0x5bbc8872_immval_0x0
0000d03b l       .data	00000000 I_andi_cg_cr_rs1_imm_edges_rs1val_0x5bbc8872_immval_0x0_str
000024a8 l       .text.rvtest	00000000 I_andi_cg_cr_rs1_imm_edges_rs1val_0x5bbc8872_immval_0x1
0000d090 l       .data	00000000 I_andi_cg_cr_rs1_imm_edges_rs1val_0x5bbc8872_immval_0x1_str
000024cc l       .text.rvtest	00000000 I_andi_cg_cr_rs1_imm_edges_rs1val_0x5bbc8872_immval_0x2
0000d0e5 l       .data	00000000 I_andi_cg_cr_rs1_imm_edges_rs1val_0x5bbc8872_immval_0x2_str
000024f0 l       .text.rvtest	00000000 I_andi_cg_cr_rs1_imm_edges_rs1val_0x5bbc8872_immval_0x3
0000d13a l       .data	00000000 I_andi_cg_cr_rs1_imm_edges_rs1val_0x5bbc8872_immval_0x3_str
00002514 l       .text.rvtest	00000000 I_andi_cg_cr_rs1_imm_edges_rs1val_0x5bbc8872_immval_0x4
0000d18f l       .data	00000000 I_andi_cg_cr_rs1_imm_edges_rs1val_0x5bbc8872_immval_0x4_str
00002538 l       .text.rvtest	00000000 I_andi_cg_cr_rs1_imm_edges_rs1val_0x5bbc8872_immval_0x8
0000d1e4 l       .data	00000000 I_andi_cg_cr_rs1_imm_edges_rs1val_0x5bbc8872_immval_0x8_str
0000255c l       .text.rvtest	00000000 I_andi_cg_cr_rs1_imm_edges_rs1val_0x5bbc8872_immval_0x10
0000d239 l       .data	00000000 I_andi_cg_cr_rs1_imm_edges_rs1val_0x5bbc8872_immval_0x10_str
00002580 l       .text.rvtest	00000000 I_andi_cg_cr_rs1_imm_edges_rs1val_0x5bbc8872_immval_0x20
0000d28f l       .data	00000000 I_andi_cg_cr_rs1_imm_edges_rs1val_0x5bbc8872_immval_0x20_str
000025a4 l       .text.rvtest	00000000 I_andi_cg_cr_rs1_imm_edges_rs1val_0x5bbc8872_immval_0x40
0000d2e5 l       .data	00000000 I_andi_cg_cr_rs1_imm_edges_rs1val_0x5bbc8872_immval_0x40_str
000025c8 l       .text.rvtest	00000000 I_andi_cg_cr_rs1_imm_edges_rs1val_0x5bbc8872_immval_0x80
0000d33b l       .data	00000000 I_andi_cg_cr_rs1_imm_edges_rs1val_0x5bbc8872_immval_0x80_str
000025ec l       .text.rvtest	00000000 I_andi_cg_cr_rs1_imm_edges_rs1val_0x5bbc8872_immval_0x100
0000d391 l       .data	00000000 I_andi_cg_cr_rs1_imm_edges_rs1val_0x5bbc8872_immval_0x100_str
00002610 l       .text.rvtest	00000000 I_andi_cg_cr_rs1_imm_edges_rs1val_0x5bbc8872_immval_0x200
0000d3e8 l       .data	00000000 I_andi_cg_cr_rs1_imm_edges_rs1val_0x5bbc8872_immval_0x200_str
00002634 l       .text.rvtest	00000000 I_andi_cg_cr_rs1_imm_edges_rs1val_0x5bbc8872_immval_0x3ff
0000d43f l       .data	00000000 I_andi_cg_cr_rs1_imm_edges_rs1val_0x5bbc8872_immval_0x3ff_str
00002658 l       .text.rvtest	00000000 I_andi_cg_cr_rs1_imm_edges_rs1val_0x5bbc8872_immval_0x400
0000d496 l       .data	00000000 I_andi_cg_cr_rs1_imm_edges_rs1val_0x5bbc8872_immval_0x400_str
0000267c l       .text.rvtest	00000000 I_andi_cg_cr_rs1_imm_edges_rs1val_0x5bbc8872_immval_0x703
0000d4ed l       .data	00000000 I_andi_cg_cr_rs1_imm_edges_rs1val_0x5bbc8872_immval_0x703_str
000026a0 l       .text.rvtest	00000000 I_andi_cg_cr_rs1_imm_edges_rs1val_0x5bbc8872_immval_0x7ff
0000d544 l       .data	00000000 I_andi_cg_cr_rs1_imm_edges_rs1val_0x5bbc8872_immval_0x7ff_str
000026c4 l       .text.rvtest	00000000 I_andi_cg_cr_rs1_imm_edges_rs1val_0x5bbc8872_immval_m0x800
0000d59b l       .data	00000000 I_andi_cg_cr_rs1_imm_edges_rs1val_0x5bbc8872_immval_m0x800_str
000026e8 l       .text.rvtest	00000000 I_andi_cg_cr_rs1_imm_edges_rs1val_0x5bbc8872_immval_m0x7ff
0000d5f3 l       .data	00000000 I_andi_cg_cr_rs1_imm_edges_rs1val_0x5bbc8872_immval_m0x7ff_str
0000270c l       .text.rvtest	00000000 I_andi_cg_cr_rs1_imm_edges_rs1val_0x5bbc8872_immval_m0x2
0000d64b l       .data	00000000 I_andi_cg_cr_rs1_imm_edges_rs1val_0x5bbc8872_immval_m0x2_str
00002730 l       .text.rvtest	00000000 I_andi_cg_cr_rs1_imm_edges_rs1val_0x5bbc8872_immval_m0x1
0000d6a1 l       .data	00000000 I_andi_cg_cr_rs1_imm_edges_rs1val_0x5bbc8872_immval_m0x1_str
00002754 l       .text.rvtest	00000000 I_andi_cg_cr_rs1_imm_edges_rs1val_0xaaaaaaaa_immval_0x0
0000d6f7 l       .data	00000000 I_andi_cg_cr_rs1_imm_edges_rs1val_0xaaaaaaaa_immval_0x0_str
00002778 l       .text.rvtest	00000000 I_andi_cg_cr_rs1_imm_edges_rs1val_0xaaaaaaaa_immval_0x1
0000d74c l       .data	00000000 I_andi_cg_cr_rs1_imm_edges_rs1val_0xaaaaaaaa_immval_0x1_str
0000279c l       .text.rvtest	00000000 I_andi_cg_cr_rs1_imm_edges_rs1val_0xaaaaaaaa_immval_0x2
0000d7a1 l       .data	00000000 I_andi_cg_cr_rs1_imm_edges_rs1val_0xaaaaaaaa_immval_0x2_str
000027c0 l       .text.rvtest	00000000 I_andi_cg_cr_rs1_imm_edges_rs1val_0xaaaaaaaa_immval_0x3
0000d7f6 l       .data	00000000 I_andi_cg_cr_rs1_imm_edges_rs1val_0xaaaaaaaa_immval_0x3_str
000027e4 l       .text.rvtest	00000000 I_andi_cg_cr_rs1_imm_edges_rs1val_0xaaaaaaaa_immval_0x4
0000d84b l       .data	00000000 I_andi_cg_cr_rs1_imm_edges_rs1val_0xaaaaaaaa_immval_0x4_str
00002808 l       .text.rvtest	00000000 I_andi_cg_cr_rs1_imm_edges_rs1val_0xaaaaaaaa_immval_0x8
0000d8a0 l       .data	00000000 I_andi_cg_cr_rs1_imm_edges_rs1val_0xaaaaaaaa_immval_0x8_str
0000282c l       .text.rvtest	00000000 I_andi_cg_cr_rs1_imm_edges_rs1val_0xaaaaaaaa_immval_0x10
0000d8f5 l       .data	00000000 I_andi_cg_cr_rs1_imm_edges_rs1val_0xaaaaaaaa_immval_0x10_str
00002850 l       .text.rvtest	00000000 I_andi_cg_cr_rs1_imm_edges_rs1val_0xaaaaaaaa_immval_0x20
0000d94b l       .data	00000000 I_andi_cg_cr_rs1_imm_edges_rs1val_0xaaaaaaaa_immval_0x20_str
00002874 l       .text.rvtest	00000000 I_andi_cg_cr_rs1_imm_edges_rs1val_0xaaaaaaaa_immval_0x40
0000d9a1 l       .data	00000000 I_andi_cg_cr_rs1_imm_edges_rs1val_0xaaaaaaaa_immval_0x40_str
00002898 l       .text.rvtest	00000000 I_andi_cg_cr_rs1_imm_edges_rs1val_0xaaaaaaaa_immval_0x80
0000d9f7 l       .data	00000000 I_andi_cg_cr_rs1_imm_edges_rs1val_0xaaaaaaaa_immval_0x80_str
000028bc l       .text.rvtest	00000000 I_andi_cg_cr_rs1_imm_edges_rs1val_0xaaaaaaaa_immval_0x100
0000da4d l       .data	00000000 I_andi_cg_cr_rs1_imm_edges_rs1val_0xaaaaaaaa_immval_0x100_str
000028e0 l       .text.rvtest	00000000 I_andi_cg_cr_rs1_imm_edges_rs1val_0xaaaaaaaa_immval_0x200
0000daa4 l       .data	00000000 I_andi_cg_cr_rs1_imm_edges_rs1val_0xaaaaaaaa_immval_0x200_str
00002904 l       .text.rvtest	00000000 I_andi_cg_cr_rs1_imm_edges_rs1val_0xaaaaaaaa_immval_0x3ff
0000dafb l       .data	00000000 I_andi_cg_cr_rs1_imm_edges_rs1val_0xaaaaaaaa_immval_0x3ff_str
00002928 l       .text.rvtest	00000000 I_andi_cg_cr_rs1_imm_edges_rs1val_0xaaaaaaaa_immval_0x400
0000db52 l       .data	00000000 I_andi_cg_cr_rs1_imm_edges_rs1val_0xaaaaaaaa_immval_0x400_str
0000294c l       .text.rvtest	00000000 I_andi_cg_cr_rs1_imm_edges_rs1val_0xaaaaaaaa_immval_0x703
0000dba9 l       .data	00000000 I_andi_cg_cr_rs1_imm_edges_rs1val_0xaaaaaaaa_immval_0x703_str
00002970 l       .text.rvtest	00000000 I_andi_cg_cr_rs1_imm_edges_rs1val_0xaaaaaaaa_immval_0x7ff
0000dc00 l       .data	00000000 I_andi_cg_cr_rs1_imm_edges_rs1val_0xaaaaaaaa_immval_0x7ff_str
00002994 l       .text.rvtest	00000000 I_andi_cg_cr_rs1_imm_edges_rs1val_0xaaaaaaaa_immval_m0x800
0000dc57 l       .data	00000000 I_andi_cg_cr_rs1_imm_edges_rs1val_0xaaaaaaaa_immval_m0x800_str
000029b8 l       .text.rvtest	00000000 I_andi_cg_cr_rs1_imm_edges_rs1val_0xaaaaaaaa_immval_m0x7ff
0000dcaf l       .data	00000000 I_andi_cg_cr_rs1_imm_edges_rs1val_0xaaaaaaaa_immval_m0x7ff_str
000029dc l       .text.rvtest	00000000 I_andi_cg_cr_rs1_imm_edges_rs1val_0xaaaaaaaa_immval_m0x2
0000dd07 l       .data	00000000 I_andi_cg_cr_rs1_imm_edges_rs1val_0xaaaaaaaa_immval_m0x2_str
00002a00 l       .text.rvtest	00000000 I_andi_cg_cr_rs1_imm_edges_rs1val_0xaaaaaaaa_immval_m0x1
0000dd5d l       .data	00000000 I_andi_cg_cr_rs1_imm_edges_rs1val_0xaaaaaaaa_immval_m0x1_str
00002a24 l       .text.rvtest	00000000 I_andi_cg_cr_rs1_imm_edges_rs1val_0x55555555_immval_0x0
0000ddb3 l       .data	00000000 I_andi_cg_cr_rs1_imm_edges_rs1val_0x55555555_immval_0x0_str
00002a48 l       .text.rvtest	00000000 I_andi_cg_cr_rs1_imm_edges_rs1val_0x55555555_immval_0x1
0000de08 l       .data	00000000 I_andi_cg_cr_rs1_imm_edges_rs1val_0x55555555_immval_0x1_str
00002a6c l       .text.rvtest	00000000 I_andi_cg_cr_rs1_imm_edges_rs1val_0x55555555_immval_0x2
0000de5d l       .data	00000000 I_andi_cg_cr_rs1_imm_edges_rs1val_0x55555555_immval_0x2_str
00002a90 l       .text.rvtest	00000000 I_andi_cg_cr_rs1_imm_edges_rs1val_0x55555555_immval_0x3
0000deb2 l       .data	00000000 I_andi_cg_cr_rs1_imm_edges_rs1val_0x55555555_immval_0x3_str
00002ab4 l       .text.rvtest	00000000 I_andi_cg_cr_rs1_imm_edges_rs1val_0x55555555_immval_0x4
0000df07 l       .data	00000000 I_andi_cg_cr_rs1_imm_edges_rs1val_0x55555555_immval_0x4_str
00002ad8 l       .text.rvtest	00000000 I_andi_cg_cr_rs1_imm_edges_rs1val_0x55555555_immval_0x8
0000df5c l       .data	00000000 I_andi_cg_cr_rs1_imm_edges_rs1val_0x55555555_immval_0x8_str
00002afc l       .text.rvtest	00000000 I_andi_cg_cr_rs1_imm_edges_rs1val_0x55555555_immval_0x10
0000dfb1 l       .data	00000000 I_andi_cg_cr_rs1_imm_edges_rs1val_0x55555555_immval_0x10_str
00002b20 l       .text.rvtest	00000000 I_andi_cg_cr_rs1_imm_edges_rs1val_0x55555555_immval_0x20
0000e007 l       .data	00000000 I_andi_cg_cr_rs1_imm_edges_rs1val_0x55555555_immval_0x20_str
00002b44 l       .text.rvtest	00000000 I_andi_cg_cr_rs1_imm_edges_rs1val_0x55555555_immval_0x40
0000e05d l       .data	00000000 I_andi_cg_cr_rs1_imm_edges_rs1val_0x55555555_immval_0x40_str
00002b68 l       .text.rvtest	00000000 I_andi_cg_cr_rs1_imm_edges_rs1val_0x55555555_immval_0x80
0000e0b3 l       .data	00000000 I_andi_cg_cr_rs1_imm_edges_rs1val_0x55555555_immval_0x80_str
00002b8c l       .text.rvtest	00000000 I_andi_cg_cr_rs1_imm_edges_rs1val_0x55555555_immval_0x100
0000e109 l       .data	00000000 I_andi_cg_cr_rs1_imm_edges_rs1val_0x55555555_immval_0x100_str
00002bb0 l       .text.rvtest	00000000 I_andi_cg_cr_rs1_imm_edges_rs1val_0x55555555_immval_0x200
0000e160 l       .data	00000000 I_andi_cg_cr_rs1_imm_edges_rs1val_0x55555555_immval_0x200_str
00002bd4 l       .text.rvtest	00000000 I_andi_cg_cr_rs1_imm_edges_rs1val_0x55555555_immval_0x3ff
0000e1b7 l       .data	00000000 I_andi_cg_cr_rs1_imm_edges_rs1val_0x55555555_immval_0x3ff_str
00002bf8 l       .text.rvtest	00000000 I_andi_cg_cr_rs1_imm_edges_rs1val_0x55555555_immval_0x400
0000e20e l       .data	00000000 I_andi_cg_cr_rs1_imm_edges_rs1val_0x55555555_immval_0x400_str
00002c1c l       .text.rvtest	00000000 I_andi_cg_cr_rs1_imm_edges_rs1val_0x55555555_immval_0x703
0000e265 l       .data	00000000 I_andi_cg_cr_rs1_imm_edges_rs1val_0x55555555_immval_0x703_str
00002c40 l       .text.rvtest	00000000 I_andi_cg_cr_rs1_imm_edges_rs1val_0x55555555_immval_0x7ff
0000e2bc l       .data	00000000 I_andi_cg_cr_rs1_imm_edges_rs1val_0x55555555_immval_0x7ff_str
00002c64 l       .text.rvtest	00000000 I_andi_cg_cr_rs1_imm_edges_rs1val_0x55555555_immval_m0x800
0000e313 l       .data	00000000 I_andi_cg_cr_rs1_imm_edges_rs1val_0x55555555_immval_m0x800_str
00002c88 l       .text.rvtest	00000000 I_andi_cg_cr_rs1_imm_edges_rs1val_0x55555555_immval_m0x7ff
0000e36b l       .data	00000000 I_andi_cg_cr_rs1_imm_edges_rs1val_0x55555555_immval_m0x7ff_str
00002cac l       .text.rvtest	00000000 I_andi_cg_cr_rs1_imm_edges_rs1val_0x55555555_immval_m0x2
0000e3c3 l       .data	00000000 I_andi_cg_cr_rs1_imm_edges_rs1val_0x55555555_immval_m0x2_str
00002cd0 l       .text.rvtest	00000000 I_andi_cg_cr_rs1_imm_edges_rs1val_0x55555555_immval_m0x1
0000e419 l       .data	00000000 I_andi_cg_cr_rs1_imm_edges_rs1val_0x55555555_immval_m0x1_str
00002cf4 l       .text.rvtest	00000000 I_andi_cg_cmp_rd_rs1_b0
0000e46f l       .data	00000000 I_andi_cg_cmp_rd_rs1_b0_str
00002d18 l       .text.rvtest	00000000 I_andi_cg_cmp_rd_rs1_b1
0000e4a3 l       .data	00000000 I_andi_cg_cmp_rd_rs1_b1_str
00002d3c l       .text.rvtest	00000000 I_andi_cg_cmp_rd_rs1_b2
0000e4d7 l       .data	00000000 I_andi_cg_cmp_rd_rs1_b2_str
00002d60 l       .text.rvtest	00000000 I_andi_cg_cmp_rd_rs1_b3
0000e50b l       .data	00000000 I_andi_cg_cmp_rd_rs1_b3_str
00002d8c l       .text.rvtest	00000000 I_andi_cg_cmp_rd_rs1_b4
0000e53f l       .data	00000000 I_andi_cg_cmp_rd_rs1_b4_str
00002db0 l       .text.rvtest	00000000 I_andi_cg_cmp_rd_rs1_b5
0000e573 l       .data	00000000 I_andi_cg_cmp_rd_rs1_b5_str
00002dd4 l       .text.rvtest	00000000 I_andi_cg_cmp_rd_rs1_b6
0000e5a7 l       .data	00000000 I_andi_cg_cmp_rd_rs1_b6_str
00002e00 l       .text.rvtest	00000000 I_andi_cg_cmp_rd_rs1_b7
0000e5db l       .data	00000000 I_andi_cg_cmp_rd_rs1_b7_str
00002e24 l       .text.rvtest	00000000 I_andi_cg_cmp_rd_rs1_b8
0000e60f l       .data	00000000 I_andi_cg_cmp_rd_rs1_b8_str
00002e48 l       .text.rvtest	00000000 I_andi_cg_cmp_rd_rs1_b9
0000e643 l       .data	00000000 I_andi_cg_cmp_rd_rs1_b9_str
00002e70 l       .text.rvtest	00000000 I_andi_cg_cmp_rd_rs1_b10
0000e677 l       .data	00000000 I_andi_cg_cmp_rd_rs1_b10_str
00002e94 l       .text.rvtest	00000000 I_andi_cg_cmp_rd_rs1_b11
0000e6ac l       .data	00000000 I_andi_cg_cmp_rd_rs1_b11_str
00002eb8 l       .text.rvtest	00000000 I_andi_cg_cmp_rd_rs1_b12
0000e6e1 l       .data	00000000 I_andi_cg_cmp_rd_rs1_b12_str
00002ee4 l       .text.rvtest	00000000 I_andi_cg_cmp_rd_rs1_b13
0000e716 l       .data	00000000 I_andi_cg_cmp_rd_rs1_b13_str
00002f08 l       .text.rvtest	00000000 I_andi_cg_cmp_rd_rs1_b14
0000e74b l       .data	00000000 I_andi_cg_cmp_rd_rs1_b14_str
00002f2c l       .text.rvtest	00000000 I_andi_cg_cmp_rd_rs1_b15
0000e780 l       .data	00000000 I_andi_cg_cmp_rd_rs1_b15_str
00002f50 l       .text.rvtest	00000000 I_andi_cg_cmp_rd_rs1_b16
0000e7b5 l       .data	00000000 I_andi_cg_cmp_rd_rs1_b16_str
00002f74 l       .text.rvtest	00000000 I_andi_cg_cmp_rd_rs1_b17
0000e7ea l       .data	00000000 I_andi_cg_cmp_rd_rs1_b17_str
00002f98 l       .text.rvtest	00000000 I_andi_cg_cmp_rd_rs1_b18
0000e81f l       .data	00000000 I_andi_cg_cmp_rd_rs1_b18_str
00002fbc l       .text.rvtest	00000000 I_andi_cg_cmp_rd_rs1_b19
0000e854 l       .data	00000000 I_andi_cg_cmp_rd_rs1_b19_str
00002fe0 l       .text.rvtest	00000000 I_andi_cg_cmp_rd_rs1_b20
0000e889 l       .data	00000000 I_andi_cg_cmp_rd_rs1_b20_str
00003004 l       .text.rvtest	00000000 I_andi_cg_cmp_rd_rs1_b21
0000e8be l       .data	00000000 I_andi_cg_cmp_rd_rs1_b21_str
0000302c l       .text.rvtest	00000000 I_andi_cg_cmp_rd_rs1_b22
0000e8f3 l       .data	00000000 I_andi_cg_cmp_rd_rs1_b22_str
00003054 l       .text.rvtest	00000000 I_andi_cg_cmp_rd_rs1_b23
0000e928 l       .data	00000000 I_andi_cg_cmp_rd_rs1_b23_str
00003078 l       .text.rvtest	00000000 I_andi_cg_cmp_rd_rs1_b24
0000e95d l       .data	00000000 I_andi_cg_cmp_rd_rs1_b24_str
0000309c l       .text.rvtest	00000000 I_andi_cg_cmp_rd_rs1_b25
0000e992 l       .data	00000000 I_andi_cg_cmp_rd_rs1_b25_str
000030c0 l       .text.rvtest	00000000 I_andi_cg_cmp_rd_rs1_b26
0000e9c7 l       .data	00000000 I_andi_cg_cmp_rd_rs1_b26_str
000030e8 l       .text.rvtest	00000000 I_andi_cg_cmp_rd_rs1_b27
0000e9fc l       .data	00000000 I_andi_cg_cmp_rd_rs1_b27_str
0000310c l       .text.rvtest	00000000 I_andi_cg_cmp_rd_rs1_b28
0000ea31 l       .data	00000000 I_andi_cg_cmp_rd_rs1_b28_str
00003130 l       .text.rvtest	00000000 I_andi_cg_cmp_rd_rs1_b29
0000ea66 l       .data	00000000 I_andi_cg_cmp_rd_rs1_b29_str
00003154 l       .text.rvtest	00000000 I_andi_cg_cmp_rd_rs1_b30
0000ea9b l       .data	00000000 I_andi_cg_cmp_rd_rs1_b30_str
00003178 l       .text.rvtest	00000000 I_andi_cg_cmp_rd_rs1_b31
0000ead0 l       .data	00000000 I_andi_cg_cmp_rd_rs1_b31_str
0000319c l       .text.rvtest	00000000 I_andi_cg_cp_imm_edges_0x0
0000eb05 l       .data	00000000 I_andi_cg_cp_imm_edges_0x0_str
000031c0 l       .text.rvtest	00000000 I_andi_cg_cp_imm_edges_0x1
0000eb3c l       .data	00000000 I_andi_cg_cp_imm_edges_0x1_str
000031e4 l       .text.rvtest	00000000 I_andi_cg_cp_imm_edges_0x2
0000eb73 l       .data	00000000 I_andi_cg_cp_imm_edges_0x2_str
00003208 l       .text.rvtest	00000000 I_andi_cg_cp_imm_edges_0x3
0000ebaa l       .data	00000000 I_andi_cg_cp_imm_edges_0x3_str
0000322c l       .text.rvtest	00000000 I_andi_cg_cp_imm_edges_0x4
0000ebe1 l       .data	00000000 I_andi_cg_cp_imm_edges_0x4_str
00003250 l       .text.rvtest	00000000 I_andi_cg_cp_imm_edges_0x8
0000ec18 l       .data	00000000 I_andi_cg_cp_imm_edges_0x8_str
00003274 l       .text.rvtest	00000000 I_andi_cg_cp_imm_edges_0x10
0000ec4f l       .data	00000000 I_andi_cg_cp_imm_edges_0x10_str
00003298 l       .text.rvtest	00000000 I_andi_cg_cp_imm_edges_0x20
0000ec87 l       .data	00000000 I_andi_cg_cp_imm_edges_0x20_str
000032bc l       .text.rvtest	00000000 I_andi_cg_cp_imm_edges_0x40
0000ecbf l       .data	00000000 I_andi_cg_cp_imm_edges_0x40_str
000032e0 l       .text.rvtest	00000000 I_andi_cg_cp_imm_edges_0x80
0000ecf7 l       .data	00000000 I_andi_cg_cp_imm_edges_0x80_str
00003304 l       .text.rvtest	00000000 I_andi_cg_cp_imm_edges_0x100
0000ed2f l       .data	00000000 I_andi_cg_cp_imm_edges_0x100_str
00003328 l       .text.rvtest	00000000 I_andi_cg_cp_imm_edges_0x200
0000ed68 l       .data	00000000 I_andi_cg_cp_imm_edges_0x200_str
0000334c l       .text.rvtest	00000000 I_andi_cg_cp_imm_edges_0x3ff
0000eda1 l       .data	00000000 I_andi_cg_cp_imm_edges_0x3ff_str
00003370 l       .text.rvtest	00000000 I_andi_cg_cp_imm_edges_0x400
0000edda l       .data	00000000 I_andi_cg_cp_imm_edges_0x400_str
00003394 l       .text.rvtest	00000000 I_andi_cg_cp_imm_edges_0x703
0000ee13 l       .data	00000000 I_andi_cg_cp_imm_edges_0x703_str
000033b8 l       .text.rvtest	00000000 I_andi_cg_cp_imm_edges_0x7ff
0000ee4c l       .data	00000000 I_andi_cg_cp_imm_edges_0x7ff_str
000033dc l       .text.rvtest	00000000 I_andi_cg_cp_imm_edges_m0x800
0000ee85 l       .data	00000000 I_andi_cg_cp_imm_edges_m0x800_str
00003400 l       .text.rvtest	00000000 I_andi_cg_cp_imm_edges_m0x7ff
0000eebf l       .data	00000000 I_andi_cg_cp_imm_edges_m0x7ff_str
00003424 l       .text.rvtest	00000000 I_andi_cg_cp_imm_edges_m0x2
0000eef9 l       .data	00000000 I_andi_cg_cp_imm_edges_m0x2_str
00003448 l       .text.rvtest	00000000 I_andi_cg_cp_imm_edges_m0x1
0000ef31 l       .data	00000000 I_andi_cg_cp_imm_edges_m0x1_str
00003468 l       .text.rvtest	00000000 exit_cleanup
0000f5d4 l       .data	00000000 successstr
00020204 l       .text.rvmodel	00000000 rvmodel_io_write_str
00020208 l       .text.rvmodel	00000000 rvmodel_halt_pass
000034b0 l       .text.rvtest	00000000 abort_test
6f5ca309 l       *ABS*	00000000 immx
6f5ca309 l       *ABS*	00000000 absimm
00000000 l       *ABS*	00000000 cry
00000309 l       *ABS*	00000000 imm12
0000ef70 l       .data	00000000 begin_failure_scratch
00003580 l       .text.rvtest	00000000 failedtest_saveregs
00003524 l       .text.rvtest	00000000 failedtest_trap_x7_x9
0000f0e0 l       .data	00000000 saved_mcause
0000f0e8 l       .data	00000000 saved_mtval
0000f0f0 l       .data	00000000 saved_mstatus
000035f0 l       .text.rvtest	00000000 failedtest_saveresults
0000ef70 l       .data	00000000 failure_type
0000366c l       .text.rvtest	00000000 failedtest_saveresults_trap
00003600 l       .text.rvtest	00000000 failedtest_saveresults_int
00003a40 l       .text.rvtest	00000000 failedtest_saveresults_common
0000f0c8 l       .data	00000000 trap_diag_fail_str_ptr
0000f79c l       .data	00000000 trap_sig_offset_mismatch
00003920 l       .text.rvtest	00000000 trap_diag_offset_mismatch
0000f0a0 l       .data	00000000 trap_diag_subtype
0000f800 l       .data	00000000 sv_Mvect_str
000039a0 l       .text.rvtest	00000000 trap_diag_field_identified
0000f902 l       .data	00000000 sv_Mcause_str
0000f9fd l       .data	00000000 sv_Mepc_str
0000faf0 l       .data	00000000 sv_Mtval_str
0000fc63 l       .data	00000000 sv_Mip_str
0000fbe7 l       .data	00000000 sv_Mtval2_str
0000fc25 l       .data	00000000 sv_Mtinst_str
0000f840 l       .data	00000000 sv_Svect_str
0000f940 l       .data	00000000 sv_Scause_str
0000fa39 l       .data	00000000 sv_Sepc_str
0000fb2d l       .data	00000000 sv_Stval_str
0000fc9e l       .data	00000000 sv_Sip_str
0000f880 l       .data	00000000 sv_Hvect_str
0000f97e l       .data	00000000 sv_Hcause_str
0000fa75 l       .data	00000000 sv_Hepc_str
0000fb6a l       .data	00000000 sv_Htval_str
0000fcd9 l       .data	00000000 sv_Hip_str
0000f8c1 l       .data	00000000 sv_Vvect_str
0000f9bd l       .data	00000000 sv_Vcause_str
0000fab2 l       .data	00000000 sv_Vepc_str
0000fba8 l       .data	00000000 sv_Vtval_str
0000fd15 l       .data	00000000 sv_Vip_str
0000fd52 l       .data	00000000 Mclr_Mext_int_str
0000fda1 l       .data	00000000 Mclr_Sext_int_str
0000fe9c l       .data	00000000 Sclr_Sext_int_str
0000ff98 l       .data	00000000 Hclr_Sext_int_str
00003a30 l       .text.rvtest	00000000 trap_diag_generic_report
0000f0b8 l       .data	00000000 trap_diag_actual_offset
0000f0c0 l       .data	00000000 trap_diag_expected_offset
0000f0a4 l       .data	00000000 trap_diag_mode
0000f0a8 l       .data	00000000 trap_diag_actual_value
0000f0b0 l       .data	00000000 trap_diag_expected_value
00003a70 l       .text.rvtest	00000000 failedtest_report
00003a70 l       .text.rvtest	00000000 print_failstr
0000f60b l       .data	00000000 failstr
00003aa8 l       .text.rvtest	00000000 print_testnamestr
0000f69f l       .data	00000000 testnamestr
00003ae8 l       .text.rvtest	00000000 print_failure_test_name_str
0000f090 l       .data	00000000 failure_string_ptr
00003af8 l       .text.rvtest	00000000 print_newline_str
0000f6b1 l       .data	00000000 newlinestr
00003f2c l       .text.rvtest	00000000 failedtest_report_trap_detailed
0000f6b3 l       .data	00000000 inststr
0000f070 l       .data	00000000 failing_instruction
00004e78 l       .text.rvtest	00000000 failedtest_hex_to_str
0000f0f8 l       .data	00000000 ascii_buffer
0000f6c7 l       .data	00000000 addrstr
0000f078 l       .data	00000000 failing_addr
00010144 l       .data	00000000 regstr
00003cd8 l       .text.rvtest	00000000 failedtest_report_not_intreg
0000f074 l       .data	00000000 failing_reg
00004ef4 l       .text.rvtest	00000000 failedtest_dec_to_str
00003db4 l       .text.rvtest	00000000 failedtest_report_print_regstr
00003d2c l       .text.rvtest	00000000 failedtest_report_fpreg
00003d78 l       .text.rvtest	00000000 failedtest_report_vecreg
000101a4 l       .data	00000000 fflagsstr
00003de8 l       .text.rvtest	00000000 failedtest_report_after_reg
00010155 l       .data	00000000 badvalstr
00003e4c l       .text.rvtest	00000000 failedtest_report_badval_not_fp
0000f080 l       .data	00000000 failing_value
00003e5c l       .text.rvtest	00000000 failedtest_report_badval_done
0001016c l       .data	00000000 expvalstr
00003eec l       .text.rvtest	00000000 failedtest_report_expval_not_fp
0000f088 l       .data	00000000 expected_value
00003efc l       .text.rvtest	00000000 failedtest_report_expval_done
00004c24 l       .text.rvtest	00000000 failedtest_report_end
000101d0 l       .data	00000000 trap_diag_header_str
000101fc l       .data	00000000 trap_diag_origstr_label
00004000 l       .text.rvtest	00000000 trap_report_offset_mismatch
00004ab0 l       .text.rvtest	00000000 trap_report_generic
00004374 l       .text.rvtest	00000000 trap_report_field_mismatch
0001020c l       .data	00000000 trap_diag_count_mismatch_str
0001026d l       .data	00000000 trap_diag_expected_offset_str
00010294 l       .data	00000000 trap_diag_actual_offset_str
00004254 l       .text.rvtest	00000000 trap_report_missing_traps
0000413c l       .text.rvtest	00000000 trap_report_extra_traps
000102bb l       .data	00000000 trap_diag_extra_traps_str
00010340 l       .data	00000000 trap_diag_extra_bytes_str
0001036b l       .data	00000000 trap_diag_extra_hint_str
00004c70 l       .text.rvtest	00000000 failedtest_print_csr_context
000102f5 l       .data	00000000 trap_diag_missing_traps_str
00010453 l       .data	00000000 trap_diag_missing_hint_str
0001053a l       .data	00000000 trap_diag_handler_mode_str
00004404 l       .text.rvtest	00000000 trap_mode_m
00004444 l       .text.rvtest	00000000 trap_mode_s
00004484 l       .text.rvtest	00000000 trap_mode_h
000044c4 l       .text.rvtest	00000000 trap_mode_v
00010576 l       .data	00000000 trap_diag_mode_unknown_str
00004500 l       .text.rvtest	00000000 trap_mode_print
00010554 l       .data	00000000 trap_diag_mode_m_str
0001055c l       .data	00000000 trap_diag_mode_s_str
00010564 l       .data	00000000 trap_diag_mode_hs_str
0001056d l       .data	00000000 trap_diag_mode_vs_str
0001057f l       .data	00000000 trap_diag_field_str
000045c4 l       .text.rvtest	00000000 trap_field_vect
00004604 l       .text.rvtest	00000000 trap_field_cause
00004644 l       .text.rvtest	00000000 trap_field_epc
00004684 l       .text.rvtest	00000000 trap_field_tval
000046c4 l       .text.rvtest	00000000 trap_field_ip
00004704 l       .text.rvtest	00000000 trap_field_tval2
00004744 l       .text.rvtest	00000000 trap_field_tinst
00004784 l       .text.rvtest	00000000 trap_field_intid
000106d6 l       .data	00000000 trap_diag_field_unknown_str
000047c0 l       .text.rvtest	00000000 trap_field_print
00010599 l       .data	00000000 trap_diag_field_vect_str
000105ca l       .data	00000000 trap_diag_field_cause_str
000105ea l       .data	00000000 trap_diag_field_epc_str
00010608 l       .data	00000000 trap_diag_field_tval_str
00010627 l       .data	00000000 trap_diag_field_ip_str
0001064f l       .data	00000000 trap_diag_field_tval2_str
0001067b l       .data	00000000 trap_diag_field_tinst_str
000106a7 l       .data	00000000 trap_diag_field_intid_str
000106e5 l       .data	00000000 trap_diag_expected_str
000106fc l       .data	00000000 trap_diag_actual_str
0000495c l       .text.rvtest	00000000 trap_field_not_cause
00010713 l       .data	00000000 trap_diag_expected_cause_name_str
00004b94 l       .text.rvtest	00000000 trap_cause_to_str
0001072a l       .data	00000000 trap_diag_actual_cause_name_str
0000495c l       .text.rvtest	00000000 trap_field_not_epc
000107a0 l       .data	00000000 trap_diag_hint_vect_str
00010876 l       .data	00000000 trap_diag_hint_cause_str
00010969 l       .data	00000000 trap_diag_hint_epc_str
00010a64 l       .data	00000000 trap_diag_hint_tval_str
00010b4b l       .data	00000000 trap_diag_hint_ip_str
00010758 l       .data	00000000 trap_diag_generic_str
0000f0d8 l       .data	00000000 saved_mepc
0000f73b l       .data	00000000 xepcinstrstr
00004bb8 l       .text.rvtest	00000000 trap_cause_interrupt
00004b98 l       .text.rvtest	00000000 trap_cause_exception
00004be4 l       .text.rvtest	00000000 trap_cause_unknown
0000f120 l       .data	00000000 trap_excpt_name_tbl
0000f180 l       .data	00000000 trap_int_name_tbl
0000f5be l       .data	00000000 trap_cause_unknown_str
00010183 l       .data	00000000 endstr
00004c68 l       .text.rvtest	00000000 failedtest_terminate
00020214 l       .text.rvmodel	00000000 rvmodel_halt_fail
0000f0d0 l       .data	00000000 csr_context_ret_addr
0000f75c l       .data	00000000 mepcstr
0000f76c l       .data	00000000 mcausestr
0000f77c l       .data	00000000 mtvalstr
0000f78c l       .data	00000000 mstatusstr
00004eb8 l       .text.rvtest	00000000 failedtest_hex_to_str_loop
00004ed4 l       .text.rvtest	00000000 failedtest_hex_to_str_digit
00004ed8 l       .text.rvtest	00000000 failedtest_hex_to_str_write
00020000 l       .text.rvmodel	00000000 rvtest_boot_to_mmode
00020000 l       .text.rvmodel	00000000 rvtest_init_regs
00010c30 l       .data	00000000 signature_base
000201a0 l       .text.rvmodel	00000000 canary_check
000101ac l       .data	00000000 canary_mismatch
00008000 l       .data	00000000 scratch
0000f120 l       .data	00000000 end_failure_scratch
0000f1c0 l       .data	00000000 trap_excpt_name_0
0000f1e0 l       .data	00000000 trap_excpt_name_1
0000f1fa l       .data	00000000 trap_excpt_name_2
0000f20f l       .data	00000000 trap_excpt_name_3
0000f21b l       .data	00000000 trap_excpt_name_4
0000f234 l       .data	00000000 trap_excpt_name_5
0000f247 l       .data	00000000 trap_excpt_name_6
0000f265 l       .data	00000000 trap_excpt_name_7
0000f27d l       .data	00000000 trap_excpt_name_8
0000f29b l       .data	00000000 trap_excpt_name_9
0000f2b9 l       .data	00000000 trap_excpt_name_10
0000f2d8 l       .data	00000000 trap_excpt_name_11
0000f2f6 l       .data	00000000 trap_excpt_name_12
0000f30e l       .data	00000000 trap_excpt_name_13
0000f31f l       .data	00000000 trap_excpt_name_14
0000f32e l       .data	00000000 trap_excpt_name_15
0000f344 l       .data	00000000 trap_excpt_name_16
0000f351 l       .data	00000000 trap_excpt_name_17
0000f360 l       .data	00000000 trap_excpt_name_18
0000f370 l       .data	00000000 trap_excpt_name_19
0000f380 l       .data	00000000 trap_excpt_name_20
0000f39e l       .data	00000000 trap_excpt_name_21
0000f3b5 l       .data	00000000 trap_excpt_name_22
0000f3ca l       .data	00000000 trap_excpt_name_23
0000f3e6 l       .data	00000000 trap_int_name_0
0000f3fe l       .data	00000000 trap_int_name_1
0000f41d l       .data	00000000 trap_int_name_2
0000f444 l       .data	00000000 trap_int_name_3
0000f460 l       .data	00000000 trap_int_name_4
0000f478 l       .data	00000000 trap_int_name_5
0000f494 l       .data	00000000 trap_int_name_6
0000f4b8 l       .data	00000000 trap_int_name_7
0000f4d1 l       .data	00000000 trap_int_name_8
0000f4e9 l       .data	00000000 trap_int_name_9
0000f508 l       .data	00000000 trap_int_name_10
0000f52f l       .data	00000000 trap_int_name_11
0000f54b l       .data	00000000 trap_int_name_12
0000f570 l       .data	00000000 trap_int_name_13
0000f58c l       .data	00000000 trap_int_name_14
0000f5a5 l       .data	00000000 trap_int_name_15
0000f661 l       .data	00000000 abortstr
0000f708 l       .data	00000000 xepcstr
0000fdf3 l       .data	00000000 Mclr_Vext_int_str
0000fe4d l       .data	00000000 Sclr_Mext_int_str
0000feee l       .data	00000000 Sclr_Vext_int_str
0000ff48 l       .data	00000000 Hclr_Mext_int_str
0000ffeb l       .data	00000000 Hclr_Vext_int_str
00010046 l       .data	00000000 Vclr_Mext_int_str
00010096 l       .data	00000000 Vclr_Sext_int_str
000100e9 l       .data	00000000 Vclr_Vext_int_str
00010741 l       .data	00000000 trap_diag_curr_xepc_str
00011220 l       .data	00000000 trap_sigptr
0001fc90 g       .data	00000000 end_signature
0001fc90 g       .data	00000000 rvtest_sig_end
00000000 g       .text.init	00000000 rvtest_entry_point
00010c30 g       .data	00000000 begin_signature
00003468 g       .text.rvtest	00000000 rvtest_code_end
00000040 g       .text.rvtest	00000000 rvtest_code_begin
00010c30 g       .data	00000000 rvtest_sig_begin
00008110 g       .data	00000000 rvtest_data_begin
00010c30 g       .data	00000000 rvtest_data_end
00003468 g       .text.rvtest	00000000 cleanup_epilogs
00021000 g       .text.rvmodel	00000000 _end



Disassembly of section .text.init:

00000000 <rvtest_entry_point>:

// Include framework macros
#include "riscv_arch_test.h"

// Set up test environment and declare main entry point
RVTEST_BEGIN
   0:	00020097          	auipc	x1,0x20
   4:	00008093          	addi	x1,x1,0 # 20000 <rvmodel_boot>
   8:	00000013          	addi	x0,x0,0
   c:	00000013          	addi	x0,x0,0
  10:	00000013          	addi	x0,x0,0
  14:	00000013          	addi	x0,x0,0
  18:	00000013          	addi	x0,x0,0
  1c:	00000013          	addi	x0,x0,0
  20:	000080e7          	jalr	x1,0(x1)
  24:	00000013          	addi	x0,x0,0
  28:	00000013          	addi	x0,x0,0
  2c:	00000013          	addi	x0,x0,0
  30:	00000013          	addi	x0,x0,0
  34:	00000013          	addi	x0,x0,0
  38:	00000013          	addi	x0,x0,0
  3c:	00000013          	addi	x0,x0,0

Disassembly of section .text.rvtest:

00000040 <rvtest_code_begin>:
/////////////////////////////////
// cp_rs1
/////////////////////////////////

# Testcase cp_rs1 (Test source rs1 = x0)
  RVTEST_TESTDATA_LOAD_INT(x3, x0) # load rs1: x0 = 0x67bc85fc
      40:	0001a003          	lw	x0,0(x3)
      44:	00418193          	addi	x3,x3,4

00000048 <I_andi_cg_cp_rs1_b0>:
I_andi_cg_cp_rs1_b0:
  andi x7, x0, -1958 # perform operation
      48:	85a07393          	andi	x7,x0,-1958
  # Check if x7 contains the expected result. x2 is the signature ptr, x5 is the link ptr, x4 is a temp reg.
  RVTEST_SIGUPD(x2, x5, x4, x7, I_andi_cg_cp_rs1_b0, I_andi_cg_cp_rs1_b0_str)
      4c:	00012203          	lw	x4,0(x2)
      50:	00720863          	beq	x4,x7,60 <I_andi_cg_cp_rs1_b0+0x18>
      54:	468032ef          	jal	x5,34bc <failedtest_x5_x4>
      58:	00000048          	.word	0x00000048
      5c:	000086d0          	.word	0x000086d0
      60:	00410113          	addi	x2,x2,4

# Testcase cp_rs1 (Test source rs1 = x1)
  RVTEST_TESTDATA_LOAD_INT(x3, x1) # load rs1: x1 = 0x8e653a06
      64:	0001a083          	lw	x1,0(x3)
      68:	00418193          	addi	x3,x3,4

0000006c <I_andi_cg_cp_rs1_b1>:
I_andi_cg_cp_rs1_b1:
  andi x12, x1, -1712 # perform operation
      6c:	9500f613          	andi	x12,x1,-1712
  # Check if x12 contains the expected result. x2 is the signature ptr, x5 is the link ptr, x4 is a temp reg.
  RVTEST_SIGUPD(x2, x5, x4, x12, I_andi_cg_cp_rs1_b1, I_andi_cg_cp_rs1_b1_str)
      70:	00012203          	lw	x4,0(x2)
      74:	00c20863          	beq	x4,x12,84 <I_andi_cg_cp_rs1_b1+0x18>
      78:	444032ef          	jal	x5,34bc <failedtest_x5_x4>
      7c:	0000006c          	.word	0x0000006c
      80:	000086fe          	.word	0x000086fe
      84:	00410113          	addi	x2,x2,4

  mv x24, x2 # switch signature pointer register to avoid conflict with test
      88:	00010c13          	addi	x24,x2,0
# Testcase cp_rs1 (Test source rs1 = x2)
  RVTEST_TESTDATA_LOAD_INT(x3, x2) # load rs1: x2 = 0xdcc50e1a
      8c:	0001a103          	lw	x2,0(x3)
      90:	00418193          	addi	x3,x3,4

00000094 <I_andi_cg_cp_rs1_b2>:
I_andi_cg_cp_rs1_b2:
  andi x21, x2, -979 # perform operation
      94:	c2d17a93          	andi	x21,x2,-979
  # Check if x21 contains the expected result. x24 is the signature ptr, x5 is the link ptr, x4 is a temp reg.
  RVTEST_SIGUPD(x24, x5, x4, x21, I_andi_cg_cp_rs1_b2, I_andi_cg_cp_rs1_b2_str)
      98:	000c2203          	lw	x4,0(x24)
      9c:	01520863          	beq	x4,x21,ac <I_andi_cg_cp_rs1_b2+0x18>
      a0:	41c032ef          	jal	x5,34bc <failedtest_x5_x4>
      a4:	00000094          	.word	0x00000094
      a8:	0000872c          	.word	0x0000872c
      ac:	004c0c13          	addi	x24,x24,4

  mv x12, x3 # switch data pointer register to avoid conflict with test
      b0:	00018613          	addi	x12,x3,0
# Testcase cp_rs1 (Test source rs1 = x3)
  RVTEST_TESTDATA_LOAD_INT(x12, x3) # load rs1: x3 = 0x0aee347f
      b4:	00062183          	lw	x3,0(x12)
      b8:	00460613          	addi	x12,x12,4

000000bc <I_andi_cg_cp_rs1_b3>:
I_andi_cg_cp_rs1_b3:
  andi x29, x3, 965 # perform operation
      bc:	3c51fe93          	andi	x29,x3,965
  # Check if x29 contains the expected result. x24 is the signature ptr, x5 is the link ptr, x4 is a temp reg.
  RVTEST_SIGUPD(x24, x5, x4, x29, I_andi_cg_cp_rs1_b3, I_andi_cg_cp_rs1_b3_str)
      c0:	000c2203          	lw	x4,0(x24)
      c4:	01d20863          	beq	x4,x29,d4 <I_andi_cg_cp_rs1_b3+0x18>
      c8:	3f4032ef          	jal	x5,34bc <failedtest_x5_x4>
      cc:	000000bc          	.word	0x000000bc
      d0:	0000875a          	.word	0x0000875a
      d4:	004c0c13          	addi	x24,x24,4

  mv x7, x4 # switch temp register to avoid conflict with test
      d8:	00020393          	addi	x7,x4,0 # 0 <rvtest_entry_point>
  mv x8, x5 # switch link pointer register to avoid conflict with test
      dc:	00028413          	addi	x8,x5,0
# Testcase cp_rs1 (Test source rs1 = x4)
  RVTEST_TESTDATA_LOAD_INT(x12, x4) # load rs1: x4 = 0xff779f91
      e0:	00062203          	lw	x4,0(x12)
      e4:	00460613          	addi	x12,x12,4

000000e8 <I_andi_cg_cp_rs1_b4>:
I_andi_cg_cp_rs1_b4:
  andi x3, x4, -1645 # perform operation
      e8:	99327193          	andi	x3,x4,-1645
  # Check if x3 contains the expected result. x24 is the signature ptr, x8 is the link ptr, x7 is a temp reg.
  RVTEST_SIGUPD(x24, x8, x7, x3, I_andi_cg_cp_rs1_b4, I_andi_cg_cp_rs1_b4_str)
      ec:	000c2383          	lw	x7,0(x24)
      f0:	00338863          	beq	x7,x3,100 <I_andi_cg_cp_rs1_b4+0x18>
      f4:	3e00346f          	jal	x8,34d4 <failedtest_x8_x7>
      f8:	000000e8          	.word	0x000000e8
      fc:	00008788          	.word	0x00008788
     100:	004c0c13          	addi	x24,x24,4

# Testcase cp_rs1 (Test source rs1 = x5)
  RVTEST_TESTDATA_LOAD_INT(x12, x5) # load rs1: x5 = 0xfd6b577b
     104:	00062283          	lw	x5,0(x12)
     108:	00460613          	addi	x12,x12,4

0000010c <I_andi_cg_cp_rs1_b5>:
I_andi_cg_cp_rs1_b5:
  andi x20, x5, -499 # perform operation
     10c:	e0d2fa13          	andi	x20,x5,-499
  # Check if x20 contains the expected result. x24 is the signature ptr, x8 is the link ptr, x7 is a temp reg.
  RVTEST_SIGUPD(x24, x8, x7, x20, I_andi_cg_cp_rs1_b5, I_andi_cg_cp_rs1_b5_str)
     110:	000c2383          	lw	x7,0(x24)
     114:	01438863          	beq	x7,x20,124 <I_andi_cg_cp_rs1_b5+0x18>
     118:	3bc0346f          	jal	x8,34d4 <failedtest_x8_x7>
     11c:	0000010c          	.word	0x0000010c
     120:	000087b6          	.word	0x000087b6
     124:	004c0c13          	addi	x24,x24,4

# Testcase cp_rs1 (Test source rs1 = x6)
  RVTEST_TESTDATA_LOAD_INT(x12, x6) # load rs1: x6 = 0x05eb0051
     128:	00062303          	lw	x6,0(x12)
     12c:	00460613          	addi	x12,x12,4

00000130 <I_andi_cg_cp_rs1_b6>:
I_andi_cg_cp_rs1_b6:
  andi x4, x6, -952 # perform operation
     130:	c4837213          	andi	x4,x6,-952
  # Check if x4 contains the expected result. x24 is the signature ptr, x8 is the link ptr, x7 is a temp reg.
  RVTEST_SIGUPD(x24, x8, x7, x4, I_andi_cg_cp_rs1_b6, I_andi_cg_cp_rs1_b6_str)
     134:	000c2383          	lw	x7,0(x24)
     138:	00438863          	beq	x7,x4,148 <I_andi_cg_cp_rs1_b6+0x18>
     13c:	3980346f          	jal	x8,34d4 <failedtest_x8_x7>
     140:	00000130          	.word	0x00000130
     144:	000087e4          	.word	0x000087e4
     148:	004c0c13          	addi	x24,x24,4

  mv x4, x7 # switch temp register to avoid conflict with test
     14c:	00038213          	addi	x4,x7,0
  mv x5, x8 # switch link pointer register to avoid conflict with test
     150:	00040293          	addi	x5,x8,0
# Testcase cp_rs1 (Test source rs1 = x7)
  RVTEST_TESTDATA_LOAD_INT(x12, x7) # load rs1: x7 = 0x44acead4
     154:	00062383          	lw	x7,0(x12)
     158:	00460613          	addi	x12,x12,4

0000015c <I_andi_cg_cp_rs1_b7>:
I_andi_cg_cp_rs1_b7:
  andi x0, x7, -1782 # perform operation
     15c:	90a3f013          	andi	x0,x7,-1782
  # Check if x0 contains the expected result. x24 is the signature ptr, x5 is the link ptr, x4 is a temp reg.
  RVTEST_SIGUPD(x24, x5, x4, x0, I_andi_cg_cp_rs1_b7, I_andi_cg_cp_rs1_b7_str)
     160:	000c2203          	lw	x4,0(x24)
     164:	00020863          	beq	x4,x0,174 <I_andi_cg_cp_rs1_b7+0x18>
     168:	354032ef          	jal	x5,34bc <failedtest_x5_x4>
     16c:	0000015c          	.word	0x0000015c
     170:	00008812          	.word	0x00008812
     174:	004c0c13          	addi	x24,x24,4

# Testcase cp_rs1 (Test source rs1 = x8)
  RVTEST_TESTDATA_LOAD_INT(x12, x8) # load rs1: x8 = 0x3afa2991
     178:	00062403          	lw	x8,0(x12)
     17c:	00460613          	addi	x12,x12,4

00000180 <I_andi_cg_cp_rs1_b8>:
I_andi_cg_cp_rs1_b8:
  andi x19, x8, 1109 # perform operation
     180:	45547993          	andi	x19,x8,1109
  # Check if x19 contains the expected result. x24 is the signature ptr, x5 is the link ptr, x4 is a temp reg.
  RVTEST_SIGUPD(x24, x5, x4, x19, I_andi_cg_cp_rs1_b8, I_andi_cg_cp_rs1_b8_str)
     184:	000c2203          	lw	x4,0(x24)
     188:	01320863          	beq	x4,x19,198 <I_andi_cg_cp_rs1_b8+0x18>
     18c:	330032ef          	jal	x5,34bc <failedtest_x5_x4>
     190:	00000180          	.word	0x00000180
     194:	00008840          	.word	0x00008840
     198:	004c0c13          	addi	x24,x24,4

# Testcase cp_rs1 (Test source rs1 = x9)
  RVTEST_TESTDATA_LOAD_INT(x12, x9) # load rs1: x9 = 0x04d53afe
     19c:	00062483          	lw	x9,0(x12)
     1a0:	00460613          	addi	x12,x12,4

000001a4 <I_andi_cg_cp_rs1_b9>:
I_andi_cg_cp_rs1_b9:
  andi x19, x9, 1452 # perform operation
     1a4:	5ac4f993          	andi	x19,x9,1452
  # Check if x19 contains the expected result. x24 is the signature ptr, x5 is the link ptr, x4 is a temp reg.
  RVTEST_SIGUPD(x24, x5, x4, x19, I_andi_cg_cp_rs1_b9, I_andi_cg_cp_rs1_b9_str)
     1a8:	000c2203          	lw	x4,0(x24)
     1ac:	01320863          	beq	x4,x19,1bc <I_andi_cg_cp_rs1_b9+0x18>
     1b0:	30c032ef          	jal	x5,34bc <failedtest_x5_x4>
     1b4:	000001a4          	.word	0x000001a4
     1b8:	0000886e          	.word	0x0000886e
     1bc:	004c0c13          	addi	x24,x24,4

# Testcase cp_rs1 (Test source rs1 = x10)
  RVTEST_TESTDATA_LOAD_INT(x12, x10) # load rs1: x10 = 0x25ff8bf2
     1c0:	00062503          	lw	x10,0(x12)
     1c4:	00460613          	addi	x12,x12,4

000001c8 <I_andi_cg_cp_rs1_b10>:
I_andi_cg_cp_rs1_b10:
  andi x1, x10, -1989 # perform operation
     1c8:	83b57093          	andi	x1,x10,-1989
  # Check if x1 contains the expected result. x24 is the signature ptr, x5 is the link ptr, x4 is a temp reg.
  RVTEST_SIGUPD(x24, x5, x4, x1, I_andi_cg_cp_rs1_b10, I_andi_cg_cp_rs1_b10_str)
     1cc:	000c2203          	lw	x4,0(x24)
     1d0:	00120863          	beq	x4,x1,1e0 <I_andi_cg_cp_rs1_b10+0x18>
     1d4:	2e8032ef          	jal	x5,34bc <failedtest_x5_x4>
     1d8:	000001c8          	.word	0x000001c8
     1dc:	0000889d          	.word	0x0000889d
     1e0:	004c0c13          	addi	x24,x24,4

# Testcase cp_rs1 (Test source rs1 = x11)
  RVTEST_TESTDATA_LOAD_INT(x12, x11) # load rs1: x11 = 0x339c43d9
     1e4:	00062583          	lw	x11,0(x12)
     1e8:	00460613          	addi	x12,x12,4

000001ec <I_andi_cg_cp_rs1_b11>:
I_andi_cg_cp_rs1_b11:
  andi x23, x11, -2033 # perform operation
     1ec:	80f5fb93          	andi	x23,x11,-2033
  # Check if x23 contains the expected result. x24 is the signature ptr, x5 is the link ptr, x4 is a temp reg.
  RVTEST_SIGUPD(x24, x5, x4, x23, I_andi_cg_cp_rs1_b11, I_andi_cg_cp_rs1_b11_str)
     1f0:	000c2203          	lw	x4,0(x24)
     1f4:	01720863          	beq	x4,x23,204 <I_andi_cg_cp_rs1_b11+0x18>
     1f8:	2c4032ef          	jal	x5,34bc <failedtest_x5_x4>
     1fc:	000001ec          	.word	0x000001ec
     200:	000088cd          	.word	0x000088cd
     204:	004c0c13          	addi	x24,x24,4

  mv x28, x12 # switch data pointer register to avoid conflict with test
     208:	00060e13          	addi	x28,x12,0
# Testcase cp_rs1 (Test source rs1 = x12)
  RVTEST_TESTDATA_LOAD_INT(x28, x12) # load rs1: x12 = 0xe4bb3b7f
     20c:	000e2603          	lw	x12,0(x28)
     210:	004e0e13          	addi	x28,x28,4

00000214 <I_andi_cg_cp_rs1_b12>:
I_andi_cg_cp_rs1_b12:
  andi x26, x12, 1798 # perform operation
     214:	70667d13          	andi	x26,x12,1798
  # Check if x26 contains the expected result. x24 is the signature ptr, x5 is the link ptr, x4 is a temp reg.
  RVTEST_SIGUPD(x24, x5, x4, x26, I_andi_cg_cp_rs1_b12, I_andi_cg_cp_rs1_b12_str)
     218:	000c2203          	lw	x4,0(x24)
     21c:	01a20863          	beq	x4,x26,22c <I_andi_cg_cp_rs1_b12+0x18>
     220:	29c032ef          	jal	x5,34bc <failedtest_x5_x4>
     224:	00000214          	.word	0x00000214
     228:	000088fd          	.word	0x000088fd
     22c:	004c0c13          	addi	x24,x24,4

# Testcase cp_rs1 (Test source rs1 = x13)
  RVTEST_TESTDATA_LOAD_INT(x28, x13) # load rs1: x13 = 0xbae6a343
     230:	000e2683          	lw	x13,0(x28)
     234:	004e0e13          	addi	x28,x28,4

00000238 <I_andi_cg_cp_rs1_b13>:
I_andi_cg_cp_rs1_b13:
  andi x3, x13, 1665 # perform operation
     238:	6816f193          	andi	x3,x13,1665
  # Check if x3 contains the expected result. x24 is the signature ptr, x5 is the link ptr, x4 is a temp reg.
  RVTEST_SIGUPD(x24, x5, x4, x3, I_andi_cg_cp_rs1_b13, I_andi_cg_cp_rs1_b13_str)
     23c:	000c2203          	lw	x4,0(x24)
     240:	00320863          	beq	x4,x3,250 <I_andi_cg_cp_rs1_b13+0x18>
     244:	278032ef          	jal	x5,34bc <failedtest_x5_x4>
     248:	00000238          	.word	0x00000238
     24c:	0000892d          	.word	0x0000892d
     250:	004c0c13          	addi	x24,x24,4

# Testcase cp_rs1 (Test source rs1 = x14)
  RVTEST_TESTDATA_LOAD_INT(x28, x14) # load rs1: x14 = 0xa1941e5b
     254:	000e2703          	lw	x14,0(x28)
     258:	004e0e13          	addi	x28,x28,4

0000025c <I_andi_cg_cp_rs1_b14>:
I_andi_cg_cp_rs1_b14:
  andi x23, x14, 1663 # perform operation
     25c:	67f77b93          	andi	x23,x14,1663
  # Check if x23 contains the expected result. x24 is the signature ptr, x5 is the link ptr, x4 is a temp reg.
  RVTEST_SIGUPD(x24, x5, x4, x23, I_andi_cg_cp_rs1_b14, I_andi_cg_cp_rs1_b14_str)
     260:	000c2203          	lw	x4,0(x24)
     264:	01720863          	beq	x4,x23,274 <I_andi_cg_cp_rs1_b14+0x18>
     268:	254032ef          	jal	x5,34bc <failedtest_x5_x4>
     26c:	0000025c          	.word	0x0000025c
     270:	0000895d          	.word	0x0000895d
     274:	004c0c13          	addi	x24,x24,4

# Testcase cp_rs1 (Test source rs1 = x15)
  RVTEST_TESTDATA_LOAD_INT(x28, x15) # load rs1: x15 = 0xf5ea0e04
     278:	000e2783          	lw	x15,0(x28)
     27c:	004e0e13          	addi	x28,x28,4

00000280 <I_andi_cg_cp_rs1_b15>:
I_andi_cg_cp_rs1_b15:
  andi x30, x15, -640 # perform operation
     280:	d807ff13          	andi	x30,x15,-640
  # Check if x30 contains the expected result. x24 is the signature ptr, x5 is the link ptr, x4 is a temp reg.
  RVTEST_SIGUPD(x24, x5, x4, x30, I_andi_cg_cp_rs1_b15, I_andi_cg_cp_rs1_b15_str)
     284:	000c2203          	lw	x4,0(x24)
     288:	01e20863          	beq	x4,x30,298 <I_andi_cg_cp_rs1_b15+0x18>
     28c:	230032ef          	jal	x5,34bc <failedtest_x5_x4>
     290:	00000280          	.word	0x00000280
     294:	0000898d          	.word	0x0000898d
     298:	004c0c13          	addi	x24,x24,4

# Testcase cp_rs1 (Test source rs1 = x16)
  RVTEST_TESTDATA_LOAD_INT(x28, x16) # load rs1: x16 = 0xed291685
     29c:	000e2803          	lw	x16,0(x28)
     2a0:	004e0e13          	addi	x28,x28,4

000002a4 <I_andi_cg_cp_rs1_b16>:
I_andi_cg_cp_rs1_b16:
  andi x30, x16, -961 # perform operation
     2a4:	c3f87f13          	andi	x30,x16,-961
  # Check if x30 contains the expected result. x24 is the signature ptr, x5 is the link ptr, x4 is a temp reg.
  RVTEST_SIGUPD(x24, x5, x4, x30, I_andi_cg_cp_rs1_b16, I_andi_cg_cp_rs1_b16_str)
     2a8:	000c2203          	lw	x4,0(x24)
     2ac:	01e20863          	beq	x4,x30,2bc <I_andi_cg_cp_rs1_b16+0x18>
     2b0:	20c032ef          	jal	x5,34bc <failedtest_x5_x4>
     2b4:	000002a4          	.word	0x000002a4
     2b8:	000089bd          	.word	0x000089bd
     2bc:	004c0c13          	addi	x24,x24,4

# Testcase cp_rs1 (Test source rs1 = x17)
  RVTEST_TESTDATA_LOAD_INT(x28, x17) # load rs1: x17 = 0x58e60fde
     2c0:	000e2883          	lw	x17,0(x28)
     2c4:	004e0e13          	addi	x28,x28,4

000002c8 <I_andi_cg_cp_rs1_b17>:
I_andi_cg_cp_rs1_b17:
  andi x19, x17, 1596 # perform operation
     2c8:	63c8f993          	andi	x19,x17,1596
  # Check if x19 contains the expected result. x24 is the signature ptr, x5 is the link ptr, x4 is a temp reg.
  RVTEST_SIGUPD(x24, x5, x4, x19, I_andi_cg_cp_rs1_b17, I_andi_cg_cp_rs1_b17_str)
     2cc:	000c2203          	lw	x4,0(x24)
     2d0:	01320863          	beq	x4,x19,2e0 <I_andi_cg_cp_rs1_b17+0x18>
     2d4:	1e8032ef          	jal	x5,34bc <failedtest_x5_x4>
     2d8:	000002c8          	.word	0x000002c8
     2dc:	000089ed          	.word	0x000089ed
     2e0:	004c0c13          	addi	x24,x24,4

# Testcase cp_rs1 (Test source rs1 = x18)
  RVTEST_TESTDATA_LOAD_INT(x28, x18) # load rs1: x18 = 0xbd2e15a8
     2e4:	000e2903          	lw	x18,0(x28)
     2e8:	004e0e13          	addi	x28,x28,4

000002ec <I_andi_cg_cp_rs1_b18>:
I_andi_cg_cp_rs1_b18:
  andi x16, x18, 1736 # perform operation
     2ec:	6c897813          	andi	x16,x18,1736
  # Check if x16 contains the expected result. x24 is the signature ptr, x5 is the link ptr, x4 is a temp reg.
  RVTEST_SIGUPD(x24, x5, x4, x16, I_andi_cg_cp_rs1_b18, I_andi_cg_cp_rs1_b18_str)
     2f0:	000c2203          	lw	x4,0(x24)
     2f4:	01020863          	beq	x4,x16,304 <I_andi_cg_cp_rs1_b18+0x18>
     2f8:	1c4032ef          	jal	x5,34bc <failedtest_x5_x4>
     2fc:	000002ec          	.word	0x000002ec
     300:	00008a1d          	.word	0x00008a1d
     304:	004c0c13          	addi	x24,x24,4

# Testcase cp_rs1 (Test source rs1 = x19)
  RVTEST_TESTDATA_LOAD_INT(x28, x19) # load rs1: x19 = 0xd65ebf15
     308:	000e2983          	lw	x19,0(x28)
     30c:	004e0e13          	addi	x28,x28,4

00000310 <I_andi_cg_cp_rs1_b19>:
I_andi_cg_cp_rs1_b19:
  andi x0, x19, -658 # perform operation
     310:	d6e9f013          	andi	x0,x19,-658
  # Check if x0 contains the expected result. x24 is the signature ptr, x5 is the link ptr, x4 is a temp reg.
  RVTEST_SIGUPD(x24, x5, x4, x0, I_andi_cg_cp_rs1_b19, I_andi_cg_cp_rs1_b19_str)
     314:	000c2203          	lw	x4,0(x24)
     318:	00020863          	beq	x4,x0,328 <I_andi_cg_cp_rs1_b19+0x18>
     31c:	1a0032ef          	jal	x5,34bc <failedtest_x5_x4>
     320:	00000310          	.word	0x00000310
     324:	00008a4d          	.word	0x00008a4d
     328:	004c0c13          	addi	x24,x24,4

# Testcase cp_rs1 (Test source rs1 = x20)
  RVTEST_TESTDATA_LOAD_INT(x28, x20) # load rs1: x20 = 0x6c24f9de
     32c:	000e2a03          	lw	x20,0(x28)
     330:	004e0e13          	addi	x28,x28,4

00000334 <I_andi_cg_cp_rs1_b20>:
I_andi_cg_cp_rs1_b20:
  andi x21, x20, -1936 # perform operation
     334:	870a7a93          	andi	x21,x20,-1936
  # Check if x21 contains the expected result. x24 is the signature ptr, x5 is the link ptr, x4 is a temp reg.
  RVTEST_SIGUPD(x24, x5, x4, x21, I_andi_cg_cp_rs1_b20, I_andi_cg_cp_rs1_b20_str)
     338:	000c2203          	lw	x4,0(x24)
     33c:	01520863          	beq	x4,x21,34c <I_andi_cg_cp_rs1_b20+0x18>
     340:	17c032ef          	jal	x5,34bc <failedtest_x5_x4>
     344:	00000334          	.word	0x00000334
     348:	00008a7d          	.word	0x00008a7d
     34c:	004c0c13          	addi	x24,x24,4

# Testcase cp_rs1 (Test source rs1 = x21)
  RVTEST_TESTDATA_LOAD_INT(x28, x21) # load rs1: x21 = 0x22fd320f
     350:	000e2a83          	lw	x21,0(x28)
     354:	004e0e13          	addi	x28,x28,4

00000358 <I_andi_cg_cp_rs1_b21>:
I_andi_cg_cp_rs1_b21:
  andi x17, x21, -11 # perform operation
     358:	ff5af893          	andi	x17,x21,-11
  # Check if x17 contains the expected result. x24 is the signature ptr, x5 is the link ptr, x4 is a temp reg.
  RVTEST_SIGUPD(x24, x5, x4, x17, I_andi_cg_cp_rs1_b21, I_andi_cg_cp_rs1_b21_str)
     35c:	000c2203          	lw	x4,0(x24)
     360:	01120863          	beq	x4,x17,370 <I_andi_cg_cp_rs1_b21+0x18>
     364:	158032ef          	jal	x5,34bc <failedtest_x5_x4>
     368:	00000358          	.word	0x00000358
     36c:	00008aad          	.word	0x00008aad
     370:	004c0c13          	addi	x24,x24,4

# Testcase cp_rs1 (Test source rs1 = x22)
  RVTEST_TESTDATA_LOAD_INT(x28, x22) # load rs1: x22 = 0xc1638829
     374:	000e2b03          	lw	x22,0(x28)
     378:	004e0e13          	addi	x28,x28,4

0000037c <I_andi_cg_cp_rs1_b22>:
I_andi_cg_cp_rs1_b22:
  andi x20, x22, 1681 # perform operation
     37c:	691b7a13          	andi	x20,x22,1681
  # Check if x20 contains the expected result. x24 is the signature ptr, x5 is the link ptr, x4 is a temp reg.
  RVTEST_SIGUPD(x24, x5, x4, x20, I_andi_cg_cp_rs1_b22, I_andi_cg_cp_rs1_b22_str)
     380:	000c2203          	lw	x4,0(x24)
     384:	01420863          	beq	x4,x20,394 <I_andi_cg_cp_rs1_b22+0x18>
     388:	134032ef          	jal	x5,34bc <failedtest_x5_x4>
     38c:	0000037c          	.word	0x0000037c
     390:	00008add          	.word	0x00008add
     394:	004c0c13          	addi	x24,x24,4

# Testcase cp_rs1 (Test source rs1 = x23)
  RVTEST_TESTDATA_LOAD_INT(x28, x23) # load rs1: x23 = 0xeafd063d
     398:	000e2b83          	lw	x23,0(x28)
     39c:	004e0e13          	addi	x28,x28,4

000003a0 <I_andi_cg_cp_rs1_b23>:
I_andi_cg_cp_rs1_b23:
  andi x8, x23, -1163 # perform operation
     3a0:	b75bf413          	andi	x8,x23,-1163
  # Check if x8 contains the expected result. x24 is the signature ptr, x5 is the link ptr, x4 is a temp reg.
  RVTEST_SIGUPD(x24, x5, x4, x8, I_andi_cg_cp_rs1_b23, I_andi_cg_cp_rs1_b23_str)
     3a4:	000c2203          	lw	x4,0(x24)
     3a8:	00820863          	beq	x4,x8,3b8 <I_andi_cg_cp_rs1_b23+0x18>
     3ac:	110032ef          	jal	x5,34bc <failedtest_x5_x4>
     3b0:	000003a0          	.word	0x000003a0
     3b4:	00008b0d          	.word	0x00008b0d
     3b8:	004c0c13          	addi	x24,x24,4

  mv x19, x24 # switch signature pointer register to avoid conflict with test
     3bc:	000c0993          	addi	x19,x24,0
# Testcase cp_rs1 (Test source rs1 = x24)
  RVTEST_TESTDATA_LOAD_INT(x28, x24) # load rs1: x24 = 0x0542a7b0
     3c0:	000e2c03          	lw	x24,0(x28)
     3c4:	004e0e13          	addi	x28,x28,4

000003c8 <I_andi_cg_cp_rs1_b24>:
I_andi_cg_cp_rs1_b24:
  andi x22, x24, -1790 # perform operation
     3c8:	902c7b13          	andi	x22,x24,-1790
  # Check if x22 contains the expected result. x19 is the signature ptr, x5 is the link ptr, x4 is a temp reg.
  RVTEST_SIGUPD(x19, x5, x4, x22, I_andi_cg_cp_rs1_b24, I_andi_cg_cp_rs1_b24_str)
     3cc:	0009a203          	lw	x4,0(x19)
     3d0:	01620863          	beq	x4,x22,3e0 <I_andi_cg_cp_rs1_b24+0x18>
     3d4:	0e8032ef          	jal	x5,34bc <failedtest_x5_x4>
     3d8:	000003c8          	.word	0x000003c8
     3dc:	00008b3d          	.word	0x00008b3d
     3e0:	00498993          	addi	x19,x19,4

# Testcase cp_rs1 (Test source rs1 = x25)
  RVTEST_TESTDATA_LOAD_INT(x28, x25) # load rs1: x25 = 0x6f774e13
     3e4:	000e2c83          	lw	x25,0(x28)
     3e8:	004e0e13          	addi	x28,x28,4

000003ec <I_andi_cg_cp_rs1_b25>:
I_andi_cg_cp_rs1_b25:
  andi x15, x25, 93 # perform operation
     3ec:	05dcf793          	andi	x15,x25,93
  # Check if x15 contains the expected result. x19 is the signature ptr, x5 is the link ptr, x4 is a temp reg.
  RVTEST_SIGUPD(x19, x5, x4, x15, I_andi_cg_cp_rs1_b25, I_andi_cg_cp_rs1_b25_str)
     3f0:	0009a203          	lw	x4,0(x19)
     3f4:	00f20863          	beq	x4,x15,404 <I_andi_cg_cp_rs1_b25+0x18>
     3f8:	0c4032ef          	jal	x5,34bc <failedtest_x5_x4>
     3fc:	000003ec          	.word	0x000003ec
     400:	00008b6d          	.word	0x00008b6d
     404:	00498993          	addi	x19,x19,4

# Testcase cp_rs1 (Test source rs1 = x26)
  RVTEST_TESTDATA_LOAD_INT(x28, x26) # load rs1: x26 = 0x0181f21b
     408:	000e2d03          	lw	x26,0(x28)
     40c:	004e0e13          	addi	x28,x28,4

00000410 <I_andi_cg_cp_rs1_b26>:
I_andi_cg_cp_rs1_b26:
  andi x23, x26, -1405 # perform operation
     410:	a83d7b93          	andi	x23,x26,-1405
  # Check if x23 contains the expected result. x19 is the signature ptr, x5 is the link ptr, x4 is a temp reg.
  RVTEST_SIGUPD(x19, x5, x4, x23, I_andi_cg_cp_rs1_b26, I_andi_cg_cp_rs1_b26_str)
     414:	0009a203          	lw	x4,0(x19)
     418:	01720863          	beq	x4,x23,428 <I_andi_cg_cp_rs1_b26+0x18>
     41c:	0a0032ef          	jal	x5,34bc <failedtest_x5_x4>
     420:	00000410          	.word	0x00000410
     424:	00008b9d          	.word	0x00008b9d
     428:	00498993          	addi	x19,x19,4

# Testcase cp_rs1 (Test source rs1 = x27)
  RVTEST_TESTDATA_LOAD_INT(x28, x27) # load rs1: x27 = 0xb145736b
     42c:	000e2d83          	lw	x27,0(x28)
     430:	004e0e13          	addi	x28,x28,4

00000434 <I_andi_cg_cp_rs1_b27>:
I_andi_cg_cp_rs1_b27:
  andi x1, x27, -825 # perform operation
     434:	cc7df093          	andi	x1,x27,-825
  # Check if x1 contains the expected result. x19 is the signature ptr, x5 is the link ptr, x4 is a temp reg.
  RVTEST_SIGUPD(x19, x5, x4, x1, I_andi_cg_cp_rs1_b27, I_andi_cg_cp_rs1_b27_str)
     438:	0009a203          	lw	x4,0(x19)
     43c:	00120863          	beq	x4,x1,44c <I_andi_cg_cp_rs1_b27+0x18>
     440:	07c032ef          	jal	x5,34bc <failedtest_x5_x4>
     444:	00000434          	.word	0x00000434
     448:	00008bcd          	.word	0x00008bcd
     44c:	00498993          	addi	x19,x19,4

  mv x25, x28 # switch data pointer register to avoid conflict with test
     450:	000e0c93          	addi	x25,x28,0
# Testcase cp_rs1 (Test source rs1 = x28)
  RVTEST_TESTDATA_LOAD_INT(x25, x28) # load rs1: x28 = 0xb04ceb52
     454:	000cae03          	lw	x28,0(x25)
     458:	004c8c93          	addi	x25,x25,4

0000045c <I_andi_cg_cp_rs1_b28>:
I_andi_cg_cp_rs1_b28:
  andi x21, x28, -1484 # perform operation
     45c:	a34e7a93          	andi	x21,x28,-1484
  # Check if x21 contains the expected result. x19 is the signature ptr, x5 is the link ptr, x4 is a temp reg.
  RVTEST_SIGUPD(x19, x5, x4, x21, I_andi_cg_cp_rs1_b28, I_andi_cg_cp_rs1_b28_str)
     460:	0009a203          	lw	x4,0(x19)
     464:	01520863          	beq	x4,x21,474 <I_andi_cg_cp_rs1_b28+0x18>
     468:	054032ef          	jal	x5,34bc <failedtest_x5_x4>
     46c:	0000045c          	.word	0x0000045c
     470:	00008bfd          	.word	0x00008bfd
     474:	00498993          	addi	x19,x19,4

# Testcase cp_rs1 (Test source rs1 = x29)
  RVTEST_TESTDATA_LOAD_INT(x25, x29) # load rs1: x29 = 0xbfbb7695
     478:	000cae83          	lw	x29,0(x25)
     47c:	004c8c93          	addi	x25,x25,4

00000480 <I_andi_cg_cp_rs1_b29>:
I_andi_cg_cp_rs1_b29:
  andi x12, x29, 1132 # perform operation
     480:	46cef613          	andi	x12,x29,1132
  # Check if x12 contains the expected result. x19 is the signature ptr, x5 is the link ptr, x4 is a temp reg.
  RVTEST_SIGUPD(x19, x5, x4, x12, I_andi_cg_cp_rs1_b29, I_andi_cg_cp_rs1_b29_str)
     484:	0009a203          	lw	x4,0(x19)
     488:	00c20863          	beq	x4,x12,498 <I_andi_cg_cp_rs1_b29+0x18>
     48c:	030032ef          	jal	x5,34bc <failedtest_x5_x4>
     490:	00000480          	.word	0x00000480
     494:	00008c2d          	.word	0x00008c2d
     498:	00498993          	addi	x19,x19,4

# Testcase cp_rs1 (Test source rs1 = x30)
  RVTEST_TESTDATA_LOAD_INT(x25, x30) # load rs1: x30 = 0x24c7fc44
     49c:	000caf03          	lw	x30,0(x25)
     4a0:	004c8c93          	addi	x25,x25,4

000004a4 <I_andi_cg_cp_rs1_b30>:
I_andi_cg_cp_rs1_b30:
  andi x11, x30, -1865 # perform operation
     4a4:	8b7f7593          	andi	x11,x30,-1865
  # Check if x11 contains the expected result. x19 is the signature ptr, x5 is the link ptr, x4 is a temp reg.
  RVTEST_SIGUPD(x19, x5, x4, x11, I_andi_cg_cp_rs1_b30, I_andi_cg_cp_rs1_b30_str)
     4a8:	0009a203          	lw	x4,0(x19)
     4ac:	00b20863          	beq	x4,x11,4bc <I_andi_cg_cp_rs1_b30+0x18>
     4b0:	00c032ef          	jal	x5,34bc <failedtest_x5_x4>
     4b4:	000004a4          	.word	0x000004a4
     4b8:	00008c5d          	.word	0x00008c5d
     4bc:	00498993          	addi	x19,x19,4

# Testcase cp_rs1 (Test source rs1 = x31)
  RVTEST_TESTDATA_LOAD_INT(x25, x31) # load rs1: x31 = 0xfaf5b663
     4c0:	000caf83          	lw	x31,0(x25)
     4c4:	004c8c93          	addi	x25,x25,4

000004c8 <I_andi_cg_cp_rs1_b31>:
I_andi_cg_cp_rs1_b31:
  andi x11, x31, 938 # perform operation
     4c8:	3aaff593          	andi	x11,x31,938
  # Check if x11 contains the expected result. x19 is the signature ptr, x5 is the link ptr, x4 is a temp reg.
  RVTEST_SIGUPD(x19, x5, x4, x11, I_andi_cg_cp_rs1_b31, I_andi_cg_cp_rs1_b31_str)
     4cc:	0009a203          	lw	x4,0(x19)
     4d0:	00b20863          	beq	x4,x11,4e0 <I_andi_cg_cp_rs1_b31+0x18>
     4d4:	7e9022ef          	jal	x5,34bc <failedtest_x5_x4>
     4d8:	000004c8          	.word	0x000004c8
     4dc:	00008c8d          	.word	0x00008c8d
     4e0:	00498993          	addi	x19,x19,4
/////////////////////////////////
// cp_rd
/////////////////////////////////

# Testcase cp_rd (Test destination rd = x0)
  RVTEST_TESTDATA_LOAD_INT(x25, x28) # load rs1: x28 = 0xc05d43b1
     4e4:	000cae03          	lw	x28,0(x25)
     4e8:	004c8c93          	addi	x25,x25,4

000004ec <I_andi_cg_cp_rd_b0>:
I_andi_cg_cp_rd_b0:
  andi x0, x28, 1297 # perform operation
     4ec:	511e7013          	andi	x0,x28,1297
  # Check if x0 contains the expected result. x19 is the signature ptr, x5 is the link ptr, x4 is a temp reg.
  RVTEST_SIGUPD(x19, x5, x4, x0, I_andi_cg_cp_rd_b0, I_andi_cg_cp_rd_b0_str)
     4f0:	0009a203          	lw	x4,0(x19)
     4f4:	00020863          	beq	x4,x0,504 <I_andi_cg_cp_rd_b0+0x18>
     4f8:	7c5022ef          	jal	x5,34bc <failedtest_x5_x4>
     4fc:	000004ec          	.word	0x000004ec
     500:	00008cbd          	.word	0x00008cbd
     504:	00498993          	addi	x19,x19,4

# Testcase cp_rd (Test destination rd = x1)
  RVTEST_TESTDATA_LOAD_INT(x25, x21) # load rs1: x21 = 0xf3720025
     508:	000caa83          	lw	x21,0(x25)
     50c:	004c8c93          	addi	x25,x25,4

00000510 <I_andi_cg_cp_rd_b1>:
I_andi_cg_cp_rd_b1:
  andi x1, x21, -1889 # perform operation
     510:	89faf093          	andi	x1,x21,-1889
  # Check if x1 contains the expected result. x19 is the signature ptr, x5 is the link ptr, x4 is a temp reg.
  RVTEST_SIGUPD(x19, x5, x4, x1, I_andi_cg_cp_rd_b1, I_andi_cg_cp_rd_b1_str)
     514:	0009a203          	lw	x4,0(x19)
     518:	00120863          	beq	x4,x1,528 <I_andi_cg_cp_rd_b1+0x18>
     51c:	7a1022ef          	jal	x5,34bc <failedtest_x5_x4>
     520:	00000510          	.word	0x00000510
     524:	00008ceb          	.word	0x00008ceb
     528:	00498993          	addi	x19,x19,4

# Testcase cp_rd (Test destination rd = x2)
  RVTEST_TESTDATA_LOAD_INT(x25, x18) # load rs1: x18 = 0xaaa1190d
     52c:	000ca903          	lw	x18,0(x25)
     530:	004c8c93          	addi	x25,x25,4

00000534 <I_andi_cg_cp_rd_b2>:
I_andi_cg_cp_rd_b2:
  andi x2, x18, -492 # perform operation
     534:	e1497113          	andi	x2,x18,-492
  # Check if x2 contains the expected result. x19 is the signature ptr, x5 is the link ptr, x4 is a temp reg.
  RVTEST_SIGUPD(x19, x5, x4, x2, I_andi_cg_cp_rd_b2, I_andi_cg_cp_rd_b2_str)
     538:	0009a203          	lw	x4,0(x19)
     53c:	00220863          	beq	x4,x2,54c <I_andi_cg_cp_rd_b2+0x18>
     540:	77d022ef          	jal	x5,34bc <failedtest_x5_x4>
     544:	00000534          	.word	0x00000534
     548:	00008d19          	.word	0x00008d19
     54c:	00498993          	addi	x19,x19,4

# Testcase cp_rd (Test destination rd = x3)
  RVTEST_TESTDATA_LOAD_INT(x25, x24) # load rs1: x24 = 0x09bda315
     550:	000cac03          	lw	x24,0(x25)
     554:	004c8c93          	addi	x25,x25,4

00000558 <I_andi_cg_cp_rd_b3>:
I_andi_cg_cp_rd_b3:
  andi x3, x24, 1010 # perform operation
     558:	3f2c7193          	andi	x3,x24,1010
  # Check if x3 contains the expected result. x19 is the signature ptr, x5 is the link ptr, x4 is a temp reg.
  RVTEST_SIGUPD(x19, x5, x4, x3, I_andi_cg_cp_rd_b3, I_andi_cg_cp_rd_b3_str)
     55c:	0009a203          	lw	x4,0(x19)
     560:	00320863          	beq	x4,x3,570 <I_andi_cg_cp_rd_b3+0x18>
     564:	759022ef          	jal	x5,34bc <failedtest_x5_x4>
     568:	00000558          	.word	0x00000558
     56c:	00008d47          	.word	0x00008d47
     570:	00498993          	addi	x19,x19,4

  mv x13, x4 # switch temp register to avoid conflict with test
     574:	00020693          	addi	x13,x4,0 # 0 <rvtest_entry_point>
  mv x14, x5 # switch link pointer register to avoid conflict with test
     578:	00028713          	addi	x14,x5,0
# Testcase cp_rd (Test destination rd = x4)
  RVTEST_TESTDATA_LOAD_INT(x25, x5) # load rs1: x5 = 0x3610dac3
     57c:	000ca283          	lw	x5,0(x25)
     580:	004c8c93          	addi	x25,x25,4

00000584 <I_andi_cg_cp_rd_b4>:
I_andi_cg_cp_rd_b4:
  andi x4, x5, 61 # perform operation
     584:	03d2f213          	andi	x4,x5,61
  # Check if x4 contains the expected result. x19 is the signature ptr, x14 is the link ptr, x13 is a temp reg.
  RVTEST_SIGUPD(x19, x14, x13, x4, I_andi_cg_cp_rd_b4, I_andi_cg_cp_rd_b4_str)
     588:	0009a683          	lw	x13,0(x19)
     58c:	00468863          	beq	x13,x4,59c <I_andi_cg_cp_rd_b4+0x18>
     590:	76d0276f          	jal	x14,34fc <failedtest_x14_x13>
     594:	00000584          	.word	0x00000584
     598:	00008d75          	.word	0x00008d75
     59c:	00498993          	addi	x19,x19,4

# Testcase cp_rd (Test destination rd = x5)
  RVTEST_TESTDATA_LOAD_INT(x25, x7) # load rs1: x7 = 0x8ea0d775
     5a0:	000ca383          	lw	x7,0(x25)
     5a4:	004c8c93          	addi	x25,x25,4

000005a8 <I_andi_cg_cp_rd_b5>:
I_andi_cg_cp_rd_b5:
  andi x5, x7, 1440 # perform operation
     5a8:	5a03f293          	andi	x5,x7,1440
  # Check if x5 contains the expected result. x19 is the signature ptr, x14 is the link ptr, x13 is a temp reg.
  RVTEST_SIGUPD(x19, x14, x13, x5, I_andi_cg_cp_rd_b5, I_andi_cg_cp_rd_b5_str)
     5ac:	0009a683          	lw	x13,0(x19)
     5b0:	00568863          	beq	x13,x5,5c0 <I_andi_cg_cp_rd_b5+0x18>
     5b4:	7490276f          	jal	x14,34fc <failedtest_x14_x13>
     5b8:	000005a8          	.word	0x000005a8
     5bc:	00008da3          	.word	0x00008da3
     5c0:	00498993          	addi	x19,x19,4

# Testcase cp_rd (Test destination rd = x6)
  RVTEST_TESTDATA_LOAD_INT(x25, x18) # load rs1: x18 = 0x31e0640a
     5c4:	000ca903          	lw	x18,0(x25)
     5c8:	004c8c93          	addi	x25,x25,4

000005cc <I_andi_cg_cp_rd_b6>:
I_andi_cg_cp_rd_b6:
  andi x6, x18, 743 # perform operation
     5cc:	2e797313          	andi	x6,x18,743
  # Check if x6 contains the expected result. x19 is the signature ptr, x14 is the link ptr, x13 is a temp reg.
  RVTEST_SIGUPD(x19, x14, x13, x6, I_andi_cg_cp_rd_b6, I_andi_cg_cp_rd_b6_str)
     5d0:	0009a683          	lw	x13,0(x19)
     5d4:	00668863          	beq	x13,x6,5e4 <I_andi_cg_cp_rd_b6+0x18>
     5d8:	7250276f          	jal	x14,34fc <failedtest_x14_x13>
     5dc:	000005cc          	.word	0x000005cc
     5e0:	00008dd1          	.word	0x00008dd1
     5e4:	00498993          	addi	x19,x19,4

# Testcase cp_rd (Test destination rd = x7)
  RVTEST_TESTDATA_LOAD_INT(x25, x26) # load rs1: x26 = 0xe993731c
     5e8:	000cad03          	lw	x26,0(x25)
     5ec:	004c8c93          	addi	x25,x25,4

000005f0 <I_andi_cg_cp_rd_b7>:
I_andi_cg_cp_rd_b7:
  andi x7, x26, -1689 # perform operation
     5f0:	967d7393          	andi	x7,x26,-1689
  # Check if x7 contains the expected result. x19 is the signature ptr, x14 is the link ptr, x13 is a temp reg.
  RVTEST_SIGUPD(x19, x14, x13, x7, I_andi_cg_cp_rd_b7, I_andi_cg_cp_rd_b7_str)
     5f4:	0009a683          	lw	x13,0(x19)
     5f8:	00768863          	beq	x13,x7,608 <I_andi_cg_cp_rd_b7+0x18>
     5fc:	7010276f          	jal	x14,34fc <failedtest_x14_x13>
     600:	000005f0          	.word	0x000005f0
     604:	00008dff          	.word	0x00008dff
     608:	00498993          	addi	x19,x19,4

# Testcase cp_rd (Test destination rd = x8)
  RVTEST_TESTDATA_LOAD_INT(x25, x26) # load rs1: x26 = 0xe13a145f
     60c:	000cad03          	lw	x26,0(x25)
     610:	004c8c93          	addi	x25,x25,4

00000614 <I_andi_cg_cp_rd_b8>:
I_andi_cg_cp_rd_b8:
  andi x8, x26, -547 # perform operation
     614:	dddd7413          	andi	x8,x26,-547
  # Check if x8 contains the expected result. x19 is the signature ptr, x14 is the link ptr, x13 is a temp reg.
  RVTEST_SIGUPD(x19, x14, x13, x8, I_andi_cg_cp_rd_b8, I_andi_cg_cp_rd_b8_str)
     618:	0009a683          	lw	x13,0(x19)
     61c:	00868863          	beq	x13,x8,62c <I_andi_cg_cp_rd_b8+0x18>
     620:	6dd0276f          	jal	x14,34fc <failedtest_x14_x13>
     624:	00000614          	.word	0x00000614
     628:	00008e2d          	.word	0x00008e2d
     62c:	00498993          	addi	x19,x19,4

# Testcase cp_rd (Test destination rd = x9)
  RVTEST_TESTDATA_LOAD_INT(x25, x6) # load rs1: x6 = 0x5a9dc17a
     630:	000ca303          	lw	x6,0(x25)
     634:	004c8c93          	addi	x25,x25,4

00000638 <I_andi_cg_cp_rd_b9>:
I_andi_cg_cp_rd_b9:
  andi x9, x6, -168 # perform operation
     638:	f5837493          	andi	x9,x6,-168
  # Check if x9 contains the expected result. x19 is the signature ptr, x14 is the link ptr, x13 is a temp reg.
  RVTEST_SIGUPD(x19, x14, x13, x9, I_andi_cg_cp_rd_b9, I_andi_cg_cp_rd_b9_str)
     63c:	0009a683          	lw	x13,0(x19)
     640:	00968863          	beq	x13,x9,650 <I_andi_cg_cp_rd_b9+0x18>
     644:	6b90276f          	jal	x14,34fc <failedtest_x14_x13>
     648:	00000638          	.word	0x00000638
     64c:	00008e5b          	.word	0x00008e5b
     650:	00498993          	addi	x19,x19,4

# Testcase cp_rd (Test destination rd = x10)
  RVTEST_TESTDATA_LOAD_INT(x25, x2) # load rs1: x2 = 0x3985fb4f
     654:	000ca103          	lw	x2,0(x25)
     658:	004c8c93          	addi	x25,x25,4

0000065c <I_andi_cg_cp_rd_b10>:
I_andi_cg_cp_rd_b10:
  andi x10, x2, -949 # perform operation
     65c:	c4b17513          	andi	x10,x2,-949
  # Check if x10 contains the expected result. x19 is the signature ptr, x14 is the link ptr, x13 is a temp reg.
  RVTEST_SIGUPD(x19, x14, x13, x10, I_andi_cg_cp_rd_b10, I_andi_cg_cp_rd_b10_str)
     660:	0009a683          	lw	x13,0(x19)
     664:	00a68863          	beq	x13,x10,674 <I_andi_cg_cp_rd_b10+0x18>
     668:	6950276f          	jal	x14,34fc <failedtest_x14_x13>
     66c:	0000065c          	.word	0x0000065c
     670:	00008e89          	.word	0x00008e89
     674:	00498993          	addi	x19,x19,4

# Testcase cp_rd (Test destination rd = x11)
  RVTEST_TESTDATA_LOAD_INT(x25, x29) # load rs1: x29 = 0xa04c5abb
     678:	000cae83          	lw	x29,0(x25)
     67c:	004c8c93          	addi	x25,x25,4

00000680 <I_andi_cg_cp_rd_b11>:
I_andi_cg_cp_rd_b11:
  andi x11, x29, 815 # perform operation
     680:	32fef593          	andi	x11,x29,815
  # Check if x11 contains the expected result. x19 is the signature ptr, x14 is the link ptr, x13 is a temp reg.
  RVTEST_SIGUPD(x19, x14, x13, x11, I_andi_cg_cp_rd_b11, I_andi_cg_cp_rd_b11_str)
     684:	0009a683          	lw	x13,0(x19)
     688:	00b68863          	beq	x13,x11,698 <I_andi_cg_cp_rd_b11+0x18>
     68c:	6710276f          	jal	x14,34fc <failedtest_x14_x13>
     690:	00000680          	.word	0x00000680
     694:	00008eb8          	.word	0x00008eb8
     698:	00498993          	addi	x19,x19,4

# Testcase cp_rd (Test destination rd = x12)
  RVTEST_TESTDATA_LOAD_INT(x25, x27) # load rs1: x27 = 0x916de3ce
     69c:	000cad83          	lw	x27,0(x25)
     6a0:	004c8c93          	addi	x25,x25,4

000006a4 <I_andi_cg_cp_rd_b12>:
I_andi_cg_cp_rd_b12:
  andi x12, x27, 1925 # perform operation
     6a4:	785df613          	andi	x12,x27,1925
  # Check if x12 contains the expected result. x19 is the signature ptr, x14 is the link ptr, x13 is a temp reg.
  RVTEST_SIGUPD(x19, x14, x13, x12, I_andi_cg_cp_rd_b12, I_andi_cg_cp_rd_b12_str)
     6a8:	0009a683          	lw	x13,0(x19)
     6ac:	00c68863          	beq	x13,x12,6bc <I_andi_cg_cp_rd_b12+0x18>
     6b0:	64d0276f          	jal	x14,34fc <failedtest_x14_x13>
     6b4:	000006a4          	.word	0x000006a4
     6b8:	00008ee7          	.word	0x00008ee7
     6bc:	00498993          	addi	x19,x19,4

  mv x4, x13 # switch temp register to avoid conflict with test
     6c0:	00068213          	addi	x4,x13,0
  mv x5, x14 # switch link pointer register to avoid conflict with test
     6c4:	00070293          	addi	x5,x14,0
# Testcase cp_rd (Test destination rd = x13)
  RVTEST_TESTDATA_LOAD_INT(x25, x15) # load rs1: x15 = 0x7d709123
     6c8:	000ca783          	lw	x15,0(x25)
     6cc:	004c8c93          	addi	x25,x25,4

000006d0 <I_andi_cg_cp_rd_b13>:
I_andi_cg_cp_rd_b13:
  andi x13, x15, 1580 # perform operation
     6d0:	62c7f693          	andi	x13,x15,1580
  # Check if x13 contains the expected result. x19 is the signature ptr, x5 is the link ptr, x4 is a temp reg.
  RVTEST_SIGUPD(x19, x5, x4, x13, I_andi_cg_cp_rd_b13, I_andi_cg_cp_rd_b13_str)
     6d4:	0009a203          	lw	x4,0(x19)
     6d8:	00d20863          	beq	x4,x13,6e8 <I_andi_cg_cp_rd_b13+0x18>
     6dc:	5e1022ef          	jal	x5,34bc <failedtest_x5_x4>
     6e0:	000006d0          	.word	0x000006d0
     6e4:	00008f16          	.word	0x00008f16
     6e8:	00498993          	addi	x19,x19,4

# Testcase cp_rd (Test destination rd = x14)
  RVTEST_TESTDATA_LOAD_INT(x25, x21) # load rs1: x21 = 0x5bc036ee
     6ec:	000caa83          	lw	x21,0(x25)
     6f0:	004c8c93          	addi	x25,x25,4

000006f4 <I_andi_cg_cp_rd_b14>:
I_andi_cg_cp_rd_b14:
  andi x14, x21, -571 # perform operation
     6f4:	dc5af713          	andi	x14,x21,-571
  # Check if x14 contains the expected result. x19 is the signature ptr, x5 is the link ptr, x4 is a temp reg.
  RVTEST_SIGUPD(x19, x5, x4, x14, I_andi_cg_cp_rd_b14, I_andi_cg_cp_rd_b14_str)
     6f8:	0009a203          	lw	x4,0(x19)
     6fc:	00e20863          	beq	x4,x14,70c <I_andi_cg_cp_rd_b14+0x18>
     700:	5bd022ef          	jal	x5,34bc <failedtest_x5_x4>
     704:	000006f4          	.word	0x000006f4
     708:	00008f45          	.word	0x00008f45
     70c:	00498993          	addi	x19,x19,4

# Testcase cp_rd (Test destination rd = x15)
  RVTEST_TESTDATA_LOAD_INT(x25, x13) # load rs1: x13 = 0x9d353c38
     710:	000ca683          	lw	x13,0(x25)
     714:	004c8c93          	addi	x25,x25,4

00000718 <I_andi_cg_cp_rd_b15>:
I_andi_cg_cp_rd_b15:
  andi x15, x13, 1761 # perform operation
     718:	6e16f793          	andi	x15,x13,1761
  # Check if x15 contains the expected result. x19 is the signature ptr, x5 is the link ptr, x4 is a temp reg.
  RVTEST_SIGUPD(x19, x5, x4, x15, I_andi_cg_cp_rd_b15, I_andi_cg_cp_rd_b15_str)
     71c:	0009a203          	lw	x4,0(x19)
     720:	00f20863          	beq	x4,x15,730 <I_andi_cg_cp_rd_b15+0x18>
     724:	599022ef          	jal	x5,34bc <failedtest_x5_x4>
     728:	00000718          	.word	0x00000718
     72c:	00008f74          	.word	0x00008f74
     730:	00498993          	addi	x19,x19,4

# Testcase cp_rd (Test destination rd = x16)
  RVTEST_TESTDATA_LOAD_INT(x25, x22) # load rs1: x22 = 0x2161d5b7
     734:	000cab03          	lw	x22,0(x25)
     738:	004c8c93          	addi	x25,x25,4

0000073c <I_andi_cg_cp_rd_b16>:
I_andi_cg_cp_rd_b16:
  andi x16, x22, 1988 # perform operation
     73c:	7c4b7813          	andi	x16,x22,1988
  # Check if x16 contains the expected result. x19 is the signature ptr, x5 is the link ptr, x4 is a temp reg.
  RVTEST_SIGUPD(x19, x5, x4, x16, I_andi_cg_cp_rd_b16, I_andi_cg_cp_rd_b16_str)
     740:	0009a203          	lw	x4,0(x19)
     744:	01020863          	beq	x4,x16,754 <I_andi_cg_cp_rd_b16+0x18>
     748:	575022ef          	jal	x5,34bc <failedtest_x5_x4>
     74c:	0000073c          	.word	0x0000073c
     750:	00008fa3          	.word	0x00008fa3
     754:	00498993          	addi	x19,x19,4

# Testcase cp_rd (Test destination rd = x17)
  RVTEST_TESTDATA_LOAD_INT(x25, x29) # load rs1: x29 = 0xd0352104
     758:	000cae83          	lw	x29,0(x25)
     75c:	004c8c93          	addi	x25,x25,4

00000760 <I_andi_cg_cp_rd_b17>:
I_andi_cg_cp_rd_b17:
  andi x17, x29, 181 # perform operation
     760:	0b5ef893          	andi	x17,x29,181
  # Check if x17 contains the expected result. x19 is the signature ptr, x5 is the link ptr, x4 is a temp reg.
  RVTEST_SIGUPD(x19, x5, x4, x17, I_andi_cg_cp_rd_b17, I_andi_cg_cp_rd_b17_str)
     764:	0009a203          	lw	x4,0(x19)
     768:	01120863          	beq	x4,x17,778 <I_andi_cg_cp_rd_b17+0x18>
     76c:	551022ef          	jal	x5,34bc <failedtest_x5_x4>
     770:	00000760          	.word	0x00000760
     774:	00008fd2          	.word	0x00008fd2
     778:	00498993          	addi	x19,x19,4

# Testcase cp_rd (Test destination rd = x18)
  RVTEST_TESTDATA_LOAD_INT(x25, x16) # load rs1: x16 = 0xe8e6af50
     77c:	000ca803          	lw	x16,0(x25)
     780:	004c8c93          	addi	x25,x25,4

00000784 <I_andi_cg_cp_rd_b18>:
I_andi_cg_cp_rd_b18:
  andi x18, x16, 187 # perform operation
     784:	0bb87913          	andi	x18,x16,187
  # Check if x18 contains the expected result. x19 is the signature ptr, x5 is the link ptr, x4 is a temp reg.
  RVTEST_SIGUPD(x19, x5, x4, x18, I_andi_cg_cp_rd_b18, I_andi_cg_cp_rd_b18_str)
     788:	0009a203          	lw	x4,0(x19)
     78c:	01220863          	beq	x4,x18,79c <I_andi_cg_cp_rd_b18+0x18>
     790:	52d022ef          	jal	x5,34bc <failedtest_x5_x4>
     794:	00000784          	.word	0x00000784
     798:	00009001          	.word	0x00009001
     79c:	00498993          	addi	x19,x19,4

  mv x10, x19 # switch signature pointer register to avoid conflict with test
     7a0:	00098513          	addi	x10,x19,0
# Testcase cp_rd (Test destination rd = x19)
  RVTEST_TESTDATA_LOAD_INT(x25, x0) # load rs1: x0 = 0xe65e19e5
     7a4:	000ca003          	lw	x0,0(x25)
     7a8:	004c8c93          	addi	x25,x25,4

000007ac <I_andi_cg_cp_rd_b19>:
I_andi_cg_cp_rd_b19:
  andi x19, x0, 776 # perform operation
     7ac:	30807993          	andi	x19,x0,776
  # Check if x19 contains the expected result. x10 is the signature ptr, x5 is the link ptr, x4 is a temp reg.
  RVTEST_SIGUPD(x10, x5, x4, x19, I_andi_cg_cp_rd_b19, I_andi_cg_cp_rd_b19_str)
     7b0:	00052203          	lw	x4,0(x10)
     7b4:	01320863          	beq	x4,x19,7c4 <I_andi_cg_cp_rd_b19+0x18>
     7b8:	505022ef          	jal	x5,34bc <failedtest_x5_x4>
     7bc:	000007ac          	.word	0x000007ac
     7c0:	00009030          	.word	0x00009030
     7c4:	00450513          	addi	x10,x10,4

# Testcase cp_rd (Test destination rd = x20)
  RVTEST_TESTDATA_LOAD_INT(x25, x11) # load rs1: x11 = 0xdb15f3bf
     7c8:	000ca583          	lw	x11,0(x25)
     7cc:	004c8c93          	addi	x25,x25,4

000007d0 <I_andi_cg_cp_rd_b20>:
I_andi_cg_cp_rd_b20:
  andi x20, x11, 1036 # perform operation
     7d0:	40c5fa13          	andi	x20,x11,1036
  # Check if x20 contains the expected result. x10 is the signature ptr, x5 is the link ptr, x4 is a temp reg.
  RVTEST_SIGUPD(x10, x5, x4, x20, I_andi_cg_cp_rd_b20, I_andi_cg_cp_rd_b20_str)
     7d4:	00052203          	lw	x4,0(x10)
     7d8:	01420863          	beq	x4,x20,7e8 <I_andi_cg_cp_rd_b20+0x18>
     7dc:	4e1022ef          	jal	x5,34bc <failedtest_x5_x4>
     7e0:	000007d0          	.word	0x000007d0
     7e4:	0000905f          	.word	0x0000905f
     7e8:	00450513          	addi	x10,x10,4

# Testcase cp_rd (Test destination rd = x21)
  RVTEST_TESTDATA_LOAD_INT(x25, x1) # load rs1: x1 = 0x2a3c1351
     7ec:	000ca083          	lw	x1,0(x25)
     7f0:	004c8c93          	addi	x25,x25,4

000007f4 <I_andi_cg_cp_rd_b21>:
I_andi_cg_cp_rd_b21:
  andi x21, x1, 1552 # perform operation
     7f4:	6100fa93          	andi	x21,x1,1552
  # Check if x21 contains the expected result. x10 is the signature ptr, x5 is the link ptr, x4 is a temp reg.
  RVTEST_SIGUPD(x10, x5, x4, x21, I_andi_cg_cp_rd_b21, I_andi_cg_cp_rd_b21_str)
     7f8:	00052203          	lw	x4,0(x10)
     7fc:	01520863          	beq	x4,x21,80c <I_andi_cg_cp_rd_b21+0x18>
     800:	4bd022ef          	jal	x5,34bc <failedtest_x5_x4>
     804:	000007f4          	.word	0x000007f4
     808:	0000908e          	.word	0x0000908e
     80c:	00450513          	addi	x10,x10,4

# Testcase cp_rd (Test destination rd = x22)
  RVTEST_TESTDATA_LOAD_INT(x25, x21) # load rs1: x21 = 0x27cf92d2
     810:	000caa83          	lw	x21,0(x25)
     814:	004c8c93          	addi	x25,x25,4

00000818 <I_andi_cg_cp_rd_b22>:
I_andi_cg_cp_rd_b22:
  andi x22, x21, -915 # perform operation
     818:	c6dafb13          	andi	x22,x21,-915
  # Check if x22 contains the expected result. x10 is the signature ptr, x5 is the link ptr, x4 is a temp reg.
  RVTEST_SIGUPD(x10, x5, x4, x22, I_andi_cg_cp_rd_b22, I_andi_cg_cp_rd_b22_str)
     81c:	00052203          	lw	x4,0(x10)
     820:	01620863          	beq	x4,x22,830 <I_andi_cg_cp_rd_b22+0x18>
     824:	499022ef          	jal	x5,34bc <failedtest_x5_x4>
     828:	00000818          	.word	0x00000818
     82c:	000090bd          	.word	0x000090bd
     830:	00450513          	addi	x10,x10,4

# Testcase cp_rd (Test destination rd = x23)
  RVTEST_TESTDATA_LOAD_INT(x25, x8) # load rs1: x8 = 0x6b2950cb
     834:	000ca403          	lw	x8,0(x25)
     838:	004c8c93          	addi	x25,x25,4

0000083c <I_andi_cg_cp_rd_b23>:
I_andi_cg_cp_rd_b23:
  andi x23, x8, 424 # perform operation
     83c:	1a847b93          	andi	x23,x8,424
  # Check if x23 contains the expected result. x10 is the signature ptr, x5 is the link ptr, x4 is a temp reg.
  RVTEST_SIGUPD(x10, x5, x4, x23, I_andi_cg_cp_rd_b23, I_andi_cg_cp_rd_b23_str)
     840:	00052203          	lw	x4,0(x10)
     844:	01720863          	beq	x4,x23,854 <I_andi_cg_cp_rd_b23+0x18>
     848:	475022ef          	jal	x5,34bc <failedtest_x5_x4>
     84c:	0000083c          	.word	0x0000083c
     850:	000090ec          	.word	0x000090ec
     854:	00450513          	addi	x10,x10,4

# Testcase cp_rd (Test destination rd = x24)
  RVTEST_TESTDATA_LOAD_INT(x25, x16) # load rs1: x16 = 0x63994844
     858:	000ca803          	lw	x16,0(x25)
     85c:	004c8c93          	addi	x25,x25,4

00000860 <I_andi_cg_cp_rd_b24>:
I_andi_cg_cp_rd_b24:
  andi x24, x16, -1594 # perform operation
     860:	9c687c13          	andi	x24,x16,-1594
  # Check if x24 contains the expected result. x10 is the signature ptr, x5 is the link ptr, x4 is a temp reg.
  RVTEST_SIGUPD(x10, x5, x4, x24, I_andi_cg_cp_rd_b24, I_andi_cg_cp_rd_b24_str)
     864:	00052203          	lw	x4,0(x10)
     868:	01820863          	beq	x4,x24,878 <I_andi_cg_cp_rd_b24+0x18>
     86c:	451022ef          	jal	x5,34bc <failedtest_x5_x4>
     870:	00000860          	.word	0x00000860
     874:	0000911b          	.word	0x0000911b
     878:	00450513          	addi	x10,x10,4

  mv x23, x25 # switch data pointer register to avoid conflict with test
     87c:	000c8b93          	addi	x23,x25,0
# Testcase cp_rd (Test destination rd = x25)
  RVTEST_TESTDATA_LOAD_INT(x23, x27) # load rs1: x27 = 0x3cd433b9
     880:	000bad83          	lw	x27,0(x23)
     884:	004b8b93          	addi	x23,x23,4

00000888 <I_andi_cg_cp_rd_b25>:
I_andi_cg_cp_rd_b25:
  andi x25, x27, -1237 # perform operation
     888:	b2bdfc93          	andi	x25,x27,-1237
  # Check if x25 contains the expected result. x10 is the signature ptr, x5 is the link ptr, x4 is a temp reg.
  RVTEST_SIGUPD(x10, x5, x4, x25, I_andi_cg_cp_rd_b25, I_andi_cg_cp_rd_b25_str)
     88c:	00052203          	lw	x4,0(x10)
     890:	01920863          	beq	x4,x25,8a0 <I_andi_cg_cp_rd_b25+0x18>
     894:	429022ef          	jal	x5,34bc <failedtest_x5_x4>
     898:	00000888          	.word	0x00000888
     89c:	0000914a          	.word	0x0000914a
     8a0:	00450513          	addi	x10,x10,4

# Testcase cp_rd (Test destination rd = x26)
  RVTEST_TESTDATA_LOAD_INT(x23, x8) # load rs1: x8 = 0xbeb090ca
     8a4:	000ba403          	lw	x8,0(x23)
     8a8:	004b8b93          	addi	x23,x23,4

000008ac <I_andi_cg_cp_rd_b26>:
I_andi_cg_cp_rd_b26:
  andi x26, x8, -186 # perform operation
     8ac:	f4647d13          	andi	x26,x8,-186
  # Check if x26 contains the expected result. x10 is the signature ptr, x5 is the link ptr, x4 is a temp reg.
  RVTEST_SIGUPD(x10, x5, x4, x26, I_andi_cg_cp_rd_b26, I_andi_cg_cp_rd_b26_str)
     8b0:	00052203          	lw	x4,0(x10)
     8b4:	01a20863          	beq	x4,x26,8c4 <I_andi_cg_cp_rd_b26+0x18>
     8b8:	405022ef          	jal	x5,34bc <failedtest_x5_x4>
     8bc:	000008ac          	.word	0x000008ac
     8c0:	00009179          	.word	0x00009179
     8c4:	00450513          	addi	x10,x10,4

# Testcase cp_rd (Test destination rd = x27)
  RVTEST_TESTDATA_LOAD_INT(x23, x6) # load rs1: x6 = 0xd27a566c
     8c8:	000ba303          	lw	x6,0(x23)
     8cc:	004b8b93          	addi	x23,x23,4

000008d0 <I_andi_cg_cp_rd_b27>:
I_andi_cg_cp_rd_b27:
  andi x27, x6, 1270 # perform operation
     8d0:	4f637d93          	andi	x27,x6,1270
  # Check if x27 contains the expected result. x10 is the signature ptr, x5 is the link ptr, x4 is a temp reg.
  RVTEST_SIGUPD(x10, x5, x4, x27, I_andi_cg_cp_rd_b27, I_andi_cg_cp_rd_b27_str)
     8d4:	00052203          	lw	x4,0(x10)
     8d8:	01b20863          	beq	x4,x27,8e8 <I_andi_cg_cp_rd_b27+0x18>
     8dc:	3e1022ef          	jal	x5,34bc <failedtest_x5_x4>
     8e0:	000008d0          	.word	0x000008d0
     8e4:	000091a8          	.word	0x000091a8
     8e8:	00450513          	addi	x10,x10,4

# Testcase cp_rd (Test destination rd = x28)
  RVTEST_TESTDATA_LOAD_INT(x23, x20) # load rs1: x20 = 0xbafb94d1
     8ec:	000baa03          	lw	x20,0(x23)
     8f0:	004b8b93          	addi	x23,x23,4

000008f4 <I_andi_cg_cp_rd_b28>:
I_andi_cg_cp_rd_b28:
  andi x28, x20, -1182 # perform operation
     8f4:	b62a7e13          	andi	x28,x20,-1182
  # Check if x28 contains the expected result. x10 is the signature ptr, x5 is the link ptr, x4 is a temp reg.
  RVTEST_SIGUPD(x10, x5, x4, x28, I_andi_cg_cp_rd_b28, I_andi_cg_cp_rd_b28_str)
     8f8:	00052203          	lw	x4,0(x10)
     8fc:	01c20863          	beq	x4,x28,90c <I_andi_cg_cp_rd_b28+0x18>
     900:	3bd022ef          	jal	x5,34bc <failedtest_x5_x4>
     904:	000008f4          	.word	0x000008f4
     908:	000091d7          	.word	0x000091d7
     90c:	00450513          	addi	x10,x10,4

# Testcase cp_rd (Test destination rd = x29)
  RVTEST_TESTDATA_LOAD_INT(x23, x2) # load rs1: x2 = 0x0376ea16
     910:	000ba103          	lw	x2,0(x23)
     914:	004b8b93          	addi	x23,x23,4

00000918 <I_andi_cg_cp_rd_b29>:
I_andi_cg_cp_rd_b29:
  andi x29, x2, 1 # perform operation
     918:	00117e93          	andi	x29,x2,1
  # Check if x29 contains the expected result. x10 is the signature ptr, x5 is the link ptr, x4 is a temp reg.
  RVTEST_SIGUPD(x10, x5, x4, x29, I_andi_cg_cp_rd_b29, I_andi_cg_cp_rd_b29_str)
     91c:	00052203          	lw	x4,0(x10)
     920:	01d20863          	beq	x4,x29,930 <I_andi_cg_cp_rd_b29+0x18>
     924:	399022ef          	jal	x5,34bc <failedtest_x5_x4>
     928:	00000918          	.word	0x00000918
     92c:	00009206          	.word	0x00009206
     930:	00450513          	addi	x10,x10,4

# Testcase cp_rd (Test destination rd = x30)
  RVTEST_TESTDATA_LOAD_INT(x23, x24) # load rs1: x24 = 0x92e3cb73
     934:	000bac03          	lw	x24,0(x23)
     938:	004b8b93          	addi	x23,x23,4

0000093c <I_andi_cg_cp_rd_b30>:
I_andi_cg_cp_rd_b30:
  andi x30, x24, -1442 # perform operation
     93c:	a5ec7f13          	andi	x30,x24,-1442
  # Check if x30 contains the expected result. x10 is the signature ptr, x5 is the link ptr, x4 is a temp reg.
  RVTEST_SIGUPD(x10, x5, x4, x30, I_andi_cg_cp_rd_b30, I_andi_cg_cp_rd_b30_str)
     940:	00052203          	lw	x4,0(x10)
     944:	01e20863          	beq	x4,x30,954 <I_andi_cg_cp_rd_b30+0x18>
     948:	375022ef          	jal	x5,34bc <failedtest_x5_x4>
     94c:	0000093c          	.word	0x0000093c
     950:	00009235          	.word	0x00009235
     954:	00450513          	addi	x10,x10,4

# Testcase cp_rd (Test destination rd = x31)
  RVTEST_TESTDATA_LOAD_INT(x23, x0) # load rs1: x0 = 0x059e52e4
     958:	000ba003          	lw	x0,0(x23)
     95c:	004b8b93          	addi	x23,x23,4

00000960 <I_andi_cg_cp_rd_b31>:
I_andi_cg_cp_rd_b31:
  andi x31, x0, 760 # perform operation
     960:	2f807f93          	andi	x31,x0,760
  # Check if x31 contains the expected result. x10 is the signature ptr, x5 is the link ptr, x4 is a temp reg.
  RVTEST_SIGUPD(x10, x5, x4, x31, I_andi_cg_cp_rd_b31, I_andi_cg_cp_rd_b31_str)
     964:	00052203          	lw	x4,0(x10)
     968:	01f20863          	beq	x4,x31,978 <I_andi_cg_cp_rd_b31+0x18>
     96c:	351022ef          	jal	x5,34bc <failedtest_x5_x4>
     970:	00000960          	.word	0x00000960
     974:	00009264          	.word	0x00009264
     978:	00450513          	addi	x10,x10,4
/////////////////////////////////
// cp_rs1_edges
/////////////////////////////////

# Testcase cp_rs1_edges (Test source rs1 value = 0x00000000)
  RVTEST_TESTDATA_LOAD_INT(x23, x8) # load rs1: x8 = 0x00000000
     97c:	000ba403          	lw	x8,0(x23)
     980:	004b8b93          	addi	x23,x23,4

00000984 <I_andi_cg_cp_rs1_edges_0x0>:
I_andi_cg_cp_rs1_edges_0x0:
  andi x29, x8, -1547 # perform operation
     984:	9f547e93          	andi	x29,x8,-1547
  # Check if x29 contains the expected result. x10 is the signature ptr, x5 is the link ptr, x4 is a temp reg.
  RVTEST_SIGUPD(x10, x5, x4, x29, I_andi_cg_cp_rs1_edges_0x0, I_andi_cg_cp_rs1_edges_0x0_str)
     988:	00052203          	lw	x4,0(x10)
     98c:	01d20863          	beq	x4,x29,99c <I_andi_cg_cp_rs1_edges_0x0+0x18>
     990:	32d022ef          	jal	x5,34bc <failedtest_x5_x4>
     994:	00000984          	.word	0x00000984
     998:	00009293          	.word	0x00009293
     99c:	00450513          	addi	x10,x10,4

# Testcase cp_rs1_edges (Test source rs1 value = 0x00000001)
  RVTEST_TESTDATA_LOAD_INT(x23, x16) # load rs1: x16 = 0x00000001
     9a0:	000ba803          	lw	x16,0(x23)
     9a4:	004b8b93          	addi	x23,x23,4

000009a8 <I_andi_cg_cp_rs1_edges_0x1>:
I_andi_cg_cp_rs1_edges_0x1:
  andi x14, x16, 1037 # perform operation
     9a8:	40d87713          	andi	x14,x16,1037
  # Check if x14 contains the expected result. x10 is the signature ptr, x5 is the link ptr, x4 is a temp reg.
  RVTEST_SIGUPD(x10, x5, x4, x14, I_andi_cg_cp_rs1_edges_0x1, I_andi_cg_cp_rs1_edges_0x1_str)
     9ac:	00052203          	lw	x4,0(x10)
     9b0:	00e20863          	beq	x4,x14,9c0 <I_andi_cg_cp_rs1_edges_0x1+0x18>
     9b4:	309022ef          	jal	x5,34bc <failedtest_x5_x4>
     9b8:	000009a8          	.word	0x000009a8
     9bc:	000092c9          	.word	0x000092c9
     9c0:	00450513          	addi	x10,x10,4

# Testcase cp_rs1_edges (Test source rs1 value = 0x00000002)
  RVTEST_TESTDATA_LOAD_INT(x23, x8) # load rs1: x8 = 0x00000002
     9c4:	000ba403          	lw	x8,0(x23)
     9c8:	004b8b93          	addi	x23,x23,4

000009cc <I_andi_cg_cp_rs1_edges_0x2>:
I_andi_cg_cp_rs1_edges_0x2:
  andi x3, x8, -530 # perform operation
     9cc:	dee47193          	andi	x3,x8,-530
  # Check if x3 contains the expected result. x10 is the signature ptr, x5 is the link ptr, x4 is a temp reg.
  RVTEST_SIGUPD(x10, x5, x4, x3, I_andi_cg_cp_rs1_edges_0x2, I_andi_cg_cp_rs1_edges_0x2_str)
     9d0:	00052203          	lw	x4,0(x10)
     9d4:	00320863          	beq	x4,x3,9e4 <I_andi_cg_cp_rs1_edges_0x2+0x18>
     9d8:	2e5022ef          	jal	x5,34bc <failedtest_x5_x4>
     9dc:	000009cc          	.word	0x000009cc
     9e0:	000092ff          	.word	0x000092ff
     9e4:	00450513          	addi	x10,x10,4

# Testcase cp_rs1_edges (Test source rs1 value = 0x80000000)
  RVTEST_TESTDATA_LOAD_INT(x23, x18) # load rs1: x18 = 0x80000000
     9e8:	000ba903          	lw	x18,0(x23)
     9ec:	004b8b93          	addi	x23,x23,4

000009f0 <I_andi_cg_cp_rs1_edges_0x80000000>:
I_andi_cg_cp_rs1_edges_0x80000000:
  andi x24, x18, 1330 # perform operation
     9f0:	53297c13          	andi	x24,x18,1330
  # Check if x24 contains the expected result. x10 is the signature ptr, x5 is the link ptr, x4 is a temp reg.
  RVTEST_SIGUPD(x10, x5, x4, x24, I_andi_cg_cp_rs1_edges_0x80000000, I_andi_cg_cp_rs1_edges_0x80000000_str)
     9f4:	00052203          	lw	x4,0(x10)
     9f8:	01820863          	beq	x4,x24,a08 <I_andi_cg_cp_rs1_edges_0x80000000+0x18>
     9fc:	2c1022ef          	jal	x5,34bc <failedtest_x5_x4>
     a00:	000009f0          	.word	0x000009f0
     a04:	00009335          	.word	0x00009335
     a08:	00450513          	addi	x10,x10,4

# Testcase cp_rs1_edges (Test source rs1 value = 0x80000001)
  RVTEST_TESTDATA_LOAD_INT(x23, x11) # load rs1: x11 = 0x80000001
     a0c:	000ba583          	lw	x11,0(x23)
     a10:	004b8b93          	addi	x23,x23,4

00000a14 <I_andi_cg_cp_rs1_edges_0x80000001>:
I_andi_cg_cp_rs1_edges_0x80000001:
  andi x27, x11, 685 # perform operation
     a14:	2ad5fd93          	andi	x27,x11,685
  # Check if x27 contains the expected result. x10 is the signature ptr, x5 is the link ptr, x4 is a temp reg.
  RVTEST_SIGUPD(x10, x5, x4, x27, I_andi_cg_cp_rs1_edges_0x80000001, I_andi_cg_cp_rs1_edges_0x80000001_str)
     a18:	00052203          	lw	x4,0(x10)
     a1c:	01b20863          	beq	x4,x27,a2c <I_andi_cg_cp_rs1_edges_0x80000001+0x18>
     a20:	29d022ef          	jal	x5,34bc <failedtest_x5_x4>
     a24:	00000a14          	.word	0x00000a14
     a28:	00009372          	.word	0x00009372
     a2c:	00450513          	addi	x10,x10,4

# Testcase cp_rs1_edges (Test source rs1 value = 0x7fffffff)
  RVTEST_TESTDATA_LOAD_INT(x23, x3) # load rs1: x3 = 0x7fffffff
     a30:	000ba183          	lw	x3,0(x23)
     a34:	004b8b93          	addi	x23,x23,4

00000a38 <I_andi_cg_cp_rs1_edges_0x7fffffff>:
I_andi_cg_cp_rs1_edges_0x7fffffff:
  andi x2, x3, 1547 # perform operation
     a38:	60b1f113          	andi	x2,x3,1547
  # Check if x2 contains the expected result. x10 is the signature ptr, x5 is the link ptr, x4 is a temp reg.
  RVTEST_SIGUPD(x10, x5, x4, x2, I_andi_cg_cp_rs1_edges_0x7fffffff, I_andi_cg_cp_rs1_edges_0x7fffffff_str)
     a3c:	00052203          	lw	x4,0(x10)
     a40:	00220863          	beq	x4,x2,a50 <I_andi_cg_cp_rs1_edges_0x7fffffff+0x18>
     a44:	279022ef          	jal	x5,34bc <failedtest_x5_x4>
     a48:	00000a38          	.word	0x00000a38
     a4c:	000093af          	.word	0x000093af
     a50:	00450513          	addi	x10,x10,4

# Testcase cp_rs1_edges (Test source rs1 value = 0x7ffffffe)
  RVTEST_TESTDATA_LOAD_INT(x23, x28) # load rs1: x28 = 0x7ffffffe
     a54:	000bae03          	lw	x28,0(x23)
     a58:	004b8b93          	addi	x23,x23,4

00000a5c <I_andi_cg_cp_rs1_edges_0x7ffffffe>:
I_andi_cg_cp_rs1_edges_0x7ffffffe:
  andi x25, x28, 259 # perform operation
     a5c:	103e7c93          	andi	x25,x28,259
  # Check if x25 contains the expected result. x10 is the signature ptr, x5 is the link ptr, x4 is a temp reg.
  RVTEST_SIGUPD(x10, x5, x4, x25, I_andi_cg_cp_rs1_edges_0x7ffffffe, I_andi_cg_cp_rs1_edges_0x7ffffffe_str)
     a60:	00052203          	lw	x4,0(x10)
     a64:	01920863          	beq	x4,x25,a74 <I_andi_cg_cp_rs1_edges_0x7ffffffe+0x18>
     a68:	255022ef          	jal	x5,34bc <failedtest_x5_x4>
     a6c:	00000a5c          	.word	0x00000a5c
     a70:	000093ec          	.word	0x000093ec
     a74:	00450513          	addi	x10,x10,4

# Testcase cp_rs1_edges (Test source rs1 value = 0xffffffff)
  RVTEST_TESTDATA_LOAD_INT(x23, x12) # load rs1: x12 = 0xffffffff
     a78:	000ba603          	lw	x12,0(x23)
     a7c:	004b8b93          	addi	x23,x23,4

00000a80 <I_andi_cg_cp_rs1_edges_0xffffffff>:
I_andi_cg_cp_rs1_edges_0xffffffff:
  andi x26, x12, 1098 # perform operation
     a80:	44a67d13          	andi	x26,x12,1098
  # Check if x26 contains the expected result. x10 is the signature ptr, x5 is the link ptr, x4 is a temp reg.
  RVTEST_SIGUPD(x10, x5, x4, x26, I_andi_cg_cp_rs1_edges_0xffffffff, I_andi_cg_cp_rs1_edges_0xffffffff_str)
     a84:	00052203          	lw	x4,0(x10)
     a88:	01a20863          	beq	x4,x26,a98 <I_andi_cg_cp_rs1_edges_0xffffffff+0x18>
     a8c:	231022ef          	jal	x5,34bc <failedtest_x5_x4>
     a90:	00000a80          	.word	0x00000a80
     a94:	00009429          	.word	0x00009429
     a98:	00450513          	addi	x10,x10,4

# Testcase cp_rs1_edges (Test source rs1 value = 0xfffffffe)
  RVTEST_TESTDATA_LOAD_INT(x23, x12) # load rs1: x12 = 0xfffffffe
     a9c:	000ba603          	lw	x12,0(x23)
     aa0:	004b8b93          	addi	x23,x23,4

00000aa4 <I_andi_cg_cp_rs1_edges_0xfffffffe>:
I_andi_cg_cp_rs1_edges_0xfffffffe:
  andi x6, x12, 39 # perform operation
     aa4:	02767313          	andi	x6,x12,39
  # Check if x6 contains the expected result. x10 is the signature ptr, x5 is the link ptr, x4 is a temp reg.
  RVTEST_SIGUPD(x10, x5, x4, x6, I_andi_cg_cp_rs1_edges_0xfffffffe, I_andi_cg_cp_rs1_edges_0xfffffffe_str)
     aa8:	00052203          	lw	x4,0(x10)
     aac:	00620863          	beq	x4,x6,abc <I_andi_cg_cp_rs1_edges_0xfffffffe+0x18>
     ab0:	20d022ef          	jal	x5,34bc <failedtest_x5_x4>
     ab4:	00000aa4          	.word	0x00000aa4
     ab8:	00009466          	.word	0x00009466
     abc:	00450513          	addi	x10,x10,4

# Testcase cp_rs1_edges (Test source rs1 value = 0x5bbc8872)
  RVTEST_TESTDATA_LOAD_INT(x23, x20) # load rs1: x20 = 0x5bbc8872
     ac0:	000baa03          	lw	x20,0(x23)
     ac4:	004b8b93          	addi	x23,x23,4

00000ac8 <I_andi_cg_cp_rs1_edges_0x5bbc8872>:
I_andi_cg_cp_rs1_edges_0x5bbc8872:
  andi x18, x20, -950 # perform operation
     ac8:	c4aa7913          	andi	x18,x20,-950
  # Check if x18 contains the expected result. x10 is the signature ptr, x5 is the link ptr, x4 is a temp reg.
  RVTEST_SIGUPD(x10, x5, x4, x18, I_andi_cg_cp_rs1_edges_0x5bbc8872, I_andi_cg_cp_rs1_edges_0x5bbc8872_str)
     acc:	00052203          	lw	x4,0(x10)
     ad0:	01220863          	beq	x4,x18,ae0 <I_andi_cg_cp_rs1_edges_0x5bbc8872+0x18>
     ad4:	1e9022ef          	jal	x5,34bc <failedtest_x5_x4>
     ad8:	00000ac8          	.word	0x00000ac8
     adc:	000094a3          	.word	0x000094a3
     ae0:	00450513          	addi	x10,x10,4

# Testcase cp_rs1_edges (Test source rs1 value = 0xaaaaaaaa)
  RVTEST_TESTDATA_LOAD_INT(x23, x30) # load rs1: x30 = 0xaaaaaaaa
     ae4:	000baf03          	lw	x30,0(x23)
     ae8:	004b8b93          	addi	x23,x23,4

00000aec <I_andi_cg_cp_rs1_edges_0xaaaaaaaa>:
I_andi_cg_cp_rs1_edges_0xaaaaaaaa:
  andi x27, x30, 573 # perform operation
     aec:	23df7d93          	andi	x27,x30,573
  # Check if x27 contains the expected result. x10 is the signature ptr, x5 is the link ptr, x4 is a temp reg.
  RVTEST_SIGUPD(x10, x5, x4, x27, I_andi_cg_cp_rs1_edges_0xaaaaaaaa, I_andi_cg_cp_rs1_edges_0xaaaaaaaa_str)
     af0:	00052203          	lw	x4,0(x10)
     af4:	01b20863          	beq	x4,x27,b04 <I_andi_cg_cp_rs1_edges_0xaaaaaaaa+0x18>
     af8:	1c5022ef          	jal	x5,34bc <failedtest_x5_x4>
     afc:	00000aec          	.word	0x00000aec
     b00:	000094e0          	.word	0x000094e0
     b04:	00450513          	addi	x10,x10,4

# Testcase cp_rs1_edges (Test source rs1 value = 0x55555555)
  RVTEST_TESTDATA_LOAD_INT(x23, x28) # load rs1: x28 = 0x55555555
     b08:	000bae03          	lw	x28,0(x23)
     b0c:	004b8b93          	addi	x23,x23,4

00000b10 <I_andi_cg_cp_rs1_edges_0x55555555>:
I_andi_cg_cp_rs1_edges_0x55555555:
  andi x17, x28, 1270 # perform operation
     b10:	4f6e7893          	andi	x17,x28,1270
  # Check if x17 contains the expected result. x10 is the signature ptr, x5 is the link ptr, x4 is a temp reg.
  RVTEST_SIGUPD(x10, x5, x4, x17, I_andi_cg_cp_rs1_edges_0x55555555, I_andi_cg_cp_rs1_edges_0x55555555_str)
     b14:	00052203          	lw	x4,0(x10)
     b18:	01120863          	beq	x4,x17,b28 <I_andi_cg_cp_rs1_edges_0x55555555+0x18>
     b1c:	1a1022ef          	jal	x5,34bc <failedtest_x5_x4>
     b20:	00000b10          	.word	0x00000b10
     b24:	0000951d          	.word	0x0000951d
     b28:	00450513          	addi	x10,x10,4
/////////////////////////////////
// cr_rs1_imm_edges
/////////////////////////////////

# Testcase cr_rs1_imm_edges (rs1 = 0x00000000, imm = 0)
  RVTEST_TESTDATA_LOAD_INT(x23, x20) # load rs1: x20 = 0x00000000
     b2c:	000baa03          	lw	x20,0(x23)
     b30:	004b8b93          	addi	x23,x23,4

00000b34 <I_andi_cg_cr_rs1_imm_edges_rs1val_0x0_immval_0x0>:
I_andi_cg_cr_rs1_imm_edges_rs1val_0x0_immval_0x0:
  andi x11, x20, 0 # perform operation
     b34:	000a7593          	andi	x11,x20,0
  # Check if x11 contains the expected result. x10 is the signature ptr, x5 is the link ptr, x4 is a temp reg.
  RVTEST_SIGUPD(x10, x5, x4, x11, I_andi_cg_cr_rs1_imm_edges_rs1val_0x0_immval_0x0, I_andi_cg_cr_rs1_imm_edges_rs1val_0x0_immval_0x0_str)
     b38:	00052203          	lw	x4,0(x10)
     b3c:	00b20863          	beq	x4,x11,b4c <I_andi_cg_cr_rs1_imm_edges_rs1val_0x0_immval_0x0+0x18>
     b40:	17d022ef          	jal	x5,34bc <failedtest_x5_x4>
     b44:	00000b34          	.word	0x00000b34
     b48:	0000955a          	.word	0x0000955a
     b4c:	00450513          	addi	x10,x10,4

# Testcase cr_rs1_imm_edges (rs1 = 0x00000000, imm = 1)
  RVTEST_TESTDATA_LOAD_INT(x23, x19) # load rs1: x19 = 0x00000000
     b50:	000ba983          	lw	x19,0(x23)
     b54:	004b8b93          	addi	x23,x23,4

00000b58 <I_andi_cg_cr_rs1_imm_edges_rs1val_0x0_immval_0x1>:
I_andi_cg_cr_rs1_imm_edges_rs1val_0x0_immval_0x1:
  andi x22, x19, 1 # perform operation
     b58:	0019fb13          	andi	x22,x19,1
  # Check if x22 contains the expected result. x10 is the signature ptr, x5 is the link ptr, x4 is a temp reg.
  RVTEST_SIGUPD(x10, x5, x4, x22, I_andi_cg_cr_rs1_imm_edges_rs1val_0x0_immval_0x1, I_andi_cg_cr_rs1_imm_edges_rs1val_0x0_immval_0x1_str)
     b5c:	00052203          	lw	x4,0(x10)
     b60:	01620863          	beq	x4,x22,b70 <I_andi_cg_cr_rs1_imm_edges_rs1val_0x0_immval_0x1+0x18>
     b64:	159022ef          	jal	x5,34bc <failedtest_x5_x4>
     b68:	00000b58          	.word	0x00000b58
     b6c:	000095a7          	.word	0x000095a7
     b70:	00450513          	addi	x10,x10,4

# Testcase cr_rs1_imm_edges (rs1 = 0x00000000, imm = 2)
  RVTEST_TESTDATA_LOAD_INT(x23, x13) # load rs1: x13 = 0x00000000
     b74:	000ba683          	lw	x13,0(x23)
     b78:	004b8b93          	addi	x23,x23,4

00000b7c <I_andi_cg_cr_rs1_imm_edges_rs1val_0x0_immval_0x2>:
I_andi_cg_cr_rs1_imm_edges_rs1val_0x0_immval_0x2:
  andi x24, x13, 2 # perform operation
     b7c:	0026fc13          	andi	x24,x13,2
  # Check if x24 contains the expected result. x10 is the signature ptr, x5 is the link ptr, x4 is a temp reg.
  RVTEST_SIGUPD(x10, x5, x4, x24, I_andi_cg_cr_rs1_imm_edges_rs1val_0x0_immval_0x2, I_andi_cg_cr_rs1_imm_edges_rs1val_0x0_immval_0x2_str)
     b80:	00052203          	lw	x4,0(x10)
     b84:	01820863          	beq	x4,x24,b94 <I_andi_cg_cr_rs1_imm_edges_rs1val_0x0_immval_0x2+0x18>
     b88:	135022ef          	jal	x5,34bc <failedtest_x5_x4>
     b8c:	00000b7c          	.word	0x00000b7c
     b90:	000095f4          	.word	0x000095f4
     b94:	00450513          	addi	x10,x10,4

# Testcase cr_rs1_imm_edges (rs1 = 0x00000000, imm = 3)
  RVTEST_TESTDATA_LOAD_INT(x23, x6) # load rs1: x6 = 0x00000000
     b98:	000ba303          	lw	x6,0(x23)
     b9c:	004b8b93          	addi	x23,x23,4

00000ba0 <I_andi_cg_cr_rs1_imm_edges_rs1val_0x0_immval_0x3>:
I_andi_cg_cr_rs1_imm_edges_rs1val_0x0_immval_0x3:
  andi x31, x6, 3 # perform operation
     ba0:	00337f93          	andi	x31,x6,3
  # Check if x31 contains the expected result. x10 is the signature ptr, x5 is the link ptr, x4 is a temp reg.
  RVTEST_SIGUPD(x10, x5, x4, x31, I_andi_cg_cr_rs1_imm_edges_rs1val_0x0_immval_0x3, I_andi_cg_cr_rs1_imm_edges_rs1val_0x0_immval_0x3_str)
     ba4:	00052203          	lw	x4,0(x10)
     ba8:	01f20863          	beq	x4,x31,bb8 <I_andi_cg_cr_rs1_imm_edges_rs1val_0x0_immval_0x3+0x18>
     bac:	111022ef          	jal	x5,34bc <failedtest_x5_x4>
     bb0:	00000ba0          	.word	0x00000ba0
     bb4:	00009641          	.word	0x00009641
     bb8:	00450513          	addi	x10,x10,4

# Testcase cr_rs1_imm_edges (rs1 = 0x00000000, imm = 4)
  RVTEST_TESTDATA_LOAD_INT(x23, x28) # load rs1: x28 = 0x00000000
     bbc:	000bae03          	lw	x28,0(x23)
     bc0:	004b8b93          	addi	x23,x23,4

00000bc4 <I_andi_cg_cr_rs1_imm_edges_rs1val_0x0_immval_0x4>:
I_andi_cg_cr_rs1_imm_edges_rs1val_0x0_immval_0x4:
  andi x17, x28, 4 # perform operation
     bc4:	004e7893          	andi	x17,x28,4
  # Check if x17 contains the expected result. x10 is the signature ptr, x5 is the link ptr, x4 is a temp reg.
  RVTEST_SIGUPD(x10, x5, x4, x17, I_andi_cg_cr_rs1_imm_edges_rs1val_0x0_immval_0x4, I_andi_cg_cr_rs1_imm_edges_rs1val_0x0_immval_0x4_str)
     bc8:	00052203          	lw	x4,0(x10)
     bcc:	01120863          	beq	x4,x17,bdc <I_andi_cg_cr_rs1_imm_edges_rs1val_0x0_immval_0x4+0x18>
     bd0:	0ed022ef          	jal	x5,34bc <failedtest_x5_x4>
     bd4:	00000bc4          	.word	0x00000bc4
     bd8:	0000968e          	.word	0x0000968e
     bdc:	00450513          	addi	x10,x10,4

# Testcase cr_rs1_imm_edges (rs1 = 0x00000000, imm = 8)
  RVTEST_TESTDATA_LOAD_INT(x23, x1) # load rs1: x1 = 0x00000000
     be0:	000ba083          	lw	x1,0(x23)
     be4:	004b8b93          	addi	x23,x23,4

00000be8 <I_andi_cg_cr_rs1_imm_edges_rs1val_0x0_immval_0x8>:
I_andi_cg_cr_rs1_imm_edges_rs1val_0x0_immval_0x8:
  andi x13, x1, 8 # perform operation
     be8:	0080f693          	andi	x13,x1,8
  # Check if x13 contains the expected result. x10 is the signature ptr, x5 is the link ptr, x4 is a temp reg.
  RVTEST_SIGUPD(x10, x5, x4, x13, I_andi_cg_cr_rs1_imm_edges_rs1val_0x0_immval_0x8, I_andi_cg_cr_rs1_imm_edges_rs1val_0x0_immval_0x8_str)
     bec:	00052203          	lw	x4,0(x10)
     bf0:	00d20863          	beq	x4,x13,c00 <I_andi_cg_cr_rs1_imm_edges_rs1val_0x0_immval_0x8+0x18>
     bf4:	0c9022ef          	jal	x5,34bc <failedtest_x5_x4>
     bf8:	00000be8          	.word	0x00000be8
     bfc:	000096db          	.word	0x000096db
     c00:	00450513          	addi	x10,x10,4

# Testcase cr_rs1_imm_edges (rs1 = 0x00000000, imm = 16)
  RVTEST_TESTDATA_LOAD_INT(x23, x11) # load rs1: x11 = 0x00000000
     c04:	000ba583          	lw	x11,0(x23)
     c08:	004b8b93          	addi	x23,x23,4

00000c0c <I_andi_cg_cr_rs1_imm_edges_rs1val_0x0_immval_0x10>:
I_andi_cg_cr_rs1_imm_edges_rs1val_0x0_immval_0x10:
  andi x28, x11, 16 # perform operation
     c0c:	0105fe13          	andi	x28,x11,16
  # Check if x28 contains the expected result. x10 is the signature ptr, x5 is the link ptr, x4 is a temp reg.
  RVTEST_SIGUPD(x10, x5, x4, x28, I_andi_cg_cr_rs1_imm_edges_rs1val_0x0_immval_0x10, I_andi_cg_cr_rs1_imm_edges_rs1val_0x0_immval_0x10_str)
     c10:	00052203          	lw	x4,0(x10)
     c14:	01c20863          	beq	x4,x28,c24 <I_andi_cg_cr_rs1_imm_edges_rs1val_0x0_immval_0x10+0x18>
     c18:	0a5022ef          	jal	x5,34bc <failedtest_x5_x4>
     c1c:	00000c0c          	.word	0x00000c0c
     c20:	00009728          	.word	0x00009728
     c24:	00450513          	addi	x10,x10,4

# Testcase cr_rs1_imm_edges (rs1 = 0x00000000, imm = 32)
  RVTEST_TESTDATA_LOAD_INT(x23, x27) # load rs1: x27 = 0x00000000
     c28:	000bad83          	lw	x27,0(x23)
     c2c:	004b8b93          	addi	x23,x23,4

00000c30 <I_andi_cg_cr_rs1_imm_edges_rs1val_0x0_immval_0x20>:
I_andi_cg_cr_rs1_imm_edges_rs1val_0x0_immval_0x20:
  andi x22, x27, 32 # perform operation
     c30:	020dfb13          	andi	x22,x27,32
  # Check if x22 contains the expected result. x10 is the signature ptr, x5 is the link ptr, x4 is a temp reg.
  RVTEST_SIGUPD(x10, x5, x4, x22, I_andi_cg_cr_rs1_imm_edges_rs1val_0x0_immval_0x20, I_andi_cg_cr_rs1_imm_edges_rs1val_0x0_immval_0x20_str)
     c34:	00052203          	lw	x4,0(x10)
     c38:	01620863          	beq	x4,x22,c48 <I_andi_cg_cr_rs1_imm_edges_rs1val_0x0_immval_0x20+0x18>
     c3c:	081022ef          	jal	x5,34bc <failedtest_x5_x4>
     c40:	00000c30          	.word	0x00000c30
     c44:	00009776          	.word	0x00009776
     c48:	00450513          	addi	x10,x10,4

# Testcase cr_rs1_imm_edges (rs1 = 0x00000000, imm = 64)
  RVTEST_TESTDATA_LOAD_INT(x23, x16) # load rs1: x16 = 0x00000000
     c4c:	000ba803          	lw	x16,0(x23)
     c50:	004b8b93          	addi	x23,x23,4

00000c54 <I_andi_cg_cr_rs1_imm_edges_rs1val_0x0_immval_0x40>:
I_andi_cg_cr_rs1_imm_edges_rs1val_0x0_immval_0x40:
  andi x24, x16, 64 # perform operation
     c54:	04087c13          	andi	x24,x16,64
  # Check if x24 contains the expected result. x10 is the signature ptr, x5 is the link ptr, x4 is a temp reg.
  RVTEST_SIGUPD(x10, x5, x4, x24, I_andi_cg_cr_rs1_imm_edges_rs1val_0x0_immval_0x40, I_andi_cg_cr_rs1_imm_edges_rs1val_0x0_immval_0x40_str)
     c58:	00052203          	lw	x4,0(x10)
     c5c:	01820863          	beq	x4,x24,c6c <I_andi_cg_cr_rs1_imm_edges_rs1val_0x0_immval_0x40+0x18>
     c60:	05d022ef          	jal	x5,34bc <failedtest_x5_x4>
     c64:	00000c54          	.word	0x00000c54
     c68:	000097c4          	.word	0x000097c4
     c6c:	00450513          	addi	x10,x10,4

# Testcase cr_rs1_imm_edges (rs1 = 0x00000000, imm = 128)
  RVTEST_TESTDATA_LOAD_INT(x23, x30) # load rs1: x30 = 0x00000000
     c70:	000baf03          	lw	x30,0(x23)
     c74:	004b8b93          	addi	x23,x23,4

00000c78 <I_andi_cg_cr_rs1_imm_edges_rs1val_0x0_immval_0x80>:
I_andi_cg_cr_rs1_imm_edges_rs1val_0x0_immval_0x80:
  andi x25, x30, 128 # perform operation
     c78:	080f7c93          	andi	x25,x30,128
  # Check if x25 contains the expected result. x10 is the signature ptr, x5 is the link ptr, x4 is a temp reg.
  RVTEST_SIGUPD(x10, x5, x4, x25, I_andi_cg_cr_rs1_imm_edges_rs1val_0x0_immval_0x80, I_andi_cg_cr_rs1_imm_edges_rs1val_0x0_immval_0x80_str)
     c7c:	00052203          	lw	x4,0(x10)
     c80:	01920863          	beq	x4,x25,c90 <I_andi_cg_cr_rs1_imm_edges_rs1val_0x0_immval_0x80+0x18>
     c84:	039022ef          	jal	x5,34bc <failedtest_x5_x4>
     c88:	00000c78          	.word	0x00000c78
     c8c:	00009812          	.word	0x00009812
     c90:	00450513          	addi	x10,x10,4

# Testcase cr_rs1_imm_edges (rs1 = 0x00000000, imm = 256)
  RVTEST_TESTDATA_LOAD_INT(x23, x18) # load rs1: x18 = 0x00000000
     c94:	000ba903          	lw	x18,0(x23)
     c98:	004b8b93          	addi	x23,x23,4

00000c9c <I_andi_cg_cr_rs1_imm_edges_rs1val_0x0_immval_0x100>:
I_andi_cg_cr_rs1_imm_edges_rs1val_0x0_immval_0x100:
  andi x30, x18, 256 # perform operation
     c9c:	10097f13          	andi	x30,x18,256
  # Check if x30 contains the expected result. x10 is the signature ptr, x5 is the link ptr, x4 is a temp reg.
  RVTEST_SIGUPD(x10, x5, x4, x30, I_andi_cg_cr_rs1_imm_edges_rs1val_0x0_immval_0x100, I_andi_cg_cr_rs1_imm_edges_rs1val_0x0_immval_0x100_str)
     ca0:	00052203          	lw	x4,0(x10)
     ca4:	01e20863          	beq	x4,x30,cb4 <I_andi_cg_cr_rs1_imm_edges_rs1val_0x0_immval_0x100+0x18>
     ca8:	015022ef          	jal	x5,34bc <failedtest_x5_x4>
     cac:	00000c9c          	.word	0x00000c9c
     cb0:	00009860          	.word	0x00009860
     cb4:	00450513          	addi	x10,x10,4

# Testcase cr_rs1_imm_edges (rs1 = 0x00000000, imm = 512)
  RVTEST_TESTDATA_LOAD_INT(x23, x28) # load rs1: x28 = 0x00000000
     cb8:	000bae03          	lw	x28,0(x23)
     cbc:	004b8b93          	addi	x23,x23,4

00000cc0 <I_andi_cg_cr_rs1_imm_edges_rs1val_0x0_immval_0x200>:
I_andi_cg_cr_rs1_imm_edges_rs1val_0x0_immval_0x200:
  andi x30, x28, 512 # perform operation
     cc0:	200e7f13          	andi	x30,x28,512
  # Check if x30 contains the expected result. x10 is the signature ptr, x5 is the link ptr, x4 is a temp reg.
  RVTEST_SIGUPD(x10, x5, x4, x30, I_andi_cg_cr_rs1_imm_edges_rs1val_0x0_immval_0x200, I_andi_cg_cr_rs1_imm_edges_rs1val_0x0_immval_0x200_str)
     cc4:	00052203          	lw	x4,0(x10)
     cc8:	01e20863          	beq	x4,x30,cd8 <I_andi_cg_cr_rs1_imm_edges_rs1val_0x0_immval_0x200+0x18>
     ccc:	7f0022ef          	jal	x5,34bc <failedtest_x5_x4>
     cd0:	00000cc0          	.word	0x00000cc0
     cd4:	000098af          	.word	0x000098af
     cd8:	00450513          	addi	x10,x10,4

# Testcase cr_rs1_imm_edges (rs1 = 0x00000000, imm = 1023)
  RVTEST_TESTDATA_LOAD_INT(x23, x20) # load rs1: x20 = 0x00000000
     cdc:	000baa03          	lw	x20,0(x23)
     ce0:	004b8b93          	addi	x23,x23,4

00000ce4 <I_andi_cg_cr_rs1_imm_edges_rs1val_0x0_immval_0x3ff>:
I_andi_cg_cr_rs1_imm_edges_rs1val_0x0_immval_0x3ff:
  andi x31, x20, 1023 # perform operation
     ce4:	3ffa7f93          	andi	x31,x20,1023
  # Check if x31 contains the expected result. x10 is the signature ptr, x5 is the link ptr, x4 is a temp reg.
  RVTEST_SIGUPD(x10, x5, x4, x31, I_andi_cg_cr_rs1_imm_edges_rs1val_0x0_immval_0x3ff, I_andi_cg_cr_rs1_imm_edges_rs1val_0x0_immval_0x3ff_str)
     ce8:	00052203          	lw	x4,0(x10)
     cec:	01f20863          	beq	x4,x31,cfc <I_andi_cg_cr_rs1_imm_edges_rs1val_0x0_immval_0x3ff+0x18>
     cf0:	7cc022ef          	jal	x5,34bc <failedtest_x5_x4>
     cf4:	00000ce4          	.word	0x00000ce4
     cf8:	000098fe          	.word	0x000098fe
     cfc:	00450513          	addi	x10,x10,4

# Testcase cr_rs1_imm_edges (rs1 = 0x00000000, imm = 1024)
  RVTEST_TESTDATA_LOAD_INT(x23, x30) # load rs1: x30 = 0x00000000
     d00:	000baf03          	lw	x30,0(x23)
     d04:	004b8b93          	addi	x23,x23,4

00000d08 <I_andi_cg_cr_rs1_imm_edges_rs1val_0x0_immval_0x400>:
I_andi_cg_cr_rs1_imm_edges_rs1val_0x0_immval_0x400:
  andi x25, x30, 1024 # perform operation
     d08:	400f7c93          	andi	x25,x30,1024
  # Check if x25 contains the expected result. x10 is the signature ptr, x5 is the link ptr, x4 is a temp reg.
  RVTEST_SIGUPD(x10, x5, x4, x25, I_andi_cg_cr_rs1_imm_edges_rs1val_0x0_immval_0x400, I_andi_cg_cr_rs1_imm_edges_rs1val_0x0_immval_0x400_str)
     d0c:	00052203          	lw	x4,0(x10)
     d10:	01920863          	beq	x4,x25,d20 <I_andi_cg_cr_rs1_imm_edges_rs1val_0x0_immval_0x400+0x18>
     d14:	7a8022ef          	jal	x5,34bc <failedtest_x5_x4>
     d18:	00000d08          	.word	0x00000d08
     d1c:	0000994d          	.word	0x0000994d
     d20:	00450513          	addi	x10,x10,4

# Testcase cr_rs1_imm_edges (rs1 = 0x00000000, imm = 1795)
  RVTEST_TESTDATA_LOAD_INT(x23, x3) # load rs1: x3 = 0x00000000
     d24:	000ba183          	lw	x3,0(x23)
     d28:	004b8b93          	addi	x23,x23,4

00000d2c <I_andi_cg_cr_rs1_imm_edges_rs1val_0x0_immval_0x703>:
I_andi_cg_cr_rs1_imm_edges_rs1val_0x0_immval_0x703:
  andi x30, x3, 1795 # perform operation
     d2c:	7031ff13          	andi	x30,x3,1795
  # Check if x30 contains the expected result. x10 is the signature ptr, x5 is the link ptr, x4 is a temp reg.
  RVTEST_SIGUPD(x10, x5, x4, x30, I_andi_cg_cr_rs1_imm_edges_rs1val_0x0_immval_0x703, I_andi_cg_cr_rs1_imm_edges_rs1val_0x0_immval_0x703_str)
     d30:	00052203          	lw	x4,0(x10)
     d34:	01e20863          	beq	x4,x30,d44 <I_andi_cg_cr_rs1_imm_edges_rs1val_0x0_immval_0x703+0x18>
     d38:	784022ef          	jal	x5,34bc <failedtest_x5_x4>
     d3c:	00000d2c          	.word	0x00000d2c
     d40:	0000999c          	.word	0x0000999c
     d44:	00450513          	addi	x10,x10,4

# Testcase cr_rs1_imm_edges (rs1 = 0x00000000, imm = 2047)
  RVTEST_TESTDATA_LOAD_INT(x23, x28) # load rs1: x28 = 0x00000000
     d48:	000bae03          	lw	x28,0(x23)
     d4c:	004b8b93          	addi	x23,x23,4

00000d50 <I_andi_cg_cr_rs1_imm_edges_rs1val_0x0_immval_0x7ff>:
I_andi_cg_cr_rs1_imm_edges_rs1val_0x0_immval_0x7ff:
  andi x7, x28, 2047 # perform operation
     d50:	7ffe7393          	andi	x7,x28,2047
  # Check if x7 contains the expected result. x10 is the signature ptr, x5 is the link ptr, x4 is a temp reg.
  RVTEST_SIGUPD(x10, x5, x4, x7, I_andi_cg_cr_rs1_imm_edges_rs1val_0x0_immval_0x7ff, I_andi_cg_cr_rs1_imm_edges_rs1val_0x0_immval_0x7ff_str)
     d54:	00052203          	lw	x4,0(x10)
     d58:	00720863          	beq	x4,x7,d68 <I_andi_cg_cr_rs1_imm_edges_rs1val_0x0_immval_0x7ff+0x18>
     d5c:	760022ef          	jal	x5,34bc <failedtest_x5_x4>
     d60:	00000d50          	.word	0x00000d50
     d64:	000099eb          	.word	0x000099eb
     d68:	00450513          	addi	x10,x10,4

# Testcase cr_rs1_imm_edges (rs1 = 0x00000000, imm = -2048)
  RVTEST_TESTDATA_LOAD_INT(x23, x31) # load rs1: x31 = 0x00000000
     d6c:	000baf83          	lw	x31,0(x23)
     d70:	004b8b93          	addi	x23,x23,4

00000d74 <I_andi_cg_cr_rs1_imm_edges_rs1val_0x0_immval_m0x800>:
I_andi_cg_cr_rs1_imm_edges_rs1val_0x0_immval_m0x800:
  andi x19, x31, -2048 # perform operation
     d74:	800ff993          	andi	x19,x31,-2048
  # Check if x19 contains the expected result. x10 is the signature ptr, x5 is the link ptr, x4 is a temp reg.
  RVTEST_SIGUPD(x10, x5, x4, x19, I_andi_cg_cr_rs1_imm_edges_rs1val_0x0_immval_m0x800, I_andi_cg_cr_rs1_imm_edges_rs1val_0x0_immval_m0x800_str)
     d78:	00052203          	lw	x4,0(x10)
     d7c:	01320863          	beq	x4,x19,d8c <I_andi_cg_cr_rs1_imm_edges_rs1val_0x0_immval_m0x800+0x18>
     d80:	73c022ef          	jal	x5,34bc <failedtest_x5_x4>
     d84:	00000d74          	.word	0x00000d74
     d88:	00009a3a          	.word	0x00009a3a
     d8c:	00450513          	addi	x10,x10,4

# Testcase cr_rs1_imm_edges (rs1 = 0x00000000, imm = -2047)
  RVTEST_TESTDATA_LOAD_INT(x23, x15) # load rs1: x15 = 0x00000000
     d90:	000ba783          	lw	x15,0(x23)
     d94:	004b8b93          	addi	x23,x23,4

00000d98 <I_andi_cg_cr_rs1_imm_edges_rs1val_0x0_immval_m0x7ff>:
I_andi_cg_cr_rs1_imm_edges_rs1val_0x0_immval_m0x7ff:
  andi x3, x15, -2047 # perform operation
     d98:	8017f193          	andi	x3,x15,-2047
  # Check if x3 contains the expected result. x10 is the signature ptr, x5 is the link ptr, x4 is a temp reg.
  RVTEST_SIGUPD(x10, x5, x4, x3, I_andi_cg_cr_rs1_imm_edges_rs1val_0x0_immval_m0x7ff, I_andi_cg_cr_rs1_imm_edges_rs1val_0x0_immval_m0x7ff_str)
     d9c:	00052203          	lw	x4,0(x10)
     da0:	00320863          	beq	x4,x3,db0 <I_andi_cg_cr_rs1_imm_edges_rs1val_0x0_immval_m0x7ff+0x18>
     da4:	718022ef          	jal	x5,34bc <failedtest_x5_x4>
     da8:	00000d98          	.word	0x00000d98
     dac:	00009a8a          	.word	0x00009a8a
     db0:	00450513          	addi	x10,x10,4

# Testcase cr_rs1_imm_edges (rs1 = 0x00000000, imm = -2)
  RVTEST_TESTDATA_LOAD_INT(x23, x19) # load rs1: x19 = 0x00000000
     db4:	000ba983          	lw	x19,0(x23)
     db8:	004b8b93          	addi	x23,x23,4

00000dbc <I_andi_cg_cr_rs1_imm_edges_rs1val_0x0_immval_m0x2>:
I_andi_cg_cr_rs1_imm_edges_rs1val_0x0_immval_m0x2:
  andi x12, x19, -2 # perform operation
     dbc:	ffe9f613          	andi	x12,x19,-2
  # Check if x12 contains the expected result. x10 is the signature ptr, x5 is the link ptr, x4 is a temp reg.
  RVTEST_SIGUPD(x10, x5, x4, x12, I_andi_cg_cr_rs1_imm_edges_rs1val_0x0_immval_m0x2, I_andi_cg_cr_rs1_imm_edges_rs1val_0x0_immval_m0x2_str)
     dc0:	00052203          	lw	x4,0(x10)
     dc4:	00c20863          	beq	x4,x12,dd4 <I_andi_cg_cr_rs1_imm_edges_rs1val_0x0_immval_m0x2+0x18>
     dc8:	6f4022ef          	jal	x5,34bc <failedtest_x5_x4>
     dcc:	00000dbc          	.word	0x00000dbc
     dd0:	00009ada          	.word	0x00009ada
     dd4:	00450513          	addi	x10,x10,4

# Testcase cr_rs1_imm_edges (rs1 = 0x00000000, imm = -1)
  RVTEST_TESTDATA_LOAD_INT(x23, x16) # load rs1: x16 = 0x00000000
     dd8:	000ba803          	lw	x16,0(x23)
     ddc:	004b8b93          	addi	x23,x23,4

00000de0 <I_andi_cg_cr_rs1_imm_edges_rs1val_0x0_immval_m0x1>:
I_andi_cg_cr_rs1_imm_edges_rs1val_0x0_immval_m0x1:
  andi x14, x16, -1 # perform operation
     de0:	fff87713          	andi	x14,x16,-1
  # Check if x14 contains the expected result. x10 is the signature ptr, x5 is the link ptr, x4 is a temp reg.
  RVTEST_SIGUPD(x10, x5, x4, x14, I_andi_cg_cr_rs1_imm_edges_rs1val_0x0_immval_m0x1, I_andi_cg_cr_rs1_imm_edges_rs1val_0x0_immval_m0x1_str)
     de4:	00052203          	lw	x4,0(x10)
     de8:	00e20863          	beq	x4,x14,df8 <I_andi_cg_cr_rs1_imm_edges_rs1val_0x0_immval_m0x1+0x18>
     dec:	6d0022ef          	jal	x5,34bc <failedtest_x5_x4>
     df0:	00000de0          	.word	0x00000de0
     df4:	00009b28          	.word	0x00009b28
     df8:	00450513          	addi	x10,x10,4

# Testcase cr_rs1_imm_edges (rs1 = 0x00000001, imm = 0)
  RVTEST_TESTDATA_LOAD_INT(x23, x17) # load rs1: x17 = 0x00000001
     dfc:	000ba883          	lw	x17,0(x23)
     e00:	004b8b93          	addi	x23,x23,4

00000e04 <I_andi_cg_cr_rs1_imm_edges_rs1val_0x1_immval_0x0>:
I_andi_cg_cr_rs1_imm_edges_rs1val_0x1_immval_0x0:
  andi x28, x17, 0 # perform operation
     e04:	0008fe13          	andi	x28,x17,0
  # Check if x28 contains the expected result. x10 is the signature ptr, x5 is the link ptr, x4 is a temp reg.
  RVTEST_SIGUPD(x10, x5, x4, x28, I_andi_cg_cr_rs1_imm_edges_rs1val_0x1_immval_0x0, I_andi_cg_cr_rs1_imm_edges_rs1val_0x1_immval_0x0_str)
     e08:	00052203          	lw	x4,0(x10)
     e0c:	01c20863          	beq	x4,x28,e1c <I_andi_cg_cr_rs1_imm_edges_rs1val_0x1_immval_0x0+0x18>
     e10:	6ac022ef          	jal	x5,34bc <failedtest_x5_x4>
     e14:	00000e04          	.word	0x00000e04
     e18:	00009b76          	.word	0x00009b76
     e1c:	00450513          	addi	x10,x10,4

# Testcase cr_rs1_imm_edges (rs1 = 0x00000001, imm = 1)
  RVTEST_TESTDATA_LOAD_INT(x23, x13) # load rs1: x13 = 0x00000001
     e20:	000ba683          	lw	x13,0(x23)
     e24:	004b8b93          	addi	x23,x23,4

00000e28 <I_andi_cg_cr_rs1_imm_edges_rs1val_0x1_immval_0x1>:
I_andi_cg_cr_rs1_imm_edges_rs1val_0x1_immval_0x1:
  andi x24, x13, 1 # perform operation
     e28:	0016fc13          	andi	x24,x13,1
  # Check if x24 contains the expected result. x10 is the signature ptr, x5 is the link ptr, x4 is a temp reg.
  RVTEST_SIGUPD(x10, x5, x4, x24, I_andi_cg_cr_rs1_imm_edges_rs1val_0x1_immval_0x1, I_andi_cg_cr_rs1_imm_edges_rs1val_0x1_immval_0x1_str)
     e2c:	00052203          	lw	x4,0(x10)
     e30:	01820863          	beq	x4,x24,e40 <I_andi_cg_cr_rs1_imm_edges_rs1val_0x1_immval_0x1+0x18>
     e34:	688022ef          	jal	x5,34bc <failedtest_x5_x4>
     e38:	00000e28          	.word	0x00000e28
     e3c:	00009bc3          	.word	0x00009bc3
     e40:	00450513          	addi	x10,x10,4

# Testcase cr_rs1_imm_edges (rs1 = 0x00000001, imm = 2)
  RVTEST_TESTDATA_LOAD_INT(x23, x26) # load rs1: x26 = 0x00000001
     e44:	000bad03          	lw	x26,0(x23)
     e48:	004b8b93          	addi	x23,x23,4

00000e4c <I_andi_cg_cr_rs1_imm_edges_rs1val_0x1_immval_0x2>:
I_andi_cg_cr_rs1_imm_edges_rs1val_0x1_immval_0x2:
  andi x20, x26, 2 # perform operation
     e4c:	002d7a13          	andi	x20,x26,2
  # Check if x20 contains the expected result. x10 is the signature ptr, x5 is the link ptr, x4 is a temp reg.
  RVTEST_SIGUPD(x10, x5, x4, x20, I_andi_cg_cr_rs1_imm_edges_rs1val_0x1_immval_0x2, I_andi_cg_cr_rs1_imm_edges_rs1val_0x1_immval_0x2_str)
     e50:	00052203          	lw	x4,0(x10)
     e54:	01420863          	beq	x4,x20,e64 <I_andi_cg_cr_rs1_imm_edges_rs1val_0x1_immval_0x2+0x18>
     e58:	664022ef          	jal	x5,34bc <failedtest_x5_x4>
     e5c:	00000e4c          	.word	0x00000e4c
     e60:	00009c10          	.word	0x00009c10
     e64:	00450513          	addi	x10,x10,4

# Testcase cr_rs1_imm_edges (rs1 = 0x00000001, imm = 3)
  RVTEST_TESTDATA_LOAD_INT(x23, x15) # load rs1: x15 = 0x00000001
     e68:	000ba783          	lw	x15,0(x23)
     e6c:	004b8b93          	addi	x23,x23,4

00000e70 <I_andi_cg_cr_rs1_imm_edges_rs1val_0x1_immval_0x3>:
I_andi_cg_cr_rs1_imm_edges_rs1val_0x1_immval_0x3:
  andi x22, x15, 3 # perform operation
     e70:	0037fb13          	andi	x22,x15,3
  # Check if x22 contains the expected result. x10 is the signature ptr, x5 is the link ptr, x4 is a temp reg.
  RVTEST_SIGUPD(x10, x5, x4, x22, I_andi_cg_cr_rs1_imm_edges_rs1val_0x1_immval_0x3, I_andi_cg_cr_rs1_imm_edges_rs1val_0x1_immval_0x3_str)
     e74:	00052203          	lw	x4,0(x10)
     e78:	01620863          	beq	x4,x22,e88 <I_andi_cg_cr_rs1_imm_edges_rs1val_0x1_immval_0x3+0x18>
     e7c:	640022ef          	jal	x5,34bc <failedtest_x5_x4>
     e80:	00000e70          	.word	0x00000e70
     e84:	00009c5d          	.word	0x00009c5d
     e88:	00450513          	addi	x10,x10,4

# Testcase cr_rs1_imm_edges (rs1 = 0x00000001, imm = 4)
  RVTEST_TESTDATA_LOAD_INT(x23, x13) # load rs1: x13 = 0x00000001
     e8c:	000ba683          	lw	x13,0(x23)
     e90:	004b8b93          	addi	x23,x23,4

00000e94 <I_andi_cg_cr_rs1_imm_edges_rs1val_0x1_immval_0x4>:
I_andi_cg_cr_rs1_imm_edges_rs1val_0x1_immval_0x4:
  andi x25, x13, 4 # perform operation
     e94:	0046fc93          	andi	x25,x13,4
  # Check if x25 contains the expected result. x10 is the signature ptr, x5 is the link ptr, x4 is a temp reg.
  RVTEST_SIGUPD(x10, x5, x4, x25, I_andi_cg_cr_rs1_imm_edges_rs1val_0x1_immval_0x4, I_andi_cg_cr_rs1_imm_edges_rs1val_0x1_immval_0x4_str)
     e98:	00052203          	lw	x4,0(x10)
     e9c:	01920863          	beq	x4,x25,eac <I_andi_cg_cr_rs1_imm_edges_rs1val_0x1_immval_0x4+0x18>
     ea0:	61c022ef          	jal	x5,34bc <failedtest_x5_x4>
     ea4:	00000e94          	.word	0x00000e94
     ea8:	00009cab          	.word	0x00009cab
     eac:	00450513          	addi	x10,x10,4

# Testcase cr_rs1_imm_edges (rs1 = 0x00000001, imm = 8)
  RVTEST_TESTDATA_LOAD_INT(x23, x14) # load rs1: x14 = 0x00000001
     eb0:	000ba703          	lw	x14,0(x23)
     eb4:	004b8b93          	addi	x23,x23,4

00000eb8 <I_andi_cg_cr_rs1_imm_edges_rs1val_0x1_immval_0x8>:
I_andi_cg_cr_rs1_imm_edges_rs1val_0x1_immval_0x8:
  andi x12, x14, 8 # perform operation
     eb8:	00877613          	andi	x12,x14,8
  # Check if x12 contains the expected result. x10 is the signature ptr, x5 is the link ptr, x4 is a temp reg.
  RVTEST_SIGUPD(x10, x5, x4, x12, I_andi_cg_cr_rs1_imm_edges_rs1val_0x1_immval_0x8, I_andi_cg_cr_rs1_imm_edges_rs1val_0x1_immval_0x8_str)
     ebc:	00052203          	lw	x4,0(x10)
     ec0:	00c20863          	beq	x4,x12,ed0 <I_andi_cg_cr_rs1_imm_edges_rs1val_0x1_immval_0x8+0x18>
     ec4:	5f8022ef          	jal	x5,34bc <failedtest_x5_x4>
     ec8:	00000eb8          	.word	0x00000eb8
     ecc:	00009cf9          	.word	0x00009cf9
     ed0:	00450513          	addi	x10,x10,4

# Testcase cr_rs1_imm_edges (rs1 = 0x00000001, imm = 16)
  RVTEST_TESTDATA_LOAD_INT(x23, x8) # load rs1: x8 = 0x00000001
     ed4:	000ba403          	lw	x8,0(x23)
     ed8:	004b8b93          	addi	x23,x23,4

00000edc <I_andi_cg_cr_rs1_imm_edges_rs1val_0x1_immval_0x10>:
I_andi_cg_cr_rs1_imm_edges_rs1val_0x1_immval_0x10:
  andi x9, x8, 16 # perform operation
     edc:	01047493          	andi	x9,x8,16
  # Check if x9 contains the expected result. x10 is the signature ptr, x5 is the link ptr, x4 is a temp reg.
  RVTEST_SIGUPD(x10, x5, x4, x9, I_andi_cg_cr_rs1_imm_edges_rs1val_0x1_immval_0x10, I_andi_cg_cr_rs1_imm_edges_rs1val_0x1_immval_0x10_str)
     ee0:	00052203          	lw	x4,0(x10)
     ee4:	00920863          	beq	x4,x9,ef4 <I_andi_cg_cr_rs1_imm_edges_rs1val_0x1_immval_0x10+0x18>
     ee8:	5d4022ef          	jal	x5,34bc <failedtest_x5_x4>
     eec:	00000edc          	.word	0x00000edc
     ef0:	00009d47          	.word	0x00009d47
     ef4:	00450513          	addi	x10,x10,4

# Testcase cr_rs1_imm_edges (rs1 = 0x00000001, imm = 32)
  RVTEST_TESTDATA_LOAD_INT(x23, x3) # load rs1: x3 = 0x00000001
     ef8:	000ba183          	lw	x3,0(x23)
     efc:	004b8b93          	addi	x23,x23,4

00000f00 <I_andi_cg_cr_rs1_imm_edges_rs1val_0x1_immval_0x20>:
I_andi_cg_cr_rs1_imm_edges_rs1val_0x1_immval_0x20:
  andi x11, x3, 32 # perform operation
     f00:	0201f593          	andi	x11,x3,32
  # Check if x11 contains the expected result. x10 is the signature ptr, x5 is the link ptr, x4 is a temp reg.
  RVTEST_SIGUPD(x10, x5, x4, x11, I_andi_cg_cr_rs1_imm_edges_rs1val_0x1_immval_0x20, I_andi_cg_cr_rs1_imm_edges_rs1val_0x1_immval_0x20_str)
     f04:	00052203          	lw	x4,0(x10)
     f08:	00b20863          	beq	x4,x11,f18 <I_andi_cg_cr_rs1_imm_edges_rs1val_0x1_immval_0x20+0x18>
     f0c:	5b0022ef          	jal	x5,34bc <failedtest_x5_x4>
     f10:	00000f00          	.word	0x00000f00
     f14:	00009d96          	.word	0x00009d96
     f18:	00450513          	addi	x10,x10,4

# Testcase cr_rs1_imm_edges (rs1 = 0x00000001, imm = 64)
  RVTEST_TESTDATA_LOAD_INT(x23, x12) # load rs1: x12 = 0x00000001
     f1c:	000ba603          	lw	x12,0(x23)
     f20:	004b8b93          	addi	x23,x23,4

00000f24 <I_andi_cg_cr_rs1_imm_edges_rs1val_0x1_immval_0x40>:
I_andi_cg_cr_rs1_imm_edges_rs1val_0x1_immval_0x40:
  andi x18, x12, 64 # perform operation
     f24:	04067913          	andi	x18,x12,64
  # Check if x18 contains the expected result. x10 is the signature ptr, x5 is the link ptr, x4 is a temp reg.
  RVTEST_SIGUPD(x10, x5, x4, x18, I_andi_cg_cr_rs1_imm_edges_rs1val_0x1_immval_0x40, I_andi_cg_cr_rs1_imm_edges_rs1val_0x1_immval_0x40_str)
     f28:	00052203          	lw	x4,0(x10)
     f2c:	01220863          	beq	x4,x18,f3c <I_andi_cg_cr_rs1_imm_edges_rs1val_0x1_immval_0x40+0x18>
     f30:	58c022ef          	jal	x5,34bc <failedtest_x5_x4>
     f34:	00000f24          	.word	0x00000f24
     f38:	00009de5          	.word	0x00009de5
     f3c:	00450513          	addi	x10,x10,4

# Testcase cr_rs1_imm_edges (rs1 = 0x00000001, imm = 128)
  RVTEST_TESTDATA_LOAD_INT(x23, x31) # load rs1: x31 = 0x00000001
     f40:	000baf83          	lw	x31,0(x23)
     f44:	004b8b93          	addi	x23,x23,4

00000f48 <I_andi_cg_cr_rs1_imm_edges_rs1val_0x1_immval_0x80>:
I_andi_cg_cr_rs1_imm_edges_rs1val_0x1_immval_0x80:
  andi x6, x31, 128 # perform operation
     f48:	080ff313          	andi	x6,x31,128
  # Check if x6 contains the expected result. x10 is the signature ptr, x5 is the link ptr, x4 is a temp reg.
  RVTEST_SIGUPD(x10, x5, x4, x6, I_andi_cg_cr_rs1_imm_edges_rs1val_0x1_immval_0x80, I_andi_cg_cr_rs1_imm_edges_rs1val_0x1_immval_0x80_str)
     f4c:	00052203          	lw	x4,0(x10)
     f50:	00620863          	beq	x4,x6,f60 <I_andi_cg_cr_rs1_imm_edges_rs1val_0x1_immval_0x80+0x18>
     f54:	568022ef          	jal	x5,34bc <failedtest_x5_x4>
     f58:	00000f48          	.word	0x00000f48
     f5c:	00009e34          	.word	0x00009e34
     f60:	00450513          	addi	x10,x10,4

# Testcase cr_rs1_imm_edges (rs1 = 0x00000001, imm = 256)
  RVTEST_TESTDATA_LOAD_INT(x23, x12) # load rs1: x12 = 0x00000001
     f64:	000ba603          	lw	x12,0(x23)
     f68:	004b8b93          	addi	x23,x23,4

00000f6c <I_andi_cg_cr_rs1_imm_edges_rs1val_0x1_immval_0x100>:
I_andi_cg_cr_rs1_imm_edges_rs1val_0x1_immval_0x100:
  andi x22, x12, 256 # perform operation
     f6c:	10067b13          	andi	x22,x12,256
  # Check if x22 contains the expected result. x10 is the signature ptr, x5 is the link ptr, x4 is a temp reg.
  RVTEST_SIGUPD(x10, x5, x4, x22, I_andi_cg_cr_rs1_imm_edges_rs1val_0x1_immval_0x100, I_andi_cg_cr_rs1_imm_edges_rs1val_0x1_immval_0x100_str)
     f70:	00052203          	lw	x4,0(x10)
     f74:	01620863          	beq	x4,x22,f84 <I_andi_cg_cr_rs1_imm_edges_rs1val_0x1_immval_0x100+0x18>
     f78:	544022ef          	jal	x5,34bc <failedtest_x5_x4>
     f7c:	00000f6c          	.word	0x00000f6c
     f80:	00009e83          	.word	0x00009e83
     f84:	00450513          	addi	x10,x10,4

# Testcase cr_rs1_imm_edges (rs1 = 0x00000001, imm = 512)
  RVTEST_TESTDATA_LOAD_INT(x23, x11) # load rs1: x11 = 0x00000001
     f88:	000ba583          	lw	x11,0(x23)
     f8c:	004b8b93          	addi	x23,x23,4

00000f90 <I_andi_cg_cr_rs1_imm_edges_rs1val_0x1_immval_0x200>:
I_andi_cg_cr_rs1_imm_edges_rs1val_0x1_immval_0x200:
  andi x27, x11, 512 # perform operation
     f90:	2005fd93          	andi	x27,x11,512
  # Check if x27 contains the expected result. x10 is the signature ptr, x5 is the link ptr, x4 is a temp reg.
  RVTEST_SIGUPD(x10, x5, x4, x27, I_andi_cg_cr_rs1_imm_edges_rs1val_0x1_immval_0x200, I_andi_cg_cr_rs1_imm_edges_rs1val_0x1_immval_0x200_str)
     f94:	00052203          	lw	x4,0(x10)
     f98:	01b20863          	beq	x4,x27,fa8 <I_andi_cg_cr_rs1_imm_edges_rs1val_0x1_immval_0x200+0x18>
     f9c:	520022ef          	jal	x5,34bc <failedtest_x5_x4>
     fa0:	00000f90          	.word	0x00000f90
     fa4:	00009ed3          	.word	0x00009ed3
     fa8:	00450513          	addi	x10,x10,4

# Testcase cr_rs1_imm_edges (rs1 = 0x00000001, imm = 1023)
  RVTEST_TESTDATA_LOAD_INT(x23, x26) # load rs1: x26 = 0x00000001
     fac:	000bad03          	lw	x26,0(x23)
     fb0:	004b8b93          	addi	x23,x23,4

00000fb4 <I_andi_cg_cr_rs1_imm_edges_rs1val_0x1_immval_0x3ff>:
I_andi_cg_cr_rs1_imm_edges_rs1val_0x1_immval_0x3ff:
  andi x16, x26, 1023 # perform operation
     fb4:	3ffd7813          	andi	x16,x26,1023
  # Check if x16 contains the expected result. x10 is the signature ptr, x5 is the link ptr, x4 is a temp reg.
  RVTEST_SIGUPD(x10, x5, x4, x16, I_andi_cg_cr_rs1_imm_edges_rs1val_0x1_immval_0x3ff, I_andi_cg_cr_rs1_imm_edges_rs1val_0x1_immval_0x3ff_str)
     fb8:	00052203          	lw	x4,0(x10)
     fbc:	01020863          	beq	x4,x16,fcc <I_andi_cg_cr_rs1_imm_edges_rs1val_0x1_immval_0x3ff+0x18>
     fc0:	4fc022ef          	jal	x5,34bc <failedtest_x5_x4>
     fc4:	00000fb4          	.word	0x00000fb4
     fc8:	00009f23          	.word	0x00009f23
     fcc:	00450513          	addi	x10,x10,4

# Testcase cr_rs1_imm_edges (rs1 = 0x00000001, imm = 1024)
  RVTEST_TESTDATA_LOAD_INT(x23, x18) # load rs1: x18 = 0x00000001
     fd0:	000ba903          	lw	x18,0(x23)
     fd4:	004b8b93          	addi	x23,x23,4

00000fd8 <I_andi_cg_cr_rs1_imm_edges_rs1val_0x1_immval_0x400>:
I_andi_cg_cr_rs1_imm_edges_rs1val_0x1_immval_0x400:
  andi x27, x18, 1024 # perform operation
     fd8:	40097d93          	andi	x27,x18,1024
  # Check if x27 contains the expected result. x10 is the signature ptr, x5 is the link ptr, x4 is a temp reg.
  RVTEST_SIGUPD(x10, x5, x4, x27, I_andi_cg_cr_rs1_imm_edges_rs1val_0x1_immval_0x400, I_andi_cg_cr_rs1_imm_edges_rs1val_0x1_immval_0x400_str)
     fdc:	00052203          	lw	x4,0(x10)
     fe0:	01b20863          	beq	x4,x27,ff0 <I_andi_cg_cr_rs1_imm_edges_rs1val_0x1_immval_0x400+0x18>
     fe4:	4d8022ef          	jal	x5,34bc <failedtest_x5_x4>
     fe8:	00000fd8          	.word	0x00000fd8
     fec:	00009f73          	.word	0x00009f73
     ff0:	00450513          	addi	x10,x10,4

# Testcase cr_rs1_imm_edges (rs1 = 0x00000001, imm = 1795)
  RVTEST_TESTDATA_LOAD_INT(x23, x14) # load rs1: x14 = 0x00000001
     ff4:	000ba703          	lw	x14,0(x23)
     ff8:	004b8b93          	addi	x23,x23,4

00000ffc <I_andi_cg_cr_rs1_imm_edges_rs1val_0x1_immval_0x703>:
I_andi_cg_cr_rs1_imm_edges_rs1val_0x1_immval_0x703:
  andi x12, x14, 1795 # perform operation
     ffc:	70377613          	andi	x12,x14,1795
  # Check if x12 contains the expected result. x10 is the signature ptr, x5 is the link ptr, x4 is a temp reg.
  RVTEST_SIGUPD(x10, x5, x4, x12, I_andi_cg_cr_rs1_imm_edges_rs1val_0x1_immval_0x703, I_andi_cg_cr_rs1_imm_edges_rs1val_0x1_immval_0x703_str)
    1000:	00052203          	lw	x4,0(x10)
    1004:	00c20863          	beq	x4,x12,1014 <I_andi_cg_cr_rs1_imm_edges_rs1val_0x1_immval_0x703+0x18>
    1008:	4b4022ef          	jal	x5,34bc <failedtest_x5_x4>
    100c:	00000ffc          	.word	0x00000ffc
    1010:	00009fc3          	.word	0x00009fc3
    1014:	00450513          	addi	x10,x10,4

# Testcase cr_rs1_imm_edges (rs1 = 0x00000001, imm = 2047)
  RVTEST_TESTDATA_LOAD_INT(x23, x19) # load rs1: x19 = 0x00000001
    1018:	000ba983          	lw	x19,0(x23)
    101c:	004b8b93          	addi	x23,x23,4

00001020 <I_andi_cg_cr_rs1_imm_edges_rs1val_0x1_immval_0x7ff>:
I_andi_cg_cr_rs1_imm_edges_rs1val_0x1_immval_0x7ff:
  andi x18, x19, 2047 # perform operation
    1020:	7ff9f913          	andi	x18,x19,2047
  # Check if x18 contains the expected result. x10 is the signature ptr, x5 is the link ptr, x4 is a temp reg.
  RVTEST_SIGUPD(x10, x5, x4, x18, I_andi_cg_cr_rs1_imm_edges_rs1val_0x1_immval_0x7ff, I_andi_cg_cr_rs1_imm_edges_rs1val_0x1_immval_0x7ff_str)
    1024:	00052203          	lw	x4,0(x10)
    1028:	01220863          	beq	x4,x18,1038 <I_andi_cg_cr_rs1_imm_edges_rs1val_0x1_immval_0x7ff+0x18>
    102c:	490022ef          	jal	x5,34bc <failedtest_x5_x4>
    1030:	00001020          	.word	0x00001020
    1034:	0000a013          	.word	0x0000a013
    1038:	00450513          	addi	x10,x10,4

# Testcase cr_rs1_imm_edges (rs1 = 0x00000001, imm = -2048)
  RVTEST_TESTDATA_LOAD_INT(x23, x19) # load rs1: x19 = 0x00000001
    103c:	000ba983          	lw	x19,0(x23)
    1040:	004b8b93          	addi	x23,x23,4

00001044 <I_andi_cg_cr_rs1_imm_edges_rs1val_0x1_immval_m0x800>:
I_andi_cg_cr_rs1_imm_edges_rs1val_0x1_immval_m0x800:
  andi x1, x19, -2048 # perform operation
    1044:	8009f093          	andi	x1,x19,-2048
  # Check if x1 contains the expected result. x10 is the signature ptr, x5 is the link ptr, x4 is a temp reg.
  RVTEST_SIGUPD(x10, x5, x4, x1, I_andi_cg_cr_rs1_imm_edges_rs1val_0x1_immval_m0x800, I_andi_cg_cr_rs1_imm_edges_rs1val_0x1_immval_m0x800_str)
    1048:	00052203          	lw	x4,0(x10)
    104c:	00120863          	beq	x4,x1,105c <I_andi_cg_cr_rs1_imm_edges_rs1val_0x1_immval_m0x800+0x18>
    1050:	46c022ef          	jal	x5,34bc <failedtest_x5_x4>
    1054:	00001044          	.word	0x00001044
    1058:	0000a063          	.word	0x0000a063
    105c:	00450513          	addi	x10,x10,4

# Testcase cr_rs1_imm_edges (rs1 = 0x00000001, imm = -2047)
  RVTEST_TESTDATA_LOAD_INT(x23, x21) # load rs1: x21 = 0x00000001
    1060:	000baa83          	lw	x21,0(x23)
    1064:	004b8b93          	addi	x23,x23,4

00001068 <I_andi_cg_cr_rs1_imm_edges_rs1val_0x1_immval_m0x7ff>:
I_andi_cg_cr_rs1_imm_edges_rs1val_0x1_immval_m0x7ff:
  andi x27, x21, -2047 # perform operation
    1068:	801afd93          	andi	x27,x21,-2047
  # Check if x27 contains the expected result. x10 is the signature ptr, x5 is the link ptr, x4 is a temp reg.
  RVTEST_SIGUPD(x10, x5, x4, x27, I_andi_cg_cr_rs1_imm_edges_rs1val_0x1_immval_m0x7ff, I_andi_cg_cr_rs1_imm_edges_rs1val_0x1_immval_m0x7ff_str)
    106c:	00052203          	lw	x4,0(x10)
    1070:	01b20863          	beq	x4,x27,1080 <I_andi_cg_cr_rs1_imm_edges_rs1val_0x1_immval_m0x7ff+0x18>
    1074:	448022ef          	jal	x5,34bc <failedtest_x5_x4>
    1078:	00001068          	.word	0x00001068
    107c:	0000a0b4          	.word	0x0000a0b4
    1080:	00450513          	addi	x10,x10,4

# Testcase cr_rs1_imm_edges (rs1 = 0x00000001, imm = -2)
  RVTEST_TESTDATA_LOAD_INT(x23, x7) # load rs1: x7 = 0x00000001
    1084:	000ba383          	lw	x7,0(x23)
    1088:	004b8b93          	addi	x23,x23,4

0000108c <I_andi_cg_cr_rs1_imm_edges_rs1val_0x1_immval_m0x2>:
I_andi_cg_cr_rs1_imm_edges_rs1val_0x1_immval_m0x2:
  andi x24, x7, -2 # perform operation
    108c:	ffe3fc13          	andi	x24,x7,-2
  # Check if x24 contains the expected result. x10 is the signature ptr, x5 is the link ptr, x4 is a temp reg.
  RVTEST_SIGUPD(x10, x5, x4, x24, I_andi_cg_cr_rs1_imm_edges_rs1val_0x1_immval_m0x2, I_andi_cg_cr_rs1_imm_edges_rs1val_0x1_immval_m0x2_str)
    1090:	00052203          	lw	x4,0(x10)
    1094:	01820863          	beq	x4,x24,10a4 <I_andi_cg_cr_rs1_imm_edges_rs1val_0x1_immval_m0x2+0x18>
    1098:	424022ef          	jal	x5,34bc <failedtest_x5_x4>
    109c:	0000108c          	.word	0x0000108c
    10a0:	0000a105          	.word	0x0000a105
    10a4:	00450513          	addi	x10,x10,4

# Testcase cr_rs1_imm_edges (rs1 = 0x00000001, imm = -1)
  RVTEST_TESTDATA_LOAD_INT(x23, x8) # load rs1: x8 = 0x00000001
    10a8:	000ba403          	lw	x8,0(x23)
    10ac:	004b8b93          	addi	x23,x23,4

000010b0 <I_andi_cg_cr_rs1_imm_edges_rs1val_0x1_immval_m0x1>:
I_andi_cg_cr_rs1_imm_edges_rs1val_0x1_immval_m0x1:
  andi x29, x8, -1 # perform operation
    10b0:	fff47e93          	andi	x29,x8,-1
  # Check if x29 contains the expected result. x10 is the signature ptr, x5 is the link ptr, x4 is a temp reg.
  RVTEST_SIGUPD(x10, x5, x4, x29, I_andi_cg_cr_rs1_imm_edges_rs1val_0x1_immval_m0x1, I_andi_cg_cr_rs1_imm_edges_rs1val_0x1_immval_m0x1_str)
    10b4:	00052203          	lw	x4,0(x10)
    10b8:	01d20863          	beq	x4,x29,10c8 <I_andi_cg_cr_rs1_imm_edges_rs1val_0x1_immval_m0x1+0x18>
    10bc:	400022ef          	jal	x5,34bc <failedtest_x5_x4>
    10c0:	000010b0          	.word	0x000010b0
    10c4:	0000a154          	.word	0x0000a154
    10c8:	00450513          	addi	x10,x10,4

# Testcase cr_rs1_imm_edges (rs1 = 0x00000002, imm = 0)
  RVTEST_TESTDATA_LOAD_INT(x23, x15) # load rs1: x15 = 0x00000002
    10cc:	000ba783          	lw	x15,0(x23)
    10d0:	004b8b93          	addi	x23,x23,4

000010d4 <I_andi_cg_cr_rs1_imm_edges_rs1val_0x2_immval_0x0>:
I_andi_cg_cr_rs1_imm_edges_rs1val_0x2_immval_0x0:
  andi x20, x15, 0 # perform operation
    10d4:	0007fa13          	andi	x20,x15,0
  # Check if x20 contains the expected result. x10 is the signature ptr, x5 is the link ptr, x4 is a temp reg.
  RVTEST_SIGUPD(x10, x5, x4, x20, I_andi_cg_cr_rs1_imm_edges_rs1val_0x2_immval_0x0, I_andi_cg_cr_rs1_imm_edges_rs1val_0x2_immval_0x0_str)
    10d8:	00052203          	lw	x4,0(x10)
    10dc:	01420863          	beq	x4,x20,10ec <I_andi_cg_cr_rs1_imm_edges_rs1val_0x2_immval_0x0+0x18>
    10e0:	3dc022ef          	jal	x5,34bc <failedtest_x5_x4>
    10e4:	000010d4          	.word	0x000010d4
    10e8:	0000a1a3          	.word	0x0000a1a3
    10ec:	00450513          	addi	x10,x10,4

# Testcase cr_rs1_imm_edges (rs1 = 0x00000002, imm = 1)
  RVTEST_TESTDATA_LOAD_INT(x23, x24) # load rs1: x24 = 0x00000002
    10f0:	000bac03          	lw	x24,0(x23)
    10f4:	004b8b93          	addi	x23,x23,4

000010f8 <I_andi_cg_cr_rs1_imm_edges_rs1val_0x2_immval_0x1>:
I_andi_cg_cr_rs1_imm_edges_rs1val_0x2_immval_0x1:
  andi x28, x24, 1 # perform operation
    10f8:	001c7e13          	andi	x28,x24,1
  # Check if x28 contains the expected result. x10 is the signature ptr, x5 is the link ptr, x4 is a temp reg.
  RVTEST_SIGUPD(x10, x5, x4, x28, I_andi_cg_cr_rs1_imm_edges_rs1val_0x2_immval_0x1, I_andi_cg_cr_rs1_imm_edges_rs1val_0x2_immval_0x1_str)
    10fc:	00052203          	lw	x4,0(x10)
    1100:	01c20863          	beq	x4,x28,1110 <I_andi_cg_cr_rs1_imm_edges_rs1val_0x2_immval_0x1+0x18>
    1104:	3b8022ef          	jal	x5,34bc <failedtest_x5_x4>
    1108:	000010f8          	.word	0x000010f8
    110c:	0000a1f1          	.word	0x0000a1f1
    1110:	00450513          	addi	x10,x10,4

# Testcase cr_rs1_imm_edges (rs1 = 0x00000002, imm = 2)
  RVTEST_TESTDATA_LOAD_INT(x23, x8) # load rs1: x8 = 0x00000002
    1114:	000ba403          	lw	x8,0(x23)
    1118:	004b8b93          	addi	x23,x23,4

0000111c <I_andi_cg_cr_rs1_imm_edges_rs1val_0x2_immval_0x2>:
I_andi_cg_cr_rs1_imm_edges_rs1val_0x2_immval_0x2:
  andi x21, x8, 2 # perform operation
    111c:	00247a93          	andi	x21,x8,2
  # Check if x21 contains the expected result. x10 is the signature ptr, x5 is the link ptr, x4 is a temp reg.
  RVTEST_SIGUPD(x10, x5, x4, x21, I_andi_cg_cr_rs1_imm_edges_rs1val_0x2_immval_0x2, I_andi_cg_cr_rs1_imm_edges_rs1val_0x2_immval_0x2_str)
    1120:	00052203          	lw	x4,0(x10)
    1124:	01520863          	beq	x4,x21,1134 <I_andi_cg_cr_rs1_imm_edges_rs1val_0x2_immval_0x2+0x18>
    1128:	394022ef          	jal	x5,34bc <failedtest_x5_x4>
    112c:	0000111c          	.word	0x0000111c
    1130:	0000a23f          	.word	0x0000a23f
    1134:	00450513          	addi	x10,x10,4

# Testcase cr_rs1_imm_edges (rs1 = 0x00000002, imm = 3)
  RVTEST_TESTDATA_LOAD_INT(x23, x9) # load rs1: x9 = 0x00000002
    1138:	000ba483          	lw	x9,0(x23)
    113c:	004b8b93          	addi	x23,x23,4

00001140 <I_andi_cg_cr_rs1_imm_edges_rs1val_0x2_immval_0x3>:
I_andi_cg_cr_rs1_imm_edges_rs1val_0x2_immval_0x3:
  andi x27, x9, 3 # perform operation
    1140:	0034fd93          	andi	x27,x9,3
  # Check if x27 contains the expected result. x10 is the signature ptr, x5 is the link ptr, x4 is a temp reg.
  RVTEST_SIGUPD(x10, x5, x4, x27, I_andi_cg_cr_rs1_imm_edges_rs1val_0x2_immval_0x3, I_andi_cg_cr_rs1_imm_edges_rs1val_0x2_immval_0x3_str)
    1144:	00052203          	lw	x4,0(x10)
    1148:	01b20863          	beq	x4,x27,1158 <I_andi_cg_cr_rs1_imm_edges_rs1val_0x2_immval_0x3+0x18>
    114c:	370022ef          	jal	x5,34bc <failedtest_x5_x4>
    1150:	00001140          	.word	0x00001140
    1154:	0000a28d          	.word	0x0000a28d
    1158:	00450513          	addi	x10,x10,4

# Testcase cr_rs1_imm_edges (rs1 = 0x00000002, imm = 4)
  RVTEST_TESTDATA_LOAD_INT(x23, x13) # load rs1: x13 = 0x00000002
    115c:	000ba683          	lw	x13,0(x23)
    1160:	004b8b93          	addi	x23,x23,4

00001164 <I_andi_cg_cr_rs1_imm_edges_rs1val_0x2_immval_0x4>:
I_andi_cg_cr_rs1_imm_edges_rs1val_0x2_immval_0x4:
  andi x12, x13, 4 # perform operation
    1164:	0046f613          	andi	x12,x13,4
  # Check if x12 contains the expected result. x10 is the signature ptr, x5 is the link ptr, x4 is a temp reg.
  RVTEST_SIGUPD(x10, x5, x4, x12, I_andi_cg_cr_rs1_imm_edges_rs1val_0x2_immval_0x4, I_andi_cg_cr_rs1_imm_edges_rs1val_0x2_immval_0x4_str)
    1168:	00052203          	lw	x4,0(x10)
    116c:	00c20863          	beq	x4,x12,117c <I_andi_cg_cr_rs1_imm_edges_rs1val_0x2_immval_0x4+0x18>
    1170:	34c022ef          	jal	x5,34bc <failedtest_x5_x4>
    1174:	00001164          	.word	0x00001164
    1178:	0000a2db          	.word	0x0000a2db
    117c:	00450513          	addi	x10,x10,4

# Testcase cr_rs1_imm_edges (rs1 = 0x00000002, imm = 8)
  RVTEST_TESTDATA_LOAD_INT(x23, x18) # load rs1: x18 = 0x00000002
    1180:	000ba903          	lw	x18,0(x23)
    1184:	004b8b93          	addi	x23,x23,4

00001188 <I_andi_cg_cr_rs1_imm_edges_rs1val_0x2_immval_0x8>:
I_andi_cg_cr_rs1_imm_edges_rs1val_0x2_immval_0x8:
  andi x20, x18, 8 # perform operation
    1188:	00897a13          	andi	x20,x18,8
  # Check if x20 contains the expected result. x10 is the signature ptr, x5 is the link ptr, x4 is a temp reg.
  RVTEST_SIGUPD(x10, x5, x4, x20, I_andi_cg_cr_rs1_imm_edges_rs1val_0x2_immval_0x8, I_andi_cg_cr_rs1_imm_edges_rs1val_0x2_immval_0x8_str)
    118c:	00052203          	lw	x4,0(x10)
    1190:	01420863          	beq	x4,x20,11a0 <I_andi_cg_cr_rs1_imm_edges_rs1val_0x2_immval_0x8+0x18>
    1194:	328022ef          	jal	x5,34bc <failedtest_x5_x4>
    1198:	00001188          	.word	0x00001188
    119c:	0000a329          	.word	0x0000a329
    11a0:	00450513          	addi	x10,x10,4

# Testcase cr_rs1_imm_edges (rs1 = 0x00000002, imm = 16)
  RVTEST_TESTDATA_LOAD_INT(x23, x9) # load rs1: x9 = 0x00000002
    11a4:	000ba483          	lw	x9,0(x23)
    11a8:	004b8b93          	addi	x23,x23,4

000011ac <I_andi_cg_cr_rs1_imm_edges_rs1val_0x2_immval_0x10>:
I_andi_cg_cr_rs1_imm_edges_rs1val_0x2_immval_0x10:
  andi x29, x9, 16 # perform operation
    11ac:	0104fe93          	andi	x29,x9,16
  # Check if x29 contains the expected result. x10 is the signature ptr, x5 is the link ptr, x4 is a temp reg.
  RVTEST_SIGUPD(x10, x5, x4, x29, I_andi_cg_cr_rs1_imm_edges_rs1val_0x2_immval_0x10, I_andi_cg_cr_rs1_imm_edges_rs1val_0x2_immval_0x10_str)
    11b0:	00052203          	lw	x4,0(x10)
    11b4:	01d20863          	beq	x4,x29,11c4 <I_andi_cg_cr_rs1_imm_edges_rs1val_0x2_immval_0x10+0x18>
    11b8:	304022ef          	jal	x5,34bc <failedtest_x5_x4>
    11bc:	000011ac          	.word	0x000011ac
    11c0:	0000a377          	.word	0x0000a377
    11c4:	00450513          	addi	x10,x10,4

# Testcase cr_rs1_imm_edges (rs1 = 0x00000002, imm = 32)
  RVTEST_TESTDATA_LOAD_INT(x23, x8) # load rs1: x8 = 0x00000002
    11c8:	000ba403          	lw	x8,0(x23)
    11cc:	004b8b93          	addi	x23,x23,4

000011d0 <I_andi_cg_cr_rs1_imm_edges_rs1val_0x2_immval_0x20>:
I_andi_cg_cr_rs1_imm_edges_rs1val_0x2_immval_0x20:
  andi x6, x8, 32 # perform operation
    11d0:	02047313          	andi	x6,x8,32
  # Check if x6 contains the expected result. x10 is the signature ptr, x5 is the link ptr, x4 is a temp reg.
  RVTEST_SIGUPD(x10, x5, x4, x6, I_andi_cg_cr_rs1_imm_edges_rs1val_0x2_immval_0x20, I_andi_cg_cr_rs1_imm_edges_rs1val_0x2_immval_0x20_str)
    11d4:	00052203          	lw	x4,0(x10)
    11d8:	00620863          	beq	x4,x6,11e8 <I_andi_cg_cr_rs1_imm_edges_rs1val_0x2_immval_0x20+0x18>
    11dc:	2e0022ef          	jal	x5,34bc <failedtest_x5_x4>
    11e0:	000011d0          	.word	0x000011d0
    11e4:	0000a3c6          	.word	0x0000a3c6
    11e8:	00450513          	addi	x10,x10,4

# Testcase cr_rs1_imm_edges (rs1 = 0x00000002, imm = 64)
  RVTEST_TESTDATA_LOAD_INT(x23, x21) # load rs1: x21 = 0x00000002
    11ec:	000baa83          	lw	x21,0(x23)
    11f0:	004b8b93          	addi	x23,x23,4

000011f4 <I_andi_cg_cr_rs1_imm_edges_rs1val_0x2_immval_0x40>:
I_andi_cg_cr_rs1_imm_edges_rs1val_0x2_immval_0x40:
  andi x8, x21, 64 # perform operation
    11f4:	040af413          	andi	x8,x21,64
  # Check if x8 contains the expected result. x10 is the signature ptr, x5 is the link ptr, x4 is a temp reg.
  RVTEST_SIGUPD(x10, x5, x4, x8, I_andi_cg_cr_rs1_imm_edges_rs1val_0x2_immval_0x40, I_andi_cg_cr_rs1_imm_edges_rs1val_0x2_immval_0x40_str)
    11f8:	00052203          	lw	x4,0(x10)
    11fc:	00820863          	beq	x4,x8,120c <I_andi_cg_cr_rs1_imm_edges_rs1val_0x2_immval_0x40+0x18>
    1200:	2bc022ef          	jal	x5,34bc <failedtest_x5_x4>
    1204:	000011f4          	.word	0x000011f4
    1208:	0000a415          	.word	0x0000a415
    120c:	00450513          	addi	x10,x10,4

# Testcase cr_rs1_imm_edges (rs1 = 0x00000002, imm = 128)
  RVTEST_TESTDATA_LOAD_INT(x23, x29) # load rs1: x29 = 0x00000002
    1210:	000bae83          	lw	x29,0(x23)
    1214:	004b8b93          	addi	x23,x23,4

00001218 <I_andi_cg_cr_rs1_imm_edges_rs1val_0x2_immval_0x80>:
I_andi_cg_cr_rs1_imm_edges_rs1val_0x2_immval_0x80:
  andi x22, x29, 128 # perform operation
    1218:	080efb13          	andi	x22,x29,128
  # Check if x22 contains the expected result. x10 is the signature ptr, x5 is the link ptr, x4 is a temp reg.
  RVTEST_SIGUPD(x10, x5, x4, x22, I_andi_cg_cr_rs1_imm_edges_rs1val_0x2_immval_0x80, I_andi_cg_cr_rs1_imm_edges_rs1val_0x2_immval_0x80_str)
    121c:	00052203          	lw	x4,0(x10)
    1220:	01620863          	beq	x4,x22,1230 <I_andi_cg_cr_rs1_imm_edges_rs1val_0x2_immval_0x80+0x18>
    1224:	298022ef          	jal	x5,34bc <failedtest_x5_x4>
    1228:	00001218          	.word	0x00001218
    122c:	0000a464          	.word	0x0000a464
    1230:	00450513          	addi	x10,x10,4

# Testcase cr_rs1_imm_edges (rs1 = 0x00000002, imm = 256)
  RVTEST_TESTDATA_LOAD_INT(x23, x12) # load rs1: x12 = 0x00000002
    1234:	000ba603          	lw	x12,0(x23)
    1238:	004b8b93          	addi	x23,x23,4

0000123c <I_andi_cg_cr_rs1_imm_edges_rs1val_0x2_immval_0x100>:
I_andi_cg_cr_rs1_imm_edges_rs1val_0x2_immval_0x100:
  andi x24, x12, 256 # perform operation
    123c:	10067c13          	andi	x24,x12,256
  # Check if x24 contains the expected result. x10 is the signature ptr, x5 is the link ptr, x4 is a temp reg.
  RVTEST_SIGUPD(x10, x5, x4, x24, I_andi_cg_cr_rs1_imm_edges_rs1val_0x2_immval_0x100, I_andi_cg_cr_rs1_imm_edges_rs1val_0x2_immval_0x100_str)
    1240:	00052203          	lw	x4,0(x10)
    1244:	01820863          	beq	x4,x24,1254 <I_andi_cg_cr_rs1_imm_edges_rs1val_0x2_immval_0x100+0x18>
    1248:	274022ef          	jal	x5,34bc <failedtest_x5_x4>
    124c:	0000123c          	.word	0x0000123c
    1250:	0000a4b3          	.word	0x0000a4b3
    1254:	00450513          	addi	x10,x10,4

# Testcase cr_rs1_imm_edges (rs1 = 0x00000002, imm = 512)
  RVTEST_TESTDATA_LOAD_INT(x23, x30) # load rs1: x30 = 0x00000002
    1258:	000baf03          	lw	x30,0(x23)
    125c:	004b8b93          	addi	x23,x23,4

00001260 <I_andi_cg_cr_rs1_imm_edges_rs1val_0x2_immval_0x200>:
I_andi_cg_cr_rs1_imm_edges_rs1val_0x2_immval_0x200:
  andi x15, x30, 512 # perform operation
    1260:	200f7793          	andi	x15,x30,512
  # Check if x15 contains the expected result. x10 is the signature ptr, x5 is the link ptr, x4 is a temp reg.
  RVTEST_SIGUPD(x10, x5, x4, x15, I_andi_cg_cr_rs1_imm_edges_rs1val_0x2_immval_0x200, I_andi_cg_cr_rs1_imm_edges_rs1val_0x2_immval_0x200_str)
    1264:	00052203          	lw	x4,0(x10)
    1268:	00f20863          	beq	x4,x15,1278 <I_andi_cg_cr_rs1_imm_edges_rs1val_0x2_immval_0x200+0x18>
    126c:	250022ef          	jal	x5,34bc <failedtest_x5_x4>
    1270:	00001260          	.word	0x00001260
    1274:	0000a503          	.word	0x0000a503
    1278:	00450513          	addi	x10,x10,4

# Testcase cr_rs1_imm_edges (rs1 = 0x00000002, imm = 1023)
  RVTEST_TESTDATA_LOAD_INT(x23, x11) # load rs1: x11 = 0x00000002
    127c:	000ba583          	lw	x11,0(x23)
    1280:	004b8b93          	addi	x23,x23,4

00001284 <I_andi_cg_cr_rs1_imm_edges_rs1val_0x2_immval_0x3ff>:
I_andi_cg_cr_rs1_imm_edges_rs1val_0x2_immval_0x3ff:
  andi x24, x11, 1023 # perform operation
    1284:	3ff5fc13          	andi	x24,x11,1023
  # Check if x24 contains the expected result. x10 is the signature ptr, x5 is the link ptr, x4 is a temp reg.
  RVTEST_SIGUPD(x10, x5, x4, x24, I_andi_cg_cr_rs1_imm_edges_rs1val_0x2_immval_0x3ff, I_andi_cg_cr_rs1_imm_edges_rs1val_0x2_immval_0x3ff_str)
    1288:	00052203          	lw	x4,0(x10)
    128c:	01820863          	beq	x4,x24,129c <I_andi_cg_cr_rs1_imm_edges_rs1val_0x2_immval_0x3ff+0x18>
    1290:	22c022ef          	jal	x5,34bc <failedtest_x5_x4>
    1294:	00001284          	.word	0x00001284
    1298:	0000a553          	.word	0x0000a553
    129c:	00450513          	addi	x10,x10,4

# Testcase cr_rs1_imm_edges (rs1 = 0x00000002, imm = 1024)
  RVTEST_TESTDATA_LOAD_INT(x23, x30) # load rs1: x30 = 0x00000002
    12a0:	000baf03          	lw	x30,0(x23)
    12a4:	004b8b93          	addi	x23,x23,4

000012a8 <I_andi_cg_cr_rs1_imm_edges_rs1val_0x2_immval_0x400>:
I_andi_cg_cr_rs1_imm_edges_rs1val_0x2_immval_0x400:
  andi x16, x30, 1024 # perform operation
    12a8:	400f7813          	andi	x16,x30,1024
  # Check if x16 contains the expected result. x10 is the signature ptr, x5 is the link ptr, x4 is a temp reg.
  RVTEST_SIGUPD(x10, x5, x4, x16, I_andi_cg_cr_rs1_imm_edges_rs1val_0x2_immval_0x400, I_andi_cg_cr_rs1_imm_edges_rs1val_0x2_immval_0x400_str)
    12ac:	00052203          	lw	x4,0(x10)
    12b0:	01020863          	beq	x4,x16,12c0 <I_andi_cg_cr_rs1_imm_edges_rs1val_0x2_immval_0x400+0x18>
    12b4:	208022ef          	jal	x5,34bc <failedtest_x5_x4>
    12b8:	000012a8          	.word	0x000012a8
    12bc:	0000a5a3          	.word	0x0000a5a3
    12c0:	00450513          	addi	x10,x10,4

# Testcase cr_rs1_imm_edges (rs1 = 0x00000002, imm = 1795)
  RVTEST_TESTDATA_LOAD_INT(x23, x20) # load rs1: x20 = 0x00000002
    12c4:	000baa03          	lw	x20,0(x23)
    12c8:	004b8b93          	addi	x23,x23,4

000012cc <I_andi_cg_cr_rs1_imm_edges_rs1val_0x2_immval_0x703>:
I_andi_cg_cr_rs1_imm_edges_rs1val_0x2_immval_0x703:
  andi x6, x20, 1795 # perform operation
    12cc:	703a7313          	andi	x6,x20,1795
  # Check if x6 contains the expected result. x10 is the signature ptr, x5 is the link ptr, x4 is a temp reg.
  RVTEST_SIGUPD(x10, x5, x4, x6, I_andi_cg_cr_rs1_imm_edges_rs1val_0x2_immval_0x703, I_andi_cg_cr_rs1_imm_edges_rs1val_0x2_immval_0x703_str)
    12d0:	00052203          	lw	x4,0(x10)
    12d4:	00620863          	beq	x4,x6,12e4 <I_andi_cg_cr_rs1_imm_edges_rs1val_0x2_immval_0x703+0x18>
    12d8:	1e4022ef          	jal	x5,34bc <failedtest_x5_x4>
    12dc:	000012cc          	.word	0x000012cc
    12e0:	0000a5f3          	.word	0x0000a5f3
    12e4:	00450513          	addi	x10,x10,4

# Testcase cr_rs1_imm_edges (rs1 = 0x00000002, imm = 2047)
  RVTEST_TESTDATA_LOAD_INT(x23, x14) # load rs1: x14 = 0x00000002
    12e8:	000ba703          	lw	x14,0(x23)
    12ec:	004b8b93          	addi	x23,x23,4

000012f0 <I_andi_cg_cr_rs1_imm_edges_rs1val_0x2_immval_0x7ff>:
I_andi_cg_cr_rs1_imm_edges_rs1val_0x2_immval_0x7ff:
  andi x15, x14, 2047 # perform operation
    12f0:	7ff77793          	andi	x15,x14,2047
  # Check if x15 contains the expected result. x10 is the signature ptr, x5 is the link ptr, x4 is a temp reg.
  RVTEST_SIGUPD(x10, x5, x4, x15, I_andi_cg_cr_rs1_imm_edges_rs1val_0x2_immval_0x7ff, I_andi_cg_cr_rs1_imm_edges_rs1val_0x2_immval_0x7ff_str)
    12f4:	00052203          	lw	x4,0(x10)
    12f8:	00f20863          	beq	x4,x15,1308 <I_andi_cg_cr_rs1_imm_edges_rs1val_0x2_immval_0x7ff+0x18>
    12fc:	1c0022ef          	jal	x5,34bc <failedtest_x5_x4>
    1300:	000012f0          	.word	0x000012f0
    1304:	0000a643          	.word	0x0000a643
    1308:	00450513          	addi	x10,x10,4

# Testcase cr_rs1_imm_edges (rs1 = 0x00000002, imm = -2048)
  RVTEST_TESTDATA_LOAD_INT(x23, x8) # load rs1: x8 = 0x00000002
    130c:	000ba403          	lw	x8,0(x23)
    1310:	004b8b93          	addi	x23,x23,4

00001314 <I_andi_cg_cr_rs1_imm_edges_rs1val_0x2_immval_m0x800>:
I_andi_cg_cr_rs1_imm_edges_rs1val_0x2_immval_m0x800:
  andi x17, x8, -2048 # perform operation
    1314:	80047893          	andi	x17,x8,-2048
  # Check if x17 contains the expected result. x10 is the signature ptr, x5 is the link ptr, x4 is a temp reg.
  RVTEST_SIGUPD(x10, x5, x4, x17, I_andi_cg_cr_rs1_imm_edges_rs1val_0x2_immval_m0x800, I_andi_cg_cr_rs1_imm_edges_rs1val_0x2_immval_m0x800_str)
    1318:	00052203          	lw	x4,0(x10)
    131c:	01120863          	beq	x4,x17,132c <I_andi_cg_cr_rs1_imm_edges_rs1val_0x2_immval_m0x800+0x18>
    1320:	19c022ef          	jal	x5,34bc <failedtest_x5_x4>
    1324:	00001314          	.word	0x00001314
    1328:	0000a693          	.word	0x0000a693
    132c:	00450513          	addi	x10,x10,4

# Testcase cr_rs1_imm_edges (rs1 = 0x00000002, imm = -2047)
  RVTEST_TESTDATA_LOAD_INT(x23, x1) # load rs1: x1 = 0x00000002
    1330:	000ba083          	lw	x1,0(x23)
    1334:	004b8b93          	addi	x23,x23,4

00001338 <I_andi_cg_cr_rs1_imm_edges_rs1val_0x2_immval_m0x7ff>:
I_andi_cg_cr_rs1_imm_edges_rs1val_0x2_immval_m0x7ff:
  andi x22, x1, -2047 # perform operation
    1338:	8010fb13          	andi	x22,x1,-2047
  # Check if x22 contains the expected result. x10 is the signature ptr, x5 is the link ptr, x4 is a temp reg.
  RVTEST_SIGUPD(x10, x5, x4, x22, I_andi_cg_cr_rs1_imm_edges_rs1val_0x2_immval_m0x7ff, I_andi_cg_cr_rs1_imm_edges_rs1val_0x2_immval_m0x7ff_str)
    133c:	00052203          	lw	x4,0(x10)
    1340:	01620863          	beq	x4,x22,1350 <I_andi_cg_cr_rs1_imm_edges_rs1val_0x2_immval_m0x7ff+0x18>
    1344:	178022ef          	jal	x5,34bc <failedtest_x5_x4>
    1348:	00001338          	.word	0x00001338
    134c:	0000a6e4          	.word	0x0000a6e4
    1350:	00450513          	addi	x10,x10,4

# Testcase cr_rs1_imm_edges (rs1 = 0x00000002, imm = -2)
  RVTEST_TESTDATA_LOAD_INT(x23, x19) # load rs1: x19 = 0x00000002
    1354:	000ba983          	lw	x19,0(x23)
    1358:	004b8b93          	addi	x23,x23,4

0000135c <I_andi_cg_cr_rs1_imm_edges_rs1val_0x2_immval_m0x2>:
I_andi_cg_cr_rs1_imm_edges_rs1val_0x2_immval_m0x2:
  andi x18, x19, -2 # perform operation
    135c:	ffe9f913          	andi	x18,x19,-2
  # Check if x18 contains the expected result. x10 is the signature ptr, x5 is the link ptr, x4 is a temp reg.
  RVTEST_SIGUPD(x10, x5, x4, x18, I_andi_cg_cr_rs1_imm_edges_rs1val_0x2_immval_m0x2, I_andi_cg_cr_rs1_imm_edges_rs1val_0x2_immval_m0x2_str)
    1360:	00052203          	lw	x4,0(x10)
    1364:	01220863          	beq	x4,x18,1374 <I_andi_cg_cr_rs1_imm_edges_rs1val_0x2_immval_m0x2+0x18>
    1368:	154022ef          	jal	x5,34bc <failedtest_x5_x4>
    136c:	0000135c          	.word	0x0000135c
    1370:	0000a735          	.word	0x0000a735
    1374:	00450513          	addi	x10,x10,4

# Testcase cr_rs1_imm_edges (rs1 = 0x00000002, imm = -1)
  RVTEST_TESTDATA_LOAD_INT(x23, x15) # load rs1: x15 = 0x00000002
    1378:	000ba783          	lw	x15,0(x23)
    137c:	004b8b93          	addi	x23,x23,4

00001380 <I_andi_cg_cr_rs1_imm_edges_rs1val_0x2_immval_m0x1>:
I_andi_cg_cr_rs1_imm_edges_rs1val_0x2_immval_m0x1:
  andi x6, x15, -1 # perform operation
    1380:	fff7f313          	andi	x6,x15,-1
  # Check if x6 contains the expected result. x10 is the signature ptr, x5 is the link ptr, x4 is a temp reg.
  RVTEST_SIGUPD(x10, x5, x4, x6, I_andi_cg_cr_rs1_imm_edges_rs1val_0x2_immval_m0x1, I_andi_cg_cr_rs1_imm_edges_rs1val_0x2_immval_m0x1_str)
    1384:	00052203          	lw	x4,0(x10)
    1388:	00620863          	beq	x4,x6,1398 <I_andi_cg_cr_rs1_imm_edges_rs1val_0x2_immval_m0x1+0x18>
    138c:	130022ef          	jal	x5,34bc <failedtest_x5_x4>
    1390:	00001380          	.word	0x00001380
    1394:	0000a784          	.word	0x0000a784
    1398:	00450513          	addi	x10,x10,4

# Testcase cr_rs1_imm_edges (rs1 = 0x80000000, imm = 0)
  RVTEST_TESTDATA_LOAD_INT(x23, x25) # load rs1: x25 = 0x80000000
    139c:	000bac83          	lw	x25,0(x23)
    13a0:	004b8b93          	addi	x23,x23,4

000013a4 <I_andi_cg_cr_rs1_imm_edges_rs1val_0x80000000_immval_0x0>:
I_andi_cg_cr_rs1_imm_edges_rs1val_0x80000000_immval_0x0:
  andi x18, x25, 0 # perform operation
    13a4:	000cf913          	andi	x18,x25,0
  # Check if x18 contains the expected result. x10 is the signature ptr, x5 is the link ptr, x4 is a temp reg.
  RVTEST_SIGUPD(x10, x5, x4, x18, I_andi_cg_cr_rs1_imm_edges_rs1val_0x80000000_immval_0x0, I_andi_cg_cr_rs1_imm_edges_rs1val_0x80000000_immval_0x0_str)
    13a8:	00052203          	lw	x4,0(x10)
    13ac:	01220863          	beq	x4,x18,13bc <I_andi_cg_cr_rs1_imm_edges_rs1val_0x80000000_immval_0x0+0x18>
    13b0:	10c022ef          	jal	x5,34bc <failedtest_x5_x4>
    13b4:	000013a4          	.word	0x000013a4
    13b8:	0000a7d3          	.word	0x0000a7d3
    13bc:	00450513          	addi	x10,x10,4

# Testcase cr_rs1_imm_edges (rs1 = 0x80000000, imm = 1)
  RVTEST_TESTDATA_LOAD_INT(x23, x9) # load rs1: x9 = 0x80000000
    13c0:	000ba483          	lw	x9,0(x23)
    13c4:	004b8b93          	addi	x23,x23,4

000013c8 <I_andi_cg_cr_rs1_imm_edges_rs1val_0x80000000_immval_0x1>:
I_andi_cg_cr_rs1_imm_edges_rs1val_0x80000000_immval_0x1:
  andi x16, x9, 1 # perform operation
    13c8:	0014f813          	andi	x16,x9,1
  # Check if x16 contains the expected result. x10 is the signature ptr, x5 is the link ptr, x4 is a temp reg.
  RVTEST_SIGUPD(x10, x5, x4, x16, I_andi_cg_cr_rs1_imm_edges_rs1val_0x80000000_immval_0x1, I_andi_cg_cr_rs1_imm_edges_rs1val_0x80000000_immval_0x1_str)
    13cc:	00052203          	lw	x4,0(x10)
    13d0:	01020863          	beq	x4,x16,13e0 <I_andi_cg_cr_rs1_imm_edges_rs1val_0x80000000_immval_0x1+0x18>
    13d4:	0e8022ef          	jal	x5,34bc <failedtest_x5_x4>
    13d8:	000013c8          	.word	0x000013c8
    13dc:	0000a828          	.word	0x0000a828
    13e0:	00450513          	addi	x10,x10,4

# Testcase cr_rs1_imm_edges (rs1 = 0x80000000, imm = 2)
  RVTEST_TESTDATA_LOAD_INT(x23, x6) # load rs1: x6 = 0x80000000
    13e4:	000ba303          	lw	x6,0(x23)
    13e8:	004b8b93          	addi	x23,x23,4

000013ec <I_andi_cg_cr_rs1_imm_edges_rs1val_0x80000000_immval_0x2>:
I_andi_cg_cr_rs1_imm_edges_rs1val_0x80000000_immval_0x2:
  andi x8, x6, 2 # perform operation
    13ec:	00237413          	andi	x8,x6,2
  # Check if x8 contains the expected result. x10 is the signature ptr, x5 is the link ptr, x4 is a temp reg.
  RVTEST_SIGUPD(x10, x5, x4, x8, I_andi_cg_cr_rs1_imm_edges_rs1val_0x80000000_immval_0x2, I_andi_cg_cr_rs1_imm_edges_rs1val_0x80000000_immval_0x2_str)
    13f0:	00052203          	lw	x4,0(x10)
    13f4:	00820863          	beq	x4,x8,1404 <I_andi_cg_cr_rs1_imm_edges_rs1val_0x80000000_immval_0x2+0x18>
    13f8:	0c4022ef          	jal	x5,34bc <failedtest_x5_x4>
    13fc:	000013ec          	.word	0x000013ec
    1400:	0000a87d          	.word	0x0000a87d
    1404:	00450513          	addi	x10,x10,4

# Testcase cr_rs1_imm_edges (rs1 = 0x80000000, imm = 3)
  RVTEST_TESTDATA_LOAD_INT(x23, x20) # load rs1: x20 = 0x80000000
    1408:	000baa03          	lw	x20,0(x23)
    140c:	004b8b93          	addi	x23,x23,4

00001410 <I_andi_cg_cr_rs1_imm_edges_rs1val_0x80000000_immval_0x3>:
I_andi_cg_cr_rs1_imm_edges_rs1val_0x80000000_immval_0x3:
  andi x21, x20, 3 # perform operation
    1410:	003a7a93          	andi	x21,x20,3
  # Check if x21 contains the expected result. x10 is the signature ptr, x5 is the link ptr, x4 is a temp reg.
  RVTEST_SIGUPD(x10, x5, x4, x21, I_andi_cg_cr_rs1_imm_edges_rs1val_0x80000000_immval_0x3, I_andi_cg_cr_rs1_imm_edges_rs1val_0x80000000_immval_0x3_str)
    1414:	00052203          	lw	x4,0(x10)
    1418:	01520863          	beq	x4,x21,1428 <I_andi_cg_cr_rs1_imm_edges_rs1val_0x80000000_immval_0x3+0x18>
    141c:	0a0022ef          	jal	x5,34bc <failedtest_x5_x4>
    1420:	00001410          	.word	0x00001410
    1424:	0000a8d2          	.word	0x0000a8d2
    1428:	00450513          	addi	x10,x10,4

# Testcase cr_rs1_imm_edges (rs1 = 0x80000000, imm = 4)
  RVTEST_TESTDATA_LOAD_INT(x23, x12) # load rs1: x12 = 0x80000000
    142c:	000ba603          	lw	x12,0(x23)
    1430:	004b8b93          	addi	x23,x23,4

00001434 <I_andi_cg_cr_rs1_imm_edges_rs1val_0x80000000_immval_0x4>:
I_andi_cg_cr_rs1_imm_edges_rs1val_0x80000000_immval_0x4:
  andi x29, x12, 4 # perform operation
    1434:	00467e93          	andi	x29,x12,4
  # Check if x29 contains the expected result. x10 is the signature ptr, x5 is the link ptr, x4 is a temp reg.
  RVTEST_SIGUPD(x10, x5, x4, x29, I_andi_cg_cr_rs1_imm_edges_rs1val_0x80000000_immval_0x4, I_andi_cg_cr_rs1_imm_edges_rs1val_0x80000000_immval_0x4_str)
    1438:	00052203          	lw	x4,0(x10)
    143c:	01d20863          	beq	x4,x29,144c <I_andi_cg_cr_rs1_imm_edges_rs1val_0x80000000_immval_0x4+0x18>
    1440:	07c022ef          	jal	x5,34bc <failedtest_x5_x4>
    1444:	00001434          	.word	0x00001434
    1448:	0000a927          	.word	0x0000a927
    144c:	00450513          	addi	x10,x10,4

# Testcase cr_rs1_imm_edges (rs1 = 0x80000000, imm = 8)
  RVTEST_TESTDATA_LOAD_INT(x23, x11) # load rs1: x11 = 0x80000000
    1450:	000ba583          	lw	x11,0(x23)
    1454:	004b8b93          	addi	x23,x23,4

00001458 <I_andi_cg_cr_rs1_imm_edges_rs1val_0x80000000_immval_0x8>:
I_andi_cg_cr_rs1_imm_edges_rs1val_0x80000000_immval_0x8:
  andi x9, x11, 8 # perform operation
    1458:	0085f493          	andi	x9,x11,8
  # Check if x9 contains the expected result. x10 is the signature ptr, x5 is the link ptr, x4 is a temp reg.
  RVTEST_SIGUPD(x10, x5, x4, x9, I_andi_cg_cr_rs1_imm_edges_rs1val_0x80000000_immval_0x8, I_andi_cg_cr_rs1_imm_edges_rs1val_0x80000000_immval_0x8_str)
    145c:	00052203          	lw	x4,0(x10)
    1460:	00920863          	beq	x4,x9,1470 <I_andi_cg_cr_rs1_imm_edges_rs1val_0x80000000_immval_0x8+0x18>
    1464:	058022ef          	jal	x5,34bc <failedtest_x5_x4>
    1468:	00001458          	.word	0x00001458
    146c:	0000a97c          	.word	0x0000a97c
    1470:	00450513          	addi	x10,x10,4

# Testcase cr_rs1_imm_edges (rs1 = 0x80000000, imm = 16)
  RVTEST_TESTDATA_LOAD_INT(x23, x24) # load rs1: x24 = 0x80000000
    1474:	000bac03          	lw	x24,0(x23)
    1478:	004b8b93          	addi	x23,x23,4

0000147c <I_andi_cg_cr_rs1_imm_edges_rs1val_0x80000000_immval_0x10>:
I_andi_cg_cr_rs1_imm_edges_rs1val_0x80000000_immval_0x10:
  andi x18, x24, 16 # perform operation
    147c:	010c7913          	andi	x18,x24,16
  # Check if x18 contains the expected result. x10 is the signature ptr, x5 is the link ptr, x4 is a temp reg.
  RVTEST_SIGUPD(x10, x5, x4, x18, I_andi_cg_cr_rs1_imm_edges_rs1val_0x80000000_immval_0x10, I_andi_cg_cr_rs1_imm_edges_rs1val_0x80000000_immval_0x10_str)
    1480:	00052203          	lw	x4,0(x10)
    1484:	01220863          	beq	x4,x18,1494 <I_andi_cg_cr_rs1_imm_edges_rs1val_0x80000000_immval_0x10+0x18>
    1488:	034022ef          	jal	x5,34bc <failedtest_x5_x4>
    148c:	0000147c          	.word	0x0000147c
    1490:	0000a9d1          	.word	0x0000a9d1
    1494:	00450513          	addi	x10,x10,4

# Testcase cr_rs1_imm_edges (rs1 = 0x80000000, imm = 32)
  RVTEST_TESTDATA_LOAD_INT(x23, x26) # load rs1: x26 = 0x80000000
    1498:	000bad03          	lw	x26,0(x23)
    149c:	004b8b93          	addi	x23,x23,4

000014a0 <I_andi_cg_cr_rs1_imm_edges_rs1val_0x80000000_immval_0x20>:
I_andi_cg_cr_rs1_imm_edges_rs1val_0x80000000_immval_0x20:
  andi x13, x26, 32 # perform operation
    14a0:	020d7693          	andi	x13,x26,32
  # Check if x13 contains the expected result. x10 is the signature ptr, x5 is the link ptr, x4 is a temp reg.
  RVTEST_SIGUPD(x10, x5, x4, x13, I_andi_cg_cr_rs1_imm_edges_rs1val_0x80000000_immval_0x20, I_andi_cg_cr_rs1_imm_edges_rs1val_0x80000000_immval_0x20_str)
    14a4:	00052203          	lw	x4,0(x10)
    14a8:	00d20863          	beq	x4,x13,14b8 <I_andi_cg_cr_rs1_imm_edges_rs1val_0x80000000_immval_0x20+0x18>
    14ac:	010022ef          	jal	x5,34bc <failedtest_x5_x4>
    14b0:	000014a0          	.word	0x000014a0
    14b4:	0000aa27          	.word	0x0000aa27
    14b8:	00450513          	addi	x10,x10,4

# Testcase cr_rs1_imm_edges (rs1 = 0x80000000, imm = 64)
  RVTEST_TESTDATA_LOAD_INT(x23, x9) # load rs1: x9 = 0x80000000
    14bc:	000ba483          	lw	x9,0(x23)
    14c0:	004b8b93          	addi	x23,x23,4

000014c4 <I_andi_cg_cr_rs1_imm_edges_rs1val_0x80000000_immval_0x40>:
I_andi_cg_cr_rs1_imm_edges_rs1val_0x80000000_immval_0x40:
  andi x13, x9, 64 # perform operation
    14c4:	0404f693          	andi	x13,x9,64
  # Check if x13 contains the expected result. x10 is the signature ptr, x5 is the link ptr, x4 is a temp reg.
  RVTEST_SIGUPD(x10, x5, x4, x13, I_andi_cg_cr_rs1_imm_edges_rs1val_0x80000000_immval_0x40, I_andi_cg_cr_rs1_imm_edges_rs1val_0x80000000_immval_0x40_str)
    14c8:	00052203          	lw	x4,0(x10)
    14cc:	00d20863          	beq	x4,x13,14dc <I_andi_cg_cr_rs1_imm_edges_rs1val_0x80000000_immval_0x40+0x18>
    14d0:	7ed012ef          	jal	x5,34bc <failedtest_x5_x4>
    14d4:	000014c4          	.word	0x000014c4
    14d8:	0000aa7d          	.word	0x0000aa7d
    14dc:	00450513          	addi	x10,x10,4

# Testcase cr_rs1_imm_edges (rs1 = 0x80000000, imm = 128)
  RVTEST_TESTDATA_LOAD_INT(x23, x17) # load rs1: x17 = 0x80000000
    14e0:	000ba883          	lw	x17,0(x23)
    14e4:	004b8b93          	addi	x23,x23,4

000014e8 <I_andi_cg_cr_rs1_imm_edges_rs1val_0x80000000_immval_0x80>:
I_andi_cg_cr_rs1_imm_edges_rs1val_0x80000000_immval_0x80:
  andi x6, x17, 128 # perform operation
    14e8:	0808f313          	andi	x6,x17,128
  # Check if x6 contains the expected result. x10 is the signature ptr, x5 is the link ptr, x4 is a temp reg.
  RVTEST_SIGUPD(x10, x5, x4, x6, I_andi_cg_cr_rs1_imm_edges_rs1val_0x80000000_immval_0x80, I_andi_cg_cr_rs1_imm_edges_rs1val_0x80000000_immval_0x80_str)
    14ec:	00052203          	lw	x4,0(x10)
    14f0:	00620863          	beq	x4,x6,1500 <I_andi_cg_cr_rs1_imm_edges_rs1val_0x80000000_immval_0x80+0x18>
    14f4:	7c9012ef          	jal	x5,34bc <failedtest_x5_x4>
    14f8:	000014e8          	.word	0x000014e8
    14fc:	0000aad3          	.word	0x0000aad3
    1500:	00450513          	addi	x10,x10,4

# Testcase cr_rs1_imm_edges (rs1 = 0x80000000, imm = 256)
  RVTEST_TESTDATA_LOAD_INT(x23, x25) # load rs1: x25 = 0x80000000
    1504:	000bac83          	lw	x25,0(x23)
    1508:	004b8b93          	addi	x23,x23,4

0000150c <I_andi_cg_cr_rs1_imm_edges_rs1val_0x80000000_immval_0x100>:
I_andi_cg_cr_rs1_imm_edges_rs1val_0x80000000_immval_0x100:
  andi x28, x25, 256 # perform operation
    150c:	100cfe13          	andi	x28,x25,256
  # Check if x28 contains the expected result. x10 is the signature ptr, x5 is the link ptr, x4 is a temp reg.
  RVTEST_SIGUPD(x10, x5, x4, x28, I_andi_cg_cr_rs1_imm_edges_rs1val_0x80000000_immval_0x100, I_andi_cg_cr_rs1_imm_edges_rs1val_0x80000000_immval_0x100_str)
    1510:	00052203          	lw	x4,0(x10)
    1514:	01c20863          	beq	x4,x28,1524 <I_andi_cg_cr_rs1_imm_edges_rs1val_0x80000000_immval_0x100+0x18>
    1518:	7a5012ef          	jal	x5,34bc <failedtest_x5_x4>
    151c:	0000150c          	.word	0x0000150c
    1520:	0000ab29          	.word	0x0000ab29
    1524:	00450513          	addi	x10,x10,4

# Testcase cr_rs1_imm_edges (rs1 = 0x80000000, imm = 512)
  RVTEST_TESTDATA_LOAD_INT(x23, x6) # load rs1: x6 = 0x80000000
    1528:	000ba303          	lw	x6,0(x23)
    152c:	004b8b93          	addi	x23,x23,4

00001530 <I_andi_cg_cr_rs1_imm_edges_rs1val_0x80000000_immval_0x200>:
I_andi_cg_cr_rs1_imm_edges_rs1val_0x80000000_immval_0x200:
  andi x24, x6, 512 # perform operation
    1530:	20037c13          	andi	x24,x6,512
  # Check if x24 contains the expected result. x10 is the signature ptr, x5 is the link ptr, x4 is a temp reg.
  RVTEST_SIGUPD(x10, x5, x4, x24, I_andi_cg_cr_rs1_imm_edges_rs1val_0x80000000_immval_0x200, I_andi_cg_cr_rs1_imm_edges_rs1val_0x80000000_immval_0x200_str)
    1534:	00052203          	lw	x4,0(x10)
    1538:	01820863          	beq	x4,x24,1548 <I_andi_cg_cr_rs1_imm_edges_rs1val_0x80000000_immval_0x200+0x18>
    153c:	781012ef          	jal	x5,34bc <failedtest_x5_x4>
    1540:	00001530          	.word	0x00001530
    1544:	0000ab80          	.word	0x0000ab80
    1548:	00450513          	addi	x10,x10,4

# Testcase cr_rs1_imm_edges (rs1 = 0x80000000, imm = 1023)
  RVTEST_TESTDATA_LOAD_INT(x23, x11) # load rs1: x11 = 0x80000000
    154c:	000ba583          	lw	x11,0(x23)
    1550:	004b8b93          	addi	x23,x23,4

00001554 <I_andi_cg_cr_rs1_imm_edges_rs1val_0x80000000_immval_0x3ff>:
I_andi_cg_cr_rs1_imm_edges_rs1val_0x80000000_immval_0x3ff:
  andi x16, x11, 1023 # perform operation
    1554:	3ff5f813          	andi	x16,x11,1023
  # Check if x16 contains the expected result. x10 is the signature ptr, x5 is the link ptr, x4 is a temp reg.
  RVTEST_SIGUPD(x10, x5, x4, x16, I_andi_cg_cr_rs1_imm_edges_rs1val_0x80000000_immval_0x3ff, I_andi_cg_cr_rs1_imm_edges_rs1val_0x80000000_immval_0x3ff_str)
    1558:	00052203          	lw	x4,0(x10)
    155c:	01020863          	beq	x4,x16,156c <I_andi_cg_cr_rs1_imm_edges_rs1val_0x80000000_immval_0x3ff+0x18>
    1560:	75d012ef          	jal	x5,34bc <failedtest_x5_x4>
    1564:	00001554          	.word	0x00001554
    1568:	0000abd7          	.word	0x0000abd7
    156c:	00450513          	addi	x10,x10,4

# Testcase cr_rs1_imm_edges (rs1 = 0x80000000, imm = 1024)
  RVTEST_TESTDATA_LOAD_INT(x23, x27) # load rs1: x27 = 0x80000000
    1570:	000bad83          	lw	x27,0(x23)
    1574:	004b8b93          	addi	x23,x23,4

00001578 <I_andi_cg_cr_rs1_imm_edges_rs1val_0x80000000_immval_0x400>:
I_andi_cg_cr_rs1_imm_edges_rs1val_0x80000000_immval_0x400:
  andi x14, x27, 1024 # perform operation
    1578:	400df713          	andi	x14,x27,1024
  # Check if x14 contains the expected result. x10 is the signature ptr, x5 is the link ptr, x4 is a temp reg.
  RVTEST_SIGUPD(x10, x5, x4, x14, I_andi_cg_cr_rs1_imm_edges_rs1val_0x80000000_immval_0x400, I_andi_cg_cr_rs1_imm_edges_rs1val_0x80000000_immval_0x400_str)
    157c:	00052203          	lw	x4,0(x10)
    1580:	00e20863          	beq	x4,x14,1590 <I_andi_cg_cr_rs1_imm_edges_rs1val_0x80000000_immval_0x400+0x18>
    1584:	739012ef          	jal	x5,34bc <failedtest_x5_x4>
    1588:	00001578          	.word	0x00001578
    158c:	0000ac2e          	.word	0x0000ac2e
    1590:	00450513          	addi	x10,x10,4

# Testcase cr_rs1_imm_edges (rs1 = 0x80000000, imm = 1795)
  RVTEST_TESTDATA_LOAD_INT(x23, x8) # load rs1: x8 = 0x80000000
    1594:	000ba403          	lw	x8,0(x23)
    1598:	004b8b93          	addi	x23,x23,4

0000159c <I_andi_cg_cr_rs1_imm_edges_rs1val_0x80000000_immval_0x703>:
I_andi_cg_cr_rs1_imm_edges_rs1val_0x80000000_immval_0x703:
  andi x28, x8, 1795 # perform operation
    159c:	70347e13          	andi	x28,x8,1795
  # Check if x28 contains the expected result. x10 is the signature ptr, x5 is the link ptr, x4 is a temp reg.
  RVTEST_SIGUPD(x10, x5, x4, x28, I_andi_cg_cr_rs1_imm_edges_rs1val_0x80000000_immval_0x703, I_andi_cg_cr_rs1_imm_edges_rs1val_0x80000000_immval_0x703_str)
    15a0:	00052203          	lw	x4,0(x10)
    15a4:	01c20863          	beq	x4,x28,15b4 <I_andi_cg_cr_rs1_imm_edges_rs1val_0x80000000_immval_0x703+0x18>
    15a8:	715012ef          	jal	x5,34bc <failedtest_x5_x4>
    15ac:	0000159c          	.word	0x0000159c
    15b0:	0000ac85          	.word	0x0000ac85
    15b4:	00450513          	addi	x10,x10,4

# Testcase cr_rs1_imm_edges (rs1 = 0x80000000, imm = 2047)
  RVTEST_TESTDATA_LOAD_INT(x23, x2) # load rs1: x2 = 0x80000000
    15b8:	000ba103          	lw	x2,0(x23)
    15bc:	004b8b93          	addi	x23,x23,4

000015c0 <I_andi_cg_cr_rs1_imm_edges_rs1val_0x80000000_immval_0x7ff>:
I_andi_cg_cr_rs1_imm_edges_rs1val_0x80000000_immval_0x7ff:
  andi x19, x2, 2047 # perform operation
    15c0:	7ff17993          	andi	x19,x2,2047
  # Check if x19 contains the expected result. x10 is the signature ptr, x5 is the link ptr, x4 is a temp reg.
  RVTEST_SIGUPD(x10, x5, x4, x19, I_andi_cg_cr_rs1_imm_edges_rs1val_0x80000000_immval_0x7ff, I_andi_cg_cr_rs1_imm_edges_rs1val_0x80000000_immval_0x7ff_str)
    15c4:	00052203          	lw	x4,0(x10)
    15c8:	01320863          	beq	x4,x19,15d8 <I_andi_cg_cr_rs1_imm_edges_rs1val_0x80000000_immval_0x7ff+0x18>
    15cc:	6f1012ef          	jal	x5,34bc <failedtest_x5_x4>
    15d0:	000015c0          	.word	0x000015c0
    15d4:	0000acdc          	.word	0x0000acdc
    15d8:	00450513          	addi	x10,x10,4

# Testcase cr_rs1_imm_edges (rs1 = 0x80000000, imm = -2048)
  RVTEST_TESTDATA_LOAD_INT(x23, x19) # load rs1: x19 = 0x80000000
    15dc:	000ba983          	lw	x19,0(x23)
    15e0:	004b8b93          	addi	x23,x23,4

000015e4 <I_andi_cg_cr_rs1_imm_edges_rs1val_0x80000000_immval_m0x800>:
I_andi_cg_cr_rs1_imm_edges_rs1val_0x80000000_immval_m0x800:
  andi x21, x19, -2048 # perform operation
    15e4:	8009fa93          	andi	x21,x19,-2048
  # Check if x21 contains the expected result. x10 is the signature ptr, x5 is the link ptr, x4 is a temp reg.
  RVTEST_SIGUPD(x10, x5, x4, x21, I_andi_cg_cr_rs1_imm_edges_rs1val_0x80000000_immval_m0x800, I_andi_cg_cr_rs1_imm_edges_rs1val_0x80000000_immval_m0x800_str)
    15e8:	00052203          	lw	x4,0(x10)
    15ec:	01520863          	beq	x4,x21,15fc <I_andi_cg_cr_rs1_imm_edges_rs1val_0x80000000_immval_m0x800+0x18>
    15f0:	6cd012ef          	jal	x5,34bc <failedtest_x5_x4>
    15f4:	000015e4          	.word	0x000015e4
    15f8:	0000ad33          	.word	0x0000ad33
    15fc:	00450513          	addi	x10,x10,4

# Testcase cr_rs1_imm_edges (rs1 = 0x80000000, imm = -2047)
  RVTEST_TESTDATA_LOAD_INT(x23, x12) # load rs1: x12 = 0x80000000
    1600:	000ba603          	lw	x12,0(x23)
    1604:	004b8b93          	addi	x23,x23,4

00001608 <I_andi_cg_cr_rs1_imm_edges_rs1val_0x80000000_immval_m0x7ff>:
I_andi_cg_cr_rs1_imm_edges_rs1val_0x80000000_immval_m0x7ff:
  andi x8, x12, -2047 # perform operation
    1608:	80167413          	andi	x8,x12,-2047
  # Check if x8 contains the expected result. x10 is the signature ptr, x5 is the link ptr, x4 is a temp reg.
  RVTEST_SIGUPD(x10, x5, x4, x8, I_andi_cg_cr_rs1_imm_edges_rs1val_0x80000000_immval_m0x7ff, I_andi_cg_cr_rs1_imm_edges_rs1val_0x80000000_immval_m0x7ff_str)
    160c:	00052203          	lw	x4,0(x10)
    1610:	00820863          	beq	x4,x8,1620 <I_andi_cg_cr_rs1_imm_edges_rs1val_0x80000000_immval_m0x7ff+0x18>
    1614:	6a9012ef          	jal	x5,34bc <failedtest_x5_x4>
    1618:	00001608          	.word	0x00001608
    161c:	0000ad8b          	.word	0x0000ad8b
    1620:	00450513          	addi	x10,x10,4

# Testcase cr_rs1_imm_edges (rs1 = 0x80000000, imm = -2)
  RVTEST_TESTDATA_LOAD_INT(x23, x31) # load rs1: x31 = 0x80000000
    1624:	000baf83          	lw	x31,0(x23)
    1628:	004b8b93          	addi	x23,x23,4

0000162c <I_andi_cg_cr_rs1_imm_edges_rs1val_0x80000000_immval_m0x2>:
I_andi_cg_cr_rs1_imm_edges_rs1val_0x80000000_immval_m0x2:
  andi x19, x31, -2 # perform operation
    162c:	ffeff993          	andi	x19,x31,-2
  # Check if x19 contains the expected result. x10 is the signature ptr, x5 is the link ptr, x4 is a temp reg.
  RVTEST_SIGUPD(x10, x5, x4, x19, I_andi_cg_cr_rs1_imm_edges_rs1val_0x80000000_immval_m0x2, I_andi_cg_cr_rs1_imm_edges_rs1val_0x80000000_immval_m0x2_str)
    1630:	00052203          	lw	x4,0(x10)
    1634:	01320863          	beq	x4,x19,1644 <I_andi_cg_cr_rs1_imm_edges_rs1val_0x80000000_immval_m0x2+0x18>
    1638:	685012ef          	jal	x5,34bc <failedtest_x5_x4>
    163c:	0000162c          	.word	0x0000162c
    1640:	0000ade3          	.word	0x0000ade3
    1644:	00450513          	addi	x10,x10,4

# Testcase cr_rs1_imm_edges (rs1 = 0x80000000, imm = -1)
  RVTEST_TESTDATA_LOAD_INT(x23, x22) # load rs1: x22 = 0x80000000
    1648:	000bab03          	lw	x22,0(x23)
    164c:	004b8b93          	addi	x23,x23,4

00001650 <I_andi_cg_cr_rs1_imm_edges_rs1val_0x80000000_immval_m0x1>:
I_andi_cg_cr_rs1_imm_edges_rs1val_0x80000000_immval_m0x1:
  andi x14, x22, -1 # perform operation
    1650:	fffb7713          	andi	x14,x22,-1
  # Check if x14 contains the expected result. x10 is the signature ptr, x5 is the link ptr, x4 is a temp reg.
  RVTEST_SIGUPD(x10, x5, x4, x14, I_andi_cg_cr_rs1_imm_edges_rs1val_0x80000000_immval_m0x1, I_andi_cg_cr_rs1_imm_edges_rs1val_0x80000000_immval_m0x1_str)
    1654:	00052203          	lw	x4,0(x10)
    1658:	00e20863          	beq	x4,x14,1668 <I_andi_cg_cr_rs1_imm_edges_rs1val_0x80000000_immval_m0x1+0x18>
    165c:	661012ef          	jal	x5,34bc <failedtest_x5_x4>
    1660:	00001650          	.word	0x00001650
    1664:	0000ae39          	.word	0x0000ae39
    1668:	00450513          	addi	x10,x10,4

# Testcase cr_rs1_imm_edges (rs1 = 0x80000001, imm = 0)
  RVTEST_TESTDATA_LOAD_INT(x23, x22) # load rs1: x22 = 0x80000001
    166c:	000bab03          	lw	x22,0(x23)
    1670:	004b8b93          	addi	x23,x23,4

00001674 <I_andi_cg_cr_rs1_imm_edges_rs1val_0x80000001_immval_0x0>:
I_andi_cg_cr_rs1_imm_edges_rs1val_0x80000001_immval_0x0:
  andi x25, x22, 0 # perform operation
    1674:	000b7c93          	andi	x25,x22,0
  # Check if x25 contains the expected result. x10 is the signature ptr, x5 is the link ptr, x4 is a temp reg.
  RVTEST_SIGUPD(x10, x5, x4, x25, I_andi_cg_cr_rs1_imm_edges_rs1val_0x80000001_immval_0x0, I_andi_cg_cr_rs1_imm_edges_rs1val_0x80000001_immval_0x0_str)
    1678:	00052203          	lw	x4,0(x10)
    167c:	01920863          	beq	x4,x25,168c <I_andi_cg_cr_rs1_imm_edges_rs1val_0x80000001_immval_0x0+0x18>
    1680:	63d012ef          	jal	x5,34bc <failedtest_x5_x4>
    1684:	00001674          	.word	0x00001674
    1688:	0000ae8f          	.word	0x0000ae8f
    168c:	00450513          	addi	x10,x10,4

# Testcase cr_rs1_imm_edges (rs1 = 0x80000001, imm = 1)
  RVTEST_TESTDATA_LOAD_INT(x23, x27) # load rs1: x27 = 0x80000001
    1690:	000bad83          	lw	x27,0(x23)
    1694:	004b8b93          	addi	x23,x23,4

00001698 <I_andi_cg_cr_rs1_imm_edges_rs1val_0x80000001_immval_0x1>:
I_andi_cg_cr_rs1_imm_edges_rs1val_0x80000001_immval_0x1:
  andi x9, x27, 1 # perform operation
    1698:	001df493          	andi	x9,x27,1
  # Check if x9 contains the expected result. x10 is the signature ptr, x5 is the link ptr, x4 is a temp reg.
  RVTEST_SIGUPD(x10, x5, x4, x9, I_andi_cg_cr_rs1_imm_edges_rs1val_0x80000001_immval_0x1, I_andi_cg_cr_rs1_imm_edges_rs1val_0x80000001_immval_0x1_str)
    169c:	00052203          	lw	x4,0(x10)
    16a0:	00920863          	beq	x4,x9,16b0 <I_andi_cg_cr_rs1_imm_edges_rs1val_0x80000001_immval_0x1+0x18>
    16a4:	619012ef          	jal	x5,34bc <failedtest_x5_x4>
    16a8:	00001698          	.word	0x00001698
    16ac:	0000aee4          	.word	0x0000aee4
    16b0:	00450513          	addi	x10,x10,4

# Testcase cr_rs1_imm_edges (rs1 = 0x80000001, imm = 2)
  RVTEST_TESTDATA_LOAD_INT(x23, x17) # load rs1: x17 = 0x80000001
    16b4:	000ba883          	lw	x17,0(x23)
    16b8:	004b8b93          	addi	x23,x23,4

000016bc <I_andi_cg_cr_rs1_imm_edges_rs1val_0x80000001_immval_0x2>:
I_andi_cg_cr_rs1_imm_edges_rs1val_0x80000001_immval_0x2:
  andi x25, x17, 2 # perform operation
    16bc:	0028fc93          	andi	x25,x17,2
  # Check if x25 contains the expected result. x10 is the signature ptr, x5 is the link ptr, x4 is a temp reg.
  RVTEST_SIGUPD(x10, x5, x4, x25, I_andi_cg_cr_rs1_imm_edges_rs1val_0x80000001_immval_0x2, I_andi_cg_cr_rs1_imm_edges_rs1val_0x80000001_immval_0x2_str)
    16c0:	00052203          	lw	x4,0(x10)
    16c4:	01920863          	beq	x4,x25,16d4 <I_andi_cg_cr_rs1_imm_edges_rs1val_0x80000001_immval_0x2+0x18>
    16c8:	5f5012ef          	jal	x5,34bc <failedtest_x5_x4>
    16cc:	000016bc          	.word	0x000016bc
    16d0:	0000af39          	.word	0x0000af39
    16d4:	00450513          	addi	x10,x10,4

# Testcase cr_rs1_imm_edges (rs1 = 0x80000001, imm = 3)
  RVTEST_TESTDATA_LOAD_INT(x23, x13) # load rs1: x13 = 0x80000001
    16d8:	000ba683          	lw	x13,0(x23)
    16dc:	004b8b93          	addi	x23,x23,4

000016e0 <I_andi_cg_cr_rs1_imm_edges_rs1val_0x80000001_immval_0x3>:
I_andi_cg_cr_rs1_imm_edges_rs1val_0x80000001_immval_0x3:
  andi x30, x13, 3 # perform operation
    16e0:	0036ff13          	andi	x30,x13,3
  # Check if x30 contains the expected result. x10 is the signature ptr, x5 is the link ptr, x4 is a temp reg.
  RVTEST_SIGUPD(x10, x5, x4, x30, I_andi_cg_cr_rs1_imm_edges_rs1val_0x80000001_immval_0x3, I_andi_cg_cr_rs1_imm_edges_rs1val_0x80000001_immval_0x3_str)
    16e4:	00052203          	lw	x4,0(x10)
    16e8:	01e20863          	beq	x4,x30,16f8 <I_andi_cg_cr_rs1_imm_edges_rs1val_0x80000001_immval_0x3+0x18>
    16ec:	5d1012ef          	jal	x5,34bc <failedtest_x5_x4>
    16f0:	000016e0          	.word	0x000016e0
    16f4:	0000af8e          	.word	0x0000af8e
    16f8:	00450513          	addi	x10,x10,4

# Testcase cr_rs1_imm_edges (rs1 = 0x80000001, imm = 4)
  RVTEST_TESTDATA_LOAD_INT(x23, x15) # load rs1: x15 = 0x80000001
    16fc:	000ba783          	lw	x15,0(x23)
    1700:	004b8b93          	addi	x23,x23,4

00001704 <I_andi_cg_cr_rs1_imm_edges_rs1val_0x80000001_immval_0x4>:
I_andi_cg_cr_rs1_imm_edges_rs1val_0x80000001_immval_0x4:
  andi x25, x15, 4 # perform operation
    1704:	0047fc93          	andi	x25,x15,4
  # Check if x25 contains the expected result. x10 is the signature ptr, x5 is the link ptr, x4 is a temp reg.
  RVTEST_SIGUPD(x10, x5, x4, x25, I_andi_cg_cr_rs1_imm_edges_rs1val_0x80000001_immval_0x4, I_andi_cg_cr_rs1_imm_edges_rs1val_0x80000001_immval_0x4_str)
    1708:	00052203          	lw	x4,0(x10)
    170c:	01920863          	beq	x4,x25,171c <I_andi_cg_cr_rs1_imm_edges_rs1val_0x80000001_immval_0x4+0x18>
    1710:	5ad012ef          	jal	x5,34bc <failedtest_x5_x4>
    1714:	00001704          	.word	0x00001704
    1718:	0000afe3          	.word	0x0000afe3
    171c:	00450513          	addi	x10,x10,4

# Testcase cr_rs1_imm_edges (rs1 = 0x80000001, imm = 8)
  RVTEST_TESTDATA_LOAD_INT(x23, x18) # load rs1: x18 = 0x80000001
    1720:	000ba903          	lw	x18,0(x23)
    1724:	004b8b93          	addi	x23,x23,4

00001728 <I_andi_cg_cr_rs1_imm_edges_rs1val_0x80000001_immval_0x8>:
I_andi_cg_cr_rs1_imm_edges_rs1val_0x80000001_immval_0x8:
  andi x25, x18, 8 # perform operation
    1728:	00897c93          	andi	x25,x18,8
  # Check if x25 contains the expected result. x10 is the signature ptr, x5 is the link ptr, x4 is a temp reg.
  RVTEST_SIGUPD(x10, x5, x4, x25, I_andi_cg_cr_rs1_imm_edges_rs1val_0x80000001_immval_0x8, I_andi_cg_cr_rs1_imm_edges_rs1val_0x80000001_immval_0x8_str)
    172c:	00052203          	lw	x4,0(x10)
    1730:	01920863          	beq	x4,x25,1740 <I_andi_cg_cr_rs1_imm_edges_rs1val_0x80000001_immval_0x8+0x18>
    1734:	589012ef          	jal	x5,34bc <failedtest_x5_x4>
    1738:	00001728          	.word	0x00001728
    173c:	0000b038          	.word	0x0000b038
    1740:	00450513          	addi	x10,x10,4

# Testcase cr_rs1_imm_edges (rs1 = 0x80000001, imm = 16)
  RVTEST_TESTDATA_LOAD_INT(x23, x15) # load rs1: x15 = 0x80000001
    1744:	000ba783          	lw	x15,0(x23)
    1748:	004b8b93          	addi	x23,x23,4

0000174c <I_andi_cg_cr_rs1_imm_edges_rs1val_0x80000001_immval_0x10>:
I_andi_cg_cr_rs1_imm_edges_rs1val_0x80000001_immval_0x10:
  andi x3, x15, 16 # perform operation
    174c:	0107f193          	andi	x3,x15,16
  # Check if x3 contains the expected result. x10 is the signature ptr, x5 is the link ptr, x4 is a temp reg.
  RVTEST_SIGUPD(x10, x5, x4, x3, I_andi_cg_cr_rs1_imm_edges_rs1val_0x80000001_immval_0x10, I_andi_cg_cr_rs1_imm_edges_rs1val_0x80000001_immval_0x10_str)
    1750:	00052203          	lw	x4,0(x10)
    1754:	00320863          	beq	x4,x3,1764 <I_andi_cg_cr_rs1_imm_edges_rs1val_0x80000001_immval_0x10+0x18>
    1758:	565012ef          	jal	x5,34bc <failedtest_x5_x4>
    175c:	0000174c          	.word	0x0000174c
    1760:	0000b08d          	.word	0x0000b08d
    1764:	00450513          	addi	x10,x10,4

# Testcase cr_rs1_imm_edges (rs1 = 0x80000001, imm = 32)
  RVTEST_TESTDATA_LOAD_INT(x23, x27) # load rs1: x27 = 0x80000001
    1768:	000bad83          	lw	x27,0(x23)
    176c:	004b8b93          	addi	x23,x23,4

00001770 <I_andi_cg_cr_rs1_imm_edges_rs1val_0x80000001_immval_0x20>:
I_andi_cg_cr_rs1_imm_edges_rs1val_0x80000001_immval_0x20:
  andi x26, x27, 32 # perform operation
    1770:	020dfd13          	andi	x26,x27,32
  # Check if x26 contains the expected result. x10 is the signature ptr, x5 is the link ptr, x4 is a temp reg.
  RVTEST_SIGUPD(x10, x5, x4, x26, I_andi_cg_cr_rs1_imm_edges_rs1val_0x80000001_immval_0x20, I_andi_cg_cr_rs1_imm_edges_rs1val_0x80000001_immval_0x20_str)
    1774:	00052203          	lw	x4,0(x10)
    1778:	01a20863          	beq	x4,x26,1788 <I_andi_cg_cr_rs1_imm_edges_rs1val_0x80000001_immval_0x20+0x18>
    177c:	541012ef          	jal	x5,34bc <failedtest_x5_x4>
    1780:	00001770          	.word	0x00001770
    1784:	0000b0e3          	.word	0x0000b0e3
    1788:	00450513          	addi	x10,x10,4

# Testcase cr_rs1_imm_edges (rs1 = 0x80000001, imm = 64)
  RVTEST_TESTDATA_LOAD_INT(x23, x24) # load rs1: x24 = 0x80000001
    178c:	000bac03          	lw	x24,0(x23)
    1790:	004b8b93          	addi	x23,x23,4

00001794 <I_andi_cg_cr_rs1_imm_edges_rs1val_0x80000001_immval_0x40>:
I_andi_cg_cr_rs1_imm_edges_rs1val_0x80000001_immval_0x40:
  andi x30, x24, 64 # perform operation
    1794:	040c7f13          	andi	x30,x24,64
  # Check if x30 contains the expected result. x10 is the signature ptr, x5 is the link ptr, x4 is a temp reg.
  RVTEST_SIGUPD(x10, x5, x4, x30, I_andi_cg_cr_rs1_imm_edges_rs1val_0x80000001_immval_0x40, I_andi_cg_cr_rs1_imm_edges_rs1val_0x80000001_immval_0x40_str)
    1798:	00052203          	lw	x4,0(x10)
    179c:	01e20863          	beq	x4,x30,17ac <I_andi_cg_cr_rs1_imm_edges_rs1val_0x80000001_immval_0x40+0x18>
    17a0:	51d012ef          	jal	x5,34bc <failedtest_x5_x4>
    17a4:	00001794          	.word	0x00001794
    17a8:	0000b139          	.word	0x0000b139
    17ac:	00450513          	addi	x10,x10,4

# Testcase cr_rs1_imm_edges (rs1 = 0x80000001, imm = 128)
  RVTEST_TESTDATA_LOAD_INT(x23, x2) # load rs1: x2 = 0x80000001
    17b0:	000ba103          	lw	x2,0(x23)
    17b4:	004b8b93          	addi	x23,x23,4

000017b8 <I_andi_cg_cr_rs1_imm_edges_rs1val_0x80000001_immval_0x80>:
I_andi_cg_cr_rs1_imm_edges_rs1val_0x80000001_immval_0x80:
  andi x29, x2, 128 # perform operation
    17b8:	08017e93          	andi	x29,x2,128
  # Check if x29 contains the expected result. x10 is the signature ptr, x5 is the link ptr, x4 is a temp reg.
  RVTEST_SIGUPD(x10, x5, x4, x29, I_andi_cg_cr_rs1_imm_edges_rs1val_0x80000001_immval_0x80, I_andi_cg_cr_rs1_imm_edges_rs1val_0x80000001_immval_0x80_str)
    17bc:	00052203          	lw	x4,0(x10)
    17c0:	01d20863          	beq	x4,x29,17d0 <I_andi_cg_cr_rs1_imm_edges_rs1val_0x80000001_immval_0x80+0x18>
    17c4:	4f9012ef          	jal	x5,34bc <failedtest_x5_x4>
    17c8:	000017b8          	.word	0x000017b8
    17cc:	0000b18f          	.word	0x0000b18f
    17d0:	00450513          	addi	x10,x10,4

# Testcase cr_rs1_imm_edges (rs1 = 0x80000001, imm = 256)
  RVTEST_TESTDATA_LOAD_INT(x23, x18) # load rs1: x18 = 0x80000001
    17d4:	000ba903          	lw	x18,0(x23)
    17d8:	004b8b93          	addi	x23,x23,4

000017dc <I_andi_cg_cr_rs1_imm_edges_rs1val_0x80000001_immval_0x100>:
I_andi_cg_cr_rs1_imm_edges_rs1val_0x80000001_immval_0x100:
  andi x1, x18, 256 # perform operation
    17dc:	10097093          	andi	x1,x18,256
  # Check if x1 contains the expected result. x10 is the signature ptr, x5 is the link ptr, x4 is a temp reg.
  RVTEST_SIGUPD(x10, x5, x4, x1, I_andi_cg_cr_rs1_imm_edges_rs1val_0x80000001_immval_0x100, I_andi_cg_cr_rs1_imm_edges_rs1val_0x80000001_immval_0x100_str)
    17e0:	00052203          	lw	x4,0(x10)
    17e4:	00120863          	beq	x4,x1,17f4 <I_andi_cg_cr_rs1_imm_edges_rs1val_0x80000001_immval_0x100+0x18>
    17e8:	4d5012ef          	jal	x5,34bc <failedtest_x5_x4>
    17ec:	000017dc          	.word	0x000017dc
    17f0:	0000b1e5          	.word	0x0000b1e5
    17f4:	00450513          	addi	x10,x10,4

# Testcase cr_rs1_imm_edges (rs1 = 0x80000001, imm = 512)
  RVTEST_TESTDATA_LOAD_INT(x23, x29) # load rs1: x29 = 0x80000001
    17f8:	000bae83          	lw	x29,0(x23)
    17fc:	004b8b93          	addi	x23,x23,4

00001800 <I_andi_cg_cr_rs1_imm_edges_rs1val_0x80000001_immval_0x200>:
I_andi_cg_cr_rs1_imm_edges_rs1val_0x80000001_immval_0x200:
  andi x30, x29, 512 # perform operation
    1800:	200eff13          	andi	x30,x29,512
  # Check if x30 contains the expected result. x10 is the signature ptr, x5 is the link ptr, x4 is a temp reg.
  RVTEST_SIGUPD(x10, x5, x4, x30, I_andi_cg_cr_rs1_imm_edges_rs1val_0x80000001_immval_0x200, I_andi_cg_cr_rs1_imm_edges_rs1val_0x80000001_immval_0x200_str)
    1804:	00052203          	lw	x4,0(x10)
    1808:	01e20863          	beq	x4,x30,1818 <I_andi_cg_cr_rs1_imm_edges_rs1val_0x80000001_immval_0x200+0x18>
    180c:	4b1012ef          	jal	x5,34bc <failedtest_x5_x4>
    1810:	00001800          	.word	0x00001800
    1814:	0000b23c          	.word	0x0000b23c
    1818:	00450513          	addi	x10,x10,4

# Testcase cr_rs1_imm_edges (rs1 = 0x80000001, imm = 1023)
  RVTEST_TESTDATA_LOAD_INT(x23, x3) # load rs1: x3 = 0x80000001
    181c:	000ba183          	lw	x3,0(x23)
    1820:	004b8b93          	addi	x23,x23,4

00001824 <I_andi_cg_cr_rs1_imm_edges_rs1val_0x80000001_immval_0x3ff>:
I_andi_cg_cr_rs1_imm_edges_rs1val_0x80000001_immval_0x3ff:
  andi x21, x3, 1023 # perform operation
    1824:	3ff1fa93          	andi	x21,x3,1023
  # Check if x21 contains the expected result. x10 is the signature ptr, x5 is the link ptr, x4 is a temp reg.
  RVTEST_SIGUPD(x10, x5, x4, x21, I_andi_cg_cr_rs1_imm_edges_rs1val_0x80000001_immval_0x3ff, I_andi_cg_cr_rs1_imm_edges_rs1val_0x80000001_immval_0x3ff_str)
    1828:	00052203          	lw	x4,0(x10)
    182c:	01520863          	beq	x4,x21,183c <I_andi_cg_cr_rs1_imm_edges_rs1val_0x80000001_immval_0x3ff+0x18>
    1830:	48d012ef          	jal	x5,34bc <failedtest_x5_x4>
    1834:	00001824          	.word	0x00001824
    1838:	0000b293          	.word	0x0000b293
    183c:	00450513          	addi	x10,x10,4

# Testcase cr_rs1_imm_edges (rs1 = 0x80000001, imm = 1024)
  RVTEST_TESTDATA_LOAD_INT(x23, x1) # load rs1: x1 = 0x80000001
    1840:	000ba083          	lw	x1,0(x23)
    1844:	004b8b93          	addi	x23,x23,4

00001848 <I_andi_cg_cr_rs1_imm_edges_rs1val_0x80000001_immval_0x400>:
I_andi_cg_cr_rs1_imm_edges_rs1val_0x80000001_immval_0x400:
  andi x25, x1, 1024 # perform operation
    1848:	4000fc93          	andi	x25,x1,1024
  # Check if x25 contains the expected result. x10 is the signature ptr, x5 is the link ptr, x4 is a temp reg.
  RVTEST_SIGUPD(x10, x5, x4, x25, I_andi_cg_cr_rs1_imm_edges_rs1val_0x80000001_immval_0x400, I_andi_cg_cr_rs1_imm_edges_rs1val_0x80000001_immval_0x400_str)
    184c:	00052203          	lw	x4,0(x10)
    1850:	01920863          	beq	x4,x25,1860 <I_andi_cg_cr_rs1_imm_edges_rs1val_0x80000001_immval_0x400+0x18>
    1854:	469012ef          	jal	x5,34bc <failedtest_x5_x4>
    1858:	00001848          	.word	0x00001848
    185c:	0000b2ea          	.word	0x0000b2ea
    1860:	00450513          	addi	x10,x10,4

# Testcase cr_rs1_imm_edges (rs1 = 0x80000001, imm = 1795)
  RVTEST_TESTDATA_LOAD_INT(x23, x8) # load rs1: x8 = 0x80000001
    1864:	000ba403          	lw	x8,0(x23)
    1868:	004b8b93          	addi	x23,x23,4

0000186c <I_andi_cg_cr_rs1_imm_edges_rs1val_0x80000001_immval_0x703>:
I_andi_cg_cr_rs1_imm_edges_rs1val_0x80000001_immval_0x703:
  andi x29, x8, 1795 # perform operation
    186c:	70347e93          	andi	x29,x8,1795
  # Check if x29 contains the expected result. x10 is the signature ptr, x5 is the link ptr, x4 is a temp reg.
  RVTEST_SIGUPD(x10, x5, x4, x29, I_andi_cg_cr_rs1_imm_edges_rs1val_0x80000001_immval_0x703, I_andi_cg_cr_rs1_imm_edges_rs1val_0x80000001_immval_0x703_str)
    1870:	00052203          	lw	x4,0(x10)
    1874:	01d20863          	beq	x4,x29,1884 <I_andi_cg_cr_rs1_imm_edges_rs1val_0x80000001_immval_0x703+0x18>
    1878:	445012ef          	jal	x5,34bc <failedtest_x5_x4>
    187c:	0000186c          	.word	0x0000186c
    1880:	0000b341          	.word	0x0000b341
    1884:	00450513          	addi	x10,x10,4

# Testcase cr_rs1_imm_edges (rs1 = 0x80000001, imm = 2047)
  RVTEST_TESTDATA_LOAD_INT(x23, x31) # load rs1: x31 = 0x80000001
    1888:	000baf83          	lw	x31,0(x23)
    188c:	004b8b93          	addi	x23,x23,4

00001890 <I_andi_cg_cr_rs1_imm_edges_rs1val_0x80000001_immval_0x7ff>:
I_andi_cg_cr_rs1_imm_edges_rs1val_0x80000001_immval_0x7ff:
  andi x17, x31, 2047 # perform operation
    1890:	7ffff893          	andi	x17,x31,2047
  # Check if x17 contains the expected result. x10 is the signature ptr, x5 is the link ptr, x4 is a temp reg.
  RVTEST_SIGUPD(x10, x5, x4, x17, I_andi_cg_cr_rs1_imm_edges_rs1val_0x80000001_immval_0x7ff, I_andi_cg_cr_rs1_imm_edges_rs1val_0x80000001_immval_0x7ff_str)
    1894:	00052203          	lw	x4,0(x10)
    1898:	01120863          	beq	x4,x17,18a8 <I_andi_cg_cr_rs1_imm_edges_rs1val_0x80000001_immval_0x7ff+0x18>
    189c:	421012ef          	jal	x5,34bc <failedtest_x5_x4>
    18a0:	00001890          	.word	0x00001890
    18a4:	0000b398          	.word	0x0000b398
    18a8:	00450513          	addi	x10,x10,4

# Testcase cr_rs1_imm_edges (rs1 = 0x80000001, imm = -2048)
  RVTEST_TESTDATA_LOAD_INT(x23, x28) # load rs1: x28 = 0x80000001
    18ac:	000bae03          	lw	x28,0(x23)
    18b0:	004b8b93          	addi	x23,x23,4

000018b4 <I_andi_cg_cr_rs1_imm_edges_rs1val_0x80000001_immval_m0x800>:
I_andi_cg_cr_rs1_imm_edges_rs1val_0x80000001_immval_m0x800:
  andi x27, x28, -2048 # perform operation
    18b4:	800e7d93          	andi	x27,x28,-2048
  # Check if x27 contains the expected result. x10 is the signature ptr, x5 is the link ptr, x4 is a temp reg.
  RVTEST_SIGUPD(x10, x5, x4, x27, I_andi_cg_cr_rs1_imm_edges_rs1val_0x80000001_immval_m0x800, I_andi_cg_cr_rs1_imm_edges_rs1val_0x80000001_immval_m0x800_str)
    18b8:	00052203          	lw	x4,0(x10)
    18bc:	01b20863          	beq	x4,x27,18cc <I_andi_cg_cr_rs1_imm_edges_rs1val_0x80000001_immval_m0x800+0x18>
    18c0:	3fd012ef          	jal	x5,34bc <failedtest_x5_x4>
    18c4:	000018b4          	.word	0x000018b4
    18c8:	0000b3ef          	.word	0x0000b3ef
    18cc:	00450513          	addi	x10,x10,4

# Testcase cr_rs1_imm_edges (rs1 = 0x80000001, imm = -2047)
  RVTEST_TESTDATA_LOAD_INT(x23, x21) # load rs1: x21 = 0x80000001
    18d0:	000baa83          	lw	x21,0(x23)
    18d4:	004b8b93          	addi	x23,x23,4

000018d8 <I_andi_cg_cr_rs1_imm_edges_rs1val_0x80000001_immval_m0x7ff>:
I_andi_cg_cr_rs1_imm_edges_rs1val_0x80000001_immval_m0x7ff:
  andi x2, x21, -2047 # perform operation
    18d8:	801af113          	andi	x2,x21,-2047
  # Check if x2 contains the expected result. x10 is the signature ptr, x5 is the link ptr, x4 is a temp reg.
  RVTEST_SIGUPD(x10, x5, x4, x2, I_andi_cg_cr_rs1_imm_edges_rs1val_0x80000001_immval_m0x7ff, I_andi_cg_cr_rs1_imm_edges_rs1val_0x80000001_immval_m0x7ff_str)
    18dc:	00052203          	lw	x4,0(x10)
    18e0:	00220863          	beq	x4,x2,18f0 <I_andi_cg_cr_rs1_imm_edges_rs1val_0x80000001_immval_m0x7ff+0x18>
    18e4:	3d9012ef          	jal	x5,34bc <failedtest_x5_x4>
    18e8:	000018d8          	.word	0x000018d8
    18ec:	0000b447          	.word	0x0000b447
    18f0:	00450513          	addi	x10,x10,4

# Testcase cr_rs1_imm_edges (rs1 = 0x80000001, imm = -2)
  RVTEST_TESTDATA_LOAD_INT(x23, x21) # load rs1: x21 = 0x80000001
    18f4:	000baa83          	lw	x21,0(x23)
    18f8:	004b8b93          	addi	x23,x23,4

000018fc <I_andi_cg_cr_rs1_imm_edges_rs1val_0x80000001_immval_m0x2>:
I_andi_cg_cr_rs1_imm_edges_rs1val_0x80000001_immval_m0x2:
  andi x20, x21, -2 # perform operation
    18fc:	ffeafa13          	andi	x20,x21,-2
  # Check if x20 contains the expected result. x10 is the signature ptr, x5 is the link ptr, x4 is a temp reg.
  RVTEST_SIGUPD(x10, x5, x4, x20, I_andi_cg_cr_rs1_imm_edges_rs1val_0x80000001_immval_m0x2, I_andi_cg_cr_rs1_imm_edges_rs1val_0x80000001_immval_m0x2_str)
    1900:	00052203          	lw	x4,0(x10)
    1904:	01420863          	beq	x4,x20,1914 <I_andi_cg_cr_rs1_imm_edges_rs1val_0x80000001_immval_m0x2+0x18>
    1908:	3b5012ef          	jal	x5,34bc <failedtest_x5_x4>
    190c:	000018fc          	.word	0x000018fc
    1910:	0000b49f          	.word	0x0000b49f
    1914:	00450513          	addi	x10,x10,4

# Testcase cr_rs1_imm_edges (rs1 = 0x80000001, imm = -1)
  RVTEST_TESTDATA_LOAD_INT(x23, x2) # load rs1: x2 = 0x80000001
    1918:	000ba103          	lw	x2,0(x23)
    191c:	004b8b93          	addi	x23,x23,4

00001920 <I_andi_cg_cr_rs1_imm_edges_rs1val_0x80000001_immval_m0x1>:
I_andi_cg_cr_rs1_imm_edges_rs1val_0x80000001_immval_m0x1:
  andi x6, x2, -1 # perform operation
    1920:	fff17313          	andi	x6,x2,-1
  # Check if x6 contains the expected result. x10 is the signature ptr, x5 is the link ptr, x4 is a temp reg.
  RVTEST_SIGUPD(x10, x5, x4, x6, I_andi_cg_cr_rs1_imm_edges_rs1val_0x80000001_immval_m0x1, I_andi_cg_cr_rs1_imm_edges_rs1val_0x80000001_immval_m0x1_str)
    1924:	00052203          	lw	x4,0(x10)
    1928:	00620863          	beq	x4,x6,1938 <I_andi_cg_cr_rs1_imm_edges_rs1val_0x80000001_immval_m0x1+0x18>
    192c:	391012ef          	jal	x5,34bc <failedtest_x5_x4>
    1930:	00001920          	.word	0x00001920
    1934:	0000b4f5          	.word	0x0000b4f5
    1938:	00450513          	addi	x10,x10,4

# Testcase cr_rs1_imm_edges (rs1 = 0x7fffffff, imm = 0)
  RVTEST_TESTDATA_LOAD_INT(x23, x11) # load rs1: x11 = 0x7fffffff
    193c:	000ba583          	lw	x11,0(x23)
    1940:	004b8b93          	addi	x23,x23,4

00001944 <I_andi_cg_cr_rs1_imm_edges_rs1val_0x7fffffff_immval_0x0>:
I_andi_cg_cr_rs1_imm_edges_rs1val_0x7fffffff_immval_0x0:
  andi x8, x11, 0 # perform operation
    1944:	0005f413          	andi	x8,x11,0
  # Check if x8 contains the expected result. x10 is the signature ptr, x5 is the link ptr, x4 is a temp reg.
  RVTEST_SIGUPD(x10, x5, x4, x8, I_andi_cg_cr_rs1_imm_edges_rs1val_0x7fffffff_immval_0x0, I_andi_cg_cr_rs1_imm_edges_rs1val_0x7fffffff_immval_0x0_str)
    1948:	00052203          	lw	x4,0(x10)
    194c:	00820863          	beq	x4,x8,195c <I_andi_cg_cr_rs1_imm_edges_rs1val_0x7fffffff_immval_0x0+0x18>
    1950:	36d012ef          	jal	x5,34bc <failedtest_x5_x4>
    1954:	00001944          	.word	0x00001944
    1958:	0000b54b          	.word	0x0000b54b
    195c:	00450513          	addi	x10,x10,4

# Testcase cr_rs1_imm_edges (rs1 = 0x7fffffff, imm = 1)
  RVTEST_TESTDATA_LOAD_INT(x23, x28) # load rs1: x28 = 0x7fffffff
    1960:	000bae03          	lw	x28,0(x23)
    1964:	004b8b93          	addi	x23,x23,4

00001968 <I_andi_cg_cr_rs1_imm_edges_rs1val_0x7fffffff_immval_0x1>:
I_andi_cg_cr_rs1_imm_edges_rs1val_0x7fffffff_immval_0x1:
  andi x7, x28, 1 # perform operation
    1968:	001e7393          	andi	x7,x28,1
  # Check if x7 contains the expected result. x10 is the signature ptr, x5 is the link ptr, x4 is a temp reg.
  RVTEST_SIGUPD(x10, x5, x4, x7, I_andi_cg_cr_rs1_imm_edges_rs1val_0x7fffffff_immval_0x1, I_andi_cg_cr_rs1_imm_edges_rs1val_0x7fffffff_immval_0x1_str)
    196c:	00052203          	lw	x4,0(x10)
    1970:	00720863          	beq	x4,x7,1980 <I_andi_cg_cr_rs1_imm_edges_rs1val_0x7fffffff_immval_0x1+0x18>
    1974:	349012ef          	jal	x5,34bc <failedtest_x5_x4>
    1978:	00001968          	.word	0x00001968
    197c:	0000b5a0          	.word	0x0000b5a0
    1980:	00450513          	addi	x10,x10,4

# Testcase cr_rs1_imm_edges (rs1 = 0x7fffffff, imm = 2)
  RVTEST_TESTDATA_LOAD_INT(x23, x8) # load rs1: x8 = 0x7fffffff
    1984:	000ba403          	lw	x8,0(x23)
    1988:	004b8b93          	addi	x23,x23,4

0000198c <I_andi_cg_cr_rs1_imm_edges_rs1val_0x7fffffff_immval_0x2>:
I_andi_cg_cr_rs1_imm_edges_rs1val_0x7fffffff_immval_0x2:
  andi x29, x8, 2 # perform operation
    198c:	00247e93          	andi	x29,x8,2
  # Check if x29 contains the expected result. x10 is the signature ptr, x5 is the link ptr, x4 is a temp reg.
  RVTEST_SIGUPD(x10, x5, x4, x29, I_andi_cg_cr_rs1_imm_edges_rs1val_0x7fffffff_immval_0x2, I_andi_cg_cr_rs1_imm_edges_rs1val_0x7fffffff_immval_0x2_str)
    1990:	00052203          	lw	x4,0(x10)
    1994:	01d20863          	beq	x4,x29,19a4 <I_andi_cg_cr_rs1_imm_edges_rs1val_0x7fffffff_immval_0x2+0x18>
    1998:	325012ef          	jal	x5,34bc <failedtest_x5_x4>
    199c:	0000198c          	.word	0x0000198c
    19a0:	0000b5f5          	.word	0x0000b5f5
    19a4:	00450513          	addi	x10,x10,4

# Testcase cr_rs1_imm_edges (rs1 = 0x7fffffff, imm = 3)
  RVTEST_TESTDATA_LOAD_INT(x23, x2) # load rs1: x2 = 0x7fffffff
    19a8:	000ba103          	lw	x2,0(x23)
    19ac:	004b8b93          	addi	x23,x23,4

000019b0 <I_andi_cg_cr_rs1_imm_edges_rs1val_0x7fffffff_immval_0x3>:
I_andi_cg_cr_rs1_imm_edges_rs1val_0x7fffffff_immval_0x3:
  andi x11, x2, 3 # perform operation
    19b0:	00317593          	andi	x11,x2,3
  # Check if x11 contains the expected result. x10 is the signature ptr, x5 is the link ptr, x4 is a temp reg.
  RVTEST_SIGUPD(x10, x5, x4, x11, I_andi_cg_cr_rs1_imm_edges_rs1val_0x7fffffff_immval_0x3, I_andi_cg_cr_rs1_imm_edges_rs1val_0x7fffffff_immval_0x3_str)
    19b4:	00052203          	lw	x4,0(x10)
    19b8:	00b20863          	beq	x4,x11,19c8 <I_andi_cg_cr_rs1_imm_edges_rs1val_0x7fffffff_immval_0x3+0x18>
    19bc:	301012ef          	jal	x5,34bc <failedtest_x5_x4>
    19c0:	000019b0          	.word	0x000019b0
    19c4:	0000b64a          	.word	0x0000b64a
    19c8:	00450513          	addi	x10,x10,4

# Testcase cr_rs1_imm_edges (rs1 = 0x7fffffff, imm = 4)
  RVTEST_TESTDATA_LOAD_INT(x23, x7) # load rs1: x7 = 0x7fffffff
    19cc:	000ba383          	lw	x7,0(x23)
    19d0:	004b8b93          	addi	x23,x23,4

000019d4 <I_andi_cg_cr_rs1_imm_edges_rs1val_0x7fffffff_immval_0x4>:
I_andi_cg_cr_rs1_imm_edges_rs1val_0x7fffffff_immval_0x4:
  andi x24, x7, 4 # perform operation
    19d4:	0043fc13          	andi	x24,x7,4
  # Check if x24 contains the expected result. x10 is the signature ptr, x5 is the link ptr, x4 is a temp reg.
  RVTEST_SIGUPD(x10, x5, x4, x24, I_andi_cg_cr_rs1_imm_edges_rs1val_0x7fffffff_immval_0x4, I_andi_cg_cr_rs1_imm_edges_rs1val_0x7fffffff_immval_0x4_str)
    19d8:	00052203          	lw	x4,0(x10)
    19dc:	01820863          	beq	x4,x24,19ec <I_andi_cg_cr_rs1_imm_edges_rs1val_0x7fffffff_immval_0x4+0x18>
    19e0:	2dd012ef          	jal	x5,34bc <failedtest_x5_x4>
    19e4:	000019d4          	.word	0x000019d4
    19e8:	0000b69f          	.word	0x0000b69f
    19ec:	00450513          	addi	x10,x10,4

# Testcase cr_rs1_imm_edges (rs1 = 0x7fffffff, imm = 8)
  RVTEST_TESTDATA_LOAD_INT(x23, x31) # load rs1: x31 = 0x7fffffff
    19f0:	000baf83          	lw	x31,0(x23)
    19f4:	004b8b93          	addi	x23,x23,4

000019f8 <I_andi_cg_cr_rs1_imm_edges_rs1val_0x7fffffff_immval_0x8>:
I_andi_cg_cr_rs1_imm_edges_rs1val_0x7fffffff_immval_0x8:
  andi x16, x31, 8 # perform operation
    19f8:	008ff813          	andi	x16,x31,8
  # Check if x16 contains the expected result. x10 is the signature ptr, x5 is the link ptr, x4 is a temp reg.
  RVTEST_SIGUPD(x10, x5, x4, x16, I_andi_cg_cr_rs1_imm_edges_rs1val_0x7fffffff_immval_0x8, I_andi_cg_cr_rs1_imm_edges_rs1val_0x7fffffff_immval_0x8_str)
    19fc:	00052203          	lw	x4,0(x10)
    1a00:	01020863          	beq	x4,x16,1a10 <I_andi_cg_cr_rs1_imm_edges_rs1val_0x7fffffff_immval_0x8+0x18>
    1a04:	2b9012ef          	jal	x5,34bc <failedtest_x5_x4>
    1a08:	000019f8          	.word	0x000019f8
    1a0c:	0000b6f4          	.word	0x0000b6f4
    1a10:	00450513          	addi	x10,x10,4

# Testcase cr_rs1_imm_edges (rs1 = 0x7fffffff, imm = 16)
  RVTEST_TESTDATA_LOAD_INT(x23, x17) # load rs1: x17 = 0x7fffffff
    1a14:	000ba883          	lw	x17,0(x23)
    1a18:	004b8b93          	addi	x23,x23,4

00001a1c <I_andi_cg_cr_rs1_imm_edges_rs1val_0x7fffffff_immval_0x10>:
I_andi_cg_cr_rs1_imm_edges_rs1val_0x7fffffff_immval_0x10:
  andi x20, x17, 16 # perform operation
    1a1c:	0108fa13          	andi	x20,x17,16
  # Check if x20 contains the expected result. x10 is the signature ptr, x5 is the link ptr, x4 is a temp reg.
  RVTEST_SIGUPD(x10, x5, x4, x20, I_andi_cg_cr_rs1_imm_edges_rs1val_0x7fffffff_immval_0x10, I_andi_cg_cr_rs1_imm_edges_rs1val_0x7fffffff_immval_0x10_str)
    1a20:	00052203          	lw	x4,0(x10)
    1a24:	01420863          	beq	x4,x20,1a34 <I_andi_cg_cr_rs1_imm_edges_rs1val_0x7fffffff_immval_0x10+0x18>
    1a28:	295012ef          	jal	x5,34bc <failedtest_x5_x4>
    1a2c:	00001a1c          	.word	0x00001a1c
    1a30:	0000b749          	.word	0x0000b749
    1a34:	00450513          	addi	x10,x10,4

# Testcase cr_rs1_imm_edges (rs1 = 0x7fffffff, imm = 32)
  RVTEST_TESTDATA_LOAD_INT(x23, x8) # load rs1: x8 = 0x7fffffff
    1a38:	000ba403          	lw	x8,0(x23)
    1a3c:	004b8b93          	addi	x23,x23,4

00001a40 <I_andi_cg_cr_rs1_imm_edges_rs1val_0x7fffffff_immval_0x20>:
I_andi_cg_cr_rs1_imm_edges_rs1val_0x7fffffff_immval_0x20:
  andi x31, x8, 32 # perform operation
    1a40:	02047f93          	andi	x31,x8,32
  # Check if x31 contains the expected result. x10 is the signature ptr, x5 is the link ptr, x4 is a temp reg.
  RVTEST_SIGUPD(x10, x5, x4, x31, I_andi_cg_cr_rs1_imm_edges_rs1val_0x7fffffff_immval_0x20, I_andi_cg_cr_rs1_imm_edges_rs1val_0x7fffffff_immval_0x20_str)
    1a44:	00052203          	lw	x4,0(x10)
    1a48:	01f20863          	beq	x4,x31,1a58 <I_andi_cg_cr_rs1_imm_edges_rs1val_0x7fffffff_immval_0x20+0x18>
    1a4c:	271012ef          	jal	x5,34bc <failedtest_x5_x4>
    1a50:	00001a40          	.word	0x00001a40
    1a54:	0000b79f          	.word	0x0000b79f
    1a58:	00450513          	addi	x10,x10,4

# Testcase cr_rs1_imm_edges (rs1 = 0x7fffffff, imm = 64)
  RVTEST_TESTDATA_LOAD_INT(x23, x29) # load rs1: x29 = 0x7fffffff
    1a5c:	000bae83          	lw	x29,0(x23)
    1a60:	004b8b93          	addi	x23,x23,4

00001a64 <I_andi_cg_cr_rs1_imm_edges_rs1val_0x7fffffff_immval_0x40>:
I_andi_cg_cr_rs1_imm_edges_rs1val_0x7fffffff_immval_0x40:
  andi x9, x29, 64 # perform operation
    1a64:	040ef493          	andi	x9,x29,64
  # Check if x9 contains the expected result. x10 is the signature ptr, x5 is the link ptr, x4 is a temp reg.
  RVTEST_SIGUPD(x10, x5, x4, x9, I_andi_cg_cr_rs1_imm_edges_rs1val_0x7fffffff_immval_0x40, I_andi_cg_cr_rs1_imm_edges_rs1val_0x7fffffff_immval_0x40_str)
    1a68:	00052203          	lw	x4,0(x10)
    1a6c:	00920863          	beq	x4,x9,1a7c <I_andi_cg_cr_rs1_imm_edges_rs1val_0x7fffffff_immval_0x40+0x18>
    1a70:	24d012ef          	jal	x5,34bc <failedtest_x5_x4>
    1a74:	00001a64          	.word	0x00001a64
    1a78:	0000b7f5          	.word	0x0000b7f5
    1a7c:	00450513          	addi	x10,x10,4

# Testcase cr_rs1_imm_edges (rs1 = 0x7fffffff, imm = 128)
  RVTEST_TESTDATA_LOAD_INT(x23, x8) # load rs1: x8 = 0x7fffffff
    1a80:	000ba403          	lw	x8,0(x23)
    1a84:	004b8b93          	addi	x23,x23,4

00001a88 <I_andi_cg_cr_rs1_imm_edges_rs1val_0x7fffffff_immval_0x80>:
I_andi_cg_cr_rs1_imm_edges_rs1val_0x7fffffff_immval_0x80:
  andi x29, x8, 128 # perform operation
    1a88:	08047e93          	andi	x29,x8,128
  # Check if x29 contains the expected result. x10 is the signature ptr, x5 is the link ptr, x4 is a temp reg.
  RVTEST_SIGUPD(x10, x5, x4, x29, I_andi_cg_cr_rs1_imm_edges_rs1val_0x7fffffff_immval_0x80, I_andi_cg_cr_rs1_imm_edges_rs1val_0x7fffffff_immval_0x80_str)
    1a8c:	00052203          	lw	x4,0(x10)
    1a90:	01d20863          	beq	x4,x29,1aa0 <I_andi_cg_cr_rs1_imm_edges_rs1val_0x7fffffff_immval_0x80+0x18>
    1a94:	229012ef          	jal	x5,34bc <failedtest_x5_x4>
    1a98:	00001a88          	.word	0x00001a88
    1a9c:	0000b84b          	.word	0x0000b84b
    1aa0:	00450513          	addi	x10,x10,4

# Testcase cr_rs1_imm_edges (rs1 = 0x7fffffff, imm = 256)
  RVTEST_TESTDATA_LOAD_INT(x23, x2) # load rs1: x2 = 0x7fffffff
    1aa4:	000ba103          	lw	x2,0(x23)
    1aa8:	004b8b93          	addi	x23,x23,4

00001aac <I_andi_cg_cr_rs1_imm_edges_rs1val_0x7fffffff_immval_0x100>:
I_andi_cg_cr_rs1_imm_edges_rs1val_0x7fffffff_immval_0x100:
  andi x29, x2, 256 # perform operation
    1aac:	10017e93          	andi	x29,x2,256
  # Check if x29 contains the expected result. x10 is the signature ptr, x5 is the link ptr, x4 is a temp reg.
  RVTEST_SIGUPD(x10, x5, x4, x29, I_andi_cg_cr_rs1_imm_edges_rs1val_0x7fffffff_immval_0x100, I_andi_cg_cr_rs1_imm_edges_rs1val_0x7fffffff_immval_0x100_str)
    1ab0:	00052203          	lw	x4,0(x10)
    1ab4:	01d20863          	beq	x4,x29,1ac4 <I_andi_cg_cr_rs1_imm_edges_rs1val_0x7fffffff_immval_0x100+0x18>
    1ab8:	205012ef          	jal	x5,34bc <failedtest_x5_x4>
    1abc:	00001aac          	.word	0x00001aac
    1ac0:	0000b8a1          	.word	0x0000b8a1
    1ac4:	00450513          	addi	x10,x10,4

# Testcase cr_rs1_imm_edges (rs1 = 0x7fffffff, imm = 512)
  RVTEST_TESTDATA_LOAD_INT(x23, x11) # load rs1: x11 = 0x7fffffff
    1ac8:	000ba583          	lw	x11,0(x23)
    1acc:	004b8b93          	addi	x23,x23,4

00001ad0 <I_andi_cg_cr_rs1_imm_edges_rs1val_0x7fffffff_immval_0x200>:
I_andi_cg_cr_rs1_imm_edges_rs1val_0x7fffffff_immval_0x200:
  andi x1, x11, 512 # perform operation
    1ad0:	2005f093          	andi	x1,x11,512
  # Check if x1 contains the expected result. x10 is the signature ptr, x5 is the link ptr, x4 is a temp reg.
  RVTEST_SIGUPD(x10, x5, x4, x1, I_andi_cg_cr_rs1_imm_edges_rs1val_0x7fffffff_immval_0x200, I_andi_cg_cr_rs1_imm_edges_rs1val_0x7fffffff_immval_0x200_str)
    1ad4:	00052203          	lw	x4,0(x10)
    1ad8:	00120863          	beq	x4,x1,1ae8 <I_andi_cg_cr_rs1_imm_edges_rs1val_0x7fffffff_immval_0x200+0x18>
    1adc:	1e1012ef          	jal	x5,34bc <failedtest_x5_x4>
    1ae0:	00001ad0          	.word	0x00001ad0
    1ae4:	0000b8f8          	.word	0x0000b8f8
    1ae8:	00450513          	addi	x10,x10,4

# Testcase cr_rs1_imm_edges (rs1 = 0x7fffffff, imm = 1023)
  RVTEST_TESTDATA_LOAD_INT(x23, x8) # load rs1: x8 = 0x7fffffff
    1aec:	000ba403          	lw	x8,0(x23)
    1af0:	004b8b93          	addi	x23,x23,4

00001af4 <I_andi_cg_cr_rs1_imm_edges_rs1val_0x7fffffff_immval_0x3ff>:
I_andi_cg_cr_rs1_imm_edges_rs1val_0x7fffffff_immval_0x3ff:
  andi x21, x8, 1023 # perform operation
    1af4:	3ff47a93          	andi	x21,x8,1023
  # Check if x21 contains the expected result. x10 is the signature ptr, x5 is the link ptr, x4 is a temp reg.
  RVTEST_SIGUPD(x10, x5, x4, x21, I_andi_cg_cr_rs1_imm_edges_rs1val_0x7fffffff_immval_0x3ff, I_andi_cg_cr_rs1_imm_edges_rs1val_0x7fffffff_immval_0x3ff_str)
    1af8:	00052203          	lw	x4,0(x10)
    1afc:	01520863          	beq	x4,x21,1b0c <I_andi_cg_cr_rs1_imm_edges_rs1val_0x7fffffff_immval_0x3ff+0x18>
    1b00:	1bd012ef          	jal	x5,34bc <failedtest_x5_x4>
    1b04:	00001af4          	.word	0x00001af4
    1b08:	0000b94f          	.word	0x0000b94f
    1b0c:	00450513          	addi	x10,x10,4

# Testcase cr_rs1_imm_edges (rs1 = 0x7fffffff, imm = 1024)
  RVTEST_TESTDATA_LOAD_INT(x23, x2) # load rs1: x2 = 0x7fffffff
    1b10:	000ba103          	lw	x2,0(x23)
    1b14:	004b8b93          	addi	x23,x23,4

00001b18 <I_andi_cg_cr_rs1_imm_edges_rs1val_0x7fffffff_immval_0x400>:
I_andi_cg_cr_rs1_imm_edges_rs1val_0x7fffffff_immval_0x400:
  andi x8, x2, 1024 # perform operation
    1b18:	40017413          	andi	x8,x2,1024
  # Check if x8 contains the expected result. x10 is the signature ptr, x5 is the link ptr, x4 is a temp reg.
  RVTEST_SIGUPD(x10, x5, x4, x8, I_andi_cg_cr_rs1_imm_edges_rs1val_0x7fffffff_immval_0x400, I_andi_cg_cr_rs1_imm_edges_rs1val_0x7fffffff_immval_0x400_str)
    1b1c:	00052203          	lw	x4,0(x10)
    1b20:	00820863          	beq	x4,x8,1b30 <I_andi_cg_cr_rs1_imm_edges_rs1val_0x7fffffff_immval_0x400+0x18>
    1b24:	199012ef          	jal	x5,34bc <failedtest_x5_x4>
    1b28:	00001b18          	.word	0x00001b18
    1b2c:	0000b9a6          	.word	0x0000b9a6
    1b30:	00450513          	addi	x10,x10,4

# Testcase cr_rs1_imm_edges (rs1 = 0x7fffffff, imm = 1795)
  RVTEST_TESTDATA_LOAD_INT(x23, x17) # load rs1: x17 = 0x7fffffff
    1b34:	000ba883          	lw	x17,0(x23)
    1b38:	004b8b93          	addi	x23,x23,4

00001b3c <I_andi_cg_cr_rs1_imm_edges_rs1val_0x7fffffff_immval_0x703>:
I_andi_cg_cr_rs1_imm_edges_rs1val_0x7fffffff_immval_0x703:
  andi x20, x17, 1795 # perform operation
    1b3c:	7038fa13          	andi	x20,x17,1795
  # Check if x20 contains the expected result. x10 is the signature ptr, x5 is the link ptr, x4 is a temp reg.
  RVTEST_SIGUPD(x10, x5, x4, x20, I_andi_cg_cr_rs1_imm_edges_rs1val_0x7fffffff_immval_0x703, I_andi_cg_cr_rs1_imm_edges_rs1val_0x7fffffff_immval_0x703_str)
    1b40:	00052203          	lw	x4,0(x10)
    1b44:	01420863          	beq	x4,x20,1b54 <I_andi_cg_cr_rs1_imm_edges_rs1val_0x7fffffff_immval_0x703+0x18>
    1b48:	175012ef          	jal	x5,34bc <failedtest_x5_x4>
    1b4c:	00001b3c          	.word	0x00001b3c
    1b50:	0000b9fd          	.word	0x0000b9fd
    1b54:	00450513          	addi	x10,x10,4

# Testcase cr_rs1_imm_edges (rs1 = 0x7fffffff, imm = 2047)
  RVTEST_TESTDATA_LOAD_INT(x23, x26) # load rs1: x26 = 0x7fffffff
    1b58:	000bad03          	lw	x26,0(x23)
    1b5c:	004b8b93          	addi	x23,x23,4

00001b60 <I_andi_cg_cr_rs1_imm_edges_rs1val_0x7fffffff_immval_0x7ff>:
I_andi_cg_cr_rs1_imm_edges_rs1val_0x7fffffff_immval_0x7ff:
  andi x14, x26, 2047 # perform operation
    1b60:	7ffd7713          	andi	x14,x26,2047
  # Check if x14 contains the expected result. x10 is the signature ptr, x5 is the link ptr, x4 is a temp reg.
  RVTEST_SIGUPD(x10, x5, x4, x14, I_andi_cg_cr_rs1_imm_edges_rs1val_0x7fffffff_immval_0x7ff, I_andi_cg_cr_rs1_imm_edges_rs1val_0x7fffffff_immval_0x7ff_str)
    1b64:	00052203          	lw	x4,0(x10)
    1b68:	00e20863          	beq	x4,x14,1b78 <I_andi_cg_cr_rs1_imm_edges_rs1val_0x7fffffff_immval_0x7ff+0x18>
    1b6c:	151012ef          	jal	x5,34bc <failedtest_x5_x4>
    1b70:	00001b60          	.word	0x00001b60
    1b74:	0000ba54          	.word	0x0000ba54
    1b78:	00450513          	addi	x10,x10,4

# Testcase cr_rs1_imm_edges (rs1 = 0x7fffffff, imm = -2048)
  RVTEST_TESTDATA_LOAD_INT(x23, x9) # load rs1: x9 = 0x7fffffff
    1b7c:	000ba483          	lw	x9,0(x23)
    1b80:	004b8b93          	addi	x23,x23,4

00001b84 <I_andi_cg_cr_rs1_imm_edges_rs1val_0x7fffffff_immval_m0x800>:
I_andi_cg_cr_rs1_imm_edges_rs1val_0x7fffffff_immval_m0x800:
  andi x21, x9, -2048 # perform operation
    1b84:	8004fa93          	andi	x21,x9,-2048
  # Check if x21 contains the expected result. x10 is the signature ptr, x5 is the link ptr, x4 is a temp reg.
  RVTEST_SIGUPD(x10, x5, x4, x21, I_andi_cg_cr_rs1_imm_edges_rs1val_0x7fffffff_immval_m0x800, I_andi_cg_cr_rs1_imm_edges_rs1val_0x7fffffff_immval_m0x800_str)
    1b88:	00052203          	lw	x4,0(x10)
    1b8c:	01520863          	beq	x4,x21,1b9c <I_andi_cg_cr_rs1_imm_edges_rs1val_0x7fffffff_immval_m0x800+0x18>
    1b90:	12d012ef          	jal	x5,34bc <failedtest_x5_x4>
    1b94:	00001b84          	.word	0x00001b84
    1b98:	0000baab          	.word	0x0000baab
    1b9c:	00450513          	addi	x10,x10,4

# Testcase cr_rs1_imm_edges (rs1 = 0x7fffffff, imm = -2047)
  RVTEST_TESTDATA_LOAD_INT(x23, x16) # load rs1: x16 = 0x7fffffff
    1ba0:	000ba803          	lw	x16,0(x23)
    1ba4:	004b8b93          	addi	x23,x23,4

00001ba8 <I_andi_cg_cr_rs1_imm_edges_rs1val_0x7fffffff_immval_m0x7ff>:
I_andi_cg_cr_rs1_imm_edges_rs1val_0x7fffffff_immval_m0x7ff:
  andi x15, x16, -2047 # perform operation
    1ba8:	80187793          	andi	x15,x16,-2047
  # Check if x15 contains the expected result. x10 is the signature ptr, x5 is the link ptr, x4 is a temp reg.
  RVTEST_SIGUPD(x10, x5, x4, x15, I_andi_cg_cr_rs1_imm_edges_rs1val_0x7fffffff_immval_m0x7ff, I_andi_cg_cr_rs1_imm_edges_rs1val_0x7fffffff_immval_m0x7ff_str)
    1bac:	00052203          	lw	x4,0(x10)
    1bb0:	00f20863          	beq	x4,x15,1bc0 <I_andi_cg_cr_rs1_imm_edges_rs1val_0x7fffffff_immval_m0x7ff+0x18>
    1bb4:	109012ef          	jal	x5,34bc <failedtest_x5_x4>
    1bb8:	00001ba8          	.word	0x00001ba8
    1bbc:	0000bb03          	.word	0x0000bb03
    1bc0:	00450513          	addi	x10,x10,4

# Testcase cr_rs1_imm_edges (rs1 = 0x7fffffff, imm = -2)
  RVTEST_TESTDATA_LOAD_INT(x23, x19) # load rs1: x19 = 0x7fffffff
    1bc4:	000ba983          	lw	x19,0(x23)
    1bc8:	004b8b93          	addi	x23,x23,4

00001bcc <I_andi_cg_cr_rs1_imm_edges_rs1val_0x7fffffff_immval_m0x2>:
I_andi_cg_cr_rs1_imm_edges_rs1val_0x7fffffff_immval_m0x2:
  andi x3, x19, -2 # perform operation
    1bcc:	ffe9f193          	andi	x3,x19,-2
  # Check if x3 contains the expected result. x10 is the signature ptr, x5 is the link ptr, x4 is a temp reg.
  RVTEST_SIGUPD(x10, x5, x4, x3, I_andi_cg_cr_rs1_imm_edges_rs1val_0x7fffffff_immval_m0x2, I_andi_cg_cr_rs1_imm_edges_rs1val_0x7fffffff_immval_m0x2_str)
    1bd0:	00052203          	lw	x4,0(x10)
    1bd4:	00320863          	beq	x4,x3,1be4 <I_andi_cg_cr_rs1_imm_edges_rs1val_0x7fffffff_immval_m0x2+0x18>
    1bd8:	0e5012ef          	jal	x5,34bc <failedtest_x5_x4>
    1bdc:	00001bcc          	.word	0x00001bcc
    1be0:	0000bb5b          	.word	0x0000bb5b
    1be4:	00450513          	addi	x10,x10,4

# Testcase cr_rs1_imm_edges (rs1 = 0x7fffffff, imm = -1)
  RVTEST_TESTDATA_LOAD_INT(x23, x19) # load rs1: x19 = 0x7fffffff
    1be8:	000ba983          	lw	x19,0(x23)
    1bec:	004b8b93          	addi	x23,x23,4

00001bf0 <I_andi_cg_cr_rs1_imm_edges_rs1val_0x7fffffff_immval_m0x1>:
I_andi_cg_cr_rs1_imm_edges_rs1val_0x7fffffff_immval_m0x1:
  andi x13, x19, -1 # perform operation
    1bf0:	fff9f693          	andi	x13,x19,-1
  # Check if x13 contains the expected result. x10 is the signature ptr, x5 is the link ptr, x4 is a temp reg.
  RVTEST_SIGUPD(x10, x5, x4, x13, I_andi_cg_cr_rs1_imm_edges_rs1val_0x7fffffff_immval_m0x1, I_andi_cg_cr_rs1_imm_edges_rs1val_0x7fffffff_immval_m0x1_str)
    1bf4:	00052203          	lw	x4,0(x10)
    1bf8:	00d20863          	beq	x4,x13,1c08 <I_andi_cg_cr_rs1_imm_edges_rs1val_0x7fffffff_immval_m0x1+0x18>
    1bfc:	0c1012ef          	jal	x5,34bc <failedtest_x5_x4>
    1c00:	00001bf0          	.word	0x00001bf0
    1c04:	0000bbb1          	.word	0x0000bbb1
    1c08:	00450513          	addi	x10,x10,4

# Testcase cr_rs1_imm_edges (rs1 = 0x7ffffffe, imm = 0)
  RVTEST_TESTDATA_LOAD_INT(x23, x12) # load rs1: x12 = 0x7ffffffe
    1c0c:	000ba603          	lw	x12,0(x23)
    1c10:	004b8b93          	addi	x23,x23,4

00001c14 <I_andi_cg_cr_rs1_imm_edges_rs1val_0x7ffffffe_immval_0x0>:
I_andi_cg_cr_rs1_imm_edges_rs1val_0x7ffffffe_immval_0x0:
  andi x7, x12, 0 # perform operation
    1c14:	00067393          	andi	x7,x12,0
  # Check if x7 contains the expected result. x10 is the signature ptr, x5 is the link ptr, x4 is a temp reg.
  RVTEST_SIGUPD(x10, x5, x4, x7, I_andi_cg_cr_rs1_imm_edges_rs1val_0x7ffffffe_immval_0x0, I_andi_cg_cr_rs1_imm_edges_rs1val_0x7ffffffe_immval_0x0_str)
    1c18:	00052203          	lw	x4,0(x10)
    1c1c:	00720863          	beq	x4,x7,1c2c <I_andi_cg_cr_rs1_imm_edges_rs1val_0x7ffffffe_immval_0x0+0x18>
    1c20:	09d012ef          	jal	x5,34bc <failedtest_x5_x4>
    1c24:	00001c14          	.word	0x00001c14
    1c28:	0000bc07          	.word	0x0000bc07
    1c2c:	00450513          	addi	x10,x10,4

# Testcase cr_rs1_imm_edges (rs1 = 0x7ffffffe, imm = 1)
  RVTEST_TESTDATA_LOAD_INT(x23, x15) # load rs1: x15 = 0x7ffffffe
    1c30:	000ba783          	lw	x15,0(x23)
    1c34:	004b8b93          	addi	x23,x23,4

00001c38 <I_andi_cg_cr_rs1_imm_edges_rs1val_0x7ffffffe_immval_0x1>:
I_andi_cg_cr_rs1_imm_edges_rs1val_0x7ffffffe_immval_0x1:
  andi x3, x15, 1 # perform operation
    1c38:	0017f193          	andi	x3,x15,1
  # Check if x3 contains the expected result. x10 is the signature ptr, x5 is the link ptr, x4 is a temp reg.
  RVTEST_SIGUPD(x10, x5, x4, x3, I_andi_cg_cr_rs1_imm_edges_rs1val_0x7ffffffe_immval_0x1, I_andi_cg_cr_rs1_imm_edges_rs1val_0x7ffffffe_immval_0x1_str)
    1c3c:	00052203          	lw	x4,0(x10)
    1c40:	00320863          	beq	x4,x3,1c50 <I_andi_cg_cr_rs1_imm_edges_rs1val_0x7ffffffe_immval_0x1+0x18>
    1c44:	079012ef          	jal	x5,34bc <failedtest_x5_x4>
    1c48:	00001c38          	.word	0x00001c38
    1c4c:	0000bc5c          	.word	0x0000bc5c
    1c50:	00450513          	addi	x10,x10,4

# Testcase cr_rs1_imm_edges (rs1 = 0x7ffffffe, imm = 2)
  RVTEST_TESTDATA_LOAD_INT(x23, x8) # load rs1: x8 = 0x7ffffffe
    1c54:	000ba403          	lw	x8,0(x23)
    1c58:	004b8b93          	addi	x23,x23,4

00001c5c <I_andi_cg_cr_rs1_imm_edges_rs1val_0x7ffffffe_immval_0x2>:
I_andi_cg_cr_rs1_imm_edges_rs1val_0x7ffffffe_immval_0x2:
  andi x30, x8, 2 # perform operation
    1c5c:	00247f13          	andi	x30,x8,2
  # Check if x30 contains the expected result. x10 is the signature ptr, x5 is the link ptr, x4 is a temp reg.
  RVTEST_SIGUPD(x10, x5, x4, x30, I_andi_cg_cr_rs1_imm_edges_rs1val_0x7ffffffe_immval_0x2, I_andi_cg_cr_rs1_imm_edges_rs1val_0x7ffffffe_immval_0x2_str)
    1c60:	00052203          	lw	x4,0(x10)
    1c64:	01e20863          	beq	x4,x30,1c74 <I_andi_cg_cr_rs1_imm_edges_rs1val_0x7ffffffe_immval_0x2+0x18>
    1c68:	055012ef          	jal	x5,34bc <failedtest_x5_x4>
    1c6c:	00001c5c          	.word	0x00001c5c
    1c70:	0000bcb1          	.word	0x0000bcb1
    1c74:	00450513          	addi	x10,x10,4

# Testcase cr_rs1_imm_edges (rs1 = 0x7ffffffe, imm = 3)
  RVTEST_TESTDATA_LOAD_INT(x23, x1) # load rs1: x1 = 0x7ffffffe
    1c78:	000ba083          	lw	x1,0(x23)
    1c7c:	004b8b93          	addi	x23,x23,4

00001c80 <I_andi_cg_cr_rs1_imm_edges_rs1val_0x7ffffffe_immval_0x3>:
I_andi_cg_cr_rs1_imm_edges_rs1val_0x7ffffffe_immval_0x3:
  andi x11, x1, 3 # perform operation
    1c80:	0030f593          	andi	x11,x1,3
  # Check if x11 contains the expected result. x10 is the signature ptr, x5 is the link ptr, x4 is a temp reg.
  RVTEST_SIGUPD(x10, x5, x4, x11, I_andi_cg_cr_rs1_imm_edges_rs1val_0x7ffffffe_immval_0x3, I_andi_cg_cr_rs1_imm_edges_rs1val_0x7ffffffe_immval_0x3_str)
    1c84:	00052203          	lw	x4,0(x10)
    1c88:	00b20863          	beq	x4,x11,1c98 <I_andi_cg_cr_rs1_imm_edges_rs1val_0x7ffffffe_immval_0x3+0x18>
    1c8c:	031012ef          	jal	x5,34bc <failedtest_x5_x4>
    1c90:	00001c80          	.word	0x00001c80
    1c94:	0000bd06          	.word	0x0000bd06
    1c98:	00450513          	addi	x10,x10,4

# Testcase cr_rs1_imm_edges (rs1 = 0x7ffffffe, imm = 4)
  RVTEST_TESTDATA_LOAD_INT(x23, x3) # load rs1: x3 = 0x7ffffffe
    1c9c:	000ba183          	lw	x3,0(x23)
    1ca0:	004b8b93          	addi	x23,x23,4

00001ca4 <I_andi_cg_cr_rs1_imm_edges_rs1val_0x7ffffffe_immval_0x4>:
I_andi_cg_cr_rs1_imm_edges_rs1val_0x7ffffffe_immval_0x4:
  andi x9, x3, 4 # perform operation
    1ca4:	0041f493          	andi	x9,x3,4
  # Check if x9 contains the expected result. x10 is the signature ptr, x5 is the link ptr, x4 is a temp reg.
  RVTEST_SIGUPD(x10, x5, x4, x9, I_andi_cg_cr_rs1_imm_edges_rs1val_0x7ffffffe_immval_0x4, I_andi_cg_cr_rs1_imm_edges_rs1val_0x7ffffffe_immval_0x4_str)
    1ca8:	00052203          	lw	x4,0(x10)
    1cac:	00920863          	beq	x4,x9,1cbc <I_andi_cg_cr_rs1_imm_edges_rs1val_0x7ffffffe_immval_0x4+0x18>
    1cb0:	00d012ef          	jal	x5,34bc <failedtest_x5_x4>
    1cb4:	00001ca4          	.word	0x00001ca4
    1cb8:	0000bd5b          	.word	0x0000bd5b
    1cbc:	00450513          	addi	x10,x10,4

# Testcase cr_rs1_imm_edges (rs1 = 0x7ffffffe, imm = 8)
  RVTEST_TESTDATA_LOAD_INT(x23, x17) # load rs1: x17 = 0x7ffffffe
    1cc0:	000ba883          	lw	x17,0(x23)
    1cc4:	004b8b93          	addi	x23,x23,4

00001cc8 <I_andi_cg_cr_rs1_imm_edges_rs1val_0x7ffffffe_immval_0x8>:
I_andi_cg_cr_rs1_imm_edges_rs1val_0x7ffffffe_immval_0x8:
  andi x31, x17, 8 # perform operation
    1cc8:	0088ff93          	andi	x31,x17,8
  # Check if x31 contains the expected result. x10 is the signature ptr, x5 is the link ptr, x4 is a temp reg.
  RVTEST_SIGUPD(x10, x5, x4, x31, I_andi_cg_cr_rs1_imm_edges_rs1val_0x7ffffffe_immval_0x8, I_andi_cg_cr_rs1_imm_edges_rs1val_0x7ffffffe_immval_0x8_str)
    1ccc:	00052203          	lw	x4,0(x10)
    1cd0:	01f20863          	beq	x4,x31,1ce0 <I_andi_cg_cr_rs1_imm_edges_rs1val_0x7ffffffe_immval_0x8+0x18>
    1cd4:	7e8012ef          	jal	x5,34bc <failedtest_x5_x4>
    1cd8:	00001cc8          	.word	0x00001cc8
    1cdc:	0000bdb0          	.word	0x0000bdb0
    1ce0:	00450513          	addi	x10,x10,4

# Testcase cr_rs1_imm_edges (rs1 = 0x7ffffffe, imm = 16)
  RVTEST_TESTDATA_LOAD_INT(x23, x11) # load rs1: x11 = 0x7ffffffe
    1ce4:	000ba583          	lw	x11,0(x23)
    1ce8:	004b8b93          	addi	x23,x23,4

00001cec <I_andi_cg_cr_rs1_imm_edges_rs1val_0x7ffffffe_immval_0x10>:
I_andi_cg_cr_rs1_imm_edges_rs1val_0x7ffffffe_immval_0x10:
  andi x22, x11, 16 # perform operation
    1cec:	0105fb13          	andi	x22,x11,16
  # Check if x22 contains the expected result. x10 is the signature ptr, x5 is the link ptr, x4 is a temp reg.
  RVTEST_SIGUPD(x10, x5, x4, x22, I_andi_cg_cr_rs1_imm_edges_rs1val_0x7ffffffe_immval_0x10, I_andi_cg_cr_rs1_imm_edges_rs1val_0x7ffffffe_immval_0x10_str)
    1cf0:	00052203          	lw	x4,0(x10)
    1cf4:	01620863          	beq	x4,x22,1d04 <I_andi_cg_cr_rs1_imm_edges_rs1val_0x7ffffffe_immval_0x10+0x18>
    1cf8:	7c4012ef          	jal	x5,34bc <failedtest_x5_x4>
    1cfc:	00001cec          	.word	0x00001cec
    1d00:	0000be05          	.word	0x0000be05
    1d04:	00450513          	addi	x10,x10,4

# Testcase cr_rs1_imm_edges (rs1 = 0x7ffffffe, imm = 32)
  RVTEST_TESTDATA_LOAD_INT(x23, x17) # load rs1: x17 = 0x7ffffffe
    1d08:	000ba883          	lw	x17,0(x23)
    1d0c:	004b8b93          	addi	x23,x23,4

00001d10 <I_andi_cg_cr_rs1_imm_edges_rs1val_0x7ffffffe_immval_0x20>:
I_andi_cg_cr_rs1_imm_edges_rs1val_0x7ffffffe_immval_0x20:
  andi x14, x17, 32 # perform operation
    1d10:	0208f713          	andi	x14,x17,32
  # Check if x14 contains the expected result. x10 is the signature ptr, x5 is the link ptr, x4 is a temp reg.
  RVTEST_SIGUPD(x10, x5, x4, x14, I_andi_cg_cr_rs1_imm_edges_rs1val_0x7ffffffe_immval_0x20, I_andi_cg_cr_rs1_imm_edges_rs1val_0x7ffffffe_immval_0x20_str)
    1d14:	00052203          	lw	x4,0(x10)
    1d18:	00e20863          	beq	x4,x14,1d28 <I_andi_cg_cr_rs1_imm_edges_rs1val_0x7ffffffe_immval_0x20+0x18>
    1d1c:	7a0012ef          	jal	x5,34bc <failedtest_x5_x4>
    1d20:	00001d10          	.word	0x00001d10
    1d24:	0000be5b          	.word	0x0000be5b
    1d28:	00450513          	addi	x10,x10,4

# Testcase cr_rs1_imm_edges (rs1 = 0x7ffffffe, imm = 64)
  RVTEST_TESTDATA_LOAD_INT(x23, x25) # load rs1: x25 = 0x7ffffffe
    1d2c:	000bac83          	lw	x25,0(x23)
    1d30:	004b8b93          	addi	x23,x23,4

00001d34 <I_andi_cg_cr_rs1_imm_edges_rs1val_0x7ffffffe_immval_0x40>:
I_andi_cg_cr_rs1_imm_edges_rs1val_0x7ffffffe_immval_0x40:
  andi x24, x25, 64 # perform operation
    1d34:	040cfc13          	andi	x24,x25,64
  # Check if x24 contains the expected result. x10 is the signature ptr, x5 is the link ptr, x4 is a temp reg.
  RVTEST_SIGUPD(x10, x5, x4, x24, I_andi_cg_cr_rs1_imm_edges_rs1val_0x7ffffffe_immval_0x40, I_andi_cg_cr_rs1_imm_edges_rs1val_0x7ffffffe_immval_0x40_str)
    1d38:	00052203          	lw	x4,0(x10)
    1d3c:	01820863          	beq	x4,x24,1d4c <I_andi_cg_cr_rs1_imm_edges_rs1val_0x7ffffffe_immval_0x40+0x18>
    1d40:	77c012ef          	jal	x5,34bc <failedtest_x5_x4>
    1d44:	00001d34          	.word	0x00001d34
    1d48:	0000beb1          	.word	0x0000beb1
    1d4c:	00450513          	addi	x10,x10,4

# Testcase cr_rs1_imm_edges (rs1 = 0x7ffffffe, imm = 128)
  RVTEST_TESTDATA_LOAD_INT(x23, x15) # load rs1: x15 = 0x7ffffffe
    1d50:	000ba783          	lw	x15,0(x23)
    1d54:	004b8b93          	addi	x23,x23,4

00001d58 <I_andi_cg_cr_rs1_imm_edges_rs1val_0x7ffffffe_immval_0x80>:
I_andi_cg_cr_rs1_imm_edges_rs1val_0x7ffffffe_immval_0x80:
  andi x27, x15, 128 # perform operation
    1d58:	0807fd93          	andi	x27,x15,128
  # Check if x27 contains the expected result. x10 is the signature ptr, x5 is the link ptr, x4 is a temp reg.
  RVTEST_SIGUPD(x10, x5, x4, x27, I_andi_cg_cr_rs1_imm_edges_rs1val_0x7ffffffe_immval_0x80, I_andi_cg_cr_rs1_imm_edges_rs1val_0x7ffffffe_immval_0x80_str)
    1d5c:	00052203          	lw	x4,0(x10)
    1d60:	01b20863          	beq	x4,x27,1d70 <I_andi_cg_cr_rs1_imm_edges_rs1val_0x7ffffffe_immval_0x80+0x18>
    1d64:	758012ef          	jal	x5,34bc <failedtest_x5_x4>
    1d68:	00001d58          	.word	0x00001d58
    1d6c:	0000bf07          	.word	0x0000bf07
    1d70:	00450513          	addi	x10,x10,4

# Testcase cr_rs1_imm_edges (rs1 = 0x7ffffffe, imm = 256)
  RVTEST_TESTDATA_LOAD_INT(x23, x26) # load rs1: x26 = 0x7ffffffe
    1d74:	000bad03          	lw	x26,0(x23)
    1d78:	004b8b93          	addi	x23,x23,4

00001d7c <I_andi_cg_cr_rs1_imm_edges_rs1val_0x7ffffffe_immval_0x100>:
I_andi_cg_cr_rs1_imm_edges_rs1val_0x7ffffffe_immval_0x100:
  andi x29, x26, 256 # perform operation
    1d7c:	100d7e93          	andi	x29,x26,256
  # Check if x29 contains the expected result. x10 is the signature ptr, x5 is the link ptr, x4 is a temp reg.
  RVTEST_SIGUPD(x10, x5, x4, x29, I_andi_cg_cr_rs1_imm_edges_rs1val_0x7ffffffe_immval_0x100, I_andi_cg_cr_rs1_imm_edges_rs1val_0x7ffffffe_immval_0x100_str)
    1d80:	00052203          	lw	x4,0(x10)
    1d84:	01d20863          	beq	x4,x29,1d94 <I_andi_cg_cr_rs1_imm_edges_rs1val_0x7ffffffe_immval_0x100+0x18>
    1d88:	734012ef          	jal	x5,34bc <failedtest_x5_x4>
    1d8c:	00001d7c          	.word	0x00001d7c
    1d90:	0000bf5d          	.word	0x0000bf5d
    1d94:	00450513          	addi	x10,x10,4

# Testcase cr_rs1_imm_edges (rs1 = 0x7ffffffe, imm = 512)
  RVTEST_TESTDATA_LOAD_INT(x23, x12) # load rs1: x12 = 0x7ffffffe
    1d98:	000ba603          	lw	x12,0(x23)
    1d9c:	004b8b93          	addi	x23,x23,4

00001da0 <I_andi_cg_cr_rs1_imm_edges_rs1val_0x7ffffffe_immval_0x200>:
I_andi_cg_cr_rs1_imm_edges_rs1val_0x7ffffffe_immval_0x200:
  andi x31, x12, 512 # perform operation
    1da0:	20067f93          	andi	x31,x12,512
  # Check if x31 contains the expected result. x10 is the signature ptr, x5 is the link ptr, x4 is a temp reg.
  RVTEST_SIGUPD(x10, x5, x4, x31, I_andi_cg_cr_rs1_imm_edges_rs1val_0x7ffffffe_immval_0x200, I_andi_cg_cr_rs1_imm_edges_rs1val_0x7ffffffe_immval_0x200_str)
    1da4:	00052203          	lw	x4,0(x10)
    1da8:	01f20863          	beq	x4,x31,1db8 <I_andi_cg_cr_rs1_imm_edges_rs1val_0x7ffffffe_immval_0x200+0x18>
    1dac:	710012ef          	jal	x5,34bc <failedtest_x5_x4>
    1db0:	00001da0          	.word	0x00001da0
    1db4:	0000bfb4          	.word	0x0000bfb4
    1db8:	00450513          	addi	x10,x10,4

# Testcase cr_rs1_imm_edges (rs1 = 0x7ffffffe, imm = 1023)
  RVTEST_TESTDATA_LOAD_INT(x23, x14) # load rs1: x14 = 0x7ffffffe
    1dbc:	000ba703          	lw	x14,0(x23)
    1dc0:	004b8b93          	addi	x23,x23,4

00001dc4 <I_andi_cg_cr_rs1_imm_edges_rs1val_0x7ffffffe_immval_0x3ff>:
I_andi_cg_cr_rs1_imm_edges_rs1val_0x7ffffffe_immval_0x3ff:
  andi x31, x14, 1023 # perform operation
    1dc4:	3ff77f93          	andi	x31,x14,1023
  # Check if x31 contains the expected result. x10 is the signature ptr, x5 is the link ptr, x4 is a temp reg.
  RVTEST_SIGUPD(x10, x5, x4, x31, I_andi_cg_cr_rs1_imm_edges_rs1val_0x7ffffffe_immval_0x3ff, I_andi_cg_cr_rs1_imm_edges_rs1val_0x7ffffffe_immval_0x3ff_str)
    1dc8:	00052203          	lw	x4,0(x10)
    1dcc:	01f20863          	beq	x4,x31,1ddc <I_andi_cg_cr_rs1_imm_edges_rs1val_0x7ffffffe_immval_0x3ff+0x18>
    1dd0:	6ec012ef          	jal	x5,34bc <failedtest_x5_x4>
    1dd4:	00001dc4          	.word	0x00001dc4
    1dd8:	0000c00b          	.word	0x0000c00b
    1ddc:	00450513          	addi	x10,x10,4

# Testcase cr_rs1_imm_edges (rs1 = 0x7ffffffe, imm = 1024)
  RVTEST_TESTDATA_LOAD_INT(x23, x29) # load rs1: x29 = 0x7ffffffe
    1de0:	000bae83          	lw	x29,0(x23)
    1de4:	004b8b93          	addi	x23,x23,4

00001de8 <I_andi_cg_cr_rs1_imm_edges_rs1val_0x7ffffffe_immval_0x400>:
I_andi_cg_cr_rs1_imm_edges_rs1val_0x7ffffffe_immval_0x400:
  andi x1, x29, 1024 # perform operation
    1de8:	400ef093          	andi	x1,x29,1024
  # Check if x1 contains the expected result. x10 is the signature ptr, x5 is the link ptr, x4 is a temp reg.
  RVTEST_SIGUPD(x10, x5, x4, x1, I_andi_cg_cr_rs1_imm_edges_rs1val_0x7ffffffe_immval_0x400, I_andi_cg_cr_rs1_imm_edges_rs1val_0x7ffffffe_immval_0x400_str)
    1dec:	00052203          	lw	x4,0(x10)
    1df0:	00120863          	beq	x4,x1,1e00 <I_andi_cg_cr_rs1_imm_edges_rs1val_0x7ffffffe_immval_0x400+0x18>
    1df4:	6c8012ef          	jal	x5,34bc <failedtest_x5_x4>
    1df8:	00001de8          	.word	0x00001de8
    1dfc:	0000c062          	.word	0x0000c062
    1e00:	00450513          	addi	x10,x10,4

# Testcase cr_rs1_imm_edges (rs1 = 0x7ffffffe, imm = 1795)
  RVTEST_TESTDATA_LOAD_INT(x23, x16) # load rs1: x16 = 0x7ffffffe
    1e04:	000ba803          	lw	x16,0(x23)
    1e08:	004b8b93          	addi	x23,x23,4

00001e0c <I_andi_cg_cr_rs1_imm_edges_rs1val_0x7ffffffe_immval_0x703>:
I_andi_cg_cr_rs1_imm_edges_rs1val_0x7ffffffe_immval_0x703:
  andi x28, x16, 1795 # perform operation
    1e0c:	70387e13          	andi	x28,x16,1795
  # Check if x28 contains the expected result. x10 is the signature ptr, x5 is the link ptr, x4 is a temp reg.
  RVTEST_SIGUPD(x10, x5, x4, x28, I_andi_cg_cr_rs1_imm_edges_rs1val_0x7ffffffe_immval_0x703, I_andi_cg_cr_rs1_imm_edges_rs1val_0x7ffffffe_immval_0x703_str)
    1e10:	00052203          	lw	x4,0(x10)
    1e14:	01c20863          	beq	x4,x28,1e24 <I_andi_cg_cr_rs1_imm_edges_rs1val_0x7ffffffe_immval_0x703+0x18>
    1e18:	6a4012ef          	jal	x5,34bc <failedtest_x5_x4>
    1e1c:	00001e0c          	.word	0x00001e0c
    1e20:	0000c0b9          	.word	0x0000c0b9
    1e24:	00450513          	addi	x10,x10,4

# Testcase cr_rs1_imm_edges (rs1 = 0x7ffffffe, imm = 2047)
  RVTEST_TESTDATA_LOAD_INT(x23, x6) # load rs1: x6 = 0x7ffffffe
    1e28:	000ba303          	lw	x6,0(x23)
    1e2c:	004b8b93          	addi	x23,x23,4

00001e30 <I_andi_cg_cr_rs1_imm_edges_rs1val_0x7ffffffe_immval_0x7ff>:
I_andi_cg_cr_rs1_imm_edges_rs1val_0x7ffffffe_immval_0x7ff:
  andi x9, x6, 2047 # perform operation
    1e30:	7ff37493          	andi	x9,x6,2047
  # Check if x9 contains the expected result. x10 is the signature ptr, x5 is the link ptr, x4 is a temp reg.
  RVTEST_SIGUPD(x10, x5, x4, x9, I_andi_cg_cr_rs1_imm_edges_rs1val_0x7ffffffe_immval_0x7ff, I_andi_cg_cr_rs1_imm_edges_rs1val_0x7ffffffe_immval_0x7ff_str)
    1e34:	00052203          	lw	x4,0(x10)
    1e38:	00920863          	beq	x4,x9,1e48 <I_andi_cg_cr_rs1_imm_edges_rs1val_0x7ffffffe_immval_0x7ff+0x18>
    1e3c:	680012ef          	jal	x5,34bc <failedtest_x5_x4>
    1e40:	00001e30          	.word	0x00001e30
    1e44:	0000c110          	.word	0x0000c110
    1e48:	00450513          	addi	x10,x10,4

# Testcase cr_rs1_imm_edges (rs1 = 0x7ffffffe, imm = -2048)
  RVTEST_TESTDATA_LOAD_INT(x23, x9) # load rs1: x9 = 0x7ffffffe
    1e4c:	000ba483          	lw	x9,0(x23)
    1e50:	004b8b93          	addi	x23,x23,4

00001e54 <I_andi_cg_cr_rs1_imm_edges_rs1val_0x7ffffffe_immval_m0x800>:
I_andi_cg_cr_rs1_imm_edges_rs1val_0x7ffffffe_immval_m0x800:
  andi x8, x9, -2048 # perform operation
    1e54:	8004f413          	andi	x8,x9,-2048
  # Check if x8 contains the expected result. x10 is the signature ptr, x5 is the link ptr, x4 is a temp reg.
  RVTEST_SIGUPD(x10, x5, x4, x8, I_andi_cg_cr_rs1_imm_edges_rs1val_0x7ffffffe_immval_m0x800, I_andi_cg_cr_rs1_imm_edges_rs1val_0x7ffffffe_immval_m0x800_str)
    1e58:	00052203          	lw	x4,0(x10)
    1e5c:	00820863          	beq	x4,x8,1e6c <I_andi_cg_cr_rs1_imm_edges_rs1val_0x7ffffffe_immval_m0x800+0x18>
    1e60:	65c012ef          	jal	x5,34bc <failedtest_x5_x4>
    1e64:	00001e54          	.word	0x00001e54
    1e68:	0000c167          	.word	0x0000c167
    1e6c:	00450513          	addi	x10,x10,4

# Testcase cr_rs1_imm_edges (rs1 = 0x7ffffffe, imm = -2047)
  RVTEST_TESTDATA_LOAD_INT(x23, x28) # load rs1: x28 = 0x7ffffffe
    1e70:	000bae03          	lw	x28,0(x23)
    1e74:	004b8b93          	addi	x23,x23,4

00001e78 <I_andi_cg_cr_rs1_imm_edges_rs1val_0x7ffffffe_immval_m0x7ff>:
I_andi_cg_cr_rs1_imm_edges_rs1val_0x7ffffffe_immval_m0x7ff:
  andi x11, x28, -2047 # perform operation
    1e78:	801e7593          	andi	x11,x28,-2047
  # Check if x11 contains the expected result. x10 is the signature ptr, x5 is the link ptr, x4 is a temp reg.
  RVTEST_SIGUPD(x10, x5, x4, x11, I_andi_cg_cr_rs1_imm_edges_rs1val_0x7ffffffe_immval_m0x7ff, I_andi_cg_cr_rs1_imm_edges_rs1val_0x7ffffffe_immval_m0x7ff_str)
    1e7c:	00052203          	lw	x4,0(x10)
    1e80:	00b20863          	beq	x4,x11,1e90 <I_andi_cg_cr_rs1_imm_edges_rs1val_0x7ffffffe_immval_m0x7ff+0x18>
    1e84:	638012ef          	jal	x5,34bc <failedtest_x5_x4>
    1e88:	00001e78          	.word	0x00001e78
    1e8c:	0000c1bf          	.word	0x0000c1bf
    1e90:	00450513          	addi	x10,x10,4

# Testcase cr_rs1_imm_edges (rs1 = 0x7ffffffe, imm = -2)
  RVTEST_TESTDATA_LOAD_INT(x23, x29) # load rs1: x29 = 0x7ffffffe
    1e94:	000bae83          	lw	x29,0(x23)
    1e98:	004b8b93          	addi	x23,x23,4

00001e9c <I_andi_cg_cr_rs1_imm_edges_rs1val_0x7ffffffe_immval_m0x2>:
I_andi_cg_cr_rs1_imm_edges_rs1val_0x7ffffffe_immval_m0x2:
  andi x26, x29, -2 # perform operation
    1e9c:	ffeefd13          	andi	x26,x29,-2
  # Check if x26 contains the expected result. x10 is the signature ptr, x5 is the link ptr, x4 is a temp reg.
  RVTEST_SIGUPD(x10, x5, x4, x26, I_andi_cg_cr_rs1_imm_edges_rs1val_0x7ffffffe_immval_m0x2, I_andi_cg_cr_rs1_imm_edges_rs1val_0x7ffffffe_immval_m0x2_str)
    1ea0:	00052203          	lw	x4,0(x10)
    1ea4:	01a20863          	beq	x4,x26,1eb4 <I_andi_cg_cr_rs1_imm_edges_rs1val_0x7ffffffe_immval_m0x2+0x18>
    1ea8:	614012ef          	jal	x5,34bc <failedtest_x5_x4>
    1eac:	00001e9c          	.word	0x00001e9c
    1eb0:	0000c217          	.word	0x0000c217
    1eb4:	00450513          	addi	x10,x10,4

# Testcase cr_rs1_imm_edges (rs1 = 0x7ffffffe, imm = -1)
  RVTEST_TESTDATA_LOAD_INT(x23, x11) # load rs1: x11 = 0x7ffffffe
    1eb8:	000ba583          	lw	x11,0(x23)
    1ebc:	004b8b93          	addi	x23,x23,4

00001ec0 <I_andi_cg_cr_rs1_imm_edges_rs1val_0x7ffffffe_immval_m0x1>:
I_andi_cg_cr_rs1_imm_edges_rs1val_0x7ffffffe_immval_m0x1:
  andi x13, x11, -1 # perform operation
    1ec0:	fff5f693          	andi	x13,x11,-1
  # Check if x13 contains the expected result. x10 is the signature ptr, x5 is the link ptr, x4 is a temp reg.
  RVTEST_SIGUPD(x10, x5, x4, x13, I_andi_cg_cr_rs1_imm_edges_rs1val_0x7ffffffe_immval_m0x1, I_andi_cg_cr_rs1_imm_edges_rs1val_0x7ffffffe_immval_m0x1_str)
    1ec4:	00052203          	lw	x4,0(x10)
    1ec8:	00d20863          	beq	x4,x13,1ed8 <I_andi_cg_cr_rs1_imm_edges_rs1val_0x7ffffffe_immval_m0x1+0x18>
    1ecc:	5f0012ef          	jal	x5,34bc <failedtest_x5_x4>
    1ed0:	00001ec0          	.word	0x00001ec0
    1ed4:	0000c26d          	.word	0x0000c26d
    1ed8:	00450513          	addi	x10,x10,4

# Testcase cr_rs1_imm_edges (rs1 = 0xffffffff, imm = 0)
  RVTEST_TESTDATA_LOAD_INT(x23, x3) # load rs1: x3 = 0xffffffff
    1edc:	000ba183          	lw	x3,0(x23)
    1ee0:	004b8b93          	addi	x23,x23,4

00001ee4 <I_andi_cg_cr_rs1_imm_edges_rs1val_0xffffffff_immval_0x0>:
I_andi_cg_cr_rs1_imm_edges_rs1val_0xffffffff_immval_0x0:
  andi x15, x3, 0 # perform operation
    1ee4:	0001f793          	andi	x15,x3,0
  # Check if x15 contains the expected result. x10 is the signature ptr, x5 is the link ptr, x4 is a temp reg.
  RVTEST_SIGUPD(x10, x5, x4, x15, I_andi_cg_cr_rs1_imm_edges_rs1val_0xffffffff_immval_0x0, I_andi_cg_cr_rs1_imm_edges_rs1val_0xffffffff_immval_0x0_str)
    1ee8:	00052203          	lw	x4,0(x10)
    1eec:	00f20863          	beq	x4,x15,1efc <I_andi_cg_cr_rs1_imm_edges_rs1val_0xffffffff_immval_0x0+0x18>
    1ef0:	5cc012ef          	jal	x5,34bc <failedtest_x5_x4>
    1ef4:	00001ee4          	.word	0x00001ee4
    1ef8:	0000c2c3          	.word	0x0000c2c3
    1efc:	00450513          	addi	x10,x10,4

# Testcase cr_rs1_imm_edges (rs1 = 0xffffffff, imm = 1)
  RVTEST_TESTDATA_LOAD_INT(x23, x15) # load rs1: x15 = 0xffffffff
    1f00:	000ba783          	lw	x15,0(x23)
    1f04:	004b8b93          	addi	x23,x23,4

00001f08 <I_andi_cg_cr_rs1_imm_edges_rs1val_0xffffffff_immval_0x1>:
I_andi_cg_cr_rs1_imm_edges_rs1val_0xffffffff_immval_0x1:
  andi x2, x15, 1 # perform operation
    1f08:	0017f113          	andi	x2,x15,1
  # Check if x2 contains the expected result. x10 is the signature ptr, x5 is the link ptr, x4 is a temp reg.
  RVTEST_SIGUPD(x10, x5, x4, x2, I_andi_cg_cr_rs1_imm_edges_rs1val_0xffffffff_immval_0x1, I_andi_cg_cr_rs1_imm_edges_rs1val_0xffffffff_immval_0x1_str)
    1f0c:	00052203          	lw	x4,0(x10)
    1f10:	00220863          	beq	x4,x2,1f20 <I_andi_cg_cr_rs1_imm_edges_rs1val_0xffffffff_immval_0x1+0x18>
    1f14:	5a8012ef          	jal	x5,34bc <failedtest_x5_x4>
    1f18:	00001f08          	.word	0x00001f08
    1f1c:	0000c318          	.word	0x0000c318
    1f20:	00450513          	addi	x10,x10,4

# Testcase cr_rs1_imm_edges (rs1 = 0xffffffff, imm = 2)
  RVTEST_TESTDATA_LOAD_INT(x23, x31) # load rs1: x31 = 0xffffffff
    1f24:	000baf83          	lw	x31,0(x23)
    1f28:	004b8b93          	addi	x23,x23,4

00001f2c <I_andi_cg_cr_rs1_imm_edges_rs1val_0xffffffff_immval_0x2>:
I_andi_cg_cr_rs1_imm_edges_rs1val_0xffffffff_immval_0x2:
  andi x6, x31, 2 # perform operation
    1f2c:	002ff313          	andi	x6,x31,2
  # Check if x6 contains the expected result. x10 is the signature ptr, x5 is the link ptr, x4 is a temp reg.
  RVTEST_SIGUPD(x10, x5, x4, x6, I_andi_cg_cr_rs1_imm_edges_rs1val_0xffffffff_immval_0x2, I_andi_cg_cr_rs1_imm_edges_rs1val_0xffffffff_immval_0x2_str)
    1f30:	00052203          	lw	x4,0(x10)
    1f34:	00620863          	beq	x4,x6,1f44 <I_andi_cg_cr_rs1_imm_edges_rs1val_0xffffffff_immval_0x2+0x18>
    1f38:	584012ef          	jal	x5,34bc <failedtest_x5_x4>
    1f3c:	00001f2c          	.word	0x00001f2c
    1f40:	0000c36d          	.word	0x0000c36d
    1f44:	00450513          	addi	x10,x10,4

# Testcase cr_rs1_imm_edges (rs1 = 0xffffffff, imm = 3)
  RVTEST_TESTDATA_LOAD_INT(x23, x7) # load rs1: x7 = 0xffffffff
    1f48:	000ba383          	lw	x7,0(x23)
    1f4c:	004b8b93          	addi	x23,x23,4

00001f50 <I_andi_cg_cr_rs1_imm_edges_rs1val_0xffffffff_immval_0x3>:
I_andi_cg_cr_rs1_imm_edges_rs1val_0xffffffff_immval_0x3:
  andi x28, x7, 3 # perform operation
    1f50:	0033fe13          	andi	x28,x7,3
  # Check if x28 contains the expected result. x10 is the signature ptr, x5 is the link ptr, x4 is a temp reg.
  RVTEST_SIGUPD(x10, x5, x4, x28, I_andi_cg_cr_rs1_imm_edges_rs1val_0xffffffff_immval_0x3, I_andi_cg_cr_rs1_imm_edges_rs1val_0xffffffff_immval_0x3_str)
    1f54:	00052203          	lw	x4,0(x10)
    1f58:	01c20863          	beq	x4,x28,1f68 <I_andi_cg_cr_rs1_imm_edges_rs1val_0xffffffff_immval_0x3+0x18>
    1f5c:	560012ef          	jal	x5,34bc <failedtest_x5_x4>
    1f60:	00001f50          	.word	0x00001f50
    1f64:	0000c3c2          	.word	0x0000c3c2
    1f68:	00450513          	addi	x10,x10,4

# Testcase cr_rs1_imm_edges (rs1 = 0xffffffff, imm = 4)
  RVTEST_TESTDATA_LOAD_INT(x23, x3) # load rs1: x3 = 0xffffffff
    1f6c:	000ba183          	lw	x3,0(x23)
    1f70:	004b8b93          	addi	x23,x23,4

00001f74 <I_andi_cg_cr_rs1_imm_edges_rs1val_0xffffffff_immval_0x4>:
I_andi_cg_cr_rs1_imm_edges_rs1val_0xffffffff_immval_0x4:
  andi x22, x3, 4 # perform operation
    1f74:	0041fb13          	andi	x22,x3,4
  # Check if x22 contains the expected result. x10 is the signature ptr, x5 is the link ptr, x4 is a temp reg.
  RVTEST_SIGUPD(x10, x5, x4, x22, I_andi_cg_cr_rs1_imm_edges_rs1val_0xffffffff_immval_0x4, I_andi_cg_cr_rs1_imm_edges_rs1val_0xffffffff_immval_0x4_str)
    1f78:	00052203          	lw	x4,0(x10)
    1f7c:	01620863          	beq	x4,x22,1f8c <I_andi_cg_cr_rs1_imm_edges_rs1val_0xffffffff_immval_0x4+0x18>
    1f80:	53c012ef          	jal	x5,34bc <failedtest_x5_x4>
    1f84:	00001f74          	.word	0x00001f74
    1f88:	0000c417          	.word	0x0000c417
    1f8c:	00450513          	addi	x10,x10,4

# Testcase cr_rs1_imm_edges (rs1 = 0xffffffff, imm = 8)
  RVTEST_TESTDATA_LOAD_INT(x23, x22) # load rs1: x22 = 0xffffffff
    1f90:	000bab03          	lw	x22,0(x23)
    1f94:	004b8b93          	addi	x23,x23,4

00001f98 <I_andi_cg_cr_rs1_imm_edges_rs1val_0xffffffff_immval_0x8>:
I_andi_cg_cr_rs1_imm_edges_rs1val_0xffffffff_immval_0x8:
  andi x16, x22, 8 # perform operation
    1f98:	008b7813          	andi	x16,x22,8
  # Check if x16 contains the expected result. x10 is the signature ptr, x5 is the link ptr, x4 is a temp reg.
  RVTEST_SIGUPD(x10, x5, x4, x16, I_andi_cg_cr_rs1_imm_edges_rs1val_0xffffffff_immval_0x8, I_andi_cg_cr_rs1_imm_edges_rs1val_0xffffffff_immval_0x8_str)
    1f9c:	00052203          	lw	x4,0(x10)
    1fa0:	01020863          	beq	x4,x16,1fb0 <I_andi_cg_cr_rs1_imm_edges_rs1val_0xffffffff_immval_0x8+0x18>
    1fa4:	518012ef          	jal	x5,34bc <failedtest_x5_x4>
    1fa8:	00001f98          	.word	0x00001f98
    1fac:	0000c46c          	.word	0x0000c46c
    1fb0:	00450513          	addi	x10,x10,4

# Testcase cr_rs1_imm_edges (rs1 = 0xffffffff, imm = 16)
  RVTEST_TESTDATA_LOAD_INT(x23, x13) # load rs1: x13 = 0xffffffff
    1fb4:	000ba683          	lw	x13,0(x23)
    1fb8:	004b8b93          	addi	x23,x23,4

00001fbc <I_andi_cg_cr_rs1_imm_edges_rs1val_0xffffffff_immval_0x10>:
I_andi_cg_cr_rs1_imm_edges_rs1val_0xffffffff_immval_0x10:
  andi x29, x13, 16 # perform operation
    1fbc:	0106fe93          	andi	x29,x13,16
  # Check if x29 contains the expected result. x10 is the signature ptr, x5 is the link ptr, x4 is a temp reg.
  RVTEST_SIGUPD(x10, x5, x4, x29, I_andi_cg_cr_rs1_imm_edges_rs1val_0xffffffff_immval_0x10, I_andi_cg_cr_rs1_imm_edges_rs1val_0xffffffff_immval_0x10_str)
    1fc0:	00052203          	lw	x4,0(x10)
    1fc4:	01d20863          	beq	x4,x29,1fd4 <I_andi_cg_cr_rs1_imm_edges_rs1val_0xffffffff_immval_0x10+0x18>
    1fc8:	4f4012ef          	jal	x5,34bc <failedtest_x5_x4>
    1fcc:	00001fbc          	.word	0x00001fbc
    1fd0:	0000c4c1          	.word	0x0000c4c1
    1fd4:	00450513          	addi	x10,x10,4

# Testcase cr_rs1_imm_edges (rs1 = 0xffffffff, imm = 32)
  RVTEST_TESTDATA_LOAD_INT(x23, x21) # load rs1: x21 = 0xffffffff
    1fd8:	000baa83          	lw	x21,0(x23)
    1fdc:	004b8b93          	addi	x23,x23,4

00001fe0 <I_andi_cg_cr_rs1_imm_edges_rs1val_0xffffffff_immval_0x20>:
I_andi_cg_cr_rs1_imm_edges_rs1val_0xffffffff_immval_0x20:
  andi x6, x21, 32 # perform operation
    1fe0:	020af313          	andi	x6,x21,32
  # Check if x6 contains the expected result. x10 is the signature ptr, x5 is the link ptr, x4 is a temp reg.
  RVTEST_SIGUPD(x10, x5, x4, x6, I_andi_cg_cr_rs1_imm_edges_rs1val_0xffffffff_immval_0x20, I_andi_cg_cr_rs1_imm_edges_rs1val_0xffffffff_immval_0x20_str)
    1fe4:	00052203          	lw	x4,0(x10)
    1fe8:	00620863          	beq	x4,x6,1ff8 <I_andi_cg_cr_rs1_imm_edges_rs1val_0xffffffff_immval_0x20+0x18>
    1fec:	4d0012ef          	jal	x5,34bc <failedtest_x5_x4>
    1ff0:	00001fe0          	.word	0x00001fe0
    1ff4:	0000c517          	.word	0x0000c517
    1ff8:	00450513          	addi	x10,x10,4

# Testcase cr_rs1_imm_edges (rs1 = 0xffffffff, imm = 64)
  RVTEST_TESTDATA_LOAD_INT(x23, x28) # load rs1: x28 = 0xffffffff
    1ffc:	000bae03          	lw	x28,0(x23)
    2000:	004b8b93          	addi	x23,x23,4

00002004 <I_andi_cg_cr_rs1_imm_edges_rs1val_0xffffffff_immval_0x40>:
I_andi_cg_cr_rs1_imm_edges_rs1val_0xffffffff_immval_0x40:
  andi x2, x28, 64 # perform operation
    2004:	040e7113          	andi	x2,x28,64
  # Check if x2 contains the expected result. x10 is the signature ptr, x5 is the link ptr, x4 is a temp reg.
  RVTEST_SIGUPD(x10, x5, x4, x2, I_andi_cg_cr_rs1_imm_edges_rs1val_0xffffffff_immval_0x40, I_andi_cg_cr_rs1_imm_edges_rs1val_0xffffffff_immval_0x40_str)
    2008:	00052203          	lw	x4,0(x10)
    200c:	00220863          	beq	x4,x2,201c <I_andi_cg_cr_rs1_imm_edges_rs1val_0xffffffff_immval_0x40+0x18>
    2010:	4ac012ef          	jal	x5,34bc <failedtest_x5_x4>
    2014:	00002004          	.word	0x00002004
    2018:	0000c56d          	.word	0x0000c56d
    201c:	00450513          	addi	x10,x10,4

# Testcase cr_rs1_imm_edges (rs1 = 0xffffffff, imm = 128)
  RVTEST_TESTDATA_LOAD_INT(x23, x31) # load rs1: x31 = 0xffffffff
    2020:	000baf83          	lw	x31,0(x23)
    2024:	004b8b93          	addi	x23,x23,4

00002028 <I_andi_cg_cr_rs1_imm_edges_rs1val_0xffffffff_immval_0x80>:
I_andi_cg_cr_rs1_imm_edges_rs1val_0xffffffff_immval_0x80:
  andi x19, x31, 128 # perform operation
    2028:	080ff993          	andi	x19,x31,128
  # Check if x19 contains the expected result. x10 is the signature ptr, x5 is the link ptr, x4 is a temp reg.
  RVTEST_SIGUPD(x10, x5, x4, x19, I_andi_cg_cr_rs1_imm_edges_rs1val_0xffffffff_immval_0x80, I_andi_cg_cr_rs1_imm_edges_rs1val_0xffffffff_immval_0x80_str)
    202c:	00052203          	lw	x4,0(x10)
    2030:	01320863          	beq	x4,x19,2040 <I_andi_cg_cr_rs1_imm_edges_rs1val_0xffffffff_immval_0x80+0x18>
    2034:	488012ef          	jal	x5,34bc <failedtest_x5_x4>
    2038:	00002028          	.word	0x00002028
    203c:	0000c5c3          	.word	0x0000c5c3
    2040:	00450513          	addi	x10,x10,4

# Testcase cr_rs1_imm_edges (rs1 = 0xffffffff, imm = 256)
  RVTEST_TESTDATA_LOAD_INT(x23, x31) # load rs1: x31 = 0xffffffff
    2044:	000baf83          	lw	x31,0(x23)
    2048:	004b8b93          	addi	x23,x23,4

0000204c <I_andi_cg_cr_rs1_imm_edges_rs1val_0xffffffff_immval_0x100>:
I_andi_cg_cr_rs1_imm_edges_rs1val_0xffffffff_immval_0x100:
  andi x30, x31, 256 # perform operation
    204c:	100fff13          	andi	x30,x31,256
  # Check if x30 contains the expected result. x10 is the signature ptr, x5 is the link ptr, x4 is a temp reg.
  RVTEST_SIGUPD(x10, x5, x4, x30, I_andi_cg_cr_rs1_imm_edges_rs1val_0xffffffff_immval_0x100, I_andi_cg_cr_rs1_imm_edges_rs1val_0xffffffff_immval_0x100_str)
    2050:	00052203          	lw	x4,0(x10)
    2054:	01e20863          	beq	x4,x30,2064 <I_andi_cg_cr_rs1_imm_edges_rs1val_0xffffffff_immval_0x100+0x18>
    2058:	464012ef          	jal	x5,34bc <failedtest_x5_x4>
    205c:	0000204c          	.word	0x0000204c
    2060:	0000c619          	.word	0x0000c619
    2064:	00450513          	addi	x10,x10,4

# Testcase cr_rs1_imm_edges (rs1 = 0xffffffff, imm = 512)
  RVTEST_TESTDATA_LOAD_INT(x23, x17) # load rs1: x17 = 0xffffffff
    2068:	000ba883          	lw	x17,0(x23)
    206c:	004b8b93          	addi	x23,x23,4

00002070 <I_andi_cg_cr_rs1_imm_edges_rs1val_0xffffffff_immval_0x200>:
I_andi_cg_cr_rs1_imm_edges_rs1val_0xffffffff_immval_0x200:
  andi x9, x17, 512 # perform operation
    2070:	2008f493          	andi	x9,x17,512
  # Check if x9 contains the expected result. x10 is the signature ptr, x5 is the link ptr, x4 is a temp reg.
  RVTEST_SIGUPD(x10, x5, x4, x9, I_andi_cg_cr_rs1_imm_edges_rs1val_0xffffffff_immval_0x200, I_andi_cg_cr_rs1_imm_edges_rs1val_0xffffffff_immval_0x200_str)
    2074:	00052203          	lw	x4,0(x10)
    2078:	00920863          	beq	x4,x9,2088 <I_andi_cg_cr_rs1_imm_edges_rs1val_0xffffffff_immval_0x200+0x18>
    207c:	440012ef          	jal	x5,34bc <failedtest_x5_x4>
    2080:	00002070          	.word	0x00002070
    2084:	0000c670          	.word	0x0000c670
    2088:	00450513          	addi	x10,x10,4

# Testcase cr_rs1_imm_edges (rs1 = 0xffffffff, imm = 1023)
  RVTEST_TESTDATA_LOAD_INT(x23, x26) # load rs1: x26 = 0xffffffff
    208c:	000bad03          	lw	x26,0(x23)
    2090:	004b8b93          	addi	x23,x23,4

00002094 <I_andi_cg_cr_rs1_imm_edges_rs1val_0xffffffff_immval_0x3ff>:
I_andi_cg_cr_rs1_imm_edges_rs1val_0xffffffff_immval_0x3ff:
  andi x9, x26, 1023 # perform operation
    2094:	3ffd7493          	andi	x9,x26,1023
  # Check if x9 contains the expected result. x10 is the signature ptr, x5 is the link ptr, x4 is a temp reg.
  RVTEST_SIGUPD(x10, x5, x4, x9, I_andi_cg_cr_rs1_imm_edges_rs1val_0xffffffff_immval_0x3ff, I_andi_cg_cr_rs1_imm_edges_rs1val_0xffffffff_immval_0x3ff_str)
    2098:	00052203          	lw	x4,0(x10)
    209c:	00920863          	beq	x4,x9,20ac <I_andi_cg_cr_rs1_imm_edges_rs1val_0xffffffff_immval_0x3ff+0x18>
    20a0:	41c012ef          	jal	x5,34bc <failedtest_x5_x4>
    20a4:	00002094          	.word	0x00002094
    20a8:	0000c6c7          	.word	0x0000c6c7
    20ac:	00450513          	addi	x10,x10,4

# Testcase cr_rs1_imm_edges (rs1 = 0xffffffff, imm = 1024)
  RVTEST_TESTDATA_LOAD_INT(x23, x30) # load rs1: x30 = 0xffffffff
    20b0:	000baf03          	lw	x30,0(x23)
    20b4:	004b8b93          	addi	x23,x23,4

000020b8 <I_andi_cg_cr_rs1_imm_edges_rs1val_0xffffffff_immval_0x400>:
I_andi_cg_cr_rs1_imm_edges_rs1val_0xffffffff_immval_0x400:
  andi x7, x30, 1024 # perform operation
    20b8:	400f7393          	andi	x7,x30,1024
  # Check if x7 contains the expected result. x10 is the signature ptr, x5 is the link ptr, x4 is a temp reg.
  RVTEST_SIGUPD(x10, x5, x4, x7, I_andi_cg_cr_rs1_imm_edges_rs1val_0xffffffff_immval_0x400, I_andi_cg_cr_rs1_imm_edges_rs1val_0xffffffff_immval_0x400_str)
    20bc:	00052203          	lw	x4,0(x10)
    20c0:	00720863          	beq	x4,x7,20d0 <I_andi_cg_cr_rs1_imm_edges_rs1val_0xffffffff_immval_0x400+0x18>
    20c4:	3f8012ef          	jal	x5,34bc <failedtest_x5_x4>
    20c8:	000020b8          	.word	0x000020b8
    20cc:	0000c71e          	.word	0x0000c71e
    20d0:	00450513          	addi	x10,x10,4

# Testcase cr_rs1_imm_edges (rs1 = 0xffffffff, imm = 1795)
  RVTEST_TESTDATA_LOAD_INT(x23, x27) # load rs1: x27 = 0xffffffff
    20d4:	000bad83          	lw	x27,0(x23)
    20d8:	004b8b93          	addi	x23,x23,4

000020dc <I_andi_cg_cr_rs1_imm_edges_rs1val_0xffffffff_immval_0x703>:
I_andi_cg_cr_rs1_imm_edges_rs1val_0xffffffff_immval_0x703:
  andi x30, x27, 1795 # perform operation
    20dc:	703dff13          	andi	x30,x27,1795
  # Check if x30 contains the expected result. x10 is the signature ptr, x5 is the link ptr, x4 is a temp reg.
  RVTEST_SIGUPD(x10, x5, x4, x30, I_andi_cg_cr_rs1_imm_edges_rs1val_0xffffffff_immval_0x703, I_andi_cg_cr_rs1_imm_edges_rs1val_0xffffffff_immval_0x703_str)
    20e0:	00052203          	lw	x4,0(x10)
    20e4:	01e20863          	beq	x4,x30,20f4 <I_andi_cg_cr_rs1_imm_edges_rs1val_0xffffffff_immval_0x703+0x18>
    20e8:	3d4012ef          	jal	x5,34bc <failedtest_x5_x4>
    20ec:	000020dc          	.word	0x000020dc
    20f0:	0000c775          	.word	0x0000c775
    20f4:	00450513          	addi	x10,x10,4

# Testcase cr_rs1_imm_edges (rs1 = 0xffffffff, imm = 2047)
  RVTEST_TESTDATA_LOAD_INT(x23, x30) # load rs1: x30 = 0xffffffff
    20f8:	000baf03          	lw	x30,0(x23)
    20fc:	004b8b93          	addi	x23,x23,4

00002100 <I_andi_cg_cr_rs1_imm_edges_rs1val_0xffffffff_immval_0x7ff>:
I_andi_cg_cr_rs1_imm_edges_rs1val_0xffffffff_immval_0x7ff:
  andi x22, x30, 2047 # perform operation
    2100:	7fff7b13          	andi	x22,x30,2047
  # Check if x22 contains the expected result. x10 is the signature ptr, x5 is the link ptr, x4 is a temp reg.
  RVTEST_SIGUPD(x10, x5, x4, x22, I_andi_cg_cr_rs1_imm_edges_rs1val_0xffffffff_immval_0x7ff, I_andi_cg_cr_rs1_imm_edges_rs1val_0xffffffff_immval_0x7ff_str)
    2104:	00052203          	lw	x4,0(x10)
    2108:	01620863          	beq	x4,x22,2118 <I_andi_cg_cr_rs1_imm_edges_rs1val_0xffffffff_immval_0x7ff+0x18>
    210c:	3b0012ef          	jal	x5,34bc <failedtest_x5_x4>
    2110:	00002100          	.word	0x00002100
    2114:	0000c7cc          	.word	0x0000c7cc
    2118:	00450513          	addi	x10,x10,4

# Testcase cr_rs1_imm_edges (rs1 = 0xffffffff, imm = -2048)
  RVTEST_TESTDATA_LOAD_INT(x23, x24) # load rs1: x24 = 0xffffffff
    211c:	000bac03          	lw	x24,0(x23)
    2120:	004b8b93          	addi	x23,x23,4

00002124 <I_andi_cg_cr_rs1_imm_edges_rs1val_0xffffffff_immval_m0x800>:
I_andi_cg_cr_rs1_imm_edges_rs1val_0xffffffff_immval_m0x800:
  andi x11, x24, -2048 # perform operation
    2124:	800c7593          	andi	x11,x24,-2048
  # Check if x11 contains the expected result. x10 is the signature ptr, x5 is the link ptr, x4 is a temp reg.
  RVTEST_SIGUPD(x10, x5, x4, x11, I_andi_cg_cr_rs1_imm_edges_rs1val_0xffffffff_immval_m0x800, I_andi_cg_cr_rs1_imm_edges_rs1val_0xffffffff_immval_m0x800_str)
    2128:	00052203          	lw	x4,0(x10)
    212c:	00b20863          	beq	x4,x11,213c <I_andi_cg_cr_rs1_imm_edges_rs1val_0xffffffff_immval_m0x800+0x18>
    2130:	38c012ef          	jal	x5,34bc <failedtest_x5_x4>
    2134:	00002124          	.word	0x00002124
    2138:	0000c823          	.word	0x0000c823
    213c:	00450513          	addi	x10,x10,4

# Testcase cr_rs1_imm_edges (rs1 = 0xffffffff, imm = -2047)
  RVTEST_TESTDATA_LOAD_INT(x23, x19) # load rs1: x19 = 0xffffffff
    2140:	000ba983          	lw	x19,0(x23)
    2144:	004b8b93          	addi	x23,x23,4

00002148 <I_andi_cg_cr_rs1_imm_edges_rs1val_0xffffffff_immval_m0x7ff>:
I_andi_cg_cr_rs1_imm_edges_rs1val_0xffffffff_immval_m0x7ff:
  andi x21, x19, -2047 # perform operation
    2148:	8019fa93          	andi	x21,x19,-2047
  # Check if x21 contains the expected result. x10 is the signature ptr, x5 is the link ptr, x4 is a temp reg.
  RVTEST_SIGUPD(x10, x5, x4, x21, I_andi_cg_cr_rs1_imm_edges_rs1val_0xffffffff_immval_m0x7ff, I_andi_cg_cr_rs1_imm_edges_rs1val_0xffffffff_immval_m0x7ff_str)
    214c:	00052203          	lw	x4,0(x10)
    2150:	01520863          	beq	x4,x21,2160 <I_andi_cg_cr_rs1_imm_edges_rs1val_0xffffffff_immval_m0x7ff+0x18>
    2154:	368012ef          	jal	x5,34bc <failedtest_x5_x4>
    2158:	00002148          	.word	0x00002148
    215c:	0000c87b          	.word	0x0000c87b
    2160:	00450513          	addi	x10,x10,4

# Testcase cr_rs1_imm_edges (rs1 = 0xffffffff, imm = -2)
  RVTEST_TESTDATA_LOAD_INT(x23, x15) # load rs1: x15 = 0xffffffff
    2164:	000ba783          	lw	x15,0(x23)
    2168:	004b8b93          	addi	x23,x23,4

0000216c <I_andi_cg_cr_rs1_imm_edges_rs1val_0xffffffff_immval_m0x2>:
I_andi_cg_cr_rs1_imm_edges_rs1val_0xffffffff_immval_m0x2:
  andi x26, x15, -2 # perform operation
    216c:	ffe7fd13          	andi	x26,x15,-2
  # Check if x26 contains the expected result. x10 is the signature ptr, x5 is the link ptr, x4 is a temp reg.
  RVTEST_SIGUPD(x10, x5, x4, x26, I_andi_cg_cr_rs1_imm_edges_rs1val_0xffffffff_immval_m0x2, I_andi_cg_cr_rs1_imm_edges_rs1val_0xffffffff_immval_m0x2_str)
    2170:	00052203          	lw	x4,0(x10)
    2174:	01a20863          	beq	x4,x26,2184 <I_andi_cg_cr_rs1_imm_edges_rs1val_0xffffffff_immval_m0x2+0x18>
    2178:	344012ef          	jal	x5,34bc <failedtest_x5_x4>
    217c:	0000216c          	.word	0x0000216c
    2180:	0000c8d3          	.word	0x0000c8d3
    2184:	00450513          	addi	x10,x10,4

# Testcase cr_rs1_imm_edges (rs1 = 0xffffffff, imm = -1)
  RVTEST_TESTDATA_LOAD_INT(x23, x8) # load rs1: x8 = 0xffffffff
    2188:	000ba403          	lw	x8,0(x23)
    218c:	004b8b93          	addi	x23,x23,4

00002190 <I_andi_cg_cr_rs1_imm_edges_rs1val_0xffffffff_immval_m0x1>:
I_andi_cg_cr_rs1_imm_edges_rs1val_0xffffffff_immval_m0x1:
  andi x21, x8, -1 # perform operation
    2190:	fff47a93          	andi	x21,x8,-1
  # Check if x21 contains the expected result. x10 is the signature ptr, x5 is the link ptr, x4 is a temp reg.
  RVTEST_SIGUPD(x10, x5, x4, x21, I_andi_cg_cr_rs1_imm_edges_rs1val_0xffffffff_immval_m0x1, I_andi_cg_cr_rs1_imm_edges_rs1val_0xffffffff_immval_m0x1_str)
    2194:	00052203          	lw	x4,0(x10)
    2198:	01520863          	beq	x4,x21,21a8 <I_andi_cg_cr_rs1_imm_edges_rs1val_0xffffffff_immval_m0x1+0x18>
    219c:	320012ef          	jal	x5,34bc <failedtest_x5_x4>
    21a0:	00002190          	.word	0x00002190
    21a4:	0000c929          	.word	0x0000c929
    21a8:	00450513          	addi	x10,x10,4

# Testcase cr_rs1_imm_edges (rs1 = 0xfffffffe, imm = 0)
  RVTEST_TESTDATA_LOAD_INT(x23, x27) # load rs1: x27 = 0xfffffffe
    21ac:	000bad83          	lw	x27,0(x23)
    21b0:	004b8b93          	addi	x23,x23,4

000021b4 <I_andi_cg_cr_rs1_imm_edges_rs1val_0xfffffffe_immval_0x0>:
I_andi_cg_cr_rs1_imm_edges_rs1val_0xfffffffe_immval_0x0:
  andi x7, x27, 0 # perform operation
    21b4:	000df393          	andi	x7,x27,0
  # Check if x7 contains the expected result. x10 is the signature ptr, x5 is the link ptr, x4 is a temp reg.
  RVTEST_SIGUPD(x10, x5, x4, x7, I_andi_cg_cr_rs1_imm_edges_rs1val_0xfffffffe_immval_0x0, I_andi_cg_cr_rs1_imm_edges_rs1val_0xfffffffe_immval_0x0_str)
    21b8:	00052203          	lw	x4,0(x10)
    21bc:	00720863          	beq	x4,x7,21cc <I_andi_cg_cr_rs1_imm_edges_rs1val_0xfffffffe_immval_0x0+0x18>
    21c0:	2fc012ef          	jal	x5,34bc <failedtest_x5_x4>
    21c4:	000021b4          	.word	0x000021b4
    21c8:	0000c97f          	.word	0x0000c97f
    21cc:	00450513          	addi	x10,x10,4

# Testcase cr_rs1_imm_edges (rs1 = 0xfffffffe, imm = 1)
  RVTEST_TESTDATA_LOAD_INT(x23, x19) # load rs1: x19 = 0xfffffffe
    21d0:	000ba983          	lw	x19,0(x23)
    21d4:	004b8b93          	addi	x23,x23,4

000021d8 <I_andi_cg_cr_rs1_imm_edges_rs1val_0xfffffffe_immval_0x1>:
I_andi_cg_cr_rs1_imm_edges_rs1val_0xfffffffe_immval_0x1:
  andi x31, x19, 1 # perform operation
    21d8:	0019ff93          	andi	x31,x19,1
  # Check if x31 contains the expected result. x10 is the signature ptr, x5 is the link ptr, x4 is a temp reg.
  RVTEST_SIGUPD(x10, x5, x4, x31, I_andi_cg_cr_rs1_imm_edges_rs1val_0xfffffffe_immval_0x1, I_andi_cg_cr_rs1_imm_edges_rs1val_0xfffffffe_immval_0x1_str)
    21dc:	00052203          	lw	x4,0(x10)
    21e0:	01f20863          	beq	x4,x31,21f0 <I_andi_cg_cr_rs1_imm_edges_rs1val_0xfffffffe_immval_0x1+0x18>
    21e4:	2d8012ef          	jal	x5,34bc <failedtest_x5_x4>
    21e8:	000021d8          	.word	0x000021d8
    21ec:	0000c9d4          	.word	0x0000c9d4
    21f0:	00450513          	addi	x10,x10,4

# Testcase cr_rs1_imm_edges (rs1 = 0xfffffffe, imm = 2)
  RVTEST_TESTDATA_LOAD_INT(x23, x24) # load rs1: x24 = 0xfffffffe
    21f4:	000bac03          	lw	x24,0(x23)
    21f8:	004b8b93          	addi	x23,x23,4

000021fc <I_andi_cg_cr_rs1_imm_edges_rs1val_0xfffffffe_immval_0x2>:
I_andi_cg_cr_rs1_imm_edges_rs1val_0xfffffffe_immval_0x2:
  andi x3, x24, 2 # perform operation
    21fc:	002c7193          	andi	x3,x24,2
  # Check if x3 contains the expected result. x10 is the signature ptr, x5 is the link ptr, x4 is a temp reg.
  RVTEST_SIGUPD(x10, x5, x4, x3, I_andi_cg_cr_rs1_imm_edges_rs1val_0xfffffffe_immval_0x2, I_andi_cg_cr_rs1_imm_edges_rs1val_0xfffffffe_immval_0x2_str)
    2200:	00052203          	lw	x4,0(x10)
    2204:	00320863          	beq	x4,x3,2214 <I_andi_cg_cr_rs1_imm_edges_rs1val_0xfffffffe_immval_0x2+0x18>
    2208:	2b4012ef          	jal	x5,34bc <failedtest_x5_x4>
    220c:	000021fc          	.word	0x000021fc
    2210:	0000ca29          	.word	0x0000ca29
    2214:	00450513          	addi	x10,x10,4

# Testcase cr_rs1_imm_edges (rs1 = 0xfffffffe, imm = 3)
  RVTEST_TESTDATA_LOAD_INT(x23, x2) # load rs1: x2 = 0xfffffffe
    2218:	000ba103          	lw	x2,0(x23)
    221c:	004b8b93          	addi	x23,x23,4

00002220 <I_andi_cg_cr_rs1_imm_edges_rs1val_0xfffffffe_immval_0x3>:
I_andi_cg_cr_rs1_imm_edges_rs1val_0xfffffffe_immval_0x3:
  andi x20, x2, 3 # perform operation
    2220:	00317a13          	andi	x20,x2,3
  # Check if x20 contains the expected result. x10 is the signature ptr, x5 is the link ptr, x4 is a temp reg.
  RVTEST_SIGUPD(x10, x5, x4, x20, I_andi_cg_cr_rs1_imm_edges_rs1val_0xfffffffe_immval_0x3, I_andi_cg_cr_rs1_imm_edges_rs1val_0xfffffffe_immval_0x3_str)
    2224:	00052203          	lw	x4,0(x10)
    2228:	01420863          	beq	x4,x20,2238 <I_andi_cg_cr_rs1_imm_edges_rs1val_0xfffffffe_immval_0x3+0x18>
    222c:	290012ef          	jal	x5,34bc <failedtest_x5_x4>
    2230:	00002220          	.word	0x00002220
    2234:	0000ca7e          	.word	0x0000ca7e
    2238:	00450513          	addi	x10,x10,4

# Testcase cr_rs1_imm_edges (rs1 = 0xfffffffe, imm = 4)
  RVTEST_TESTDATA_LOAD_INT(x23, x8) # load rs1: x8 = 0xfffffffe
    223c:	000ba403          	lw	x8,0(x23)
    2240:	004b8b93          	addi	x23,x23,4

00002244 <I_andi_cg_cr_rs1_imm_edges_rs1val_0xfffffffe_immval_0x4>:
I_andi_cg_cr_rs1_imm_edges_rs1val_0xfffffffe_immval_0x4:
  andi x14, x8, 4 # perform operation
    2244:	00447713          	andi	x14,x8,4
  # Check if x14 contains the expected result. x10 is the signature ptr, x5 is the link ptr, x4 is a temp reg.
  RVTEST_SIGUPD(x10, x5, x4, x14, I_andi_cg_cr_rs1_imm_edges_rs1val_0xfffffffe_immval_0x4, I_andi_cg_cr_rs1_imm_edges_rs1val_0xfffffffe_immval_0x4_str)
    2248:	00052203          	lw	x4,0(x10)
    224c:	00e20863          	beq	x4,x14,225c <I_andi_cg_cr_rs1_imm_edges_rs1val_0xfffffffe_immval_0x4+0x18>
    2250:	26c012ef          	jal	x5,34bc <failedtest_x5_x4>
    2254:	00002244          	.word	0x00002244
    2258:	0000cad3          	.word	0x0000cad3
    225c:	00450513          	addi	x10,x10,4

# Testcase cr_rs1_imm_edges (rs1 = 0xfffffffe, imm = 8)
  RVTEST_TESTDATA_LOAD_INT(x23, x17) # load rs1: x17 = 0xfffffffe
    2260:	000ba883          	lw	x17,0(x23)
    2264:	004b8b93          	addi	x23,x23,4

00002268 <I_andi_cg_cr_rs1_imm_edges_rs1val_0xfffffffe_immval_0x8>:
I_andi_cg_cr_rs1_imm_edges_rs1val_0xfffffffe_immval_0x8:
  andi x11, x17, 8 # perform operation
    2268:	0088f593          	andi	x11,x17,8
  # Check if x11 contains the expected result. x10 is the signature ptr, x5 is the link ptr, x4 is a temp reg.
  RVTEST_SIGUPD(x10, x5, x4, x11, I_andi_cg_cr_rs1_imm_edges_rs1val_0xfffffffe_immval_0x8, I_andi_cg_cr_rs1_imm_edges_rs1val_0xfffffffe_immval_0x8_str)
    226c:	00052203          	lw	x4,0(x10)
    2270:	00b20863          	beq	x4,x11,2280 <I_andi_cg_cr_rs1_imm_edges_rs1val_0xfffffffe_immval_0x8+0x18>
    2274:	248012ef          	jal	x5,34bc <failedtest_x5_x4>
    2278:	00002268          	.word	0x00002268
    227c:	0000cb28          	.word	0x0000cb28
    2280:	00450513          	addi	x10,x10,4

# Testcase cr_rs1_imm_edges (rs1 = 0xfffffffe, imm = 16)
  RVTEST_TESTDATA_LOAD_INT(x23, x7) # load rs1: x7 = 0xfffffffe
    2284:	000ba383          	lw	x7,0(x23)
    2288:	004b8b93          	addi	x23,x23,4

0000228c <I_andi_cg_cr_rs1_imm_edges_rs1val_0xfffffffe_immval_0x10>:
I_andi_cg_cr_rs1_imm_edges_rs1val_0xfffffffe_immval_0x10:
  andi x15, x7, 16 # perform operation
    228c:	0103f793          	andi	x15,x7,16
  # Check if x15 contains the expected result. x10 is the signature ptr, x5 is the link ptr, x4 is a temp reg.
  RVTEST_SIGUPD(x10, x5, x4, x15, I_andi_cg_cr_rs1_imm_edges_rs1val_0xfffffffe_immval_0x10, I_andi_cg_cr_rs1_imm_edges_rs1val_0xfffffffe_immval_0x10_str)
    2290:	00052203          	lw	x4,0(x10)
    2294:	00f20863          	beq	x4,x15,22a4 <I_andi_cg_cr_rs1_imm_edges_rs1val_0xfffffffe_immval_0x10+0x18>
    2298:	224012ef          	jal	x5,34bc <failedtest_x5_x4>
    229c:	0000228c          	.word	0x0000228c
    22a0:	0000cb7d          	.word	0x0000cb7d
    22a4:	00450513          	addi	x10,x10,4

# Testcase cr_rs1_imm_edges (rs1 = 0xfffffffe, imm = 32)
  RVTEST_TESTDATA_LOAD_INT(x23, x17) # load rs1: x17 = 0xfffffffe
    22a8:	000ba883          	lw	x17,0(x23)
    22ac:	004b8b93          	addi	x23,x23,4

000022b0 <I_andi_cg_cr_rs1_imm_edges_rs1val_0xfffffffe_immval_0x20>:
I_andi_cg_cr_rs1_imm_edges_rs1val_0xfffffffe_immval_0x20:
  andi x27, x17, 32 # perform operation
    22b0:	0208fd93          	andi	x27,x17,32
  # Check if x27 contains the expected result. x10 is the signature ptr, x5 is the link ptr, x4 is a temp reg.
  RVTEST_SIGUPD(x10, x5, x4, x27, I_andi_cg_cr_rs1_imm_edges_rs1val_0xfffffffe_immval_0x20, I_andi_cg_cr_rs1_imm_edges_rs1val_0xfffffffe_immval_0x20_str)
    22b4:	00052203          	lw	x4,0(x10)
    22b8:	01b20863          	beq	x4,x27,22c8 <I_andi_cg_cr_rs1_imm_edges_rs1val_0xfffffffe_immval_0x20+0x18>
    22bc:	200012ef          	jal	x5,34bc <failedtest_x5_x4>
    22c0:	000022b0          	.word	0x000022b0
    22c4:	0000cbd3          	.word	0x0000cbd3
    22c8:	00450513          	addi	x10,x10,4

# Testcase cr_rs1_imm_edges (rs1 = 0xfffffffe, imm = 64)
  RVTEST_TESTDATA_LOAD_INT(x23, x6) # load rs1: x6 = 0xfffffffe
    22cc:	000ba303          	lw	x6,0(x23)
    22d0:	004b8b93          	addi	x23,x23,4

000022d4 <I_andi_cg_cr_rs1_imm_edges_rs1val_0xfffffffe_immval_0x40>:
I_andi_cg_cr_rs1_imm_edges_rs1val_0xfffffffe_immval_0x40:
  andi x22, x6, 64 # perform operation
    22d4:	04037b13          	andi	x22,x6,64
  # Check if x22 contains the expected result. x10 is the signature ptr, x5 is the link ptr, x4 is a temp reg.
  RVTEST_SIGUPD(x10, x5, x4, x22, I_andi_cg_cr_rs1_imm_edges_rs1val_0xfffffffe_immval_0x40, I_andi_cg_cr_rs1_imm_edges_rs1val_0xfffffffe_immval_0x40_str)
    22d8:	00052203          	lw	x4,0(x10)
    22dc:	01620863          	beq	x4,x22,22ec <I_andi_cg_cr_rs1_imm_edges_rs1val_0xfffffffe_immval_0x40+0x18>
    22e0:	1dc012ef          	jal	x5,34bc <failedtest_x5_x4>
    22e4:	000022d4          	.word	0x000022d4
    22e8:	0000cc29          	.word	0x0000cc29
    22ec:	00450513          	addi	x10,x10,4

# Testcase cr_rs1_imm_edges (rs1 = 0xfffffffe, imm = 128)
  RVTEST_TESTDATA_LOAD_INT(x23, x25) # load rs1: x25 = 0xfffffffe
    22f0:	000bac83          	lw	x25,0(x23)
    22f4:	004b8b93          	addi	x23,x23,4

000022f8 <I_andi_cg_cr_rs1_imm_edges_rs1val_0xfffffffe_immval_0x80>:
I_andi_cg_cr_rs1_imm_edges_rs1val_0xfffffffe_immval_0x80:
  andi x13, x25, 128 # perform operation
    22f8:	080cf693          	andi	x13,x25,128
  # Check if x13 contains the expected result. x10 is the signature ptr, x5 is the link ptr, x4 is a temp reg.
  RVTEST_SIGUPD(x10, x5, x4, x13, I_andi_cg_cr_rs1_imm_edges_rs1val_0xfffffffe_immval_0x80, I_andi_cg_cr_rs1_imm_edges_rs1val_0xfffffffe_immval_0x80_str)
    22fc:	00052203          	lw	x4,0(x10)
    2300:	00d20863          	beq	x4,x13,2310 <I_andi_cg_cr_rs1_imm_edges_rs1val_0xfffffffe_immval_0x80+0x18>
    2304:	1b8012ef          	jal	x5,34bc <failedtest_x5_x4>
    2308:	000022f8          	.word	0x000022f8
    230c:	0000cc7f          	.word	0x0000cc7f
    2310:	00450513          	addi	x10,x10,4

# Testcase cr_rs1_imm_edges (rs1 = 0xfffffffe, imm = 256)
  RVTEST_TESTDATA_LOAD_INT(x23, x6) # load rs1: x6 = 0xfffffffe
    2314:	000ba303          	lw	x6,0(x23)
    2318:	004b8b93          	addi	x23,x23,4

0000231c <I_andi_cg_cr_rs1_imm_edges_rs1val_0xfffffffe_immval_0x100>:
I_andi_cg_cr_rs1_imm_edges_rs1val_0xfffffffe_immval_0x100:
  andi x14, x6, 256 # perform operation
    231c:	10037713          	andi	x14,x6,256
  # Check if x14 contains the expected result. x10 is the signature ptr, x5 is the link ptr, x4 is a temp reg.
  RVTEST_SIGUPD(x10, x5, x4, x14, I_andi_cg_cr_rs1_imm_edges_rs1val_0xfffffffe_immval_0x100, I_andi_cg_cr_rs1_imm_edges_rs1val_0xfffffffe_immval_0x100_str)
    2320:	00052203          	lw	x4,0(x10)
    2324:	00e20863          	beq	x4,x14,2334 <I_andi_cg_cr_rs1_imm_edges_rs1val_0xfffffffe_immval_0x100+0x18>
    2328:	194012ef          	jal	x5,34bc <failedtest_x5_x4>
    232c:	0000231c          	.word	0x0000231c
    2330:	0000ccd5          	.word	0x0000ccd5
    2334:	00450513          	addi	x10,x10,4

# Testcase cr_rs1_imm_edges (rs1 = 0xfffffffe, imm = 512)
  RVTEST_TESTDATA_LOAD_INT(x23, x25) # load rs1: x25 = 0xfffffffe
    2338:	000bac83          	lw	x25,0(x23)
    233c:	004b8b93          	addi	x23,x23,4

00002340 <I_andi_cg_cr_rs1_imm_edges_rs1val_0xfffffffe_immval_0x200>:
I_andi_cg_cr_rs1_imm_edges_rs1val_0xfffffffe_immval_0x200:
  andi x18, x25, 512 # perform operation
    2340:	200cf913          	andi	x18,x25,512
  # Check if x18 contains the expected result. x10 is the signature ptr, x5 is the link ptr, x4 is a temp reg.
  RVTEST_SIGUPD(x10, x5, x4, x18, I_andi_cg_cr_rs1_imm_edges_rs1val_0xfffffffe_immval_0x200, I_andi_cg_cr_rs1_imm_edges_rs1val_0xfffffffe_immval_0x200_str)
    2344:	00052203          	lw	x4,0(x10)
    2348:	01220863          	beq	x4,x18,2358 <I_andi_cg_cr_rs1_imm_edges_rs1val_0xfffffffe_immval_0x200+0x18>
    234c:	170012ef          	jal	x5,34bc <failedtest_x5_x4>
    2350:	00002340          	.word	0x00002340
    2354:	0000cd2c          	.word	0x0000cd2c
    2358:	00450513          	addi	x10,x10,4

# Testcase cr_rs1_imm_edges (rs1 = 0xfffffffe, imm = 1023)
  RVTEST_TESTDATA_LOAD_INT(x23, x24) # load rs1: x24 = 0xfffffffe
    235c:	000bac03          	lw	x24,0(x23)
    2360:	004b8b93          	addi	x23,x23,4

00002364 <I_andi_cg_cr_rs1_imm_edges_rs1val_0xfffffffe_immval_0x3ff>:
I_andi_cg_cr_rs1_imm_edges_rs1val_0xfffffffe_immval_0x3ff:
  andi x13, x24, 1023 # perform operation
    2364:	3ffc7693          	andi	x13,x24,1023
  # Check if x13 contains the expected result. x10 is the signature ptr, x5 is the link ptr, x4 is a temp reg.
  RVTEST_SIGUPD(x10, x5, x4, x13, I_andi_cg_cr_rs1_imm_edges_rs1val_0xfffffffe_immval_0x3ff, I_andi_cg_cr_rs1_imm_edges_rs1val_0xfffffffe_immval_0x3ff_str)
    2368:	00052203          	lw	x4,0(x10)
    236c:	00d20863          	beq	x4,x13,237c <I_andi_cg_cr_rs1_imm_edges_rs1val_0xfffffffe_immval_0x3ff+0x18>
    2370:	14c012ef          	jal	x5,34bc <failedtest_x5_x4>
    2374:	00002364          	.word	0x00002364
    2378:	0000cd83          	.word	0x0000cd83
    237c:	00450513          	addi	x10,x10,4

# Testcase cr_rs1_imm_edges (rs1 = 0xfffffffe, imm = 1024)
  RVTEST_TESTDATA_LOAD_INT(x23, x18) # load rs1: x18 = 0xfffffffe
    2380:	000ba903          	lw	x18,0(x23)
    2384:	004b8b93          	addi	x23,x23,4

00002388 <I_andi_cg_cr_rs1_imm_edges_rs1val_0xfffffffe_immval_0x400>:
I_andi_cg_cr_rs1_imm_edges_rs1val_0xfffffffe_immval_0x400:
  andi x3, x18, 1024 # perform operation
    2388:	40097193          	andi	x3,x18,1024
  # Check if x3 contains the expected result. x10 is the signature ptr, x5 is the link ptr, x4 is a temp reg.
  RVTEST_SIGUPD(x10, x5, x4, x3, I_andi_cg_cr_rs1_imm_edges_rs1val_0xfffffffe_immval_0x400, I_andi_cg_cr_rs1_imm_edges_rs1val_0xfffffffe_immval_0x400_str)
    238c:	00052203          	lw	x4,0(x10)
    2390:	00320863          	beq	x4,x3,23a0 <I_andi_cg_cr_rs1_imm_edges_rs1val_0xfffffffe_immval_0x400+0x18>
    2394:	128012ef          	jal	x5,34bc <failedtest_x5_x4>
    2398:	00002388          	.word	0x00002388
    239c:	0000cdda          	.word	0x0000cdda
    23a0:	00450513          	addi	x10,x10,4

# Testcase cr_rs1_imm_edges (rs1 = 0xfffffffe, imm = 1795)
  RVTEST_TESTDATA_LOAD_INT(x23, x19) # load rs1: x19 = 0xfffffffe
    23a4:	000ba983          	lw	x19,0(x23)
    23a8:	004b8b93          	addi	x23,x23,4

000023ac <I_andi_cg_cr_rs1_imm_edges_rs1val_0xfffffffe_immval_0x703>:
I_andi_cg_cr_rs1_imm_edges_rs1val_0xfffffffe_immval_0x703:
  andi x21, x19, 1795 # perform operation
    23ac:	7039fa93          	andi	x21,x19,1795
  # Check if x21 contains the expected result. x10 is the signature ptr, x5 is the link ptr, x4 is a temp reg.
  RVTEST_SIGUPD(x10, x5, x4, x21, I_andi_cg_cr_rs1_imm_edges_rs1val_0xfffffffe_immval_0x703, I_andi_cg_cr_rs1_imm_edges_rs1val_0xfffffffe_immval_0x703_str)
    23b0:	00052203          	lw	x4,0(x10)
    23b4:	01520863          	beq	x4,x21,23c4 <I_andi_cg_cr_rs1_imm_edges_rs1val_0xfffffffe_immval_0x703+0x18>
    23b8:	104012ef          	jal	x5,34bc <failedtest_x5_x4>
    23bc:	000023ac          	.word	0x000023ac
    23c0:	0000ce31          	.word	0x0000ce31
    23c4:	00450513          	addi	x10,x10,4

# Testcase cr_rs1_imm_edges (rs1 = 0xfffffffe, imm = 2047)
  RVTEST_TESTDATA_LOAD_INT(x23, x1) # load rs1: x1 = 0xfffffffe
    23c8:	000ba083          	lw	x1,0(x23)
    23cc:	004b8b93          	addi	x23,x23,4

000023d0 <I_andi_cg_cr_rs1_imm_edges_rs1val_0xfffffffe_immval_0x7ff>:
I_andi_cg_cr_rs1_imm_edges_rs1val_0xfffffffe_immval_0x7ff:
  andi x16, x1, 2047 # perform operation
    23d0:	7ff0f813          	andi	x16,x1,2047
  # Check if x16 contains the expected result. x10 is the signature ptr, x5 is the link ptr, x4 is a temp reg.
  RVTEST_SIGUPD(x10, x5, x4, x16, I_andi_cg_cr_rs1_imm_edges_rs1val_0xfffffffe_immval_0x7ff, I_andi_cg_cr_rs1_imm_edges_rs1val_0xfffffffe_immval_0x7ff_str)
    23d4:	00052203          	lw	x4,0(x10)
    23d8:	01020863          	beq	x4,x16,23e8 <I_andi_cg_cr_rs1_imm_edges_rs1val_0xfffffffe_immval_0x7ff+0x18>
    23dc:	0e0012ef          	jal	x5,34bc <failedtest_x5_x4>
    23e0:	000023d0          	.word	0x000023d0
    23e4:	0000ce88          	.word	0x0000ce88
    23e8:	00450513          	addi	x10,x10,4

# Testcase cr_rs1_imm_edges (rs1 = 0xfffffffe, imm = -2048)
  RVTEST_TESTDATA_LOAD_INT(x23, x6) # load rs1: x6 = 0xfffffffe
    23ec:	000ba303          	lw	x6,0(x23)
    23f0:	004b8b93          	addi	x23,x23,4

000023f4 <I_andi_cg_cr_rs1_imm_edges_rs1val_0xfffffffe_immval_m0x800>:
I_andi_cg_cr_rs1_imm_edges_rs1val_0xfffffffe_immval_m0x800:
  andi x26, x6, -2048 # perform operation
    23f4:	80037d13          	andi	x26,x6,-2048
  # Check if x26 contains the expected result. x10 is the signature ptr, x5 is the link ptr, x4 is a temp reg.
  RVTEST_SIGUPD(x10, x5, x4, x26, I_andi_cg_cr_rs1_imm_edges_rs1val_0xfffffffe_immval_m0x800, I_andi_cg_cr_rs1_imm_edges_rs1val_0xfffffffe_immval_m0x800_str)
    23f8:	00052203          	lw	x4,0(x10)
    23fc:	01a20863          	beq	x4,x26,240c <I_andi_cg_cr_rs1_imm_edges_rs1val_0xfffffffe_immval_m0x800+0x18>
    2400:	0bc012ef          	jal	x5,34bc <failedtest_x5_x4>
    2404:	000023f4          	.word	0x000023f4
    2408:	0000cedf          	.word	0x0000cedf
    240c:	00450513          	addi	x10,x10,4

# Testcase cr_rs1_imm_edges (rs1 = 0xfffffffe, imm = -2047)
  RVTEST_TESTDATA_LOAD_INT(x23, x20) # load rs1: x20 = 0xfffffffe
    2410:	000baa03          	lw	x20,0(x23)
    2414:	004b8b93          	addi	x23,x23,4

00002418 <I_andi_cg_cr_rs1_imm_edges_rs1val_0xfffffffe_immval_m0x7ff>:
I_andi_cg_cr_rs1_imm_edges_rs1val_0xfffffffe_immval_m0x7ff:
  andi x26, x20, -2047 # perform operation
    2418:	801a7d13          	andi	x26,x20,-2047
  # Check if x26 contains the expected result. x10 is the signature ptr, x5 is the link ptr, x4 is a temp reg.
  RVTEST_SIGUPD(x10, x5, x4, x26, I_andi_cg_cr_rs1_imm_edges_rs1val_0xfffffffe_immval_m0x7ff, I_andi_cg_cr_rs1_imm_edges_rs1val_0xfffffffe_immval_m0x7ff_str)
    241c:	00052203          	lw	x4,0(x10)
    2420:	01a20863          	beq	x4,x26,2430 <I_andi_cg_cr_rs1_imm_edges_rs1val_0xfffffffe_immval_m0x7ff+0x18>
    2424:	098012ef          	jal	x5,34bc <failedtest_x5_x4>
    2428:	00002418          	.word	0x00002418
    242c:	0000cf37          	.word	0x0000cf37
    2430:	00450513          	addi	x10,x10,4

# Testcase cr_rs1_imm_edges (rs1 = 0xfffffffe, imm = -2)
  RVTEST_TESTDATA_LOAD_INT(x23, x8) # load rs1: x8 = 0xfffffffe
    2434:	000ba403          	lw	x8,0(x23)
    2438:	004b8b93          	addi	x23,x23,4

0000243c <I_andi_cg_cr_rs1_imm_edges_rs1val_0xfffffffe_immval_m0x2>:
I_andi_cg_cr_rs1_imm_edges_rs1val_0xfffffffe_immval_m0x2:
  andi x25, x8, -2 # perform operation
    243c:	ffe47c93          	andi	x25,x8,-2
  # Check if x25 contains the expected result. x10 is the signature ptr, x5 is the link ptr, x4 is a temp reg.
  RVTEST_SIGUPD(x10, x5, x4, x25, I_andi_cg_cr_rs1_imm_edges_rs1val_0xfffffffe_immval_m0x2, I_andi_cg_cr_rs1_imm_edges_rs1val_0xfffffffe_immval_m0x2_str)
    2440:	00052203          	lw	x4,0(x10)
    2444:	01920863          	beq	x4,x25,2454 <I_andi_cg_cr_rs1_imm_edges_rs1val_0xfffffffe_immval_m0x2+0x18>
    2448:	074012ef          	jal	x5,34bc <failedtest_x5_x4>
    244c:	0000243c          	.word	0x0000243c
    2450:	0000cf8f          	.word	0x0000cf8f
    2454:	00450513          	addi	x10,x10,4

# Testcase cr_rs1_imm_edges (rs1 = 0xfffffffe, imm = -1)
  RVTEST_TESTDATA_LOAD_INT(x23, x18) # load rs1: x18 = 0xfffffffe
    2458:	000ba903          	lw	x18,0(x23)
    245c:	004b8b93          	addi	x23,x23,4

00002460 <I_andi_cg_cr_rs1_imm_edges_rs1val_0xfffffffe_immval_m0x1>:
I_andi_cg_cr_rs1_imm_edges_rs1val_0xfffffffe_immval_m0x1:
  andi x13, x18, -1 # perform operation
    2460:	fff97693          	andi	x13,x18,-1
  # Check if x13 contains the expected result. x10 is the signature ptr, x5 is the link ptr, x4 is a temp reg.
  RVTEST_SIGUPD(x10, x5, x4, x13, I_andi_cg_cr_rs1_imm_edges_rs1val_0xfffffffe_immval_m0x1, I_andi_cg_cr_rs1_imm_edges_rs1val_0xfffffffe_immval_m0x1_str)
    2464:	00052203          	lw	x4,0(x10)
    2468:	00d20863          	beq	x4,x13,2478 <I_andi_cg_cr_rs1_imm_edges_rs1val_0xfffffffe_immval_m0x1+0x18>
    246c:	050012ef          	jal	x5,34bc <failedtest_x5_x4>
    2470:	00002460          	.word	0x00002460
    2474:	0000cfe5          	.word	0x0000cfe5
    2478:	00450513          	addi	x10,x10,4

# Testcase cr_rs1_imm_edges (rs1 = 0x5bbc8872, imm = 0)
  RVTEST_TESTDATA_LOAD_INT(x23, x18) # load rs1: x18 = 0x5bbc8872
    247c:	000ba903          	lw	x18,0(x23)
    2480:	004b8b93          	addi	x23,x23,4

00002484 <I_andi_cg_cr_rs1_imm_edges_rs1val_0x5bbc8872_immval_0x0>:
I_andi_cg_cr_rs1_imm_edges_rs1val_0x5bbc8872_immval_0x0:
  andi x6, x18, 0 # perform operation
    2484:	00097313          	andi	x6,x18,0
  # Check if x6 contains the expected result. x10 is the signature ptr, x5 is the link ptr, x4 is a temp reg.
  RVTEST_SIGUPD(x10, x5, x4, x6, I_andi_cg_cr_rs1_imm_edges_rs1val_0x5bbc8872_immval_0x0, I_andi_cg_cr_rs1_imm_edges_rs1val_0x5bbc8872_immval_0x0_str)
    2488:	00052203          	lw	x4,0(x10)
    248c:	00620863          	beq	x4,x6,249c <I_andi_cg_cr_rs1_imm_edges_rs1val_0x5bbc8872_immval_0x0+0x18>
    2490:	02c012ef          	jal	x5,34bc <failedtest_x5_x4>
    2494:	00002484          	.word	0x00002484
    2498:	0000d03b          	.word	0x0000d03b
    249c:	00450513          	addi	x10,x10,4

# Testcase cr_rs1_imm_edges (rs1 = 0x5bbc8872, imm = 1)
  RVTEST_TESTDATA_LOAD_INT(x23, x16) # load rs1: x16 = 0x5bbc8872
    24a0:	000ba803          	lw	x16,0(x23)
    24a4:	004b8b93          	addi	x23,x23,4

000024a8 <I_andi_cg_cr_rs1_imm_edges_rs1val_0x5bbc8872_immval_0x1>:
I_andi_cg_cr_rs1_imm_edges_rs1val_0x5bbc8872_immval_0x1:
  andi x29, x16, 1 # perform operation
    24a8:	00187e93          	andi	x29,x16,1
  # Check if x29 contains the expected result. x10 is the signature ptr, x5 is the link ptr, x4 is a temp reg.
  RVTEST_SIGUPD(x10, x5, x4, x29, I_andi_cg_cr_rs1_imm_edges_rs1val_0x5bbc8872_immval_0x1, I_andi_cg_cr_rs1_imm_edges_rs1val_0x5bbc8872_immval_0x1_str)
    24ac:	00052203          	lw	x4,0(x10)
    24b0:	01d20863          	beq	x4,x29,24c0 <I_andi_cg_cr_rs1_imm_edges_rs1val_0x5bbc8872_immval_0x1+0x18>
    24b4:	008012ef          	jal	x5,34bc <failedtest_x5_x4>
    24b8:	000024a8          	.word	0x000024a8
    24bc:	0000d090          	.word	0x0000d090
    24c0:	00450513          	addi	x10,x10,4

# Testcase cr_rs1_imm_edges (rs1 = 0x5bbc8872, imm = 2)
  RVTEST_TESTDATA_LOAD_INT(x23, x7) # load rs1: x7 = 0x5bbc8872
    24c4:	000ba383          	lw	x7,0(x23)
    24c8:	004b8b93          	addi	x23,x23,4

000024cc <I_andi_cg_cr_rs1_imm_edges_rs1val_0x5bbc8872_immval_0x2>:
I_andi_cg_cr_rs1_imm_edges_rs1val_0x5bbc8872_immval_0x2:
  andi x14, x7, 2 # perform operation
    24cc:	0023f713          	andi	x14,x7,2
  # Check if x14 contains the expected result. x10 is the signature ptr, x5 is the link ptr, x4 is a temp reg.
  RVTEST_SIGUPD(x10, x5, x4, x14, I_andi_cg_cr_rs1_imm_edges_rs1val_0x5bbc8872_immval_0x2, I_andi_cg_cr_rs1_imm_edges_rs1val_0x5bbc8872_immval_0x2_str)
    24d0:	00052203          	lw	x4,0(x10)
    24d4:	00e20863          	beq	x4,x14,24e4 <I_andi_cg_cr_rs1_imm_edges_rs1val_0x5bbc8872_immval_0x2+0x18>
    24d8:	7e5002ef          	jal	x5,34bc <failedtest_x5_x4>
    24dc:	000024cc          	.word	0x000024cc
    24e0:	0000d0e5          	.word	0x0000d0e5
    24e4:	00450513          	addi	x10,x10,4

# Testcase cr_rs1_imm_edges (rs1 = 0x5bbc8872, imm = 3)
  RVTEST_TESTDATA_LOAD_INT(x23, x30) # load rs1: x30 = 0x5bbc8872
    24e8:	000baf03          	lw	x30,0(x23)
    24ec:	004b8b93          	addi	x23,x23,4

000024f0 <I_andi_cg_cr_rs1_imm_edges_rs1val_0x5bbc8872_immval_0x3>:
I_andi_cg_cr_rs1_imm_edges_rs1val_0x5bbc8872_immval_0x3:
  andi x31, x30, 3 # perform operation
    24f0:	003f7f93          	andi	x31,x30,3
  # Check if x31 contains the expected result. x10 is the signature ptr, x5 is the link ptr, x4 is a temp reg.
  RVTEST_SIGUPD(x10, x5, x4, x31, I_andi_cg_cr_rs1_imm_edges_rs1val_0x5bbc8872_immval_0x3, I_andi_cg_cr_rs1_imm_edges_rs1val_0x5bbc8872_immval_0x3_str)
    24f4:	00052203          	lw	x4,0(x10)
    24f8:	01f20863          	beq	x4,x31,2508 <I_andi_cg_cr_rs1_imm_edges_rs1val_0x5bbc8872_immval_0x3+0x18>
    24fc:	7c1002ef          	jal	x5,34bc <failedtest_x5_x4>
    2500:	000024f0          	.word	0x000024f0
    2504:	0000d13a          	.word	0x0000d13a
    2508:	00450513          	addi	x10,x10,4

# Testcase cr_rs1_imm_edges (rs1 = 0x5bbc8872, imm = 4)
  RVTEST_TESTDATA_LOAD_INT(x23, x29) # load rs1: x29 = 0x5bbc8872
    250c:	000bae83          	lw	x29,0(x23)
    2510:	004b8b93          	addi	x23,x23,4

00002514 <I_andi_cg_cr_rs1_imm_edges_rs1val_0x5bbc8872_immval_0x4>:
I_andi_cg_cr_rs1_imm_edges_rs1val_0x5bbc8872_immval_0x4:
  andi x17, x29, 4 # perform operation
    2514:	004ef893          	andi	x17,x29,4
  # Check if x17 contains the expected result. x10 is the signature ptr, x5 is the link ptr, x4 is a temp reg.
  RVTEST_SIGUPD(x10, x5, x4, x17, I_andi_cg_cr_rs1_imm_edges_rs1val_0x5bbc8872_immval_0x4, I_andi_cg_cr_rs1_imm_edges_rs1val_0x5bbc8872_immval_0x4_str)
    2518:	00052203          	lw	x4,0(x10)
    251c:	01120863          	beq	x4,x17,252c <I_andi_cg_cr_rs1_imm_edges_rs1val_0x5bbc8872_immval_0x4+0x18>
    2520:	79d002ef          	jal	x5,34bc <failedtest_x5_x4>
    2524:	00002514          	.word	0x00002514
    2528:	0000d18f          	.word	0x0000d18f
    252c:	00450513          	addi	x10,x10,4

# Testcase cr_rs1_imm_edges (rs1 = 0x5bbc8872, imm = 8)
  RVTEST_TESTDATA_LOAD_INT(x23, x29) # load rs1: x29 = 0x5bbc8872
    2530:	000bae83          	lw	x29,0(x23)
    2534:	004b8b93          	addi	x23,x23,4

00002538 <I_andi_cg_cr_rs1_imm_edges_rs1val_0x5bbc8872_immval_0x8>:
I_andi_cg_cr_rs1_imm_edges_rs1val_0x5bbc8872_immval_0x8:
  andi x27, x29, 8 # perform operation
    2538:	008efd93          	andi	x27,x29,8
  # Check if x27 contains the expected result. x10 is the signature ptr, x5 is the link ptr, x4 is a temp reg.
  RVTEST_SIGUPD(x10, x5, x4, x27, I_andi_cg_cr_rs1_imm_edges_rs1val_0x5bbc8872_immval_0x8, I_andi_cg_cr_rs1_imm_edges_rs1val_0x5bbc8872_immval_0x8_str)
    253c:	00052203          	lw	x4,0(x10)
    2540:	01b20863          	beq	x4,x27,2550 <I_andi_cg_cr_rs1_imm_edges_rs1val_0x5bbc8872_immval_0x8+0x18>
    2544:	779002ef          	jal	x5,34bc <failedtest_x5_x4>
    2548:	00002538          	.word	0x00002538
    254c:	0000d1e4          	.word	0x0000d1e4
    2550:	00450513          	addi	x10,x10,4

# Testcase cr_rs1_imm_edges (rs1 = 0x5bbc8872, imm = 16)
  RVTEST_TESTDATA_LOAD_INT(x23, x2) # load rs1: x2 = 0x5bbc8872
    2554:	000ba103          	lw	x2,0(x23)
    2558:	004b8b93          	addi	x23,x23,4

0000255c <I_andi_cg_cr_rs1_imm_edges_rs1val_0x5bbc8872_immval_0x10>:
I_andi_cg_cr_rs1_imm_edges_rs1val_0x5bbc8872_immval_0x10:
  andi x30, x2, 16 # perform operation
    255c:	01017f13          	andi	x30,x2,16
  # Check if x30 contains the expected result. x10 is the signature ptr, x5 is the link ptr, x4 is a temp reg.
  RVTEST_SIGUPD(x10, x5, x4, x30, I_andi_cg_cr_rs1_imm_edges_rs1val_0x5bbc8872_immval_0x10, I_andi_cg_cr_rs1_imm_edges_rs1val_0x5bbc8872_immval_0x10_str)
    2560:	00052203          	lw	x4,0(x10)
    2564:	01e20863          	beq	x4,x30,2574 <I_andi_cg_cr_rs1_imm_edges_rs1val_0x5bbc8872_immval_0x10+0x18>
    2568:	755002ef          	jal	x5,34bc <failedtest_x5_x4>
    256c:	0000255c          	.word	0x0000255c
    2570:	0000d239          	.word	0x0000d239
    2574:	00450513          	addi	x10,x10,4

# Testcase cr_rs1_imm_edges (rs1 = 0x5bbc8872, imm = 32)
  RVTEST_TESTDATA_LOAD_INT(x23, x30) # load rs1: x30 = 0x5bbc8872
    2578:	000baf03          	lw	x30,0(x23)
    257c:	004b8b93          	addi	x23,x23,4

00002580 <I_andi_cg_cr_rs1_imm_edges_rs1val_0x5bbc8872_immval_0x20>:
I_andi_cg_cr_rs1_imm_edges_rs1val_0x5bbc8872_immval_0x20:
  andi x29, x30, 32 # perform operation
    2580:	020f7e93          	andi	x29,x30,32
  # Check if x29 contains the expected result. x10 is the signature ptr, x5 is the link ptr, x4 is a temp reg.
  RVTEST_SIGUPD(x10, x5, x4, x29, I_andi_cg_cr_rs1_imm_edges_rs1val_0x5bbc8872_immval_0x20, I_andi_cg_cr_rs1_imm_edges_rs1val_0x5bbc8872_immval_0x20_str)
    2584:	00052203          	lw	x4,0(x10)
    2588:	01d20863          	beq	x4,x29,2598 <I_andi_cg_cr_rs1_imm_edges_rs1val_0x5bbc8872_immval_0x20+0x18>
    258c:	731002ef          	jal	x5,34bc <failedtest_x5_x4>
    2590:	00002580          	.word	0x00002580
    2594:	0000d28f          	.word	0x0000d28f
    2598:	00450513          	addi	x10,x10,4

# Testcase cr_rs1_imm_edges (rs1 = 0x5bbc8872, imm = 64)
  RVTEST_TESTDATA_LOAD_INT(x23, x27) # load rs1: x27 = 0x5bbc8872
    259c:	000bad83          	lw	x27,0(x23)
    25a0:	004b8b93          	addi	x23,x23,4

000025a4 <I_andi_cg_cr_rs1_imm_edges_rs1val_0x5bbc8872_immval_0x40>:
I_andi_cg_cr_rs1_imm_edges_rs1val_0x5bbc8872_immval_0x40:
  andi x28, x27, 64 # perform operation
    25a4:	040dfe13          	andi	x28,x27,64
  # Check if x28 contains the expected result. x10 is the signature ptr, x5 is the link ptr, x4 is a temp reg.
  RVTEST_SIGUPD(x10, x5, x4, x28, I_andi_cg_cr_rs1_imm_edges_rs1val_0x5bbc8872_immval_0x40, I_andi_cg_cr_rs1_imm_edges_rs1val_0x5bbc8872_immval_0x40_str)
    25a8:	00052203          	lw	x4,0(x10)
    25ac:	01c20863          	beq	x4,x28,25bc <I_andi_cg_cr_rs1_imm_edges_rs1val_0x5bbc8872_immval_0x40+0x18>
    25b0:	70d002ef          	jal	x5,34bc <failedtest_x5_x4>
    25b4:	000025a4          	.word	0x000025a4
    25b8:	0000d2e5          	.word	0x0000d2e5
    25bc:	00450513          	addi	x10,x10,4

# Testcase cr_rs1_imm_edges (rs1 = 0x5bbc8872, imm = 128)
  RVTEST_TESTDATA_LOAD_INT(x23, x17) # load rs1: x17 = 0x5bbc8872
    25c0:	000ba883          	lw	x17,0(x23)
    25c4:	004b8b93          	addi	x23,x23,4

000025c8 <I_andi_cg_cr_rs1_imm_edges_rs1val_0x5bbc8872_immval_0x80>:
I_andi_cg_cr_rs1_imm_edges_rs1val_0x5bbc8872_immval_0x80:
  andi x2, x17, 128 # perform operation
    25c8:	0808f113          	andi	x2,x17,128
  # Check if x2 contains the expected result. x10 is the signature ptr, x5 is the link ptr, x4 is a temp reg.
  RVTEST_SIGUPD(x10, x5, x4, x2, I_andi_cg_cr_rs1_imm_edges_rs1val_0x5bbc8872_immval_0x80, I_andi_cg_cr_rs1_imm_edges_rs1val_0x5bbc8872_immval_0x80_str)
    25cc:	00052203          	lw	x4,0(x10)
    25d0:	00220863          	beq	x4,x2,25e0 <I_andi_cg_cr_rs1_imm_edges_rs1val_0x5bbc8872_immval_0x80+0x18>
    25d4:	6e9002ef          	jal	x5,34bc <failedtest_x5_x4>
    25d8:	000025c8          	.word	0x000025c8
    25dc:	0000d33b          	.word	0x0000d33b
    25e0:	00450513          	addi	x10,x10,4

# Testcase cr_rs1_imm_edges (rs1 = 0x5bbc8872, imm = 256)
  RVTEST_TESTDATA_LOAD_INT(x23, x12) # load rs1: x12 = 0x5bbc8872
    25e4:	000ba603          	lw	x12,0(x23)
    25e8:	004b8b93          	addi	x23,x23,4

000025ec <I_andi_cg_cr_rs1_imm_edges_rs1val_0x5bbc8872_immval_0x100>:
I_andi_cg_cr_rs1_imm_edges_rs1val_0x5bbc8872_immval_0x100:
  andi x22, x12, 256 # perform operation
    25ec:	10067b13          	andi	x22,x12,256
  # Check if x22 contains the expected result. x10 is the signature ptr, x5 is the link ptr, x4 is a temp reg.
  RVTEST_SIGUPD(x10, x5, x4, x22, I_andi_cg_cr_rs1_imm_edges_rs1val_0x5bbc8872_immval_0x100, I_andi_cg_cr_rs1_imm_edges_rs1val_0x5bbc8872_immval_0x100_str)
    25f0:	00052203          	lw	x4,0(x10)
    25f4:	01620863          	beq	x4,x22,2604 <I_andi_cg_cr_rs1_imm_edges_rs1val_0x5bbc8872_immval_0x100+0x18>
    25f8:	6c5002ef          	jal	x5,34bc <failedtest_x5_x4>
    25fc:	000025ec          	.word	0x000025ec
    2600:	0000d391          	.word	0x0000d391
    2604:	00450513          	addi	x10,x10,4

# Testcase cr_rs1_imm_edges (rs1 = 0x5bbc8872, imm = 512)
  RVTEST_TESTDATA_LOAD_INT(x23, x15) # load rs1: x15 = 0x5bbc8872
    2608:	000ba783          	lw	x15,0(x23)
    260c:	004b8b93          	addi	x23,x23,4

00002610 <I_andi_cg_cr_rs1_imm_edges_rs1val_0x5bbc8872_immval_0x200>:
I_andi_cg_cr_rs1_imm_edges_rs1val_0x5bbc8872_immval_0x200:
  andi x31, x15, 512 # perform operation
    2610:	2007ff93          	andi	x31,x15,512
  # Check if x31 contains the expected result. x10 is the signature ptr, x5 is the link ptr, x4 is a temp reg.
  RVTEST_SIGUPD(x10, x5, x4, x31, I_andi_cg_cr_rs1_imm_edges_rs1val_0x5bbc8872_immval_0x200, I_andi_cg_cr_rs1_imm_edges_rs1val_0x5bbc8872_immval_0x200_str)
    2614:	00052203          	lw	x4,0(x10)
    2618:	01f20863          	beq	x4,x31,2628 <I_andi_cg_cr_rs1_imm_edges_rs1val_0x5bbc8872_immval_0x200+0x18>
    261c:	6a1002ef          	jal	x5,34bc <failedtest_x5_x4>
    2620:	00002610          	.word	0x00002610
    2624:	0000d3e8          	.word	0x0000d3e8
    2628:	00450513          	addi	x10,x10,4

# Testcase cr_rs1_imm_edges (rs1 = 0x5bbc8872, imm = 1023)
  RVTEST_TESTDATA_LOAD_INT(x23, x17) # load rs1: x17 = 0x5bbc8872
    262c:	000ba883          	lw	x17,0(x23)
    2630:	004b8b93          	addi	x23,x23,4

00002634 <I_andi_cg_cr_rs1_imm_edges_rs1val_0x5bbc8872_immval_0x3ff>:
I_andi_cg_cr_rs1_imm_edges_rs1val_0x5bbc8872_immval_0x3ff:
  andi x2, x17, 1023 # perform operation
    2634:	3ff8f113          	andi	x2,x17,1023
  # Check if x2 contains the expected result. x10 is the signature ptr, x5 is the link ptr, x4 is a temp reg.
  RVTEST_SIGUPD(x10, x5, x4, x2, I_andi_cg_cr_rs1_imm_edges_rs1val_0x5bbc8872_immval_0x3ff, I_andi_cg_cr_rs1_imm_edges_rs1val_0x5bbc8872_immval_0x3ff_str)
    2638:	00052203          	lw	x4,0(x10)
    263c:	00220863          	beq	x4,x2,264c <I_andi_cg_cr_rs1_imm_edges_rs1val_0x5bbc8872_immval_0x3ff+0x18>
    2640:	67d002ef          	jal	x5,34bc <failedtest_x5_x4>
    2644:	00002634          	.word	0x00002634
    2648:	0000d43f          	.word	0x0000d43f
    264c:	00450513          	addi	x10,x10,4

# Testcase cr_rs1_imm_edges (rs1 = 0x5bbc8872, imm = 1024)
  RVTEST_TESTDATA_LOAD_INT(x23, x12) # load rs1: x12 = 0x5bbc8872
    2650:	000ba603          	lw	x12,0(x23)
    2654:	004b8b93          	addi	x23,x23,4

00002658 <I_andi_cg_cr_rs1_imm_edges_rs1val_0x5bbc8872_immval_0x400>:
I_andi_cg_cr_rs1_imm_edges_rs1val_0x5bbc8872_immval_0x400:
  andi x1, x12, 1024 # perform operation
    2658:	40067093          	andi	x1,x12,1024
  # Check if x1 contains the expected result. x10 is the signature ptr, x5 is the link ptr, x4 is a temp reg.
  RVTEST_SIGUPD(x10, x5, x4, x1, I_andi_cg_cr_rs1_imm_edges_rs1val_0x5bbc8872_immval_0x400, I_andi_cg_cr_rs1_imm_edges_rs1val_0x5bbc8872_immval_0x400_str)
    265c:	00052203          	lw	x4,0(x10)
    2660:	00120863          	beq	x4,x1,2670 <I_andi_cg_cr_rs1_imm_edges_rs1val_0x5bbc8872_immval_0x400+0x18>
    2664:	659002ef          	jal	x5,34bc <failedtest_x5_x4>
    2668:	00002658          	.word	0x00002658
    266c:	0000d496          	.word	0x0000d496
    2670:	00450513          	addi	x10,x10,4

# Testcase cr_rs1_imm_edges (rs1 = 0x5bbc8872, imm = 1795)
  RVTEST_TESTDATA_LOAD_INT(x23, x26) # load rs1: x26 = 0x5bbc8872
    2674:	000bad03          	lw	x26,0(x23)
    2678:	004b8b93          	addi	x23,x23,4

0000267c <I_andi_cg_cr_rs1_imm_edges_rs1val_0x5bbc8872_immval_0x703>:
I_andi_cg_cr_rs1_imm_edges_rs1val_0x5bbc8872_immval_0x703:
  andi x11, x26, 1795 # perform operation
    267c:	703d7593          	andi	x11,x26,1795
  # Check if x11 contains the expected result. x10 is the signature ptr, x5 is the link ptr, x4 is a temp reg.
  RVTEST_SIGUPD(x10, x5, x4, x11, I_andi_cg_cr_rs1_imm_edges_rs1val_0x5bbc8872_immval_0x703, I_andi_cg_cr_rs1_imm_edges_rs1val_0x5bbc8872_immval_0x703_str)
    2680:	00052203          	lw	x4,0(x10)
    2684:	00b20863          	beq	x4,x11,2694 <I_andi_cg_cr_rs1_imm_edges_rs1val_0x5bbc8872_immval_0x703+0x18>
    2688:	635002ef          	jal	x5,34bc <failedtest_x5_x4>
    268c:	0000267c          	.word	0x0000267c
    2690:	0000d4ed          	.word	0x0000d4ed
    2694:	00450513          	addi	x10,x10,4

# Testcase cr_rs1_imm_edges (rs1 = 0x5bbc8872, imm = 2047)
  RVTEST_TESTDATA_LOAD_INT(x23, x29) # load rs1: x29 = 0x5bbc8872
    2698:	000bae83          	lw	x29,0(x23)
    269c:	004b8b93          	addi	x23,x23,4

000026a0 <I_andi_cg_cr_rs1_imm_edges_rs1val_0x5bbc8872_immval_0x7ff>:
I_andi_cg_cr_rs1_imm_edges_rs1val_0x5bbc8872_immval_0x7ff:
  andi x20, x29, 2047 # perform operation
    26a0:	7ffefa13          	andi	x20,x29,2047
  # Check if x20 contains the expected result. x10 is the signature ptr, x5 is the link ptr, x4 is a temp reg.
  RVTEST_SIGUPD(x10, x5, x4, x20, I_andi_cg_cr_rs1_imm_edges_rs1val_0x5bbc8872_immval_0x7ff, I_andi_cg_cr_rs1_imm_edges_rs1val_0x5bbc8872_immval_0x7ff_str)
    26a4:	00052203          	lw	x4,0(x10)
    26a8:	01420863          	beq	x4,x20,26b8 <I_andi_cg_cr_rs1_imm_edges_rs1val_0x5bbc8872_immval_0x7ff+0x18>
    26ac:	611002ef          	jal	x5,34bc <failedtest_x5_x4>
    26b0:	000026a0          	.word	0x000026a0
    26b4:	0000d544          	.word	0x0000d544
    26b8:	00450513          	addi	x10,x10,4

# Testcase cr_rs1_imm_edges (rs1 = 0x5bbc8872, imm = -2048)
  RVTEST_TESTDATA_LOAD_INT(x23, x18) # load rs1: x18 = 0x5bbc8872
    26bc:	000ba903          	lw	x18,0(x23)
    26c0:	004b8b93          	addi	x23,x23,4

000026c4 <I_andi_cg_cr_rs1_imm_edges_rs1val_0x5bbc8872_immval_m0x800>:
I_andi_cg_cr_rs1_imm_edges_rs1val_0x5bbc8872_immval_m0x800:
  andi x25, x18, -2048 # perform operation
    26c4:	80097c93          	andi	x25,x18,-2048
  # Check if x25 contains the expected result. x10 is the signature ptr, x5 is the link ptr, x4 is a temp reg.
  RVTEST_SIGUPD(x10, x5, x4, x25, I_andi_cg_cr_rs1_imm_edges_rs1val_0x5bbc8872_immval_m0x800, I_andi_cg_cr_rs1_imm_edges_rs1val_0x5bbc8872_immval_m0x800_str)
    26c8:	00052203          	lw	x4,0(x10)
    26cc:	01920863          	beq	x4,x25,26dc <I_andi_cg_cr_rs1_imm_edges_rs1val_0x5bbc8872_immval_m0x800+0x18>
    26d0:	5ed002ef          	jal	x5,34bc <failedtest_x5_x4>
    26d4:	000026c4          	.word	0x000026c4
    26d8:	0000d59b          	.word	0x0000d59b
    26dc:	00450513          	addi	x10,x10,4

# Testcase cr_rs1_imm_edges (rs1 = 0x5bbc8872, imm = -2047)
  RVTEST_TESTDATA_LOAD_INT(x23, x12) # load rs1: x12 = 0x5bbc8872
    26e0:	000ba603          	lw	x12,0(x23)
    26e4:	004b8b93          	addi	x23,x23,4

000026e8 <I_andi_cg_cr_rs1_imm_edges_rs1val_0x5bbc8872_immval_m0x7ff>:
I_andi_cg_cr_rs1_imm_edges_rs1val_0x5bbc8872_immval_m0x7ff:
  andi x30, x12, -2047 # perform operation
    26e8:	80167f13          	andi	x30,x12,-2047
  # Check if x30 contains the expected result. x10 is the signature ptr, x5 is the link ptr, x4 is a temp reg.
  RVTEST_SIGUPD(x10, x5, x4, x30, I_andi_cg_cr_rs1_imm_edges_rs1val_0x5bbc8872_immval_m0x7ff, I_andi_cg_cr_rs1_imm_edges_rs1val_0x5bbc8872_immval_m0x7ff_str)
    26ec:	00052203          	lw	x4,0(x10)
    26f0:	01e20863          	beq	x4,x30,2700 <I_andi_cg_cr_rs1_imm_edges_rs1val_0x5bbc8872_immval_m0x7ff+0x18>
    26f4:	5c9002ef          	jal	x5,34bc <failedtest_x5_x4>
    26f8:	000026e8          	.word	0x000026e8
    26fc:	0000d5f3          	.word	0x0000d5f3
    2700:	00450513          	addi	x10,x10,4

# Testcase cr_rs1_imm_edges (rs1 = 0x5bbc8872, imm = -2)
  RVTEST_TESTDATA_LOAD_INT(x23, x14) # load rs1: x14 = 0x5bbc8872
    2704:	000ba703          	lw	x14,0(x23)
    2708:	004b8b93          	addi	x23,x23,4

0000270c <I_andi_cg_cr_rs1_imm_edges_rs1val_0x5bbc8872_immval_m0x2>:
I_andi_cg_cr_rs1_imm_edges_rs1val_0x5bbc8872_immval_m0x2:
  andi x24, x14, -2 # perform operation
    270c:	ffe77c13          	andi	x24,x14,-2
  # Check if x24 contains the expected result. x10 is the signature ptr, x5 is the link ptr, x4 is a temp reg.
  RVTEST_SIGUPD(x10, x5, x4, x24, I_andi_cg_cr_rs1_imm_edges_rs1val_0x5bbc8872_immval_m0x2, I_andi_cg_cr_rs1_imm_edges_rs1val_0x5bbc8872_immval_m0x2_str)
    2710:	00052203          	lw	x4,0(x10)
    2714:	01820863          	beq	x4,x24,2724 <I_andi_cg_cr_rs1_imm_edges_rs1val_0x5bbc8872_immval_m0x2+0x18>
    2718:	5a5002ef          	jal	x5,34bc <failedtest_x5_x4>
    271c:	0000270c          	.word	0x0000270c
    2720:	0000d64b          	.word	0x0000d64b
    2724:	00450513          	addi	x10,x10,4

# Testcase cr_rs1_imm_edges (rs1 = 0x5bbc8872, imm = -1)
  RVTEST_TESTDATA_LOAD_INT(x23, x8) # load rs1: x8 = 0x5bbc8872
    2728:	000ba403          	lw	x8,0(x23)
    272c:	004b8b93          	addi	x23,x23,4

00002730 <I_andi_cg_cr_rs1_imm_edges_rs1val_0x5bbc8872_immval_m0x1>:
I_andi_cg_cr_rs1_imm_edges_rs1val_0x5bbc8872_immval_m0x1:
  andi x22, x8, -1 # perform operation
    2730:	fff47b13          	andi	x22,x8,-1
  # Check if x22 contains the expected result. x10 is the signature ptr, x5 is the link ptr, x4 is a temp reg.
  RVTEST_SIGUPD(x10, x5, x4, x22, I_andi_cg_cr_rs1_imm_edges_rs1val_0x5bbc8872_immval_m0x1, I_andi_cg_cr_rs1_imm_edges_rs1val_0x5bbc8872_immval_m0x1_str)
    2734:	00052203          	lw	x4,0(x10)
    2738:	01620863          	beq	x4,x22,2748 <I_andi_cg_cr_rs1_imm_edges_rs1val_0x5bbc8872_immval_m0x1+0x18>
    273c:	581002ef          	jal	x5,34bc <failedtest_x5_x4>
    2740:	00002730          	.word	0x00002730
    2744:	0000d6a1          	.word	0x0000d6a1
    2748:	00450513          	addi	x10,x10,4

# Testcase cr_rs1_imm_edges (rs1 = 0xaaaaaaaa, imm = 0)
  RVTEST_TESTDATA_LOAD_INT(x23, x7) # load rs1: x7 = 0xaaaaaaaa
    274c:	000ba383          	lw	x7,0(x23)
    2750:	004b8b93          	addi	x23,x23,4

00002754 <I_andi_cg_cr_rs1_imm_edges_rs1val_0xaaaaaaaa_immval_0x0>:
I_andi_cg_cr_rs1_imm_edges_rs1val_0xaaaaaaaa_immval_0x0:
  andi x14, x7, 0 # perform operation
    2754:	0003f713          	andi	x14,x7,0
  # Check if x14 contains the expected result. x10 is the signature ptr, x5 is the link ptr, x4 is a temp reg.
  RVTEST_SIGUPD(x10, x5, x4, x14, I_andi_cg_cr_rs1_imm_edges_rs1val_0xaaaaaaaa_immval_0x0, I_andi_cg_cr_rs1_imm_edges_rs1val_0xaaaaaaaa_immval_0x0_str)
    2758:	00052203          	lw	x4,0(x10)
    275c:	00e20863          	beq	x4,x14,276c <I_andi_cg_cr_rs1_imm_edges_rs1val_0xaaaaaaaa_immval_0x0+0x18>
    2760:	55d002ef          	jal	x5,34bc <failedtest_x5_x4>
    2764:	00002754          	.word	0x00002754
    2768:	0000d6f7          	.word	0x0000d6f7
    276c:	00450513          	addi	x10,x10,4

# Testcase cr_rs1_imm_edges (rs1 = 0xaaaaaaaa, imm = 1)
  RVTEST_TESTDATA_LOAD_INT(x23, x28) # load rs1: x28 = 0xaaaaaaaa
    2770:	000bae03          	lw	x28,0(x23)
    2774:	004b8b93          	addi	x23,x23,4

00002778 <I_andi_cg_cr_rs1_imm_edges_rs1val_0xaaaaaaaa_immval_0x1>:
I_andi_cg_cr_rs1_imm_edges_rs1val_0xaaaaaaaa_immval_0x1:
  andi x30, x28, 1 # perform operation
    2778:	001e7f13          	andi	x30,x28,1
  # Check if x30 contains the expected result. x10 is the signature ptr, x5 is the link ptr, x4 is a temp reg.
  RVTEST_SIGUPD(x10, x5, x4, x30, I_andi_cg_cr_rs1_imm_edges_rs1val_0xaaaaaaaa_immval_0x1, I_andi_cg_cr_rs1_imm_edges_rs1val_0xaaaaaaaa_immval_0x1_str)
    277c:	00052203          	lw	x4,0(x10)
    2780:	01e20863          	beq	x4,x30,2790 <I_andi_cg_cr_rs1_imm_edges_rs1val_0xaaaaaaaa_immval_0x1+0x18>
    2784:	539002ef          	jal	x5,34bc <failedtest_x5_x4>
    2788:	00002778          	.word	0x00002778
    278c:	0000d74c          	.word	0x0000d74c
    2790:	00450513          	addi	x10,x10,4

# Testcase cr_rs1_imm_edges (rs1 = 0xaaaaaaaa, imm = 2)
  RVTEST_TESTDATA_LOAD_INT(x23, x15) # load rs1: x15 = 0xaaaaaaaa
    2794:	000ba783          	lw	x15,0(x23)
    2798:	004b8b93          	addi	x23,x23,4

0000279c <I_andi_cg_cr_rs1_imm_edges_rs1val_0xaaaaaaaa_immval_0x2>:
I_andi_cg_cr_rs1_imm_edges_rs1val_0xaaaaaaaa_immval_0x2:
  andi x22, x15, 2 # perform operation
    279c:	0027fb13          	andi	x22,x15,2
  # Check if x22 contains the expected result. x10 is the signature ptr, x5 is the link ptr, x4 is a temp reg.
  RVTEST_SIGUPD(x10, x5, x4, x22, I_andi_cg_cr_rs1_imm_edges_rs1val_0xaaaaaaaa_immval_0x2, I_andi_cg_cr_rs1_imm_edges_rs1val_0xaaaaaaaa_immval_0x2_str)
    27a0:	00052203          	lw	x4,0(x10)
    27a4:	01620863          	beq	x4,x22,27b4 <I_andi_cg_cr_rs1_imm_edges_rs1val_0xaaaaaaaa_immval_0x2+0x18>
    27a8:	515002ef          	jal	x5,34bc <failedtest_x5_x4>
    27ac:	0000279c          	.word	0x0000279c
    27b0:	0000d7a1          	.word	0x0000d7a1
    27b4:	00450513          	addi	x10,x10,4

# Testcase cr_rs1_imm_edges (rs1 = 0xaaaaaaaa, imm = 3)
  RVTEST_TESTDATA_LOAD_INT(x23, x1) # load rs1: x1 = 0xaaaaaaaa
    27b8:	000ba083          	lw	x1,0(x23)
    27bc:	004b8b93          	addi	x23,x23,4

000027c0 <I_andi_cg_cr_rs1_imm_edges_rs1val_0xaaaaaaaa_immval_0x3>:
I_andi_cg_cr_rs1_imm_edges_rs1val_0xaaaaaaaa_immval_0x3:
  andi x25, x1, 3 # perform operation
    27c0:	0030fc93          	andi	x25,x1,3
  # Check if x25 contains the expected result. x10 is the signature ptr, x5 is the link ptr, x4 is a temp reg.
  RVTEST_SIGUPD(x10, x5, x4, x25, I_andi_cg_cr_rs1_imm_edges_rs1val_0xaaaaaaaa_immval_0x3, I_andi_cg_cr_rs1_imm_edges_rs1val_0xaaaaaaaa_immval_0x3_str)
    27c4:	00052203          	lw	x4,0(x10)
    27c8:	01920863          	beq	x4,x25,27d8 <I_andi_cg_cr_rs1_imm_edges_rs1val_0xaaaaaaaa_immval_0x3+0x18>
    27cc:	4f1002ef          	jal	x5,34bc <failedtest_x5_x4>
    27d0:	000027c0          	.word	0x000027c0
    27d4:	0000d7f6          	.word	0x0000d7f6
    27d8:	00450513          	addi	x10,x10,4

# Testcase cr_rs1_imm_edges (rs1 = 0xaaaaaaaa, imm = 4)
  RVTEST_TESTDATA_LOAD_INT(x23, x15) # load rs1: x15 = 0xaaaaaaaa
    27dc:	000ba783          	lw	x15,0(x23)
    27e0:	004b8b93          	addi	x23,x23,4

000027e4 <I_andi_cg_cr_rs1_imm_edges_rs1val_0xaaaaaaaa_immval_0x4>:
I_andi_cg_cr_rs1_imm_edges_rs1val_0xaaaaaaaa_immval_0x4:
  andi x1, x15, 4 # perform operation
    27e4:	0047f093          	andi	x1,x15,4
  # Check if x1 contains the expected result. x10 is the signature ptr, x5 is the link ptr, x4 is a temp reg.
  RVTEST_SIGUPD(x10, x5, x4, x1, I_andi_cg_cr_rs1_imm_edges_rs1val_0xaaaaaaaa_immval_0x4, I_andi_cg_cr_rs1_imm_edges_rs1val_0xaaaaaaaa_immval_0x4_str)
    27e8:	00052203          	lw	x4,0(x10)
    27ec:	00120863          	beq	x4,x1,27fc <I_andi_cg_cr_rs1_imm_edges_rs1val_0xaaaaaaaa_immval_0x4+0x18>
    27f0:	4cd002ef          	jal	x5,34bc <failedtest_x5_x4>
    27f4:	000027e4          	.word	0x000027e4
    27f8:	0000d84b          	.word	0x0000d84b
    27fc:	00450513          	addi	x10,x10,4

# Testcase cr_rs1_imm_edges (rs1 = 0xaaaaaaaa, imm = 8)
  RVTEST_TESTDATA_LOAD_INT(x23, x19) # load rs1: x19 = 0xaaaaaaaa
    2800:	000ba983          	lw	x19,0(x23)
    2804:	004b8b93          	addi	x23,x23,4

00002808 <I_andi_cg_cr_rs1_imm_edges_rs1val_0xaaaaaaaa_immval_0x8>:
I_andi_cg_cr_rs1_imm_edges_rs1val_0xaaaaaaaa_immval_0x8:
  andi x6, x19, 8 # perform operation
    2808:	0089f313          	andi	x6,x19,8
  # Check if x6 contains the expected result. x10 is the signature ptr, x5 is the link ptr, x4 is a temp reg.
  RVTEST_SIGUPD(x10, x5, x4, x6, I_andi_cg_cr_rs1_imm_edges_rs1val_0xaaaaaaaa_immval_0x8, I_andi_cg_cr_rs1_imm_edges_rs1val_0xaaaaaaaa_immval_0x8_str)
    280c:	00052203          	lw	x4,0(x10)
    2810:	00620863          	beq	x4,x6,2820 <I_andi_cg_cr_rs1_imm_edges_rs1val_0xaaaaaaaa_immval_0x8+0x18>
    2814:	4a9002ef          	jal	x5,34bc <failedtest_x5_x4>
    2818:	00002808          	.word	0x00002808
    281c:	0000d8a0          	.word	0x0000d8a0
    2820:	00450513          	addi	x10,x10,4

# Testcase cr_rs1_imm_edges (rs1 = 0xaaaaaaaa, imm = 16)
  RVTEST_TESTDATA_LOAD_INT(x23, x26) # load rs1: x26 = 0xaaaaaaaa
    2824:	000bad03          	lw	x26,0(x23)
    2828:	004b8b93          	addi	x23,x23,4

0000282c <I_andi_cg_cr_rs1_imm_edges_rs1val_0xaaaaaaaa_immval_0x10>:
I_andi_cg_cr_rs1_imm_edges_rs1val_0xaaaaaaaa_immval_0x10:
  andi x8, x26, 16 # perform operation
    282c:	010d7413          	andi	x8,x26,16
  # Check if x8 contains the expected result. x10 is the signature ptr, x5 is the link ptr, x4 is a temp reg.
  RVTEST_SIGUPD(x10, x5, x4, x8, I_andi_cg_cr_rs1_imm_edges_rs1val_0xaaaaaaaa_immval_0x10, I_andi_cg_cr_rs1_imm_edges_rs1val_0xaaaaaaaa_immval_0x10_str)
    2830:	00052203          	lw	x4,0(x10)
    2834:	00820863          	beq	x4,x8,2844 <I_andi_cg_cr_rs1_imm_edges_rs1val_0xaaaaaaaa_immval_0x10+0x18>
    2838:	485002ef          	jal	x5,34bc <failedtest_x5_x4>
    283c:	0000282c          	.word	0x0000282c
    2840:	0000d8f5          	.word	0x0000d8f5
    2844:	00450513          	addi	x10,x10,4

# Testcase cr_rs1_imm_edges (rs1 = 0xaaaaaaaa, imm = 32)
  RVTEST_TESTDATA_LOAD_INT(x23, x19) # load rs1: x19 = 0xaaaaaaaa
    2848:	000ba983          	lw	x19,0(x23)
    284c:	004b8b93          	addi	x23,x23,4

00002850 <I_andi_cg_cr_rs1_imm_edges_rs1val_0xaaaaaaaa_immval_0x20>:
I_andi_cg_cr_rs1_imm_edges_rs1val_0xaaaaaaaa_immval_0x20:
  andi x8, x19, 32 # perform operation
    2850:	0209f413          	andi	x8,x19,32
  # Check if x8 contains the expected result. x10 is the signature ptr, x5 is the link ptr, x4 is a temp reg.
  RVTEST_SIGUPD(x10, x5, x4, x8, I_andi_cg_cr_rs1_imm_edges_rs1val_0xaaaaaaaa_immval_0x20, I_andi_cg_cr_rs1_imm_edges_rs1val_0xaaaaaaaa_immval_0x20_str)
    2854:	00052203          	lw	x4,0(x10)
    2858:	00820863          	beq	x4,x8,2868 <I_andi_cg_cr_rs1_imm_edges_rs1val_0xaaaaaaaa_immval_0x20+0x18>
    285c:	461002ef          	jal	x5,34bc <failedtest_x5_x4>
    2860:	00002850          	.word	0x00002850
    2864:	0000d94b          	.word	0x0000d94b
    2868:	00450513          	addi	x10,x10,4

# Testcase cr_rs1_imm_edges (rs1 = 0xaaaaaaaa, imm = 64)
  RVTEST_TESTDATA_LOAD_INT(x23, x22) # load rs1: x22 = 0xaaaaaaaa
    286c:	000bab03          	lw	x22,0(x23)
    2870:	004b8b93          	addi	x23,x23,4

00002874 <I_andi_cg_cr_rs1_imm_edges_rs1val_0xaaaaaaaa_immval_0x40>:
I_andi_cg_cr_rs1_imm_edges_rs1val_0xaaaaaaaa_immval_0x40:
  andi x1, x22, 64 # perform operation
    2874:	040b7093          	andi	x1,x22,64
  # Check if x1 contains the expected result. x10 is the signature ptr, x5 is the link ptr, x4 is a temp reg.
  RVTEST_SIGUPD(x10, x5, x4, x1, I_andi_cg_cr_rs1_imm_edges_rs1val_0xaaaaaaaa_immval_0x40, I_andi_cg_cr_rs1_imm_edges_rs1val_0xaaaaaaaa_immval_0x40_str)
    2878:	00052203          	lw	x4,0(x10)
    287c:	00120863          	beq	x4,x1,288c <I_andi_cg_cr_rs1_imm_edges_rs1val_0xaaaaaaaa_immval_0x40+0x18>
    2880:	43d002ef          	jal	x5,34bc <failedtest_x5_x4>
    2884:	00002874          	.word	0x00002874
    2888:	0000d9a1          	.word	0x0000d9a1
    288c:	00450513          	addi	x10,x10,4

# Testcase cr_rs1_imm_edges (rs1 = 0xaaaaaaaa, imm = 128)
  RVTEST_TESTDATA_LOAD_INT(x23, x12) # load rs1: x12 = 0xaaaaaaaa
    2890:	000ba603          	lw	x12,0(x23)
    2894:	004b8b93          	addi	x23,x23,4

00002898 <I_andi_cg_cr_rs1_imm_edges_rs1val_0xaaaaaaaa_immval_0x80>:
I_andi_cg_cr_rs1_imm_edges_rs1val_0xaaaaaaaa_immval_0x80:
  andi x3, x12, 128 # perform operation
    2898:	08067193          	andi	x3,x12,128
  # Check if x3 contains the expected result. x10 is the signature ptr, x5 is the link ptr, x4 is a temp reg.
  RVTEST_SIGUPD(x10, x5, x4, x3, I_andi_cg_cr_rs1_imm_edges_rs1val_0xaaaaaaaa_immval_0x80, I_andi_cg_cr_rs1_imm_edges_rs1val_0xaaaaaaaa_immval_0x80_str)
    289c:	00052203          	lw	x4,0(x10)
    28a0:	00320863          	beq	x4,x3,28b0 <I_andi_cg_cr_rs1_imm_edges_rs1val_0xaaaaaaaa_immval_0x80+0x18>
    28a4:	419002ef          	jal	x5,34bc <failedtest_x5_x4>
    28a8:	00002898          	.word	0x00002898
    28ac:	0000d9f7          	.word	0x0000d9f7
    28b0:	00450513          	addi	x10,x10,4

# Testcase cr_rs1_imm_edges (rs1 = 0xaaaaaaaa, imm = 256)
  RVTEST_TESTDATA_LOAD_INT(x23, x27) # load rs1: x27 = 0xaaaaaaaa
    28b4:	000bad83          	lw	x27,0(x23)
    28b8:	004b8b93          	addi	x23,x23,4

000028bc <I_andi_cg_cr_rs1_imm_edges_rs1val_0xaaaaaaaa_immval_0x100>:
I_andi_cg_cr_rs1_imm_edges_rs1val_0xaaaaaaaa_immval_0x100:
  andi x2, x27, 256 # perform operation
    28bc:	100df113          	andi	x2,x27,256
  # Check if x2 contains the expected result. x10 is the signature ptr, x5 is the link ptr, x4 is a temp reg.
  RVTEST_SIGUPD(x10, x5, x4, x2, I_andi_cg_cr_rs1_imm_edges_rs1val_0xaaaaaaaa_immval_0x100, I_andi_cg_cr_rs1_imm_edges_rs1val_0xaaaaaaaa_immval_0x100_str)
    28c0:	00052203          	lw	x4,0(x10)
    28c4:	00220863          	beq	x4,x2,28d4 <I_andi_cg_cr_rs1_imm_edges_rs1val_0xaaaaaaaa_immval_0x100+0x18>
    28c8:	3f5002ef          	jal	x5,34bc <failedtest_x5_x4>
    28cc:	000028bc          	.word	0x000028bc
    28d0:	0000da4d          	.word	0x0000da4d
    28d4:	00450513          	addi	x10,x10,4

# Testcase cr_rs1_imm_edges (rs1 = 0xaaaaaaaa, imm = 512)
  RVTEST_TESTDATA_LOAD_INT(x23, x9) # load rs1: x9 = 0xaaaaaaaa
    28d8:	000ba483          	lw	x9,0(x23)
    28dc:	004b8b93          	addi	x23,x23,4

000028e0 <I_andi_cg_cr_rs1_imm_edges_rs1val_0xaaaaaaaa_immval_0x200>:
I_andi_cg_cr_rs1_imm_edges_rs1val_0xaaaaaaaa_immval_0x200:
  andi x22, x9, 512 # perform operation
    28e0:	2004fb13          	andi	x22,x9,512
  # Check if x22 contains the expected result. x10 is the signature ptr, x5 is the link ptr, x4 is a temp reg.
  RVTEST_SIGUPD(x10, x5, x4, x22, I_andi_cg_cr_rs1_imm_edges_rs1val_0xaaaaaaaa_immval_0x200, I_andi_cg_cr_rs1_imm_edges_rs1val_0xaaaaaaaa_immval_0x200_str)
    28e4:	00052203          	lw	x4,0(x10)
    28e8:	01620863          	beq	x4,x22,28f8 <I_andi_cg_cr_rs1_imm_edges_rs1val_0xaaaaaaaa_immval_0x200+0x18>
    28ec:	3d1002ef          	jal	x5,34bc <failedtest_x5_x4>
    28f0:	000028e0          	.word	0x000028e0
    28f4:	0000daa4          	.word	0x0000daa4
    28f8:	00450513          	addi	x10,x10,4

# Testcase cr_rs1_imm_edges (rs1 = 0xaaaaaaaa, imm = 1023)
  RVTEST_TESTDATA_LOAD_INT(x23, x24) # load rs1: x24 = 0xaaaaaaaa
    28fc:	000bac03          	lw	x24,0(x23)
    2900:	004b8b93          	addi	x23,x23,4

00002904 <I_andi_cg_cr_rs1_imm_edges_rs1val_0xaaaaaaaa_immval_0x3ff>:
I_andi_cg_cr_rs1_imm_edges_rs1val_0xaaaaaaaa_immval_0x3ff:
  andi x9, x24, 1023 # perform operation
    2904:	3ffc7493          	andi	x9,x24,1023
  # Check if x9 contains the expected result. x10 is the signature ptr, x5 is the link ptr, x4 is a temp reg.
  RVTEST_SIGUPD(x10, x5, x4, x9, I_andi_cg_cr_rs1_imm_edges_rs1val_0xaaaaaaaa_immval_0x3ff, I_andi_cg_cr_rs1_imm_edges_rs1val_0xaaaaaaaa_immval_0x3ff_str)
    2908:	00052203          	lw	x4,0(x10)
    290c:	00920863          	beq	x4,x9,291c <I_andi_cg_cr_rs1_imm_edges_rs1val_0xaaaaaaaa_immval_0x3ff+0x18>
    2910:	3ad002ef          	jal	x5,34bc <failedtest_x5_x4>
    2914:	00002904          	.word	0x00002904
    2918:	0000dafb          	.word	0x0000dafb
    291c:	00450513          	addi	x10,x10,4

# Testcase cr_rs1_imm_edges (rs1 = 0xaaaaaaaa, imm = 1024)
  RVTEST_TESTDATA_LOAD_INT(x23, x15) # load rs1: x15 = 0xaaaaaaaa
    2920:	000ba783          	lw	x15,0(x23)
    2924:	004b8b93          	addi	x23,x23,4

00002928 <I_andi_cg_cr_rs1_imm_edges_rs1val_0xaaaaaaaa_immval_0x400>:
I_andi_cg_cr_rs1_imm_edges_rs1val_0xaaaaaaaa_immval_0x400:
  andi x11, x15, 1024 # perform operation
    2928:	4007f593          	andi	x11,x15,1024
  # Check if x11 contains the expected result. x10 is the signature ptr, x5 is the link ptr, x4 is a temp reg.
  RVTEST_SIGUPD(x10, x5, x4, x11, I_andi_cg_cr_rs1_imm_edges_rs1val_0xaaaaaaaa_immval_0x400, I_andi_cg_cr_rs1_imm_edges_rs1val_0xaaaaaaaa_immval_0x400_str)
    292c:	00052203          	lw	x4,0(x10)
    2930:	00b20863          	beq	x4,x11,2940 <I_andi_cg_cr_rs1_imm_edges_rs1val_0xaaaaaaaa_immval_0x400+0x18>
    2934:	389002ef          	jal	x5,34bc <failedtest_x5_x4>
    2938:	00002928          	.word	0x00002928
    293c:	0000db52          	.word	0x0000db52
    2940:	00450513          	addi	x10,x10,4

# Testcase cr_rs1_imm_edges (rs1 = 0xaaaaaaaa, imm = 1795)
  RVTEST_TESTDATA_LOAD_INT(x23, x7) # load rs1: x7 = 0xaaaaaaaa
    2944:	000ba383          	lw	x7,0(x23)
    2948:	004b8b93          	addi	x23,x23,4

0000294c <I_andi_cg_cr_rs1_imm_edges_rs1val_0xaaaaaaaa_immval_0x703>:
I_andi_cg_cr_rs1_imm_edges_rs1val_0xaaaaaaaa_immval_0x703:
  andi x2, x7, 1795 # perform operation
    294c:	7033f113          	andi	x2,x7,1795
  # Check if x2 contains the expected result. x10 is the signature ptr, x5 is the link ptr, x4 is a temp reg.
  RVTEST_SIGUPD(x10, x5, x4, x2, I_andi_cg_cr_rs1_imm_edges_rs1val_0xaaaaaaaa_immval_0x703, I_andi_cg_cr_rs1_imm_edges_rs1val_0xaaaaaaaa_immval_0x703_str)
    2950:	00052203          	lw	x4,0(x10)
    2954:	00220863          	beq	x4,x2,2964 <I_andi_cg_cr_rs1_imm_edges_rs1val_0xaaaaaaaa_immval_0x703+0x18>
    2958:	365002ef          	jal	x5,34bc <failedtest_x5_x4>
    295c:	0000294c          	.word	0x0000294c
    2960:	0000dba9          	.word	0x0000dba9
    2964:	00450513          	addi	x10,x10,4

# Testcase cr_rs1_imm_edges (rs1 = 0xaaaaaaaa, imm = 2047)
  RVTEST_TESTDATA_LOAD_INT(x23, x18) # load rs1: x18 = 0xaaaaaaaa
    2968:	000ba903          	lw	x18,0(x23)
    296c:	004b8b93          	addi	x23,x23,4

00002970 <I_andi_cg_cr_rs1_imm_edges_rs1val_0xaaaaaaaa_immval_0x7ff>:
I_andi_cg_cr_rs1_imm_edges_rs1val_0xaaaaaaaa_immval_0x7ff:
  andi x7, x18, 2047 # perform operation
    2970:	7ff97393          	andi	x7,x18,2047
  # Check if x7 contains the expected result. x10 is the signature ptr, x5 is the link ptr, x4 is a temp reg.
  RVTEST_SIGUPD(x10, x5, x4, x7, I_andi_cg_cr_rs1_imm_edges_rs1val_0xaaaaaaaa_immval_0x7ff, I_andi_cg_cr_rs1_imm_edges_rs1val_0xaaaaaaaa_immval_0x7ff_str)
    2974:	00052203          	lw	x4,0(x10)
    2978:	00720863          	beq	x4,x7,2988 <I_andi_cg_cr_rs1_imm_edges_rs1val_0xaaaaaaaa_immval_0x7ff+0x18>
    297c:	341002ef          	jal	x5,34bc <failedtest_x5_x4>
    2980:	00002970          	.word	0x00002970
    2984:	0000dc00          	.word	0x0000dc00
    2988:	00450513          	addi	x10,x10,4

# Testcase cr_rs1_imm_edges (rs1 = 0xaaaaaaaa, imm = -2048)
  RVTEST_TESTDATA_LOAD_INT(x23, x6) # load rs1: x6 = 0xaaaaaaaa
    298c:	000ba303          	lw	x6,0(x23)
    2990:	004b8b93          	addi	x23,x23,4

00002994 <I_andi_cg_cr_rs1_imm_edges_rs1val_0xaaaaaaaa_immval_m0x800>:
I_andi_cg_cr_rs1_imm_edges_rs1val_0xaaaaaaaa_immval_m0x800:
  andi x9, x6, -2048 # perform operation
    2994:	80037493          	andi	x9,x6,-2048
  # Check if x9 contains the expected result. x10 is the signature ptr, x5 is the link ptr, x4 is a temp reg.
  RVTEST_SIGUPD(x10, x5, x4, x9, I_andi_cg_cr_rs1_imm_edges_rs1val_0xaaaaaaaa_immval_m0x800, I_andi_cg_cr_rs1_imm_edges_rs1val_0xaaaaaaaa_immval_m0x800_str)
    2998:	00052203          	lw	x4,0(x10)
    299c:	00920863          	beq	x4,x9,29ac <I_andi_cg_cr_rs1_imm_edges_rs1val_0xaaaaaaaa_immval_m0x800+0x18>
    29a0:	31d002ef          	jal	x5,34bc <failedtest_x5_x4>
    29a4:	00002994          	.word	0x00002994
    29a8:	0000dc57          	.word	0x0000dc57
    29ac:	00450513          	addi	x10,x10,4

# Testcase cr_rs1_imm_edges (rs1 = 0xaaaaaaaa, imm = -2047)
  RVTEST_TESTDATA_LOAD_INT(x23, x9) # load rs1: x9 = 0xaaaaaaaa
    29b0:	000ba483          	lw	x9,0(x23)
    29b4:	004b8b93          	addi	x23,x23,4

000029b8 <I_andi_cg_cr_rs1_imm_edges_rs1val_0xaaaaaaaa_immval_m0x7ff>:
I_andi_cg_cr_rs1_imm_edges_rs1val_0xaaaaaaaa_immval_m0x7ff:
  andi x11, x9, -2047 # perform operation
    29b8:	8014f593          	andi	x11,x9,-2047
  # Check if x11 contains the expected result. x10 is the signature ptr, x5 is the link ptr, x4 is a temp reg.
  RVTEST_SIGUPD(x10, x5, x4, x11, I_andi_cg_cr_rs1_imm_edges_rs1val_0xaaaaaaaa_immval_m0x7ff, I_andi_cg_cr_rs1_imm_edges_rs1val_0xaaaaaaaa_immval_m0x7ff_str)
    29bc:	00052203          	lw	x4,0(x10)
    29c0:	00b20863          	beq	x4,x11,29d0 <I_andi_cg_cr_rs1_imm_edges_rs1val_0xaaaaaaaa_immval_m0x7ff+0x18>
    29c4:	2f9002ef          	jal	x5,34bc <failedtest_x5_x4>
    29c8:	000029b8          	.word	0x000029b8
    29cc:	0000dcaf          	.word	0x0000dcaf
    29d0:	00450513          	addi	x10,x10,4

# Testcase cr_rs1_imm_edges (rs1 = 0xaaaaaaaa, imm = -2)
  RVTEST_TESTDATA_LOAD_INT(x23, x25) # load rs1: x25 = 0xaaaaaaaa
    29d4:	000bac83          	lw	x25,0(x23)
    29d8:	004b8b93          	addi	x23,x23,4

000029dc <I_andi_cg_cr_rs1_imm_edges_rs1val_0xaaaaaaaa_immval_m0x2>:
I_andi_cg_cr_rs1_imm_edges_rs1val_0xaaaaaaaa_immval_m0x2:
  andi x26, x25, -2 # perform operation
    29dc:	ffecfd13          	andi	x26,x25,-2
  # Check if x26 contains the expected result. x10 is the signature ptr, x5 is the link ptr, x4 is a temp reg.
  RVTEST_SIGUPD(x10, x5, x4, x26, I_andi_cg_cr_rs1_imm_edges_rs1val_0xaaaaaaaa_immval_m0x2, I_andi_cg_cr_rs1_imm_edges_rs1val_0xaaaaaaaa_immval_m0x2_str)
    29e0:	00052203          	lw	x4,0(x10)
    29e4:	01a20863          	beq	x4,x26,29f4 <I_andi_cg_cr_rs1_imm_edges_rs1val_0xaaaaaaaa_immval_m0x2+0x18>
    29e8:	2d5002ef          	jal	x5,34bc <failedtest_x5_x4>
    29ec:	000029dc          	.word	0x000029dc
    29f0:	0000dd07          	.word	0x0000dd07
    29f4:	00450513          	addi	x10,x10,4

# Testcase cr_rs1_imm_edges (rs1 = 0xaaaaaaaa, imm = -1)
  RVTEST_TESTDATA_LOAD_INT(x23, x31) # load rs1: x31 = 0xaaaaaaaa
    29f8:	000baf83          	lw	x31,0(x23)
    29fc:	004b8b93          	addi	x23,x23,4

00002a00 <I_andi_cg_cr_rs1_imm_edges_rs1val_0xaaaaaaaa_immval_m0x1>:
I_andi_cg_cr_rs1_imm_edges_rs1val_0xaaaaaaaa_immval_m0x1:
  andi x9, x31, -1 # perform operation
    2a00:	fffff493          	andi	x9,x31,-1
  # Check if x9 contains the expected result. x10 is the signature ptr, x5 is the link ptr, x4 is a temp reg.
  RVTEST_SIGUPD(x10, x5, x4, x9, I_andi_cg_cr_rs1_imm_edges_rs1val_0xaaaaaaaa_immval_m0x1, I_andi_cg_cr_rs1_imm_edges_rs1val_0xaaaaaaaa_immval_m0x1_str)
    2a04:	00052203          	lw	x4,0(x10)
    2a08:	00920863          	beq	x4,x9,2a18 <I_andi_cg_cr_rs1_imm_edges_rs1val_0xaaaaaaaa_immval_m0x1+0x18>
    2a0c:	2b1002ef          	jal	x5,34bc <failedtest_x5_x4>
    2a10:	00002a00          	.word	0x00002a00
    2a14:	0000dd5d          	.word	0x0000dd5d
    2a18:	00450513          	addi	x10,x10,4

# Testcase cr_rs1_imm_edges (rs1 = 0x55555555, imm = 0)
  RVTEST_TESTDATA_LOAD_INT(x23, x8) # load rs1: x8 = 0x55555555
    2a1c:	000ba403          	lw	x8,0(x23)
    2a20:	004b8b93          	addi	x23,x23,4

00002a24 <I_andi_cg_cr_rs1_imm_edges_rs1val_0x55555555_immval_0x0>:
I_andi_cg_cr_rs1_imm_edges_rs1val_0x55555555_immval_0x0:
  andi x21, x8, 0 # perform operation
    2a24:	00047a93          	andi	x21,x8,0
  # Check if x21 contains the expected result. x10 is the signature ptr, x5 is the link ptr, x4 is a temp reg.
  RVTEST_SIGUPD(x10, x5, x4, x21, I_andi_cg_cr_rs1_imm_edges_rs1val_0x55555555_immval_0x0, I_andi_cg_cr_rs1_imm_edges_rs1val_0x55555555_immval_0x0_str)
    2a28:	00052203          	lw	x4,0(x10)
    2a2c:	01520863          	beq	x4,x21,2a3c <I_andi_cg_cr_rs1_imm_edges_rs1val_0x55555555_immval_0x0+0x18>
    2a30:	28d002ef          	jal	x5,34bc <failedtest_x5_x4>
    2a34:	00002a24          	.word	0x00002a24
    2a38:	0000ddb3          	.word	0x0000ddb3
    2a3c:	00450513          	addi	x10,x10,4

# Testcase cr_rs1_imm_edges (rs1 = 0x55555555, imm = 1)
  RVTEST_TESTDATA_LOAD_INT(x23, x11) # load rs1: x11 = 0x55555555
    2a40:	000ba583          	lw	x11,0(x23)
    2a44:	004b8b93          	addi	x23,x23,4

00002a48 <I_andi_cg_cr_rs1_imm_edges_rs1val_0x55555555_immval_0x1>:
I_andi_cg_cr_rs1_imm_edges_rs1val_0x55555555_immval_0x1:
  andi x15, x11, 1 # perform operation
    2a48:	0015f793          	andi	x15,x11,1
  # Check if x15 contains the expected result. x10 is the signature ptr, x5 is the link ptr, x4 is a temp reg.
  RVTEST_SIGUPD(x10, x5, x4, x15, I_andi_cg_cr_rs1_imm_edges_rs1val_0x55555555_immval_0x1, I_andi_cg_cr_rs1_imm_edges_rs1val_0x55555555_immval_0x1_str)
    2a4c:	00052203          	lw	x4,0(x10)
    2a50:	00f20863          	beq	x4,x15,2a60 <I_andi_cg_cr_rs1_imm_edges_rs1val_0x55555555_immval_0x1+0x18>
    2a54:	269002ef          	jal	x5,34bc <failedtest_x5_x4>
    2a58:	00002a48          	.word	0x00002a48
    2a5c:	0000de08          	.word	0x0000de08
    2a60:	00450513          	addi	x10,x10,4

# Testcase cr_rs1_imm_edges (rs1 = 0x55555555, imm = 2)
  RVTEST_TESTDATA_LOAD_INT(x23, x15) # load rs1: x15 = 0x55555555
    2a64:	000ba783          	lw	x15,0(x23)
    2a68:	004b8b93          	addi	x23,x23,4

00002a6c <I_andi_cg_cr_rs1_imm_edges_rs1val_0x55555555_immval_0x2>:
I_andi_cg_cr_rs1_imm_edges_rs1val_0x55555555_immval_0x2:
  andi x12, x15, 2 # perform operation
    2a6c:	0027f613          	andi	x12,x15,2
  # Check if x12 contains the expected result. x10 is the signature ptr, x5 is the link ptr, x4 is a temp reg.
  RVTEST_SIGUPD(x10, x5, x4, x12, I_andi_cg_cr_rs1_imm_edges_rs1val_0x55555555_immval_0x2, I_andi_cg_cr_rs1_imm_edges_rs1val_0x55555555_immval_0x2_str)
    2a70:	00052203          	lw	x4,0(x10)
    2a74:	00c20863          	beq	x4,x12,2a84 <I_andi_cg_cr_rs1_imm_edges_rs1val_0x55555555_immval_0x2+0x18>
    2a78:	245002ef          	jal	x5,34bc <failedtest_x5_x4>
    2a7c:	00002a6c          	.word	0x00002a6c
    2a80:	0000de5d          	.word	0x0000de5d
    2a84:	00450513          	addi	x10,x10,4

# Testcase cr_rs1_imm_edges (rs1 = 0x55555555, imm = 3)
  RVTEST_TESTDATA_LOAD_INT(x23, x24) # load rs1: x24 = 0x55555555
    2a88:	000bac03          	lw	x24,0(x23)
    2a8c:	004b8b93          	addi	x23,x23,4

00002a90 <I_andi_cg_cr_rs1_imm_edges_rs1val_0x55555555_immval_0x3>:
I_andi_cg_cr_rs1_imm_edges_rs1val_0x55555555_immval_0x3:
  andi x2, x24, 3 # perform operation
    2a90:	003c7113          	andi	x2,x24,3
  # Check if x2 contains the expected result. x10 is the signature ptr, x5 is the link ptr, x4 is a temp reg.
  RVTEST_SIGUPD(x10, x5, x4, x2, I_andi_cg_cr_rs1_imm_edges_rs1val_0x55555555_immval_0x3, I_andi_cg_cr_rs1_imm_edges_rs1val_0x55555555_immval_0x3_str)
    2a94:	00052203          	lw	x4,0(x10)
    2a98:	00220863          	beq	x4,x2,2aa8 <I_andi_cg_cr_rs1_imm_edges_rs1val_0x55555555_immval_0x3+0x18>
    2a9c:	221002ef          	jal	x5,34bc <failedtest_x5_x4>
    2aa0:	00002a90          	.word	0x00002a90
    2aa4:	0000deb2          	.word	0x0000deb2
    2aa8:	00450513          	addi	x10,x10,4

# Testcase cr_rs1_imm_edges (rs1 = 0x55555555, imm = 4)
  RVTEST_TESTDATA_LOAD_INT(x23, x29) # load rs1: x29 = 0x55555555
    2aac:	000bae83          	lw	x29,0(x23)
    2ab0:	004b8b93          	addi	x23,x23,4

00002ab4 <I_andi_cg_cr_rs1_imm_edges_rs1val_0x55555555_immval_0x4>:
I_andi_cg_cr_rs1_imm_edges_rs1val_0x55555555_immval_0x4:
  andi x1, x29, 4 # perform operation
    2ab4:	004ef093          	andi	x1,x29,4
  # Check if x1 contains the expected result. x10 is the signature ptr, x5 is the link ptr, x4 is a temp reg.
  RVTEST_SIGUPD(x10, x5, x4, x1, I_andi_cg_cr_rs1_imm_edges_rs1val_0x55555555_immval_0x4, I_andi_cg_cr_rs1_imm_edges_rs1val_0x55555555_immval_0x4_str)
    2ab8:	00052203          	lw	x4,0(x10)
    2abc:	00120863          	beq	x4,x1,2acc <I_andi_cg_cr_rs1_imm_edges_rs1val_0x55555555_immval_0x4+0x18>
    2ac0:	1fd002ef          	jal	x5,34bc <failedtest_x5_x4>
    2ac4:	00002ab4          	.word	0x00002ab4
    2ac8:	0000df07          	.word	0x0000df07
    2acc:	00450513          	addi	x10,x10,4

# Testcase cr_rs1_imm_edges (rs1 = 0x55555555, imm = 8)
  RVTEST_TESTDATA_LOAD_INT(x23, x3) # load rs1: x3 = 0x55555555
    2ad0:	000ba183          	lw	x3,0(x23)
    2ad4:	004b8b93          	addi	x23,x23,4

00002ad8 <I_andi_cg_cr_rs1_imm_edges_rs1val_0x55555555_immval_0x8>:
I_andi_cg_cr_rs1_imm_edges_rs1val_0x55555555_immval_0x8:
  andi x27, x3, 8 # perform operation
    2ad8:	0081fd93          	andi	x27,x3,8
  # Check if x27 contains the expected result. x10 is the signature ptr, x5 is the link ptr, x4 is a temp reg.
  RVTEST_SIGUPD(x10, x5, x4, x27, I_andi_cg_cr_rs1_imm_edges_rs1val_0x55555555_immval_0x8, I_andi_cg_cr_rs1_imm_edges_rs1val_0x55555555_immval_0x8_str)
    2adc:	00052203          	lw	x4,0(x10)
    2ae0:	01b20863          	beq	x4,x27,2af0 <I_andi_cg_cr_rs1_imm_edges_rs1val_0x55555555_immval_0x8+0x18>
    2ae4:	1d9002ef          	jal	x5,34bc <failedtest_x5_x4>
    2ae8:	00002ad8          	.word	0x00002ad8
    2aec:	0000df5c          	.word	0x0000df5c
    2af0:	00450513          	addi	x10,x10,4

# Testcase cr_rs1_imm_edges (rs1 = 0x55555555, imm = 16)
  RVTEST_TESTDATA_LOAD_INT(x23, x25) # load rs1: x25 = 0x55555555
    2af4:	000bac83          	lw	x25,0(x23)
    2af8:	004b8b93          	addi	x23,x23,4

00002afc <I_andi_cg_cr_rs1_imm_edges_rs1val_0x55555555_immval_0x10>:
I_andi_cg_cr_rs1_imm_edges_rs1val_0x55555555_immval_0x10:
  andi x28, x25, 16 # perform operation
    2afc:	010cfe13          	andi	x28,x25,16
  # Check if x28 contains the expected result. x10 is the signature ptr, x5 is the link ptr, x4 is a temp reg.
  RVTEST_SIGUPD(x10, x5, x4, x28, I_andi_cg_cr_rs1_imm_edges_rs1val_0x55555555_immval_0x10, I_andi_cg_cr_rs1_imm_edges_rs1val_0x55555555_immval_0x10_str)
    2b00:	00052203          	lw	x4,0(x10)
    2b04:	01c20863          	beq	x4,x28,2b14 <I_andi_cg_cr_rs1_imm_edges_rs1val_0x55555555_immval_0x10+0x18>
    2b08:	1b5002ef          	jal	x5,34bc <failedtest_x5_x4>
    2b0c:	00002afc          	.word	0x00002afc
    2b10:	0000dfb1          	.word	0x0000dfb1
    2b14:	00450513          	addi	x10,x10,4

# Testcase cr_rs1_imm_edges (rs1 = 0x55555555, imm = 32)
  RVTEST_TESTDATA_LOAD_INT(x23, x15) # load rs1: x15 = 0x55555555
    2b18:	000ba783          	lw	x15,0(x23)
    2b1c:	004b8b93          	addi	x23,x23,4

00002b20 <I_andi_cg_cr_rs1_imm_edges_rs1val_0x55555555_immval_0x20>:
I_andi_cg_cr_rs1_imm_edges_rs1val_0x55555555_immval_0x20:
  andi x14, x15, 32 # perform operation
    2b20:	0207f713          	andi	x14,x15,32
  # Check if x14 contains the expected result. x10 is the signature ptr, x5 is the link ptr, x4 is a temp reg.
  RVTEST_SIGUPD(x10, x5, x4, x14, I_andi_cg_cr_rs1_imm_edges_rs1val_0x55555555_immval_0x20, I_andi_cg_cr_rs1_imm_edges_rs1val_0x55555555_immval_0x20_str)
    2b24:	00052203          	lw	x4,0(x10)
    2b28:	00e20863          	beq	x4,x14,2b38 <I_andi_cg_cr_rs1_imm_edges_rs1val_0x55555555_immval_0x20+0x18>
    2b2c:	191002ef          	jal	x5,34bc <failedtest_x5_x4>
    2b30:	00002b20          	.word	0x00002b20
    2b34:	0000e007          	.word	0x0000e007
    2b38:	00450513          	addi	x10,x10,4

# Testcase cr_rs1_imm_edges (rs1 = 0x55555555, imm = 64)
  RVTEST_TESTDATA_LOAD_INT(x23, x21) # load rs1: x21 = 0x55555555
    2b3c:	000baa83          	lw	x21,0(x23)
    2b40:	004b8b93          	addi	x23,x23,4

00002b44 <I_andi_cg_cr_rs1_imm_edges_rs1val_0x55555555_immval_0x40>:
I_andi_cg_cr_rs1_imm_edges_rs1val_0x55555555_immval_0x40:
  andi x6, x21, 64 # perform operation
    2b44:	040af313          	andi	x6,x21,64
  # Check if x6 contains the expected result. x10 is the signature ptr, x5 is the link ptr, x4 is a temp reg.
  RVTEST_SIGUPD(x10, x5, x4, x6, I_andi_cg_cr_rs1_imm_edges_rs1val_0x55555555_immval_0x40, I_andi_cg_cr_rs1_imm_edges_rs1val_0x55555555_immval_0x40_str)
    2b48:	00052203          	lw	x4,0(x10)
    2b4c:	00620863          	beq	x4,x6,2b5c <I_andi_cg_cr_rs1_imm_edges_rs1val_0x55555555_immval_0x40+0x18>
    2b50:	16d002ef          	jal	x5,34bc <failedtest_x5_x4>
    2b54:	00002b44          	.word	0x00002b44
    2b58:	0000e05d          	.word	0x0000e05d
    2b5c:	00450513          	addi	x10,x10,4

# Testcase cr_rs1_imm_edges (rs1 = 0x55555555, imm = 128)
  RVTEST_TESTDATA_LOAD_INT(x23, x2) # load rs1: x2 = 0x55555555
    2b60:	000ba103          	lw	x2,0(x23)
    2b64:	004b8b93          	addi	x23,x23,4

00002b68 <I_andi_cg_cr_rs1_imm_edges_rs1val_0x55555555_immval_0x80>:
I_andi_cg_cr_rs1_imm_edges_rs1val_0x55555555_immval_0x80:
  andi x16, x2, 128 # perform operation
    2b68:	08017813          	andi	x16,x2,128
  # Check if x16 contains the expected result. x10 is the signature ptr, x5 is the link ptr, x4 is a temp reg.
  RVTEST_SIGUPD(x10, x5, x4, x16, I_andi_cg_cr_rs1_imm_edges_rs1val_0x55555555_immval_0x80, I_andi_cg_cr_rs1_imm_edges_rs1val_0x55555555_immval_0x80_str)
    2b6c:	00052203          	lw	x4,0(x10)
    2b70:	01020863          	beq	x4,x16,2b80 <I_andi_cg_cr_rs1_imm_edges_rs1val_0x55555555_immval_0x80+0x18>
    2b74:	149002ef          	jal	x5,34bc <failedtest_x5_x4>
    2b78:	00002b68          	.word	0x00002b68
    2b7c:	0000e0b3          	.word	0x0000e0b3
    2b80:	00450513          	addi	x10,x10,4

# Testcase cr_rs1_imm_edges (rs1 = 0x55555555, imm = 256)
  RVTEST_TESTDATA_LOAD_INT(x23, x7) # load rs1: x7 = 0x55555555
    2b84:	000ba383          	lw	x7,0(x23)
    2b88:	004b8b93          	addi	x23,x23,4

00002b8c <I_andi_cg_cr_rs1_imm_edges_rs1val_0x55555555_immval_0x100>:
I_andi_cg_cr_rs1_imm_edges_rs1val_0x55555555_immval_0x100:
  andi x24, x7, 256 # perform operation
    2b8c:	1003fc13          	andi	x24,x7,256
  # Check if x24 contains the expected result. x10 is the signature ptr, x5 is the link ptr, x4 is a temp reg.
  RVTEST_SIGUPD(x10, x5, x4, x24, I_andi_cg_cr_rs1_imm_edges_rs1val_0x55555555_immval_0x100, I_andi_cg_cr_rs1_imm_edges_rs1val_0x55555555_immval_0x100_str)
    2b90:	00052203          	lw	x4,0(x10)
    2b94:	01820863          	beq	x4,x24,2ba4 <I_andi_cg_cr_rs1_imm_edges_rs1val_0x55555555_immval_0x100+0x18>
    2b98:	125002ef          	jal	x5,34bc <failedtest_x5_x4>
    2b9c:	00002b8c          	.word	0x00002b8c
    2ba0:	0000e109          	.word	0x0000e109
    2ba4:	00450513          	addi	x10,x10,4

# Testcase cr_rs1_imm_edges (rs1 = 0x55555555, imm = 512)
  RVTEST_TESTDATA_LOAD_INT(x23, x25) # load rs1: x25 = 0x55555555
    2ba8:	000bac83          	lw	x25,0(x23)
    2bac:	004b8b93          	addi	x23,x23,4

00002bb0 <I_andi_cg_cr_rs1_imm_edges_rs1val_0x55555555_immval_0x200>:
I_andi_cg_cr_rs1_imm_edges_rs1val_0x55555555_immval_0x200:
  andi x7, x25, 512 # perform operation
    2bb0:	200cf393          	andi	x7,x25,512
  # Check if x7 contains the expected result. x10 is the signature ptr, x5 is the link ptr, x4 is a temp reg.
  RVTEST_SIGUPD(x10, x5, x4, x7, I_andi_cg_cr_rs1_imm_edges_rs1val_0x55555555_immval_0x200, I_andi_cg_cr_rs1_imm_edges_rs1val_0x55555555_immval_0x200_str)
    2bb4:	00052203          	lw	x4,0(x10)
    2bb8:	00720863          	beq	x4,x7,2bc8 <I_andi_cg_cr_rs1_imm_edges_rs1val_0x55555555_immval_0x200+0x18>
    2bbc:	101002ef          	jal	x5,34bc <failedtest_x5_x4>
    2bc0:	00002bb0          	.word	0x00002bb0
    2bc4:	0000e160          	.word	0x0000e160
    2bc8:	00450513          	addi	x10,x10,4

# Testcase cr_rs1_imm_edges (rs1 = 0x55555555, imm = 1023)
  RVTEST_TESTDATA_LOAD_INT(x23, x7) # load rs1: x7 = 0x55555555
    2bcc:	000ba383          	lw	x7,0(x23)
    2bd0:	004b8b93          	addi	x23,x23,4

00002bd4 <I_andi_cg_cr_rs1_imm_edges_rs1val_0x55555555_immval_0x3ff>:
I_andi_cg_cr_rs1_imm_edges_rs1val_0x55555555_immval_0x3ff:
  andi x16, x7, 1023 # perform operation
    2bd4:	3ff3f813          	andi	x16,x7,1023
  # Check if x16 contains the expected result. x10 is the signature ptr, x5 is the link ptr, x4 is a temp reg.
  RVTEST_SIGUPD(x10, x5, x4, x16, I_andi_cg_cr_rs1_imm_edges_rs1val_0x55555555_immval_0x3ff, I_andi_cg_cr_rs1_imm_edges_rs1val_0x55555555_immval_0x3ff_str)
    2bd8:	00052203          	lw	x4,0(x10)
    2bdc:	01020863          	beq	x4,x16,2bec <I_andi_cg_cr_rs1_imm_edges_rs1val_0x55555555_immval_0x3ff+0x18>
    2be0:	0dd002ef          	jal	x5,34bc <failedtest_x5_x4>
    2be4:	00002bd4          	.word	0x00002bd4
    2be8:	0000e1b7          	.word	0x0000e1b7
    2bec:	00450513          	addi	x10,x10,4

# Testcase cr_rs1_imm_edges (rs1 = 0x55555555, imm = 1024)
  RVTEST_TESTDATA_LOAD_INT(x23, x7) # load rs1: x7 = 0x55555555
    2bf0:	000ba383          	lw	x7,0(x23)
    2bf4:	004b8b93          	addi	x23,x23,4

00002bf8 <I_andi_cg_cr_rs1_imm_edges_rs1val_0x55555555_immval_0x400>:
I_andi_cg_cr_rs1_imm_edges_rs1val_0x55555555_immval_0x400:
  andi x20, x7, 1024 # perform operation
    2bf8:	4003fa13          	andi	x20,x7,1024
  # Check if x20 contains the expected result. x10 is the signature ptr, x5 is the link ptr, x4 is a temp reg.
  RVTEST_SIGUPD(x10, x5, x4, x20, I_andi_cg_cr_rs1_imm_edges_rs1val_0x55555555_immval_0x400, I_andi_cg_cr_rs1_imm_edges_rs1val_0x55555555_immval_0x400_str)
    2bfc:	00052203          	lw	x4,0(x10)
    2c00:	01420863          	beq	x4,x20,2c10 <I_andi_cg_cr_rs1_imm_edges_rs1val_0x55555555_immval_0x400+0x18>
    2c04:	0b9002ef          	jal	x5,34bc <failedtest_x5_x4>
    2c08:	00002bf8          	.word	0x00002bf8
    2c0c:	0000e20e          	.word	0x0000e20e
    2c10:	00450513          	addi	x10,x10,4

# Testcase cr_rs1_imm_edges (rs1 = 0x55555555, imm = 1795)
  RVTEST_TESTDATA_LOAD_INT(x23, x17) # load rs1: x17 = 0x55555555
    2c14:	000ba883          	lw	x17,0(x23)
    2c18:	004b8b93          	addi	x23,x23,4

00002c1c <I_andi_cg_cr_rs1_imm_edges_rs1val_0x55555555_immval_0x703>:
I_andi_cg_cr_rs1_imm_edges_rs1val_0x55555555_immval_0x703:
  andi x11, x17, 1795 # perform operation
    2c1c:	7038f593          	andi	x11,x17,1795
  # Check if x11 contains the expected result. x10 is the signature ptr, x5 is the link ptr, x4 is a temp reg.
  RVTEST_SIGUPD(x10, x5, x4, x11, I_andi_cg_cr_rs1_imm_edges_rs1val_0x55555555_immval_0x703, I_andi_cg_cr_rs1_imm_edges_rs1val_0x55555555_immval_0x703_str)
    2c20:	00052203          	lw	x4,0(x10)
    2c24:	00b20863          	beq	x4,x11,2c34 <I_andi_cg_cr_rs1_imm_edges_rs1val_0x55555555_immval_0x703+0x18>
    2c28:	095002ef          	jal	x5,34bc <failedtest_x5_x4>
    2c2c:	00002c1c          	.word	0x00002c1c
    2c30:	0000e265          	.word	0x0000e265
    2c34:	00450513          	addi	x10,x10,4

# Testcase cr_rs1_imm_edges (rs1 = 0x55555555, imm = 2047)
  RVTEST_TESTDATA_LOAD_INT(x23, x25) # load rs1: x25 = 0x55555555
    2c38:	000bac83          	lw	x25,0(x23)
    2c3c:	004b8b93          	addi	x23,x23,4

00002c40 <I_andi_cg_cr_rs1_imm_edges_rs1val_0x55555555_immval_0x7ff>:
I_andi_cg_cr_rs1_imm_edges_rs1val_0x55555555_immval_0x7ff:
  andi x16, x25, 2047 # perform operation
    2c40:	7ffcf813          	andi	x16,x25,2047
  # Check if x16 contains the expected result. x10 is the signature ptr, x5 is the link ptr, x4 is a temp reg.
  RVTEST_SIGUPD(x10, x5, x4, x16, I_andi_cg_cr_rs1_imm_edges_rs1val_0x55555555_immval_0x7ff, I_andi_cg_cr_rs1_imm_edges_rs1val_0x55555555_immval_0x7ff_str)
    2c44:	00052203          	lw	x4,0(x10)
    2c48:	01020863          	beq	x4,x16,2c58 <I_andi_cg_cr_rs1_imm_edges_rs1val_0x55555555_immval_0x7ff+0x18>
    2c4c:	071002ef          	jal	x5,34bc <failedtest_x5_x4>
    2c50:	00002c40          	.word	0x00002c40
    2c54:	0000e2bc          	.word	0x0000e2bc
    2c58:	00450513          	addi	x10,x10,4

# Testcase cr_rs1_imm_edges (rs1 = 0x55555555, imm = -2048)
  RVTEST_TESTDATA_LOAD_INT(x23, x12) # load rs1: x12 = 0x55555555
    2c5c:	000ba603          	lw	x12,0(x23)
    2c60:	004b8b93          	addi	x23,x23,4

00002c64 <I_andi_cg_cr_rs1_imm_edges_rs1val_0x55555555_immval_m0x800>:
I_andi_cg_cr_rs1_imm_edges_rs1val_0x55555555_immval_m0x800:
  andi x22, x12, -2048 # perform operation
    2c64:	80067b13          	andi	x22,x12,-2048
  # Check if x22 contains the expected result. x10 is the signature ptr, x5 is the link ptr, x4 is a temp reg.
  RVTEST_SIGUPD(x10, x5, x4, x22, I_andi_cg_cr_rs1_imm_edges_rs1val_0x55555555_immval_m0x800, I_andi_cg_cr_rs1_imm_edges_rs1val_0x55555555_immval_m0x800_str)
    2c68:	00052203          	lw	x4,0(x10)
    2c6c:	01620863          	beq	x4,x22,2c7c <I_andi_cg_cr_rs1_imm_edges_rs1val_0x55555555_immval_m0x800+0x18>
    2c70:	04d002ef          	jal	x5,34bc <failedtest_x5_x4>
    2c74:	00002c64          	.word	0x00002c64
    2c78:	0000e313          	.word	0x0000e313
    2c7c:	00450513          	addi	x10,x10,4

# Testcase cr_rs1_imm_edges (rs1 = 0x55555555, imm = -2047)
  RVTEST_TESTDATA_LOAD_INT(x23, x26) # load rs1: x26 = 0x55555555
    2c80:	000bad03          	lw	x26,0(x23)
    2c84:	004b8b93          	addi	x23,x23,4

00002c88 <I_andi_cg_cr_rs1_imm_edges_rs1val_0x55555555_immval_m0x7ff>:
I_andi_cg_cr_rs1_imm_edges_rs1val_0x55555555_immval_m0x7ff:
  andi x6, x26, -2047 # perform operation
    2c88:	801d7313          	andi	x6,x26,-2047
  # Check if x6 contains the expected result. x10 is the signature ptr, x5 is the link ptr, x4 is a temp reg.
  RVTEST_SIGUPD(x10, x5, x4, x6, I_andi_cg_cr_rs1_imm_edges_rs1val_0x55555555_immval_m0x7ff, I_andi_cg_cr_rs1_imm_edges_rs1val_0x55555555_immval_m0x7ff_str)
    2c8c:	00052203          	lw	x4,0(x10)
    2c90:	00620863          	beq	x4,x6,2ca0 <I_andi_cg_cr_rs1_imm_edges_rs1val_0x55555555_immval_m0x7ff+0x18>
    2c94:	029002ef          	jal	x5,34bc <failedtest_x5_x4>
    2c98:	00002c88          	.word	0x00002c88
    2c9c:	0000e36b          	.word	0x0000e36b
    2ca0:	00450513          	addi	x10,x10,4

# Testcase cr_rs1_imm_edges (rs1 = 0x55555555, imm = -2)
  RVTEST_TESTDATA_LOAD_INT(x23, x17) # load rs1: x17 = 0x55555555
    2ca4:	000ba883          	lw	x17,0(x23)
    2ca8:	004b8b93          	addi	x23,x23,4

00002cac <I_andi_cg_cr_rs1_imm_edges_rs1val_0x55555555_immval_m0x2>:
I_andi_cg_cr_rs1_imm_edges_rs1val_0x55555555_immval_m0x2:
  andi x28, x17, -2 # perform operation
    2cac:	ffe8fe13          	andi	x28,x17,-2
  # Check if x28 contains the expected result. x10 is the signature ptr, x5 is the link ptr, x4 is a temp reg.
  RVTEST_SIGUPD(x10, x5, x4, x28, I_andi_cg_cr_rs1_imm_edges_rs1val_0x55555555_immval_m0x2, I_andi_cg_cr_rs1_imm_edges_rs1val_0x55555555_immval_m0x2_str)
    2cb0:	00052203          	lw	x4,0(x10)
    2cb4:	01c20863          	beq	x4,x28,2cc4 <I_andi_cg_cr_rs1_imm_edges_rs1val_0x55555555_immval_m0x2+0x18>
    2cb8:	005002ef          	jal	x5,34bc <failedtest_x5_x4>
    2cbc:	00002cac          	.word	0x00002cac
    2cc0:	0000e3c3          	.word	0x0000e3c3
    2cc4:	00450513          	addi	x10,x10,4

# Testcase cr_rs1_imm_edges (rs1 = 0x55555555, imm = -1)
  RVTEST_TESTDATA_LOAD_INT(x23, x14) # load rs1: x14 = 0x55555555
    2cc8:	000ba703          	lw	x14,0(x23)
    2ccc:	004b8b93          	addi	x23,x23,4

00002cd0 <I_andi_cg_cr_rs1_imm_edges_rs1val_0x55555555_immval_m0x1>:
I_andi_cg_cr_rs1_imm_edges_rs1val_0x55555555_immval_m0x1:
  andi x19, x14, -1 # perform operation
    2cd0:	fff77993          	andi	x19,x14,-1
  # Check if x19 contains the expected result. x10 is the signature ptr, x5 is the link ptr, x4 is a temp reg.
  RVTEST_SIGUPD(x10, x5, x4, x19, I_andi_cg_cr_rs1_imm_edges_rs1val_0x55555555_immval_m0x1, I_andi_cg_cr_rs1_imm_edges_rs1val_0x55555555_immval_m0x1_str)
    2cd4:	00052203          	lw	x4,0(x10)
    2cd8:	01320863          	beq	x4,x19,2ce8 <I_andi_cg_cr_rs1_imm_edges_rs1val_0x55555555_immval_m0x1+0x18>
    2cdc:	7e0002ef          	jal	x5,34bc <failedtest_x5_x4>
    2ce0:	00002cd0          	.word	0x00002cd0
    2ce4:	0000e419          	.word	0x0000e419
    2ce8:	00450513          	addi	x10,x10,4
/////////////////////////////////
// cmp_rd_rs1
/////////////////////////////////

# Testcase cmp_rd_rs1 (Test rd = rs1 = x0)
  RVTEST_TESTDATA_LOAD_INT(x23, x0) # load rs1: x0 = 0x0b64aafe
    2cec:	000ba003          	lw	x0,0(x23)
    2cf0:	004b8b93          	addi	x23,x23,4

00002cf4 <I_andi_cg_cmp_rd_rs1_b0>:
I_andi_cg_cmp_rd_rs1_b0:
  andi x0, x0, 1763 # perform operation
    2cf4:	6e307013          	andi	x0,x0,1763
  # Check if x0 contains the expected result. x10 is the signature ptr, x5 is the link ptr, x4 is a temp reg.
  RVTEST_SIGUPD(x10, x5, x4, x0, I_andi_cg_cmp_rd_rs1_b0, I_andi_cg_cmp_rd_rs1_b0_str)
    2cf8:	00052203          	lw	x4,0(x10)
    2cfc:	00020863          	beq	x4,x0,2d0c <I_andi_cg_cmp_rd_rs1_b0+0x18>
    2d00:	7bc002ef          	jal	x5,34bc <failedtest_x5_x4>
    2d04:	00002cf4          	.word	0x00002cf4
    2d08:	0000e46f          	.word	0x0000e46f
    2d0c:	00450513          	addi	x10,x10,4

# Testcase cmp_rd_rs1 (Test rd = rs1 = x1)
  RVTEST_TESTDATA_LOAD_INT(x23, x1) # load rs1: x1 = 0xadf6a583
    2d10:	000ba083          	lw	x1,0(x23)
    2d14:	004b8b93          	addi	x23,x23,4

00002d18 <I_andi_cg_cmp_rd_rs1_b1>:
I_andi_cg_cmp_rd_rs1_b1:
  andi x1, x1, 2047 # perform operation
    2d18:	7ff0f093          	andi	x1,x1,2047
  # Check if x1 contains the expected result. x10 is the signature ptr, x5 is the link ptr, x4 is a temp reg.
  RVTEST_SIGUPD(x10, x5, x4, x1, I_andi_cg_cmp_rd_rs1_b1, I_andi_cg_cmp_rd_rs1_b1_str)
    2d1c:	00052203          	lw	x4,0(x10)
    2d20:	00120863          	beq	x4,x1,2d30 <I_andi_cg_cmp_rd_rs1_b1+0x18>
    2d24:	798002ef          	jal	x5,34bc <failedtest_x5_x4>
    2d28:	00002d18          	.word	0x00002d18
    2d2c:	0000e4a3          	.word	0x0000e4a3
    2d30:	00450513          	addi	x10,x10,4

# Testcase cmp_rd_rs1 (Test rd = rs1 = x2)
  RVTEST_TESTDATA_LOAD_INT(x23, x2) # load rs1: x2 = 0xcd60a32a
    2d34:	000ba103          	lw	x2,0(x23)
    2d38:	004b8b93          	addi	x23,x23,4

00002d3c <I_andi_cg_cmp_rd_rs1_b2>:
I_andi_cg_cmp_rd_rs1_b2:
  andi x2, x2, 1613 # perform operation
    2d3c:	64d17113          	andi	x2,x2,1613
  # Check if x2 contains the expected result. x10 is the signature ptr, x5 is the link ptr, x4 is a temp reg.
  RVTEST_SIGUPD(x10, x5, x4, x2, I_andi_cg_cmp_rd_rs1_b2, I_andi_cg_cmp_rd_rs1_b2_str)
    2d40:	00052203          	lw	x4,0(x10)
    2d44:	00220863          	beq	x4,x2,2d54 <I_andi_cg_cmp_rd_rs1_b2+0x18>
    2d48:	774002ef          	jal	x5,34bc <failedtest_x5_x4>
    2d4c:	00002d3c          	.word	0x00002d3c
    2d50:	0000e4d7          	.word	0x0000e4d7
    2d54:	00450513          	addi	x10,x10,4

# Testcase cmp_rd_rs1 (Test rd = rs1 = x3)
  RVTEST_TESTDATA_LOAD_INT(x23, x3) # load rs1: x3 = 0xe27b815c
    2d58:	000ba183          	lw	x3,0(x23)
    2d5c:	004b8b93          	addi	x23,x23,4

00002d60 <I_andi_cg_cmp_rd_rs1_b3>:
I_andi_cg_cmp_rd_rs1_b3:
  andi x3, x3, 314 # perform operation
    2d60:	13a1f193          	andi	x3,x3,314
  # Check if x3 contains the expected result. x10 is the signature ptr, x5 is the link ptr, x4 is a temp reg.
  RVTEST_SIGUPD(x10, x5, x4, x3, I_andi_cg_cmp_rd_rs1_b3, I_andi_cg_cmp_rd_rs1_b3_str)
    2d64:	00052203          	lw	x4,0(x10)
    2d68:	00320863          	beq	x4,x3,2d78 <I_andi_cg_cmp_rd_rs1_b3+0x18>
    2d6c:	750002ef          	jal	x5,34bc <failedtest_x5_x4>
    2d70:	00002d60          	.word	0x00002d60
    2d74:	0000e50b          	.word	0x0000e50b
    2d78:	00450513          	addi	x10,x10,4

  mv x7, x4 # switch temp register to avoid conflict with test
    2d7c:	00020393          	addi	x7,x4,0 # 0 <rvtest_entry_point>
  mv x8, x5 # switch link pointer register to avoid conflict with test
    2d80:	00028413          	addi	x8,x5,0
# Testcase cmp_rd_rs1 (Test rd = rs1 = x4)
  RVTEST_TESTDATA_LOAD_INT(x23, x4) # load rs1: x4 = 0x75e92889
    2d84:	000ba203          	lw	x4,0(x23)
    2d88:	004b8b93          	addi	x23,x23,4

00002d8c <I_andi_cg_cmp_rd_rs1_b4>:
I_andi_cg_cmp_rd_rs1_b4:
  andi x4, x4, 1538 # perform operation
    2d8c:	60227213          	andi	x4,x4,1538
  # Check if x4 contains the expected result. x10 is the signature ptr, x8 is the link ptr, x7 is a temp reg.
  RVTEST_SIGUPD(x10, x8, x7, x4, I_andi_cg_cmp_rd_rs1_b4, I_andi_cg_cmp_rd_rs1_b4_str)
    2d90:	00052383          	lw	x7,0(x10)
    2d94:	00438863          	beq	x7,x4,2da4 <I_andi_cg_cmp_rd_rs1_b4+0x18>
    2d98:	73c0046f          	jal	x8,34d4 <failedtest_x8_x7>
    2d9c:	00002d8c          	.word	0x00002d8c
    2da0:	0000e53f          	.word	0x0000e53f
    2da4:	00450513          	addi	x10,x10,4

# Testcase cmp_rd_rs1 (Test rd = rs1 = x5)
  RVTEST_TESTDATA_LOAD_INT(x23, x5) # load rs1: x5 = 0x24fc079e
    2da8:	000ba283          	lw	x5,0(x23)
    2dac:	004b8b93          	addi	x23,x23,4

00002db0 <I_andi_cg_cmp_rd_rs1_b5>:
I_andi_cg_cmp_rd_rs1_b5:
  andi x5, x5, 706 # perform operation
    2db0:	2c22f293          	andi	x5,x5,706
  # Check if x5 contains the expected result. x10 is the signature ptr, x8 is the link ptr, x7 is a temp reg.
  RVTEST_SIGUPD(x10, x8, x7, x5, I_andi_cg_cmp_rd_rs1_b5, I_andi_cg_cmp_rd_rs1_b5_str)
    2db4:	00052383          	lw	x7,0(x10)
    2db8:	00538863          	beq	x7,x5,2dc8 <I_andi_cg_cmp_rd_rs1_b5+0x18>
    2dbc:	7180046f          	jal	x8,34d4 <failedtest_x8_x7>
    2dc0:	00002db0          	.word	0x00002db0
    2dc4:	0000e573          	.word	0x0000e573
    2dc8:	00450513          	addi	x10,x10,4

# Testcase cmp_rd_rs1 (Test rd = rs1 = x6)
  RVTEST_TESTDATA_LOAD_INT(x23, x6) # load rs1: x6 = 0xe7c6eb11
    2dcc:	000ba303          	lw	x6,0(x23)
    2dd0:	004b8b93          	addi	x23,x23,4

00002dd4 <I_andi_cg_cmp_rd_rs1_b6>:
I_andi_cg_cmp_rd_rs1_b6:
  andi x6, x6, -332 # perform operation
    2dd4:	eb437313          	andi	x6,x6,-332
  # Check if x6 contains the expected result. x10 is the signature ptr, x8 is the link ptr, x7 is a temp reg.
  RVTEST_SIGUPD(x10, x8, x7, x6, I_andi_cg_cmp_rd_rs1_b6, I_andi_cg_cmp_rd_rs1_b6_str)
    2dd8:	00052383          	lw	x7,0(x10)
    2ddc:	00638863          	beq	x7,x6,2dec <I_andi_cg_cmp_rd_rs1_b6+0x18>
    2de0:	6f40046f          	jal	x8,34d4 <failedtest_x8_x7>
    2de4:	00002dd4          	.word	0x00002dd4
    2de8:	0000e5a7          	.word	0x0000e5a7
    2dec:	00450513          	addi	x10,x10,4

  mv x13, x7 # switch temp register to avoid conflict with test
    2df0:	00038693          	addi	x13,x7,0
  mv x14, x8 # switch link pointer register to avoid conflict with test
    2df4:	00040713          	addi	x14,x8,0
# Testcase cmp_rd_rs1 (Test rd = rs1 = x7)
  RVTEST_TESTDATA_LOAD_INT(x23, x7) # load rs1: x7 = 0xb0be9220
    2df8:	000ba383          	lw	x7,0(x23)
    2dfc:	004b8b93          	addi	x23,x23,4

00002e00 <I_andi_cg_cmp_rd_rs1_b7>:
I_andi_cg_cmp_rd_rs1_b7:
  andi x7, x7, 1114 # perform operation
    2e00:	45a3f393          	andi	x7,x7,1114
  # Check if x7 contains the expected result. x10 is the signature ptr, x14 is the link ptr, x13 is a temp reg.
  RVTEST_SIGUPD(x10, x14, x13, x7, I_andi_cg_cmp_rd_rs1_b7, I_andi_cg_cmp_rd_rs1_b7_str)
    2e04:	00052683          	lw	x13,0(x10)
    2e08:	00768863          	beq	x13,x7,2e18 <I_andi_cg_cmp_rd_rs1_b7+0x18>
    2e0c:	6f00076f          	jal	x14,34fc <failedtest_x14_x13>
    2e10:	00002e00          	.word	0x00002e00
    2e14:	0000e5db          	.word	0x0000e5db
    2e18:	00450513          	addi	x10,x10,4

# Testcase cmp_rd_rs1 (Test rd = rs1 = x8)
  RVTEST_TESTDATA_LOAD_INT(x23, x8) # load rs1: x8 = 0xe58a3bc1
    2e1c:	000ba403          	lw	x8,0(x23)
    2e20:	004b8b93          	addi	x23,x23,4

00002e24 <I_andi_cg_cmp_rd_rs1_b8>:
I_andi_cg_cmp_rd_rs1_b8:
  andi x8, x8, 1885 # perform operation
    2e24:	75d47413          	andi	x8,x8,1885
  # Check if x8 contains the expected result. x10 is the signature ptr, x14 is the link ptr, x13 is a temp reg.
  RVTEST_SIGUPD(x10, x14, x13, x8, I_andi_cg_cmp_rd_rs1_b8, I_andi_cg_cmp_rd_rs1_b8_str)
    2e28:	00052683          	lw	x13,0(x10)
    2e2c:	00868863          	beq	x13,x8,2e3c <I_andi_cg_cmp_rd_rs1_b8+0x18>
    2e30:	6cc0076f          	jal	x14,34fc <failedtest_x14_x13>
    2e34:	00002e24          	.word	0x00002e24
    2e38:	0000e60f          	.word	0x0000e60f
    2e3c:	00450513          	addi	x10,x10,4

# Testcase cmp_rd_rs1 (Test rd = rs1 = x9)
  RVTEST_TESTDATA_LOAD_INT(x23, x9) # load rs1: x9 = 0xde1d4cc8
    2e40:	000ba483          	lw	x9,0(x23)
    2e44:	004b8b93          	addi	x23,x23,4

00002e48 <I_andi_cg_cmp_rd_rs1_b9>:
I_andi_cg_cmp_rd_rs1_b9:
  andi x9, x9, -1894 # perform operation
    2e48:	89a4f493          	andi	x9,x9,-1894
  # Check if x9 contains the expected result. x10 is the signature ptr, x14 is the link ptr, x13 is a temp reg.
  RVTEST_SIGUPD(x10, x14, x13, x9, I_andi_cg_cmp_rd_rs1_b9, I_andi_cg_cmp_rd_rs1_b9_str)
    2e4c:	00052683          	lw	x13,0(x10)
    2e50:	00968863          	beq	x13,x9,2e60 <I_andi_cg_cmp_rd_rs1_b9+0x18>
    2e54:	6a80076f          	jal	x14,34fc <failedtest_x14_x13>
    2e58:	00002e48          	.word	0x00002e48
    2e5c:	0000e643          	.word	0x0000e643
    2e60:	00450513          	addi	x10,x10,4

  mv x22, x10 # switch signature pointer register to avoid conflict with test
    2e64:	00050b13          	addi	x22,x10,0
# Testcase cmp_rd_rs1 (Test rd = rs1 = x10)
  RVTEST_TESTDATA_LOAD_INT(x23, x10) # load rs1: x10 = 0x8442652e
    2e68:	000ba503          	lw	x10,0(x23)
    2e6c:	004b8b93          	addi	x23,x23,4

00002e70 <I_andi_cg_cmp_rd_rs1_b10>:
I_andi_cg_cmp_rd_rs1_b10:
  andi x10, x10, 1111 # perform operation
    2e70:	45757513          	andi	x10,x10,1111
  # Check if x10 contains the expected result. x22 is the signature ptr, x14 is the link ptr, x13 is a temp reg.
  RVTEST_SIGUPD(x22, x14, x13, x10, I_andi_cg_cmp_rd_rs1_b10, I_andi_cg_cmp_rd_rs1_b10_str)
    2e74:	000b2683          	lw	x13,0(x22)
    2e78:	00a68863          	beq	x13,x10,2e88 <I_andi_cg_cmp_rd_rs1_b10+0x18>
    2e7c:	6800076f          	jal	x14,34fc <failedtest_x14_x13>
    2e80:	00002e70          	.word	0x00002e70
    2e84:	0000e677          	.word	0x0000e677
    2e88:	004b0b13          	addi	x22,x22,4

# Testcase cmp_rd_rs1 (Test rd = rs1 = x11)
  RVTEST_TESTDATA_LOAD_INT(x23, x11) # load rs1: x11 = 0x8f95fbba
    2e8c:	000ba583          	lw	x11,0(x23)
    2e90:	004b8b93          	addi	x23,x23,4

00002e94 <I_andi_cg_cmp_rd_rs1_b11>:
I_andi_cg_cmp_rd_rs1_b11:
  andi x11, x11, -108 # perform operation
    2e94:	f945f593          	andi	x11,x11,-108
  # Check if x11 contains the expected result. x22 is the signature ptr, x14 is the link ptr, x13 is a temp reg.
  RVTEST_SIGUPD(x22, x14, x13, x11, I_andi_cg_cmp_rd_rs1_b11, I_andi_cg_cmp_rd_rs1_b11_str)
    2e98:	000b2683          	lw	x13,0(x22)
    2e9c:	00b68863          	beq	x13,x11,2eac <I_andi_cg_cmp_rd_rs1_b11+0x18>
    2ea0:	65c0076f          	jal	x14,34fc <failedtest_x14_x13>
    2ea4:	00002e94          	.word	0x00002e94
    2ea8:	0000e6ac          	.word	0x0000e6ac
    2eac:	004b0b13          	addi	x22,x22,4

# Testcase cmp_rd_rs1 (Test rd = rs1 = x12)
  RVTEST_TESTDATA_LOAD_INT(x23, x12) # load rs1: x12 = 0xdde2e77a
    2eb0:	000ba603          	lw	x12,0(x23)
    2eb4:	004b8b93          	addi	x23,x23,4

00002eb8 <I_andi_cg_cmp_rd_rs1_b12>:
I_andi_cg_cmp_rd_rs1_b12:
  andi x12, x12, -1497 # perform operation
    2eb8:	a2767613          	andi	x12,x12,-1497
  # Check if x12 contains the expected result. x22 is the signature ptr, x14 is the link ptr, x13 is a temp reg.
  RVTEST_SIGUPD(x22, x14, x13, x12, I_andi_cg_cmp_rd_rs1_b12, I_andi_cg_cmp_rd_rs1_b12_str)
    2ebc:	000b2683          	lw	x13,0(x22)
    2ec0:	00c68863          	beq	x13,x12,2ed0 <I_andi_cg_cmp_rd_rs1_b12+0x18>
    2ec4:	6380076f          	jal	x14,34fc <failedtest_x14_x13>
    2ec8:	00002eb8          	.word	0x00002eb8
    2ecc:	0000e6e1          	.word	0x0000e6e1
    2ed0:	004b0b13          	addi	x22,x22,4

  mv x4, x13 # switch temp register to avoid conflict with test
    2ed4:	00068213          	addi	x4,x13,0
  mv x5, x14 # switch link pointer register to avoid conflict with test
    2ed8:	00070293          	addi	x5,x14,0
# Testcase cmp_rd_rs1 (Test rd = rs1 = x13)
  RVTEST_TESTDATA_LOAD_INT(x23, x13) # load rs1: x13 = 0x02660cb3
    2edc:	000ba683          	lw	x13,0(x23)
    2ee0:	004b8b93          	addi	x23,x23,4

00002ee4 <I_andi_cg_cmp_rd_rs1_b13>:
I_andi_cg_cmp_rd_rs1_b13:
  andi x13, x13, 1944 # perform operation
    2ee4:	7986f693          	andi	x13,x13,1944
  # Check if x13 contains the expected result. x22 is the signature ptr, x5 is the link ptr, x4 is a temp reg.
  RVTEST_SIGUPD(x22, x5, x4, x13, I_andi_cg_cmp_rd_rs1_b13, I_andi_cg_cmp_rd_rs1_b13_str)
    2ee8:	000b2203          	lw	x4,0(x22)
    2eec:	00d20863          	beq	x4,x13,2efc <I_andi_cg_cmp_rd_rs1_b13+0x18>
    2ef0:	5cc002ef          	jal	x5,34bc <failedtest_x5_x4>
    2ef4:	00002ee4          	.word	0x00002ee4
    2ef8:	0000e716          	.word	0x0000e716
    2efc:	004b0b13          	addi	x22,x22,4

# Testcase cmp_rd_rs1 (Test rd = rs1 = x14)
  RVTEST_TESTDATA_LOAD_INT(x23, x14) # load rs1: x14 = 0xa05d0a18
    2f00:	000ba703          	lw	x14,0(x23)
    2f04:	004b8b93          	addi	x23,x23,4

00002f08 <I_andi_cg_cmp_rd_rs1_b14>:
I_andi_cg_cmp_rd_rs1_b14:
  andi x14, x14, -1102 # perform operation
    2f08:	bb277713          	andi	x14,x14,-1102
  # Check if x14 contains the expected result. x22 is the signature ptr, x5 is the link ptr, x4 is a temp reg.
  RVTEST_SIGUPD(x22, x5, x4, x14, I_andi_cg_cmp_rd_rs1_b14, I_andi_cg_cmp_rd_rs1_b14_str)
    2f0c:	000b2203          	lw	x4,0(x22)
    2f10:	00e20863          	beq	x4,x14,2f20 <I_andi_cg_cmp_rd_rs1_b14+0x18>
    2f14:	5a8002ef          	jal	x5,34bc <failedtest_x5_x4>
    2f18:	00002f08          	.word	0x00002f08
    2f1c:	0000e74b          	.word	0x0000e74b
    2f20:	004b0b13          	addi	x22,x22,4

# Testcase cmp_rd_rs1 (Test rd = rs1 = x15)
  RVTEST_TESTDATA_LOAD_INT(x23, x15) # load rs1: x15 = 0xd001894a
    2f24:	000ba783          	lw	x15,0(x23)
    2f28:	004b8b93          	addi	x23,x23,4

00002f2c <I_andi_cg_cmp_rd_rs1_b15>:
I_andi_cg_cmp_rd_rs1_b15:
  andi x15, x15, 1170 # perform operation
    2f2c:	4927f793          	andi	x15,x15,1170
  # Check if x15 contains the expected result. x22 is the signature ptr, x5 is the link ptr, x4 is a temp reg.
  RVTEST_SIGUPD(x22, x5, x4, x15, I_andi_cg_cmp_rd_rs1_b15, I_andi_cg_cmp_rd_rs1_b15_str)
    2f30:	000b2203          	lw	x4,0(x22)
    2f34:	00f20863          	beq	x4,x15,2f44 <I_andi_cg_cmp_rd_rs1_b15+0x18>
    2f38:	584002ef          	jal	x5,34bc <failedtest_x5_x4>
    2f3c:	00002f2c          	.word	0x00002f2c
    2f40:	0000e780          	.word	0x0000e780
    2f44:	004b0b13          	addi	x22,x22,4

# Testcase cmp_rd_rs1 (Test rd = rs1 = x16)
  RVTEST_TESTDATA_LOAD_INT(x23, x16) # load rs1: x16 = 0x8cd385e7
    2f48:	000ba803          	lw	x16,0(x23)
    2f4c:	004b8b93          	addi	x23,x23,4

00002f50 <I_andi_cg_cmp_rd_rs1_b16>:
I_andi_cg_cmp_rd_rs1_b16:
  andi x16, x16, -960 # perform operation
    2f50:	c4087813          	andi	x16,x16,-960
  # Check if x16 contains the expected result. x22 is the signature ptr, x5 is the link ptr, x4 is a temp reg.
  RVTEST_SIGUPD(x22, x5, x4, x16, I_andi_cg_cmp_rd_rs1_b16, I_andi_cg_cmp_rd_rs1_b16_str)
    2f54:	000b2203          	lw	x4,0(x22)
    2f58:	01020863          	beq	x4,x16,2f68 <I_andi_cg_cmp_rd_rs1_b16+0x18>
    2f5c:	560002ef          	jal	x5,34bc <failedtest_x5_x4>
    2f60:	00002f50          	.word	0x00002f50
    2f64:	0000e7b5          	.word	0x0000e7b5
    2f68:	004b0b13          	addi	x22,x22,4

# Testcase cmp_rd_rs1 (Test rd = rs1 = x17)
  RVTEST_TESTDATA_LOAD_INT(x23, x17) # load rs1: x17 = 0x86009bd8
    2f6c:	000ba883          	lw	x17,0(x23)
    2f70:	004b8b93          	addi	x23,x23,4

00002f74 <I_andi_cg_cmp_rd_rs1_b17>:
I_andi_cg_cmp_rd_rs1_b17:
  andi x17, x17, -43 # perform operation
    2f74:	fd58f893          	andi	x17,x17,-43
  # Check if x17 contains the expected result. x22 is the signature ptr, x5 is the link ptr, x4 is a temp reg.
  RVTEST_SIGUPD(x22, x5, x4, x17, I_andi_cg_cmp_rd_rs1_b17, I_andi_cg_cmp_rd_rs1_b17_str)
    2f78:	000b2203          	lw	x4,0(x22)
    2f7c:	01120863          	beq	x4,x17,2f8c <I_andi_cg_cmp_rd_rs1_b17+0x18>
    2f80:	53c002ef          	jal	x5,34bc <failedtest_x5_x4>
    2f84:	00002f74          	.word	0x00002f74
    2f88:	0000e7ea          	.word	0x0000e7ea
    2f8c:	004b0b13          	addi	x22,x22,4

# Testcase cmp_rd_rs1 (Test rd = rs1 = x18)
  RVTEST_TESTDATA_LOAD_INT(x23, x18) # load rs1: x18 = 0x6a6dabf2
    2f90:	000ba903          	lw	x18,0(x23)
    2f94:	004b8b93          	addi	x23,x23,4

00002f98 <I_andi_cg_cmp_rd_rs1_b18>:
I_andi_cg_cmp_rd_rs1_b18:
  andi x18, x18, 577 # perform operation
    2f98:	24197913          	andi	x18,x18,577
  # Check if x18 contains the expected result. x22 is the signature ptr, x5 is the link ptr, x4 is a temp reg.
  RVTEST_SIGUPD(x22, x5, x4, x18, I_andi_cg_cmp_rd_rs1_b18, I_andi_cg_cmp_rd_rs1_b18_str)
    2f9c:	000b2203          	lw	x4,0(x22)
    2fa0:	01220863          	beq	x4,x18,2fb0 <I_andi_cg_cmp_rd_rs1_b18+0x18>
    2fa4:	518002ef          	jal	x5,34bc <failedtest_x5_x4>
    2fa8:	00002f98          	.word	0x00002f98
    2fac:	0000e81f          	.word	0x0000e81f
    2fb0:	004b0b13          	addi	x22,x22,4

# Testcase cmp_rd_rs1 (Test rd = rs1 = x19)
  RVTEST_TESTDATA_LOAD_INT(x23, x19) # load rs1: x19 = 0x6fd4ecb6
    2fb4:	000ba983          	lw	x19,0(x23)
    2fb8:	004b8b93          	addi	x23,x23,4

00002fbc <I_andi_cg_cmp_rd_rs1_b19>:
I_andi_cg_cmp_rd_rs1_b19:
  andi x19, x19, 1796 # perform operation
    2fbc:	7049f993          	andi	x19,x19,1796
  # Check if x19 contains the expected result. x22 is the signature ptr, x5 is the link ptr, x4 is a temp reg.
  RVTEST_SIGUPD(x22, x5, x4, x19, I_andi_cg_cmp_rd_rs1_b19, I_andi_cg_cmp_rd_rs1_b19_str)
    2fc0:	000b2203          	lw	x4,0(x22)
    2fc4:	01320863          	beq	x4,x19,2fd4 <I_andi_cg_cmp_rd_rs1_b19+0x18>
    2fc8:	4f4002ef          	jal	x5,34bc <failedtest_x5_x4>
    2fcc:	00002fbc          	.word	0x00002fbc
    2fd0:	0000e854          	.word	0x0000e854
    2fd4:	004b0b13          	addi	x22,x22,4

# Testcase cmp_rd_rs1 (Test rd = rs1 = x20)
  RVTEST_TESTDATA_LOAD_INT(x23, x20) # load rs1: x20 = 0x2bd60a12
    2fd8:	000baa03          	lw	x20,0(x23)
    2fdc:	004b8b93          	addi	x23,x23,4

00002fe0 <I_andi_cg_cmp_rd_rs1_b20>:
I_andi_cg_cmp_rd_rs1_b20:
  andi x20, x20, 104 # perform operation
    2fe0:	068a7a13          	andi	x20,x20,104
  # Check if x20 contains the expected result. x22 is the signature ptr, x5 is the link ptr, x4 is a temp reg.
  RVTEST_SIGUPD(x22, x5, x4, x20, I_andi_cg_cmp_rd_rs1_b20, I_andi_cg_cmp_rd_rs1_b20_str)
    2fe4:	000b2203          	lw	x4,0(x22)
    2fe8:	01420863          	beq	x4,x20,2ff8 <I_andi_cg_cmp_rd_rs1_b20+0x18>
    2fec:	4d0002ef          	jal	x5,34bc <failedtest_x5_x4>
    2ff0:	00002fe0          	.word	0x00002fe0
    2ff4:	0000e889          	.word	0x0000e889
    2ff8:	004b0b13          	addi	x22,x22,4

# Testcase cmp_rd_rs1 (Test rd = rs1 = x21)
  RVTEST_TESTDATA_LOAD_INT(x23, x21) # load rs1: x21 = 0x8fedce96
    2ffc:	000baa83          	lw	x21,0(x23)
    3000:	004b8b93          	addi	x23,x23,4

00003004 <I_andi_cg_cmp_rd_rs1_b21>:
I_andi_cg_cmp_rd_rs1_b21:
  andi x21, x21, -1330 # perform operation
    3004:	aceafa93          	andi	x21,x21,-1330
  # Check if x21 contains the expected result. x22 is the signature ptr, x5 is the link ptr, x4 is a temp reg.
  RVTEST_SIGUPD(x22, x5, x4, x21, I_andi_cg_cmp_rd_rs1_b21, I_andi_cg_cmp_rd_rs1_b21_str)
    3008:	000b2203          	lw	x4,0(x22)
    300c:	01520863          	beq	x4,x21,301c <I_andi_cg_cmp_rd_rs1_b21+0x18>
    3010:	4ac002ef          	jal	x5,34bc <failedtest_x5_x4>
    3014:	00003004          	.word	0x00003004
    3018:	0000e8be          	.word	0x0000e8be
    301c:	004b0b13          	addi	x22,x22,4

  mv x27, x22 # switch signature pointer register to avoid conflict with test
    3020:	000b0d93          	addi	x27,x22,0
# Testcase cmp_rd_rs1 (Test rd = rs1 = x22)
  RVTEST_TESTDATA_LOAD_INT(x23, x22) # load rs1: x22 = 0xd9a5f79e
    3024:	000bab03          	lw	x22,0(x23)
    3028:	004b8b93          	addi	x23,x23,4

0000302c <I_andi_cg_cmp_rd_rs1_b22>:
I_andi_cg_cmp_rd_rs1_b22:
  andi x22, x22, 1781 # perform operation
    302c:	6f5b7b13          	andi	x22,x22,1781
  # Check if x22 contains the expected result. x27 is the signature ptr, x5 is the link ptr, x4 is a temp reg.
  RVTEST_SIGUPD(x27, x5, x4, x22, I_andi_cg_cmp_rd_rs1_b22, I_andi_cg_cmp_rd_rs1_b22_str)
    3030:	000da203          	lw	x4,0(x27)
    3034:	01620863          	beq	x4,x22,3044 <I_andi_cg_cmp_rd_rs1_b22+0x18>
    3038:	484002ef          	jal	x5,34bc <failedtest_x5_x4>
    303c:	0000302c          	.word	0x0000302c
    3040:	0000e8f3          	.word	0x0000e8f3
    3044:	004d8d93          	addi	x27,x27,4

  mv x20, x23 # switch data pointer register to avoid conflict with test
    3048:	000b8a13          	addi	x20,x23,0
# Testcase cmp_rd_rs1 (Test rd = rs1 = x23)
  RVTEST_TESTDATA_LOAD_INT(x20, x23) # load rs1: x23 = 0x39a2e1c8
    304c:	000a2b83          	lw	x23,0(x20)
    3050:	004a0a13          	addi	x20,x20,4

00003054 <I_andi_cg_cmp_rd_rs1_b23>:
I_andi_cg_cmp_rd_rs1_b23:
  andi x23, x23, -306 # perform operation
    3054:	ecebfb93          	andi	x23,x23,-306
  # Check if x23 contains the expected result. x27 is the signature ptr, x5 is the link ptr, x4 is a temp reg.
  RVTEST_SIGUPD(x27, x5, x4, x23, I_andi_cg_cmp_rd_rs1_b23, I_andi_cg_cmp_rd_rs1_b23_str)
    3058:	000da203          	lw	x4,0(x27)
    305c:	01720863          	beq	x4,x23,306c <I_andi_cg_cmp_rd_rs1_b23+0x18>
    3060:	45c002ef          	jal	x5,34bc <failedtest_x5_x4>
    3064:	00003054          	.word	0x00003054
    3068:	0000e928          	.word	0x0000e928
    306c:	004d8d93          	addi	x27,x27,4

# Testcase cmp_rd_rs1 (Test rd = rs1 = x24)
  RVTEST_TESTDATA_LOAD_INT(x20, x24) # load rs1: x24 = 0xe33d375a
    3070:	000a2c03          	lw	x24,0(x20)
    3074:	004a0a13          	addi	x20,x20,4

00003078 <I_andi_cg_cmp_rd_rs1_b24>:
I_andi_cg_cmp_rd_rs1_b24:
  andi x24, x24, -1410 # perform operation
    3078:	a7ec7c13          	andi	x24,x24,-1410
  # Check if x24 contains the expected result. x27 is the signature ptr, x5 is the link ptr, x4 is a temp reg.
  RVTEST_SIGUPD(x27, x5, x4, x24, I_andi_cg_cmp_rd_rs1_b24, I_andi_cg_cmp_rd_rs1_b24_str)
    307c:	000da203          	lw	x4,0(x27)
    3080:	01820863          	beq	x4,x24,3090 <I_andi_cg_cmp_rd_rs1_b24+0x18>
    3084:	438002ef          	jal	x5,34bc <failedtest_x5_x4>
    3088:	00003078          	.word	0x00003078
    308c:	0000e95d          	.word	0x0000e95d
    3090:	004d8d93          	addi	x27,x27,4

# Testcase cmp_rd_rs1 (Test rd = rs1 = x25)
  RVTEST_TESTDATA_LOAD_INT(x20, x25) # load rs1: x25 = 0x4bea6edc
    3094:	000a2c83          	lw	x25,0(x20)
    3098:	004a0a13          	addi	x20,x20,4

0000309c <I_andi_cg_cmp_rd_rs1_b25>:
I_andi_cg_cmp_rd_rs1_b25:
  andi x25, x25, 479 # perform operation
    309c:	1dfcfc93          	andi	x25,x25,479
  # Check if x25 contains the expected result. x27 is the signature ptr, x5 is the link ptr, x4 is a temp reg.
  RVTEST_SIGUPD(x27, x5, x4, x25, I_andi_cg_cmp_rd_rs1_b25, I_andi_cg_cmp_rd_rs1_b25_str)
    30a0:	000da203          	lw	x4,0(x27)
    30a4:	01920863          	beq	x4,x25,30b4 <I_andi_cg_cmp_rd_rs1_b25+0x18>
    30a8:	414002ef          	jal	x5,34bc <failedtest_x5_x4>
    30ac:	0000309c          	.word	0x0000309c
    30b0:	0000e992          	.word	0x0000e992
    30b4:	004d8d93          	addi	x27,x27,4

# Testcase cmp_rd_rs1 (Test rd = rs1 = x26)
  RVTEST_TESTDATA_LOAD_INT(x20, x26) # load rs1: x26 = 0x6da07587
    30b8:	000a2d03          	lw	x26,0(x20)
    30bc:	004a0a13          	addi	x20,x20,4

000030c0 <I_andi_cg_cmp_rd_rs1_b26>:
I_andi_cg_cmp_rd_rs1_b26:
  andi x26, x26, 520 # perform operation
    30c0:	208d7d13          	andi	x26,x26,520
  # Check if x26 contains the expected result. x27 is the signature ptr, x5 is the link ptr, x4 is a temp reg.
  RVTEST_SIGUPD(x27, x5, x4, x26, I_andi_cg_cmp_rd_rs1_b26, I_andi_cg_cmp_rd_rs1_b26_str)
    30c4:	000da203          	lw	x4,0(x27)
    30c8:	01a20863          	beq	x4,x26,30d8 <I_andi_cg_cmp_rd_rs1_b26+0x18>
    30cc:	3f0002ef          	jal	x5,34bc <failedtest_x5_x4>
    30d0:	000030c0          	.word	0x000030c0
    30d4:	0000e9c7          	.word	0x0000e9c7
    30d8:	004d8d93          	addi	x27,x27,4

  mv x3, x27 # switch signature pointer register to avoid conflict with test
    30dc:	000d8193          	addi	x3,x27,0
# Testcase cmp_rd_rs1 (Test rd = rs1 = x27)
  RVTEST_TESTDATA_LOAD_INT(x20, x27) # load rs1: x27 = 0x3bea6415
    30e0:	000a2d83          	lw	x27,0(x20)
    30e4:	004a0a13          	addi	x20,x20,4

000030e8 <I_andi_cg_cmp_rd_rs1_b27>:
I_andi_cg_cmp_rd_rs1_b27:
  andi x27, x27, 1880 # perform operation
    30e8:	758dfd93          	andi	x27,x27,1880
  # Check if x27 contains the expected result. x3 is the signature ptr, x5 is the link ptr, x4 is a temp reg.
  RVTEST_SIGUPD(x3, x5, x4, x27, I_andi_cg_cmp_rd_rs1_b27, I_andi_cg_cmp_rd_rs1_b27_str)
    30ec:	0001a203          	lw	x4,0(x3)
    30f0:	01b20863          	beq	x4,x27,3100 <I_andi_cg_cmp_rd_rs1_b27+0x18>
    30f4:	3c8002ef          	jal	x5,34bc <failedtest_x5_x4>
    30f8:	000030e8          	.word	0x000030e8
    30fc:	0000e9fc          	.word	0x0000e9fc
    3100:	00418193          	addi	x3,x3,4

# Testcase cmp_rd_rs1 (Test rd = rs1 = x28)
  RVTEST_TESTDATA_LOAD_INT(x20, x28) # load rs1: x28 = 0x2058f1bf
    3104:	000a2e03          	lw	x28,0(x20)
    3108:	004a0a13          	addi	x20,x20,4

0000310c <I_andi_cg_cmp_rd_rs1_b28>:
I_andi_cg_cmp_rd_rs1_b28:
  andi x28, x28, -1210 # perform operation
    310c:	b46e7e13          	andi	x28,x28,-1210
  # Check if x28 contains the expected result. x3 is the signature ptr, x5 is the link ptr, x4 is a temp reg.
  RVTEST_SIGUPD(x3, x5, x4, x28, I_andi_cg_cmp_rd_rs1_b28, I_andi_cg_cmp_rd_rs1_b28_str)
    3110:	0001a203          	lw	x4,0(x3)
    3114:	01c20863          	beq	x4,x28,3124 <I_andi_cg_cmp_rd_rs1_b28+0x18>
    3118:	3a4002ef          	jal	x5,34bc <failedtest_x5_x4>
    311c:	0000310c          	.word	0x0000310c
    3120:	0000ea31          	.word	0x0000ea31
    3124:	00418193          	addi	x3,x3,4

# Testcase cmp_rd_rs1 (Test rd = rs1 = x29)
  RVTEST_TESTDATA_LOAD_INT(x20, x29) # load rs1: x29 = 0x0897cd0d
    3128:	000a2e83          	lw	x29,0(x20)
    312c:	004a0a13          	addi	x20,x20,4

00003130 <I_andi_cg_cmp_rd_rs1_b29>:
I_andi_cg_cmp_rd_rs1_b29:
  andi x29, x29, 536 # perform operation
    3130:	218efe93          	andi	x29,x29,536
  # Check if x29 contains the expected result. x3 is the signature ptr, x5 is the link ptr, x4 is a temp reg.
  RVTEST_SIGUPD(x3, x5, x4, x29, I_andi_cg_cmp_rd_rs1_b29, I_andi_cg_cmp_rd_rs1_b29_str)
    3134:	0001a203          	lw	x4,0(x3)
    3138:	01d20863          	beq	x4,x29,3148 <I_andi_cg_cmp_rd_rs1_b29+0x18>
    313c:	380002ef          	jal	x5,34bc <failedtest_x5_x4>
    3140:	00003130          	.word	0x00003130
    3144:	0000ea66          	.word	0x0000ea66
    3148:	00418193          	addi	x3,x3,4

# Testcase cmp_rd_rs1 (Test rd = rs1 = x30)
  RVTEST_TESTDATA_LOAD_INT(x20, x30) # load rs1: x30 = 0x52666456
    314c:	000a2f03          	lw	x30,0(x20)
    3150:	004a0a13          	addi	x20,x20,4

00003154 <I_andi_cg_cmp_rd_rs1_b30>:
I_andi_cg_cmp_rd_rs1_b30:
  andi x30, x30, 1988 # perform operation
    3154:	7c4f7f13          	andi	x30,x30,1988
  # Check if x30 contains the expected result. x3 is the signature ptr, x5 is the link ptr, x4 is a temp reg.
  RVTEST_SIGUPD(x3, x5, x4, x30, I_andi_cg_cmp_rd_rs1_b30, I_andi_cg_cmp_rd_rs1_b30_str)
    3158:	0001a203          	lw	x4,0(x3)
    315c:	01e20863          	beq	x4,x30,316c <I_andi_cg_cmp_rd_rs1_b30+0x18>
    3160:	35c002ef          	jal	x5,34bc <failedtest_x5_x4>
    3164:	00003154          	.word	0x00003154
    3168:	0000ea9b          	.word	0x0000ea9b
    316c:	00418193          	addi	x3,x3,4

# Testcase cmp_rd_rs1 (Test rd = rs1 = x31)
  RVTEST_TESTDATA_LOAD_INT(x20, x31) # load rs1: x31 = 0x50713baa
    3170:	000a2f83          	lw	x31,0(x20)
    3174:	004a0a13          	addi	x20,x20,4

00003178 <I_andi_cg_cmp_rd_rs1_b31>:
I_andi_cg_cmp_rd_rs1_b31:
  andi x31, x31, 311 # perform operation
    3178:	137fff93          	andi	x31,x31,311
  # Check if x31 contains the expected result. x3 is the signature ptr, x5 is the link ptr, x4 is a temp reg.
  RVTEST_SIGUPD(x3, x5, x4, x31, I_andi_cg_cmp_rd_rs1_b31, I_andi_cg_cmp_rd_rs1_b31_str)
    317c:	0001a203          	lw	x4,0(x3)
    3180:	01f20863          	beq	x4,x31,3190 <I_andi_cg_cmp_rd_rs1_b31+0x18>
    3184:	338002ef          	jal	x5,34bc <failedtest_x5_x4>
    3188:	00003178          	.word	0x00003178
    318c:	0000ead0          	.word	0x0000ead0
    3190:	00418193          	addi	x3,x3,4
/////////////////////////////////
// cp_imm_edges
/////////////////////////////////

# Testcase cp_imm_edges (imm = 0)
  RVTEST_TESTDATA_LOAD_INT(x20, x11) # load rs1: x11 = 0x0f74ceb2
    3194:	000a2583          	lw	x11,0(x20)
    3198:	004a0a13          	addi	x20,x20,4

0000319c <I_andi_cg_cp_imm_edges_0x0>:
I_andi_cg_cp_imm_edges_0x0:
  andi x17, x11, 0 # perform operation
    319c:	0005f893          	andi	x17,x11,0
  # Check if x17 contains the expected result. x3 is the signature ptr, x5 is the link ptr, x4 is a temp reg.
  RVTEST_SIGUPD(x3, x5, x4, x17, I_andi_cg_cp_imm_edges_0x0, I_andi_cg_cp_imm_edges_0x0_str)
    31a0:	0001a203          	lw	x4,0(x3)
    31a4:	01120863          	beq	x4,x17,31b4 <I_andi_cg_cp_imm_edges_0x0+0x18>
    31a8:	314002ef          	jal	x5,34bc <failedtest_x5_x4>
    31ac:	0000319c          	.word	0x0000319c
    31b0:	0000eb05          	.word	0x0000eb05
    31b4:	00418193          	addi	x3,x3,4

# Testcase cp_imm_edges (imm = 1)
  RVTEST_TESTDATA_LOAD_INT(x20, x30) # load rs1: x30 = 0x1b1bafb5
    31b8:	000a2f03          	lw	x30,0(x20)
    31bc:	004a0a13          	addi	x20,x20,4

000031c0 <I_andi_cg_cp_imm_edges_0x1>:
I_andi_cg_cp_imm_edges_0x1:
  andi x24, x30, 1 # perform operation
    31c0:	001f7c13          	andi	x24,x30,1
  # Check if x24 contains the expected result. x3 is the signature ptr, x5 is the link ptr, x4 is a temp reg.
  RVTEST_SIGUPD(x3, x5, x4, x24, I_andi_cg_cp_imm_edges_0x1, I_andi_cg_cp_imm_edges_0x1_str)
    31c4:	0001a203          	lw	x4,0(x3)
    31c8:	01820863          	beq	x4,x24,31d8 <I_andi_cg_cp_imm_edges_0x1+0x18>
    31cc:	2f0002ef          	jal	x5,34bc <failedtest_x5_x4>
    31d0:	000031c0          	.word	0x000031c0
    31d4:	0000eb3c          	.word	0x0000eb3c
    31d8:	00418193          	addi	x3,x3,4

# Testcase cp_imm_edges (imm = 2)
  RVTEST_TESTDATA_LOAD_INT(x20, x24) # load rs1: x24 = 0xf751aa27
    31dc:	000a2c03          	lw	x24,0(x20)
    31e0:	004a0a13          	addi	x20,x20,4

000031e4 <I_andi_cg_cp_imm_edges_0x2>:
I_andi_cg_cp_imm_edges_0x2:
  andi x7, x24, 2 # perform operation
    31e4:	002c7393          	andi	x7,x24,2
  # Check if x7 contains the expected result. x3 is the signature ptr, x5 is the link ptr, x4 is a temp reg.
  RVTEST_SIGUPD(x3, x5, x4, x7, I_andi_cg_cp_imm_edges_0x2, I_andi_cg_cp_imm_edges_0x2_str)
    31e8:	0001a203          	lw	x4,0(x3)
    31ec:	00720863          	beq	x4,x7,31fc <I_andi_cg_cp_imm_edges_0x2+0x18>
    31f0:	2cc002ef          	jal	x5,34bc <failedtest_x5_x4>
    31f4:	000031e4          	.word	0x000031e4
    31f8:	0000eb73          	.word	0x0000eb73
    31fc:	00418193          	addi	x3,x3,4

# Testcase cp_imm_edges (imm = 3)
  RVTEST_TESTDATA_LOAD_INT(x20, x18) # load rs1: x18 = 0x2c87c497
    3200:	000a2903          	lw	x18,0(x20)
    3204:	004a0a13          	addi	x20,x20,4

00003208 <I_andi_cg_cp_imm_edges_0x3>:
I_andi_cg_cp_imm_edges_0x3:
  andi x9, x18, 3 # perform operation
    3208:	00397493          	andi	x9,x18,3
  # Check if x9 contains the expected result. x3 is the signature ptr, x5 is the link ptr, x4 is a temp reg.
  RVTEST_SIGUPD(x3, x5, x4, x9, I_andi_cg_cp_imm_edges_0x3, I_andi_cg_cp_imm_edges_0x3_str)
    320c:	0001a203          	lw	x4,0(x3)
    3210:	00920863          	beq	x4,x9,3220 <I_andi_cg_cp_imm_edges_0x3+0x18>
    3214:	2a8002ef          	jal	x5,34bc <failedtest_x5_x4>
    3218:	00003208          	.word	0x00003208
    321c:	0000ebaa          	.word	0x0000ebaa
    3220:	00418193          	addi	x3,x3,4

# Testcase cp_imm_edges (imm = 4)
  RVTEST_TESTDATA_LOAD_INT(x20, x21) # load rs1: x21 = 0x4b68485c
    3224:	000a2a83          	lw	x21,0(x20)
    3228:	004a0a13          	addi	x20,x20,4

0000322c <I_andi_cg_cp_imm_edges_0x4>:
I_andi_cg_cp_imm_edges_0x4:
  andi x2, x21, 4 # perform operation
    322c:	004af113          	andi	x2,x21,4
  # Check if x2 contains the expected result. x3 is the signature ptr, x5 is the link ptr, x4 is a temp reg.
  RVTEST_SIGUPD(x3, x5, x4, x2, I_andi_cg_cp_imm_edges_0x4, I_andi_cg_cp_imm_edges_0x4_str)
    3230:	0001a203          	lw	x4,0(x3)
    3234:	00220863          	beq	x4,x2,3244 <I_andi_cg_cp_imm_edges_0x4+0x18>
    3238:	284002ef          	jal	x5,34bc <failedtest_x5_x4>
    323c:	0000322c          	.word	0x0000322c
    3240:	0000ebe1          	.word	0x0000ebe1
    3244:	00418193          	addi	x3,x3,4

# Testcase cp_imm_edges (imm = 8)
  RVTEST_TESTDATA_LOAD_INT(x20, x28) # load rs1: x28 = 0x2f2f29c8
    3248:	000a2e03          	lw	x28,0(x20)
    324c:	004a0a13          	addi	x20,x20,4

00003250 <I_andi_cg_cp_imm_edges_0x8>:
I_andi_cg_cp_imm_edges_0x8:
  andi x24, x28, 8 # perform operation
    3250:	008e7c13          	andi	x24,x28,8
  # Check if x24 contains the expected result. x3 is the signature ptr, x5 is the link ptr, x4 is a temp reg.
  RVTEST_SIGUPD(x3, x5, x4, x24, I_andi_cg_cp_imm_edges_0x8, I_andi_cg_cp_imm_edges_0x8_str)
    3254:	0001a203          	lw	x4,0(x3)
    3258:	01820863          	beq	x4,x24,3268 <I_andi_cg_cp_imm_edges_0x8+0x18>
    325c:	260002ef          	jal	x5,34bc <failedtest_x5_x4>
    3260:	00003250          	.word	0x00003250
    3264:	0000ec18          	.word	0x0000ec18
    3268:	00418193          	addi	x3,x3,4

# Testcase cp_imm_edges (imm = 16)
  RVTEST_TESTDATA_LOAD_INT(x20, x18) # load rs1: x18 = 0xf1276ea2
    326c:	000a2903          	lw	x18,0(x20)
    3270:	004a0a13          	addi	x20,x20,4

00003274 <I_andi_cg_cp_imm_edges_0x10>:
I_andi_cg_cp_imm_edges_0x10:
  andi x15, x18, 16 # perform operation
    3274:	01097793          	andi	x15,x18,16
  # Check if x15 contains the expected result. x3 is the signature ptr, x5 is the link ptr, x4 is a temp reg.
  RVTEST_SIGUPD(x3, x5, x4, x15, I_andi_cg_cp_imm_edges_0x10, I_andi_cg_cp_imm_edges_0x10_str)
    3278:	0001a203          	lw	x4,0(x3)
    327c:	00f20863          	beq	x4,x15,328c <I_andi_cg_cp_imm_edges_0x10+0x18>
    3280:	23c002ef          	jal	x5,34bc <failedtest_x5_x4>
    3284:	00003274          	.word	0x00003274
    3288:	0000ec4f          	.word	0x0000ec4f
    328c:	00418193          	addi	x3,x3,4

# Testcase cp_imm_edges (imm = 32)
  RVTEST_TESTDATA_LOAD_INT(x20, x6) # load rs1: x6 = 0xf7979e91
    3290:	000a2303          	lw	x6,0(x20)
    3294:	004a0a13          	addi	x20,x20,4

00003298 <I_andi_cg_cp_imm_edges_0x20>:
I_andi_cg_cp_imm_edges_0x20:
  andi x27, x6, 32 # perform operation
    3298:	02037d93          	andi	x27,x6,32
  # Check if x27 contains the expected result. x3 is the signature ptr, x5 is the link ptr, x4 is a temp reg.
  RVTEST_SIGUPD(x3, x5, x4, x27, I_andi_cg_cp_imm_edges_0x20, I_andi_cg_cp_imm_edges_0x20_str)
    329c:	0001a203          	lw	x4,0(x3)
    32a0:	01b20863          	beq	x4,x27,32b0 <I_andi_cg_cp_imm_edges_0x20+0x18>
    32a4:	218002ef          	jal	x5,34bc <failedtest_x5_x4>
    32a8:	00003298          	.word	0x00003298
    32ac:	0000ec87          	.word	0x0000ec87
    32b0:	00418193          	addi	x3,x3,4

# Testcase cp_imm_edges (imm = 64)
  RVTEST_TESTDATA_LOAD_INT(x20, x21) # load rs1: x21 = 0xe3660fae
    32b4:	000a2a83          	lw	x21,0(x20)
    32b8:	004a0a13          	addi	x20,x20,4

000032bc <I_andi_cg_cp_imm_edges_0x40>:
I_andi_cg_cp_imm_edges_0x40:
  andi x9, x21, 64 # perform operation
    32bc:	040af493          	andi	x9,x21,64
  # Check if x9 contains the expected result. x3 is the signature ptr, x5 is the link ptr, x4 is a temp reg.
  RVTEST_SIGUPD(x3, x5, x4, x9, I_andi_cg_cp_imm_edges_0x40, I_andi_cg_cp_imm_edges_0x40_str)
    32c0:	0001a203          	lw	x4,0(x3)
    32c4:	00920863          	beq	x4,x9,32d4 <I_andi_cg_cp_imm_edges_0x40+0x18>
    32c8:	1f4002ef          	jal	x5,34bc <failedtest_x5_x4>
    32cc:	000032bc          	.word	0x000032bc
    32d0:	0000ecbf          	.word	0x0000ecbf
    32d4:	00418193          	addi	x3,x3,4

# Testcase cp_imm_edges (imm = 128)
  RVTEST_TESTDATA_LOAD_INT(x20, x2) # load rs1: x2 = 0x6d3a1a03
    32d8:	000a2103          	lw	x2,0(x20)
    32dc:	004a0a13          	addi	x20,x20,4

000032e0 <I_andi_cg_cp_imm_edges_0x80>:
I_andi_cg_cp_imm_edges_0x80:
  andi x28, x2, 128 # perform operation
    32e0:	08017e13          	andi	x28,x2,128
  # Check if x28 contains the expected result. x3 is the signature ptr, x5 is the link ptr, x4 is a temp reg.
  RVTEST_SIGUPD(x3, x5, x4, x28, I_andi_cg_cp_imm_edges_0x80, I_andi_cg_cp_imm_edges_0x80_str)
    32e4:	0001a203          	lw	x4,0(x3)
    32e8:	01c20863          	beq	x4,x28,32f8 <I_andi_cg_cp_imm_edges_0x80+0x18>
    32ec:	1d0002ef          	jal	x5,34bc <failedtest_x5_x4>
    32f0:	000032e0          	.word	0x000032e0
    32f4:	0000ecf7          	.word	0x0000ecf7
    32f8:	00418193          	addi	x3,x3,4

# Testcase cp_imm_edges (imm = 256)
  RVTEST_TESTDATA_LOAD_INT(x20, x17) # load rs1: x17 = 0x1319b23d
    32fc:	000a2883          	lw	x17,0(x20)
    3300:	004a0a13          	addi	x20,x20,4

00003304 <I_andi_cg_cp_imm_edges_0x100>:
I_andi_cg_cp_imm_edges_0x100:
  andi x28, x17, 256 # perform operation
    3304:	1008fe13          	andi	x28,x17,256
  # Check if x28 contains the expected result. x3 is the signature ptr, x5 is the link ptr, x4 is a temp reg.
  RVTEST_SIGUPD(x3, x5, x4, x28, I_andi_cg_cp_imm_edges_0x100, I_andi_cg_cp_imm_edges_0x100_str)
    3308:	0001a203          	lw	x4,0(x3)
    330c:	01c20863          	beq	x4,x28,331c <I_andi_cg_cp_imm_edges_0x100+0x18>
    3310:	1ac002ef          	jal	x5,34bc <failedtest_x5_x4>
    3314:	00003304          	.word	0x00003304
    3318:	0000ed2f          	.word	0x0000ed2f
    331c:	00418193          	addi	x3,x3,4

# Testcase cp_imm_edges (imm = 512)
  RVTEST_TESTDATA_LOAD_INT(x20, x7) # load rs1: x7 = 0x8b6d0cea
    3320:	000a2383          	lw	x7,0(x20)
    3324:	004a0a13          	addi	x20,x20,4

00003328 <I_andi_cg_cp_imm_edges_0x200>:
I_andi_cg_cp_imm_edges_0x200:
  andi x16, x7, 512 # perform operation
    3328:	2003f813          	andi	x16,x7,512
  # Check if x16 contains the expected result. x3 is the signature ptr, x5 is the link ptr, x4 is a temp reg.
  RVTEST_SIGUPD(x3, x5, x4, x16, I_andi_cg_cp_imm_edges_0x200, I_andi_cg_cp_imm_edges_0x200_str)
    332c:	0001a203          	lw	x4,0(x3)
    3330:	01020863          	beq	x4,x16,3340 <I_andi_cg_cp_imm_edges_0x200+0x18>
    3334:	188002ef          	jal	x5,34bc <failedtest_x5_x4>
    3338:	00003328          	.word	0x00003328
    333c:	0000ed68          	.word	0x0000ed68
    3340:	00418193          	addi	x3,x3,4

# Testcase cp_imm_edges (imm = 1023)
  RVTEST_TESTDATA_LOAD_INT(x20, x13) # load rs1: x13 = 0x87f5f282
    3344:	000a2683          	lw	x13,0(x20)
    3348:	004a0a13          	addi	x20,x20,4

0000334c <I_andi_cg_cp_imm_edges_0x3ff>:
I_andi_cg_cp_imm_edges_0x3ff:
  andi x18, x13, 1023 # perform operation
    334c:	3ff6f913          	andi	x18,x13,1023
  # Check if x18 contains the expected result. x3 is the signature ptr, x5 is the link ptr, x4 is a temp reg.
  RVTEST_SIGUPD(x3, x5, x4, x18, I_andi_cg_cp_imm_edges_0x3ff, I_andi_cg_cp_imm_edges_0x3ff_str)
    3350:	0001a203          	lw	x4,0(x3)
    3354:	01220863          	beq	x4,x18,3364 <I_andi_cg_cp_imm_edges_0x3ff+0x18>
    3358:	164002ef          	jal	x5,34bc <failedtest_x5_x4>
    335c:	0000334c          	.word	0x0000334c
    3360:	0000eda1          	.word	0x0000eda1
    3364:	00418193          	addi	x3,x3,4

# Testcase cp_imm_edges (imm = 1024)
  RVTEST_TESTDATA_LOAD_INT(x20, x12) # load rs1: x12 = 0x92a3bea3
    3368:	000a2603          	lw	x12,0(x20)
    336c:	004a0a13          	addi	x20,x20,4

00003370 <I_andi_cg_cp_imm_edges_0x400>:
I_andi_cg_cp_imm_edges_0x400:
  andi x30, x12, 1024 # perform operation
    3370:	40067f13          	andi	x30,x12,1024
  # Check if x30 contains the expected result. x3 is the signature ptr, x5 is the link ptr, x4 is a temp reg.
  RVTEST_SIGUPD(x3, x5, x4, x30, I_andi_cg_cp_imm_edges_0x400, I_andi_cg_cp_imm_edges_0x400_str)
    3374:	0001a203          	lw	x4,0(x3)
    3378:	01e20863          	beq	x4,x30,3388 <I_andi_cg_cp_imm_edges_0x400+0x18>
    337c:	140002ef          	jal	x5,34bc <failedtest_x5_x4>
    3380:	00003370          	.word	0x00003370
    3384:	0000edda          	.word	0x0000edda
    3388:	00418193          	addi	x3,x3,4

# Testcase cp_imm_edges (imm = 1795)
  RVTEST_TESTDATA_LOAD_INT(x20, x30) # load rs1: x30 = 0xaeee9aea
    338c:	000a2f03          	lw	x30,0(x20)
    3390:	004a0a13          	addi	x20,x20,4

00003394 <I_andi_cg_cp_imm_edges_0x703>:
I_andi_cg_cp_imm_edges_0x703:
  andi x10, x30, 1795 # perform operation
    3394:	703f7513          	andi	x10,x30,1795
  # Check if x10 contains the expected result. x3 is the signature ptr, x5 is the link ptr, x4 is a temp reg.
  RVTEST_SIGUPD(x3, x5, x4, x10, I_andi_cg_cp_imm_edges_0x703, I_andi_cg_cp_imm_edges_0x703_str)
    3398:	0001a203          	lw	x4,0(x3)
    339c:	00a20863          	beq	x4,x10,33ac <I_andi_cg_cp_imm_edges_0x703+0x18>
    33a0:	11c002ef          	jal	x5,34bc <failedtest_x5_x4>
    33a4:	00003394          	.word	0x00003394
    33a8:	0000ee13          	.word	0x0000ee13
    33ac:	00418193          	addi	x3,x3,4

# Testcase cp_imm_edges (imm = 2047)
  RVTEST_TESTDATA_LOAD_INT(x20, x17) # load rs1: x17 = 0xf3e21334
    33b0:	000a2883          	lw	x17,0(x20)
    33b4:	004a0a13          	addi	x20,x20,4

000033b8 <I_andi_cg_cp_imm_edges_0x7ff>:
I_andi_cg_cp_imm_edges_0x7ff:
  andi x2, x17, 2047 # perform operation
    33b8:	7ff8f113          	andi	x2,x17,2047
  # Check if x2 contains the expected result. x3 is the signature ptr, x5 is the link ptr, x4 is a temp reg.
  RVTEST_SIGUPD(x3, x5, x4, x2, I_andi_cg_cp_imm_edges_0x7ff, I_andi_cg_cp_imm_edges_0x7ff_str)
    33bc:	0001a203          	lw	x4,0(x3)
    33c0:	00220863          	beq	x4,x2,33d0 <I_andi_cg_cp_imm_edges_0x7ff+0x18>
    33c4:	0f8002ef          	jal	x5,34bc <failedtest_x5_x4>
    33c8:	000033b8          	.word	0x000033b8
    33cc:	0000ee4c          	.word	0x0000ee4c
    33d0:	00418193          	addi	x3,x3,4

# Testcase cp_imm_edges (imm = -2048)
  RVTEST_TESTDATA_LOAD_INT(x20, x25) # load rs1: x25 = 0xae139ca2
    33d4:	000a2c83          	lw	x25,0(x20)
    33d8:	004a0a13          	addi	x20,x20,4

000033dc <I_andi_cg_cp_imm_edges_m0x800>:
I_andi_cg_cp_imm_edges_m0x800:
  andi x18, x25, -2048 # perform operation
    33dc:	800cf913          	andi	x18,x25,-2048
  # Check if x18 contains the expected result. x3 is the signature ptr, x5 is the link ptr, x4 is a temp reg.
  RVTEST_SIGUPD(x3, x5, x4, x18, I_andi_cg_cp_imm_edges_m0x800, I_andi_cg_cp_imm_edges_m0x800_str)
    33e0:	0001a203          	lw	x4,0(x3)
    33e4:	01220863          	beq	x4,x18,33f4 <I_andi_cg_cp_imm_edges_m0x800+0x18>
    33e8:	0d4002ef          	jal	x5,34bc <failedtest_x5_x4>
    33ec:	000033dc          	.word	0x000033dc
    33f0:	0000ee85          	.word	0x0000ee85
    33f4:	00418193          	addi	x3,x3,4

# Testcase cp_imm_edges (imm = -2047)
  RVTEST_TESTDATA_LOAD_INT(x20, x21) # load rs1: x21 = 0x55e6b98c
    33f8:	000a2a83          	lw	x21,0(x20)
    33fc:	004a0a13          	addi	x20,x20,4

00003400 <I_andi_cg_cp_imm_edges_m0x7ff>:
I_andi_cg_cp_imm_edges_m0x7ff:
  andi x9, x21, -2047 # perform operation
    3400:	801af493          	andi	x9,x21,-2047
  # Check if x9 contains the expected result. x3 is the signature ptr, x5 is the link ptr, x4 is a temp reg.
  RVTEST_SIGUPD(x3, x5, x4, x9, I_andi_cg_cp_imm_edges_m0x7ff, I_andi_cg_cp_imm_edges_m0x7ff_str)
    3404:	0001a203          	lw	x4,0(x3)
    3408:	00920863          	beq	x4,x9,3418 <I_andi_cg_cp_imm_edges_m0x7ff+0x18>
    340c:	0b0002ef          	jal	x5,34bc <failedtest_x5_x4>
    3410:	00003400          	.word	0x00003400
    3414:	0000eebf          	.word	0x0000eebf
    3418:	00418193          	addi	x3,x3,4

# Testcase cp_imm_edges (imm = -2)
  RVTEST_TESTDATA_LOAD_INT(x20, x13) # load rs1: x13 = 0x6e9766f1
    341c:	000a2683          	lw	x13,0(x20)
    3420:	004a0a13          	addi	x20,x20,4

00003424 <I_andi_cg_cp_imm_edges_m0x2>:
I_andi_cg_cp_imm_edges_m0x2:
  andi x23, x13, -2 # perform operation
    3424:	ffe6fb93          	andi	x23,x13,-2
  # Check if x23 contains the expected result. x3 is the signature ptr, x5 is the link ptr, x4 is a temp reg.
  RVTEST_SIGUPD(x3, x5, x4, x23, I_andi_cg_cp_imm_edges_m0x2, I_andi_cg_cp_imm_edges_m0x2_str)
    3428:	0001a203          	lw	x4,0(x3)
    342c:	01720863          	beq	x4,x23,343c <I_andi_cg_cp_imm_edges_m0x2+0x18>
    3430:	08c002ef          	jal	x5,34bc <failedtest_x5_x4>
    3434:	00003424          	.word	0x00003424
    3438:	0000eef9          	.word	0x0000eef9
    343c:	00418193          	addi	x3,x3,4

# Testcase cp_imm_edges (imm = -1)
  RVTEST_TESTDATA_LOAD_INT(x20, x22) # load rs1: x22 = 0x8ec41a90
    3440:	000a2b03          	lw	x22,0(x20)
    3444:	004a0a13          	addi	x20,x20,4

00003448 <I_andi_cg_cp_imm_edges_m0x1>:
I_andi_cg_cp_imm_edges_m0x1:
  andi x10, x22, -1 # perform operation
    3448:	fffb7513          	andi	x10,x22,-1
  # Check if x10 contains the expected result. x3 is the signature ptr, x5 is the link ptr, x4 is a temp reg.
  RVTEST_SIGUPD(x3, x5, x4, x10, I_andi_cg_cp_imm_edges_m0x1, I_andi_cg_cp_imm_edges_m0x1_str)
    344c:	0001a203          	lw	x4,0(x3)
    3450:	00a20863          	beq	x4,x10,3460 <I_andi_cg_cp_imm_edges_m0x1+0x18>
    3454:	068002ef          	jal	x5,34bc <failedtest_x5_x4>
    3458:	00003448          	.word	0x00003448
    345c:	0000ef31          	.word	0x0000ef31
    3460:	00418193          	addi	x3,x3,4

  mv x2, x3 # restore signature pointer to default register for teardown
    3464:	00018113          	addi	x2,x3,0

00003468 <cleanup_epilogs>:
    3468:	00000013          	addi	x0,x0,0
    346c:	00000013          	addi	x0,x0,0
    3470:	00000013          	addi	x0,x0,0
    3474:	00000013          	addi	x0,x0,0
    3478:	00000013          	addi	x0,x0,0
    347c:	00000013          	addi	x0,x0,0

// Instantiate trap handlers and other epilog code, call RVMODEL_HALT at end of test
RVTEST_CODE_END
    3480:	0000c517          	auipc	x10,0xc
    3484:	15450513          	addi	x10,x10,340 # f5d4 <successstr>
    3488:	00000013          	addi	x0,x0,0
    348c:	00000013          	addi	x0,x0,0
    3490:	00000013          	addi	x0,x0,0
    3494:	00000013          	addi	x0,x0,0
    3498:	00000013          	addi	x0,x0,0
    349c:	00000013          	addi	x0,x0,0
    34a0:	0001d097          	auipc	x1,0x1d
    34a4:	d64080e7          	jalr	x1,-668(x1) # 20204 <rvmodel_io_write_str>
    34a8:	0001d097          	auipc	x1,0x1d
    34ac:	d60080e7          	jalr	x1,-672(x1) # 20208 <rvmodel_halt_pass>

000034b0 <abort_test>:
    34b0:	bad0e737          	lui	x14,0xbad0e
    34b4:	ead70713          	addi	x14,x14,-339 # bad0dead <absimm+0x4b743ba4>
    34b8:	fb1ff06f          	jal	x0,3468 <cleanup_epilogs>

000034bc <failedtest_x5_x4>:
    34bc:	0000c217          	auipc	x4,0xc
    34c0:	ab420213          	addi	x4,x4,-1356 # ef70 <begin_failure_scratch>
    34c4:	02522423          	sw	x5,40(x4) # 28 <MMODE_SIG+0x25>
    34c8:	00122423          	sw	x1,8(x4) # 8 <MMODE_SIG+0x5>
    34cc:	00022023          	sw	x0,0(x4) # 0 <rvtest_entry_point>
    34d0:	0b00006f          	jal	x0,3580 <failedtest_saveregs>

000034d4 <failedtest_x8_x7>:
    34d4:	0000c397          	auipc	x7,0xc
    34d8:	a9c38393          	addi	x7,x7,-1380 # ef70 <begin_failure_scratch>
    34dc:	0483a023          	sw	x8,64(x7)
    34e0:	0243a023          	sw	x4,32(x7)
    34e4:	0253a423          	sw	x5,40(x7)
    34e8:	0013a423          	sw	x1,8(x7)
    34ec:	0003a023          	sw	x0,0(x7)
    34f0:	00038213          	addi	x4,x7,0
    34f4:	00040293          	addi	x5,x8,0
    34f8:	0880006f          	jal	x0,3580 <failedtest_saveregs>

000034fc <failedtest_x14_x13>:
    34fc:	0000c697          	auipc	x13,0xc
    3500:	a7468693          	addi	x13,x13,-1420 # ef70 <begin_failure_scratch>
    3504:	06e6a823          	sw	x14,112(x13)
    3508:	0246a023          	sw	x4,32(x13)
    350c:	0256a423          	sw	x5,40(x13)
    3510:	0016a423          	sw	x1,8(x13)
    3514:	0006a023          	sw	x0,0(x13)
    3518:	00068213          	addi	x4,x13,0
    351c:	00070293          	addi	x5,x14,0
    3520:	0600006f          	jal	x0,3580 <failedtest_saveregs>

00003524 <failedtest_trap_x7_x9>:
    3524:	0000c497          	auipc	x9,0xc
    3528:	a4c48493          	addi	x9,x9,-1460 # ef70 <begin_failure_scratch>
    352c:	0674a423          	sw	x7,104(x9)
    3530:	0244a023          	sw	x4,32(x9)
    3534:	0254a423          	sw	x5,40(x9)
    3538:	0014a423          	sw	x1,8(x9)
    353c:	00300093          	addi	x1,x0,3
    3540:	0014a023          	sw	x1,0(x9)
    3544:	00048213          	addi	x4,x9,0
    3548:	00038293          	addi	x5,x7,0
    354c:	342020f3          	csrrs	x1,mcause,x0
    3550:	0000c497          	auipc	x9,0xc
    3554:	b9048493          	addi	x9,x9,-1136 # f0e0 <saved_mcause>
    3558:	0014a023          	sw	x1,0(x9)
    355c:	343020f3          	csrrs	x1,mtval,x0
    3560:	0000c497          	auipc	x9,0xc
    3564:	b8848493          	addi	x9,x9,-1144 # f0e8 <saved_mtval>
    3568:	0014a023          	sw	x1,0(x9)
    356c:	300020f3          	csrrs	x1,mstatus,x0
    3570:	0000c497          	auipc	x9,0xc
    3574:	b8048493          	addi	x9,x9,-1152 # f0f0 <saved_mstatus>
    3578:	0014a023          	sw	x1,0(x9)
    357c:	0040006f          	jal	x0,3580 <failedtest_saveregs>

00003580 <failedtest_saveregs>:
    3580:	00222823          	sw	x2,16(x4) # 10 <MMODE_SIG+0xd>
    3584:	00322c23          	sw	x3,24(x4) # 18 <MMODE_SIG+0x15>
    3588:	02622823          	sw	x6,48(x4) # 30 <MMODE_SIG+0x2d>
    358c:	02722c23          	sw	x7,56(x4) # 38 <MMODE_SIG+0x35>
    3590:	04822023          	sw	x8,64(x4) # 40 <rvtest_code_begin>
    3594:	04922423          	sw	x9,72(x4) # 48 <I_andi_cg_cp_rs1_b0>
    3598:	04a22823          	sw	x10,80(x4) # 50 <I_andi_cg_cp_rs1_b0+0x8>
    359c:	04b22c23          	sw	x11,88(x4) # 58 <I_andi_cg_cp_rs1_b0+0x10>
    35a0:	06c22023          	sw	x12,96(x4) # 60 <I_andi_cg_cp_rs1_b0+0x18>
    35a4:	06d22423          	sw	x13,104(x4) # 68 <I_andi_cg_cp_rs1_b0+0x20>
    35a8:	06e22823          	sw	x14,112(x4) # 70 <I_andi_cg_cp_rs1_b1+0x4>
    35ac:	06f22c23          	sw	x15,120(x4) # 78 <I_andi_cg_cp_rs1_b1+0xc>
    35b0:	09022023          	sw	x16,128(x4) # 80 <I_andi_cg_cp_rs1_b1+0x14>
    35b4:	09122423          	sw	x17,136(x4) # 88 <I_andi_cg_cp_rs1_b1+0x1c>
    35b8:	09222823          	sw	x18,144(x4) # 90 <I_andi_cg_cp_rs1_b1+0x24>
    35bc:	09322c23          	sw	x19,152(x4) # 98 <I_andi_cg_cp_rs1_b2+0x4>
    35c0:	0b422023          	sw	x20,160(x4) # a0 <I_andi_cg_cp_rs1_b2+0xc>
    35c4:	0b522423          	sw	x21,168(x4) # a8 <I_andi_cg_cp_rs1_b2+0x14>
    35c8:	0b622823          	sw	x22,176(x4) # b0 <I_andi_cg_cp_rs1_b2+0x1c>
    35cc:	0b722c23          	sw	x23,184(x4) # b8 <I_andi_cg_cp_rs1_b2+0x24>
    35d0:	0d822023          	sw	x24,192(x4) # c0 <I_andi_cg_cp_rs1_b3+0x4>
    35d4:	0d922423          	sw	x25,200(x4) # c8 <I_andi_cg_cp_rs1_b3+0xc>
    35d8:	0da22823          	sw	x26,208(x4) # d0 <I_andi_cg_cp_rs1_b3+0x14>
    35dc:	0db22c23          	sw	x27,216(x4) # d8 <I_andi_cg_cp_rs1_b3+0x1c>
    35e0:	0fc22023          	sw	x28,224(x4) # e0 <I_andi_cg_cp_rs1_b3+0x24>
    35e4:	0fd22423          	sw	x29,232(x4) # e8 <I_andi_cg_cp_rs1_b4>
    35e8:	0fe22823          	sw	x30,240(x4) # f0 <I_andi_cg_cp_rs1_b4+0x8>
    35ec:	0ff22c23          	sw	x31,248(x4) # f8 <I_andi_cg_cp_rs1_b4+0x10>

000035f0 <failedtest_saveresults>:
    35f0:	0000c497          	auipc	x9,0xc
    35f4:	9804a483          	lw	x9,-1664(x9) # ef70 <begin_failure_scratch>
    35f8:	00300513          	addi	x10,x0,3
    35fc:	06a48863          	beq	x9,x10,366c <failedtest_saveresults_trap>

00003600 <failedtest_saveresults_int>:
    3600:	ffa2d303          	lhu	x6,-6(x5)
    3604:	ff82d383          	lhu	x7,-8(x5)
    3608:	01031313          	slli	x6,x6,0x10
    360c:	00736333          	or	x6,x6,x7
    3610:	00f35393          	srli	x7,x6,0xf
    3614:	01f3f393          	andi	x7,x7,31
    3618:	01435413          	srli	x8,x6,0x14
    361c:	01f47413          	andi	x8,x8,31
    3620:	10822223          	sw	x8,260(x4) # 104 <I_andi_cg_cp_rs1_b4+0x1c>
    3624:	00341313          	slli	x6,x8,0x3
    3628:	00620333          	add	x6,x4,x6
    362c:	00032303          	lw	x6,0(x6)
    3630:	10622823          	sw	x6,272(x4) # 110 <I_andi_cg_cp_rs1_b5+0x4>
    3634:	ff62d303          	lhu	x6,-10(x5)
    3638:	ff42d383          	lhu	x7,-12(x5)
    363c:	01031313          	slli	x6,x6,0x10
    3640:	00736333          	or	x6,x6,x7
    3644:	41435393          	srai	x7,x6,0x14
    3648:	00f35313          	srli	x6,x6,0xf
    364c:	01f37313          	andi	x6,x6,31
    3650:	00331313          	slli	x6,x6,0x3
    3654:	00620333          	add	x6,x4,x6
    3658:	00032303          	lw	x6,0(x6)
    365c:	00730333          	add	x6,x6,x7
    3660:	00032303          	lw	x6,0(x6)
    3664:	10622c23          	sw	x6,280(x4) # 118 <I_andi_cg_cp_rs1_b5+0xc>
    3668:	3d80006f          	jal	x0,3a40 <failedtest_saveresults_common>

0000366c <failedtest_saveresults_trap>:
    366c:	0042a303          	lw	x6,4(x5)
    3670:	0000c817          	auipc	x16,0xc
    3674:	a5880813          	addi	x16,x16,-1448 # f0c8 <trap_diag_fail_str_ptr>
    3678:	00682023          	sw	x6,0(x16)
    367c:	0002a303          	lw	x6,0(x5)
    3680:	10622423          	sw	x6,264(x4) # 108 <I_andi_cg_cp_rs1_b4+0x20>
    3684:	0000c817          	auipc	x16,0xc
    3688:	a4480813          	addi	x16,x16,-1468 # f0c8 <trap_diag_fail_str_ptr>
    368c:	00082303          	lw	x6,0(x16)
    3690:	0000c397          	auipc	x7,0xc
    3694:	10c38393          	addi	x7,x7,268 # f79c <trap_sig_offset_mismatch>
    3698:	28730463          	beq	x6,x7,3920 <trap_diag_offset_mismatch>
    369c:	00000413          	addi	x8,x0,0
    36a0:	0000c817          	auipc	x16,0xc
    36a4:	a0080813          	addi	x16,x16,-1536 # f0a0 <trap_diag_subtype>
    36a8:	00882023          	sw	x8,0(x16)
    36ac:	0000c397          	auipc	x7,0xc
    36b0:	15438393          	addi	x7,x7,340 # f800 <sv_Mvect_str>
    36b4:	00731863          	bne	x6,x7,36c4 <failedtest_saveresults_trap+0x58>
    36b8:	00100413          	addi	x8,x0,1
    36bc:	00000493          	addi	x9,x0,0
    36c0:	2e00006f          	jal	x0,39a0 <trap_diag_field_identified>
    36c4:	0000c397          	auipc	x7,0xc
    36c8:	23e38393          	addi	x7,x7,574 # f902 <sv_Mcause_str>
    36cc:	00731863          	bne	x6,x7,36dc <failedtest_saveresults_trap+0x70>
    36d0:	00200413          	addi	x8,x0,2
    36d4:	00000493          	addi	x9,x0,0
    36d8:	2c80006f          	jal	x0,39a0 <trap_diag_field_identified>
    36dc:	0000c397          	auipc	x7,0xc
    36e0:	32138393          	addi	x7,x7,801 # f9fd <sv_Mepc_str>
    36e4:	00731863          	bne	x6,x7,36f4 <failedtest_saveresults_trap+0x88>
    36e8:	00300413          	addi	x8,x0,3
    36ec:	00000493          	addi	x9,x0,0
    36f0:	2b00006f          	jal	x0,39a0 <trap_diag_field_identified>
    36f4:	0000c397          	auipc	x7,0xc
    36f8:	3fc38393          	addi	x7,x7,1020 # faf0 <sv_Mtval_str>
    36fc:	00731863          	bne	x6,x7,370c <failedtest_saveresults_trap+0xa0>
    3700:	00400413          	addi	x8,x0,4
    3704:	00000493          	addi	x9,x0,0
    3708:	2980006f          	jal	x0,39a0 <trap_diag_field_identified>
    370c:	0000c397          	auipc	x7,0xc
    3710:	55738393          	addi	x7,x7,1367 # fc63 <sv_Mip_str>
    3714:	00731863          	bne	x6,x7,3724 <failedtest_saveresults_trap+0xb8>
    3718:	00500413          	addi	x8,x0,5
    371c:	00000493          	addi	x9,x0,0
    3720:	2800006f          	jal	x0,39a0 <trap_diag_field_identified>
    3724:	0000c397          	auipc	x7,0xc
    3728:	4c338393          	addi	x7,x7,1219 # fbe7 <sv_Mtval2_str>
    372c:	00731863          	bne	x6,x7,373c <failedtest_saveresults_trap+0xd0>
    3730:	00600413          	addi	x8,x0,6
    3734:	00000493          	addi	x9,x0,0
    3738:	2680006f          	jal	x0,39a0 <trap_diag_field_identified>
    373c:	0000c397          	auipc	x7,0xc
    3740:	4e938393          	addi	x7,x7,1257 # fc25 <sv_Mtinst_str>
    3744:	00731863          	bne	x6,x7,3754 <failedtest_saveresults_trap+0xe8>
    3748:	00700413          	addi	x8,x0,7
    374c:	00000493          	addi	x9,x0,0
    3750:	2500006f          	jal	x0,39a0 <trap_diag_field_identified>
    3754:	0000c397          	auipc	x7,0xc
    3758:	0ec38393          	addi	x7,x7,236 # f840 <sv_Svect_str>
    375c:	00731863          	bne	x6,x7,376c <failedtest_saveresults_trap+0x100>
    3760:	00100413          	addi	x8,x0,1
    3764:	00100493          	addi	x9,x0,1
    3768:	2380006f          	jal	x0,39a0 <trap_diag_field_identified>
    376c:	0000c397          	auipc	x7,0xc
    3770:	1d438393          	addi	x7,x7,468 # f940 <sv_Scause_str>
    3774:	00731863          	bne	x6,x7,3784 <failedtest_saveresults_trap+0x118>
    3778:	00200413          	addi	x8,x0,2
    377c:	00100493          	addi	x9,x0,1
    3780:	2200006f          	jal	x0,39a0 <trap_diag_field_identified>
    3784:	0000c397          	auipc	x7,0xc
    3788:	2b538393          	addi	x7,x7,693 # fa39 <sv_Sepc_str>
    378c:	00731863          	bne	x6,x7,379c <failedtest_saveresults_trap+0x130>
    3790:	00300413          	addi	x8,x0,3
    3794:	00100493          	addi	x9,x0,1
    3798:	2080006f          	jal	x0,39a0 <trap_diag_field_identified>
    379c:	0000c397          	auipc	x7,0xc
    37a0:	39138393          	addi	x7,x7,913 # fb2d <sv_Stval_str>
    37a4:	00731863          	bne	x6,x7,37b4 <failedtest_saveresults_trap+0x148>
    37a8:	00400413          	addi	x8,x0,4
    37ac:	00100493          	addi	x9,x0,1
    37b0:	1f00006f          	jal	x0,39a0 <trap_diag_field_identified>
    37b4:	0000c397          	auipc	x7,0xc
    37b8:	4ea38393          	addi	x7,x7,1258 # fc9e <sv_Sip_str>
    37bc:	00731863          	bne	x6,x7,37cc <failedtest_saveresults_trap+0x160>
    37c0:	00500413          	addi	x8,x0,5
    37c4:	00100493          	addi	x9,x0,1
    37c8:	1d80006f          	jal	x0,39a0 <trap_diag_field_identified>
    37cc:	0000c397          	auipc	x7,0xc
    37d0:	0b438393          	addi	x7,x7,180 # f880 <sv_Hvect_str>
    37d4:	00731863          	bne	x6,x7,37e4 <failedtest_saveresults_trap+0x178>
    37d8:	00100413          	addi	x8,x0,1
    37dc:	00200493          	addi	x9,x0,2
    37e0:	1c00006f          	jal	x0,39a0 <trap_diag_field_identified>
    37e4:	0000c397          	auipc	x7,0xc
    37e8:	19a38393          	addi	x7,x7,410 # f97e <sv_Hcause_str>
    37ec:	00731863          	bne	x6,x7,37fc <failedtest_saveresults_trap+0x190>
    37f0:	00200413          	addi	x8,x0,2
    37f4:	00200493          	addi	x9,x0,2
    37f8:	1a80006f          	jal	x0,39a0 <trap_diag_field_identified>
    37fc:	0000c397          	auipc	x7,0xc
    3800:	27938393          	addi	x7,x7,633 # fa75 <sv_Hepc_str>
    3804:	00731863          	bne	x6,x7,3814 <failedtest_saveresults_trap+0x1a8>
    3808:	00300413          	addi	x8,x0,3
    380c:	00200493          	addi	x9,x0,2
    3810:	1900006f          	jal	x0,39a0 <trap_diag_field_identified>
    3814:	0000c397          	auipc	x7,0xc
    3818:	35638393          	addi	x7,x7,854 # fb6a <sv_Htval_str>
    381c:	00731863          	bne	x6,x7,382c <failedtest_saveresults_trap+0x1c0>
    3820:	00400413          	addi	x8,x0,4
    3824:	00200493          	addi	x9,x0,2
    3828:	1780006f          	jal	x0,39a0 <trap_diag_field_identified>
    382c:	0000c397          	auipc	x7,0xc
    3830:	4ad38393          	addi	x7,x7,1197 # fcd9 <sv_Hip_str>
    3834:	00731863          	bne	x6,x7,3844 <failedtest_saveresults_trap+0x1d8>
    3838:	00500413          	addi	x8,x0,5
    383c:	00200493          	addi	x9,x0,2
    3840:	1600006f          	jal	x0,39a0 <trap_diag_field_identified>
    3844:	0000c397          	auipc	x7,0xc
    3848:	07d38393          	addi	x7,x7,125 # f8c1 <sv_Vvect_str>
    384c:	00731863          	bne	x6,x7,385c <failedtest_saveresults_trap+0x1f0>
    3850:	00100413          	addi	x8,x0,1
    3854:	00300493          	addi	x9,x0,3
    3858:	1480006f          	jal	x0,39a0 <trap_diag_field_identified>
    385c:	0000c397          	auipc	x7,0xc
    3860:	16138393          	addi	x7,x7,353 # f9bd <sv_Vcause_str>
    3864:	00731863          	bne	x6,x7,3874 <failedtest_saveresults_trap+0x208>
    3868:	00200413          	addi	x8,x0,2
    386c:	00300493          	addi	x9,x0,3
    3870:	1300006f          	jal	x0,39a0 <trap_diag_field_identified>
    3874:	0000c397          	auipc	x7,0xc
    3878:	23e38393          	addi	x7,x7,574 # fab2 <sv_Vepc_str>
    387c:	00731863          	bne	x6,x7,388c <failedtest_saveresults_trap+0x220>
    3880:	00300413          	addi	x8,x0,3
    3884:	00300493          	addi	x9,x0,3
    3888:	1180006f          	jal	x0,39a0 <trap_diag_field_identified>
    388c:	0000c397          	auipc	x7,0xc
    3890:	31c38393          	addi	x7,x7,796 # fba8 <sv_Vtval_str>
    3894:	00731863          	bne	x6,x7,38a4 <failedtest_saveresults_trap+0x238>
    3898:	00400413          	addi	x8,x0,4
    389c:	00300493          	addi	x9,x0,3
    38a0:	1000006f          	jal	x0,39a0 <trap_diag_field_identified>
    38a4:	0000c397          	auipc	x7,0xc
    38a8:	47138393          	addi	x7,x7,1137 # fd15 <sv_Vip_str>
    38ac:	00731863          	bne	x6,x7,38bc <failedtest_saveresults_trap+0x250>
    38b0:	00500413          	addi	x8,x0,5
    38b4:	00300493          	addi	x9,x0,3
    38b8:	0e80006f          	jal	x0,39a0 <trap_diag_field_identified>
    38bc:	0000c397          	auipc	x7,0xc
    38c0:	49638393          	addi	x7,x7,1174 # fd52 <Mclr_Mext_int_str>
    38c4:	00731863          	bne	x6,x7,38d4 <failedtest_saveresults_trap+0x268>
    38c8:	00800413          	addi	x8,x0,8
    38cc:	00000493          	addi	x9,x0,0
    38d0:	0d00006f          	jal	x0,39a0 <trap_diag_field_identified>
    38d4:	0000c397          	auipc	x7,0xc
    38d8:	4cd38393          	addi	x7,x7,1229 # fda1 <Mclr_Sext_int_str>
    38dc:	00731863          	bne	x6,x7,38ec <failedtest_saveresults_trap+0x280>
    38e0:	00800413          	addi	x8,x0,8
    38e4:	00000493          	addi	x9,x0,0
    38e8:	0b80006f          	jal	x0,39a0 <trap_diag_field_identified>
    38ec:	0000c397          	auipc	x7,0xc
    38f0:	5b038393          	addi	x7,x7,1456 # fe9c <Sclr_Sext_int_str>
    38f4:	00731863          	bne	x6,x7,3904 <failedtest_saveresults_trap+0x298>
    38f8:	00800413          	addi	x8,x0,8
    38fc:	00100493          	addi	x9,x0,1
    3900:	0a00006f          	jal	x0,39a0 <trap_diag_field_identified>
    3904:	0000c397          	auipc	x7,0xc
    3908:	69438393          	addi	x7,x7,1684 # ff98 <Hclr_Sext_int_str>
    390c:	00731863          	bne	x6,x7,391c <failedtest_saveresults_trap+0x2b0>
    3910:	00800413          	addi	x8,x0,8
    3914:	00200493          	addi	x9,x0,2
    3918:	0880006f          	jal	x0,39a0 <trap_diag_field_identified>
    391c:	1140006f          	jal	x0,3a30 <trap_diag_generic_report>

00003920 <trap_diag_offset_mismatch>:
    3920:	00900413          	addi	x8,x0,9
    3924:	0000b817          	auipc	x16,0xb
    3928:	77c80813          	addi	x16,x16,1916 # f0a0 <trap_diag_subtype>
    392c:	00882023          	sw	x8,0(x16)
    3930:	ffa2d303          	lhu	x6,-6(x5)
    3934:	ff82d383          	lhu	x7,-8(x5)
    3938:	01031313          	slli	x6,x6,0x10
    393c:	00736333          	or	x6,x6,x7
    3940:	01435413          	srli	x8,x6,0x14
    3944:	01f47413          	andi	x8,x8,31
    3948:	00341313          	slli	x6,x8,0x3
    394c:	00620333          	add	x6,x4,x6
    3950:	00032303          	lw	x6,0(x6)
    3954:	0000b817          	auipc	x16,0xb
    3958:	76480813          	addi	x16,x16,1892 # f0b8 <trap_diag_actual_offset>
    395c:	00682023          	sw	x6,0(x16)
    3960:	ff62d303          	lhu	x6,-10(x5)
    3964:	ff42d383          	lhu	x7,-12(x5)
    3968:	01031313          	slli	x6,x6,0x10
    396c:	00736333          	or	x6,x6,x7
    3970:	41435393          	srai	x7,x6,0x14
    3974:	00f35313          	srli	x6,x6,0xf
    3978:	01f37313          	andi	x6,x6,31
    397c:	00331313          	slli	x6,x6,0x3
    3980:	00620333          	add	x6,x4,x6
    3984:	00032303          	lw	x6,0(x6)
    3988:	00730333          	add	x6,x6,x7
    398c:	00032303          	lw	x6,0(x6)
    3990:	0000b817          	auipc	x16,0xb
    3994:	73080813          	addi	x16,x16,1840 # f0c0 <trap_diag_expected_offset>
    3998:	00682023          	sw	x6,0(x16)
    399c:	0a40006f          	jal	x0,3a40 <failedtest_saveresults_common>

000039a0 <trap_diag_field_identified>:
    39a0:	0000b817          	auipc	x16,0xb
    39a4:	70080813          	addi	x16,x16,1792 # f0a0 <trap_diag_subtype>
    39a8:	00882023          	sw	x8,0(x16)
    39ac:	0000b817          	auipc	x16,0xb
    39b0:	6f880813          	addi	x16,x16,1784 # f0a4 <trap_diag_mode>
    39b4:	00982023          	sw	x9,0(x16)
    39b8:	ffa2d303          	lhu	x6,-6(x5)
    39bc:	ff82d383          	lhu	x7,-8(x5)
    39c0:	01031313          	slli	x6,x6,0x10
    39c4:	00736333          	or	x6,x6,x7
    39c8:	01435713          	srli	x14,x6,0x14
    39cc:	01f77713          	andi	x14,x14,31
    39d0:	00371313          	slli	x6,x14,0x3
    39d4:	00620333          	add	x6,x4,x6
    39d8:	00032303          	lw	x6,0(x6)
    39dc:	10622823          	sw	x6,272(x4) # 110 <I_andi_cg_cp_rs1_b5+0x4>
    39e0:	0000b817          	auipc	x16,0xb
    39e4:	6c880813          	addi	x16,x16,1736 # f0a8 <trap_diag_actual_value>
    39e8:	00682023          	sw	x6,0(x16)
    39ec:	ff62d303          	lhu	x6,-10(x5)
    39f0:	ff42d383          	lhu	x7,-12(x5)
    39f4:	01031313          	slli	x6,x6,0x10
    39f8:	00736333          	or	x6,x6,x7
    39fc:	41435393          	srai	x7,x6,0x14
    3a00:	00f35313          	srli	x6,x6,0xf
    3a04:	01f37313          	andi	x6,x6,31
    3a08:	00331313          	slli	x6,x6,0x3
    3a0c:	00620333          	add	x6,x4,x6
    3a10:	00032303          	lw	x6,0(x6)
    3a14:	00730333          	add	x6,x6,x7
    3a18:	00032303          	lw	x6,0(x6)
    3a1c:	10622c23          	sw	x6,280(x4) # 118 <I_andi_cg_cp_rs1_b5+0xc>
    3a20:	0000b817          	auipc	x16,0xb
    3a24:	69080813          	addi	x16,x16,1680 # f0b0 <trap_diag_expected_value>
    3a28:	00682023          	sw	x6,0(x16)
    3a2c:	0140006f          	jal	x0,3a40 <failedtest_saveresults_common>

00003a30 <trap_diag_generic_report>:
    3a30:	0000b817          	auipc	x16,0xb
    3a34:	67080813          	addi	x16,x16,1648 # f0a0 <trap_diag_subtype>
    3a38:	00082023          	sw	x0,0(x16)
    3a3c:	0040006f          	jal	x0,3a40 <failedtest_saveresults_common>

00003a40 <failedtest_saveresults_common>:
    3a40:	0002a303          	lw	x6,0(x5)
    3a44:	10622423          	sw	x6,264(x4) # 108 <I_andi_cg_cp_rs1_b4+0x20>
    3a48:	00035383          	lhu	x7,0(x6)
    3a4c:	0033f413          	andi	x8,x7,3
    3a50:	00300493          	addi	x9,x0,3
    3a54:	00941863          	bne	x8,x9,3a64 <failedtest_saveresults_common+0x24>
    3a58:	00235403          	lhu	x8,2(x6)
    3a5c:	01041413          	slli	x8,x8,0x10
    3a60:	0083e3b3          	or	x7,x7,x8
    3a64:	10722023          	sw	x7,256(x4) # 100 <I_andi_cg_cp_rs1_b4+0x18>
    3a68:	0042a303          	lw	x6,4(x5)
    3a6c:	12622023          	sw	x6,288(x4) # 120 <I_andi_cg_cp_rs1_b5+0x14>

00003a70 <failedtest_report>:
    3a70:	00000013          	addi	x0,x0,0
    3a74:	00000013          	addi	x0,x0,0
    3a78:	00000013          	addi	x0,x0,0
    3a7c:	00000013          	addi	x0,x0,0
    3a80:	0000c517          	auipc	x10,0xc
    3a84:	b8b50513          	addi	x10,x10,-1141 # f60b <failstr>
    3a88:	00000013          	addi	x0,x0,0
    3a8c:	00000013          	addi	x0,x0,0
    3a90:	00000013          	addi	x0,x0,0
    3a94:	00000013          	addi	x0,x0,0
    3a98:	00000013          	addi	x0,x0,0
    3a9c:	00000013          	addi	x0,x0,0
    3aa0:	0001c097          	auipc	x1,0x1c
    3aa4:	764080e7          	jalr	x1,1892(x1) # 20204 <rvmodel_io_write_str>

00003aa8 <print_testnamestr>:
    3aa8:	00000013          	addi	x0,x0,0
    3aac:	00000013          	addi	x0,x0,0
    3ab0:	00000013          	addi	x0,x0,0
    3ab4:	00000013          	addi	x0,x0,0
    3ab8:	00000013          	addi	x0,x0,0
    3abc:	00000013          	addi	x0,x0,0
    3ac0:	0000c517          	auipc	x10,0xc
    3ac4:	bdf50513          	addi	x10,x10,-1057 # f69f <testnamestr>
    3ac8:	00000013          	addi	x0,x0,0
    3acc:	00000013          	addi	x0,x0,0
    3ad0:	00000013          	addi	x0,x0,0
    3ad4:	00000013          	addi	x0,x0,0
    3ad8:	00000013          	addi	x0,x0,0
    3adc:	00000013          	addi	x0,x0,0
    3ae0:	0001c097          	auipc	x1,0x1c
    3ae4:	724080e7          	jalr	x1,1828(x1) # 20204 <rvmodel_io_write_str>

00003ae8 <print_failure_test_name_str>:
    3ae8:	0000b517          	auipc	x10,0xb
    3aec:	5a852503          	lw	x10,1448(x10) # f090 <failure_string_ptr>
    3af0:	0001c097          	auipc	x1,0x1c
    3af4:	714080e7          	jalr	x1,1812(x1) # 20204 <rvmodel_io_write_str>

00003af8 <print_newline_str>:
    3af8:	00000013          	addi	x0,x0,0
    3afc:	00000013          	addi	x0,x0,0
    3b00:	0000c517          	auipc	x10,0xc
    3b04:	bb150513          	addi	x10,x10,-1103 # f6b1 <newlinestr>
    3b08:	00000013          	addi	x0,x0,0
    3b0c:	00000013          	addi	x0,x0,0
    3b10:	00000013          	addi	x0,x0,0
    3b14:	00000013          	addi	x0,x0,0
    3b18:	00000013          	addi	x0,x0,0
    3b1c:	00000013          	addi	x0,x0,0
    3b20:	0001c097          	auipc	x1,0x1c
    3b24:	6e4080e7          	jalr	x1,1764(x1) # 20204 <rvmodel_io_write_str>
    3b28:	0000b517          	auipc	x10,0xb
    3b2c:	44852503          	lw	x10,1096(x10) # ef70 <begin_failure_scratch>
    3b30:	00300593          	addi	x11,x0,3
    3b34:	3eb50c63          	beq	x10,x11,3f2c <failedtest_report_trap_detailed>
    3b38:	00000013          	addi	x0,x0,0
    3b3c:	00000013          	addi	x0,x0,0
    3b40:	0000c517          	auipc	x10,0xc
    3b44:	b7350513          	addi	x10,x10,-1165 # f6b3 <inststr>
    3b48:	00000013          	addi	x0,x0,0
    3b4c:	00000013          	addi	x0,x0,0
    3b50:	00000013          	addi	x0,x0,0
    3b54:	00000013          	addi	x0,x0,0
    3b58:	00000013          	addi	x0,x0,0
    3b5c:	00000013          	addi	x0,x0,0
    3b60:	0001c097          	auipc	x1,0x1c
    3b64:	6a4080e7          	jalr	x1,1700(x1) # 20204 <rvmodel_io_write_str>
    3b68:	0000b517          	auipc	x10,0xb
    3b6c:	50852503          	lw	x10,1288(x10) # f070 <failing_instruction>
    3b70:	02000593          	addi	x11,x0,32
    3b74:	00357613          	andi	x12,x10,3
    3b78:	00300693          	addi	x13,x0,3
    3b7c:	00d60463          	beq	x12,x13,3b84 <print_newline_str+0x8c>
    3b80:	01000593          	addi	x11,x0,16
    3b84:	2f4010ef          	jal	x1,4e78 <failedtest_hex_to_str>
    3b88:	00000013          	addi	x0,x0,0
    3b8c:	00000013          	addi	x0,x0,0
    3b90:	00000013          	addi	x0,x0,0
    3b94:	00000013          	addi	x0,x0,0
    3b98:	00000013          	addi	x0,x0,0
    3b9c:	00000013          	addi	x0,x0,0
    3ba0:	0000b517          	auipc	x10,0xb
    3ba4:	55850513          	addi	x10,x10,1368 # f0f8 <ascii_buffer>
    3ba8:	00000013          	addi	x0,x0,0
    3bac:	00000013          	addi	x0,x0,0
    3bb0:	00000013          	addi	x0,x0,0
    3bb4:	00000013          	addi	x0,x0,0
    3bb8:	00000013          	addi	x0,x0,0
    3bbc:	00000013          	addi	x0,x0,0
    3bc0:	0001c097          	auipc	x1,0x1c
    3bc4:	644080e7          	jalr	x1,1604(x1) # 20204 <rvmodel_io_write_str>
    3bc8:	00000013          	addi	x0,x0,0
    3bcc:	00000013          	addi	x0,x0,0
    3bd0:	00000013          	addi	x0,x0,0
    3bd4:	00000013          	addi	x0,x0,0
    3bd8:	00000013          	addi	x0,x0,0
    3bdc:	00000013          	addi	x0,x0,0
    3be0:	0000c517          	auipc	x10,0xc
    3be4:	ae750513          	addi	x10,x10,-1305 # f6c7 <addrstr>
    3be8:	00000013          	addi	x0,x0,0
    3bec:	00000013          	addi	x0,x0,0
    3bf0:	00000013          	addi	x0,x0,0
    3bf4:	00000013          	addi	x0,x0,0
    3bf8:	00000013          	addi	x0,x0,0
    3bfc:	00000013          	addi	x0,x0,0
    3c00:	0001c097          	auipc	x1,0x1c
    3c04:	604080e7          	jalr	x1,1540(x1) # 20204 <rvmodel_io_write_str>
    3c08:	0000b517          	auipc	x10,0xb
    3c0c:	47052503          	lw	x10,1136(x10) # f078 <failing_addr>
    3c10:	02000593          	addi	x11,x0,32
    3c14:	264010ef          	jal	x1,4e78 <failedtest_hex_to_str>
    3c18:	00000013          	addi	x0,x0,0
    3c1c:	00000013          	addi	x0,x0,0
    3c20:	0000b517          	auipc	x10,0xb
    3c24:	4d850513          	addi	x10,x10,1240 # f0f8 <ascii_buffer>
    3c28:	00000013          	addi	x0,x0,0
    3c2c:	00000013          	addi	x0,x0,0
    3c30:	00000013          	addi	x0,x0,0
    3c34:	00000013          	addi	x0,x0,0
    3c38:	00000013          	addi	x0,x0,0
    3c3c:	00000013          	addi	x0,x0,0
    3c40:	0001c097          	auipc	x1,0x1c
    3c44:	5c4080e7          	jalr	x1,1476(x1) # 20204 <rvmodel_io_write_str>
    3c48:	00000013          	addi	x0,x0,0
    3c4c:	00000013          	addi	x0,x0,0
    3c50:	00000013          	addi	x0,x0,0
    3c54:	00000013          	addi	x0,x0,0
    3c58:	00000013          	addi	x0,x0,0
    3c5c:	00000013          	addi	x0,x0,0
    3c60:	0000c517          	auipc	x10,0xc
    3c64:	4e450513          	addi	x10,x10,1252 # 10144 <regstr>
    3c68:	00000013          	addi	x0,x0,0
    3c6c:	00000013          	addi	x0,x0,0
    3c70:	00000013          	addi	x0,x0,0
    3c74:	00000013          	addi	x0,x0,0
    3c78:	00000013          	addi	x0,x0,0
    3c7c:	00000013          	addi	x0,x0,0
    3c80:	0001c097          	auipc	x1,0x1c
    3c84:	584080e7          	jalr	x1,1412(x1) # 20204 <rvmodel_io_write_str>
    3c88:	0000b517          	auipc	x10,0xb
    3c8c:	2e852503          	lw	x10,744(x10) # ef70 <begin_failure_scratch>
    3c90:	00050663          	beq	x10,x0,3c9c <print_newline_str+0x1a4>
    3c94:	00300593          	addi	x11,x0,3
    3c98:	04b51063          	bne	x10,x11,3cd8 <failedtest_report_not_intreg>
    3c9c:	07800593          	addi	x11,x0,120
    3ca0:	0000b617          	auipc	x12,0xb
    3ca4:	45860613          	addi	x12,x12,1112 # f0f8 <ascii_buffer>
    3ca8:	00000013          	addi	x0,x0,0
    3cac:	00000013          	addi	x0,x0,0
    3cb0:	00000013          	addi	x0,x0,0
    3cb4:	00000013          	addi	x0,x0,0
    3cb8:	00000013          	addi	x0,x0,0
    3cbc:	00000013          	addi	x0,x0,0
    3cc0:	00b60023          	sb	x11,0(x12)
    3cc4:	00160613          	addi	x12,x12,1
    3cc8:	0000b517          	auipc	x10,0xb
    3ccc:	3ac52503          	lw	x10,940(x10) # f074 <failing_reg>
    3cd0:	224010ef          	jal	x1,4ef4 <failedtest_dec_to_str>
    3cd4:	0e00006f          	jal	x0,3db4 <failedtest_report_print_regstr>

00003cd8 <failedtest_report_not_intreg>:
    3cd8:	00100593          	addi	x11,x0,1
    3cdc:	04b50863          	beq	x10,x11,3d2c <failedtest_report_fpreg>
    3ce0:	00400593          	addi	x11,x0,4
    3ce4:	08b50a63          	beq	x10,x11,3d78 <failedtest_report_vecreg>
    3ce8:	00000013          	addi	x0,x0,0
    3cec:	00000013          	addi	x0,x0,0
    3cf0:	00000013          	addi	x0,x0,0
    3cf4:	00000013          	addi	x0,x0,0
    3cf8:	00000013          	addi	x0,x0,0
    3cfc:	00000013          	addi	x0,x0,0
    3d00:	0000c517          	auipc	x10,0xc
    3d04:	4a450513          	addi	x10,x10,1188 # 101a4 <fflagsstr>
    3d08:	00000013          	addi	x0,x0,0
    3d0c:	00000013          	addi	x0,x0,0
    3d10:	00000013          	addi	x0,x0,0
    3d14:	00000013          	addi	x0,x0,0
    3d18:	00000013          	addi	x0,x0,0
    3d1c:	00000013          	addi	x0,x0,0
    3d20:	0001c097          	auipc	x1,0x1c
    3d24:	4e4080e7          	jalr	x1,1252(x1) # 20204 <rvmodel_io_write_str>
    3d28:	0c00006f          	jal	x0,3de8 <failedtest_report_after_reg>

00003d2c <failedtest_report_fpreg>:
    3d2c:	06600593          	addi	x11,x0,102
    3d30:	00000013          	addi	x0,x0,0
    3d34:	00000013          	addi	x0,x0,0
    3d38:	00000013          	addi	x0,x0,0
    3d3c:	00000013          	addi	x0,x0,0
    3d40:	0000b617          	auipc	x12,0xb
    3d44:	3b860613          	addi	x12,x12,952 # f0f8 <ascii_buffer>
    3d48:	00000013          	addi	x0,x0,0
    3d4c:	00000013          	addi	x0,x0,0
    3d50:	00000013          	addi	x0,x0,0
    3d54:	00000013          	addi	x0,x0,0
    3d58:	00000013          	addi	x0,x0,0
    3d5c:	00000013          	addi	x0,x0,0
    3d60:	00b60023          	sb	x11,0(x12)
    3d64:	00160613          	addi	x12,x12,1
    3d68:	0000b517          	auipc	x10,0xb
    3d6c:	30c52503          	lw	x10,780(x10) # f074 <failing_reg>
    3d70:	184010ef          	jal	x1,4ef4 <failedtest_dec_to_str>
    3d74:	0400006f          	jal	x0,3db4 <failedtest_report_print_regstr>

00003d78 <failedtest_report_vecreg>:
    3d78:	07600593          	addi	x11,x0,118
    3d7c:	00000013          	addi	x0,x0,0
    3d80:	0000b617          	auipc	x12,0xb
    3d84:	37860613          	addi	x12,x12,888 # f0f8 <ascii_buffer>
    3d88:	00000013          	addi	x0,x0,0
    3d8c:	00000013          	addi	x0,x0,0
    3d90:	00000013          	addi	x0,x0,0
    3d94:	00000013          	addi	x0,x0,0
    3d98:	00000013          	addi	x0,x0,0
    3d9c:	00000013          	addi	x0,x0,0
    3da0:	00b60023          	sb	x11,0(x12)
    3da4:	00160613          	addi	x12,x12,1
    3da8:	0000b517          	auipc	x10,0xb
    3dac:	2cc52503          	lw	x10,716(x10) # f074 <failing_reg>
    3db0:	144010ef          	jal	x1,4ef4 <failedtest_dec_to_str>

00003db4 <failedtest_report_print_regstr>:
    3db4:	00000013          	addi	x0,x0,0
    3db8:	00000013          	addi	x0,x0,0
    3dbc:	00000013          	addi	x0,x0,0
    3dc0:	0000b517          	auipc	x10,0xb
    3dc4:	33850513          	addi	x10,x10,824 # f0f8 <ascii_buffer>
    3dc8:	00000013          	addi	x0,x0,0
    3dcc:	00000013          	addi	x0,x0,0
    3dd0:	00000013          	addi	x0,x0,0
    3dd4:	00000013          	addi	x0,x0,0
    3dd8:	00000013          	addi	x0,x0,0
    3ddc:	00000013          	addi	x0,x0,0
    3de0:	0001c097          	auipc	x1,0x1c
    3de4:	424080e7          	jalr	x1,1060(x1) # 20204 <rvmodel_io_write_str>

00003de8 <failedtest_report_after_reg>:
    3de8:	00000013          	addi	x0,x0,0
    3dec:	00000013          	addi	x0,x0,0
    3df0:	00000013          	addi	x0,x0,0
    3df4:	00000013          	addi	x0,x0,0
    3df8:	00000013          	addi	x0,x0,0
    3dfc:	00000013          	addi	x0,x0,0
    3e00:	0000c517          	auipc	x10,0xc
    3e04:	35550513          	addi	x10,x10,853 # 10155 <badvalstr>
    3e08:	00000013          	addi	x0,x0,0
    3e0c:	00000013          	addi	x0,x0,0
    3e10:	00000013          	addi	x0,x0,0
    3e14:	00000013          	addi	x0,x0,0
    3e18:	00000013          	addi	x0,x0,0
    3e1c:	00000013          	addi	x0,x0,0
    3e20:	0001c097          	auipc	x1,0x1c
    3e24:	3e4080e7          	jalr	x1,996(x1) # 20204 <rvmodel_io_write_str>
    3e28:	0000b517          	auipc	x10,0xb
    3e2c:	14852503          	lw	x10,328(x10) # ef70 <begin_failure_scratch>
    3e30:	00100593          	addi	x11,x0,1
    3e34:	00b51c63          	bne	x10,x11,3e4c <failedtest_report_badval_not_fp>
    3e38:	0000b517          	auipc	x10,0xb
    3e3c:	24852503          	lw	x10,584(x10) # f080 <failing_value>
    3e40:	02000593          	addi	x11,x0,32
    3e44:	034010ef          	jal	x1,4e78 <failedtest_hex_to_str>
    3e48:	0140006f          	jal	x0,3e5c <failedtest_report_badval_done>

00003e4c <failedtest_report_badval_not_fp>:
    3e4c:	0000b517          	auipc	x10,0xb
    3e50:	23452503          	lw	x10,564(x10) # f080 <failing_value>
    3e54:	02000593          	addi	x11,x0,32
    3e58:	020010ef          	jal	x1,4e78 <failedtest_hex_to_str>

00003e5c <failedtest_report_badval_done>:
    3e5c:	00000013          	addi	x0,x0,0
    3e60:	0000b517          	auipc	x10,0xb
    3e64:	29850513          	addi	x10,x10,664 # f0f8 <ascii_buffer>
    3e68:	00000013          	addi	x0,x0,0
    3e6c:	00000013          	addi	x0,x0,0
    3e70:	00000013          	addi	x0,x0,0
    3e74:	00000013          	addi	x0,x0,0
    3e78:	00000013          	addi	x0,x0,0
    3e7c:	00000013          	addi	x0,x0,0
    3e80:	0001c097          	auipc	x1,0x1c
    3e84:	384080e7          	jalr	x1,900(x1) # 20204 <rvmodel_io_write_str>
    3e88:	00000013          	addi	x0,x0,0
    3e8c:	00000013          	addi	x0,x0,0
    3e90:	00000013          	addi	x0,x0,0
    3e94:	00000013          	addi	x0,x0,0
    3e98:	00000013          	addi	x0,x0,0
    3e9c:	00000013          	addi	x0,x0,0
    3ea0:	0000c517          	auipc	x10,0xc
    3ea4:	2cc50513          	addi	x10,x10,716 # 1016c <expvalstr>
    3ea8:	00000013          	addi	x0,x0,0
    3eac:	00000013          	addi	x0,x0,0
    3eb0:	00000013          	addi	x0,x0,0
    3eb4:	00000013          	addi	x0,x0,0
    3eb8:	00000013          	addi	x0,x0,0
    3ebc:	00000013          	addi	x0,x0,0
    3ec0:	0001c097          	auipc	x1,0x1c
    3ec4:	344080e7          	jalr	x1,836(x1) # 20204 <rvmodel_io_write_str>
    3ec8:	0000b517          	auipc	x10,0xb
    3ecc:	0a852503          	lw	x10,168(x10) # ef70 <begin_failure_scratch>
    3ed0:	00100593          	addi	x11,x0,1
    3ed4:	00b51c63          	bne	x10,x11,3eec <failedtest_report_expval_not_fp>
    3ed8:	0000b517          	auipc	x10,0xb
    3edc:	1b052503          	lw	x10,432(x10) # f088 <expected_value>
    3ee0:	02000593          	addi	x11,x0,32
    3ee4:	795000ef          	jal	x1,4e78 <failedtest_hex_to_str>
    3ee8:	0140006f          	jal	x0,3efc <failedtest_report_expval_done>

00003eec <failedtest_report_expval_not_fp>:
    3eec:	0000b517          	auipc	x10,0xb
    3ef0:	19c52503          	lw	x10,412(x10) # f088 <expected_value>
    3ef4:	02000593          	addi	x11,x0,32
    3ef8:	781000ef          	jal	x1,4e78 <failedtest_hex_to_str>

00003efc <failedtest_report_expval_done>:
    3efc:	00000013          	addi	x0,x0,0
    3f00:	0000b517          	auipc	x10,0xb
    3f04:	1f850513          	addi	x10,x10,504 # f0f8 <ascii_buffer>
    3f08:	00000013          	addi	x0,x0,0
    3f0c:	00000013          	addi	x0,x0,0
    3f10:	00000013          	addi	x0,x0,0
    3f14:	00000013          	addi	x0,x0,0
    3f18:	00000013          	addi	x0,x0,0
    3f1c:	00000013          	addi	x0,x0,0
    3f20:	0001c097          	auipc	x1,0x1c
    3f24:	2e4080e7          	jalr	x1,740(x1) # 20204 <rvmodel_io_write_str>
    3f28:	4fd0006f          	jal	x0,4c24 <failedtest_report_end>

00003f2c <failedtest_report_trap_detailed>:
    3f2c:	00000013          	addi	x0,x0,0
    3f30:	00000013          	addi	x0,x0,0
    3f34:	00000013          	addi	x0,x0,0
    3f38:	00000013          	addi	x0,x0,0
    3f3c:	00000013          	addi	x0,x0,0
    3f40:	0000c517          	auipc	x10,0xc
    3f44:	29050513          	addi	x10,x10,656 # 101d0 <trap_diag_header_str>
    3f48:	00000013          	addi	x0,x0,0
    3f4c:	00000013          	addi	x0,x0,0
    3f50:	00000013          	addi	x0,x0,0
    3f54:	00000013          	addi	x0,x0,0
    3f58:	00000013          	addi	x0,x0,0
    3f5c:	00000013          	addi	x0,x0,0
    3f60:	0001c097          	auipc	x1,0x1c
    3f64:	2a4080e7          	jalr	x1,676(x1) # 20204 <rvmodel_io_write_str>
    3f68:	00000013          	addi	x0,x0,0
    3f6c:	00000013          	addi	x0,x0,0
    3f70:	00000013          	addi	x0,x0,0
    3f74:	00000013          	addi	x0,x0,0
    3f78:	00000013          	addi	x0,x0,0
    3f7c:	00000013          	addi	x0,x0,0
    3f80:	0000c517          	auipc	x10,0xc
    3f84:	27c50513          	addi	x10,x10,636 # 101fc <trap_diag_origstr_label>
    3f88:	00000013          	addi	x0,x0,0
    3f8c:	00000013          	addi	x0,x0,0
    3f90:	00000013          	addi	x0,x0,0
    3f94:	00000013          	addi	x0,x0,0
    3f98:	00000013          	addi	x0,x0,0
    3f9c:	00000013          	addi	x0,x0,0
    3fa0:	0001c097          	auipc	x1,0x1c
    3fa4:	264080e7          	jalr	x1,612(x1) # 20204 <rvmodel_io_write_str>
    3fa8:	0000b817          	auipc	x16,0xb
    3fac:	12080813          	addi	x16,x16,288 # f0c8 <trap_diag_fail_str_ptr>
    3fb0:	00082503          	lw	x10,0(x16)
    3fb4:	0001c097          	auipc	x1,0x1c
    3fb8:	250080e7          	jalr	x1,592(x1) # 20204 <rvmodel_io_write_str>
    3fbc:	00000013          	addi	x0,x0,0
    3fc0:	0000b517          	auipc	x10,0xb
    3fc4:	6f150513          	addi	x10,x10,1777 # f6b1 <newlinestr>
    3fc8:	00000013          	addi	x0,x0,0
    3fcc:	00000013          	addi	x0,x0,0
    3fd0:	00000013          	addi	x0,x0,0
    3fd4:	00000013          	addi	x0,x0,0
    3fd8:	00000013          	addi	x0,x0,0
    3fdc:	00000013          	addi	x0,x0,0
    3fe0:	0001c097          	auipc	x1,0x1c
    3fe4:	224080e7          	jalr	x1,548(x1) # 20204 <rvmodel_io_write_str>
    3fe8:	0000b417          	auipc	x8,0xb
    3fec:	0b842403          	lw	x8,184(x8) # f0a0 <trap_diag_subtype>
    3ff0:	00900493          	addi	x9,x0,9
    3ff4:	00940663          	beq	x8,x9,4000 <trap_report_offset_mismatch>
    3ff8:	2a040ce3          	beq	x8,x0,4ab0 <trap_report_generic>
    3ffc:	3780006f          	jal	x0,4374 <trap_report_field_mismatch>

00004000 <trap_report_offset_mismatch>:
    4000:	0000c517          	auipc	x10,0xc
    4004:	20c50513          	addi	x10,x10,524 # 1020c <trap_diag_count_mismatch_str>
    4008:	00000013          	addi	x0,x0,0
    400c:	00000013          	addi	x0,x0,0
    4010:	00000013          	addi	x0,x0,0
    4014:	00000013          	addi	x0,x0,0
    4018:	00000013          	addi	x0,x0,0
    401c:	00000013          	addi	x0,x0,0
    4020:	0001c097          	auipc	x1,0x1c
    4024:	1e4080e7          	jalr	x1,484(x1) # 20204 <rvmodel_io_write_str>
    4028:	00000013          	addi	x0,x0,0
    402c:	00000013          	addi	x0,x0,0
    4030:	00000013          	addi	x0,x0,0
    4034:	00000013          	addi	x0,x0,0
    4038:	00000013          	addi	x0,x0,0
    403c:	00000013          	addi	x0,x0,0
    4040:	0000c517          	auipc	x10,0xc
    4044:	22d50513          	addi	x10,x10,557 # 1026d <trap_diag_expected_offset_str>
    4048:	00000013          	addi	x0,x0,0
    404c:	00000013          	addi	x0,x0,0
    4050:	00000013          	addi	x0,x0,0
    4054:	00000013          	addi	x0,x0,0
    4058:	00000013          	addi	x0,x0,0
    405c:	00000013          	addi	x0,x0,0
    4060:	0001c097          	auipc	x1,0x1c
    4064:	1a4080e7          	jalr	x1,420(x1) # 20204 <rvmodel_io_write_str>
    4068:	0000b517          	auipc	x10,0xb
    406c:	05852503          	lw	x10,88(x10) # f0c0 <trap_diag_expected_offset>
    4070:	02000593          	addi	x11,x0,32
    4074:	605000ef          	jal	x1,4e78 <failedtest_hex_to_str>
    4078:	00000013          	addi	x0,x0,0
    407c:	00000013          	addi	x0,x0,0
    4080:	0000b517          	auipc	x10,0xb
    4084:	07850513          	addi	x10,x10,120 # f0f8 <ascii_buffer>
    4088:	00000013          	addi	x0,x0,0
    408c:	00000013          	addi	x0,x0,0
    4090:	00000013          	addi	x0,x0,0
    4094:	00000013          	addi	x0,x0,0
    4098:	00000013          	addi	x0,x0,0
    409c:	00000013          	addi	x0,x0,0
    40a0:	0001c097          	auipc	x1,0x1c
    40a4:	164080e7          	jalr	x1,356(x1) # 20204 <rvmodel_io_write_str>
    40a8:	00000013          	addi	x0,x0,0
    40ac:	00000013          	addi	x0,x0,0
    40b0:	00000013          	addi	x0,x0,0
    40b4:	00000013          	addi	x0,x0,0
    40b8:	00000013          	addi	x0,x0,0
    40bc:	00000013          	addi	x0,x0,0
    40c0:	0000c517          	auipc	x10,0xc
    40c4:	1d450513          	addi	x10,x10,468 # 10294 <trap_diag_actual_offset_str>
    40c8:	00000013          	addi	x0,x0,0
    40cc:	00000013          	addi	x0,x0,0
    40d0:	00000013          	addi	x0,x0,0
    40d4:	00000013          	addi	x0,x0,0
    40d8:	00000013          	addi	x0,x0,0
    40dc:	00000013          	addi	x0,x0,0
    40e0:	0001c097          	auipc	x1,0x1c
    40e4:	124080e7          	jalr	x1,292(x1) # 20204 <rvmodel_io_write_str>
    40e8:	0000b517          	auipc	x10,0xb
    40ec:	fd052503          	lw	x10,-48(x10) # f0b8 <trap_diag_actual_offset>
    40f0:	02000593          	addi	x11,x0,32
    40f4:	585000ef          	jal	x1,4e78 <failedtest_hex_to_str>
    40f8:	00000013          	addi	x0,x0,0
    40fc:	00000013          	addi	x0,x0,0
    4100:	0000b517          	auipc	x10,0xb
    4104:	ff850513          	addi	x10,x10,-8 # f0f8 <ascii_buffer>
    4108:	00000013          	addi	x0,x0,0
    410c:	00000013          	addi	x0,x0,0
    4110:	00000013          	addi	x0,x0,0
    4114:	00000013          	addi	x0,x0,0
    4118:	00000013          	addi	x0,x0,0
    411c:	00000013          	addi	x0,x0,0
    4120:	0001c097          	auipc	x1,0x1c
    4124:	0e4080e7          	jalr	x1,228(x1) # 20204 <rvmodel_io_write_str>
    4128:	0000b317          	auipc	x6,0xb
    412c:	f9032303          	lw	x6,-112(x6) # f0b8 <trap_diag_actual_offset>
    4130:	0000b397          	auipc	x7,0xb
    4134:	f903a383          	lw	x7,-112(x7) # f0c0 <trap_diag_expected_offset>
    4138:	10734e63          	blt	x6,x7,4254 <trap_report_missing_traps>

0000413c <trap_report_extra_traps>:
    413c:	00000013          	addi	x0,x0,0
    4140:	0000c517          	auipc	x10,0xc
    4144:	17b50513          	addi	x10,x10,379 # 102bb <trap_diag_extra_traps_str>
    4148:	00000013          	addi	x0,x0,0
    414c:	00000013          	addi	x0,x0,0
    4150:	00000013          	addi	x0,x0,0
    4154:	00000013          	addi	x0,x0,0
    4158:	00000013          	addi	x0,x0,0
    415c:	00000013          	addi	x0,x0,0
    4160:	0001c097          	auipc	x1,0x1c
    4164:	0a4080e7          	jalr	x1,164(x1) # 20204 <rvmodel_io_write_str>
    4168:	0000b317          	auipc	x6,0xb
    416c:	f5032303          	lw	x6,-176(x6) # f0b8 <trap_diag_actual_offset>
    4170:	0000b397          	auipc	x7,0xb
    4174:	f503a383          	lw	x7,-176(x7) # f0c0 <trap_diag_expected_offset>
    4178:	40730333          	sub	x6,x6,x7
    417c:	00235313          	srli	x6,x6,0x2
    4180:	0000c517          	auipc	x10,0xc
    4184:	1c050513          	addi	x10,x10,448 # 10340 <trap_diag_extra_bytes_str>
    4188:	00000013          	addi	x0,x0,0
    418c:	00000013          	addi	x0,x0,0
    4190:	00000013          	addi	x0,x0,0
    4194:	00000013          	addi	x0,x0,0
    4198:	00000013          	addi	x0,x0,0
    419c:	00000013          	addi	x0,x0,0
    41a0:	0001c097          	auipc	x1,0x1c
    41a4:	064080e7          	jalr	x1,100(x1) # 20204 <rvmodel_io_write_str>
    41a8:	0000b317          	auipc	x6,0xb
    41ac:	f1032303          	lw	x6,-240(x6) # f0b8 <trap_diag_actual_offset>
    41b0:	0000b397          	auipc	x7,0xb
    41b4:	f103a383          	lw	x7,-240(x7) # f0c0 <trap_diag_expected_offset>
    41b8:	40730533          	sub	x10,x6,x7
    41bc:	02000593          	addi	x11,x0,32
    41c0:	4b9000ef          	jal	x1,4e78 <failedtest_hex_to_str>
    41c4:	00000013          	addi	x0,x0,0
    41c8:	00000013          	addi	x0,x0,0
    41cc:	00000013          	addi	x0,x0,0
    41d0:	00000013          	addi	x0,x0,0
    41d4:	00000013          	addi	x0,x0,0
    41d8:	00000013          	addi	x0,x0,0
    41dc:	00000013          	addi	x0,x0,0
    41e0:	0000b517          	auipc	x10,0xb
    41e4:	f1850513          	addi	x10,x10,-232 # f0f8 <ascii_buffer>
    41e8:	00000013          	addi	x0,x0,0
    41ec:	00000013          	addi	x0,x0,0
    41f0:	00000013          	addi	x0,x0,0
    41f4:	00000013          	addi	x0,x0,0
    41f8:	00000013          	addi	x0,x0,0
    41fc:	00000013          	addi	x0,x0,0
    4200:	0001c097          	auipc	x1,0x1c
    4204:	004080e7          	jalr	x1,4(x1) # 20204 <rvmodel_io_write_str>
    4208:	00000013          	addi	x0,x0,0
    420c:	00000013          	addi	x0,x0,0
    4210:	00000013          	addi	x0,x0,0
    4214:	00000013          	addi	x0,x0,0
    4218:	00000013          	addi	x0,x0,0
    421c:	00000013          	addi	x0,x0,0
    4220:	0000c517          	auipc	x10,0xc
    4224:	14b50513          	addi	x10,x10,331 # 1036b <trap_diag_extra_hint_str>
    4228:	00000013          	addi	x0,x0,0
    422c:	00000013          	addi	x0,x0,0
    4230:	00000013          	addi	x0,x0,0
    4234:	00000013          	addi	x0,x0,0
    4238:	00000013          	addi	x0,x0,0
    423c:	00000013          	addi	x0,x0,0
    4240:	0001c097          	auipc	x1,0x1c
    4244:	fc4080e7          	jalr	x1,-60(x1) # 20204 <rvmodel_io_write_str>
    4248:	00001097          	auipc	x1,0x1
    424c:	a28080e7          	jalr	x1,-1496(x1) # 4c70 <failedtest_print_csr_context>
    4250:	1d50006f          	jal	x0,4c24 <failedtest_report_end>

00004254 <trap_report_missing_traps>:
    4254:	00000013          	addi	x0,x0,0
    4258:	00000013          	addi	x0,x0,0
    425c:	00000013          	addi	x0,x0,0
    4260:	0000c517          	auipc	x10,0xc
    4264:	09550513          	addi	x10,x10,149 # 102f5 <trap_diag_missing_traps_str>
    4268:	00000013          	addi	x0,x0,0
    426c:	00000013          	addi	x0,x0,0
    4270:	00000013          	addi	x0,x0,0
    4274:	00000013          	addi	x0,x0,0
    4278:	00000013          	addi	x0,x0,0
    427c:	00000013          	addi	x0,x0,0
    4280:	0001c097          	auipc	x1,0x1c
    4284:	f84080e7          	jalr	x1,-124(x1) # 20204 <rvmodel_io_write_str>
    4288:	00000013          	addi	x0,x0,0
    428c:	00000013          	addi	x0,x0,0
    4290:	00000013          	addi	x0,x0,0
    4294:	00000013          	addi	x0,x0,0
    4298:	00000013          	addi	x0,x0,0
    429c:	00000013          	addi	x0,x0,0
    42a0:	0000c517          	auipc	x10,0xc
    42a4:	0a050513          	addi	x10,x10,160 # 10340 <trap_diag_extra_bytes_str>
    42a8:	00000013          	addi	x0,x0,0
    42ac:	00000013          	addi	x0,x0,0
    42b0:	00000013          	addi	x0,x0,0
    42b4:	00000013          	addi	x0,x0,0
    42b8:	00000013          	addi	x0,x0,0
    42bc:	00000013          	addi	x0,x0,0
    42c0:	0001c097          	auipc	x1,0x1c
    42c4:	f44080e7          	jalr	x1,-188(x1) # 20204 <rvmodel_io_write_str>
    42c8:	0000b317          	auipc	x6,0xb
    42cc:	df832303          	lw	x6,-520(x6) # f0c0 <trap_diag_expected_offset>
    42d0:	0000b397          	auipc	x7,0xb
    42d4:	de83a383          	lw	x7,-536(x7) # f0b8 <trap_diag_actual_offset>
    42d8:	40730533          	sub	x10,x6,x7
    42dc:	02000593          	addi	x11,x0,32
    42e0:	399000ef          	jal	x1,4e78 <failedtest_hex_to_str>
    42e4:	00000013          	addi	x0,x0,0
    42e8:	00000013          	addi	x0,x0,0
    42ec:	00000013          	addi	x0,x0,0
    42f0:	00000013          	addi	x0,x0,0
    42f4:	00000013          	addi	x0,x0,0
    42f8:	00000013          	addi	x0,x0,0
    42fc:	00000013          	addi	x0,x0,0
    4300:	0000b517          	auipc	x10,0xb
    4304:	df850513          	addi	x10,x10,-520 # f0f8 <ascii_buffer>
    4308:	00000013          	addi	x0,x0,0
    430c:	00000013          	addi	x0,x0,0
    4310:	00000013          	addi	x0,x0,0
    4314:	00000013          	addi	x0,x0,0
    4318:	00000013          	addi	x0,x0,0
    431c:	00000013          	addi	x0,x0,0
    4320:	0001c097          	auipc	x1,0x1c
    4324:	ee4080e7          	jalr	x1,-284(x1) # 20204 <rvmodel_io_write_str>
    4328:	00000013          	addi	x0,x0,0
    432c:	00000013          	addi	x0,x0,0
    4330:	00000013          	addi	x0,x0,0
    4334:	00000013          	addi	x0,x0,0
    4338:	00000013          	addi	x0,x0,0
    433c:	00000013          	addi	x0,x0,0
    4340:	0000c517          	auipc	x10,0xc
    4344:	11350513          	addi	x10,x10,275 # 10453 <trap_diag_missing_hint_str>
    4348:	00000013          	addi	x0,x0,0
    434c:	00000013          	addi	x0,x0,0
    4350:	00000013          	addi	x0,x0,0
    4354:	00000013          	addi	x0,x0,0
    4358:	00000013          	addi	x0,x0,0
    435c:	00000013          	addi	x0,x0,0
    4360:	0001c097          	auipc	x1,0x1c
    4364:	ea4080e7          	jalr	x1,-348(x1) # 20204 <rvmodel_io_write_str>
    4368:	00001097          	auipc	x1,0x1
    436c:	908080e7          	jalr	x1,-1784(x1) # 4c70 <failedtest_print_csr_context>
    4370:	0b50006f          	jal	x0,4c24 <failedtest_report_end>

00004374 <trap_report_field_mismatch>:
    4374:	00000013          	addi	x0,x0,0
    4378:	00000013          	addi	x0,x0,0
    437c:	00000013          	addi	x0,x0,0
    4380:	0000c517          	auipc	x10,0xc
    4384:	1ba50513          	addi	x10,x10,442 # 1053a <trap_diag_handler_mode_str>
    4388:	00000013          	addi	x0,x0,0
    438c:	00000013          	addi	x0,x0,0
    4390:	00000013          	addi	x0,x0,0
    4394:	00000013          	addi	x0,x0,0
    4398:	00000013          	addi	x0,x0,0
    439c:	00000013          	addi	x0,x0,0
    43a0:	0001c097          	auipc	x1,0x1c
    43a4:	e64080e7          	jalr	x1,-412(x1) # 20204 <rvmodel_io_write_str>
    43a8:	0000b517          	auipc	x10,0xb
    43ac:	cfc52503          	lw	x10,-772(x10) # f0a4 <trap_diag_mode>
    43b0:	04050a63          	beq	x10,x0,4404 <trap_mode_m>
    43b4:	00100593          	addi	x11,x0,1
    43b8:	08b50663          	beq	x10,x11,4444 <trap_mode_s>
    43bc:	00200593          	addi	x11,x0,2
    43c0:	0cb50263          	beq	x10,x11,4484 <trap_mode_h>
    43c4:	00300593          	addi	x11,x0,3
    43c8:	0eb50e63          	beq	x10,x11,44c4 <trap_mode_v>
    43cc:	00000013          	addi	x0,x0,0
    43d0:	00000013          	addi	x0,x0,0
    43d4:	00000013          	addi	x0,x0,0
    43d8:	00000013          	addi	x0,x0,0
    43dc:	00000013          	addi	x0,x0,0
    43e0:	0000c517          	auipc	x10,0xc
    43e4:	19650513          	addi	x10,x10,406 # 10576 <trap_diag_mode_unknown_str>
    43e8:	00000013          	addi	x0,x0,0
    43ec:	00000013          	addi	x0,x0,0
    43f0:	00000013          	addi	x0,x0,0
    43f4:	00000013          	addi	x0,x0,0
    43f8:	00000013          	addi	x0,x0,0
    43fc:	00000013          	addi	x0,x0,0
    4400:	1000006f          	jal	x0,4500 <trap_mode_print>

00004404 <trap_mode_m>:
    4404:	00000013          	addi	x0,x0,0
    4408:	00000013          	addi	x0,x0,0
    440c:	00000013          	addi	x0,x0,0
    4410:	00000013          	addi	x0,x0,0
    4414:	00000013          	addi	x0,x0,0
    4418:	00000013          	addi	x0,x0,0
    441c:	00000013          	addi	x0,x0,0
    4420:	0000c517          	auipc	x10,0xc
    4424:	13450513          	addi	x10,x10,308 # 10554 <trap_diag_mode_m_str>
    4428:	00000013          	addi	x0,x0,0
    442c:	00000013          	addi	x0,x0,0
    4430:	00000013          	addi	x0,x0,0
    4434:	00000013          	addi	x0,x0,0
    4438:	00000013          	addi	x0,x0,0
    443c:	00000013          	addi	x0,x0,0
    4440:	0c00006f          	jal	x0,4500 <trap_mode_print>

00004444 <trap_mode_s>:
    4444:	00000013          	addi	x0,x0,0
    4448:	00000013          	addi	x0,x0,0
    444c:	00000013          	addi	x0,x0,0
    4450:	00000013          	addi	x0,x0,0
    4454:	00000013          	addi	x0,x0,0
    4458:	00000013          	addi	x0,x0,0
    445c:	00000013          	addi	x0,x0,0
    4460:	0000c517          	auipc	x10,0xc
    4464:	0fc50513          	addi	x10,x10,252 # 1055c <trap_diag_mode_s_str>
    4468:	00000013          	addi	x0,x0,0
    446c:	00000013          	addi	x0,x0,0
    4470:	00000013          	addi	x0,x0,0
    4474:	00000013          	addi	x0,x0,0
    4478:	00000013          	addi	x0,x0,0
    447c:	00000013          	addi	x0,x0,0
    4480:	0800006f          	jal	x0,4500 <trap_mode_print>

00004484 <trap_mode_h>:
    4484:	00000013          	addi	x0,x0,0
    4488:	00000013          	addi	x0,x0,0
    448c:	00000013          	addi	x0,x0,0
    4490:	00000013          	addi	x0,x0,0
    4494:	00000013          	addi	x0,x0,0
    4498:	00000013          	addi	x0,x0,0
    449c:	00000013          	addi	x0,x0,0
    44a0:	0000c517          	auipc	x10,0xc
    44a4:	0c450513          	addi	x10,x10,196 # 10564 <trap_diag_mode_hs_str>
    44a8:	00000013          	addi	x0,x0,0
    44ac:	00000013          	addi	x0,x0,0
    44b0:	00000013          	addi	x0,x0,0
    44b4:	00000013          	addi	x0,x0,0
    44b8:	00000013          	addi	x0,x0,0
    44bc:	00000013          	addi	x0,x0,0
    44c0:	0400006f          	jal	x0,4500 <trap_mode_print>

000044c4 <trap_mode_v>:
    44c4:	00000013          	addi	x0,x0,0
    44c8:	00000013          	addi	x0,x0,0
    44cc:	00000013          	addi	x0,x0,0
    44d0:	00000013          	addi	x0,x0,0
    44d4:	00000013          	addi	x0,x0,0
    44d8:	00000013          	addi	x0,x0,0
    44dc:	00000013          	addi	x0,x0,0
    44e0:	0000c517          	auipc	x10,0xc
    44e4:	08d50513          	addi	x10,x10,141 # 1056d <trap_diag_mode_vs_str>
    44e8:	00000013          	addi	x0,x0,0
    44ec:	00000013          	addi	x0,x0,0
    44f0:	00000013          	addi	x0,x0,0
    44f4:	00000013          	addi	x0,x0,0
    44f8:	00000013          	addi	x0,x0,0
    44fc:	00000013          	addi	x0,x0,0

00004500 <trap_mode_print>:
    4500:	0001c097          	auipc	x1,0x1c
    4504:	d04080e7          	jalr	x1,-764(x1) # 20204 <rvmodel_io_write_str>
    4508:	00000013          	addi	x0,x0,0
    450c:	00000013          	addi	x0,x0,0
    4510:	00000013          	addi	x0,x0,0
    4514:	00000013          	addi	x0,x0,0
    4518:	00000013          	addi	x0,x0,0
    451c:	00000013          	addi	x0,x0,0
    4520:	0000c517          	auipc	x10,0xc
    4524:	05f50513          	addi	x10,x10,95 # 1057f <trap_diag_field_str>
    4528:	00000013          	addi	x0,x0,0
    452c:	00000013          	addi	x0,x0,0
    4530:	00000013          	addi	x0,x0,0
    4534:	00000013          	addi	x0,x0,0
    4538:	00000013          	addi	x0,x0,0
    453c:	00000013          	addi	x0,x0,0
    4540:	0001c097          	auipc	x1,0x1c
    4544:	cc4080e7          	jalr	x1,-828(x1) # 20204 <rvmodel_io_write_str>
    4548:	0000b517          	auipc	x10,0xb
    454c:	b5852503          	lw	x10,-1192(x10) # f0a0 <trap_diag_subtype>
    4550:	00100593          	addi	x11,x0,1
    4554:	06b50863          	beq	x10,x11,45c4 <trap_field_vect>
    4558:	00200593          	addi	x11,x0,2
    455c:	0ab50463          	beq	x10,x11,4604 <trap_field_cause>
    4560:	00300593          	addi	x11,x0,3
    4564:	0eb50063          	beq	x10,x11,4644 <trap_field_epc>
    4568:	00400593          	addi	x11,x0,4
    456c:	10b50c63          	beq	x10,x11,4684 <trap_field_tval>
    4570:	00500593          	addi	x11,x0,5
    4574:	14b50863          	beq	x10,x11,46c4 <trap_field_ip>
    4578:	00600593          	addi	x11,x0,6
    457c:	18b50463          	beq	x10,x11,4704 <trap_field_tval2>
    4580:	00700593          	addi	x11,x0,7
    4584:	1cb50063          	beq	x10,x11,4744 <trap_field_tinst>
    4588:	00800593          	addi	x11,x0,8
    458c:	1eb50c63          	beq	x10,x11,4784 <trap_field_intid>
    4590:	00000013          	addi	x0,x0,0
    4594:	00000013          	addi	x0,x0,0
    4598:	00000013          	addi	x0,x0,0
    459c:	00000013          	addi	x0,x0,0
    45a0:	0000c517          	auipc	x10,0xc
    45a4:	13650513          	addi	x10,x10,310 # 106d6 <trap_diag_field_unknown_str>
    45a8:	00000013          	addi	x0,x0,0
    45ac:	00000013          	addi	x0,x0,0
    45b0:	00000013          	addi	x0,x0,0
    45b4:	00000013          	addi	x0,x0,0
    45b8:	00000013          	addi	x0,x0,0
    45bc:	00000013          	addi	x0,x0,0
    45c0:	2000006f          	jal	x0,47c0 <trap_field_print>

000045c4 <trap_field_vect>:
    45c4:	00000013          	addi	x0,x0,0
    45c8:	00000013          	addi	x0,x0,0
    45cc:	00000013          	addi	x0,x0,0
    45d0:	00000013          	addi	x0,x0,0
    45d4:	00000013          	addi	x0,x0,0
    45d8:	00000013          	addi	x0,x0,0
    45dc:	00000013          	addi	x0,x0,0
    45e0:	0000c517          	auipc	x10,0xc
    45e4:	fb950513          	addi	x10,x10,-71 # 10599 <trap_diag_field_vect_str>
    45e8:	00000013          	addi	x0,x0,0
    45ec:	00000013          	addi	x0,x0,0
    45f0:	00000013          	addi	x0,x0,0
    45f4:	00000013          	addi	x0,x0,0
    45f8:	00000013          	addi	x0,x0,0
    45fc:	00000013          	addi	x0,x0,0
    4600:	1c00006f          	jal	x0,47c0 <trap_field_print>

00004604 <trap_field_cause>:
    4604:	00000013          	addi	x0,x0,0
    4608:	00000013          	addi	x0,x0,0
    460c:	00000013          	addi	x0,x0,0
    4610:	00000013          	addi	x0,x0,0
    4614:	00000013          	addi	x0,x0,0
    4618:	00000013          	addi	x0,x0,0
    461c:	00000013          	addi	x0,x0,0
    4620:	0000c517          	auipc	x10,0xc
    4624:	faa50513          	addi	x10,x10,-86 # 105ca <trap_diag_field_cause_str>
    4628:	00000013          	addi	x0,x0,0
    462c:	00000013          	addi	x0,x0,0
    4630:	00000013          	addi	x0,x0,0
    4634:	00000013          	addi	x0,x0,0
    4638:	00000013          	addi	x0,x0,0
    463c:	00000013          	addi	x0,x0,0
    4640:	1800006f          	jal	x0,47c0 <trap_field_print>

00004644 <trap_field_epc>:
    4644:	00000013          	addi	x0,x0,0
    4648:	00000013          	addi	x0,x0,0
    464c:	00000013          	addi	x0,x0,0
    4650:	00000013          	addi	x0,x0,0
    4654:	00000013          	addi	x0,x0,0
    4658:	00000013          	addi	x0,x0,0
    465c:	00000013          	addi	x0,x0,0
    4660:	0000c517          	auipc	x10,0xc
    4664:	f8a50513          	addi	x10,x10,-118 # 105ea <trap_diag_field_epc_str>
    4668:	00000013          	addi	x0,x0,0
    466c:	00000013          	addi	x0,x0,0
    4670:	00000013          	addi	x0,x0,0
    4674:	00000013          	addi	x0,x0,0
    4678:	00000013          	addi	x0,x0,0
    467c:	00000013          	addi	x0,x0,0
    4680:	1400006f          	jal	x0,47c0 <trap_field_print>

00004684 <trap_field_tval>:
    4684:	00000013          	addi	x0,x0,0
    4688:	00000013          	addi	x0,x0,0
    468c:	00000013          	addi	x0,x0,0
    4690:	00000013          	addi	x0,x0,0
    4694:	00000013          	addi	x0,x0,0
    4698:	00000013          	addi	x0,x0,0
    469c:	00000013          	addi	x0,x0,0
    46a0:	0000c517          	auipc	x10,0xc
    46a4:	f6850513          	addi	x10,x10,-152 # 10608 <trap_diag_field_tval_str>
    46a8:	00000013          	addi	x0,x0,0
    46ac:	00000013          	addi	x0,x0,0
    46b0:	00000013          	addi	x0,x0,0
    46b4:	00000013          	addi	x0,x0,0
    46b8:	00000013          	addi	x0,x0,0
    46bc:	00000013          	addi	x0,x0,0
    46c0:	1000006f          	jal	x0,47c0 <trap_field_print>

000046c4 <trap_field_ip>:
    46c4:	00000013          	addi	x0,x0,0
    46c8:	00000013          	addi	x0,x0,0
    46cc:	00000013          	addi	x0,x0,0
    46d0:	00000013          	addi	x0,x0,0
    46d4:	00000013          	addi	x0,x0,0
    46d8:	00000013          	addi	x0,x0,0
    46dc:	00000013          	addi	x0,x0,0
    46e0:	0000c517          	auipc	x10,0xc
    46e4:	f4750513          	addi	x10,x10,-185 # 10627 <trap_diag_field_ip_str>
    46e8:	00000013          	addi	x0,x0,0
    46ec:	00000013          	addi	x0,x0,0
    46f0:	00000013          	addi	x0,x0,0
    46f4:	00000013          	addi	x0,x0,0
    46f8:	00000013          	addi	x0,x0,0
    46fc:	00000013          	addi	x0,x0,0
    4700:	0c00006f          	jal	x0,47c0 <trap_field_print>

00004704 <trap_field_tval2>:
    4704:	00000013          	addi	x0,x0,0
    4708:	00000013          	addi	x0,x0,0
    470c:	00000013          	addi	x0,x0,0
    4710:	00000013          	addi	x0,x0,0
    4714:	00000013          	addi	x0,x0,0
    4718:	00000013          	addi	x0,x0,0
    471c:	00000013          	addi	x0,x0,0
    4720:	0000c517          	auipc	x10,0xc
    4724:	f2f50513          	addi	x10,x10,-209 # 1064f <trap_diag_field_tval2_str>
    4728:	00000013          	addi	x0,x0,0
    472c:	00000013          	addi	x0,x0,0
    4730:	00000013          	addi	x0,x0,0
    4734:	00000013          	addi	x0,x0,0
    4738:	00000013          	addi	x0,x0,0
    473c:	00000013          	addi	x0,x0,0
    4740:	0800006f          	jal	x0,47c0 <trap_field_print>

00004744 <trap_field_tinst>:
    4744:	00000013          	addi	x0,x0,0
    4748:	00000013          	addi	x0,x0,0
    474c:	00000013          	addi	x0,x0,0
    4750:	00000013          	addi	x0,x0,0
    4754:	00000013          	addi	x0,x0,0
    4758:	00000013          	addi	x0,x0,0
    475c:	00000013          	addi	x0,x0,0
    4760:	0000c517          	auipc	x10,0xc
    4764:	f1b50513          	addi	x10,x10,-229 # 1067b <trap_diag_field_tinst_str>
    4768:	00000013          	addi	x0,x0,0
    476c:	00000013          	addi	x0,x0,0
    4770:	00000013          	addi	x0,x0,0
    4774:	00000013          	addi	x0,x0,0
    4778:	00000013          	addi	x0,x0,0
    477c:	00000013          	addi	x0,x0,0
    4780:	0400006f          	jal	x0,47c0 <trap_field_print>

00004784 <trap_field_intid>:
    4784:	00000013          	addi	x0,x0,0
    4788:	00000013          	addi	x0,x0,0
    478c:	00000013          	addi	x0,x0,0
    4790:	00000013          	addi	x0,x0,0
    4794:	00000013          	addi	x0,x0,0
    4798:	00000013          	addi	x0,x0,0
    479c:	00000013          	addi	x0,x0,0
    47a0:	0000c517          	auipc	x10,0xc
    47a4:	f0750513          	addi	x10,x10,-249 # 106a7 <trap_diag_field_intid_str>
    47a8:	00000013          	addi	x0,x0,0
    47ac:	00000013          	addi	x0,x0,0
    47b0:	00000013          	addi	x0,x0,0
    47b4:	00000013          	addi	x0,x0,0
    47b8:	00000013          	addi	x0,x0,0
    47bc:	00000013          	addi	x0,x0,0

000047c0 <trap_field_print>:
    47c0:	0001c097          	auipc	x1,0x1c
    47c4:	a44080e7          	jalr	x1,-1468(x1) # 20204 <rvmodel_io_write_str>
    47c8:	00000013          	addi	x0,x0,0
    47cc:	00000013          	addi	x0,x0,0
    47d0:	00000013          	addi	x0,x0,0
    47d4:	00000013          	addi	x0,x0,0
    47d8:	00000013          	addi	x0,x0,0
    47dc:	00000013          	addi	x0,x0,0
    47e0:	0000c517          	auipc	x10,0xc
    47e4:	f0550513          	addi	x10,x10,-251 # 106e5 <trap_diag_expected_str>
    47e8:	00000013          	addi	x0,x0,0
    47ec:	00000013          	addi	x0,x0,0
    47f0:	00000013          	addi	x0,x0,0
    47f4:	00000013          	addi	x0,x0,0
    47f8:	00000013          	addi	x0,x0,0
    47fc:	00000013          	addi	x0,x0,0
    4800:	0001c097          	auipc	x1,0x1c
    4804:	a04080e7          	jalr	x1,-1532(x1) # 20204 <rvmodel_io_write_str>
    4808:	0000b517          	auipc	x10,0xb
    480c:	8a852503          	lw	x10,-1880(x10) # f0b0 <trap_diag_expected_value>
    4810:	02000593          	addi	x11,x0,32
    4814:	664000ef          	jal	x1,4e78 <failedtest_hex_to_str>
    4818:	00000013          	addi	x0,x0,0
    481c:	00000013          	addi	x0,x0,0
    4820:	0000b517          	auipc	x10,0xb
    4824:	8d850513          	addi	x10,x10,-1832 # f0f8 <ascii_buffer>
    4828:	00000013          	addi	x0,x0,0
    482c:	00000013          	addi	x0,x0,0
    4830:	00000013          	addi	x0,x0,0
    4834:	00000013          	addi	x0,x0,0
    4838:	00000013          	addi	x0,x0,0
    483c:	00000013          	addi	x0,x0,0
    4840:	0001c097          	auipc	x1,0x1c
    4844:	9c4080e7          	jalr	x1,-1596(x1) # 20204 <rvmodel_io_write_str>
    4848:	00000013          	addi	x0,x0,0
    484c:	00000013          	addi	x0,x0,0
    4850:	00000013          	addi	x0,x0,0
    4854:	00000013          	addi	x0,x0,0
    4858:	00000013          	addi	x0,x0,0
    485c:	00000013          	addi	x0,x0,0
    4860:	0000c517          	auipc	x10,0xc
    4864:	e9c50513          	addi	x10,x10,-356 # 106fc <trap_diag_actual_str>
    4868:	00000013          	addi	x0,x0,0
    486c:	00000013          	addi	x0,x0,0
    4870:	00000013          	addi	x0,x0,0
    4874:	00000013          	addi	x0,x0,0
    4878:	00000013          	addi	x0,x0,0
    487c:	00000013          	addi	x0,x0,0
    4880:	0001c097          	auipc	x1,0x1c
    4884:	984080e7          	jalr	x1,-1660(x1) # 20204 <rvmodel_io_write_str>
    4888:	0000b517          	auipc	x10,0xb
    488c:	82052503          	lw	x10,-2016(x10) # f0a8 <trap_diag_actual_value>
    4890:	02000593          	addi	x11,x0,32
    4894:	5e4000ef          	jal	x1,4e78 <failedtest_hex_to_str>
    4898:	00000013          	addi	x0,x0,0
    489c:	00000013          	addi	x0,x0,0
    48a0:	0000b517          	auipc	x10,0xb
    48a4:	85850513          	addi	x10,x10,-1960 # f0f8 <ascii_buffer>
    48a8:	00000013          	addi	x0,x0,0
    48ac:	00000013          	addi	x0,x0,0
    48b0:	00000013          	addi	x0,x0,0
    48b4:	00000013          	addi	x0,x0,0
    48b8:	00000013          	addi	x0,x0,0
    48bc:	00000013          	addi	x0,x0,0
    48c0:	0001c097          	auipc	x1,0x1c
    48c4:	944080e7          	jalr	x1,-1724(x1) # 20204 <rvmodel_io_write_str>
    48c8:	0000a517          	auipc	x10,0xa
    48cc:	7d852503          	lw	x10,2008(x10) # f0a0 <trap_diag_subtype>
    48d0:	00200593          	addi	x11,x0,2
    48d4:	08b51463          	bne	x10,x11,495c <trap_field_not_cause>
    48d8:	00000013          	addi	x0,x0,0
    48dc:	00000013          	addi	x0,x0,0
    48e0:	0000c517          	auipc	x10,0xc
    48e4:	e3350513          	addi	x10,x10,-461 # 10713 <trap_diag_expected_cause_name_str>
    48e8:	00000013          	addi	x0,x0,0
    48ec:	00000013          	addi	x0,x0,0
    48f0:	00000013          	addi	x0,x0,0
    48f4:	00000013          	addi	x0,x0,0
    48f8:	00000013          	addi	x0,x0,0
    48fc:	00000013          	addi	x0,x0,0
    4900:	0001c097          	auipc	x1,0x1c
    4904:	904080e7          	jalr	x1,-1788(x1) # 20204 <rvmodel_io_write_str>
    4908:	0000a517          	auipc	x10,0xa
    490c:	7a852503          	lw	x10,1960(x10) # f0b0 <trap_diag_expected_value>
    4910:	284000ef          	jal	x1,4b94 <trap_cause_to_str>
    4914:	0001c097          	auipc	x1,0x1c
    4918:	8f0080e7          	jalr	x1,-1808(x1) # 20204 <rvmodel_io_write_str>
    491c:	00000013          	addi	x0,x0,0
    4920:	0000c517          	auipc	x10,0xc
    4924:	e0a50513          	addi	x10,x10,-502 # 1072a <trap_diag_actual_cause_name_str>
    4928:	00000013          	addi	x0,x0,0
    492c:	00000013          	addi	x0,x0,0
    4930:	00000013          	addi	x0,x0,0
    4934:	00000013          	addi	x0,x0,0
    4938:	00000013          	addi	x0,x0,0
    493c:	00000013          	addi	x0,x0,0
    4940:	0001c097          	auipc	x1,0x1c
    4944:	8c4080e7          	jalr	x1,-1852(x1) # 20204 <rvmodel_io_write_str>
    4948:	0000a517          	auipc	x10,0xa
    494c:	76052503          	lw	x10,1888(x10) # f0a8 <trap_diag_actual_value>
    4950:	244000ef          	jal	x1,4b94 <trap_cause_to_str>
    4954:	0001c097          	auipc	x1,0x1c
    4958:	8b0080e7          	jalr	x1,-1872(x1) # 20204 <rvmodel_io_write_str>

0000495c <trap_field_not_cause>:
    495c:	00000097          	auipc	x1,0x0
    4960:	314080e7          	jalr	x1,788(x1) # 4c70 <failedtest_print_csr_context>
    4964:	0000a517          	auipc	x10,0xa
    4968:	73c52503          	lw	x10,1852(x10) # f0a0 <trap_diag_subtype>
    496c:	00100593          	addi	x11,x0,1
    4970:	02b51e63          	bne	x10,x11,49ac <trap_field_not_cause+0x50>
    4974:	00000013          	addi	x0,x0,0
    4978:	00000013          	addi	x0,x0,0
    497c:	00000013          	addi	x0,x0,0
    4980:	0000c517          	auipc	x10,0xc
    4984:	e2050513          	addi	x10,x10,-480 # 107a0 <trap_diag_hint_vect_str>
    4988:	00000013          	addi	x0,x0,0
    498c:	00000013          	addi	x0,x0,0
    4990:	00000013          	addi	x0,x0,0
    4994:	00000013          	addi	x0,x0,0
    4998:	00000013          	addi	x0,x0,0
    499c:	00000013          	addi	x0,x0,0
    49a0:	0001c097          	auipc	x1,0x1c
    49a4:	864080e7          	jalr	x1,-1948(x1) # 20204 <rvmodel_io_write_str>
    49a8:	27c0006f          	jal	x0,4c24 <failedtest_report_end>
    49ac:	00200593          	addi	x11,x0,2
    49b0:	02b51e63          	bne	x10,x11,49ec <trap_field_not_cause+0x90>
    49b4:	00000013          	addi	x0,x0,0
    49b8:	00000013          	addi	x0,x0,0
    49bc:	00000013          	addi	x0,x0,0
    49c0:	0000c517          	auipc	x10,0xc
    49c4:	eb650513          	addi	x10,x10,-330 # 10876 <trap_diag_hint_cause_str>
    49c8:	00000013          	addi	x0,x0,0
    49cc:	00000013          	addi	x0,x0,0
    49d0:	00000013          	addi	x0,x0,0
    49d4:	00000013          	addi	x0,x0,0
    49d8:	00000013          	addi	x0,x0,0
    49dc:	00000013          	addi	x0,x0,0
    49e0:	0001c097          	auipc	x1,0x1c
    49e4:	824080e7          	jalr	x1,-2012(x1) # 20204 <rvmodel_io_write_str>
    49e8:	23c0006f          	jal	x0,4c24 <failedtest_report_end>
    49ec:	00300593          	addi	x11,x0,3
    49f0:	02b51e63          	bne	x10,x11,4a2c <trap_field_not_cause+0xd0>
    49f4:	00000013          	addi	x0,x0,0
    49f8:	00000013          	addi	x0,x0,0
    49fc:	00000013          	addi	x0,x0,0
    4a00:	0000c517          	auipc	x10,0xc
    4a04:	f6950513          	addi	x10,x10,-151 # 10969 <trap_diag_hint_epc_str>
    4a08:	00000013          	addi	x0,x0,0
    4a0c:	00000013          	addi	x0,x0,0
    4a10:	00000013          	addi	x0,x0,0
    4a14:	00000013          	addi	x0,x0,0
    4a18:	00000013          	addi	x0,x0,0
    4a1c:	00000013          	addi	x0,x0,0
    4a20:	0001b097          	auipc	x1,0x1b
    4a24:	7e4080e7          	jalr	x1,2020(x1) # 20204 <rvmodel_io_write_str>
    4a28:	1fc0006f          	jal	x0,4c24 <failedtest_report_end>
    4a2c:	00400593          	addi	x11,x0,4
    4a30:	02b51e63          	bne	x10,x11,4a6c <trap_field_not_cause+0x110>
    4a34:	00000013          	addi	x0,x0,0
    4a38:	00000013          	addi	x0,x0,0
    4a3c:	00000013          	addi	x0,x0,0
    4a40:	0000c517          	auipc	x10,0xc
    4a44:	02450513          	addi	x10,x10,36 # 10a64 <trap_diag_hint_tval_str>
    4a48:	00000013          	addi	x0,x0,0
    4a4c:	00000013          	addi	x0,x0,0
    4a50:	00000013          	addi	x0,x0,0
    4a54:	00000013          	addi	x0,x0,0
    4a58:	00000013          	addi	x0,x0,0
    4a5c:	00000013          	addi	x0,x0,0
    4a60:	0001b097          	auipc	x1,0x1b
    4a64:	7a4080e7          	jalr	x1,1956(x1) # 20204 <rvmodel_io_write_str>
    4a68:	1bc0006f          	jal	x0,4c24 <failedtest_report_end>
    4a6c:	00500593          	addi	x11,x0,5
    4a70:	02b51e63          	bne	x10,x11,4aac <trap_field_not_cause+0x150>
    4a74:	00000013          	addi	x0,x0,0
    4a78:	00000013          	addi	x0,x0,0
    4a7c:	00000013          	addi	x0,x0,0
    4a80:	0000c517          	auipc	x10,0xc
    4a84:	0cb50513          	addi	x10,x10,203 # 10b4b <trap_diag_hint_ip_str>
    4a88:	00000013          	addi	x0,x0,0
    4a8c:	00000013          	addi	x0,x0,0
    4a90:	00000013          	addi	x0,x0,0
    4a94:	00000013          	addi	x0,x0,0
    4a98:	00000013          	addi	x0,x0,0
    4a9c:	00000013          	addi	x0,x0,0
    4aa0:	0001b097          	auipc	x1,0x1b
    4aa4:	764080e7          	jalr	x1,1892(x1) # 20204 <rvmodel_io_write_str>
    4aa8:	17c0006f          	jal	x0,4c24 <failedtest_report_end>
    4aac:	1780006f          	jal	x0,4c24 <failedtest_report_end>

00004ab0 <trap_report_generic>:
    4ab0:	00000013          	addi	x0,x0,0
    4ab4:	00000013          	addi	x0,x0,0
    4ab8:	00000013          	addi	x0,x0,0
    4abc:	00000013          	addi	x0,x0,0
    4ac0:	0000c517          	auipc	x10,0xc
    4ac4:	c9850513          	addi	x10,x10,-872 # 10758 <trap_diag_generic_str>
    4ac8:	00000013          	addi	x0,x0,0
    4acc:	00000013          	addi	x0,x0,0
    4ad0:	00000013          	addi	x0,x0,0
    4ad4:	00000013          	addi	x0,x0,0
    4ad8:	00000013          	addi	x0,x0,0
    4adc:	00000013          	addi	x0,x0,0
    4ae0:	0001b097          	auipc	x1,0x1b
    4ae4:	724080e7          	jalr	x1,1828(x1) # 20204 <rvmodel_io_write_str>
    4ae8:	0000a617          	auipc	x12,0xa
    4aec:	5f062603          	lw	x12,1520(x12) # f0d8 <saved_mepc>
    4af0:	00000013          	addi	x0,x0,0
    4af4:	00000013          	addi	x0,x0,0
    4af8:	00000013          	addi	x0,x0,0
    4afc:	00000013          	addi	x0,x0,0
    4b00:	0000b517          	auipc	x10,0xb
    4b04:	c3b50513          	addi	x10,x10,-965 # f73b <xepcinstrstr>
    4b08:	00000013          	addi	x0,x0,0
    4b0c:	00000013          	addi	x0,x0,0
    4b10:	00000013          	addi	x0,x0,0
    4b14:	00000013          	addi	x0,x0,0
    4b18:	00000013          	addi	x0,x0,0
    4b1c:	00000013          	addi	x0,x0,0
    4b20:	0001b097          	auipc	x1,0x1b
    4b24:	6e4080e7          	jalr	x1,1764(x1) # 20204 <rvmodel_io_write_str>
    4b28:	00065503          	lhu	x10,0(x12)
    4b2c:	01000593          	addi	x11,x0,16
    4b30:	00357413          	andi	x8,x10,3
    4b34:	00300493          	addi	x9,x0,3
    4b38:	00941a63          	bne	x8,x9,4b4c <trap_report_generic+0x9c>
    4b3c:	00265403          	lhu	x8,2(x12)
    4b40:	01041413          	slli	x8,x8,0x10
    4b44:	00856533          	or	x10,x10,x8
    4b48:	02000593          	addi	x11,x0,32
    4b4c:	32c000ef          	jal	x1,4e78 <failedtest_hex_to_str>
    4b50:	00000013          	addi	x0,x0,0
    4b54:	00000013          	addi	x0,x0,0
    4b58:	00000013          	addi	x0,x0,0
    4b5c:	00000013          	addi	x0,x0,0
    4b60:	0000a517          	auipc	x10,0xa
    4b64:	59850513          	addi	x10,x10,1432 # f0f8 <ascii_buffer>
    4b68:	00000013          	addi	x0,x0,0
    4b6c:	00000013          	addi	x0,x0,0
    4b70:	00000013          	addi	x0,x0,0
    4b74:	00000013          	addi	x0,x0,0
    4b78:	00000013          	addi	x0,x0,0
    4b7c:	00000013          	addi	x0,x0,0
    4b80:	0001b097          	auipc	x1,0x1b
    4b84:	684080e7          	jalr	x1,1668(x1) # 20204 <rvmodel_io_write_str>
    4b88:	00000097          	auipc	x1,0x0
    4b8c:	0e8080e7          	jalr	x1,232(x1) # 4c70 <failedtest_print_csr_context>
    4b90:	0940006f          	jal	x0,4c24 <failedtest_report_end>

00004b94 <trap_cause_to_str>:
    4b94:	02054263          	blt	x10,x0,4bb8 <trap_cause_interrupt>

00004b98 <trap_cause_exception>:
    4b98:	01800593          	addi	x11,x0,24
    4b9c:	04b55463          	bge	x10,x11,4be4 <trap_cause_unknown>
    4ba0:	0000a597          	auipc	x11,0xa
    4ba4:	58058593          	addi	x11,x11,1408 # f120 <end_failure_scratch>
    4ba8:	00251613          	slli	x12,x10,0x2
    4bac:	00c585b3          	add	x11,x11,x12
    4bb0:	0005a503          	lw	x10,0(x11)
    4bb4:	00008067          	jalr	x0,0(x1)

00004bb8 <trap_cause_interrupt>:
    4bb8:	00100593          	addi	x11,x0,1
    4bbc:	01f59593          	slli	x11,x11,0x1f
    4bc0:	00b54533          	xor	x10,x10,x11
    4bc4:	01000593          	addi	x11,x0,16
    4bc8:	00b55e63          	bge	x10,x11,4be4 <trap_cause_unknown>
    4bcc:	0000a597          	auipc	x11,0xa
    4bd0:	5b458593          	addi	x11,x11,1460 # f180 <trap_int_name_tbl>
    4bd4:	00251613          	slli	x12,x10,0x2
    4bd8:	00c585b3          	add	x11,x11,x12
    4bdc:	0005a503          	lw	x10,0(x11)
    4be0:	00008067          	jalr	x0,0(x1)

00004be4 <trap_cause_unknown>:
    4be4:	00000013          	addi	x0,x0,0
    4be8:	00000013          	addi	x0,x0,0
    4bec:	00000013          	addi	x0,x0,0
    4bf0:	00000013          	addi	x0,x0,0
    4bf4:	00000013          	addi	x0,x0,0
    4bf8:	00000013          	addi	x0,x0,0
    4bfc:	00000013          	addi	x0,x0,0
    4c00:	0000b517          	auipc	x10,0xb
    4c04:	9be50513          	addi	x10,x10,-1602 # f5be <trap_cause_unknown_str>
    4c08:	00000013          	addi	x0,x0,0
    4c0c:	00000013          	addi	x0,x0,0
    4c10:	00000013          	addi	x0,x0,0
    4c14:	00000013          	addi	x0,x0,0
    4c18:	00000013          	addi	x0,x0,0
    4c1c:	00000013          	addi	x0,x0,0
    4c20:	00008067          	jalr	x0,0(x1)

00004c24 <failedtest_report_end>:
    4c24:	00000013          	addi	x0,x0,0
    4c28:	00000013          	addi	x0,x0,0
    4c2c:	00000013          	addi	x0,x0,0
    4c30:	00000013          	addi	x0,x0,0
    4c34:	00000013          	addi	x0,x0,0
    4c38:	00000013          	addi	x0,x0,0
    4c3c:	00000013          	addi	x0,x0,0
    4c40:	0000b517          	auipc	x10,0xb
    4c44:	54350513          	addi	x10,x10,1347 # 10183 <endstr>
    4c48:	00000013          	addi	x0,x0,0
    4c4c:	00000013          	addi	x0,x0,0
    4c50:	00000013          	addi	x0,x0,0
    4c54:	00000013          	addi	x0,x0,0
    4c58:	00000013          	addi	x0,x0,0
    4c5c:	00000013          	addi	x0,x0,0
    4c60:	0001b097          	auipc	x1,0x1b
    4c64:	5a4080e7          	jalr	x1,1444(x1) # 20204 <rvmodel_io_write_str>

00004c68 <failedtest_terminate>:
    4c68:	0001b097          	auipc	x1,0x1b
    4c6c:	5ac080e7          	jalr	x1,1452(x1) # 20214 <rvmodel_halt_fail>

00004c70 <failedtest_print_csr_context>:
    4c70:	0000a617          	auipc	x12,0xa
    4c74:	46060613          	addi	x12,x12,1120 # f0d0 <csr_context_ret_addr>
    4c78:	00162023          	sw	x1,0(x12)
    4c7c:	00000013          	addi	x0,x0,0
    4c80:	0000b517          	auipc	x10,0xb
    4c84:	adc50513          	addi	x10,x10,-1316 # f75c <mepcstr>
    4c88:	00000013          	addi	x0,x0,0
    4c8c:	00000013          	addi	x0,x0,0
    4c90:	00000013          	addi	x0,x0,0
    4c94:	00000013          	addi	x0,x0,0
    4c98:	00000013          	addi	x0,x0,0
    4c9c:	00000013          	addi	x0,x0,0
    4ca0:	0001b097          	auipc	x1,0x1b
    4ca4:	564080e7          	jalr	x1,1380(x1) # 20204 <rvmodel_io_write_str>
    4ca8:	0000a517          	auipc	x10,0xa
    4cac:	43052503          	lw	x10,1072(x10) # f0d8 <saved_mepc>
    4cb0:	02000593          	addi	x11,x0,32
    4cb4:	1c4000ef          	jal	x1,4e78 <failedtest_hex_to_str>
    4cb8:	00000013          	addi	x0,x0,0
    4cbc:	00000013          	addi	x0,x0,0
    4cc0:	0000a517          	auipc	x10,0xa
    4cc4:	43850513          	addi	x10,x10,1080 # f0f8 <ascii_buffer>
    4cc8:	00000013          	addi	x0,x0,0
    4ccc:	00000013          	addi	x0,x0,0
    4cd0:	00000013          	addi	x0,x0,0
    4cd4:	00000013          	addi	x0,x0,0
    4cd8:	00000013          	addi	x0,x0,0
    4cdc:	00000013          	addi	x0,x0,0
    4ce0:	0001b097          	auipc	x1,0x1b
    4ce4:	524080e7          	jalr	x1,1316(x1) # 20204 <rvmodel_io_write_str>
    4ce8:	00000013          	addi	x0,x0,0
    4cec:	00000013          	addi	x0,x0,0
    4cf0:	00000013          	addi	x0,x0,0
    4cf4:	00000013          	addi	x0,x0,0
    4cf8:	00000013          	addi	x0,x0,0
    4cfc:	00000013          	addi	x0,x0,0
    4d00:	0000b517          	auipc	x10,0xb
    4d04:	a6c50513          	addi	x10,x10,-1428 # f76c <mcausestr>
    4d08:	00000013          	addi	x0,x0,0
    4d0c:	00000013          	addi	x0,x0,0
    4d10:	00000013          	addi	x0,x0,0
    4d14:	00000013          	addi	x0,x0,0
    4d18:	00000013          	addi	x0,x0,0
    4d1c:	00000013          	addi	x0,x0,0
    4d20:	0001b097          	auipc	x1,0x1b
    4d24:	4e4080e7          	jalr	x1,1252(x1) # 20204 <rvmodel_io_write_str>
    4d28:	0000a517          	auipc	x10,0xa
    4d2c:	3b852503          	lw	x10,952(x10) # f0e0 <saved_mcause>
    4d30:	02000593          	addi	x11,x0,32
    4d34:	144000ef          	jal	x1,4e78 <failedtest_hex_to_str>
    4d38:	00000013          	addi	x0,x0,0
    4d3c:	00000013          	addi	x0,x0,0
    4d40:	0000a517          	auipc	x10,0xa
    4d44:	3b850513          	addi	x10,x10,952 # f0f8 <ascii_buffer>
    4d48:	00000013          	addi	x0,x0,0
    4d4c:	00000013          	addi	x0,x0,0
    4d50:	00000013          	addi	x0,x0,0
    4d54:	00000013          	addi	x0,x0,0
    4d58:	00000013          	addi	x0,x0,0
    4d5c:	00000013          	addi	x0,x0,0
    4d60:	0001b097          	auipc	x1,0x1b
    4d64:	4a4080e7          	jalr	x1,1188(x1) # 20204 <rvmodel_io_write_str>
    4d68:	00000013          	addi	x0,x0,0
    4d6c:	00000013          	addi	x0,x0,0
    4d70:	00000013          	addi	x0,x0,0
    4d74:	00000013          	addi	x0,x0,0
    4d78:	00000013          	addi	x0,x0,0
    4d7c:	00000013          	addi	x0,x0,0
    4d80:	0000b517          	auipc	x10,0xb
    4d84:	9fc50513          	addi	x10,x10,-1540 # f77c <mtvalstr>
    4d88:	00000013          	addi	x0,x0,0
    4d8c:	00000013          	addi	x0,x0,0
    4d90:	00000013          	addi	x0,x0,0
    4d94:	00000013          	addi	x0,x0,0
    4d98:	00000013          	addi	x0,x0,0
    4d9c:	00000013          	addi	x0,x0,0
    4da0:	0001b097          	auipc	x1,0x1b
    4da4:	464080e7          	jalr	x1,1124(x1) # 20204 <rvmodel_io_write_str>
    4da8:	0000a517          	auipc	x10,0xa
    4dac:	34052503          	lw	x10,832(x10) # f0e8 <saved_mtval>
    4db0:	02000593          	addi	x11,x0,32
    4db4:	0c4000ef          	jal	x1,4e78 <failedtest_hex_to_str>
    4db8:	00000013          	addi	x0,x0,0
    4dbc:	00000013          	addi	x0,x0,0
    4dc0:	0000a517          	auipc	x10,0xa
    4dc4:	33850513          	addi	x10,x10,824 # f0f8 <ascii_buffer>
    4dc8:	00000013          	addi	x0,x0,0
    4dcc:	00000013          	addi	x0,x0,0
    4dd0:	00000013          	addi	x0,x0,0
    4dd4:	00000013          	addi	x0,x0,0
    4dd8:	00000013          	addi	x0,x0,0
    4ddc:	00000013          	addi	x0,x0,0
    4de0:	0001b097          	auipc	x1,0x1b
    4de4:	424080e7          	jalr	x1,1060(x1) # 20204 <rvmodel_io_write_str>
    4de8:	00000013          	addi	x0,x0,0
    4dec:	00000013          	addi	x0,x0,0
    4df0:	00000013          	addi	x0,x0,0
    4df4:	00000013          	addi	x0,x0,0
    4df8:	00000013          	addi	x0,x0,0
    4dfc:	00000013          	addi	x0,x0,0
    4e00:	0000b517          	auipc	x10,0xb
    4e04:	98c50513          	addi	x10,x10,-1652 # f78c <mstatusstr>
    4e08:	00000013          	addi	x0,x0,0
    4e0c:	00000013          	addi	x0,x0,0
    4e10:	00000013          	addi	x0,x0,0
    4e14:	00000013          	addi	x0,x0,0
    4e18:	00000013          	addi	x0,x0,0
    4e1c:	00000013          	addi	x0,x0,0
    4e20:	0001b097          	auipc	x1,0x1b
    4e24:	3e4080e7          	jalr	x1,996(x1) # 20204 <rvmodel_io_write_str>
    4e28:	0000a517          	auipc	x10,0xa
    4e2c:	2c852503          	lw	x10,712(x10) # f0f0 <saved_mstatus>
    4e30:	02000593          	addi	x11,x0,32
    4e34:	044000ef          	jal	x1,4e78 <failedtest_hex_to_str>
    4e38:	00000013          	addi	x0,x0,0
    4e3c:	00000013          	addi	x0,x0,0
    4e40:	0000a517          	auipc	x10,0xa
    4e44:	2b850513          	addi	x10,x10,696 # f0f8 <ascii_buffer>
    4e48:	00000013          	addi	x0,x0,0
    4e4c:	00000013          	addi	x0,x0,0
    4e50:	00000013          	addi	x0,x0,0
    4e54:	00000013          	addi	x0,x0,0
    4e58:	00000013          	addi	x0,x0,0
    4e5c:	00000013          	addi	x0,x0,0
    4e60:	0001b097          	auipc	x1,0x1b
    4e64:	3a4080e7          	jalr	x1,932(x1) # 20204 <rvmodel_io_write_str>
    4e68:	0000a617          	auipc	x12,0xa
    4e6c:	26860613          	addi	x12,x12,616 # f0d0 <csr_context_ret_addr>
    4e70:	00062083          	lw	x1,0(x12)
    4e74:	00008067          	jalr	x0,0(x1)

00004e78 <failedtest_hex_to_str>:
    4e78:	00000013          	addi	x0,x0,0
    4e7c:	00000013          	addi	x0,x0,0
    4e80:	0000a617          	auipc	x12,0xa
    4e84:	27860613          	addi	x12,x12,632 # f0f8 <ascii_buffer>
    4e88:	00000013          	addi	x0,x0,0
    4e8c:	00000013          	addi	x0,x0,0
    4e90:	00000013          	addi	x0,x0,0
    4e94:	00000013          	addi	x0,x0,0
    4e98:	00000013          	addi	x0,x0,0
    4e9c:	00000013          	addi	x0,x0,0
    4ea0:	03000693          	addi	x13,x0,48
    4ea4:	00d60023          	sb	x13,0(x12)
    4ea8:	07800693          	addi	x13,x0,120
    4eac:	00d600a3          	sb	x13,1(x12)
    4eb0:	00260613          	addi	x12,x12,2
    4eb4:	00058693          	addi	x13,x11,0

00004eb8 <failedtest_hex_to_str_loop>:
    4eb8:	ffc68693          	addi	x13,x13,-4
    4ebc:	00d55733          	srl	x14,x10,x13
    4ec0:	00f77713          	andi	x14,x14,15
    4ec4:	00a00793          	addi	x15,x0,10
    4ec8:	00f74663          	blt	x14,x15,4ed4 <failedtest_hex_to_str_digit>
    4ecc:	05770713          	addi	x14,x14,87
    4ed0:	0080006f          	jal	x0,4ed8 <failedtest_hex_to_str_write>

00004ed4 <failedtest_hex_to_str_digit>:
    4ed4:	03070713          	addi	x14,x14,48

00004ed8 <failedtest_hex_to_str_write>:
    4ed8:	00e60023          	sb	x14,0(x12)
    4edc:	00160613          	addi	x12,x12,1
    4ee0:	fc069ce3          	bne	x13,x0,4eb8 <failedtest_hex_to_str_loop>
    4ee4:	00a00693          	addi	x13,x0,10
    4ee8:	00d60023          	sb	x13,0(x12)
    4eec:	000600a3          	sb	x0,1(x12)
    4ef0:	00008067          	jalr	x0,0(x1)

00004ef4 <failedtest_dec_to_str>:
    4ef4:	00a00693          	addi	x13,x0,10
    4ef8:	02d54663          	blt	x10,x13,4f24 <failedtest_dec_to_str+0x30>
    4efc:	ff650513          	addi	x10,x10,-10
    4f00:	03100713          	addi	x14,x0,49
    4f04:	00d54c63          	blt	x10,x13,4f1c <failedtest_dec_to_str+0x28>
    4f08:	ff650513          	addi	x10,x10,-10
    4f0c:	03200713          	addi	x14,x0,50
    4f10:	00d54663          	blt	x10,x13,4f1c <failedtest_dec_to_str+0x28>
    4f14:	ff650513          	addi	x10,x10,-10
    4f18:	03300713          	addi	x14,x0,51
    4f1c:	00e60023          	sb	x14,0(x12)
    4f20:	00160613          	addi	x12,x12,1
    4f24:	03050513          	addi	x10,x10,48
    4f28:	00a60023          	sb	x10,0(x12)
    4f2c:	00a00693          	addi	x13,x0,10
    4f30:	00d600a3          	sb	x13,1(x12)
    4f34:	00060123          	sb	x0,2(x12)
    4f38:	00008067          	jalr	x0,0(x1)
    4f3c:	00000013          	addi	x0,x0,0

Disassembly of section .text.rvmodel:

00020000 <rvmodel_boot>:
   20000:	feedc0b7          	lui	x1,0xfeedc
   20004:	ead08093          	addi	x1,x1,-339 # feedbead <absimm+0x8f911ba4>
   20008:	01909793          	slli	x15,x1,0x19
   2000c:	0070d113          	srli	x2,x1,0x7
   20010:	00f16133          	or	x2,x2,x15
   20014:	01911793          	slli	x15,x2,0x19
   20018:	00715193          	srli	x3,x2,0x7
   2001c:	00f1e1b3          	or	x3,x3,x15
   20020:	01919793          	slli	x15,x3,0x19
   20024:	0071d213          	srli	x4,x3,0x7
   20028:	00f26233          	or	x4,x4,x15
   2002c:	01921793          	slli	x15,x4,0x19
   20030:	00725293          	srli	x5,x4,0x7
   20034:	00f2e2b3          	or	x5,x5,x15
   20038:	01929793          	slli	x15,x5,0x19
   2003c:	0072d313          	srli	x6,x5,0x7
   20040:	00f36333          	or	x6,x6,x15
   20044:	01931793          	slli	x15,x6,0x19
   20048:	00735393          	srli	x7,x6,0x7
   2004c:	00f3e3b3          	or	x7,x7,x15
   20050:	01939793          	slli	x15,x7,0x19
   20054:	0073d413          	srli	x8,x7,0x7
   20058:	00f46433          	or	x8,x8,x15
   2005c:	01941793          	slli	x15,x8,0x19
   20060:	00745493          	srli	x9,x8,0x7
   20064:	00f4e4b3          	or	x9,x9,x15
   20068:	01949793          	slli	x15,x9,0x19
   2006c:	0074d513          	srli	x10,x9,0x7
   20070:	00f56533          	or	x10,x10,x15
   20074:	01951793          	slli	x15,x10,0x19
   20078:	00755593          	srli	x11,x10,0x7
   2007c:	00f5e5b3          	or	x11,x11,x15
   20080:	01959793          	slli	x15,x11,0x19
   20084:	0075d613          	srli	x12,x11,0x7
   20088:	00f66633          	or	x12,x12,x15
   2008c:	01961793          	slli	x15,x12,0x19
   20090:	00765693          	srli	x13,x12,0x7
   20094:	00f6e6b3          	or	x13,x13,x15
   20098:	01969793          	slli	x15,x13,0x19
   2009c:	0076d713          	srli	x14,x13,0x7
   200a0:	00f76733          	or	x14,x14,x15
   200a4:	fab807b7          	lui	x15,0xfab80
   200a8:	bb678793          	addi	x15,x15,-1098 # fab7fbb6 <absimm+0x8b5b58ad>
   200ac:	7d5c0837          	lui	x16,0x7d5c0
   200b0:	ddb80813          	addi	x16,x16,-549 # 7d5bfddb <absimm+0xdff5ad2>
   200b4:	01981793          	slli	x15,x16,0x19
   200b8:	00785893          	srli	x17,x16,0x7
   200bc:	00f8e8b3          	or	x17,x17,x15
   200c0:	01989793          	slli	x15,x17,0x19
   200c4:	0078d913          	srli	x18,x17,0x7
   200c8:	00f96933          	or	x18,x18,x15
   200cc:	01991793          	slli	x15,x18,0x19
   200d0:	00795993          	srli	x19,x18,0x7
   200d4:	00f9e9b3          	or	x19,x19,x15
   200d8:	01999793          	slli	x15,x19,0x19
   200dc:	0079da13          	srli	x20,x19,0x7
   200e0:	00fa6a33          	or	x20,x20,x15
   200e4:	019a1793          	slli	x15,x20,0x19
   200e8:	007a5a93          	srli	x21,x20,0x7
   200ec:	00faeab3          	or	x21,x21,x15
   200f0:	019a9793          	slli	x15,x21,0x19
   200f4:	007adb13          	srli	x22,x21,0x7
   200f8:	00fb6b33          	or	x22,x22,x15
   200fc:	019b1793          	slli	x15,x22,0x19
   20100:	007b5b93          	srli	x23,x22,0x7
   20104:	00fbebb3          	or	x23,x23,x15
   20108:	019b9793          	slli	x15,x23,0x19
   2010c:	007bdc13          	srli	x24,x23,0x7
   20110:	00fc6c33          	or	x24,x24,x15
   20114:	019c1793          	slli	x15,x24,0x19
   20118:	007c5c93          	srli	x25,x24,0x7
   2011c:	00fcecb3          	or	x25,x25,x15
   20120:	019c9793          	slli	x15,x25,0x19
   20124:	007cdd13          	srli	x26,x25,0x7
   20128:	00fd6d33          	or	x26,x26,x15
   2012c:	019d1793          	slli	x15,x26,0x19
   20130:	007d5d93          	srli	x27,x26,0x7
   20134:	00fdedb3          	or	x27,x27,x15
   20138:	019d9793          	slli	x15,x27,0x19
   2013c:	007dde13          	srli	x28,x27,0x7
   20140:	00fe6e33          	or	x28,x28,x15
   20144:	019e1793          	slli	x15,x28,0x19
   20148:	007e5e93          	srli	x29,x28,0x7
   2014c:	00feeeb3          	or	x29,x29,x15
   20150:	019e9793          	slli	x15,x29,0x19
   20154:	007edf13          	srli	x30,x29,0x7
   20158:	00ff6f33          	or	x30,x30,x15
   2015c:	019f1793          	slli	x15,x30,0x19
   20160:	007f5f93          	srli	x31,x30,0x7
   20164:	00ffefb3          	or	x31,x31,x15
   20168:	00000013          	addi	x0,x0,0
   2016c:	00000013          	addi	x0,x0,0
   20170:	00000013          	addi	x0,x0,0
   20174:	00000013          	addi	x0,x0,0
   20178:	00000013          	addi	x0,x0,0
   2017c:	00000013          	addi	x0,x0,0
   20180:	ffff1117          	auipc	x2,0xffff1
   20184:	ab010113          	addi	x2,x2,-1360 # 10c30 <begin_signature>
   20188:	00000013          	addi	x0,x0,0
   2018c:	00000013          	addi	x0,x0,0
   20190:	00000013          	addi	x0,x0,0
   20194:	00000013          	addi	x0,x0,0
   20198:	00000013          	addi	x0,x0,0
   2019c:	00000013          	addi	x0,x0,0

000201a0 <canary_check>:
   201a0:	6f5ca337          	lui	x6,0x6f5ca
   201a4:	30930313          	addi	x6,x6,777 # 6f5ca309 <absimm>
   201a8:	00012203          	lw	x4,0(x2)
   201ac:	00620863          	beq	x4,x6,201bc <canary_check+0x1c>
   201b0:	b0ce32ef          	jal	x5,34bc <failedtest_x5_x4>
   201b4:	000201a0          	.word	0x000201a0
   201b8:	000101ac          	.word	0x000101ac
   201bc:	00410113          	addi	x2,x2,4
   201c0:	fffe8197          	auipc	x3,0xfffe8
   201c4:	f5018193          	addi	x3,x3,-176 # 8110 <rvtest_data_begin>
   201c8:	00000013          	addi	x0,x0,0
   201cc:	00000013          	addi	x0,x0,0
   201d0:	00000013          	addi	x0,x0,0
   201d4:	00000013          	addi	x0,x0,0
   201d8:	00000013          	addi	x0,x0,0
   201dc:	00000013          	addi	x0,x0,0
   201e0:	fffe0317          	auipc	x6,0xfffe0
   201e4:	e6030313          	addi	x6,x6,-416 # 40 <rvtest_code_begin>
   201e8:	00000013          	addi	x0,x0,0
   201ec:	00000013          	addi	x0,x0,0
   201f0:	00000013          	addi	x0,x0,0
   201f4:	00000013          	addi	x0,x0,0
   201f8:	00000013          	addi	x0,x0,0
   201fc:	00000013          	addi	x0,x0,0
   20200:	00030067          	jalr	x0,0(x6)

00020204 <rvmodel_io_write_str>:
   20204:	00008067          	jalr	x0,0(x1)

00020208 <rvmodel_halt_pass>:
   20208:	00000513          	addi	x10,x0,0
   2020c:	00000073          	ecall
   20210:	0000006f          	jal	x0,20210 <rvmodel_halt_pass+0x8>

00020214 <rvmodel_halt_fail>:
   20214:	00100513          	addi	x10,x0,1
   20218:	00000073          	ecall
   2021c:	0000006f          	jal	x0,2021c <rvmodel_halt_fail+0x8>
   20220:	00000013          	addi	x0,x0,0
   20224:	00000013          	addi	x0,x0,0
   20228:	00000013          	addi	x0,x0,0
   2022c:	00000013          	addi	x0,x0,0
   20230:	00000013          	addi	x0,x0,0
   20234:	00000013          	addi	x0,x0,0
   20238:	00000013          	addi	x0,x0,0
   2023c:	00000013          	addi	x0,x0,0
