
/home/dev/github/clones/riscv-arch-test/work/rv32i-core/elfs/rv32i/I/I-andi-00.elf:     file format elf32-littleriscv
/home/dev/github/clones/riscv-arch-test/work/rv32i-core/elfs/rv32i/I/I-andi-00.elf
architecture: riscv:rv32, flags 0x00000112:
EXEC_P, HAS_SYMS, D_PAGED
start address 0x00000000

Program Header:
0x70000003 off    0x0001e240 vaddr 0x00000000 paddr 0x00000000 align 2**0
         filesz 0x00000033 memsz 0x00000000 flags r--
    LOAD off    0x00001000 vaddr 0x00000000 paddr 0x00000000 align 2**12
         filesz 0x00004f40 memsz 0x00004f40 flags r-x
    LOAD off    0x00006000 vaddr 0x00008000 paddr 0x00008000 align 2**12
         filesz 0x00018240 memsz 0x00018240 flags rwx

Sections:
Idx Name          Size      VMA       LMA       File off  Algn
  0 .text.init    00000040  00000000  00000000  00001000  2**5
                  CONTENTS, ALLOC, LOAD, READONLY, CODE
  1 .text.rvtest  00004f00  00000040  00000040  00001040  2**5
                  CONTENTS, ALLOC, LOAD, READONLY, CODE
  2 .data         00017c90  00008000  00008000  00006000  2**8
                  CONTENTS, ALLOC, LOAD, DATA
  3 .text.rvmodel 00000240  00020000  00020000  0001e000  2**5
                  CONTENTS, ALLOC, LOAD, READONLY, CODE
  4 .riscv.attributes 00000033  00000000  00000000  0001e240  2**0
                  CONTENTS, READONLY
  5 .debug_line   00001ad6  00000000  00000000  0001e273  2**0
                  CONTENTS, READONLY, DEBUGGING, OCTETS
  6 .debug_line_str 0000006a  00000000  00000000  0001fd49  2**0
                  CONTENTS, READONLY, DEBUGGING, OCTETS
  7 .debug_info   00000023  00000000  00000000  0001fdb3  2**0
                  CONTENTS, READONLY, DEBUGGING, OCTETS
  8 .debug_abbrev 00000012  00000000  00000000  0001fdd6  2**0
                  CONTENTS, READONLY, DEBUGGING, OCTETS
  9 .debug_aranges 00000028  00000000  00000000  0001fde8  2**3
                  CONTENTS, READONLY, DEBUGGING, OCTETS
 10 .debug_str    00000076  00000000  00000000  0001fe10  2**0
                  CONTENTS, READONLY, DEBUGGING, OCTETS
 11 .debug_rnglists 0000001b  00000000  00000000  0001fe86  2**0
                  CONTENTS, READONLY, DEBUGGING, OCTETS
SYMBOL TABLE:
00000000 l    d  .text.init	00000000 .text.init
00000040 l    d  .text.rvtest	00000000 .text.rvtest
00008000 l    d  .data	00000000 .data
00020000 l    d  .text.rvmodel	00000000 .text.rvmodel
00000000 l    d  .riscv.attributes	00000000 .riscv.attributes
00000000 l    d  .debug_line	00000000 .debug_line
00000000 l    d  .debug_line_str	00000000 .debug_line_str
00000000 l    d  .debug_info	00000000 .debug_info
00000000 l    d  .debug_abbrev	00000000 .debug_abbrev
00000000 l    d  .debug_aranges	00000000 .debug_aranges
00000000 l    d  .debug_str	00000000 .debug_str
00000000 l    d  .debug_rnglists	00000000 .debug_rnglists
00000000 l    df *ABS*	00000000 cc8o9NwE.o
00000003 l       *ABS*	00000000 MMODE_SIG
00000001 l       *ABS*	00000000 SMODE_SIG
00000001 l       *ABS*	00000000 HMODE_SIG
00000002 l       *ABS*	00000000 VMODE_SIG
00020000 l       .text.rvmodel	00000000 rvmodel_boot
00000048 l       .text.rvtest	00000000 I_andi_cg_cp_rs1_b0
000034bc l       .text.rvtest	00000000 failedtest_x5_x4
000086d0 l       .data	00000000 I_andi_cg_cp_rs1_b0_str
0000006c l       .text.rvtest	00000000 I_andi_cg_cp_rs1_b1
000086fe l       .data	00000000 I_andi_cg_cp_rs1_b1_str
00000094 l       .text.rvtest	00000000 I_andi_cg_cp_rs1_b2
0000872c l       .data	00000000 I_andi_cg_cp_rs1_b2_str
000000bc l       .text.rvtest	00000000 I_andi_cg_cp_rs1_b3
0000875a l       .data	00000000 I_andi_cg_cp_rs1_b3_str
000000e8 l       .text.rvtest	00000000 I_andi_cg_cp_rs1_b4
000034d4 l       .text.rvtest	00000000 failedtest_x8_x7
00008788 l       .data	00000000 I_andi_cg_cp_rs1_b4_str
0000010c l       .text.rvtest	00000000 I_andi_cg_cp_rs1_b5
000087b6 l       .data	00000000 I_andi_cg_cp_rs1_b5_str
00000130 l       .text.rvtest	00000000 I_andi_cg_cp_rs1_b6
000087e4 l       .data	00000000 I_andi_cg_cp_rs1_b6_str
0000015c l       .text.rvtest	00000000 I_andi_cg_cp_rs1_b7
00008812 l       .data	00000000 I_andi_cg_cp_rs1_b7_str
00000180 l       .text.rvtest	00000000 I_andi_cg_cp_rs1_b8
00008840 l       .data	00000000 I_andi_cg_cp_rs1_b8_str
000001a4 l       .text.rvtest	00000000 I_andi_cg_cp_rs1_b9
0000886e l       .data	00000000 I_andi_cg_cp_rs1_b9_str
000001c8 l       .text.rvtest	00000000 I_andi_cg_cp_rs1_b10
0000889d l       .data	00000000 I_andi_cg_cp_rs1_b10_str
000001ec l       .text.rvtest	00000000 I_andi_cg_cp_rs1_b11
000088cd l       .data	00000000 I_andi_cg_cp_rs1_b11_str
00000214 l       .text.rvtest	00000000 I_andi_cg_cp_rs1_b12
000088fd l       .data	00000000 I_andi_cg_cp_rs1_b12_str
00000238 l       .text.rvtest	00000000 I_andi_cg_cp_rs1_b13
0000892d l       .data	00000000 I_andi_cg_cp_rs1_b13_str
0000025c l       .text.rvtest	00000000 I_andi_cg_cp_rs1_b14
0000895d l       .data	00000000 I_andi_cg_cp_rs1_b14_str
00000280 l       .text.rvtest	00000000 I_andi_cg_cp_rs1_b15
0000898d l       .data	00000000 I_andi_cg_cp_rs1_b15_str
000002a4 l       .text.rvtest	00000000 I_andi_cg_cp_rs1_b16
000089bd l       .data	00000000 I_andi_cg_cp_rs1_b16_str
000002c8 l       .text.rvtest	00000000 I_andi_cg_cp_rs1_b17
000089ed l       .data	00000000 I_andi_cg_cp_rs1_b17_str
000002ec l       .text.rvtest	00000000 I_andi_cg_cp_rs1_b18
00008a1d l       .data	00000000 I_andi_cg_cp_rs1_b18_str
00000310 l       .text.rvtest	00000000 I_andi_cg_cp_rs1_b19
00008a4d l       .data	00000000 I_andi_cg_cp_rs1_b19_str
00000334 l       .text.rvtest	00000000 I_andi_cg_cp_rs1_b20
00008a7d l       .data	00000000 I_andi_cg_cp_rs1_b20_str
00000358 l       .text.rvtest	00000000 I_andi_cg_cp_rs1_b21
00008aad l       .data	00000000 I_andi_cg_cp_rs1_b21_str
0000037c l       .text.rvtest	00000000 I_andi_cg_cp_rs1_b22
00008add l       .data	00000000 I_andi_cg_cp_rs1_b22_str
000003a0 l       .text.rvtest	00000000 I_andi_cg_cp_rs1_b23
00008b0d l       .data	00000000 I_andi_cg_cp_rs1_b23_str
000003c8 l       .text.rvtest	00000000 I_andi_cg_cp_rs1_b24
00008b3d l       .data	00000000 I_andi_cg_cp_rs1_b24_str
000003ec l       .text.rvtest	00000000 I_andi_cg_cp_rs1_b25
00008b6d l       .data	00000000 I_andi_cg_cp_rs1_b25_str
00000410 l       .text.rvtest	00000000 I_andi_cg_cp_rs1_b26
00008b9d l       .data	00000000 I_andi_cg_cp_rs1_b26_str
00000434 l       .text.rvtest	00000000 I_andi_cg_cp_rs1_b27
00008bcd l       .data	00000000 I_andi_cg_cp_rs1_b27_str
0000045c l       .text.rvtest	00000000 I_andi_cg_cp_rs1_b28
00008bfd l       .data	00000000 I_andi_cg_cp_rs1_b28_str
00000480 l       .text.rvtest	00000000 I_andi_cg_cp_rs1_b29
00008c2d l       .data	00000000 I_andi_cg_cp_rs1_b29_str
000004a4 l       .text.rvtest	00000000 I_andi_cg_cp_rs1_b30
00008c5d l       .data	00000000 I_andi_cg_cp_rs1_b30_str
000004c8 l       .text.rvtest	00000000 I_andi_cg_cp_rs1_b31
00008c8d l       .data	00000000 I_andi_cg_cp_rs1_b31_str
000004ec l       .text.rvtest	00000000 I_andi_cg_cp_rd_b0
00008cbd l       .data	00000000 I_andi_cg_cp_rd_b0_str
00000510 l       .text.rvtest	00000000 I_andi_cg_cp_rd_b1
00008ceb l       .data	00000000 I_andi_cg_cp_rd_b1_str
00000534 l       .text.rvtest	00000000 I_andi_cg_cp_rd_b2
00008d19 l       .data	00000000 I_andi_cg_cp_rd_b2_str
00000558 l       .text.rvtest	00000000 I_andi_cg_cp_rd_b3
00008d47 l       .data	00000000 I_andi_cg_cp_rd_b3_str
00000584 l       .text.rvtest	00000000 I_andi_cg_cp_rd_b4
000034fc l       .text.rvtest	00000000 failedtest_x14_x13
00008d75 l       .data	00000000 I_andi_cg_cp_rd_b4_str
000005a8 l       .text.rvtest	00000000 I_andi_cg_cp_rd_b5
00008da3 l       .data	00000000 I_andi_cg_cp_rd_b5_str
000005cc l       .text.rvtest	00000000 I_andi_cg_cp_rd_b6
00008dd1 l       .data	00000000 I_andi_cg_cp_rd_b6_str
000005f0 l       .text.rvtest	00000000 I_andi_cg_cp_rd_b7
00008dff l       .data	00000000 I_andi_cg_cp_rd_b7_str
00000614 l       .text.rvtest	00000000 I_andi_cg_cp_rd_b8
00008e2d l       .data	00000000 I_andi_cg_cp_rd_b8_str
00000638 l       .text.rvtest	00000000 I_andi_cg_cp_rd_b9
00008e5b l       .data	00000000 I_andi_cg_cp_rd_b9_str
0000065c l       .text.rvtest	00000000 I_andi_cg_cp_rd_b10
00008e89 l       .data	00000000 I_andi_cg_cp_rd_b10_str
00000680 l       .text.rvtest	00000000 I_andi_cg_cp_rd_b11
00008eb8 l       .data	00000000 I_andi_cg_cp_rd_b11_str
000006a4 l       .text.rvtest	00000000 I_andi_cg_cp_rd_b12
00008ee7 l       .data	00000000 I_andi_cg_cp_rd_b12_str
000006d0 l       .text.rvtest	00000000 I_andi_cg_cp_rd_b13
00008f16 l       .data	00000000 I_andi_cg_cp_rd_b13_str
000006f4 l       .text.rvtest	00000000 I_andi_cg_cp_rd_b14
00008f45 l       .data	00000000 I_andi_cg_cp_rd_b14_str
00000718 l       .text.rvtest	00000000 I_andi_cg_cp_rd_b15
00008f74 l       .data	00000000 I_andi_cg_cp_rd_b15_str
0000073c l       .text.rvtest	00000000 I_andi_cg_cp_rd_b16
00008fa3 l       .data	00000000 I_andi_cg_cp_rd_b16_str
00000760 l       .text.rvtest	00000000 I_andi_cg_cp_rd_b17
00008fd2 l       .data	00000000 I_andi_cg_cp_rd_b17_str
00000784 l       .text.rvtest	00000000 I_andi_cg_cp_rd_b18
00009001 l       .data	00000000 I_andi_cg_cp_rd_b18_str
000007ac l       .text.rvtest	00000000 I_andi_cg_cp_rd_b19
00009030 l       .data	00000000 I_andi_cg_cp_rd_b19_str
000007d0 l       .text.rvtest	00000000 I_andi_cg_cp_rd_b20
0000905f l       .data	00000000 I_andi_cg_cp_rd_b20_str
000007f4 l       .text.rvtest	00000000 I_andi_cg_cp_rd_b21
0000908e l       .data	00000000 I_andi_cg_cp_rd_b21_str
00000818 l       .text.rvtest	00000000 I_andi_cg_cp_rd_b22
000090bd l       .data	00000000 I_andi_cg_cp_rd_b22_str
0000083c l       .text.rvtest	00000000 I_andi_cg_cp_rd_b23
000090ec l       .data	00000000 I_andi_cg_cp_rd_b23_str
00000860 l       .text.rvtest	00000000 I_andi_cg_cp_rd_b24
0000911b l       .data	00000000 I_andi_cg_cp_rd_b24_str
00000888 l       .text.rvtest	00000000 I_andi_cg_cp_rd_b25
0000914a l       .data	00000000 I_andi_cg_cp_rd_b25_str
000008ac l       .text.rvtest	00000000 I_andi_cg_cp_rd_b26
00009179 l       .data	00000000 I_andi_cg_cp_rd_b26_str
000008d0 l       .text.rvtest	00000000 I_andi_cg_cp_rd_b27
000091a8 l       .data	00000000 I_andi_cg_cp_rd_b27_str
000008f4 l       .text.rvtest	00000000 I_andi_cg_cp_rd_b28
000091d7 l       .data	00000000 I_andi_cg_cp_rd_b28_str
00000918 l       .text.rvtest	00000000 I_andi_cg_cp_rd_b29
00009206 l       .data	00000000 I_andi_cg_cp_rd_b29_str
0000093c l       .text.rvtest	00000000 I_andi_cg_cp_rd_b30
00009235 l       .data	00000000 I_andi_cg_cp_rd_b30_str
00000960 l       .text.rvtest	00000000 I_andi_cg_cp_rd_b31
00009264 l       .data	00000000 I_andi_cg_cp_rd_b31_str
00000984 l       .text.rvtest	00000000 I_andi_cg_cp_rs1_edges_0x0
00009293 l       .data	00000000 I_andi_cg_cp_rs1_edges_0x0_str
000009a8 l       .text.rvtest	00000000 I_andi_cg_cp_rs1_edges_0x1
000092c9 l       .data	00000000 I_andi_cg_cp_rs1_edges_0x1_str
000009cc l       .text.rvtest	00000000 I_andi_cg_cp_rs1_edges_0x2
000092ff l       .data	00000000 I_andi_cg_cp_rs1_edges_0x2_str
000009f0 l       .text.rvtest	00000000 I_andi_cg_cp_rs1_edges_0x80000000
00009335 l       .data	00000000 I_andi_cg_cp_rs1_edges_0x80000000_str
00000a14 l       .text.rvtest	00000000 I_andi_cg_cp_rs1_edges_0x80000001
00009372 l       .data	00000000 I_andi_cg_cp_rs1_edges_0x80000001_str
00000a38 l       .text.rvtest	00000000 I_andi_cg_cp_rs1_edges_0x7fffffff
000093af l       .data	00000000 I_andi_cg_cp_rs1_edges_0x7fffffff_str
00000a5c l       .text.rvtest	00000000 I_andi_cg_cp_rs1_edges_0x7ffffffe
000093ec l       .data	00000000 I_andi_cg_cp_rs1_edges_0x7ffffffe_str
00000a80 l       .text.rvtest	00000000 I_andi_cg_cp_rs1_edges_0xffffffff
00009429 l       .data	00000000 I_andi_cg_cp_rs1_edges_0xffffffff_str
00000aa4 l       .text.rvtest	00000000 I_andi_cg_cp_rs1_edges_0xfffffffe
00009466 l       .data	00000000 I_andi_cg_cp_rs1_edges_0xfffffffe_str
00000ac8 l       .text.rvtest	00000000 I_andi_cg_cp_rs1_edges_0x5bbc8872
000094a3 l       .data	00000000 I_andi_cg_cp_rs1_edges_0x5bbc8872_str
00000aec l       .text.rvtest	00000000 I_andi_cg_cp_rs1_edges_0xaaaaaaaa
000094e0 l       .data	00000000 I_andi_cg_cp_rs1_edges_0xaaaaaaaa_str
00000b10 l       .text.rvtest	00000000 I_andi_cg_cp_rs1_edges_0x55555555
0000951d l       .data	00000000 I_andi_cg_cp_rs1_edges_0x55555555_str
00000b34 l       .text.rvtest	00000000 I_andi_cg_cr_rs1_imm_edges_rs1val_0x0_immval_0x0
0000955a l       .data	00000000 I_andi_cg_cr_rs1_imm_edges_rs1val_0x0_immval_0x0_str
00000b58 l       .text.rvtest	00000000 I_andi_cg_cr_rs1_imm_edges_rs1val_0x0_immval_0x1
000095a7 l       .data	00000000 I_andi_cg_cr_rs1_imm_edges_rs1val_0x0_immval_0x1_str
00000b7c l       .text.rvtest	00000000 I_andi_cg_cr_rs1_imm_edges_rs1val_0x0_immval_0x2
000095f4 l       .data	00000000 I_andi_cg_cr_rs1_imm_edges_rs1val_0x0_immval_0x2_str
00000ba0 l       .text.rvtest	00000000 I_andi_cg_cr_rs1_imm_edges_rs1val_0x0_immval_0x3
00009641 l       .data	00000000 I_andi_cg_cr_rs1_imm_edges_rs1val_0x0_immval_0x3_str
00000bc4 l       .text.rvtest	00000000 I_andi_cg_cr_rs1_imm_edges_rs1val_0x0_immval_0x4
0000968e l       .data	00000000 I_andi_cg_cr_rs1_imm_edges_rs1val_0x0_immval_0x4_str
00000be8 l       .text.rvtest	00000000 I_andi_cg_cr_rs1_imm_edges_rs1val_0x0_immval_0x8
000096db l       .data	00000000 I_andi_cg_cr_rs1_imm_edges_rs1val_0x0_immval_0x8_str
00000c0c l       .text.rvtest	00000000 I_andi_cg_cr_rs1_imm_edges_rs1val_0x0_immval_0x10
00009728 l       .data	00000000 I_andi_cg_cr_rs1_imm_edges_rs1val_0x0_immval_0x10_str
00000c30 l       .text.rvtest	00000000 I_andi_cg_cr_rs1_imm_edges_rs1val_0x0_immval_0x20
00009776 l       .data	00000000 I_andi_cg_cr_rs1_imm_edges_rs1val_0x0_immval_0x20_str
00000c54 l       .text.rvtest	00000000 I_andi_cg_cr_rs1_imm_edges_rs1val_0x0_immval_0x40
000097c4 l       .data	00000000 I_andi_cg_cr_rs1_imm_edges_rs1val_0x0_immval_0x40_str
00000c78 l       .text.rvtest	00000000 I_andi_cg_cr_rs1_imm_edges_rs1val_0x0_immval_0x80
00009812 l       .data	00000000 I_andi_cg_cr_rs1_imm_edges_rs1val_0x0_immval_0x80_str
00000c9c l       .text.rvtest	00000000 I_andi_cg_cr_rs1_imm_edges_rs1val_0x0_immval_0x100
00009860 l       .data	00000000 I_andi_cg_cr_rs1_imm_edges_rs1val_0x0_immval_0x100_str
00000cc0 l       .text.rvtest	00000000 I_andi_cg_cr_rs1_imm_edges_rs1val_0x0_immval_0x200
000098af l       .data	00000000 I_andi_cg_cr_rs1_imm_edges_rs1val_0x0_immval_0x200_str
00000ce4 l       .text.rvtest	00000000 I_andi_cg_cr_rs1_imm_edges_rs1val_0x0_immval_0x3ff
000098fe l       .data	00000000 I_andi_cg_cr_rs1_imm_edges_rs1val_0x0_immval_0x3ff_str
00000d08 l       .text.rvtest	00000000 I_andi_cg_cr_rs1_imm_edges_rs1val_0x0_immval_0x400
0000994d l       .data	00000000 I_andi_cg_cr_rs1_imm_edges_rs1val_0x0_immval_0x400_str
00000d2c l       .text.rvtest	00000000 I_andi_cg_cr_rs1_imm_edges_rs1val_0x0_immval_0x703
0000999c l       .data	00000000 I_andi_cg_cr_rs1_imm_edges_rs1val_0x0_immval_0x703_str
00000d50 l       .text.rvtest	00000000 I_andi_cg_cr_rs1_imm_edges_rs1val_0x0_immval_0x7ff
000099eb l       .data	00000000 I_andi_cg_cr_rs1_imm_edges_rs1val_0x0_immval_0x7ff_str
00000d74 l       .text.rvtest	00000000 I_andi_cg_cr_rs1_imm_edges_rs1val_0x0_immval_m0x800
00009a3a l       .data	00000000 I_andi_cg_cr_rs1_imm_edges_rs1val_0x0_immval_m0x800_str
00000d98 l       .text.rvtest	00000000 I_andi_cg_cr_rs1_imm_edges_rs1val_0x0_immval_m0x7ff
00009a8a l       .data	00000000 I_andi_cg_cr_rs1_imm_edges_rs1val_0x0_immval_m0x7ff_str
00000dbc l       .text.rvtest	00000000 I_andi_cg_cr_rs1_imm_edges_rs1val_0x0_immval_m0x2
00009ada l       .data	00000000 I_andi_cg_cr_rs1_imm_edges_rs1val_0x0_immval_m0x2_str
00000de0 l       .text.rvtest	00000000 I_andi_cg_cr_rs1_imm_edges_rs1val_0x0_immval_m0x1
00009b28 l       .data	00000000 I_andi_cg_cr_rs1_imm_edges_rs1val_0x0_immval_m0x1_str
00000e04 l       .text.rvtest	00000000 I_andi_cg_cr_rs1_imm_edges_rs1val_0x1_immval_0x0
00009b76 l       .data	00000000 I_andi_cg_cr_rs1_imm_edges_rs1val_0x1_immval_0x0_str
00000e28 l       .text.rvtest	00000000 I_andi_cg_cr_rs1_imm_edges_rs1val_0x1_immval_0x1
00009bc3 l       .data	00000000 I_andi_cg_cr_rs1_imm_edges_rs1val_0x1_immval_0x1_str
00000e4c l       .text.rvtest	00000000 I_andi_cg_cr_rs1_imm_edges_rs1val_0x1_immval_0x2
00009c10 l       .data	00000000 I_andi_cg_cr_rs1_imm_edges_rs1val_0x1_immval_0x2_str
00000e70 l       .text.rvtest	00000000 I_andi_cg_cr_rs1_imm_edges_rs1val_0x1_immval_0x3
00009c5d l       .data	00000000 I_andi_cg_cr_rs1_imm_edges_rs1val_0x1_immval_0x3_str
00000e94 l       .text.rvtest	00000000 I_andi_cg_cr_rs1_imm_edges_rs1val_0x1_immval_0x4
00009cab l       .data	00000000 I_andi_cg_cr_rs1_imm_edges_rs1val_0x1_immval_0x4_str
00000eb8 l       .text.rvtest	00000000 I_andi_cg_cr_rs1_imm_edges_rs1val_0x1_immval_0x8
00009cf9 l       .data	00000000 I_andi_cg_cr_rs1_imm_edges_rs1val_0x1_immval_0x8_str
00000edc l       .text.rvtest	00000000 I_andi_cg_cr_rs1_imm_edges_rs1val_0x1_immval_0x10
00009d47 l       .data	00000000 I_andi_cg_cr_rs1_imm_edges_rs1val_0x1_immval_0x10_str
00000f00 l       .text.rvtest	00000000 I_andi_cg_cr_rs1_imm_edges_rs1val_0x1_immval_0x20
00009d96 l       .data	00000000 I_andi_cg_cr_rs1_imm_edges_rs1val_0x1_immval_0x20_str
00000f24 l       .text.rvtest	00000000 I_andi_cg_cr_rs1_imm_edges_rs1val_0x1_immval_0x40
00009de5 l       .data	00000000 I_andi_cg_cr_rs1_imm_edges_rs1val_0x1_immval_0x40_str
00000f48 l       .text.rvtest	00000000 I_andi_cg_cr_rs1_imm_edges_rs1val_0x1_immval_0x80
00009e34 l       .data	00000000 I_andi_cg_cr_rs1_imm_edges_rs1val_0x1_immval_0x80_str
00000f6c l       .text.rvtest	00000000 I_andi_cg_cr_rs1_imm_edges_rs1val_0x1_immval_0x100
00009e83 l       .data	00000000 I_andi_cg_cr_rs1_imm_edges_rs1val_0x1_immval_0x100_str
00000f90 l       .text.rvtest	00000000 I_andi_cg_cr_rs1_imm_edges_rs1val_0x1_immval_0x200
00009ed3 l       .data	00000000 I_andi_cg_cr_rs1_imm_edges_rs1val_0x1_immval_0x200_str
00000fb4 l       .text.rvtest	00000000 I_andi_cg_cr_rs1_imm_edges_rs1val_0x1_immval_0x3ff
00009f23 l       .data	00000000 I_andi_cg_cr_rs1_imm_edges_rs1val_0x1_immval_0x3ff_str
00000fd8 l       .text.rvtest	00000000 I_andi_cg_cr_rs1_imm_edges_rs1val_0x1_immval_0x400
00009f73 l       .data	00000000 I_andi_cg_cr_rs1_imm_edges_rs1val_0x1_immval_0x400_str
00000ffc l       .text.rvtest	00000000 I_andi_cg_cr_rs1_imm_edges_rs1val_0x1_immval_0x703
00009fc3 l       .data	00000000 I_andi_cg_cr_rs1_imm_edges_rs1val_0x1_immval_0x703_str
00001020 l       .text.rvtest	00000000 I_andi_cg_cr_rs1_imm_edges_rs1val_0x1_immval_0x7ff
0000a013 l       .data	00000000 I_andi_cg_cr_rs1_imm_edges_rs1val_0x1_immval_0x7ff_str
00001044 l       .text.rvtest	00000000 I_andi_cg_cr_rs1_imm_edges_rs1val_0x1_immval_m0x800
0000a063 l       .data	00000000 I_andi_cg_cr_rs1_imm_edges_rs1val_0x1_immval_m0x800_str
00001068 l       .text.rvtest	00000000 I_andi_cg_cr_rs1_imm_edges_rs1val_0x1_immval_m0x7ff
0000a0b4 l       .data	00000000 I_andi_cg_cr_rs1_imm_edges_rs1val_0x1_immval_m0x7ff_str
0000108c l       .text.rvtest	00000000 I_andi_cg_cr_rs1_imm_edges_rs1val_0x1_immval_m0x2
0000a105 l       .data	00000000 I_andi_cg_cr_rs1_imm_edges_rs1val_0x1_immval_m0x2_str
000010b0 l       .text.rvtest	00000000 I_andi_cg_cr_rs1_imm_edges_rs1val_0x1_immval_m0x1
0000a154 l       .data	00000000 I_andi_cg_cr_rs1_imm_edges_rs1val_0x1_immval_m0x1_str
000010d4 l       .text.rvtest	00000000 I_andi_cg_cr_rs1_imm_edges_rs1val_0x2_immval_0x0
0000a1a3 l       .data	00000000 I_andi_cg_cr_rs1_imm_edges_rs1val_0x2_immval_0x0_str
000010f8 l       .text.rvtest	00000000 I_andi_cg_cr_rs1_imm_edges_rs1val_0x2_immval_0x1
0000a1f1 l       .data	00000000 I_andi_cg_cr_rs1_imm_edges_rs1val_0x2_immval_0x1_str
0000111c l       .text.rvtest	00000000 I_andi_cg_cr_rs1_imm_edges_rs1val_0x2_immval_0x2
0000a23f l       .data	00000000 I_andi_cg_cr_rs1_imm_edges_rs1val_0x2_immval_0x2_str
00001140 l       .text.rvtest	00000000 I_andi_cg_cr_rs1_imm_edges_rs1val_0x2_immval_0x3
0000a28d l       .data	00000000 I_andi_cg_cr_rs1_imm_edges_rs1val_0x2_immval_0x3_str
00001164 l       .text.rvtest	00000000 I_andi_cg_cr_rs1_imm_edges_rs1val_0x2_immval_0x4
0000a2db l       .data	00000000 I_andi_cg_cr_rs1_imm_edges_rs1val_0x2_immval_0x4_str
00001188 l       .text.rvtest	00000000 I_andi_cg_cr_rs1_imm_edges_rs1val_0x2_immval_0x8
0000a329 l       .data	00000000 I_andi_cg_cr_rs1_imm_edges_rs1val_0x2_immval_0x8_str
000011ac l       .text.rvtest	00000000 I_andi_cg_cr_rs1_imm_edges_rs1val_0x2_immval_0x10
0000a377 l       .data	00000000 I_andi_cg_cr_rs1_imm_edges_rs1val_0x2_immval_0x10_str
000011d0 l       .text.rvtest	00000000 I_andi_cg_cr_rs1_imm_edges_rs1val_0x2_immval_0x20
0000a3c6 l       .data	00000000 I_andi_cg_cr_rs1_imm_edges_rs1val_0x2_immval_0x20_str
000011f4 l       .text.rvtest	00000000 I_andi_cg_cr_rs1_imm_edges_rs1val_0x2_immval_0x40
0000a415 l       .data	00000000 I_andi_cg_cr_rs1_imm_edges_rs1val_0x2_immval_0x40_str
00001218 l       .text.rvtest	00000000 I_andi_cg_cr_rs1_imm_edges_rs1val_0x2_immval_0x80
0000a464 l       .data	00000000 I_andi_cg_cr_rs1_imm_edges_rs1val_0x2_immval_0x80_str
0000123c l       .text.rvtest	00000000 I_andi_cg_cr_rs1_imm_edges_rs1val_0x2_immval_0x100
0000a4b3 l       .data	00000000 I_andi_cg_cr_rs1_imm_edges_rs1val_0x2_immval_0x100_str
00001260 l       .text.rvtest	00000000 I_andi_cg_cr_rs1_imm_edges_rs1val_0x2_immval_0x200
0000a503 l       .data	00000000 I_andi_cg_cr_rs1_imm_edges_rs1val_0x2_immval_0x200_str
00001284 l       .text.rvtest	00000000 I_andi_cg_cr_rs1_imm_edges_rs1val_0x2_immval_0x3ff
0000a553 l       .data	00000000 I_andi_cg_cr_rs1_imm_edges_rs1val_0x2_immval_0x3ff_str
000012a8 l       .text.rvtest	00000000 I_andi_cg_cr_rs1_imm_edges_rs1val_0x2_immval_0x400
0000a5a3 l       .data	00000000 I_andi_cg_cr_rs1_imm_edges_rs1val_0x2_immval_0x400_str
000012cc l       .text.rvtest	00000000 I_andi_cg_cr_rs1_imm_edges_rs1val_0x2_immval_0x703
0000a5f3 l       .data	00000000 I_andi_cg_cr_rs1_imm_edges_rs1val_0x2_immval_0x703_str
000012f0 l       .text.rvtest	00000000 I_andi_cg_cr_rs1_imm_edges_rs1val_0x2_immval_0x7ff
0000a643 l       .data	00000000 I_andi_cg_cr_rs1_imm_edges_rs1val_0x2_immval_0x7ff_str
00001314 l       .text.rvtest	00000000 I_andi_cg_cr_rs1_imm_edges_rs1val_0x2_immval_m0x800
0000a693 l       .data	00000000 I_andi_cg_cr_rs1_imm_edges_rs1val_0x2_immval_m0x800_str
00001338 l       .text.rvtest	00000000 I_andi_cg_cr_rs1_imm_edges_rs1val_0x2_immval_m0x7ff
0000a6e4 l       .data	00000000 I_andi_cg_cr_rs1_imm_edges_rs1val_0x2_immval_m0x7ff_str
0000135c l       .text.rvtest	00000000 I_andi_cg_cr_rs1_imm_edges_rs1val_0x2_immval_m0x2
0000a735 l       .data	00000000 I_andi_cg_cr_rs1_imm_edges_rs1val_0x2_immval_m0x2_str
00001380 l       .text.rvtest	00000000 I_andi_cg_cr_rs1_imm_edges_rs1val_0x2_immval_m0x1
0000a784 l       .data	00000000 I_andi_cg_cr_rs1_imm_edges_rs1val_0x2_immval_m0x1_str
000013a4 l       .text.rvtest	00000000 I_andi_cg_cr_rs1_imm_edges_rs1val_0x80000000_immval_0x0
0000a7d3 l       .data	00000000 I_andi_cg_cr_rs1_imm_edges_rs1val_0x80000000_immval_0x0_str
000013c8 l       .text.rvtest	00000000 I_andi_cg_cr_rs1_imm_edges_rs1val_0x80000000_immval_0x1
0000a828 l       .data	00000000 I_andi_cg_cr_rs1_imm_edges_rs1val_0x80000000_immval_0x1_str
000013ec l       .text.rvtest	00000000 I_andi_cg_cr_rs1_imm_edges_rs1val_0x80000000_immval_0x2
0000a87d l       .data	00000000 I_andi_cg_cr_rs1_imm_edges_rs1val_0x80000000_immval_0x2_str
00001410 l       .text.rvtest	00000000 I_andi_cg_cr_rs1_imm_edges_rs1val_0x80000000_immval_0x3
0000a8d2 l       .data	00000000 I_andi_cg_cr_rs1_imm_edges_rs1val_0x80000000_immval_0x3_str
00001434 l       .text.rvtest	00000000 I_andi_cg_cr_rs1_imm_edges_rs1val_0x80000000_immval_0x4
0000a927 l       .data	00000000 I_andi_cg_cr_rs1_imm_edges_rs1val_0x80000000_immval_0x4_str
00001458 l       .text.rvtest	00000000 I_andi_cg_cr_rs1_imm_edges_rs1val_0x80000000_immval_0x8
0000a97c l       .data	00000000 I_andi_cg_cr_rs1_imm_edges_rs1val_0x80000000_immval_0x8_str
0000147c l       .text.rvtest	00000000 I_andi_cg_cr_rs1_imm_edges_rs1val_0x80000000_immval_0x10
0000a9d1 l       .data	00000000 I_andi_cg_cr_rs1_imm_edges_rs1val_0x80000000_immval_0x10_str
000014a0 l       .text.rvtest	00000000 I_andi_cg_cr_rs1_imm_edges_rs1val_0x80000000_immval_0x20
0000aa27 l       .data	00000000 I_andi_cg_cr_rs1_imm_edges_rs1val_0x80000000_immval_0x20_str
000014c4 l       .text.rvtest	00000000 I_andi_cg_cr_rs1_imm_edges_rs1val_0x80000000_immval_0x40
0000aa7d l       .data	00000000 I_andi_cg_cr_rs1_imm_edges_rs1val_0x80000000_immval_0x40_str
000014e8 l       .text.rvtest	00000000 I_andi_cg_cr_rs1_imm_edges_rs1val_0x80000000_immval_0x80
0000aad3 l       .data	00000000 I_andi_cg_cr_rs1_imm_edges_rs1val_0x80000000_immval_0x80_str
0000150c l       .text.rvtest	00000000 I_andi_cg_cr_rs1_imm_edges_rs1val_0x80000000_immval_0x100
0000ab29 l       .data	00000000 I_andi_cg_cr_rs1_imm_edges_rs1val_0x80000000_immval_0x100_str
00001530 l       .text.rvtest	00000000 I_andi_cg_cr_rs1_imm_edges_rs1val_0x80000000_immval_0x200
0000ab80 l       .data	00000000 I_andi_cg_cr_rs1_imm_edges_rs1val_0x80000000_immval_0x200_str
00001554 l       .text.rvtest	00000000 I_andi_cg_cr_rs1_imm_edges_rs1val_0x80000000_immval_0x3ff
0000abd7 l       .data	00000000 I_andi_cg_cr_rs1_imm_edges_rs1val_0x80000000_immval_0x3ff_str
00001578 l       .text.rvtest	00000000 I_andi_cg_cr_rs1_imm_edges_rs1val_0x80000000_immval_0x400
0000ac2e l       .data	00000000 I_andi_cg_cr_rs1_imm_edges_rs1val_0x80000000_immval_0x400_str
0000159c l       .text.rvtest	00000000 I_andi_cg_cr_rs1_imm_edges_rs1val_0x80000000_immval_0x703
0000ac85 l       .data	00000000 I_andi_cg_cr_rs1_imm_edges_rs1val_0x80000000_immval_0x703_str
000015c0 l       .text.rvtest	00000000 I_andi_cg_cr_rs1_imm_edges_rs1val_0x80000000_immval_0x7ff
0000acdc l       .data	00000000 I_andi_cg_cr_rs1_imm_edges_rs1val_0x80000000_immval_0x7ff_str
000015e4 l       .text.rvtest	00000000 I_andi_cg_cr_rs1_imm_edges_rs1val_0x80000000_immval_m0x800
0000ad33 l       .data	00000000 I_andi_cg_cr_rs1_imm_edges_rs1val_0x80000000_immval_m0x800_str
00001608 l       .text.rvtest	00000000 I_andi_cg_cr_rs1_imm_edges_rs1val_0x80000000_immval_m0x7ff
0000ad8b l       .data	00000000 I_andi_cg_cr_rs1_imm_edges_rs1val_0x80000000_immval_m0x7ff_str
0000162c l       .text.rvtest	00000000 I_andi_cg_cr_rs1_imm_edges_rs1val_0x80000000_immval_m0x2
0000ade3 l       .data	00000000 I_andi_cg_cr_rs1_imm_edges_rs1val_0x80000000_immval_m0x2_str
00001650 l       .text.rvtest	00000000 I_andi_cg_cr_rs1_imm_edges_rs1val_0x80000000_immval_m0x1
0000ae39 l       .data	00000000 I_andi_cg_cr_rs1_imm_edges_rs1val_0x80000000_immval_m0x1_str
00001674 l       .text.rvtest	00000000 I_andi_cg_cr_rs1_imm_edges_rs1val_0x80000001_immval_0x0
0000ae8f l       .data	00000000 I_andi_cg_cr_rs1_imm_edges_rs1val_0x80000001_immval_0x0_str
00001698 l       .text.rvtest	00000000 I_andi_cg_cr_rs1_imm_edges_rs1val_0x80000001_immval_0x1
0000aee4 l       .data	00000000 I_andi_cg_cr_rs1_imm_edges_rs1val_0x80000001_immval_0x1_str
000016bc l       .text.rvtest	00000000 I_andi_cg_cr_rs1_imm_edges_rs1val_0x80000001_immval_0x2
0000af39 l       .data	00000000 I_andi_cg_cr_rs1_imm_edges_rs1val_0x80000001_immval_0x2_str
000016e0 l       .text.rvtest	00000000 I_andi_cg_cr_rs1_imm_edges_rs1val_0x80000001_immval_0x3
0000af8e l       .data	00000000 I_andi_cg_cr_rs1_imm_edges_rs1val_0x80000001_immval_0x3_str
00001704 l       .text.rvtest	00000000 I_andi_cg_cr_rs1_imm_edges_rs1val_0x80000001_immval_0x4
0000afe3 l       .data	00000000 I_andi_cg_cr_rs1_imm_edges_rs1val_0x80000001_immval_0x4_str
00001728 l       .text.rvtest	00000000 I_andi_cg_cr_rs1_imm_edges_rs1val_0x80000001_immval_0x8
0000b038 l       .data	00000000 I_andi_cg_cr_rs1_imm_edges_rs1val_0x80000001_immval_0x8_str
0000174c l       .text.rvtest	00000000 I_andi_cg_cr_rs1_imm_edges_rs1val_0x80000001_immval_0x10
0000b08d l       .data	00000000 I_andi_cg_cr_rs1_imm_edges_rs1val_0x80000001_immval_0x10_str
00001770 l       .text.rvtest	00000000 I_andi_cg_cr_rs1_imm_edges_rs1val_0x80000001_immval_0x20
0000b0e3 l       .data	00000000 I_andi_cg_cr_rs1_imm_edges_rs1val_0x80000001_immval_0x20_str
00001794 l       .text.rvtest	00000000 I_andi_cg_cr_rs1_imm_edges_rs1val_0x80000001_immval_0x40
0000b139 l       .data	00000000 I_andi_cg_cr_rs1_imm_edges_rs1val_0x80000001_immval_0x40_str
000017b8 l       .text.rvtest	00000000 I_andi_cg_cr_rs1_imm_edges_rs1val_0x80000001_immval_0x80
0000b18f l       .data	00000000 I_andi_cg_cr_rs1_imm_edges_rs1val_0x80000001_immval_0x80_str
000017dc l       .text.rvtest	00000000 I_andi_cg_cr_rs1_imm_edges_rs1val_0x80000001_immval_0x100
0000b1e5 l       .data	00000000 I_andi_cg_cr_rs1_imm_edges_rs1val_0x80000001_immval_0x100_str
00001800 l       .text.rvtest	00000000 I_andi_cg_cr_rs1_imm_edges_rs1val_0x80000001_immval_0x200
0000b23c l       .data	00000000 I_andi_cg_cr_rs1_imm_edges_rs1val_0x80000001_immval_0x200_str
00001824 l       .text.rvtest	00000000 I_andi_cg_cr_rs1_imm_edges_rs1val_0x80000001_immval_0x3ff
0000b293 l       .data	00000000 I_andi_cg_cr_rs1_imm_edges_rs1val_0x80000001_immval_0x3ff_str
00001848 l       .text.rvtest	00000000 I_andi_cg_cr_rs1_imm_edges_rs1val_0x80000001_immval_0x400
0000b2ea l       .data	00000000 I_andi_cg_cr_rs1_imm_edges_rs1val_0x80000001_immval_0x400_str
0000186c l       .text.rvtest	00000000 I_andi_cg_cr_rs1_imm_edges_rs1val_0x80000001_immval_0x703
0000b341 l       .data	00000000 I_andi_cg_cr_rs1_imm_edges_rs1val_0x80000001_immval_0x703_str
00001890 l       .text.rvtest	00000000 I_andi_cg_cr_rs1_imm_edges_rs1val_0x80000001_immval_0x7ff
0000b398 l       .data	00000000 I_andi_cg_cr_rs1_imm_edges_rs1val_0x80000001_immval_0x7ff_str
000018b4 l       .text.rvtest	00000000 I_andi_cg_cr_rs1_imm_edges_rs1val_0x80000001_immval_m0x800
0000b3ef l       .data	00000000 I_andi_cg_cr_rs1_imm_edges_rs1val_0x80000001_immval_m0x800_str
000018d8 l       .text.rvtest	00000000 I_andi_cg_cr_rs1_imm_edges_rs1val_0x80000001_immval_m0x7ff
0000b447 l       .data	00000000 I_andi_cg_cr_rs1_imm_edges_rs1val_0x80000001_immval_m0x7ff_str
000018fc l       .text.rvtest	00000000 I_andi_cg_cr_rs1_imm_edges_rs1val_0x80000001_immval_m0x2
0000b49f l       .data	00000000 I_andi_cg_cr_rs1_imm_edges_rs1val_0x80000001_immval_m0x2_str
00001920 l       .text.rvtest	00000000 I_andi_cg_cr_rs1_imm_edges_rs1val_0x80000001_immval_m0x1
0000b4f5 l       .data	00000000 I_andi_cg_cr_rs1_imm_edges_rs1val_0x80000001_immval_m0x1_str
00001944 l       .text.rvtest	00000000 I_andi_cg_cr_rs1_imm_edges_rs1val_0x7fffffff_immval_0x0
0000b54b l       .data	00000000 I_andi_cg_cr_rs1_imm_edges_rs1val_0x7fffffff_immval_0x0_str
00001968 l       .text.rvtest	00000000 I_andi_cg_cr_rs1_imm_edges_rs1val_0x7fffffff_immval_0x1
0000b5a0 l       .data	00000000 I_andi_cg_cr_rs1_imm_edges_rs1val_0x7fffffff_immval_0x1_str
0000198c l       .text.rvtest	00000000 I_andi_cg_cr_rs1_imm_edges_rs1val_0x7fffffff_immval_0x2
0000b5f5 l       .data	00000000 I_andi_cg_cr_rs1_imm_edges_rs1val_0x7fffffff_immval_0x2_str
000019b0 l       .text.rvtest	00000000 I_andi_cg_cr_rs1_imm_edges_rs1val_0x7fffffff_immval_0x3
0000b64a l       .data	00000000 I_andi_cg_cr_rs1_imm_edges_rs1val_0x7fffffff_immval_0x3_str
000019d4 l       .text.rvtest	00000000 I_andi_cg_cr_rs1_imm_edges_rs1val_0x7fffffff_immval_0x4
0000b69f l       .data	00000000 I_andi_cg_cr_rs1_imm_edges_rs1val_0x7fffffff_immval_0x4_str
000019f8 l       .text.rvtest	00000000 I_andi_cg_cr_rs1_imm_edges_rs1val_0x7fffffff_immval_0x8
0000b6f4 l       .data	00000000 I_andi_cg_cr_rs1_imm_edges_rs1val_0x7fffffff_immval_0x8_str
00001a1c l       .text.rvtest	00000000 I_andi_cg_cr_rs1_imm_edges_rs1val_0x7fffffff_immval_0x10
0000b749 l       .data	00000000 I_andi_cg_cr_rs1_imm_edges_rs1val_0x7fffffff_immval_0x10_str
00001a40 l       .text.rvtest	00000000 I_andi_cg_cr_rs1_imm_edges_rs1val_0x7fffffff_immval_0x20
0000b79f l       .data	00000000 I_andi_cg_cr_rs1_imm_edges_rs1val_0x7fffffff_immval_0x20_str
00001a64 l       .text.rvtest	00000000 I_andi_cg_cr_rs1_imm_edges_rs1val_0x7fffffff_immval_0x40
0000b7f5 l       .data	00000000 I_andi_cg_cr_rs1_imm_edges_rs1val_0x7fffffff_immval_0x40_str
00001a88 l       .text.rvtest	00000000 I_andi_cg_cr_rs1_imm_edges_rs1val_0x7fffffff_immval_0x80
0000b84b l       .data	00000000 I_andi_cg_cr_rs1_imm_edges_rs1val_0x7fffffff_immval_0x80_str
00001aac l       .text.rvtest	00000000 I_andi_cg_cr_rs1_imm_edges_rs1val_0x7fffffff_immval_0x100
0000b8a1 l       .data	00000000 I_andi_cg_cr_rs1_imm_edges_rs1val_0x7fffffff_immval_0x100_str
00001ad0 l       .text.rvtest	00000000 I_andi_cg_cr_rs1_imm_edges_rs1val_0x7fffffff_immval_0x200
0000b8f8 l       .data	00000000 I_andi_cg_cr_rs1_imm_edges_rs1val_0x7fffffff_immval_0x200_str
00001af4 l       .text.rvtest	00000000 I_andi_cg_cr_rs1_imm_edges_rs1val_0x7fffffff_immval_0x3ff
0000b94f l       .data	00000000 I_andi_cg_cr_rs1_imm_edges_rs1val_0x7fffffff_immval_0x3ff_str
00001b18 l       .text.rvtest	00000000 I_andi_cg_cr_rs1_imm_edges_rs1val_0x7fffffff_immval_0x400
0000b9a6 l       .data	00000000 I_andi_cg_cr_rs1_imm_edges_rs1val_0x7fffffff_immval_0x400_str
00001b3c l       .text.rvtest	00000000 I_andi_cg_cr_rs1_imm_edges_rs1val_0x7fffffff_immval_0x703
0000b9fd l       .data	00000000 I_andi_cg_cr_rs1_imm_edges_rs1val_0x7fffffff_immval_0x703_str
00001b60 l       .text.rvtest	00000000 I_andi_cg_cr_rs1_imm_edges_rs1val_0x7fffffff_immval_0x7ff
0000ba54 l       .data	00000000 I_andi_cg_cr_rs1_imm_edges_rs1val_0x7fffffff_immval_0x7ff_str
00001b84 l       .text.rvtest	00000000 I_andi_cg_cr_rs1_imm_edges_rs1val_0x7fffffff_immval_m0x800
0000baab l       .data	00000000 I_andi_cg_cr_rs1_imm_edges_rs1val_0x7fffffff_immval_m0x800_str
00001ba8 l       .text.rvtest	00000000 I_andi_cg_cr_rs1_imm_edges_rs1val_0x7fffffff_immval_m0x7ff
0000bb03 l       .data	00000000 I_andi_cg_cr_rs1_imm_edges_rs1val_0x7fffffff_immval_m0x7ff_str
00001bcc l       .text.rvtest	00000000 I_andi_cg_cr_rs1_imm_edges_rs1val_0x7fffffff_immval_m0x2
0000bb5b l       .data	00000000 I_andi_cg_cr_rs1_imm_edges_rs1val_0x7fffffff_immval_m0x2_str
00001bf0 l       .text.rvtest	00000000 I_andi_cg_cr_rs1_imm_edges_rs1val_0x7fffffff_immval_m0x1
0000bbb1 l       .data	00000000 I_andi_cg_cr_rs1_imm_edges_rs1val_0x7fffffff_immval_m0x1_str
00001c14 l       .text.rvtest	00000000 I_andi_cg_cr_rs1_imm_edges_rs1val_0x7ffffffe_immval_0x0
0000bc07 l       .data	00000000 I_andi_cg_cr_rs1_imm_edges_rs1val_0x7ffffffe_immval_0x0_str
00001c38 l       .text.rvtest	00000000 I_andi_cg_cr_rs1_imm_edges_rs1val_0x7ffffffe_immval_0x1
0000bc5c l       .data	00000000 I_andi_cg_cr_rs1_imm_edges_rs1val_0x7ffffffe_immval_0x1_str
00001c5c l       .text.rvtest	00000000 I_andi_cg_cr_rs1_imm_edges_rs1val_0x7ffffffe_immval_0x2
0000bcb1 l       .data	00000000 I_andi_cg_cr_rs1_imm_edges_rs1val_0x7ffffffe_immval_0x2_str
00001c80 l       .text.rvtest	00000000 I_andi_cg_cr_rs1_imm_edges_rs1val_0x7ffffffe_immval_0x3
0000bd06 l       .data	00000000 I_andi_cg_cr_rs1_imm_edges_rs1val_0x7ffffffe_immval_0x3_str
00001ca4 l       .text.rvtest	00000000 I_andi_cg_cr_rs1_imm_edges_rs1val_0x7ffffffe_immval_0x4
0000bd5b l       .data	00000000 I_andi_cg_cr_rs1_imm_edges_rs1val_0x7ffffffe_immval_0x4_str
00001cc8 l       .text.rvtest	00000000 I_andi_cg_cr_rs1_imm_edges_rs1val_0x7ffffffe_immval_0x8
0000bdb0 l       .data	00000000 I_andi_cg_cr_rs1_imm_edges_rs1val_0x7ffffffe_immval_0x8_str
00001cec l       .text.rvtest	00000000 I_andi_cg_cr_rs1_imm_edges_rs1val_0x7ffffffe_immval_0x10
0000be05 l       .data	00000000 I_andi_cg_cr_rs1_imm_edges_rs1val_0x7ffffffe_immval_0x10_str
00001d10 l       .text.rvtest	00000000 I_andi_cg_cr_rs1_imm_edges_rs1val_0x7ffffffe_immval_0x20
0000be5b l       .data	00000000 I_andi_cg_cr_rs1_imm_edges_rs1val_0x7ffffffe_immval_0x20_str
00001d34 l       .text.rvtest	00000000 I_andi_cg_cr_rs1_imm_edges_rs1val_0x7ffffffe_immval_0x40
0000beb1 l       .data	00000000 I_andi_cg_cr_rs1_imm_edges_rs1val_0x7ffffffe_immval_0x40_str
00001d58 l       .text.rvtest	00000000 I_andi_cg_cr_rs1_imm_edges_rs1val_0x7ffffffe_immval_0x80
0000bf07 l       .data	00000000 I_andi_cg_cr_rs1_imm_edges_rs1val_0x7ffffffe_immval_0x80_str
00001d7c l       .text.rvtest	00000000 I_andi_cg_cr_rs1_imm_edges_rs1val_0x7ffffffe_immval_0x100
0000bf5d l       .data	00000000 I_andi_cg_cr_rs1_imm_edges_rs1val_0x7ffffffe_immval_0x100_str
00001da0 l       .text.rvtest	00000000 I_andi_cg_cr_rs1_imm_edges_rs1val_0x7ffffffe_immval_0x200
0000bfb4 l       .data	00000000 I_andi_cg_cr_rs1_imm_edges_rs1val_0x7ffffffe_immval_0x200_str
00001dc4 l       .text.rvtest	00000000 I_andi_cg_cr_rs1_imm_edges_rs1val_0x7ffffffe_immval_0x3ff
0000c00b l       .data	00000000 I_andi_cg_cr_rs1_imm_edges_rs1val_0x7ffffffe_immval_0x3ff_str
00001de8 l       .text.rvtest	00000000 I_andi_cg_cr_rs1_imm_edges_rs1val_0x7ffffffe_immval_0x400
0000c062 l       .data	00000000 I_andi_cg_cr_rs1_imm_edges_rs1val_0x7ffffffe_immval_0x400_str
00001e0c l       .text.rvtest	00000000 I_andi_cg_cr_rs1_imm_edges_rs1val_0x7ffffffe_immval_0x703
0000c0b9 l       .data	00000000 I_andi_cg_cr_rs1_imm_edges_rs1val_0x7ffffffe_immval_0x703_str
00001e30 l       .text.rvtest	00000000 I_andi_cg_cr_rs1_imm_edges_rs1val_0x7ffffffe_immval_0x7ff
0000c110 l       .data	00000000 I_andi_cg_cr_rs1_imm_edges_rs1val_0x7ffffffe_immval_0x7ff_str
00001e54 l       .text.rvtest	00000000 I_andi_cg_cr_rs1_imm_edges_rs1val_0x7ffffffe_immval_m0x800
0000c167 l       .data	00000000 I_andi_cg_cr_rs1_imm_edges_rs1val_0x7ffffffe_immval_m0x800_str
00001e78 l       .text.rvtest	00000000 I_andi_cg_cr_rs1_imm_edges_rs1val_0x7ffffffe_immval_m0x7ff
0000c1bf l       .data	00000000 I_andi_cg_cr_rs1_imm_edges_rs1val_0x7ffffffe_immval_m0x7ff_str
00001e9c l       .text.rvtest	00000000 I_andi_cg_cr_rs1_imm_edges_rs1val_0x7ffffffe_immval_m0x2
0000c217 l       .data	00000000 I_andi_cg_cr_rs1_imm_edges_rs1val_0x7ffffffe_immval_m0x2_str
00001ec0 l       .text.rvtest	00000000 I_andi_cg_cr_rs1_imm_edges_rs1val_0x7ffffffe_immval_m0x1
0000c26d l       .data	00000000 I_andi_cg_cr_rs1_imm_edges_rs1val_0x7ffffffe_immval_m0x1_str
00001ee4 l       .text.rvtest	00000000 I_andi_cg_cr_rs1_imm_edges_rs1val_0xffffffff_immval_0x0
0000c2c3 l       .data	00000000 I_andi_cg_cr_rs1_imm_edges_rs1val_0xffffffff_immval_0x0_str
00001f08 l       .text.rvtest	00000000 I_andi_cg_cr_rs1_imm_edges_rs1val_0xffffffff_immval_0x1
0000c318 l       .data	00000000 I_andi_cg_cr_rs1_imm_edges_rs1val_0xffffffff_immval_0x1_str
00001f2c l       .text.rvtest	00000000 I_andi_cg_cr_rs1_imm_edges_rs1val_0xffffffff_immval_0x2
0000c36d l       .data	00000000 I_andi_cg_cr_rs1_imm_edges_rs1val_0xffffffff_immval_0x2_str
00001f50 l       .text.rvtest	00000000 I_andi_cg_cr_rs1_imm_edges_rs1val_0xffffffff_immval_0x3
0000c3c2 l       .data	00000000 I_andi_cg_cr_rs1_imm_edges_rs1val_0xffffffff_immval_0x3_str
00001f74 l       .text.rvtest	00000000 I_andi_cg_cr_rs1_imm_edges_rs1val_0xffffffff_immval_0x4
0000c417 l       .data	00000000 I_andi_cg_cr_rs1_imm_edges_rs1val_0xffffffff_immval_0x4_str
00001f98 l       .text.rvtest	00000000 I_andi_cg_cr_rs1_imm_edges_rs1val_0xffffffff_immval_0x8
0000c46c l       .data	00000000 I_andi_cg_cr_rs1_imm_edges_rs1val_0xffffffff_immval_0x8_str
00001fbc l       .text.rvtest	00000000 I_andi_cg_cr_rs1_imm_edges_rs1val_0xffffffff_immval_0x10
0000c4c1 l       .data	00000000 I_andi_cg_cr_rs1_imm_edges_rs1val_0xffffffff_immval_0x10_str
00001fe0 l       .text.rvtest	00000000 I_andi_cg_cr_rs1_imm_edges_rs1val_0xffffffff_immval_0x20
0000c517 l       .data	00000000 I_andi_cg_cr_rs1_imm_edges_rs1val_0xffffffff_immval_0x20_str
00002004 l       .text.rvtest	00000000 I_andi_cg_cr_rs1_imm_edges_rs1val_0xffffffff_immval_0x40
0000c56d l       .data	00000000 I_andi_cg_cr_rs1_imm_edges_rs1val_0xffffffff_immval_0x40_str
00002028 l       .text.rvtest	00000000 I_andi_cg_cr_rs1_imm_edges_rs1val_0xffffffff_immval_0x80
0000c5c3 l       .data	00000000 I_andi_cg_cr_rs1_imm_edges_rs1val_0xffffffff_immval_0x80_str
0000204c l       .text.rvtest	00000000 I_andi_cg_cr_rs1_imm_edges_rs1val_0xffffffff_immval_0x100
0000c619 l       .data	00000000 I_andi_cg_cr_rs1_imm_edges_rs1val_0xffffffff_immval_0x100_str
00002070 l       .text.rvtest	00000000 I_andi_cg_cr_rs1_imm_edges_rs1val_0xffffffff_immval_0x200
0000c670 l       .data	00000000 I_andi_cg_cr_rs1_imm_edges_rs1val_0xffffffff_immval_0x200_str
00002094 l       .text.rvtest	00000000 I_andi_cg_cr_rs1_imm_edges_rs1val_0xffffffff_immval_0x3ff
0000c6c7 l       .data	00000000 I_andi_cg_cr_rs1_imm_edges_rs1val_0xffffffff_immval_0x3ff_str
000020b8 l       .text.rvtest	00000000 I_andi_cg_cr_rs1_imm_edges_rs1val_0xffffffff_immval_0x400
0000c71e l       .data	00000000 I_andi_cg_cr_rs1_imm_edges_rs1val_0xffffffff_immval_0x400_str
000020dc l       .text.rvtest	00000000 I_andi_cg_cr_rs1_imm_edges_rs1val_0xffffffff_immval_0x703
0000c775 l       .data	00000000 I_andi_cg_cr_rs1_imm_edges_rs1val_0xffffffff_immval_0x703_str
00002100 l       .text.rvtest	00000000 I_andi_cg_cr_rs1_imm_edges_rs1val_0xffffffff_immval_0x7ff
0000c7cc l       .data	00000000 I_andi_cg_cr_rs1_imm_edges_rs1val_0xffffffff_immval_0x7ff_str
00002124 l       .text.rvtest	00000000 I_andi_cg_cr_rs1_imm_edges_rs1val_0xffffffff_immval_m0x800
0000c823 l       .data	00000000 I_andi_cg_cr_rs1_imm_edges_rs1val_0xffffffff_immval_m0x800_str
00002148 l       .text.rvtest	00000000 I_andi_cg_cr_rs1_imm_edges_rs1val_0xffffffff_immval_m0x7ff
0000c87b l       .data	00000000 I_andi_cg_cr_rs1_imm_edges_rs1val_0xffffffff_immval_m0x7ff_str
0000216c l       .text.rvtest	00000000 I_andi_cg_cr_rs1_imm_edges_rs1val_0xffffffff_immval_m0x2
0000c8d3 l       .data	00000000 I_andi_cg_cr_rs1_imm_edges_rs1val_0xffffffff_immval_m0x2_str
00002190 l       .text.rvtest	00000000 I_andi_cg_cr_rs1_imm_edges_rs1val_0xffffffff_immval_m0x1
0000c929 l       .data	00000000 I_andi_cg_cr_rs1_imm_edges_rs1val_0xffffffff_immval_m0x1_str
000021b4 l       .text.rvtest	00000000 I_andi_cg_cr_rs1_imm_edges_rs1val_0xfffffffe_immval_0x0
0000c97f l       .data	00000000 I_andi_cg_cr_rs1_imm_edges_rs1val_0xfffffffe_immval_0x0_str
000021d8 l       .text.rvtest	00000000 I_andi_cg_cr_rs1_imm_edges_rs1val_0xfffffffe_immval_0x1
0000c9d4 l       .data	00000000 I_andi_cg_cr_rs1_imm_edges_rs1val_0xfffffffe_immval_0x1_str
000021fc l       .text.rvtest	00000000 I_andi_cg_cr_rs1_imm_edges_rs1val_0xfffffffe_immval_0x2
0000ca29 l       .data	00000000 I_andi_cg_cr_rs1_imm_edges_rs1val_0xfffffffe_immval_0x2_str
00002220 l       .text.rvtest	00000000 I_andi_cg_cr_rs1_imm_edges_rs1val_0xfffffffe_immval_0x3
0000ca7e l       .data	00000000 I_andi_cg_cr_rs1_imm_edges_rs1val_0xfffffffe_immval_0x3_str
00002244 l       .text.rvtest	00000000 I_andi_cg_cr_rs1_imm_edges_rs1val_0xfffffffe_immval_0x4
0000cad3 l       .data	00000000 I_andi_cg_cr_rs1_imm_edges_rs1val_0xfffffffe_immval_0x4_str
00002268 l       .text.rvtest	00000000 I_andi_cg_cr_rs1_imm_edges_rs1val_0xfffffffe_immval_0x8
0000cb28 l       .data	00000000 I_andi_cg_cr_rs1_imm_edges_rs1val_0xfffffffe_immval_0x8_str
0000228c l       .text.rvtest	00000000 I_andi_cg_cr_rs1_imm_edges_rs1val_0xfffffffe_immval_0x10
0000cb7d l       .data	00000000 I_andi_cg_cr_rs1_imm_edges_rs1val_0xfffffffe_immval_0x10_str
000022b0 l       .text.rvtest	00000000 I_andi_cg_cr_rs1_imm_edges_rs1val_0xfffffffe_immval_0x20
0000cbd3 l       .data	00000000 I_andi_cg_cr_rs1_imm_edges_rs1val_0xfffffffe_immval_0x20_str
000022d4 l       .text.rvtest	00000000 I_andi_cg_cr_rs1_imm_edges_rs1val_0xfffffffe_immval_0x40
0000cc29 l       .data	00000000 I_andi_cg_cr_rs1_imm_edges_rs1val_0xfffffffe_immval_0x40_str
000022f8 l       .text.rvtest	00000000 I_andi_cg_cr_rs1_imm_edges_rs1val_0xfffffffe_immval_0x80
0000cc7f l       .data	00000000 I_andi_cg_cr_rs1_imm_edges_rs1val_0xfffffffe_immval_0x80_str
0000231c l       .text.rvtest	00000000 I_andi_cg_cr_rs1_imm_edges_rs1val_0xfffffffe_immval_0x100
0000ccd5 l       .data	00000000 I_andi_cg_cr_rs1_imm_edges_rs1val_0xfffffffe_immval_0x100_str
00002340 l       .text.rvtest	00000000 I_andi_cg_cr_rs1_imm_edges_rs1val_0xfffffffe_immval_0x200
0000cd2c l       .data	00000000 I_andi_cg_cr_rs1_imm_edges_rs1val_0xfffffffe_immval_0x200_str
00002364 l       .text.rvtest	00000000 I_andi_cg_cr_rs1_imm_edges_rs1val_0xfffffffe_immval_0x3ff
0000cd83 l       .data	00000000 I_andi_cg_cr_rs1_imm_edges_rs1val_0xfffffffe_immval_0x3ff_str
00002388 l       .text.rvtest	00000000 I_andi_cg_cr_rs1_imm_edges_rs1val_0xfffffffe_immval_0x400
0000cdda l       .data	00000000 I_andi_cg_cr_rs1_imm_edges_rs1val_0xfffffffe_immval_0x400_str
000023ac l       .text.rvtest	00000000 I_andi_cg_cr_rs1_imm_edges_rs1val_0xfffffffe_immval_0x703
0000ce31 l       .data	00000000 I_andi_cg_cr_rs1_imm_edges_rs1val_0xfffffffe_immval_0x703_str
000023d0 l       .text.rvtest	00000000 I_andi_cg_cr_rs1_imm_edges_rs1val_0xfffffffe_immval_0x7ff
0000ce88 l       .data	00000000 I_andi_cg_cr_rs1_imm_edges_rs1val_0xfffffffe_immval_0x7ff_str
000023f4 l       .text.rvtest	00000000 I_andi_cg_cr_rs1_imm_edges_rs1val_0xfffffffe_immval_m0x800
0000cedf l       .data	00000000 I_andi_cg_cr_rs1_imm_edges_rs1val_0xfffffffe_immval_m0x800_str
00002418 l       .text.rvtest	00000000 I_andi_cg_cr_rs1_imm_edges_rs1val_0xfffffffe_immval_m0x7ff
0000cf37 l       .data	00000000 I_andi_cg_cr_rs1_imm_edges_rs1val_0xfffffffe_immval_m0x7ff_str
0000243c l       .text.rvtest	00000000 I_andi_cg_cr_rs1_imm_edges_rs1val_0xfffffffe_immval_m0x2
0000cf8f l       .data	00000000 I_andi_cg_cr_rs1_imm_edges_rs1val_0xfffffffe_immval_m0x2_str
00002460 l       .text.rvtest	00000000 I_andi_cg_cr_rs1_imm_edges_rs1val_0xfffffffe_immval_m0x1
0000cfe5 l       .data	00000000 I_andi_cg_cr_rs1_imm_edges_rs1val_0xfffffffe_immval_m0x1_str
00002484 l       .text.rvtest	00000000 I_andi_cg_cr_rs1_imm_edges_rs1val_0x5bbc8872_immval_0x0
0000d03b l       .data	00000000 I_andi_cg_cr_rs1_imm_edges_rs1val_0x5bbc8872_immval_0x0_str
000024a8 l       .text.rvtest	00000000 I_andi_cg_cr_rs1_imm_edges_rs1val_0x5bbc8872_immval_0x1
0000d090 l       .data	00000000 I_andi_cg_cr_rs1_imm_edges_rs1val_0x5bbc8872_immval_0x1_str
000024cc l       .text.rvtest	00000000 I_andi_cg_cr_rs1_imm_edges_rs1val_0x5bbc8872_immval_0x2
0000d0e5 l       .data	00000000 I_andi_cg_cr_rs1_imm_edges_rs1val_0x5bbc8872_immval_0x2_str
000024f0 l       .text.rvtest	00000000 I_andi_cg_cr_rs1_imm_edges_rs1val_0x5bbc8872_immval_0x3
0000d13a l       .data	00000000 I_andi_cg_cr_rs1_imm_edges_rs1val_0x5bbc8872_immval_0x3_str
00002514 l       .text.rvtest	00000000 I_andi_cg_cr_rs1_imm_edges_rs1val_0x5bbc8872_immval_0x4
0000d18f l       .data	00000000 I_andi_cg_cr_rs1_imm_edges_rs1val_0x5bbc8872_immval_0x4_str
00002538 l       .text.rvtest	00000000 I_andi_cg_cr_rs1_imm_edges_rs1val_0x5bbc8872_immval_0x8
0000d1e4 l       .data	00000000 I_andi_cg_cr_rs1_imm_edges_rs1val_0x5bbc8872_immval_0x8_str
0000255c l       .text.rvtest	00000000 I_andi_cg_cr_rs1_imm_edges_rs1val_0x5bbc8872_immval_0x10
0000d239 l       .data	00000000 I_andi_cg_cr_rs1_imm_edges_rs1val_0x5bbc8872_immval_0x10_str
00002580 l       .text.rvtest	00000000 I_andi_cg_cr_rs1_imm_edges_rs1val_0x5bbc8872_immval_0x20
0000d28f l       .data	00000000 I_andi_cg_cr_rs1_imm_edges_rs1val_0x5bbc8872_immval_0x20_str
000025a4 l       .text.rvtest	00000000 I_andi_cg_cr_rs1_imm_edges_rs1val_0x5bbc8872_immval_0x40
0000d2e5 l       .data	00000000 I_andi_cg_cr_rs1_imm_edges_rs1val_0x5bbc8872_immval_0x40_str
000025c8 l       .text.rvtest	00000000 I_andi_cg_cr_rs1_imm_edges_rs1val_0x5bbc8872_immval_0x80
0000d33b l       .data	00000000 I_andi_cg_cr_rs1_imm_edges_rs1val_0x5bbc8872_immval_0x80_str
000025ec l       .text.rvtest	00000000 I_andi_cg_cr_rs1_imm_edges_rs1val_0x5bbc8872_immval_0x100
0000d391 l       .data	00000000 I_andi_cg_cr_rs1_imm_edges_rs1val_0x5bbc8872_immval_0x100_str
00002610 l       .text.rvtest	00000000 I_andi_cg_cr_rs1_imm_edges_rs1val_0x5bbc8872_immval_0x200
0000d3e8 l       .data	00000000 I_andi_cg_cr_rs1_imm_edges_rs1val_0x5bbc8872_immval_0x200_str
00002634 l       .text.rvtest	00000000 I_andi_cg_cr_rs1_imm_edges_rs1val_0x5bbc8872_immval_0x3ff
0000d43f l       .data	00000000 I_andi_cg_cr_rs1_imm_edges_rs1val_0x5bbc8872_immval_0x3ff_str
00002658 l       .text.rvtest	00000000 I_andi_cg_cr_rs1_imm_edges_rs1val_0x5bbc8872_immval_0x400
0000d496 l       .data	00000000 I_andi_cg_cr_rs1_imm_edges_rs1val_0x5bbc8872_immval_0x400_str
0000267c l       .text.rvtest	00000000 I_andi_cg_cr_rs1_imm_edges_rs1val_0x5bbc8872_immval_0x703
0000d4ed l       .data	00000000 I_andi_cg_cr_rs1_imm_edges_rs1val_0x5bbc8872_immval_0x703_str
000026a0 l       .text.rvtest	00000000 I_andi_cg_cr_rs1_imm_edges_rs1val_0x5bbc8872_immval_0x7ff
0000d544 l       .data	00000000 I_andi_cg_cr_rs1_imm_edges_rs1val_0x5bbc8872_immval_0x7ff_str
000026c4 l       .text.rvtest	00000000 I_andi_cg_cr_rs1_imm_edges_rs1val_0x5bbc8872_immval_m0x800
0000d59b l       .data	00000000 I_andi_cg_cr_rs1_imm_edges_rs1val_0x5bbc8872_immval_m0x800_str
000026e8 l       .text.rvtest	00000000 I_andi_cg_cr_rs1_imm_edges_rs1val_0x5bbc8872_immval_m0x7ff
0000d5f3 l       .data	00000000 I_andi_cg_cr_rs1_imm_edges_rs1val_0x5bbc8872_immval_m0x7ff_str
0000270c l       .text.rvtest	00000000 I_andi_cg_cr_rs1_imm_edges_rs1val_0x5bbc8872_immval_m0x2
0000d64b l       .data	00000000 I_andi_cg_cr_rs1_imm_edges_rs1val_0x5bbc8872_immval_m0x2_str
00002730 l       .text.rvtest	00000000 I_andi_cg_cr_rs1_imm_edges_rs1val_0x5bbc8872_immval_m0x1
0000d6a1 l       .data	00000000 I_andi_cg_cr_rs1_imm_edges_rs1val_0x5bbc8872_immval_m0x1_str
00002754 l       .text.rvtest	00000000 I_andi_cg_cr_rs1_imm_edges_rs1val_0xaaaaaaaa_immval_0x0
0000d6f7 l       .data	00000000 I_andi_cg_cr_rs1_imm_edges_rs1val_0xaaaaaaaa_immval_0x0_str
00002778 l       .text.rvtest	00000000 I_andi_cg_cr_rs1_imm_edges_rs1val_0xaaaaaaaa_immval_0x1
0000d74c l       .data	00000000 I_andi_cg_cr_rs1_imm_edges_rs1val_0xaaaaaaaa_immval_0x1_str
0000279c l       .text.rvtest	00000000 I_andi_cg_cr_rs1_imm_edges_rs1val_0xaaaaaaaa_immval_0x2
0000d7a1 l       .data	00000000 I_andi_cg_cr_rs1_imm_edges_rs1val_0xaaaaaaaa_immval_0x2_str
000027c0 l       .text.rvtest	00000000 I_andi_cg_cr_rs1_imm_edges_rs1val_0xaaaaaaaa_immval_0x3
0000d7f6 l       .data	00000000 I_andi_cg_cr_rs1_imm_edges_rs1val_0xaaaaaaaa_immval_0x3_str
000027e4 l       .text.rvtest	00000000 I_andi_cg_cr_rs1_imm_edges_rs1val_0xaaaaaaaa_immval_0x4
0000d84b l       .data	00000000 I_andi_cg_cr_rs1_imm_edges_rs1val_0xaaaaaaaa_immval_0x4_str
00002808 l       .text.rvtest	00000000 I_andi_cg_cr_rs1_imm_edges_rs1val_0xaaaaaaaa_immval_0x8
0000d8a0 l       .data	00000000 I_andi_cg_cr_rs1_imm_edges_rs1val_0xaaaaaaaa_immval_0x8_str
0000282c l       .text.rvtest	00000000 I_andi_cg_cr_rs1_imm_edges_rs1val_0xaaaaaaaa_immval_0x10
0000d8f5 l       .data	00000000 I_andi_cg_cr_rs1_imm_edges_rs1val_0xaaaaaaaa_immval_0x10_str
00002850 l       .text.rvtest	00000000 I_andi_cg_cr_rs1_imm_edges_rs1val_0xaaaaaaaa_immval_0x20
0000d94b l       .data	00000000 I_andi_cg_cr_rs1_imm_edges_rs1val_0xaaaaaaaa_immval_0x20_str
00002874 l       .text.rvtest	00000000 I_andi_cg_cr_rs1_imm_edges_rs1val_0xaaaaaaaa_immval_0x40
0000d9a1 l       .data	00000000 I_andi_cg_cr_rs1_imm_edges_rs1val_0xaaaaaaaa_immval_0x40_str
00002898 l       .text.rvtest	00000000 I_andi_cg_cr_rs1_imm_edges_rs1val_0xaaaaaaaa_immval_0x80
0000d9f7 l       .data	00000000 I_andi_cg_cr_rs1_imm_edges_rs1val_0xaaaaaaaa_immval_0x80_str
000028bc l       .text.rvtest	00000000 I_andi_cg_cr_rs1_imm_edges_rs1val_0xaaaaaaaa_immval_0x100
0000da4d l       .data	00000000 I_andi_cg_cr_rs1_imm_edges_rs1val_0xaaaaaaaa_immval_0x100_str
000028e0 l       .text.rvtest	00000000 I_andi_cg_cr_rs1_imm_edges_rs1val_0xaaaaaaaa_immval_0x200
0000daa4 l       .data	00000000 I_andi_cg_cr_rs1_imm_edges_rs1val_0xaaaaaaaa_immval_0x200_str
00002904 l       .text.rvtest	00000000 I_andi_cg_cr_rs1_imm_edges_rs1val_0xaaaaaaaa_immval_0x3ff
0000dafb l       .data	00000000 I_andi_cg_cr_rs1_imm_edges_rs1val_0xaaaaaaaa_immval_0x3ff_str
00002928 l       .text.rvtest	00000000 I_andi_cg_cr_rs1_imm_edges_rs1val_0xaaaaaaaa_immval_0x400
0000db52 l       .data	00000000 I_andi_cg_cr_rs1_imm_edges_rs1val_0xaaaaaaaa_immval_0x400_str
0000294c l       .text.rvtest	00000000 I_andi_cg_cr_rs1_imm_edges_rs1val_0xaaaaaaaa_immval_0x703
0000dba9 l       .data	00000000 I_andi_cg_cr_rs1_imm_edges_rs1val_0xaaaaaaaa_immval_0x703_str
00002970 l       .text.rvtest	00000000 I_andi_cg_cr_rs1_imm_edges_rs1val_0xaaaaaaaa_immval_0x7ff
0000dc00 l       .data	00000000 I_andi_cg_cr_rs1_imm_edges_rs1val_0xaaaaaaaa_immval_0x7ff_str
00002994 l       .text.rvtest	00000000 I_andi_cg_cr_rs1_imm_edges_rs1val_0xaaaaaaaa_immval_m0x800
0000dc57 l       .data	00000000 I_andi_cg_cr_rs1_imm_edges_rs1val_0xaaaaaaaa_immval_m0x800_str
000029b8 l       .text.rvtest	00000000 I_andi_cg_cr_rs1_imm_edges_rs1val_0xaaaaaaaa_immval_m0x7ff
0000dcaf l       .data	00000000 I_andi_cg_cr_rs1_imm_edges_rs1val_0xaaaaaaaa_immval_m0x7ff_str
000029dc l       .text.rvtest	00000000 I_andi_cg_cr_rs1_imm_edges_rs1val_0xaaaaaaaa_immval_m0x2
0000dd07 l       .data	00000000 I_andi_cg_cr_rs1_imm_edges_rs1val_0xaaaaaaaa_immval_m0x2_str
00002a00 l       .text.rvtest	00000000 I_andi_cg_cr_rs1_imm_edges_rs1val_0xaaaaaaaa_immval_m0x1
0000dd5d l       .data	00000000 I_andi_cg_cr_rs1_imm_edges_rs1val_0xaaaaaaaa_immval_m0x1_str
00002a24 l       .text.rvtest	00000000 I_andi_cg_cr_rs1_imm_edges_rs1val_0x55555555_immval_0x0
0000ddb3 l       .data	00000000 I_andi_cg_cr_rs1_imm_edges_rs1val_0x55555555_immval_0x0_str
00002a48 l       .text.rvtest	00000000 I_andi_cg_cr_rs1_imm_edges_rs1val_0x55555555_immval_0x1
0000de08 l       .data	00000000 I_andi_cg_cr_rs1_imm_edges_rs1val_0x55555555_immval_0x1_str
00002a6c l       .text.rvtest	00000000 I_andi_cg_cr_rs1_imm_edges_rs1val_0x55555555_immval_0x2
0000de5d l       .data	00000000 I_andi_cg_cr_rs1_imm_edges_rs1val_0x55555555_immval_0x2_str
00002a90 l       .text.rvtest	00000000 I_andi_cg_cr_rs1_imm_edges_rs1val_0x55555555_immval_0x3
0000deb2 l       .data	00000000 I_andi_cg_cr_rs1_imm_edges_rs1val_0x55555555_immval_0x3_str
00002ab4 l       .text.rvtest	00000000 I_andi_cg_cr_rs1_imm_edges_rs1val_0x55555555_immval_0x4
0000df07 l       .data	00000000 I_andi_cg_cr_rs1_imm_edges_rs1val_0x55555555_immval_0x4_str
00002ad8 l       .text.rvtest	00000000 I_andi_cg_cr_rs1_imm_edges_rs1val_0x55555555_immval_0x8
0000df5c l       .data	00000000 I_andi_cg_cr_rs1_imm_edges_rs1val_0x55555555_immval_0x8_str
00002afc l       .text.rvtest	00000000 I_andi_cg_cr_rs1_imm_edges_rs1val_0x55555555_immval_0x10
0000dfb1 l       .data	00000000 I_andi_cg_cr_rs1_imm_edges_rs1val_0x55555555_immval_0x10_str
00002b20 l       .text.rvtest	00000000 I_andi_cg_cr_rs1_imm_edges_rs1val_0x55555555_immval_0x20
0000e007 l       .data	00000000 I_andi_cg_cr_rs1_imm_edges_rs1val_0x55555555_immval_0x20_str
00002b44 l       .text.rvtest	00000000 I_andi_cg_cr_rs1_imm_edges_rs1val_0x55555555_immval_0x40
0000e05d l       .data	00000000 I_andi_cg_cr_rs1_imm_edges_rs1val_0x55555555_immval_0x40_str
00002b68 l       .text.rvtest	00000000 I_andi_cg_cr_rs1_imm_edges_rs1val_0x55555555_immval_0x80
0000e0b3 l       .data	00000000 I_andi_cg_cr_rs1_imm_edges_rs1val_0x55555555_immval_0x80_str
00002b8c l       .text.rvtest	00000000 I_andi_cg_cr_rs1_imm_edges_rs1val_0x55555555_immval_0x100
0000e109 l       .data	00000000 I_andi_cg_cr_rs1_imm_edges_rs1val_0x55555555_immval_0x100_str
00002bb0 l       .text.rvtest	00000000 I_andi_cg_cr_rs1_imm_edges_rs1val_0x55555555_immval_0x200
0000e160 l       .data	00000000 I_andi_cg_cr_rs1_imm_edges_rs1val_0x55555555_immval_0x200_str
00002bd4 l       .text.rvtest	00000000 I_andi_cg_cr_rs1_imm_edges_rs1val_0x55555555_immval_0x3ff
0000e1b7 l       .data	00000000 I_andi_cg_cr_rs1_imm_edges_rs1val_0x55555555_immval_0x3ff_str
00002bf8 l       .text.rvtest	00000000 I_andi_cg_cr_rs1_imm_edges_rs1val_0x55555555_immval_0x400
0000e20e l       .data	00000000 I_andi_cg_cr_rs1_imm_edges_rs1val_0x55555555_immval_0x400_str
00002c1c l       .text.rvtest	00000000 I_andi_cg_cr_rs1_imm_edges_rs1val_0x55555555_immval_0x703
0000e265 l       .data	00000000 I_andi_cg_cr_rs1_imm_edges_rs1val_0x55555555_immval_0x703_str
00002c40 l       .text.rvtest	00000000 I_andi_cg_cr_rs1_imm_edges_rs1val_0x55555555_immval_0x7ff
0000e2bc l       .data	00000000 I_andi_cg_cr_rs1_imm_edges_rs1val_0x55555555_immval_0x7ff_str
00002c64 l       .text.rvtest	00000000 I_andi_cg_cr_rs1_imm_edges_rs1val_0x55555555_immval_m0x800
0000e313 l       .data	00000000 I_andi_cg_cr_rs1_imm_edges_rs1val_0x55555555_immval_m0x800_str
00002c88 l       .text.rvtest	00000000 I_andi_cg_cr_rs1_imm_edges_rs1val_0x55555555_immval_m0x7ff
0000e36b l       .data	00000000 I_andi_cg_cr_rs1_imm_edges_rs1val_0x55555555_immval_m0x7ff_str
00002cac l       .text.rvtest	00000000 I_andi_cg_cr_rs1_imm_edges_rs1val_0x55555555_immval_m0x2
0000e3c3 l       .data	00000000 I_andi_cg_cr_rs1_imm_edges_rs1val_0x55555555_immval_m0x2_str
00002cd0 l       .text.rvtest	00000000 I_andi_cg_cr_rs1_imm_edges_rs1val_0x55555555_immval_m0x1
0000e419 l       .data	00000000 I_andi_cg_cr_rs1_imm_edges_rs1val_0x55555555_immval_m0x1_str
00002cf4 l       .text.rvtest	00000000 I_andi_cg_cmp_rd_rs1_b0
0000e46f l       .data	00000000 I_andi_cg_cmp_rd_rs1_b0_str
00002d18 l       .text.rvtest	00000000 I_andi_cg_cmp_rd_rs1_b1
0000e4a3 l       .data	00000000 I_andi_cg_cmp_rd_rs1_b1_str
00002d3c l       .text.rvtest	00000000 I_andi_cg_cmp_rd_rs1_b2
0000e4d7 l       .data	00000000 I_andi_cg_cmp_rd_rs1_b2_str
00002d60 l       .text.rvtest	00000000 I_andi_cg_cmp_rd_rs1_b3
0000e50b l       .data	00000000 I_andi_cg_cmp_rd_rs1_b3_str
00002d8c l       .text.rvtest	00000000 I_andi_cg_cmp_rd_rs1_b4
0000e53f l       .data	00000000 I_andi_cg_cmp_rd_rs1_b4_str
00002db0 l       .text.rvtest	00000000 I_andi_cg_cmp_rd_rs1_b5
0000e573 l       .data	00000000 I_andi_cg_cmp_rd_rs1_b5_str
00002dd4 l       .text.rvtest	00000000 I_andi_cg_cmp_rd_rs1_b6
0000e5a7 l       .data	00000000 I_andi_cg_cmp_rd_rs1_b6_str
00002e00 l       .text.rvtest	00000000 I_andi_cg_cmp_rd_rs1_b7
0000e5db l       .data	00000000 I_andi_cg_cmp_rd_rs1_b7_str
00002e24 l       .text.rvtest	00000000 I_andi_cg_cmp_rd_rs1_b8
0000e60f l       .data	00000000 I_andi_cg_cmp_rd_rs1_b8_str
00002e48 l       .text.rvtest	00000000 I_andi_cg_cmp_rd_rs1_b9
0000e643 l       .data	00000000 I_andi_cg_cmp_rd_rs1_b9_str
00002e70 l       .text.rvtest	00000000 I_andi_cg_cmp_rd_rs1_b10
0000e677 l       .data	00000000 I_andi_cg_cmp_rd_rs1_b10_str
00002e94 l       .text.rvtest	00000000 I_andi_cg_cmp_rd_rs1_b11
0000e6ac l       .data	00000000 I_andi_cg_cmp_rd_rs1_b11_str
00002eb8 l       .text.rvtest	00000000 I_andi_cg_cmp_rd_rs1_b12
0000e6e1 l       .data	00000000 I_andi_cg_cmp_rd_rs1_b12_str
00002ee4 l       .text.rvtest	00000000 I_andi_cg_cmp_rd_rs1_b13
0000e716 l       .data	00000000 I_andi_cg_cmp_rd_rs1_b13_str
00002f08 l       .text.rvtest	00000000 I_andi_cg_cmp_rd_rs1_b14
0000e74b l       .data	00000000 I_andi_cg_cmp_rd_rs1_b14_str
00002f2c l       .text.rvtest	00000000 I_andi_cg_cmp_rd_rs1_b15
0000e780 l       .data	00000000 I_andi_cg_cmp_rd_rs1_b15_str
00002f50 l       .text.rvtest	00000000 I_andi_cg_cmp_rd_rs1_b16
0000e7b5 l       .data	00000000 I_andi_cg_cmp_rd_rs1_b16_str
00002f74 l       .text.rvtest	00000000 I_andi_cg_cmp_rd_rs1_b17
0000e7ea l       .data	00000000 I_andi_cg_cmp_rd_rs1_b17_str
00002f98 l       .text.rvtest	00000000 I_andi_cg_cmp_rd_rs1_b18
0000e81f l       .data	00000000 I_andi_cg_cmp_rd_rs1_b18_str
00002fbc l       .text.rvtest	00000000 I_andi_cg_cmp_rd_rs1_b19
0000e854 l       .data	00000000 I_andi_cg_cmp_rd_rs1_b19_str
00002fe0 l       .text.rvtest	00000000 I_andi_cg_cmp_rd_rs1_b20
0000e889 l       .data	00000000 I_andi_cg_cmp_rd_rs1_b20_str
00003004 l       .text.rvtest	00000000 I_andi_cg_cmp_rd_rs1_b21
0000e8be l       .data	00000000 I_andi_cg_cmp_rd_rs1_b21_str
0000302c l       .text.rvtest	00000000 I_andi_cg_cmp_rd_rs1_b22
0000e8f3 l       .data	00000000 I_andi_cg_cmp_rd_rs1_b22_str
00003054 l       .text.rvtest	00000000 I_andi_cg_cmp_rd_rs1_b23
0000e928 l       .data	00000000 I_andi_cg_cmp_rd_rs1_b23_str
00003078 l       .text.rvtest	00000000 I_andi_cg_cmp_rd_rs1_b24
0000e95d l       .data	00000000 I_andi_cg_cmp_rd_rs1_b24_str
0000309c l       .text.rvtest	00000000 I_andi_cg_cmp_rd_rs1_b25
0000e992 l       .data	00000000 I_andi_cg_cmp_rd_rs1_b25_str
000030c0 l       .text.rvtest	00000000 I_andi_cg_cmp_rd_rs1_b26
0000e9c7 l       .data	00000000 I_andi_cg_cmp_rd_rs1_b26_str
000030e8 l       .text.rvtest	00000000 I_andi_cg_cmp_rd_rs1_b27
0000e9fc l       .data	00000000 I_andi_cg_cmp_rd_rs1_b27_str
0000310c l       .text.rvtest	00000000 I_andi_cg_cmp_rd_rs1_b28
0000ea31 l       .data	00000000 I_andi_cg_cmp_rd_rs1_b28_str
00003130 l       .text.rvtest	00000000 I_andi_cg_cmp_rd_rs1_b29
0000ea66 l       .data	00000000 I_andi_cg_cmp_rd_rs1_b29_str
00003154 l       .text.rvtest	00000000 I_andi_cg_cmp_rd_rs1_b30
0000ea9b l       .data	00000000 I_andi_cg_cmp_rd_rs1_b30_str
00003178 l       .text.rvtest	00000000 I_andi_cg_cmp_rd_rs1_b31
0000ead0 l       .data	00000000 I_andi_cg_cmp_rd_rs1_b31_str
0000319c l       .text.rvtest	00000000 I_andi_cg_cp_imm_edges_0x0
0000eb05 l       .data	00000000 I_andi_cg_cp_imm_edges_0x0_str
000031c0 l       .text.rvtest	00000000 I_andi_cg_cp_imm_edges_0x1
0000eb3c l       .data	00000000 I_andi_cg_cp_imm_edges_0x1_str
000031e4 l       .text.rvtest	00000000 I_andi_cg_cp_imm_edges_0x2
0000eb73 l       .data	00000000 I_andi_cg_cp_imm_edges_0x2_str
00003208 l       .text.rvtest	00000000 I_andi_cg_cp_imm_edges_0x3
0000ebaa l       .data	00000000 I_andi_cg_cp_imm_edges_0x3_str
0000322c l       .text.rvtest	00000000 I_andi_cg_cp_imm_edges_0x4
0000ebe1 l       .data	00000000 I_andi_cg_cp_imm_edges_0x4_str
00003250 l       .text.rvtest	00000000 I_andi_cg_cp_imm_edges_0x8
0000ec18 l       .data	00000000 I_andi_cg_cp_imm_edges_0x8_str
00003274 l       .text.rvtest	00000000 I_andi_cg_cp_imm_edges_0x10
0000ec4f l       .data	00000000 I_andi_cg_cp_imm_edges_0x10_str
00003298 l       .text.rvtest	00000000 I_andi_cg_cp_imm_edges_0x20
0000ec87 l       .data	00000000 I_andi_cg_cp_imm_edges_0x20_str
000032bc l       .text.rvtest	00000000 I_andi_cg_cp_imm_edges_0x40
0000ecbf l       .data	00000000 I_andi_cg_cp_imm_edges_0x40_str
000032e0 l       .text.rvtest	00000000 I_andi_cg_cp_imm_edges_0x80
0000ecf7 l       .data	00000000 I_andi_cg_cp_imm_edges_0x80_str
00003304 l       .text.rvtest	00000000 I_andi_cg_cp_imm_edges_0x100
0000ed2f l       .data	00000000 I_andi_cg_cp_imm_edges_0x100_str
00003328 l       .text.rvtest	00000000 I_andi_cg_cp_imm_edges_0x200
0000ed68 l       .data	00000000 I_andi_cg_cp_imm_edges_0x200_str
0000334c l       .text.rvtest	00000000 I_andi_cg_cp_imm_edges_0x3ff
0000eda1 l       .data	00000000 I_andi_cg_cp_imm_edges_0x3ff_str
00003370 l       .text.rvtest	00000000 I_andi_cg_cp_imm_edges_0x400
0000edda l       .data	00000000 I_andi_cg_cp_imm_edges_0x400_str
00003394 l       .text.rvtest	00000000 I_andi_cg_cp_imm_edges_0x703
0000ee13 l       .data	00000000 I_andi_cg_cp_imm_edges_0x703_str
000033b8 l       .text.rvtest	00000000 I_andi_cg_cp_imm_edges_0x7ff
0000ee4c l       .data	00000000 I_andi_cg_cp_imm_edges_0x7ff_str
000033dc l       .text.rvtest	00000000 I_andi_cg_cp_imm_edges_m0x800
0000ee85 l       .data	00000000 I_andi_cg_cp_imm_edges_m0x800_str
00003400 l       .text.rvtest	00000000 I_andi_cg_cp_imm_edges_m0x7ff
0000eebf l       .data	00000000 I_andi_cg_cp_imm_edges_m0x7ff_str
00003424 l       .text.rvtest	00000000 I_andi_cg_cp_imm_edges_m0x2
0000eef9 l       .data	00000000 I_andi_cg_cp_imm_edges_m0x2_str
00003448 l       .text.rvtest	00000000 I_andi_cg_cp_imm_edges_m0x1
0000ef31 l       .data	00000000 I_andi_cg_cp_imm_edges_m0x1_str
00003468 l       .text.rvtest	00000000 exit_cleanup
0000f5d4 l       .data	00000000 successstr
00020204 l       .text.rvmodel	00000000 rvmodel_io_write_str
00020208 l       .text.rvmodel	00000000 rvmodel_halt_pass
000034b0 l       .text.rvtest	00000000 abort_test
6f5ca309 l       *ABS*	00000000 immx
6f5ca309 l       *ABS*	00000000 absimm
00000000 l       *ABS*	00000000 cry
00000309 l       *ABS*	00000000 imm12
0000ef70 l       .data	00000000 begin_failure_scratch
00003580 l       .text.rvtest	00000000 failedtest_saveregs
00003524 l       .text.rvtest	00000000 failedtest_trap_x7_x9
0000f0e0 l       .data	00000000 saved_mcause
0000f0e8 l       .data	00000000 saved_mtval
0000f0f0 l       .data	00000000 saved_mstatus
000035f0 l       .text.rvtest	00000000 failedtest_saveresults
0000ef70 l       .data	00000000 failure_type
0000366c l       .text.rvtest	00000000 failedtest_saveresults_trap
00003600 l       .text.rvtest	00000000 failedtest_saveresults_int
00003a40 l       .text.rvtest	00000000 failedtest_saveresults_common
0000f0c8 l       .data	00000000 trap_diag_fail_str_ptr
0000f79c l       .data	00000000 trap_sig_offset_mismatch
00003920 l       .text.rvtest	00000000 trap_diag_offset_mismatch
0000f0a0 l       .data	00000000 trap_diag_subtype
0000f800 l       .data	00000000 sv_Mvect_str
000039a0 l       .text.rvtest	00000000 trap_diag_field_identified
0000f902 l       .data	00000000 sv_Mcause_str
0000f9fd l       .data	00000000 sv_Mepc_str
0000faf0 l       .data	00000000 sv_Mtval_str
0000fc63 l       .data	00000000 sv_Mip_str
0000fbe7 l       .data	00000000 sv_Mtval2_str
0000fc25 l       .data	00000000 sv_Mtinst_str
0000f840 l       .data	00000000 sv_Svect_str
0000f940 l       .data	00000000 sv_Scause_str
0000fa39 l       .data	00000000 sv_Sepc_str
0000fb2d l       .data	00000000 sv_Stval_str
0000fc9e l       .data	00000000 sv_Sip_str
0000f880 l       .data	00000000 sv_Hvect_str
0000f97e l       .data	00000000 sv_Hcause_str
0000fa75 l       .data	00000000 sv_Hepc_str
0000fb6a l       .data	00000000 sv_Htval_str
0000fcd9 l       .data	00000000 sv_Hip_str
0000f8c1 l       .data	00000000 sv_Vvect_str
0000f9bd l       .data	00000000 sv_Vcause_str
0000fab2 l       .data	00000000 sv_Vepc_str
0000fba8 l       .data	00000000 sv_Vtval_str
0000fd15 l       .data	00000000 sv_Vip_str
0000fd52 l       .data	00000000 Mclr_Mext_int_str
0000fda1 l       .data	00000000 Mclr_Sext_int_str
0000fe9c l       .data	00000000 Sclr_Sext_int_str
0000ff98 l       .data	00000000 Hclr_Sext_int_str
00003a30 l       .text.rvtest	00000000 trap_diag_generic_report
0000f0b8 l       .data	00000000 trap_diag_actual_offset
0000f0c0 l       .data	00000000 trap_diag_expected_offset
0000f0a4 l       .data	00000000 trap_diag_mode
0000f0a8 l       .data	00000000 trap_diag_actual_value
0000f0b0 l       .data	00000000 trap_diag_expected_value
00003a70 l       .text.rvtest	00000000 failedtest_report
00003a70 l       .text.rvtest	00000000 print_failstr
0000f60b l       .data	00000000 failstr
00003aa8 l       .text.rvtest	00000000 print_testnamestr
0000f69f l       .data	00000000 testnamestr
00003ae8 l       .text.rvtest	00000000 print_failure_test_name_str
0000f090 l       .data	00000000 failure_string_ptr
00003af8 l       .text.rvtest	00000000 print_newline_str
0000f6b1 l       .data	00000000 newlinestr
00003f2c l       .text.rvtest	00000000 failedtest_report_trap_detailed
0000f6b3 l       .data	00000000 inststr
0000f070 l       .data	00000000 failing_instruction
00004e78 l       .text.rvtest	00000000 failedtest_hex_to_str
0000f0f8 l       .data	00000000 ascii_buffer
0000f6c7 l       .data	00000000 addrstr
0000f078 l       .data	00000000 failing_addr
00010144 l       .data	00000000 regstr
00003cd8 l       .text.rvtest	00000000 failedtest_report_not_intreg
0000f074 l       .data	00000000 failing_reg
00004ef4 l       .text.rvtest	00000000 failedtest_dec_to_str
00003db4 l       .text.rvtest	00000000 failedtest_report_print_regstr
00003d2c l       .text.rvtest	00000000 failedtest_report_fpreg
00003d78 l       .text.rvtest	00000000 failedtest_report_vecreg
000101a4 l       .data	00000000 fflagsstr
00003de8 l       .text.rvtest	00000000 failedtest_report_after_reg
00010155 l       .data	00000000 badvalstr
00003e4c l       .text.rvtest	00000000 failedtest_report_badval_not_fp
0000f080 l       .data	00000000 failing_value
00003e5c l       .text.rvtest	00000000 failedtest_report_badval_done
0001016c l       .data	00000000 expvalstr
00003eec l       .text.rvtest	00000000 failedtest_report_expval_not_fp
0000f088 l       .data	00000000 expected_value
00003efc l       .text.rvtest	00000000 failedtest_report_expval_done
00004c24 l       .text.rvtest	00000000 failedtest_report_end
000101d0 l       .data	00000000 trap_diag_header_str
000101fc l       .data	00000000 trap_diag_origstr_label
00004000 l       .text.rvtest	00000000 trap_report_offset_mismatch
00004ab0 l       .text.rvtest	00000000 trap_report_generic
00004374 l       .text.rvtest	00000000 trap_report_field_mismatch
0001020c l       .data	00000000 trap_diag_count_mismatch_str
0001026d l       .data	00000000 trap_diag_expected_offset_str
00010294 l       .data	00000000 trap_diag_actual_offset_str
00004254 l       .text.rvtest	00000000 trap_report_missing_traps
0000413c l       .text.rvtest	00000000 trap_report_extra_traps
000102bb l       .data	00000000 trap_diag_extra_traps_str
00010340 l       .data	00000000 trap_diag_extra_bytes_str
0001036b l       .data	00000000 trap_diag_extra_hint_str
00004c70 l       .text.rvtest	00000000 failedtest_print_csr_context
000102f5 l       .data	00000000 trap_diag_missing_traps_str
00010453 l       .data	00000000 trap_diag_missing_hint_str
0001053a l       .data	00000000 trap_diag_handler_mode_str
00004404 l       .text.rvtest	00000000 trap_mode_m
00004444 l       .text.rvtest	00000000 trap_mode_s
00004484 l       .text.rvtest	00000000 trap_mode_h
000044c4 l       .text.rvtest	00000000 trap_mode_v
00010576 l       .data	00000000 trap_diag_mode_unknown_str
00004500 l       .text.rvtest	00000000 trap_mode_print
00010554 l       .data	00000000 trap_diag_mode_m_str
0001055c l       .data	00000000 trap_diag_mode_s_str
00010564 l       .data	00000000 trap_diag_mode_hs_str
0001056d l       .data	00000000 trap_diag_mode_vs_str
0001057f l       .data	00000000 trap_diag_field_str
000045c4 l       .text.rvtest	00000000 trap_field_vect
00004604 l       .text.rvtest	00000000 trap_field_cause
00004644 l       .text.rvtest	00000000 trap_field_epc
00004684 l       .text.rvtest	00000000 trap_field_tval
000046c4 l       .text.rvtest	00000000 trap_field_ip
00004704 l       .text.rvtest	00000000 trap_field_tval2
00004744 l       .text.rvtest	00000000 trap_field_tinst
00004784 l       .text.rvtest	00000000 trap_field_intid
000106d6 l       .data	00000000 trap_diag_field_unknown_str
000047c0 l       .text.rvtest	00000000 trap_field_print
00010599 l       .data	00000000 trap_diag_field_vect_str
000105ca l       .data	00000000 trap_diag_field_cause_str
000105ea l       .data	00000000 trap_diag_field_epc_str
00010608 l       .data	00000000 trap_diag_field_tval_str
00010627 l       .data	00000000 trap_diag_field_ip_str
0001064f l       .data	00000000 trap_diag_field_tval2_str
0001067b l       .data	00000000 trap_diag_field_tinst_str
000106a7 l       .data	00000000 trap_diag_field_intid_str
000106e5 l       .data	00000000 trap_diag_expected_str
000106fc l       .data	00000000 trap_diag_actual_str
0000495c l       .text.rvtest	00000000 trap_field_not_cause
00010713 l       .data	00000000 trap_diag_expected_cause_name_str
00004b94 l       .text.rvtest	00000000 trap_cause_to_str
0001072a l       .data	00000000 trap_diag_actual_cause_name_str
0000495c l       .text.rvtest	00000000 trap_field_not_epc
000107a0 l       .data	00000000 trap_diag_hint_vect_str
00010876 l       .data	00000000 trap_diag_hint_cause_str
00010969 l       .data	00000000 trap_diag_hint_epc_str
00010a64 l       .data	00000000 trap_diag_hint_tval_str
00010b4b l       .data	00000000 trap_diag_hint_ip_str
00010758 l       .data	00000000 trap_diag_generic_str
0000f0d8 l       .data	00000000 saved_mepc
0000f73b l       .data	00000000 xepcinstrstr
00004bb8 l       .text.rvtest	00000000 trap_cause_interrupt
00004b98 l       .text.rvtest	00000000 trap_cause_exception
00004be4 l       .text.rvtest	00000000 trap_cause_unknown
0000f120 l       .data	00000000 trap_excpt_name_tbl
0000f180 l       .data	00000000 trap_int_name_tbl
0000f5be l       .data	00000000 trap_cause_unknown_str
00010183 l       .data	00000000 endstr
00004c68 l       .text.rvtest	00000000 failedtest_terminate
00020214 l       .text.rvmodel	00000000 rvmodel_halt_fail
0000f0d0 l       .data	00000000 csr_context_ret_addr
0000f75c l       .data	00000000 mepcstr
0000f76c l       .data	00000000 mcausestr
0000f77c l       .data	00000000 mtvalstr
0000f78c l       .data	00000000 mstatusstr
00004eb8 l       .text.rvtest	00000000 failedtest_hex_to_str_loop
00004ed4 l       .text.rvtest	00000000 failedtest_hex_to_str_digit
00004ed8 l       .text.rvtest	00000000 failedtest_hex_to_str_write
00020000 l       .text.rvmodel	00000000 rvtest_boot_to_mmode
00020000 l       .text.rvmodel	00000000 rvtest_init_regs
00010c30 l       .data	00000000 signature_base
000201a0 l       .text.rvmodel	00000000 canary_check
000101ac l       .data	00000000 canary_mismatch
00008000 l       .data	00000000 scratch
0000f120 l       .data	00000000 end_failure_scratch
0000f1c0 l       .data	00000000 trap_excpt_name_0
0000f1e0 l       .data	00000000 trap_excpt_name_1
0000f1fa l       .data	00000000 trap_excpt_name_2
0000f20f l       .data	00000000 trap_excpt_name_3
0000f21b l       .data	00000000 trap_excpt_name_4
0000f234 l       .data	00000000 trap_excpt_name_5
0000f247 l       .data	00000000 trap_excpt_name_6
0000f265 l       .data	00000000 trap_excpt_name_7
0000f27d l       .data	00000000 trap_excpt_name_8
0000f29b l       .data	00000000 trap_excpt_name_9
0000f2b9 l       .data	00000000 trap_excpt_name_10
0000f2d8 l       .data	00000000 trap_excpt_name_11
0000f2f6 l       .data	00000000 trap_excpt_name_12
0000f30e l       .data	00000000 trap_excpt_name_13
0000f31f l       .data	00000000 trap_excpt_name_14
0000f32e l       .data	00000000 trap_excpt_name_15
0000f344 l       .data	00000000 trap_excpt_name_16
0000f351 l       .data	00000000 trap_excpt_name_17
0000f360 l       .data	00000000 trap_excpt_name_18
0000f370 l       .data	00000000 trap_excpt_name_19
0000f380 l       .data	00000000 trap_excpt_name_20
0000f39e l       .data	00000000 trap_excpt_name_21
0000f3b5 l       .data	00000000 trap_excpt_name_22
0000f3ca l       .data	00000000 trap_excpt_name_23
0000f3e6 l       .data	00000000 trap_int_name_0
0000f3fe l       .data	00000000 trap_int_name_1
0000f41d l       .data	00000000 trap_int_name_2
0000f444 l       .data	00000000 trap_int_name_3
0000f460 l       .data	00000000 trap_int_name_4
0000f478 l       .data	00000000 trap_int_name_5
0000f494 l       .data	00000000 trap_int_name_6
0000f4b8 l       .data	00000000 trap_int_name_7
0000f4d1 l       .data	00000000 trap_int_name_8
0000f4e9 l       .data	00000000 trap_int_name_9
0000f508 l       .data	00000000 trap_int_name_10
0000f52f l       .data	00000000 trap_int_name_11
0000f54b l       .data	00000000 trap_int_name_12
0000f570 l       .data	00000000 trap_int_name_13
0000f58c l       .data	00000000 trap_int_name_14
0000f5a5 l       .data	00000000 trap_int_name_15
0000f661 l       .data	00000000 abortstr
0000f708 l       .data	00000000 xepcstr
0000fdf3 l       .data	00000000 Mclr_Vext_int_str
0000fe4d l       .data	00000000 Sclr_Mext_int_str
0000feee l       .data	00000000 Sclr_Vext_int_str
0000ff48 l       .data	00000000 Hclr_Mext_int_str
0000ffeb l       .data	00000000 Hclr_Vext_int_str
00010046 l       .data	00000000 Vclr_Mext_int_str
00010096 l       .data	00000000 Vclr_Sext_int_str
000100e9 l       .data	00000000 Vclr_Vext_int_str
00010741 l       .data	00000000 trap_diag_curr_xepc_str
00011220 l       .data	00000000 trap_sigptr
0001fc90 g       .data	00000000 end_signature
0001fc90 g       .data	00000000 rvtest_sig_end
00000000 g       .text.init	00000000 rvtest_entry_point
00010c30 g       .data	00000000 begin_signature
00003468 g       .text.rvtest	00000000 rvtest_code_end
00000040 g       .text.rvtest	00000000 rvtest_code_begin
00010c30 g       .data	00000000 rvtest_sig_begin
00008110 g       .data	00000000 rvtest_data_begin
00010c30 g       .data	00000000 rvtest_data_end
00003468 g       .text.rvtest	00000000 cleanup_epilogs
00021000 g       .text.rvmodel	00000000 _end



Disassembly of section .text.init:

00000000 <rvtest_entry_point>:

// Include framework macros
#include "riscv_arch_test.h"

// Set up test environment and declare main entry point
RVTEST_BEGIN
   0:	00020097          	auipc	x1,0x20
   4:	00008093          	addi	x1,x1,0 # 20000 <rvmodel_boot>
   8:	00000013          	addi	x0,x0,0
   c:	00000013          	addi	x0,x0,0
  10:	00000013          	addi	x0,x0,0
  14:	00000013          	addi	x0,x0,0
  18:	00000013          	addi	x0,x0,0
  1c:	00000013          	addi	x0,x0,0
  20:	000080e7          	jalr	x1,0(x1)
  24:	00000013          	addi	x0,x0,0
  28:	00000013          	addi	x0,x0,0
  2c:	00000013          	addi	x0,x0,0
  30:	00000013          	addi	x0,x0,0
  34:	00000013          	addi	x0,x0,0
  38:	00000013          	addi	x0,x0,0
  3c:	00000013          	addi	x0,x0,0

Disassembly of section .text.rvtest:

00000040 <rvtest_code_begin>:
/////////////////////////////////
// cp_rs1
/////////////////////////////////

# Testcase cp_rs1 (Test source rs1 = x0)
  RVTEST_TESTDATA_LOAD_INT(x3, x0) # load rs1: x0 = 0x67bc85fc
      40:	0001a003          	lw	x0,0(x3)
      44:	00418193          	addi	x3,x3,4

00000048 <I_andi_cg_cp_rs1_b0>:
I_andi_cg_cp_rs1_b0:
  andi x7, x0, -1958 # perform operation
      48:	85a07393          	andi	x7,x0,-1958
  # Check if x7 contains the expected result. x2 is the signature ptr, x5 is the link ptr, x4 is a temp reg.
  RVTEST_SIGUPD(x2, x5, x4, x7, I_andi_cg_cp_rs1_b0, I_andi_cg_cp_rs1_b0_str)
      4c:	00012203          	lw	x4,0(x2)
      50:	00720863          	beq	x4,x7,60 <I_andi_cg_cp_rs1_b0+0x18>
      54:	468032ef          	jal	x5,34bc <failedtest_x5_x4>
      58:	00000048          	.word	0x00000048
      5c:	000086d0          	.word	0x000086d0
      60:	00410113          	addi	x2,x2,4

# Testcase cp_rs1 (Test source rs1 = x1)
  RVTEST_TESTDATA_LOAD_INT(x3, x1) # load rs1: x1 = 0x8e653a06
      64:	0001a083          	lw	x1,0(x3)
      68:	00418193          	addi	x3,x3,4

0000006c <I_andi_cg_cp_rs1_b1>:
I_andi_cg_cp_rs1_b1:
  andi x12, x1, -1712 # perform operation
      6c:	9500f613          	andi	x12,x1,-1712
  # Check if x12 contains the expected result. x2 is the signature ptr, x5 is the link ptr, x4 is a temp reg.
  RVTEST_SIGUPD(x2, x5, x4, x12, I_andi_cg_cp_rs1_b1, I_andi_cg_cp_rs1_b1_str)
      70:	00012203          	lw	x4,0(x2)
      74:	00c20863          	beq	x4,x12,84 <I_andi_cg_cp_rs1_b1+0x18>
      78:	444032ef          	jal	x5,34bc <failedtest_x5_x4>
      7c:	0000006c          	.word	0x0000006c
      80:	000086fe          	.word	0x000086fe
      84:	00410113          	addi	x2,x2,4

  mv x24, x2 # switch signature pointer register to avoid conflict with test
      88:	00010c13          	addi	x24,x2,0
# Testcase cp_rs1 (Test source rs1 = x2)
  RVTEST_TESTDATA_LOAD_INT(x3, x2) # load rs1: x2 = 0xdcc50e1a
      8c:	0001a103          	lw	x2,0(x3)
      90:	00418193          	addi	x3,x3,4

00000094 <I_andi_cg_cp_rs1_b2>:
I_andi_cg_cp_rs1_b2:
  andi x21, x2, -979 # perform operation
      94:	c2d17a93          	andi	x21,x2,-979
  # Check if x21 contains the expected result. x24 is the signature ptr, x5 is the link ptr, x4 is a temp reg.
  RVTEST_SIGUPD(x24, x5, x4, x21, I_andi_cg_cp_rs1_b2, I_andi_cg_cp_rs1_b2_str)
      98:	000c2203          	lw	x4,0(x24)
      9c:	01520863          	beq	x4,x21,ac <I_andi_cg_cp_rs1_b2+0x18>
      a0:	41c032ef          	jal	x5,34bc <failedtest_x5_x4>
      a4:	00000094          	.word	0x00000094
      a8:	0000872c          	.word	0x0000872c
      ac:	004c0c13          	addi	x24,x24,4

  mv x12, x3 # switch data pointer register to avoid conflict with test
      b0:	00018613          	addi	x12,x3,0
# Testcase cp_rs1 (Test source rs1 = x3)
  RVTEST_TESTDATA_LOAD_INT(x12, x3) # load rs1: x3 = 0x0aee347f
      b4:	00062183          	lw	x3,0(x12)
      b8:	00460613          	addi	x12,x12,4

000000bc <I_andi_cg_cp_rs1_b3>:
I_andi_cg_cp_rs1_b3:
  andi x29, x3, 965 # perform operation
      bc:	3c51fe93          	andi	x29,x3,965
  # Check if x29 contains the expected result. x24 is the signature ptr, x5 is the link ptr, x4 is a temp reg.
  RVTEST_SIGUPD(x24, x5, x4, x29, I_andi_cg_cp_rs1_b3, I_andi_cg_cp_rs1_b3_str)
      c0:	000c2203          	lw	x4,0(x24)
      c4:	01d20863          	beq	x4,x29,d4 <I_andi_cg_cp_rs1_b3+0x18>
      c8:	3f4032ef          	jal	x5,34bc <failedtest_x5_x4>
      cc:	000000bc          	.word	0x000000bc
      d0:	0000875a          	.word	0x0000875a
      d4:	004c0c13          	addi	x24,x24,4

  mv x7, x4 # switch temp register to avoid conflict with test
      d8:	00020393          	addi	x7,x4,0 # 0 <rvtest_entry_point>
  mv x8, x5 # switch link pointer register to avoid conflict with test
      dc:	00028413          	addi	x8,x5,0
# Testcase cp_rs1 (Test source rs1 = x4)
  RVTEST_TESTDATA_LOAD_INT(x12, x4) # load rs1: x4 = 0xff779f91
      e0:	00062203          	lw	x4,0(x12)
      e4:	00460613          	addi	x12,x12,4

000000e8 <I_andi_cg_cp_rs1_b4>:
I_andi_cg_cp_rs1_b4:
  andi x3, x4, -1645 # perform operation
      e8:	99327193          	andi	x3,x4,-1645
  # Check if x3 contains the expected result. x24 is the signature ptr, x8 is the link ptr, x7 is a temp reg.
  RVTEST_SIGUPD(x24, x8, x7, x3, I_andi_cg_cp_rs1_b4, I_andi_cg_cp_rs1_b4_str)
      ec:	000c2383          	lw	x7,0(x24)
      f0:	00338863          	beq	x7,x3,100 <I_andi_cg_cp_rs1_b4+0x18>
      f4:	3e00346f          	jal	x8,34d4 <failedtest_x8_x7>
      f8:	000000e8          	.word	0x000000e8
      fc:	00008788          	.word	0x00008788
     100:	004c0c13          	addi	x24,x24,4

# Testcase cp_rs1 (Test source rs1 = x5)
  RVTEST_TESTDATA_LOAD_INT(x12, x5) # load rs1: x5 = 0xfd6b577b
     104:	00062283          	lw	x5,0(x12)
     108:	00460613          	addi	x12,x12,4

0000010c <I_andi_cg_cp_rs1_b5>:
I_andi_cg_cp_rs1_b5:
  andi x20, x5, -499 # perform operation
     10c:	e0d2fa13          	andi	x20,x5,-499
  # Check if x20 contains the expected result. x24 is the signature ptr, x8 is the link ptr, x7 is a temp reg.
  RVTEST_SIGUPD(x24, x8, x7, x20, I_andi_cg_cp_rs1_b5, I_andi_cg_cp_rs1_b5_str)
     110:	000c2383          	lw	x7,0(x24)
     114:	01438863          	beq	x7,x20,124 <I_andi_cg_cp_rs1_b5+0x18>
     118:	3bc0346f          	jal	x8,34d4 <failedtest_x8_x7>
     11c:	0000010c          	.word	0x0000010c
     120:	000087b6          	.word	0x000087b6
     124:	004c0c13          	addi	x24,x24,4

# Testcase cp_rs1 (Test source rs1 = x6)
  RVTEST_TESTDATA_LOAD_INT(x12, x6) # load rs1: x6 = 0x05eb0051
     128:	00062303          	lw	x6,0(x12)
     12c:	00460613          	addi	x12,x12,4

00000130 <I_andi_cg_cp_rs1_b6>:
I_andi_cg_cp_rs1_b6:
  andi x4, x6, -952 # perform operation
     130:	c4837213          	andi	x4,x6,-952
  # Check if x4 contains the expected result. x24 is the signature ptr, x8 is the link ptr, x7 is a temp reg.
  RVTEST_SIGUPD(x24, x8, x7, x4, I_andi_cg_cp_rs1_b6, I_andi_cg_cp_rs1_b6_str)
     134:	000c2383          	lw	x7,0(x24)
     138:	00438863          	beq	x7,x4,148 <I_andi_cg_cp_rs1_b6+0x18>
     13c:	3980346f          	jal	x8,34d4 <failedtest_x8_x7>
     140:	00000130          	.word	0x00000130
     144:	000087e4          	.word	0x000087e4
     148:	004c0c13          	addi	x24,x24,4

  mv x4, x7 # switch temp register to avoid conflict with test
     14c:	00038213          	addi	x4,x7,0
  mv x5, x8 # switch link pointer register to avoid conflict with test
     150:	00040293          	addi	x5,x8,0
# Testcase cp_rs1 (Test source rs1 = x7)
  RVTEST_TESTDATA_LOAD_INT(x12, x7) # load rs1: x7 = 0x44acead4
     154:	00062383          	lw	x7,0(x12)
     158:	00460613          	addi	x12,x12,4

0000015c <I_andi_cg_cp_rs1_b7>:
I_andi_cg_cp_rs1_b7:
  andi x0, x7, -1782 # perform operation
     15c:	90a3f013          	andi	x0,x7,-1782
  # Check if x0 contains the expected result. x24 is the signature ptr, x5 is the link ptr, x4 is a temp reg.
  RVTEST_SIGUPD(x24, x5, x4, x0, I_andi_cg_cp_rs1_b7, I_andi_cg_cp_rs1_b7_str)
     160:	000c2203          	lw	x4,0(x24)
     164:	00020863          	beq	x4,x0,174 <I_andi_cg_cp_rs1_b7+0x18>
     168:	354032ef          	jal	x5,34bc <failedtest_x5_x4>
     16c:	0000015c          	.word	0x0000015c
     170:	00008812          	.word	0x00008812
     174:	004c0c13          	addi	x24,x24,4

# Testcase cp_rs1 (Test source rs1 = x8)
  RVTEST_TESTDATA_LOAD_INT(x12, x8) # load rs1: x8 = 0x3afa2991
     178:	00062403          	lw	x8,0(x12)
     17c:	00460613          	addi	x12,x12,4

00000180 <I_andi_cg_cp_rs1_b8>:
I_andi_cg_cp_rs1_b8:
  andi x19, x8, 1109 # perform operation
     180:	45547993          	andi	x19,x8,1109
  # Check if x19 contains the expected result. x24 is the signature ptr, x5 is the link ptr, x4 is a temp reg.
  RVTEST_SIGUPD(x24, x5, x4, x19, I_andi_cg_cp_rs1_b8, I_andi_cg_cp_rs1_b8_str)
     184:	000c2203          	lw	x4,0(x24)
     188:	01320863          	beq	x4,x19,198 <I_andi_cg_cp_rs1_b8+0x18>
     18c:	330032ef          	jal	x5,34bc <failedtest_x5_x4>
     190:	00000180          	.word	0x00000180
     194:	00008840          	.word	0x00008840
     198:	004c0c13          	addi	x24,x24,4

# Testcase cp_rs1 (Test source rs1 = x9)
  RVTEST_TESTDATA_LOAD_INT(x12, x9) # load rs1: x9 = 0x04d53afe
     19c:	00062483          	lw	x9,0(x12)
     1a0:	00460613          	addi	x12,x12,4

000001a4 <I_andi_cg_cp_rs1_b9>:
I_andi_cg_cp_rs1_b9:
  andi x19, x9, 1452 # perform operation
     1a4:	5ac4f993          	andi	x19,x9,1452
  # Check if x19 contains the expected result. x24 is the signature ptr, x5 is the link ptr, x4 is a temp reg.
  RVTEST_SIGUPD(x24, x5, x4, x19, I_andi_cg_cp_rs1_b9, I_andi_cg_cp_rs1_b9_str)
     1a8:	000c2203          	lw	x4,0(x24)
     1ac:	01320863          	beq	x4,x19,1bc <I_andi_cg_cp_rs1_b9+0x18>
     1b0:	30c032ef          	jal	x5,34bc <failedtest_x5_x4>
     1b4:	000001a4          	.word	0x000001a4
     1b8:	0000886e          	.word	0x0000886e
     1bc:	004c0c13          	addi	x24,x24,4

# Testcase cp_rs1 (Test source rs1 = x10)
  RVTEST_TESTDATA_LOAD_INT(x12, x10) # load rs1: x10 = 0x25ff8bf2
     1c0:	00062503          	lw	x10,0(x12)
     1c4:	00460613          	addi	x12,x12,4

000001c8 <I_andi_cg_cp_rs1_b10>:
I_andi_cg_cp_rs1_b10:
  andi x1, x10, -1989 # perform operation
     1c8:	83b57093          	andi	x1,x10,-1989
  # Check if x1 contains the expected result. x24 is the signature ptr, x5 is the link ptr, x4 is a temp reg.
  RVTEST_SIGUPD(x24, x5, x4, x1, I_andi_cg_cp_rs1_b10, I_andi_cg_cp_rs1_b10_str)
     1cc:	000c2203          	lw	x4,0(x24)
     1d0:	00120863          	beq	x4,x1,1e0 <I_andi_cg_cp_rs1_b10+0x18>
     1d4:	2e8032ef          	jal	x5,34bc <failedtest_x5_x4>
     1d8:	000001c8          	.word	0x000001c8
     1dc:	0000889d          	.word	0x0000889d
     1e0:	004c0c13          	addi	x24,x24,4

# Testcase cp_rs1 (Test source rs1 = x11)
  RVTEST_TESTDATA_LOAD_INT(x12, x11) # load rs1: x11 = 0x339c43d9
     1e4:	00062583          	lw	x11,0(x12)
     1e8:	00460613          	addi	x12,x12,4

000001ec <I_andi_cg_cp_rs1_b11>:
I_andi_cg_cp_rs1_b11:
  andi x23, x11, -2033 # perform operation
     1ec:	80f5fb93          	andi	x23,x11,-2033
  # Check if x23 contains the expected result. x24 is the signature ptr, x5 is the link ptr, x4 is a temp reg.
  RVTEST_SIGUPD(x24, x5, x4, x23, I_andi_cg_cp_rs1_b11, I_andi_cg_cp_rs1_b11_str)
     1f0:	000c2203          	lw	x4,0(x24)
     1f4:	01720863          	beq	x4,x23,204 <I_andi_cg_cp_rs1_b11+0x18>
     1f8:	2c4032ef          	jal	x5,34bc <failedtest_x5_x4>
     1fc:	000001ec          	.word	0x000001ec
     200:	000088cd          	.word	0x000088cd
     204:	004c0c13          	addi	x24,x24,4

  mv x28, x12 # switch data pointer register to avoid conflict with test
     208:	00060e13          	addi	x28,x12,0
# Testcase cp_rs1 (Test source rs1 = x12)
  RVTEST_TESTDATA_LOAD_INT(x28, x12) # load rs1: x12 = 0xe4bb3b7f
     20c:	000e2603          	lw	x12,0(x28)
     210:	004e0e13          	addi	x28,x28,4

00000214 <I_andi_cg_cp_rs1_b12>:
I_andi_cg_cp_rs1_b12:
  andi x26, x12, 1798 # perform operation
     214:	70667d13          	andi	x26,x12,1798
  # Check if x26 contains the expected result. x24 is the signature ptr, x5 is the link ptr, x4 is a temp reg.
  RVTEST_SIGUPD(x24, x5, x4, x26, I_andi_cg_cp_rs1_b12, I_andi_cg_cp_rs1_b12_str)
     218:	000c2203          	lw	x4,0(x24)
     21c:	01a20863          	beq	x4,x26,22c <I_andi_cg_cp_rs1_b12+0x18>
     220:	29c032ef          	jal	x5,34bc <failedtest_x5_x4>
     224:	00000214          	.word	0x00000214
     228:	000088fd          	.word	0x000088fd
     22c:	004c0c13          	addi	x24,x24,4

# Testcase cp_rs1 (Test source rs1 = x13)
  RVTEST_TESTDATA_LOAD_INT(x28, x13) # load rs1: x13 = 0xbae6a343
     230:	000e2683          	lw	x13,0(x28)
     234:	004e0e13          	addi	x28,x28,4

00000238 <I_andi_cg_cp_rs1_b13>:
I_andi_cg_cp_rs1_b13:
  andi x3, x13, 1665 # perform operation
     238:	6816f193          	andi	x3,x13,1665
  # Check if x3 contains the expected result. x24 is the signature ptr, x5 is the link ptr, x4 is a temp reg.
  RVTEST_SIGUPD(x24, x5, x4, x3, I_andi_cg_cp_rs1_b13, I_andi_cg_cp_rs1_b13_str)
     23c:	000c2203          	lw	x4,0(x24)
     240:	00320863          	beq	x4,x3,250 <I_andi_cg_cp_rs1_b13+0x18>
     244:	278032ef          	jal	x5,34bc <failedtest_x5_x4>
     248:	00000238          	.word	0x00000238
     24c:	0000892d          	.word	0x0000892d
     250:	004c0c13          	addi	x24,x24,4

# Testcase cp_rs1 (Test source rs1 = x14)
  RVTEST_TESTDATA_LOAD_INT(x28, x14) # load rs1: x14 = 0xa1941e5b
     254:	000e2703          	lw	x14,0(x28)
     258:	004e0e13          	addi	x28,x28,4

0000025c <I_andi_cg_cp_rs1_b14>:
I_andi_cg_cp_rs1_b14:
  andi x23, x14, 1663 # perform operation
     25c:	67f77b93          	andi	x23,x14,1663
  # Check if x23 contains the expected result. x24 is the signature ptr, x5 is the link ptr, x4 is a temp reg.
  RVTEST_SIGUPD(x24, x5, x4, x23, I_andi_cg_cp_rs1_b14, I_andi_cg_cp_rs1_b14_str)
     260:	000c2203          	lw	x4,0(x24)
     264:	01720863          	beq	x4,x23,274 <I_andi_cg_cp_rs1_b14+0x18>
     268:	254032ef          	jal	x5,34bc <failedtest_x5_x4>
     26c:	0000025c          	.word	0x0000025c
     270:	0000895d          	.word	0x0000895d
     274:	004c0c13          	addi	x24,x24,4

# Testcase cp_rs1 (Test source rs1 = x15)
  RVTEST_TESTDATA_LOAD_INT(x28, x15) # load rs1: x15 = 0xf5ea0e04
     278:	000e2783          	lw	x15,0(x28)
     27c:	004e0e13          	addi	x28,x28,4

00000280 <I_andi_cg_cp_rs1_b15>:
I_andi_cg_cp_rs1_b15:
  andi x30, x15, -640 # perform operation
     280:	d807ff13          	andi	x30,x15,-640
  # Check if x30 contains the expected result. x24 is the signature ptr, x5 is the link ptr, x4 is a temp reg.
  RVTEST_SIGUPD(x24, x5, x4, x30, I_andi_cg_cp_rs1_b15, I_andi_cg_cp_rs1_b15_str)
     284:	000c2203          	lw	x4,0(x24)
     288:	01e20863          	beq	x4,x30,298 <I_andi_cg_cp_rs1_b15+0x18>
     28c:	230032ef          	jal	x5,34bc <failedtest_x5_x4>
     290:	00000280          	.word	0x00000280
     294:	0000898d          	.word	0x0000898d
     298:	004c0c13          	addi	x24,x24,4

# Testcase cp_rs1 (Test source rs1 = x16)
  RVTEST_TESTDATA_LOAD_INT(x28, x16) # load rs1: x16 = 0xed291685
     29c:	000e2803          	lw	x16,0(x28)
     2a0:	004e0e13          	addi	x28,x28,4

000002a4 <I_andi_cg_cp_rs1_b16>:
I_andi_cg_cp_rs1_b16:
  andi x30, x16, -961 # perform operation
     2a4:	c3f87f13          	andi	x30,x16,-961
  # Check if x30 contains the expected result. x24 is the signature ptr, x5 is the link ptr, x4 is a temp reg.
  RVTEST_SIGUPD(x24, x5, x4, x30, I_andi_cg_cp_rs1_b16, I_andi_cg_cp_rs1_b16_str)
     2a8:	000c2203          	lw	x4,0(x24)
     2ac:	01e20863          	beq	x4,x30,2bc <I_andi_cg_cp_rs1_b16+0x18>
     2b0:	20c032ef          	jal	x5,34bc <failedtest_x5_x4>
     2b4:	000002a4          	.word	0x000002a4
     2b8:	000089bd          	.word	0x000089bd
     2bc:	004c0c13          	addi	x24,x24,4

# Testcase cp_rs1 (Test source rs1 = x17)
  RVTEST_TESTDATA_LOAD_INT(x28, x17) # load rs1: x17 = 0x58e60fde
     2c0:	000e2883          	lw	x17,0(x28)
     2c4:	004e0e13          	addi	x28,x28,4

000002c8 <I_andi_cg_cp_rs1_b17>:
I_andi_cg_cp_rs1_b17:
  andi x19, x17, 1596 # perform operation
     2c8:	63c8f993          	andi	x19,x17,1596
  # Check if x19 contains the expected result. x24 is the signature ptr, x5 is the link ptr, x4 is a temp reg.
  RVTEST_SIGUPD(x24, x5, x4, x19, I_andi_cg_cp_rs1_b17, I_andi_cg_cp_rs1_b17_str)
     2cc:	000c2203          	lw	x4,0(x24)
     2d0:	01320863          	beq	x4,x19,2e0 <I_andi_cg_cp_rs1_b17+0x18>
     2d4:	1e8032ef          	jal	x5,34bc <failedtest_x5_x4>
     2d8:	000002c8          	.word	0x000002c8
     2dc:	000089ed          	.word	0x000089ed
     2e0:	004c0c13          	addi	x24,x24,4

# Testcase cp_rs1 (Test source rs1 = x18)
  RVTEST_TESTDATA_LOAD_INT(x28, x18) # load rs1: x18 = 0xbd2e15a8
     2e4:	000e2903          	lw	x18,0(x28)
     2e8:	004e0e13          	addi	x28,x28,4

000002ec <I_andi_cg_cp_rs1_b18>:
I_andi_cg_cp_rs1_b18:
  andi x16, x18, 1736 # perform operation
     2ec:	6c897813          	andi	x16,x18,1736
  # Check if x16 contains the expected result. x24 is the signature ptr, x5 is the link ptr, x4 is a temp reg.
  RVTEST_SIGUPD(x24, x5, x4, x16, I_andi_cg_cp_rs1_b18, I_andi_cg_cp_rs1_b18_str)
     2f0:	000c2203          	lw	x4,0(x24)
     2f4:	01020863          	beq	x4,x16,304 <I_andi_cg_cp_rs1_b18+0x18>
     2f8:	1c4032ef          	jal	x5,34bc <failedtest_x5_x4>
     2fc:	000002ec          	.word	0x000002ec
     300:	00008a1d          	.word	0x00008a1d
     304:	004c0c13          	addi	x24,x24,4

# Testcase cp_rs1 (Test source rs1 = x19)
  RVTEST_TESTDATA_LOAD_INT(x28, x19) # load rs1: x19 = 0xd65ebf15
     308:	000e2983          	lw	x19,0(x28)
     30c:	004e0e13          	addi	x28,x28,4

00000310 <I_andi_cg_cp_rs1_b19>:
I_andi_cg_cp_rs1_b19:
  andi x0, x19, -658 # perform operation
     310:	d6e9f013          	andi	x0,x19,-658
  # Check if x0 contains the expected result. x24 is the signature ptr, x5 is the link ptr, x4 is a temp reg.
  RVTEST_SIGUPD(x24, x5, x4, x0, I_andi_cg_cp_rs1_b19, I_andi_cg_cp_rs1_b19_str)
     314:	000c2203          	lw	x4,0(x24)
     318:	00020863          	beq	x4,x0,328 <I_andi_cg_cp_rs1_b19+0x18>
     31c:	1a0032ef          	jal	x5,34bc <failedtest_x5_x4>
     320:	00000310          	.word	0x00000310
     324:	00008a4d          	.word	0x00008a4d
     328:	004c0c13          	addi	x24,x24,4

# Testcase cp_rs1 (Test source rs1 = x20)
  RVTEST_TESTDATA_LOAD_INT(x28, x20) # load rs1: x20 = 0x6c24f9de
     32c:	000e2a03          	lw	x20,0(x28)
     330:	004e0e13          	addi	x28,x28,4

00000334 <I_andi_cg_cp_rs1_b20>:
I_andi_cg_cp_rs1_b20:
  andi x21, x20, -1936 # perform operation
     334:	870a7a93          	andi	x21,x20,-1936
  # Check if x21 contains the expected result. x24 is the signature ptr, x5 is the link ptr, x4 is a temp reg.
  RVTEST_SIGUPD(x24, x5, x4, x21, I_andi_cg_cp_rs1_b20, I_andi_cg_cp_rs1_b20_str)
     338:	000c2203          	lw	x4,0(x24)
     33c:	01520863          	beq	x4,x21,34c <I_andi_cg_cp_rs1_b20+0x18>
     340:	17c032ef          	jal	x5,34bc <failedtest_x5_x4>
     344:	00000334          	.word	0x00000334
     348:	00008a7d          	.word	0x00008a7d
     34c:	004c0c13          	addi	x24,x24,4

# Testcase cp_rs1 (Test source rs1 = x21)
  RVTEST_TESTDATA_LOAD_INT(x28, x21) # load rs1: x21 = 0x22fd320f
     350:	000e2a83          	lw	x21,0(x28)
     354:	004e0e13          	addi	x28,x28,4

00000358 <I_andi_cg_cp_rs1_b21>:
I_andi_cg_cp_rs1_b21:
  andi x17, x21, -11 # perform operation
     358:	ff5af893          	andi	x17,x21,-11
  # Check if x17 contains the expected result. x24 is the signature ptr, x5 is the link ptr, x4 is a temp reg.
  RVTEST_SIGUPD(x24, x5, x4, x17, I_andi_cg_cp_rs1_b21, I_andi_cg_cp_rs1_b21_str)
     35c:	000c2203          	lw	x4,0(x24)
     360:	01120863          	beq	x4,x17,370 <I_andi_cg_cp_rs1_b21+0x18>
     364:	158032ef          	jal	x5,34bc <failedtest_x5_x4>
     368:	00000358          	.word	0x00000358
     36c:	00008aad          	.word	0x00008aad
     370:	004c0c13          	addi	x24,x24,4

# Testcase cp_rs1 (Test source rs1 = x22)
  RVTEST_TESTDATA_LOAD_INT(x28, x22) # load rs1: x22 = 0xc1638829
     374:	000e2b03          	lw	x22,0(x28)
     378:	004e0e13          	addi	x28,x28,4

0000037c <I_andi_cg_cp_rs1_b22>:
I_andi_cg_cp_rs1_b22:
  andi x20, x22, 1681 # perform operation
     37c:	691b7a13          	andi	x20,x22,1681
  # Check if x20 contains the expected result. x24 is the signature ptr, x5 is the link ptr, x4 is a temp reg.
  RVTEST_SIGUPD(x24, x5, x4, x20, I_andi_cg_cp_rs1_b22, I_andi_cg_cp_rs1_b22_str)
     380:	000c2203          	lw	x4,0(x24)
     384:	01420863          	beq	x4,x20,394 <I_andi_cg_cp_rs1_b22+0x18>
     388:	134032ef          	jal	x5,34bc <failedtest_x5_x4>
     38c:	0000037c          	.word	0x0000037c
     390:	00008add          	.word	0x00008add
     394:	004c0c13          	addi	x24,x24,4

# Testcase cp_rs1 (Test source rs1 = x23)
  RVTEST_TESTDATA_LOAD_INT(x28, x23) # load rs1: x23 = 0xeafd063d
     398:	000e2b83          	lw	x23,0(x28)
     39c:	004e0e13          	addi	x28,x28,4

000003a0 <I_andi_cg_cp_rs1_b23>:
I_andi_cg_cp_rs1_b23:
  andi x8, x23, -1163 # perform operation
     3a0:	b75bf413          	andi	x8,x23,-1163
  # Check if x8 contains the expected result. x24 is the signature ptr, x5 is the link ptr, x4 is a temp reg.
  RVTEST_SIGUPD(x24, x5, x4, x8, I_andi_cg_cp_rs1_b23, I_andi_cg_cp_rs1_b23_str)
     3a4:	000c2203          	lw	x4,0(x24)
     3a8:	00820863          	beq	x4,x8,3b8 <I_andi_cg_cp_rs1_b23+0x18>
     3ac:	110032ef          	jal	x5,34bc <failedtest_x5_x4>
     3b0:	000003a0          	.word	0x000003a0
     3b4:	00008b0d          	.word	0x00008b0d
     3b8:	004c0c13          	addi	x24,x24,4

  mv x19, x24 # switch signature pointer register to avoid conflict with test
     3bc:	000c0993          	addi	x19,x24,0
# Testcase cp_rs1 (Test source rs1 = x24)
  RVTEST_TESTDATA_LOAD_INT(x28, x24) # load rs1: x24 = 0x0542a7b0
     3c0:	000e2c03          	lw	x24,0(x28)
     3c4:	004e0e13          	addi	x28,x28,4

000003c8 <I_andi_cg_cp_rs1_b24>:
I_andi_cg_cp_rs1_b24:
  andi x22, x24, -1790 # perform operation
     3c8:	902c7b13          	andi	x22,x24,-1790
  # Check if x22 contains the expected result. x19 is the signature ptr, x5 is the link ptr, x4 is a temp reg.
  RVTEST_SIGUPD(x19, x5, x4, x22, I_andi_cg_cp_rs1_b24, I_andi_cg_cp_rs1_b24_str)
     3cc:	0009a203          	lw	x4,0(x19)
     3d0:	01620863          	beq	x4,x22,3e0 <I_andi_cg_cp_rs1_b24+0x18>
     3d4:	0e8032ef          	jal	x5,34bc <failedtest_x5_x4>
     3d8:	000003c8          	.word	0x000003c8
     3dc:	00008b3d          	.word	0x00008b3d
     3e0:	00498993          	addi	x19,x19,4

# Testcase cp_rs1 (Test source rs1 = x25)
  RVTEST_TESTDATA_LOAD_INT(x28, x25) # load rs1: x25 = 0x6f774e13
     3e4:	000e2c83          	lw	x25,0(x28)
     3e8:	004e0e13          	addi	x28,x28,4

000003ec <I_andi_cg_cp_rs1_b25>:
I_andi_cg_cp_rs1_b25:
  andi x15, x25, 93 # perform operation
     3ec:	05dcf793          	andi	x15,x25,93
  # Check if x15 contains the expected result. x19 is the signature ptr, x5 is the link ptr, x4 is a temp reg.
  RVTEST_SIGUPD(x19, x5, x4, x15, I_andi_cg_cp_rs1_b25, I_andi_cg_cp_rs1_b25_str)
     3f0:	0009a203          	lw	x4,0(x19)
     3f4:	00f20863          	beq	x4,x15,404 <I_andi_cg_cp_rs1_b25+0x18>
     3f8:	0c4032ef          	jal	x5,34bc <failedtest_x5_x4>
     3fc:	000003ec          	.word	0x000003ec
     400:	00008b6d          	.word	0x00008b6d
     404:	00498993          	addi	x19,x19,4

# Testcase cp_rs1 (Test source rs1 = x26)
  RVTEST_TESTDATA_LOAD_INT(x28, x26) # load rs1: x26 = 0x0181f21b
     408:	000e2d03          	lw	x26,0(x28)
     40c:	004e0e13          	addi	x28,x28,4

00000410 <I_andi_cg_cp_rs1_b26>:
I_andi_cg_cp_rs1_b26:
  andi x23, x26, -1405 # perform operation
     410:	a83d7b93          	andi	x23,x26,-1405
  # Check if x23 contains the expected result. x19 is the signature ptr, x5 is the link ptr, x4 is a temp reg.
  RVTEST_SIGUPD(x19, x5, x4, x23, I_andi_cg_cp_rs1_b26, I_andi_cg_cp_rs1_b26_str)
     414:	0009a203          	lw	x4,0(x19)
     418:	01720863          	beq	x4,x23,428 <I_andi_cg_cp_rs1_b26+0x18>
     41c:	0a0032ef          	jal	x5,34bc <failedtest_x5_x4>
     420:	00000410          	.word	0x00000410
     424:	00008b9d          	.word	0x00008b9d
     428:	00498993          	addi	x19,x19,4

# Testcase cp_rs1 (Test source rs1 = x27)
  RVTEST_TESTDATA_LOAD_INT(x28, x27) # load rs1: x27 = 0xb145736b
     42c:	000e2d83          	lw	x27,0(x28)
     430:	004e0e13          	addi	x28,x28,4

00000434 <I_andi_cg_cp_rs1_b27>:
I_andi_cg_cp_rs1_b27:
  andi x1, x27, -825 # perform operation
     434:	cc7df093          	andi	x1,x27,-825
  # Check if x1 contains the expected result. x19 is the signature ptr, x5 is the link ptr, x4 is a temp reg.
  RVTEST_SIGUPD(x19, x5, x4, x1, I_andi_cg_cp_rs1_b27, I_andi_cg_cp_rs1_b27_str)
     438:	0009a203          	lw	x4,0(x19)
     43c:	00120863          	beq	x4,x1,44c <I_andi_cg_cp_rs1_b27+0x18>
     440:	07c032ef          	jal	x5,34bc <failedtest_x5_x4>
     444:	00000434          	.word	0x00000434
     448:	00008bcd          	.word	0x00008bcd
     44c:	00498993          	addi	x19,x19,4

  mv x25, x28 # switch data pointer register to avoid conflict with test
     450:	000e0c93          	addi	x25,x28,0
# Testcase cp_rs1 (Test source rs1 = x28)
  RVTEST_TESTDATA_LOAD_INT(x25, x28) # load rs1: x28 = 0xb04ceb52
     454:	000cae03          	lw	x28,0(x25)
     458:	004c8c93          	addi	x25,x25,4

0000045c <I_andi_cg_cp_rs1_b28>:
I_andi_cg_cp_rs1_b28:
  andi x21, x28, -1484 # perform operation
     45c:	a34e7a93          	andi	x21,x28,-1484
  # Check if x21 contains the expected result. x19 is the signature ptr, x5 is the link ptr, x4 is a temp reg.
  RVTEST_SIGUPD(x19, x5, x4, x21, I_andi_cg_cp_rs1_b28, I_andi_cg_cp_rs1_b28_str)
     460:	0009a203          	lw	x4,0(x19)
     464:	01520863          	beq	x4,x21,474 <I_andi_cg_cp_rs1_b28+0x18>
     468:	054032ef          	jal	x5,34bc <failedtest_x5_x4>
     46c:	0000045c          	.word	0x0000045c
     470:	00008bfd          	.word	0x00008bfd
     474:	00498993          	addi	x19,x19,4

# Testcase cp_rs1 (Test source rs1 = x29)
  RVTEST_TESTDATA_LOAD_INT(x25, x29) # load rs1: x29 = 0xbfbb7695
     478:	000cae83          	lw	x29,0(x25)
     47c:	004c8c93          	addi	x25,x25,4

00000480 <I_andi_cg_cp_rs1_b29>:
I_andi_cg_cp_rs1_b29:
  andi x12, x29, 1132 # perform operation
     480:	46cef613          	andi	x12,x29,1132
  # Check if x12 contains the expected result. x19 is the signature ptr, x5 is the link ptr, x4 is a temp reg.
  RVTEST_SIGUPD(x19, x5, x4, x12, I_andi_cg_cp_rs1_b29, I_andi_cg_cp_rs1_b29_str)
     484:	0009a203          	lw	x4,0(x19)
     488:	00c20863          	beq	x4,x12,498 <I_andi_cg_cp_rs1_b29+0x18>
     48c:	030032ef          	jal	x5,34bc <failedtest_x5_x4>
     490:	00000480          	.word	0x00000480
     494:	00008c2d          	.word	0x00008c2d
     498:	00498993          	addi	x19,x19,4

# Testcase cp_rs1 (Test source rs1 = x30)
  RVTEST_TESTDATA_LOAD_INT(x25, x30) # load rs1: x30 = 0x24c7fc44
     49c:	000caf03          	lw	x30,0(x25)
     4a0:	004c8c93          	addi	x25,x25,4

000004a4 <I_andi_cg_cp_rs1_b30>:
I_andi_cg_cp_rs1_b30:
  andi x11, x30, -1865 # perform operation
     4a4:	8b7f7593          	andi	x11,x30,-1865
  # Check if x11 contains the expected result. x19 is the signature ptr, x5 is the link ptr, x4 is a temp reg.
  RVTEST_SIGUPD(x19, x5, x4, x11, I_andi_cg_cp_rs1_b30, I_andi_cg_cp_rs1_b30_str)
     4a8:	0009a203          	lw	x4,0(x19)
     4ac:	00b20863          	beq	x4,x11,4bc <I_andi_cg_cp_rs1_b30+0x18>
     4b0:	00c032ef          	jal	x5,34bc <failedtest_x5_x4>
     4b4:	000004a4          	.word	0x000004a4
     4b8:	00008c5d          	.word	0x00008c5d
     4bc:	00498993          	addi	x19,x19,4

# Testcase cp_rs1 (Test source rs1 = x31)
  RVTEST_TESTDATA_LOAD_INT(x25, x31) # load rs1: x31 = 0xfaf5b663
     4c0:	000caf83          	lw	x31,0(x25)
     4c4:	004c8c93          	addi	x25,x25,4

000004c8 <I_andi_cg_cp_rs1_b31>:
I_andi_cg_cp_rs1_b31:
  andi x11, x31, 938 # perform operation
     4c8:	3aaff593          	andi	x11,x31,938
  # Check if x11 contains the expected result. x19 is the signature ptr, x5 is the link ptr, x4 is a temp reg.
  RVTEST_SIGUPD(x19, x5, x4, x11, I_andi_cg_cp_rs1_b31, I_andi_cg_cp_rs1_b31_str)
     4cc:	0009a203          	lw	x4,0(x19)
     4d0:	00b20863          	beq	x4,x11,4e0 <I_andi_cg_cp_rs1_b31+0x18>
     4d4:	7e9022ef          	jal	x5,34bc <failedtest_x5_x4>
     4d8:	000004c8          	.word	0x000004c8
     4dc:	00008c8d          	.word	0x00008c8d
     4e0:	00498993          	addi	x19,x19,4
/////////////////////////////////
// cp_rd
/////////////////////////////////

# Testcase cp_rd (Test destination rd = x0)
  RVTEST_TESTDATA_LOAD_INT(x25, x28) # load rs1: x28 = 0xc05d43b1
     4e4:	000cae03          	lw	x28,0(x25)
     4e8:	004c8c93          	addi	x25,x25,4

000004ec <I_andi_cg_cp_rd_b0>:
I_andi_cg_cp_rd_b0:
  andi x0, x28, 1297 # perform operation
     4ec:	511e7013          	andi	x0,x28,1297
  # Check if x0 contains the expected result. x19 is the signature ptr, x5 is the link ptr, x4 is a temp reg.
  RVTEST_SIGUPD(x19, x5, x4, x0, I_andi_cg_cp_rd_b0, I_andi_cg_cp_rd_b0_str)
     4f0:	0009a203          	lw	x4,0(x19)
     4f4:	00020863          	beq	x4,x0,504 <I_andi_cg_cp_rd_b0+0x18>
     4f8:	7c5022ef          	jal	x5,34bc <failedtest_x5_x4>
     4fc:	000004ec          	.word	0x000004ec
     500:	00008cbd          	.word	0x00008cbd
     504:	00498993          	addi	x19,x19,4

# Testcase cp_rd (Test destination rd = x1)
  RVTEST_TESTDATA_LOAD_INT(x25, x21) # load rs1: x21 = 0xf3720025
     508:	000caa83          	lw	x21,0(x25)
     50c:	004c8c93          	addi	x25,x25,4

00000510 <I_andi_cg_cp_rd_b1>:
I_andi_cg_cp_rd_b1:
  andi x1, x21, -1889 # perform operation
     510:	89faf093          	andi	x1,x21,-1889
  # Check if x1 contains the expected result. x19 is the signature ptr, x5 is the link ptr, x4 is a temp reg.
  RVTEST_SIGUPD(x19, x5, x4, x1, I_andi_cg_cp_rd_b1, I_andi_cg_cp_rd_b1_str)
     514:	0009a203          	lw	x4,0(x19)
     518:	00120863          	beq	x4,x1,528 <I_andi_cg_cp_rd_b1+0x18>
     51c:	7a1022ef          	jal	x5,34bc <failedtest_x5_x4>
     520:	00000510          	.word	0x00000510
     524:	00008ceb          	.word	0x00008ceb
     528:	00498993          	addi	x19,x19,4

# Testcase cp_rd (Test destination rd = x2)
  RVTEST_TESTDATA_LOAD_INT(x25, x18) # load rs1: x18 = 0xaaa1190d
     52c:	000ca903          	lw	x18,0(x25)
     530:	004c8c93          	addi	x25,x25,4

00000534 <I_andi_cg_cp_rd_b2>:
I_andi_cg_cp_rd_b2:
  andi x2, x18, -492 # perform operation
     534:	e1497113          	andi	x2,x18,-492
  # Check if x2 contains the expected result. x19 is the signature ptr, x5 is the link ptr, x4 is a temp reg.
  RVTEST_SIGUPD(x19, x5, x4, x2, I_andi_cg_cp_rd_b2, I_andi_cg_cp_rd_b2_str)
     538:	0009a203          	lw	x4,0(x19)
     53c:	00220863          	beq	x4,x2,54c <I_andi_cg_cp_rd_b2+0x18>
     540:	77d022ef          	jal	x5,34bc <failedtest_x5_x4>
     544:	00000534          	.word	0x00000534
     548:	00008d19          	.word	0x00008d19
     54c:	00498993          	addi	x19,x19,4

# Testcase cp_rd (Test destination rd = x3)
  RVTEST_TESTDATA_LOAD_INT(x25, x24) # load rs1: x24 = 0x09bda315
     550:	000cac03          	lw	x24,0(x25)
     554:	004c8c93          	addi	x25,x25,4

00000558 <I_andi_cg_cp_rd_b3>:
I_andi_cg_cp_rd_b3:
  andi x3, x24, 1010 # perform operation
     558:	3f2c7193          	andi	x3,x24,1010
  # Check if x3 contains the expected result. x19 is the signature ptr, x5 is the link ptr, x4 is a temp reg.
  RVTEST_SIGUPD(x19, x5, x4, x3, I_andi_cg_cp_rd_b3, I_andi_cg_cp_rd_b3_str)
     55c:	0009a203          	lw	x4,0(x19)
     560:	00320863          	beq	x4,x3,570 <I_andi_cg_cp_rd_b3+0x18>
     564:	759022ef          	jal	x5,34bc <failedtest_x5_x4>
     568:	00000558          	.word	0x00000558
     56c:	00008d47          	.word	0x00008d47
     570:	00498993          	addi	x19,x19,4

  mv x13, x4 # switch temp register to avoid conflict with test
     574:	00020693          	addi	x13,x4,0 # 0 <rvtest_entry_point>
  mv x14, x5 # switch link pointer register to avoid conflict with test
     578:	00028713          	addi	x14,x5,0
# Testcase cp_rd (Test destination rd = x4)
  RVTEST_TESTDATA_LOAD_INT(x25, x5) # load rs1: x5 = 0x3610dac3
     57c:	000ca283          	lw	x5,0(x25)
     580:	004c8c93          	addi	x25,x25,4

00000584 <I_andi_cg_cp_rd_b4>:
I_andi_cg_cp_rd_b4:
  andi x4, x5, 61 # perform operation
     584:	03d2f213          	andi	x4,x5,61
  # Check if x4 contains the expected result. x19 is the signature ptr, x14 is the link ptr, x13 is a temp reg.
  RVTEST_SIGUPD(x19, x14, x13, x4, I_andi_cg_cp_rd_b4, I_andi_cg_cp_rd_b4_str)
     588:	0009a683          	lw	x13,0(x19)
     58c:	00468863          	beq	x13,x4,59c <I_andi_cg_cp_rd_b4+0x18>
     590:	76d0276f          	jal	x14,34fc <failedtest_x14_x13>
     594:	00000584          	.word	0x00000584
     598:	00008d75          	.word	0x00008d75
     59c:	00498993          	addi	x19,x19,4

# Testcase cp_rd (Test destination rd = x5)
  RVTEST_TESTDATA_LOAD_INT(x25, x7) # load rs1: x7 = 0x8ea0d775
     5a0:	000ca383          	lw	x7,0(x25)
     5a4:	004c8c93          	addi	x25,x25,4

000005a8 <I_andi_cg_cp_rd_b5>:
I_andi_cg_cp_rd_b5:
  andi x5, x7, 1440 # perform operation
     5a8:	5a03f293          	andi	x5,x7,1440
  # Check if x5 contains the expected result. x19 is the signature ptr, x14 is the link ptr, x13 is a temp reg.
  RVTEST_SIGUPD(x19, x14, x13, x5, I_andi_cg_cp_rd_b5, I_andi_cg_cp_rd_b5_str)
     5ac:	0009a683          	lw	x13,0(x19)
     5b0:	00568863          	beq	x13,x5,5c0 <I_andi_cg_cp_rd_b5+0x18>
     5b4:	7490276f          	jal	x14,34fc <failedtest_x14_x13>
     5b8:	000005a8          	.word	0x000005a8
     5bc:	00008da3          	.word	0x00008da3
     5c0:	00498993          	addi	x19,x19,4

# Testcase cp_rd (Test destination rd = x6)
  RVTEST_TESTDATA_LOAD_INT(x25, x18) # load rs1: x18 = 0x31e0640a
     5c4:	000ca903          	lw	x18,0(x25)
     5c8:	004c8c93          	addi	x25,x25,4

000005cc <I_andi_cg_cp_rd_b6>:
I_andi_cg_cp_rd_b6:
  andi x6, x18, 743 # perform operation
     5cc:	2e797313          	andi	x6,x18,743
  # Check if x6 contains the expected result. x19 is the signature ptr, x14 is the link ptr, x13 is a temp reg.
  RVTEST_SIGUPD(x19, x14, x13, x6, I_andi_cg_cp_rd_b6, I_andi_cg_cp_rd_b6_str)
     5d0:	0009a683          	lw	x13,0(x19)
     5d4:	00668863          	beq	x13,x6,5e4 <I_andi_cg_cp_rd_b6+0x18>
     5d8:	7250276f          	jal	x14,34fc <failedtest_x14_x13>
     5dc:	000005cc          	.word	0x000005cc
     5e0:	00008dd1          	.word	0x00008dd1
     5e4:	00498993          	addi	x19,x19,4

# Testcase cp_rd (Test destination rd = x7)
  RVTEST_TESTDATA_LOAD_INT(x25, x26) # load rs1: x26 = 0xe993731c
     5e8:	000cad03          	lw	x26,0(x25)
     5ec:	004c8c93          	addi	x25,x25,4

000005f0 <I_andi_cg_cp_rd_b7>:
I_andi_cg_cp_rd_b7:
  andi x7, x26, -1689 # perform operation
     5f0:	967d7393          	andi	x7,x26,-1689
  # Check if x7 contains the expected result. x19 is the signature ptr, x14 is the link ptr, x13 is a temp reg.
  RVTEST_SIGUPD(x19, x14, x13, x7, I_andi_cg_cp_rd_b7, I_andi_cg_cp_rd_b7_str)
     5f4:	0009a683          	lw	x13,0(x19)
     5f8:	00768863          	beq	x13,x7,608 <I_andi_cg_cp_rd_b7+0x18>
     5fc:	7010276f          	jal	x14,34fc <failedtest_x14_x13>
     600:	000005f0          	.word	0x000005f0
     604:	00008dff          	.word	0x00008dff
     608:	00498993          	addi	x19,x19,4

# Testcase cp_rd (Test destination rd = x8)
  RVTEST_TESTDATA_LOAD_INT(x25, x26) # load rs1: x26 = 0xe13a145f
     60c:	000cad03          	lw	x26,0(x25)
     610:	004c8c93          	addi	x25,x25,4

00000614 <I_andi_cg_cp_rd_b8>:
I_andi_cg_cp_rd_b8:
  andi x8, x26, -547 # perform operation
     614:	dddd7413          	andi	x8,x26,-547
  # Check if x8 contains the expected result. x19 is the signature ptr, x14 is the link ptr, x13 is a temp reg.
  RVTEST_SIGUPD(x19, x14, x13, x8, I_andi_cg_cp_rd_b8, I_andi_cg_cp_rd_b8_str)
     618:	0009a683          	lw	x13,0(x19)
     61c:	00868863          	beq	x13,x8,62c <I_andi_cg_cp_rd_b8+0x18>
     620:	6dd0276f          	jal	x14,34fc <failedtest_x14_x13>
     624:	00000614          	.word	0x00000614
     628:	00008e2d          	.word	0x00008e2d
     62c:	00498993          	addi	x19,x19,4

# Testcase cp_rd (Test destination rd = x9)
  RVTEST_TESTDATA_LOAD_INT(x25, x6) # load rs1: x6 = 0x5a9dc17a
     630:	000ca303          	lw	x6,0(x25)
     634:	004c8c93          	addi	x25,x25,4

00000638 <I_andi_cg_cp_rd_b9>:
I_andi_cg_cp_rd_b9:
  andi x9, x6, -168 # perform operation
     638:	f5837493          	andi	x9,x6,-168
  # Check if x9 contains the expected result. x19 is the signature ptr, x14 is the link ptr, x13 is a temp reg.
  RVTEST_SIGUPD(x19, x14, x13, x9, I_andi_cg_cp_rd_b9, I_andi_cg_cp_rd_b9_str)
     63c:	0009a683          	lw	x13,0(x19)
     640:	00968863          	beq	x13,x9,650 <I_andi_cg_cp_rd_b9+0x18>
     644:	6b90276f          	jal	x14,34fc <failedtest_x14_x13>
     648:	00000638          	.word	0x00000638
     64c:	00008e5b          	.word	0x00008e5b
     650:	00498993          	addi	x19,x19,4

# Testcase cp_rd (Test destination rd = x10)
  RVTEST_TESTDATA_LOAD_INT(x25, x2) # load rs1: x2 = 0x3985fb4f
     654:	000ca103          	lw	x2,0(x25)
     658:	004c8c93          	addi	x25,x25,4

0000065c <I_andi_cg_cp_rd_b10>:
I_andi_cg_cp_rd_b10:
  andi x10, x2, -949 # perform operation
     65c:	c4b17513          	andi	x10,x2,-949
  # Check if x10 contains the expected result. x19 is the signature ptr, x14 is the link ptr, x13 is a temp reg.
  RVTEST_SIGUPD(x19, x14, x13, x10, I_andi_cg_cp_rd_b10, I_andi_cg_cp_rd_b10_str)
     660:	0009a683          	lw	x13,0(x19)
     664:	00a68863          	beq	x13,x10,674 <I_andi_cg_cp_rd_b10+0x18>
     668:	6950276f          	jal	x14,34fc <failedtest_x14_x13>
     66c:	0000065c          	.word	0x0000065c
     670:	00008e89          	.word	0x00008e89
     674:	00498993          	addi	x19,x19,4

# Testcase cp_rd (Test destination rd = x11)
  RVTEST_TESTDATA_LOAD_INT(x25, x29) # load rs1: x29 = 0xa04c5abb
     678:	000cae83          	lw	x29,0(x25)
     67c:	004c8c93          	addi	x25,x25,4

00000680 <I_andi_cg_cp_rd_b11>:
I_andi_cg_cp_rd_b11:
  andi x11, x29, 815 # perform operation
     680:	32fef593          	andi	x11,x29,815
  # Check if x11 contains the expected result. x19 is the signature ptr, x14 is the link ptr, x13 is a temp reg.
  RVTEST_SIGUPD(x19, x14, x13, x11, I_andi_cg_cp_rd_b11, I_andi_cg_cp_rd_b11_str)
     684:	0009a683          	lw	x13,0(x19)
     688:	00b68863          	beq	x13,x11,698 <I_andi_cg_cp_rd_b11+0x18>
     68c:	6710276f          	jal	x14,34fc <failedtest_x14_x13>
     690:	00000680          	.word	0x00000680
     694:	00008eb8          	.word	0x00008eb8
     698:	00498993          	addi	x19,x19,4

# Testcase cp_rd (Test destination rd = x12)
  RVTEST_TESTDATA_LOAD_INT(x25, x27) # load rs1: x27 = 0x916de3ce
     69c:	000cad83          	lw	x27,0(x25)
     6a0:	004c8c93          	addi	x25,x25,4

000006a4 <I_andi_cg_cp_rd_b12>:
I_andi_cg_cp_rd_b12:
  andi x12, x27, 1925 # perform operation
     6a4:	785df613          	andi	x12,x27,1925
  # Check if x12 contains the expected result. x19 is the signature ptr, x14 is the link ptr, x13 is a temp reg.
  RVTEST_SIGUPD(x19, x14, x13, x12, I_andi_cg_cp_rd_b12, I_andi_cg_cp_rd_b12_str)
     6a8:	0009a683          	lw	x13,0(x19)
     6ac:	00c68863          	beq	x13,x12,6bc <I_andi_cg_cp_rd_b12+0x18>
     6b0:	64d0276f          	jal	x14,34fc <failedtest_x14_x13>
     6b4:	000006a4          	.word	0x000006a4
     6b8:	00008ee7          	.word	0x00008ee7
     6bc:	00498993          	addi	x19,x19,4

  mv x4, x13 # switch temp register to avoid conflict with test
     6c0:	00068213          	addi	x4,x13,0
  mv x5, x14 # switch link pointer register to avoid conflict with test
     6c4:	00070293          	addi	x5,x14,0
# Testcase cp_rd (Test destination rd = x13)
  RVTEST_TESTDATA_LOAD_INT(x25, x15) # load rs1: x15 = 0x7d709123
     6c8:	000ca783          	lw	x15,0(x25)
     6cc:	004c8c93          	addi	x25,x25,4

000006d0 <I_andi_cg_cp_rd_b13>:
I_andi_cg_cp_rd_b13:
  andi x13, x15, 1580 # perform operation
     6d0:	62c7f693          	andi	x13,x15,1580
  # Check if x13 contains the expected result. x19 is the signature ptr, x5 is the link ptr, x4 is a temp reg.
  RVTEST_SIGUPD(x19, x5, x4, x13, I_andi_cg_cp_rd_b13, I_andi_cg_cp_rd_b13_str)
     6d4:	0009a203          	lw	x4,0(x19)
     6d8:	00d20863          	beq	x4,x13,6e8 <I_andi_cg_cp_rd_b13+0x18>
     6dc:	5e1022ef          	jal	x5,34bc <failedtest_x5_x4>
     6e0:	000006d0          	.word	0x000006d0
     6e4:	00008f16          	.word	0x00008f16
     6e8:	00498993          	addi	x19,x19,4

# Testcase cp_rd (Test destination rd = x14)
  RVTEST_TESTDATA_LOAD_INT(x25, x21) # load rs1: x21 = 0x5bc036ee
     6ec:	000caa83          	lw	x21,0(x25)
     6f0:	004c8c93          	addi	x25,x25,4

000006f4 <I_andi_cg_cp_rd_b14>:
I_andi_cg_cp_rd_b14:
  andi x14, x21, -571 # perform operation
     6f4:	dc5af713          	andi	x14,x21,-571
  # Check if x14 contains the expected result. x19 is the signature ptr, x5 is the link ptr, x4 is a temp reg.
  RVTEST_SIGUPD(x19, x5, x4, x14, I_andi_cg_cp_rd_b14, I_andi_cg_cp_rd_b14_str)
     6f8:	0009a203          	lw	x4,0(x19)
     6fc:	00e20863          	beq	x4,x14,70c <I_andi_cg_cp_rd_b14+0x18>
     700:	5bd022ef          	jal	x5,34bc <failedtest_x5_x4>
     704:	000006f4          	.word	0x000006f4
     708:	00008f45          	.word	0x00008f45
     70c:	00498993          	addi	x19,x19,4

# Testcase cp_rd (Test destination rd = x15)
  RVTEST_TESTDATA_LOAD_INT(x25, x13) # load rs1: x13 = 0x9d353c38
     710:	000ca683          	lw	x13,0(x25)
     714:	004c8c93          	addi	x25,x25,4

00000718 <I_andi_cg_cp_rd_b15>:
I_andi_cg_cp_rd_b15:
  andi x15, x13, 1761 # perform operation
     718:	6e16f793          	andi	x15,x13,1761
  # Check if x15 contains the expected result. x19 is the signature ptr, x5 is the link ptr, x4 is a temp reg.
  RVTEST_SIGUPD(x19, x5, x4, x15, I_andi_cg_cp_rd_b15, I_andi_cg_cp_rd_b15_str)
     71c:	0009a203          	lw	x4,0(x19)
     720:	00f20863          	beq	x4,x15,730 <I_andi_cg_cp_rd_b15+0x18>
     724:	599022ef          	jal	x5,34bc <failedtest_x5_x4>
     728:	00000718          	.word	0x00000718
     72c:	00008f74          	.word	0x00008f74
     730:	00498993          	addi	x19,x19,4

# Testcase cp_rd (Test destination rd = x16)
  RVTEST_TESTDATA_LOAD_INT(x25, x22) # load rs1: x22 = 0x2161d5b7
     734:	000cab03          	lw	x22,0(x25)
     738:	004c8c93          	addi	x25,x25,4

0000073c <I_andi_cg_cp_rd_b16>:
I_andi_cg_cp_rd_b16:
  andi x16, x22, 1988 # perform operation
     73c:	7c4b7813          	andi	x16,x22,1988
  # Check if x16 contains the expected result. x19 is the signature ptr, x5 is the link ptr, x4 is a temp reg.
  RVTEST_SIGUPD(x19, x5, x4, x16, I_andi_cg_cp_rd_b16, I_andi_cg_cp_rd_b16_str)
     740:	0009a203          	lw	x4,0(x19)
     744:	01020863          	beq	x4,x16,754 <I_andi_cg_cp_rd_b16+0x18>
     748:	575022ef          	jal	x5,34bc <failedtest_x5_x4>
     74c:	0000073c          	.word	0x0000073c
     750:	00008fa3          	.word	0x00008fa3
     754:	00498993          	addi	x19,x19,4

# Testcase cp_rd (Test destination rd = x17)
  RVTEST_TESTDATA_LOAD_INT(x25, x29) # load rs1: x29 = 0xd0352104
     758:	000cae83          	lw	x29,0(x25)
     75c:	004c8c93          	addi	x25,x25,4

00000760 <I_andi_cg_cp_rd_b17>:
I_andi_cg_cp_rd_b17:
  andi x17, x29, 181 # perform operation
     760:	0b5ef893          	andi	x17,x29,181
  # Check if x17 contains the expected result. x19 is the signature ptr, x5 is the link ptr, x4 is a temp reg.
  RVTEST_SIGUPD(x19, x5, x4, x17, I_andi_cg_cp_rd_b17, I_andi_cg_cp_rd_b17_str)
     764:	0009a203          	lw	x4,0(x19)
     768:	01120863          	beq	x4,x17,778 <I_andi_cg_cp_rd_b17+0x18>
     76c:	551022ef          	jal	x5,34bc <failedtest_x5_x4>
     770:	00000760          	.word	0x00000760
     774:	00008fd2          	.word	0x00008fd2
     778:	00498993          	addi	x19,x19,4

# Testcase cp_rd (Test destination rd = x18)
  RVTEST_TESTDATA_LOAD_INT(x25, x16) # load rs1: x16 = 0xe8e6af50
     77c:	000ca803          	lw	x16,0(x25)
     780:	004c8c93          	addi	x25,x25,4

00000784 <I_andi_cg_cp_rd_b18>:
I_andi_cg_cp_rd_b18:
  andi x18, x16, 187 # perform operation
     784:	0bb87913          	andi	x18,x16,187
  # Check if x18 contains the expected result. x19 is the signature ptr, x5 is the link ptr, x4 is a temp reg.
  RVTEST_SIGUPD(x19, x5, x4, x18, I_andi_cg_cp_rd_b18, I_andi_cg_cp_rd_b18_str)
     788:	0009a203          	lw	x4,0(x19)
     78c:	01220863          	beq	x4,x18,79c <I_andi_cg_cp_rd_b18+0x18>
     790:	52d022ef          	jal	x5,34bc <failedtest_x5_x4>
     794:	00000784          	.word	0x00000784
     798:	00009001          	.word	0x00009001
     79c:	00498993          	addi	x19,x19,4

  mv x10, x19 # switch signature pointer register to avoid conflict with test
     7a0:	00098513          	addi	x10,x19,0
# Testcase cp_rd (Test destination rd = x19)
  RVTEST_TESTDATA_LOAD_INT(x25, x0) # load rs1: x0 = 0xe65e19e5
     7a4:	000ca003          	lw	x0,0(x25)
     7a8:	004c8c93          	addi	x25,x25,4

000007ac <I_andi_cg_cp_rd_b19>:
I_andi_cg_cp_rd_b19:
  andi x19, x0, 776 # perform operation
     7ac:	30807993          	andi	x19,x0,776
  # Check if x19 contains the expected result. x10 is the signature ptr, x5 is the link ptr, x4 is a temp reg.
  RVTEST_SIGUPD(x10, x5, x4, x19, I_andi_cg_cp_rd_b19, I_andi_cg_cp_rd_b19_str)
     7b0:	00052203          	lw	x4,0(x10)
     7b4:	01320863          	beq	x4,x19,7c4 <I_andi_cg_cp_rd_b19+0x18>
     7b8:	505022ef          	jal	x5,34bc <failedtest_x5_x4>
     7bc:	000007ac          	.word	0x000007ac
     7c0:	00009030          	.word	0x00009030
     7c4:	00450513          	addi	x10,x10,4

# Testcase cp_rd (Test destination rd = x20)
  RVTEST_TESTDATA_LOAD_INT(x25, x11) # load rs1: x11 = 0xdb15f3bf
     7c8:	000ca583          	lw	x11,0(x25)
     7cc:	004c8c93          	addi	x25,x25,4

000007d0 <I_andi_cg_cp_rd_b20>:
I_andi_cg_cp_rd_b20:
  andi x20, x11, 1036 # perform operation
     7d0:	40c5fa13          	andi	x20,x11,1036
  # Check if x20 contains the expected result. x10 is the signature ptr, x5 is the link ptr, x4 is a temp reg.
  RVTEST_SIGUPD(x10, x5, x4, x20, I_andi_cg_cp_rd_b20, I_andi_cg_cp_rd_b20_str)
     7d4:	00052203          	lw	x4,0(x10)
     7d8:	01420863          	beq	x4,x20,7e8 <I_andi_cg_cp_rd_b20+0x18>
     7dc:	4e1022ef          	jal	x5,34bc <failedtest_x5_x4>
     7e0:	000007d0          	.word	0x000007d0
     7e4:	0000905f          	.word	0x0000905f
     7e8:	00450513          	addi	x10,x10,4

# Testcase cp_rd (Test destination rd = x21)
  RVTEST_TESTDATA_LOAD_INT(x25, x1) # load rs1: x1 = 0x2a3c1351
     7ec:	000ca083          	lw	x1,0(x25)
     7f0:	004c8c93          	addi	x25,x25,4

000007f4 <I_andi_cg_cp_rd_b21>:
I_andi_cg_cp_rd_b21:
  andi x21, x1, 1552 # perform operation
     7f4:	6100fa93          	andi	x21,x1,1552
  # Check if x21 contains the expected result. x10 is the signature ptr, x5 is the link ptr, x4 is a temp reg.
  RVTEST_SIGUPD(x10, x5, x4, x21, I_andi_cg_cp_rd_b21, I_andi_cg_cp_rd_b21_str)
     7f8:	00052203          	lw	x4,0(x10)
     7fc:	01520863          	beq	x4,x21,80c <I_andi_cg_cp_rd_b21+0x18>
     800:	4bd022ef          	jal	x5,34bc <failedtest_x5_x4>
     804:	000007f4          	.word	0x000007f4
     808:	0000908e          	.word	0x0000908e
     80c:	00450513          	addi	x10,x10,4

# Testcase cp_rd (Test destination rd = x22)
  RVTEST_TESTDATA_LOAD_INT(x25, x21) # load rs1: x21 = 0x27cf92d2
     810:	000caa83          	lw	x21,0(x25)
     814:	004c8c93          	addi	x25,x25,4

00000818 <I_andi_cg_cp_rd_b22>:
I_andi_cg_cp_rd_b22:
  andi x22, x21, -915 # perform operation
     818:	c6dafb13          	andi	x22,x21,-915
  # Check if x22 contains the expected result. x10 is the signature ptr, x5 is the link ptr, x4 is a temp reg.
  RVTEST_SIGUPD(x10, x5, x4, x22, I_andi_cg_cp_rd_b22, I_andi_cg_cp_rd_b22_str)
     81c:	00052203          	lw	x4,0(x10)
     820:	01620863          	beq	x4,x22,830 <I_andi_cg_cp_rd_b22+0x18>
     824:	499022ef          	jal	x5,34bc <failedtest_x5_x4>
     828:	00000818          	.word	0x00000818
     82c:	000090bd          	.word	0x000090bd
     830:	00450513          	addi	x10,x10,4

# Testcase cp_rd (Test destination rd = x23)
  RVTEST_TESTDATA_LOAD_INT(x25, x8) # load rs1: x8 = 0x6b2950cb
     834:	000ca403          	lw	x8,0(x25)
     838:	004c8c93          	addi	x25,x25,4

0000083c <I_andi_cg_cp_rd_b23>:
I_andi_cg_cp_rd_b23:
  andi x23, x8, 424 # perform operation
     83c:	1a847b93          	andi	x23,x8,424
  # Check if x23 contains the expected result. x10 is the signature ptr, x5 is the link ptr, x4 is a temp reg.
  RVTEST_SIGUPD(x10, x5, x4, x23, I_andi_cg_cp_rd_b23, I_andi_cg_cp_rd_b23_str)
     840:	00052203          	lw	x4,0(x10)
     844:	01720863          	beq	x4,x23,854 <I_andi_cg_cp_rd_b23+0x18>
     848:	475022ef          	jal	x5,34bc <failedtest_x5_x4>
     84c:	0000083c          	.word	0x0000083c
     850:	000090ec          	.word	0x000090ec
     854:	00450513          	addi	x10,x10,4

# Testcase cp_rd (Test destination rd = x24)
  RVTEST_TESTDATA_LOAD_INT(x25, x16) # load rs1: x16 = 0x63994844
     858:	000ca803          	lw	x16,0(x25)
     85c:	004c8c93          	addi	x25,x25,4

00000860 <I_andi_cg_cp_rd_b24>:
I_andi_cg_cp_rd_b24:
  andi x24, x16, -1594 # perform operation
     860:	9c687c13          	andi	x24,x16,-1594
  # Check if x24 contains the expected result. x10 is the signature ptr, x5 is the link ptr, x4 is a temp reg.
  RVTEST_SIGUPD(x10, x5, x4, x24, I_andi_cg_cp_rd_b24, I_andi_cg_cp_rd_b24_str)
     864:	00052203          	lw	x4,0(x10)
     868:	01820863          	beq	x4,x24,878 <I_andi_cg_cp_rd_b24+0x18>
     86c:	451022ef          	jal	x5,34bc <failedtest_x5_x4>
     870:	00000860          	.word	0x00000860
     874:	0000911b          	.word	0x0000911b
     878:	00450513          	addi	x10,x10,4

  mv x23, x25 # switch data pointer register to avoid conflict with test
     87c:	000c8b93          	addi	x23,x25,0
# Testcase cp_rd (Test destination rd = x25)
  RVTEST_TESTDATA_LOAD_INT(x23, x27) # load rs1: x27 = 0x3cd433b9
     880:	000bad83          	lw	x27,0(x23)
     884:	004b8b93          	addi	x23,x23,4

00000888 <I_andi_cg_cp_rd_b25>:
I_andi_cg_cp_rd_b25:
  andi x25, x27, -1237 # perform operation
     888:	b2bdfc93          	andi	x25,x27,-1237
  # Check if x25 contains the expected result. x10 is the signature ptr, x5 is the link ptr, x4 is a temp reg.
  RVTEST_SIGUPD(x10, x5, x4, x25, I_andi_cg_cp_rd_b25, I_andi_cg_cp_rd_b25_str)
     88c:	00052203          	lw	x4,0(x10)
     890:	01920863          	beq	x4,x25,8a0 <I_andi_cg_cp_rd_b25+0x18>
     894:	429022ef          	jal	x5,34bc <failedtest_x5_x4>
     898:	00000888          	.word	0x00000888
     89c:	0000914a          	.word	0x0000914a
     8a0:	00450513          	addi	x10,x10,4

# Testcase cp_rd (Test destination rd = x26)
  RVTEST_TESTDATA_LOAD_INT(x23, x8) # load rs1: x8 = 0xbeb090ca
     8a4:	000ba403          	lw	x8,0(x23)
     8a8:	004b8b93          	addi	x23,x23,4

000008ac <I_andi_cg_cp_rd_b26>:
I_andi_cg_cp_rd_b26:
  andi x26, x8, -186 # perform operation
     8ac:	f4647d13          	andi	x26,x8,-186
  # Check if x26 contains the expected result. x10 is the signature ptr, x5 is the link ptr, x4 is a temp reg.
  RVTEST_SIGUPD(x10, x5, x4, x26, I_andi_cg_cp_rd_b26, I_andi_cg_cp_rd_b26_str)
     8b0:	00052203          	lw	x4,0(x10)
     8b4:	01a20863          	beq	x4,x26,8c4 <I_andi_cg_cp_rd_b26+0x18>
     8b8:	405022ef          	jal	x5,34bc <failedtest_x5_x4>
     8bc:	000008ac          	.word	0x000008ac
     8c0:	00009179          	.word	0x00009179
     8c4:	00450513          	addi	x10,x10,4

# Testcase cp_rd (Test destination rd = x27)
  RVTEST_TESTDATA_LOAD_INT(x23, x6) # load rs1: x6 = 0xd27a566c
     8c8:	000ba303          	lw	x6,0(x23)
     8cc:	004b8b93          	addi	x23,x23,4

000008d0 <I_andi_cg_cp_rd_b27>:
I_andi_cg_cp_rd_b27:
  andi x27, x6, 1270 # perform operation
     8d0:	4f637d93          	andi	x27,x6,1270
  # Check if x27 contains the expected result. x10 is the signature ptr, x5 is the link ptr, x4 is a temp reg.
  RVTEST_SIGUPD(x10, x5, x4, x27, I_andi_cg_cp_rd_b27, I_andi_cg_cp_rd_b27_str)
     8d4:	00052203          	lw	x4,0(x10)
     8d8:	01b20863          	beq	x4,x27,8e8 <I_andi_cg_cp_rd_b27+0x18>
     8dc:	3e1022ef          	jal	x5,34bc <failedtest_x5_x4>
     8e0:	000008d0          	.word	0x000008d0
     8e4:	000091a8          	.word	0x000091a8
     8e8:	00450513          	addi	x10,x10,4

# Testcase cp_rd (Test destination rd = x28)
  RVTEST_TESTDATA_LOAD_INT(x23, x20) # load rs1: x20 = 0xbafb94d1
     8ec:	000baa03          	lw	x20,0(x23)
     8f0:	004b8b93          	addi	x23,x23,4

000008f4 <I_andi_cg_cp_rd_b28>:
I_andi_cg_cp_rd_b28:
  andi x28, x20, -1182 # perform operation
     8f4:	b62a7e13          	andi	x28,x20,-1182
  # Check if x28 contains the expected result. x10 is the signature ptr, x5 is the link ptr, x4 is a temp reg.
  RVTEST_SIGUPD(x10, x5, x4, x28, I_andi_cg_cp_rd_b28, I_andi_cg_cp_rd_b28_str)
     8f8:	00052203          	lw	x4,0(x10)
     8fc:	01c20863          	beq	x4,x28,90c <I_andi_cg_cp_rd_b28+0x18>
     900:	3bd022ef          	jal	x5,34bc <failedtest_x5_x4>
     904:	000008f4          	.word	0x000008f4
     908:	000091d7          	.word	0x000091d7
     90c:	00450513          	addi	x10,x10,4

# Testcase cp_rd (Test destination rd = x29)
  RVTEST_TESTDATA_LOAD_INT(x23, x2) # load rs1: x2 = 0x0376ea16
     910:	000ba103          	lw	x2,0(x23)
     914:	004b8b93          	addi	x23,x23,4

00000918 <I_andi_cg_cp_rd_b29>:
I_andi_cg_cp_rd_b29:
  andi x29, x2, 1 # perform operation
     918:	00117e93          	andi	x29,x2,1
  # Check if x29 contains the expected result. x10 is the signature ptr, x5 is the link ptr, x4 is a temp reg.
  RVTEST_SIGUPD(x10, x5, x4, x29, I_andi_cg_cp_rd_b29, I_andi_cg_cp_rd_b29_str)
     91c:	00052203          	lw	x4,0(x10)
     920:	01d20863          	beq	x4,x29,930 <I_andi_cg_cp_rd_b29+0x18>
     924:	399022ef          	jal	x5,34bc <failedtest_x5_x4>
     928:	00000918          	.word	0x00000918
     92c:	00009206          	.word	0x00009206
     930:	00450513          	addi	x10,x10,4

# Testcase cp_rd (Test destination rd = x30)
  RVTEST_TESTDATA_LOAD_INT(x23, x24) # load rs1: x24 = 0x92e3cb73
     934:	000bac03          	lw	x24,0(x23)
     938:	004b8b93          	addi	x23,x23,4

0000093c <I_andi_cg_cp_rd_b30>:
I_andi_cg_cp_rd_b30:
  andi x30, x24, -1442 # perform operation
     93c:	a5ec7f13          	andi	x30,x24,-1442
  # Check if x30 contains the expected result. x10 is the signature ptr, x5 is the link ptr, x4 is a temp reg.
  RVTEST_SIGUPD(x10, x5, x4, x30, I_andi_cg_cp_rd_b30, I_andi_cg_cp_rd_b30_str)
     940:	00052203          	lw	x4,0(x10)
     944:	01e20863          	beq	x4,x30,954 <I_andi_cg_cp_rd_b30+0x18>
     948:	375022ef          	jal	x5,34bc <failedtest_x5_x4>
     94c:	0000093c          	.word	0x0000093c
     950:	00009235          	.word	0x00009235
     954:	00450513          	addi	x10,x10,4

# Testcase cp_rd (Test destination rd = x31)
  RVTEST_TESTDATA_LOAD_INT(x23, x0) # load rs1: x0 = 0x059e52e4
     958:	000ba003          	lw	x0,0(x23)
     95c:	004b8b93          	addi	x23,x23,4

00000960 <I_andi_cg_cp_rd_b31>:
I_andi_cg_cp_rd_b31:
  andi x31, x0, 760 # perform operation
     960:	2f807f93          	andi	x31,x0,760
  # Check if x31 contains the expected result. x10 is the signature ptr, x5 is the link ptr, x4 is a temp reg.
  RVTEST_SIGUPD(x10, x5, x4, x31, I_andi_cg_cp_rd_b31, I_andi_cg_cp_rd_b31_str)
     964:	00052203          	lw	x4,0(x10)
     968:	01f20863          	beq	x4,x31,978 <I_andi_cg_cp_rd_b31+0x18>
     96c:	351022ef          	jal	x5,34bc <failedtest_x5_x4>
     970:	00000960          	.word	0x00000960
     974:	00009264          	.word	0x00009264
     978:	00450513          	addi	x10,x10,4
/////////////////////////////////
// cp_rs1_edges
/////////////////////////////////

# Testcase cp_rs1_edges (Test source rs1 value = 0x00000000)
  RVTEST_TESTDATA_LOAD_INT(x23, x8) # load rs1: x8 = 0x00000000
     97c:	000ba403          	lw	x8,0(x23)
     980:	004b8b93          	addi	x23,x23,4

00000984 <I_andi_cg_cp_rs1_edges_0x0>:
I_andi_cg_cp_rs1_edges_0x0:
  andi x29, x8, -1547 # perform operation
     984:	9f547e93          	andi	x29,x8,-1547
  # Check if x29 contains the expected result. x10 is the signature ptr, x5 is the link ptr, x4 is a temp reg.
  RVTEST_SIGUPD(x10, x5, x4, x29, I_andi_cg_cp_rs1_edges_0x0, I_andi_cg_cp_rs1_edges_0x0_str)
     988:	00052203          	lw	x4,0(x10)
     98c:	01d20863          	beq	x4,x29,99c <I_andi_cg_cp_rs1_edges_0x0+0x18>
     990:	32d022ef          	jal	x5,34bc <failedtest_x5_x4>
     994:	00000984          	.word	0x00000984
     998:	00009293          	.word	0x00009293
     99c:	00450513          	addi	x10,x10,4

# Testcase cp_rs1_edges (Test source rs1 value = 0x00000001)
  RVTEST_TESTDATA_LOAD_INT(x23, x16) # load rs1: x16 = 0x00000001
     9a0:	000ba803          	lw	x16,0(x23)
     9a4:	004b8b93          	addi	x23,x23,4

000009a8 <I_andi_cg_cp_rs1_edges_0x1>:
I_andi_cg_cp_rs1_edges_0x1:
  andi x14, x16, 1037 # perform operation
     9a8:	40d87713          	andi	x14,x16,1037
  # Check if x14 contains the expected result. x10 is the signature ptr, x5 is the link ptr, x4 is a temp reg.
  RVTEST_SIGUPD(x10, x5, x4, x14, I_andi_cg_cp_rs1_edges_0x1, I_andi_cg_cp_rs1_edges_0x1_str)
     9ac:	00052203          	lw	x4,0(x10)
     9b0:	00e20863          	beq	x4,x14,9c0 <I_andi_cg_cp_rs1_edges_0x1+0x18>
     9b4:	309022ef          	jal	x5,34bc <failedtest_x5_x4>
     9b8:	000009a8          	.word	0x000009a8
     9bc:	000092c9          	.word	0x000092c9
     9c0:	00450513          	addi	x10,x10,4

# Testcase cp_rs1_edges (Test source rs1 value = 0x00000002)
  RVTEST_TESTDATA_LOAD_INT(x23, x8) # load rs1: x8 = 0x00000002
     9c4:	000ba403          	lw	x8,0(x23)
     9c8:	004b8b93          	addi	x23,x23,4

000009cc <I_andi_cg_cp_rs1_edges_0x2>:
I_andi_cg_cp_rs1_edges_0x2:
  andi x3, x8, -530 # perform operation
     9cc:	dee47193          	andi	x3,x8,-530
  # Check if x3 contains the expected result. x10 is the signature ptr, x5 is the link ptr, x4 is a temp reg.
  RVTEST_SIGUPD(x10, x5, x4, x3, I_andi_cg_cp_rs1_edges_0x2, I_andi_cg_cp_rs1_edges_0x2_str)
     9d0:	00052203          	lw	x4,0(x10)
     9d4:	00320863          	beq	x4,x3,9e4 <I_andi_cg_cp_rs1_edges_0x2+0x18>
     9d8:	2e5022ef          	jal	x5,34bc <failedtest_x5_x4>
     9dc:	000009cc          	.word	0x000009cc
     9e0:	000092ff          	.word	0x000092ff
     9e4:	00450513          	addi	x10,x10,4

# Testcase cp_rs1_edges (Test source rs1 value = 0x80000000)
  RVTEST_TESTDATA_LOAD_INT(x23, x18) # load rs1: x18 = 0x80000000
     9e8:	000ba903          	lw	x18,0(x23)
     9ec:	004b8b93          	addi	x23,x23,4

000009f0 <I_andi_cg_cp_rs1_edges_0x80000000>:
I_andi_cg_cp_rs1_edges_0x80000000:
  andi x24, x18, 1330 # perform operation
     9f0:	53297c13          	andi	x24,x18,1330
  # Check if x24 contains the expected result. x10 is the signature ptr, x5 is the link ptr, x4 is a temp reg.
  RVTEST_SIGUPD(x10, x5, x4, x24, I_andi_cg_cp_rs1_edges_0x80000000, I_andi_cg_cp_rs1_edges_0x80000000_str)
     9f4:	00052203          	lw	x4,0(x10)
     9f8:	01820863          	beq	x4,x24,a08 <I_andi_cg_cp_rs1_edges_0x80000000+0x18>
     9fc:	2c1022ef          	jal	x5,34bc <failedtest_x5_x4>
     a00:	000009f0          	.word	0x000009f0
     a04:	00009335          	.word	0x00009335
     a08:	00450513          	addi	x10,x10,4

# Testcase cp_rs1_edges (Test source rs1 value = 0x80000001)
  RVTEST_TESTDATA_LOAD_INT(x23, x11) # load rs1: x11 = 0x80000001
     a0c:	000ba583          	lw	x11,0(x23)
     a10:	004b8b93          	addi	x23,x23,4

00000a14 <I_andi_cg_cp_rs1_edges_0x80000001>:
I_andi_cg_cp_rs1_edges_0x80000001:
  andi x27, x11, 685 # perform operation
     a14:	2ad5fd93          	andi	x27,x11,685
  # Check if x27 contains the expected result. x10 is the signature ptr, x5 is the link ptr, x4 is a temp reg.
  RVTEST_SIGUPD(x10, x5, x4, x27, I_andi_cg_cp_rs1_edges_0x80000001, I_andi_cg_cp_rs1_edges_0x80000001_str)
     a18:	00052203          	lw	x4,0(x10)
     a1c:	01b20863          	beq	x4,x27,a2c <I_andi_cg_cp_rs1_edges_0x80000001+0x18>
     a20:	29d022ef          	jal	x5,34bc <failedtest_x5_x4>
     a24:	00000a14          	.word	0x00000a14
     a28:	00009372          	.word	0x00009372
     a2c:	00450513          	addi	x10,x10,4

# Testcase cp_rs1_edges (Test source rs1 value = 0x7fffffff)
  RVTEST_TESTDATA_LOAD_INT(x23, x3) # load rs1: x3 = 0x7fffffff
     a30:	000ba183          	lw	x3,0(x23)
     a34:	004b8b93          	addi	x23,x23,4

00000a38 <I_andi_cg_cp_rs1_edges_0x7fffffff>:
I_andi_cg_cp_rs1_edges_0x7fffffff:
  andi x2, x3, 1547 # perform operation
     a38:	60b1f113          	andi	x2,x3,1547
  # Check if x2 contains the expected result. x10 is the signature ptr, x5 is the link ptr, x4 is a temp reg.
  RVTEST_SIGUPD(x10, x5, x4, x2, I_andi_cg_cp_rs1_edges_0x7fffffff, I_andi_cg_cp_rs1_edges_0x7fffffff_str)
     a3c:	00052203          	lw	x4,0(x10)
     a40:	00220863          	beq	x4,x2,a50 <I_andi_cg_cp_rs1_edges_0x7fffffff+0x18>
     a44:	279022ef          	jal	x5,34bc <failedtest_x5_x4>
     a48:	00000a38          	.word	0x00000a38
     a4c:	000093af          	.word	0x000093af
     a50:	00450513          	addi	x10,x10,4

# Testcase cp_rs1_edges (Test source rs1 value = 0x7ffffffe)
  RVTEST_TESTDATA_LOAD_INT(x23, x28) # load rs1: x28 = 0x7ffffffe
     a54:	000bae03          	lw	x28,0(x23)
     a58:	004b8b93          	addi	x23,x23,4

00000a5c <I_andi_cg_cp_rs1_edges_0x7ffffffe>:
I_andi_cg_cp_rs1_edges_0x7ffffffe:
  andi x25, x28, 259 # perform operation
     a5c:	103e7c93          	andi	x25,x28,259
  # Check if x25 contains the expected result. x10 is the signature ptr, x5 is the link ptr, x4 is a temp reg.
  RVTEST_SIGUPD(x10, x5, x4, x25, I_andi_cg_cp_rs1_edges_0x7ffffffe, I_andi_cg_cp_rs1_edges_0x7ffffffe_str)
     a60:	00052203          	lw	x4,0(x10)
     a64:	01920863          	beq	x4,x25,a74 <I_andi_cg_cp_rs1_edges_0x7ffffffe+0x18>
     a68:	255022ef          	jal	x5,34bc <failedtest_x5_x4>
     a6c:	00000a5c          	.word	0x00000a5c
     a70:	000093ec          	.word	0x000093ec
     a74:	00450513          	addi	x10,x10,4

# Testcase cp_rs1_edges (Test source rs1 value = 0xffffffff)
  RVTEST_TESTDATA_LOAD_INT(x23, x12) # load rs1: x12 = 0xffffffff
     a78:	000ba603          	lw	x12,0(x23)
     a7c:	004b8b93          	addi	x23,x23,4

00000a80 <I_andi_cg_cp_rs1_edges_0xffffffff>:
I_andi_cg_cp_rs1_edges_0xffffffff:
  andi x26, x12, 1098 # perform operation
     a80:	44a67d13          	andi	x26,x12,1098
  # Check if x26 contains the expected result. x10 is the signature ptr, x5 is the link ptr, x4 is a temp reg.
  RVTEST_SIGUPD(x10, x5, x4, x26, I_andi_cg_cp_rs1_edges_0xffffffff, I_andi_cg_cp_rs1_edges_0xffffffff_str)
     a84:	00052203          	lw	x4,0(x10)
     a88:	01a20863          	beq	x4,x26,a98 <I_andi_cg_cp_rs1_edges_0xffffffff+0x18>
     a8c:	231022ef          	jal	x5,34bc <failedtest_x5_x4>
     a90:	00000a80          	.word	0x00000a80
     a94:	00009429          	.word	0x00009429
     a98:	00450513          	addi	x10,x10,4

# Testcase cp_rs1_edges (Test source rs1 value = 0xfffffffe)
  RVTEST_TESTDATA_LOAD_INT(x23, x12) # load rs1: x12 = 0xfffffffe
     a9c:	000ba603          	lw	x12,0(x23)
     aa0:	004b8b93          	addi	x23,x23,4

00000aa4 <I_andi_cg_cp_rs1_edges_0xfffffffe>:
I_andi_cg_cp_rs1_edges_0xfffffffe:
  andi x6, x12, 39 # perform operation
     aa4:	02767313          	andi	x6,x12,39
  # Check if x6 contains the expected result. x10 is the signature ptr, x5 is the link ptr, x4 is a temp reg.
  RVTEST_SIGUPD(x10, x5, x4, x6, I_andi_cg_cp_rs1_edges_0xfffffffe, I_andi_cg_cp_rs1_edges_0xfffffffe_str)
     aa8:	00052203          	lw	x4,0(x10)
     aac:	00620863          	beq	x4,x6,abc <I_andi_cg_cp_rs1_edges_0xfffffffe+0x18>
     ab0:	20d022ef          	jal	x5,34bc <failedtest_x5_x4>
     ab4:	00000aa4          	.word	0x00000aa4
     ab8:	00009466          	.word	0x00009466
     abc:	00450513          	addi	x10,x10,4

# Testcase cp_rs1_edges (Test source rs1 value = 0x5bbc8872)
  RVTEST_TESTDATA_LOAD_INT(x23, x20) # load rs1: x20 = 0x5bbc8872
     ac0:	000baa03          	lw	x20,0(x23)
     ac4:	004b8b93          	addi	x23,x23,4

00000ac8 <I_andi_cg_cp_rs1_edges_0x5bbc8872>:
I_andi_cg_cp_rs1_edges_0x5bbc8872:
  andi x18, x20, -950 # perform operation
     ac8:	c4aa7913          	andi	x18,x20,-950
  # Check if x18 contains the expected result. x10 is the signature ptr, x5 is the link ptr, x4 is a temp reg.
  RVTEST_SIGUPD(x10, x5, x4, x18, I_andi_cg_cp_rs1_edges_0x5bbc8872, I_andi_cg_cp_rs1_edges_0x5bbc8872_str)
     acc:	00052203          	lw	x4,0(x10)
     ad0:	01220863          	beq	x4,x18,ae0 <I_andi_cg_cp_rs1_edges_0x5bbc8872+0x18>
     ad4:	1e9022ef          	jal	x5,34bc <failedtest_x5_x4>
     ad8:	00000ac8          	.word	0x00000ac8
     adc:	000094a3          	.word	0x000094a3
     ae0:	00450513          	addi	x10,x10,4

# Testcase cp_rs1_edges (Test source rs1 value = 0xaaaaaaaa)
  RVTEST_TESTDATA_LOAD_INT(x23, x30) # load rs1: x30 = 0xaaaaaaaa
     ae4:	000baf03          	lw	x30,0(x23)
     ae8:	004b8b93          	addi	x23,x23,4

00000aec <I_andi_cg_cp_rs1_edges_0xaaaaaaaa>:
I_andi_cg_cp_rs1_edges_0xaaaaaaaa:
  andi x27, x30, 573 # perform operation
     aec:	23df7d93          	andi	x27,x30,573
  # Check if x27 contains the expected result. x10 is the signature ptr, x5 is the link ptr, x4 is a temp reg.
  RVTEST_SIGUPD(x10, x5, x4, x27, I_andi_cg_cp_rs1_edges_0xaaaaaaaa, I_andi_cg_cp_rs1_edges_0xaaaaaaaa_str)
     af0:	00052203          	lw	x4,0(x10)
     af4:	01b20863          	beq	x4,x27,b04 <I_andi_cg_cp_rs1_edges_0xaaaaaaaa+0x18>
     af8:	1c5022ef          	jal	x5,34bc <failedtest_x5_x4>
     afc:	00000aec          	.word	0x00000aec
     b00:	000094e0          	.word	0x000094e0
     b04:	00450513          	addi	x10,x10,4

# Testcase cp_rs1_edges (Test source rs1 value = 0x55555555)
  RVTEST_TESTDATA_LOAD_INT(x23, x28) # load rs1: x28 = 0x55555555
     b08:	000bae03          	lw	x28,0(x23)
     b0c:	004b8b93          	addi	x23,x23,4

00000b10 <I_andi_cg_cp_rs1_edges_0x55555555>:
I_andi_cg_cp_rs1_edges_0x55555555:
  andi x17, x28, 1270 # perform operation
     b10:	4f6e7893          	andi	x17,x28,1270
  # Check if x17 contains the expected result. x10 is the signature ptr, x5 is the link ptr, x4 is a temp reg.
  RVTEST_SIGUPD(x10, x5, x4, x17, I_andi_cg_cp_rs1_edges_0x55555555, I_andi_cg_cp_rs1_edges_0x55555555_str)
     b14:	00052203          	lw	x4,0(x10)
     b18:	01120863          	beq	x4,x17,b28 <I_andi_cg_cp_rs1_edges_0x55555555+0x18>
     b1c:	1a1022ef          	jal	x5,34bc <failedtest_x5_x4>
     b20:	00000b10          	.word	0x00000b10
     b24:	0000951d          	.word	0x0000951d
     b28:	00450513          	addi	x10,x10,4
/////////////////////////////////
// cr_rs1_imm_edges
/////////////////////////////////

# Testcase cr_rs1_imm_edges (rs1 = 0x00000000, imm = 0)
  RVTEST_TESTDATA_LOAD_INT(x23, x20) # load rs1: x20 = 0x00000000
     b2c:	000baa03          	lw	x20,0(x23)
     b30:	004b8b93          	addi	x23,x23,4

00000b34 <I_andi_cg_cr_rs1_imm_edges_rs1val_0x0_immval_0x0>:
I_andi_cg_cr_rs1_imm_edges_rs1val_0x0_immval_0x0:
  andi x11, x20, 0 # perform operation
     b34:	000a7593          	andi	x11,x20,0
  # Check if x11 contains the expected result. x10 is the signature ptr, x5 is the link ptr, x4 is a temp reg.
  RVTEST_SIGUPD(x10, x5, x4, x11, I_andi_cg_cr_rs1_imm_edges_rs1val_0x0_immval_0x0, I_andi_cg_cr_rs1_imm_edges_rs1val_0x0_immval_0x0_str)
     b38:	00052203          	lw	x4,0(x10)
     b3c:	00b20863          	beq	x4,x11,b4c <I_andi_cg_cr_rs1_imm_edges_rs1val_0x0_immval_0x0+0x18>
     b40:	17d022ef          	jal	x5,34bc <failedtest_x5_x4>
     b44:	00000b34          	.word	0x00000b34
     b48:	0000955a          	.word	0x0000955a
     b4c:	00450513          	addi	x10,x10,4

# Testcase cr_rs1_imm_edges (rs1 = 0x00000000, imm = 1)
  RVTEST_TESTDATA_LOAD_INT(x23, x19) # load rs1: x19 = 0x00000000
     b50:	000ba983          	lw	x19,0(x23)
     b54:	004b8b93          	addi	x23,x23,4

00000b58 <I_andi_cg_cr_rs1_imm_edges_rs1val_0x0_immval_0x1>:
I_andi_cg_cr_rs1_imm_edges_rs1val_0x0_immval_0x1:
  andi x22, x19, 1 # perform operation
     b58:	0019fb13          	andi	x22,x19,1
  # Check if x22 contains the expected result. x10 is the signature ptr, x5 is the link ptr, x4 is a temp reg.
  RVTEST_SIGUPD(x10, x5, x4, x22, I_andi_cg_cr_rs1_imm_edges_rs1val_0x0_immval_0x1, I_andi_cg_cr_rs1_imm_edges_rs1val_0x0_immval_0x1_str)
     b5c:	00052203          	lw	x4,0(x10)
     b60:	01620863          	beq	x4,x22,b70 <I_andi_cg_cr_rs1_imm_edges_rs1val_0x0_immval_0x1+0x18>
     b64:	159022ef          	jal	x5,34bc <failedtest_x5_x4>
     b68:	00000b58          	.word	0x00000b58
     b6c:	000095a7          	.word	0x000095a7
     b70:	00450513          	addi	x10,x10,4

# Testcase cr_rs1_imm_edges (rs1 = 0x00000000, imm = 2)
  RVTEST_TESTDATA_LOAD_INT(x23, x13) # load rs1: x13 = 0x00000000
     b74:	000ba683          	lw	x13,0(x23)
     b78:	004b8b93          	addi	x23,x23,4

00000b7c <I_andi_cg_cr_rs1_imm_edges_rs1val_0x0_immval_0x2>:
I_andi_cg_cr_rs1_imm_edges_rs1val_0x0_immval_0x2:
  andi x24, x13, 2 # perform operation
     b7c:	0026fc13          	andi	x24,x13,2
  # Check if x24 contains the expected result. x10 is the signature ptr, x5 is the link ptr, x4 is a temp reg.
  RVTEST_SIGUPD(x10, x5, x4, x24, I_andi_cg_cr_rs1_imm_edges_rs1val_0x0_immval_0x2, I_andi_cg_cr_rs1_imm_edges_rs1val_0x0_immval_0x2_str)
     b80:	00052203          	lw	x4,0(x10)
     b84:	01820863          	beq	x4,x24,b94 <I_andi_cg_cr_rs1_imm_edges_rs1val_0x0_immval_0x2+0x18>
     b88:	135022ef          	jal	x5,34bc <failedtest_x5_x4>
     b8c:	00000b7c          	.word	0x00000b7c
     b90:	000095f4          	.word	0x000095f4
     b94:	00450513          	addi	x10,x10,4

# Testcase cr_rs1_imm_edges (rs1 = 0x00000000, imm = 3)
  RVTEST_TESTDATA_LOAD_INT(x23, x6) # load rs1: x6 = 0x00000000
     b98:	000ba303          	lw	x6,0(x23)
     b9c:	004b8b93          	addi	x23,x23,4

00000ba0 <I_andi_cg_cr_rs1_imm_edges_rs1val_0x0_immval_0x3>:
I_andi_cg_cr_rs1_imm_edges_rs1val_0x0_immval_0x3:
  andi x31, x6, 3 # perform operation
     ba0:	00337f93          	andi	x31,x6,3
  # Check if x31 contains the expected result. x10 is the signature ptr, x5 is the link ptr, x4 is a temp reg.
  RVTEST_SIGUPD(x10, x5, x4, x31, I_andi_cg_cr_rs1_imm_edges_rs1val_0x0_immval_0x3, I_andi_cg_cr_rs1_imm_edges_rs1val_0x0_immval_0x3_str)
     ba4:	00052203          	lw	x4,0(x10)
     ba8:	01f20863          	beq	x4,x31,bb8 <I_andi_cg_cr_rs1_imm_edges_rs1val_0x0_immval_0x3+0x18>
     bac:	111022ef          	jal	x5,34bc <failedtest_x5_x4>
     bb0:	00000ba0          	.word	0x00000ba0
     bb4:	00009641          	.word	0x00009641
     bb8:	00450513          	addi	x10,x10,4

# Testcase cr_rs1_imm_edges (rs1 = 0x00000000, imm = 4)
  RVTEST_TESTDATA_LOAD_INT(x23, x28) # load rs1: x28 = 0x00000000
     bbc:	000bae03          	lw	x28,0(x23)
     bc0:	004b8b93          	addi	x23,x23,4

00000bc4 <I_andi_cg_cr_rs1_imm_edges_rs1val_0x0_immval_0x4>:
I_andi_cg_cr_rs1_imm_edges_rs1val_0x0_immval_0x4:
  andi x17, x28, 4 # perform operation
     bc4:	004e7893          	andi	x17,x28,4
  # Check if x17 contains the expected result. x10 is the signature ptr, x5 is the link ptr, x4 is a temp reg.
  RVTEST_SIGUPD(x10, x5, x4, x17, I_andi_cg_cr_rs1_imm_edges_rs1val_0x0_immval_0x4, I_andi_cg_cr_rs1_imm_edges_rs1val_0x0_immval_0x4_str)
     bc8:	00052203          	lw	x4,0(x10)
     bcc:	01120863          	beq	x4,x17,bdc <I_andi_cg_cr_rs1_imm_edges_rs1val_0x0_immval_0x4+0x18>
     bd0:	0ed022ef          	jal	x5,34bc <failedtest_x5_x4>
     bd4:	00000bc4          	.word	0x00000bc4
     bd8:	0000968e          	.word	0x0000968e
     bdc:	00450513          	addi	x10,x10,4

# Testcase cr_rs1_imm_edges (rs1 = 0x00000000, imm = 8)
  RVTEST_TESTDATA_LOAD_INT(x23, x1) # load rs1: x1 = 0x00000000
     be0:	000ba083          	lw	x1,0(x23)
     be4:	004b8b93          	addi	x23,x23,4

00000be8 <I_andi_cg_cr_rs1_imm_edges_rs1val_0x0_immval_0x8>:
I_andi_cg_cr_rs1_imm_edges_rs1val_0x0_immval_0x8:
  andi x13, x1, 8 # perform operation
     be8:	0080f693          	andi	x13,x1,8
  # Check if x13 contains the expected result. x10 is the signature ptr, x5 is the link ptr, x4 is a temp reg.
  RVTEST_SIGUPD(x10, x5, x4, x13, I_andi_cg_cr_rs1_imm_edges_rs1val_0x0_immval_0x8, I_andi_cg_cr_rs1_imm_edges_rs1val_0x0_immval_0x8_str)
     bec:	00052203          	lw	x4,0(x10)
     bf0:	00d20863          	beq	x4,x13,c00 <I_andi_cg_cr_rs1_imm_edges_rs1val_0x0_immval_0x8+0x18>
     bf4:	0c9022ef          	jal	x5,34bc <failedtest_x5_x4>
     bf8:	00000be8          	.word	0x00000be8
     bfc:	000096db          	.word	0x000096db
     c00:	00450513          	addi	x10,x10,4

# Testcase cr_rs1_imm_edges (rs1 = 0x00000000, imm = 16)
  RVTEST_TESTDATA_LOAD_INT(x23, x11) # load rs1: x11 = 0x00000000
     c04:	000ba583          	lw	x11,0(x23)
     c08:	004b8b93          	addi	x23,x23,4

00000c0c <I_andi_cg_cr_rs1_imm_edges_rs1val_0x0_immval_0x10>:
I_andi_cg_cr_rs1_imm_edges_rs1val_0x0_immval_0x10:
  andi x28, x11, 16 # perform operation
     c0c:	0105fe13          	andi	x28,x11,16
  # Check if x28 contains the expected result. x10 is the signature ptr, x5 is the link ptr, x4 is a temp reg.
  RVTEST_SIGUPD(x10, x5, x4, x28, I_andi_cg_cr_rs1_imm_edges_rs1val_0x0_immval_0x10, I_andi_cg_cr_rs1_imm_edges_rs1val_0x0_immval_0x10_str)
     c10:	00052203          	lw	x4,0(x10)
     c14:	01c20863          	beq	x4,x28,c24 <I_andi_cg_cr_rs1_imm_edges_rs1val_0x0_immval_0x10+0x18>
     c18:	0a5022ef          	jal	x5,34bc <failedtest_x5_x4>
     c1c:	00000c0c          	.word	0x00000c0c
     c20:	00009728          	.word	0x00009728
     c24:	00450513          	addi	x10,x10,4

# Testcase cr_rs1_imm_edges (rs1 = 0x00000000, imm = 32)
  RVTEST_TESTDATA_LOAD_INT(x23, x27) # load rs1: x27 = 0x00000000
     c28:	000bad83          	lw	x27,0(x23)
     c2c:	004b8b93          	addi	x23,x23,4

00000c30 <I_andi_cg_cr_rs1_imm_edges_rs1val_0x0_immval_0x20>:
I_andi_cg_cr_rs1_imm_edges_rs1val_0x0_immval_0x20:
  andi x22, x27, 32 # perform operation
     c30:	020dfb13          	andi	x22,x27,32
  # Check if x22 contains the expected result. x10 is the signature ptr, x5 is the link ptr, x4 is a temp reg.
  RVTEST_SIGUPD(x10, x5, x4, x22, I_andi_cg_cr_rs1_imm_edges_rs1val_0x0_immval_0x20, I_andi_cg_cr_rs1_imm_edges_rs1val_0x0_immval_0x20_str)
     c34:	00052203          	lw	x4,0(x10)
     c38:	01620863          	beq	x4,x22,c48 <I_andi_cg_cr_rs1_imm_edges_rs1val_0x0_immval_0x20+0x18>
     c3c:	081022ef          	jal	x5,34bc <failedtest_x5_x4>
     c40:	00000c30          	.word	0x00000c30
     c44:	00009776          	.word	0x00009776
     c48:	00450513          	addi	x10,x10,4

# Testcase cr_rs1_imm_edges (rs1 = 0x00000000, imm = 64)
  RVTEST_TESTDATA_LOAD_INT(x23, x16) # load rs1: x16 = 0x00000000
     c4c:	000ba803          	lw	x16,0(x23)
     c50:	004b8b93          	addi	x23,x23,4

00000c54 <I_andi_cg_cr_rs1_imm_edges_rs1val_0x0_immval_0x40>:
I_andi_cg_cr_rs1_imm_edges_rs1val_0x0_immval_0x40:
  andi x24, x16, 64 # perform operation
     c54:	04087c13          	andi	x24,x16,64
  # Check if x24 contains the expected result. x10 is the signature ptr, x5 is the link ptr, x4 is a temp reg.
  RVTEST_SIGUPD(x10, x5, x4, x24, I_andi_cg_cr_rs1_imm_edges_rs1val_0x0_immval_0x40, I_andi_cg_cr_rs1_imm_edges_rs1val_0x0_immval_0x40_str)
     c58:	00052203          	lw	x4,0(x10)
     c5c:	01820863          	beq	x4,x24,c6c <I_andi_cg_cr_rs1_imm_edges_rs1val_0x0_immval_0x40+0x18>
     c60:	05d022ef          	jal	x5,34bc <failedtest_x5_x4>
     c64:	00000c54          	.word	0x00000c54
     c68:	000097c4          	.word	0x000097c4
     c6c:	00450513          	addi	x10,x10,4

# Testcase cr_rs1_imm_edges (rs1 = 0x00000000, imm = 128)
  RVTEST_TESTDATA_LOAD_INT(x23, x30) # load rs1: x30 = 0x00000000
     c70:	000baf03          	lw	x30,0(x23)
     c74:	004b8b93          	addi	x23,x23,4

00000c78 <I_andi_cg_cr_rs1_imm_edges_rs1val_0x0_immval_0x80>:
I_andi_cg_cr_rs1_imm_edges_rs1val_0x0_immval_0x80:
  andi x25, x30, 128 # perform operation
     c78:	080f7c93          	andi	x25,x30,128
  # Check if x25 contains the expected result. x10 is the signature ptr, x5 is the link ptr, x4 is a temp reg.
  RVTEST_SIGUPD(x10, x5, x4, x25, I_andi_cg_cr_rs1_imm_edges_rs1val_0x0_immval_0x80, I_andi_cg_cr_rs1_imm_edges_rs1val_0x0_immval_0x80_str)
     c7c:	00052203          	lw	x4,0(x10)
     c80:	01920863          	beq	x4,x25,c90 <I_andi_cg_cr_rs1_imm_edges_rs1val_0x0_immval_0x80+0x18>
     c84:	039022ef          	jal	x5,34bc <failedtest_x5_x4>
     c88:	00000c78          	.word	0x00000c78
     c8c:	00009812          	.word	0x00009812
     c90:	00450513          	addi	x10,x10,4

# Testcase cr_rs1_imm_edges (rs1 = 0x00000000, imm = 256)
  RVTEST_TESTDATA_LOAD_INT(x23, x18) # load rs1: x18 = 0x00000000
     c94:	000ba903          	lw	x18,0(x23)
     c98:	004b8b93          	addi	x23,x23,4

00000c9c <I_andi_cg_cr_rs1_imm_edges_rs1val_0x0_immval_0x100>:
I_andi_cg_cr_rs1_imm_edges_rs1val_0x0_immval_0x100:
  andi x30, x18, 256 # perform operation
     c9c:	10097f13          	andi	x30,x18,256
  # Check if x30 contains the expected result. x10 is the signature ptr, x5 is the link ptr, x4 is a temp reg.
  RVTEST_SIGUPD(x10, x5, x4, x30, I_andi_cg_cr_rs1_imm_edges_rs1val_0x0_immval_0x100, I_andi_cg_cr_rs1_imm_edges_rs1val_0x0_immval_0x100_str)
     ca0:	00052203          	lw	x4,0(x10)
     ca4:	01e20863          	beq	x4,x30,cb4 <I_andi_cg_cr_rs1_imm_edges_rs1val_0x0_immval_0x100+0x18>
     ca8:	015022ef          	jal	x5,34bc <failedtest_x5_x4>
     cac:	00000c9c          	.word	0x00000c9c
     cb0:	00009860          	.word	0x00009860
     cb4:	00450513          	addi	x10,x10,4

# Testcase cr_rs1_imm_edges (rs1 = 0x00000000, imm = 512)
  RVTEST_TESTDATA_LOAD_INT(x23, x28) # load rs1: x28 = 0x00000000
     cb8:	000bae03          	lw	x28,0(x23)
     cbc:	004b8b93          	addi	x23,x23,4

00000cc0 <I_andi_cg_cr_rs1_imm_edges_rs1val_0x0_immval_0x200>:
I_andi_cg_cr_rs1_imm_edges_rs1val_0x0_immval_0x200:
  andi x30, x28, 512 # perform operation
     cc0:	200e7f13          	andi	x30,x28,512
  # Check if x30 contains the expected result. x10 is the signature ptr, x5 is the link ptr, x4 is a temp reg.
  RVTEST_SIGUPD(x10, x5, x4, x30, I_andi_cg_cr_rs1_imm_edges_rs1val_0x0_immval_0x200, I_andi_cg_cr_rs1_imm_edges_rs1val_0x0_immval_0x200_str)
     cc4:	00052203          	lw	x4,0(x10)
     cc8:	01e20863          	beq	x4,x30,cd8 <I_andi_cg_cr_rs1_imm_edges_rs1val_0x0_immval_0x200+0x18>
     ccc:	7f0022ef          	jal	x5,34bc <failedtest_x5_x4>
     cd0:	00000cc0          	.word	0x00000cc0
     cd4:	000098af          	.word	0x000098af
     cd8:	00450513          	addi	x10,x10,4

# Testcase cr_rs1_imm_edges (rs1 = 0x00000000, imm = 1023)
  RVTEST_TESTDATA_LOAD_INT(x23, x20) # load rs1: x20 = 0x00000000
     cdc:	000baa03          	lw	x20,0(x23)
     ce0:	004b8b93          	addi	x23,x23,4

00000ce4 <I_andi_cg_cr_rs1_imm_edges_rs1val_0x0_immval_0x3ff>:
I_andi_cg_cr_rs1_imm_edges_rs1val_0x0_immval_0x3ff:
  andi x31, x20, 1023 # perform operation
     ce4:	3ffa7f93          	andi	x31,x20,1023
  # Check if x31 contains the expected result. x10 is the signature ptr, x5 is the link ptr, x4 is a temp reg.
  RVTEST_SIGUPD(x10, x5, x4, x31, I_andi_cg_cr_rs1_imm_edges_rs1val_0x0_immval_0x3ff, I_andi_cg_cr_rs1_imm_edges_rs1val_0x0_immval_0x3ff_str)
     ce8:	00052203          	lw	x4,0(x10)
     cec:	01f20863          	beq	x4,x31,cfc <I_andi_cg_cr_rs1_imm_edges_rs1val_0x0_immval_0x3ff+0x18>
     cf0:	7cc022ef          	jal	x5,34bc <failedtest_x5_x4>
     cf4:	00000ce4          	.word	0x00000ce4
     cf8:	000098fe          	.word	0x000098fe
     cfc:	00450513          	addi	x10,x10,4

# Testcase cr_rs1_imm_edges (rs1 = 0x00000000, imm = 1024)
  RVTEST_TESTDATA_LOAD_INT(x23, x30) # load rs1: x30 = 0x00000000
     d00:	000baf03          	lw	x30,0(x23)
     d04:	004b8b93          	addi	x23,x23,4

00000d08 <I_andi_cg_cr_rs1_imm_edges_rs1val_0x0_immval_0x400>:
I_andi_cg_cr_rs1_imm_edges_rs1val_0x0_immval_0x400:
  andi x25, x30, 1024 # perform operation
     d08:	400f7c93          	andi	x25,x30,1024
  # Check if x25 contains the expected result. x10 is the signature ptr, x5 is the link ptr, x4 is a temp reg.
  RVTEST_SIGUPD(x10, x5, x4, x25, I_andi_cg_cr_rs1_imm_edges_rs1val_0x0_immval_0x400, I_andi_cg_cr_rs1_imm_edges_rs1val_0x0_immval_0x400_str)
     d0c:	00052203          	lw	x4,0(x10)
     d10:	01920863          	beq	x4,x25,d20 <I_andi_cg_cr_rs1_imm_edges_rs1val_0x0_immval_0x400+0x18>
     d14:	7a8022ef          	jal	x5,34bc <failedtest_x5_x4>
     d18:	00000d08          	.word	0x00000d08
     d1c:	0000994d          	.word	0x0000994d
     d20:	00450513          	addi	x10,x10,4

# Testcase cr_rs1_imm_edges (rs1 = 0x00000000, imm = 1795)
  RVTEST_TESTDATA_LOAD_INT(x23, x3) # load rs1: x3 = 0x00000000
     d24:	000ba183          	lw	x3,0(x23)
     d28:	004b8b93          	addi	x23,x23,4

00000d2c <I_andi_cg_cr_rs1_imm_edges_rs1val_0x0_immval_0x703>:
I_andi_cg_cr_rs1_imm_edges_rs1val_0x0_immval_0x703:
  andi x30, x3, 1795 # perform operation
     d2c:	7031ff13          	andi	x30,x3,1795
  # Check if x30 contains the expected result. x10 is the signature ptr, x5 is the link ptr, x4 is a temp reg.
  RVTEST_SIGUPD(x10, x5, x4, x30, I_andi_cg_cr_rs1_imm_edges_rs1val_0x0_immval_0x703, I_andi_cg_cr_rs1_imm_edges_rs1val_0x0_immval_0x703_str)
     d30:	00052203          	lw	x4,0(x10)
     d34:	01e20863          	beq	x4,x30,d44 <I_andi_cg_cr_rs1_imm_edges_rs1val_0x0_immval_0x703+0x18>
     d38:	784022ef          	jal	x5,34bc <failedtest_x5_x4>
     d3c:	00000d2c          	.word	0x00000d2c
     d40:	0000999c          	.word	0x0000999c
     d44:	00450513          	addi	x10,x10,4

# Testcase cr_rs1_imm_edges (rs1 = 0x00000000, imm = 2047)
  RVTEST_TESTDATA_LOAD_INT(x23, x28) # load rs1: x28 = 0x00000000
     d48:	000bae03          	lw	x28,0(x23)
     d4c:	004b8b93          	addi	x23,x23,4

00000d50 <I_andi_cg_cr_rs1_imm_edges_rs1val_0x0_immval_0x7ff>:
I_andi_cg_cr_rs1_imm_edges_rs1val_0x0_immval_0x7ff:
  andi x7, x28, 2047 # perform operation
     d50:	7ffe7393          	andi	x7,x28,2047
  # Check if x7 contains the expected result. x10 is the signature ptr, x5 is the link ptr, x4 is a temp reg.
  RVTEST_SIGUPD(x10, x5, x4, x7, I_andi_cg_cr_rs1_imm_edges_rs1val_0x0_immval_0x7ff, I_andi_cg_cr_rs1_imm_edges_rs1val_0x0_immval_0x7ff_str)
     d54:	00052203          	lw	x4,0(x10)
     d58:	00720863          	beq	x4,x7,d68 <I_andi_cg_cr_rs1_imm_edges_rs1val_0x0_immval_0x7ff+0x18>
     d5c:	760022ef          	jal	x5,34bc <failedtest_x5_x4>
     d60:	00000d50          	.word	0x00000d50
     d64:	000099eb          	.word	0x000099eb
     d68:	00450513          	addi	x10,x10,4

# Testcase cr_rs1_imm_edges (rs1 = 0x00000000, imm = -2048)
  RVTEST_TESTDATA_LOAD_INT(x23, x31) # load rs1: x31 = 0x00000000
     d6c:	000baf83          	lw	x31,0(x23)
     d70:	004b8b93          	addi	x23,x23,4

00000d74 <I_andi_cg_cr_rs1_imm_edges_rs1val_0x0_immval_m0x800>:
I_andi_cg_cr_rs1_imm_edges_rs1val_0x0_immval_m0x800:
  andi x19, x31, -2048 # perform operation
     d74:	800ff993          	andi	x19,x31,-2048
  # Check if x19 contains the expected result. x10 is the signature ptr, x5 is the link ptr, x4 is a temp reg.
  RVTEST_SIGUPD(x10, x5, x4, x19, I_andi_cg_cr_rs1_imm_edges_rs1val_0x0_immval_m0x800, I_andi_cg_cr_rs1_imm_edges_rs1val_0x0_immval_m0x800_str)
     d78:	00052203          	lw	x4,0(x10)
     d7c:	01320863          	beq	x4,x19,d8c <I_andi_cg_cr_rs1_imm_edges_rs1val_0x0_immval_m0x800+0x18>
     d80:	73c022ef          	jal	x5,34bc <failedtest_x5_x4>
     d84:	00000d74          	.word	0x00000d74
     d88:	00009a3a          	.word	0x00009a3a
     d8c:	00450513          	addi	x10,x10,4

# Testcase cr_rs1_imm_edges (rs1 = 0x00000000, imm = -2047)
  RVTEST_TESTDATA_LOAD_INT(x23, x15) # load rs1: x15 = 0x00000000
     d90:	000ba783          	lw	x15,0(x23)
     d94:	004b8b93          	addi	x23,x23,4

00000d98 <I_andi_cg_cr_rs1_imm_edges_rs1val_0x0_immval_m0x7ff>:
I_andi_cg_cr_rs1_imm_edges_rs1val_0x0_immval_m0x7ff:
  andi x3, x15, -2047 # perform operation
     d98:	8017f193          	andi	x3,x15,-2047
  # Check if x3 contains the expected result. x10 is the signature ptr, x5 is the link ptr, x4 is a temp reg.
  RVTEST_SIGUPD(x10, x5, x4, x3, I_andi_cg_cr_rs1_imm_edges_rs1val_0x0_immval_m0x7ff, I_andi_cg_cr_rs1_imm_edges_rs1val_0x0_immval_m0x7ff_str)
     d9c:	00052203          	lw	x4,0(x10)
     da0:	00320863          	beq	x4,x3,db0 <I_andi_cg_cr_rs1_imm_edges_rs1val_0x0_immval_m0x7ff+0x18>
     da4:	718022ef          	jal	x5,34bc <failedtest_x5_x4>
     da8:	00000d98          	.word	0x00000d98
     dac:	00009a8a          	.word	0x00009a8a
     db0:	00450513          	addi	x10,x10,4

# Testcase cr_rs1_imm_edges (rs1 = 0x00000000, imm = -2)
  RVTEST_TESTDATA_LOAD_INT(x23, x19) # load rs1: x19 = 0x00000000
     db4:	000ba983          	lw	x19,0(x23)
     db8:	004b8b93          	addi	x23,x23,4

00000dbc <I_andi_cg_cr_rs1_imm_edges_rs1val_0x0_immval_m0x2>:
I_andi_cg_cr_rs1_imm_edges_rs1val_0x0_immval_m0x2:
  andi x12, x19, -2 # perform operation
     dbc:	ffe9f613          	andi	x12,x19,-2
  # Check if x12 contains the expected result. x10 is the signature ptr, x5 is the link ptr, x4 is a temp reg.
  RVTEST_SIGUPD(x10, x5, x4, x12, I_andi_cg_cr_rs1_imm_edges_rs1val_0x0_immval_m0x2, I_andi_cg_cr_rs1_imm_edges_rs1val_0x0_immval_m0x2_str)
     dc0:	00052203          	lw	x4,0(x10)
     dc4:	00c20863          	beq	x4,x12,dd4 <I_andi_cg_cr_rs1_imm_edges_rs1val_0x0_immval_m0x2+0x18>
     dc8:	6f4022ef          	jal	x5,34bc <failedtest_x5_x4>
     dcc:	00000dbc          	.word	0x00000dbc
     dd0:	00009ada          	.word	0x00009ada
     dd4:	00450513          	addi	x10,x10,4

# Testcase cr_rs1_imm_edges (rs1 = 0x00000000, imm = -1)
  RVTEST_TESTDATA_LOAD_INT(x23, x16) # load rs1: x16 = 0x00000000
     dd8:	000ba803          	lw	x16,0(x23)
     ddc:	004b8b93          	addi	x23,x23,4

00000de0 <I_andi_cg_cr_rs1_imm_edges_rs1val_0x0_immval_m0x1>:
I_andi_cg_cr_rs1_imm_edges_rs1val_0x0_immval_m0x1:
  andi x14, x16, -1 # perform operation
     de0:	fff87713          	andi	x14,x16,-1
  # Check if x14 contains the expected result. x10 is the signature ptr, x5 is the link ptr, x4 is a temp reg.
  RVTEST_SIGUPD(x10, x5, x4, x14, I_andi_cg_cr_rs1_imm_edges_rs1val_0x0_immval_m0x1, I_andi_cg_cr_rs1_imm_edges_rs1val_0x0_immval_m0x1_str)
     de4:	00052203          	lw	x4,0(x10)
     de8:	00e20863          	beq	x4,x14,df8 <I_andi_cg_cr_rs1_imm_edges_rs1val_0x0_immval_m0x1+0x18>
     dec:	6d0022ef          	jal	x5,34bc <failedtest_x5_x4>
     df0:	00000de0          	.word	0x00000de0
     df4:	00009b28          	.word	0x00009b28
     df8:	00450513          	addi	x10,x10,4

# Testcase cr_rs1_imm_edges (rs1 = 0x00000001, imm = 0)
  RVTEST_TESTDATA_LOAD_INT(x23, x17) # load rs1: x17 = 0x00000001
     dfc:	000ba883          	lw	x17,0(x23)
     e00:	004b8b93          	addi	x23,x23,4

00000e04 <I_andi_cg_cr_rs1_imm_edges_rs1val_0x1_immval_0x0>:
I_andi_cg_cr_rs1_imm_edges_rs1val_0x1_immval_0x0:
  andi x28, x17, 0 # perform operation
     e04:	0008fe13          	andi	x28,x17,0
  # Check if x28 contains the expected result. x10 is the signature ptr, x5 is the link ptr, x4 is a temp reg.
  RVTEST_SIGUPD(x10, x5, x4, x28, I_andi_cg_cr_rs1_imm_edges_rs1val_0x1_immval_0x0, I_andi_cg_cr_rs1_imm_edges_rs1val_0x1_immval_0x0_str)
     e08:	00052203          	lw	x4,0(x10)
     e0c:	01c20863          	beq	x4,x28,e1c <I_andi_cg_cr_rs1_imm_edges_rs1val_0x1_immval_0x0+0x18>
     e10:	6ac022ef          	jal	x5,34bc <failedtest_x5_x4>
     e14:	00000e04          	.word	0x00000e04
     e18:	00009b76          	.word	0x00009b76
     e1c:	00450513          	addi	x10,x10,4

# Testcase cr_rs1_imm_edges (rs1 = 0x00000001, imm = 1)
  RVTEST_TESTDATA_LOAD_INT(x23, x13) # load rs1: x13 = 0x00000001
     e20:	000ba683          	lw	x13,0(x23)
     e24:	004b8b93          	addi	x23,x23,4

00000e28 <I_andi_cg_cr_rs1_imm_edges_rs1val_0x1_immval_0x1>:
I_andi_cg_cr_rs1_imm_edges_rs1val_0x1_immval_0x1:
  andi x24, x13, 1 # perform operation
     e28:	0016fc13          	andi	x24,x13,1
  # Check if x24 contains the expected result. x10 is the signature ptr, x5 is the link ptr, x4 is a temp reg.
  RVTEST_SIGUPD(x10, x5, x4, x24, I_andi_cg_cr_rs1_imm_edges_rs1val_0x1_immval_0x1, I_andi_cg_cr_rs1_imm_edges_rs1val_0x1_immval_0x1_str)
     e2c:	00052203          	lw	x4,0(x10)
     e30:	01820863          	beq	x4,x24,e40 <I_andi_cg_cr_rs1_imm_edges_rs1val_0x1_immval_0x1+0x18>
     e34:	688022ef          	jal	x5,34bc <failedtest_x5_x4>
     e38:	00000e28          	.word	0x00000e28
     e3c:	00009bc3          	.word	0x00009bc3
     e40:	00450513          	addi	x10,x10,4

# Testcase cr_rs1_imm_edges (rs1 = 0x00000001, imm = 2)
  RVTEST_TESTDATA_LOAD_INT(x23, x26) # load rs1: x26 = 0x00000001
     e44:	000bad03          	lw	x26,0(x23)
     e48:	004b8b93          	addi	x23,x23,4

00000e4c <I_andi_cg_cr_rs1_imm_edges_rs1val_0x1_immval_0x2>:
I_andi_cg_cr_rs1_imm_edges_rs1val_0x1_immval_0x2:
  andi x20, x26, 2 # perform operation
     e4c:	002d7a13          	andi	x20,x26,2
  # Check if x20 contains the expected result. x10 is the signature ptr, x5 is the link ptr, x4 is a temp reg.
  RVTEST_SIGUPD(x10, x5, x4, x20, I_andi_cg_cr_rs1_imm_edges_rs1val_0x1_immval_0x2, I_andi_cg_cr_rs1_imm_edges_rs1val_0x1_immval_0x2_str)
     e50:	00052203          	lw	x4,0(x10)
     e54:	01420863          	beq	x4,x20,e64 <I_andi_cg_cr_rs1_imm_edges_rs1val_0x1_immval_0x2+0x18>
     e58:	664022ef          	jal	x5,34bc <failedtest_x5_x4>
     e5c:	00000e4c          	.word	0x00000e4c
     e60:	00009c10          	.word	0x00009c10
     e64:	00450513          	addi	x10,x10,4

# Testcase cr_rs1_imm_edges (rs1 = 0x00000001, imm = 3)
  RVTEST_TESTDATA_LOAD_INT(x23, x15) # load rs1: x15 = 0x00000001
     e68:	000ba783          	lw	x15,0(x23)
     e6c:	004b8b93          	addi	x23,x23,4

00000e70 <I_andi_cg_cr_rs1_imm_edges_rs1val_0x1_immval_0x3>:
I_andi_cg_cr_rs1_imm_edges_rs1val_0x1_immval_0x3:
  andi x22, x15, 3 # perform operation
     e70:	0037fb13          	andi	x22,x15,3
  # Check if x22 contains the expected result. x10 is the signature ptr, x5 is the link ptr, x4 is a temp reg.
  RVTEST_SIGUPD(x10, x5, x4, x22, I_andi_cg_cr_rs1_imm_edges_rs1val_0x1_immval_0x3, I_andi_cg_cr_rs1_imm_edges_rs1val_0x1_immval_0x3_str)
     e74:	00052203          	lw	x4,0(x10)
     e78:	01620863          	beq	x4,x22,e88 <I_andi_cg_cr_rs1_imm_edges_rs1val_0x1_immval_0x3+0x18>
     e7c:	640022ef          	jal	x5,34bc <failedtest_x5_x4>
     e80:	00000e70          	.word	0x00000e70
     e84:	00009c5d          	.word	0x00009c5d
     e88:	00450513          	addi	x10,x10,4

# Testcase cr_rs1_imm_edges (rs1 = 0x00000001, imm = 4)
  RVTEST_TESTDATA_LOAD_INT(x23, x13) # load rs1: x13 = 0x00000001
     e8c:	000ba683          	lw	x13,0(x23)
     e90:	004b8b93          	addi	x23,x23,4

00000e94 <I_andi_cg_cr_rs1_imm_edges_rs1val_0x1_immval_0x4>:
I_andi_cg_cr_rs1_imm_edges_rs1val_0x1_immval_0x4:
  andi x25, x13, 4 # perform operation
     e94:	0046fc93          	andi	x25,x13,4
  # Check if x25 contains the expected result. x10 is the signature ptr, x5 is the link ptr, x4 is a temp reg.
  RVTEST_SIGUPD(x10, x5, x4, x25, I_andi_cg_cr_rs1_imm_edges_rs1val_0x1_immval_0x4, I_andi_cg_cr_rs1_imm_edges_rs1val_0x1_immval_0x4_str)
     e98:	00052203          	lw	x4,0(x10)
     e9c:	01920863          	beq	x4,x25,eac <I_andi_cg_cr_rs1_imm_edges_rs1val_0x1_immval_0x4+0x18>
     ea0:	61c022ef          	jal	x5,34bc <failedtest_x5_x4>
     ea4:	00000e94          	.word	0x00000e94
     ea8:	00009cab          	.word	0x00009cab
     eac:	00450513          	addi	x10,x10,4

# Testcase cr_rs1_imm_edges (rs1 = 0x00000001, imm = 8)
  RVTEST_TESTDATA_LOAD_INT(x23, x14) # load rs1: x14 = 0x00000001
     eb0:	000ba703          	lw	x14,0(x23)
     eb4:	004b8b93          	addi	x23,x23,4

00000eb8 <I_andi_cg_cr_rs1_imm_edges_rs1val_0x1_immval_0x8>:
I_andi_cg_cr_rs1_imm_edges_rs1val_0x1_immval_0x8:
  andi x12, x14, 8 # perform operation
     eb8:	00877613          	andi	x12,x14,8
  # Check if x12 contains the expected result. x10 is the signature ptr, x5 is the link ptr, x4 is a temp reg.
  RVTEST_SIGUPD(x10, x5, x4, x12, I_andi_cg_cr_rs1_imm_edges_rs1val_0x1_immval_0x8, I_andi_cg_cr_rs1_imm_edges_rs1val_0x1_immval_0x8_str)
     ebc:	00052203          	lw	x4,0(x10)
     ec0:	00c20863          	beq	x4,x12,ed0 <I_andi_cg_cr_rs1_imm_edges_rs1val_0x1_immval_0x8+0x18>
     ec4:	5f8022ef          	jal	x5,34bc <failedtest_x5_x4>
     ec8:	00000eb8          	.word	0x00000eb8
     ecc:	00009cf9          	.word	0x00009cf9
     ed0:	00450513          	addi	x10,x10,4

# Testcase cr_rs1_imm_edges (rs1 = 0x00000001, imm = 16)
  RVTEST_TESTDATA_LOAD_INT(x23, x8) # load rs1: x8 = 0x00000001
     ed4:	000ba403          	lw	x8,0(x23)
     ed8:	004b8b93          	addi	x23,x23,4

00000edc <I_andi_cg_cr_rs1_imm_edges_rs1val_0x1_immval_0x10>:
I_andi_cg_cr_rs1_imm_edges_rs1val_0x1_immval_0x10:
  andi x9, x8, 16 # perform operation
     edc:	01047493          	andi	x9,x8,16
  # Check if x9 contains the expected result. x10 is the signature ptr, x5 is the link ptr, x4 is a temp reg.
  RVTEST_SIGUPD(x10, x5, x4, x9, I_andi_cg_cr_rs1_imm_edges_rs1val_0x1_immval_0x10, I_andi_cg_cr_rs1_imm_edges_rs1val_0x1_immval_0x10_str)
     ee0:	00052203          	lw	x4,0(x10)
     ee4:	00920863          	beq	x4,x9,ef4 <I_andi_cg_cr_rs1_imm_edges_rs1val_0x1_immval_0x10+0x18>
     ee8:	5d4022ef          	jal	x5,34bc <failedtest_x5_x4>
     eec:	00000edc          	.word	0x00000edc
     ef0:	00009d47          	.word	0x00009d47
     ef4:	00450513          	addi	x10,x10,4

# Testcase cr_rs1_imm_edges (rs1 = 0x00000001, imm = 32)
  RVTEST_TESTDATA_LOAD_INT(x23, x3) # load rs1: x3 = 0x00000001
     ef8:	000ba183          	lw	x3,0(x23)
     efc:	004b8b93          	addi	x23,x23,4

00000f00 <I_andi_cg_cr_rs1_imm_edges_rs1val_0x1_immval_0x20>:
I_andi_cg_cr_rs1_imm_edges_rs1val_0x1_immval_0x20:
  andi x11, x3, 32 # perform operation
     f00:	0201f593          	andi	x11,x3,32
  # Check if x11 contains the expected result. x10 is the signature ptr, x5 is the link ptr, x4 is a temp reg.
  RVTEST_SIGUPD(x10, x5, x4, x11, I_andi_cg_cr_rs1_imm_edges_rs1val_0x1_immval_0x20, I_andi_cg_cr_rs1_imm_edges_rs1val_0x1_immval_0x20_str)
     f04:	00052203          	lw	x4,0(x10)
     f08:	00b20863          	beq	x4,x11,f18 <I_andi_cg_cr_rs1_imm_edges_rs1val_0x1_immval_0x20+0x18>
     f0c:	5b0022ef          	jal	x5,34bc <failedtest_x5_x4>
     f10:	00000f00          	.word	0x00000f00
     f14:	00009d96          	.word	0x00009d96
     f18:	00450513          	addi	x10,x10,4

# Testcase cr_rs1_imm_edges (rs1 = 0x00000001, imm = 64)
  RVTEST_TESTDATA_LOAD_INT(x23, x12) # load rs1: x12 = 0x00000001
     f1c:	000ba603          	lw	x12,0(x23)
     f20:	004b8b93          	addi	x23,x23,4

00000f24 <I_andi_cg_cr_rs1_imm_edges_rs1val_0x1_immval_0x40>:
I_andi_cg_cr_rs1_imm_edges_rs1val_0x1_immval_0x40:
  andi x18, x12, 64 # perform operation
     f24:	04067913          	andi	x18,x12,64
  # Check if x18 contains the expected result. x10 is the signature ptr, x5 is the link ptr, x4 is a temp reg.
  RVTEST_SIGUPD(x10, x5, x4, x18, I_andi_cg_cr_rs1_imm_edges_rs1val_0x1_immval_0x40, I_andi_cg_cr_rs1_imm_edges_rs1val_0x1_immval_0x40_str)
     f28:	00052203          	lw	x4,0(x10)
     f2c:	01220863          	beq	x4,x18,f3c <I_andi_cg_cr_rs1_imm_edges_rs1val_0x1_immval_0x40+0x18>
     f30:	58c022ef          	jal	x5,34bc <failedtest_x5_x4>
     f34:	00000f24          	.word	0x00000f24
     f38:	00009de5          	.word	0x00009de5
     f3c:	00450513          	addi	x10,x10,4

# Testcase cr_rs1_imm_edges (rs1 = 0x00000001, imm = 128)
  RVTEST_TESTDATA_LOAD_INT(x23, x31) # load rs1: x31 = 0x00000001
     f40:	000baf83          	lw	x31,0(x23)
     f44:	004b8b93          	addi	x23,x23,4

00000f48 <I_andi_cg_cr_rs1_imm_edges_rs1val_0x1_immval_0x80>:
I_andi_cg_cr_rs1_imm_edges_rs1val_0x1_immval_0x80:
  andi x6, x31, 128 # perform operation
     f48:	080ff313          	andi	x6,x31,128
  # Check if x6 contains the expected result. x10 is the signature ptr, x5 is the link ptr, x4 is a temp reg.
  RVTEST_SIGUPD(x10, x5, x4, x6, I_andi_cg_cr_rs1_imm_edges_rs1val_0x1_immval_0x80, I_andi_cg_cr_rs1_imm_edges_rs1val_0x1_immval_0x80_str)
     f4c:	00052203          	lw	x4,0(x10)
     f50:	00620863          	beq	x4,x6,f60 <I_andi_cg_cr_rs1_imm_edges_rs1val_0x1_immval_0x80+0x18>
     f54:	568022ef          	jal	x5,34bc <failedtest_x5_x4>
     f58:	00000f48          	.word	0x00000f48
     f5c:	00009e34          	.word	0x00009e34
     f60:	00450513          	addi	x10,x10,4

# Testcase cr_rs1_imm_edges (rs1 = 0x00000001, imm = 256)
  RVTEST_TESTDATA_LOAD_INT(x23, x12) # load rs1: x12 = 0x00000001
     f64:	000ba603          	lw	x12,0(x23)
     f68:	004b8b93          	addi	x23,x23,4

00000f6c <I_andi_cg_cr_rs1_imm_edges_rs1val_0x1_immval_0x100>:
I_andi_cg_cr_rs1_imm_edges_rs1val_0x1_immval_0x100:
  andi x22, x12, 256 # perform operation
     f6c:	10067b13          	andi	x22,x12,256
  # Check if x22 contains the expected result. x10 is the signature ptr, x5 is the link ptr, x4 is a temp reg.
  RVTEST_SIGUPD(x10, x5, x4, x22, I_andi_cg_cr_rs1_imm_edges_rs1val_0x1_immval_0x100, I_andi_cg_cr_rs1_imm_edges_rs1val_0x1_immval_0x100_str)
     f70:	00052203          	lw	x4,0(x10)
     f74:	01620863          	beq	x4,x22,f84 <I_andi_cg_cr_rs1_imm_edges_rs1val_0x1_immval_0x100+0x18>
     f78:	544022ef          	jal	x5,34bc <failedtest_x5_x4>
     f7c:	00000f6c          	.word	0x00000f6c
     f80:	00009e83          	.word	0x00009e83
     f84:	00450513          	addi	x10,x10,4

# Testcase cr_rs1_imm_edges (rs1 = 0x00000001, imm = 512)
  RVTEST_TESTDATA_LOAD_INT(x23, x11) # load rs1: x11 = 0x00000001
     f88:	000ba583          	lw	x11,0(x23)
     f8c:	004b8b93          	addi	x23,x23,4

00000f90 <I_andi_cg_cr_rs1_imm_edges_rs1val_0x1_immval_0x200>:
I_andi_cg_cr_rs1_imm_edges_rs1val_0x1_immval_0x200:
  andi x27, x11, 512 # perform operation
     f90:	2005fd93          	andi	x27,x11,512
  # Check if x27 contains the expected result. x10 is the signature ptr, x5 is the link ptr, x4 is a temp reg.
  RVTEST_SIGUPD(x10, x5, x4, x27, I_andi_cg_cr_rs1_imm_edges_rs1val_0x1_immval_0x200, I_andi_cg_cr_rs1_imm_edges_rs1val_0x1_immval_0x200_str)
     f94:	00052203          	lw	x4,0(x10)
     f98:	01b20863          	beq	x4,x27,fa8 <I_andi_cg_cr_rs1_imm_edges_rs1val_0x1_immval_0x200+0x18>
     f9c:	520022ef          	jal	x5,34bc <failedtest_x5_x4>
     fa0:	00000f90          	.word	0x00000f90
     fa4:	00009ed3          	.word	0x00009ed3
     fa8:	00450513          	addi	x10,x10,4

# Testcase cr_rs1_imm_edges (rs1 = 0x00000001, imm = 1023)
  RVTEST_TESTDATA_LOAD_INT(x23, x26) # load rs1: x26 = 0x00000001
     fac:	000bad03          	lw	x26,0(x23)
     fb0:	004b8b93          	addi	x23,x23,4

00000fb4 <I_andi_cg_cr_rs1_imm_edges_rs1val_0x1_immval_0x3ff>:
I_andi_cg_cr_rs1_imm_edges_rs1val_0x1_immval_0x3ff:
  andi x16, x26, 1023 # perform operation
     fb4:	3ffd7813          	andi	x16,x26,1023
  # Check if x16 contains the expected result. x10 is the signature ptr, x5 is the link ptr, x4 is a temp reg.
  RVTEST_SIGUPD(x10, x5, x4, x16, I_andi_cg_cr_rs1_imm_edges_rs1val_0x1_immval_0x3ff, I_andi_cg_cr_rs1_imm_edges_rs1val_0x1_immval_0x3ff_str)
     fb8:	00052203          	lw	x4,0(x10)
     fbc:	01020863          	beq	x4,x16,fcc <I_andi_cg_cr_rs1_imm_edges_rs1val_0x1_immval_0x3ff+0x18>
     fc0:	4fc022ef          	jal	x5,34bc <failedtest_x5_x4>
     fc4:	00000fb4          	.word	0x00000fb4
     fc8:	00009f23          	.word	0x00009f23
     fcc:	00450513          	addi	x10,x10,4

# Testcase cr_rs1_imm_edges (rs1 = 0x00000001, imm = 1024)
  RVTEST_TESTDATA_LOAD_INT(x23, x18) # load rs1: x18 = 0x00000001
     fd0:	000ba903          	lw	x18,0(x23)
     fd4:	004b8b93          	addi	x23,x23,4

00000fd8 <I_andi_cg_cr_rs1_imm_edges_rs1val_0x1_immval_0x400>:
I_andi_cg_cr_rs1_imm_edges_rs1val_0x1_immval_0x400:
  andi x27, x18, 1024 # perform operation
     fd8:	40097d93          	andi	x27,x18,1024
  # Check if x27 contains the expected result. x10 is the signature ptr, x5 is the link ptr, x4 is a temp reg.
  RVTEST_SIGUPD(x10, x5, x4, x27, I_andi_cg_cr_rs1_imm_edges_rs1val_0x1_immval_0x400, I_andi_cg_cr_rs1_imm_edges_rs1val_0x1_immval_0x400_str)
     fdc:	00052203          	lw	x4,0(x10)
     fe0:	01b20863          	beq	x4,x27,ff0 <I_andi_cg_cr_rs1_imm_edges_rs1val_0x1_immval_0x400+0x18>
     fe4:	4d8022ef          	jal	x5,34bc <failedtest_x5_x4>
     fe8:	00000fd8          	.word	0x00000fd8
     fec:	00009f73          	.word	0x00009f73
     ff0:	00450513          	addi	x10,x10,4

# Testcase cr_rs1_imm_edges (rs1 = 0x00000001, imm = 1795)
  RVTEST_TESTDATA_LOAD_INT(x23, x14) # load rs1: x14 = 0x00000001
     ff4:	000ba703          	lw	x14,0(x23)
     ff8:	004b8b93          	addi	x23,x23,4

00000ffc <I_andi_cg_cr_rs1_imm_edges_rs1val_0x1_immval_0x703>:
I_andi_cg_cr_rs1_imm_edges_rs1val_0x1_immval_0x703:
  andi x12, x14, 1795 # perform operation
     ffc:	70377613          	andi	x12,x14,1795
  # Check if x12 contains the expected result. x10 is the signature ptr, x5 is the link ptr, x4 is a temp reg.
  RVTEST_SIGUPD(x10, x5, x4, x12, I_andi_cg_cr_rs1_imm_edges_rs1val_0x1_immval_0x703, I_andi_cg_cr_rs1_imm_edges_rs1val_0x1_immval_0x703_str)
    1000:	00052203          	lw	x4,0(x10)
    1004:	00c20863          	beq	x4,x12,1014 <I_andi_cg_cr_rs1_imm_edges_rs1val_0x1_immval_0x703+0x18>
    1008:	4b4022ef          	jal	x5,34bc <failedtest_x5_x4>
    100c:	00000ffc          	.word	0x00000ffc
    1010:	00009fc3          	.word	0x00009fc3
    1014:	00450513          	addi	x10,x10,4

# Testcase cr_rs1_imm_edges (rs1 = 0x00000001, imm = 2047)
  RVTEST_TESTDATA_LOAD_INT(x23, x19) # load rs1: x19 = 0x00000001
    1018:	000ba983          	lw	x19,0(x23)
    101c:	004b8b93          	addi	x23,x23,4

00001020 <I_andi_cg_cr_rs1_imm_edges_rs1val_0x1_immval_0x7ff>:
I_andi_cg_cr_rs1_imm_edges_rs1val_0x1_immval_0x7ff:
  andi x18, x19, 2047 # perform operation
    1020:	7ff9f913          	andi	x18,x19,2047
  # Check if x18 contains the expected result. x10 is the signature ptr, x5 is the link ptr, x4 is a temp reg.
  RVTEST_SIGUPD(x10, x5, x4, x18, I_andi_cg_cr_rs1_imm_edges_rs1val_0x1_immval_0x7ff, I_andi_cg_cr_rs1_imm_edges_rs1val_0x1_immval_0x7ff_str)
    1024:	00052203          	lw	x4,0(x10)
    1028:	01220863          	beq	x4,x18,1038 <I_andi_cg_cr_rs1_imm_edges_rs1val_0x1_immval_0x7ff+0x18>
    102c:	490022ef          	jal	x5,34bc <failedtest_x5_x4>
    1030:	00001020          	.word	0x00001020
    1034:	0000a013          	.word	0x0000a013
    1038:	00450513          	addi	x10,x10,4

# Testcase cr_rs1_imm_edges (rs1 = 0x00000001, imm = -2048)
  RVTEST_TESTDATA_LOAD_INT(x23, x19) # load rs1: x19 = 0x00000001
    103c:	000ba983          	lw	x19,0(x23)
    1040:	004b8b93          	addi	x23,x23,4

00001044 <I_andi_cg_cr_rs1_imm_edges_rs1val_0x1_immval_m0x800>:
I_andi_cg_cr_rs1_imm_edges_rs1val_0x1_immval_m0x800:
  andi x1, x19, -2048 # perform operation
    1044:	8009f093          	andi	x1,x19,-2048
  # Check if x1 contains the expected result. x10 is the signature ptr, x5 is the link ptr, x4 is a temp reg.
  RVTEST_SIGUPD(x10, x5, x4, x1, I_andi_cg_cr_rs1_imm_edges_rs1val_0x1_immval_m0x800, I_andi_cg_cr_rs1_imm_edges_rs1val_0x1_immval_m0x800_str)
    1048:	00052203          	lw	x4,0(x10)
    104c:	00120863          	beq	x4,x1,105c <I_andi_cg_cr_rs1_imm_edges_rs1val_0x1_immval_m0x800+0x18>
    1050:	46c022ef          	jal	x5,34bc <failedtest_x5_x4>
    1054:	00001044          	.word	0x00001044
    1058:	0000a063          	.word	0x0000a063
    105c:	00450513          	addi	x10,x10,4

# Testcase cr_rs1_imm_edges (rs1 = 0x00000001, imm = -2047)
  RVTEST_TESTDATA_LOAD_INT(x23, x21) # load rs1: x21 = 0x00000001
    1060:	000baa83          	lw	x21,0(x23)
    1064:	004b8b93          	addi	x23,x23,4

00001068 <I_andi_cg_cr_rs1_imm_edges_rs1val_0x1_immval_m0x7ff>:
I_andi_cg_cr_rs1_imm_edges_rs1val_0x1_immval_m0x7ff:
  andi x27, x21, -2047 # perform operation
    1068:	801afd93          	andi	x27,x21,-2047
  # Check if x27 contains the expected result. x10 is the signature ptr, x5 is the link ptr, x4 is a temp reg.
  RVTEST_SIGUPD(x10, x5, x4, x27, I_andi_cg_cr_rs1_imm_edges_rs1val_0x1_immval_m0x7ff, I_andi_cg_cr_rs1_imm_edges_rs1val_0x1_immval_m0x7ff_str)
    106c:	00052203          	lw	x4,0(x10)
    1070:	01b20863          	beq	x4,x27,1080 <I_andi_cg_cr_rs1_imm_edges_rs1val_0x1_immval_m0x7ff+0x18>
    1074:	448022ef          	jal	x5,34bc <failedtest_x5_x4>
    1078:	00001068          	.word	0x00001068
    107c:	0000a0b4          	.word	0x0000a0b4
    1080:	00450513          	addi	x10,x10,4

# Testcase cr_rs1_imm_edges (rs1 = 0x00000001, imm = -2)
  RVTEST_TESTDATA_LOAD_INT(x23, x7) # load rs1: x7 = 0x00000001
    1084:	000ba383          	lw	x7,0(x23)
    1088:	004b8b93          	addi	x23,x23,4

0000108c <I_andi_cg_cr_rs1_imm_edges_rs1val_0x1_immval_m0x2>:
I_andi_cg_cr_rs1_imm_edges_rs1val_0x1_immval_m0x2:
  andi x24, x7, -2 # perform operation
    108c:	ffe3fc13          	andi	x24,x7,-2
  # Check if x24 contains the expected result. x10 is the signature ptr, x5 is the link ptr, x4 is a temp reg.
  RVTEST_SIGUPD(x10, x5, x4, x24, I_andi_cg_cr_rs1_imm_edges_rs1val_0x1_immval_m0x2, I_andi_cg_cr_rs1_imm_edges_rs1val_0x1_immval_m0x2_str)
    1090:	00052203          	lw	x4,0(x10)
    1094:	01820863          	beq	x4,x24,10a4 <I_andi_cg_cr_rs1_imm_edges_rs1val_0x1_immval_m0x2+0x18>
    1098:	424022ef          	jal	x5,34bc <failedtest_x5_x4>
    109c:	0000108c          	.word	0x0000108c
    10a0:	0000a105          	.word	0x0000a105
    10a4:	00450513          	addi	x10,x10,4

# Testcase cr_rs1_imm_edges (rs1 = 0x00000001, imm = -1)
  RVTEST_TESTDATA_LOAD_INT(x23, x8) # load rs1: x8 = 0x00000001
    10a8:	000ba403          	lw	x8,0(x23)
    10ac:	004b8b93          	addi	x23,x23,4

000010b0 <I_andi_cg_cr_rs1_imm_edges_rs1val_0x1_immval_m0x1>:
I_andi_cg_cr_rs1_imm_edges_rs1val_0x1_immval_m0x1:
  andi x29, x8, -1 # perform operation
    10b0:	fff47e93          	andi	x29,x8,-1
  # Check if x29 contains the expected result. x10 is the signature ptr, x5 is the link ptr, x4 is a temp reg.
  RVTEST_SIGUPD(x10, x5, x4, x29, I_andi_cg_cr_rs1_imm_edges_rs1val_0x1_immval_m0x1, I_andi_cg_cr_rs1_imm_edges_rs1val_0x1_immval_m0x1_str)
    10b4:	00052203          	lw	x4,0(x10)
    10b8:	01d20863          	beq	x4,x29,10c8 <I_andi_cg_cr_rs1_imm_edges_rs1val_0x1_immval_m0x1+0x18>
    10bc:	400022ef          	jal	x5,34bc <failedtest_x5_x4>
    10c0:	000010b0          	.word	0x000010b0
    10c4:	0000a154          	.word	0x0000a154
    10c8:	00450513          	addi	x10,x10,4

# Testcase cr_rs1_imm_edges (rs1 = 0x00000002, imm = 0)
  RVTEST_TESTDATA_LOAD_INT(x23, x15) # load rs1: x15 = 0x00000002
    10cc:	000ba783          	lw	x15,0(x23)
    10d0:	004b8b93          	addi	x23,x23,4

000010d4 <I_andi_cg_cr_rs1_imm_edges_rs1val_0x2_immval_0x0>:
I_andi_cg_cr_rs1_imm_edges_rs1val_0x2_immval_0x0:
  andi x20, x15, 0 # perform operation
    10d4:	0007fa13          	andi	x20,x15,0
  # Check if x20 contains the expected result. x10 is the signature ptr, x5 is the link ptr, x4 is a temp reg.
  RVTEST_SIGUPD(x10, x5, x4, x20, I_andi_cg_cr_rs1_imm_edges_rs1val_0x2_immval_0x0, I_andi_cg_cr_rs1_imm_edges_rs1val_0x2_immval_0x0_str)
    10d8:	00052203          	lw	x4,0(x10)
    10dc:	01420863          	beq	x4,x20,10ec <I_andi_cg_cr_rs1_imm_edges_rs1val_0x2_immval_0x0+0x18>
    10e0:	3dc022ef          	jal	x5,34bc <failedtest_x5_x4>
    10e4:	000010d4          	.word	0x000010d4
    10e8:	0000a1a3          	.word	0x0000a1a3
    10ec:	00450513          	addi	x10,x10,4

# Testcase cr_rs1_imm_edges (rs1 = 0x00000002, imm = 1)
  RVTEST_TESTDATA_LOAD_INT(x23, x24) # load rs1: x24 = 0x00000002
    10f0:	000bac03          	lw	x24,0(x23)
    10f4:	004b8b93          	addi	x23,x23,4

000010f8 <I_andi_cg_cr_rs1_imm_edges_rs1val_0x2_immval_0x1>:
I_andi_cg_cr_rs1_imm_edges_rs1val_0x2_immval_0x1:
  andi x28, x24, 1 # perform operation
    10f8:	001c7e13          	andi	x28,x24,1
  # Check if x28 contains the expected result. x10 is the signature ptr, x5 is the link ptr, x4 is a temp reg.
  RVTEST_SIGUPD(x10, x5, x4, x28, I_andi_cg_cr_rs1_imm_edges_rs1val_0x2_immval_0x1, I_andi_cg_cr_rs1_imm_edges_rs1val_0x2_immval_0x1_str)
    10fc:	00052203          	lw	x4,0(x10)
    1100:	01c20863          	beq	x4,x28,1110 <I_andi_cg_cr_rs1_imm_edges_rs1val_0x2_immval_0x1+0x18>
    1104:	3b8022ef          	jal	x5,34bc <failedtest_x5_x4>
    1108:	000010f8          	.word	0x000010f8
    110c:	0000a1f1          	.word	0x0000a1f1
    1110:	00450513          	addi	x10,x10,4

# Testcase cr_rs1_imm_edges (rs1 = 0x00000002, imm = 2)
  RVTEST_TESTDATA_LOAD_INT(x23, x8) # load rs1: x8 = 0x00000002
    1114:	000ba403          	lw	x8,0(x23)
    1118:	004b8b93          	addi	x23,x23,4

0000111c <I_andi_cg_cr_rs1_imm_edges_rs1val_0x2_immval_0x2>:
I_andi_cg_cr_rs1_imm_edges_rs1val_0x2_immval_0x2:
  andi x21, x8, 2 # perform operation
    111c:	00247a93          	andi	x21,x8,2
  # Check if x21 contains the expected result. x10 is the signature ptr, x5 is the link ptr, x4 is a temp reg.
  RVTEST_SIGUPD(x10, x5, x4, x21, I_andi_cg_cr_rs1_imm_edges_rs1val_0x2_immval_0x2, I_andi_cg_cr_rs1_imm_edges_rs1val_0x2_immval_0x2_str)
    1120:	00052203          	lw	x4,0(x10)
    1124:	01520863          	beq	x4,x21,1134 <I_andi_cg_cr_rs1_imm_edges_rs1val_0x2_immval_0x2+0x18>
    1128:	394022ef          	jal	x5,34bc <failedtest_x5_x4>
    112c:	0000111c          	.word	0x0000111c
    1130:	0000a23f          	.word	0x0000a23f
    1134:	00450513          	addi	x10,x10,4

# Testcase cr_rs1_imm_edges (rs1 = 0x00000002, imm = 3)
  RVTEST_TESTDATA_LOAD_INT(x23, x9) # load rs1: x9 = 0x00000002
    1138:	000ba483          	lw	x9,0(x23)
    113c:	004b8b93          	addi	x23,x23,4

00001140 <I_andi_cg_cr_rs1_imm_edges_rs1val_0x2_immval_0x3>:
I_andi_cg_cr_rs1_imm_edges_rs1val_0x2_immval_0x3:
  andi x27, x9, 3 # perform operation
    1140:	0034fd93          	andi	x27,x9,3
  # Check if x27 contains the expected result. x10 is the signature ptr, x5 is the link ptr, x4 is a temp reg.
  RVTEST_SIGUPD(x10, x5, x4, x27, I_andi_cg_cr_rs1_imm_edges_rs1val_0x2_immval_0x3, I_andi_cg_cr_rs1_imm_edges_rs1val_0x2_immval_0x3_str)
    1144:	00052203          	lw	x4,0(x10)
    1148:	01b20863          	beq	x4,x27,1158 <I_andi_cg_cr_rs1_imm_edges_rs1val_0x2_immval_0x3+0x18>
    114c:	370022ef          	jal	x5,34bc <failedtest_x5_x4>
    1150:	00001140          	.word	0x00001140
    1154:	0000a28d          	.word	0x0000a28d
    1158:	00450513          	addi	x10,x10,4

# Testcase cr_rs1_imm_edges (rs1 = 0x00000002, imm = 4)
  RVTEST_TESTDATA_LOAD_INT(x23, x13) # load rs1: x13 = 0x00000002
    115c:	000ba683          	lw	x13,0(x23)
    1160:	004b8b93          	addi	x23,x23,4

00001164 <I_andi_cg_cr_rs1_imm_edges_rs1val_0x2_immval_0x4>:
I_andi_cg_cr_rs1_imm_edges_rs1val_0x2_immval_0x4:
  andi x12, x13, 4 # perform operation
    1164:	0046f613          	andi	x12,x13,4
  # Check if x12 contains the expected result. x10 is the signature ptr, x5 is the link ptr, x4 is a temp reg.
  RVTEST_SIGUPD(x10, x5, x4, x12, I_andi_cg_cr_rs1_imm_edges_rs1val_0x2_immval_0x4, I_andi_cg_cr_rs1_imm_edges_rs1val_0x2_immval_0x4_str)
    1168:	00052203          	lw	x4,0(x10)
    116c:	00c20863          	beq	x4,x12,117c <I_andi_cg_cr_rs1_imm_edges_rs1val_0x2_immval_0x4+0x18>
    1170:	34c022ef          	jal	x5,34bc <failedtest_x5_x4>
    1174:	00001164          	.word	0x00001164
    1178:	0000a2db          	.word	0x0000a2db
    117c:	00450513          	addi	x10,x10,4

# Testcase cr_rs1_imm_edges (rs1 = 0x00000002, imm = 8)
  RVTEST_TESTDATA_LOAD_INT(x23, x18) # load rs1: x18 = 0x00000002
    1180:	000ba903          	lw	x18,0(x23)
    1184:	004b8b93          	addi	x23,x23,4

00001188 <I_andi_cg_cr_rs1_imm_edges_rs1val_0x2_immval_0x8>:
I_andi_cg_cr_rs1_imm_edges_rs1val_0x2_immval_0x8:
  andi x20, x18, 8 # perform operation
    1188:	00897a13          	andi	x20,x18,8
  # Check if x20 contains the expected result. x10 is the signature ptr, x5 is the link ptr, x4 is a temp reg.
  RVTEST_SIGUPD(x10, x5, x4, x20, I_andi_cg_cr_rs1_imm_edges_rs1val_0x2_immval_0x8, I_andi_cg_cr_rs1_imm_edges_rs1val_0x2_immval_0x8_str)
    118c:	00052203          	lw	x4,0(x10)
    1190:	01420863          	beq	x4,x20,11a0 <I_andi_cg_cr_rs1_imm_edges_rs1val_0x2_immval_0x8+0x18>
    1194:	328022ef          	jal	x5,34bc <failedtest_x5_x4>
    1198:	00001188          	.word	0x00001188
    119c:	0000a329          	.word	0x0000a329
    11a0:	00450513          	addi	x10,x10,4

# Testcase cr_rs1_imm_edges (rs1 = 0x00000002, imm = 16)
  RVTEST_TESTDATA_LOAD_INT(x23, x9) # load rs1: x9 = 0x00000002
    11a4:	000ba483          	lw	x9,0(x23)
    11a8:	004b8b93          	addi	x23,x23,4

000011ac <I_andi_cg_cr_rs1_imm_edges_rs1val_0x2_immval_0x10>:
I_andi_cg_cr_rs1_imm_edges_rs1val_0x2_immval_0x10:
  andi x29, x9, 16 # perform operation
    11ac:	0104fe93          	andi	x29,x9,16
  # Check if x29 contains the expected result. x10 is the signature ptr, x5 is the link ptr, x4 is a temp reg.
  RVTEST_SIGUPD(x10, x5, x4, x29, I_andi_cg_cr_rs1_imm_edges_rs1val_0x2_immval_0x10, I_andi_cg_cr_rs1_imm_edges_rs1val_0x2_immval_0x10_str)
    11b0:	00052203          	lw	x4,0(x10)
    11b4:	01d20863          	beq	x4,x29,11c4 <I_andi_cg_cr_rs1_imm_edges_rs1val_0x2_immval_0x10+0x18>
    11b8:	304022ef          	jal	x5,34bc <failedtest_x5_x4>
    11bc:	000011ac          	.word	0x000011ac
    11c0:	0000a377          	.word	0x0000a377
    11c4:	00450513          	addi	x10,x10,4

# Testcase cr_rs1_imm_edges (rs1 = 0x00000002, imm = 32)
  RVTEST_TESTDATA_LOAD_INT(x23, x8) # load rs1: x8 = 0x00000002
    11c8:	000ba403          	lw	x8,0(x23)
    11cc:	004b8b93          	addi	x23,x23,4

000011d0 <I_andi_cg_cr_rs1_imm_edges_rs1val_0x2_immval_0x20>:
I_andi_cg_cr_rs1_imm_edges_rs1val_0x2_immval_0x20:
  andi x6, x8, 32 # perform operation
    11d0:	02047313          	andi	x6,x8,32
  # Check if x6 contains the expected result. x10 is the signature ptr, x5 is the link ptr, x4 is a temp reg.
  RVTEST_SIGUPD(x10, x5, x4, x6, I_andi_cg_cr_rs1_imm_edges_rs1val_0x2_immval_0x20, I_andi_cg_cr_rs1_imm_edges_rs1val_0x2_immval_0x20_str)
    11d4:	00052203          	lw	x4,0(x10)
    11d8:	00620863          	beq	x4,x6,11e8 <I_andi_cg_cr_rs1_imm_edges_rs1val_0x2_immval_0x20+0x18>
    11dc:	2e0022ef          	jal	x5,34bc <failedtest_x5_x4>
    11e0:	000011d0          	.word	0x000011d0
    11e4:	0000a3c6          	.word	0x0000a3c6
    11e8:	00450513          	addi	x10,x10,4

# Testcase cr_rs1_imm_edges (rs1 = 0x00000002, imm = 64)
  RVTEST_TESTDATA_LOAD_INT(x23, x21) # load rs1: x21 = 0x00000002
    11ec:	000baa83          	lw	x21,0(x23)
    11f0:	004b8b93          	addi	x23,x23,4

000011f4 <I_andi_cg_cr_rs1_imm_edges_rs1val_0x2_immval_0x40>:
I_andi_cg_cr_rs1_imm_edges_rs1val_0x2_immval_0x40:
  andi x8, x21, 64 # perform operation
    11f4:	040af413          	andi	x8,x21,64
  # Check if x8 contains the expected result. x10 is the signature ptr, x5 is the link ptr, x4 is a temp reg.
  RVTEST_SIGUPD(x10, x5, x4, x8, I_andi_cg_cr_rs1_imm_edges_rs1val_0x2_immval_0x40, I_andi_cg_cr_rs1_imm_edges_rs1val_0x2_immval_0x40_str)
    11f8:	00052203          	lw	x4,0(x10)
    11fc:	00820863          	beq	x4,x8,120c <I_andi_cg_cr_rs1_imm_edges_rs1val_0x2_immval_0x40+0x18>
    1200:	2bc022ef          	jal	x5,34bc <failedtest_x5_x4>
    1204:	000011f4          	.word	0x000011f4
    1208:	0000a415          	.word	0x0000a415
    120c:	00450513          	addi	x10,x10,4

# Testcase cr_rs1_imm_edges (rs1 = 0x00000002, imm = 128)
  RVTEST_TESTDATA_LOAD_INT(x23, x29) # load rs1: x29 = 0x00000002
    1210:	000bae83          	lw	x29,0(x23)
    1214:	004b8b93          	addi	x23,x23,4

00001218 <I_andi_cg_cr_rs1_imm_edges_rs1val_0x2_immval_0x80>:
I_andi_cg_cr_rs1_imm_edges_rs1val_0x2_immval_0x80:
  andi x22, x29, 128 # perform operation
    1218:	080efb13          	andi	x22,x29,128
  # Check if x22 contains the expected result. x10 is the signature ptr, x5 is the link ptr, x4 is a temp reg.
  RVTEST_SIGUPD(x10, x5, x4, x22, I_andi_cg_cr_rs1_imm_edges_rs1val_0x2_immval_0x80, I_andi_cg_cr_rs1_imm_edges_rs1val_0x2_immval_0x80_str)
    121c:	00052203          	lw	x4,0(x10)
    1220:	01620863          	beq	x4,x22,1230 <I_andi_cg_cr_rs1_imm_edges_rs1val_0x2_immval_0x80+0x18>
    1224:	298022ef          	jal	x5,34bc <failedtest_x5_x4>
    1228:	00001218          	.word	0x00001218
    122c:	0000a464          	.word	0x0000a464
    1230:	00450513          	addi	x10,x10,4

# Testcase cr_rs1_imm_edges (rs1 = 0x00000002, imm = 256)
  RVTEST_TESTDATA_LOAD_INT(x23, x12) # load rs1: x12 = 0x00000002
    1234:	000ba603          	lw	x12,0(x23)
    1238:	004b8b93          	addi	x23,x23,4

0000123c <I_andi_cg_cr_rs1_imm_edges_rs1val_0x2_immval_0x100>:
I_andi_cg_cr_rs1_imm_edges_rs1val_0x2_immval_0x100:
  andi x24, x12, 256 # perform operation
    123c:	10067c13          	andi	x24,x12,256
  # Check if x24 contains the expected result. x10 is the signature ptr, x5 is the link ptr, x4 is a temp reg.
  RVTEST_SIGUPD(x10, x5, x4, x24, I_andi_cg_cr_rs1_imm_edges_rs1val_0x2_immval_0x100, I_andi_cg_cr_rs1_imm_edges_rs1val_0x2_immval_0x100_str)
    1240:	00052203          	lw	x4,0(x10)
    1244:	01820863          	beq	x4,x24,1254 <I_andi_cg_cr_rs1_imm_edges_rs1val_0x2_immval_0x100+0x18>
    1248:	274022ef          	jal	x5,34bc <failedtest_x5_x4>
    124c:	0000123c          	.word	0x0000123c
    1250:	0000a4b3          	.word	0x0000a4b3
    1254:	00450513          	addi	x10,x10,4

# Testcase cr_rs1_imm_edges (rs1 = 0x00000002, imm = 512)
  RVTEST_TESTDATA_LOAD_INT(x23, x30) # load rs1: x30 = 0x00000002
    1258:	000baf03          	lw	x30,0(x23)
    125c:	004b8b93          	addi	x23,x23,4

00001260 <I_andi_cg_cr_rs1_imm_edges_rs1val_0x2_immval_0x200>:
I_andi_cg_cr_rs1_imm_edges_rs1val_0x2_immval_0x200:
  andi x15, x30, 512 # perform operation
    1260:	200f7793          	andi	x15,x30,512
  # Check if x15 contains the expected result. x10 is the signature ptr, x5 is the link ptr, x4 is a temp reg.
  RVTEST_SIGUPD(x10, x5, x4, x15, I_andi_cg_cr_rs1_imm_edges_rs1val_0x2_immval_0x200, I_andi_cg_cr_rs1_imm_edges_rs1val_0x2_immval_0x200_str)
    1264:	00052203          	lw	x4,0(x10)
    1268:	00f20863          	beq	x4,x15,1278 <I_andi_cg_cr_rs1_imm_edges_rs1val_0x2_immval_0x200+0x18>
    126c:	250022ef          	jal	x5,34bc <failedtest_x5_x4>
    1270:	00001260          	.word	0x00001260
    1274:	0000a503          	.word	0x0000a503
    1278:	00450513          	addi	x10,x10,4

# Testcase cr_rs1_imm_edges (rs1 = 0x00000002, imm = 1023)
  RVTEST_TESTDATA_LOAD_INT(x23, x11) # load rs1: x11 = 0x00000002
    127c:	000ba583          	lw	x11,0(x23)
    1280:	004b8b93          	addi	x23,x23,4

00001284 <I_andi_cg_cr_rs1_imm_edges_rs1val_0x2_immval_0x3ff>:
I_andi_cg_cr_rs1_imm_edges_rs1val_0x2_immval_0x3ff:
  andi x24, x11, 1023 # perform operation
    1284:	3ff5fc13          	andi	x24,x11,1023
  # Check if x24 contains the expected result. x10 is the signature ptr, x5 is the link ptr, x4 is a temp reg.
  RVTEST_SIGUPD(x10, x5, x4, x24, I_andi_cg_cr_rs1_imm_edges_rs1val_0x2_immval_0x3ff, I_andi_cg_cr_rs1_imm_edges_rs1val_0x2_immval_0x3ff_str)
    1288:	00052203          	lw	x4,0(x10)
    128c:	01820863          	beq	x4,x24,129c <I_andi_cg_cr_rs1_imm_edges_rs1val_0x2_immval_0x3ff+0x18>
    1290:	22c022ef          	jal	x5,34bc <failedtest_x5_x4>
    1294:	00001284          	.word	0x00001284
    1298:	0000a553          	.word	0x0000a553
    129c:	00450513          	addi	x10,x10,4

# Testcase cr_rs1_imm_edges (rs1 = 0x00000002, imm = 1024)
  RVTEST_TESTDATA_LOAD_INT(x23, x30) # load rs1: x30 = 0x00000002
    12a0:	000baf03          	lw	x30,0(x23)
    12a4:	004b8b93          	addi	x23,x23,4

000012a8 <I_andi_cg_cr_rs1_imm_edges_rs1val_0x2_immval_0x400>:
I_andi_cg_cr_rs1_imm_edges_rs1val_0x2_immval_0x400:
  andi x16, x30, 1024 # perform operation
    12a8:	400f7813          	andi	x16,x30,1024
  # Check if x16 contains the expected result. x10 is the signature ptr, x5 is the link ptr, x4 is a temp reg.
  RVTEST_SIGUPD(x10, x5, x4, x16, I_andi_cg_cr_rs1_imm_edges_rs1val_0x2_immval_0x400, I_andi_cg_cr_rs1_imm_edges_rs1val_0x2_immval_0x400_str)
    12ac:	00052203          	lw	x4,0(x10)
    12b0:	01020863          	beq	x4,x16,12c0 <I_andi_cg_cr_rs1_imm_edges_rs1val_0x2_immval_0x400+0x18>
    12b4:	208022ef          	jal	x5,34bc <failedtest_x5_x4>
    12b8:	000012a8          	.word	0x000012a8
    12bc:	0000a5a3          	.word	0x0000a5a3
    12c0:	00450513          	addi	x10,x10,4

# Testcase cr_rs1_imm_edges (rs1 = 0x00000002, imm = 1795)
  RVTEST_TESTDATA_LOAD_INT(x23, x20) # load rs1: x20 = 0x00000002
    12c4:	000baa03          	lw	x20,0(x23)
    12c8:	004b8b93          	addi	x23,x23,4

000012cc <I_andi_cg_cr_rs1_imm_edges_rs1val_0x2_immval_0x703>:
I_andi_cg_cr_rs1_imm_edges_rs1val_0x2_immval_0x703:
  andi x6, x20, 1795 # perform operation
    12cc:	703a7313          	andi	x6,x20,1795
  # Check if x6 contains the expected result. x10 is the signature ptr, x5 is the link ptr, x4 is a temp reg.
  RVTEST_SIGUPD(x10, x5, x4, x6, I_andi_cg_cr_rs1_imm_edges_rs1val_0x2_immval_0x703, I_andi_cg_cr_rs1_imm_edges_rs1val_0x2_immval_0x703_str)
    12d0:	00052203          	lw	x4,0(x10)
    12d4:	00620863          	beq	x4,x6,12e4 <I_andi_cg_cr_rs1_imm_edges_rs1val_0x2_immval_0x703+0x18>
    12d8:	1e4022ef          	jal	x5,34bc <failedtest_x5_x4>
    12dc:	000012cc          	.word	0x000012cc
    12e0:	0000a5f3          	.word	0x0000a5f3
    12e4:	00450513          	addi	x10,x10,4

# Testcase cr_rs1_imm_edges (rs1 = 0x00000002, imm = 2047)
  RVTEST_TESTDATA_LOAD_INT(x23, x14) # load rs1: x14 = 0x00000002
    12e8:	000ba703          	lw	x14,0(x23)
    12ec:	004b8b93          	addi	x23,x23,4

000012f0 <I_andi_cg_cr_rs1_imm_edges_rs1val_0x2_immval_0x7ff>:
I_andi_cg_cr_rs1_imm_edges_rs1val_0x2_immval_0x7ff:
  andi x15, x14, 2047 # perform operation
    12f0:	7ff77793          	andi	x15,x14,2047
  # Check if x15 contains the expected result. x10 is the signature ptr, x5 is the link ptr, x4 is a temp reg.
  RVTEST_SIGUPD(x10, x5, x4, x15, I_andi_cg_cr_rs1_imm_edges_rs1val_0x2_immval_0x7ff, I_andi_cg_cr_rs1_imm_edges_rs1val_0x2_immval_0x7ff_str)
    12f4:	00052203          	lw	x4,0(x10)
    12f8:	00f20863          	beq	x4,x15,1308 <I_andi_cg_cr_rs1_imm_edges_rs1val_0x2_immval_0x7ff+0x18>
    12fc:	1c0022ef          	jal	x5,34bc <failedtest_x5_x4>
    1300:	000012f0          	.word	0x000012f0
    1304:	0000a643          	.word	0x0000a643
    1308:	00450513          	addi	x10,x10,4

# Testcase cr_rs1_imm_edges (rs1 = 0x00000002, imm = -2048)
  RVTEST_TESTDATA_LOAD_INT(x23, x8) # load rs1: x8 = 0x00000002
    130c:	000ba403          	lw	x8,0(x23)
    1310:	004b8b93          	addi	x23,x23,4

00001314 <I_andi_cg_cr_rs1_imm_edges_rs1val_0x2_immval_m0x800>:
I_andi_cg_cr_rs1_imm_edges_rs1val_0x2_immval_m0x800:
  andi x17, x8, -2048 # perform operation
    1314:	80047893          	andi	x17,x8,-2048
  # Check if x17 contains the expected result. x10 is the signature ptr, x5 is the link ptr, x4 is a temp reg.
  RVTEST_SIGUPD(x10, x5, x4, x17, I_andi_cg_cr_rs1_imm_edges_rs1val_0x2_immval_m0x800, I_andi_cg_cr_rs1_imm_edges_rs1val_0x2_immval_m0x800_str)
    1318:	00052203          	lw	x4,0(x10)
    131c:	01120863          	beq	x4,x17,132c <I_andi_cg_cr_rs1_imm_edges_rs1val_0x2_immval_m0x800+0x18>
    1320:	19c022ef          	jal	x5,34bc <failedtest_x5_x4>
    1324:	00001314          	.word	0x00001314
    1328:	0000a693          	.word	0x0000a693
    132c:	00450513          	addi	x10,x10,4

# Testcase cr_rs1_imm_edges (rs1 = 0x00000002, imm = -2047)
  RVTEST_TESTDATA_LOAD_INT(x23, x1) # load rs1: x1 = 0x00000002
    1330:	000ba083          	lw	x1,0(x23)
    1334:	004b8b93          	addi	x23,x23,4

00001338 <I_andi_cg_cr_rs1_imm_edges_rs1val_0x2_immval_m0x7ff>:
I_andi_cg_cr_rs1_imm_edges_rs1val_0x2_immval_m0x7ff:
  andi x22, x1, -2047 # perform operation
    1338:	8010fb13          	andi	x22,x1,-2047
  # Check if x22 contains the expected result. x10 is the signature ptr, x5 is the link ptr, x4 is a temp reg.
  RVTEST_SIGUPD(x10, x5, x4, x22, I_andi_cg_cr_rs1_imm_edges_rs1val_0x2_immval_m0x7ff, I_andi_cg_cr_rs1_imm_edges_rs1val_0x2_immval_m0x7ff_str)
    133c:	00052203          	lw	x4,0(x10)
    1340:	01620863          	beq	x4,x22,1350 <I_andi_cg_cr_rs1_imm_edges_rs1val_0x2_immval_m0x7ff+0x18>
    1344:	178022ef          	jal	x5,34bc <failedtest_x5_x4>
    1348:	00001338          	.word	0x00001338
    134c:	0000a6e4          	.word	0x0000a6e4
    1350:	00450513          	addi	x10,x10,4

# Testcase cr_rs1_imm_edges (rs1 = 0x00000002, imm = -2)
  RVTEST_TESTDATA_LOAD_INT(x23, x19) # load rs1: x19 = 0x00000002
    1354:	000ba983          	lw	x19,0(x23)
    1358:	004b8b93          	addi	x23,x23,4

0000135c <I_andi_cg_cr_rs1_imm_edges_rs1val_0x2_immval_m0x2>:
I_andi_cg_cr_rs1_imm_edges_rs1val_0x2_immval_m0x2:
  andi x18, x19, -2 # perform operation
    135c:	ffe9f913          	andi	x18,x19,-2
  # Check if x18 contains the expected result. x10 is the signature ptr, x5 is the link ptr, x4 is a temp reg.
  RVTEST_SIGUPD(x10, x5, x4, x18, I_andi_cg_cr_rs1_imm_edges_rs1val_0x2_immval_m0x2, I_andi_cg_cr_rs1_imm_edges_rs1val_0x2_immval_m0x2_str)
    1360:	00052203          	lw	x4,0(x10)
    1364:	01220863          	beq	x4,x18,1374 <I_andi_cg_cr_rs1_imm_edges_rs1val_0x2_immval_m0x2+0x18>
    1368:	154022ef          	jal	x5,34bc <failedtest_x5_x4>
    136c:	0000135c          	.word	0x0000135c
    1370:	0000a735          	.word	0x0000a735
    1374:	00450513          	addi	x10,x10,4

# Testcase cr_rs1_imm_edges (rs1 = 0x00000002, imm = -1)
  RVTEST_TESTDATA_LOAD_INT(x23, x15) # load rs1: x15 = 0x00000002
    1378:	000ba783          	lw	x15,0(x23)
    137c:	004b8b93          	addi	x23,x23,4

00001380 <I_andi_cg_cr_rs1_imm_edges_rs1val_0x2_immval_m0x1>:
I_andi_cg_cr_rs1_imm_edges_rs1val_0x2_immval_m0x1:
  andi x6, x15, -1 # perform operation
    1380:	fff7f313          	andi	x6,x15,-1
  # Check if x6 contains the expected result. x10 is the signature ptr, x5 is the link ptr, x4 is a temp reg.
  RVTEST_SIGUPD(x10, x5, x4, x6, I_andi_cg_cr_rs1_imm_edges_rs1val_0x2_immval_m0x1, I_andi_cg_cr_rs1_imm_edges_rs1val_0x2_immval_m0x1_str)
    1384:	00052203          	lw	x4,0(x10)
    1388:	00620863          	beq	x4,x6,1398 <I_andi_cg_cr_rs1_imm_edges_rs1val_0x2_immval_m0x1+0x18>
    138c:	130022ef          	jal	x5,34bc <failedtest_x5_x4>
    1390:	00001380          	.word	0x00001380
    1394:	0000a784          	.word	0x0000a784
    1398:	00450513          	addi	x10,x10,4

# Testcase cr_rs1_imm_edges (rs1 = 0x80000000, imm = 0)
  RVTEST_TESTDATA_LOAD_INT(x23, x25) # load rs1: x25 = 0x80000000
    139c:	000bac83          	lw	x25,0(x23)
    13a0:	004b8b93          	addi	x23,x23,4

000013a4 <I_andi_cg_cr_rs1_imm_edges_rs1val_0x80000000_immval_0x0>:
I_andi_cg_cr_rs1_imm_edges_rs1val_0x80000000_immval_0x0:
  andi x18, x25, 0 # perform operation
    13a4:	000cf913          	andi	x18,x25,0
  # Check if x18 contains the expected result. x10 is the signature ptr, x5 is the link ptr, x4 is a temp reg.
  RVTEST_SIGUPD(x10, x5, x4, x18, I_andi_cg_cr_rs1_imm_edges_rs1val_0x80000000_immval_0x0, I_andi_cg_cr_rs1_imm_edges_rs1val_0x80000000_immval_0x0_str)
    13a8:	00052203          	lw	x4,0(x10)
    13ac:	01220863          	beq	x4,x18,13bc <I_andi_cg_cr_rs1_imm_edges_rs1val_0x80000000_immval_0x0+0x18>
    13b0:	10c022ef          	jal	x5,34bc <failedtest_x5_x4>
    13b4:	000013a4          	.word	0x000013a4
    13b8:	0000a7d3          	.word	0x0000a7d3
    13bc:	00450513          	addi	x10,x10,4

# Testcase cr_rs1_imm_edges (rs1 = 0x80000000, imm = 1)
  RVTEST_TESTDATA_LOAD_INT(x23, x9) # load rs1: x9 = 0x80000000
    13c0:	000ba483          	lw	x9,0(x23)
    13c4:	004b8b93          	addi	x23,x23,4

000013c8 <I_andi_cg_cr_rs1_imm_edges_rs1val_0x80000000_immval_0x1>:
I_andi_cg_cr_rs1_imm_edges_rs1val_0x80000000_immval_0x1:
  andi x16, x9, 1 # perform operation
    13c8:	0014f813          	andi	x16,x9,1
  # Check if x16 contains the expected result. x10 is the signature ptr, x5 is the link ptr, x4 is a temp reg.
  RVTEST_SIGUPD(x10, x5, x4, x16, I_andi_cg_cr_rs1_imm_edges_rs1val_0x80000000_immval_0x1, I_andi_cg_cr_rs1_imm_edges_rs1val_0x80000000_immval_0x1_str)
    13cc:	00052203          	lw	x4,0(x10)
    13d0:	01020863          	beq	x4,x16,13e0 <I_andi_cg_cr_rs1_imm_edges_rs1val_0x80000000_immval_0x1+0x18>
    13d4:	0e8022ef          	jal	x5,34bc <failedtest_x5_x4>
    13d8:	000013c8          	.word	0x000013c8
    13dc:	0000a828          	.word	0x0000a828
    13e0:	00450513          	addi	x10,x10,4

# Testcase cr_rs1_imm_edges (rs1 = 0x80000000, imm = 2)
  RVTEST_TESTDATA_LOAD_INT(x23, x6) # load rs1: x6 = 0x80000000
    13e4:	000ba303          	lw	x6,0(x23)
    13e8:	004b8b93          	addi	x23,x23,4

000013ec <I_andi_cg_cr_rs1_imm_edges_rs1val_0x80000000_immval_0x2>:
I_andi_cg_cr_rs1_imm_edges_rs1val_0x80000000_immval_0x2:
  andi x8, x6, 2 # perform operation
    13ec:	00237413          	andi	x8,x6,2
  # Check if x8 contains the expected result. x10 is the signature ptr, x5 is the link ptr, x4 is a temp reg.
  RVTEST_SIGUPD(x10, x5, x4, x8, I_andi_cg_cr_rs1_imm_edges_rs1val_0x80000000_immval_0x2, I_andi_cg_cr_rs1_imm_edges_rs1val_0x80000000_immval_0x2_str)
    13f0:	00052203          	lw	x4,0(x10)
    13f4:	00820863          	beq	x4,x8,1404 <I_andi_cg_cr_rs1_imm_edges_rs1val_0x80000000_immval_0x2+0x18>
    13f8:	0c4022ef          	jal	x5,34bc <failedtest_x5_x4>
    13fc:	000013ec          	.word	0x000013ec
    1400:	0000a87d          	.word	0x0000a87d
    1404:	00450513          	addi	x10,x10,4

# Testcase cr_rs1_imm_edges (rs1 = 0x80000000, imm = 3)
  RVTEST_TESTDATA_LOAD_INT(x23, x20) # load rs1: x20 = 0x80000000
    1408:	000baa03          	lw	x20,0(x23)
    140c:	004b8b93          	addi	x23,x23,4

00001410 <I_andi_cg_cr_rs1_imm_edges_rs1val_0x80000000_immval_0x3>:
I_andi_cg_cr_rs1_imm_edges_rs1val_0x80000000_immval_0x3:
  andi x21, x20, 3 # perform operation
    1410:	003a7a93          	andi	x21,x20,3
  # Check if x21 contains the expected result. x10 is the signature ptr, x5 is the link ptr, x4 is a temp reg.
  RVTEST_SIGUPD(x10, x5, x4, x21, I_andi_cg_cr_rs1_imm_edges_rs1val_0x80000000_immval_0x3, I_andi_cg_cr_rs1_imm_edges_rs1val_0x80000000_immval_0x3_str)
    1414:	00052203          	lw	x4,0(x10)
    1418:	01520863          	beq	x4,x21,1428 <I_andi_cg_cr_rs1_imm_edges_rs1val_0x80000000_immval_0x3+0x18>
    141c:	0a0022ef          	jal	x5,34bc <failedtest_x5_x4>
    1420:	00001410          	.word	0x00001410
    1424:	0000a8d2          	.word	0x0000a8d2
    1428:	00450513          	addi	x10,x10,4

# Testcase cr_rs1_imm_edges (rs1 = 0x80000000, imm = 4)
  RVTEST_TESTDATA_LOAD_INT(x23, x12) # load rs1: x12 = 0x80000000
    142c:	000ba603          	lw	x12,0(x23)
    1430:	004b8b93          	addi	x23,x23,4

00001434 <I_andi_cg_cr_rs1_imm_edges_rs1val_0x80000000_immval_0x4>:
I_andi_cg_cr_rs1_imm_edges_rs1val_0x80000000_immval_0x4:
  andi x29, x12, 4 # perform operation
    1434:	00467e93          	andi	x29,x12,4
  # Check if x29 contains the expected result. x10 is the signature ptr, x5 is the link ptr, x4 is a temp reg.
  RVTEST_SIGUPD(x10, x5, x4, x29, I_andi_cg_cr_rs1_imm_edges_rs1val_0x80000000_immval_0x4, I_andi_cg_cr_rs1_imm_edges_rs1val_0x80000000_immval_0x4_str)
    1438:	00052203          	lw	x4,0(x10)
    143c:	01d20863          	beq	x4,x29,144c <I_andi_cg_cr_rs1_imm_edges_rs1val_0x80000000_immval_0x4+0x18>
    1440:	07c022ef          	jal	x5,34bc <failedtest_x5_x4>
    1444:	00001434          	.word	0x00001434
    1448:	0000a927          	.word	0x0000a927
    144c:	00450513          	addi	x10,x10,4

# Testcase cr_rs1_imm_edges (rs1 = 0x80000000, imm = 8)
  RVTEST_TESTDATA_LOAD_INT(x23, x11) # load rs1: x11 = 0x80000000
    1450:	000ba583          	lw	x11,0(x23)
    1454:	004b8b93          	addi	x23,x23,4

00001458 <I_andi_cg_cr_rs1_imm_edges_rs1val_0x80000000_immval_0x8>:
I_andi_cg_cr_rs1_imm_edges_rs1val_0x80000000_immval_0x8:
  andi x9, x11, 8 # perform operation
    1458:	0085f493          	andi	x9,x11,8
  # Check if x9 contains the expected result. x10 is the signature ptr, x5 is the link ptr, x4 is a temp reg.
  RVTEST_SIGUPD(x10, x5, x4, x9, I_andi_cg_cr_rs1_imm_edges_rs1val_0x80000000_immval_0x8, I_andi_cg_cr_rs1_imm_edges_rs1val_0x80000000_immval_0x8_str)
    145c:	00052203          	lw	x4,0(x10)
    1460:	00920863          	beq	x4,x9,1470 <I_andi_cg_cr_rs1_imm_edges_rs1val_0x80000000_immval_0x8+0x18>
    1464:	058022ef          	jal	x5,34bc <failedtest_x5_x4>
    1468:	00001458          	.word	0x00001458
    146c:	0000a97c          	.word	0x0000a97c
    1470:	00450513          	addi	x10,x10,4

# Testcase cr_rs1_imm_edges (rs1 = 0x80000000, imm = 16)
  RVTEST_TESTDATA_LOAD_INT(x23, x24) # load rs1: x24 = 0x80000000
    1474:	000bac03          	lw	x24,0(x23)
    1478:	004b8b93          	addi	x23,x23,4

0000147c <I_andi_cg_cr_rs1_imm_edges_rs1val_0x80000000_immval_0x10>:
I_andi_cg_cr_rs1_imm_edges_rs1val_0x80000000_immval_0x10:
  andi x18, x24, 16 # perform operation
    147c:	010c7913          	andi	x18,x24,16
  # Check if x18 contains the expected result. x10 is the signature ptr, x5 is the link ptr, x4 is a temp reg.
  RVTEST_SIGUPD(x10, x5, x4, x18, I_andi_cg_cr_rs1_imm_edges_rs1val_0x80000000_immval_0x10, I_andi_cg_cr_rs1_imm_edges_rs1val_0x80000000_immval_0x10_str)
    1480:	00052203          	lw	x4,0(x10)
    1484:	01220863          	beq	x4,x18,1494 <I_andi_cg_cr_rs1_imm_edges_rs1val_0x80000000_immval_0x10+0x18>
    1488:	034022ef          	jal	x5,34bc <failedtest_x5_x4>
    148c:	0000147c          	.word	0x0000147c
    1490:	0000a9d1          	.word	0x0000a9d1
    1494:	00450513          	addi	x10,x10,4

# Testcase cr_rs1_imm_edges (rs1 = 0x80000000, imm = 32)
  RVTEST_TESTDATA_LOAD_INT(x23, x26) # load rs1: x26 = 0x80000000
    1498:	000bad03          	lw	x26,0(x23)
    149c:	004b8b93          	addi	x23,x23,4

000014a0 <I_andi_cg_cr_rs1_imm_edges_rs1val_0x80000000_immval_0x20>:
I_andi_cg_cr_rs1_imm_edges_rs1val_0x80000000_immval_0x20:
  andi x13, x26, 32 # perform operation
    14a0:	020d7693          	andi	x13,x26,32
  # Check if x13 contains the expected result. x10 is the signature ptr, x5 is the link ptr, x4 is a temp reg.
  RVTEST_SIGUPD(x10, x5, x4, x13, I_andi_cg_cr_rs1_imm_edges_rs1val_0x80000000_immval_0x20, I_andi_cg_cr_rs1_imm_edges_rs1val_0x80000000_immval_0x20_str)
    14a4:	00052203          	lw	x4,0(x10)
    14a8:	00d20863          	beq	x4,x13,14b8 <I_andi_cg_cr_rs1_imm_edges_rs1val_0x80000000_immval_0x20+0x18>
    14ac:	010022ef          	jal	x5,34bc <failedtest_x5_x4>
    14b0:	000014a0          	.word	0x000014a0
    14b4:	0000aa27          	.word	0x0000aa27
    14b8:	00450513          	addi	x10,x10,4

# Testcase cr_rs1_imm_edges (rs1 = 0x80000000, imm = 64)
  RVTEST_TESTDATA_LOAD_INT(x23, x9) # load rs1: x9 = 0x80000000
    14bc:	000ba483          	lw	x9,0(x23)
    14c0:	004b8b93          	addi	x23,x23,4

000014c4 <I_andi_cg_cr_rs1_imm_edges_rs1val_0x80000000_immval_0x40>:
I_andi_cg_cr_rs1_imm_edges_rs1val_0x80000000_immval_0x40:
  andi x13, x9, 64 # perform operation
    14c4:	0404f693          	andi	x13,x9,64
  # Check if x13 contains the expected result. x10 is the signature ptr, x5 is the link ptr, x4 is a temp reg.
  RVTEST_SIGUPD(x10, x5, x4, x13, I_andi_cg_cr_rs1_imm_edges_rs1val_0x80000000_immval_0x40, I_andi_cg_cr_rs1_imm_edges_rs1val_0x80000000_immval_0x40_str)
    14c8:	00052203          	lw	x4,0(x10)
    14cc:	00d20863          	beq	x4,x13,14dc <I_andi_cg_cr_rs1_imm_edges_rs1val_0x80000000_immval_0x40+0x18>
    14d0:	7ed012ef          	jal	x5,34bc <failedtest_x5_x4>
    14d4:	000014c4          	.word	0x000014c4
    14d8:	0000aa7d          	.word	0x0000aa7d
    14dc:	00450513          	addi	x10,x10,4

# Testcase cr_rs1_imm_edges (rs1 = 0x80000000, imm = 128)
  RVTEST_TESTDATA_LOAD_INT(x23, x17) # load rs1: x17 = 0x80000000
    14e0:	000ba883          	lw	x17,0(x23)
    14e4:	004b8b93          	addi	x23,x23,4

000014e8 <I_andi_cg_cr_rs1_imm_edges_rs1val_0x80000000_immval_0x80>:
I_andi_cg_cr_rs1_imm_edges_rs1val_0x80000000_immval_0x80:
  andi x6, x17, 128 # perform operation
    14e8:	0808f313          	andi	x6,x17,128
  # Check if x6 contains the expected result. x10 is the signature ptr, x5 is the link ptr, x4 is a temp reg.
  RVTEST_SIGUPD(x10, x5, x4, x6, I_andi_cg_cr_rs1_imm_edges_rs1val_0x80000000_immval_0x80, I_andi_cg_cr_rs1_imm_edges_rs1val_0x80000000_immval_0x80_str)
    14ec:	00052203          	lw	x4,0(x10)
    14f0:	00620863          	beq	x4,x6,1500 <I_andi_cg_cr_rs1_imm_edges_rs1val_0x80000000_immval_0x80+0x18>
    14f4:	7c9012ef          	jal	x5,34bc <failedtest_x5_x4>
    14f8:	000014e8          	.word	0x000014e8
    14fc:	0000aad3          	.word	0x0000aad3
    1500:	00450513          	addi	x10,x10,4

# Testcase cr_rs1_imm_edges (rs1 = 0x80000000, imm = 256)
  RVTEST_TESTDATA_LOAD_INT(x23, x25) # load rs1: x25 = 0x80000000
    1504:	000bac83          	lw	x25,0(x23)
    1508:	004b8b93          	addi	x23,x23,4

0000150c <I_andi_cg_cr_rs1_imm_edges_rs1val_0x80000000_immval_0x100>:
I_andi_cg_cr_rs1_imm_edges_rs1val_0x80000000_immval_0x100:
  andi x28, x25, 256 # perform operation
    150c:	100cfe13          	andi	x28,x25,256
  # Check if x28 contains the expected result. x10 is the signature ptr, x5 is the link ptr, x4 is a temp reg.
  RVTEST_SIGUPD(x10, x5, x4, x28, I_andi_cg_cr_rs1_imm_edges_rs1val_0x80000000_immval_0x100, I_andi_cg_cr_rs1_imm_edges_rs1val_0x80000000_immval_0x100_str)
    1510:	00052203          	lw	x4,0(x10)
    1514:	01c20863          	beq	x4,x28,1524 <I_andi_cg_cr_rs1_imm_edges_rs1val_0x80000000_immval_0x100+0x18>
    1518:	7a5012ef          	jal	x5,34bc <failedtest_x5_x4>
    151c:	0000150c          	.word	0x0000150c
    1520:	0000ab29          	.word	0x0000ab29
    1524:	00450513          	addi	x10,x10,4

# Testcase cr_rs1_imm_edges (rs1 = 0x80000000, imm = 512)
  RVTEST_TESTDATA_LOAD_INT(x23, x6) # load rs1: x6 = 0x80000000
    1528:	000ba303          	lw	x6,0(x23)
    152c:	004b8b93          	addi	x23,x23,4

00001530 <I_andi_cg_cr_rs1_imm_edges_rs1val_0x80000000_immval_0x200>:
I_andi_cg_cr_rs1_imm_edges_rs1val_0x80000000_immval_0x200:
  andi x24, x6, 512 # perform operation
    1530:	20037c13          	andi	x24,x6,512
  # Check if x24 contains the expected result. x10 is the signature ptr, x5 is the link ptr, x4 is a temp reg.
  RVTEST_SIGUPD(x10, x5, x4, x24, I_andi_cg_cr_rs1_imm_edges_rs1val_0x80000000_immval_0x200, I_andi_cg_cr_rs1_imm_edges_rs1val_0x80000000_immval_0x200_str)
    1534:	00052203          	lw	x4,0(x10)
    1538:	01820863          	beq	x4,x24,1548 <I_andi_cg_cr_rs1_imm_edges_rs1val_0x80000000_immval_0x200+0x18>
    153c:	781012ef          	jal	x5,34bc <failedtest_x5_x4>
    1540:	00001530          	.word	0x00001530
    1544:	0000ab80          	.word	0x0000ab80
    1548:	00450513          	addi	x10,x10,4

# Testcase cr_rs1_imm_edges (rs1 = 0x80000000, imm = 1023)
  RVTEST_TESTDATA_LOAD_INT(x23, x11) # load rs1: x11 = 0x80000000
    154c:	000ba583          	lw	x11,0(x23)
    1550:	004b8b93          	addi	x23,x23,4

00001554 <I_andi_cg_cr_rs1_imm_edges_rs1val_0x80000000_immval_0x3ff>:
I_andi_cg_cr_rs1_imm_edges_rs1val_0x80000000_immval_0x3ff:
  andi x16, x11, 1023 # perform operation
    1554:	3ff5f813          	andi	x16,x11,1023
  # Check if x16 contains the expected result. x10 is the signature ptr, x5 is the link ptr, x4 is a temp reg.
  RVTEST_SIGUPD(x10, x5, x4, x16, I_andi_cg_cr_rs1_imm_edges_rs1val_0x80000000_immval_0x3ff, I_andi_cg_cr_rs1_imm_edges_rs1val_0x80000000_immval_0x3ff_str)
    1558:	00052203          	lw	x4,0(x10)
    155c:	01020863          	beq	x4,x16,156c <I_andi_cg_cr_rs1_imm_edges_rs1val_0x80000000_immval_0x3ff+0x18>
    1560:	75d012ef          	jal	x5,34bc <failedtest_x5_x4>
    1564:	00001554          	.word	0x00001554
    1568:	0000abd7          	.word	0x0000abd7
    156c:	00450513          	addi	x10,x10,4

# Testcase cr_rs1_imm_edges (rs1 = 0x80000000, imm = 1024)
  RVTEST_TESTDATA_LOAD_INT(x23, x27) # load rs1: x27 = 0x80000000
    1570:	000bad83          	lw	x27,0(x23)
    1574:	004b8b93          	addi	x23,x23,4

00001578 <I_andi_cg_cr_rs1_imm_edges_rs1val_0x80000000_immval_0x400>:
I_andi_cg_cr_rs1_imm_edges_rs1val_0x80000000_immval_0x400:
  andi x14, x27, 1024 # perform operation
    1578:	400df713          	andi	x14,x27,1024
  # Check if x14 contains the expected result. x10 is the signature ptr, x5 is the link ptr, x4 is a temp reg.
  RVTEST_SIGUPD(x10, x5, x4, x14, I_andi_cg_cr_rs1_imm_edges_rs1val_0x80000000_immval_0x400, I_andi_cg_cr_rs1_imm_edges_rs1val_0x80000000_immval_0x400_str)
    157c:	00052203          	lw	x4,0(x10)
    1580:	00e20863          	beq	x4,x14,1590 <I_andi_cg_cr_rs1_imm_edges_rs1val_0x80000000_immval_0x400+0x18>
    1584:	739012ef          	jal	x5,34bc <failedtest_x5_x4>
    1588:	00001578          	.word	0x00001578
    158c:	0000ac2e          	.word	0x0000ac2e
    1590:	00450513          	addi	x10,x10,4

# Testcase cr_rs1_imm_edges (rs1 = 0x80000000, imm = 1795)
  RVTEST_TESTDATA_LOAD_INT(x23, x8) # load rs1: x8 = 0x80000000
    1594:	000ba403          	lw	x8,0(x23)
    1598:	004b8b93          	addi	x23,x23,4

0000159c <I_andi_cg_cr_rs1_imm_edges_rs1val_0x80000000_immval_0x703>:
I_andi_cg_cr_rs1_imm_edges_rs1val_0x80000000_immval_0x703:
  andi x28, x8, 1795 # perform operation
    159c:	70347e13          	andi	x28,x8,1795
  # Check if x28 contains the expected result. x10 is the signature ptr, x5 is the link ptr, x4 is a temp reg.
  RVTEST_SIGUPD(x10, x5, x4, x28, I_andi_cg_cr_rs1_imm_edges_rs1val_0x80000000_immval_0x703, I_andi_cg_cr_rs1_imm_edges_rs1val_0x80000000_immval_0x703_str)
    15a0:	00052203          	lw	x4,0(x10)
    15a4:	01c20863          	beq	x4,x28,15b4 <I_andi_cg_cr_rs1_imm_edges_rs1val_0x80000000_immval_0x703+0x18>
    15a8:	715012ef          	jal	x5,34bc <failedtest_x5_x4>
    15ac:	0000159c          	.word	0x0000159c
    15b0:	0000ac85          	.word	0x0000ac85
    15b4:	00450513          	addi	x10,x10,4

# Testcase cr_rs1_imm_edges (rs1 = 0x80000000, imm = 2047)
  RVTEST_TESTDATA_LOAD_INT(x23, x2) # load rs1: x2 = 0x80000000
    15b8:	000ba103          	lw	x2,0(x23)
    15bc:	004b8b93          	addi	x23,x23,4

000015c0 <I_andi_cg_cr_rs1_imm_edges_rs1val_0x80000000_immval_0x7ff>:
I_andi_cg_cr_rs1_imm_edges_rs1val_0x80000000_immval_0x7ff:
  andi x19, x2, 2047 # perform operation
    15c0:	7ff17993          	andi	x19,x2,2047
  # Check if x19 contains the expected result. x10 is the signature ptr, x5 is the link ptr, x4 is a temp reg.
  RVTEST_SIGUPD(x10, x5, x4, x19, I_andi_cg_cr_rs1_imm_edges_rs1val_0x80000000_immval_0x7ff, I_andi_cg_cr_rs1_imm_edges_rs1val_0x80000000_immval_0x7ff_str)
    15c4:	00052203          	lw	x4,0(x10)
    15c8:	01320863          	beq	x4,x19,15d8 <I_andi_cg_cr_rs1_imm_edges_rs1val_0x80000000_immval_0x7ff+0x18>
    15cc:	6f1012ef          	jal	x5,34bc <failedtest_x5_x4>
    15d0:	000015c0          	.word	0x000015c0
    15d4:	0000acdc          	.word	0x0000acdc
    15d8:	00450513          	addi	x10,x10,4

# Testcase cr_rs1_imm_edges (rs1 = 0x80000000, imm = -2048)
  RVTEST_TESTDATA_LOAD_INT(x23, x19) # load rs1: x19 = 0x80000000
    15dc:	000ba983          	lw	x19,0(x23)
    15e0:	004b8b93          	addi	x23,x23,4

000015e4 <I_andi_cg_cr_rs1_imm_edges_rs1val_0x80000000_immval_m0x800>:
I_andi_cg_cr_rs1_imm_edges_rs1val_0x80000000_immval_m0x800:
  andi x21, x19, -2048 # perform operation
    15e4:	8009fa93          	andi	x21,x19,-2048
  # Check if x21 contains the expected result. x10 is the signature ptr, x5 is the link ptr, x4 is a temp reg.
  RVTEST_SIGUPD(x10, x5, x4, x21, I_andi_cg_cr_rs1_imm_edges_rs1val_0x80000000_immval_m0x800, I_andi_cg_cr_rs1_imm_edges_rs1val_0x80000000_immval_m0x800_str)
    15e8:	00052203          	lw	x4,0(x10)
    15ec:	01520863          	beq	x4,x21,15fc <I_andi_cg_cr_rs1_imm_edges_rs1val_0x80000000_immval_m0x800+0x18>
    15f0:	6cd012ef          	jal	x5,34bc <failedtest_x5_x4>
    15f4:	000015e4          	.word	0x000015e4
    15f8:	0000ad33          	.word	0x0000ad33
    15fc:	00450513          	addi	x10,x10,4

# Testcase cr_rs1_imm_edges (rs1 = 0x80000000, imm = -2047)
  RVTEST_TESTDATA_LOAD_INT(x23, x12) # load rs1: x12 = 0x80000000
    1600:	000ba603          	lw	x12,0(x23)
    1604:	004b8b93          	addi	x23,x23,4

00001608 <I_andi_cg_cr_rs1_imm_edges_rs1val_0x80000000_immval_m0x7ff>:
I_andi_cg_cr_rs1_imm_edges_rs1val_0x80000000_immval_m0x7ff:
  andi x8, x12, -2047 # perform operation
    1608:	80167413          	andi	x8,x12,-2047
  # Check if x8 contains the expected result. x10 is the signature ptr, x5 is the link ptr, x4 is a temp reg.
  RVTEST_SIGUPD(x10, x5, x4, x8, I_andi_cg_cr_rs1_imm_edges_rs1val_0x80000000_immval_m0x7ff, I_andi_cg_cr_rs1_imm_edges_rs1val_0x80000000_immval_m0x7ff_str)
    160c:	00052203          	lw	x4,0(x10)
    1610:	00820863          	beq	x4,x8,1620 <I_andi_cg_cr_rs1_imm_edges_rs1val_0x80000000_immval_m0x7ff+0x18>
    1614:	6a9012ef          	jal	x5,34bc <failedtest_x5_x4>
    1618:	00001608          	.word	0x00001608
    161c:	0000ad8b          	.word	0x0000ad8b
    1620:	00450513          	addi	x10,x10,4

# Testcase cr_rs1_imm_edges (rs1 = 0x80000000, imm = -2)
  RVTEST_TESTDATA_LOAD_INT(x23, x31) # load rs1: x31 = 0x80000000
    1624:	000baf83          	lw	x31,0(x23)
    1628:	004b8b93          	addi	x23,x23,4

0000162c <I_andi_cg_cr_rs1_imm_edges_rs1val_0x80000000_immval_m0x2>:
I_andi_cg_cr_rs1_imm_edges_rs1val_0x80000000_immval_m0x2:
  andi x19, x31, -2 # perform operation
    162c:	ffeff993          	andi	x19,x31,-2
  # Check if x19 contains the expected result. x10 is the signature ptr, x5 is the link ptr, x4 is a temp reg.
  RVTEST_SIGUPD(x10, x5, x4, x19, I_andi_cg_cr_rs1_imm_edges_rs1val_0x80000000_immval_m0x2, I_andi_cg_cr_rs1_imm_edges_rs1val_0x80000000_immval_m0x2_str)
    1630:	00052203          	lw	x4,0(x10)
    1634:	01320863          	beq	x4,x19,1644 <I_andi_cg_cr_rs1_imm_edges_rs1val_0x80000000_immval_m0x2+0x18>
    1638:	685012ef          	jal	x5,34bc <failedtest_x5_x4>
    163c:	0000162c          	.word	0x0000162c
    1640:	0000ade3          	.word	0x0000ade3
    1644:	00450513          	addi	x10,x10,4

# Testcase cr_rs1_imm_edges (rs1 = 0x80000000, imm = -1)
  RVTEST_TESTDATA_LOAD_INT(x23, x22) # load rs1: x22 = 0x80000000
    1648:	000bab03          	lw	x22,0(x23)
    164c:	004b8b93          	addi	x23,x23,4

00001650 <I_andi_cg_cr_rs1_imm_edges_rs1val_0x80000000_immval_m0x1>:
I_andi_cg_cr_rs1_imm_edges_rs1val_0x80000000_immval_m0x1:
  andi x14, x22, -1 # perform operation
    1650:	fffb7713          	andi	x14,x22,-1
  # Check if x14 contains the expected result. x10 is the signature ptr, x5 is the link ptr, x4 is a temp reg.
  RVTEST_SIGUPD(x10, x5, x4, x14, I_andi_cg_cr_rs1_imm_edges_rs1val_0x80000000_immval_m0x1, I_andi_cg_cr_rs1_imm_edges_rs1val_0x80000000_immval_m0x1_str)
    1654:	00052203          	lw	x4,0(x10)
    1658:	00e20863          	beq	x4,x14,1668 <I_andi_cg_cr_rs1_imm_edges_rs1val_0x80000000_immval_m0x1+0x18>
    165c:	661012ef          	jal	x5,34bc <failedtest_x5_x4>
    1660:	00001650          	.word	0x00001650
    1664:	0000ae39          	.word	0x0000ae39
    1668:	00450513          	addi	x10,x10,4

# Testcase cr_rs1_imm_edges (rs1 = 0x80000001, imm = 0)
  RVTEST_TESTDATA_LOAD_INT(x23, x22) # load rs1: x22 = 0x80000001
    166c:	000bab03          	lw	x22,0(x23)
    1670:	004b8b93          	addi	x23,x23,4

00001674 <I_andi_cg_cr_rs1_imm_edges_rs1val_0x80000001_immval_0x0>:
I_andi_cg_cr_rs1_imm_edges_rs1val_0x80000001_immval_0x0:
  andi x25, x22, 0 # perform operation
    1674:	000b7c93          	andi	x25,x22,0
  # Check if x25 contains the expected result. x10 is the signature ptr, x5 is the link ptr, x4 is a temp reg.
  RVTEST_SIGUPD(x10, x5, x4, x25, I_andi_cg_cr_rs1_imm_edges_rs1val_0x80000001_immval_0x0, I_andi_cg_cr_rs1_imm_edges_rs1val_0x80000001_immval_0x0_str)
    1678:	00052203          	lw	x4,0(x10)
    167c:	01920863          	beq	x4,x25,168c <I_andi_cg_cr_rs1_imm_edges_rs1val_0x80000001_immval_0x0+0x18>
    1680:	63d012ef          	jal	x5,34bc <failedtest_x5_x4>
    1684:	00001674          	.word	0x00001674
    1688:	0000ae8f          	.word	0x0000ae8f
    168c:	00450513          	addi	x10,x10,4

# Testcase cr_rs1_imm_edges (rs1 = 0x80000001, imm = 1)
  RVTEST_TESTDATA_LOAD_INT(x23, x27) # load rs1: x27 = 0x80000001
    1690:	000bad83          	lw	x27,0(x23)
    1694:	004b8b93          	addi	x23,x23,4

00001698 <I_andi_cg_cr_rs1_imm_edges_rs1val_0x80000001_immval_0x1>:
I_andi_cg_cr_rs1_imm_edges_rs1val_0x80000001_immval_0x1:
  andi x9, x27, 1 # perform operation
    1698:	001df493          	andi	x9,x27,1
  # Check if x9 contains the expected result. x10 is the signature ptr, x5 is the link ptr, x4 is a temp reg.
  RVTEST_SIGUPD(x10, x5, x4, x9, I_andi_cg_cr_rs1_imm_edges_rs1val_0x80000001_immval_0x1, I_andi_cg_cr_rs1_imm_edges_rs1val_0x80000001_immval_0x1_str)
    169c:	00052203          	lw	x4,0(x10)
    16a0:	00920863          	beq	x4,x9,16b0 <I_andi_cg_cr_rs1_imm_edges_rs1val_0x80000001_immval_0x1+0x18>
    16a4:	619012ef          	jal	x5,34bc <failedtest_x5_x4>
    16a8:	00001698          	.word	0x00001698
    16ac:	0000aee4          	.word	0x0000aee4
    16b0:	00450513          	addi	x10,x10,4

# Testcase cr_rs1_imm_edges (rs1 = 0x80000001, imm = 2)
  RVTEST_TESTDATA_LOAD_INT(x23, x17) # load rs1: x17 = 0x80000001
    16b4:	000ba883          	lw	x17,0(x23)
    16b8:	004b8b93          	addi	x23,x23,4

000016bc <I_andi_cg_cr_rs1_imm_edges_rs1val_0x80000001_immval_0x2>:
I_andi_cg_cr_rs1_imm_edges_rs1val_0x80000001_immval_0x2:
  andi x25, x17, 2 # perform operation
    16bc:	0028fc93          	andi	x25,x17,2
  # Check if x25 contains the expected result. x10 is the signature ptr, x5 is the link ptr, x4 is a temp reg.
  RVTEST_SIGUPD(x10, x5, x4, x25, I_andi_cg_cr_rs1_imm_edges_rs1val_0x80000001_immval_0x2, I_andi_cg_cr_rs1_imm_edges_rs1val_0x80000001_immval_0x2_str)
    16c0:	00052203          	lw	x4,0(x10)
    16c4:	01920863          	beq	x4,x25,16d4 <I_andi_cg_cr_rs1_imm_edges_rs1val_0x80000001_immval_0x2+0x18>
    16c8:	5f5012ef          	jal	x5,34bc <failedtest_x5_x4>
    16cc:	000016bc          	.word	0x000016bc
    16d0:	0000af39          	.word	0x0000af39
    16d4:	00450513          	addi	x10,x10,4

# Testcase cr_rs1_imm_edges (rs1 = 0x80000001, imm = 3)
  RVTEST_TESTDATA_LOAD_INT(x23, x13) # load rs1: x13 = 0x80000001
    16d8:	000ba683          	lw	x13,0(x23)
    16dc:	004b8b93          	addi	x23,x23,4

000016e0 <I_andi_cg_cr_rs1_imm_edges_rs1val_0x80000001_immval_0x3>:
I_andi_cg_cr_rs1_imm_edges_rs1val_0x80000001_immval_0x3:
  andi x30, x13, 3 # perform operation
    16e0:	0036ff13          	andi	x30,x13,3
  # Check if x30 contains the expected result. x10 is the signature ptr, x5 is the link ptr, x4 is a temp reg.
  RVTEST_SIGUPD(x10, x5, x4, x30, I_andi_cg_cr_rs1_imm_edges_rs1val_0x80000001_immval_0x3, I_andi_cg_cr_rs1_imm_edges_rs1val_0x80000001_immval_0x3_str)
    16e4:	00052203          	lw	x4,0(x10)
    16e8:	01e20863          	beq	x4,x30,16f8 <I_andi_cg_cr_rs1_imm_edges_rs1val_0x80000001_immval_0x3+0x18>
    16ec:	5d1012ef          	jal	x5,34bc <failedtest_x5_x4>
    16f0:	000016e0          	.word	0x000016e0
    16f4:	0000af8e          	.word	0x0000af8e
    16f8:	00450513          	addi	x10,x10,4

# Testcase cr_rs1_imm_edges (rs1 = 0x80000001, imm = 4)
  RVTEST_TESTDATA_LOAD_INT(x23, x15) # load rs1: x15 = 0x80000001
    16fc:	000ba783          	lw	x15,0(x23)
    1700:	004b8b93          	addi	x23,x23,4

00001704 <I_andi_cg_cr_rs1_imm_edges_rs1val_0x80000001_immval_0x4>:
I_andi_cg_cr_rs1_imm_edges_rs1val_0x80000001_immval_0x4:
  andi x25, x15, 4 # perform operation
    1704:	0047fc93          	andi	x25,x15,4
  # Check if x25 contains the expected result. x10 is the signature ptr, x5 is the link ptr, x4 is a temp reg.
  RVTEST_SIGUPD(x10, x5, x4, x25, I_andi_cg_cr_rs1_imm_edges_rs1val_0x80000001_immval_0x4, I_andi_cg_cr_rs1_imm_edges_rs1val_0x80000001_immval_0x4_str)
    1708:	00052203          	lw	x4,0(x10)
    170c:	01920863          	beq	x4,x25,171c <I_andi_cg_cr_rs1_imm_edges_rs1val_0x80000001_immval_0x4+0x18>
    1710:	5ad012ef          	jal	x5,34bc <failedtest_x5_x4>
    1714:	00001704          	.word	0x00001704
    1718:	0000afe3          	.word	0x0000afe3
    171c:	00450513          	addi	x10,x10,4

# Testcase cr_rs1_imm_edges (rs1 = 0x80000001, imm = 8)
  RVTEST_TESTDATA_LOAD_INT(x23, x18) # load rs1: x18 = 0x80000001
    1720:	000ba903          	lw	x18,0(x23)
    1724:	004b8b93          	addi	x23,x23,4

00001728 <I_andi_cg_cr_rs1_imm_edges_rs1val_0x80000001_immval_0x8>:
I_andi_cg_cr_rs1_imm_edges_rs1val_0x80000001_immval_0x8:
  andi x25, x18, 8 # perform operation
    1728:	00897c93          	andi	x25,x18,8
  # Check if x25 contains the expected result. x10 is the signature ptr, x5 is the link ptr, x4 is a temp reg.
  RVTEST_SIGUPD(x10, x5, x4, x25, I_andi_cg_cr_rs1_imm_edges_rs1val_0x80000001_immval_0x8, I_andi_cg_cr_rs1_imm_edges_rs1val_0x80000001_immval_0x8_str)
    172c:	00052203          	lw	x4,0(x10)
    1730:	01920863          	beq	x4,x25,1740 <I_andi_cg_cr_rs1_imm_edges_rs1val_0x80000001_immval_0x8+0x18>
    1734:	589012ef          	jal	x5,34bc <failedtest_x5_x4>
    1738:	00001728          	.word	0x00001728
    173c:	0000b038          	.word	0x0000b038
    1740:	00450513          	addi	x10,x10,4

# Testcase cr_rs1_imm_edges (rs1 = 0x80000001, imm = 16)
  RVTEST_TESTDATA_LOAD_INT(x23, x15) # load rs1: x15 = 0x80000001
    1744:	000ba783          	lw	x15,0(x23)
    1748:	004b8b93          	addi	x23,x23,4

0000174c <I_andi_cg_cr_rs1_imm_edges_rs1val_0x80000001_immval_0x10>:
I_andi_cg_cr_rs1_imm_edges_rs1val_0x80000001_immval_0x10:
  andi x3, x15, 16 # perform operation
    174c:	0107f193          	andi	x3,x15,16
  # Check if x3 contains the expected result. x10 is the signature ptr, x5 is the link ptr, x4 is a temp reg.
  RVTEST_SIGUPD(x10, x5, x4, x3, I_andi_cg_cr_rs1_imm_edges_rs1val_0x80000001_immval_0x10, I_andi_cg_cr_rs1_imm_edges_rs1val_0x80000001_immval_0x10_str)
    1750:	00052203          	lw	x4,0(x10)
    1754:	00320863          	beq	x4,x3,1764 <I_andi_cg_cr_rs1_imm_edges_rs1val_0x80000001_immval_0x10+0x18>
    1758:	565012ef          	jal	x5,34bc <failedtest_x5_x4>
    175c:	0000174c          	.word	0x0000174c
    1760:	0000b08d          	.word	0x0000b08d
    1764:	00450513          	addi	x10,x10,4

# Testcase cr_rs1_imm_edges (rs1 = 0x80000001, imm = 32)
  RVTEST_TESTDATA_LOAD_INT(x23, x27) # load rs1: x27 = 0x80000001
    1768:	000bad83          	lw	x27,0(x23)
    176c:	004b8b93          	addi	x23,x23,4

00001770 <I_andi_cg_cr_rs1_imm_edges_rs1val_0x80000001_immval_0x20>:
I_andi_cg_cr_rs1_imm_edges_rs1val_0x80000001_immval_0x20:
  andi x26, x27, 32 # perform operation
    1770:	020dfd13          	andi	x26,x27,32
  # Check if x26 contains the expected result. x10 is the signature ptr, x5 is the link ptr, x4 is a temp reg.
  RVTEST_SIGUPD(x10, x5, x4, x26, I_andi_cg_cr_rs1_imm_edges_rs1val_0x80000001_immval_0x20, I_andi_cg_cr_rs1_imm_edges_rs1val_0x80000001_immval_0x20_str)
    1774:	00052203          	lw	x4,0(x10)
    1778:	01a20863          	beq	x4,x26,1788 <I_andi_cg_cr_rs1_imm_edges_rs1val_0x80000001_immval_0x20+0x18>
    177c:	541012ef          	jal	x5,34bc <failedtest_x5_x4>
    1780:	00001770          	.word	0x00001770
    1784:	0000b0e3          	.word	0x0000b0e3
    1788:	00450513          	addi	x10,x10,4

# Testcase cr_rs1_imm_edges (rs1 = 0x80000001, imm = 64)
  RVTEST_TESTDATA_LOAD_INT(x23, x24) # load rs1: x24 = 0x80000001
    178c:	000bac03          	lw	x24,0(x23)
    1790:	004b8b93          	addi	x23,x23,4

00001794 <I_andi_cg_cr_rs1_imm_edges_rs1val_0x80000001_immval_0x40>:
I_andi_cg_cr_rs1_imm_edges_rs1val_0x80000001_immval_0x40:
  andi x30, x24, 64 # perform operation
    1794:	040c7f13          	andi	x30,x24,64
  # Check if x30 contains the expected result. x10 is the signature ptr, x5 is the link ptr, x4 is a temp reg.
  RVTEST_SIGUPD(x10, x5, x4, x30, I_andi_cg_cr_rs1_imm_edges_rs1val_0x80000001_immval_0x40, I_andi_cg_cr_rs1_imm_edges_rs1val_0x80000001_immval_0x40_str)
    1798:	00052203          	lw	x4,0(x10)
    179c:	01e20863          	beq	x4,x30,17ac <I_andi_cg_cr_rs1_imm_edges_rs1val_0x80000001_immval_0x40+0x18>
    17a0:	51d012ef          	jal	x5,34bc <failedtest_x5_x4>
    17a4:	00001794          	.word	0x00001794
    17a8:	0000b139          	.word	0x0000b139
    17ac:	00450513          	addi	x10,x10,4

# Testcase cr_rs1_imm_edges (rs1 = 0x80000001, imm = 128)
  RVTEST_TESTDATA_LOAD_INT(x23, x2) # load rs1: x2 = 0x80000001
    17b0:	000ba103          	lw	x2,0(x23)
    17b4:	004b8b93          	addi	x23,x23,4

000017b8 <I_andi_cg_cr_rs1_imm_edges_rs1val_0x80000001_immval_0x80>:
I_andi_cg_cr_rs1_imm_edges_rs1val_0x80000001_immval_0x80:
  andi x29, x2, 128 # perform operation
    17b8:	08017e93          	andi	x29,x2,128
  # Check if x29 contains the expected result. x10 is the signature ptr, x5 is the link ptr, x4 is a temp reg.
  RVTEST_SIGUPD(x10, x5, x4, x29, I_andi_cg_cr_rs1_imm_edges_rs1val_0x80000001_immval_0x80, I_andi_cg_cr_rs1_imm_edges_rs1val_0x80000001_immval_0x80_str)
    17bc:	00052203          	lw	x4,0(x10)
    17c0:	01d20863          	beq	x4,x29,17d0 <I_andi_cg_cr_rs1_imm_edges_rs1val_0x80000001_immval_0x80+0x18>
    17c4:	4f9012ef          	jal	x5,34bc <failedtest_x5_x4>
    17c8:	000017b8          	.word	0x000017b8
    17cc:	0000b18f          	.word	0x0000b18f
    17d0:	00450513          	addi	x10,x10,4

# Testcase cr_rs1_imm_edges (rs1 = 0x80000001, imm = 256)
  RVTEST_TESTDATA_LOAD_INT(x23, x18) # load rs1: x18 = 0x80000001
    17d4:	000ba903          	lw	x18,0(x23)
    17d8:	004b8b93          	addi	x23,x23,4

000017dc <I_andi_cg_cr_rs1_imm_edges_rs1val_0x80000001_immval_0x100>:
I_andi_cg_cr_rs1_imm_edges_rs1val_0x80000001_immval_0x100:
  andi x1, x18, 256 # perform operation
    17dc:	10097093          	andi	x1,x18,256
  # Check if x1 contains the expected result. x10 is the signature ptr, x5 is the link ptr, x4 is a temp reg.
  RVTEST_SIGUPD(x10, x5, x4, x1, I_andi_cg_cr_rs1_imm_edges_rs1val_0x80000001_immval_0x100, I_andi_cg_cr_rs1_imm_edges_rs1val_0x80000001_immval_0x100_str)
    17e0:	00052203          	lw	x4,0(x10)
    17e4:	00120863          	beq	x4,x1,17f4 <I_andi_cg_cr_rs1_imm_edges_rs1val_0x80000001_immval_0x100+0x18>
    17e8:	4d5012ef          	jal	x5,34bc <failedtest_x5_x4>
    17ec:	000017dc          	.word	0x000017dc
    17f0:	0000b1e5          	.word	0x0000b1e5
    17f4:	00450513          	addi	x10,x10,4

# Testcase cr_rs1_imm_edges (rs1 = 0x80000001, imm = 512)
  RVTEST_TESTDATA_LOAD_INT(x23, x29) # load rs1: x29 = 0x80000001
    17f8:	000bae83          	lw	x29,0(x23)
    17fc:	004b8b93          	addi	x23,x23,4

00001800 <I_andi_cg_cr_rs1_imm_edges_rs1val_0x80000001_immval_0x200>:
I_andi_cg_cr_rs1_imm_edges_rs1val_0x80000001_immval_0x200:
  andi x30, x29, 512 # perform operation
    1800:	200eff13          	andi	x30,x29,512
  # Check if x30 contains the expected result. x10 is the signature ptr, x5 is the link ptr, x4 is a temp reg.
  RVTEST_SIGUPD(x10, x5, x4, x30, I_andi_cg_cr_rs1_imm_edges_rs1val_0x80000001_immval_0x200, I_andi_cg_cr_rs1_imm_edges_rs1val_0x80000001_immval_0x200_str)
    1804:	00052203          	lw	x4,0(x10)
    1808:	01e20863          	beq	x4,x30,1818 <I_andi_cg_cr_rs1_imm_edges_rs1val_0x80000001_immval_0x200+0x18>
    180c:	4b1012ef          	jal	x5,34bc <failedtest_x5_x4>
    1810:	00001800          	.word	0x00001800
    1814:	0000b23c          	.word	0x0000b23c
    1818:	00450513          	addi	x10,x10,4

# Testcase cr_rs1_imm_edges (rs1 = 0x80000001, imm = 1023)
  RVTEST_TESTDATA_LOAD_INT(x23, x3) # load rs1: x3 = 0x80000001
    181c:	000ba183          	lw	x3,0(x23)
    1820:	004b8b93          	addi	x23,x23,4

00001824 <I_andi_cg_cr_rs1_imm_edges_rs1val_0x80000001_immval_0x3ff>:
I_andi_cg_cr_rs1_imm_edges_rs1val_0x80000001_immval_0x3ff:
  andi x21, x3, 1023 # perform operation
    1824:	3ff1fa93          	andi	x21,x3,1023
  # Check if x21 contains the expected result. x10 is the signature ptr, x5 is the link ptr, x4 is a temp reg.
  RVTEST_SIGUPD(x10, x5, x4, x21, I_andi_cg_cr_rs1_imm_edges_rs1val_0x80000001_immval_0x3ff, I_andi_cg_cr_rs1_imm_edges_rs1val_0x80000001_immval_0x3ff_str)
    1828:	00052203          	lw	x4,0(x10)
    182c:	01520863          	beq	x4,x21,183c <I_andi_cg_cr_rs1_imm_edges_rs1val_0x80000001_immval_0x3ff+0x18>
    1830:	48d012ef          	jal	x5,34bc <failedtest_x5_x4>
    1834:	00001824          	.word	0x00001824
    1838:	0000b293          	.word	0x0000b293
    183c:	00450513          	addi	x10,x10,4

# Testcase cr_rs1_imm_edges (rs1 = 0x80000001, imm = 1024)
  RVTEST_TESTDATA_LOAD_INT(x23, x1) # load rs1: x1 = 0x80000001
    1840:	000ba083          	lw	x1,0(x23)
    1844:	004b8b93          	addi	x23,x23,4

00001848 <I_andi_cg_cr_rs1_imm_edges_rs1val_0x80000001_immval_0x400>:
I_andi_cg_cr_rs1_imm_edges_rs1val_0x80000001_immval_0x400:
  andi x25, x1, 1024 # perform operation
    1848:	4000fc93          	andi	x25,x1,1024
  # Check if x25 contains the expected result. x10 is the signature ptr, x5 is the link ptr, x4 is a temp reg.
  RVTEST_SIGUPD(x10, x5, x4, x25, I_andi_cg_cr_rs1_imm_edges_rs1val_0x80000001_immval_0x400, I_andi_cg_cr_rs1_imm_edges_rs1val_0x80000001_immval_0x400_str)
    184c:	00052203          	lw	x4,0(x10)
    1850:	01920863          	beq	x4,x25,1860 <I_andi_cg_cr_rs1_imm_edges_rs1val_0x80000001_immval_0x400+0x18>
    1854:	469012ef          	jal	x5,34bc <failedtest_x5_x4>
    1858:	00001848          	.word	0x00001848
    185c:	0000b2ea          	.word	0x0000b2ea
    1860:	00450513          	addi	x10,x10,4

# Testcase cr_rs1_imm_edges (rs1 = 0x80000001, imm = 1795)
  RVTEST_TESTDATA_LOAD_INT(x23, x8) # load rs1: x8 = 0x80000001
    1864:	000ba403          	lw	x8,0(x23)
    1868:	004b8b93          	addi	x23,x23,4

0000186c <I_andi_cg_cr_rs1_imm_edges_rs1val_0x80000001_immval_0x703>:
I_andi_cg_cr_rs1_imm_edges_rs1val_0x80000001_immval_0x703:
  andi x29, x8, 1795 # perform operation
    186c:	70347e93          	andi	x29,x8,1795
  # Check if x29 contains the expected result. x10 is the signature ptr, x5 is the link ptr, x4 is a temp reg.
  RVTEST_SIGUPD(x10, x5, x4, x29, I_andi_cg_cr_rs1_imm_edges_rs1val_0x80000001_immval_0x703, I_andi_cg_cr_rs1_imm_edges_rs1val_0x80000001_immval_0x703_str)
    1870:	00052203          	lw	x4,0(x10)
    1874:	01d20863          	beq	x4,x29,1884 <I_andi_cg_cr_rs1_imm_edges_rs1val_0x80000001_immval_0x703+0x18>
    1878:	445012ef          	jal	x5,34bc <failedtest_x5_x4>
    187c:	0000186c          	.word	0x0000186c
    1880:	0000b341          	.word	0x0000b341
    1884:	00450513          	addi	x10,x10,4

# Testcase cr_rs1_imm_edges (rs1 = 0x80000001, imm = 2047)
  RVTEST_TESTDATA_LOAD_INT(x23, x31) # load rs1: x31 = 0x80000001
    1888:	000baf83          	lw	x31,0(x23)
    188c:	004b8b93          	addi	x23,x23,4

00001890 <I_andi_cg_cr_rs1_imm_edges_rs1val_0x80000001_immval_0x7ff>:
I_andi_cg_cr_rs1_imm_edges_rs1val_0x80000001_immval_0x7ff:
  andi x17, x31, 2047 # perform operation
    1890:	7ffff893          	andi	x17,x31,2047
  # Check if x17 contains the expected result. x10 is the signature ptr, x5 is the link ptr, x4 is a temp reg.
  RVTEST_SIGUPD(x10, x5, x4, x17, I_andi_cg_cr_rs1_imm_edges_rs1val_0x80000001_immval_0x7ff, I_andi_cg_cr_rs1_imm_edges_rs1val_0x80000001_immval_0x7ff_str)
    1894:	00052203          	lw	x4,0(x10)
    1898:	01120863          	beq	x4,x17,18a8 <I_andi_cg_cr_rs1_imm_edges_rs1val_0x80000001_immval_0x7ff+0x18>
    189c:	421012ef          	jal	x5,34bc <failedtest_x5_x4>
    18a0:	00001890          	.word	0x00001890
    18a4:	0000b398          	.word	0x0000b398
    18a8:	00450513          	addi	x10,x10,4

# Testcase cr_rs1_imm_edges (rs1 = 0x80000001, imm = -2048)
  RVTEST_TESTDATA_LOAD_INT(x23, x28) # load rs1: x28 = 0x80000001
    18ac:	000bae03          	lw	x28,0(x23)
    18b0:	004b8b93          	addi	x23,x23,4

000018b4 <I_andi_cg_cr_rs1_imm_edges_rs1val_0x80000001_immval_m0x800>:
I_andi_cg_cr_rs1_imm_edges_rs1val_0x80000001_immval_m0x800:
  andi x27, x28, -2048 # perform operation
    18b4:	800e7d93          	andi	x27,x28,-2048
  # Check if x27 contains the expected result. x10 is the signature ptr, x5 is the link ptr, x4 is a temp reg.
  RVTEST_SIGUPD(x10, x5, x4, x27, I_andi_cg_cr_rs1_imm_edges_rs1val_0x80000001_immval_m0x800, I_andi_cg_cr_rs1_imm_edges_rs1val_0x80000001_immval_m0x800_str)
    18b8:	00052203          	lw	x4,0(x10)
    18bc:	01b20863          	beq	x4,x27,18cc <I_andi_cg_cr_rs1_imm_edges_rs1val_0x80000001_immval_m0x800+0x18>
    18c0:	3fd012ef          	jal	x5,34bc <failedtest_x5_x4>
    18c4:	000018b4          	.word	0x000018b4
    18c8:	0000b3ef          	.word	0x0000b3ef
    18cc:	00450513          	addi	x10,x10,4

# Testcase cr_rs1_imm_edges (rs1 = 0x80000001, imm = -2047)
  RVTEST_TESTDATA_LOAD_INT(x23, x21) # load rs1: x21 = 0x80000001
    18d0:	000baa83          	lw	x21,0(x23)
    18d4:	004b8b93          	addi	x23,x23,4

000018d8 <I_andi_cg_cr_rs1_imm_edges_rs1val_0x80000001_immval_m0x7ff>:
I_andi_cg_cr_rs1_imm_edges_rs1val_0x80000001_immval_m0x7ff:
  andi x2, x21, -2047 # perform operation
    18d8:	801af113          	andi	x2,x21,-2047
  # Check if x2 contains the expected result. x10 is the signature ptr, x5 is the link ptr, x4 is a temp reg.
  RVTEST_SIGUPD(x10, x5, x4, x2, I_andi_cg_cr_rs1_imm_edges_rs1val_0x80000001_immval_m0x7ff, I_andi_cg_cr_rs1_imm_edges_rs1val_0x80000001_immval_m0x7ff_str)
    18dc:	00052203          	lw	x4,0(x10)
    18e0:	00220863          	beq	x4,x2,18f0 <I_andi_cg_cr_rs1_imm_edges_rs1val_0x80000001_immval_m0x7ff+0x18>
    18e4:	3d9012ef          	jal	x5,34bc <failedtest_x5_x4>
    18e8:	000018d8          	.word	0x000018d8
    18ec:	0000b447          	.word	0x0000b447
    18f0:	00450513          	addi	x10,x10,4

# Testcase cr_rs1_imm_edges (rs1 = 0x80000001, imm = -2)
  RVTEST_TESTDATA_LOAD_INT(x23, x21) # load rs1: x21 = 0x80000001
    18f4:	000baa83          	lw	x21,0(x23)
    18f8:	004b8b93          	addi	x23,x23,4

000018fc <I_andi_cg_cr_rs1_imm_edges_rs1val_0x80000001_immval_m0x2>:
I_andi_cg_cr_rs1_imm_edges_rs1val_0x80000001_immval_m0x2:
  andi x20, x21, -2 # perform operation
    18fc:	ffeafa13          	andi	x20,x21,-2
  # Check if x20 contains the expected result. x10 is the signature ptr, x5 is the link ptr, x4 is a temp reg.
  RVTEST_SIGUPD(x10, x5, x4, x20, I_andi_cg_cr_rs1_imm_edges_rs1val_0x80000001_immval_m0x2, I_andi_cg_cr_rs1_imm_edges_rs1val_0x80000001_immval_m0x2_str)
    1900:	00052203          	lw	x4,0(x10)
    1904:	01420863          	beq	x4,x20,1914 <I_andi_cg_cr_rs1_imm_edges_rs1val_0x80000001_immval_m0x2+0x18>
    1908:	3b5012ef          	jal	x5,34bc <failedtest_x5_x4>
    190c:	000018fc          	.word	0x000018fc
    1910:	0000b49f          	.word	0x0000b49f
    1914:	00450513          	addi	x10,x10,4

# Testcase cr_rs1_imm_edges (rs1 = 0x80000001, imm = -1)
  RVTEST_TESTDATA_LOAD_INT(x23, x2) # load rs1: x2 = 0x80000001
    1918:	000ba103          	lw	x2,0(x23)
    191c:	004b8b93          	addi	x23,x23,4

00001920 <I_andi_cg_cr_rs1_imm_edges_rs1val_0x80000001_immval_m0x1>:
I_andi_cg_cr_rs1_imm_edges_rs1val_0x80000001_immval_m0x1:
  andi x6, x2, -1 # perform operation
    1920:	fff17313          	andi	x6,x2,-1
  # Check if x6 contains the expected result. x10 is the signature ptr, x5 is the link ptr, x4 is a temp reg.
  RVTEST_SIGUPD(x10, x5, x4, x6, I_andi_cg_cr_rs1_imm_edges_rs1val_0x80000001_immval_m0x1, I_andi_cg_cr_rs1_imm_edges_rs1val_0x80000001_immval_m0x1_str)
    1924:	00052203          	lw	x4,0(x10)
    1928:	00620863          	beq	x4,x6,1938 <I_andi_cg_cr_rs1_imm_edges_rs1val_0x80000001_immval_m0x1+0x18>
    192c:	391012ef          	jal	x5,34bc <failedtest_x5_x4>
    1930:	00001920          	.word	0x00001920
    1934:	0000b4f5          	.word	0x0000b4f5
    1938:	00450513          	addi	x10,x10,4

# Testcase cr_rs1_imm_edges (rs1 = 0x7fffffff, imm = 0)
  RVTEST_TESTDATA_LOAD_INT(x23, x11) # load rs1: x11 = 0x7fffffff
    193c:	000ba583          	lw	x11,0(x23)
    1940:	004b8b93          	addi	x23,x23,4

00001944 <I_andi_cg_cr_rs1_imm_edges_rs1val_0x7fffffff_immval_0x0>:
I_andi_cg_cr_rs1_imm_edges_rs1val_0x7fffffff_immval_0x0:
  andi x8, x11, 0 # perform operation
    1944:	0005f413          	andi	x8,x11,0
  # Check if x8 contains the expected result. x10 is the signature ptr, x5 is the link ptr, x4 is a temp reg.
  RVTEST_SIGUPD(x10, x5, x4, x8, I_andi_cg_cr_rs1_imm_edges_rs1val_0x7fffffff_immval_0x0, I_andi_cg_cr_rs1_imm_edges_rs1val_0x7fffffff_immval_0x0_str)
    1948:	00052203          	lw	x4,0(x10)
    194c:	00820863          	beq	x4,x8,195c <I_andi_cg_cr_rs1_imm_edges_rs1val_0x7fffffff_immval_0x0+0x18>
    1950:	36d012ef          	jal	x5,34bc <failedtest_x5_x4>
    1954:	00001944          	.word	0x00001944
    1958:	0000b54b          	.word	0x0000b54b
    195c:	00450513          	addi	x10,x10,4

# Testcase cr_rs1_imm_edges (rs1 = 0x7fffffff, imm = 1)
  RVTEST_TESTDATA_LOAD_INT(x23, x28) # load rs1: x28 = 0x7fffffff
    1960:	000bae03          	lw	x28,0(x23)
    1964:	004b8b93          	addi	x23,x23,4

00001968 <I_andi_cg_cr_rs1_imm_edges_rs1val_0x7fffffff_immval_0x1>:
I_andi_cg_cr_rs1_imm_edges_rs1val_0x7fffffff_immval_0x1:
  andi x7, x28, 1 # perform operation
    1968:	001e7393          	andi	x7,x28,1
  # Check if x7 contains the expected result. x10 is the signature ptr, x5 is the link ptr, x4 is a temp reg.
  RVTEST_SIGUPD(x10, x5, x4, x7, I_andi_cg_cr_rs1_imm_edges_rs1val_0x7fffffff_immval_0x1, I_andi_cg_cr_rs1_imm_edges_rs1val_0x7fffffff_immval_0x1_str)
    196c:	00052203          	lw	x4,0(x10)
    1970:	00720863          	beq	x4,x7,1980 <I_andi_cg_cr_rs1_imm_edges_rs1val_0x7fffffff_immval_0x1+0x18>
    1974:	349012ef          	jal	x5,34bc <failedtest_x5_x4>
    1978:	00001968          	.word	0x00001968
    197c:	0000b5a0          	.word	0x0000b5a0
    1980:	00450513          	addi	x10,x10,4

# Testcase cr_rs1_imm_edges (rs1 = 0x7fffffff, imm = 2)
  RVTEST_TESTDATA_LOAD_INT(x23, x8) # load rs1: x8 = 0x7fffffff
    1984:	000ba403          	lw	x8,0(x23)
    1988:	004b8b93          	addi	x23,x23,4

0000198c <I_andi_cg_cr_rs1_imm_edges_rs1val_0x7fffffff_immval_0x2>:
I_andi_cg_cr_rs1_imm_edges_rs1val_0x7fffffff_immval_0x2:
  andi x29, x8, 2 # perform operation
    198c:	00247e93          	andi	x29,x8,2
  # Check if x29 contains the expected result. x10 is the signature ptr, x5 is the link ptr, x4 is a temp reg.
  RVTEST_SIGUPD(x10, x5, x4, x29, I_andi_cg_cr_rs1_imm_edges_rs1val_0x7fffffff_immval_0x2, I_andi_cg_cr_rs1_imm_edges_rs1val_0x7fffffff_immval_0x2_str)
    1990:	00052203          	lw	x4,0(x10)
    1994:	01d20863          	beq	x4,x29,19a4 <I_andi_cg_cr_rs1_imm_edges_rs1val_0x7fffffff_immval_0x2+0x18>
    1998:	325012ef          	jal	x5,34bc <failedtest_x5_x4>
    199c:	0000198c          	.word	0x0000198c
    19a0:	0000b5f5          	.word	0x0000b5f5
    19a4:	00450513          	addi	x10,x10,4

# Testcase cr_rs1_imm_edges (rs1 = 0x7fffffff, imm = 3)
  RVTEST_TESTDATA_LOAD_INT(x23, x2) # load rs1: x2 = 0x7fffffff
    19a8:	000ba103          	lw	x2,0(x23)
    19ac:	004b8b93          	addi	x23,x23,4

000019b0 <I_andi_cg_cr_rs1_imm_edges_rs1val_0x7fffffff_immval_0x3>:
I_andi_cg_cr_rs1_imm_edges_rs1val_0x7fffffff_immval_0x3:
  andi x11, x2, 3 # perform operation
    19b0:	00317593          	andi	x11,x2,3
  # Check if x11 contains the expected result. x10 is the signature ptr, x5 is the link ptr, x4 is a temp reg.
  RVTEST_SIGUPD(x10, x5, x4, x11, I_andi_cg_cr_rs1_imm_edges_rs1val_0x7fffffff_immval_0x3, I_andi_cg_cr_rs1_imm_edges_rs1val_0x7fffffff_immval_0x3_str)
    19b4:	00052203          	lw	x4,0(x10)
    19b8:	00b20863          	beq	x4,x11,19c8 <I_andi_cg_cr_rs1_imm_edges_rs1val_0x7fffffff_immval_0x3+0x18>
    19bc:	301012ef          	jal	x5,34bc <failedtest_x5_x4>
    19c0:	000019b0          	.word	0x000019b0
    19c4:	0000b64a          	.word	0x0000b64a
    19c8:	00450513          	addi	x10,x10,4

# Testcase cr_rs1_imm_edges (rs1 = 0x7fffffff, imm = 4)
  RVTEST_TESTDATA_LOAD_INT(x23, x7) # load rs1: x7 = 0x7fffffff
    19cc:	000ba383          	lw	x7,0(x23)
    19d0:	004b8b93          	addi	x23,x23,4

000019d4 <I_andi_cg_cr_rs1_imm_edges_rs1val_0x7fffffff_immval_0x4>:
I_andi_cg_cr_rs1_imm_edges_rs1val_0x7fffffff_immval_0x4:
  andi x24, x7, 4 # perform operation
    19d4:	0043fc13          	andi	x24,x7,4
  # Check if x24 contains the expected result. x10 is the signature ptr, x5 is the link ptr, x4 is a temp reg.
