
/home/dev/github/clones/riscv-arch-test/work/rv32i-core/elfs/rv32i/I/I-auipc-00.elf:     file format elf32-littleriscv
/home/dev/github/clones/riscv-arch-test/work/rv32i-core/elfs/rv32i/I/I-auipc-00.elf
architecture: riscv:rv32, flags 0x00000112:
EXEC_P, HAS_SYMS, D_PAGED
start address 0x00000000

Program Header:
0x70000003 off    0x00016240 vaddr 0x00000000 paddr 0x00000000 align 2**0
         filesz 0x00000033 memsz 0x00000000 flags r--
    LOAD off    0x00001000 vaddr 0x00000000 paddr 0x00000000 align 2**12
         filesz 0x000021c0 memsz 0x000021c0 flags r-x
    LOAD off    0x00004000 vaddr 0x00004000 paddr 0x00004000 align 2**12
         filesz 0x00012240 memsz 0x00012240 flags rwx

Sections:
Idx Name          Size      VMA       LMA       File off  Algn
  0 .text.init    00000040  00000000  00000000  00001000  2**5
                  CONTENTS, ALLOC, LOAD, READONLY, CODE
  1 .text.rvtest  00002180  00000040  00000040  00001040  2**5
                  CONTENTS, ALLOC, LOAD, READONLY, CODE
  2 .data         00011600  00004000  00004000  00004000  2**8
                  CONTENTS, ALLOC, LOAD, DATA
  3 .text.rvmodel 00000240  00016000  00016000  00016000  2**5
                  CONTENTS, ALLOC, LOAD, READONLY, CODE
  4 .riscv.attributes 00000033  00000000  00000000  00016240  2**0
                  CONTENTS, READONLY
  5 .debug_line   00000378  00000000  00000000  00016273  2**0
                  CONTENTS, READONLY, DEBUGGING, OCTETS
  6 .debug_line_str 0000006b  00000000  00000000  000165eb  2**0
                  CONTENTS, READONLY, DEBUGGING, OCTETS
  7 .debug_info   00000023  00000000  00000000  00016656  2**0
                  CONTENTS, READONLY, DEBUGGING, OCTETS
  8 .debug_abbrev 00000012  00000000  00000000  00016679  2**0
                  CONTENTS, READONLY, DEBUGGING, OCTETS
  9 .debug_aranges 00000028  00000000  00000000  00016690  2**3
                  CONTENTS, READONLY, DEBUGGING, OCTETS
 10 .debug_str    00000077  00000000  00000000  000166b8  2**0
                  CONTENTS, READONLY, DEBUGGING, OCTETS
 11 .debug_rnglists 0000001a  00000000  00000000  0001672f  2**0
                  CONTENTS, READONLY, DEBUGGING, OCTETS
SYMBOL TABLE:
00000000 l    d  .text.init	00000000 .text.init
00000040 l    d  .text.rvtest	00000000 .text.rvtest
00004000 l    d  .data	00000000 .data
00016000 l    d  .text.rvmodel	00000000 .text.rvmodel
00000000 l    d  .riscv.attributes	00000000 .riscv.attributes
00000000 l    d  .debug_line	00000000 .debug_line
00000000 l    d  .debug_line_str	00000000 .debug_line_str
00000000 l    d  .debug_info	00000000 .debug_info
00000000 l    d  .debug_abbrev	00000000 .debug_abbrev
00000000 l    d  .debug_aranges	00000000 .debug_aranges
00000000 l    d  .debug_str	00000000 .debug_str
00000000 l    d  .debug_rnglists	00000000 .debug_rnglists
00000000 l    df *ABS*	00000000 ccslwHsM.o
00000003 l       *ABS*	00000000 MMODE_SIG
00000001 l       *ABS*	00000000 SMODE_SIG
00000001 l       *ABS*	00000000 HMODE_SIG
00000002 l       *ABS*	00000000 VMODE_SIG
00016000 l       .text.rvmodel	00000000 rvmodel_boot
00000040 l       .text.rvtest	00000000 I_auipc_cg_cp_rd_b0
0000073c l       .text.rvtest	00000000 failedtest_x5_x4
00004110 l       .data	00000000 I_auipc_cg_cp_rd_b0_str
0000005c l       .text.rvtest	00000000 I_auipc_cg_cp_rd_b1
0000413e l       .data	00000000 I_auipc_cg_cp_rd_b1_str
0000007c l       .text.rvtest	00000000 I_auipc_cg_cp_rd_b2
0000416c l       .data	00000000 I_auipc_cg_cp_rd_b2_str
0000009c l       .text.rvtest	00000000 I_auipc_cg_cp_rd_b3
0000419a l       .data	00000000 I_auipc_cg_cp_rd_b3_str
000000c0 l       .text.rvtest	00000000 I_auipc_cg_cp_rd_b4
00000754 l       .text.rvtest	00000000 failedtest_x8_x7
000041c8 l       .data	00000000 I_auipc_cg_cp_rd_b4_str
000000dc l       .text.rvtest	00000000 I_auipc_cg_cp_rd_b5
000041f6 l       .data	00000000 I_auipc_cg_cp_rd_b5_str
000000f8 l       .text.rvtest	00000000 I_auipc_cg_cp_rd_b6
00004224 l       .data	00000000 I_auipc_cg_cp_rd_b6_str
0000011c l       .text.rvtest	00000000 I_auipc_cg_cp_rd_b7
0000077c l       .text.rvtest	00000000 failedtest_x14_x13
00004252 l       .data	00000000 I_auipc_cg_cp_rd_b7_str
00000138 l       .text.rvtest	00000000 I_auipc_cg_cp_rd_b8
00004280 l       .data	00000000 I_auipc_cg_cp_rd_b8_str
00000154 l       .text.rvtest	00000000 I_auipc_cg_cp_rd_b9
000042ae l       .data	00000000 I_auipc_cg_cp_rd_b9_str
00000174 l       .text.rvtest	00000000 I_auipc_cg_cp_rd_b10
000042dd l       .data	00000000 I_auipc_cg_cp_rd_b10_str
00000190 l       .text.rvtest	00000000 I_auipc_cg_cp_rd_b11
0000430d l       .data	00000000 I_auipc_cg_cp_rd_b11_str
000001ac l       .text.rvtest	00000000 I_auipc_cg_cp_rd_b12
0000433d l       .data	00000000 I_auipc_cg_cp_rd_b12_str
000001d0 l       .text.rvtest	00000000 I_auipc_cg_cp_rd_b13
0000436d l       .data	00000000 I_auipc_cg_cp_rd_b13_str
000001ec l       .text.rvtest	00000000 I_auipc_cg_cp_rd_b14
0000439d l       .data	00000000 I_auipc_cg_cp_rd_b14_str
00000208 l       .text.rvtest	00000000 I_auipc_cg_cp_rd_b15
000043cd l       .data	00000000 I_auipc_cg_cp_rd_b15_str
00000224 l       .text.rvtest	00000000 I_auipc_cg_cp_rd_b16
000043fd l       .data	00000000 I_auipc_cg_cp_rd_b16_str
00000244 l       .text.rvtest	00000000 I_auipc_cg_cp_rd_b17
0000442d l       .data	00000000 I_auipc_cg_cp_rd_b17_str
00000260 l       .text.rvtest	00000000 I_auipc_cg_cp_rd_b18
0000445d l       .data	00000000 I_auipc_cg_cp_rd_b18_str
0000027c l       .text.rvtest	00000000 I_auipc_cg_cp_rd_b19
0000448d l       .data	00000000 I_auipc_cg_cp_rd_b19_str
0000029c l       .text.rvtest	00000000 I_auipc_cg_cp_rd_b20
000044bd l       .data	00000000 I_auipc_cg_cp_rd_b20_str
000002bc l       .text.rvtest	00000000 I_auipc_cg_cp_rd_b21
000044ed l       .data	00000000 I_auipc_cg_cp_rd_b21_str
000002d8 l       .text.rvtest	00000000 I_auipc_cg_cp_rd_b22
0000451d l       .data	00000000 I_auipc_cg_cp_rd_b22_str
000002f4 l       .text.rvtest	00000000 I_auipc_cg_cp_rd_b23
0000454d l       .data	00000000 I_auipc_cg_cp_rd_b23_str
00000310 l       .text.rvtest	00000000 I_auipc_cg_cp_rd_b24
0000457d l       .data	00000000 I_auipc_cg_cp_rd_b24_str
0000032c l       .text.rvtest	00000000 I_auipc_cg_cp_rd_b25
000045ad l       .data	00000000 I_auipc_cg_cp_rd_b25_str
00000348 l       .text.rvtest	00000000 I_auipc_cg_cp_rd_b26
000045dd l       .data	00000000 I_auipc_cg_cp_rd_b26_str
00000368 l       .text.rvtest	00000000 I_auipc_cg_cp_rd_b27
0000460d l       .data	00000000 I_auipc_cg_cp_rd_b27_str
00000388 l       .text.rvtest	00000000 I_auipc_cg_cp_rd_b28
0000463d l       .data	00000000 I_auipc_cg_cp_rd_b28_str
000003a4 l       .text.rvtest	00000000 I_auipc_cg_cp_rd_b29
0000466d l       .data	00000000 I_auipc_cg_cp_rd_b29_str
000003c0 l       .text.rvtest	00000000 I_auipc_cg_cp_rd_b30
0000469d l       .data	00000000 I_auipc_cg_cp_rd_b30_str
000003dc l       .text.rvtest	00000000 I_auipc_cg_cp_rd_b31
000046cd l       .data	00000000 I_auipc_cg_cp_rd_b31_str
000003f8 l       .text.rvtest	00000000 I_auipc_cg_cp_imm_edges_20bit_0x0
000046fd l       .data	00000000 I_auipc_cg_cp_imm_edges_20bit_0x0_str
00000414 l       .text.rvtest	00000000 I_auipc_cg_cp_imm_edges_20bit_0x1
0000473a l       .data	00000000 I_auipc_cg_cp_imm_edges_20bit_0x1_str
00000430 l       .text.rvtest	00000000 I_auipc_cg_cp_imm_edges_20bit_0x2
00004777 l       .data	00000000 I_auipc_cg_cp_imm_edges_20bit_0x2_str
0000044c l       .text.rvtest	00000000 I_auipc_cg_cp_imm_edges_20bit_0x3
000047b4 l       .data	00000000 I_auipc_cg_cp_imm_edges_20bit_0x3_str
00000468 l       .text.rvtest	00000000 I_auipc_cg_cp_imm_edges_20bit_0x4
000047f1 l       .data	00000000 I_auipc_cg_cp_imm_edges_20bit_0x4_str
00000484 l       .text.rvtest	00000000 I_auipc_cg_cp_imm_edges_20bit_0x8
0000482e l       .data	00000000 I_auipc_cg_cp_imm_edges_20bit_0x8_str
000004a0 l       .text.rvtest	00000000 I_auipc_cg_cp_imm_edges_20bit_0x10
0000486b l       .data	00000000 I_auipc_cg_cp_imm_edges_20bit_0x10_str
000004bc l       .text.rvtest	00000000 I_auipc_cg_cp_imm_edges_20bit_0x20
000048a9 l       .data	00000000 I_auipc_cg_cp_imm_edges_20bit_0x20_str
000004d8 l       .text.rvtest	00000000 I_auipc_cg_cp_imm_edges_20bit_0x40
000048e7 l       .data	00000000 I_auipc_cg_cp_imm_edges_20bit_0x40_str
000004f4 l       .text.rvtest	00000000 I_auipc_cg_cp_imm_edges_20bit_0x80
00004925 l       .data	00000000 I_auipc_cg_cp_imm_edges_20bit_0x80_str
00000510 l       .text.rvtest	00000000 I_auipc_cg_cp_imm_edges_20bit_0x100
00004963 l       .data	00000000 I_auipc_cg_cp_imm_edges_20bit_0x100_str
0000052c l       .text.rvtest	00000000 I_auipc_cg_cp_imm_edges_20bit_0x200
000049a2 l       .data	00000000 I_auipc_cg_cp_imm_edges_20bit_0x200_str
00000548 l       .text.rvtest	00000000 I_auipc_cg_cp_imm_edges_20bit_0x400
000049e1 l       .data	00000000 I_auipc_cg_cp_imm_edges_20bit_0x400_str
00000564 l       .text.rvtest	00000000 I_auipc_cg_cp_imm_edges_20bit_0x800
00004a20 l       .data	00000000 I_auipc_cg_cp_imm_edges_20bit_0x800_str
00000580 l       .text.rvtest	00000000 I_auipc_cg_cp_imm_edges_20bit_0x1000
00004a5f l       .data	00000000 I_auipc_cg_cp_imm_edges_20bit_0x1000_str
0000059c l       .text.rvtest	00000000 I_auipc_cg_cp_imm_edges_20bit_0x2000
00004a9f l       .data	00000000 I_auipc_cg_cp_imm_edges_20bit_0x2000_str
000005b8 l       .text.rvtest	00000000 I_auipc_cg_cp_imm_edges_20bit_0x4000
00004adf l       .data	00000000 I_auipc_cg_cp_imm_edges_20bit_0x4000_str
000005d4 l       .text.rvtest	00000000 I_auipc_cg_cp_imm_edges_20bit_0x8000
00004b1f l       .data	00000000 I_auipc_cg_cp_imm_edges_20bit_0x8000_str
000005f0 l       .text.rvtest	00000000 I_auipc_cg_cp_imm_edges_20bit_0x10000
00004b5f l       .data	00000000 I_auipc_cg_cp_imm_edges_20bit_0x10000_str
0000060c l       .text.rvtest	00000000 I_auipc_cg_cp_imm_edges_20bit_0x20000
00004ba0 l       .data	00000000 I_auipc_cg_cp_imm_edges_20bit_0x20000_str
00000628 l       .text.rvtest	00000000 I_auipc_cg_cp_imm_edges_20bit_0x40000
00004be1 l       .data	00000000 I_auipc_cg_cp_imm_edges_20bit_0x40000_str
00000644 l       .text.rvtest	00000000 I_auipc_cg_cp_imm_edges_20bit_0x7fffe
00004c22 l       .data	00000000 I_auipc_cg_cp_imm_edges_20bit_0x7fffe_str
00000660 l       .text.rvtest	00000000 I_auipc_cg_cp_imm_edges_20bit_0x7ffff
00004c63 l       .data	00000000 I_auipc_cg_cp_imm_edges_20bit_0x7ffff_str
0000067c l       .text.rvtest	00000000 I_auipc_cg_cp_imm_edges_20bit_0x80000
00004ca4 l       .data	00000000 I_auipc_cg_cp_imm_edges_20bit_0x80000_str
00000698 l       .text.rvtest	00000000 I_auipc_cg_cp_imm_edges_20bit_0x80001
00004ce5 l       .data	00000000 I_auipc_cg_cp_imm_edges_20bit_0x80001_str
000006b4 l       .text.rvtest	00000000 I_auipc_cg_cp_imm_edges_20bit_0xffffe
00004d26 l       .data	00000000 I_auipc_cg_cp_imm_edges_20bit_0xffffe_str
000006d0 l       .text.rvtest	00000000 I_auipc_cg_cp_imm_edges_20bit_0xfffff
00004d67 l       .data	00000000 I_auipc_cg_cp_imm_edges_20bit_0xfffff_str
000006f0 l       .text.rvtest	00000000 exit_cleanup
00005414 l       .data	00000000 successstr
00016204 l       .text.rvmodel	00000000 rvmodel_io_write_str
00016208 l       .text.rvmodel	00000000 rvmodel_halt_pass
00000730 l       .text.rvtest	00000000 abort_test
6f5ca309 l       *ABS*	00000000 immx
6f5ca309 l       *ABS*	00000000 absimm
00000000 l       *ABS*	00000000 cry
00000309 l       *ABS*	00000000 imm12
00004db0 l       .data	00000000 begin_failure_scratch
00000800 l       .text.rvtest	00000000 failedtest_saveregs
000007a4 l       .text.rvtest	00000000 failedtest_trap_x7_x9
00004f20 l       .data	00000000 saved_mcause
00004f28 l       .data	00000000 saved_mtval
00004f30 l       .data	00000000 saved_mstatus
00000870 l       .text.rvtest	00000000 failedtest_saveresults
00004db0 l       .data	00000000 failure_type
000008ec l       .text.rvtest	00000000 failedtest_saveresults_trap
00000880 l       .text.rvtest	00000000 failedtest_saveresults_int
00000cc0 l       .text.rvtest	00000000 failedtest_saveresults_common
00004f08 l       .data	00000000 trap_diag_fail_str_ptr
000055de l       .data	00000000 trap_sig_offset_mismatch
00000ba0 l       .text.rvtest	00000000 trap_diag_offset_mismatch
00004ee0 l       .data	00000000 trap_diag_subtype
00005642 l       .data	00000000 sv_Mvect_str
00000c20 l       .text.rvtest	00000000 trap_diag_field_identified
00005744 l       .data	00000000 sv_Mcause_str
0000583f l       .data	00000000 sv_Mepc_str
00005932 l       .data	00000000 sv_Mtval_str
00005aa5 l       .data	00000000 sv_Mip_str
00005a29 l       .data	00000000 sv_Mtval2_str
00005a67 l       .data	00000000 sv_Mtinst_str
00005682 l       .data	00000000 sv_Svect_str
00005782 l       .data	00000000 sv_Scause_str
0000587b l       .data	00000000 sv_Sepc_str
0000596f l       .data	00000000 sv_Stval_str
00005ae0 l       .data	00000000 sv_Sip_str
000056c2 l       .data	00000000 sv_Hvect_str
000057c0 l       .data	00000000 sv_Hcause_str
000058b7 l       .data	00000000 sv_Hepc_str
000059ac l       .data	00000000 sv_Htval_str
00005b1b l       .data	00000000 sv_Hip_str
00005703 l       .data	00000000 sv_Vvect_str
000057ff l       .data	00000000 sv_Vcause_str
000058f4 l       .data	00000000 sv_Vepc_str
000059ea l       .data	00000000 sv_Vtval_str
00005b57 l       .data	00000000 sv_Vip_str
00005b94 l       .data	00000000 Mclr_Mext_int_str
00005be3 l       .data	00000000 Mclr_Sext_int_str
00005cde l       .data	00000000 Sclr_Sext_int_str
00005dda l       .data	00000000 Hclr_Sext_int_str
00000cb0 l       .text.rvtest	00000000 trap_diag_generic_report
00004ef8 l       .data	00000000 trap_diag_actual_offset
00004f00 l       .data	00000000 trap_diag_expected_offset
00004ee4 l       .data	00000000 trap_diag_mode
00004ee8 l       .data	00000000 trap_diag_actual_value
00004ef0 l       .data	00000000 trap_diag_expected_value
00000cf0 l       .text.rvtest	00000000 failedtest_report
00000cf0 l       .text.rvtest	00000000 print_failstr
0000544c l       .data	00000000 failstr
00000d28 l       .text.rvtest	00000000 print_testnamestr
000054e1 l       .data	00000000 testnamestr
00000d68 l       .text.rvtest	00000000 print_failure_test_name_str
00004ed0 l       .data	00000000 failure_string_ptr
00000d78 l       .text.rvtest	00000000 print_newline_str
000054f3 l       .data	00000000 newlinestr
000011ac l       .text.rvtest	00000000 failedtest_report_trap_detailed
000054f5 l       .data	00000000 inststr
00004eb0 l       .data	00000000 failing_instruction
000020f8 l       .text.rvtest	00000000 failedtest_hex_to_str
00004f38 l       .data	00000000 ascii_buffer
00005509 l       .data	00000000 addrstr
00004eb8 l       .data	00000000 failing_addr
00005f86 l       .data	00000000 regstr
00000f58 l       .text.rvtest	00000000 failedtest_report_not_intreg
00004eb4 l       .data	00000000 failing_reg
00002174 l       .text.rvtest	00000000 failedtest_dec_to_str
00001034 l       .text.rvtest	00000000 failedtest_report_print_regstr
00000fac l       .text.rvtest	00000000 failedtest_report_fpreg
00000ff8 l       .text.rvtest	00000000 failedtest_report_vecreg
00005fe6 l       .data	00000000 fflagsstr
00001068 l       .text.rvtest	00000000 failedtest_report_after_reg
00005f97 l       .data	00000000 badvalstr
000010cc l       .text.rvtest	00000000 failedtest_report_badval_not_fp
00004ec0 l       .data	00000000 failing_value
000010dc l       .text.rvtest	00000000 failedtest_report_badval_done
00005fae l       .data	00000000 expvalstr
0000116c l       .text.rvtest	00000000 failedtest_report_expval_not_fp
00004ec8 l       .data	00000000 expected_value
0000117c l       .text.rvtest	00000000 failedtest_report_expval_done
00001ea4 l       .text.rvtest	00000000 failedtest_report_end
00006012 l       .data	00000000 trap_diag_header_str
0000603e l       .data	00000000 trap_diag_origstr_label
00001280 l       .text.rvtest	00000000 trap_report_offset_mismatch
00001d30 l       .text.rvtest	00000000 trap_report_generic
000015f4 l       .text.rvtest	00000000 trap_report_field_mismatch
0000604e l       .data	00000000 trap_diag_count_mismatch_str
000060af l       .data	00000000 trap_diag_expected_offset_str
000060d6 l       .data	00000000 trap_diag_actual_offset_str
000014d4 l       .text.rvtest	00000000 trap_report_missing_traps
000013bc l       .text.rvtest	00000000 trap_report_extra_traps
000060fd l       .data	00000000 trap_diag_extra_traps_str
00006182 l       .data	00000000 trap_diag_extra_bytes_str
000061ad l       .data	00000000 trap_diag_extra_hint_str
00001ef0 l       .text.rvtest	00000000 failedtest_print_csr_context
00006137 l       .data	00000000 trap_diag_missing_traps_str
00006295 l       .data	00000000 trap_diag_missing_hint_str
0000637c l       .data	00000000 trap_diag_handler_mode_str
00001684 l       .text.rvtest	00000000 trap_mode_m
000016c4 l       .text.rvtest	00000000 trap_mode_s
00001704 l       .text.rvtest	00000000 trap_mode_h
00001744 l       .text.rvtest	00000000 trap_mode_v
000063b8 l       .data	00000000 trap_diag_mode_unknown_str
00001780 l       .text.rvtest	00000000 trap_mode_print
00006396 l       .data	00000000 trap_diag_mode_m_str
0000639e l       .data	00000000 trap_diag_mode_s_str
000063a6 l       .data	00000000 trap_diag_mode_hs_str
000063af l       .data	00000000 trap_diag_mode_vs_str
000063c1 l       .data	00000000 trap_diag_field_str
00001844 l       .text.rvtest	00000000 trap_field_vect
00001884 l       .text.rvtest	00000000 trap_field_cause
000018c4 l       .text.rvtest	00000000 trap_field_epc
00001904 l       .text.rvtest	00000000 trap_field_tval
00001944 l       .text.rvtest	00000000 trap_field_ip
00001984 l       .text.rvtest	00000000 trap_field_tval2
000019c4 l       .text.rvtest	00000000 trap_field_tinst
00001a04 l       .text.rvtest	00000000 trap_field_intid
00006518 l       .data	00000000 trap_diag_field_unknown_str
00001a40 l       .text.rvtest	00000000 trap_field_print
000063db l       .data	00000000 trap_diag_field_vect_str
0000640c l       .data	00000000 trap_diag_field_cause_str
0000642c l       .data	00000000 trap_diag_field_epc_str
0000644a l       .data	00000000 trap_diag_field_tval_str
00006469 l       .data	00000000 trap_diag_field_ip_str
00006491 l       .data	00000000 trap_diag_field_tval2_str
000064bd l       .data	00000000 trap_diag_field_tinst_str
000064e9 l       .data	00000000 trap_diag_field_intid_str
00006527 l       .data	00000000 trap_diag_expected_str
0000653e l       .data	00000000 trap_diag_actual_str
00001bdc l       .text.rvtest	00000000 trap_field_not_cause
00006555 l       .data	00000000 trap_diag_expected_cause_name_str
00001e14 l       .text.rvtest	00000000 trap_cause_to_str
0000656c l       .data	00000000 trap_diag_actual_cause_name_str
00001bdc l       .text.rvtest	00000000 trap_field_not_epc
000065e2 l       .data	00000000 trap_diag_hint_vect_str
000066b8 l       .data	00000000 trap_diag_hint_cause_str
000067ab l       .data	00000000 trap_diag_hint_epc_str
000068a6 l       .data	00000000 trap_diag_hint_tval_str
0000698d l       .data	00000000 trap_diag_hint_ip_str
0000659a l       .data	00000000 trap_diag_generic_str
00004f18 l       .data	00000000 saved_mepc
0000557d l       .data	00000000 xepcinstrstr
00001e38 l       .text.rvtest	00000000 trap_cause_interrupt
00001e18 l       .text.rvtest	00000000 trap_cause_exception
00001e64 l       .text.rvtest	00000000 trap_cause_unknown
00004f60 l       .data	00000000 trap_excpt_name_tbl
00004fc0 l       .data	00000000 trap_int_name_tbl
000053fe l       .data	00000000 trap_cause_unknown_str
00005fc5 l       .data	00000000 endstr
00001ee8 l       .text.rvtest	00000000 failedtest_terminate
00016214 l       .text.rvmodel	00000000 rvmodel_halt_fail
00004f10 l       .data	00000000 csr_context_ret_addr
0000559e l       .data	00000000 mepcstr
000055ae l       .data	00000000 mcausestr
000055be l       .data	00000000 mtvalstr
000055ce l       .data	00000000 mstatusstr
00002138 l       .text.rvtest	00000000 failedtest_hex_to_str_loop
00002154 l       .text.rvtest	00000000 failedtest_hex_to_str_digit
00002158 l       .text.rvtest	00000000 failedtest_hex_to_str_write
00016000 l       .text.rvmodel	00000000 rvtest_boot_to_mmode
00016000 l       .text.rvmodel	00000000 rvtest_init_regs
00006a80 l       .data	00000000 signature_base
000161a0 l       .text.rvmodel	00000000 canary_check
00005fee l       .data	00000000 canary_mismatch
00004000 l       .data	00000000 scratch
00004f60 l       .data	00000000 end_failure_scratch
00005000 l       .data	00000000 trap_excpt_name_0
00005020 l       .data	00000000 trap_excpt_name_1
0000503a l       .data	00000000 trap_excpt_name_2
0000504f l       .data	00000000 trap_excpt_name_3
0000505b l       .data	00000000 trap_excpt_name_4
00005074 l       .data	00000000 trap_excpt_name_5
00005087 l       .data	00000000 trap_excpt_name_6
000050a5 l       .data	00000000 trap_excpt_name_7
000050bd l       .data	00000000 trap_excpt_name_8
000050db l       .data	00000000 trap_excpt_name_9
000050f9 l       .data	00000000 trap_excpt_name_10
00005118 l       .data	00000000 trap_excpt_name_11
00005136 l       .data	00000000 trap_excpt_name_12
0000514e l       .data	00000000 trap_excpt_name_13
0000515f l       .data	00000000 trap_excpt_name_14
0000516e l       .data	00000000 trap_excpt_name_15
00005184 l       .data	00000000 trap_excpt_name_16
00005191 l       .data	00000000 trap_excpt_name_17
000051a0 l       .data	00000000 trap_excpt_name_18
000051b0 l       .data	00000000 trap_excpt_name_19
000051c0 l       .data	00000000 trap_excpt_name_20
000051de l       .data	00000000 trap_excpt_name_21
000051f5 l       .data	00000000 trap_excpt_name_22
0000520a l       .data	00000000 trap_excpt_name_23
00005226 l       .data	00000000 trap_int_name_0
0000523e l       .data	00000000 trap_int_name_1
0000525d l       .data	00000000 trap_int_name_2
00005284 l       .data	00000000 trap_int_name_3
000052a0 l       .data	00000000 trap_int_name_4
000052b8 l       .data	00000000 trap_int_name_5
000052d4 l       .data	00000000 trap_int_name_6
000052f8 l       .data	00000000 trap_int_name_7
00005311 l       .data	00000000 trap_int_name_8
00005329 l       .data	00000000 trap_int_name_9
00005348 l       .data	00000000 trap_int_name_10
0000536f l       .data	00000000 trap_int_name_11
0000538b l       .data	00000000 trap_int_name_12
000053b0 l       .data	00000000 trap_int_name_13
000053cc l       .data	00000000 trap_int_name_14
000053e5 l       .data	00000000 trap_int_name_15
000054a3 l       .data	00000000 abortstr
0000554a l       .data	00000000 xepcstr
00005c35 l       .data	00000000 Mclr_Vext_int_str
00005c8f l       .data	00000000 Sclr_Mext_int_str
00005d30 l       .data	00000000 Sclr_Vext_int_str
00005d8a l       .data	00000000 Hclr_Mext_int_str
00005e2d l       .data	00000000 Hclr_Vext_int_str
00005e88 l       .data	00000000 Vclr_Mext_int_str
00005ed8 l       .data	00000000 Vclr_Sext_int_str
00005f2b l       .data	00000000 Vclr_Vext_int_str
00006583 l       .data	00000000 trap_diag_curr_xepc_str
00006b9c l       .data	00000000 trap_sigptr
00015600 g       .data	00000000 end_signature
00015600 g       .data	00000000 rvtest_sig_end
00000000 g       .text.init	00000000 rvtest_entry_point
00006a80 g       .data	00000000 begin_signature
000006f0 g       .text.rvtest	00000000 rvtest_code_end
00000040 g       .text.rvtest	00000000 rvtest_code_begin
00006a80 g       .data	00000000 rvtest_sig_begin
00004110 g       .data	00000000 rvtest_data_begin
00006a72 g       .data	00000000 rvtest_data_end
000006f0 g       .text.rvtest	00000000 cleanup_epilogs
00017000 g       .text.rvmodel	00000000 _end



Disassembly of section .text.init:

00000000 <rvtest_entry_point>:

// Include framework macros
#include "riscv_arch_test.h"

// Set up test environment and declare main entry point
RVTEST_BEGIN
   0:	00016097          	auipc	x1,0x16
   4:	00008093          	addi	x1,x1,0 # 16000 <rvmodel_boot>
   8:	00000013          	addi	x0,x0,0
   c:	00000013          	addi	x0,x0,0
  10:	00000013          	addi	x0,x0,0
  14:	00000013          	addi	x0,x0,0
  18:	00000013          	addi	x0,x0,0
  1c:	00000013          	addi	x0,x0,0
  20:	000080e7          	jalr	x1,0(x1)
  24:	00000013          	addi	x0,x0,0
  28:	00000013          	addi	x0,x0,0
  2c:	00000013          	addi	x0,x0,0
  30:	00000013          	addi	x0,x0,0
  34:	00000013          	addi	x0,x0,0
  38:	00000013          	addi	x0,x0,0
  3c:	00000013          	addi	x0,x0,0

Disassembly of section .text.rvtest:

00000040 <rvtest_code_begin>:
// cp_rd
/////////////////////////////////

# Testcase cp_rd (Test destination rd = x0)
I_auipc_cg_cp_rd_b0:
  auipc x0, 190699 # perform operation
      40:	2e8eb017          	auipc	x0,0x2e8eb
  # Check if x0 contains the expected result. x2 is the signature ptr, x5 is the link ptr, x4 is a temp reg.
  RVTEST_SIGUPD(x2, x5, x4, x0, I_auipc_cg_cp_rd_b0, I_auipc_cg_cp_rd_b0_str)
      44:	00012203          	lw	x4,0(x2)
      48:	00020863          	beq	x4,x0,58 <rvtest_code_begin+0x18>
      4c:	6f0002ef          	jal	x5,73c <failedtest_x5_x4>
      50:	00000040          	.word	0x00000040
      54:	00004110          	.word	0x00004110
      58:	00410113          	addi	x2,x2,4

0000005c <I_auipc_cg_cp_rd_b1>:

# Testcase cp_rd (Test destination rd = x1)
I_auipc_cg_cp_rd_b1:
  auipc x1, 977507 # perform operation
      5c:	eea63097          	auipc	x1,0xeea63
  # Check if x1 contains the expected result. x2 is the signature ptr, x5 is the link ptr, x4 is a temp reg.
  RVTEST_SIGUPD(x2, x5, x4, x1, I_auipc_cg_cp_rd_b1, I_auipc_cg_cp_rd_b1_str)
      60:	00012203          	lw	x4,0(x2)
      64:	00120863          	beq	x4,x1,74 <I_auipc_cg_cp_rd_b1+0x18>
      68:	6d4002ef          	jal	x5,73c <failedtest_x5_x4>
      6c:	0000005c          	.word	0x0000005c
      70:	0000413e          	.word	0x0000413e
      74:	00410113          	addi	x2,x2,4

  mv x10, x2 # switch signature pointer register to avoid conflict with test
      78:	00010513          	addi	x10,x2,0

0000007c <I_auipc_cg_cp_rd_b2>:
# Testcase cp_rd (Test destination rd = x2)
I_auipc_cg_cp_rd_b2:
  auipc x2, 14279 # perform operation
      7c:	037c7117          	auipc	x2,0x37c7
  # Check if x2 contains the expected result. x10 is the signature ptr, x5 is the link ptr, x4 is a temp reg.
  RVTEST_SIGUPD(x10, x5, x4, x2, I_auipc_cg_cp_rd_b2, I_auipc_cg_cp_rd_b2_str)
      80:	00052203          	lw	x4,0(x10)
      84:	00220863          	beq	x4,x2,94 <I_auipc_cg_cp_rd_b2+0x18>
      88:	6b4002ef          	jal	x5,73c <failedtest_x5_x4>
      8c:	0000007c          	.word	0x0000007c
      90:	0000416c          	.word	0x0000416c
      94:	00450513          	addi	x10,x10,4

  mv x20, x3 # switch data pointer register to avoid conflict with test
      98:	00018a13          	addi	x20,x3,0

0000009c <I_auipc_cg_cp_rd_b3>:
# Testcase cp_rd (Test destination rd = x3)
I_auipc_cg_cp_rd_b3:
  auipc x3, 135100 # perform operation
      9c:	20fbc197          	auipc	x3,0x20fbc
  # Check if x3 contains the expected result. x10 is the signature ptr, x5 is the link ptr, x4 is a temp reg.
  RVTEST_SIGUPD(x10, x5, x4, x3, I_auipc_cg_cp_rd_b3, I_auipc_cg_cp_rd_b3_str)
      a0:	00052203          	lw	x4,0(x10)
      a4:	00320863          	beq	x4,x3,b4 <I_auipc_cg_cp_rd_b3+0x18>
      a8:	694002ef          	jal	x5,73c <failedtest_x5_x4>
      ac:	0000009c          	.word	0x0000009c
      b0:	0000419a          	.word	0x0000419a
      b4:	00450513          	addi	x10,x10,4

  mv x7, x4 # switch temp register to avoid conflict with test
      b8:	00020393          	addi	x7,x4,0 # 0 <rvtest_entry_point>
  mv x8, x5 # switch link pointer register to avoid conflict with test
      bc:	00028413          	addi	x8,x5,0

000000c0 <I_auipc_cg_cp_rd_b4>:
# Testcase cp_rd (Test destination rd = x4)
I_auipc_cg_cp_rd_b4:
  auipc x4, 30755 # perform operation
      c0:	07823217          	auipc	x4,0x7823
  # Check if x4 contains the expected result. x10 is the signature ptr, x8 is the link ptr, x7 is a temp reg.
  RVTEST_SIGUPD(x10, x8, x7, x4, I_auipc_cg_cp_rd_b4, I_auipc_cg_cp_rd_b4_str)
      c4:	00052383          	lw	x7,0(x10)
      c8:	00438863          	beq	x7,x4,d8 <I_auipc_cg_cp_rd_b4+0x18>
      cc:	6880046f          	jal	x8,754 <failedtest_x8_x7>
      d0:	000000c0          	.word	0x000000c0
      d4:	000041c8          	.word	0x000041c8
      d8:	00450513          	addi	x10,x10,4

000000dc <I_auipc_cg_cp_rd_b5>:

# Testcase cp_rd (Test destination rd = x5)
I_auipc_cg_cp_rd_b5:
  auipc x5, 220323 # perform operation
      dc:	35ca3297          	auipc	x5,0x35ca3
  # Check if x5 contains the expected result. x10 is the signature ptr, x8 is the link ptr, x7 is a temp reg.
  RVTEST_SIGUPD(x10, x8, x7, x5, I_auipc_cg_cp_rd_b5, I_auipc_cg_cp_rd_b5_str)
      e0:	00052383          	lw	x7,0(x10)
      e4:	00538863          	beq	x7,x5,f4 <I_auipc_cg_cp_rd_b5+0x18>
      e8:	66c0046f          	jal	x8,754 <failedtest_x8_x7>
      ec:	000000dc          	.word	0x000000dc
      f0:	000041f6          	.word	0x000041f6
      f4:	00450513          	addi	x10,x10,4

000000f8 <I_auipc_cg_cp_rd_b6>:

# Testcase cp_rd (Test destination rd = x6)
I_auipc_cg_cp_rd_b6:
  auipc x6, 175105 # perform operation
      f8:	2ac01317          	auipc	x6,0x2ac01
  # Check if x6 contains the expected result. x10 is the signature ptr, x8 is the link ptr, x7 is a temp reg.
  RVTEST_SIGUPD(x10, x8, x7, x6, I_auipc_cg_cp_rd_b6, I_auipc_cg_cp_rd_b6_str)
      fc:	00052383          	lw	x7,0(x10)
     100:	00638863          	beq	x7,x6,110 <I_auipc_cg_cp_rd_b6+0x18>
     104:	6500046f          	jal	x8,754 <failedtest_x8_x7>
     108:	000000f8          	.word	0x000000f8
     10c:	00004224          	.word	0x00004224
     110:	00450513          	addi	x10,x10,4

  mv x13, x7 # switch temp register to avoid conflict with test
     114:	00038693          	addi	x13,x7,0
  mv x14, x8 # switch link pointer register to avoid conflict with test
     118:	00040713          	addi	x14,x8,0

0000011c <I_auipc_cg_cp_rd_b7>:
# Testcase cp_rd (Test destination rd = x7)
I_auipc_cg_cp_rd_b7:
  auipc x7, 558358 # perform operation
     11c:	88516397          	auipc	x7,0x88516
  # Check if x7 contains the expected result. x10 is the signature ptr, x14 is the link ptr, x13 is a temp reg.
  RVTEST_SIGUPD(x10, x14, x13, x7, I_auipc_cg_cp_rd_b7, I_auipc_cg_cp_rd_b7_str)
     120:	00052683          	lw	x13,0(x10)
     124:	00768863          	beq	x13,x7,134 <I_auipc_cg_cp_rd_b7+0x18>
     128:	6540076f          	jal	x14,77c <failedtest_x14_x13>
     12c:	0000011c          	.word	0x0000011c
     130:	00004252          	.word	0x00004252
     134:	00450513          	addi	x10,x10,4

00000138 <I_auipc_cg_cp_rd_b8>:

# Testcase cp_rd (Test destination rd = x8)
I_auipc_cg_cp_rd_b8:
  auipc x8, 58984 # perform operation
     138:	0e668417          	auipc	x8,0xe668
  # Check if x8 contains the expected result. x10 is the signature ptr, x14 is the link ptr, x13 is a temp reg.
  RVTEST_SIGUPD(x10, x14, x13, x8, I_auipc_cg_cp_rd_b8, I_auipc_cg_cp_rd_b8_str)
     13c:	00052683          	lw	x13,0(x10)
     140:	00868863          	beq	x13,x8,150 <I_auipc_cg_cp_rd_b8+0x18>
     144:	6380076f          	jal	x14,77c <failedtest_x14_x13>
     148:	00000138          	.word	0x00000138
     14c:	00004280          	.word	0x00004280
     150:	00450513          	addi	x10,x10,4

00000154 <I_auipc_cg_cp_rd_b9>:

# Testcase cp_rd (Test destination rd = x9)
I_auipc_cg_cp_rd_b9:
  auipc x9, 671508 # perform operation
     154:	a3f14497          	auipc	x9,0xa3f14
  # Check if x9 contains the expected result. x10 is the signature ptr, x14 is the link ptr, x13 is a temp reg.
  RVTEST_SIGUPD(x10, x14, x13, x9, I_auipc_cg_cp_rd_b9, I_auipc_cg_cp_rd_b9_str)
     158:	00052683          	lw	x13,0(x10)
     15c:	00968863          	beq	x13,x9,16c <I_auipc_cg_cp_rd_b9+0x18>
     160:	61c0076f          	jal	x14,77c <failedtest_x14_x13>
     164:	00000154          	.word	0x00000154
     168:	000042ae          	.word	0x000042ae
     16c:	00450513          	addi	x10,x10,4

  mv x17, x10 # switch signature pointer register to avoid conflict with test
     170:	00050893          	addi	x17,x10,0

00000174 <I_auipc_cg_cp_rd_b10>:
# Testcase cp_rd (Test destination rd = x10)
I_auipc_cg_cp_rd_b10:
  auipc x10, 1027578 # perform operation
     174:	fadfa517          	auipc	x10,0xfadfa
  # Check if x10 contains the expected result. x17 is the signature ptr, x14 is the link ptr, x13 is a temp reg.
  RVTEST_SIGUPD(x17, x14, x13, x10, I_auipc_cg_cp_rd_b10, I_auipc_cg_cp_rd_b10_str)
     178:	0008a683          	lw	x13,0(x17)
     17c:	00a68863          	beq	x13,x10,18c <I_auipc_cg_cp_rd_b10+0x18>
     180:	5fc0076f          	jal	x14,77c <failedtest_x14_x13>
     184:	00000174          	.word	0x00000174
     188:	000042dd          	.word	0x000042dd
     18c:	00488893          	addi	x17,x17,4

00000190 <I_auipc_cg_cp_rd_b11>:

# Testcase cp_rd (Test destination rd = x11)
I_auipc_cg_cp_rd_b11:
  auipc x11, 398447 # perform operation
     190:	6146f597          	auipc	x11,0x6146f
  # Check if x11 contains the expected result. x17 is the signature ptr, x14 is the link ptr, x13 is a temp reg.
  RVTEST_SIGUPD(x17, x14, x13, x11, I_auipc_cg_cp_rd_b11, I_auipc_cg_cp_rd_b11_str)
     194:	0008a683          	lw	x13,0(x17)
     198:	00b68863          	beq	x13,x11,1a8 <I_auipc_cg_cp_rd_b11+0x18>
     19c:	5e00076f          	jal	x14,77c <failedtest_x14_x13>
     1a0:	00000190          	.word	0x00000190
     1a4:	0000430d          	.word	0x0000430d
     1a8:	00488893          	addi	x17,x17,4

000001ac <I_auipc_cg_cp_rd_b12>:

# Testcase cp_rd (Test destination rd = x12)
I_auipc_cg_cp_rd_b12:
  auipc x12, 519030 # perform operation
     1ac:	7eb76617          	auipc	x12,0x7eb76
  # Check if x12 contains the expected result. x17 is the signature ptr, x14 is the link ptr, x13 is a temp reg.
  RVTEST_SIGUPD(x17, x14, x13, x12, I_auipc_cg_cp_rd_b12, I_auipc_cg_cp_rd_b12_str)
     1b0:	0008a683          	lw	x13,0(x17)
     1b4:	00c68863          	beq	x13,x12,1c4 <I_auipc_cg_cp_rd_b12+0x18>
     1b8:	5c40076f          	jal	x14,77c <failedtest_x14_x13>
     1bc:	000001ac          	.word	0x000001ac
     1c0:	0000433d          	.word	0x0000433d
     1c4:	00488893          	addi	x17,x17,4

  mv x4, x13 # switch temp register to avoid conflict with test
     1c8:	00068213          	addi	x4,x13,0
  mv x5, x14 # switch link pointer register to avoid conflict with test
     1cc:	00070293          	addi	x5,x14,0

000001d0 <I_auipc_cg_cp_rd_b13>:
# Testcase cp_rd (Test destination rd = x13)
I_auipc_cg_cp_rd_b13:
  auipc x13, 169969 # perform operation
     1d0:	297f1697          	auipc	x13,0x297f1
  # Check if x13 contains the expected result. x17 is the signature ptr, x5 is the link ptr, x4 is a temp reg.
  RVTEST_SIGUPD(x17, x5, x4, x13, I_auipc_cg_cp_rd_b13, I_auipc_cg_cp_rd_b13_str)
     1d4:	0008a203          	lw	x4,0(x17)
     1d8:	00d20863          	beq	x4,x13,1e8 <I_auipc_cg_cp_rd_b13+0x18>
     1dc:	560002ef          	jal	x5,73c <failedtest_x5_x4>
     1e0:	000001d0          	.word	0x000001d0
     1e4:	0000436d          	.word	0x0000436d
     1e8:	00488893          	addi	x17,x17,4

000001ec <I_auipc_cg_cp_rd_b14>:

# Testcase cp_rd (Test destination rd = x14)
I_auipc_cg_cp_rd_b14:
  auipc x14, 851447 # perform operation
     1ec:	cfdf7717          	auipc	x14,0xcfdf7
  # Check if x14 contains the expected result. x17 is the signature ptr, x5 is the link ptr, x4 is a temp reg.
  RVTEST_SIGUPD(x17, x5, x4, x14, I_auipc_cg_cp_rd_b14, I_auipc_cg_cp_rd_b14_str)
     1f0:	0008a203          	lw	x4,0(x17)
     1f4:	00e20863          	beq	x4,x14,204 <I_auipc_cg_cp_rd_b14+0x18>
     1f8:	544002ef          	jal	x5,73c <failedtest_x5_x4>
     1fc:	000001ec          	.word	0x000001ec
     200:	0000439d          	.word	0x0000439d
     204:	00488893          	addi	x17,x17,4

00000208 <I_auipc_cg_cp_rd_b15>:

# Testcase cp_rd (Test destination rd = x15)
I_auipc_cg_cp_rd_b15:
  auipc x15, 122237 # perform operation
     208:	1dd7d797          	auipc	x15,0x1dd7d
  # Check if x15 contains the expected result. x17 is the signature ptr, x5 is the link ptr, x4 is a temp reg.
  RVTEST_SIGUPD(x17, x5, x4, x15, I_auipc_cg_cp_rd_b15, I_auipc_cg_cp_rd_b15_str)
     20c:	0008a203          	lw	x4,0(x17)
     210:	00f20863          	beq	x4,x15,220 <I_auipc_cg_cp_rd_b15+0x18>
     214:	528002ef          	jal	x5,73c <failedtest_x5_x4>
     218:	00000208          	.word	0x00000208
     21c:	000043cd          	.word	0x000043cd
     220:	00488893          	addi	x17,x17,4

00000224 <I_auipc_cg_cp_rd_b16>:

# Testcase cp_rd (Test destination rd = x16)
I_auipc_cg_cp_rd_b16:
  auipc x16, 956556 # perform operation
     224:	e988c817          	auipc	x16,0xe988c
  # Check if x16 contains the expected result. x17 is the signature ptr, x5 is the link ptr, x4 is a temp reg.
  RVTEST_SIGUPD(x17, x5, x4, x16, I_auipc_cg_cp_rd_b16, I_auipc_cg_cp_rd_b16_str)
     228:	0008a203          	lw	x4,0(x17)
     22c:	01020863          	beq	x4,x16,23c <I_auipc_cg_cp_rd_b16+0x18>
     230:	50c002ef          	jal	x5,73c <failedtest_x5_x4>
     234:	00000224          	.word	0x00000224
     238:	000043fd          	.word	0x000043fd
     23c:	00488893          	addi	x17,x17,4

  mv x21, x17 # switch signature pointer register to avoid conflict with test
     240:	00088a93          	addi	x21,x17,0

00000244 <I_auipc_cg_cp_rd_b17>:
# Testcase cp_rd (Test destination rd = x17)
I_auipc_cg_cp_rd_b17:
  auipc x17, 775215 # perform operation
     244:	bd42f897          	auipc	x17,0xbd42f
  # Check if x17 contains the expected result. x21 is the signature ptr, x5 is the link ptr, x4 is a temp reg.
  RVTEST_SIGUPD(x21, x5, x4, x17, I_auipc_cg_cp_rd_b17, I_auipc_cg_cp_rd_b17_str)
     248:	000aa203          	lw	x4,0(x21)
     24c:	01120863          	beq	x4,x17,25c <I_auipc_cg_cp_rd_b17+0x18>
     250:	4ec002ef          	jal	x5,73c <failedtest_x5_x4>
     254:	00000244          	.word	0x00000244
     258:	0000442d          	.word	0x0000442d
     25c:	004a8a93          	addi	x21,x21,4

00000260 <I_auipc_cg_cp_rd_b18>:

# Testcase cp_rd (Test destination rd = x18)
I_auipc_cg_cp_rd_b18:
  auipc x18, 724683 # perform operation
     260:	b0ecb917          	auipc	x18,0xb0ecb
  # Check if x18 contains the expected result. x21 is the signature ptr, x5 is the link ptr, x4 is a temp reg.
  RVTEST_SIGUPD(x21, x5, x4, x18, I_auipc_cg_cp_rd_b18, I_auipc_cg_cp_rd_b18_str)
     264:	000aa203          	lw	x4,0(x21)
     268:	01220863          	beq	x4,x18,278 <I_auipc_cg_cp_rd_b18+0x18>
     26c:	4d0002ef          	jal	x5,73c <failedtest_x5_x4>
     270:	00000260          	.word	0x00000260
     274:	0000445d          	.word	0x0000445d
     278:	004a8a93          	addi	x21,x21,4

0000027c <I_auipc_cg_cp_rd_b19>:

# Testcase cp_rd (Test destination rd = x19)
I_auipc_cg_cp_rd_b19:
  auipc x19, 563442 # perform operation
     27c:	898f2997          	auipc	x19,0x898f2
  # Check if x19 contains the expected result. x21 is the signature ptr, x5 is the link ptr, x4 is a temp reg.
  RVTEST_SIGUPD(x21, x5, x4, x19, I_auipc_cg_cp_rd_b19, I_auipc_cg_cp_rd_b19_str)
     280:	000aa203          	lw	x4,0(x21)
     284:	01320863          	beq	x4,x19,294 <I_auipc_cg_cp_rd_b19+0x18>
     288:	4b4002ef          	jal	x5,73c <failedtest_x5_x4>
     28c:	0000027c          	.word	0x0000027c
     290:	0000448d          	.word	0x0000448d
     294:	004a8a93          	addi	x21,x21,4

  mv x27, x20 # switch data pointer register to avoid conflict with test
     298:	000a0d93          	addi	x27,x20,0

0000029c <I_auipc_cg_cp_rd_b20>:
# Testcase cp_rd (Test destination rd = x20)
I_auipc_cg_cp_rd_b20:
  auipc x20, 290373 # perform operation
     29c:	46e45a17          	auipc	x20,0x46e45
  # Check if x20 contains the expected result. x21 is the signature ptr, x5 is the link ptr, x4 is a temp reg.
  RVTEST_SIGUPD(x21, x5, x4, x20, I_auipc_cg_cp_rd_b20, I_auipc_cg_cp_rd_b20_str)
     2a0:	000aa203          	lw	x4,0(x21)
     2a4:	01420863          	beq	x4,x20,2b4 <I_auipc_cg_cp_rd_b20+0x18>
     2a8:	494002ef          	jal	x5,73c <failedtest_x5_x4>
     2ac:	0000029c          	.word	0x0000029c
     2b0:	000044bd          	.word	0x000044bd
     2b4:	004a8a93          	addi	x21,x21,4

  mv x28, x21 # switch signature pointer register to avoid conflict with test
     2b8:	000a8e13          	addi	x28,x21,0

000002bc <I_auipc_cg_cp_rd_b21>:
# Testcase cp_rd (Test destination rd = x21)
I_auipc_cg_cp_rd_b21:
  auipc x21, 372023 # perform operation
     2bc:	5ad37a97          	auipc	x21,0x5ad37
  # Check if x21 contains the expected result. x28 is the signature ptr, x5 is the link ptr, x4 is a temp reg.
  RVTEST_SIGUPD(x28, x5, x4, x21, I_auipc_cg_cp_rd_b21, I_auipc_cg_cp_rd_b21_str)
     2c0:	000e2203          	lw	x4,0(x28)
     2c4:	01520863          	beq	x4,x21,2d4 <I_auipc_cg_cp_rd_b21+0x18>
     2c8:	474002ef          	jal	x5,73c <failedtest_x5_x4>
     2cc:	000002bc          	.word	0x000002bc
     2d0:	000044ed          	.word	0x000044ed
     2d4:	004e0e13          	addi	x28,x28,4

000002d8 <I_auipc_cg_cp_rd_b22>:

# Testcase cp_rd (Test destination rd = x22)
I_auipc_cg_cp_rd_b22:
  auipc x22, 1037809 # perform operation
     2d8:	fd5f1b17          	auipc	x22,0xfd5f1
  # Check if x22 contains the expected result. x28 is the signature ptr, x5 is the link ptr, x4 is a temp reg.
  RVTEST_SIGUPD(x28, x5, x4, x22, I_auipc_cg_cp_rd_b22, I_auipc_cg_cp_rd_b22_str)
     2dc:	000e2203          	lw	x4,0(x28)
     2e0:	01620863          	beq	x4,x22,2f0 <I_auipc_cg_cp_rd_b22+0x18>
     2e4:	458002ef          	jal	x5,73c <failedtest_x5_x4>
     2e8:	000002d8          	.word	0x000002d8
     2ec:	0000451d          	.word	0x0000451d
     2f0:	004e0e13          	addi	x28,x28,4

000002f4 <I_auipc_cg_cp_rd_b23>:

# Testcase cp_rd (Test destination rd = x23)
I_auipc_cg_cp_rd_b23:
  auipc x23, 122740 # perform operation
     2f4:	1df74b97          	auipc	x23,0x1df74
  # Check if x23 contains the expected result. x28 is the signature ptr, x5 is the link ptr, x4 is a temp reg.
  RVTEST_SIGUPD(x28, x5, x4, x23, I_auipc_cg_cp_rd_b23, I_auipc_cg_cp_rd_b23_str)
     2f8:	000e2203          	lw	x4,0(x28)
     2fc:	01720863          	beq	x4,x23,30c <imm12+0x3>
     300:	43c002ef          	jal	x5,73c <failedtest_x5_x4>
     304:	000002f4          	.word	0x000002f4
     308:	0000454d          	.word	0x0000454d
     30c:	004e0e13          	addi	x28,x28,4

00000310 <I_auipc_cg_cp_rd_b24>:

# Testcase cp_rd (Test destination rd = x24)
I_auipc_cg_cp_rd_b24:
  auipc x24, 528422 # perform operation
     310:	81026c17          	auipc	x24,0x81026
  # Check if x24 contains the expected result. x28 is the signature ptr, x5 is the link ptr, x4 is a temp reg.
  RVTEST_SIGUPD(x28, x5, x4, x24, I_auipc_cg_cp_rd_b24, I_auipc_cg_cp_rd_b24_str)
     314:	000e2203          	lw	x4,0(x28)
     318:	01820863          	beq	x4,x24,328 <I_auipc_cg_cp_rd_b24+0x18>
     31c:	420002ef          	jal	x5,73c <failedtest_x5_x4>
     320:	00000310          	.word	0x00000310
     324:	0000457d          	.word	0x0000457d
     328:	004e0e13          	addi	x28,x28,4

0000032c <I_auipc_cg_cp_rd_b25>:

# Testcase cp_rd (Test destination rd = x25)
I_auipc_cg_cp_rd_b25:
  auipc x25, 684479 # perform operation
     32c:	a71bfc97          	auipc	x25,0xa71bf
  # Check if x25 contains the expected result. x28 is the signature ptr, x5 is the link ptr, x4 is a temp reg.
  RVTEST_SIGUPD(x28, x5, x4, x25, I_auipc_cg_cp_rd_b25, I_auipc_cg_cp_rd_b25_str)
     330:	000e2203          	lw	x4,0(x28)
     334:	01920863          	beq	x4,x25,344 <I_auipc_cg_cp_rd_b25+0x18>
     338:	404002ef          	jal	x5,73c <failedtest_x5_x4>
     33c:	0000032c          	.word	0x0000032c
     340:	000045ad          	.word	0x000045ad
     344:	004e0e13          	addi	x28,x28,4

00000348 <I_auipc_cg_cp_rd_b26>:

# Testcase cp_rd (Test destination rd = x26)
I_auipc_cg_cp_rd_b26:
  auipc x26, 1022654 # perform operation
     348:	f9abed17          	auipc	x26,0xf9abe
  # Check if x26 contains the expected result. x28 is the signature ptr, x5 is the link ptr, x4 is a temp reg.
  RVTEST_SIGUPD(x28, x5, x4, x26, I_auipc_cg_cp_rd_b26, I_auipc_cg_cp_rd_b26_str)
     34c:	000e2203          	lw	x4,0(x28)
     350:	01a20863          	beq	x4,x26,360 <I_auipc_cg_cp_rd_b26+0x18>
     354:	3e8002ef          	jal	x5,73c <failedtest_x5_x4>
     358:	00000348          	.word	0x00000348
     35c:	000045dd          	.word	0x000045dd
     360:	004e0e13          	addi	x28,x28,4

  mv x26, x27 # switch data pointer register to avoid conflict with test
     364:	000d8d13          	addi	x26,x27,0

00000368 <I_auipc_cg_cp_rd_b27>:
# Testcase cp_rd (Test destination rd = x27)
I_auipc_cg_cp_rd_b27:
  auipc x27, 299056 # perform operation
     368:	49030d97          	auipc	x27,0x49030
  # Check if x27 contains the expected result. x28 is the signature ptr, x5 is the link ptr, x4 is a temp reg.
  RVTEST_SIGUPD(x28, x5, x4, x27, I_auipc_cg_cp_rd_b27, I_auipc_cg_cp_rd_b27_str)
     36c:	000e2203          	lw	x4,0(x28)
     370:	01b20863          	beq	x4,x27,380 <I_auipc_cg_cp_rd_b27+0x18>
     374:	3c8002ef          	jal	x5,73c <failedtest_x5_x4>
     378:	00000368          	.word	0x00000368
     37c:	0000460d          	.word	0x0000460d
     380:	004e0e13          	addi	x28,x28,4

  mv x15, x28 # switch signature pointer register to avoid conflict with test
     384:	000e0793          	addi	x15,x28,0

00000388 <I_auipc_cg_cp_rd_b28>:
# Testcase cp_rd (Test destination rd = x28)
I_auipc_cg_cp_rd_b28:
  auipc x28, 33366 # perform operation
     388:	08256e17          	auipc	x28,0x8256
  # Check if x28 contains the expected result. x15 is the signature ptr, x5 is the link ptr, x4 is a temp reg.
  RVTEST_SIGUPD(x15, x5, x4, x28, I_auipc_cg_cp_rd_b28, I_auipc_cg_cp_rd_b28_str)
     38c:	0007a203          	lw	x4,0(x15) # 1dd7d208 <_end+0x1dd66208>
     390:	01c20863          	beq	x4,x28,3a0 <I_auipc_cg_cp_rd_b28+0x18>
     394:	3a8002ef          	jal	x5,73c <failedtest_x5_x4>
     398:	00000388          	.word	0x00000388
     39c:	0000463d          	.word	0x0000463d
     3a0:	00478793          	addi	x15,x15,4

000003a4 <I_auipc_cg_cp_rd_b29>:

# Testcase cp_rd (Test destination rd = x29)
I_auipc_cg_cp_rd_b29:
  auipc x29, 624238 # perform operation
     3a4:	9866ee97          	auipc	x29,0x9866e
  # Check if x29 contains the expected result. x15 is the signature ptr, x5 is the link ptr, x4 is a temp reg.
  RVTEST_SIGUPD(x15, x5, x4, x29, I_auipc_cg_cp_rd_b29, I_auipc_cg_cp_rd_b29_str)
     3a8:	0007a203          	lw	x4,0(x15)
     3ac:	01d20863          	beq	x4,x29,3bc <I_auipc_cg_cp_rd_b29+0x18>
     3b0:	38c002ef          	jal	x5,73c <failedtest_x5_x4>
     3b4:	000003a4          	.word	0x000003a4
     3b8:	0000466d          	.word	0x0000466d
     3bc:	00478793          	addi	x15,x15,4

000003c0 <I_auipc_cg_cp_rd_b30>:

# Testcase cp_rd (Test destination rd = x30)
I_auipc_cg_cp_rd_b30:
  auipc x30, 975403 # perform operation
     3c0:	ee22bf17          	auipc	x30,0xee22b
  # Check if x30 contains the expected result. x15 is the signature ptr, x5 is the link ptr, x4 is a temp reg.
  RVTEST_SIGUPD(x15, x5, x4, x30, I_auipc_cg_cp_rd_b30, I_auipc_cg_cp_rd_b30_str)
     3c4:	0007a203          	lw	x4,0(x15)
     3c8:	01e20863          	beq	x4,x30,3d8 <I_auipc_cg_cp_rd_b30+0x18>
     3cc:	370002ef          	jal	x5,73c <failedtest_x5_x4>
     3d0:	000003c0          	.word	0x000003c0
     3d4:	0000469d          	.word	0x0000469d
     3d8:	00478793          	addi	x15,x15,4

000003dc <I_auipc_cg_cp_rd_b31>:

# Testcase cp_rd (Test destination rd = x31)
I_auipc_cg_cp_rd_b31:
  auipc x31, 828646 # perform operation
     3dc:	ca4e6f97          	auipc	x31,0xca4e6
  # Check if x31 contains the expected result. x15 is the signature ptr, x5 is the link ptr, x4 is a temp reg.
  RVTEST_SIGUPD(x15, x5, x4, x31, I_auipc_cg_cp_rd_b31, I_auipc_cg_cp_rd_b31_str)
     3e0:	0007a203          	lw	x4,0(x15)
     3e4:	01f20863          	beq	x4,x31,3f4 <I_auipc_cg_cp_rd_b31+0x18>
     3e8:	354002ef          	jal	x5,73c <failedtest_x5_x4>
     3ec:	000003dc          	.word	0x000003dc
     3f0:	000046cd          	.word	0x000046cd
     3f4:	00478793          	addi	x15,x15,4

000003f8 <I_auipc_cg_cp_imm_edges_20bit_0x0>:
// cp_imm_edges_20bit
/////////////////////////////////

# Testcase cp_imm_edges_20bit (imm = 0)
I_auipc_cg_cp_imm_edges_20bit_0x0:
  auipc x27, 0 # perform operation
     3f8:	00000d97          	auipc	x27,0x0
  # Check if x27 contains the expected result. x15 is the signature ptr, x5 is the link ptr, x4 is a temp reg.
  RVTEST_SIGUPD(x15, x5, x4, x27, I_auipc_cg_cp_imm_edges_20bit_0x0, I_auipc_cg_cp_imm_edges_20bit_0x0_str)
     3fc:	0007a203          	lw	x4,0(x15)
     400:	01b20863          	beq	x4,x27,410 <I_auipc_cg_cp_imm_edges_20bit_0x0+0x18>
     404:	338002ef          	jal	x5,73c <failedtest_x5_x4>
     408:	000003f8          	.word	0x000003f8
     40c:	000046fd          	.word	0x000046fd
     410:	00478793          	addi	x15,x15,4

00000414 <I_auipc_cg_cp_imm_edges_20bit_0x1>:

# Testcase cp_imm_edges_20bit (imm = 1)
I_auipc_cg_cp_imm_edges_20bit_0x1:
  auipc x11, 1 # perform operation
     414:	00001597          	auipc	x11,0x1
  # Check if x11 contains the expected result. x15 is the signature ptr, x5 is the link ptr, x4 is a temp reg.
  RVTEST_SIGUPD(x15, x5, x4, x11, I_auipc_cg_cp_imm_edges_20bit_0x1, I_auipc_cg_cp_imm_edges_20bit_0x1_str)
     418:	0007a203          	lw	x4,0(x15)
     41c:	00b20863          	beq	x4,x11,42c <I_auipc_cg_cp_imm_edges_20bit_0x1+0x18>
     420:	31c002ef          	jal	x5,73c <failedtest_x5_x4>
     424:	00000414          	.word	0x00000414
     428:	0000473a          	.word	0x0000473a
     42c:	00478793          	addi	x15,x15,4

00000430 <I_auipc_cg_cp_imm_edges_20bit_0x2>:

# Testcase cp_imm_edges_20bit (imm = 2)
I_auipc_cg_cp_imm_edges_20bit_0x2:
  auipc x27, 2 # perform operation
     430:	00002d97          	auipc	x27,0x2
  # Check if x27 contains the expected result. x15 is the signature ptr, x5 is the link ptr, x4 is a temp reg.
  RVTEST_SIGUPD(x15, x5, x4, x27, I_auipc_cg_cp_imm_edges_20bit_0x2, I_auipc_cg_cp_imm_edges_20bit_0x2_str)
     434:	0007a203          	lw	x4,0(x15)
     438:	01b20863          	beq	x4,x27,448 <I_auipc_cg_cp_imm_edges_20bit_0x2+0x18>
     43c:	300002ef          	jal	x5,73c <failedtest_x5_x4>
     440:	00000430          	.word	0x00000430
     444:	00004777          	.word	0x00004777
     448:	00478793          	addi	x15,x15,4

0000044c <I_auipc_cg_cp_imm_edges_20bit_0x3>:

# Testcase cp_imm_edges_20bit (imm = 3)
I_auipc_cg_cp_imm_edges_20bit_0x3:
  auipc x14, 3 # perform operation
     44c:	00003717          	auipc	x14,0x3
  # Check if x14 contains the expected result. x15 is the signature ptr, x5 is the link ptr, x4 is a temp reg.
  RVTEST_SIGUPD(x15, x5, x4, x14, I_auipc_cg_cp_imm_edges_20bit_0x3, I_auipc_cg_cp_imm_edges_20bit_0x3_str)
     450:	0007a203          	lw	x4,0(x15)
     454:	00e20863          	beq	x4,x14,464 <I_auipc_cg_cp_imm_edges_20bit_0x3+0x18>
     458:	2e4002ef          	jal	x5,73c <failedtest_x5_x4>
     45c:	0000044c          	.word	0x0000044c
     460:	000047b4          	.word	0x000047b4
     464:	00478793          	addi	x15,x15,4

00000468 <I_auipc_cg_cp_imm_edges_20bit_0x4>:

# Testcase cp_imm_edges_20bit (imm = 4)
I_auipc_cg_cp_imm_edges_20bit_0x4:
  auipc x3, 4 # perform operation
     468:	00004197          	auipc	x3,0x4
  # Check if x3 contains the expected result. x15 is the signature ptr, x5 is the link ptr, x4 is a temp reg.
  RVTEST_SIGUPD(x15, x5, x4, x3, I_auipc_cg_cp_imm_edges_20bit_0x4, I_auipc_cg_cp_imm_edges_20bit_0x4_str)
     46c:	0007a203          	lw	x4,0(x15)
     470:	00320863          	beq	x4,x3,480 <I_auipc_cg_cp_imm_edges_20bit_0x4+0x18>
     474:	2c8002ef          	jal	x5,73c <failedtest_x5_x4>
     478:	00000468          	.word	0x00000468
     47c:	000047f1          	.word	0x000047f1
     480:	00478793          	addi	x15,x15,4

00000484 <I_auipc_cg_cp_imm_edges_20bit_0x8>:

# Testcase cp_imm_edges_20bit (imm = 8)
I_auipc_cg_cp_imm_edges_20bit_0x8:
  auipc x23, 8 # perform operation
     484:	00008b97          	auipc	x23,0x8
  # Check if x23 contains the expected result. x15 is the signature ptr, x5 is the link ptr, x4 is a temp reg.
  RVTEST_SIGUPD(x15, x5, x4, x23, I_auipc_cg_cp_imm_edges_20bit_0x8, I_auipc_cg_cp_imm_edges_20bit_0x8_str)
     488:	0007a203          	lw	x4,0(x15)
     48c:	01720863          	beq	x4,x23,49c <I_auipc_cg_cp_imm_edges_20bit_0x8+0x18>
     490:	2ac002ef          	jal	x5,73c <failedtest_x5_x4>
     494:	00000484          	.word	0x00000484
     498:	0000482e          	.word	0x0000482e
     49c:	00478793          	addi	x15,x15,4

000004a0 <I_auipc_cg_cp_imm_edges_20bit_0x10>:

# Testcase cp_imm_edges_20bit (imm = 16)
I_auipc_cg_cp_imm_edges_20bit_0x10:
  auipc x29, 16 # perform operation
     4a0:	00010e97          	auipc	x29,0x10
  # Check if x29 contains the expected result. x15 is the signature ptr, x5 is the link ptr, x4 is a temp reg.
  RVTEST_SIGUPD(x15, x5, x4, x29, I_auipc_cg_cp_imm_edges_20bit_0x10, I_auipc_cg_cp_imm_edges_20bit_0x10_str)
     4a4:	0007a203          	lw	x4,0(x15)
     4a8:	01d20863          	beq	x4,x29,4b8 <I_auipc_cg_cp_imm_edges_20bit_0x10+0x18>
     4ac:	290002ef          	jal	x5,73c <failedtest_x5_x4>
     4b0:	000004a0          	.word	0x000004a0
     4b4:	0000486b          	.word	0x0000486b
     4b8:	00478793          	addi	x15,x15,4

000004bc <I_auipc_cg_cp_imm_edges_20bit_0x20>:

# Testcase cp_imm_edges_20bit (imm = 32)
I_auipc_cg_cp_imm_edges_20bit_0x20:
  auipc x31, 32 # perform operation
     4bc:	00020f97          	auipc	x31,0x20
  # Check if x31 contains the expected result. x15 is the signature ptr, x5 is the link ptr, x4 is a temp reg.
  RVTEST_SIGUPD(x15, x5, x4, x31, I_auipc_cg_cp_imm_edges_20bit_0x20, I_auipc_cg_cp_imm_edges_20bit_0x20_str)
     4c0:	0007a203          	lw	x4,0(x15)
     4c4:	01f20863          	beq	x4,x31,4d4 <I_auipc_cg_cp_imm_edges_20bit_0x20+0x18>
     4c8:	274002ef          	jal	x5,73c <failedtest_x5_x4>
     4cc:	000004bc          	.word	0x000004bc
     4d0:	000048a9          	.word	0x000048a9
     4d4:	00478793          	addi	x15,x15,4

000004d8 <I_auipc_cg_cp_imm_edges_20bit_0x40>:

# Testcase cp_imm_edges_20bit (imm = 64)
I_auipc_cg_cp_imm_edges_20bit_0x40:
  auipc x24, 64 # perform operation
     4d8:	00040c17          	auipc	x24,0x40
  # Check if x24 contains the expected result. x15 is the signature ptr, x5 is the link ptr, x4 is a temp reg.
  RVTEST_SIGUPD(x15, x5, x4, x24, I_auipc_cg_cp_imm_edges_20bit_0x40, I_auipc_cg_cp_imm_edges_20bit_0x40_str)
     4dc:	0007a203          	lw	x4,0(x15)
     4e0:	01820863          	beq	x4,x24,4f0 <I_auipc_cg_cp_imm_edges_20bit_0x40+0x18>
     4e4:	258002ef          	jal	x5,73c <failedtest_x5_x4>
     4e8:	000004d8          	.word	0x000004d8
     4ec:	000048e7          	.word	0x000048e7
     4f0:	00478793          	addi	x15,x15,4

000004f4 <I_auipc_cg_cp_imm_edges_20bit_0x80>:

# Testcase cp_imm_edges_20bit (imm = 128)
I_auipc_cg_cp_imm_edges_20bit_0x80:
  auipc x13, 128 # perform operation
     4f4:	00080697          	auipc	x13,0x80
  # Check if x13 contains the expected result. x15 is the signature ptr, x5 is the link ptr, x4 is a temp reg.
  RVTEST_SIGUPD(x15, x5, x4, x13, I_auipc_cg_cp_imm_edges_20bit_0x80, I_auipc_cg_cp_imm_edges_20bit_0x80_str)
     4f8:	0007a203          	lw	x4,0(x15)
     4fc:	00d20863          	beq	x4,x13,50c <I_auipc_cg_cp_imm_edges_20bit_0x80+0x18>
     500:	23c002ef          	jal	x5,73c <failedtest_x5_x4>
     504:	000004f4          	.word	0x000004f4
     508:	00004925          	.word	0x00004925
     50c:	00478793          	addi	x15,x15,4

00000510 <I_auipc_cg_cp_imm_edges_20bit_0x100>:

# Testcase cp_imm_edges_20bit (imm = 256)
I_auipc_cg_cp_imm_edges_20bit_0x100:
  auipc x7, 256 # perform operation
     510:	00100397          	auipc	x7,0x100
  # Check if x7 contains the expected result. x15 is the signature ptr, x5 is the link ptr, x4 is a temp reg.
  RVTEST_SIGUPD(x15, x5, x4, x7, I_auipc_cg_cp_imm_edges_20bit_0x100, I_auipc_cg_cp_imm_edges_20bit_0x100_str)
     514:	0007a203          	lw	x4,0(x15)
     518:	00720863          	beq	x4,x7,528 <I_auipc_cg_cp_imm_edges_20bit_0x100+0x18>
     51c:	220002ef          	jal	x5,73c <failedtest_x5_x4>
     520:	00000510          	.word	0x00000510
     524:	00004963          	.word	0x00004963
     528:	00478793          	addi	x15,x15,4

0000052c <I_auipc_cg_cp_imm_edges_20bit_0x200>:

# Testcase cp_imm_edges_20bit (imm = 512)
I_auipc_cg_cp_imm_edges_20bit_0x200:
  auipc x6, 512 # perform operation
     52c:	00200317          	auipc	x6,0x200
  # Check if x6 contains the expected result. x15 is the signature ptr, x5 is the link ptr, x4 is a temp reg.
  RVTEST_SIGUPD(x15, x5, x4, x6, I_auipc_cg_cp_imm_edges_20bit_0x200, I_auipc_cg_cp_imm_edges_20bit_0x200_str)
     530:	0007a203          	lw	x4,0(x15)
     534:	00620863          	beq	x4,x6,544 <I_auipc_cg_cp_imm_edges_20bit_0x200+0x18>
     538:	204002ef          	jal	x5,73c <failedtest_x5_x4>
     53c:	0000052c          	.word	0x0000052c
     540:	000049a2          	.word	0x000049a2
     544:	00478793          	addi	x15,x15,4

00000548 <I_auipc_cg_cp_imm_edges_20bit_0x400>:

# Testcase cp_imm_edges_20bit (imm = 1024)
I_auipc_cg_cp_imm_edges_20bit_0x400:
  auipc x10, 1024 # perform operation
     548:	00400517          	auipc	x10,0x400
  # Check if x10 contains the expected result. x15 is the signature ptr, x5 is the link ptr, x4 is a temp reg.
  RVTEST_SIGUPD(x15, x5, x4, x10, I_auipc_cg_cp_imm_edges_20bit_0x400, I_auipc_cg_cp_imm_edges_20bit_0x400_str)
     54c:	0007a203          	lw	x4,0(x15)
     550:	00a20863          	beq	x4,x10,560 <I_auipc_cg_cp_imm_edges_20bit_0x400+0x18>
     554:	1e8002ef          	jal	x5,73c <failedtest_x5_x4>
     558:	00000548          	.word	0x00000548
     55c:	000049e1          	.word	0x000049e1
     560:	00478793          	addi	x15,x15,4

00000564 <I_auipc_cg_cp_imm_edges_20bit_0x800>:

# Testcase cp_imm_edges_20bit (imm = 2048)
I_auipc_cg_cp_imm_edges_20bit_0x800:
  auipc x17, 2048 # perform operation
     564:	00800897          	auipc	x17,0x800
  # Check if x17 contains the expected result. x15 is the signature ptr, x5 is the link ptr, x4 is a temp reg.
  RVTEST_SIGUPD(x15, x5, x4, x17, I_auipc_cg_cp_imm_edges_20bit_0x800, I_auipc_cg_cp_imm_edges_20bit_0x800_str)
     568:	0007a203          	lw	x4,0(x15)
     56c:	01120863          	beq	x4,x17,57c <I_auipc_cg_cp_imm_edges_20bit_0x800+0x18>
     570:	1cc002ef          	jal	x5,73c <failedtest_x5_x4>
     574:	00000564          	.word	0x00000564
     578:	00004a20          	.word	0x00004a20
     57c:	00478793          	addi	x15,x15,4

00000580 <I_auipc_cg_cp_imm_edges_20bit_0x1000>:

# Testcase cp_imm_edges_20bit (imm = 4096)
I_auipc_cg_cp_imm_edges_20bit_0x1000:
  auipc x19, 4096 # perform operation
     580:	01000997          	auipc	x19,0x1000
  # Check if x19 contains the expected result. x15 is the signature ptr, x5 is the link ptr, x4 is a temp reg.
  RVTEST_SIGUPD(x15, x5, x4, x19, I_auipc_cg_cp_imm_edges_20bit_0x1000, I_auipc_cg_cp_imm_edges_20bit_0x1000_str)
     584:	0007a203          	lw	x4,0(x15)
     588:	01320863          	beq	x4,x19,598 <I_auipc_cg_cp_imm_edges_20bit_0x1000+0x18>
     58c:	1b0002ef          	jal	x5,73c <failedtest_x5_x4>
     590:	00000580          	.word	0x00000580
     594:	00004a5f          	.word	0x00004a5f
     598:	00478793          	addi	x15,x15,4

0000059c <I_auipc_cg_cp_imm_edges_20bit_0x2000>:

# Testcase cp_imm_edges_20bit (imm = 8192)
I_auipc_cg_cp_imm_edges_20bit_0x2000:
  auipc x16, 8192 # perform operation
     59c:	02000817          	auipc	x16,0x2000
  # Check if x16 contains the expected result. x15 is the signature ptr, x5 is the link ptr, x4 is a temp reg.
  RVTEST_SIGUPD(x15, x5, x4, x16, I_auipc_cg_cp_imm_edges_20bit_0x2000, I_auipc_cg_cp_imm_edges_20bit_0x2000_str)
     5a0:	0007a203          	lw	x4,0(x15)
     5a4:	01020863          	beq	x4,x16,5b4 <I_auipc_cg_cp_imm_edges_20bit_0x2000+0x18>
     5a8:	194002ef          	jal	x5,73c <failedtest_x5_x4>
     5ac:	0000059c          	.word	0x0000059c
     5b0:	00004a9f          	.word	0x00004a9f
     5b4:	00478793          	addi	x15,x15,4

000005b8 <I_auipc_cg_cp_imm_edges_20bit_0x4000>:

# Testcase cp_imm_edges_20bit (imm = 16384)
I_auipc_cg_cp_imm_edges_20bit_0x4000:
  auipc x24, 16384 # perform operation
     5b8:	04000c17          	auipc	x24,0x4000
  # Check if x24 contains the expected result. x15 is the signature ptr, x5 is the link ptr, x4 is a temp reg.
  RVTEST_SIGUPD(x15, x5, x4, x24, I_auipc_cg_cp_imm_edges_20bit_0x4000, I_auipc_cg_cp_imm_edges_20bit_0x4000_str)
     5bc:	0007a203          	lw	x4,0(x15)
     5c0:	01820863          	beq	x4,x24,5d0 <I_auipc_cg_cp_imm_edges_20bit_0x4000+0x18>
     5c4:	178002ef          	jal	x5,73c <failedtest_x5_x4>
     5c8:	000005b8          	.word	0x000005b8
     5cc:	00004adf          	.word	0x00004adf
     5d0:	00478793          	addi	x15,x15,4

000005d4 <I_auipc_cg_cp_imm_edges_20bit_0x8000>:

# Testcase cp_imm_edges_20bit (imm = 32768)
I_auipc_cg_cp_imm_edges_20bit_0x8000:
  auipc x17, 32768 # perform operation
     5d4:	08000897          	auipc	x17,0x8000
  # Check if x17 contains the expected result. x15 is the signature ptr, x5 is the link ptr, x4 is a temp reg.
  RVTEST_SIGUPD(x15, x5, x4, x17, I_auipc_cg_cp_imm_edges_20bit_0x8000, I_auipc_cg_cp_imm_edges_20bit_0x8000_str)
     5d8:	0007a203          	lw	x4,0(x15)
     5dc:	01120863          	beq	x4,x17,5ec <I_auipc_cg_cp_imm_edges_20bit_0x8000+0x18>
     5e0:	15c002ef          	jal	x5,73c <failedtest_x5_x4>
     5e4:	000005d4          	.word	0x000005d4
     5e8:	00004b1f          	.word	0x00004b1f
     5ec:	00478793          	addi	x15,x15,4

000005f0 <I_auipc_cg_cp_imm_edges_20bit_0x10000>:

# Testcase cp_imm_edges_20bit (imm = 65536)
I_auipc_cg_cp_imm_edges_20bit_0x10000:
  auipc x23, 65536 # perform operation
     5f0:	10000b97          	auipc	x23,0x10000
  # Check if x23 contains the expected result. x15 is the signature ptr, x5 is the link ptr, x4 is a temp reg.
  RVTEST_SIGUPD(x15, x5, x4, x23, I_auipc_cg_cp_imm_edges_20bit_0x10000, I_auipc_cg_cp_imm_edges_20bit_0x10000_str)
     5f4:	0007a203          	lw	x4,0(x15)
     5f8:	01720863          	beq	x4,x23,608 <I_auipc_cg_cp_imm_edges_20bit_0x10000+0x18>
     5fc:	140002ef          	jal	x5,73c <failedtest_x5_x4>
     600:	000005f0          	.word	0x000005f0
     604:	00004b5f          	.word	0x00004b5f
     608:	00478793          	addi	x15,x15,4

0000060c <I_auipc_cg_cp_imm_edges_20bit_0x20000>:

# Testcase cp_imm_edges_20bit (imm = 131072)
I_auipc_cg_cp_imm_edges_20bit_0x20000:
  auipc x25, 131072 # perform operation
     60c:	20000c97          	auipc	x25,0x20000
  # Check if x25 contains the expected result. x15 is the signature ptr, x5 is the link ptr, x4 is a temp reg.
  RVTEST_SIGUPD(x15, x5, x4, x25, I_auipc_cg_cp_imm_edges_20bit_0x20000, I_auipc_cg_cp_imm_edges_20bit_0x20000_str)
     610:	0007a203          	lw	x4,0(x15)
     614:	01920863          	beq	x4,x25,624 <I_auipc_cg_cp_imm_edges_20bit_0x20000+0x18>
     618:	124002ef          	jal	x5,73c <failedtest_x5_x4>
     61c:	0000060c          	.word	0x0000060c
     620:	00004ba0          	.word	0x00004ba0
     624:	00478793          	addi	x15,x15,4

00000628 <I_auipc_cg_cp_imm_edges_20bit_0x40000>:

# Testcase cp_imm_edges_20bit (imm = 262144)
I_auipc_cg_cp_imm_edges_20bit_0x40000:
  auipc x6, 262144 # perform operation
     628:	40000317          	auipc	x6,0x40000
  # Check if x6 contains the expected result. x15 is the signature ptr, x5 is the link ptr, x4 is a temp reg.
  RVTEST_SIGUPD(x15, x5, x4, x6, I_auipc_cg_cp_imm_edges_20bit_0x40000, I_auipc_cg_cp_imm_edges_20bit_0x40000_str)
     62c:	0007a203          	lw	x4,0(x15)
     630:	00620863          	beq	x4,x6,640 <I_auipc_cg_cp_imm_edges_20bit_0x40000+0x18>
     634:	108002ef          	jal	x5,73c <failedtest_x5_x4>
     638:	00000628          	.word	0x00000628
     63c:	00004be1          	.word	0x00004be1
     640:	00478793          	addi	x15,x15,4

00000644 <I_auipc_cg_cp_imm_edges_20bit_0x7fffe>:

# Testcase cp_imm_edges_20bit (imm = 524286)
I_auipc_cg_cp_imm_edges_20bit_0x7fffe:
  auipc x25, 524286 # perform operation
     644:	7fffec97          	auipc	x25,0x7fffe
  # Check if x25 contains the expected result. x15 is the signature ptr, x5 is the link ptr, x4 is a temp reg.
  RVTEST_SIGUPD(x15, x5, x4, x25, I_auipc_cg_cp_imm_edges_20bit_0x7fffe, I_auipc_cg_cp_imm_edges_20bit_0x7fffe_str)
     648:	0007a203          	lw	x4,0(x15)
     64c:	01920863          	beq	x4,x25,65c <I_auipc_cg_cp_imm_edges_20bit_0x7fffe+0x18>
     650:	0ec002ef          	jal	x5,73c <failedtest_x5_x4>
     654:	00000644          	.word	0x00000644
     658:	00004c22          	.word	0x00004c22
     65c:	00478793          	addi	x15,x15,4

00000660 <I_auipc_cg_cp_imm_edges_20bit_0x7ffff>:

# Testcase cp_imm_edges_20bit (imm = 524287)
I_auipc_cg_cp_imm_edges_20bit_0x7ffff:
  auipc x24, 524287 # perform operation
     660:	7ffffc17          	auipc	x24,0x7ffff
  # Check if x24 contains the expected result. x15 is the signature ptr, x5 is the link ptr, x4 is a temp reg.
  RVTEST_SIGUPD(x15, x5, x4, x24, I_auipc_cg_cp_imm_edges_20bit_0x7ffff, I_auipc_cg_cp_imm_edges_20bit_0x7ffff_str)
     664:	0007a203          	lw	x4,0(x15)
     668:	01820863          	beq	x4,x24,678 <I_auipc_cg_cp_imm_edges_20bit_0x7ffff+0x18>
     66c:	0d0002ef          	jal	x5,73c <failedtest_x5_x4>
     670:	00000660          	.word	0x00000660
     674:	00004c63          	.word	0x00004c63
     678:	00478793          	addi	x15,x15,4

0000067c <I_auipc_cg_cp_imm_edges_20bit_0x80000>:

# Testcase cp_imm_edges_20bit (imm = 524288)
I_auipc_cg_cp_imm_edges_20bit_0x80000:
  auipc x21, 524288 # perform operation
     67c:	80000a97          	auipc	x21,0x80000
  # Check if x21 contains the expected result. x15 is the signature ptr, x5 is the link ptr, x4 is a temp reg.
  RVTEST_SIGUPD(x15, x5, x4, x21, I_auipc_cg_cp_imm_edges_20bit_0x80000, I_auipc_cg_cp_imm_edges_20bit_0x80000_str)
     680:	0007a203          	lw	x4,0(x15)
     684:	01520863          	beq	x4,x21,694 <I_auipc_cg_cp_imm_edges_20bit_0x80000+0x18>
     688:	0b4002ef          	jal	x5,73c <failedtest_x5_x4>
     68c:	0000067c          	.word	0x0000067c
     690:	00004ca4          	.word	0x00004ca4
     694:	00478793          	addi	x15,x15,4

00000698 <I_auipc_cg_cp_imm_edges_20bit_0x80001>:

# Testcase cp_imm_edges_20bit (imm = 524289)
I_auipc_cg_cp_imm_edges_20bit_0x80001:
  auipc x8, 524289 # perform operation
     698:	80001417          	auipc	x8,0x80001
  # Check if x8 contains the expected result. x15 is the signature ptr, x5 is the link ptr, x4 is a temp reg.
  RVTEST_SIGUPD(x15, x5, x4, x8, I_auipc_cg_cp_imm_edges_20bit_0x80001, I_auipc_cg_cp_imm_edges_20bit_0x80001_str)
     69c:	0007a203          	lw	x4,0(x15)
     6a0:	00820863          	beq	x4,x8,6b0 <I_auipc_cg_cp_imm_edges_20bit_0x80001+0x18>
     6a4:	098002ef          	jal	x5,73c <failedtest_x5_x4>
     6a8:	00000698          	.word	0x00000698
     6ac:	00004ce5          	.word	0x00004ce5
     6b0:	00478793          	addi	x15,x15,4

000006b4 <I_auipc_cg_cp_imm_edges_20bit_0xffffe>:

# Testcase cp_imm_edges_20bit (imm = 1048574)
I_auipc_cg_cp_imm_edges_20bit_0xffffe:
  auipc x16, 1048574 # perform operation
     6b4:	ffffe817          	auipc	x16,0xffffe
  # Check if x16 contains the expected result. x15 is the signature ptr, x5 is the link ptr, x4 is a temp reg.
  RVTEST_SIGUPD(x15, x5, x4, x16, I_auipc_cg_cp_imm_edges_20bit_0xffffe, I_auipc_cg_cp_imm_edges_20bit_0xffffe_str)
     6b8:	0007a203          	lw	x4,0(x15)
     6bc:	01020863          	beq	x4,x16,6cc <I_auipc_cg_cp_imm_edges_20bit_0xffffe+0x18>
     6c0:	07c002ef          	jal	x5,73c <failedtest_x5_x4>
     6c4:	000006b4          	.word	0x000006b4
     6c8:	00004d26          	.word	0x00004d26
     6cc:	00478793          	addi	x15,x15,4

000006d0 <I_auipc_cg_cp_imm_edges_20bit_0xfffff>:

# Testcase cp_imm_edges_20bit (imm = 1048575)
I_auipc_cg_cp_imm_edges_20bit_0xfffff:
  auipc x16, 1048575 # perform operation
     6d0:	fffff817          	auipc	x16,0xfffff
  # Check if x16 contains the expected result. x15 is the signature ptr, x5 is the link ptr, x4 is a temp reg.
  RVTEST_SIGUPD(x15, x5, x4, x16, I_auipc_cg_cp_imm_edges_20bit_0xfffff, I_auipc_cg_cp_imm_edges_20bit_0xfffff_str)
     6d4:	0007a203          	lw	x4,0(x15)
     6d8:	01020863          	beq	x4,x16,6e8 <I_auipc_cg_cp_imm_edges_20bit_0xfffff+0x18>
     6dc:	060002ef          	jal	x5,73c <failedtest_x5_x4>
     6e0:	000006d0          	.word	0x000006d0
     6e4:	00004d67          	.word	0x00004d67
     6e8:	00478793          	addi	x15,x15,4

  mv x2, x15 # restore signature pointer to default register for teardown
     6ec:	00078113          	addi	x2,x15,0

000006f0 <cleanup_epilogs>:
     6f0:	00000013          	addi	x0,x0,0
     6f4:	00000013          	addi	x0,x0,0
     6f8:	00000013          	addi	x0,x0,0
     6fc:	00000013          	addi	x0,x0,0

// Instantiate trap handlers and other epilog code, call RVMODEL_HALT at end of test
RVTEST_CODE_END
     700:	00005517          	auipc	x10,0x5
     704:	d1450513          	addi	x10,x10,-748 # 5414 <successstr>
     708:	00000013          	addi	x0,x0,0
     70c:	00000013          	addi	x0,x0,0
     710:	00000013          	addi	x0,x0,0
     714:	00000013          	addi	x0,x0,0
     718:	00000013          	addi	x0,x0,0
     71c:	00000013          	addi	x0,x0,0
     720:	00016097          	auipc	x1,0x16
     724:	ae4080e7          	jalr	x1,-1308(x1) # 16204 <rvmodel_io_write_str>
     728:	00016097          	auipc	x1,0x16
     72c:	ae0080e7          	jalr	x1,-1312(x1) # 16208 <rvmodel_halt_pass>

00000730 <abort_test>:
     730:	bad0e737          	lui	x14,0xbad0e
     734:	ead70713          	addi	x14,x14,-339 # bad0dead <absimm+0x4b743ba4>
     738:	fb9ff06f          	jal	x0,6f0 <cleanup_epilogs>

0000073c <failedtest_x5_x4>:
     73c:	00004217          	auipc	x4,0x4
     740:	67420213          	addi	x4,x4,1652 # 4db0 <begin_failure_scratch>
     744:	02522423          	sw	x5,40(x4) # 28 <MMODE_SIG+0x25>
     748:	00122423          	sw	x1,8(x4) # 8 <MMODE_SIG+0x5>
     74c:	00022023          	sw	x0,0(x4) # 0 <rvtest_entry_point>
     750:	0b00006f          	jal	x0,800 <failedtest_saveregs>

00000754 <failedtest_x8_x7>:
     754:	00004397          	auipc	x7,0x4
     758:	65c38393          	addi	x7,x7,1628 # 4db0 <begin_failure_scratch>
     75c:	0483a023          	sw	x8,64(x7)
     760:	0243a023          	sw	x4,32(x7)
     764:	0253a423          	sw	x5,40(x7)
     768:	0013a423          	sw	x1,8(x7)
     76c:	0003a023          	sw	x0,0(x7)
     770:	00038213          	addi	x4,x7,0
     774:	00040293          	addi	x5,x8,0 # 80001698 <absimm+0x10a3738f>
     778:	0880006f          	jal	x0,800 <failedtest_saveregs>

0000077c <failedtest_x14_x13>:
     77c:	00004697          	auipc	x13,0x4
     780:	63468693          	addi	x13,x13,1588 # 4db0 <begin_failure_scratch>
     784:	06e6a823          	sw	x14,112(x13)
     788:	0246a023          	sw	x4,32(x13)
     78c:	0256a423          	sw	x5,40(x13)
     790:	0016a423          	sw	x1,8(x13)
     794:	0006a023          	sw	x0,0(x13)
     798:	00068213          	addi	x4,x13,0
     79c:	00070293          	addi	x5,x14,0
     7a0:	0600006f          	jal	x0,800 <failedtest_saveregs>

000007a4 <failedtest_trap_x7_x9>:
     7a4:	00004497          	auipc	x9,0x4
     7a8:	60c48493          	addi	x9,x9,1548 # 4db0 <begin_failure_scratch>
     7ac:	0674a423          	sw	x7,104(x9)
     7b0:	0244a023          	sw	x4,32(x9)
     7b4:	0254a423          	sw	x5,40(x9)
     7b8:	0014a423          	sw	x1,8(x9)
     7bc:	00300093          	addi	x1,x0,3
     7c0:	0014a023          	sw	x1,0(x9)
     7c4:	00048213          	addi	x4,x9,0
     7c8:	00038293          	addi	x5,x7,0
     7cc:	342020f3          	csrrs	x1,mcause,x0
     7d0:	00004497          	auipc	x9,0x4
     7d4:	75048493          	addi	x9,x9,1872 # 4f20 <saved_mcause>
     7d8:	0014a023          	sw	x1,0(x9)
     7dc:	343020f3          	csrrs	x1,mtval,x0
     7e0:	00004497          	auipc	x9,0x4
     7e4:	74848493          	addi	x9,x9,1864 # 4f28 <saved_mtval>
     7e8:	0014a023          	sw	x1,0(x9)
     7ec:	300020f3          	csrrs	x1,mstatus,x0
     7f0:	00004497          	auipc	x9,0x4
     7f4:	74048493          	addi	x9,x9,1856 # 4f30 <saved_mstatus>
     7f8:	0014a023          	sw	x1,0(x9)
     7fc:	0040006f          	jal	x0,800 <failedtest_saveregs>

00000800 <failedtest_saveregs>:
     800:	00222823          	sw	x2,16(x4) # 10 <MMODE_SIG+0xd>
     804:	00322c23          	sw	x3,24(x4) # 18 <MMODE_SIG+0x15>
     808:	02622823          	sw	x6,48(x4) # 30 <MMODE_SIG+0x2d>
     80c:	02722c23          	sw	x7,56(x4) # 38 <MMODE_SIG+0x35>
     810:	04822023          	sw	x8,64(x4) # 40 <rvtest_code_begin>
     814:	04922423          	sw	x9,72(x4) # 48 <rvtest_code_begin+0x8>
     818:	04a22823          	sw	x10,80(x4) # 50 <rvtest_code_begin+0x10>
     81c:	04b22c23          	sw	x11,88(x4) # 58 <rvtest_code_begin+0x18>
     820:	06c22023          	sw	x12,96(x4) # 60 <I_auipc_cg_cp_rd_b1+0x4>
     824:	06d22423          	sw	x13,104(x4) # 68 <I_auipc_cg_cp_rd_b1+0xc>
     828:	06e22823          	sw	x14,112(x4) # 70 <I_auipc_cg_cp_rd_b1+0x14>
     82c:	06f22c23          	sw	x15,120(x4) # 78 <I_auipc_cg_cp_rd_b1+0x1c>
     830:	09022023          	sw	x16,128(x4) # 80 <I_auipc_cg_cp_rd_b2+0x4>
     834:	09122423          	sw	x17,136(x4) # 88 <I_auipc_cg_cp_rd_b2+0xc>
     838:	09222823          	sw	x18,144(x4) # 90 <I_auipc_cg_cp_rd_b2+0x14>
     83c:	09322c23          	sw	x19,152(x4) # 98 <I_auipc_cg_cp_rd_b2+0x1c>
     840:	0b422023          	sw	x20,160(x4) # a0 <I_auipc_cg_cp_rd_b3+0x4>
     844:	0b522423          	sw	x21,168(x4) # a8 <I_auipc_cg_cp_rd_b3+0xc>
     848:	0b622823          	sw	x22,176(x4) # b0 <I_auipc_cg_cp_rd_b3+0x14>
     84c:	0b722c23          	sw	x23,184(x4) # b8 <I_auipc_cg_cp_rd_b3+0x1c>
     850:	0d822023          	sw	x24,192(x4) # c0 <I_auipc_cg_cp_rd_b4>
     854:	0d922423          	sw	x25,200(x4) # c8 <I_auipc_cg_cp_rd_b4+0x8>
     858:	0da22823          	sw	x26,208(x4) # d0 <I_auipc_cg_cp_rd_b4+0x10>
     85c:	0db22c23          	sw	x27,216(x4) # d8 <I_auipc_cg_cp_rd_b4+0x18>
     860:	0fc22023          	sw	x28,224(x4) # e0 <I_auipc_cg_cp_rd_b5+0x4>
     864:	0fd22423          	sw	x29,232(x4) # e8 <I_auipc_cg_cp_rd_b5+0xc>
     868:	0fe22823          	sw	x30,240(x4) # f0 <I_auipc_cg_cp_rd_b5+0x14>
     86c:	0ff22c23          	sw	x31,248(x4) # f8 <I_auipc_cg_cp_rd_b6>

00000870 <failedtest_saveresults>:
     870:	00004497          	auipc	x9,0x4
     874:	5404a483          	lw	x9,1344(x9) # 4db0 <begin_failure_scratch>
     878:	00300513          	addi	x10,x0,3
     87c:	06a48863          	beq	x9,x10,8ec <failedtest_saveresults_trap>

00000880 <failedtest_saveresults_int>:
     880:	ffa2d303          	lhu	x6,-6(x5) # 35ca30d6 <_end+0x35c8c0d6>
     884:	ff82d383          	lhu	x7,-8(x5)
     888:	01031313          	slli	x6,x6,0x10
     88c:	00736333          	or	x6,x6,x7
     890:	00f35393          	srli	x7,x6,0xf
     894:	01f3f393          	andi	x7,x7,31
     898:	01435413          	srli	x8,x6,0x14
     89c:	01f47413          	andi	x8,x8,31
     8a0:	10822223          	sw	x8,260(x4) # 104 <I_auipc_cg_cp_rd_b6+0xc>
     8a4:	00341313          	slli	x6,x8,0x3
     8a8:	00620333          	add	x6,x4,x6
     8ac:	00032303          	lw	x6,0(x6) # 40000628 <_end+0x3ffe9628>
     8b0:	10622823          	sw	x6,272(x4) # 110 <I_auipc_cg_cp_rd_b6+0x18>
     8b4:	ff62d303          	lhu	x6,-10(x5)
     8b8:	ff42d383          	lhu	x7,-12(x5)
     8bc:	01031313          	slli	x6,x6,0x10
     8c0:	00736333          	or	x6,x6,x7
     8c4:	41435393          	srai	x7,x6,0x14
     8c8:	00f35313          	srli	x6,x6,0xf
     8cc:	01f37313          	andi	x6,x6,31
     8d0:	00331313          	slli	x6,x6,0x3
     8d4:	00620333          	add	x6,x4,x6
     8d8:	00032303          	lw	x6,0(x6)
     8dc:	00730333          	add	x6,x6,x7
     8e0:	00032303          	lw	x6,0(x6)
     8e4:	10622c23          	sw	x6,280(x4) # 118 <I_auipc_cg_cp_rd_b6+0x20>
     8e8:	3d80006f          	jal	x0,cc0 <failedtest_saveresults_common>

000008ec <failedtest_saveresults_trap>:
     8ec:	0042a303          	lw	x6,4(x5)
     8f0:	00004817          	auipc	x16,0x4
     8f4:	61880813          	addi	x16,x16,1560 # 4f08 <trap_diag_fail_str_ptr>
     8f8:	00682023          	sw	x6,0(x16)
     8fc:	0002a303          	lw	x6,0(x5)
     900:	10622423          	sw	x6,264(x4) # 108 <I_auipc_cg_cp_rd_b6+0x10>
     904:	00004817          	auipc	x16,0x4
     908:	60480813          	addi	x16,x16,1540 # 4f08 <trap_diag_fail_str_ptr>
     90c:	00082303          	lw	x6,0(x16)
     910:	00005397          	auipc	x7,0x5
     914:	cce38393          	addi	x7,x7,-818 # 55de <trap_sig_offset_mismatch>
     918:	28730463          	beq	x6,x7,ba0 <trap_diag_offset_mismatch>
     91c:	00000413          	addi	x8,x0,0
     920:	00004817          	auipc	x16,0x4
     924:	5c080813          	addi	x16,x16,1472 # 4ee0 <trap_diag_subtype>
     928:	00882023          	sw	x8,0(x16)
     92c:	00005397          	auipc	x7,0x5
     930:	d1638393          	addi	x7,x7,-746 # 5642 <sv_Mvect_str>
     934:	00731863          	bne	x6,x7,944 <failedtest_saveresults_trap+0x58>
     938:	00100413          	addi	x8,x0,1
     93c:	00000493          	addi	x9,x0,0
     940:	2e00006f          	jal	x0,c20 <trap_diag_field_identified>
     944:	00005397          	auipc	x7,0x5
     948:	e0038393          	addi	x7,x7,-512 # 5744 <sv_Mcause_str>
     94c:	00731863          	bne	x6,x7,95c <failedtest_saveresults_trap+0x70>
     950:	00200413          	addi	x8,x0,2
     954:	00000493          	addi	x9,x0,0
     958:	2c80006f          	jal	x0,c20 <trap_diag_field_identified>
     95c:	00005397          	auipc	x7,0x5
     960:	ee338393          	addi	x7,x7,-285 # 583f <sv_Mepc_str>
     964:	00731863          	bne	x6,x7,974 <failedtest_saveresults_trap+0x88>
     968:	00300413          	addi	x8,x0,3
     96c:	00000493          	addi	x9,x0,0
     970:	2b00006f          	jal	x0,c20 <trap_diag_field_identified>
     974:	00005397          	auipc	x7,0x5
     978:	fbe38393          	addi	x7,x7,-66 # 5932 <sv_Mtval_str>
     97c:	00731863          	bne	x6,x7,98c <failedtest_saveresults_trap+0xa0>
     980:	00400413          	addi	x8,x0,4
     984:	00000493          	addi	x9,x0,0
     988:	2980006f          	jal	x0,c20 <trap_diag_field_identified>
     98c:	00005397          	auipc	x7,0x5
     990:	11938393          	addi	x7,x7,281 # 5aa5 <sv_Mip_str>
     994:	00731863          	bne	x6,x7,9a4 <failedtest_saveresults_trap+0xb8>
     998:	00500413          	addi	x8,x0,5
     99c:	00000493          	addi	x9,x0,0
     9a0:	2800006f          	jal	x0,c20 <trap_diag_field_identified>
     9a4:	00005397          	auipc	x7,0x5
     9a8:	08538393          	addi	x7,x7,133 # 5a29 <sv_Mtval2_str>
     9ac:	00731863          	bne	x6,x7,9bc <failedtest_saveresults_trap+0xd0>
     9b0:	00600413          	addi	x8,x0,6
     9b4:	00000493          	addi	x9,x0,0
     9b8:	2680006f          	jal	x0,c20 <trap_diag_field_identified>
     9bc:	00005397          	auipc	x7,0x5
     9c0:	0ab38393          	addi	x7,x7,171 # 5a67 <sv_Mtinst_str>
     9c4:	00731863          	bne	x6,x7,9d4 <failedtest_saveresults_trap+0xe8>
     9c8:	00700413          	addi	x8,x0,7
     9cc:	00000493          	addi	x9,x0,0
     9d0:	2500006f          	jal	x0,c20 <trap_diag_field_identified>
     9d4:	00005397          	auipc	x7,0x5
     9d8:	cae38393          	addi	x7,x7,-850 # 5682 <sv_Svect_str>
     9dc:	00731863          	bne	x6,x7,9ec <failedtest_saveresults_trap+0x100>
     9e0:	00100413          	addi	x8,x0,1
     9e4:	00100493          	addi	x9,x0,1
     9e8:	2380006f          	jal	x0,c20 <trap_diag_field_identified>
     9ec:	00005397          	auipc	x7,0x5
     9f0:	d9638393          	addi	x7,x7,-618 # 5782 <sv_Scause_str>
     9f4:	00731863          	bne	x6,x7,a04 <failedtest_saveresults_trap+0x118>
     9f8:	00200413          	addi	x8,x0,2
     9fc:	00100493          	addi	x9,x0,1
     a00:	2200006f          	jal	x0,c20 <trap_diag_field_identified>
     a04:	00005397          	auipc	x7,0x5
     a08:	e7738393          	addi	x7,x7,-393 # 587b <sv_Sepc_str>
     a0c:	00731863          	bne	x6,x7,a1c <failedtest_saveresults_trap+0x130>
     a10:	00300413          	addi	x8,x0,3
     a14:	00100493          	addi	x9,x0,1
     a18:	2080006f          	jal	x0,c20 <trap_diag_field_identified>
     a1c:	00005397          	auipc	x7,0x5
     a20:	f5338393          	addi	x7,x7,-173 # 596f <sv_Stval_str>
     a24:	00731863          	bne	x6,x7,a34 <failedtest_saveresults_trap+0x148>
     a28:	00400413          	addi	x8,x0,4
     a2c:	00100493          	addi	x9,x0,1
     a30:	1f00006f          	jal	x0,c20 <trap_diag_field_identified>
     a34:	00005397          	auipc	x7,0x5
     a38:	0ac38393          	addi	x7,x7,172 # 5ae0 <sv_Sip_str>
     a3c:	00731863          	bne	x6,x7,a4c <failedtest_saveresults_trap+0x160>
     a40:	00500413          	addi	x8,x0,5
     a44:	00100493          	addi	x9,x0,1
     a48:	1d80006f          	jal	x0,c20 <trap_diag_field_identified>
     a4c:	00005397          	auipc	x7,0x5
     a50:	c7638393          	addi	x7,x7,-906 # 56c2 <sv_Hvect_str>
     a54:	00731863          	bne	x6,x7,a64 <failedtest_saveresults_trap+0x178>
     a58:	00100413          	addi	x8,x0,1
     a5c:	00200493          	addi	x9,x0,2
     a60:	1c00006f          	jal	x0,c20 <trap_diag_field_identified>
     a64:	00005397          	auipc	x7,0x5
     a68:	d5c38393          	addi	x7,x7,-676 # 57c0 <sv_Hcause_str>
     a6c:	00731863          	bne	x6,x7,a7c <failedtest_saveresults_trap+0x190>
     a70:	00200413          	addi	x8,x0,2
     a74:	00200493          	addi	x9,x0,2
     a78:	1a80006f          	jal	x0,c20 <trap_diag_field_identified>
     a7c:	00005397          	auipc	x7,0x5
     a80:	e3b38393          	addi	x7,x7,-453 # 58b7 <sv_Hepc_str>
     a84:	00731863          	bne	x6,x7,a94 <failedtest_saveresults_trap+0x1a8>
     a88:	00300413          	addi	x8,x0,3
     a8c:	00200493          	addi	x9,x0,2
     a90:	1900006f          	jal	x0,c20 <trap_diag_field_identified>
     a94:	00005397          	auipc	x7,0x5
     a98:	f1838393          	addi	x7,x7,-232 # 59ac <sv_Htval_str>
     a9c:	00731863          	bne	x6,x7,aac <failedtest_saveresults_trap+0x1c0>
     aa0:	00400413          	addi	x8,x0,4
     aa4:	00200493          	addi	x9,x0,2
     aa8:	1780006f          	jal	x0,c20 <trap_diag_field_identified>
     aac:	00005397          	auipc	x7,0x5
     ab0:	06f38393          	addi	x7,x7,111 # 5b1b <sv_Hip_str>
     ab4:	00731863          	bne	x6,x7,ac4 <failedtest_saveresults_trap+0x1d8>
     ab8:	00500413          	addi	x8,x0,5
     abc:	00200493          	addi	x9,x0,2
     ac0:	1600006f          	jal	x0,c20 <trap_diag_field_identified>
     ac4:	00005397          	auipc	x7,0x5
     ac8:	c3f38393          	addi	x7,x7,-961 # 5703 <sv_Vvect_str>
     acc:	00731863          	bne	x6,x7,adc <failedtest_saveresults_trap+0x1f0>
     ad0:	00100413          	addi	x8,x0,1
     ad4:	00300493          	addi	x9,x0,3
     ad8:	1480006f          	jal	x0,c20 <trap_diag_field_identified>
     adc:	00005397          	auipc	x7,0x5
     ae0:	d2338393          	addi	x7,x7,-733 # 57ff <sv_Vcause_str>
     ae4:	00731863          	bne	x6,x7,af4 <failedtest_saveresults_trap+0x208>
     ae8:	00200413          	addi	x8,x0,2
     aec:	00300493          	addi	x9,x0,3
     af0:	1300006f          	jal	x0,c20 <trap_diag_field_identified>
     af4:	00005397          	auipc	x7,0x5
     af8:	e0038393          	addi	x7,x7,-512 # 58f4 <sv_Vepc_str>
     afc:	00731863          	bne	x6,x7,b0c <failedtest_saveresults_trap+0x220>
     b00:	00300413          	addi	x8,x0,3
     b04:	00300493          	addi	x9,x0,3
     b08:	1180006f          	jal	x0,c20 <trap_diag_field_identified>
     b0c:	00005397          	auipc	x7,0x5
     b10:	ede38393          	addi	x7,x7,-290 # 59ea <sv_Vtval_str>
     b14:	00731863          	bne	x6,x7,b24 <failedtest_saveresults_trap+0x238>
     b18:	00400413          	addi	x8,x0,4
     b1c:	00300493          	addi	x9,x0,3
     b20:	1000006f          	jal	x0,c20 <trap_diag_field_identified>
     b24:	00005397          	auipc	x7,0x5
     b28:	03338393          	addi	x7,x7,51 # 5b57 <sv_Vip_str>
     b2c:	00731863          	bne	x6,x7,b3c <failedtest_saveresults_trap+0x250>
     b30:	00500413          	addi	x8,x0,5
     b34:	00300493          	addi	x9,x0,3
     b38:	0e80006f          	jal	x0,c20 <trap_diag_field_identified>
     b3c:	00005397          	auipc	x7,0x5
     b40:	05838393          	addi	x7,x7,88 # 5b94 <Mclr_Mext_int_str>
     b44:	00731863          	bne	x6,x7,b54 <failedtest_saveresults_trap+0x268>
     b48:	00800413          	addi	x8,x0,8
     b4c:	00000493          	addi	x9,x0,0
     b50:	0d00006f          	jal	x0,c20 <trap_diag_field_identified>
     b54:	00005397          	auipc	x7,0x5
     b58:	08f38393          	addi	x7,x7,143 # 5be3 <Mclr_Sext_int_str>
     b5c:	00731863          	bne	x6,x7,b6c <failedtest_saveresults_trap+0x280>
     b60:	00800413          	addi	x8,x0,8
     b64:	00000493          	addi	x9,x0,0
     b68:	0b80006f          	jal	x0,c20 <trap_diag_field_identified>
     b6c:	00005397          	auipc	x7,0x5
     b70:	17238393          	addi	x7,x7,370 # 5cde <Sclr_Sext_int_str>
     b74:	00731863          	bne	x6,x7,b84 <failedtest_saveresults_trap+0x298>
     b78:	00800413          	addi	x8,x0,8
     b7c:	00100493          	addi	x9,x0,1
     b80:	0a00006f          	jal	x0,c20 <trap_diag_field_identified>
     b84:	00005397          	auipc	x7,0x5
     b88:	25638393          	addi	x7,x7,598 # 5dda <Hclr_Sext_int_str>
     b8c:	00731863          	bne	x6,x7,b9c <failedtest_saveresults_trap+0x2b0>
     b90:	00800413          	addi	x8,x0,8
     b94:	00200493          	addi	x9,x0,2
     b98:	0880006f          	jal	x0,c20 <trap_diag_field_identified>
     b9c:	1140006f          	jal	x0,cb0 <trap_diag_generic_report>

00000ba0 <trap_diag_offset_mismatch>:
     ba0:	00900413          	addi	x8,x0,9
     ba4:	00004817          	auipc	x16,0x4
     ba8:	33c80813          	addi	x16,x16,828 # 4ee0 <trap_diag_subtype>
     bac:	00882023          	sw	x8,0(x16)
     bb0:	ffa2d303          	lhu	x6,-6(x5)
     bb4:	ff82d383          	lhu	x7,-8(x5)
     bb8:	01031313          	slli	x6,x6,0x10
     bbc:	00736333          	or	x6,x6,x7
     bc0:	01435413          	srli	x8,x6,0x14
     bc4:	01f47413          	andi	x8,x8,31
     bc8:	00341313          	slli	x6,x8,0x3
     bcc:	00620333          	add	x6,x4,x6
     bd0:	00032303          	lw	x6,0(x6)
     bd4:	00004817          	auipc	x16,0x4
     bd8:	32480813          	addi	x16,x16,804 # 4ef8 <trap_diag_actual_offset>
     bdc:	00682023          	sw	x6,0(x16)
     be0:	ff62d303          	lhu	x6,-10(x5)
     be4:	ff42d383          	lhu	x7,-12(x5)
     be8:	01031313          	slli	x6,x6,0x10
     bec:	00736333          	or	x6,x6,x7
     bf0:	41435393          	srai	x7,x6,0x14
     bf4:	00f35313          	srli	x6,x6,0xf
     bf8:	01f37313          	andi	x6,x6,31
     bfc:	00331313          	slli	x6,x6,0x3
     c00:	00620333          	add	x6,x4,x6
     c04:	00032303          	lw	x6,0(x6)
     c08:	00730333          	add	x6,x6,x7
     c0c:	00032303          	lw	x6,0(x6)
     c10:	00004817          	auipc	x16,0x4
     c14:	2f080813          	addi	x16,x16,752 # 4f00 <trap_diag_expected_offset>
     c18:	00682023          	sw	x6,0(x16)
     c1c:	0a40006f          	jal	x0,cc0 <failedtest_saveresults_common>

00000c20 <trap_diag_field_identified>:
     c20:	00004817          	auipc	x16,0x4
     c24:	2c080813          	addi	x16,x16,704 # 4ee0 <trap_diag_subtype>
     c28:	00882023          	sw	x8,0(x16)
     c2c:	00004817          	auipc	x16,0x4
     c30:	2b880813          	addi	x16,x16,696 # 4ee4 <trap_diag_mode>
     c34:	00982023          	sw	x9,0(x16)
     c38:	ffa2d303          	lhu	x6,-6(x5)
     c3c:	ff82d383          	lhu	x7,-8(x5)
     c40:	01031313          	slli	x6,x6,0x10
     c44:	00736333          	or	x6,x6,x7
     c48:	01435713          	srli	x14,x6,0x14
     c4c:	01f77713          	andi	x14,x14,31
     c50:	00371313          	slli	x6,x14,0x3
     c54:	00620333          	add	x6,x4,x6
     c58:	00032303          	lw	x6,0(x6)
     c5c:	10622823          	sw	x6,272(x4) # 110 <I_auipc_cg_cp_rd_b6+0x18>
     c60:	00004817          	auipc	x16,0x4
     c64:	28880813          	addi	x16,x16,648 # 4ee8 <trap_diag_actual_value>
     c68:	00682023          	sw	x6,0(x16)
     c6c:	ff62d303          	lhu	x6,-10(x5)
     c70:	ff42d383          	lhu	x7,-12(x5)
     c74:	01031313          	slli	x6,x6,0x10
     c78:	00736333          	or	x6,x6,x7
     c7c:	41435393          	srai	x7,x6,0x14
     c80:	00f35313          	srli	x6,x6,0xf
     c84:	01f37313          	andi	x6,x6,31
     c88:	00331313          	slli	x6,x6,0x3
     c8c:	00620333          	add	x6,x4,x6
     c90:	00032303          	lw	x6,0(x6)
     c94:	00730333          	add	x6,x6,x7
     c98:	00032303          	lw	x6,0(x6)
     c9c:	10622c23          	sw	x6,280(x4) # 118 <I_auipc_cg_cp_rd_b6+0x20>
     ca0:	00004817          	auipc	x16,0x4
     ca4:	25080813          	addi	x16,x16,592 # 4ef0 <trap_diag_expected_value>
     ca8:	00682023          	sw	x6,0(x16)
     cac:	0140006f          	jal	x0,cc0 <failedtest_saveresults_common>

00000cb0 <trap_diag_generic_report>:
     cb0:	00004817          	auipc	x16,0x4
     cb4:	23080813          	addi	x16,x16,560 # 4ee0 <trap_diag_subtype>
     cb8:	00082023          	sw	x0,0(x16)
     cbc:	0040006f          	jal	x0,cc0 <failedtest_saveresults_common>

00000cc0 <failedtest_saveresults_common>:
     cc0:	0002a303          	lw	x6,0(x5)
     cc4:	10622423          	sw	x6,264(x4) # 108 <I_auipc_cg_cp_rd_b6+0x10>
     cc8:	00035383          	lhu	x7,0(x6)
     ccc:	0033f413          	andi	x8,x7,3
     cd0:	00300493          	addi	x9,x0,3
     cd4:	00941863          	bne	x8,x9,ce4 <failedtest_saveresults_common+0x24>
     cd8:	00235403          	lhu	x8,2(x6)
     cdc:	01041413          	slli	x8,x8,0x10
     ce0:	0083e3b3          	or	x7,x7,x8
     ce4:	10722023          	sw	x7,256(x4) # 100 <I_auipc_cg_cp_rd_b6+0x8>
     ce8:	0042a303          	lw	x6,4(x5)
     cec:	12622023          	sw	x6,288(x4) # 120 <I_auipc_cg_cp_rd_b7+0x4>

00000cf0 <failedtest_report>:
     cf0:	00000013          	addi	x0,x0,0
     cf4:	00000013          	addi	x0,x0,0
     cf8:	00000013          	addi	x0,x0,0
     cfc:	00000013          	addi	x0,x0,0
     d00:	00004517          	auipc	x10,0x4
     d04:	74c50513          	addi	x10,x10,1868 # 544c <failstr>
     d08:	00000013          	addi	x0,x0,0
     d0c:	00000013          	addi	x0,x0,0
     d10:	00000013          	addi	x0,x0,0
     d14:	00000013          	addi	x0,x0,0
     d18:	00000013          	addi	x0,x0,0
     d1c:	00000013          	addi	x0,x0,0
     d20:	00015097          	auipc	x1,0x15
     d24:	4e4080e7          	jalr	x1,1252(x1) # 16204 <rvmodel_io_write_str>

00000d28 <print_testnamestr>:
     d28:	00000013          	addi	x0,x0,0
     d2c:	00000013          	addi	x0,x0,0
     d30:	00000013          	addi	x0,x0,0
     d34:	00000013          	addi	x0,x0,0
     d38:	00000013          	addi	x0,x0,0
     d3c:	00000013          	addi	x0,x0,0
     d40:	00004517          	auipc	x10,0x4
     d44:	7a150513          	addi	x10,x10,1953 # 54e1 <testnamestr>
     d48:	00000013          	addi	x0,x0,0
     d4c:	00000013          	addi	x0,x0,0
     d50:	00000013          	addi	x0,x0,0
     d54:	00000013          	addi	x0,x0,0
     d58:	00000013          	addi	x0,x0,0
     d5c:	00000013          	addi	x0,x0,0
     d60:	00015097          	auipc	x1,0x15
     d64:	4a4080e7          	jalr	x1,1188(x1) # 16204 <rvmodel_io_write_str>

00000d68 <print_failure_test_name_str>:
     d68:	00004517          	auipc	x10,0x4
     d6c:	16852503          	lw	x10,360(x10) # 4ed0 <failure_string_ptr>
     d70:	00015097          	auipc	x1,0x15
     d74:	494080e7          	jalr	x1,1172(x1) # 16204 <rvmodel_io_write_str>

00000d78 <print_newline_str>:
     d78:	00000013          	addi	x0,x0,0
     d7c:	00000013          	addi	x0,x0,0
     d80:	00004517          	auipc	x10,0x4
     d84:	77350513          	addi	x10,x10,1907 # 54f3 <newlinestr>
     d88:	00000013          	addi	x0,x0,0
     d8c:	00000013          	addi	x0,x0,0
     d90:	00000013          	addi	x0,x0,0
     d94:	00000013          	addi	x0,x0,0
     d98:	00000013          	addi	x0,x0,0
     d9c:	00000013          	addi	x0,x0,0
     da0:	00015097          	auipc	x1,0x15
     da4:	464080e7          	jalr	x1,1124(x1) # 16204 <rvmodel_io_write_str>
     da8:	00004517          	auipc	x10,0x4
     dac:	00852503          	lw	x10,8(x10) # 4db0 <begin_failure_scratch>
     db0:	00300593          	addi	x11,x0,3
     db4:	3eb50c63          	beq	x10,x11,11ac <failedtest_report_trap_detailed>
     db8:	00000013          	addi	x0,x0,0
     dbc:	00000013          	addi	x0,x0,0
     dc0:	00004517          	auipc	x10,0x4
     dc4:	73550513          	addi	x10,x10,1845 # 54f5 <inststr>
     dc8:	00000013          	addi	x0,x0,0
     dcc:	00000013          	addi	x0,x0,0
     dd0:	00000013          	addi	x0,x0,0
     dd4:	00000013          	addi	x0,x0,0
     dd8:	00000013          	addi	x0,x0,0
     ddc:	00000013          	addi	x0,x0,0
     de0:	00015097          	auipc	x1,0x15
     de4:	424080e7          	jalr	x1,1060(x1) # 16204 <rvmodel_io_write_str>
     de8:	00004517          	auipc	x10,0x4
     dec:	0c852503          	lw	x10,200(x10) # 4eb0 <failing_instruction>
     df0:	02000593          	addi	x11,x0,32
     df4:	00357613          	andi	x12,x10,3
     df8:	00300693          	addi	x13,x0,3
     dfc:	00d60463          	beq	x12,x13,e04 <print_newline_str+0x8c>
     e00:	01000593          	addi	x11,x0,16
     e04:	2f4010ef          	jal	x1,20f8 <failedtest_hex_to_str>
     e08:	00000013          	addi	x0,x0,0
     e0c:	00000013          	addi	x0,x0,0
     e10:	00000013          	addi	x0,x0,0
     e14:	00000013          	addi	x0,x0,0
     e18:	00000013          	addi	x0,x0,0
     e1c:	00000013          	addi	x0,x0,0
     e20:	00004517          	auipc	x10,0x4
     e24:	11850513          	addi	x10,x10,280 # 4f38 <ascii_buffer>
     e28:	00000013          	addi	x0,x0,0
     e2c:	00000013          	addi	x0,x0,0
     e30:	00000013          	addi	x0,x0,0
     e34:	00000013          	addi	x0,x0,0
     e38:	00000013          	addi	x0,x0,0
     e3c:	00000013          	addi	x0,x0,0
     e40:	00015097          	auipc	x1,0x15
     e44:	3c4080e7          	jalr	x1,964(x1) # 16204 <rvmodel_io_write_str>
     e48:	00000013          	addi	x0,x0,0
     e4c:	00000013          	addi	x0,x0,0
     e50:	00000013          	addi	x0,x0,0
     e54:	00000013          	addi	x0,x0,0
     e58:	00000013          	addi	x0,x0,0
     e5c:	00000013          	addi	x0,x0,0
     e60:	00004517          	auipc	x10,0x4
     e64:	6a950513          	addi	x10,x10,1705 # 5509 <addrstr>
     e68:	00000013          	addi	x0,x0,0
     e6c:	00000013          	addi	x0,x0,0
     e70:	00000013          	addi	x0,x0,0
     e74:	00000013          	addi	x0,x0,0
     e78:	00000013          	addi	x0,x0,0
     e7c:	00000013          	addi	x0,x0,0
     e80:	00015097          	auipc	x1,0x15
     e84:	384080e7          	jalr	x1,900(x1) # 16204 <rvmodel_io_write_str>
     e88:	00004517          	auipc	x10,0x4
     e8c:	03052503          	lw	x10,48(x10) # 4eb8 <failing_addr>
     e90:	02000593          	addi	x11,x0,32
     e94:	264010ef          	jal	x1,20f8 <failedtest_hex_to_str>
     e98:	00000013          	addi	x0,x0,0
     e9c:	00000013          	addi	x0,x0,0
     ea0:	00004517          	auipc	x10,0x4
     ea4:	09850513          	addi	x10,x10,152 # 4f38 <ascii_buffer>
     ea8:	00000013          	addi	x0,x0,0
     eac:	00000013          	addi	x0,x0,0
     eb0:	00000013          	addi	x0,x0,0
     eb4:	00000013          	addi	x0,x0,0
     eb8:	00000013          	addi	x0,x0,0
     ebc:	00000013          	addi	x0,x0,0
     ec0:	00015097          	auipc	x1,0x15
     ec4:	344080e7          	jalr	x1,836(x1) # 16204 <rvmodel_io_write_str>
     ec8:	00000013          	addi	x0,x0,0
     ecc:	00000013          	addi	x0,x0,0
     ed0:	00000013          	addi	x0,x0,0
     ed4:	00000013          	addi	x0,x0,0
     ed8:	00000013          	addi	x0,x0,0
     edc:	00000013          	addi	x0,x0,0
     ee0:	00005517          	auipc	x10,0x5
     ee4:	0a650513          	addi	x10,x10,166 # 5f86 <regstr>
     ee8:	00000013          	addi	x0,x0,0
     eec:	00000013          	addi	x0,x0,0
     ef0:	00000013          	addi	x0,x0,0
     ef4:	00000013          	addi	x0,x0,0
     ef8:	00000013          	addi	x0,x0,0
     efc:	00000013          	addi	x0,x0,0
     f00:	00015097          	auipc	x1,0x15
     f04:	304080e7          	jalr	x1,772(x1) # 16204 <rvmodel_io_write_str>
     f08:	00004517          	auipc	x10,0x4
     f0c:	ea852503          	lw	x10,-344(x10) # 4db0 <begin_failure_scratch>
     f10:	00050663          	beq	x10,x0,f1c <print_newline_str+0x1a4>
     f14:	00300593          	addi	x11,x0,3
     f18:	04b51063          	bne	x10,x11,f58 <failedtest_report_not_intreg>
     f1c:	07800593          	addi	x11,x0,120
     f20:	00004617          	auipc	x12,0x4
     f24:	01860613          	addi	x12,x12,24 # 4f38 <ascii_buffer>
     f28:	00000013          	addi	x0,x0,0
     f2c:	00000013          	addi	x0,x0,0
     f30:	00000013          	addi	x0,x0,0
     f34:	00000013          	addi	x0,x0,0
     f38:	00000013          	addi	x0,x0,0
     f3c:	00000013          	addi	x0,x0,0
     f40:	00b60023          	sb	x11,0(x12)
     f44:	00160613          	addi	x12,x12,1
     f48:	00004517          	auipc	x10,0x4
     f4c:	f6c52503          	lw	x10,-148(x10) # 4eb4 <failing_reg>
     f50:	224010ef          	jal	x1,2174 <failedtest_dec_to_str>
     f54:	0e00006f          	jal	x0,1034 <failedtest_report_print_regstr>

00000f58 <failedtest_report_not_intreg>:
     f58:	00100593          	addi	x11,x0,1
     f5c:	04b50863          	beq	x10,x11,fac <failedtest_report_fpreg>
     f60:	00400593          	addi	x11,x0,4
     f64:	08b50a63          	beq	x10,x11,ff8 <failedtest_report_vecreg>
     f68:	00000013          	addi	x0,x0,0
     f6c:	00000013          	addi	x0,x0,0
     f70:	00000013          	addi	x0,x0,0
     f74:	00000013          	addi	x0,x0,0
     f78:	00000013          	addi	x0,x0,0
     f7c:	00000013          	addi	x0,x0,0
     f80:	00005517          	auipc	x10,0x5
     f84:	06650513          	addi	x10,x10,102 # 5fe6 <fflagsstr>
     f88:	00000013          	addi	x0,x0,0
     f8c:	00000013          	addi	x0,x0,0
     f90:	00000013          	addi	x0,x0,0
     f94:	00000013          	addi	x0,x0,0
     f98:	00000013          	addi	x0,x0,0
     f9c:	00000013          	addi	x0,x0,0
     fa0:	00015097          	auipc	x1,0x15
     fa4:	264080e7          	jalr	x1,612(x1) # 16204 <rvmodel_io_write_str>
     fa8:	0c00006f          	jal	x0,1068 <failedtest_report_after_reg>

00000fac <failedtest_report_fpreg>:
     fac:	06600593          	addi	x11,x0,102
     fb0:	00000013          	addi	x0,x0,0
     fb4:	00000013          	addi	x0,x0,0
     fb8:	00000013          	addi	x0,x0,0
     fbc:	00000013          	addi	x0,x0,0
     fc0:	00004617          	auipc	x12,0x4
     fc4:	f7860613          	addi	x12,x12,-136 # 4f38 <ascii_buffer>
     fc8:	00000013          	addi	x0,x0,0
     fcc:	00000013          	addi	x0,x0,0
     fd0:	00000013          	addi	x0,x0,0
     fd4:	00000013          	addi	x0,x0,0
     fd8:	00000013          	addi	x0,x0,0
     fdc:	00000013          	addi	x0,x0,0
     fe0:	00b60023          	sb	x11,0(x12)
     fe4:	00160613          	addi	x12,x12,1
     fe8:	00004517          	auipc	x10,0x4
     fec:	ecc52503          	lw	x10,-308(x10) # 4eb4 <failing_reg>
     ff0:	184010ef          	jal	x1,2174 <failedtest_dec_to_str>
     ff4:	0400006f          	jal	x0,1034 <failedtest_report_print_regstr>

00000ff8 <failedtest_report_vecreg>:
     ff8:	07600593          	addi	x11,x0,118
     ffc:	00000013          	addi	x0,x0,0
    1000:	00004617          	auipc	x12,0x4
    1004:	f3860613          	addi	x12,x12,-200 # 4f38 <ascii_buffer>
    1008:	00000013          	addi	x0,x0,0
    100c:	00000013          	addi	x0,x0,0
    1010:	00000013          	addi	x0,x0,0
    1014:	00000013          	addi	x0,x0,0
    1018:	00000013          	addi	x0,x0,0
    101c:	00000013          	addi	x0,x0,0
    1020:	00b60023          	sb	x11,0(x12)
    1024:	00160613          	addi	x12,x12,1
    1028:	00004517          	auipc	x10,0x4
    102c:	e8c52503          	lw	x10,-372(x10) # 4eb4 <failing_reg>
    1030:	144010ef          	jal	x1,2174 <failedtest_dec_to_str>

00001034 <failedtest_report_print_regstr>:
    1034:	00000013          	addi	x0,x0,0
    1038:	00000013          	addi	x0,x0,0
    103c:	00000013          	addi	x0,x0,0
    1040:	00004517          	auipc	x10,0x4
    1044:	ef850513          	addi	x10,x10,-264 # 4f38 <ascii_buffer>
    1048:	00000013          	addi	x0,x0,0
    104c:	00000013          	addi	x0,x0,0
    1050:	00000013          	addi	x0,x0,0
    1054:	00000013          	addi	x0,x0,0
    1058:	00000013          	addi	x0,x0,0
    105c:	00000013          	addi	x0,x0,0
    1060:	00015097          	auipc	x1,0x15
    1064:	1a4080e7          	jalr	x1,420(x1) # 16204 <rvmodel_io_write_str>

00001068 <failedtest_report_after_reg>:
    1068:	00000013          	addi	x0,x0,0
    106c:	00000013          	addi	x0,x0,0
    1070:	00000013          	addi	x0,x0,0
    1074:	00000013          	addi	x0,x0,0
    1078:	00000013          	addi	x0,x0,0
    107c:	00000013          	addi	x0,x0,0
    1080:	00005517          	auipc	x10,0x5
    1084:	f1750513          	addi	x10,x10,-233 # 5f97 <badvalstr>
    1088:	00000013          	addi	x0,x0,0
    108c:	00000013          	addi	x0,x0,0
    1090:	00000013          	addi	x0,x0,0
    1094:	00000013          	addi	x0,x0,0
    1098:	00000013          	addi	x0,x0,0
    109c:	00000013          	addi	x0,x0,0
    10a0:	00015097          	auipc	x1,0x15
    10a4:	164080e7          	jalr	x1,356(x1) # 16204 <rvmodel_io_write_str>
    10a8:	00004517          	auipc	x10,0x4
    10ac:	d0852503          	lw	x10,-760(x10) # 4db0 <begin_failure_scratch>
    10b0:	00100593          	addi	x11,x0,1
    10b4:	00b51c63          	bne	x10,x11,10cc <failedtest_report_badval_not_fp>
    10b8:	00004517          	auipc	x10,0x4
    10bc:	e0852503          	lw	x10,-504(x10) # 4ec0 <failing_value>
    10c0:	02000593          	addi	x11,x0,32
    10c4:	034010ef          	jal	x1,20f8 <failedtest_hex_to_str>
    10c8:	0140006f          	jal	x0,10dc <failedtest_report_badval_done>

000010cc <failedtest_report_badval_not_fp>:
    10cc:	00004517          	auipc	x10,0x4
    10d0:	df452503          	lw	x10,-524(x10) # 4ec0 <failing_value>
    10d4:	02000593          	addi	x11,x0,32
    10d8:	020010ef          	jal	x1,20f8 <failedtest_hex_to_str>

000010dc <failedtest_report_badval_done>:
    10dc:	00000013          	addi	x0,x0,0
    10e0:	00004517          	auipc	x10,0x4
    10e4:	e5850513          	addi	x10,x10,-424 # 4f38 <ascii_buffer>
    10e8:	00000013          	addi	x0,x0,0
    10ec:	00000013          	addi	x0,x0,0
    10f0:	00000013          	addi	x0,x0,0
    10f4:	00000013          	addi	x0,x0,0
    10f8:	00000013          	addi	x0,x0,0
    10fc:	00000013          	addi	x0,x0,0
    1100:	00015097          	auipc	x1,0x15
    1104:	104080e7          	jalr	x1,260(x1) # 16204 <rvmodel_io_write_str>
    1108:	00000013          	addi	x0,x0,0
    110c:	00000013          	addi	x0,x0,0
    1110:	00000013          	addi	x0,x0,0
    1114:	00000013          	addi	x0,x0,0
    1118:	00000013          	addi	x0,x0,0
    111c:	00000013          	addi	x0,x0,0
    1120:	00005517          	auipc	x10,0x5
    1124:	e8e50513          	addi	x10,x10,-370 # 5fae <expvalstr>
    1128:	00000013          	addi	x0,x0,0
    112c:	00000013          	addi	x0,x0,0
    1130:	00000013          	addi	x0,x0,0
    1134:	00000013          	addi	x0,x0,0
    1138:	00000013          	addi	x0,x0,0
    113c:	00000013          	addi	x0,x0,0
    1140:	00015097          	auipc	x1,0x15
    1144:	0c4080e7          	jalr	x1,196(x1) # 16204 <rvmodel_io_write_str>
    1148:	00004517          	auipc	x10,0x4
    114c:	c6852503          	lw	x10,-920(x10) # 4db0 <begin_failure_scratch>
    1150:	00100593          	addi	x11,x0,1
    1154:	00b51c63          	bne	x10,x11,116c <failedtest_report_expval_not_fp>
    1158:	00004517          	auipc	x10,0x4
    115c:	d7052503          	lw	x10,-656(x10) # 4ec8 <expected_value>
    1160:	02000593          	addi	x11,x0,32
    1164:	795000ef          	jal	x1,20f8 <failedtest_hex_to_str>
    1168:	0140006f          	jal	x0,117c <failedtest_report_expval_done>

0000116c <failedtest_report_expval_not_fp>:
    116c:	00004517          	auipc	x10,0x4
    1170:	d5c52503          	lw	x10,-676(x10) # 4ec8 <expected_value>
    1174:	02000593          	addi	x11,x0,32
    1178:	781000ef          	jal	x1,20f8 <failedtest_hex_to_str>

0000117c <failedtest_report_expval_done>:
    117c:	00000013          	addi	x0,x0,0
    1180:	00004517          	auipc	x10,0x4
    1184:	db850513          	addi	x10,x10,-584 # 4f38 <ascii_buffer>
    1188:	00000013          	addi	x0,x0,0
    118c:	00000013          	addi	x0,x0,0
    1190:	00000013          	addi	x0,x0,0
    1194:	00000013          	addi	x0,x0,0
    1198:	00000013          	addi	x0,x0,0
    119c:	00000013          	addi	x0,x0,0
    11a0:	00015097          	auipc	x1,0x15
    11a4:	064080e7          	jalr	x1,100(x1) # 16204 <rvmodel_io_write_str>
    11a8:	4fd0006f          	jal	x0,1ea4 <failedtest_report_end>

000011ac <failedtest_report_trap_detailed>:
    11ac:	00000013          	addi	x0,x0,0
    11b0:	00000013          	addi	x0,x0,0
    11b4:	00000013          	addi	x0,x0,0
    11b8:	00000013          	addi	x0,x0,0
    11bc:	00000013          	addi	x0,x0,0
    11c0:	00005517          	auipc	x10,0x5
    11c4:	e5250513          	addi	x10,x10,-430 # 6012 <trap_diag_header_str>
    11c8:	00000013          	addi	x0,x0,0
    11cc:	00000013          	addi	x0,x0,0
    11d0:	00000013          	addi	x0,x0,0
    11d4:	00000013          	addi	x0,x0,0
    11d8:	00000013          	addi	x0,x0,0
    11dc:	00000013          	addi	x0,x0,0
    11e0:	00015097          	auipc	x1,0x15
    11e4:	024080e7          	jalr	x1,36(x1) # 16204 <rvmodel_io_write_str>
    11e8:	00000013          	addi	x0,x0,0
    11ec:	00000013          	addi	x0,x0,0
    11f0:	00000013          	addi	x0,x0,0
    11f4:	00000013          	addi	x0,x0,0
    11f8:	00000013          	addi	x0,x0,0
    11fc:	00000013          	addi	x0,x0,0
    1200:	00005517          	auipc	x10,0x5
    1204:	e3e50513          	addi	x10,x10,-450 # 603e <trap_diag_origstr_label>
    1208:	00000013          	addi	x0,x0,0
    120c:	00000013          	addi	x0,x0,0
    1210:	00000013          	addi	x0,x0,0
    1214:	00000013          	addi	x0,x0,0
    1218:	00000013          	addi	x0,x0,0
    121c:	00000013          	addi	x0,x0,0
    1220:	00015097          	auipc	x1,0x15
    1224:	fe4080e7          	jalr	x1,-28(x1) # 16204 <rvmodel_io_write_str>
    1228:	00004817          	auipc	x16,0x4
    122c:	ce080813          	addi	x16,x16,-800 # 4f08 <trap_diag_fail_str_ptr>
    1230:	00082503          	lw	x10,0(x16)
    1234:	00015097          	auipc	x1,0x15
    1238:	fd0080e7          	jalr	x1,-48(x1) # 16204 <rvmodel_io_write_str>
    123c:	00000013          	addi	x0,x0,0
    1240:	00004517          	auipc	x10,0x4
    1244:	2b350513          	addi	x10,x10,691 # 54f3 <newlinestr>
    1248:	00000013          	addi	x0,x0,0
    124c:	00000013          	addi	x0,x0,0
    1250:	00000013          	addi	x0,x0,0
    1254:	00000013          	addi	x0,x0,0
    1258:	00000013          	addi	x0,x0,0
    125c:	00000013          	addi	x0,x0,0
    1260:	00015097          	auipc	x1,0x15
    1264:	fa4080e7          	jalr	x1,-92(x1) # 16204 <rvmodel_io_write_str>
    1268:	00004417          	auipc	x8,0x4
    126c:	c7842403          	lw	x8,-904(x8) # 4ee0 <trap_diag_subtype>
    1270:	00900493          	addi	x9,x0,9
    1274:	00940663          	beq	x8,x9,1280 <trap_report_offset_mismatch>
    1278:	2a040ce3          	beq	x8,x0,1d30 <trap_report_generic>
    127c:	3780006f          	jal	x0,15f4 <trap_report_field_mismatch>

00001280 <trap_report_offset_mismatch>:
    1280:	00005517          	auipc	x10,0x5
    1284:	dce50513          	addi	x10,x10,-562 # 604e <trap_diag_count_mismatch_str>
    1288:	00000013          	addi	x0,x0,0
    128c:	00000013          	addi	x0,x0,0
    1290:	00000013          	addi	x0,x0,0
    1294:	00000013          	addi	x0,x0,0
    1298:	00000013          	addi	x0,x0,0
    129c:	00000013          	addi	x0,x0,0
    12a0:	00015097          	auipc	x1,0x15
    12a4:	f64080e7          	jalr	x1,-156(x1) # 16204 <rvmodel_io_write_str>
    12a8:	00000013          	addi	x0,x0,0
    12ac:	00000013          	addi	x0,x0,0
    12b0:	00000013          	addi	x0,x0,0
    12b4:	00000013          	addi	x0,x0,0
    12b8:	00000013          	addi	x0,x0,0
    12bc:	00000013          	addi	x0,x0,0
    12c0:	00005517          	auipc	x10,0x5
    12c4:	def50513          	addi	x10,x10,-529 # 60af <trap_diag_expected_offset_str>
    12c8:	00000013          	addi	x0,x0,0
    12cc:	00000013          	addi	x0,x0,0
    12d0:	00000013          	addi	x0,x0,0
    12d4:	00000013          	addi	x0,x0,0
    12d8:	00000013          	addi	x0,x0,0
    12dc:	00000013          	addi	x0,x0,0
    12e0:	00015097          	auipc	x1,0x15
    12e4:	f24080e7          	jalr	x1,-220(x1) # 16204 <rvmodel_io_write_str>
    12e8:	00004517          	auipc	x10,0x4
    12ec:	c1852503          	lw	x10,-1000(x10) # 4f00 <trap_diag_expected_offset>
    12f0:	02000593          	addi	x11,x0,32
    12f4:	605000ef          	jal	x1,20f8 <failedtest_hex_to_str>
    12f8:	00000013          	addi	x0,x0,0
    12fc:	00000013          	addi	x0,x0,0
    1300:	00004517          	auipc	x10,0x4
    1304:	c3850513          	addi	x10,x10,-968 # 4f38 <ascii_buffer>
    1308:	00000013          	addi	x0,x0,0
    130c:	00000013          	addi	x0,x0,0
    1310:	00000013          	addi	x0,x0,0
    1314:	00000013          	addi	x0,x0,0
    1318:	00000013          	addi	x0,x0,0
    131c:	00000013          	addi	x0,x0,0
    1320:	00015097          	auipc	x1,0x15
    1324:	ee4080e7          	jalr	x1,-284(x1) # 16204 <rvmodel_io_write_str>
    1328:	00000013          	addi	x0,x0,0
    132c:	00000013          	addi	x0,x0,0
    1330:	00000013          	addi	x0,x0,0
    1334:	00000013          	addi	x0,x0,0
    1338:	00000013          	addi	x0,x0,0
    133c:	00000013          	addi	x0,x0,0
    1340:	00005517          	auipc	x10,0x5
    1344:	d9650513          	addi	x10,x10,-618 # 60d6 <trap_diag_actual_offset_str>
    1348:	00000013          	addi	x0,x0,0
    134c:	00000013          	addi	x0,x0,0
    1350:	00000013          	addi	x0,x0,0
    1354:	00000013          	addi	x0,x0,0
    1358:	00000013          	addi	x0,x0,0
    135c:	00000013          	addi	x0,x0,0
    1360:	00015097          	auipc	x1,0x15
    1364:	ea4080e7          	jalr	x1,-348(x1) # 16204 <rvmodel_io_write_str>
    1368:	00004517          	auipc	x10,0x4
    136c:	b9052503          	lw	x10,-1136(x10) # 4ef8 <trap_diag_actual_offset>
    1370:	02000593          	addi	x11,x0,32
    1374:	585000ef          	jal	x1,20f8 <failedtest_hex_to_str>
    1378:	00000013          	addi	x0,x0,0
    137c:	00000013          	addi	x0,x0,0
    1380:	00004517          	auipc	x10,0x4
    1384:	bb850513          	addi	x10,x10,-1096 # 4f38 <ascii_buffer>
    1388:	00000013          	addi	x0,x0,0
    138c:	00000013          	addi	x0,x0,0
    1390:	00000013          	addi	x0,x0,0
    1394:	00000013          	addi	x0,x0,0
    1398:	00000013          	addi	x0,x0,0
    139c:	00000013          	addi	x0,x0,0
    13a0:	00015097          	auipc	x1,0x15
    13a4:	e64080e7          	jalr	x1,-412(x1) # 16204 <rvmodel_io_write_str>
    13a8:	00004317          	auipc	x6,0x4
    13ac:	b5032303          	lw	x6,-1200(x6) # 4ef8 <trap_diag_actual_offset>
    13b0:	00004397          	auipc	x7,0x4
    13b4:	b503a383          	lw	x7,-1200(x7) # 4f00 <trap_diag_expected_offset>
    13b8:	10734e63          	blt	x6,x7,14d4 <trap_report_missing_traps>

000013bc <trap_report_extra_traps>:
    13bc:	00000013          	addi	x0,x0,0
    13c0:	00005517          	auipc	x10,0x5
    13c4:	d3d50513          	addi	x10,x10,-707 # 60fd <trap_diag_extra_traps_str>
    13c8:	00000013          	addi	x0,x0,0
    13cc:	00000013          	addi	x0,x0,0
    13d0:	00000013          	addi	x0,x0,0
    13d4:	00000013          	addi	x0,x0,0
    13d8:	00000013          	addi	x0,x0,0
    13dc:	00000013          	addi	x0,x0,0
    13e0:	00015097          	auipc	x1,0x15
    13e4:	e24080e7          	jalr	x1,-476(x1) # 16204 <rvmodel_io_write_str>
    13e8:	00004317          	auipc	x6,0x4
    13ec:	b1032303          	lw	x6,-1264(x6) # 4ef8 <trap_diag_actual_offset>
    13f0:	00004397          	auipc	x7,0x4
    13f4:	b103a383          	lw	x7,-1264(x7) # 4f00 <trap_diag_expected_offset>
    13f8:	40730333          	sub	x6,x6,x7
    13fc:	00235313          	srli	x6,x6,0x2
    1400:	00005517          	auipc	x10,0x5
    1404:	d8250513          	addi	x10,x10,-638 # 6182 <trap_diag_extra_bytes_str>
    1408:	00000013          	addi	x0,x0,0
    140c:	00000013          	addi	x0,x0,0
    1410:	00000013          	addi	x0,x0,0
    1414:	00000013          	addi	x0,x0,0
    1418:	00000013          	addi	x0,x0,0
    141c:	00000013          	addi	x0,x0,0
    1420:	00015097          	auipc	x1,0x15
    1424:	de4080e7          	jalr	x1,-540(x1) # 16204 <rvmodel_io_write_str>
    1428:	00004317          	auipc	x6,0x4
    142c:	ad032303          	lw	x6,-1328(x6) # 4ef8 <trap_diag_actual_offset>
    1430:	00004397          	auipc	x7,0x4
    1434:	ad03a383          	lw	x7,-1328(x7) # 4f00 <trap_diag_expected_offset>
    1438:	40730533          	sub	x10,x6,x7
    143c:	02000593          	addi	x11,x0,32
    1440:	4b9000ef          	jal	x1,20f8 <failedtest_hex_to_str>
    1444:	00000013          	addi	x0,x0,0
    1448:	00000013          	addi	x0,x0,0
    144c:	00000013          	addi	x0,x0,0
    1450:	00000013          	addi	x0,x0,0
    1454:	00000013          	addi	x0,x0,0
    1458:	00000013          	addi	x0,x0,0
    145c:	00000013          	addi	x0,x0,0
    1460:	00004517          	auipc	x10,0x4
    1464:	ad850513          	addi	x10,x10,-1320 # 4f38 <ascii_buffer>
    1468:	00000013          	addi	x0,x0,0
    146c:	00000013          	addi	x0,x0,0
    1470:	00000013          	addi	x0,x0,0
    1474:	00000013          	addi	x0,x0,0
    1478:	00000013          	addi	x0,x0,0
    147c:	00000013          	addi	x0,x0,0
    1480:	00015097          	auipc	x1,0x15
    1484:	d84080e7          	jalr	x1,-636(x1) # 16204 <rvmodel_io_write_str>
    1488:	00000013          	addi	x0,x0,0
    148c:	00000013          	addi	x0,x0,0
    1490:	00000013          	addi	x0,x0,0
    1494:	00000013          	addi	x0,x0,0
    1498:	00000013          	addi	x0,x0,0
    149c:	00000013          	addi	x0,x0,0
    14a0:	00005517          	auipc	x10,0x5
    14a4:	d0d50513          	addi	x10,x10,-755 # 61ad <trap_diag_extra_hint_str>
    14a8:	00000013          	addi	x0,x0,0
    14ac:	00000013          	addi	x0,x0,0
    14b0:	00000013          	addi	x0,x0,0
    14b4:	00000013          	addi	x0,x0,0
    14b8:	00000013          	addi	x0,x0,0
    14bc:	00000013          	addi	x0,x0,0
    14c0:	00015097          	auipc	x1,0x15
    14c4:	d44080e7          	jalr	x1,-700(x1) # 16204 <rvmodel_io_write_str>
    14c8:	00001097          	auipc	x1,0x1
    14cc:	a28080e7          	jalr	x1,-1496(x1) # 1ef0 <failedtest_print_csr_context>
    14d0:	1d50006f          	jal	x0,1ea4 <failedtest_report_end>

000014d4 <trap_report_missing_traps>:
    14d4:	00000013          	addi	x0,x0,0
    14d8:	00000013          	addi	x0,x0,0
    14dc:	00000013          	addi	x0,x0,0
    14e0:	00005517          	auipc	x10,0x5
    14e4:	c5750513          	addi	x10,x10,-937 # 6137 <trap_diag_missing_traps_str>
    14e8:	00000013          	addi	x0,x0,0
    14ec:	00000013          	addi	x0,x0,0
    14f0:	00000013          	addi	x0,x0,0
    14f4:	00000013          	addi	x0,x0,0
    14f8:	00000013          	addi	x0,x0,0
    14fc:	00000013          	addi	x0,x0,0
    1500:	00015097          	auipc	x1,0x15
    1504:	d04080e7          	jalr	x1,-764(x1) # 16204 <rvmodel_io_write_str>
    1508:	00000013          	addi	x0,x0,0
    150c:	00000013          	addi	x0,x0,0
    1510:	00000013          	addi	x0,x0,0
    1514:	00000013          	addi	x0,x0,0
    1518:	00000013          	addi	x0,x0,0
    151c:	00000013          	addi	x0,x0,0
    1520:	00005517          	auipc	x10,0x5
    1524:	c6250513          	addi	x10,x10,-926 # 6182 <trap_diag_extra_bytes_str>
    1528:	00000013          	addi	x0,x0,0
    152c:	00000013          	addi	x0,x0,0
    1530:	00000013          	addi	x0,x0,0
    1534:	00000013          	addi	x0,x0,0
    1538:	00000013          	addi	x0,x0,0
    153c:	00000013          	addi	x0,x0,0
    1540:	00015097          	auipc	x1,0x15
    1544:	cc4080e7          	jalr	x1,-828(x1) # 16204 <rvmodel_io_write_str>
    1548:	00004317          	auipc	x6,0x4
    154c:	9b832303          	lw	x6,-1608(x6) # 4f00 <trap_diag_expected_offset>
    1550:	00004397          	auipc	x7,0x4
    1554:	9a83a383          	lw	x7,-1624(x7) # 4ef8 <trap_diag_actual_offset>
    1558:	40730533          	sub	x10,x6,x7
    155c:	02000593          	addi	x11,x0,32
    1560:	399000ef          	jal	x1,20f8 <failedtest_hex_to_str>
    1564:	00000013          	addi	x0,x0,0
    1568:	00000013          	addi	x0,x0,0
    156c:	00000013          	addi	x0,x0,0
    1570:	00000013          	addi	x0,x0,0
    1574:	00000013          	addi	x0,x0,0
    1578:	00000013          	addi	x0,x0,0
    157c:	00000013          	addi	x0,x0,0
    1580:	00004517          	auipc	x10,0x4
    1584:	9b850513          	addi	x10,x10,-1608 # 4f38 <ascii_buffer>
    1588:	00000013          	addi	x0,x0,0
    158c:	00000013          	addi	x0,x0,0
    1590:	00000013          	addi	x0,x0,0
    1594:	00000013          	addi	x0,x0,0
    1598:	00000013          	addi	x0,x0,0
    159c:	00000013          	addi	x0,x0,0
    15a0:	00015097          	auipc	x1,0x15
    15a4:	c64080e7          	jalr	x1,-924(x1) # 16204 <rvmodel_io_write_str>
    15a8:	00000013          	addi	x0,x0,0
    15ac:	00000013          	addi	x0,x0,0
    15b0:	00000013          	addi	x0,x0,0
    15b4:	00000013          	addi	x0,x0,0
    15b8:	00000013          	addi	x0,x0,0
    15bc:	00000013          	addi	x0,x0,0
    15c0:	00005517          	auipc	x10,0x5
    15c4:	cd550513          	addi	x10,x10,-811 # 6295 <trap_diag_missing_hint_str>
    15c8:	00000013          	addi	x0,x0,0
    15cc:	00000013          	addi	x0,x0,0
    15d0:	00000013          	addi	x0,x0,0
    15d4:	00000013          	addi	x0,x0,0
    15d8:	00000013          	addi	x0,x0,0
    15dc:	00000013          	addi	x0,x0,0
    15e0:	00015097          	auipc	x1,0x15
    15e4:	c24080e7          	jalr	x1,-988(x1) # 16204 <rvmodel_io_write_str>
    15e8:	00001097          	auipc	x1,0x1
    15ec:	908080e7          	jalr	x1,-1784(x1) # 1ef0 <failedtest_print_csr_context>
    15f0:	0b50006f          	jal	x0,1ea4 <failedtest_report_end>

000015f4 <trap_report_field_mismatch>:
    15f4:	00000013          	addi	x0,x0,0
    15f8:	00000013          	addi	x0,x0,0
    15fc:	00000013          	addi	x0,x0,0
    1600:	00005517          	auipc	x10,0x5
    1604:	d7c50513          	addi	x10,x10,-644 # 637c <trap_diag_handler_mode_str>
    1608:	00000013          	addi	x0,x0,0
    160c:	00000013          	addi	x0,x0,0
    1610:	00000013          	addi	x0,x0,0
    1614:	00000013          	addi	x0,x0,0
    1618:	00000013          	addi	x0,x0,0
    161c:	00000013          	addi	x0,x0,0
    1620:	00015097          	auipc	x1,0x15
    1624:	be4080e7          	jalr	x1,-1052(x1) # 16204 <rvmodel_io_write_str>
    1628:	00004517          	auipc	x10,0x4
    162c:	8bc52503          	lw	x10,-1860(x10) # 4ee4 <trap_diag_mode>
    1630:	04050a63          	beq	x10,x0,1684 <trap_mode_m>
    1634:	00100593          	addi	x11,x0,1
    1638:	08b50663          	beq	x10,x11,16c4 <trap_mode_s>
    163c:	00200593          	addi	x11,x0,2
    1640:	0cb50263          	beq	x10,x11,1704 <trap_mode_h>
    1644:	00300593          	addi	x11,x0,3
    1648:	0eb50e63          	beq	x10,x11,1744 <trap_mode_v>
    164c:	00000013          	addi	x0,x0,0
    1650:	00000013          	addi	x0,x0,0
    1654:	00000013          	addi	x0,x0,0
    1658:	00000013          	addi	x0,x0,0
    165c:	00000013          	addi	x0,x0,0
    1660:	00005517          	auipc	x10,0x5
    1664:	d5850513          	addi	x10,x10,-680 # 63b8 <trap_diag_mode_unknown_str>
    1668:	00000013          	addi	x0,x0,0
    166c:	00000013          	addi	x0,x0,0
    1670:	00000013          	addi	x0,x0,0
    1674:	00000013          	addi	x0,x0,0
    1678:	00000013          	addi	x0,x0,0
    167c:	00000013          	addi	x0,x0,0
    1680:	1000006f          	jal	x0,1780 <trap_mode_print>

00001684 <trap_mode_m>:
    1684:	00000013          	addi	x0,x0,0
    1688:	00000013          	addi	x0,x0,0
    168c:	00000013          	addi	x0,x0,0
    1690:	00000013          	addi	x0,x0,0
    1694:	00000013          	addi	x0,x0,0
    1698:	00000013          	addi	x0,x0,0
    169c:	00000013          	addi	x0,x0,0
    16a0:	00005517          	auipc	x10,0x5
    16a4:	cf650513          	addi	x10,x10,-778 # 6396 <trap_diag_mode_m_str>
    16a8:	00000013          	addi	x0,x0,0
    16ac:	00000013          	addi	x0,x0,0
    16b0:	00000013          	addi	x0,x0,0
    16b4:	00000013          	addi	x0,x0,0
    16b8:	00000013          	addi	x0,x0,0
    16bc:	00000013          	addi	x0,x0,0
    16c0:	0c00006f          	jal	x0,1780 <trap_mode_print>

000016c4 <trap_mode_s>:
    16c4:	00000013          	addi	x0,x0,0
    16c8:	00000013          	addi	x0,x0,0
    16cc:	00000013          	addi	x0,x0,0
    16d0:	00000013          	addi	x0,x0,0
    16d4:	00000013          	addi	x0,x0,0
    16d8:	00000013          	addi	x0,x0,0
    16dc:	00000013          	addi	x0,x0,0
    16e0:	00005517          	auipc	x10,0x5
    16e4:	cbe50513          	addi	x10,x10,-834 # 639e <trap_diag_mode_s_str>
    16e8:	00000013          	addi	x0,x0,0
    16ec:	00000013          	addi	x0,x0,0
    16f0:	00000013          	addi	x0,x0,0
    16f4:	00000013          	addi	x0,x0,0
    16f8:	00000013          	addi	x0,x0,0
    16fc:	00000013          	addi	x0,x0,0
    1700:	0800006f          	jal	x0,1780 <trap_mode_print>

00001704 <trap_mode_h>:
    1704:	00000013          	addi	x0,x0,0
    1708:	00000013          	addi	x0,x0,0
    170c:	00000013          	addi	x0,x0,0
    1710:	00000013          	addi	x0,x0,0
    1714:	00000013          	addi	x0,x0,0
    1718:	00000013          	addi	x0,x0,0
    171c:	00000013          	addi	x0,x0,0
    1720:	00005517          	auipc	x10,0x5
    1724:	c8650513          	addi	x10,x10,-890 # 63a6 <trap_diag_mode_hs_str>
    1728:	00000013          	addi	x0,x0,0
    172c:	00000013          	addi	x0,x0,0
    1730:	00000013          	addi	x0,x0,0
    1734:	00000013          	addi	x0,x0,0
    1738:	00000013          	addi	x0,x0,0
    173c:	00000013          	addi	x0,x0,0
    1740:	0400006f          	jal	x0,1780 <trap_mode_print>

00001744 <trap_mode_v>:
    1744:	00000013          	addi	x0,x0,0
    1748:	00000013          	addi	x0,x0,0
    174c:	00000013          	addi	x0,x0,0
    1750:	00000013          	addi	x0,x0,0
    1754:	00000013          	addi	x0,x0,0
    1758:	00000013          	addi	x0,x0,0
    175c:	00000013          	addi	x0,x0,0
    1760:	00005517          	auipc	x10,0x5
    1764:	c4f50513          	addi	x10,x10,-945 # 63af <trap_diag_mode_vs_str>
    1768:	00000013          	addi	x0,x0,0
    176c:	00000013          	addi	x0,x0,0
    1770:	00000013          	addi	x0,x0,0
    1774:	00000013          	addi	x0,x0,0
    1778:	00000013          	addi	x0,x0,0
    177c:	00000013          	addi	x0,x0,0

00001780 <trap_mode_print>:
    1780:	00015097          	auipc	x1,0x15
    1784:	a84080e7          	jalr	x1,-1404(x1) # 16204 <rvmodel_io_write_str>
    1788:	00000013          	addi	x0,x0,0
    178c:	00000013          	addi	x0,x0,0
    1790:	00000013          	addi	x0,x0,0
    1794:	00000013          	addi	x0,x0,0
    1798:	00000013          	addi	x0,x0,0
    179c:	00000013          	addi	x0,x0,0
    17a0:	00005517          	auipc	x10,0x5
    17a4:	c2150513          	addi	x10,x10,-991 # 63c1 <trap_diag_field_str>
    17a8:	00000013          	addi	x0,x0,0
    17ac:	00000013          	addi	x0,x0,0
    17b0:	00000013          	addi	x0,x0,0
    17b4:	00000013          	addi	x0,x0,0
    17b8:	00000013          	addi	x0,x0,0
    17bc:	00000013          	addi	x0,x0,0
    17c0:	00015097          	auipc	x1,0x15
    17c4:	a44080e7          	jalr	x1,-1468(x1) # 16204 <rvmodel_io_write_str>
    17c8:	00003517          	auipc	x10,0x3
    17cc:	71852503          	lw	x10,1816(x10) # 4ee0 <trap_diag_subtype>
    17d0:	00100593          	addi	x11,x0,1
    17d4:	06b50863          	beq	x10,x11,1844 <trap_field_vect>
    17d8:	00200593          	addi	x11,x0,2
    17dc:	0ab50463          	beq	x10,x11,1884 <trap_field_cause>
    17e0:	00300593          	addi	x11,x0,3
    17e4:	0eb50063          	beq	x10,x11,18c4 <trap_field_epc>
    17e8:	00400593          	addi	x11,x0,4
    17ec:	10b50c63          	beq	x10,x11,1904 <trap_field_tval>
    17f0:	00500593          	addi	x11,x0,5
    17f4:	14b50863          	beq	x10,x11,1944 <trap_field_ip>
    17f8:	00600593          	addi	x11,x0,6
    17fc:	18b50463          	beq	x10,x11,1984 <trap_field_tval2>
    1800:	00700593          	addi	x11,x0,7
    1804:	1cb50063          	beq	x10,x11,19c4 <trap_field_tinst>
    1808:	00800593          	addi	x11,x0,8
    180c:	1eb50c63          	beq	x10,x11,1a04 <trap_field_intid>
    1810:	00000013          	addi	x0,x0,0
    1814:	00000013          	addi	x0,x0,0
    1818:	00000013          	addi	x0,x0,0
    181c:	00000013          	addi	x0,x0,0
    1820:	00005517          	auipc	x10,0x5
    1824:	cf850513          	addi	x10,x10,-776 # 6518 <trap_diag_field_unknown_str>
    1828:	00000013          	addi	x0,x0,0
    182c:	00000013          	addi	x0,x0,0
    1830:	00000013          	addi	x0,x0,0
    1834:	00000013          	addi	x0,x0,0
    1838:	00000013          	addi	x0,x0,0
    183c:	00000013          	addi	x0,x0,0
    1840:	2000006f          	jal	x0,1a40 <trap_field_print>

00001844 <trap_field_vect>:
    1844:	00000013          	addi	x0,x0,0
    1848:	00000013          	addi	x0,x0,0
    184c:	00000013          	addi	x0,x0,0
    1850:	00000013          	addi	x0,x0,0
    1854:	00000013          	addi	x0,x0,0
    1858:	00000013          	addi	x0,x0,0
    185c:	00000013          	addi	x0,x0,0
    1860:	00005517          	auipc	x10,0x5
    1864:	b7b50513          	addi	x10,x10,-1157 # 63db <trap_diag_field_vect_str>
    1868:	00000013          	addi	x0,x0,0
    186c:	00000013          	addi	x0,x0,0
    1870:	00000013          	addi	x0,x0,0
    1874:	00000013          	addi	x0,x0,0
    1878:	00000013          	addi	x0,x0,0
    187c:	00000013          	addi	x0,x0,0
    1880:	1c00006f          	jal	x0,1a40 <trap_field_print>

00001884 <trap_field_cause>:
    1884:	00000013          	addi	x0,x0,0
    1888:	00000013          	addi	x0,x0,0
    188c:	00000013          	addi	x0,x0,0
    1890:	00000013          	addi	x0,x0,0
    1894:	00000013          	addi	x0,x0,0
    1898:	00000013          	addi	x0,x0,0
    189c:	00000013          	addi	x0,x0,0
    18a0:	00005517          	auipc	x10,0x5
    18a4:	b6c50513          	addi	x10,x10,-1172 # 640c <trap_diag_field_cause_str>
    18a8:	00000013          	addi	x0,x0,0
    18ac:	00000013          	addi	x0,x0,0
    18b0:	00000013          	addi	x0,x0,0
    18b4:	00000013          	addi	x0,x0,0
    18b8:	00000013          	addi	x0,x0,0
    18bc:	00000013          	addi	x0,x0,0
    18c0:	1800006f          	jal	x0,1a40 <trap_field_print>

000018c4 <trap_field_epc>:
    18c4:	00000013          	addi	x0,x0,0
    18c8:	00000013          	addi	x0,x0,0
    18cc:	00000013          	addi	x0,x0,0
    18d0:	00000013          	addi	x0,x0,0
    18d4:	00000013          	addi	x0,x0,0
    18d8:	00000013          	addi	x0,x0,0
    18dc:	00000013          	addi	x0,x0,0
    18e0:	00005517          	auipc	x10,0x5
    18e4:	b4c50513          	addi	x10,x10,-1204 # 642c <trap_diag_field_epc_str>
    18e8:	00000013          	addi	x0,x0,0
    18ec:	00000013          	addi	x0,x0,0
    18f0:	00000013          	addi	x0,x0,0
    18f4:	00000013          	addi	x0,x0,0
    18f8:	00000013          	addi	x0,x0,0
    18fc:	00000013          	addi	x0,x0,0
    1900:	1400006f          	jal	x0,1a40 <trap_field_print>

00001904 <trap_field_tval>:
    1904:	00000013          	addi	x0,x0,0
    1908:	00000013          	addi	x0,x0,0
    190c:	00000013          	addi	x0,x0,0
    1910:	00000013          	addi	x0,x0,0
    1914:	00000013          	addi	x0,x0,0
    1918:	00000013          	addi	x0,x0,0
    191c:	00000013          	addi	x0,x0,0
    1920:	00005517          	auipc	x10,0x5
    1924:	b2a50513          	addi	x10,x10,-1238 # 644a <trap_diag_field_tval_str>
    1928:	00000013          	addi	x0,x0,0
    192c:	00000013          	addi	x0,x0,0
    1930:	00000013          	addi	x0,x0,0
    1934:	00000013          	addi	x0,x0,0
    1938:	00000013          	addi	x0,x0,0
    193c:	00000013          	addi	x0,x0,0
    1940:	1000006f          	jal	x0,1a40 <trap_field_print>

00001944 <trap_field_ip>:
    1944:	00000013          	addi	x0,x0,0
    1948:	00000013          	addi	x0,x0,0
    194c:	00000013          	addi	x0,x0,0
    1950:	00000013          	addi	x0,x0,0
    1954:	00000013          	addi	x0,x0,0
    1958:	00000013          	addi	x0,x0,0
    195c:	00000013          	addi	x0,x0,0
    1960:	00005517          	auipc	x10,0x5
    1964:	b0950513          	addi	x10,x10,-1271 # 6469 <trap_diag_field_ip_str>
    1968:	00000013          	addi	x0,x0,0
    196c:	00000013          	addi	x0,x0,0
    1970:	00000013          	addi	x0,x0,0
    1974:	00000013          	addi	x0,x0,0
    1978:	00000013          	addi	x0,x0,0
    197c:	00000013          	addi	x0,x0,0
    1980:	0c00006f          	jal	x0,1a40 <trap_field_print>

00001984 <trap_field_tval2>:
    1984:	00000013          	addi	x0,x0,0
    1988:	00000013          	addi	x0,x0,0
    198c:	00000013          	addi	x0,x0,0
    1990:	00000013          	addi	x0,x0,0
    1994:	00000013          	addi	x0,x0,0
    1998:	00000013          	addi	x0,x0,0
    199c:	00000013          	addi	x0,x0,0
    19a0:	00005517          	auipc	x10,0x5
    19a4:	af150513          	addi	x10,x10,-1295 # 6491 <trap_diag_field_tval2_str>
    19a8:	00000013          	addi	x0,x0,0
    19ac:	00000013          	addi	x0,x0,0
    19b0:	00000013          	addi	x0,x0,0
    19b4:	00000013          	addi	x0,x0,0
    19b8:	00000013          	addi	x0,x0,0
    19bc:	00000013          	addi	x0,x0,0
    19c0:	0800006f          	jal	x0,1a40 <trap_field_print>

000019c4 <trap_field_tinst>:
    19c4:	00000013          	addi	x0,x0,0
    19c8:	00000013          	addi	x0,x0,0
    19cc:	00000013          	addi	x0,x0,0
    19d0:	00000013          	addi	x0,x0,0
    19d4:	00000013          	addi	x0,x0,0
    19d8:	00000013          	addi	x0,x0,0
    19dc:	00000013          	addi	x0,x0,0
    19e0:	00005517          	auipc	x10,0x5
    19e4:	add50513          	addi	x10,x10,-1315 # 64bd <trap_diag_field_tinst_str>
    19e8:	00000013          	addi	x0,x0,0
    19ec:	00000013          	addi	x0,x0,0
    19f0:	00000013          	addi	x0,x0,0
    19f4:	00000013          	addi	x0,x0,0
    19f8:	00000013          	addi	x0,x0,0
    19fc:	00000013          	addi	x0,x0,0
    1a00:	0400006f          	jal	x0,1a40 <trap_field_print>

00001a04 <trap_field_intid>:
    1a04:	00000013          	addi	x0,x0,0
    1a08:	00000013          	addi	x0,x0,0
    1a0c:	00000013          	addi	x0,x0,0
    1a10:	00000013          	addi	x0,x0,0
    1a14:	00000013          	addi	x0,x0,0
    1a18:	00000013          	addi	x0,x0,0
    1a1c:	00000013          	addi	x0,x0,0
    1a20:	00005517          	auipc	x10,0x5
    1a24:	ac950513          	addi	x10,x10,-1335 # 64e9 <trap_diag_field_intid_str>
    1a28:	00000013          	addi	x0,x0,0
    1a2c:	00000013          	addi	x0,x0,0
    1a30:	00000013          	addi	x0,x0,0
    1a34:	00000013          	addi	x0,x0,0
    1a38:	00000013          	addi	x0,x0,0
    1a3c:	00000013          	addi	x0,x0,0

00001a40 <trap_field_print>:
    1a40:	00014097          	auipc	x1,0x14
    1a44:	7c4080e7          	jalr	x1,1988(x1) # 16204 <rvmodel_io_write_str>
    1a48:	00000013          	addi	x0,x0,0
    1a4c:	00000013          	addi	x0,x0,0
    1a50:	00000013          	addi	x0,x0,0
    1a54:	00000013          	addi	x0,x0,0
    1a58:	00000013          	addi	x0,x0,0
    1a5c:	00000013          	addi	x0,x0,0
    1a60:	00005517          	auipc	x10,0x5
    1a64:	ac750513          	addi	x10,x10,-1337 # 6527 <trap_diag_expected_str>
    1a68:	00000013          	addi	x0,x0,0
    1a6c:	00000013          	addi	x0,x0,0
    1a70:	00000013          	addi	x0,x0,0
    1a74:	00000013          	addi	x0,x0,0
    1a78:	00000013          	addi	x0,x0,0
    1a7c:	00000013          	addi	x0,x0,0
    1a80:	00014097          	auipc	x1,0x14
    1a84:	784080e7          	jalr	x1,1924(x1) # 16204 <rvmodel_io_write_str>
    1a88:	00003517          	auipc	x10,0x3
    1a8c:	46852503          	lw	x10,1128(x10) # 4ef0 <trap_diag_expected_value>
    1a90:	02000593          	addi	x11,x0,32
    1a94:	664000ef          	jal	x1,20f8 <failedtest_hex_to_str>
    1a98:	00000013          	addi	x0,x0,0
    1a9c:	00000013          	addi	x0,x0,0
    1aa0:	00003517          	auipc	x10,0x3
    1aa4:	49850513          	addi	x10,x10,1176 # 4f38 <ascii_buffer>
    1aa8:	00000013          	addi	x0,x0,0
    1aac:	00000013          	addi	x0,x0,0
    1ab0:	00000013          	addi	x0,x0,0
    1ab4:	00000013          	addi	x0,x0,0
    1ab8:	00000013          	addi	x0,x0,0
    1abc:	00000013          	addi	x0,x0,0
    1ac0:	00014097          	auipc	x1,0x14
    1ac4:	744080e7          	jalr	x1,1860(x1) # 16204 <rvmodel_io_write_str>
    1ac8:	00000013          	addi	x0,x0,0
    1acc:	00000013          	addi	x0,x0,0
    1ad0:	00000013          	addi	x0,x0,0
    1ad4:	00000013          	addi	x0,x0,0
    1ad8:	00000013          	addi	x0,x0,0
    1adc:	00000013          	addi	x0,x0,0
    1ae0:	00005517          	auipc	x10,0x5
    1ae4:	a5e50513          	addi	x10,x10,-1442 # 653e <trap_diag_actual_str>
    1ae8:	00000013          	addi	x0,x0,0
    1aec:	00000013          	addi	x0,x0,0
    1af0:	00000013          	addi	x0,x0,0
    1af4:	00000013          	addi	x0,x0,0
    1af8:	00000013          	addi	x0,x0,0
    1afc:	00000013          	addi	x0,x0,0
    1b00:	00014097          	auipc	x1,0x14
    1b04:	704080e7          	jalr	x1,1796(x1) # 16204 <rvmodel_io_write_str>
    1b08:	00003517          	auipc	x10,0x3
    1b0c:	3e052503          	lw	x10,992(x10) # 4ee8 <trap_diag_actual_value>
    1b10:	02000593          	addi	x11,x0,32
    1b14:	5e4000ef          	jal	x1,20f8 <failedtest_hex_to_str>
    1b18:	00000013          	addi	x0,x0,0
    1b1c:	00000013          	addi	x0,x0,0
    1b20:	00003517          	auipc	x10,0x3
    1b24:	41850513          	addi	x10,x10,1048 # 4f38 <ascii_buffer>
    1b28:	00000013          	addi	x0,x0,0
    1b2c:	00000013          	addi	x0,x0,0
    1b30:	00000013          	addi	x0,x0,0
    1b34:	00000013          	addi	x0,x0,0
    1b38:	00000013          	addi	x0,x0,0
    1b3c:	00000013          	addi	x0,x0,0
    1b40:	00014097          	auipc	x1,0x14
    1b44:	6c4080e7          	jalr	x1,1732(x1) # 16204 <rvmodel_io_write_str>
    1b48:	00003517          	auipc	x10,0x3
    1b4c:	39852503          	lw	x10,920(x10) # 4ee0 <trap_diag_subtype>
    1b50:	00200593          	addi	x11,x0,2
    1b54:	08b51463          	bne	x10,x11,1bdc <trap_field_not_cause>
    1b58:	00000013          	addi	x0,x0,0
    1b5c:	00000013          	addi	x0,x0,0
    1b60:	00005517          	auipc	x10,0x5
    1b64:	9f550513          	addi	x10,x10,-1547 # 6555 <trap_diag_expected_cause_name_str>
    1b68:	00000013          	addi	x0,x0,0
    1b6c:	00000013          	addi	x0,x0,0
    1b70:	00000013          	addi	x0,x0,0
    1b74:	00000013          	addi	x0,x0,0
    1b78:	00000013          	addi	x0,x0,0
    1b7c:	00000013          	addi	x0,x0,0
    1b80:	00014097          	auipc	x1,0x14
    1b84:	684080e7          	jalr	x1,1668(x1) # 16204 <rvmodel_io_write_str>
    1b88:	00003517          	auipc	x10,0x3
    1b8c:	36852503          	lw	x10,872(x10) # 4ef0 <trap_diag_expected_value>
    1b90:	284000ef          	jal	x1,1e14 <trap_cause_to_str>
    1b94:	00014097          	auipc	x1,0x14
    1b98:	670080e7          	jalr	x1,1648(x1) # 16204 <rvmodel_io_write_str>
    1b9c:	00000013          	addi	x0,x0,0
    1ba0:	00005517          	auipc	x10,0x5
    1ba4:	9cc50513          	addi	x10,x10,-1588 # 656c <trap_diag_actual_cause_name_str>
    1ba8:	00000013          	addi	x0,x0,0
    1bac:	00000013          	addi	x0,x0,0
    1bb0:	00000013          	addi	x0,x0,0
    1bb4:	00000013          	addi	x0,x0,0
    1bb8:	00000013          	addi	x0,x0,0
    1bbc:	00000013          	addi	x0,x0,0
    1bc0:	00014097          	auipc	x1,0x14
    1bc4:	644080e7          	jalr	x1,1604(x1) # 16204 <rvmodel_io_write_str>
    1bc8:	00003517          	auipc	x10,0x3
    1bcc:	32052503          	lw	x10,800(x10) # 4ee8 <trap_diag_actual_value>
    1bd0:	244000ef          	jal	x1,1e14 <trap_cause_to_str>
    1bd4:	00014097          	auipc	x1,0x14
    1bd8:	630080e7          	jalr	x1,1584(x1) # 16204 <rvmodel_io_write_str>

00001bdc <trap_field_not_cause>:
    1bdc:	00000097          	auipc	x1,0x0
    1be0:	314080e7          	jalr	x1,788(x1) # 1ef0 <failedtest_print_csr_context>
    1be4:	00003517          	auipc	x10,0x3
    1be8:	2fc52503          	lw	x10,764(x10) # 4ee0 <trap_diag_subtype>
    1bec:	00100593          	addi	x11,x0,1
    1bf0:	02b51e63          	bne	x10,x11,1c2c <trap_field_not_cause+0x50>
    1bf4:	00000013          	addi	x0,x0,0
    1bf8:	00000013          	addi	x0,x0,0
    1bfc:	00000013          	addi	x0,x0,0
    1c00:	00005517          	auipc	x10,0x5
    1c04:	9e250513          	addi	x10,x10,-1566 # 65e2 <trap_diag_hint_vect_str>
    1c08:	00000013          	addi	x0,x0,0
    1c0c:	00000013          	addi	x0,x0,0
    1c10:	00000013          	addi	x0,x0,0
    1c14:	00000013          	addi	x0,x0,0
    1c18:	00000013          	addi	x0,x0,0
    1c1c:	00000013          	addi	x0,x0,0
    1c20:	00014097          	auipc	x1,0x14
    1c24:	5e4080e7          	jalr	x1,1508(x1) # 16204 <rvmodel_io_write_str>
    1c28:	27c0006f          	jal	x0,1ea4 <failedtest_report_end>
    1c2c:	00200593          	addi	x11,x0,2
    1c30:	02b51e63          	bne	x10,x11,1c6c <trap_field_not_cause+0x90>
    1c34:	00000013          	addi	x0,x0,0
    1c38:	00000013          	addi	x0,x0,0
    1c3c:	00000013          	addi	x0,x0,0
    1c40:	00005517          	auipc	x10,0x5
    1c44:	a7850513          	addi	x10,x10,-1416 # 66b8 <trap_diag_hint_cause_str>
    1c48:	00000013          	addi	x0,x0,0
    1c4c:	00000013          	addi	x0,x0,0
    1c50:	00000013          	addi	x0,x0,0
    1c54:	00000013          	addi	x0,x0,0
    1c58:	00000013          	addi	x0,x0,0
    1c5c:	00000013          	addi	x0,x0,0
    1c60:	00014097          	auipc	x1,0x14
    1c64:	5a4080e7          	jalr	x1,1444(x1) # 16204 <rvmodel_io_write_str>
    1c68:	23c0006f          	jal	x0,1ea4 <failedtest_report_end>
    1c6c:	00300593          	addi	x11,x0,3
    1c70:	02b51e63          	bne	x10,x11,1cac <trap_field_not_cause+0xd0>
    1c74:	00000013          	addi	x0,x0,0
    1c78:	00000013          	addi	x0,x0,0
    1c7c:	00000013          	addi	x0,x0,0
    1c80:	00005517          	auipc	x10,0x5
    1c84:	b2b50513          	addi	x10,x10,-1237 # 67ab <trap_diag_hint_epc_str>
    1c88:	00000013          	addi	x0,x0,0
    1c8c:	00000013          	addi	x0,x0,0
    1c90:	00000013          	addi	x0,x0,0
    1c94:	00000013          	addi	x0,x0,0
    1c98:	00000013          	addi	x0,x0,0
    1c9c:	00000013          	addi	x0,x0,0
    1ca0:	00014097          	auipc	x1,0x14
    1ca4:	564080e7          	jalr	x1,1380(x1) # 16204 <rvmodel_io_write_str>
    1ca8:	1fc0006f          	jal	x0,1ea4 <failedtest_report_end>
    1cac:	00400593          	addi	x11,x0,4
    1cb0:	02b51e63          	bne	x10,x11,1cec <trap_field_not_cause+0x110>
    1cb4:	00000013          	addi	x0,x0,0
    1cb8:	00000013          	addi	x0,x0,0
    1cbc:	00000013          	addi	x0,x0,0
    1cc0:	00005517          	auipc	x10,0x5
    1cc4:	be650513          	addi	x10,x10,-1050 # 68a6 <trap_diag_hint_tval_str>
    1cc8:	00000013          	addi	x0,x0,0
    1ccc:	00000013          	addi	x0,x0,0
    1cd0:	00000013          	addi	x0,x0,0
    1cd4:	00000013          	addi	x0,x0,0
    1cd8:	00000013          	addi	x0,x0,0
    1cdc:	00000013          	addi	x0,x0,0
    1ce0:	00014097          	auipc	x1,0x14
    1ce4:	524080e7          	jalr	x1,1316(x1) # 16204 <rvmodel_io_write_str>
    1ce8:	1bc0006f          	jal	x0,1ea4 <failedtest_report_end>
    1cec:	00500593          	addi	x11,x0,5
    1cf0:	02b51e63          	bne	x10,x11,1d2c <trap_field_not_cause+0x150>
    1cf4:	00000013          	addi	x0,x0,0
    1cf8:	00000013          	addi	x0,x0,0
    1cfc:	00000013          	addi	x0,x0,0
    1d00:	00005517          	auipc	x10,0x5
    1d04:	c8d50513          	addi	x10,x10,-883 # 698d <trap_diag_hint_ip_str>
    1d08:	00000013          	addi	x0,x0,0
    1d0c:	00000013          	addi	x0,x0,0
    1d10:	00000013          	addi	x0,x0,0
    1d14:	00000013          	addi	x0,x0,0
    1d18:	00000013          	addi	x0,x0,0
    1d1c:	00000013          	addi	x0,x0,0
    1d20:	00014097          	auipc	x1,0x14
    1d24:	4e4080e7          	jalr	x1,1252(x1) # 16204 <rvmodel_io_write_str>
    1d28:	17c0006f          	jal	x0,1ea4 <failedtest_report_end>
    1d2c:	1780006f          	jal	x0,1ea4 <failedtest_report_end>

00001d30 <trap_report_generic>:
    1d30:	00000013          	addi	x0,x0,0
    1d34:	00000013          	addi	x0,x0,0
    1d38:	00000013          	addi	x0,x0,0
    1d3c:	00000013          	addi	x0,x0,0
    1d40:	00005517          	auipc	x10,0x5
    1d44:	85a50513          	addi	x10,x10,-1958 # 659a <trap_diag_generic_str>
    1d48:	00000013          	addi	x0,x0,0
    1d4c:	00000013          	addi	x0,x0,0
    1d50:	00000013          	addi	x0,x0,0
    1d54:	00000013          	addi	x0,x0,0
    1d58:	00000013          	addi	x0,x0,0
    1d5c:	00000013          	addi	x0,x0,0
    1d60:	00014097          	auipc	x1,0x14
    1d64:	4a4080e7          	jalr	x1,1188(x1) # 16204 <rvmodel_io_write_str>
    1d68:	00003617          	auipc	x12,0x3
    1d6c:	1b062603          	lw	x12,432(x12) # 4f18 <saved_mepc>
    1d70:	00000013          	addi	x0,x0,0
    1d74:	00000013          	addi	x0,x0,0
    1d78:	00000013          	addi	x0,x0,0
    1d7c:	00000013          	addi	x0,x0,0
    1d80:	00003517          	auipc	x10,0x3
    1d84:	7fd50513          	addi	x10,x10,2045 # 557d <xepcinstrstr>
    1d88:	00000013          	addi	x0,x0,0
    1d8c:	00000013          	addi	x0,x0,0
    1d90:	00000013          	addi	x0,x0,0
    1d94:	00000013          	addi	x0,x0,0
    1d98:	00000013          	addi	x0,x0,0
    1d9c:	00000013          	addi	x0,x0,0
    1da0:	00014097          	auipc	x1,0x14
    1da4:	464080e7          	jalr	x1,1124(x1) # 16204 <rvmodel_io_write_str>
    1da8:	00065503          	lhu	x10,0(x12)
    1dac:	01000593          	addi	x11,x0,16
    1db0:	00357413          	andi	x8,x10,3
    1db4:	00300493          	addi	x9,x0,3
    1db8:	00941a63          	bne	x8,x9,1dcc <trap_report_generic+0x9c>
    1dbc:	00265403          	lhu	x8,2(x12)
    1dc0:	01041413          	slli	x8,x8,0x10
    1dc4:	00856533          	or	x10,x10,x8
    1dc8:	02000593          	addi	x11,x0,32
    1dcc:	32c000ef          	jal	x1,20f8 <failedtest_hex_to_str>
    1dd0:	00000013          	addi	x0,x0,0
    1dd4:	00000013          	addi	x0,x0,0
    1dd8:	00000013          	addi	x0,x0,0
    1ddc:	00000013          	addi	x0,x0,0
    1de0:	00003517          	auipc	x10,0x3
    1de4:	15850513          	addi	x10,x10,344 # 4f38 <ascii_buffer>
    1de8:	00000013          	addi	x0,x0,0
    1dec:	00000013          	addi	x0,x0,0
    1df0:	00000013          	addi	x0,x0,0
    1df4:	00000013          	addi	x0,x0,0
    1df8:	00000013          	addi	x0,x0,0
    1dfc:	00000013          	addi	x0,x0,0
    1e00:	00014097          	auipc	x1,0x14
    1e04:	404080e7          	jalr	x1,1028(x1) # 16204 <rvmodel_io_write_str>
    1e08:	00000097          	auipc	x1,0x0
    1e0c:	0e8080e7          	jalr	x1,232(x1) # 1ef0 <failedtest_print_csr_context>
    1e10:	0940006f          	jal	x0,1ea4 <failedtest_report_end>

00001e14 <trap_cause_to_str>:
    1e14:	02054263          	blt	x10,x0,1e38 <trap_cause_interrupt>

00001e18 <trap_cause_exception>:
    1e18:	01800593          	addi	x11,x0,24
    1e1c:	04b55463          	bge	x10,x11,1e64 <trap_cause_unknown>
    1e20:	00003597          	auipc	x11,0x3
    1e24:	14058593          	addi	x11,x11,320 # 4f60 <end_failure_scratch>
    1e28:	00251613          	slli	x12,x10,0x2
    1e2c:	00c585b3          	add	x11,x11,x12
    1e30:	0005a503          	lw	x10,0(x11)
    1e34:	00008067          	jalr	x0,0(x1)

00001e38 <trap_cause_interrupt>:
    1e38:	00100593          	addi	x11,x0,1
    1e3c:	01f59593          	slli	x11,x11,0x1f
    1e40:	00b54533          	xor	x10,x10,x11
    1e44:	01000593          	addi	x11,x0,16
    1e48:	00b55e63          	bge	x10,x11,1e64 <trap_cause_unknown>
    1e4c:	00003597          	auipc	x11,0x3
    1e50:	17458593          	addi	x11,x11,372 # 4fc0 <trap_int_name_tbl>
    1e54:	00251613          	slli	x12,x10,0x2
    1e58:	00c585b3          	add	x11,x11,x12
    1e5c:	0005a503          	lw	x10,0(x11)
    1e60:	00008067          	jalr	x0,0(x1)

00001e64 <trap_cause_unknown>:
    1e64:	00000013          	addi	x0,x0,0
    1e68:	00000013          	addi	x0,x0,0
    1e6c:	00000013          	addi	x0,x0,0
    1e70:	00000013          	addi	x0,x0,0
    1e74:	00000013          	addi	x0,x0,0
    1e78:	00000013          	addi	x0,x0,0
    1e7c:	00000013          	addi	x0,x0,0
    1e80:	00003517          	auipc	x10,0x3
    1e84:	57e50513          	addi	x10,x10,1406 # 53fe <trap_cause_unknown_str>
    1e88:	00000013          	addi	x0,x0,0
    1e8c:	00000013          	addi	x0,x0,0
    1e90:	00000013          	addi	x0,x0,0
    1e94:	00000013          	addi	x0,x0,0
    1e98:	00000013          	addi	x0,x0,0
    1e9c:	00000013          	addi	x0,x0,0
    1ea0:	00008067          	jalr	x0,0(x1)

00001ea4 <failedtest_report_end>:
    1ea4:	00000013          	addi	x0,x0,0
    1ea8:	00000013          	addi	x0,x0,0
    1eac:	00000013          	addi	x0,x0,0
    1eb0:	00000013          	addi	x0,x0,0
    1eb4:	00000013          	addi	x0,x0,0
    1eb8:	00000013          	addi	x0,x0,0
    1ebc:	00000013          	addi	x0,x0,0
    1ec0:	00004517          	auipc	x10,0x4
    1ec4:	10550513          	addi	x10,x10,261 # 5fc5 <endstr>
    1ec8:	00000013          	addi	x0,x0,0
    1ecc:	00000013          	addi	x0,x0,0
    1ed0:	00000013          	addi	x0,x0,0
    1ed4:	00000013          	addi	x0,x0,0
    1ed8:	00000013          	addi	x0,x0,0
    1edc:	00000013          	addi	x0,x0,0
    1ee0:	00014097          	auipc	x1,0x14
    1ee4:	324080e7          	jalr	x1,804(x1) # 16204 <rvmodel_io_write_str>

00001ee8 <failedtest_terminate>:
    1ee8:	00014097          	auipc	x1,0x14
    1eec:	32c080e7          	jalr	x1,812(x1) # 16214 <rvmodel_halt_fail>

00001ef0 <failedtest_print_csr_context>:
    1ef0:	00003617          	auipc	x12,0x3
    1ef4:	02060613          	addi	x12,x12,32 # 4f10 <csr_context_ret_addr>
    1ef8:	00162023          	sw	x1,0(x12)
    1efc:	00000013          	addi	x0,x0,0
    1f00:	00003517          	auipc	x10,0x3
    1f04:	69e50513          	addi	x10,x10,1694 # 559e <mepcstr>
    1f08:	00000013          	addi	x0,x0,0
    1f0c:	00000013          	addi	x0,x0,0
    1f10:	00000013          	addi	x0,x0,0
    1f14:	00000013          	addi	x0,x0,0
    1f18:	00000013          	addi	x0,x0,0
    1f1c:	00000013          	addi	x0,x0,0
    1f20:	00014097          	auipc	x1,0x14
    1f24:	2e4080e7          	jalr	x1,740(x1) # 16204 <rvmodel_io_write_str>
    1f28:	00003517          	auipc	x10,0x3
    1f2c:	ff052503          	lw	x10,-16(x10) # 4f18 <saved_mepc>
    1f30:	02000593          	addi	x11,x0,32
    1f34:	1c4000ef          	jal	x1,20f8 <failedtest_hex_to_str>
    1f38:	00000013          	addi	x0,x0,0
    1f3c:	00000013          	addi	x0,x0,0
    1f40:	00003517          	auipc	x10,0x3
    1f44:	ff850513          	addi	x10,x10,-8 # 4f38 <ascii_buffer>
    1f48:	00000013          	addi	x0,x0,0
    1f4c:	00000013          	addi	x0,x0,0
    1f50:	00000013          	addi	x0,x0,0
    1f54:	00000013          	addi	x0,x0,0
    1f58:	00000013          	addi	x0,x0,0
    1f5c:	00000013          	addi	x0,x0,0
    1f60:	00014097          	auipc	x1,0x14
    1f64:	2a4080e7          	jalr	x1,676(x1) # 16204 <rvmodel_io_write_str>
    1f68:	00000013          	addi	x0,x0,0
    1f6c:	00000013          	addi	x0,x0,0
    1f70:	00000013          	addi	x0,x0,0
    1f74:	00000013          	addi	x0,x0,0
    1f78:	00000013          	addi	x0,x0,0
    1f7c:	00000013          	addi	x0,x0,0
    1f80:	00003517          	auipc	x10,0x3
    1f84:	62e50513          	addi	x10,x10,1582 # 55ae <mcausestr>
    1f88:	00000013          	addi	x0,x0,0
    1f8c:	00000013          	addi	x0,x0,0
    1f90:	00000013          	addi	x0,x0,0
    1f94:	00000013          	addi	x0,x0,0
    1f98:	00000013          	addi	x0,x0,0
    1f9c:	00000013          	addi	x0,x0,0
    1fa0:	00014097          	auipc	x1,0x14
    1fa4:	264080e7          	jalr	x1,612(x1) # 16204 <rvmodel_io_write_str>
    1fa8:	00003517          	auipc	x10,0x3
    1fac:	f7852503          	lw	x10,-136(x10) # 4f20 <saved_mcause>
    1fb0:	02000593          	addi	x11,x0,32
    1fb4:	144000ef          	jal	x1,20f8 <failedtest_hex_to_str>
    1fb8:	00000013          	addi	x0,x0,0
    1fbc:	00000013          	addi	x0,x0,0
    1fc0:	00003517          	auipc	x10,0x3
    1fc4:	f7850513          	addi	x10,x10,-136 # 4f38 <ascii_buffer>
    1fc8:	00000013          	addi	x0,x0,0
    1fcc:	00000013          	addi	x0,x0,0
    1fd0:	00000013          	addi	x0,x0,0
    1fd4:	00000013          	addi	x0,x0,0
    1fd8:	00000013          	addi	x0,x0,0
    1fdc:	00000013          	addi	x0,x0,0
    1fe0:	00014097          	auipc	x1,0x14
    1fe4:	224080e7          	jalr	x1,548(x1) # 16204 <rvmodel_io_write_str>
    1fe8:	00000013          	addi	x0,x0,0
    1fec:	00000013          	addi	x0,x0,0
    1ff0:	00000013          	addi	x0,x0,0
    1ff4:	00000013          	addi	x0,x0,0
    1ff8:	00000013          	addi	x0,x0,0
    1ffc:	00000013          	addi	x0,x0,0
    2000:	00003517          	auipc	x10,0x3
    2004:	5be50513          	addi	x10,x10,1470 # 55be <mtvalstr>
    2008:	00000013          	addi	x0,x0,0
    200c:	00000013          	addi	x0,x0,0
    2010:	00000013          	addi	x0,x0,0
    2014:	00000013          	addi	x0,x0,0
    2018:	00000013          	addi	x0,x0,0
    201c:	00000013          	addi	x0,x0,0
    2020:	00014097          	auipc	x1,0x14
    2024:	1e4080e7          	jalr	x1,484(x1) # 16204 <rvmodel_io_write_str>
    2028:	00003517          	auipc	x10,0x3
    202c:	f0052503          	lw	x10,-256(x10) # 4f28 <saved_mtval>
    2030:	02000593          	addi	x11,x0,32
    2034:	0c4000ef          	jal	x1,20f8 <failedtest_hex_to_str>
    2038:	00000013          	addi	x0,x0,0
    203c:	00000013          	addi	x0,x0,0
    2040:	00003517          	auipc	x10,0x3
    2044:	ef850513          	addi	x10,x10,-264 # 4f38 <ascii_buffer>
    2048:	00000013          	addi	x0,x0,0
    204c:	00000013          	addi	x0,x0,0
    2050:	00000013          	addi	x0,x0,0
    2054:	00000013          	addi	x0,x0,0
    2058:	00000013          	addi	x0,x0,0
    205c:	00000013          	addi	x0,x0,0
    2060:	00014097          	auipc	x1,0x14
    2064:	1a4080e7          	jalr	x1,420(x1) # 16204 <rvmodel_io_write_str>
    2068:	00000013          	addi	x0,x0,0
    206c:	00000013          	addi	x0,x0,0
    2070:	00000013          	addi	x0,x0,0
    2074:	00000013          	addi	x0,x0,0
    2078:	00000013          	addi	x0,x0,0
    207c:	00000013          	addi	x0,x0,0
    2080:	00003517          	auipc	x10,0x3
    2084:	54e50513          	addi	x10,x10,1358 # 55ce <mstatusstr>
    2088:	00000013          	addi	x0,x0,0
    208c:	00000013          	addi	x0,x0,0
    2090:	00000013          	addi	x0,x0,0
    2094:	00000013          	addi	x0,x0,0
    2098:	00000013          	addi	x0,x0,0
    209c:	00000013          	addi	x0,x0,0
    20a0:	00014097          	auipc	x1,0x14
    20a4:	164080e7          	jalr	x1,356(x1) # 16204 <rvmodel_io_write_str>
    20a8:	00003517          	auipc	x10,0x3
    20ac:	e8852503          	lw	x10,-376(x10) # 4f30 <saved_mstatus>
    20b0:	02000593          	addi	x11,x0,32
    20b4:	044000ef          	jal	x1,20f8 <failedtest_hex_to_str>
    20b8:	00000013          	addi	x0,x0,0
    20bc:	00000013          	addi	x0,x0,0
    20c0:	00003517          	auipc	x10,0x3
    20c4:	e7850513          	addi	x10,x10,-392 # 4f38 <ascii_buffer>
    20c8:	00000013          	addi	x0,x0,0
    20cc:	00000013          	addi	x0,x0,0
    20d0:	00000013          	addi	x0,x0,0
    20d4:	00000013          	addi	x0,x0,0
    20d8:	00000013          	addi	x0,x0,0
    20dc:	00000013          	addi	x0,x0,0
    20e0:	00014097          	auipc	x1,0x14
    20e4:	124080e7          	jalr	x1,292(x1) # 16204 <rvmodel_io_write_str>
    20e8:	00003617          	auipc	x12,0x3
    20ec:	e2860613          	addi	x12,x12,-472 # 4f10 <csr_context_ret_addr>
    20f0:	00062083          	lw	x1,0(x12)
    20f4:	00008067          	jalr	x0,0(x1)

000020f8 <failedtest_hex_to_str>:
    20f8:	00000013          	addi	x0,x0,0
    20fc:	00000013          	addi	x0,x0,0
    2100:	00003617          	auipc	x12,0x3
    2104:	e3860613          	addi	x12,x12,-456 # 4f38 <ascii_buffer>
    2108:	00000013          	addi	x0,x0,0
    210c:	00000013          	addi	x0,x0,0
    2110:	00000013          	addi	x0,x0,0
    2114:	00000013          	addi	x0,x0,0
    2118:	00000013          	addi	x0,x0,0
    211c:	00000013          	addi	x0,x0,0
    2120:	03000693          	addi	x13,x0,48
    2124:	00d60023          	sb	x13,0(x12)
    2128:	07800693          	addi	x13,x0,120
    212c:	00d600a3          	sb	x13,1(x12)
    2130:	00260613          	addi	x12,x12,2
    2134:	00058693          	addi	x13,x11,0

00002138 <failedtest_hex_to_str_loop>:
    2138:	ffc68693          	addi	x13,x13,-4
    213c:	00d55733          	srl	x14,x10,x13
    2140:	00f77713          	andi	x14,x14,15
    2144:	00a00793          	addi	x15,x0,10
    2148:	00f74663          	blt	x14,x15,2154 <failedtest_hex_to_str_digit>
    214c:	05770713          	addi	x14,x14,87
    2150:	0080006f          	jal	x0,2158 <failedtest_hex_to_str_write>

00002154 <failedtest_hex_to_str_digit>:
    2154:	03070713          	addi	x14,x14,48

00002158 <failedtest_hex_to_str_write>:
    2158:	00e60023          	sb	x14,0(x12)
    215c:	00160613          	addi	x12,x12,1
    2160:	fc069ce3          	bne	x13,x0,2138 <failedtest_hex_to_str_loop>
    2164:	00a00693          	addi	x13,x0,10
    2168:	00d60023          	sb	x13,0(x12)
    216c:	000600a3          	sb	x0,1(x12)
    2170:	00008067          	jalr	x0,0(x1)

00002174 <failedtest_dec_to_str>:
    2174:	00a00693          	addi	x13,x0,10
    2178:	02d54663          	blt	x10,x13,21a4 <failedtest_dec_to_str+0x30>
    217c:	ff650513          	addi	x10,x10,-10
    2180:	03100713          	addi	x14,x0,49
    2184:	00d54c63          	blt	x10,x13,219c <failedtest_dec_to_str+0x28>
    2188:	ff650513          	addi	x10,x10,-10
    218c:	03200713          	addi	x14,x0,50
    2190:	00d54663          	blt	x10,x13,219c <failedtest_dec_to_str+0x28>
    2194:	ff650513          	addi	x10,x10,-10
    2198:	03300713          	addi	x14,x0,51
    219c:	00e60023          	sb	x14,0(x12)
    21a0:	00160613          	addi	x12,x12,1
    21a4:	03050513          	addi	x10,x10,48
    21a8:	00a60023          	sb	x10,0(x12)
    21ac:	00a00693          	addi	x13,x0,10
    21b0:	00d600a3          	sb	x13,1(x12)
    21b4:	00060123          	sb	x0,2(x12)
    21b8:	00008067          	jalr	x0,0(x1)
    21bc:	00000013          	addi	x0,x0,0

Disassembly of section .text.rvmodel:

00016000 <rvmodel_boot>:
   16000:	feedc0b7          	lui	x1,0xfeedc
   16004:	ead08093          	addi	x1,x1,-339 # feedbead <absimm+0x8f911ba4>
   16008:	01909793          	slli	x15,x1,0x19
   1600c:	0070d113          	srli	x2,x1,0x7
   16010:	00f16133          	or	x2,x2,x15
   16014:	01911793          	slli	x15,x2,0x19
   16018:	00715193          	srli	x3,x2,0x7
   1601c:	00f1e1b3          	or	x3,x3,x15
   16020:	01919793          	slli	x15,x3,0x19
   16024:	0071d213          	srli	x4,x3,0x7
   16028:	00f26233          	or	x4,x4,x15
   1602c:	01921793          	slli	x15,x4,0x19
   16030:	00725293          	srli	x5,x4,0x7
   16034:	00f2e2b3          	or	x5,x5,x15
   16038:	01929793          	slli	x15,x5,0x19
   1603c:	0072d313          	srli	x6,x5,0x7
   16040:	00f36333          	or	x6,x6,x15
   16044:	01931793          	slli	x15,x6,0x19
   16048:	00735393          	srli	x7,x6,0x7
   1604c:	00f3e3b3          	or	x7,x7,x15
   16050:	01939793          	slli	x15,x7,0x19
   16054:	0073d413          	srli	x8,x7,0x7
   16058:	00f46433          	or	x8,x8,x15
   1605c:	01941793          	slli	x15,x8,0x19
   16060:	00745493          	srli	x9,x8,0x7
   16064:	00f4e4b3          	or	x9,x9,x15
   16068:	01949793          	slli	x15,x9,0x19
   1606c:	0074d513          	srli	x10,x9,0x7
   16070:	00f56533          	or	x10,x10,x15
   16074:	01951793          	slli	x15,x10,0x19
   16078:	00755593          	srli	x11,x10,0x7
   1607c:	00f5e5b3          	or	x11,x11,x15
   16080:	01959793          	slli	x15,x11,0x19
   16084:	0075d613          	srli	x12,x11,0x7
   16088:	00f66633          	or	x12,x12,x15
   1608c:	01961793          	slli	x15,x12,0x19
   16090:	00765693          	srli	x13,x12,0x7
   16094:	00f6e6b3          	or	x13,x13,x15
   16098:	01969793          	slli	x15,x13,0x19
   1609c:	0076d713          	srli	x14,x13,0x7
   160a0:	00f76733          	or	x14,x14,x15
   160a4:	fab807b7          	lui	x15,0xfab80
   160a8:	bb678793          	addi	x15,x15,-1098 # fab7fbb6 <absimm+0x8b5b58ad>
   160ac:	7d5c0837          	lui	x16,0x7d5c0
   160b0:	ddb80813          	addi	x16,x16,-549 # 7d5bfddb <absimm+0xdff5ad2>
   160b4:	01981793          	slli	x15,x16,0x19
   160b8:	00785893          	srli	x17,x16,0x7
   160bc:	00f8e8b3          	or	x17,x17,x15
   160c0:	01989793          	slli	x15,x17,0x19
   160c4:	0078d913          	srli	x18,x17,0x7
   160c8:	00f96933          	or	x18,x18,x15
   160cc:	01991793          	slli	x15,x18,0x19
   160d0:	00795993          	srli	x19,x18,0x7
   160d4:	00f9e9b3          	or	x19,x19,x15
   160d8:	01999793          	slli	x15,x19,0x19
   160dc:	0079da13          	srli	x20,x19,0x7
   160e0:	00fa6a33          	or	x20,x20,x15
   160e4:	019a1793          	slli	x15,x20,0x19
   160e8:	007a5a93          	srli	x21,x20,0x7
   160ec:	00faeab3          	or	x21,x21,x15
   160f0:	019a9793          	slli	x15,x21,0x19
   160f4:	007adb13          	srli	x22,x21,0x7
   160f8:	00fb6b33          	or	x22,x22,x15
   160fc:	019b1793          	slli	x15,x22,0x19
   16100:	007b5b93          	srli	x23,x22,0x7
   16104:	00fbebb3          	or	x23,x23,x15
   16108:	019b9793          	slli	x15,x23,0x19
   1610c:	007bdc13          	srli	x24,x23,0x7
   16110:	00fc6c33          	or	x24,x24,x15
   16114:	019c1793          	slli	x15,x24,0x19
   16118:	007c5c93          	srli	x25,x24,0x7
   1611c:	00fcecb3          	or	x25,x25,x15
   16120:	019c9793          	slli	x15,x25,0x19
   16124:	007cdd13          	srli	x26,x25,0x7
   16128:	00fd6d33          	or	x26,x26,x15
   1612c:	019d1793          	slli	x15,x26,0x19
   16130:	007d5d93          	srli	x27,x26,0x7
   16134:	00fdedb3          	or	x27,x27,x15
   16138:	019d9793          	slli	x15,x27,0x19
   1613c:	007dde13          	srli	x28,x27,0x7
   16140:	00fe6e33          	or	x28,x28,x15
   16144:	019e1793          	slli	x15,x28,0x19
   16148:	007e5e93          	srli	x29,x28,0x7
   1614c:	00feeeb3          	or	x29,x29,x15
   16150:	019e9793          	slli	x15,x29,0x19
   16154:	007edf13          	srli	x30,x29,0x7
   16158:	00ff6f33          	or	x30,x30,x15
   1615c:	019f1793          	slli	x15,x30,0x19
   16160:	007f5f93          	srli	x31,x30,0x7
   16164:	00ffefb3          	or	x31,x31,x15
   16168:	00000013          	addi	x0,x0,0
   1616c:	00000013          	addi	x0,x0,0
   16170:	00000013          	addi	x0,x0,0
   16174:	00000013          	addi	x0,x0,0
   16178:	00000013          	addi	x0,x0,0
   1617c:	00000013          	addi	x0,x0,0
   16180:	ffff1117          	auipc	x2,0xffff1
   16184:	90010113          	addi	x2,x2,-1792 # 6a80 <begin_signature>
   16188:	00000013          	addi	x0,x0,0
   1618c:	00000013          	addi	x0,x0,0
   16190:	00000013          	addi	x0,x0,0
   16194:	00000013          	addi	x0,x0,0
   16198:	00000013          	addi	x0,x0,0
   1619c:	00000013          	addi	x0,x0,0

000161a0 <canary_check>:
   161a0:	6f5ca337          	lui	x6,0x6f5ca
   161a4:	30930313          	addi	x6,x6,777 # 6f5ca309 <absimm>
   161a8:	00012203          	lw	x4,0(x2)
   161ac:	00620863          	beq	x4,x6,161bc <canary_check+0x1c>
   161b0:	d8cea2ef          	jal	x5,73c <failedtest_x5_x4>
   161b4:	000161a0          	.word	0x000161a0
   161b8:	00005fee          	.word	0x00005fee
   161bc:	00410113          	addi	x2,x2,4
   161c0:	fffee197          	auipc	x3,0xfffee
   161c4:	f5018193          	addi	x3,x3,-176 # 4110 <rvtest_data_begin>
   161c8:	00000013          	addi	x0,x0,0
   161cc:	00000013          	addi	x0,x0,0
   161d0:	00000013          	addi	x0,x0,0
   161d4:	00000013          	addi	x0,x0,0
   161d8:	00000013          	addi	x0,x0,0
   161dc:	00000013          	addi	x0,x0,0
   161e0:	fffea317          	auipc	x6,0xfffea
   161e4:	e6030313          	addi	x6,x6,-416 # 40 <rvtest_code_begin>
   161e8:	00000013          	addi	x0,x0,0
   161ec:	00000013          	addi	x0,x0,0
   161f0:	00000013          	addi	x0,x0,0
   161f4:	00000013          	addi	x0,x0,0
   161f8:	00000013          	addi	x0,x0,0
   161fc:	00000013          	addi	x0,x0,0
   16200:	00030067          	jalr	x0,0(x6)

00016204 <rvmodel_io_write_str>:
   16204:	00008067          	jalr	x0,0(x1)

00016208 <rvmodel_halt_pass>:
   16208:	00000513          	addi	x10,x0,0
   1620c:	00000073          	ecall
   16210:	0000006f          	jal	x0,16210 <rvmodel_halt_pass+0x8>

00016214 <rvmodel_halt_fail>:
   16214:	00100513          	addi	x10,x0,1
   16218:	00000073          	ecall
   1621c:	0000006f          	jal	x0,1621c <rvmodel_halt_fail+0x8>
   16220:	00000013          	addi	x0,x0,0
   16224:	00000013          	addi	x0,x0,0
   16228:	00000013          	addi	x0,x0,0
   1622c:	00000013          	addi	x0,x0,0
   16230:	00000013          	addi	x0,x0,0
   16234:	00000013          	addi	x0,x0,0
   16238:	00000013          	addi	x0,x0,0
   1623c:	00000013          	addi	x0,x0,0
