
/home/dev/github/clones/riscv-arch-test/work/rv32i-core/elfs/rv32i/I/I-beq-00.elf:     file format elf32-littleriscv
/home/dev/github/clones/riscv-arch-test/work/rv32i-core/elfs/rv32i/I/I-beq-00.elf
architecture: riscv:rv32, flags 0x00000112:
EXEC_P, HAS_SYMS, D_PAGED
start address 0x00000000

Program Header:
0x70000003 off    0x00024240 vaddr 0x00000000 paddr 0x00000000 align 2**0
         filesz 0x00000033 memsz 0x00000000 flags r--
    LOAD off    0x00001000 vaddr 0x00000000 paddr 0x00000000 align 2**12
         filesz 0x0000c000 memsz 0x0000c000 flags r-x
    LOAD off    0x0000d000 vaddr 0x0000c000 paddr 0x0000c000 align 2**12
         filesz 0x00017240 memsz 0x00017240 flags rwx

Sections:
Idx Name          Size      VMA       LMA       File off  Algn
  0 .text.init    00000040  00000000  00000000  00001000  2**5
                  CONTENTS, ALLOC, LOAD, READONLY, CODE
  1 .text.rvtest  0000b000  00001000  00001000  00002000  2**12
                  CONTENTS, ALLOC, LOAD, READONLY, CODE
  2 .data         00016640  0000c000  0000c000  0000d000  2**8
                  CONTENTS, ALLOC, LOAD, DATA
  3 .text.rvmodel 00000240  00023000  00023000  00024000  2**5
                  CONTENTS, ALLOC, LOAD, READONLY, CODE
  4 .riscv.attributes 00000033  00000000  00000000  00024240  2**0
                  CONTENTS, READONLY
  5 .debug_line   000034aa  00000000  00000000  00024273  2**0
                  CONTENTS, READONLY, DEBUGGING, OCTETS
  6 .debug_line_str 00000069  00000000  00000000  0002771d  2**0
                  CONTENTS, READONLY, DEBUGGING, OCTETS
  7 .debug_info   00000023  00000000  00000000  00027786  2**0
                  CONTENTS, READONLY, DEBUGGING, OCTETS
  8 .debug_abbrev 00000012  00000000  00000000  000277a9  2**0
                  CONTENTS, READONLY, DEBUGGING, OCTETS
  9 .debug_aranges 00000028  00000000  00000000  000277c0  2**3
                  CONTENTS, READONLY, DEBUGGING, OCTETS
 10 .debug_str    00000075  00000000  00000000  000277e8  2**0
                  CONTENTS, READONLY, DEBUGGING, OCTETS
 11 .debug_rnglists 0000001b  00000000  00000000  0002785d  2**0
                  CONTENTS, READONLY, DEBUGGING, OCTETS
SYMBOL TABLE:
00000000 l    d  .text.init	00000000 .text.init
00001000 l    d  .text.rvtest	00000000 .text.rvtest
0000c000 l    d  .data	00000000 .data
00023000 l    d  .text.rvmodel	00000000 .text.rvmodel
00000000 l    d  .riscv.attributes	00000000 .riscv.attributes
00000000 l    d  .debug_line	00000000 .debug_line
00000000 l    d  .debug_line_str	00000000 .debug_line_str
00000000 l    d  .debug_info	00000000 .debug_info
00000000 l    d  .debug_abbrev	00000000 .debug_abbrev
00000000 l    d  .debug_aranges	00000000 .debug_aranges
00000000 l    d  .debug_str	00000000 .debug_str
00000000 l    d  .debug_rnglists	00000000 .debug_rnglists
00000000 l    df *ABS*	00000000 cc0fQJD5.o
00000003 l       *ABS*	00000000 MMODE_SIG
00000001 l       *ABS*	00000000 SMODE_SIG
00000001 l       *ABS*	00000000 HMODE_SIG
00000002 l       *ABS*	00000000 VMODE_SIG
00023000 l       .text.rvmodel	00000000 rvmodel_boot
00001018 l       .text.rvtest	00000000 I_beq_cg_cp_rs1_b0
6f5ca309 l       *ABS*	00000000 immx
6f5ca309 l       *ABS*	00000000 absimm
00000000 l       *ABS*	00000000 cry
00000309 l       *ABS*	00000000 imm12
0000a07c l       .text.rvtest	00000000 failedtest_x5_x4
0000cb38 l       .data	00000000 I_beq_cg_cp_rs1_b0_str
00001050 l       .text.rvtest	00000000 I_beq_cg_cp_rs1_b1
0000cb65 l       .data	00000000 I_beq_cg_cp_rs1_b1_str
0000108c l       .text.rvtest	00000000 I_beq_cg_cp_rs1_b2
0000cb92 l       .data	00000000 I_beq_cg_cp_rs1_b2_str
000010c8 l       .text.rvtest	00000000 I_beq_cg_cp_rs1_b3
0000cbbf l       .data	00000000 I_beq_cg_cp_rs1_b3_str
00001108 l       .text.rvtest	00000000 I_beq_cg_cp_rs1_b4
0000a0bc l       .text.rvtest	00000000 failedtest_x14_x13
0000cbec l       .data	00000000 I_beq_cg_cp_rs1_b4_str
00001140 l       .text.rvtest	00000000 I_beq_cg_cp_rs1_b5
0000cc19 l       .data	00000000 I_beq_cg_cp_rs1_b5_str
00001178 l       .text.rvtest	00000000 I_beq_cg_cp_rs1_b6
0000cc46 l       .data	00000000 I_beq_cg_cp_rs1_b6_str
000011b0 l       .text.rvtest	00000000 I_beq_cg_cp_rs1_b7
0000cc73 l       .data	00000000 I_beq_cg_cp_rs1_b7_str
000011e8 l       .text.rvtest	00000000 I_beq_cg_cp_rs1_b8
0000cca0 l       .data	00000000 I_beq_cg_cp_rs1_b8_str
00001220 l       .text.rvtest	00000000 I_beq_cg_cp_rs1_b9
0000cccd l       .data	00000000 I_beq_cg_cp_rs1_b9_str
00001258 l       .text.rvtest	00000000 I_beq_cg_cp_rs1_b10
0000ccfb l       .data	00000000 I_beq_cg_cp_rs1_b10_str
00001290 l       .text.rvtest	00000000 I_beq_cg_cp_rs1_b11
0000cd2a l       .data	00000000 I_beq_cg_cp_rs1_b11_str
000012c8 l       .text.rvtest	00000000 I_beq_cg_cp_rs1_b12
0000cd59 l       .data	00000000 I_beq_cg_cp_rs1_b12_str
00001308 l       .text.rvtest	00000000 I_beq_cg_cp_rs1_b13
0000cd88 l       .data	00000000 I_beq_cg_cp_rs1_b13_str
00001340 l       .text.rvtest	00000000 I_beq_cg_cp_rs1_b14
0000cdb7 l       .data	00000000 I_beq_cg_cp_rs1_b14_str
00001378 l       .text.rvtest	00000000 I_beq_cg_cp_rs1_b15
0000cde6 l       .data	00000000 I_beq_cg_cp_rs1_b15_str
000013b0 l       .text.rvtest	00000000 I_beq_cg_cp_rs1_b16
0000ce15 l       .data	00000000 I_beq_cg_cp_rs1_b16_str
000013e8 l       .text.rvtest	00000000 I_beq_cg_cp_rs1_b17
0000ce44 l       .data	00000000 I_beq_cg_cp_rs1_b17_str
00001420 l       .text.rvtest	00000000 I_beq_cg_cp_rs1_b18
0000ce73 l       .data	00000000 I_beq_cg_cp_rs1_b18_str
00001458 l       .text.rvtest	00000000 I_beq_cg_cp_rs1_b19
0000cea2 l       .data	00000000 I_beq_cg_cp_rs1_b19_str
00001490 l       .text.rvtest	00000000 I_beq_cg_cp_rs1_b20
0000ced1 l       .data	00000000 I_beq_cg_cp_rs1_b20_str
000014c8 l       .text.rvtest	00000000 I_beq_cg_cp_rs1_b21
0000cf00 l       .data	00000000 I_beq_cg_cp_rs1_b21_str
00001500 l       .text.rvtest	00000000 I_beq_cg_cp_rs1_b22
0000cf2f l       .data	00000000 I_beq_cg_cp_rs1_b22_str
00001538 l       .text.rvtest	00000000 I_beq_cg_cp_rs1_b23
0000cf5e l       .data	00000000 I_beq_cg_cp_rs1_b23_str
00001570 l       .text.rvtest	00000000 I_beq_cg_cp_rs1_b24
0000cf8d l       .data	00000000 I_beq_cg_cp_rs1_b24_str
000015ac l       .text.rvtest	00000000 I_beq_cg_cp_rs1_b25
0000cfbc l       .data	00000000 I_beq_cg_cp_rs1_b25_str
000015e4 l       .text.rvtest	00000000 I_beq_cg_cp_rs1_b26
0000cfeb l       .data	00000000 I_beq_cg_cp_rs1_b26_str
00001620 l       .text.rvtest	00000000 I_beq_cg_cp_rs1_b27
0000d01a l       .data	00000000 I_beq_cg_cp_rs1_b27_str
00001658 l       .text.rvtest	00000000 I_beq_cg_cp_rs1_b28
0000d049 l       .data	00000000 I_beq_cg_cp_rs1_b28_str
00001690 l       .text.rvtest	00000000 I_beq_cg_cp_rs1_b29
0000d078 l       .data	00000000 I_beq_cg_cp_rs1_b29_str
000016c8 l       .text.rvtest	00000000 I_beq_cg_cp_rs1_b30
0000d0a7 l       .data	00000000 I_beq_cg_cp_rs1_b30_str
00001700 l       .text.rvtest	00000000 I_beq_cg_cp_rs1_b31
0000d0d6 l       .data	00000000 I_beq_cg_cp_rs1_b31_str
00001738 l       .text.rvtest	00000000 I_beq_cg_cp_rs2_b0
0000d105 l       .data	00000000 I_beq_cg_cp_rs2_b0_str
00001770 l       .text.rvtest	00000000 I_beq_cg_cp_rs2_b1
0000d133 l       .data	00000000 I_beq_cg_cp_rs2_b1_str
000017a8 l       .text.rvtest	00000000 I_beq_cg_cp_rs2_b2
0000d161 l       .data	00000000 I_beq_cg_cp_rs2_b2_str
000017e0 l       .text.rvtest	00000000 I_beq_cg_cp_rs2_b3
0000d18f l       .data	00000000 I_beq_cg_cp_rs2_b3_str
00001820 l       .text.rvtest	00000000 I_beq_cg_cp_rs2_b4
0000d1bd l       .data	00000000 I_beq_cg_cp_rs2_b4_str
00001858 l       .text.rvtest	00000000 I_beq_cg_cp_rs2_b5
0000d1eb l       .data	00000000 I_beq_cg_cp_rs2_b5_str
00001890 l       .text.rvtest	00000000 I_beq_cg_cp_rs2_b6
0000d219 l       .data	00000000 I_beq_cg_cp_rs2_b6_str
000018c8 l       .text.rvtest	00000000 I_beq_cg_cp_rs2_b7
0000d247 l       .data	00000000 I_beq_cg_cp_rs2_b7_str
00001900 l       .text.rvtest	00000000 I_beq_cg_cp_rs2_b8
0000d275 l       .data	00000000 I_beq_cg_cp_rs2_b8_str
00001938 l       .text.rvtest	00000000 I_beq_cg_cp_rs2_b9
0000d2a3 l       .data	00000000 I_beq_cg_cp_rs2_b9_str
00001974 l       .text.rvtest	00000000 I_beq_cg_cp_rs2_b10
0000d2d1 l       .data	00000000 I_beq_cg_cp_rs2_b10_str
000019ac l       .text.rvtest	00000000 I_beq_cg_cp_rs2_b11
0000d300 l       .data	00000000 I_beq_cg_cp_rs2_b11_str
000019e4 l       .text.rvtest	00000000 I_beq_cg_cp_rs2_b12
0000d32f l       .data	00000000 I_beq_cg_cp_rs2_b12_str
00001a24 l       .text.rvtest	00000000 I_beq_cg_cp_rs2_b13
0000a094 l       .text.rvtest	00000000 failedtest_x8_x7
0000d35e l       .data	00000000 I_beq_cg_cp_rs2_b13_str
00001a5c l       .text.rvtest	00000000 I_beq_cg_cp_rs2_b14
0000d38d l       .data	00000000 I_beq_cg_cp_rs2_b14_str
00001a94 l       .text.rvtest	00000000 I_beq_cg_cp_rs2_b15
0000d3bc l       .data	00000000 I_beq_cg_cp_rs2_b15_str
00001acc l       .text.rvtest	00000000 I_beq_cg_cp_rs2_b16
0000d3eb l       .data	00000000 I_beq_cg_cp_rs2_b16_str
00001b04 l       .text.rvtest	00000000 I_beq_cg_cp_rs2_b17
0000d41a l       .data	00000000 I_beq_cg_cp_rs2_b17_str
00001b3c l       .text.rvtest	00000000 I_beq_cg_cp_rs2_b18
0000d449 l       .data	00000000 I_beq_cg_cp_rs2_b18_str
00001b74 l       .text.rvtest	00000000 I_beq_cg_cp_rs2_b19
0000d478 l       .data	00000000 I_beq_cg_cp_rs2_b19_str
00001bac l       .text.rvtest	00000000 I_beq_cg_cp_rs2_b20
0000d4a7 l       .data	00000000 I_beq_cg_cp_rs2_b20_str
00001be8 l       .text.rvtest	00000000 I_beq_cg_cp_rs2_b21
0000d4d6 l       .data	00000000 I_beq_cg_cp_rs2_b21_str
00001c20 l       .text.rvtest	00000000 I_beq_cg_cp_rs2_b22
0000d505 l       .data	00000000 I_beq_cg_cp_rs2_b22_str
00001c58 l       .text.rvtest	00000000 I_beq_cg_cp_rs2_b23
0000d534 l       .data	00000000 I_beq_cg_cp_rs2_b23_str
00001c94 l       .text.rvtest	00000000 I_beq_cg_cp_rs2_b24
0000d563 l       .data	00000000 I_beq_cg_cp_rs2_b24_str
00001cd0 l       .text.rvtest	00000000 I_beq_cg_cp_rs2_b25
0000d592 l       .data	00000000 I_beq_cg_cp_rs2_b25_str
00001d08 l       .text.rvtest	00000000 I_beq_cg_cp_rs2_b26
0000d5c1 l       .data	00000000 I_beq_cg_cp_rs2_b26_str
00001d40 l       .text.rvtest	00000000 I_beq_cg_cp_rs2_b27
0000d5f0 l       .data	00000000 I_beq_cg_cp_rs2_b27_str
00001d78 l       .text.rvtest	00000000 I_beq_cg_cp_rs2_b28
0000d61f l       .data	00000000 I_beq_cg_cp_rs2_b28_str
00001db0 l       .text.rvtest	00000000 I_beq_cg_cp_rs2_b29
0000d64e l       .data	00000000 I_beq_cg_cp_rs2_b29_str
00001de8 l       .text.rvtest	00000000 I_beq_cg_cp_rs2_b30
0000d67d l       .data	00000000 I_beq_cg_cp_rs2_b30_str
00001e20 l       .text.rvtest	00000000 I_beq_cg_cp_rs2_b31
0000d6ac l       .data	00000000 I_beq_cg_cp_rs2_b31_str
00001e58 l       .text.rvtest	00000000 I_beq_cg_cp_rs1_edges_0x0
0000d6db l       .data	00000000 I_beq_cg_cp_rs1_edges_0x0_str
00001e90 l       .text.rvtest	00000000 I_beq_cg_cp_rs1_edges_0x1
0000d710 l       .data	00000000 I_beq_cg_cp_rs1_edges_0x1_str
00001ec8 l       .text.rvtest	00000000 I_beq_cg_cp_rs1_edges_0x2
0000d745 l       .data	00000000 I_beq_cg_cp_rs1_edges_0x2_str
00001f00 l       .text.rvtest	00000000 I_beq_cg_cp_rs1_edges_0x80000000
0000d77a l       .data	00000000 I_beq_cg_cp_rs1_edges_0x80000000_str
00001f38 l       .text.rvtest	00000000 I_beq_cg_cp_rs1_edges_0x80000001
0000d7b6 l       .data	00000000 I_beq_cg_cp_rs1_edges_0x80000001_str
00001f70 l       .text.rvtest	00000000 I_beq_cg_cp_rs1_edges_0x7fffffff
0000d7f2 l       .data	00000000 I_beq_cg_cp_rs1_edges_0x7fffffff_str
00001fa8 l       .text.rvtest	00000000 I_beq_cg_cp_rs1_edges_0x7ffffffe
0000d82e l       .data	00000000 I_beq_cg_cp_rs1_edges_0x7ffffffe_str
00001fe0 l       .text.rvtest	00000000 I_beq_cg_cp_rs1_edges_0xffffffff
0000d86a l       .data	00000000 I_beq_cg_cp_rs1_edges_0xffffffff_str
00002018 l       .text.rvtest	00000000 I_beq_cg_cp_rs1_edges_0xfffffffe
0000d8a6 l       .data	00000000 I_beq_cg_cp_rs1_edges_0xfffffffe_str
00002050 l       .text.rvtest	00000000 I_beq_cg_cp_rs1_edges_0x5bbc8872
0000d8e2 l       .data	00000000 I_beq_cg_cp_rs1_edges_0x5bbc8872_str
00002088 l       .text.rvtest	00000000 I_beq_cg_cp_rs1_edges_0xaaaaaaaa
0000d91e l       .data	00000000 I_beq_cg_cp_rs1_edges_0xaaaaaaaa_str
000020c0 l       .text.rvtest	00000000 I_beq_cg_cp_rs1_edges_0x55555555
0000d95a l       .data	00000000 I_beq_cg_cp_rs1_edges_0x55555555_str
000020f8 l       .text.rvtest	00000000 I_beq_cg_cp_rs2_edges_0x0
0000d996 l       .data	00000000 I_beq_cg_cp_rs2_edges_0x0_str
00002130 l       .text.rvtest	00000000 I_beq_cg_cp_rs2_edges_0x1
0000d9cb l       .data	00000000 I_beq_cg_cp_rs2_edges_0x1_str
00002168 l       .text.rvtest	00000000 I_beq_cg_cp_rs2_edges_0x2
0000da00 l       .data	00000000 I_beq_cg_cp_rs2_edges_0x2_str
000021a0 l       .text.rvtest	00000000 I_beq_cg_cp_rs2_edges_0x80000000
0000da35 l       .data	00000000 I_beq_cg_cp_rs2_edges_0x80000000_str
000021d8 l       .text.rvtest	00000000 I_beq_cg_cp_rs2_edges_0x80000001
0000da71 l       .data	00000000 I_beq_cg_cp_rs2_edges_0x80000001_str
00002210 l       .text.rvtest	00000000 I_beq_cg_cp_rs2_edges_0x7fffffff
0000daad l       .data	00000000 I_beq_cg_cp_rs2_edges_0x7fffffff_str
00002248 l       .text.rvtest	00000000 I_beq_cg_cp_rs2_edges_0x7ffffffe
0000dae9 l       .data	00000000 I_beq_cg_cp_rs2_edges_0x7ffffffe_str
00002280 l       .text.rvtest	00000000 I_beq_cg_cp_rs2_edges_0xffffffff
0000db25 l       .data	00000000 I_beq_cg_cp_rs2_edges_0xffffffff_str
000022b8 l       .text.rvtest	00000000 I_beq_cg_cp_rs2_edges_0xfffffffe
0000db61 l       .data	00000000 I_beq_cg_cp_rs2_edges_0xfffffffe_str
000022f0 l       .text.rvtest	00000000 I_beq_cg_cp_rs2_edges_0x5bbc8872
0000db9d l       .data	00000000 I_beq_cg_cp_rs2_edges_0x5bbc8872_str
00002328 l       .text.rvtest	00000000 I_beq_cg_cp_rs2_edges_0xaaaaaaaa
0000dbd9 l       .data	00000000 I_beq_cg_cp_rs2_edges_0xaaaaaaaa_str
00002360 l       .text.rvtest	00000000 I_beq_cg_cp_rs2_edges_0x55555555
0000dc15 l       .data	00000000 I_beq_cg_cp_rs2_edges_0x55555555_str
00002390 l       .text.rvtest	00000000 I_beq_cg_cr_rs1_rs2_edges_offset_rs1val_0x0_rs2val_0x0
0000dc51 l       .data	00000000 I_beq_cg_cr_rs1_rs2_edges_offset_rs1val_0x0_rs2val_0x0_str
000023e8 l       .text.rvtest	00000000 I_beq_cg_cr_rs1_rs2_edges_offset_rs1val_0x0_rs2val_0x1
0000dca4 l       .data	00000000 I_beq_cg_cr_rs1_rs2_edges_offset_rs1val_0x0_rs2val_0x1_str
00002440 l       .text.rvtest	00000000 I_beq_cg_cr_rs1_rs2_edges_offset_rs1val_0x0_rs2val_0x2
0000dcf7 l       .data	00000000 I_beq_cg_cr_rs1_rs2_edges_offset_rs1val_0x0_rs2val_0x2_str
00002498 l       .text.rvtest	00000000 I_beq_cg_cr_rs1_rs2_edges_offset_rs1val_0x0_rs2val_0x80000000
0000dd4a l       .data	00000000 I_beq_cg_cr_rs1_rs2_edges_offset_rs1val_0x0_rs2val_0x80000000_str
000024f0 l       .text.rvtest	00000000 I_beq_cg_cr_rs1_rs2_edges_offset_rs1val_0x0_rs2val_0x80000001
0000dda4 l       .data	00000000 I_beq_cg_cr_rs1_rs2_edges_offset_rs1val_0x0_rs2val_0x80000001_str
00002548 l       .text.rvtest	00000000 I_beq_cg_cr_rs1_rs2_edges_offset_rs1val_0x0_rs2val_0x7fffffff
0000ddfe l       .data	00000000 I_beq_cg_cr_rs1_rs2_edges_offset_rs1val_0x0_rs2val_0x7fffffff_str
000025a0 l       .text.rvtest	00000000 I_beq_cg_cr_rs1_rs2_edges_offset_rs1val_0x0_rs2val_0x7ffffffe
0000de58 l       .data	00000000 I_beq_cg_cr_rs1_rs2_edges_offset_rs1val_0x0_rs2val_0x7ffffffe_str
000025f8 l       .text.rvtest	00000000 I_beq_cg_cr_rs1_rs2_edges_offset_rs1val_0x0_rs2val_0xffffffff
0000deb2 l       .data	00000000 I_beq_cg_cr_rs1_rs2_edges_offset_rs1val_0x0_rs2val_0xffffffff_str
00002650 l       .text.rvtest	00000000 I_beq_cg_cr_rs1_rs2_edges_offset_rs1val_0x0_rs2val_0xfffffffe
0000df0c l       .data	00000000 I_beq_cg_cr_rs1_rs2_edges_offset_rs1val_0x0_rs2val_0xfffffffe_str
000026a8 l       .text.rvtest	00000000 I_beq_cg_cr_rs1_rs2_edges_offset_rs1val_0x0_rs2val_0x5bbc8872
0000df66 l       .data	00000000 I_beq_cg_cr_rs1_rs2_edges_offset_rs1val_0x0_rs2val_0x5bbc8872_str
00002700 l       .text.rvtest	00000000 I_beq_cg_cr_rs1_rs2_edges_offset_rs1val_0x0_rs2val_0xaaaaaaaa
0000dfc0 l       .data	00000000 I_beq_cg_cr_rs1_rs2_edges_offset_rs1val_0x0_rs2val_0xaaaaaaaa_str
00002758 l       .text.rvtest	00000000 I_beq_cg_cr_rs1_rs2_edges_offset_rs1val_0x0_rs2val_0x55555555
0000e01a l       .data	00000000 I_beq_cg_cr_rs1_rs2_edges_offset_rs1val_0x0_rs2val_0x55555555_str
000027b0 l       .text.rvtest	00000000 I_beq_cg_cr_rs1_rs2_edges_offset_rs1val_0x1_rs2val_0x0
0000e075 l       .data	00000000 I_beq_cg_cr_rs1_rs2_edges_offset_rs1val_0x1_rs2val_0x0_str
00002808 l       .text.rvtest	00000000 I_beq_cg_cr_rs1_rs2_edges_offset_rs1val_0x1_rs2val_0x1
0000e0c9 l       .data	00000000 I_beq_cg_cr_rs1_rs2_edges_offset_rs1val_0x1_rs2val_0x1_str
00002860 l       .text.rvtest	00000000 I_beq_cg_cr_rs1_rs2_edges_offset_rs1val_0x1_rs2val_0x2
0000e11d l       .data	00000000 I_beq_cg_cr_rs1_rs2_edges_offset_rs1val_0x1_rs2val_0x2_str
000028b8 l       .text.rvtest	00000000 I_beq_cg_cr_rs1_rs2_edges_offset_rs1val_0x1_rs2val_0x80000000
0000e171 l       .data	00000000 I_beq_cg_cr_rs1_rs2_edges_offset_rs1val_0x1_rs2val_0x80000000_str
00002910 l       .text.rvtest	00000000 I_beq_cg_cr_rs1_rs2_edges_offset_rs1val_0x1_rs2val_0x80000001
0000e1cc l       .data	00000000 I_beq_cg_cr_rs1_rs2_edges_offset_rs1val_0x1_rs2val_0x80000001_str
00002968 l       .text.rvtest	00000000 I_beq_cg_cr_rs1_rs2_edges_offset_rs1val_0x1_rs2val_0x7fffffff
0000e227 l       .data	00000000 I_beq_cg_cr_rs1_rs2_edges_offset_rs1val_0x1_rs2val_0x7fffffff_str
000029c0 l       .text.rvtest	00000000 I_beq_cg_cr_rs1_rs2_edges_offset_rs1val_0x1_rs2val_0x7ffffffe
0000e282 l       .data	00000000 I_beq_cg_cr_rs1_rs2_edges_offset_rs1val_0x1_rs2val_0x7ffffffe_str
00002a18 l       .text.rvtest	00000000 I_beq_cg_cr_rs1_rs2_edges_offset_rs1val_0x1_rs2val_0xffffffff
0000e2dd l       .data	00000000 I_beq_cg_cr_rs1_rs2_edges_offset_rs1val_0x1_rs2val_0xffffffff_str
00002a70 l       .text.rvtest	00000000 I_beq_cg_cr_rs1_rs2_edges_offset_rs1val_0x1_rs2val_0xfffffffe
0000e338 l       .data	00000000 I_beq_cg_cr_rs1_rs2_edges_offset_rs1val_0x1_rs2val_0xfffffffe_str
00002ac8 l       .text.rvtest	00000000 I_beq_cg_cr_rs1_rs2_edges_offset_rs1val_0x1_rs2val_0x5bbc8872
0000e393 l       .data	00000000 I_beq_cg_cr_rs1_rs2_edges_offset_rs1val_0x1_rs2val_0x5bbc8872_str
00002b20 l       .text.rvtest	00000000 I_beq_cg_cr_rs1_rs2_edges_offset_rs1val_0x1_rs2val_0xaaaaaaaa
0000e3ee l       .data	00000000 I_beq_cg_cr_rs1_rs2_edges_offset_rs1val_0x1_rs2val_0xaaaaaaaa_str
00002b78 l       .text.rvtest	00000000 I_beq_cg_cr_rs1_rs2_edges_offset_rs1val_0x1_rs2val_0x55555555
0000e449 l       .data	00000000 I_beq_cg_cr_rs1_rs2_edges_offset_rs1val_0x1_rs2val_0x55555555_str
00002bd0 l       .text.rvtest	00000000 I_beq_cg_cr_rs1_rs2_edges_offset_rs1val_0x2_rs2val_0x0
0000e4a4 l       .data	00000000 I_beq_cg_cr_rs1_rs2_edges_offset_rs1val_0x2_rs2val_0x0_str
00002c28 l       .text.rvtest	00000000 I_beq_cg_cr_rs1_rs2_edges_offset_rs1val_0x2_rs2val_0x1
0000e4f8 l       .data	00000000 I_beq_cg_cr_rs1_rs2_edges_offset_rs1val_0x2_rs2val_0x1_str
00002c80 l       .text.rvtest	00000000 I_beq_cg_cr_rs1_rs2_edges_offset_rs1val_0x2_rs2val_0x2
0000e54c l       .data	00000000 I_beq_cg_cr_rs1_rs2_edges_offset_rs1val_0x2_rs2val_0x2_str
00002cd8 l       .text.rvtest	00000000 I_beq_cg_cr_rs1_rs2_edges_offset_rs1val_0x2_rs2val_0x80000000
0000e5a0 l       .data	00000000 I_beq_cg_cr_rs1_rs2_edges_offset_rs1val_0x2_rs2val_0x80000000_str
00002d30 l       .text.rvtest	00000000 I_beq_cg_cr_rs1_rs2_edges_offset_rs1val_0x2_rs2val_0x80000001
0000e5fb l       .data	00000000 I_beq_cg_cr_rs1_rs2_edges_offset_rs1val_0x2_rs2val_0x80000001_str
00002d88 l       .text.rvtest	00000000 I_beq_cg_cr_rs1_rs2_edges_offset_rs1val_0x2_rs2val_0x7fffffff
0000e656 l       .data	00000000 I_beq_cg_cr_rs1_rs2_edges_offset_rs1val_0x2_rs2val_0x7fffffff_str
00002de0 l       .text.rvtest	00000000 I_beq_cg_cr_rs1_rs2_edges_offset_rs1val_0x2_rs2val_0x7ffffffe
0000e6b1 l       .data	00000000 I_beq_cg_cr_rs1_rs2_edges_offset_rs1val_0x2_rs2val_0x7ffffffe_str
00002e38 l       .text.rvtest	00000000 I_beq_cg_cr_rs1_rs2_edges_offset_rs1val_0x2_rs2val_0xffffffff
0000e70c l       .data	00000000 I_beq_cg_cr_rs1_rs2_edges_offset_rs1val_0x2_rs2val_0xffffffff_str
00002e90 l       .text.rvtest	00000000 I_beq_cg_cr_rs1_rs2_edges_offset_rs1val_0x2_rs2val_0xfffffffe
0000e767 l       .data	00000000 I_beq_cg_cr_rs1_rs2_edges_offset_rs1val_0x2_rs2val_0xfffffffe_str
00002ee8 l       .text.rvtest	00000000 I_beq_cg_cr_rs1_rs2_edges_offset_rs1val_0x2_rs2val_0x5bbc8872
0000e7c2 l       .data	00000000 I_beq_cg_cr_rs1_rs2_edges_offset_rs1val_0x2_rs2val_0x5bbc8872_str
00002f40 l       .text.rvtest	00000000 I_beq_cg_cr_rs1_rs2_edges_offset_rs1val_0x2_rs2val_0xaaaaaaaa
0000e81d l       .data	00000000 I_beq_cg_cr_rs1_rs2_edges_offset_rs1val_0x2_rs2val_0xaaaaaaaa_str
00002f98 l       .text.rvtest	00000000 I_beq_cg_cr_rs1_rs2_edges_offset_rs1val_0x2_rs2val_0x55555555
0000e878 l       .data	00000000 I_beq_cg_cr_rs1_rs2_edges_offset_rs1val_0x2_rs2val_0x55555555_str
00002ff0 l       .text.rvtest	00000000 I_beq_cg_cr_rs1_rs2_edges_offset_rs1val_0x80000000_rs2val_0x0
0000e8d3 l       .data	00000000 I_beq_cg_cr_rs1_rs2_edges_offset_rs1val_0x80000000_rs2val_0x0_str
00003048 l       .text.rvtest	00000000 I_beq_cg_cr_rs1_rs2_edges_offset_rs1val_0x80000000_rs2val_0x1
0000e92e l       .data	00000000 I_beq_cg_cr_rs1_rs2_edges_offset_rs1val_0x80000000_rs2val_0x1_str
000030a0 l       .text.rvtest	00000000 I_beq_cg_cr_rs1_rs2_edges_offset_rs1val_0x80000000_rs2val_0x2
0000e989 l       .data	00000000 I_beq_cg_cr_rs1_rs2_edges_offset_rs1val_0x80000000_rs2val_0x2_str
000030f8 l       .text.rvtest	00000000 I_beq_cg_cr_rs1_rs2_edges_offset_rs1val_0x80000000_rs2val_0x80000000
0000e9e4 l       .data	00000000 I_beq_cg_cr_rs1_rs2_edges_offset_rs1val_0x80000000_rs2val_0x80000000_str
00003150 l       .text.rvtest	00000000 I_beq_cg_cr_rs1_rs2_edges_offset_rs1val_0x80000000_rs2val_0x80000001
0000ea46 l       .data	00000000 I_beq_cg_cr_rs1_rs2_edges_offset_rs1val_0x80000000_rs2val_0x80000001_str
000031a8 l       .text.rvtest	00000000 I_beq_cg_cr_rs1_rs2_edges_offset_rs1val_0x80000000_rs2val_0x7fffffff
0000eaa8 l       .data	00000000 I_beq_cg_cr_rs1_rs2_edges_offset_rs1val_0x80000000_rs2val_0x7fffffff_str
00003200 l       .text.rvtest	00000000 I_beq_cg_cr_rs1_rs2_edges_offset_rs1val_0x80000000_rs2val_0x7ffffffe
0000eb0a l       .data	00000000 I_beq_cg_cr_rs1_rs2_edges_offset_rs1val_0x80000000_rs2val_0x7ffffffe_str
00003258 l       .text.rvtest	00000000 I_beq_cg_cr_rs1_rs2_edges_offset_rs1val_0x80000000_rs2val_0xffffffff
0000eb6c l       .data	00000000 I_beq_cg_cr_rs1_rs2_edges_offset_rs1val_0x80000000_rs2val_0xffffffff_str
000032b0 l       .text.rvtest	00000000 I_beq_cg_cr_rs1_rs2_edges_offset_rs1val_0x80000000_rs2val_0xfffffffe
0000ebce l       .data	00000000 I_beq_cg_cr_rs1_rs2_edges_offset_rs1val_0x80000000_rs2val_0xfffffffe_str
00003308 l       .text.rvtest	00000000 I_beq_cg_cr_rs1_rs2_edges_offset_rs1val_0x80000000_rs2val_0x5bbc8872
0000ec30 l       .data	00000000 I_beq_cg_cr_rs1_rs2_edges_offset_rs1val_0x80000000_rs2val_0x5bbc8872_str
00003360 l       .text.rvtest	00000000 I_beq_cg_cr_rs1_rs2_edges_offset_rs1val_0x80000000_rs2val_0xaaaaaaaa
0000ec92 l       .data	00000000 I_beq_cg_cr_rs1_rs2_edges_offset_rs1val_0x80000000_rs2val_0xaaaaaaaa_str
000033b8 l       .text.rvtest	00000000 I_beq_cg_cr_rs1_rs2_edges_offset_rs1val_0x80000000_rs2val_0x55555555
0000ecf4 l       .data	00000000 I_beq_cg_cr_rs1_rs2_edges_offset_rs1val_0x80000000_rs2val_0x55555555_str
00003410 l       .text.rvtest	00000000 I_beq_cg_cr_rs1_rs2_edges_offset_rs1val_0x80000001_rs2val_0x0
0000ed56 l       .data	00000000 I_beq_cg_cr_rs1_rs2_edges_offset_rs1val_0x80000001_rs2val_0x0_str
00003468 l       .text.rvtest	00000000 I_beq_cg_cr_rs1_rs2_edges_offset_rs1val_0x80000001_rs2val_0x1
0000edb1 l       .data	00000000 I_beq_cg_cr_rs1_rs2_edges_offset_rs1val_0x80000001_rs2val_0x1_str
000034c0 l       .text.rvtest	00000000 I_beq_cg_cr_rs1_rs2_edges_offset_rs1val_0x80000001_rs2val_0x2
0000ee0c l       .data	00000000 I_beq_cg_cr_rs1_rs2_edges_offset_rs1val_0x80000001_rs2val_0x2_str
00003518 l       .text.rvtest	00000000 I_beq_cg_cr_rs1_rs2_edges_offset_rs1val_0x80000001_rs2val_0x80000000
0000ee67 l       .data	00000000 I_beq_cg_cr_rs1_rs2_edges_offset_rs1val_0x80000001_rs2val_0x80000000_str
00003570 l       .text.rvtest	00000000 I_beq_cg_cr_rs1_rs2_edges_offset_rs1val_0x80000001_rs2val_0x80000001
0000eec9 l       .data	00000000 I_beq_cg_cr_rs1_rs2_edges_offset_rs1val_0x80000001_rs2val_0x80000001_str
000035c8 l       .text.rvtest	00000000 I_beq_cg_cr_rs1_rs2_edges_offset_rs1val_0x80000001_rs2val_0x7fffffff
0000ef2b l       .data	00000000 I_beq_cg_cr_rs1_rs2_edges_offset_rs1val_0x80000001_rs2val_0x7fffffff_str
00003620 l       .text.rvtest	00000000 I_beq_cg_cr_rs1_rs2_edges_offset_rs1val_0x80000001_rs2val_0x7ffffffe
0000ef8d l       .data	00000000 I_beq_cg_cr_rs1_rs2_edges_offset_rs1val_0x80000001_rs2val_0x7ffffffe_str
00003678 l       .text.rvtest	00000000 I_beq_cg_cr_rs1_rs2_edges_offset_rs1val_0x80000001_rs2val_0xffffffff
0000efef l       .data	00000000 I_beq_cg_cr_rs1_rs2_edges_offset_rs1val_0x80000001_rs2val_0xffffffff_str
000036d0 l       .text.rvtest	00000000 I_beq_cg_cr_rs1_rs2_edges_offset_rs1val_0x80000001_rs2val_0xfffffffe
0000f051 l       .data	00000000 I_beq_cg_cr_rs1_rs2_edges_offset_rs1val_0x80000001_rs2val_0xfffffffe_str
00003728 l       .text.rvtest	00000000 I_beq_cg_cr_rs1_rs2_edges_offset_rs1val_0x80000001_rs2val_0x5bbc8872
0000f0b3 l       .data	00000000 I_beq_cg_cr_rs1_rs2_edges_offset_rs1val_0x80000001_rs2val_0x5bbc8872_str
00003780 l       .text.rvtest	00000000 I_beq_cg_cr_rs1_rs2_edges_offset_rs1val_0x80000001_rs2val_0xaaaaaaaa
0000f115 l       .data	00000000 I_beq_cg_cr_rs1_rs2_edges_offset_rs1val_0x80000001_rs2val_0xaaaaaaaa_str
000037d8 l       .text.rvtest	00000000 I_beq_cg_cr_rs1_rs2_edges_offset_rs1val_0x80000001_rs2val_0x55555555
0000f177 l       .data	00000000 I_beq_cg_cr_rs1_rs2_edges_offset_rs1val_0x80000001_rs2val_0x55555555_str
00003830 l       .text.rvtest	00000000 I_beq_cg_cr_rs1_rs2_edges_offset_rs1val_0x7fffffff_rs2val_0x0
0000f1d9 l       .data	00000000 I_beq_cg_cr_rs1_rs2_edges_offset_rs1val_0x7fffffff_rs2val_0x0_str
00003888 l       .text.rvtest	00000000 I_beq_cg_cr_rs1_rs2_edges_offset_rs1val_0x7fffffff_rs2val_0x1
0000f234 l       .data	00000000 I_beq_cg_cr_rs1_rs2_edges_offset_rs1val_0x7fffffff_rs2val_0x1_str
000038e0 l       .text.rvtest	00000000 I_beq_cg_cr_rs1_rs2_edges_offset_rs1val_0x7fffffff_rs2val_0x2
0000f28f l       .data	00000000 I_beq_cg_cr_rs1_rs2_edges_offset_rs1val_0x7fffffff_rs2val_0x2_str
00003938 l       .text.rvtest	00000000 I_beq_cg_cr_rs1_rs2_edges_offset_rs1val_0x7fffffff_rs2val_0x80000000
0000f2ea l       .data	00000000 I_beq_cg_cr_rs1_rs2_edges_offset_rs1val_0x7fffffff_rs2val_0x80000000_str
00003990 l       .text.rvtest	00000000 I_beq_cg_cr_rs1_rs2_edges_offset_rs1val_0x7fffffff_rs2val_0x80000001
0000f34c l       .data	00000000 I_beq_cg_cr_rs1_rs2_edges_offset_rs1val_0x7fffffff_rs2val_0x80000001_str
000039e8 l       .text.rvtest	00000000 I_beq_cg_cr_rs1_rs2_edges_offset_rs1val_0x7fffffff_rs2val_0x7fffffff
0000f3ae l       .data	00000000 I_beq_cg_cr_rs1_rs2_edges_offset_rs1val_0x7fffffff_rs2val_0x7fffffff_str
00003a40 l       .text.rvtest	00000000 I_beq_cg_cr_rs1_rs2_edges_offset_rs1val_0x7fffffff_rs2val_0x7ffffffe
0000f410 l       .data	00000000 I_beq_cg_cr_rs1_rs2_edges_offset_rs1val_0x7fffffff_rs2val_0x7ffffffe_str
00003a98 l       .text.rvtest	00000000 I_beq_cg_cr_rs1_rs2_edges_offset_rs1val_0x7fffffff_rs2val_0xffffffff
0000f472 l       .data	00000000 I_beq_cg_cr_rs1_rs2_edges_offset_rs1val_0x7fffffff_rs2val_0xffffffff_str
00003af0 l       .text.rvtest	00000000 I_beq_cg_cr_rs1_rs2_edges_offset_rs1val_0x7fffffff_rs2val_0xfffffffe
0000f4d4 l       .data	00000000 I_beq_cg_cr_rs1_rs2_edges_offset_rs1val_0x7fffffff_rs2val_0xfffffffe_str
00003b48 l       .text.rvtest	00000000 I_beq_cg_cr_rs1_rs2_edges_offset_rs1val_0x7fffffff_rs2val_0x5bbc8872
0000f536 l       .data	00000000 I_beq_cg_cr_rs1_rs2_edges_offset_rs1val_0x7fffffff_rs2val_0x5bbc8872_str
00003ba0 l       .text.rvtest	00000000 I_beq_cg_cr_rs1_rs2_edges_offset_rs1val_0x7fffffff_rs2val_0xaaaaaaaa
0000f598 l       .data	00000000 I_beq_cg_cr_rs1_rs2_edges_offset_rs1val_0x7fffffff_rs2val_0xaaaaaaaa_str
00003bf8 l       .text.rvtest	00000000 I_beq_cg_cr_rs1_rs2_edges_offset_rs1val_0x7fffffff_rs2val_0x55555555
0000f5fa l       .data	00000000 I_beq_cg_cr_rs1_rs2_edges_offset_rs1val_0x7fffffff_rs2val_0x55555555_str
00003c50 l       .text.rvtest	00000000 I_beq_cg_cr_rs1_rs2_edges_offset_rs1val_0x7ffffffe_rs2val_0x0
0000f65c l       .data	00000000 I_beq_cg_cr_rs1_rs2_edges_offset_rs1val_0x7ffffffe_rs2val_0x0_str
00003ca8 l       .text.rvtest	00000000 I_beq_cg_cr_rs1_rs2_edges_offset_rs1val_0x7ffffffe_rs2val_0x1
0000f6b7 l       .data	00000000 I_beq_cg_cr_rs1_rs2_edges_offset_rs1val_0x7ffffffe_rs2val_0x1_str
00003d00 l       .text.rvtest	00000000 I_beq_cg_cr_rs1_rs2_edges_offset_rs1val_0x7ffffffe_rs2val_0x2
0000f712 l       .data	00000000 I_beq_cg_cr_rs1_rs2_edges_offset_rs1val_0x7ffffffe_rs2val_0x2_str
00003d58 l       .text.rvtest	00000000 I_beq_cg_cr_rs1_rs2_edges_offset_rs1val_0x7ffffffe_rs2val_0x80000000
0000f76d l       .data	00000000 I_beq_cg_cr_rs1_rs2_edges_offset_rs1val_0x7ffffffe_rs2val_0x80000000_str
00003db0 l       .text.rvtest	00000000 I_beq_cg_cr_rs1_rs2_edges_offset_rs1val_0x7ffffffe_rs2val_0x80000001
0000f7cf l       .data	00000000 I_beq_cg_cr_rs1_rs2_edges_offset_rs1val_0x7ffffffe_rs2val_0x80000001_str
00003e08 l       .text.rvtest	00000000 I_beq_cg_cr_rs1_rs2_edges_offset_rs1val_0x7ffffffe_rs2val_0x7fffffff
0000f831 l       .data	00000000 I_beq_cg_cr_rs1_rs2_edges_offset_rs1val_0x7ffffffe_rs2val_0x7fffffff_str
00003e60 l       .text.rvtest	00000000 I_beq_cg_cr_rs1_rs2_edges_offset_rs1val_0x7ffffffe_rs2val_0x7ffffffe
0000f893 l       .data	00000000 I_beq_cg_cr_rs1_rs2_edges_offset_rs1val_0x7ffffffe_rs2val_0x7ffffffe_str
00003eb8 l       .text.rvtest	00000000 I_beq_cg_cr_rs1_rs2_edges_offset_rs1val_0x7ffffffe_rs2val_0xffffffff
0000f8f5 l       .data	00000000 I_beq_cg_cr_rs1_rs2_edges_offset_rs1val_0x7ffffffe_rs2val_0xffffffff_str
00003f10 l       .text.rvtest	00000000 I_beq_cg_cr_rs1_rs2_edges_offset_rs1val_0x7ffffffe_rs2val_0xfffffffe
0000f957 l       .data	00000000 I_beq_cg_cr_rs1_rs2_edges_offset_rs1val_0x7ffffffe_rs2val_0xfffffffe_str
00003f68 l       .text.rvtest	00000000 I_beq_cg_cr_rs1_rs2_edges_offset_rs1val_0x7ffffffe_rs2val_0x5bbc8872
0000f9b9 l       .data	00000000 I_beq_cg_cr_rs1_rs2_edges_offset_rs1val_0x7ffffffe_rs2val_0x5bbc8872_str
00003fc0 l       .text.rvtest	00000000 I_beq_cg_cr_rs1_rs2_edges_offset_rs1val_0x7ffffffe_rs2val_0xaaaaaaaa
0000fa1b l       .data	00000000 I_beq_cg_cr_rs1_rs2_edges_offset_rs1val_0x7ffffffe_rs2val_0xaaaaaaaa_str
00004018 l       .text.rvtest	00000000 I_beq_cg_cr_rs1_rs2_edges_offset_rs1val_0x7ffffffe_rs2val_0x55555555
0000fa7d l       .data	00000000 I_beq_cg_cr_rs1_rs2_edges_offset_rs1val_0x7ffffffe_rs2val_0x55555555_str
00004070 l       .text.rvtest	00000000 I_beq_cg_cr_rs1_rs2_edges_offset_rs1val_0xffffffff_rs2val_0x0
0000fadf l       .data	00000000 I_beq_cg_cr_rs1_rs2_edges_offset_rs1val_0xffffffff_rs2val_0x0_str
000040c8 l       .text.rvtest	00000000 I_beq_cg_cr_rs1_rs2_edges_offset_rs1val_0xffffffff_rs2val_0x1
0000fb3a l       .data	00000000 I_beq_cg_cr_rs1_rs2_edges_offset_rs1val_0xffffffff_rs2val_0x1_str
00004120 l       .text.rvtest	00000000 I_beq_cg_cr_rs1_rs2_edges_offset_rs1val_0xffffffff_rs2val_0x2
0000fb95 l       .data	00000000 I_beq_cg_cr_rs1_rs2_edges_offset_rs1val_0xffffffff_rs2val_0x2_str
00004178 l       .text.rvtest	00000000 I_beq_cg_cr_rs1_rs2_edges_offset_rs1val_0xffffffff_rs2val_0x80000000
0000fbf0 l       .data	00000000 I_beq_cg_cr_rs1_rs2_edges_offset_rs1val_0xffffffff_rs2val_0x80000000_str
000041d0 l       .text.rvtest	00000000 I_beq_cg_cr_rs1_rs2_edges_offset_rs1val_0xffffffff_rs2val_0x80000001
0000fc52 l       .data	00000000 I_beq_cg_cr_rs1_rs2_edges_offset_rs1val_0xffffffff_rs2val_0x80000001_str
00004228 l       .text.rvtest	00000000 I_beq_cg_cr_rs1_rs2_edges_offset_rs1val_0xffffffff_rs2val_0x7fffffff
0000fcb4 l       .data	00000000 I_beq_cg_cr_rs1_rs2_edges_offset_rs1val_0xffffffff_rs2val_0x7fffffff_str
00004280 l       .text.rvtest	00000000 I_beq_cg_cr_rs1_rs2_edges_offset_rs1val_0xffffffff_rs2val_0x7ffffffe
0000fd16 l       .data	00000000 I_beq_cg_cr_rs1_rs2_edges_offset_rs1val_0xffffffff_rs2val_0x7ffffffe_str
000042d8 l       .text.rvtest	00000000 I_beq_cg_cr_rs1_rs2_edges_offset_rs1val_0xffffffff_rs2val_0xffffffff
0000fd78 l       .data	00000000 I_beq_cg_cr_rs1_rs2_edges_offset_rs1val_0xffffffff_rs2val_0xffffffff_str
00004330 l       .text.rvtest	00000000 I_beq_cg_cr_rs1_rs2_edges_offset_rs1val_0xffffffff_rs2val_0xfffffffe
0000fdda l       .data	00000000 I_beq_cg_cr_rs1_rs2_edges_offset_rs1val_0xffffffff_rs2val_0xfffffffe_str
00004388 l       .text.rvtest	00000000 I_beq_cg_cr_rs1_rs2_edges_offset_rs1val_0xffffffff_rs2val_0x5bbc8872
0000fe3c l       .data	00000000 I_beq_cg_cr_rs1_rs2_edges_offset_rs1val_0xffffffff_rs2val_0x5bbc8872_str
000043e0 l       .text.rvtest	00000000 I_beq_cg_cr_rs1_rs2_edges_offset_rs1val_0xffffffff_rs2val_0xaaaaaaaa
0000fe9e l       .data	00000000 I_beq_cg_cr_rs1_rs2_edges_offset_rs1val_0xffffffff_rs2val_0xaaaaaaaa_str
00004438 l       .text.rvtest	00000000 I_beq_cg_cr_rs1_rs2_edges_offset_rs1val_0xffffffff_rs2val_0x55555555
0000ff00 l       .data	00000000 I_beq_cg_cr_rs1_rs2_edges_offset_rs1val_0xffffffff_rs2val_0x55555555_str
00004490 l       .text.rvtest	00000000 I_beq_cg_cr_rs1_rs2_edges_offset_rs1val_0xfffffffe_rs2val_0x0
0000ff62 l       .data	00000000 I_beq_cg_cr_rs1_rs2_edges_offset_rs1val_0xfffffffe_rs2val_0x0_str
000044e8 l       .text.rvtest	00000000 I_beq_cg_cr_rs1_rs2_edges_offset_rs1val_0xfffffffe_rs2val_0x1
0000ffbd l       .data	00000000 I_beq_cg_cr_rs1_rs2_edges_offset_rs1val_0xfffffffe_rs2val_0x1_str
00004540 l       .text.rvtest	00000000 I_beq_cg_cr_rs1_rs2_edges_offset_rs1val_0xfffffffe_rs2val_0x2
00010018 l       .data	00000000 I_beq_cg_cr_rs1_rs2_edges_offset_rs1val_0xfffffffe_rs2val_0x2_str
00004598 l       .text.rvtest	00000000 I_beq_cg_cr_rs1_rs2_edges_offset_rs1val_0xfffffffe_rs2val_0x80000000
00010073 l       .data	00000000 I_beq_cg_cr_rs1_rs2_edges_offset_rs1val_0xfffffffe_rs2val_0x80000000_str
000045f0 l       .text.rvtest	00000000 I_beq_cg_cr_rs1_rs2_edges_offset_rs1val_0xfffffffe_rs2val_0x80000001
000100d5 l       .data	00000000 I_beq_cg_cr_rs1_rs2_edges_offset_rs1val_0xfffffffe_rs2val_0x80000001_str
00004648 l       .text.rvtest	00000000 I_beq_cg_cr_rs1_rs2_edges_offset_rs1val_0xfffffffe_rs2val_0x7fffffff
00010137 l       .data	00000000 I_beq_cg_cr_rs1_rs2_edges_offset_rs1val_0xfffffffe_rs2val_0x7fffffff_str
000046a0 l       .text.rvtest	00000000 I_beq_cg_cr_rs1_rs2_edges_offset_rs1val_0xfffffffe_rs2val_0x7ffffffe
00010199 l       .data	00000000 I_beq_cg_cr_rs1_rs2_edges_offset_rs1val_0xfffffffe_rs2val_0x7ffffffe_str
000046f8 l       .text.rvtest	00000000 I_beq_cg_cr_rs1_rs2_edges_offset_rs1val_0xfffffffe_rs2val_0xffffffff
000101fb l       .data	00000000 I_beq_cg_cr_rs1_rs2_edges_offset_rs1val_0xfffffffe_rs2val_0xffffffff_str
00004750 l       .text.rvtest	00000000 I_beq_cg_cr_rs1_rs2_edges_offset_rs1val_0xfffffffe_rs2val_0xfffffffe
0001025d l       .data	00000000 I_beq_cg_cr_rs1_rs2_edges_offset_rs1val_0xfffffffe_rs2val_0xfffffffe_str
000047a8 l       .text.rvtest	00000000 I_beq_cg_cr_rs1_rs2_edges_offset_rs1val_0xfffffffe_rs2val_0x5bbc8872
000102bf l       .data	00000000 I_beq_cg_cr_rs1_rs2_edges_offset_rs1val_0xfffffffe_rs2val_0x5bbc8872_str
00004800 l       .text.rvtest	00000000 I_beq_cg_cr_rs1_rs2_edges_offset_rs1val_0xfffffffe_rs2val_0xaaaaaaaa
00010321 l       .data	00000000 I_beq_cg_cr_rs1_rs2_edges_offset_rs1val_0xfffffffe_rs2val_0xaaaaaaaa_str
00004858 l       .text.rvtest	00000000 I_beq_cg_cr_rs1_rs2_edges_offset_rs1val_0xfffffffe_rs2val_0x55555555
00010383 l       .data	00000000 I_beq_cg_cr_rs1_rs2_edges_offset_rs1val_0xfffffffe_rs2val_0x55555555_str
000048b0 l       .text.rvtest	00000000 I_beq_cg_cr_rs1_rs2_edges_offset_rs1val_0x5bbc8872_rs2val_0x0
000103e5 l       .data	00000000 I_beq_cg_cr_rs1_rs2_edges_offset_rs1val_0x5bbc8872_rs2val_0x0_str
00004908 l       .text.rvtest	00000000 I_beq_cg_cr_rs1_rs2_edges_offset_rs1val_0x5bbc8872_rs2val_0x1
00010440 l       .data	00000000 I_beq_cg_cr_rs1_rs2_edges_offset_rs1val_0x5bbc8872_rs2val_0x1_str
00004960 l       .text.rvtest	00000000 I_beq_cg_cr_rs1_rs2_edges_offset_rs1val_0x5bbc8872_rs2val_0x2
0001049b l       .data	00000000 I_beq_cg_cr_rs1_rs2_edges_offset_rs1val_0x5bbc8872_rs2val_0x2_str
000049b8 l       .text.rvtest	00000000 I_beq_cg_cr_rs1_rs2_edges_offset_rs1val_0x5bbc8872_rs2val_0x80000000
000104f6 l       .data	00000000 I_beq_cg_cr_rs1_rs2_edges_offset_rs1val_0x5bbc8872_rs2val_0x80000000_str
00004a10 l       .text.rvtest	00000000 I_beq_cg_cr_rs1_rs2_edges_offset_rs1val_0x5bbc8872_rs2val_0x80000001
00010558 l       .data	00000000 I_beq_cg_cr_rs1_rs2_edges_offset_rs1val_0x5bbc8872_rs2val_0x80000001_str
00004a68 l       .text.rvtest	00000000 I_beq_cg_cr_rs1_rs2_edges_offset_rs1val_0x5bbc8872_rs2val_0x7fffffff
000105ba l       .data	00000000 I_beq_cg_cr_rs1_rs2_edges_offset_rs1val_0x5bbc8872_rs2val_0x7fffffff_str
00004ac0 l       .text.rvtest	00000000 I_beq_cg_cr_rs1_rs2_edges_offset_rs1val_0x5bbc8872_rs2val_0x7ffffffe
0001061c l       .data	00000000 I_beq_cg_cr_rs1_rs2_edges_offset_rs1val_0x5bbc8872_rs2val_0x7ffffffe_str
00004b18 l       .text.rvtest	00000000 I_beq_cg_cr_rs1_rs2_edges_offset_rs1val_0x5bbc8872_rs2val_0xffffffff
0001067e l       .data	00000000 I_beq_cg_cr_rs1_rs2_edges_offset_rs1val_0x5bbc8872_rs2val_0xffffffff_str
00004b70 l       .text.rvtest	00000000 I_beq_cg_cr_rs1_rs2_edges_offset_rs1val_0x5bbc8872_rs2val_0xfffffffe
000106e0 l       .data	00000000 I_beq_cg_cr_rs1_rs2_edges_offset_rs1val_0x5bbc8872_rs2val_0xfffffffe_str
00004bc8 l       .text.rvtest	00000000 I_beq_cg_cr_rs1_rs2_edges_offset_rs1val_0x5bbc8872_rs2val_0x5bbc8872
00010742 l       .data	00000000 I_beq_cg_cr_rs1_rs2_edges_offset_rs1val_0x5bbc8872_rs2val_0x5bbc8872_str
00004c20 l       .text.rvtest	00000000 I_beq_cg_cr_rs1_rs2_edges_offset_rs1val_0x5bbc8872_rs2val_0xaaaaaaaa
000107a4 l       .data	00000000 I_beq_cg_cr_rs1_rs2_edges_offset_rs1val_0x5bbc8872_rs2val_0xaaaaaaaa_str
00004c78 l       .text.rvtest	00000000 I_beq_cg_cr_rs1_rs2_edges_offset_rs1val_0x5bbc8872_rs2val_0x55555555
00010806 l       .data	00000000 I_beq_cg_cr_rs1_rs2_edges_offset_rs1val_0x5bbc8872_rs2val_0x55555555_str
00004cd0 l       .text.rvtest	00000000 I_beq_cg_cr_rs1_rs2_edges_offset_rs1val_0xaaaaaaaa_rs2val_0x0
00010868 l       .data	00000000 I_beq_cg_cr_rs1_rs2_edges_offset_rs1val_0xaaaaaaaa_rs2val_0x0_str
00004d28 l       .text.rvtest	00000000 I_beq_cg_cr_rs1_rs2_edges_offset_rs1val_0xaaaaaaaa_rs2val_0x1
000108c3 l       .data	00000000 I_beq_cg_cr_rs1_rs2_edges_offset_rs1val_0xaaaaaaaa_rs2val_0x1_str
00004d80 l       .text.rvtest	00000000 I_beq_cg_cr_rs1_rs2_edges_offset_rs1val_0xaaaaaaaa_rs2val_0x2
0001091e l       .data	00000000 I_beq_cg_cr_rs1_rs2_edges_offset_rs1val_0xaaaaaaaa_rs2val_0x2_str
00004dd8 l       .text.rvtest	00000000 I_beq_cg_cr_rs1_rs2_edges_offset_rs1val_0xaaaaaaaa_rs2val_0x80000000
00010979 l       .data	00000000 I_beq_cg_cr_rs1_rs2_edges_offset_rs1val_0xaaaaaaaa_rs2val_0x80000000_str
00004e30 l       .text.rvtest	00000000 I_beq_cg_cr_rs1_rs2_edges_offset_rs1val_0xaaaaaaaa_rs2val_0x80000001
000109db l       .data	00000000 I_beq_cg_cr_rs1_rs2_edges_offset_rs1val_0xaaaaaaaa_rs2val_0x80000001_str
00004e88 l       .text.rvtest	00000000 I_beq_cg_cr_rs1_rs2_edges_offset_rs1val_0xaaaaaaaa_rs2val_0x7fffffff
00010a3d l       .data	00000000 I_beq_cg_cr_rs1_rs2_edges_offset_rs1val_0xaaaaaaaa_rs2val_0x7fffffff_str
00004ee0 l       .text.rvtest	00000000 I_beq_cg_cr_rs1_rs2_edges_offset_rs1val_0xaaaaaaaa_rs2val_0x7ffffffe
00010a9f l       .data	00000000 I_beq_cg_cr_rs1_rs2_edges_offset_rs1val_0xaaaaaaaa_rs2val_0x7ffffffe_str
00004f38 l       .text.rvtest	00000000 I_beq_cg_cr_rs1_rs2_edges_offset_rs1val_0xaaaaaaaa_rs2val_0xffffffff
00010b01 l       .data	00000000 I_beq_cg_cr_rs1_rs2_edges_offset_rs1val_0xaaaaaaaa_rs2val_0xffffffff_str
00004f90 l       .text.rvtest	00000000 I_beq_cg_cr_rs1_rs2_edges_offset_rs1val_0xaaaaaaaa_rs2val_0xfffffffe
00010b63 l       .data	00000000 I_beq_cg_cr_rs1_rs2_edges_offset_rs1val_0xaaaaaaaa_rs2val_0xfffffffe_str
00004fe8 l       .text.rvtest	00000000 I_beq_cg_cr_rs1_rs2_edges_offset_rs1val_0xaaaaaaaa_rs2val_0x5bbc8872
00010bc5 l       .data	00000000 I_beq_cg_cr_rs1_rs2_edges_offset_rs1val_0xaaaaaaaa_rs2val_0x5bbc8872_str
00005040 l       .text.rvtest	00000000 I_beq_cg_cr_rs1_rs2_edges_offset_rs1val_0xaaaaaaaa_rs2val_0xaaaaaaaa
00010c27 l       .data	00000000 I_beq_cg_cr_rs1_rs2_edges_offset_rs1val_0xaaaaaaaa_rs2val_0xaaaaaaaa_str
00005098 l       .text.rvtest	00000000 I_beq_cg_cr_rs1_rs2_edges_offset_rs1val_0xaaaaaaaa_rs2val_0x55555555
00010c89 l       .data	00000000 I_beq_cg_cr_rs1_rs2_edges_offset_rs1val_0xaaaaaaaa_rs2val_0x55555555_str
000050f0 l       .text.rvtest	00000000 I_beq_cg_cr_rs1_rs2_edges_offset_rs1val_0x55555555_rs2val_0x0
00010ceb l       .data	00000000 I_beq_cg_cr_rs1_rs2_edges_offset_rs1val_0x55555555_rs2val_0x0_str
00005148 l       .text.rvtest	00000000 I_beq_cg_cr_rs1_rs2_edges_offset_rs1val_0x55555555_rs2val_0x1
00010d46 l       .data	00000000 I_beq_cg_cr_rs1_rs2_edges_offset_rs1val_0x55555555_rs2val_0x1_str
000051a0 l       .text.rvtest	00000000 I_beq_cg_cr_rs1_rs2_edges_offset_rs1val_0x55555555_rs2val_0x2
00010da1 l       .data	00000000 I_beq_cg_cr_rs1_rs2_edges_offset_rs1val_0x55555555_rs2val_0x2_str
000051f8 l       .text.rvtest	00000000 I_beq_cg_cr_rs1_rs2_edges_offset_rs1val_0x55555555_rs2val_0x80000000
00010dfc l       .data	00000000 I_beq_cg_cr_rs1_rs2_edges_offset_rs1val_0x55555555_rs2val_0x80000000_str
00005250 l       .text.rvtest	00000000 I_beq_cg_cr_rs1_rs2_edges_offset_rs1val_0x55555555_rs2val_0x80000001
00010e5e l       .data	00000000 I_beq_cg_cr_rs1_rs2_edges_offset_rs1val_0x55555555_rs2val_0x80000001_str
000052a8 l       .text.rvtest	00000000 I_beq_cg_cr_rs1_rs2_edges_offset_rs1val_0x55555555_rs2val_0x7fffffff
00010ec0 l       .data	00000000 I_beq_cg_cr_rs1_rs2_edges_offset_rs1val_0x55555555_rs2val_0x7fffffff_str
00005300 l       .text.rvtest	00000000 I_beq_cg_cr_rs1_rs2_edges_offset_rs1val_0x55555555_rs2val_0x7ffffffe
00010f22 l       .data	00000000 I_beq_cg_cr_rs1_rs2_edges_offset_rs1val_0x55555555_rs2val_0x7ffffffe_str
00005358 l       .text.rvtest	00000000 I_beq_cg_cr_rs1_rs2_edges_offset_rs1val_0x55555555_rs2val_0xffffffff
00010f84 l       .data	00000000 I_beq_cg_cr_rs1_rs2_edges_offset_rs1val_0x55555555_rs2val_0xffffffff_str
000053b0 l       .text.rvtest	00000000 I_beq_cg_cr_rs1_rs2_edges_offset_rs1val_0x55555555_rs2val_0xfffffffe
00010fe6 l       .data	00000000 I_beq_cg_cr_rs1_rs2_edges_offset_rs1val_0x55555555_rs2val_0xfffffffe_str
00005408 l       .text.rvtest	00000000 I_beq_cg_cr_rs1_rs2_edges_offset_rs1val_0x55555555_rs2val_0x5bbc8872
00011048 l       .data	00000000 I_beq_cg_cr_rs1_rs2_edges_offset_rs1val_0x55555555_rs2val_0x5bbc8872_str
00005460 l       .text.rvtest	00000000 I_beq_cg_cr_rs1_rs2_edges_offset_rs1val_0x55555555_rs2val_0xaaaaaaaa
000110aa l       .data	00000000 I_beq_cg_cr_rs1_rs2_edges_offset_rs1val_0x55555555_rs2val_0xaaaaaaaa_str
000054b8 l       .text.rvtest	00000000 I_beq_cg_cr_rs1_rs2_edges_offset_rs1val_0x55555555_rs2val_0x55555555
0001110c l       .data	00000000 I_beq_cg_cr_rs1_rs2_edges_offset_rs1val_0x55555555_rs2val_0x55555555_str
00005518 l       .text.rvtest	00000000 I_beq_cg_cmp_rs1_rs2_b0
0001116e l       .data	00000000 I_beq_cg_cmp_rs1_rs2_b0_str
00005550 l       .text.rvtest	00000000 I_beq_cg_cmp_rs1_rs2_b1
000111a2 l       .data	00000000 I_beq_cg_cmp_rs1_rs2_b1_str
00005588 l       .text.rvtest	00000000 I_beq_cg_cmp_rs1_rs2_b2
000111d6 l       .data	00000000 I_beq_cg_cmp_rs1_rs2_b2_str
000055c0 l       .text.rvtest	00000000 I_beq_cg_cmp_rs1_rs2_b3
0001120a l       .data	00000000 I_beq_cg_cmp_rs1_rs2_b3_str
000055f8 l       .text.rvtest	00000000 I_beq_cg_cmp_rs1_rs2_b4
0001123e l       .data	00000000 I_beq_cg_cmp_rs1_rs2_b4_str
00005630 l       .text.rvtest	00000000 I_beq_cg_cmp_rs1_rs2_b5
00011272 l       .data	00000000 I_beq_cg_cmp_rs1_rs2_b5_str
00005668 l       .text.rvtest	00000000 I_beq_cg_cmp_rs1_rs2_b6
000112a6 l       .data	00000000 I_beq_cg_cmp_rs1_rs2_b6_str
000056a8 l       .text.rvtest	00000000 I_beq_cg_cmp_rs1_rs2_b7
000112da l       .data	00000000 I_beq_cg_cmp_rs1_rs2_b7_str
000056e0 l       .text.rvtest	00000000 I_beq_cg_cmp_rs1_rs2_b8
0001130e l       .data	00000000 I_beq_cg_cmp_rs1_rs2_b8_str
00005718 l       .text.rvtest	00000000 I_beq_cg_cmp_rs1_rs2_b9
00011342 l       .data	00000000 I_beq_cg_cmp_rs1_rs2_b9_str
00005750 l       .text.rvtest	00000000 I_beq_cg_cmp_rs1_rs2_b10
00011376 l       .data	00000000 I_beq_cg_cmp_rs1_rs2_b10_str
0000578c l       .text.rvtest	00000000 I_beq_cg_cmp_rs1_rs2_b11
000113ab l       .data	00000000 I_beq_cg_cmp_rs1_rs2_b11_str
000057c4 l       .text.rvtest	00000000 I_beq_cg_cmp_rs1_rs2_b12
000113e0 l       .data	00000000 I_beq_cg_cmp_rs1_rs2_b12_str
00005804 l       .text.rvtest	00000000 I_beq_cg_cmp_rs1_rs2_b13
00011415 l       .data	00000000 I_beq_cg_cmp_rs1_rs2_b13_str
0000583c l       .text.rvtest	00000000 I_beq_cg_cmp_rs1_rs2_b14
0001144a l       .data	00000000 I_beq_cg_cmp_rs1_rs2_b14_str
00005874 l       .text.rvtest	00000000 I_beq_cg_cmp_rs1_rs2_b15
0001147f l       .data	00000000 I_beq_cg_cmp_rs1_rs2_b15_str
000058ac l       .text.rvtest	00000000 I_beq_cg_cmp_rs1_rs2_b16
000114b4 l       .data	00000000 I_beq_cg_cmp_rs1_rs2_b16_str
000058e4 l       .text.rvtest	00000000 I_beq_cg_cmp_rs1_rs2_b17
000114e9 l       .data	00000000 I_beq_cg_cmp_rs1_rs2_b17_str
0000591c l       .text.rvtest	00000000 I_beq_cg_cmp_rs1_rs2_b18
0001151e l       .data	00000000 I_beq_cg_cmp_rs1_rs2_b18_str
00005954 l       .text.rvtest	00000000 I_beq_cg_cmp_rs1_rs2_b19
00011553 l       .data	00000000 I_beq_cg_cmp_rs1_rs2_b19_str
00005990 l       .text.rvtest	00000000 I_beq_cg_cmp_rs1_rs2_b20
00011588 l       .data	00000000 I_beq_cg_cmp_rs1_rs2_b20_str
000059cc l       .text.rvtest	00000000 I_beq_cg_cmp_rs1_rs2_b21
000115bd l       .data	00000000 I_beq_cg_cmp_rs1_rs2_b21_str
00005a04 l       .text.rvtest	00000000 I_beq_cg_cmp_rs1_rs2_b22
000115f2 l       .data	00000000 I_beq_cg_cmp_rs1_rs2_b22_str
00005a3c l       .text.rvtest	00000000 I_beq_cg_cmp_rs1_rs2_b23
00011627 l       .data	00000000 I_beq_cg_cmp_rs1_rs2_b23_str
00005a74 l       .text.rvtest	00000000 I_beq_cg_cmp_rs1_rs2_b24
0001165c l       .data	00000000 I_beq_cg_cmp_rs1_rs2_b24_str
00005aac l       .text.rvtest	00000000 I_beq_cg_cmp_rs1_rs2_b25
00011691 l       .data	00000000 I_beq_cg_cmp_rs1_rs2_b25_str
00005ae4 l       .text.rvtest	00000000 I_beq_cg_cmp_rs1_rs2_b26
000116c6 l       .data	00000000 I_beq_cg_cmp_rs1_rs2_b26_str
00005b1c l       .text.rvtest	00000000 I_beq_cg_cmp_rs1_rs2_b27
000116fb l       .data	00000000 I_beq_cg_cmp_rs1_rs2_b27_str
00005b54 l       .text.rvtest	00000000 I_beq_cg_cmp_rs1_rs2_b28
00011730 l       .data	00000000 I_beq_cg_cmp_rs1_rs2_b28_str
00005b8c l       .text.rvtest	00000000 I_beq_cg_cmp_rs1_rs2_b29
00011765 l       .data	00000000 I_beq_cg_cmp_rs1_rs2_b29_str
00005bc4 l       .text.rvtest	00000000 I_beq_cg_cmp_rs1_rs2_b30
0001179a l       .data	00000000 I_beq_cg_cmp_rs1_rs2_b30_str
00005bfc l       .text.rvtest	00000000 I_beq_cg_cmp_rs1_rs2_b31
000117cf l       .data	00000000 I_beq_cg_cmp_rs1_rs2_b31_str
00005c38 l       .text.rvtest	00000000 I_beq_cg_cp_offset_neg
00011804 l       .data	00000000 I_beq_cg_cp_offset_neg_str
00005c68 l       .text.rvtest	00000000 I_beq_cg_cp_imm_edges_branch_all
00011837 l       .data	00000000 I_beq_cg_cp_imm_edges_branch_all_str
0000a02c l       .text.rvtest	00000000 exit_cleanup
00011ee4 l       .data	00000000 successstr
00023204 l       .text.rvmodel	00000000 rvmodel_io_write_str
00023208 l       .text.rvmodel	00000000 rvmodel_halt_pass
0000a070 l       .text.rvtest	00000000 abort_test
00011880 l       .data	00000000 begin_failure_scratch
0000a140 l       .text.rvtest	00000000 failedtest_saveregs
0000a0e4 l       .text.rvtest	00000000 failedtest_trap_x7_x9
000119f0 l       .data	00000000 saved_mcause
000119f8 l       .data	00000000 saved_mtval
00011a00 l       .data	00000000 saved_mstatus
0000a1b0 l       .text.rvtest	00000000 failedtest_saveresults
00011880 l       .data	00000000 failure_type
0000a22c l       .text.rvtest	00000000 failedtest_saveresults_trap
0000a1c0 l       .text.rvtest	00000000 failedtest_saveresults_int
0000a600 l       .text.rvtest	00000000 failedtest_saveresults_common
000119d8 l       .data	00000000 trap_diag_fail_str_ptr
000120aa l       .data	00000000 trap_sig_offset_mismatch
0000a4e0 l       .text.rvtest	00000000 trap_diag_offset_mismatch
000119b0 l       .data	00000000 trap_diag_subtype
0001210e l       .data	00000000 sv_Mvect_str
0000a560 l       .text.rvtest	00000000 trap_diag_field_identified
00012210 l       .data	00000000 sv_Mcause_str
0001230b l       .data	00000000 sv_Mepc_str
000123fe l       .data	00000000 sv_Mtval_str
00012571 l       .data	00000000 sv_Mip_str
000124f5 l       .data	00000000 sv_Mtval2_str
00012533 l       .data	00000000 sv_Mtinst_str
0001214e l       .data	00000000 sv_Svect_str
0001224e l       .data	00000000 sv_Scause_str
00012347 l       .data	00000000 sv_Sepc_str
0001243b l       .data	00000000 sv_Stval_str
000125ac l       .data	00000000 sv_Sip_str
0001218e l       .data	00000000 sv_Hvect_str
0001228c l       .data	00000000 sv_Hcause_str
00012383 l       .data	00000000 sv_Hepc_str
00012478 l       .data	00000000 sv_Htval_str
000125e7 l       .data	00000000 sv_Hip_str
000121cf l       .data	00000000 sv_Vvect_str
000122cb l       .data	00000000 sv_Vcause_str
000123c0 l       .data	00000000 sv_Vepc_str
000124b6 l       .data	00000000 sv_Vtval_str
00012623 l       .data	00000000 sv_Vip_str
00012660 l       .data	00000000 Mclr_Mext_int_str
000126af l       .data	00000000 Mclr_Sext_int_str
000127aa l       .data	00000000 Sclr_Sext_int_str
000128a6 l       .data	00000000 Hclr_Sext_int_str
0000a5f0 l       .text.rvtest	00000000 trap_diag_generic_report
000119c8 l       .data	00000000 trap_diag_actual_offset
000119d0 l       .data	00000000 trap_diag_expected_offset
000119b4 l       .data	00000000 trap_diag_mode
000119b8 l       .data	00000000 trap_diag_actual_value
000119c0 l       .data	00000000 trap_diag_expected_value
0000a630 l       .text.rvtest	00000000 failedtest_report
0000a630 l       .text.rvtest	00000000 print_failstr
00011f1a l       .data	00000000 failstr
0000a668 l       .text.rvtest	00000000 print_testnamestr
00011fad l       .data	00000000 testnamestr
0000a6a8 l       .text.rvtest	00000000 print_failure_test_name_str
000119a0 l       .data	00000000 failure_string_ptr
0000a6b8 l       .text.rvtest	00000000 print_newline_str
00011fbf l       .data	00000000 newlinestr
0000aaec l       .text.rvtest	00000000 failedtest_report_trap_detailed
00011fc1 l       .data	00000000 inststr
00011980 l       .data	00000000 failing_instruction
0000ba38 l       .text.rvtest	00000000 failedtest_hex_to_str
00011a08 l       .data	00000000 ascii_buffer
00011fd5 l       .data	00000000 addrstr
00011988 l       .data	00000000 failing_addr
00012a52 l       .data	00000000 regstr
0000a898 l       .text.rvtest	00000000 failedtest_report_not_intreg
00011984 l       .data	00000000 failing_reg
0000bab4 l       .text.rvtest	00000000 failedtest_dec_to_str
0000a974 l       .text.rvtest	00000000 failedtest_report_print_regstr
0000a8ec l       .text.rvtest	00000000 failedtest_report_fpreg
0000a938 l       .text.rvtest	00000000 failedtest_report_vecreg
00012ab2 l       .data	00000000 fflagsstr
0000a9a8 l       .text.rvtest	00000000 failedtest_report_after_reg
00012a63 l       .data	00000000 badvalstr
0000aa0c l       .text.rvtest	00000000 failedtest_report_badval_not_fp
00011990 l       .data	00000000 failing_value
0000aa1c l       .text.rvtest	00000000 failedtest_report_badval_done
00012a7a l       .data	00000000 expvalstr
0000aaac l       .text.rvtest	00000000 failedtest_report_expval_not_fp
00011998 l       .data	00000000 expected_value
0000aabc l       .text.rvtest	00000000 failedtest_report_expval_done
0000b7e4 l       .text.rvtest	00000000 failedtest_report_end
00012ade l       .data	00000000 trap_diag_header_str
00012b0a l       .data	00000000 trap_diag_origstr_label
0000abc0 l       .text.rvtest	00000000 trap_report_offset_mismatch
0000b670 l       .text.rvtest	00000000 trap_report_generic
0000af34 l       .text.rvtest	00000000 trap_report_field_mismatch
00012b1a l       .data	00000000 trap_diag_count_mismatch_str
00012b7b l       .data	00000000 trap_diag_expected_offset_str
00012ba2 l       .data	00000000 trap_diag_actual_offset_str
0000ae14 l       .text.rvtest	00000000 trap_report_missing_traps
0000acfc l       .text.rvtest	00000000 trap_report_extra_traps
00012bc9 l       .data	00000000 trap_diag_extra_traps_str
00012c4e l       .data	00000000 trap_diag_extra_bytes_str
00012c79 l       .data	00000000 trap_diag_extra_hint_str
0000b830 l       .text.rvtest	00000000 failedtest_print_csr_context
00012c03 l       .data	00000000 trap_diag_missing_traps_str
00012d61 l       .data	00000000 trap_diag_missing_hint_str
00012e48 l       .data	00000000 trap_diag_handler_mode_str
0000afc4 l       .text.rvtest	00000000 trap_mode_m
0000b004 l       .text.rvtest	00000000 trap_mode_s
0000b044 l       .text.rvtest	00000000 trap_mode_h
0000b084 l       .text.rvtest	00000000 trap_mode_v
00012e84 l       .data	00000000 trap_diag_mode_unknown_str
0000b0c0 l       .text.rvtest	00000000 trap_mode_print
00012e62 l       .data	00000000 trap_diag_mode_m_str
00012e6a l       .data	00000000 trap_diag_mode_s_str
00012e72 l       .data	00000000 trap_diag_mode_hs_str
00012e7b l       .data	00000000 trap_diag_mode_vs_str
00012e8d l       .data	00000000 trap_diag_field_str
0000b184 l       .text.rvtest	00000000 trap_field_vect
0000b1c4 l       .text.rvtest	00000000 trap_field_cause
0000b204 l       .text.rvtest	00000000 trap_field_epc
0000b244 l       .text.rvtest	00000000 trap_field_tval
0000b284 l       .text.rvtest	00000000 trap_field_ip
0000b2c4 l       .text.rvtest	00000000 trap_field_tval2
0000b304 l       .text.rvtest	00000000 trap_field_tinst
0000b344 l       .text.rvtest	00000000 trap_field_intid
00012fe4 l       .data	00000000 trap_diag_field_unknown_str
0000b380 l       .text.rvtest	00000000 trap_field_print
00012ea7 l       .data	00000000 trap_diag_field_vect_str
00012ed8 l       .data	00000000 trap_diag_field_cause_str
00012ef8 l       .data	00000000 trap_diag_field_epc_str
00012f16 l       .data	00000000 trap_diag_field_tval_str
00012f35 l       .data	00000000 trap_diag_field_ip_str
00012f5d l       .data	00000000 trap_diag_field_tval2_str
00012f89 l       .data	00000000 trap_diag_field_tinst_str
00012fb5 l       .data	00000000 trap_diag_field_intid_str
00012ff3 l       .data	00000000 trap_diag_expected_str
0001300a l       .data	00000000 trap_diag_actual_str
0000b51c l       .text.rvtest	00000000 trap_field_not_cause
00013021 l       .data	00000000 trap_diag_expected_cause_name_str
0000b754 l       .text.rvtest	00000000 trap_cause_to_str
00013038 l       .data	00000000 trap_diag_actual_cause_name_str
0000b51c l       .text.rvtest	00000000 trap_field_not_epc
000130ae l       .data	00000000 trap_diag_hint_vect_str
00013184 l       .data	00000000 trap_diag_hint_cause_str
00013277 l       .data	00000000 trap_diag_hint_epc_str
00013372 l       .data	00000000 trap_diag_hint_tval_str
00013459 l       .data	00000000 trap_diag_hint_ip_str
00013066 l       .data	00000000 trap_diag_generic_str
000119e8 l       .data	00000000 saved_mepc
00012049 l       .data	00000000 xepcinstrstr
0000b778 l       .text.rvtest	00000000 trap_cause_interrupt
0000b758 l       .text.rvtest	00000000 trap_cause_exception
0000b7a4 l       .text.rvtest	00000000 trap_cause_unknown
00011a30 l       .data	00000000 trap_excpt_name_tbl
00011a90 l       .data	00000000 trap_int_name_tbl
00011ece l       .data	00000000 trap_cause_unknown_str
00012a91 l       .data	00000000 endstr
0000b828 l       .text.rvtest	00000000 failedtest_terminate
00023214 l       .text.rvmodel	00000000 rvmodel_halt_fail
000119e0 l       .data	00000000 csr_context_ret_addr
0001206a l       .data	00000000 mepcstr
0001207a l       .data	00000000 mcausestr
0001208a l       .data	00000000 mtvalstr
0001209a l       .data	00000000 mstatusstr
0000ba78 l       .text.rvtest	00000000 failedtest_hex_to_str_loop
0000ba94 l       .text.rvtest	00000000 failedtest_hex_to_str_digit
0000ba98 l       .text.rvtest	00000000 failedtest_hex_to_str_write
00023000 l       .text.rvmodel	00000000 rvtest_boot_to_mmode
00023000 l       .text.rvmodel	00000000 rvtest_init_regs
00013540 l       .data	00000000 signature_base
000231a0 l       .text.rvmodel	00000000 canary_check
00012aba l       .data	00000000 canary_mismatch
0000c000 l       .data	00000000 scratch
00011a30 l       .data	00000000 end_failure_scratch
00011ad0 l       .data	00000000 trap_excpt_name_0
00011af0 l       .data	00000000 trap_excpt_name_1
00011b0a l       .data	00000000 trap_excpt_name_2
00011b1f l       .data	00000000 trap_excpt_name_3
00011b2b l       .data	00000000 trap_excpt_name_4
00011b44 l       .data	00000000 trap_excpt_name_5
00011b57 l       .data	00000000 trap_excpt_name_6
00011b75 l       .data	00000000 trap_excpt_name_7
00011b8d l       .data	00000000 trap_excpt_name_8
00011bab l       .data	00000000 trap_excpt_name_9
00011bc9 l       .data	00000000 trap_excpt_name_10
00011be8 l       .data	00000000 trap_excpt_name_11
00011c06 l       .data	00000000 trap_excpt_name_12
00011c1e l       .data	00000000 trap_excpt_name_13
00011c2f l       .data	00000000 trap_excpt_name_14
00011c3e l       .data	00000000 trap_excpt_name_15
00011c54 l       .data	00000000 trap_excpt_name_16
00011c61 l       .data	00000000 trap_excpt_name_17
00011c70 l       .data	00000000 trap_excpt_name_18
00011c80 l       .data	00000000 trap_excpt_name_19
00011c90 l       .data	00000000 trap_excpt_name_20
00011cae l       .data	00000000 trap_excpt_name_21
00011cc5 l       .data	00000000 trap_excpt_name_22
00011cda l       .data	00000000 trap_excpt_name_23
00011cf6 l       .data	00000000 trap_int_name_0
00011d0e l       .data	00000000 trap_int_name_1
00011d2d l       .data	00000000 trap_int_name_2
00011d54 l       .data	00000000 trap_int_name_3
00011d70 l       .data	00000000 trap_int_name_4
00011d88 l       .data	00000000 trap_int_name_5
00011da4 l       .data	00000000 trap_int_name_6
00011dc8 l       .data	00000000 trap_int_name_7
00011de1 l       .data	00000000 trap_int_name_8
00011df9 l       .data	00000000 trap_int_name_9
00011e18 l       .data	00000000 trap_int_name_10
00011e3f l       .data	00000000 trap_int_name_11
00011e5b l       .data	00000000 trap_int_name_12
00011e80 l       .data	00000000 trap_int_name_13
00011e9c l       .data	00000000 trap_int_name_14
00011eb5 l       .data	00000000 trap_int_name_15
00011f6f l       .data	00000000 abortstr
00012016 l       .data	00000000 xepcstr
00012701 l       .data	00000000 Mclr_Vext_int_str
0001275b l       .data	00000000 Sclr_Mext_int_str
000127fc l       .data	00000000 Sclr_Vext_int_str
00012856 l       .data	00000000 Hclr_Mext_int_str
000128f9 l       .data	00000000 Hclr_Vext_int_str
00012954 l       .data	00000000 Vclr_Mext_int_str
000129a4 l       .data	00000000 Vclr_Sext_int_str
000129f7 l       .data	00000000 Vclr_Vext_int_str
0001304f l       .data	00000000 trap_diag_curr_xepc_str
00013bd8 l       .data	00000000 trap_sigptr
00022640 g       .data	00000000 end_signature
00022640 g       .data	00000000 rvtest_sig_end
00000000 g       .text.init	00000000 rvtest_entry_point
00013540 g       .data	00000000 begin_signature
0000a02c g       .text.rvtest	00000000 rvtest_code_end
00001000 g       .text.rvtest	00000000 rvtest_code_begin
00013540 g       .data	00000000 rvtest_sig_begin
0000c110 g       .data	00000000 rvtest_data_begin
0001353e g       .data	00000000 rvtest_data_end
0000a02c g       .text.rvtest	00000000 cleanup_epilogs
00024000 g       .text.rvmodel	00000000 _end



Disassembly of section .text.init:

00000000 <rvtest_entry_point>:

// Include framework macros
#include "riscv_arch_test.h"

// Set up test environment and declare main entry point
RVTEST_BEGIN
   0:	00023097          	auipc	x1,0x23
   4:	00008093          	addi	x1,x1,0 # 23000 <rvmodel_boot>
   8:	00000013          	addi	x0,x0,0
   c:	00000013          	addi	x0,x0,0
  10:	00000013          	addi	x0,x0,0
  14:	00000013          	addi	x0,x0,0
  18:	00000013          	addi	x0,x0,0
  1c:	00000013          	addi	x0,x0,0
  20:	000080e7          	jalr	x1,0(x1)
  24:	00000013          	addi	x0,x0,0
  28:	00000013          	addi	x0,x0,0
  2c:	00000013          	addi	x0,x0,0
  30:	00000013          	addi	x0,x0,0
  34:	00000013          	addi	x0,x0,0
  38:	00000013          	addi	x0,x0,0
  3c:	00000013          	addi	x0,x0,0

Disassembly of section .text.rvtest:

00001000 <rvtest_code_begin>:
/////////////////////////////////
// cp_rs1
/////////////////////////////////

# Testcase cp_rs1 (Test source rs1 = x0)
  RVTEST_TESTDATA_LOAD_INT(x3, x0) # load rs1: x0 = 0xa947ca01
    1000:	0001a003          	lw	x0,0(x3)
    1004:	00418193          	addi	x3,x3,4
  RVTEST_TESTDATA_LOAD_INT(x3, x29) # load rs2: x29 = 0xd40096c4
    1008:	0001ae83          	lw	x29,0(x3)
    100c:	00418193          	addi	x3,x3,4
  RVTEST_TESTDATA_LOAD_INT(x3, x7) # load branch taken value: x7 = 0xb67cd9e9
    1010:	0001a383          	lw	x7,0(x3)
    1014:	00418193          	addi	x3,x3,4

00001018 <I_beq_cg_cp_rs1_b0>:
I_beq_cg_cp_rs1_b0:
  beq x0, x29, 1f # perform operation
    1018:	01d00463          	beq	x0,x29,1020 <I_beq_cg_cp_rs1_b0+0x8>
  LI(x7, -1) # branch not taken, set temp_reg to 0
    101c:	fff00393          	addi	x7,x0,-1
1:
  # Check if x7 contains the expected result. x2 is the signature ptr, x5 is the link ptr, x4 is a temp reg.
  RVTEST_SIGUPD(x2, x5, x4, x7, I_beq_cg_cp_rs1_b0, I_beq_cg_cp_rs1_b0_str)
    1020:	00012203          	lw	x4,0(x2)
    1024:	00720863          	beq	x4,x7,1034 <I_beq_cg_cp_rs1_b0+0x1c>
    1028:	054092ef          	jal	x5,a07c <failedtest_x5_x4>
    102c:	00001018          	.word	0x00001018
    1030:	0000cb38          	.word	0x0000cb38
    1034:	00410113          	addi	x2,x2,4

# Testcase cp_rs1 (Test source rs1 = x1)
  RVTEST_TESTDATA_LOAD_INT(x3, x1) # load rs1: x1 = 0x3836f81d
    1038:	0001a083          	lw	x1,0(x3)
    103c:	00418193          	addi	x3,x3,4
  RVTEST_TESTDATA_LOAD_INT(x3, x22) # load rs2: x22 = 0x0ad0c526
    1040:	0001ab03          	lw	x22,0(x3)
    1044:	00418193          	addi	x3,x3,4
  RVTEST_TESTDATA_LOAD_INT(x3, x31) # load branch taken value: x31 = 0xe11edfe0
    1048:	0001af83          	lw	x31,0(x3)
    104c:	00418193          	addi	x3,x3,4

00001050 <I_beq_cg_cp_rs1_b1>:
I_beq_cg_cp_rs1_b1:
  beq x1, x22, 1f # perform operation
    1050:	01608463          	beq	x1,x22,1058 <I_beq_cg_cp_rs1_b1+0x8>
  LI(x31, -1) # branch not taken, set temp_reg to 0
    1054:	fff00f93          	addi	x31,x0,-1
1:
  # Check if x31 contains the expected result. x2 is the signature ptr, x5 is the link ptr, x4 is a temp reg.
  RVTEST_SIGUPD(x2, x5, x4, x31, I_beq_cg_cp_rs1_b1, I_beq_cg_cp_rs1_b1_str)
    1058:	00012203          	lw	x4,0(x2)
    105c:	01f20863          	beq	x4,x31,106c <I_beq_cg_cp_rs1_b1+0x1c>
    1060:	01c092ef          	jal	x5,a07c <failedtest_x5_x4>
    1064:	00001050          	.word	0x00001050
    1068:	0000cb65          	.word	0x0000cb65
    106c:	00410113          	addi	x2,x2,4

  mv x27, x2 # switch signature pointer register to avoid conflict with test
    1070:	00010d93          	addi	x27,x2,0
# Testcase cp_rs1 (Test source rs1 = x2)
  RVTEST_TESTDATA_LOAD_INT(x3, x2) # load rs1: x2 = 0x3858302c
    1074:	0001a103          	lw	x2,0(x3)
    1078:	00418193          	addi	x3,x3,4
  RVTEST_TESTDATA_LOAD_INT(x3, x17) # load rs2: x17 = 0x561e4647
    107c:	0001a883          	lw	x17,0(x3)
    1080:	00418193          	addi	x3,x3,4
  RVTEST_TESTDATA_LOAD_INT(x3, x31) # load branch taken value: x31 = 0xa33f2b3f
    1084:	0001af83          	lw	x31,0(x3)
    1088:	00418193          	addi	x3,x3,4

0000108c <I_beq_cg_cp_rs1_b2>:
I_beq_cg_cp_rs1_b2:
  beq x2, x17, 1f # perform operation
    108c:	01110463          	beq	x2,x17,1094 <I_beq_cg_cp_rs1_b2+0x8>
  LI(x31, -1) # branch not taken, set temp_reg to 0
    1090:	fff00f93          	addi	x31,x0,-1
1:
  # Check if x31 contains the expected result. x27 is the signature ptr, x5 is the link ptr, x4 is a temp reg.
  RVTEST_SIGUPD(x27, x5, x4, x31, I_beq_cg_cp_rs1_b2, I_beq_cg_cp_rs1_b2_str)
    1094:	000da203          	lw	x4,0(x27)
    1098:	01f20863          	beq	x4,x31,10a8 <I_beq_cg_cp_rs1_b2+0x1c>
    109c:	7e1082ef          	jal	x5,a07c <failedtest_x5_x4>
    10a0:	0000108c          	.word	0x0000108c
    10a4:	0000cb92          	.word	0x0000cb92
    10a8:	004d8d93          	addi	x27,x27,4

  mv x25, x3 # switch data pointer register to avoid conflict with test
    10ac:	00018c93          	addi	x25,x3,0
# Testcase cp_rs1 (Test source rs1 = x3)
  RVTEST_TESTDATA_LOAD_INT(x25, x3) # load rs1: x3 = 0x3e6d2e9c
    10b0:	000ca183          	lw	x3,0(x25)
    10b4:	004c8c93          	addi	x25,x25,4
  RVTEST_TESTDATA_LOAD_INT(x25, x23) # load rs2: x23 = 0xec63d228
    10b8:	000cab83          	lw	x23,0(x25)
    10bc:	004c8c93          	addi	x25,x25,4
  RVTEST_TESTDATA_LOAD_INT(x25, x13) # load branch taken value: x13 = 0xe530f85b
    10c0:	000ca683          	lw	x13,0(x25)
    10c4:	004c8c93          	addi	x25,x25,4

000010c8 <I_beq_cg_cp_rs1_b3>:
I_beq_cg_cp_rs1_b3:
  beq x3, x23, 1f # perform operation
    10c8:	01718463          	beq	x3,x23,10d0 <I_beq_cg_cp_rs1_b3+0x8>
  LI(x13, -1) # branch not taken, set temp_reg to 0
    10cc:	fff00693          	addi	x13,x0,-1
1:
  # Check if x13 contains the expected result. x27 is the signature ptr, x5 is the link ptr, x4 is a temp reg.
  RVTEST_SIGUPD(x27, x5, x4, x13, I_beq_cg_cp_rs1_b3, I_beq_cg_cp_rs1_b3_str)
    10d0:	000da203          	lw	x4,0(x27)
    10d4:	00d20863          	beq	x4,x13,10e4 <I_beq_cg_cp_rs1_b3+0x1c>
    10d8:	7a5082ef          	jal	x5,a07c <failedtest_x5_x4>
    10dc:	000010c8          	.word	0x000010c8
    10e0:	0000cbbf          	.word	0x0000cbbf
    10e4:	004d8d93          	addi	x27,x27,4

  mv x13, x4 # switch temp register to avoid conflict with test
    10e8:	00020693          	addi	x13,x4,0 # 0 <rvtest_entry_point>
  mv x14, x5 # switch link pointer register to avoid conflict with test
    10ec:	00028713          	addi	x14,x5,0
# Testcase cp_rs1 (Test source rs1 = x4)
  RVTEST_TESTDATA_LOAD_INT(x25, x4) # load rs1: x4 = 0xd037fd77
    10f0:	000ca203          	lw	x4,0(x25)
    10f4:	004c8c93          	addi	x25,x25,4
  RVTEST_TESTDATA_LOAD_INT(x25, x23) # load rs2: x23 = 0xfc821f1e
    10f8:	000cab83          	lw	x23,0(x25)
    10fc:	004c8c93          	addi	x25,x25,4
  RVTEST_TESTDATA_LOAD_INT(x25, x22) # load branch taken value: x22 = 0x35ff570f
    1100:	000cab03          	lw	x22,0(x25)
    1104:	004c8c93          	addi	x25,x25,4

00001108 <I_beq_cg_cp_rs1_b4>:
I_beq_cg_cp_rs1_b4:
  beq x4, x23, 1f # perform operation
    1108:	01720463          	beq	x4,x23,1110 <I_beq_cg_cp_rs1_b4+0x8>
  LI(x22, -1) # branch not taken, set temp_reg to 0
    110c:	fff00b13          	addi	x22,x0,-1
1:
  # Check if x22 contains the expected result. x27 is the signature ptr, x14 is the link ptr, x13 is a temp reg.
  RVTEST_SIGUPD(x27, x14, x13, x22, I_beq_cg_cp_rs1_b4, I_beq_cg_cp_rs1_b4_str)
    1110:	000da683          	lw	x13,0(x27)
    1114:	01668863          	beq	x13,x22,1124 <I_beq_cg_cp_rs1_b4+0x1c>
    1118:	7a50876f          	jal	x14,a0bc <failedtest_x14_x13>
    111c:	00001108          	.word	0x00001108
    1120:	0000cbec          	.word	0x0000cbec
    1124:	004d8d93          	addi	x27,x27,4

# Testcase cp_rs1 (Test source rs1 = x5)
  RVTEST_TESTDATA_LOAD_INT(x25, x5) # load rs1: x5 = 0x84483796
    1128:	000ca283          	lw	x5,0(x25)
    112c:	004c8c93          	addi	x25,x25,4
  RVTEST_TESTDATA_LOAD_INT(x25, x4) # load rs2: x4 = 0xc0c1ae6d
    1130:	000ca203          	lw	x4,0(x25)
    1134:	004c8c93          	addi	x25,x25,4
  RVTEST_TESTDATA_LOAD_INT(x25, x28) # load branch taken value: x28 = 0x80d472e3
    1138:	000cae03          	lw	x28,0(x25)
    113c:	004c8c93          	addi	x25,x25,4

00001140 <I_beq_cg_cp_rs1_b5>:
I_beq_cg_cp_rs1_b5:
  beq x5, x4, 1f # perform operation
    1140:	00428463          	beq	x5,x4,1148 <I_beq_cg_cp_rs1_b5+0x8>
  LI(x28, -1) # branch not taken, set temp_reg to 0
    1144:	fff00e13          	addi	x28,x0,-1
1:
  # Check if x28 contains the expected result. x27 is the signature ptr, x14 is the link ptr, x13 is a temp reg.
  RVTEST_SIGUPD(x27, x14, x13, x28, I_beq_cg_cp_rs1_b5, I_beq_cg_cp_rs1_b5_str)
    1148:	000da683          	lw	x13,0(x27)
    114c:	01c68863          	beq	x13,x28,115c <I_beq_cg_cp_rs1_b5+0x1c>
    1150:	76d0876f          	jal	x14,a0bc <failedtest_x14_x13>
    1154:	00001140          	.word	0x00001140
    1158:	0000cc19          	.word	0x0000cc19
    115c:	004d8d93          	addi	x27,x27,4

# Testcase cp_rs1 (Test source rs1 = x6)
  RVTEST_TESTDATA_LOAD_INT(x25, x6) # load rs1: x6 = 0x1f7481cc
    1160:	000ca303          	lw	x6,0(x25)
    1164:	004c8c93          	addi	x25,x25,4
  RVTEST_TESTDATA_LOAD_INT(x25, x11) # load rs2: x11 = 0x661c20fc
    1168:	000ca583          	lw	x11,0(x25)
    116c:	004c8c93          	addi	x25,x25,4
  RVTEST_TESTDATA_LOAD_INT(x25, x10) # load branch taken value: x10 = 0x3979b595
    1170:	000ca503          	lw	x10,0(x25)
    1174:	004c8c93          	addi	x25,x25,4

00001178 <I_beq_cg_cp_rs1_b6>:
I_beq_cg_cp_rs1_b6:
  beq x6, x11, 1f # perform operation
    1178:	00b30463          	beq	x6,x11,1180 <I_beq_cg_cp_rs1_b6+0x8>
  LI(x10, -1) # branch not taken, set temp_reg to 0
    117c:	fff00513          	addi	x10,x0,-1
1:
  # Check if x10 contains the expected result. x27 is the signature ptr, x14 is the link ptr, x13 is a temp reg.
  RVTEST_SIGUPD(x27, x14, x13, x10, I_beq_cg_cp_rs1_b6, I_beq_cg_cp_rs1_b6_str)
    1180:	000da683          	lw	x13,0(x27)
    1184:	00a68863          	beq	x13,x10,1194 <I_beq_cg_cp_rs1_b6+0x1c>
    1188:	7350876f          	jal	x14,a0bc <failedtest_x14_x13>
    118c:	00001178          	.word	0x00001178
    1190:	0000cc46          	.word	0x0000cc46
    1194:	004d8d93          	addi	x27,x27,4

# Testcase cp_rs1 (Test source rs1 = x7)
  RVTEST_TESTDATA_LOAD_INT(x25, x7) # load rs1: x7 = 0xe78ffce3
    1198:	000ca383          	lw	x7,0(x25)
    119c:	004c8c93          	addi	x25,x25,4
  RVTEST_TESTDATA_LOAD_INT(x25, x15) # load rs2: x15 = 0x31bef670
    11a0:	000ca783          	lw	x15,0(x25)
    11a4:	004c8c93          	addi	x25,x25,4
  RVTEST_TESTDATA_LOAD_INT(x25, x28) # load branch taken value: x28 = 0xb935bc1e
    11a8:	000cae03          	lw	x28,0(x25)
    11ac:	004c8c93          	addi	x25,x25,4

000011b0 <I_beq_cg_cp_rs1_b7>:
I_beq_cg_cp_rs1_b7:
  beq x7, x15, 1f # perform operation
    11b0:	00f38463          	beq	x7,x15,11b8 <I_beq_cg_cp_rs1_b7+0x8>
  LI(x28, -1) # branch not taken, set temp_reg to 0
    11b4:	fff00e13          	addi	x28,x0,-1
1:
  # Check if x28 contains the expected result. x27 is the signature ptr, x14 is the link ptr, x13 is a temp reg.
  RVTEST_SIGUPD(x27, x14, x13, x28, I_beq_cg_cp_rs1_b7, I_beq_cg_cp_rs1_b7_str)
    11b8:	000da683          	lw	x13,0(x27)
    11bc:	01c68863          	beq	x13,x28,11cc <I_beq_cg_cp_rs1_b7+0x1c>
    11c0:	6fd0876f          	jal	x14,a0bc <failedtest_x14_x13>
    11c4:	000011b0          	.word	0x000011b0
    11c8:	0000cc73          	.word	0x0000cc73
    11cc:	004d8d93          	addi	x27,x27,4

# Testcase cp_rs1 (Test source rs1 = x8)
  RVTEST_TESTDATA_LOAD_INT(x25, x8) # load rs1: x8 = 0xceb1de52
    11d0:	000ca403          	lw	x8,0(x25)
    11d4:	004c8c93          	addi	x25,x25,4
  RVTEST_TESTDATA_LOAD_INT(x25, x2) # load rs2: x2 = 0x15737677
    11d8:	000ca103          	lw	x2,0(x25)
    11dc:	004c8c93          	addi	x25,x25,4
  RVTEST_TESTDATA_LOAD_INT(x25, x6) # load branch taken value: x6 = 0x0b3898f8
    11e0:	000ca303          	lw	x6,0(x25)
    11e4:	004c8c93          	addi	x25,x25,4

000011e8 <I_beq_cg_cp_rs1_b8>:
I_beq_cg_cp_rs1_b8:
  beq x8, x2, 1f # perform operation
    11e8:	00240463          	beq	x8,x2,11f0 <I_beq_cg_cp_rs1_b8+0x8>
  LI(x6, -1) # branch not taken, set temp_reg to 0
    11ec:	fff00313          	addi	x6,x0,-1
1:
  # Check if x6 contains the expected result. x27 is the signature ptr, x14 is the link ptr, x13 is a temp reg.
  RVTEST_SIGUPD(x27, x14, x13, x6, I_beq_cg_cp_rs1_b8, I_beq_cg_cp_rs1_b8_str)
    11f0:	000da683          	lw	x13,0(x27)
    11f4:	00668863          	beq	x13,x6,1204 <I_beq_cg_cp_rs1_b8+0x1c>
    11f8:	6c50876f          	jal	x14,a0bc <failedtest_x14_x13>
    11fc:	000011e8          	.word	0x000011e8
    1200:	0000cca0          	.word	0x0000cca0
    1204:	004d8d93          	addi	x27,x27,4

# Testcase cp_rs1 (Test source rs1 = x9)
  RVTEST_TESTDATA_LOAD_INT(x25, x9) # load rs1: x9 = 0xeb58ea57
    1208:	000ca483          	lw	x9,0(x25)
    120c:	004c8c93          	addi	x25,x25,4
  RVTEST_TESTDATA_LOAD_INT(x25, x4) # load rs2: x4 = 0x06dc0567
    1210:	000ca203          	lw	x4,0(x25)
    1214:	004c8c93          	addi	x25,x25,4
  RVTEST_TESTDATA_LOAD_INT(x25, x10) # load branch taken value: x10 = 0xab516e5e
    1218:	000ca503          	lw	x10,0(x25)
    121c:	004c8c93          	addi	x25,x25,4

00001220 <I_beq_cg_cp_rs1_b9>:
I_beq_cg_cp_rs1_b9:
  beq x9, x4, 1f # perform operation
    1220:	00448463          	beq	x9,x4,1228 <I_beq_cg_cp_rs1_b9+0x8>
  LI(x10, -1) # branch not taken, set temp_reg to 0
    1224:	fff00513          	addi	x10,x0,-1
1:
  # Check if x10 contains the expected result. x27 is the signature ptr, x14 is the link ptr, x13 is a temp reg.
  RVTEST_SIGUPD(x27, x14, x13, x10, I_beq_cg_cp_rs1_b9, I_beq_cg_cp_rs1_b9_str)
    1228:	000da683          	lw	x13,0(x27)
    122c:	00a68863          	beq	x13,x10,123c <I_beq_cg_cp_rs1_b9+0x1c>
    1230:	68d0876f          	jal	x14,a0bc <failedtest_x14_x13>
    1234:	00001220          	.word	0x00001220
    1238:	0000cccd          	.word	0x0000cccd
    123c:	004d8d93          	addi	x27,x27,4

# Testcase cp_rs1 (Test source rs1 = x10)
  RVTEST_TESTDATA_LOAD_INT(x25, x10) # load rs1: x10 = 0xb87c0596
    1240:	000ca503          	lw	x10,0(x25)
    1244:	004c8c93          	addi	x25,x25,4
  RVTEST_TESTDATA_LOAD_INT(x25, x1) # load rs2: x1 = 0xae4677ce
    1248:	000ca083          	lw	x1,0(x25)
    124c:	004c8c93          	addi	x25,x25,4
  RVTEST_TESTDATA_LOAD_INT(x25, x11) # load branch taken value: x11 = 0x3f9b8bd6
    1250:	000ca583          	lw	x11,0(x25)
    1254:	004c8c93          	addi	x25,x25,4

00001258 <I_beq_cg_cp_rs1_b10>:
I_beq_cg_cp_rs1_b10:
  beq x10, x1, 1f # perform operation
    1258:	00150463          	beq	x10,x1,1260 <I_beq_cg_cp_rs1_b10+0x8>
  LI(x11, -1) # branch not taken, set temp_reg to 0
    125c:	fff00593          	addi	x11,x0,-1
1:
  # Check if x11 contains the expected result. x27 is the signature ptr, x14 is the link ptr, x13 is a temp reg.
  RVTEST_SIGUPD(x27, x14, x13, x11, I_beq_cg_cp_rs1_b10, I_beq_cg_cp_rs1_b10_str)
    1260:	000da683          	lw	x13,0(x27)
    1264:	00b68863          	beq	x13,x11,1274 <I_beq_cg_cp_rs1_b10+0x1c>
    1268:	6550876f          	jal	x14,a0bc <failedtest_x14_x13>
    126c:	00001258          	.word	0x00001258
    1270:	0000ccfb          	.word	0x0000ccfb
    1274:	004d8d93          	addi	x27,x27,4

# Testcase cp_rs1 (Test source rs1 = x11)
  RVTEST_TESTDATA_LOAD_INT(x25, x11) # load rs1: x11 = 0x71b0f883
    1278:	000ca583          	lw	x11,0(x25)
    127c:	004c8c93          	addi	x25,x25,4
  RVTEST_TESTDATA_LOAD_INT(x25, x8) # load rs2: x8 = 0x716eab1c
    1280:	000ca403          	lw	x8,0(x25)
    1284:	004c8c93          	addi	x25,x25,4
  RVTEST_TESTDATA_LOAD_INT(x25, x20) # load branch taken value: x20 = 0x9f7555c7
    1288:	000caa03          	lw	x20,0(x25)
    128c:	004c8c93          	addi	x25,x25,4

00001290 <I_beq_cg_cp_rs1_b11>:
I_beq_cg_cp_rs1_b11:
  beq x11, x8, 1f # perform operation
    1290:	00858463          	beq	x11,x8,1298 <I_beq_cg_cp_rs1_b11+0x8>
  LI(x20, -1) # branch not taken, set temp_reg to 0
    1294:	fff00a13          	addi	x20,x0,-1
1:
  # Check if x20 contains the expected result. x27 is the signature ptr, x14 is the link ptr, x13 is a temp reg.
  RVTEST_SIGUPD(x27, x14, x13, x20, I_beq_cg_cp_rs1_b11, I_beq_cg_cp_rs1_b11_str)
    1298:	000da683          	lw	x13,0(x27)
    129c:	01468863          	beq	x13,x20,12ac <I_beq_cg_cp_rs1_b11+0x1c>
    12a0:	61d0876f          	jal	x14,a0bc <failedtest_x14_x13>
    12a4:	00001290          	.word	0x00001290
    12a8:	0000cd2a          	.word	0x0000cd2a
    12ac:	004d8d93          	addi	x27,x27,4

# Testcase cp_rs1 (Test source rs1 = x12)
  RVTEST_TESTDATA_LOAD_INT(x25, x12) # load rs1: x12 = 0xffe3dac5
    12b0:	000ca603          	lw	x12,0(x25)
    12b4:	004c8c93          	addi	x25,x25,4
  RVTEST_TESTDATA_LOAD_INT(x25, x30) # load rs2: x30 = 0x2aacda66
    12b8:	000caf03          	lw	x30,0(x25)
    12bc:	004c8c93          	addi	x25,x25,4
  RVTEST_TESTDATA_LOAD_INT(x25, x9) # load branch taken value: x9 = 0x4485765f
    12c0:	000ca483          	lw	x9,0(x25)
    12c4:	004c8c93          	addi	x25,x25,4

000012c8 <I_beq_cg_cp_rs1_b12>:
I_beq_cg_cp_rs1_b12:
  beq x12, x30, 1f # perform operation
    12c8:	01e60463          	beq	x12,x30,12d0 <I_beq_cg_cp_rs1_b12+0x8>
  LI(x9, -1) # branch not taken, set temp_reg to 0
    12cc:	fff00493          	addi	x9,x0,-1
1:
  # Check if x9 contains the expected result. x27 is the signature ptr, x14 is the link ptr, x13 is a temp reg.
  RVTEST_SIGUPD(x27, x14, x13, x9, I_beq_cg_cp_rs1_b12, I_beq_cg_cp_rs1_b12_str)
    12d0:	000da683          	lw	x13,0(x27)
    12d4:	00968863          	beq	x13,x9,12e4 <I_beq_cg_cp_rs1_b12+0x1c>
    12d8:	5e50876f          	jal	x14,a0bc <failedtest_x14_x13>
    12dc:	000012c8          	.word	0x000012c8
    12e0:	0000cd59          	.word	0x0000cd59
    12e4:	004d8d93          	addi	x27,x27,4

  mv x4, x13 # switch temp register to avoid conflict with test
    12e8:	00068213          	addi	x4,x13,0
  mv x5, x14 # switch link pointer register to avoid conflict with test
    12ec:	00070293          	addi	x5,x14,0
# Testcase cp_rs1 (Test source rs1 = x13)
  RVTEST_TESTDATA_LOAD_INT(x25, x13) # load rs1: x13 = 0xf60608a6
    12f0:	000ca683          	lw	x13,0(x25)
    12f4:	004c8c93          	addi	x25,x25,4
  RVTEST_TESTDATA_LOAD_INT(x25, x24) # load rs2: x24 = 0x8ecd1c73
    12f8:	000cac03          	lw	x24,0(x25)
    12fc:	004c8c93          	addi	x25,x25,4
  RVTEST_TESTDATA_LOAD_INT(x25, x1) # load branch taken value: x1 = 0x498d80aa
    1300:	000ca083          	lw	x1,0(x25)
    1304:	004c8c93          	addi	x25,x25,4

00001308 <I_beq_cg_cp_rs1_b13>:
I_beq_cg_cp_rs1_b13:
  beq x13, x24, 1f # perform operation
    1308:	01868463          	beq	x13,x24,1310 <I_beq_cg_cp_rs1_b13+0x8>
  LI(x1, -1) # branch not taken, set temp_reg to 0
    130c:	fff00093          	addi	x1,x0,-1
1:
  # Check if x1 contains the expected result. x27 is the signature ptr, x5 is the link ptr, x4 is a temp reg.
  RVTEST_SIGUPD(x27, x5, x4, x1, I_beq_cg_cp_rs1_b13, I_beq_cg_cp_rs1_b13_str)
    1310:	000da203          	lw	x4,0(x27)
    1314:	00120863          	beq	x4,x1,1324 <I_beq_cg_cp_rs1_b13+0x1c>
    1318:	565082ef          	jal	x5,a07c <failedtest_x5_x4>
    131c:	00001308          	.word	0x00001308
    1320:	0000cd88          	.word	0x0000cd88
    1324:	004d8d93          	addi	x27,x27,4

# Testcase cp_rs1 (Test source rs1 = x14)
  RVTEST_TESTDATA_LOAD_INT(x25, x14) # load rs1: x14 = 0x605c4754
    1328:	000ca703          	lw	x14,0(x25)
    132c:	004c8c93          	addi	x25,x25,4
  RVTEST_TESTDATA_LOAD_INT(x25, x31) # load rs2: x31 = 0xf5d72f0d
    1330:	000caf83          	lw	x31,0(x25)
    1334:	004c8c93          	addi	x25,x25,4
  RVTEST_TESTDATA_LOAD_INT(x25, x12) # load branch taken value: x12 = 0xce31b346
    1338:	000ca603          	lw	x12,0(x25)
    133c:	004c8c93          	addi	x25,x25,4

00001340 <I_beq_cg_cp_rs1_b14>:
I_beq_cg_cp_rs1_b14:
  beq x14, x31, 1f # perform operation
    1340:	01f70463          	beq	x14,x31,1348 <I_beq_cg_cp_rs1_b14+0x8>
  LI(x12, -1) # branch not taken, set temp_reg to 0
    1344:	fff00613          	addi	x12,x0,-1
1:
  # Check if x12 contains the expected result. x27 is the signature ptr, x5 is the link ptr, x4 is a temp reg.
  RVTEST_SIGUPD(x27, x5, x4, x12, I_beq_cg_cp_rs1_b14, I_beq_cg_cp_rs1_b14_str)
    1348:	000da203          	lw	x4,0(x27)
    134c:	00c20863          	beq	x4,x12,135c <I_beq_cg_cp_rs1_b14+0x1c>
    1350:	52d082ef          	jal	x5,a07c <failedtest_x5_x4>
    1354:	00001340          	.word	0x00001340
    1358:	0000cdb7          	.word	0x0000cdb7
    135c:	004d8d93          	addi	x27,x27,4

# Testcase cp_rs1 (Test source rs1 = x15)
  RVTEST_TESTDATA_LOAD_INT(x25, x15) # load rs1: x15 = 0x21458a0c
    1360:	000ca783          	lw	x15,0(x25)
    1364:	004c8c93          	addi	x25,x25,4
  RVTEST_TESTDATA_LOAD_INT(x25, x7) # load rs2: x7 = 0x8605869e
    1368:	000ca383          	lw	x7,0(x25)
    136c:	004c8c93          	addi	x25,x25,4
  RVTEST_TESTDATA_LOAD_INT(x25, x20) # load branch taken value: x20 = 0x28716b17
    1370:	000caa03          	lw	x20,0(x25)
    1374:	004c8c93          	addi	x25,x25,4

00001378 <I_beq_cg_cp_rs1_b15>:
I_beq_cg_cp_rs1_b15:
  beq x15, x7, 1f # perform operation
    1378:	00778463          	beq	x15,x7,1380 <I_beq_cg_cp_rs1_b15+0x8>
  LI(x20, -1) # branch not taken, set temp_reg to 0
    137c:	fff00a13          	addi	x20,x0,-1
1:
  # Check if x20 contains the expected result. x27 is the signature ptr, x5 is the link ptr, x4 is a temp reg.
  RVTEST_SIGUPD(x27, x5, x4, x20, I_beq_cg_cp_rs1_b15, I_beq_cg_cp_rs1_b15_str)
    1380:	000da203          	lw	x4,0(x27)
    1384:	01420863          	beq	x4,x20,1394 <I_beq_cg_cp_rs1_b15+0x1c>
    1388:	4f5082ef          	jal	x5,a07c <failedtest_x5_x4>
    138c:	00001378          	.word	0x00001378
    1390:	0000cde6          	.word	0x0000cde6
    1394:	004d8d93          	addi	x27,x27,4

# Testcase cp_rs1 (Test source rs1 = x16)
  RVTEST_TESTDATA_LOAD_INT(x25, x16) # load rs1: x16 = 0x9a902c2b
    1398:	000ca803          	lw	x16,0(x25)
    139c:	004c8c93          	addi	x25,x25,4
  RVTEST_TESTDATA_LOAD_INT(x25, x24) # load rs2: x24 = 0x686d07ca
    13a0:	000cac03          	lw	x24,0(x25)
    13a4:	004c8c93          	addi	x25,x25,4
  RVTEST_TESTDATA_LOAD_INT(x25, x12) # load branch taken value: x12 = 0x756f91eb
    13a8:	000ca603          	lw	x12,0(x25)
    13ac:	004c8c93          	addi	x25,x25,4

000013b0 <I_beq_cg_cp_rs1_b16>:
I_beq_cg_cp_rs1_b16:
  beq x16, x24, 1f # perform operation
    13b0:	01880463          	beq	x16,x24,13b8 <I_beq_cg_cp_rs1_b16+0x8>
  LI(x12, -1) # branch not taken, set temp_reg to 0
    13b4:	fff00613          	addi	x12,x0,-1
1:
  # Check if x12 contains the expected result. x27 is the signature ptr, x5 is the link ptr, x4 is a temp reg.
  RVTEST_SIGUPD(x27, x5, x4, x12, I_beq_cg_cp_rs1_b16, I_beq_cg_cp_rs1_b16_str)
    13b8:	000da203          	lw	x4,0(x27)
    13bc:	00c20863          	beq	x4,x12,13cc <I_beq_cg_cp_rs1_b16+0x1c>
    13c0:	4bd082ef          	jal	x5,a07c <failedtest_x5_x4>
    13c4:	000013b0          	.word	0x000013b0
    13c8:	0000ce15          	.word	0x0000ce15
    13cc:	004d8d93          	addi	x27,x27,4

# Testcase cp_rs1 (Test source rs1 = x17)
  RVTEST_TESTDATA_LOAD_INT(x25, x17) # load rs1: x17 = 0xa077e84e
    13d0:	000ca883          	lw	x17,0(x25)
    13d4:	004c8c93          	addi	x25,x25,4
  RVTEST_TESTDATA_LOAD_INT(x25, x10) # load rs2: x10 = 0xc342f8c6
    13d8:	000ca503          	lw	x10,0(x25)
    13dc:	004c8c93          	addi	x25,x25,4
  RVTEST_TESTDATA_LOAD_INT(x25, x23) # load branch taken value: x23 = 0x9dcf0a3d
    13e0:	000cab83          	lw	x23,0(x25)
    13e4:	004c8c93          	addi	x25,x25,4

000013e8 <I_beq_cg_cp_rs1_b17>:
I_beq_cg_cp_rs1_b17:
  beq x17, x10, 1f # perform operation
    13e8:	00a88463          	beq	x17,x10,13f0 <I_beq_cg_cp_rs1_b17+0x8>
  LI(x23, -1) # branch not taken, set temp_reg to 0
    13ec:	fff00b93          	addi	x23,x0,-1
1:
  # Check if x23 contains the expected result. x27 is the signature ptr, x5 is the link ptr, x4 is a temp reg.
  RVTEST_SIGUPD(x27, x5, x4, x23, I_beq_cg_cp_rs1_b17, I_beq_cg_cp_rs1_b17_str)
    13f0:	000da203          	lw	x4,0(x27)
    13f4:	01720863          	beq	x4,x23,1404 <I_beq_cg_cp_rs1_b17+0x1c>
    13f8:	485082ef          	jal	x5,a07c <failedtest_x5_x4>
    13fc:	000013e8          	.word	0x000013e8
    1400:	0000ce44          	.word	0x0000ce44
    1404:	004d8d93          	addi	x27,x27,4

# Testcase cp_rs1 (Test source rs1 = x18)
  RVTEST_TESTDATA_LOAD_INT(x25, x18) # load rs1: x18 = 0x13373a13
    1408:	000ca903          	lw	x18,0(x25)
    140c:	004c8c93          	addi	x25,x25,4
  RVTEST_TESTDATA_LOAD_INT(x25, x29) # load rs2: x29 = 0x632af27d
    1410:	000cae83          	lw	x29,0(x25)
    1414:	004c8c93          	addi	x25,x25,4
  RVTEST_TESTDATA_LOAD_INT(x25, x31) # load branch taken value: x31 = 0x0d6abe33
    1418:	000caf83          	lw	x31,0(x25)
    141c:	004c8c93          	addi	x25,x25,4

00001420 <I_beq_cg_cp_rs1_b18>:
I_beq_cg_cp_rs1_b18:
  beq x18, x29, 1f # perform operation
    1420:	01d90463          	beq	x18,x29,1428 <I_beq_cg_cp_rs1_b18+0x8>
  LI(x31, -1) # branch not taken, set temp_reg to 0
    1424:	fff00f93          	addi	x31,x0,-1
1:
  # Check if x31 contains the expected result. x27 is the signature ptr, x5 is the link ptr, x4 is a temp reg.
  RVTEST_SIGUPD(x27, x5, x4, x31, I_beq_cg_cp_rs1_b18, I_beq_cg_cp_rs1_b18_str)
    1428:	000da203          	lw	x4,0(x27)
    142c:	01f20863          	beq	x4,x31,143c <I_beq_cg_cp_rs1_b18+0x1c>
    1430:	44d082ef          	jal	x5,a07c <failedtest_x5_x4>
    1434:	00001420          	.word	0x00001420
    1438:	0000ce73          	.word	0x0000ce73
    143c:	004d8d93          	addi	x27,x27,4

# Testcase cp_rs1 (Test source rs1 = x19)
  RVTEST_TESTDATA_LOAD_INT(x25, x19) # load rs1: x19 = 0xf5121e85
    1440:	000ca983          	lw	x19,0(x25)
    1444:	004c8c93          	addi	x25,x25,4
  RVTEST_TESTDATA_LOAD_INT(x25, x26) # load rs2: x26 = 0x220a1857
    1448:	000cad03          	lw	x26,0(x25)
    144c:	004c8c93          	addi	x25,x25,4
  RVTEST_TESTDATA_LOAD_INT(x25, x3) # load branch taken value: x3 = 0x774f005e
    1450:	000ca183          	lw	x3,0(x25)
    1454:	004c8c93          	addi	x25,x25,4

00001458 <I_beq_cg_cp_rs1_b19>:
I_beq_cg_cp_rs1_b19:
  beq x19, x26, 1f # perform operation
    1458:	01a98463          	beq	x19,x26,1460 <I_beq_cg_cp_rs1_b19+0x8>
  LI(x3, -1) # branch not taken, set temp_reg to 0
    145c:	fff00193          	addi	x3,x0,-1
1:
  # Check if x3 contains the expected result. x27 is the signature ptr, x5 is the link ptr, x4 is a temp reg.
  RVTEST_SIGUPD(x27, x5, x4, x3, I_beq_cg_cp_rs1_b19, I_beq_cg_cp_rs1_b19_str)
    1460:	000da203          	lw	x4,0(x27)
    1464:	00320863          	beq	x4,x3,1474 <I_beq_cg_cp_rs1_b19+0x1c>
    1468:	415082ef          	jal	x5,a07c <failedtest_x5_x4>
    146c:	00001458          	.word	0x00001458
    1470:	0000cea2          	.word	0x0000cea2
    1474:	004d8d93          	addi	x27,x27,4

# Testcase cp_rs1 (Test source rs1 = x20)
  RVTEST_TESTDATA_LOAD_INT(x25, x20) # load rs1: x20 = 0x4759c544
    1478:	000caa03          	lw	x20,0(x25)
    147c:	004c8c93          	addi	x25,x25,4
  RVTEST_TESTDATA_LOAD_INT(x25, x15) # load rs2: x15 = 0xe3df0c1e
    1480:	000ca783          	lw	x15,0(x25)
    1484:	004c8c93          	addi	x25,x25,4
  RVTEST_TESTDATA_LOAD_INT(x25, x10) # load branch taken value: x10 = 0xb5de0849
    1488:	000ca503          	lw	x10,0(x25)
    148c:	004c8c93          	addi	x25,x25,4

00001490 <I_beq_cg_cp_rs1_b20>:
I_beq_cg_cp_rs1_b20:
  beq x20, x15, 1f # perform operation
    1490:	00fa0463          	beq	x20,x15,1498 <I_beq_cg_cp_rs1_b20+0x8>
  LI(x10, -1) # branch not taken, set temp_reg to 0
    1494:	fff00513          	addi	x10,x0,-1
1:
  # Check if x10 contains the expected result. x27 is the signature ptr, x5 is the link ptr, x4 is a temp reg.
  RVTEST_SIGUPD(x27, x5, x4, x10, I_beq_cg_cp_rs1_b20, I_beq_cg_cp_rs1_b20_str)
    1498:	000da203          	lw	x4,0(x27)
    149c:	00a20863          	beq	x4,x10,14ac <I_beq_cg_cp_rs1_b20+0x1c>
    14a0:	3dd082ef          	jal	x5,a07c <failedtest_x5_x4>
    14a4:	00001490          	.word	0x00001490
    14a8:	0000ced1          	.word	0x0000ced1
    14ac:	004d8d93          	addi	x27,x27,4

# Testcase cp_rs1 (Test source rs1 = x21)
  RVTEST_TESTDATA_LOAD_INT(x25, x21) # load rs1: x21 = 0x1ca66128
    14b0:	000caa83          	lw	x21,0(x25)
    14b4:	004c8c93          	addi	x25,x25,4
  RVTEST_TESTDATA_LOAD_INT(x25, x17) # load rs2: x17 = 0x8fbd1867
    14b8:	000ca883          	lw	x17,0(x25)
    14bc:	004c8c93          	addi	x25,x25,4
  RVTEST_TESTDATA_LOAD_INT(x25, x20) # load branch taken value: x20 = 0xcb1f9d3d
    14c0:	000caa03          	lw	x20,0(x25)
    14c4:	004c8c93          	addi	x25,x25,4

000014c8 <I_beq_cg_cp_rs1_b21>:
I_beq_cg_cp_rs1_b21:
  beq x21, x17, 1f # perform operation
    14c8:	011a8463          	beq	x21,x17,14d0 <I_beq_cg_cp_rs1_b21+0x8>
  LI(x20, -1) # branch not taken, set temp_reg to 0
    14cc:	fff00a13          	addi	x20,x0,-1
1:
  # Check if x20 contains the expected result. x27 is the signature ptr, x5 is the link ptr, x4 is a temp reg.
  RVTEST_SIGUPD(x27, x5, x4, x20, I_beq_cg_cp_rs1_b21, I_beq_cg_cp_rs1_b21_str)
    14d0:	000da203          	lw	x4,0(x27)
    14d4:	01420863          	beq	x4,x20,14e4 <I_beq_cg_cp_rs1_b21+0x1c>
    14d8:	3a5082ef          	jal	x5,a07c <failedtest_x5_x4>
    14dc:	000014c8          	.word	0x000014c8
    14e0:	0000cf00          	.word	0x0000cf00
    14e4:	004d8d93          	addi	x27,x27,4

# Testcase cp_rs1 (Test source rs1 = x22)
  RVTEST_TESTDATA_LOAD_INT(x25, x22) # load rs1: x22 = 0x1f53b2dd
    14e8:	000cab03          	lw	x22,0(x25)
    14ec:	004c8c93          	addi	x25,x25,4
  RVTEST_TESTDATA_LOAD_INT(x25, x9) # load rs2: x9 = 0x7493f7a4
    14f0:	000ca483          	lw	x9,0(x25)
    14f4:	004c8c93          	addi	x25,x25,4
  RVTEST_TESTDATA_LOAD_INT(x25, x3) # load branch taken value: x3 = 0x33660ba5
    14f8:	000ca183          	lw	x3,0(x25)
    14fc:	004c8c93          	addi	x25,x25,4

00001500 <I_beq_cg_cp_rs1_b22>:
I_beq_cg_cp_rs1_b22:
  beq x22, x9, 1f # perform operation
    1500:	009b0463          	beq	x22,x9,1508 <I_beq_cg_cp_rs1_b22+0x8>
  LI(x3, -1) # branch not taken, set temp_reg to 0
    1504:	fff00193          	addi	x3,x0,-1
1:
  # Check if x3 contains the expected result. x27 is the signature ptr, x5 is the link ptr, x4 is a temp reg.
  RVTEST_SIGUPD(x27, x5, x4, x3, I_beq_cg_cp_rs1_b22, I_beq_cg_cp_rs1_b22_str)
    1508:	000da203          	lw	x4,0(x27)
    150c:	00320863          	beq	x4,x3,151c <I_beq_cg_cp_rs1_b22+0x1c>
    1510:	36d082ef          	jal	x5,a07c <failedtest_x5_x4>
    1514:	00001500          	.word	0x00001500
    1518:	0000cf2f          	.word	0x0000cf2f
    151c:	004d8d93          	addi	x27,x27,4

# Testcase cp_rs1 (Test source rs1 = x23)
  RVTEST_TESTDATA_LOAD_INT(x25, x23) # load rs1: x23 = 0x1a2d41a0
    1520:	000cab83          	lw	x23,0(x25)
    1524:	004c8c93          	addi	x25,x25,4
  RVTEST_TESTDATA_LOAD_INT(x25, x20) # load rs2: x20 = 0x028d82bb
    1528:	000caa03          	lw	x20,0(x25)
    152c:	004c8c93          	addi	x25,x25,4
  RVTEST_TESTDATA_LOAD_INT(x25, x24) # load branch taken value: x24 = 0xcf6c85da
    1530:	000cac03          	lw	x24,0(x25)
    1534:	004c8c93          	addi	x25,x25,4

00001538 <I_beq_cg_cp_rs1_b23>:
I_beq_cg_cp_rs1_b23:
  beq x23, x20, 1f # perform operation
    1538:	014b8463          	beq	x23,x20,1540 <I_beq_cg_cp_rs1_b23+0x8>
  LI(x24, -1) # branch not taken, set temp_reg to 0
    153c:	fff00c13          	addi	x24,x0,-1
1:
  # Check if x24 contains the expected result. x27 is the signature ptr, x5 is the link ptr, x4 is a temp reg.
  RVTEST_SIGUPD(x27, x5, x4, x24, I_beq_cg_cp_rs1_b23, I_beq_cg_cp_rs1_b23_str)
    1540:	000da203          	lw	x4,0(x27)
    1544:	01820863          	beq	x4,x24,1554 <I_beq_cg_cp_rs1_b23+0x1c>
    1548:	335082ef          	jal	x5,a07c <failedtest_x5_x4>
    154c:	00001538          	.word	0x00001538
    1550:	0000cf5e          	.word	0x0000cf5e
    1554:	004d8d93          	addi	x27,x27,4

# Testcase cp_rs1 (Test source rs1 = x24)
  RVTEST_TESTDATA_LOAD_INT(x25, x24) # load rs1: x24 = 0xf0a9167e
    1558:	000cac03          	lw	x24,0(x25)
    155c:	004c8c93          	addi	x25,x25,4
  RVTEST_TESTDATA_LOAD_INT(x25, x2) # load rs2: x2 = 0xe0f4bc88
    1560:	000ca103          	lw	x2,0(x25)
    1564:	004c8c93          	addi	x25,x25,4
  RVTEST_TESTDATA_LOAD_INT(x25, x7) # load branch taken value: x7 = 0x34ab5825
    1568:	000ca383          	lw	x7,0(x25)
    156c:	004c8c93          	addi	x25,x25,4

00001570 <I_beq_cg_cp_rs1_b24>:
I_beq_cg_cp_rs1_b24:
  beq x24, x2, 1f # perform operation
    1570:	002c0463          	beq	x24,x2,1578 <I_beq_cg_cp_rs1_b24+0x8>
  LI(x7, -1) # branch not taken, set temp_reg to 0
    1574:	fff00393          	addi	x7,x0,-1
1:
  # Check if x7 contains the expected result. x27 is the signature ptr, x5 is the link ptr, x4 is a temp reg.
  RVTEST_SIGUPD(x27, x5, x4, x7, I_beq_cg_cp_rs1_b24, I_beq_cg_cp_rs1_b24_str)
    1578:	000da203          	lw	x4,0(x27)
    157c:	00720863          	beq	x4,x7,158c <I_beq_cg_cp_rs1_b24+0x1c>
    1580:	2fd082ef          	jal	x5,a07c <failedtest_x5_x4>
    1584:	00001570          	.word	0x00001570
    1588:	0000cf8d          	.word	0x0000cf8d
    158c:	004d8d93          	addi	x27,x27,4

  mv x24, x25 # switch data pointer register to avoid conflict with test
    1590:	000c8c13          	addi	x24,x25,0
# Testcase cp_rs1 (Test source rs1 = x25)
  RVTEST_TESTDATA_LOAD_INT(x24, x25) # load rs1: x25 = 0x5c9de638
    1594:	000c2c83          	lw	x25,0(x24)
    1598:	004c0c13          	addi	x24,x24,4
  RVTEST_TESTDATA_LOAD_INT(x24, x31) # load rs2: x31 = 0xe5fde9f0
    159c:	000c2f83          	lw	x31,0(x24)
    15a0:	004c0c13          	addi	x24,x24,4
  RVTEST_TESTDATA_LOAD_INT(x24, x29) # load branch taken value: x29 = 0x864417ad
    15a4:	000c2e83          	lw	x29,0(x24)
    15a8:	004c0c13          	addi	x24,x24,4

000015ac <I_beq_cg_cp_rs1_b25>:
I_beq_cg_cp_rs1_b25:
  beq x25, x31, 1f # perform operation
    15ac:	01fc8463          	beq	x25,x31,15b4 <I_beq_cg_cp_rs1_b25+0x8>
  LI(x29, -1) # branch not taken, set temp_reg to 0
    15b0:	fff00e93          	addi	x29,x0,-1
1:
  # Check if x29 contains the expected result. x27 is the signature ptr, x5 is the link ptr, x4 is a temp reg.
  RVTEST_SIGUPD(x27, x5, x4, x29, I_beq_cg_cp_rs1_b25, I_beq_cg_cp_rs1_b25_str)
    15b4:	000da203          	lw	x4,0(x27)
    15b8:	01d20863          	beq	x4,x29,15c8 <I_beq_cg_cp_rs1_b25+0x1c>
    15bc:	2c1082ef          	jal	x5,a07c <failedtest_x5_x4>
    15c0:	000015ac          	.word	0x000015ac
    15c4:	0000cfbc          	.word	0x0000cfbc
    15c8:	004d8d93          	addi	x27,x27,4

# Testcase cp_rs1 (Test source rs1 = x26)
  RVTEST_TESTDATA_LOAD_INT(x24, x26) # load rs1: x26 = 0xa78de22c
    15cc:	000c2d03          	lw	x26,0(x24)
    15d0:	004c0c13          	addi	x24,x24,4
  RVTEST_TESTDATA_LOAD_INT(x24, x15) # load rs2: x15 = 0xc312a58c
    15d4:	000c2783          	lw	x15,0(x24)
    15d8:	004c0c13          	addi	x24,x24,4
  RVTEST_TESTDATA_LOAD_INT(x24, x10) # load branch taken value: x10 = 0x6d33d277
    15dc:	000c2503          	lw	x10,0(x24)
    15e0:	004c0c13          	addi	x24,x24,4

000015e4 <I_beq_cg_cp_rs1_b26>:
I_beq_cg_cp_rs1_b26:
  beq x26, x15, 1f # perform operation
    15e4:	00fd0463          	beq	x26,x15,15ec <I_beq_cg_cp_rs1_b26+0x8>
  LI(x10, -1) # branch not taken, set temp_reg to 0
    15e8:	fff00513          	addi	x10,x0,-1
1:
  # Check if x10 contains the expected result. x27 is the signature ptr, x5 is the link ptr, x4 is a temp reg.
  RVTEST_SIGUPD(x27, x5, x4, x10, I_beq_cg_cp_rs1_b26, I_beq_cg_cp_rs1_b26_str)
    15ec:	000da203          	lw	x4,0(x27)
    15f0:	00a20863          	beq	x4,x10,1600 <I_beq_cg_cp_rs1_b26+0x1c>
    15f4:	289082ef          	jal	x5,a07c <failedtest_x5_x4>
    15f8:	000015e4          	.word	0x000015e4
    15fc:	0000cfeb          	.word	0x0000cfeb
    1600:	004d8d93          	addi	x27,x27,4

  mv x10, x27 # switch signature pointer register to avoid conflict with test
    1604:	000d8513          	addi	x10,x27,0
# Testcase cp_rs1 (Test source rs1 = x27)
  RVTEST_TESTDATA_LOAD_INT(x24, x27) # load rs1: x27 = 0x276e6cb5
    1608:	000c2d83          	lw	x27,0(x24)
    160c:	004c0c13          	addi	x24,x24,4
  RVTEST_TESTDATA_LOAD_INT(x24, x19) # load rs2: x19 = 0x5b9a54d3
    1610:	000c2983          	lw	x19,0(x24)
    1614:	004c0c13          	addi	x24,x24,4
  RVTEST_TESTDATA_LOAD_INT(x24, x7) # load branch taken value: x7 = 0x0f2662de
    1618:	000c2383          	lw	x7,0(x24)
    161c:	004c0c13          	addi	x24,x24,4

00001620 <I_beq_cg_cp_rs1_b27>:
I_beq_cg_cp_rs1_b27:
  beq x27, x19, 1f # perform operation
    1620:	013d8463          	beq	x27,x19,1628 <I_beq_cg_cp_rs1_b27+0x8>
  LI(x7, -1) # branch not taken, set temp_reg to 0
    1624:	fff00393          	addi	x7,x0,-1
1:
  # Check if x7 contains the expected result. x10 is the signature ptr, x5 is the link ptr, x4 is a temp reg.
  RVTEST_SIGUPD(x10, x5, x4, x7, I_beq_cg_cp_rs1_b27, I_beq_cg_cp_rs1_b27_str)
    1628:	00052203          	lw	x4,0(x10)
    162c:	00720863          	beq	x4,x7,163c <I_beq_cg_cp_rs1_b27+0x1c>
    1630:	24d082ef          	jal	x5,a07c <failedtest_x5_x4>
    1634:	00001620          	.word	0x00001620
    1638:	0000d01a          	.word	0x0000d01a
    163c:	00450513          	addi	x10,x10,4

# Testcase cp_rs1 (Test source rs1 = x28)
  RVTEST_TESTDATA_LOAD_INT(x24, x28) # load rs1: x28 = 0x71dcd004
    1640:	000c2e03          	lw	x28,0(x24)
    1644:	004c0c13          	addi	x24,x24,4
  RVTEST_TESTDATA_LOAD_INT(x24, x19) # load rs2: x19 = 0x97cbdff9
    1648:	000c2983          	lw	x19,0(x24)
    164c:	004c0c13          	addi	x24,x24,4
  RVTEST_TESTDATA_LOAD_INT(x24, x21) # load branch taken value: x21 = 0x1c43814e
    1650:	000c2a83          	lw	x21,0(x24)
    1654:	004c0c13          	addi	x24,x24,4

00001658 <I_beq_cg_cp_rs1_b28>:
I_beq_cg_cp_rs1_b28:
  beq x28, x19, 1f # perform operation
    1658:	013e0463          	beq	x28,x19,1660 <I_beq_cg_cp_rs1_b28+0x8>
  LI(x21, -1) # branch not taken, set temp_reg to 0
    165c:	fff00a93          	addi	x21,x0,-1
1:
  # Check if x21 contains the expected result. x10 is the signature ptr, x5 is the link ptr, x4 is a temp reg.
  RVTEST_SIGUPD(x10, x5, x4, x21, I_beq_cg_cp_rs1_b28, I_beq_cg_cp_rs1_b28_str)
    1660:	00052203          	lw	x4,0(x10)
    1664:	01520863          	beq	x4,x21,1674 <I_beq_cg_cp_rs1_b28+0x1c>
    1668:	215082ef          	jal	x5,a07c <failedtest_x5_x4>
    166c:	00001658          	.word	0x00001658
    1670:	0000d049          	.word	0x0000d049
    1674:	00450513          	addi	x10,x10,4

# Testcase cp_rs1 (Test source rs1 = x29)
  RVTEST_TESTDATA_LOAD_INT(x24, x29) # load rs1: x29 = 0xca3696ad
    1678:	000c2e83          	lw	x29,0(x24)
    167c:	004c0c13          	addi	x24,x24,4
  RVTEST_TESTDATA_LOAD_INT(x24, x0) # load rs2: x0 = 0x0b3c733c
    1680:	000c2003          	lw	x0,0(x24)
    1684:	004c0c13          	addi	x24,x24,4
  RVTEST_TESTDATA_LOAD_INT(x24, x26) # load branch taken value: x26 = 0x07db52f5
    1688:	000c2d03          	lw	x26,0(x24)
    168c:	004c0c13          	addi	x24,x24,4

00001690 <I_beq_cg_cp_rs1_b29>:
I_beq_cg_cp_rs1_b29:
  beq x29, x0, 1f # perform operation
    1690:	000e8463          	beq	x29,x0,1698 <I_beq_cg_cp_rs1_b29+0x8>
  LI(x26, -1) # branch not taken, set temp_reg to 0
    1694:	fff00d13          	addi	x26,x0,-1
1:
  # Check if x26 contains the expected result. x10 is the signature ptr, x5 is the link ptr, x4 is a temp reg.
  RVTEST_SIGUPD(x10, x5, x4, x26, I_beq_cg_cp_rs1_b29, I_beq_cg_cp_rs1_b29_str)
    1698:	00052203          	lw	x4,0(x10)
    169c:	01a20863          	beq	x4,x26,16ac <I_beq_cg_cp_rs1_b29+0x1c>
    16a0:	1dd082ef          	jal	x5,a07c <failedtest_x5_x4>
    16a4:	00001690          	.word	0x00001690
    16a8:	0000d078          	.word	0x0000d078
    16ac:	00450513          	addi	x10,x10,4

# Testcase cp_rs1 (Test source rs1 = x30)
  RVTEST_TESTDATA_LOAD_INT(x24, x30) # load rs1: x30 = 0x387ba18a
    16b0:	000c2f03          	lw	x30,0(x24)
    16b4:	004c0c13          	addi	x24,x24,4
  RVTEST_TESTDATA_LOAD_INT(x24, x11) # load rs2: x11 = 0x7e9f7974
    16b8:	000c2583          	lw	x11,0(x24)
    16bc:	004c0c13          	addi	x24,x24,4
  RVTEST_TESTDATA_LOAD_INT(x24, x29) # load branch taken value: x29 = 0x77c655bc
    16c0:	000c2e83          	lw	x29,0(x24)
    16c4:	004c0c13          	addi	x24,x24,4

000016c8 <I_beq_cg_cp_rs1_b30>:
I_beq_cg_cp_rs1_b30:
  beq x30, x11, 1f # perform operation
    16c8:	00bf0463          	beq	x30,x11,16d0 <I_beq_cg_cp_rs1_b30+0x8>
  LI(x29, -1) # branch not taken, set temp_reg to 0
    16cc:	fff00e93          	addi	x29,x0,-1
1:
  # Check if x29 contains the expected result. x10 is the signature ptr, x5 is the link ptr, x4 is a temp reg.
  RVTEST_SIGUPD(x10, x5, x4, x29, I_beq_cg_cp_rs1_b30, I_beq_cg_cp_rs1_b30_str)
    16d0:	00052203          	lw	x4,0(x10)
    16d4:	01d20863          	beq	x4,x29,16e4 <I_beq_cg_cp_rs1_b30+0x1c>
    16d8:	1a5082ef          	jal	x5,a07c <failedtest_x5_x4>
    16dc:	000016c8          	.word	0x000016c8
    16e0:	0000d0a7          	.word	0x0000d0a7
    16e4:	00450513          	addi	x10,x10,4

# Testcase cp_rs1 (Test source rs1 = x31)
  RVTEST_TESTDATA_LOAD_INT(x24, x31) # load rs1: x31 = 0x57c83c10
    16e8:	000c2f83          	lw	x31,0(x24)
    16ec:	004c0c13          	addi	x24,x24,4
  RVTEST_TESTDATA_LOAD_INT(x24, x11) # load rs2: x11 = 0x00a999e7
    16f0:	000c2583          	lw	x11,0(x24)
    16f4:	004c0c13          	addi	x24,x24,4
  RVTEST_TESTDATA_LOAD_INT(x24, x27) # load branch taken value: x27 = 0xe9522356
    16f8:	000c2d83          	lw	x27,0(x24)
    16fc:	004c0c13          	addi	x24,x24,4

00001700 <I_beq_cg_cp_rs1_b31>:
I_beq_cg_cp_rs1_b31:
  beq x31, x11, 1f # perform operation
    1700:	00bf8463          	beq	x31,x11,1708 <I_beq_cg_cp_rs1_b31+0x8>
  LI(x27, -1) # branch not taken, set temp_reg to 0
    1704:	fff00d93          	addi	x27,x0,-1
1:
  # Check if x27 contains the expected result. x10 is the signature ptr, x5 is the link ptr, x4 is a temp reg.
  RVTEST_SIGUPD(x10, x5, x4, x27, I_beq_cg_cp_rs1_b31, I_beq_cg_cp_rs1_b31_str)
    1708:	00052203          	lw	x4,0(x10)
    170c:	01b20863          	beq	x4,x27,171c <I_beq_cg_cp_rs1_b31+0x1c>
    1710:	16d082ef          	jal	x5,a07c <failedtest_x5_x4>
    1714:	00001700          	.word	0x00001700
    1718:	0000d0d6          	.word	0x0000d0d6
    171c:	00450513          	addi	x10,x10,4
/////////////////////////////////
// cp_rs2
/////////////////////////////////

# Testcase cp_rs2 (Test source rs2 = x0)
  RVTEST_TESTDATA_LOAD_INT(x24, x26) # load rs1: x26 = 0xbaca3c00
    1720:	000c2d03          	lw	x26,0(x24)
    1724:	004c0c13          	addi	x24,x24,4
  RVTEST_TESTDATA_LOAD_INT(x24, x0) # load rs2: x0 = 0x82a33c7b
    1728:	000c2003          	lw	x0,0(x24)
    172c:	004c0c13          	addi	x24,x24,4
  RVTEST_TESTDATA_LOAD_INT(x24, x18) # load branch taken value: x18 = 0x052bfb4e
    1730:	000c2903          	lw	x18,0(x24)
    1734:	004c0c13          	addi	x24,x24,4

00001738 <I_beq_cg_cp_rs2_b0>:
I_beq_cg_cp_rs2_b0:
  beq x26, x0, 1f # perform operation
    1738:	000d0463          	beq	x26,x0,1740 <I_beq_cg_cp_rs2_b0+0x8>
  LI(x18, -1) # branch not taken, set temp_reg to 0
    173c:	fff00913          	addi	x18,x0,-1
1:
  # Check if x18 contains the expected result. x10 is the signature ptr, x5 is the link ptr, x4 is a temp reg.
  RVTEST_SIGUPD(x10, x5, x4, x18, I_beq_cg_cp_rs2_b0, I_beq_cg_cp_rs2_b0_str)
    1740:	00052203          	lw	x4,0(x10)
    1744:	01220863          	beq	x4,x18,1754 <I_beq_cg_cp_rs2_b0+0x1c>
    1748:	135082ef          	jal	x5,a07c <failedtest_x5_x4>
    174c:	00001738          	.word	0x00001738
    1750:	0000d105          	.word	0x0000d105
    1754:	00450513          	addi	x10,x10,4

# Testcase cp_rs2 (Test source rs2 = x1)
  RVTEST_TESTDATA_LOAD_INT(x24, x15) # load rs1: x15 = 0xfdd84563
    1758:	000c2783          	lw	x15,0(x24)
    175c:	004c0c13          	addi	x24,x24,4
  RVTEST_TESTDATA_LOAD_INT(x24, x1) # load rs2: x1 = 0xc4653001
    1760:	000c2083          	lw	x1,0(x24)
    1764:	004c0c13          	addi	x24,x24,4
  RVTEST_TESTDATA_LOAD_INT(x24, x3) # load branch taken value: x3 = 0x6542ebde
    1768:	000c2183          	lw	x3,0(x24)
    176c:	004c0c13          	addi	x24,x24,4

00001770 <I_beq_cg_cp_rs2_b1>:
I_beq_cg_cp_rs2_b1:
  beq x15, x1, 1f # perform operation
    1770:	00178463          	beq	x15,x1,1778 <I_beq_cg_cp_rs2_b1+0x8>
  LI(x3, -1) # branch not taken, set temp_reg to 0
    1774:	fff00193          	addi	x3,x0,-1
1:
  # Check if x3 contains the expected result. x10 is the signature ptr, x5 is the link ptr, x4 is a temp reg.
  RVTEST_SIGUPD(x10, x5, x4, x3, I_beq_cg_cp_rs2_b1, I_beq_cg_cp_rs2_b1_str)
    1778:	00052203          	lw	x4,0(x10)
    177c:	00320863          	beq	x4,x3,178c <I_beq_cg_cp_rs2_b1+0x1c>
    1780:	0fd082ef          	jal	x5,a07c <failedtest_x5_x4>
    1784:	00001770          	.word	0x00001770
    1788:	0000d133          	.word	0x0000d133
    178c:	00450513          	addi	x10,x10,4

# Testcase cp_rs2 (Test source rs2 = x2)
  RVTEST_TESTDATA_LOAD_INT(x24, x15) # load rs1: x15 = 0xdf6b62b0
    1790:	000c2783          	lw	x15,0(x24)
    1794:	004c0c13          	addi	x24,x24,4
  RVTEST_TESTDATA_LOAD_INT(x24, x2) # load rs2: x2 = 0x89804702
    1798:	000c2103          	lw	x2,0(x24)
    179c:	004c0c13          	addi	x24,x24,4
  RVTEST_TESTDATA_LOAD_INT(x24, x17) # load branch taken value: x17 = 0xc399f871
    17a0:	000c2883          	lw	x17,0(x24)
    17a4:	004c0c13          	addi	x24,x24,4

000017a8 <I_beq_cg_cp_rs2_b2>:
I_beq_cg_cp_rs2_b2:
  beq x15, x2, 1f # perform operation
    17a8:	00278463          	beq	x15,x2,17b0 <I_beq_cg_cp_rs2_b2+0x8>
  LI(x17, -1) # branch not taken, set temp_reg to 0
    17ac:	fff00893          	addi	x17,x0,-1
1:
  # Check if x17 contains the expected result. x10 is the signature ptr, x5 is the link ptr, x4 is a temp reg.
  RVTEST_SIGUPD(x10, x5, x4, x17, I_beq_cg_cp_rs2_b2, I_beq_cg_cp_rs2_b2_str)
    17b0:	00052203          	lw	x4,0(x10)
    17b4:	01120863          	beq	x4,x17,17c4 <I_beq_cg_cp_rs2_b2+0x1c>
    17b8:	0c5082ef          	jal	x5,a07c <failedtest_x5_x4>
    17bc:	000017a8          	.word	0x000017a8
    17c0:	0000d161          	.word	0x0000d161
    17c4:	00450513          	addi	x10,x10,4

# Testcase cp_rs2 (Test source rs2 = x3)
  RVTEST_TESTDATA_LOAD_INT(x24, x7) # load rs1: x7 = 0x7cce5d47
    17c8:	000c2383          	lw	x7,0(x24)
    17cc:	004c0c13          	addi	x24,x24,4
  RVTEST_TESTDATA_LOAD_INT(x24, x3) # load rs2: x3 = 0x631827be
    17d0:	000c2183          	lw	x3,0(x24)
    17d4:	004c0c13          	addi	x24,x24,4
  RVTEST_TESTDATA_LOAD_INT(x24, x25) # load branch taken value: x25 = 0x307942c7
    17d8:	000c2c83          	lw	x25,0(x24)
    17dc:	004c0c13          	addi	x24,x24,4

000017e0 <I_beq_cg_cp_rs2_b3>:
I_beq_cg_cp_rs2_b3:
  beq x7, x3, 1f # perform operation
    17e0:	00338463          	beq	x7,x3,17e8 <I_beq_cg_cp_rs2_b3+0x8>
  LI(x25, -1) # branch not taken, set temp_reg to 0
    17e4:	fff00c93          	addi	x25,x0,-1
1:
  # Check if x25 contains the expected result. x10 is the signature ptr, x5 is the link ptr, x4 is a temp reg.
  RVTEST_SIGUPD(x10, x5, x4, x25, I_beq_cg_cp_rs2_b3, I_beq_cg_cp_rs2_b3_str)
    17e8:	00052203          	lw	x4,0(x10)
    17ec:	01920863          	beq	x4,x25,17fc <I_beq_cg_cp_rs2_b3+0x1c>
    17f0:	08d082ef          	jal	x5,a07c <failedtest_x5_x4>
    17f4:	000017e0          	.word	0x000017e0
    17f8:	0000d18f          	.word	0x0000d18f
    17fc:	00450513          	addi	x10,x10,4

  mv x13, x4 # switch temp register to avoid conflict with test
    1800:	00020693          	addi	x13,x4,0 # 0 <rvtest_entry_point>
  mv x14, x5 # switch link pointer register to avoid conflict with test
    1804:	00028713          	addi	x14,x5,0
# Testcase cp_rs2 (Test source rs2 = x4)
  RVTEST_TESTDATA_LOAD_INT(x24, x3) # load rs1: x3 = 0xc17733df
    1808:	000c2183          	lw	x3,0(x24)
    180c:	004c0c13          	addi	x24,x24,4
  RVTEST_TESTDATA_LOAD_INT(x24, x4) # load rs2: x4 = 0x47098182
    1810:	000c2203          	lw	x4,0(x24)
    1814:	004c0c13          	addi	x24,x24,4
  RVTEST_TESTDATA_LOAD_INT(x24, x15) # load branch taken value: x15 = 0xf4e1f486
    1818:	000c2783          	lw	x15,0(x24)
    181c:	004c0c13          	addi	x24,x24,4

00001820 <I_beq_cg_cp_rs2_b4>:
I_beq_cg_cp_rs2_b4:
  beq x3, x4, 1f # perform operation
    1820:	00418463          	beq	x3,x4,1828 <I_beq_cg_cp_rs2_b4+0x8>
  LI(x15, -1) # branch not taken, set temp_reg to 0
    1824:	fff00793          	addi	x15,x0,-1
1:
  # Check if x15 contains the expected result. x10 is the signature ptr, x14 is the link ptr, x13 is a temp reg.
  RVTEST_SIGUPD(x10, x14, x13, x15, I_beq_cg_cp_rs2_b4, I_beq_cg_cp_rs2_b4_str)
    1828:	00052683          	lw	x13,0(x10)
    182c:	00f68863          	beq	x13,x15,183c <I_beq_cg_cp_rs2_b4+0x1c>
    1830:	08d0876f          	jal	x14,a0bc <failedtest_x14_x13>
    1834:	00001820          	.word	0x00001820
    1838:	0000d1bd          	.word	0x0000d1bd
    183c:	00450513          	addi	x10,x10,4

# Testcase cp_rs2 (Test source rs2 = x5)
  RVTEST_TESTDATA_LOAD_INT(x24, x26) # load rs1: x26 = 0x5d836584
    1840:	000c2d03          	lw	x26,0(x24)
    1844:	004c0c13          	addi	x24,x24,4
  RVTEST_TESTDATA_LOAD_INT(x24, x5) # load rs2: x5 = 0x07bbf3cf
    1848:	000c2283          	lw	x5,0(x24)
    184c:	004c0c13          	addi	x24,x24,4
  RVTEST_TESTDATA_LOAD_INT(x24, x3) # load branch taken value: x3 = 0x38a3e20a
    1850:	000c2183          	lw	x3,0(x24)
    1854:	004c0c13          	addi	x24,x24,4

00001858 <I_beq_cg_cp_rs2_b5>:
I_beq_cg_cp_rs2_b5:
  beq x26, x5, 1f # perform operation
    1858:	005d0463          	beq	x26,x5,1860 <I_beq_cg_cp_rs2_b5+0x8>
  LI(x3, -1) # branch not taken, set temp_reg to 0
    185c:	fff00193          	addi	x3,x0,-1
1:
  # Check if x3 contains the expected result. x10 is the signature ptr, x14 is the link ptr, x13 is a temp reg.
  RVTEST_SIGUPD(x10, x14, x13, x3, I_beq_cg_cp_rs2_b5, I_beq_cg_cp_rs2_b5_str)
    1860:	00052683          	lw	x13,0(x10)
    1864:	00368863          	beq	x13,x3,1874 <I_beq_cg_cp_rs2_b5+0x1c>
    1868:	0550876f          	jal	x14,a0bc <failedtest_x14_x13>
    186c:	00001858          	.word	0x00001858
    1870:	0000d1eb          	.word	0x0000d1eb
    1874:	00450513          	addi	x10,x10,4

# Testcase cp_rs2 (Test source rs2 = x6)
  RVTEST_TESTDATA_LOAD_INT(x24, x28) # load rs1: x28 = 0x14fb792e
    1878:	000c2e03          	lw	x28,0(x24)
    187c:	004c0c13          	addi	x24,x24,4
  RVTEST_TESTDATA_LOAD_INT(x24, x6) # load rs2: x6 = 0x2489264c
    1880:	000c2303          	lw	x6,0(x24)
    1884:	004c0c13          	addi	x24,x24,4
  RVTEST_TESTDATA_LOAD_INT(x24, x22) # load branch taken value: x22 = 0x0ca69d97
    1888:	000c2b03          	lw	x22,0(x24)
    188c:	004c0c13          	addi	x24,x24,4

00001890 <I_beq_cg_cp_rs2_b6>:
I_beq_cg_cp_rs2_b6:
  beq x28, x6, 1f # perform operation
    1890:	006e0463          	beq	x28,x6,1898 <I_beq_cg_cp_rs2_b6+0x8>
  LI(x22, -1) # branch not taken, set temp_reg to 0
    1894:	fff00b13          	addi	x22,x0,-1
1:
  # Check if x22 contains the expected result. x10 is the signature ptr, x14 is the link ptr, x13 is a temp reg.
  RVTEST_SIGUPD(x10, x14, x13, x22, I_beq_cg_cp_rs2_b6, I_beq_cg_cp_rs2_b6_str)
    1898:	00052683          	lw	x13,0(x10)
    189c:	01668863          	beq	x13,x22,18ac <I_beq_cg_cp_rs2_b6+0x1c>
    18a0:	01d0876f          	jal	x14,a0bc <failedtest_x14_x13>
    18a4:	00001890          	.word	0x00001890
    18a8:	0000d219          	.word	0x0000d219
    18ac:	00450513          	addi	x10,x10,4

# Testcase cp_rs2 (Test source rs2 = x7)
  RVTEST_TESTDATA_LOAD_INT(x24, x15) # load rs1: x15 = 0x846aca53
    18b0:	000c2783          	lw	x15,0(x24)
    18b4:	004c0c13          	addi	x24,x24,4
  RVTEST_TESTDATA_LOAD_INT(x24, x7) # load rs2: x7 = 0xc670b4ae
    18b8:	000c2383          	lw	x7,0(x24)
    18bc:	004c0c13          	addi	x24,x24,4
  RVTEST_TESTDATA_LOAD_INT(x24, x17) # load branch taken value: x17 = 0xa89cea3a
    18c0:	000c2883          	lw	x17,0(x24)
    18c4:	004c0c13          	addi	x24,x24,4

000018c8 <I_beq_cg_cp_rs2_b7>:
I_beq_cg_cp_rs2_b7:
  beq x15, x7, 1f # perform operation
    18c8:	00778463          	beq	x15,x7,18d0 <I_beq_cg_cp_rs2_b7+0x8>
  LI(x17, -1) # branch not taken, set temp_reg to 0
    18cc:	fff00893          	addi	x17,x0,-1
1:
  # Check if x17 contains the expected result. x10 is the signature ptr, x14 is the link ptr, x13 is a temp reg.
  RVTEST_SIGUPD(x10, x14, x13, x17, I_beq_cg_cp_rs2_b7, I_beq_cg_cp_rs2_b7_str)
    18d0:	00052683          	lw	x13,0(x10)
    18d4:	01168863          	beq	x13,x17,18e4 <I_beq_cg_cp_rs2_b7+0x1c>
    18d8:	7e40876f          	jal	x14,a0bc <failedtest_x14_x13>
    18dc:	000018c8          	.word	0x000018c8
    18e0:	0000d247          	.word	0x0000d247
    18e4:	00450513          	addi	x10,x10,4

# Testcase cp_rs2 (Test source rs2 = x8)
  RVTEST_TESTDATA_LOAD_INT(x24, x25) # load rs1: x25 = 0xa091f777
    18e8:	000c2c83          	lw	x25,0(x24)
    18ec:	004c0c13          	addi	x24,x24,4
  RVTEST_TESTDATA_LOAD_INT(x24, x8) # load rs2: x8 = 0x99340d72
    18f0:	000c2403          	lw	x8,0(x24)
    18f4:	004c0c13          	addi	x24,x24,4
  RVTEST_TESTDATA_LOAD_INT(x24, x22) # load branch taken value: x22 = 0x850d3026
    18f8:	000c2b03          	lw	x22,0(x24)
    18fc:	004c0c13          	addi	x24,x24,4

00001900 <I_beq_cg_cp_rs2_b8>:
I_beq_cg_cp_rs2_b8:
  beq x25, x8, 1f # perform operation
    1900:	008c8463          	beq	x25,x8,1908 <I_beq_cg_cp_rs2_b8+0x8>
  LI(x22, -1) # branch not taken, set temp_reg to 0
    1904:	fff00b13          	addi	x22,x0,-1
1:
  # Check if x22 contains the expected result. x10 is the signature ptr, x14 is the link ptr, x13 is a temp reg.
  RVTEST_SIGUPD(x10, x14, x13, x22, I_beq_cg_cp_rs2_b8, I_beq_cg_cp_rs2_b8_str)
    1908:	00052683          	lw	x13,0(x10)
    190c:	01668863          	beq	x13,x22,191c <I_beq_cg_cp_rs2_b8+0x1c>
    1910:	7ac0876f          	jal	x14,a0bc <failedtest_x14_x13>
    1914:	00001900          	.word	0x00001900
    1918:	0000d275          	.word	0x0000d275
    191c:	00450513          	addi	x10,x10,4

# Testcase cp_rs2 (Test source rs2 = x9)
  RVTEST_TESTDATA_LOAD_INT(x24, x12) # load rs1: x12 = 0x740fa105
    1920:	000c2603          	lw	x12,0(x24)
    1924:	004c0c13          	addi	x24,x24,4
  RVTEST_TESTDATA_LOAD_INT(x24, x9) # load rs2: x9 = 0x6d264641
    1928:	000c2483          	lw	x9,0(x24)
    192c:	004c0c13          	addi	x24,x24,4
  RVTEST_TESTDATA_LOAD_INT(x24, x28) # load branch taken value: x28 = 0xc3ab9be9
    1930:	000c2e03          	lw	x28,0(x24)
    1934:	004c0c13          	addi	x24,x24,4

00001938 <I_beq_cg_cp_rs2_b9>:
I_beq_cg_cp_rs2_b9:
  beq x12, x9, 1f # perform operation
    1938:	00960463          	beq	x12,x9,1940 <I_beq_cg_cp_rs2_b9+0x8>
  LI(x28, -1) # branch not taken, set temp_reg to 0
    193c:	fff00e13          	addi	x28,x0,-1
1:
  # Check if x28 contains the expected result. x10 is the signature ptr, x14 is the link ptr, x13 is a temp reg.
  RVTEST_SIGUPD(x10, x14, x13, x28, I_beq_cg_cp_rs2_b9, I_beq_cg_cp_rs2_b9_str)
    1940:	00052683          	lw	x13,0(x10)
    1944:	01c68863          	beq	x13,x28,1954 <I_beq_cg_cp_rs2_b9+0x1c>
    1948:	7740876f          	jal	x14,a0bc <failedtest_x14_x13>
    194c:	00001938          	.word	0x00001938
    1950:	0000d2a3          	.word	0x0000d2a3
    1954:	00450513          	addi	x10,x10,4

  mv x21, x10 # switch signature pointer register to avoid conflict with test
    1958:	00050a93          	addi	x21,x10,0
# Testcase cp_rs2 (Test source rs2 = x10)
  RVTEST_TESTDATA_LOAD_INT(x24, x29) # load rs1: x29 = 0x2d0787aa
    195c:	000c2e83          	lw	x29,0(x24)
    1960:	004c0c13          	addi	x24,x24,4
  RVTEST_TESTDATA_LOAD_INT(x24, x10) # load rs2: x10 = 0x73aae8af
    1964:	000c2503          	lw	x10,0(x24)
    1968:	004c0c13          	addi	x24,x24,4
  RVTEST_TESTDATA_LOAD_INT(x24, x20) # load branch taken value: x20 = 0xe5b97f71
    196c:	000c2a03          	lw	x20,0(x24)
    1970:	004c0c13          	addi	x24,x24,4

00001974 <I_beq_cg_cp_rs2_b10>:
I_beq_cg_cp_rs2_b10:
  beq x29, x10, 1f # perform operation
    1974:	00ae8463          	beq	x29,x10,197c <I_beq_cg_cp_rs2_b10+0x8>
  LI(x20, -1) # branch not taken, set temp_reg to 0
    1978:	fff00a13          	addi	x20,x0,-1
1:
  # Check if x20 contains the expected result. x21 is the signature ptr, x14 is the link ptr, x13 is a temp reg.
  RVTEST_SIGUPD(x21, x14, x13, x20, I_beq_cg_cp_rs2_b10, I_beq_cg_cp_rs2_b10_str)
    197c:	000aa683          	lw	x13,0(x21)
    1980:	01468863          	beq	x13,x20,1990 <I_beq_cg_cp_rs2_b10+0x1c>
    1984:	7380876f          	jal	x14,a0bc <failedtest_x14_x13>
    1988:	00001974          	.word	0x00001974
    198c:	0000d2d1          	.word	0x0000d2d1
    1990:	004a8a93          	addi	x21,x21,4

# Testcase cp_rs2 (Test source rs2 = x11)
  RVTEST_TESTDATA_LOAD_INT(x24, x16) # load rs1: x16 = 0x00255e59
    1994:	000c2803          	lw	x16,0(x24)
    1998:	004c0c13          	addi	x24,x24,4
  RVTEST_TESTDATA_LOAD_INT(x24, x11) # load rs2: x11 = 0x72e3ac23
    199c:	000c2583          	lw	x11,0(x24)
    19a0:	004c0c13          	addi	x24,x24,4
  RVTEST_TESTDATA_LOAD_INT(x24, x28) # load branch taken value: x28 = 0xac87441f
    19a4:	000c2e03          	lw	x28,0(x24)
    19a8:	004c0c13          	addi	x24,x24,4

000019ac <I_beq_cg_cp_rs2_b11>:
I_beq_cg_cp_rs2_b11:
  beq x16, x11, 1f # perform operation
    19ac:	00b80463          	beq	x16,x11,19b4 <I_beq_cg_cp_rs2_b11+0x8>
  LI(x28, -1) # branch not taken, set temp_reg to 0
    19b0:	fff00e13          	addi	x28,x0,-1
1:
  # Check if x28 contains the expected result. x21 is the signature ptr, x14 is the link ptr, x13 is a temp reg.
  RVTEST_SIGUPD(x21, x14, x13, x28, I_beq_cg_cp_rs2_b11, I_beq_cg_cp_rs2_b11_str)
    19b4:	000aa683          	lw	x13,0(x21)
    19b8:	01c68863          	beq	x13,x28,19c8 <I_beq_cg_cp_rs2_b11+0x1c>
    19bc:	7000876f          	jal	x14,a0bc <failedtest_x14_x13>
    19c0:	000019ac          	.word	0x000019ac
    19c4:	0000d300          	.word	0x0000d300
    19c8:	004a8a93          	addi	x21,x21,4

# Testcase cp_rs2 (Test source rs2 = x12)
  RVTEST_TESTDATA_LOAD_INT(x24, x23) # load rs1: x23 = 0xda1dd4e2
    19cc:	000c2b83          	lw	x23,0(x24)
    19d0:	004c0c13          	addi	x24,x24,4
  RVTEST_TESTDATA_LOAD_INT(x24, x12) # load rs2: x12 = 0x6c2e8941
    19d4:	000c2603          	lw	x12,0(x24)
    19d8:	004c0c13          	addi	x24,x24,4
  RVTEST_TESTDATA_LOAD_INT(x24, x22) # load branch taken value: x22 = 0x281b64e0
    19dc:	000c2b03          	lw	x22,0(x24)
    19e0:	004c0c13          	addi	x24,x24,4

000019e4 <I_beq_cg_cp_rs2_b12>:
I_beq_cg_cp_rs2_b12:
  beq x23, x12, 1f # perform operation
    19e4:	00cb8463          	beq	x23,x12,19ec <I_beq_cg_cp_rs2_b12+0x8>
  LI(x22, -1) # branch not taken, set temp_reg to 0
    19e8:	fff00b13          	addi	x22,x0,-1
1:
  # Check if x22 contains the expected result. x21 is the signature ptr, x14 is the link ptr, x13 is a temp reg.
  RVTEST_SIGUPD(x21, x14, x13, x22, I_beq_cg_cp_rs2_b12, I_beq_cg_cp_rs2_b12_str)
    19ec:	000aa683          	lw	x13,0(x21)
    19f0:	01668863          	beq	x13,x22,1a00 <I_beq_cg_cp_rs2_b12+0x1c>
    19f4:	6c80876f          	jal	x14,a0bc <failedtest_x14_x13>
    19f8:	000019e4          	.word	0x000019e4
    19fc:	0000d32f          	.word	0x0000d32f
    1a00:	004a8a93          	addi	x21,x21,4

  mv x7, x13 # switch temp register to avoid conflict with test
    1a04:	00068393          	addi	x7,x13,0
  mv x8, x14 # switch link pointer register to avoid conflict with test
    1a08:	00070413          	addi	x8,x14,0
# Testcase cp_rs2 (Test source rs2 = x13)
  RVTEST_TESTDATA_LOAD_INT(x24, x28) # load rs1: x28 = 0x17dccdd7
    1a0c:	000c2e03          	lw	x28,0(x24)
    1a10:	004c0c13          	addi	x24,x24,4
  RVTEST_TESTDATA_LOAD_INT(x24, x13) # load rs2: x13 = 0xfcdd4ef6
    1a14:	000c2683          	lw	x13,0(x24)
    1a18:	004c0c13          	addi	x24,x24,4
  RVTEST_TESTDATA_LOAD_INT(x24, x23) # load branch taken value: x23 = 0x4614ec60
    1a1c:	000c2b83          	lw	x23,0(x24)
    1a20:	004c0c13          	addi	x24,x24,4

00001a24 <I_beq_cg_cp_rs2_b13>:
I_beq_cg_cp_rs2_b13:
  beq x28, x13, 1f # perform operation
    1a24:	00de0463          	beq	x28,x13,1a2c <I_beq_cg_cp_rs2_b13+0x8>
  LI(x23, -1) # branch not taken, set temp_reg to 0
    1a28:	fff00b93          	addi	x23,x0,-1
1:
  # Check if x23 contains the expected result. x21 is the signature ptr, x8 is the link ptr, x7 is a temp reg.
  RVTEST_SIGUPD(x21, x8, x7, x23, I_beq_cg_cp_rs2_b13, I_beq_cg_cp_rs2_b13_str)
    1a2c:	000aa383          	lw	x7,0(x21)
    1a30:	01738863          	beq	x7,x23,1a40 <I_beq_cg_cp_rs2_b13+0x1c>
    1a34:	6600846f          	jal	x8,a094 <failedtest_x8_x7>
    1a38:	00001a24          	.word	0x00001a24
    1a3c:	0000d35e          	.word	0x0000d35e
    1a40:	004a8a93          	addi	x21,x21,4

# Testcase cp_rs2 (Test source rs2 = x14)
  RVTEST_TESTDATA_LOAD_INT(x24, x23) # load rs1: x23 = 0x15e7d0c8
    1a44:	000c2b83          	lw	x23,0(x24)
    1a48:	004c0c13          	addi	x24,x24,4
  RVTEST_TESTDATA_LOAD_INT(x24, x14) # load rs2: x14 = 0x5844e773
    1a4c:	000c2703          	lw	x14,0(x24)
    1a50:	004c0c13          	addi	x24,x24,4
  RVTEST_TESTDATA_LOAD_INT(x24, x19) # load branch taken value: x19 = 0x7193a000
    1a54:	000c2983          	lw	x19,0(x24)
    1a58:	004c0c13          	addi	x24,x24,4

00001a5c <I_beq_cg_cp_rs2_b14>:
I_beq_cg_cp_rs2_b14:
  beq x23, x14, 1f # perform operation
    1a5c:	00eb8463          	beq	x23,x14,1a64 <I_beq_cg_cp_rs2_b14+0x8>
  LI(x19, -1) # branch not taken, set temp_reg to 0
    1a60:	fff00993          	addi	x19,x0,-1
1:
  # Check if x19 contains the expected result. x21 is the signature ptr, x8 is the link ptr, x7 is a temp reg.
  RVTEST_SIGUPD(x21, x8, x7, x19, I_beq_cg_cp_rs2_b14, I_beq_cg_cp_rs2_b14_str)
    1a64:	000aa383          	lw	x7,0(x21)
    1a68:	01338863          	beq	x7,x19,1a78 <I_beq_cg_cp_rs2_b14+0x1c>
    1a6c:	6280846f          	jal	x8,a094 <failedtest_x8_x7>
    1a70:	00001a5c          	.word	0x00001a5c
    1a74:	0000d38d          	.word	0x0000d38d
    1a78:	004a8a93          	addi	x21,x21,4

# Testcase cp_rs2 (Test source rs2 = x15)
  RVTEST_TESTDATA_LOAD_INT(x24, x28) # load rs1: x28 = 0xeee5f4c2
    1a7c:	000c2e03          	lw	x28,0(x24)
    1a80:	004c0c13          	addi	x24,x24,4
  RVTEST_TESTDATA_LOAD_INT(x24, x15) # load rs2: x15 = 0x0c6b0634
    1a84:	000c2783          	lw	x15,0(x24)
    1a88:	004c0c13          	addi	x24,x24,4
  RVTEST_TESTDATA_LOAD_INT(x24, x4) # load branch taken value: x4 = 0x9d15f0f9
    1a8c:	000c2203          	lw	x4,0(x24)
    1a90:	004c0c13          	addi	x24,x24,4

00001a94 <I_beq_cg_cp_rs2_b15>:
I_beq_cg_cp_rs2_b15:
  beq x28, x15, 1f # perform operation
    1a94:	00fe0463          	beq	x28,x15,1a9c <I_beq_cg_cp_rs2_b15+0x8>
  LI(x4, -1) # branch not taken, set temp_reg to 0
    1a98:	fff00213          	addi	x4,x0,-1
1:
  # Check if x4 contains the expected result. x21 is the signature ptr, x8 is the link ptr, x7 is a temp reg.
  RVTEST_SIGUPD(x21, x8, x7, x4, I_beq_cg_cp_rs2_b15, I_beq_cg_cp_rs2_b15_str)
    1a9c:	000aa383          	lw	x7,0(x21)
    1aa0:	00438863          	beq	x7,x4,1ab0 <I_beq_cg_cp_rs2_b15+0x1c>
    1aa4:	5f00846f          	jal	x8,a094 <failedtest_x8_x7>
    1aa8:	00001a94          	.word	0x00001a94
    1aac:	0000d3bc          	.word	0x0000d3bc
    1ab0:	004a8a93          	addi	x21,x21,4

# Testcase cp_rs2 (Test source rs2 = x16)
  RVTEST_TESTDATA_LOAD_INT(x24, x6) # load rs1: x6 = 0x7e6d7f8f
    1ab4:	000c2303          	lw	x6,0(x24)
    1ab8:	004c0c13          	addi	x24,x24,4
  RVTEST_TESTDATA_LOAD_INT(x24, x16) # load rs2: x16 = 0x23a68f82
    1abc:	000c2803          	lw	x16,0(x24)
    1ac0:	004c0c13          	addi	x24,x24,4
  RVTEST_TESTDATA_LOAD_INT(x24, x12) # load branch taken value: x12 = 0x92d24391
    1ac4:	000c2603          	lw	x12,0(x24)
    1ac8:	004c0c13          	addi	x24,x24,4

00001acc <I_beq_cg_cp_rs2_b16>:
I_beq_cg_cp_rs2_b16:
  beq x6, x16, 1f # perform operation
    1acc:	01030463          	beq	x6,x16,1ad4 <I_beq_cg_cp_rs2_b16+0x8>
  LI(x12, -1) # branch not taken, set temp_reg to 0
    1ad0:	fff00613          	addi	x12,x0,-1
1:
  # Check if x12 contains the expected result. x21 is the signature ptr, x8 is the link ptr, x7 is a temp reg.
  RVTEST_SIGUPD(x21, x8, x7, x12, I_beq_cg_cp_rs2_b16, I_beq_cg_cp_rs2_b16_str)
    1ad4:	000aa383          	lw	x7,0(x21)
    1ad8:	00c38863          	beq	x7,x12,1ae8 <I_beq_cg_cp_rs2_b16+0x1c>
    1adc:	5b80846f          	jal	x8,a094 <failedtest_x8_x7>
    1ae0:	00001acc          	.word	0x00001acc
    1ae4:	0000d3eb          	.word	0x0000d3eb
    1ae8:	004a8a93          	addi	x21,x21,4

# Testcase cp_rs2 (Test source rs2 = x17)
  RVTEST_TESTDATA_LOAD_INT(x24, x5) # load rs1: x5 = 0xfafd5e98
    1aec:	000c2283          	lw	x5,0(x24)
    1af0:	004c0c13          	addi	x24,x24,4
  RVTEST_TESTDATA_LOAD_INT(x24, x17) # load rs2: x17 = 0x550ee49d
    1af4:	000c2883          	lw	x17,0(x24)
    1af8:	004c0c13          	addi	x24,x24,4
  RVTEST_TESTDATA_LOAD_INT(x24, x14) # load branch taken value: x14 = 0x7f2818d2
    1afc:	000c2703          	lw	x14,0(x24)
    1b00:	004c0c13          	addi	x24,x24,4

00001b04 <I_beq_cg_cp_rs2_b17>:
I_beq_cg_cp_rs2_b17:
  beq x5, x17, 1f # perform operation
    1b04:	01128463          	beq	x5,x17,1b0c <I_beq_cg_cp_rs2_b17+0x8>
  LI(x14, -1) # branch not taken, set temp_reg to 0
    1b08:	fff00713          	addi	x14,x0,-1
1:
  # Check if x14 contains the expected result. x21 is the signature ptr, x8 is the link ptr, x7 is a temp reg.
  RVTEST_SIGUPD(x21, x8, x7, x14, I_beq_cg_cp_rs2_b17, I_beq_cg_cp_rs2_b17_str)
    1b0c:	000aa383          	lw	x7,0(x21)
    1b10:	00e38863          	beq	x7,x14,1b20 <I_beq_cg_cp_rs2_b17+0x1c>
    1b14:	5800846f          	jal	x8,a094 <failedtest_x8_x7>
    1b18:	00001b04          	.word	0x00001b04
    1b1c:	0000d41a          	.word	0x0000d41a
    1b20:	004a8a93          	addi	x21,x21,4

# Testcase cp_rs2 (Test source rs2 = x18)
  RVTEST_TESTDATA_LOAD_INT(x24, x22) # load rs1: x22 = 0x32c083ed
    1b24:	000c2b03          	lw	x22,0(x24)
    1b28:	004c0c13          	addi	x24,x24,4
  RVTEST_TESTDATA_LOAD_INT(x24, x18) # load rs2: x18 = 0x16e8a60b
    1b2c:	000c2903          	lw	x18,0(x24)
    1b30:	004c0c13          	addi	x24,x24,4
  RVTEST_TESTDATA_LOAD_INT(x24, x10) # load branch taken value: x10 = 0x295859ae
    1b34:	000c2503          	lw	x10,0(x24)
    1b38:	004c0c13          	addi	x24,x24,4

00001b3c <I_beq_cg_cp_rs2_b18>:
I_beq_cg_cp_rs2_b18:
  beq x22, x18, 1f # perform operation
    1b3c:	012b0463          	beq	x22,x18,1b44 <I_beq_cg_cp_rs2_b18+0x8>
  LI(x10, -1) # branch not taken, set temp_reg to 0
    1b40:	fff00513          	addi	x10,x0,-1
1:
  # Check if x10 contains the expected result. x21 is the signature ptr, x8 is the link ptr, x7 is a temp reg.
  RVTEST_SIGUPD(x21, x8, x7, x10, I_beq_cg_cp_rs2_b18, I_beq_cg_cp_rs2_b18_str)
    1b44:	000aa383          	lw	x7,0(x21)
    1b48:	00a38863          	beq	x7,x10,1b58 <I_beq_cg_cp_rs2_b18+0x1c>
    1b4c:	5480846f          	jal	x8,a094 <failedtest_x8_x7>
    1b50:	00001b3c          	.word	0x00001b3c
    1b54:	0000d449          	.word	0x0000d449
    1b58:	004a8a93          	addi	x21,x21,4

# Testcase cp_rs2 (Test source rs2 = x19)
  RVTEST_TESTDATA_LOAD_INT(x24, x30) # load rs1: x30 = 0x8e28bb5b
    1b5c:	000c2f03          	lw	x30,0(x24)
    1b60:	004c0c13          	addi	x24,x24,4
  RVTEST_TESTDATA_LOAD_INT(x24, x19) # load rs2: x19 = 0xd4f2f53f
    1b64:	000c2983          	lw	x19,0(x24)
    1b68:	004c0c13          	addi	x24,x24,4
  RVTEST_TESTDATA_LOAD_INT(x24, x9) # load branch taken value: x9 = 0xf5c9ae67
    1b6c:	000c2483          	lw	x9,0(x24)
    1b70:	004c0c13          	addi	x24,x24,4

00001b74 <I_beq_cg_cp_rs2_b19>:
I_beq_cg_cp_rs2_b19:
  beq x30, x19, 1f # perform operation
    1b74:	013f0463          	beq	x30,x19,1b7c <I_beq_cg_cp_rs2_b19+0x8>
  LI(x9, -1) # branch not taken, set temp_reg to 0
    1b78:	fff00493          	addi	x9,x0,-1
1:
  # Check if x9 contains the expected result. x21 is the signature ptr, x8 is the link ptr, x7 is a temp reg.
  RVTEST_SIGUPD(x21, x8, x7, x9, I_beq_cg_cp_rs2_b19, I_beq_cg_cp_rs2_b19_str)
    1b7c:	000aa383          	lw	x7,0(x21)
    1b80:	00938863          	beq	x7,x9,1b90 <I_beq_cg_cp_rs2_b19+0x1c>
    1b84:	5100846f          	jal	x8,a094 <failedtest_x8_x7>
    1b88:	00001b74          	.word	0x00001b74
    1b8c:	0000d478          	.word	0x0000d478
    1b90:	004a8a93          	addi	x21,x21,4

# Testcase cp_rs2 (Test source rs2 = x20)
  RVTEST_TESTDATA_LOAD_INT(x24, x19) # load rs1: x19 = 0x25641695
    1b94:	000c2983          	lw	x19,0(x24)
    1b98:	004c0c13          	addi	x24,x24,4
  RVTEST_TESTDATA_LOAD_INT(x24, x20) # load rs2: x20 = 0x76db5dd0
    1b9c:	000c2a03          	lw	x20,0(x24)
    1ba0:	004c0c13          	addi	x24,x24,4
  RVTEST_TESTDATA_LOAD_INT(x24, x5) # load branch taken value: x5 = 0x5d8637ca
    1ba4:	000c2283          	lw	x5,0(x24)
    1ba8:	004c0c13          	addi	x24,x24,4

00001bac <I_beq_cg_cp_rs2_b20>:
I_beq_cg_cp_rs2_b20:
  beq x19, x20, 1f # perform operation
    1bac:	01498463          	beq	x19,x20,1bb4 <I_beq_cg_cp_rs2_b20+0x8>
  LI(x5, -1) # branch not taken, set temp_reg to 0
    1bb0:	fff00293          	addi	x5,x0,-1
1:
  # Check if x5 contains the expected result. x21 is the signature ptr, x8 is the link ptr, x7 is a temp reg.
  RVTEST_SIGUPD(x21, x8, x7, x5, I_beq_cg_cp_rs2_b20, I_beq_cg_cp_rs2_b20_str)
    1bb4:	000aa383          	lw	x7,0(x21)
    1bb8:	00538863          	beq	x7,x5,1bc8 <I_beq_cg_cp_rs2_b20+0x1c>
    1bbc:	4d80846f          	jal	x8,a094 <failedtest_x8_x7>
    1bc0:	00001bac          	.word	0x00001bac
    1bc4:	0000d4a7          	.word	0x0000d4a7
    1bc8:	004a8a93          	addi	x21,x21,4

  mv x25, x21 # switch signature pointer register to avoid conflict with test
    1bcc:	000a8c93          	addi	x25,x21,0
# Testcase cp_rs2 (Test source rs2 = x21)
  RVTEST_TESTDATA_LOAD_INT(x24, x12) # load rs1: x12 = 0x2f21f9e0
    1bd0:	000c2603          	lw	x12,0(x24)
    1bd4:	004c0c13          	addi	x24,x24,4
  RVTEST_TESTDATA_LOAD_INT(x24, x21) # load rs2: x21 = 0x7c5ee0fb
    1bd8:	000c2a83          	lw	x21,0(x24)
    1bdc:	004c0c13          	addi	x24,x24,4
  RVTEST_TESTDATA_LOAD_INT(x24, x26) # load branch taken value: x26 = 0x24a9e831
    1be0:	000c2d03          	lw	x26,0(x24)
    1be4:	004c0c13          	addi	x24,x24,4

00001be8 <I_beq_cg_cp_rs2_b21>:
I_beq_cg_cp_rs2_b21:
  beq x12, x21, 1f # perform operation
    1be8:	01560463          	beq	x12,x21,1bf0 <I_beq_cg_cp_rs2_b21+0x8>
  LI(x26, -1) # branch not taken, set temp_reg to 0
    1bec:	fff00d13          	addi	x26,x0,-1
1:
  # Check if x26 contains the expected result. x25 is the signature ptr, x8 is the link ptr, x7 is a temp reg.
  RVTEST_SIGUPD(x25, x8, x7, x26, I_beq_cg_cp_rs2_b21, I_beq_cg_cp_rs2_b21_str)
    1bf0:	000ca383          	lw	x7,0(x25)
    1bf4:	01a38863          	beq	x7,x26,1c04 <I_beq_cg_cp_rs2_b21+0x1c>
    1bf8:	49c0846f          	jal	x8,a094 <failedtest_x8_x7>
    1bfc:	00001be8          	.word	0x00001be8
    1c00:	0000d4d6          	.word	0x0000d4d6
    1c04:	004c8c93          	addi	x25,x25,4

# Testcase cp_rs2 (Test source rs2 = x22)
  RVTEST_TESTDATA_LOAD_INT(x24, x23) # load rs1: x23 = 0xd2662668
    1c08:	000c2b83          	lw	x23,0(x24)
    1c0c:	004c0c13          	addi	x24,x24,4
  RVTEST_TESTDATA_LOAD_INT(x24, x22) # load rs2: x22 = 0x03ea5fc1
    1c10:	000c2b03          	lw	x22,0(x24)
    1c14:	004c0c13          	addi	x24,x24,4
  RVTEST_TESTDATA_LOAD_INT(x24, x1) # load branch taken value: x1 = 0x032a9e24
    1c18:	000c2083          	lw	x1,0(x24)
    1c1c:	004c0c13          	addi	x24,x24,4

00001c20 <I_beq_cg_cp_rs2_b22>:
I_beq_cg_cp_rs2_b22:
  beq x23, x22, 1f # perform operation
    1c20:	016b8463          	beq	x23,x22,1c28 <I_beq_cg_cp_rs2_b22+0x8>
  LI(x1, -1) # branch not taken, set temp_reg to 0
    1c24:	fff00093          	addi	x1,x0,-1
1:
  # Check if x1 contains the expected result. x25 is the signature ptr, x8 is the link ptr, x7 is a temp reg.
  RVTEST_SIGUPD(x25, x8, x7, x1, I_beq_cg_cp_rs2_b22, I_beq_cg_cp_rs2_b22_str)
    1c28:	000ca383          	lw	x7,0(x25)
    1c2c:	00138863          	beq	x7,x1,1c3c <I_beq_cg_cp_rs2_b22+0x1c>
    1c30:	4640846f          	jal	x8,a094 <failedtest_x8_x7>
    1c34:	00001c20          	.word	0x00001c20
    1c38:	0000d505          	.word	0x0000d505
    1c3c:	004c8c93          	addi	x25,x25,4

# Testcase cp_rs2 (Test source rs2 = x23)
  RVTEST_TESTDATA_LOAD_INT(x24, x11) # load rs1: x11 = 0x8c9e77cf
    1c40:	000c2583          	lw	x11,0(x24)
    1c44:	004c0c13          	addi	x24,x24,4
  RVTEST_TESTDATA_LOAD_INT(x24, x23) # load rs2: x23 = 0x96b70e23
    1c48:	000c2b83          	lw	x23,0(x24)
    1c4c:	004c0c13          	addi	x24,x24,4
  RVTEST_TESTDATA_LOAD_INT(x24, x4) # load branch taken value: x4 = 0xff37ca79
    1c50:	000c2203          	lw	x4,0(x24)
    1c54:	004c0c13          	addi	x24,x24,4

00001c58 <I_beq_cg_cp_rs2_b23>:
I_beq_cg_cp_rs2_b23:
  beq x11, x23, 1f # perform operation
    1c58:	01758463          	beq	x11,x23,1c60 <I_beq_cg_cp_rs2_b23+0x8>
  LI(x4, -1) # branch not taken, set temp_reg to 0
    1c5c:	fff00213          	addi	x4,x0,-1
1:
  # Check if x4 contains the expected result. x25 is the signature ptr, x8 is the link ptr, x7 is a temp reg.
  RVTEST_SIGUPD(x25, x8, x7, x4, I_beq_cg_cp_rs2_b23, I_beq_cg_cp_rs2_b23_str)
    1c60:	000ca383          	lw	x7,0(x25)
    1c64:	00438863          	beq	x7,x4,1c74 <I_beq_cg_cp_rs2_b23+0x1c>
    1c68:	42c0846f          	jal	x8,a094 <failedtest_x8_x7>
    1c6c:	00001c58          	.word	0x00001c58
    1c70:	0000d534          	.word	0x0000d534
    1c74:	004c8c93          	addi	x25,x25,4

  mv x20, x24 # switch data pointer register to avoid conflict with test
    1c78:	000c0a13          	addi	x20,x24,0
# Testcase cp_rs2 (Test source rs2 = x24)
  RVTEST_TESTDATA_LOAD_INT(x20, x12) # load rs1: x12 = 0xa58290f9
    1c7c:	000a2603          	lw	x12,0(x20)
    1c80:	004a0a13          	addi	x20,x20,4
  RVTEST_TESTDATA_LOAD_INT(x20, x24) # load rs2: x24 = 0x85e9bfc2
    1c84:	000a2c03          	lw	x24,0(x20)
    1c88:	004a0a13          	addi	x20,x20,4
  RVTEST_TESTDATA_LOAD_INT(x20, x22) # load branch taken value: x22 = 0xf52a72d8
    1c8c:	000a2b03          	lw	x22,0(x20)
    1c90:	004a0a13          	addi	x20,x20,4

00001c94 <I_beq_cg_cp_rs2_b24>:
I_beq_cg_cp_rs2_b24:
  beq x12, x24, 1f # perform operation
    1c94:	01860463          	beq	x12,x24,1c9c <I_beq_cg_cp_rs2_b24+0x8>
  LI(x22, -1) # branch not taken, set temp_reg to 0
    1c98:	fff00b13          	addi	x22,x0,-1
1:
  # Check if x22 contains the expected result. x25 is the signature ptr, x8 is the link ptr, x7 is a temp reg.
  RVTEST_SIGUPD(x25, x8, x7, x22, I_beq_cg_cp_rs2_b24, I_beq_cg_cp_rs2_b24_str)
    1c9c:	000ca383          	lw	x7,0(x25)
    1ca0:	01638863          	beq	x7,x22,1cb0 <I_beq_cg_cp_rs2_b24+0x1c>
    1ca4:	3f00846f          	jal	x8,a094 <failedtest_x8_x7>
    1ca8:	00001c94          	.word	0x00001c94
    1cac:	0000d563          	.word	0x0000d563
    1cb0:	004c8c93          	addi	x25,x25,4

  mv x11, x25 # switch signature pointer register to avoid conflict with test
    1cb4:	000c8593          	addi	x11,x25,0
# Testcase cp_rs2 (Test source rs2 = x25)
  RVTEST_TESTDATA_LOAD_INT(x20, x16) # load rs1: x16 = 0x6fac503c
    1cb8:	000a2803          	lw	x16,0(x20)
    1cbc:	004a0a13          	addi	x20,x20,4
  RVTEST_TESTDATA_LOAD_INT(x20, x25) # load rs2: x25 = 0x57e84921
    1cc0:	000a2c83          	lw	x25,0(x20)
    1cc4:	004a0a13          	addi	x20,x20,4
  RVTEST_TESTDATA_LOAD_INT(x20, x1) # load branch taken value: x1 = 0x19f685be
    1cc8:	000a2083          	lw	x1,0(x20)
    1ccc:	004a0a13          	addi	x20,x20,4

00001cd0 <I_beq_cg_cp_rs2_b25>:
I_beq_cg_cp_rs2_b25:
  beq x16, x25, 1f # perform operation
    1cd0:	01980463          	beq	x16,x25,1cd8 <I_beq_cg_cp_rs2_b25+0x8>
  LI(x1, -1) # branch not taken, set temp_reg to 0
    1cd4:	fff00093          	addi	x1,x0,-1
1:
  # Check if x1 contains the expected result. x11 is the signature ptr, x8 is the link ptr, x7 is a temp reg.
  RVTEST_SIGUPD(x11, x8, x7, x1, I_beq_cg_cp_rs2_b25, I_beq_cg_cp_rs2_b25_str)
    1cd8:	0005a383          	lw	x7,0(x11)
    1cdc:	00138863          	beq	x7,x1,1cec <I_beq_cg_cp_rs2_b25+0x1c>
    1ce0:	3b40846f          	jal	x8,a094 <failedtest_x8_x7>
    1ce4:	00001cd0          	.word	0x00001cd0
    1ce8:	0000d592          	.word	0x0000d592
    1cec:	00458593          	addi	x11,x11,4

# Testcase cp_rs2 (Test source rs2 = x26)
  RVTEST_TESTDATA_LOAD_INT(x20, x12) # load rs1: x12 = 0xfd01e9f8
    1cf0:	000a2603          	lw	x12,0(x20)
    1cf4:	004a0a13          	addi	x20,x20,4
  RVTEST_TESTDATA_LOAD_INT(x20, x26) # load rs2: x26 = 0x39046919
    1cf8:	000a2d03          	lw	x26,0(x20)
    1cfc:	004a0a13          	addi	x20,x20,4
  RVTEST_TESTDATA_LOAD_INT(x20, x4) # load branch taken value: x4 = 0xa22adccb
    1d00:	000a2203          	lw	x4,0(x20)
    1d04:	004a0a13          	addi	x20,x20,4

00001d08 <I_beq_cg_cp_rs2_b26>:
I_beq_cg_cp_rs2_b26:
  beq x12, x26, 1f # perform operation
    1d08:	01a60463          	beq	x12,x26,1d10 <I_beq_cg_cp_rs2_b26+0x8>
  LI(x4, -1) # branch not taken, set temp_reg to 0
    1d0c:	fff00213          	addi	x4,x0,-1
1:
  # Check if x4 contains the expected result. x11 is the signature ptr, x8 is the link ptr, x7 is a temp reg.
  RVTEST_SIGUPD(x11, x8, x7, x4, I_beq_cg_cp_rs2_b26, I_beq_cg_cp_rs2_b26_str)
    1d10:	0005a383          	lw	x7,0(x11)
    1d14:	00438863          	beq	x7,x4,1d24 <I_beq_cg_cp_rs2_b26+0x1c>
    1d18:	37c0846f          	jal	x8,a094 <failedtest_x8_x7>
    1d1c:	00001d08          	.word	0x00001d08
    1d20:	0000d5c1          	.word	0x0000d5c1
    1d24:	00458593          	addi	x11,x11,4

# Testcase cp_rs2 (Test source rs2 = x27)
  RVTEST_TESTDATA_LOAD_INT(x20, x21) # load rs1: x21 = 0x2dac4507
    1d28:	000a2a83          	lw	x21,0(x20)
    1d2c:	004a0a13          	addi	x20,x20,4
  RVTEST_TESTDATA_LOAD_INT(x20, x27) # load rs2: x27 = 0xd63ba97c
    1d30:	000a2d83          	lw	x27,0(x20)
    1d34:	004a0a13          	addi	x20,x20,4
  RVTEST_TESTDATA_LOAD_INT(x20, x4) # load branch taken value: x4 = 0xfa31d3b4
    1d38:	000a2203          	lw	x4,0(x20)
    1d3c:	004a0a13          	addi	x20,x20,4

00001d40 <I_beq_cg_cp_rs2_b27>:
I_beq_cg_cp_rs2_b27:
  beq x21, x27, 1f # perform operation
    1d40:	01ba8463          	beq	x21,x27,1d48 <I_beq_cg_cp_rs2_b27+0x8>
  LI(x4, -1) # branch not taken, set temp_reg to 0
    1d44:	fff00213          	addi	x4,x0,-1
1:
  # Check if x4 contains the expected result. x11 is the signature ptr, x8 is the link ptr, x7 is a temp reg.
  RVTEST_SIGUPD(x11, x8, x7, x4, I_beq_cg_cp_rs2_b27, I_beq_cg_cp_rs2_b27_str)
    1d48:	0005a383          	lw	x7,0(x11)
    1d4c:	00438863          	beq	x7,x4,1d5c <I_beq_cg_cp_rs2_b27+0x1c>
    1d50:	3440846f          	jal	x8,a094 <failedtest_x8_x7>
    1d54:	00001d40          	.word	0x00001d40
    1d58:	0000d5f0          	.word	0x0000d5f0
    1d5c:	00458593          	addi	x11,x11,4

# Testcase cp_rs2 (Test source rs2 = x28)
  RVTEST_TESTDATA_LOAD_INT(x20, x5) # load rs1: x5 = 0xadfe667f
    1d60:	000a2283          	lw	x5,0(x20)
    1d64:	004a0a13          	addi	x20,x20,4
  RVTEST_TESTDATA_LOAD_INT(x20, x28) # load rs2: x28 = 0x39d27a94
    1d68:	000a2e03          	lw	x28,0(x20)
    1d6c:	004a0a13          	addi	x20,x20,4
  RVTEST_TESTDATA_LOAD_INT(x20, x15) # load branch taken value: x15 = 0x81dde89e
    1d70:	000a2783          	lw	x15,0(x20)
    1d74:	004a0a13          	addi	x20,x20,4

00001d78 <I_beq_cg_cp_rs2_b28>:
I_beq_cg_cp_rs2_b28:
  beq x5, x28, 1f # perform operation
    1d78:	01c28463          	beq	x5,x28,1d80 <I_beq_cg_cp_rs2_b28+0x8>
  LI(x15, -1) # branch not taken, set temp_reg to 0
    1d7c:	fff00793          	addi	x15,x0,-1
1:
  # Check if x15 contains the expected result. x11 is the signature ptr, x8 is the link ptr, x7 is a temp reg.
  RVTEST_SIGUPD(x11, x8, x7, x15, I_beq_cg_cp_rs2_b28, I_beq_cg_cp_rs2_b28_str)
    1d80:	0005a383          	lw	x7,0(x11)
    1d84:	00f38863          	beq	x7,x15,1d94 <I_beq_cg_cp_rs2_b28+0x1c>
    1d88:	30c0846f          	jal	x8,a094 <failedtest_x8_x7>
    1d8c:	00001d78          	.word	0x00001d78
    1d90:	0000d61f          	.word	0x0000d61f
    1d94:	00458593          	addi	x11,x11,4

# Testcase cp_rs2 (Test source rs2 = x29)
  RVTEST_TESTDATA_LOAD_INT(x20, x22) # load rs1: x22 = 0x5d4e0f5d
    1d98:	000a2b03          	lw	x22,0(x20)
    1d9c:	004a0a13          	addi	x20,x20,4
  RVTEST_TESTDATA_LOAD_INT(x20, x29) # load rs2: x29 = 0x1ed1bb3c
    1da0:	000a2e83          	lw	x29,0(x20)
    1da4:	004a0a13          	addi	x20,x20,4
  RVTEST_TESTDATA_LOAD_INT(x20, x23) # load branch taken value: x23 = 0x4fce6012
    1da8:	000a2b83          	lw	x23,0(x20)
    1dac:	004a0a13          	addi	x20,x20,4

00001db0 <I_beq_cg_cp_rs2_b29>:
I_beq_cg_cp_rs2_b29:
  beq x22, x29, 1f # perform operation
    1db0:	01db0463          	beq	x22,x29,1db8 <I_beq_cg_cp_rs2_b29+0x8>
  LI(x23, -1) # branch not taken, set temp_reg to 0
    1db4:	fff00b93          	addi	x23,x0,-1
1:
  # Check if x23 contains the expected result. x11 is the signature ptr, x8 is the link ptr, x7 is a temp reg.
  RVTEST_SIGUPD(x11, x8, x7, x23, I_beq_cg_cp_rs2_b29, I_beq_cg_cp_rs2_b29_str)
    1db8:	0005a383          	lw	x7,0(x11)
    1dbc:	01738863          	beq	x7,x23,1dcc <I_beq_cg_cp_rs2_b29+0x1c>
    1dc0:	2d40846f          	jal	x8,a094 <failedtest_x8_x7>
    1dc4:	00001db0          	.word	0x00001db0
    1dc8:	0000d64e          	.word	0x0000d64e
    1dcc:	00458593          	addi	x11,x11,4

# Testcase cp_rs2 (Test source rs2 = x30)
  RVTEST_TESTDATA_LOAD_INT(x20, x27) # load rs1: x27 = 0xe12afec0
    1dd0:	000a2d83          	lw	x27,0(x20)
    1dd4:	004a0a13          	addi	x20,x20,4
  RVTEST_TESTDATA_LOAD_INT(x20, x30) # load rs2: x30 = 0xd9976eef
    1dd8:	000a2f03          	lw	x30,0(x20)
    1ddc:	004a0a13          	addi	x20,x20,4
  RVTEST_TESTDATA_LOAD_INT(x20, x4) # load branch taken value: x4 = 0x1d51648c
    1de0:	000a2203          	lw	x4,0(x20)
    1de4:	004a0a13          	addi	x20,x20,4

00001de8 <I_beq_cg_cp_rs2_b30>:
I_beq_cg_cp_rs2_b30:
  beq x27, x30, 1f # perform operation
    1de8:	01ed8463          	beq	x27,x30,1df0 <I_beq_cg_cp_rs2_b30+0x8>
  LI(x4, -1) # branch not taken, set temp_reg to 0
    1dec:	fff00213          	addi	x4,x0,-1
1:
  # Check if x4 contains the expected result. x11 is the signature ptr, x8 is the link ptr, x7 is a temp reg.
  RVTEST_SIGUPD(x11, x8, x7, x4, I_beq_cg_cp_rs2_b30, I_beq_cg_cp_rs2_b30_str)
    1df0:	0005a383          	lw	x7,0(x11)
    1df4:	00438863          	beq	x7,x4,1e04 <I_beq_cg_cp_rs2_b30+0x1c>
    1df8:	29c0846f          	jal	x8,a094 <failedtest_x8_x7>
    1dfc:	00001de8          	.word	0x00001de8
    1e00:	0000d67d          	.word	0x0000d67d
    1e04:	00458593          	addi	x11,x11,4

# Testcase cp_rs2 (Test source rs2 = x31)
  RVTEST_TESTDATA_LOAD_INT(x20, x10) # load rs1: x10 = 0xc72cefd2
    1e08:	000a2503          	lw	x10,0(x20)
    1e0c:	004a0a13          	addi	x20,x20,4
  RVTEST_TESTDATA_LOAD_INT(x20, x31) # load rs2: x31 = 0x67602ac3
    1e10:	000a2f83          	lw	x31,0(x20)
    1e14:	004a0a13          	addi	x20,x20,4
  RVTEST_TESTDATA_LOAD_INT(x20, x9) # load branch taken value: x9 = 0x799e1059
    1e18:	000a2483          	lw	x9,0(x20)
    1e1c:	004a0a13          	addi	x20,x20,4

00001e20 <I_beq_cg_cp_rs2_b31>:
I_beq_cg_cp_rs2_b31:
  beq x10, x31, 1f # perform operation
    1e20:	01f50463          	beq	x10,x31,1e28 <I_beq_cg_cp_rs2_b31+0x8>
  LI(x9, -1) # branch not taken, set temp_reg to 0
    1e24:	fff00493          	addi	x9,x0,-1
1:
  # Check if x9 contains the expected result. x11 is the signature ptr, x8 is the link ptr, x7 is a temp reg.
  RVTEST_SIGUPD(x11, x8, x7, x9, I_beq_cg_cp_rs2_b31, I_beq_cg_cp_rs2_b31_str)
    1e28:	0005a383          	lw	x7,0(x11)
    1e2c:	00938863          	beq	x7,x9,1e3c <I_beq_cg_cp_rs2_b31+0x1c>
    1e30:	2640846f          	jal	x8,a094 <failedtest_x8_x7>
    1e34:	00001e20          	.word	0x00001e20
    1e38:	0000d6ac          	.word	0x0000d6ac
    1e3c:	00458593          	addi	x11,x11,4
/////////////////////////////////
// cp_rs1_edges
/////////////////////////////////

# Testcase cp_rs1_edges (Test source rs1 value = 0x00000000)
  RVTEST_TESTDATA_LOAD_INT(x20, x28) # load rs1: x28 = 0x00000000
    1e40:	000a2e03          	lw	x28,0(x20)
    1e44:	004a0a13          	addi	x20,x20,4
  RVTEST_TESTDATA_LOAD_INT(x20, x14) # load rs2: x14 = 0xae211063
    1e48:	000a2703          	lw	x14,0(x20)
    1e4c:	004a0a13          	addi	x20,x20,4
  RVTEST_TESTDATA_LOAD_INT(x20, x21) # load branch taken value: x21 = 0x10166f44
    1e50:	000a2a83          	lw	x21,0(x20)
    1e54:	004a0a13          	addi	x20,x20,4

00001e58 <I_beq_cg_cp_rs1_edges_0x0>:
I_beq_cg_cp_rs1_edges_0x0:
  beq x28, x14, 1f # perform operation
    1e58:	00ee0463          	beq	x28,x14,1e60 <I_beq_cg_cp_rs1_edges_0x0+0x8>
  LI(x21, -1) # branch not taken, set temp_reg to 0
    1e5c:	fff00a93          	addi	x21,x0,-1
1:
  # Check if x21 contains the expected result. x11 is the signature ptr, x8 is the link ptr, x7 is a temp reg.
  RVTEST_SIGUPD(x11, x8, x7, x21, I_beq_cg_cp_rs1_edges_0x0, I_beq_cg_cp_rs1_edges_0x0_str)
    1e60:	0005a383          	lw	x7,0(x11)
    1e64:	01538863          	beq	x7,x21,1e74 <I_beq_cg_cp_rs1_edges_0x0+0x1c>
    1e68:	22c0846f          	jal	x8,a094 <failedtest_x8_x7>
    1e6c:	00001e58          	.word	0x00001e58
    1e70:	0000d6db          	.word	0x0000d6db
    1e74:	00458593          	addi	x11,x11,4

# Testcase cp_rs1_edges (Test source rs1 value = 0x00000001)
  RVTEST_TESTDATA_LOAD_INT(x20, x21) # load rs1: x21 = 0x00000001
    1e78:	000a2a83          	lw	x21,0(x20)
    1e7c:	004a0a13          	addi	x20,x20,4
  RVTEST_TESTDATA_LOAD_INT(x20, x30) # load rs2: x30 = 0xec11df5e
    1e80:	000a2f03          	lw	x30,0(x20)
    1e84:	004a0a13          	addi	x20,x20,4
  RVTEST_TESTDATA_LOAD_INT(x20, x31) # load branch taken value: x31 = 0x183685e5
    1e88:	000a2f83          	lw	x31,0(x20)
    1e8c:	004a0a13          	addi	x20,x20,4

00001e90 <I_beq_cg_cp_rs1_edges_0x1>:
I_beq_cg_cp_rs1_edges_0x1:
  beq x21, x30, 1f # perform operation
    1e90:	01ea8463          	beq	x21,x30,1e98 <I_beq_cg_cp_rs1_edges_0x1+0x8>
  LI(x31, -1) # branch not taken, set temp_reg to 0
    1e94:	fff00f93          	addi	x31,x0,-1
1:
  # Check if x31 contains the expected result. x11 is the signature ptr, x8 is the link ptr, x7 is a temp reg.
  RVTEST_SIGUPD(x11, x8, x7, x31, I_beq_cg_cp_rs1_edges_0x1, I_beq_cg_cp_rs1_edges_0x1_str)
    1e98:	0005a383          	lw	x7,0(x11)
    1e9c:	01f38863          	beq	x7,x31,1eac <I_beq_cg_cp_rs1_edges_0x1+0x1c>
    1ea0:	1f40846f          	jal	x8,a094 <failedtest_x8_x7>
    1ea4:	00001e90          	.word	0x00001e90
    1ea8:	0000d710          	.word	0x0000d710
    1eac:	00458593          	addi	x11,x11,4

# Testcase cp_rs1_edges (Test source rs1 value = 0x00000002)
  RVTEST_TESTDATA_LOAD_INT(x20, x5) # load rs1: x5 = 0x00000002
    1eb0:	000a2283          	lw	x5,0(x20)
    1eb4:	004a0a13          	addi	x20,x20,4
  RVTEST_TESTDATA_LOAD_INT(x20, x2) # load rs2: x2 = 0x5a615fa8
    1eb8:	000a2103          	lw	x2,0(x20)
    1ebc:	004a0a13          	addi	x20,x20,4
  RVTEST_TESTDATA_LOAD_INT(x20, x23) # load branch taken value: x23 = 0x3be92ee4
    1ec0:	000a2b83          	lw	x23,0(x20)
    1ec4:	004a0a13          	addi	x20,x20,4

00001ec8 <I_beq_cg_cp_rs1_edges_0x2>:
I_beq_cg_cp_rs1_edges_0x2:
  beq x5, x2, 1f # perform operation
    1ec8:	00228463          	beq	x5,x2,1ed0 <I_beq_cg_cp_rs1_edges_0x2+0x8>
  LI(x23, -1) # branch not taken, set temp_reg to 0
    1ecc:	fff00b93          	addi	x23,x0,-1
1:
  # Check if x23 contains the expected result. x11 is the signature ptr, x8 is the link ptr, x7 is a temp reg.
  RVTEST_SIGUPD(x11, x8, x7, x23, I_beq_cg_cp_rs1_edges_0x2, I_beq_cg_cp_rs1_edges_0x2_str)
    1ed0:	0005a383          	lw	x7,0(x11)
    1ed4:	01738863          	beq	x7,x23,1ee4 <I_beq_cg_cp_rs1_edges_0x2+0x1c>
    1ed8:	1bc0846f          	jal	x8,a094 <failedtest_x8_x7>
    1edc:	00001ec8          	.word	0x00001ec8
    1ee0:	0000d745          	.word	0x0000d745
    1ee4:	00458593          	addi	x11,x11,4

# Testcase cp_rs1_edges (Test source rs1 value = 0x80000000)
  RVTEST_TESTDATA_LOAD_INT(x20, x14) # load rs1: x14 = 0x80000000
    1ee8:	000a2703          	lw	x14,0(x20)
    1eec:	004a0a13          	addi	x20,x20,4
  RVTEST_TESTDATA_LOAD_INT(x20, x6) # load rs2: x6 = 0xa8683ce9
    1ef0:	000a2303          	lw	x6,0(x20)
    1ef4:	004a0a13          	addi	x20,x20,4
  RVTEST_TESTDATA_LOAD_INT(x20, x10) # load branch taken value: x10 = 0xa6c91c20
    1ef8:	000a2503          	lw	x10,0(x20)
    1efc:	004a0a13          	addi	x20,x20,4

00001f00 <I_beq_cg_cp_rs1_edges_0x80000000>:
I_beq_cg_cp_rs1_edges_0x80000000:
  beq x14, x6, 1f # perform operation
    1f00:	00670463          	beq	x14,x6,1f08 <I_beq_cg_cp_rs1_edges_0x80000000+0x8>
  LI(x10, -1) # branch not taken, set temp_reg to 0
    1f04:	fff00513          	addi	x10,x0,-1
1:
  # Check if x10 contains the expected result. x11 is the signature ptr, x8 is the link ptr, x7 is a temp reg.
  RVTEST_SIGUPD(x11, x8, x7, x10, I_beq_cg_cp_rs1_edges_0x80000000, I_beq_cg_cp_rs1_edges_0x80000000_str)
    1f08:	0005a383          	lw	x7,0(x11)
    1f0c:	00a38863          	beq	x7,x10,1f1c <I_beq_cg_cp_rs1_edges_0x80000000+0x1c>
    1f10:	1840846f          	jal	x8,a094 <failedtest_x8_x7>
    1f14:	00001f00          	.word	0x00001f00
    1f18:	0000d77a          	.word	0x0000d77a
    1f1c:	00458593          	addi	x11,x11,4

# Testcase cp_rs1_edges (Test source rs1 value = 0x80000001)
  RVTEST_TESTDATA_LOAD_INT(x20, x9) # load rs1: x9 = 0x80000001
    1f20:	000a2483          	lw	x9,0(x20)
    1f24:	004a0a13          	addi	x20,x20,4
  RVTEST_TESTDATA_LOAD_INT(x20, x26) # load rs2: x26 = 0x2ca9bff1
    1f28:	000a2d03          	lw	x26,0(x20)
    1f2c:	004a0a13          	addi	x20,x20,4
  RVTEST_TESTDATA_LOAD_INT(x20, x21) # load branch taken value: x21 = 0xa88deac7
    1f30:	000a2a83          	lw	x21,0(x20)
    1f34:	004a0a13          	addi	x20,x20,4

00001f38 <I_beq_cg_cp_rs1_edges_0x80000001>:
I_beq_cg_cp_rs1_edges_0x80000001:
  beq x9, x26, 1f # perform operation
    1f38:	01a48463          	beq	x9,x26,1f40 <I_beq_cg_cp_rs1_edges_0x80000001+0x8>
  LI(x21, -1) # branch not taken, set temp_reg to 0
    1f3c:	fff00a93          	addi	x21,x0,-1
1:
  # Check if x21 contains the expected result. x11 is the signature ptr, x8 is the link ptr, x7 is a temp reg.
  RVTEST_SIGUPD(x11, x8, x7, x21, I_beq_cg_cp_rs1_edges_0x80000001, I_beq_cg_cp_rs1_edges_0x80000001_str)
    1f40:	0005a383          	lw	x7,0(x11)
    1f44:	01538863          	beq	x7,x21,1f54 <I_beq_cg_cp_rs1_edges_0x80000001+0x1c>
    1f48:	14c0846f          	jal	x8,a094 <failedtest_x8_x7>
    1f4c:	00001f38          	.word	0x00001f38
    1f50:	0000d7b6          	.word	0x0000d7b6
    1f54:	00458593          	addi	x11,x11,4

# Testcase cp_rs1_edges (Test source rs1 value = 0x7fffffff)
  RVTEST_TESTDATA_LOAD_INT(x20, x12) # load rs1: x12 = 0x7fffffff
    1f58:	000a2603          	lw	x12,0(x20)
    1f5c:	004a0a13          	addi	x20,x20,4
  RVTEST_TESTDATA_LOAD_INT(x20, x25) # load rs2: x25 = 0x9bd41699
    1f60:	000a2c83          	lw	x25,0(x20)
    1f64:	004a0a13          	addi	x20,x20,4
  RVTEST_TESTDATA_LOAD_INT(x20, x21) # load branch taken value: x21 = 0x06233ff1
    1f68:	000a2a83          	lw	x21,0(x20)
    1f6c:	004a0a13          	addi	x20,x20,4

00001f70 <I_beq_cg_cp_rs1_edges_0x7fffffff>:
I_beq_cg_cp_rs1_edges_0x7fffffff:
  beq x12, x25, 1f # perform operation
    1f70:	01960463          	beq	x12,x25,1f78 <I_beq_cg_cp_rs1_edges_0x7fffffff+0x8>
  LI(x21, -1) # branch not taken, set temp_reg to 0
    1f74:	fff00a93          	addi	x21,x0,-1
1:
  # Check if x21 contains the expected result. x11 is the signature ptr, x8 is the link ptr, x7 is a temp reg.
  RVTEST_SIGUPD(x11, x8, x7, x21, I_beq_cg_cp_rs1_edges_0x7fffffff, I_beq_cg_cp_rs1_edges_0x7fffffff_str)
    1f78:	0005a383          	lw	x7,0(x11)
    1f7c:	01538863          	beq	x7,x21,1f8c <I_beq_cg_cp_rs1_edges_0x7fffffff+0x1c>
    1f80:	1140846f          	jal	x8,a094 <failedtest_x8_x7>
    1f84:	00001f70          	.word	0x00001f70
    1f88:	0000d7f2          	.word	0x0000d7f2
    1f8c:	00458593          	addi	x11,x11,4

# Testcase cp_rs1_edges (Test source rs1 value = 0x7ffffffe)
  RVTEST_TESTDATA_LOAD_INT(x20, x5) # load rs1: x5 = 0x7ffffffe
    1f90:	000a2283          	lw	x5,0(x20)
    1f94:	004a0a13          	addi	x20,x20,4
  RVTEST_TESTDATA_LOAD_INT(x20, x31) # load rs2: x31 = 0x96b61039
    1f98:	000a2f83          	lw	x31,0(x20)
    1f9c:	004a0a13          	addi	x20,x20,4
  RVTEST_TESTDATA_LOAD_INT(x20, x30) # load branch taken value: x30 = 0x88a16b54
    1fa0:	000a2f03          	lw	x30,0(x20)
    1fa4:	004a0a13          	addi	x20,x20,4

00001fa8 <I_beq_cg_cp_rs1_edges_0x7ffffffe>:
I_beq_cg_cp_rs1_edges_0x7ffffffe:
  beq x5, x31, 1f # perform operation
    1fa8:	01f28463          	beq	x5,x31,1fb0 <I_beq_cg_cp_rs1_edges_0x7ffffffe+0x8>
  LI(x30, -1) # branch not taken, set temp_reg to 0
    1fac:	fff00f13          	addi	x30,x0,-1
1:
  # Check if x30 contains the expected result. x11 is the signature ptr, x8 is the link ptr, x7 is a temp reg.
  RVTEST_SIGUPD(x11, x8, x7, x30, I_beq_cg_cp_rs1_edges_0x7ffffffe, I_beq_cg_cp_rs1_edges_0x7ffffffe_str)
    1fb0:	0005a383          	lw	x7,0(x11)
    1fb4:	01e38863          	beq	x7,x30,1fc4 <I_beq_cg_cp_rs1_edges_0x7ffffffe+0x1c>
    1fb8:	0dc0846f          	jal	x8,a094 <failedtest_x8_x7>
    1fbc:	00001fa8          	.word	0x00001fa8
    1fc0:	0000d82e          	.word	0x0000d82e
    1fc4:	00458593          	addi	x11,x11,4

# Testcase cp_rs1_edges (Test source rs1 value = 0xffffffff)
  RVTEST_TESTDATA_LOAD_INT(x20, x18) # load rs1: x18 = 0xffffffff
    1fc8:	000a2903          	lw	x18,0(x20)
    1fcc:	004a0a13          	addi	x20,x20,4
  RVTEST_TESTDATA_LOAD_INT(x20, x4) # load rs2: x4 = 0x32db1709
    1fd0:	000a2203          	lw	x4,0(x20)
    1fd4:	004a0a13          	addi	x20,x20,4
  RVTEST_TESTDATA_LOAD_INT(x20, x23) # load branch taken value: x23 = 0x809ce3a0
    1fd8:	000a2b83          	lw	x23,0(x20)
    1fdc:	004a0a13          	addi	x20,x20,4

00001fe0 <I_beq_cg_cp_rs1_edges_0xffffffff>:
I_beq_cg_cp_rs1_edges_0xffffffff:
  beq x18, x4, 1f # perform operation
    1fe0:	00490463          	beq	x18,x4,1fe8 <I_beq_cg_cp_rs1_edges_0xffffffff+0x8>
  LI(x23, -1) # branch not taken, set temp_reg to 0
    1fe4:	fff00b93          	addi	x23,x0,-1
1:
  # Check if x23 contains the expected result. x11 is the signature ptr, x8 is the link ptr, x7 is a temp reg.
  RVTEST_SIGUPD(x11, x8, x7, x23, I_beq_cg_cp_rs1_edges_0xffffffff, I_beq_cg_cp_rs1_edges_0xffffffff_str)
    1fe8:	0005a383          	lw	x7,0(x11)
    1fec:	01738863          	beq	x7,x23,1ffc <I_beq_cg_cp_rs1_edges_0xffffffff+0x1c>
    1ff0:	0a40846f          	jal	x8,a094 <failedtest_x8_x7>
    1ff4:	00001fe0          	.word	0x00001fe0
    1ff8:	0000d86a          	.word	0x0000d86a
    1ffc:	00458593          	addi	x11,x11,4

# Testcase cp_rs1_edges (Test source rs1 value = 0xfffffffe)
  RVTEST_TESTDATA_LOAD_INT(x20, x25) # load rs1: x25 = 0xfffffffe
    2000:	000a2c83          	lw	x25,0(x20)
    2004:	004a0a13          	addi	x20,x20,4
  RVTEST_TESTDATA_LOAD_INT(x20, x9) # load rs2: x9 = 0x1968db63
    2008:	000a2483          	lw	x9,0(x20)
    200c:	004a0a13          	addi	x20,x20,4
  RVTEST_TESTDATA_LOAD_INT(x20, x16) # load branch taken value: x16 = 0xdf787478
    2010:	000a2803          	lw	x16,0(x20)
    2014:	004a0a13          	addi	x20,x20,4

00002018 <I_beq_cg_cp_rs1_edges_0xfffffffe>:
I_beq_cg_cp_rs1_edges_0xfffffffe:
  beq x25, x9, 1f # perform operation
    2018:	009c8463          	beq	x25,x9,2020 <I_beq_cg_cp_rs1_edges_0xfffffffe+0x8>
  LI(x16, -1) # branch not taken, set temp_reg to 0
    201c:	fff00813          	addi	x16,x0,-1
1:
  # Check if x16 contains the expected result. x11 is the signature ptr, x8 is the link ptr, x7 is a temp reg.
  RVTEST_SIGUPD(x11, x8, x7, x16, I_beq_cg_cp_rs1_edges_0xfffffffe, I_beq_cg_cp_rs1_edges_0xfffffffe_str)
    2020:	0005a383          	lw	x7,0(x11)
    2024:	01038863          	beq	x7,x16,2034 <I_beq_cg_cp_rs1_edges_0xfffffffe+0x1c>
    2028:	06c0846f          	jal	x8,a094 <failedtest_x8_x7>
    202c:	00002018          	.word	0x00002018
    2030:	0000d8a6          	.word	0x0000d8a6
    2034:	00458593          	addi	x11,x11,4

# Testcase cp_rs1_edges (Test source rs1 value = 0x5bbc8872)
  RVTEST_TESTDATA_LOAD_INT(x20, x17) # load rs1: x17 = 0x5bbc8872
    2038:	000a2883          	lw	x17,0(x20)
    203c:	004a0a13          	addi	x20,x20,4
  RVTEST_TESTDATA_LOAD_INT(x20, x24) # load rs2: x24 = 0xae11c05d
    2040:	000a2c03          	lw	x24,0(x20)
    2044:	004a0a13          	addi	x20,x20,4
  RVTEST_TESTDATA_LOAD_INT(x20, x13) # load branch taken value: x13 = 0xf904befa
    2048:	000a2683          	lw	x13,0(x20)
    204c:	004a0a13          	addi	x20,x20,4

00002050 <I_beq_cg_cp_rs1_edges_0x5bbc8872>:
I_beq_cg_cp_rs1_edges_0x5bbc8872:
  beq x17, x24, 1f # perform operation
    2050:	01888463          	beq	x17,x24,2058 <I_beq_cg_cp_rs1_edges_0x5bbc8872+0x8>
  LI(x13, -1) # branch not taken, set temp_reg to 0
    2054:	fff00693          	addi	x13,x0,-1
1:
  # Check if x13 contains the expected result. x11 is the signature ptr, x8 is the link ptr, x7 is a temp reg.
  RVTEST_SIGUPD(x11, x8, x7, x13, I_beq_cg_cp_rs1_edges_0x5bbc8872, I_beq_cg_cp_rs1_edges_0x5bbc8872_str)
    2058:	0005a383          	lw	x7,0(x11)
    205c:	00d38863          	beq	x7,x13,206c <I_beq_cg_cp_rs1_edges_0x5bbc8872+0x1c>
    2060:	0340846f          	jal	x8,a094 <failedtest_x8_x7>
    2064:	00002050          	.word	0x00002050
    2068:	0000d8e2          	.word	0x0000d8e2
    206c:	00458593          	addi	x11,x11,4

# Testcase cp_rs1_edges (Test source rs1 value = 0xaaaaaaaa)
  RVTEST_TESTDATA_LOAD_INT(x20, x27) # load rs1: x27 = 0xaaaaaaaa
    2070:	000a2d83          	lw	x27,0(x20)
    2074:	004a0a13          	addi	x20,x20,4
  RVTEST_TESTDATA_LOAD_INT(x20, x23) # load rs2: x23 = 0x9c864175
    2078:	000a2b83          	lw	x23,0(x20)
    207c:	004a0a13          	addi	x20,x20,4
  RVTEST_TESTDATA_LOAD_INT(x20, x29) # load branch taken value: x29 = 0xcf79f49f
    2080:	000a2e83          	lw	x29,0(x20)
    2084:	004a0a13          	addi	x20,x20,4

00002088 <I_beq_cg_cp_rs1_edges_0xaaaaaaaa>:
I_beq_cg_cp_rs1_edges_0xaaaaaaaa:
  beq x27, x23, 1f # perform operation
    2088:	017d8463          	beq	x27,x23,2090 <I_beq_cg_cp_rs1_edges_0xaaaaaaaa+0x8>
  LI(x29, -1) # branch not taken, set temp_reg to 0
    208c:	fff00e93          	addi	x29,x0,-1
1:
  # Check if x29 contains the expected result. x11 is the signature ptr, x8 is the link ptr, x7 is a temp reg.
  RVTEST_SIGUPD(x11, x8, x7, x29, I_beq_cg_cp_rs1_edges_0xaaaaaaaa, I_beq_cg_cp_rs1_edges_0xaaaaaaaa_str)
    2090:	0005a383          	lw	x7,0(x11)
    2094:	01d38863          	beq	x7,x29,20a4 <I_beq_cg_cp_rs1_edges_0xaaaaaaaa+0x1c>
    2098:	7fd0746f          	jal	x8,a094 <failedtest_x8_x7>
    209c:	00002088          	.word	0x00002088
    20a0:	0000d91e          	.word	0x0000d91e
    20a4:	00458593          	addi	x11,x11,4

# Testcase cp_rs1_edges (Test source rs1 value = 0x55555555)
  RVTEST_TESTDATA_LOAD_INT(x20, x16) # load rs1: x16 = 0x55555555
    20a8:	000a2803          	lw	x16,0(x20)
    20ac:	004a0a13          	addi	x20,x20,4
  RVTEST_TESTDATA_LOAD_INT(x20, x1) # load rs2: x1 = 0xa9714231
    20b0:	000a2083          	lw	x1,0(x20)
    20b4:	004a0a13          	addi	x20,x20,4
  RVTEST_TESTDATA_LOAD_INT(x20, x18) # load branch taken value: x18 = 0xbf9c1030
    20b8:	000a2903          	lw	x18,0(x20)
    20bc:	004a0a13          	addi	x20,x20,4

000020c0 <I_beq_cg_cp_rs1_edges_0x55555555>:
I_beq_cg_cp_rs1_edges_0x55555555:
  beq x16, x1, 1f # perform operation
    20c0:	00180463          	beq	x16,x1,20c8 <I_beq_cg_cp_rs1_edges_0x55555555+0x8>
  LI(x18, -1) # branch not taken, set temp_reg to 0
    20c4:	fff00913          	addi	x18,x0,-1
1:
  # Check if x18 contains the expected result. x11 is the signature ptr, x8 is the link ptr, x7 is a temp reg.
  RVTEST_SIGUPD(x11, x8, x7, x18, I_beq_cg_cp_rs1_edges_0x55555555, I_beq_cg_cp_rs1_edges_0x55555555_str)
    20c8:	0005a383          	lw	x7,0(x11)
    20cc:	01238863          	beq	x7,x18,20dc <I_beq_cg_cp_rs1_edges_0x55555555+0x1c>
    20d0:	7c50746f          	jal	x8,a094 <failedtest_x8_x7>
    20d4:	000020c0          	.word	0x000020c0
    20d8:	0000d95a          	.word	0x0000d95a
    20dc:	00458593          	addi	x11,x11,4
/////////////////////////////////
// cp_rs2_edges
/////////////////////////////////

# Testcase cp_rs2_edges (Test source rs2 value = 0x00000000)
  RVTEST_TESTDATA_LOAD_INT(x20, x22) # load rs1: x22 = 0xa97c5ecc
    20e0:	000a2b03          	lw	x22,0(x20)
    20e4:	004a0a13          	addi	x20,x20,4
  RVTEST_TESTDATA_LOAD_INT(x20, x9) # load rs2: x9 = 0x00000000
    20e8:	000a2483          	lw	x9,0(x20)
    20ec:	004a0a13          	addi	x20,x20,4
  RVTEST_TESTDATA_LOAD_INT(x20, x14) # load branch taken value: x14 = 0xc86eb6ee
    20f0:	000a2703          	lw	x14,0(x20)
    20f4:	004a0a13          	addi	x20,x20,4

000020f8 <I_beq_cg_cp_rs2_edges_0x0>:
I_beq_cg_cp_rs2_edges_0x0:
  beq x22, x9, 1f # perform operation
    20f8:	009b0463          	beq	x22,x9,2100 <I_beq_cg_cp_rs2_edges_0x0+0x8>
  LI(x14, -1) # branch not taken, set temp_reg to 0
    20fc:	fff00713          	addi	x14,x0,-1
1:
  # Check if x14 contains the expected result. x11 is the signature ptr, x8 is the link ptr, x7 is a temp reg.
  RVTEST_SIGUPD(x11, x8, x7, x14, I_beq_cg_cp_rs2_edges_0x0, I_beq_cg_cp_rs2_edges_0x0_str)
    2100:	0005a383          	lw	x7,0(x11)
    2104:	00e38863          	beq	x7,x14,2114 <I_beq_cg_cp_rs2_edges_0x0+0x1c>
    2108:	78d0746f          	jal	x8,a094 <failedtest_x8_x7>
    210c:	000020f8          	.word	0x000020f8
    2110:	0000d996          	.word	0x0000d996
    2114:	00458593          	addi	x11,x11,4

# Testcase cp_rs2_edges (Test source rs2 value = 0x00000001)
  RVTEST_TESTDATA_LOAD_INT(x20, x10) # load rs1: x10 = 0x85891179
    2118:	000a2503          	lw	x10,0(x20)
    211c:	004a0a13          	addi	x20,x20,4
  RVTEST_TESTDATA_LOAD_INT(x20, x31) # load rs2: x31 = 0x00000001
    2120:	000a2f83          	lw	x31,0(x20)
    2124:	004a0a13          	addi	x20,x20,4
  RVTEST_TESTDATA_LOAD_INT(x20, x22) # load branch taken value: x22 = 0x456c1c93
    2128:	000a2b03          	lw	x22,0(x20)
    212c:	004a0a13          	addi	x20,x20,4

00002130 <I_beq_cg_cp_rs2_edges_0x1>:
I_beq_cg_cp_rs2_edges_0x1:
  beq x10, x31, 1f # perform operation
    2130:	01f50463          	beq	x10,x31,2138 <I_beq_cg_cp_rs2_edges_0x1+0x8>
  LI(x22, -1) # branch not taken, set temp_reg to 0
    2134:	fff00b13          	addi	x22,x0,-1
1:
  # Check if x22 contains the expected result. x11 is the signature ptr, x8 is the link ptr, x7 is a temp reg.
  RVTEST_SIGUPD(x11, x8, x7, x22, I_beq_cg_cp_rs2_edges_0x1, I_beq_cg_cp_rs2_edges_0x1_str)
    2138:	0005a383          	lw	x7,0(x11)
    213c:	01638863          	beq	x7,x22,214c <I_beq_cg_cp_rs2_edges_0x1+0x1c>
    2140:	7550746f          	jal	x8,a094 <failedtest_x8_x7>
    2144:	00002130          	.word	0x00002130
    2148:	0000d9cb          	.word	0x0000d9cb
    214c:	00458593          	addi	x11,x11,4

# Testcase cp_rs2_edges (Test source rs2 value = 0x00000002)
  RVTEST_TESTDATA_LOAD_INT(x20, x15) # load rs1: x15 = 0xdfb907f3
    2150:	000a2783          	lw	x15,0(x20)
    2154:	004a0a13          	addi	x20,x20,4
  RVTEST_TESTDATA_LOAD_INT(x20, x21) # load rs2: x21 = 0x00000002
    2158:	000a2a83          	lw	x21,0(x20)
    215c:	004a0a13          	addi	x20,x20,4
  RVTEST_TESTDATA_LOAD_INT(x20, x30) # load branch taken value: x30 = 0x2a72ed2f
    2160:	000a2f03          	lw	x30,0(x20)
    2164:	004a0a13          	addi	x20,x20,4

00002168 <I_beq_cg_cp_rs2_edges_0x2>:
I_beq_cg_cp_rs2_edges_0x2:
  beq x15, x21, 1f # perform operation
    2168:	01578463          	beq	x15,x21,2170 <I_beq_cg_cp_rs2_edges_0x2+0x8>
  LI(x30, -1) # branch not taken, set temp_reg to 0
    216c:	fff00f13          	addi	x30,x0,-1
1:
  # Check if x30 contains the expected result. x11 is the signature ptr, x8 is the link ptr, x7 is a temp reg.
  RVTEST_SIGUPD(x11, x8, x7, x30, I_beq_cg_cp_rs2_edges_0x2, I_beq_cg_cp_rs2_edges_0x2_str)
    2170:	0005a383          	lw	x7,0(x11)
    2174:	01e38863          	beq	x7,x30,2184 <I_beq_cg_cp_rs2_edges_0x2+0x1c>
    2178:	71d0746f          	jal	x8,a094 <failedtest_x8_x7>
    217c:	00002168          	.word	0x00002168
    2180:	0000da00          	.word	0x0000da00
    2184:	00458593          	addi	x11,x11,4

# Testcase cp_rs2_edges (Test source rs2 value = 0x80000000)
  RVTEST_TESTDATA_LOAD_INT(x20, x30) # load rs1: x30 = 0x50126ebf
    2188:	000a2f03          	lw	x30,0(x20)
    218c:	004a0a13          	addi	x20,x20,4
  RVTEST_TESTDATA_LOAD_INT(x20, x1) # load rs2: x1 = 0x80000000
    2190:	000a2083          	lw	x1,0(x20)
    2194:	004a0a13          	addi	x20,x20,4
  RVTEST_TESTDATA_LOAD_INT(x20, x14) # load branch taken value: x14 = 0x6701e02f
    2198:	000a2703          	lw	x14,0(x20)
    219c:	004a0a13          	addi	x20,x20,4

000021a0 <I_beq_cg_cp_rs2_edges_0x80000000>:
I_beq_cg_cp_rs2_edges_0x80000000:
  beq x30, x1, 1f # perform operation
    21a0:	001f0463          	beq	x30,x1,21a8 <I_beq_cg_cp_rs2_edges_0x80000000+0x8>
  LI(x14, -1) # branch not taken, set temp_reg to 0
    21a4:	fff00713          	addi	x14,x0,-1
1:
  # Check if x14 contains the expected result. x11 is the signature ptr, x8 is the link ptr, x7 is a temp reg.
  RVTEST_SIGUPD(x11, x8, x7, x14, I_beq_cg_cp_rs2_edges_0x80000000, I_beq_cg_cp_rs2_edges_0x80000000_str)
    21a8:	0005a383          	lw	x7,0(x11)
    21ac:	00e38863          	beq	x7,x14,21bc <I_beq_cg_cp_rs2_edges_0x80000000+0x1c>
    21b0:	6e50746f          	jal	x8,a094 <failedtest_x8_x7>
    21b4:	000021a0          	.word	0x000021a0
    21b8:	0000da35          	.word	0x0000da35
    21bc:	00458593          	addi	x11,x11,4

# Testcase cp_rs2_edges (Test source rs2 value = 0x80000001)
  RVTEST_TESTDATA_LOAD_INT(x20, x17) # load rs1: x17 = 0x7dfe4f24
    21c0:	000a2883          	lw	x17,0(x20)
    21c4:	004a0a13          	addi	x20,x20,4
  RVTEST_TESTDATA_LOAD_INT(x20, x27) # load rs2: x27 = 0x80000001
    21c8:	000a2d83          	lw	x27,0(x20)
    21cc:	004a0a13          	addi	x20,x20,4
  RVTEST_TESTDATA_LOAD_INT(x20, x18) # load branch taken value: x18 = 0x82799768
    21d0:	000a2903          	lw	x18,0(x20)
    21d4:	004a0a13          	addi	x20,x20,4

000021d8 <I_beq_cg_cp_rs2_edges_0x80000001>:
I_beq_cg_cp_rs2_edges_0x80000001:
  beq x17, x27, 1f # perform operation
    21d8:	01b88463          	beq	x17,x27,21e0 <I_beq_cg_cp_rs2_edges_0x80000001+0x8>
  LI(x18, -1) # branch not taken, set temp_reg to 0
    21dc:	fff00913          	addi	x18,x0,-1
1:
  # Check if x18 contains the expected result. x11 is the signature ptr, x8 is the link ptr, x7 is a temp reg.
  RVTEST_SIGUPD(x11, x8, x7, x18, I_beq_cg_cp_rs2_edges_0x80000001, I_beq_cg_cp_rs2_edges_0x80000001_str)
    21e0:	0005a383          	lw	x7,0(x11)
    21e4:	01238863          	beq	x7,x18,21f4 <I_beq_cg_cp_rs2_edges_0x80000001+0x1c>
    21e8:	6ad0746f          	jal	x8,a094 <failedtest_x8_x7>
    21ec:	000021d8          	.word	0x000021d8
    21f0:	0000da71          	.word	0x0000da71
    21f4:	00458593          	addi	x11,x11,4

# Testcase cp_rs2_edges (Test source rs2 value = 0x7fffffff)
  RVTEST_TESTDATA_LOAD_INT(x20, x14) # load rs1: x14 = 0xe7224459
    21f8:	000a2703          	lw	x14,0(x20)
    21fc:	004a0a13          	addi	x20,x20,4
  RVTEST_TESTDATA_LOAD_INT(x20, x21) # load rs2: x21 = 0x7fffffff
    2200:	000a2a83          	lw	x21,0(x20)
    2204:	004a0a13          	addi	x20,x20,4
  RVTEST_TESTDATA_LOAD_INT(x20, x17) # load branch taken value: x17 = 0x7481ec49
    2208:	000a2883          	lw	x17,0(x20)
    220c:	004a0a13          	addi	x20,x20,4

00002210 <I_beq_cg_cp_rs2_edges_0x7fffffff>:
I_beq_cg_cp_rs2_edges_0x7fffffff:
  beq x14, x21, 1f # perform operation
    2210:	01570463          	beq	x14,x21,2218 <I_beq_cg_cp_rs2_edges_0x7fffffff+0x8>
  LI(x17, -1) # branch not taken, set temp_reg to 0
    2214:	fff00893          	addi	x17,x0,-1
1:
  # Check if x17 contains the expected result. x11 is the signature ptr, x8 is the link ptr, x7 is a temp reg.
  RVTEST_SIGUPD(x11, x8, x7, x17, I_beq_cg_cp_rs2_edges_0x7fffffff, I_beq_cg_cp_rs2_edges_0x7fffffff_str)
    2218:	0005a383          	lw	x7,0(x11)
    221c:	01138863          	beq	x7,x17,222c <I_beq_cg_cp_rs2_edges_0x7fffffff+0x1c>
    2220:	6750746f          	jal	x8,a094 <failedtest_x8_x7>
    2224:	00002210          	.word	0x00002210
    2228:	0000daad          	.word	0x0000daad
    222c:	00458593          	addi	x11,x11,4

# Testcase cp_rs2_edges (Test source rs2 value = 0x7ffffffe)
  RVTEST_TESTDATA_LOAD_INT(x20, x18) # load rs1: x18 = 0xc3a6a630
    2230:	000a2903          	lw	x18,0(x20)
    2234:	004a0a13          	addi	x20,x20,4
  RVTEST_TESTDATA_LOAD_INT(x20, x10) # load rs2: x10 = 0x7ffffffe
    2238:	000a2503          	lw	x10,0(x20)
    223c:	004a0a13          	addi	x20,x20,4
  RVTEST_TESTDATA_LOAD_INT(x20, x4) # load branch taken value: x4 = 0xc4f38f53
    2240:	000a2203          	lw	x4,0(x20)
    2244:	004a0a13          	addi	x20,x20,4

00002248 <I_beq_cg_cp_rs2_edges_0x7ffffffe>:
I_beq_cg_cp_rs2_edges_0x7ffffffe:
  beq x18, x10, 1f # perform operation
    2248:	00a90463          	beq	x18,x10,2250 <I_beq_cg_cp_rs2_edges_0x7ffffffe+0x8>
  LI(x4, -1) # branch not taken, set temp_reg to 0
    224c:	fff00213          	addi	x4,x0,-1
1:
  # Check if x4 contains the expected result. x11 is the signature ptr, x8 is the link ptr, x7 is a temp reg.
  RVTEST_SIGUPD(x11, x8, x7, x4, I_beq_cg_cp_rs2_edges_0x7ffffffe, I_beq_cg_cp_rs2_edges_0x7ffffffe_str)
    2250:	0005a383          	lw	x7,0(x11)
    2254:	00438863          	beq	x7,x4,2264 <I_beq_cg_cp_rs2_edges_0x7ffffffe+0x1c>
    2258:	63d0746f          	jal	x8,a094 <failedtest_x8_x7>
    225c:	00002248          	.word	0x00002248
    2260:	0000dae9          	.word	0x0000dae9
    2264:	00458593          	addi	x11,x11,4

# Testcase cp_rs2_edges (Test source rs2 value = 0xffffffff)
  RVTEST_TESTDATA_LOAD_INT(x20, x1) # load rs1: x1 = 0xdec00e37
    2268:	000a2083          	lw	x1,0(x20)
    226c:	004a0a13          	addi	x20,x20,4
  RVTEST_TESTDATA_LOAD_INT(x20, x21) # load rs2: x21 = 0xffffffff
    2270:	000a2a83          	lw	x21,0(x20)
    2274:	004a0a13          	addi	x20,x20,4
  RVTEST_TESTDATA_LOAD_INT(x20, x13) # load branch taken value: x13 = 0x907432a4
    2278:	000a2683          	lw	x13,0(x20)
    227c:	004a0a13          	addi	x20,x20,4

00002280 <I_beq_cg_cp_rs2_edges_0xffffffff>:
I_beq_cg_cp_rs2_edges_0xffffffff:
  beq x1, x21, 1f # perform operation
    2280:	01508463          	beq	x1,x21,2288 <I_beq_cg_cp_rs2_edges_0xffffffff+0x8>
  LI(x13, -1) # branch not taken, set temp_reg to 0
    2284:	fff00693          	addi	x13,x0,-1
1:
  # Check if x13 contains the expected result. x11 is the signature ptr, x8 is the link ptr, x7 is a temp reg.
  RVTEST_SIGUPD(x11, x8, x7, x13, I_beq_cg_cp_rs2_edges_0xffffffff, I_beq_cg_cp_rs2_edges_0xffffffff_str)
    2288:	0005a383          	lw	x7,0(x11)
    228c:	00d38863          	beq	x7,x13,229c <I_beq_cg_cp_rs2_edges_0xffffffff+0x1c>
    2290:	6050746f          	jal	x8,a094 <failedtest_x8_x7>
    2294:	00002280          	.word	0x00002280
    2298:	0000db25          	.word	0x0000db25
    229c:	00458593          	addi	x11,x11,4

# Testcase cp_rs2_edges (Test source rs2 value = 0xfffffffe)
  RVTEST_TESTDATA_LOAD_INT(x20, x9) # load rs1: x9 = 0xe5f23ab1
    22a0:	000a2483          	lw	x9,0(x20)
    22a4:	004a0a13          	addi	x20,x20,4
  RVTEST_TESTDATA_LOAD_INT(x20, x17) # load rs2: x17 = 0xfffffffe
    22a8:	000a2883          	lw	x17,0(x20)
    22ac:	004a0a13          	addi	x20,x20,4
  RVTEST_TESTDATA_LOAD_INT(x20, x6) # load branch taken value: x6 = 0x1c5db70b
    22b0:	000a2303          	lw	x6,0(x20)
    22b4:	004a0a13          	addi	x20,x20,4

000022b8 <I_beq_cg_cp_rs2_edges_0xfffffffe>:
I_beq_cg_cp_rs2_edges_0xfffffffe:
  beq x9, x17, 1f # perform operation
    22b8:	01148463          	beq	x9,x17,22c0 <I_beq_cg_cp_rs2_edges_0xfffffffe+0x8>
  LI(x6, -1) # branch not taken, set temp_reg to 0
    22bc:	fff00313          	addi	x6,x0,-1
1:
  # Check if x6 contains the expected result. x11 is the signature ptr, x8 is the link ptr, x7 is a temp reg.
  RVTEST_SIGUPD(x11, x8, x7, x6, I_beq_cg_cp_rs2_edges_0xfffffffe, I_beq_cg_cp_rs2_edges_0xfffffffe_str)
    22c0:	0005a383          	lw	x7,0(x11)
    22c4:	00638863          	beq	x7,x6,22d4 <I_beq_cg_cp_rs2_edges_0xfffffffe+0x1c>
    22c8:	5cd0746f          	jal	x8,a094 <failedtest_x8_x7>
    22cc:	000022b8          	.word	0x000022b8
    22d0:	0000db61          	.word	0x0000db61
    22d4:	00458593          	addi	x11,x11,4

# Testcase cp_rs2_edges (Test source rs2 value = 0x5bbc8872)
  RVTEST_TESTDATA_LOAD_INT(x20, x31) # load rs1: x31 = 0x7a875ed4
    22d8:	000a2f83          	lw	x31,0(x20)
    22dc:	004a0a13          	addi	x20,x20,4
  RVTEST_TESTDATA_LOAD_INT(x20, x15) # load rs2: x15 = 0x5bbc8872
    22e0:	000a2783          	lw	x15,0(x20)
    22e4:	004a0a13          	addi	x20,x20,4
  RVTEST_TESTDATA_LOAD_INT(x20, x30) # load branch taken value: x30 = 0xd04301a7
    22e8:	000a2f03          	lw	x30,0(x20)
    22ec:	004a0a13          	addi	x20,x20,4

000022f0 <I_beq_cg_cp_rs2_edges_0x5bbc8872>:
I_beq_cg_cp_rs2_edges_0x5bbc8872:
  beq x31, x15, 1f # perform operation
    22f0:	00ff8463          	beq	x31,x15,22f8 <I_beq_cg_cp_rs2_edges_0x5bbc8872+0x8>
  LI(x30, -1) # branch not taken, set temp_reg to 0
    22f4:	fff00f13          	addi	x30,x0,-1
1:
  # Check if x30 contains the expected result. x11 is the signature ptr, x8 is the link ptr, x7 is a temp reg.
  RVTEST_SIGUPD(x11, x8, x7, x30, I_beq_cg_cp_rs2_edges_0x5bbc8872, I_beq_cg_cp_rs2_edges_0x5bbc8872_str)
    22f8:	0005a383          	lw	x7,0(x11)
    22fc:	01e38863          	beq	x7,x30,230c <I_beq_cg_cp_rs2_edges_0x5bbc8872+0x1c>
    2300:	5950746f          	jal	x8,a094 <failedtest_x8_x7>
    2304:	000022f0          	.word	0x000022f0
    2308:	0000db9d          	.word	0x0000db9d
    230c:	00458593          	addi	x11,x11,4

# Testcase cp_rs2_edges (Test source rs2 value = 0xaaaaaaaa)
  RVTEST_TESTDATA_LOAD_INT(x20, x14) # load rs1: x14 = 0x0399a850
    2310:	000a2703          	lw	x14,0(x20)
    2314:	004a0a13          	addi	x20,x20,4
  RVTEST_TESTDATA_LOAD_INT(x20, x15) # load rs2: x15 = 0xaaaaaaaa
    2318:	000a2783          	lw	x15,0(x20)
    231c:	004a0a13          	addi	x20,x20,4
  RVTEST_TESTDATA_LOAD_INT(x20, x26) # load branch taken value: x26 = 0x1a928d9e
    2320:	000a2d03          	lw	x26,0(x20)
    2324:	004a0a13          	addi	x20,x20,4

00002328 <I_beq_cg_cp_rs2_edges_0xaaaaaaaa>:
I_beq_cg_cp_rs2_edges_0xaaaaaaaa:
  beq x14, x15, 1f # perform operation
    2328:	00f70463          	beq	x14,x15,2330 <I_beq_cg_cp_rs2_edges_0xaaaaaaaa+0x8>
  LI(x26, -1) # branch not taken, set temp_reg to 0
    232c:	fff00d13          	addi	x26,x0,-1
1:
  # Check if x26 contains the expected result. x11 is the signature ptr, x8 is the link ptr, x7 is a temp reg.
  RVTEST_SIGUPD(x11, x8, x7, x26, I_beq_cg_cp_rs2_edges_0xaaaaaaaa, I_beq_cg_cp_rs2_edges_0xaaaaaaaa_str)
    2330:	0005a383          	lw	x7,0(x11)
    2334:	01a38863          	beq	x7,x26,2344 <I_beq_cg_cp_rs2_edges_0xaaaaaaaa+0x1c>
    2338:	55d0746f          	jal	x8,a094 <failedtest_x8_x7>
    233c:	00002328          	.word	0x00002328
    2340:	0000dbd9          	.word	0x0000dbd9
    2344:	00458593          	addi	x11,x11,4

# Testcase cp_rs2_edges (Test source rs2 value = 0x55555555)
  RVTEST_TESTDATA_LOAD_INT(x20, x6) # load rs1: x6 = 0x8945cb83
    2348:	000a2303          	lw	x6,0(x20)
    234c:	004a0a13          	addi	x20,x20,4
  RVTEST_TESTDATA_LOAD_INT(x20, x15) # load rs2: x15 = 0x55555555
    2350:	000a2783          	lw	x15,0(x20)
    2354:	004a0a13          	addi	x20,x20,4
  RVTEST_TESTDATA_LOAD_INT(x20, x31) # load branch taken value: x31 = 0xafc8074d
    2358:	000a2f83          	lw	x31,0(x20)
    235c:	004a0a13          	addi	x20,x20,4

00002360 <I_beq_cg_cp_rs2_edges_0x55555555>:
I_beq_cg_cp_rs2_edges_0x55555555:
  beq x6, x15, 1f # perform operation
    2360:	00f30463          	beq	x6,x15,2368 <I_beq_cg_cp_rs2_edges_0x55555555+0x8>
  LI(x31, -1) # branch not taken, set temp_reg to 0
    2364:	fff00f93          	addi	x31,x0,-1
1:
  # Check if x31 contains the expected result. x11 is the signature ptr, x8 is the link ptr, x7 is a temp reg.
  RVTEST_SIGUPD(x11, x8, x7, x31, I_beq_cg_cp_rs2_edges_0x55555555, I_beq_cg_cp_rs2_edges_0x55555555_str)
    2368:	0005a383          	lw	x7,0(x11)
    236c:	01f38863          	beq	x7,x31,237c <I_beq_cg_cp_rs2_edges_0x55555555+0x1c>
    2370:	5250746f          	jal	x8,a094 <failedtest_x8_x7>
    2374:	00002360          	.word	0x00002360
    2378:	0000dc15          	.word	0x0000dc15
    237c:	00458593          	addi	x11,x11,4
/////////////////////////////////
// cr_rs1_rs2_edges_offset
/////////////////////////////////

# cr_rs1_rs2_edges_offset (Test source rs1 = 0x00000000 rs2 = 0x00000000)
  RVTEST_TESTDATA_LOAD_INT(x20, x16) # load rs1: x16 = 0x00000000
    2380:	000a2803          	lw	x16,0(x20)
    2384:	004a0a13          	addi	x20,x20,4
  RVTEST_TESTDATA_LOAD_INT(x20, x23) # load rs2: x23 = 0x00000000
    2388:	000a2b83          	lw	x23,0(x20)
    238c:	004a0a13          	addi	x20,x20,4

00002390 <I_beq_cg_cr_rs1_rs2_edges_offset_rs1val_0x0_rs2val_0x0>:
0: # destination for backwards branch that is never taken
I_beq_cg_cr_rs1_rs2_edges_offset_rs1val_0x0_rs2val_0x0:
  beq x16, x23, 3f # forward branch, if taken
    2390:	05780263          	beq	x16,x23,23d4 <I_beq_cg_cr_rs1_rs2_edges_offset_rs1val_0x0_rs2val_0x0+0x44>
1: # goes here if not taken
  beq x16, x23, 0b # backward branch, never taken
    2394:	ff780ee3          	beq	x16,x23,2390 <I_beq_cg_cr_rs1_rs2_edges_offset_rs1val_0x0_rs2val_0x0>
  # Check if x0 contains the expected result. x11 is the signature ptr, x8 is the link ptr, x7 is a temp reg.
  RVTEST_SIGUPD(x11, x8, x7, x0, I_beq_cg_cr_rs1_rs2_edges_offset_rs1val_0x0_rs2val_0x0, I_beq_cg_cr_rs1_rs2_edges_offset_rs1val_0x0_rs2val_0x0_str)
    2398:	0005a383          	lw	x7,0(x11)
    239c:	00038863          	beq	x7,x0,23ac <I_beq_cg_cr_rs1_rs2_edges_offset_rs1val_0x0_rs2val_0x0+0x1c>
    23a0:	4f50746f          	jal	x8,a094 <failedtest_x8_x7>
    23a4:	00002390          	.word	0x00002390
    23a8:	0000dc51          	.word	0x0000dc51
    23ac:	00458593          	addi	x11,x11,4
  j 4f # done with test
    23b0:	0280006f          	jal	x0,23d8 <I_beq_cg_cr_rs1_rs2_edges_offset_rs1val_0x0_rs2val_0x0+0x48>
2: # goes here during backward branch if taken
  LI(x16, 1)
    23b4:	00100813          	addi	x16,x0,1
  # Check if x16 contains the expected result. x11 is the signature ptr, x8 is the link ptr, x7 is a temp reg.
  RVTEST_SIGUPD(x11, x8, x7, x16, I_beq_cg_cr_rs1_rs2_edges_offset_rs1val_0x0_rs2val_0x0, I_beq_cg_cr_rs1_rs2_edges_offset_rs1val_0x0_rs2val_0x0_str) # signature 1 for taken
    23b8:	0005a383          	lw	x7,0(x11)
    23bc:	01038863          	beq	x7,x16,23cc <I_beq_cg_cr_rs1_rs2_edges_offset_rs1val_0x0_rs2val_0x0+0x3c>
    23c0:	4d50746f          	jal	x8,a094 <failedtest_x8_x7>
    23c4:	00002390          	.word	0x00002390
    23c8:	0000dc51          	.word	0x0000dc51
    23cc:	00458593          	addi	x11,x11,4
  j 4f # done with test
    23d0:	0080006f          	jal	x0,23d8 <I_beq_cg_cr_rs1_rs2_edges_offset_rs1val_0x0_rs2val_0x0+0x48>
3: # goes here during forward branch if taken
  beq x16, x23, 2b # backward branch, definitely taken
    23d4:	ff7800e3          	beq	x16,x23,23b4 <I_beq_cg_cr_rs1_rs2_edges_offset_rs1val_0x0_rs2val_0x0+0x24>
4: # done with test

# cr_rs1_rs2_edges_offset (Test source rs1 = 0x00000000 rs2 = 0x00000001)
  RVTEST_TESTDATA_LOAD_INT(x20, x1) # load rs1: x1 = 0x00000000
    23d8:	000a2083          	lw	x1,0(x20)
    23dc:	004a0a13          	addi	x20,x20,4
  RVTEST_TESTDATA_LOAD_INT(x20, x14) # load rs2: x14 = 0x00000001
    23e0:	000a2703          	lw	x14,0(x20)
    23e4:	004a0a13          	addi	x20,x20,4

000023e8 <I_beq_cg_cr_rs1_rs2_edges_offset_rs1val_0x0_rs2val_0x1>:
0: # destination for backwards branch that is never taken
I_beq_cg_cr_rs1_rs2_edges_offset_rs1val_0x0_rs2val_0x1:
  beq x1, x14, 3f # forward branch, if taken
    23e8:	04e08263          	beq	x1,x14,242c <I_beq_cg_cr_rs1_rs2_edges_offset_rs1val_0x0_rs2val_0x1+0x44>
1: # goes here if not taken
  beq x1, x14, 0b # backward branch, never taken
    23ec:	fee08ee3          	beq	x1,x14,23e8 <I_beq_cg_cr_rs1_rs2_edges_offset_rs1val_0x0_rs2val_0x1>
  # Check if x0 contains the expected result. x11 is the signature ptr, x8 is the link ptr, x7 is a temp reg.
  RVTEST_SIGUPD(x11, x8, x7, x0, I_beq_cg_cr_rs1_rs2_edges_offset_rs1val_0x0_rs2val_0x1, I_beq_cg_cr_rs1_rs2_edges_offset_rs1val_0x0_rs2val_0x1_str)
    23f0:	0005a383          	lw	x7,0(x11)
    23f4:	00038863          	beq	x7,x0,2404 <I_beq_cg_cr_rs1_rs2_edges_offset_rs1val_0x0_rs2val_0x1+0x1c>
    23f8:	49d0746f          	jal	x8,a094 <failedtest_x8_x7>
    23fc:	000023e8          	.word	0x000023e8
    2400:	0000dca4          	.word	0x0000dca4
    2404:	00458593          	addi	x11,x11,4
  j 4f # done with test
    2408:	0280006f          	jal	x0,2430 <I_beq_cg_cr_rs1_rs2_edges_offset_rs1val_0x0_rs2val_0x1+0x48>
2: # goes here during backward branch if taken
  LI(x1, 1)
    240c:	00100093          	addi	x1,x0,1
  # Check if x1 contains the expected result. x11 is the signature ptr, x8 is the link ptr, x7 is a temp reg.
  RVTEST_SIGUPD(x11, x8, x7, x1, I_beq_cg_cr_rs1_rs2_edges_offset_rs1val_0x0_rs2val_0x1, I_beq_cg_cr_rs1_rs2_edges_offset_rs1val_0x0_rs2val_0x1_str) # signature 1 for taken
    2410:	0005a383          	lw	x7,0(x11)
    2414:	00138863          	beq	x7,x1,2424 <I_beq_cg_cr_rs1_rs2_edges_offset_rs1val_0x0_rs2val_0x1+0x3c>
    2418:	47d0746f          	jal	x8,a094 <failedtest_x8_x7>
    241c:	000023e8          	.word	0x000023e8
    2420:	0000dca4          	.word	0x0000dca4
    2424:	00458593          	addi	x11,x11,4
  j 4f # done with test
    2428:	0080006f          	jal	x0,2430 <I_beq_cg_cr_rs1_rs2_edges_offset_rs1val_0x0_rs2val_0x1+0x48>
3: # goes here during forward branch if taken
  beq x1, x14, 2b # backward branch, definitely taken
    242c:	fee080e3          	beq	x1,x14,240c <I_beq_cg_cr_rs1_rs2_edges_offset_rs1val_0x0_rs2val_0x1+0x24>
4: # done with test

# cr_rs1_rs2_edges_offset (Test source rs1 = 0x00000000 rs2 = 0x00000002)
  RVTEST_TESTDATA_LOAD_INT(x20, x18) # load rs1: x18 = 0x00000000
    2430:	000a2903          	lw	x18,0(x20)
    2434:	004a0a13          	addi	x20,x20,4
  RVTEST_TESTDATA_LOAD_INT(x20, x4) # load rs2: x4 = 0x00000002
    2438:	000a2203          	lw	x4,0(x20)
    243c:	004a0a13          	addi	x20,x20,4

00002440 <I_beq_cg_cr_rs1_rs2_edges_offset_rs1val_0x0_rs2val_0x2>:
0: # destination for backwards branch that is never taken
I_beq_cg_cr_rs1_rs2_edges_offset_rs1val_0x0_rs2val_0x2:
  beq x18, x4, 3f # forward branch, if taken
    2440:	04490263          	beq	x18,x4,2484 <I_beq_cg_cr_rs1_rs2_edges_offset_rs1val_0x0_rs2val_0x2+0x44>
1: # goes here if not taken
  beq x18, x4, 0b # backward branch, never taken
    2444:	fe490ee3          	beq	x18,x4,2440 <I_beq_cg_cr_rs1_rs2_edges_offset_rs1val_0x0_rs2val_0x2>
  # Check if x0 contains the expected result. x11 is the signature ptr, x8 is the link ptr, x7 is a temp reg.
  RVTEST_SIGUPD(x11, x8, x7, x0, I_beq_cg_cr_rs1_rs2_edges_offset_rs1val_0x0_rs2val_0x2, I_beq_cg_cr_rs1_rs2_edges_offset_rs1val_0x0_rs2val_0x2_str)
    2448:	0005a383          	lw	x7,0(x11)
    244c:	00038863          	beq	x7,x0,245c <I_beq_cg_cr_rs1_rs2_edges_offset_rs1val_0x0_rs2val_0x2+0x1c>
    2450:	4450746f          	jal	x8,a094 <failedtest_x8_x7>
    2454:	00002440          	.word	0x00002440
    2458:	0000dcf7          	.word	0x0000dcf7
    245c:	00458593          	addi	x11,x11,4
  j 4f # done with test
    2460:	0280006f          	jal	x0,2488 <I_beq_cg_cr_rs1_rs2_edges_offset_rs1val_0x0_rs2val_0x2+0x48>
2: # goes here during backward branch if taken
  LI(x18, 1)
    2464:	00100913          	addi	x18,x0,1
  # Check if x18 contains the expected result. x11 is the signature ptr, x8 is the link ptr, x7 is a temp reg.
  RVTEST_SIGUPD(x11, x8, x7, x18, I_beq_cg_cr_rs1_rs2_edges_offset_rs1val_0x0_rs2val_0x2, I_beq_cg_cr_rs1_rs2_edges_offset_rs1val_0x0_rs2val_0x2_str) # signature 1 for taken
    2468:	0005a383          	lw	x7,0(x11)
    246c:	01238863          	beq	x7,x18,247c <I_beq_cg_cr_rs1_rs2_edges_offset_rs1val_0x0_rs2val_0x2+0x3c>
    2470:	4250746f          	jal	x8,a094 <failedtest_x8_x7>
    2474:	00002440          	.word	0x00002440
    2478:	0000dcf7          	.word	0x0000dcf7
    247c:	00458593          	addi	x11,x11,4
  j 4f # done with test
    2480:	0080006f          	jal	x0,2488 <I_beq_cg_cr_rs1_rs2_edges_offset_rs1val_0x0_rs2val_0x2+0x48>
3: # goes here during forward branch if taken
  beq x18, x4, 2b # backward branch, definitely taken
    2484:	fe4900e3          	beq	x18,x4,2464 <I_beq_cg_cr_rs1_rs2_edges_offset_rs1val_0x0_rs2val_0x2+0x24>
4: # done with test

# cr_rs1_rs2_edges_offset (Test source rs1 = 0x00000000 rs2 = 0x80000000)
  RVTEST_TESTDATA_LOAD_INT(x20, x23) # load rs1: x23 = 0x00000000
    2488:	000a2b83          	lw	x23,0(x20)
    248c:	004a0a13          	addi	x20,x20,4
  RVTEST_TESTDATA_LOAD_INT(x20, x6) # load rs2: x6 = 0x80000000
    2490:	000a2303          	lw	x6,0(x20)
    2494:	004a0a13          	addi	x20,x20,4

00002498 <I_beq_cg_cr_rs1_rs2_edges_offset_rs1val_0x0_rs2val_0x80000000>:
0: # destination for backwards branch that is never taken
I_beq_cg_cr_rs1_rs2_edges_offset_rs1val_0x0_rs2val_0x80000000:
  beq x23, x6, 3f # forward branch, if taken
    2498:	046b8263          	beq	x23,x6,24dc <I_beq_cg_cr_rs1_rs2_edges_offset_rs1val_0x0_rs2val_0x80000000+0x44>
1: # goes here if not taken
  beq x23, x6, 0b # backward branch, never taken
    249c:	fe6b8ee3          	beq	x23,x6,2498 <I_beq_cg_cr_rs1_rs2_edges_offset_rs1val_0x0_rs2val_0x80000000>
  # Check if x0 contains the expected result. x11 is the signature ptr, x8 is the link ptr, x7 is a temp reg.
  RVTEST_SIGUPD(x11, x8, x7, x0, I_beq_cg_cr_rs1_rs2_edges_offset_rs1val_0x0_rs2val_0x80000000, I_beq_cg_cr_rs1_rs2_edges_offset_rs1val_0x0_rs2val_0x80000000_str)
    24a0:	0005a383          	lw	x7,0(x11)
    24a4:	00038863          	beq	x7,x0,24b4 <I_beq_cg_cr_rs1_rs2_edges_offset_rs1val_0x0_rs2val_0x80000000+0x1c>
    24a8:	3ed0746f          	jal	x8,a094 <failedtest_x8_x7>
    24ac:	00002498          	.word	0x00002498
    24b0:	0000dd4a          	.word	0x0000dd4a
    24b4:	00458593          	addi	x11,x11,4
  j 4f # done with test
    24b8:	0280006f          	jal	x0,24e0 <I_beq_cg_cr_rs1_rs2_edges_offset_rs1val_0x0_rs2val_0x80000000+0x48>
2: # goes here during backward branch if taken
  LI(x23, 1)
    24bc:	00100b93          	addi	x23,x0,1
  # Check if x23 contains the expected result. x11 is the signature ptr, x8 is the link ptr, x7 is a temp reg.
  RVTEST_SIGUPD(x11, x8, x7, x23, I_beq_cg_cr_rs1_rs2_edges_offset_rs1val_0x0_rs2val_0x80000000, I_beq_cg_cr_rs1_rs2_edges_offset_rs1val_0x0_rs2val_0x80000000_str) # signature 1 for taken
    24c0:	0005a383          	lw	x7,0(x11)
    24c4:	01738863          	beq	x7,x23,24d4 <I_beq_cg_cr_rs1_rs2_edges_offset_rs1val_0x0_rs2val_0x80000000+0x3c>
    24c8:	3cd0746f          	jal	x8,a094 <failedtest_x8_x7>
    24cc:	00002498          	.word	0x00002498
    24d0:	0000dd4a          	.word	0x0000dd4a
    24d4:	00458593          	addi	x11,x11,4
  j 4f # done with test
    24d8:	0080006f          	jal	x0,24e0 <I_beq_cg_cr_rs1_rs2_edges_offset_rs1val_0x0_rs2val_0x80000000+0x48>
3: # goes here during forward branch if taken
  beq x23, x6, 2b # backward branch, definitely taken
    24dc:	fe6b80e3          	beq	x23,x6,24bc <I_beq_cg_cr_rs1_rs2_edges_offset_rs1val_0x0_rs2val_0x80000000+0x24>
4: # done with test

# cr_rs1_rs2_edges_offset (Test source rs1 = 0x00000000 rs2 = 0x80000001)
  RVTEST_TESTDATA_LOAD_INT(x20, x2) # load rs1: x2 = 0x00000000
    24e0:	000a2103          	lw	x2,0(x20)
    24e4:	004a0a13          	addi	x20,x20,4
  RVTEST_TESTDATA_LOAD_INT(x20, x5) # load rs2: x5 = 0x80000001
    24e8:	000a2283          	lw	x5,0(x20)
    24ec:	004a0a13          	addi	x20,x20,4

000024f0 <I_beq_cg_cr_rs1_rs2_edges_offset_rs1val_0x0_rs2val_0x80000001>:
0: # destination for backwards branch that is never taken
I_beq_cg_cr_rs1_rs2_edges_offset_rs1val_0x0_rs2val_0x80000001:
  beq x2, x5, 3f # forward branch, if taken
    24f0:	04510263          	beq	x2,x5,2534 <I_beq_cg_cr_rs1_rs2_edges_offset_rs1val_0x0_rs2val_0x80000001+0x44>
1: # goes here if not taken
  beq x2, x5, 0b # backward branch, never taken
    24f4:	fe510ee3          	beq	x2,x5,24f0 <I_beq_cg_cr_rs1_rs2_edges_offset_rs1val_0x0_rs2val_0x80000001>
  # Check if x0 contains the expected result. x11 is the signature ptr, x8 is the link ptr, x7 is a temp reg.
  RVTEST_SIGUPD(x11, x8, x7, x0, I_beq_cg_cr_rs1_rs2_edges_offset_rs1val_0x0_rs2val_0x80000001, I_beq_cg_cr_rs1_rs2_edges_offset_rs1val_0x0_rs2val_0x80000001_str)
    24f8:	0005a383          	lw	x7,0(x11)
    24fc:	00038863          	beq	x7,x0,250c <I_beq_cg_cr_rs1_rs2_edges_offset_rs1val_0x0_rs2val_0x80000001+0x1c>
    2500:	3950746f          	jal	x8,a094 <failedtest_x8_x7>
    2504:	000024f0          	.word	0x000024f0
    2508:	0000dda4          	.word	0x0000dda4
    250c:	00458593          	addi	x11,x11,4
  j 4f # done with test
    2510:	0280006f          	jal	x0,2538 <I_beq_cg_cr_rs1_rs2_edges_offset_rs1val_0x0_rs2val_0x80000001+0x48>
2: # goes here during backward branch if taken
  LI(x2, 1)
    2514:	00100113          	addi	x2,x0,1
  # Check if x2 contains the expected result. x11 is the signature ptr, x8 is the link ptr, x7 is a temp reg.
  RVTEST_SIGUPD(x11, x8, x7, x2, I_beq_cg_cr_rs1_rs2_edges_offset_rs1val_0x0_rs2val_0x80000001, I_beq_cg_cr_rs1_rs2_edges_offset_rs1val_0x0_rs2val_0x80000001_str) # signature 1 for taken
    2518:	0005a383          	lw	x7,0(x11)
    251c:	00238863          	beq	x7,x2,252c <I_beq_cg_cr_rs1_rs2_edges_offset_rs1val_0x0_rs2val_0x80000001+0x3c>
    2520:	3750746f          	jal	x8,a094 <failedtest_x8_x7>
    2524:	000024f0          	.word	0x000024f0
    2528:	0000dda4          	.word	0x0000dda4
    252c:	00458593          	addi	x11,x11,4
  j 4f # done with test
    2530:	0080006f          	jal	x0,2538 <I_beq_cg_cr_rs1_rs2_edges_offset_rs1val_0x0_rs2val_0x80000001+0x48>
3: # goes here during forward branch if taken
  beq x2, x5, 2b # backward branch, definitely taken
    2534:	fe5100e3          	beq	x2,x5,2514 <I_beq_cg_cr_rs1_rs2_edges_offset_rs1val_0x0_rs2val_0x80000001+0x24>
4: # done with test

# cr_rs1_rs2_edges_offset (Test source rs1 = 0x00000000 rs2 = 0x7fffffff)
  RVTEST_TESTDATA_LOAD_INT(x20, x22) # load rs1: x22 = 0x00000000
    2538:	000a2b03          	lw	x22,0(x20)
    253c:	004a0a13          	addi	x20,x20,4
  RVTEST_TESTDATA_LOAD_INT(x20, x15) # load rs2: x15 = 0x7fffffff
    2540:	000a2783          	lw	x15,0(x20)
    2544:	004a0a13          	addi	x20,x20,4

00002548 <I_beq_cg_cr_rs1_rs2_edges_offset_rs1val_0x0_rs2val_0x7fffffff>:
0: # destination for backwards branch that is never taken
I_beq_cg_cr_rs1_rs2_edges_offset_rs1val_0x0_rs2val_0x7fffffff:
  beq x22, x15, 3f # forward branch, if taken
    2548:	04fb0263          	beq	x22,x15,258c <I_beq_cg_cr_rs1_rs2_edges_offset_rs1val_0x0_rs2val_0x7fffffff+0x44>
1: # goes here if not taken
  beq x22, x15, 0b # backward branch, never taken
    254c:	fefb0ee3          	beq	x22,x15,2548 <I_beq_cg_cr_rs1_rs2_edges_offset_rs1val_0x0_rs2val_0x7fffffff>
  # Check if x0 contains the expected result. x11 is the signature ptr, x8 is the link ptr, x7 is a temp reg.
  RVTEST_SIGUPD(x11, x8, x7, x0, I_beq_cg_cr_rs1_rs2_edges_offset_rs1val_0x0_rs2val_0x7fffffff, I_beq_cg_cr_rs1_rs2_edges_offset_rs1val_0x0_rs2val_0x7fffffff_str)
    2550:	0005a383          	lw	x7,0(x11)
    2554:	00038863          	beq	x7,x0,2564 <I_beq_cg_cr_rs1_rs2_edges_offset_rs1val_0x0_rs2val_0x7fffffff+0x1c>
    2558:	33d0746f          	jal	x8,a094 <failedtest_x8_x7>
    255c:	00002548          	.word	0x00002548
    2560:	0000ddfe          	.word	0x0000ddfe
    2564:	00458593          	addi	x11,x11,4
  j 4f # done with test
    2568:	0280006f          	jal	x0,2590 <I_beq_cg_cr_rs1_rs2_edges_offset_rs1val_0x0_rs2val_0x7fffffff+0x48>
2: # goes here during backward branch if taken
  LI(x22, 1)
    256c:	00100b13          	addi	x22,x0,1
  # Check if x22 contains the expected result. x11 is the signature ptr, x8 is the link ptr, x7 is a temp reg.
  RVTEST_SIGUPD(x11, x8, x7, x22, I_beq_cg_cr_rs1_rs2_edges_offset_rs1val_0x0_rs2val_0x7fffffff, I_beq_cg_cr_rs1_rs2_edges_offset_rs1val_0x0_rs2val_0x7fffffff_str) # signature 1 for taken
    2570:	0005a383          	lw	x7,0(x11)
    2574:	01638863          	beq	x7,x22,2584 <I_beq_cg_cr_rs1_rs2_edges_offset_rs1val_0x0_rs2val_0x7fffffff+0x3c>
    2578:	31d0746f          	jal	x8,a094 <failedtest_x8_x7>
    257c:	00002548          	.word	0x00002548
    2580:	0000ddfe          	.word	0x0000ddfe
    2584:	00458593          	addi	x11,x11,4
  j 4f # done with test
    2588:	0080006f          	jal	x0,2590 <I_beq_cg_cr_rs1_rs2_edges_offset_rs1val_0x0_rs2val_0x7fffffff+0x48>
3: # goes here during forward branch if taken
  beq x22, x15, 2b # backward branch, definitely taken
    258c:	fefb00e3          	beq	x22,x15,256c <I_beq_cg_cr_rs1_rs2_edges_offset_rs1val_0x0_rs2val_0x7fffffff+0x24>
4: # done with test

# cr_rs1_rs2_edges_offset (Test source rs1 = 0x00000000 rs2 = 0x7ffffffe)
  RVTEST_TESTDATA_LOAD_INT(x20, x12) # load rs1: x12 = 0x00000000
    2590:	000a2603          	lw	x12,0(x20)
    2594:	004a0a13          	addi	x20,x20,4
  RVTEST_TESTDATA_LOAD_INT(x20, x5) # load rs2: x5 = 0x7ffffffe
    2598:	000a2283          	lw	x5,0(x20)
    259c:	004a0a13          	addi	x20,x20,4

000025a0 <I_beq_cg_cr_rs1_rs2_edges_offset_rs1val_0x0_rs2val_0x7ffffffe>:
0: # destination for backwards branch that is never taken
I_beq_cg_cr_rs1_rs2_edges_offset_rs1val_0x0_rs2val_0x7ffffffe:
  beq x12, x5, 3f # forward branch, if taken
    25a0:	04560263          	beq	x12,x5,25e4 <I_beq_cg_cr_rs1_rs2_edges_offset_rs1val_0x0_rs2val_0x7ffffffe+0x44>
1: # goes here if not taken
  beq x12, x5, 0b # backward branch, never taken
    25a4:	fe560ee3          	beq	x12,x5,25a0 <I_beq_cg_cr_rs1_rs2_edges_offset_rs1val_0x0_rs2val_0x7ffffffe>
  # Check if x0 contains the expected result. x11 is the signature ptr, x8 is the link ptr, x7 is a temp reg.
  RVTEST_SIGUPD(x11, x8, x7, x0, I_beq_cg_cr_rs1_rs2_edges_offset_rs1val_0x0_rs2val_0x7ffffffe, I_beq_cg_cr_rs1_rs2_edges_offset_rs1val_0x0_rs2val_0x7ffffffe_str)
    25a8:	0005a383          	lw	x7,0(x11)
    25ac:	00038863          	beq	x7,x0,25bc <I_beq_cg_cr_rs1_rs2_edges_offset_rs1val_0x0_rs2val_0x7ffffffe+0x1c>
    25b0:	2e50746f          	jal	x8,a094 <failedtest_x8_x7>
    25b4:	000025a0          	.word	0x000025a0
    25b8:	0000de58          	.word	0x0000de58
    25bc:	00458593          	addi	x11,x11,4
  j 4f # done with test
    25c0:	0280006f          	jal	x0,25e8 <I_beq_cg_cr_rs1_rs2_edges_offset_rs1val_0x0_rs2val_0x7ffffffe+0x48>
2: # goes here during backward branch if taken
  LI(x12, 1)
    25c4:	00100613          	addi	x12,x0,1
  # Check if x12 contains the expected result. x11 is the signature ptr, x8 is the link ptr, x7 is a temp reg.
  RVTEST_SIGUPD(x11, x8, x7, x12, I_beq_cg_cr_rs1_rs2_edges_offset_rs1val_0x0_rs2val_0x7ffffffe, I_beq_cg_cr_rs1_rs2_edges_offset_rs1val_0x0_rs2val_0x7ffffffe_str) # signature 1 for taken
    25c8:	0005a383          	lw	x7,0(x11)
    25cc:	00c38863          	beq	x7,x12,25dc <I_beq_cg_cr_rs1_rs2_edges_offset_rs1val_0x0_rs2val_0x7ffffffe+0x3c>
    25d0:	2c50746f          	jal	x8,a094 <failedtest_x8_x7>
    25d4:	000025a0          	.word	0x000025a0
    25d8:	0000de58          	.word	0x0000de58
    25dc:	00458593          	addi	x11,x11,4
  j 4f # done with test
    25e0:	0080006f          	jal	x0,25e8 <I_beq_cg_cr_rs1_rs2_edges_offset_rs1val_0x0_rs2val_0x7ffffffe+0x48>
3: # goes here during forward branch if taken
  beq x12, x5, 2b # backward branch, definitely taken
    25e4:	fe5600e3          	beq	x12,x5,25c4 <I_beq_cg_cr_rs1_rs2_edges_offset_rs1val_0x0_rs2val_0x7ffffffe+0x24>
4: # done with test

# cr_rs1_rs2_edges_offset (Test source rs1 = 0x00000000 rs2 = 0xffffffff)
  RVTEST_TESTDATA_LOAD_INT(x20, x13) # load rs1: x13 = 0x00000000
    25e8:	000a2683          	lw	x13,0(x20)
    25ec:	004a0a13          	addi	x20,x20,4
  RVTEST_TESTDATA_LOAD_INT(x20, x4) # load rs2: x4 = 0xffffffff
    25f0:	000a2203          	lw	x4,0(x20)
    25f4:	004a0a13          	addi	x20,x20,4

000025f8 <I_beq_cg_cr_rs1_rs2_edges_offset_rs1val_0x0_rs2val_0xffffffff>:
0: # destination for backwards branch that is never taken
I_beq_cg_cr_rs1_rs2_edges_offset_rs1val_0x0_rs2val_0xffffffff:
  beq x13, x4, 3f # forward branch, if taken
    25f8:	04468263          	beq	x13,x4,263c <I_beq_cg_cr_rs1_rs2_edges_offset_rs1val_0x0_rs2val_0xffffffff+0x44>
1: # goes here if not taken
  beq x13, x4, 0b # backward branch, never taken
    25fc:	fe468ee3          	beq	x13,x4,25f8 <I_beq_cg_cr_rs1_rs2_edges_offset_rs1val_0x0_rs2val_0xffffffff>
  # Check if x0 contains the expected result. x11 is the signature ptr, x8 is the link ptr, x7 is a temp reg.
  RVTEST_SIGUPD(x11, x8, x7, x0, I_beq_cg_cr_rs1_rs2_edges_offset_rs1val_0x0_rs2val_0xffffffff, I_beq_cg_cr_rs1_rs2_edges_offset_rs1val_0x0_rs2val_0xffffffff_str)
    2600:	0005a383          	lw	x7,0(x11)
    2604:	00038863          	beq	x7,x0,2614 <I_beq_cg_cr_rs1_rs2_edges_offset_rs1val_0x0_rs2val_0xffffffff+0x1c>
    2608:	28d0746f          	jal	x8,a094 <failedtest_x8_x7>
    260c:	000025f8          	.word	0x000025f8
    2610:	0000deb2          	.word	0x0000deb2
    2614:	00458593          	addi	x11,x11,4
  j 4f # done with test
    2618:	0280006f          	jal	x0,2640 <I_beq_cg_cr_rs1_rs2_edges_offset_rs1val_0x0_rs2val_0xffffffff+0x48>
2: # goes here during backward branch if taken
  LI(x13, 1)
    261c:	00100693          	addi	x13,x0,1
  # Check if x13 contains the expected result. x11 is the signature ptr, x8 is the link ptr, x7 is a temp reg.
  RVTEST_SIGUPD(x11, x8, x7, x13, I_beq_cg_cr_rs1_rs2_edges_offset_rs1val_0x0_rs2val_0xffffffff, I_beq_cg_cr_rs1_rs2_edges_offset_rs1val_0x0_rs2val_0xffffffff_str) # signature 1 for taken
    2620:	0005a383          	lw	x7,0(x11)
    2624:	00d38863          	beq	x7,x13,2634 <I_beq_cg_cr_rs1_rs2_edges_offset_rs1val_0x0_rs2val_0xffffffff+0x3c>
    2628:	26d0746f          	jal	x8,a094 <failedtest_x8_x7>
    262c:	000025f8          	.word	0x000025f8
    2630:	0000deb2          	.word	0x0000deb2
    2634:	00458593          	addi	x11,x11,4
  j 4f # done with test
    2638:	0080006f          	jal	x0,2640 <I_beq_cg_cr_rs1_rs2_edges_offset_rs1val_0x0_rs2val_0xffffffff+0x48>
3: # goes here during forward branch if taken
  beq x13, x4, 2b # backward branch, definitely taken
    263c:	fe4680e3          	beq	x13,x4,261c <I_beq_cg_cr_rs1_rs2_edges_offset_rs1val_0x0_rs2val_0xffffffff+0x24>
4: # done with test

# cr_rs1_rs2_edges_offset (Test source rs1 = 0x00000000 rs2 = 0xfffffffe)
  RVTEST_TESTDATA_LOAD_INT(x20, x26) # load rs1: x26 = 0x00000000
    2640:	000a2d03          	lw	x26,0(x20)
    2644:	004a0a13          	addi	x20,x20,4
  RVTEST_TESTDATA_LOAD_INT(x20, x12) # load rs2: x12 = 0xfffffffe
    2648:	000a2603          	lw	x12,0(x20)
    264c:	004a0a13          	addi	x20,x20,4

00002650 <I_beq_cg_cr_rs1_rs2_edges_offset_rs1val_0x0_rs2val_0xfffffffe>:
0: # destination for backwards branch that is never taken
I_beq_cg_cr_rs1_rs2_edges_offset_rs1val_0x0_rs2val_0xfffffffe:
  beq x26, x12, 3f # forward branch, if taken
    2650:	04cd0263          	beq	x26,x12,2694 <I_beq_cg_cr_rs1_rs2_edges_offset_rs1val_0x0_rs2val_0xfffffffe+0x44>
1: # goes here if not taken
  beq x26, x12, 0b # backward branch, never taken
    2654:	fecd0ee3          	beq	x26,x12,2650 <I_beq_cg_cr_rs1_rs2_edges_offset_rs1val_0x0_rs2val_0xfffffffe>
  # Check if x0 contains the expected result. x11 is the signature ptr, x8 is the link ptr, x7 is a temp reg.
  RVTEST_SIGUPD(x11, x8, x7, x0, I_beq_cg_cr_rs1_rs2_edges_offset_rs1val_0x0_rs2val_0xfffffffe, I_beq_cg_cr_rs1_rs2_edges_offset_rs1val_0x0_rs2val_0xfffffffe_str)
    2658:	0005a383          	lw	x7,0(x11)
    265c:	00038863          	beq	x7,x0,266c <I_beq_cg_cr_rs1_rs2_edges_offset_rs1val_0x0_rs2val_0xfffffffe+0x1c>
    2660:	2350746f          	jal	x8,a094 <failedtest_x8_x7>
    2664:	00002650          	.word	0x00002650
    2668:	0000df0c          	.word	0x0000df0c
    266c:	00458593          	addi	x11,x11,4
  j 4f # done with test
    2670:	0280006f          	jal	x0,2698 <I_beq_cg_cr_rs1_rs2_edges_offset_rs1val_0x0_rs2val_0xfffffffe+0x48>
2: # goes here during backward branch if taken
  LI(x26, 1)
    2674:	00100d13          	addi	x26,x0,1
  # Check if x26 contains the expected result. x11 is the signature ptr, x8 is the link ptr, x7 is a temp reg.
  RVTEST_SIGUPD(x11, x8, x7, x26, I_beq_cg_cr_rs1_rs2_edges_offset_rs1val_0x0_rs2val_0xfffffffe, I_beq_cg_cr_rs1_rs2_edges_offset_rs1val_0x0_rs2val_0xfffffffe_str) # signature 1 for taken
    2678:	0005a383          	lw	x7,0(x11)
    267c:	01a38863          	beq	x7,x26,268c <I_beq_cg_cr_rs1_rs2_edges_offset_rs1val_0x0_rs2val_0xfffffffe+0x3c>
    2680:	2150746f          	jal	x8,a094 <failedtest_x8_x7>
    2684:	00002650          	.word	0x00002650
    2688:	0000df0c          	.word	0x0000df0c
    268c:	00458593          	addi	x11,x11,4
  j 4f # done with test
    2690:	0080006f          	jal	x0,2698 <I_beq_cg_cr_rs1_rs2_edges_offset_rs1val_0x0_rs2val_0xfffffffe+0x48>
3: # goes here during forward branch if taken
  beq x26, x12, 2b # backward branch, definitely taken
    2694:	fecd00e3          	beq	x26,x12,2674 <I_beq_cg_cr_rs1_rs2_edges_offset_rs1val_0x0_rs2val_0xfffffffe+0x24>
4: # done with test

# cr_rs1_rs2_edges_offset (Test source rs1 = 0x00000000 rs2 = 0x5bbc8872)
  RVTEST_TESTDATA_LOAD_INT(x20, x22) # load rs1: x22 = 0x00000000
    2698:	000a2b03          	lw	x22,0(x20)
    269c:	004a0a13          	addi	x20,x20,4
  RVTEST_TESTDATA_LOAD_INT(x20, x19) # load rs2: x19 = 0x5bbc8872
    26a0:	000a2983          	lw	x19,0(x20)
    26a4:	004a0a13          	addi	x20,x20,4

000026a8 <I_beq_cg_cr_rs1_rs2_edges_offset_rs1val_0x0_rs2val_0x5bbc8872>:
0: # destination for backwards branch that is never taken
I_beq_cg_cr_rs1_rs2_edges_offset_rs1val_0x0_rs2val_0x5bbc8872:
  beq x22, x19, 3f # forward branch, if taken
    26a8:	053b0263          	beq	x22,x19,26ec <I_beq_cg_cr_rs1_rs2_edges_offset_rs1val_0x0_rs2val_0x5bbc8872+0x44>
1: # goes here if not taken
  beq x22, x19, 0b # backward branch, never taken
    26ac:	ff3b0ee3          	beq	x22,x19,26a8 <I_beq_cg_cr_rs1_rs2_edges_offset_rs1val_0x0_rs2val_0x5bbc8872>
  # Check if x0 contains the expected result. x11 is the signature ptr, x8 is the link ptr, x7 is a temp reg.
  RVTEST_SIGUPD(x11, x8, x7, x0, I_beq_cg_cr_rs1_rs2_edges_offset_rs1val_0x0_rs2val_0x5bbc8872, I_beq_cg_cr_rs1_rs2_edges_offset_rs1val_0x0_rs2val_0x5bbc8872_str)
    26b0:	0005a383          	lw	x7,0(x11)
    26b4:	00038863          	beq	x7,x0,26c4 <I_beq_cg_cr_rs1_rs2_edges_offset_rs1val_0x0_rs2val_0x5bbc8872+0x1c>
    26b8:	1dd0746f          	jal	x8,a094 <failedtest_x8_x7>
    26bc:	000026a8          	.word	0x000026a8
    26c0:	0000df66          	.word	0x0000df66
    26c4:	00458593          	addi	x11,x11,4
  j 4f # done with test
    26c8:	0280006f          	jal	x0,26f0 <I_beq_cg_cr_rs1_rs2_edges_offset_rs1val_0x0_rs2val_0x5bbc8872+0x48>
2: # goes here during backward branch if taken
  LI(x22, 1)
    26cc:	00100b13          	addi	x22,x0,1
  # Check if x22 contains the expected result. x11 is the signature ptr, x8 is the link ptr, x7 is a temp reg.
  RVTEST_SIGUPD(x11, x8, x7, x22, I_beq_cg_cr_rs1_rs2_edges_offset_rs1val_0x0_rs2val_0x5bbc8872, I_beq_cg_cr_rs1_rs2_edges_offset_rs1val_0x0_rs2val_0x5bbc8872_str) # signature 1 for taken
    26d0:	0005a383          	lw	x7,0(x11)
    26d4:	01638863          	beq	x7,x22,26e4 <I_beq_cg_cr_rs1_rs2_edges_offset_rs1val_0x0_rs2val_0x5bbc8872+0x3c>
    26d8:	1bd0746f          	jal	x8,a094 <failedtest_x8_x7>
    26dc:	000026a8          	.word	0x000026a8
    26e0:	0000df66          	.word	0x0000df66
    26e4:	00458593          	addi	x11,x11,4
  j 4f # done with test
    26e8:	0080006f          	jal	x0,26f0 <I_beq_cg_cr_rs1_rs2_edges_offset_rs1val_0x0_rs2val_0x5bbc8872+0x48>
3: # goes here during forward branch if taken
  beq x22, x19, 2b # backward branch, definitely taken
    26ec:	ff3b00e3          	beq	x22,x19,26cc <I_beq_cg_cr_rs1_rs2_edges_offset_rs1val_0x0_rs2val_0x5bbc8872+0x24>
4: # done with test

# cr_rs1_rs2_edges_offset (Test source rs1 = 0x00000000 rs2 = 0xaaaaaaaa)
  RVTEST_TESTDATA_LOAD_INT(x20, x19) # load rs1: x19 = 0x00000000
    26f0:	000a2983          	lw	x19,0(x20)
    26f4:	004a0a13          	addi	x20,x20,4
  RVTEST_TESTDATA_LOAD_INT(x20, x10) # load rs2: x10 = 0xaaaaaaaa
    26f8:	000a2503          	lw	x10,0(x20)
    26fc:	004a0a13          	addi	x20,x20,4

00002700 <I_beq_cg_cr_rs1_rs2_edges_offset_rs1val_0x0_rs2val_0xaaaaaaaa>:
0: # destination for backwards branch that is never taken
I_beq_cg_cr_rs1_rs2_edges_offset_rs1val_0x0_rs2val_0xaaaaaaaa:
  beq x19, x10, 3f # forward branch, if taken
    2700:	04a98263          	beq	x19,x10,2744 <I_beq_cg_cr_rs1_rs2_edges_offset_rs1val_0x0_rs2val_0xaaaaaaaa+0x44>
1: # goes here if not taken
  beq x19, x10, 0b # backward branch, never taken
    2704:	fea98ee3          	beq	x19,x10,2700 <I_beq_cg_cr_rs1_rs2_edges_offset_rs1val_0x0_rs2val_0xaaaaaaaa>
  # Check if x0 contains the expected result. x11 is the signature ptr, x8 is the link ptr, x7 is a temp reg.
  RVTEST_SIGUPD(x11, x8, x7, x0, I_beq_cg_cr_rs1_rs2_edges_offset_rs1val_0x0_rs2val_0xaaaaaaaa, I_beq_cg_cr_rs1_rs2_edges_offset_rs1val_0x0_rs2val_0xaaaaaaaa_str)
    2708:	0005a383          	lw	x7,0(x11)
    270c:	00038863          	beq	x7,x0,271c <I_beq_cg_cr_rs1_rs2_edges_offset_rs1val_0x0_rs2val_0xaaaaaaaa+0x1c>
    2710:	1850746f          	jal	x8,a094 <failedtest_x8_x7>
    2714:	00002700          	.word	0x00002700
    2718:	0000dfc0          	.word	0x0000dfc0
    271c:	00458593          	addi	x11,x11,4
  j 4f # done with test
    2720:	0280006f          	jal	x0,2748 <I_beq_cg_cr_rs1_rs2_edges_offset_rs1val_0x0_rs2val_0xaaaaaaaa+0x48>
2: # goes here during backward branch if taken
  LI(x19, 1)
    2724:	00100993          	addi	x19,x0,1
  # Check if x19 contains the expected result. x11 is the signature ptr, x8 is the link ptr, x7 is a temp reg.
  RVTEST_SIGUPD(x11, x8, x7, x19, I_beq_cg_cr_rs1_rs2_edges_offset_rs1val_0x0_rs2val_0xaaaaaaaa, I_beq_cg_cr_rs1_rs2_edges_offset_rs1val_0x0_rs2val_0xaaaaaaaa_str) # signature 1 for taken
    2728:	0005a383          	lw	x7,0(x11)
    272c:	01338863          	beq	x7,x19,273c <I_beq_cg_cr_rs1_rs2_edges_offset_rs1val_0x0_rs2val_0xaaaaaaaa+0x3c>
    2730:	1650746f          	jal	x8,a094 <failedtest_x8_x7>
    2734:	00002700          	.word	0x00002700
    2738:	0000dfc0          	.word	0x0000dfc0
    273c:	00458593          	addi	x11,x11,4
  j 4f # done with test
    2740:	0080006f          	jal	x0,2748 <I_beq_cg_cr_rs1_rs2_edges_offset_rs1val_0x0_rs2val_0xaaaaaaaa+0x48>
3: # goes here during forward branch if taken
  beq x19, x10, 2b # backward branch, definitely taken
    2744:	fea980e3          	beq	x19,x10,2724 <I_beq_cg_cr_rs1_rs2_edges_offset_rs1val_0x0_rs2val_0xaaaaaaaa+0x24>
4: # done with test

# cr_rs1_rs2_edges_offset (Test source rs1 = 0x00000000 rs2 = 0x55555555)
  RVTEST_TESTDATA_LOAD_INT(x20, x13) # load rs1: x13 = 0x00000000
    2748:	000a2683          	lw	x13,0(x20)
    274c:	004a0a13          	addi	x20,x20,4
  RVTEST_TESTDATA_LOAD_INT(x20, x18) # load rs2: x18 = 0x55555555
    2750:	000a2903          	lw	x18,0(x20)
    2754:	004a0a13          	addi	x20,x20,4

00002758 <I_beq_cg_cr_rs1_rs2_edges_offset_rs1val_0x0_rs2val_0x55555555>:
0: # destination for backwards branch that is never taken
I_beq_cg_cr_rs1_rs2_edges_offset_rs1val_0x0_rs2val_0x55555555:
  beq x13, x18, 3f # forward branch, if taken
    2758:	05268263          	beq	x13,x18,279c <I_beq_cg_cr_rs1_rs2_edges_offset_rs1val_0x0_rs2val_0x55555555+0x44>
1: # goes here if not taken
  beq x13, x18, 0b # backward branch, never taken
    275c:	ff268ee3          	beq	x13,x18,2758 <I_beq_cg_cr_rs1_rs2_edges_offset_rs1val_0x0_rs2val_0x55555555>
  # Check if x0 contains the expected result. x11 is the signature ptr, x8 is the link ptr, x7 is a temp reg.
  RVTEST_SIGUPD(x11, x8, x7, x0, I_beq_cg_cr_rs1_rs2_edges_offset_rs1val_0x0_rs2val_0x55555555, I_beq_cg_cr_rs1_rs2_edges_offset_rs1val_0x0_rs2val_0x55555555_str)
    2760:	0005a383          	lw	x7,0(x11)
    2764:	00038863          	beq	x7,x0,2774 <I_beq_cg_cr_rs1_rs2_edges_offset_rs1val_0x0_rs2val_0x55555555+0x1c>
    2768:	12d0746f          	jal	x8,a094 <failedtest_x8_x7>
    276c:	00002758          	.word	0x00002758
    2770:	0000e01a          	.word	0x0000e01a
    2774:	00458593          	addi	x11,x11,4
  j 4f # done with test
    2778:	0280006f          	jal	x0,27a0 <I_beq_cg_cr_rs1_rs2_edges_offset_rs1val_0x0_rs2val_0x55555555+0x48>
2: # goes here during backward branch if taken
  LI(x13, 1)
    277c:	00100693          	addi	x13,x0,1
  # Check if x13 contains the expected result. x11 is the signature ptr, x8 is the link ptr, x7 is a temp reg.
  RVTEST_SIGUPD(x11, x8, x7, x13, I_beq_cg_cr_rs1_rs2_edges_offset_rs1val_0x0_rs2val_0x55555555, I_beq_cg_cr_rs1_rs2_edges_offset_rs1val_0x0_rs2val_0x55555555_str) # signature 1 for taken
    2780:	0005a383          	lw	x7,0(x11)
    2784:	00d38863          	beq	x7,x13,2794 <I_beq_cg_cr_rs1_rs2_edges_offset_rs1val_0x0_rs2val_0x55555555+0x3c>
    2788:	10d0746f          	jal	x8,a094 <failedtest_x8_x7>
    278c:	00002758          	.word	0x00002758
    2790:	0000e01a          	.word	0x0000e01a
    2794:	00458593          	addi	x11,x11,4
  j 4f # done with test
    2798:	0080006f          	jal	x0,27a0 <I_beq_cg_cr_rs1_rs2_edges_offset_rs1val_0x0_rs2val_0x55555555+0x48>
3: # goes here during forward branch if taken
  beq x13, x18, 2b # backward branch, definitely taken
    279c:	ff2680e3          	beq	x13,x18,277c <I_beq_cg_cr_rs1_rs2_edges_offset_rs1val_0x0_rs2val_0x55555555+0x24>
4: # done with test

# cr_rs1_rs2_edges_offset (Test source rs1 = 0x00000001 rs2 = 0x00000000)
  RVTEST_TESTDATA_LOAD_INT(x20, x1) # load rs1: x1 = 0x00000001
    27a0:	000a2083          	lw	x1,0(x20)
    27a4:	004a0a13          	addi	x20,x20,4
  RVTEST_TESTDATA_LOAD_INT(x20, x26) # load rs2: x26 = 0x00000000
    27a8:	000a2d03          	lw	x26,0(x20)
    27ac:	004a0a13          	addi	x20,x20,4

000027b0 <I_beq_cg_cr_rs1_rs2_edges_offset_rs1val_0x1_rs2val_0x0>:
0: # destination for backwards branch that is never taken
I_beq_cg_cr_rs1_rs2_edges_offset_rs1val_0x1_rs2val_0x0:
  beq x1, x26, 3f # forward branch, if taken
    27b0:	05a08263          	beq	x1,x26,27f4 <I_beq_cg_cr_rs1_rs2_edges_offset_rs1val_0x1_rs2val_0x0+0x44>
1: # goes here if not taken
  beq x1, x26, 0b # backward branch, never taken
    27b4:	ffa08ee3          	beq	x1,x26,27b0 <I_beq_cg_cr_rs1_rs2_edges_offset_rs1val_0x1_rs2val_0x0>
  # Check if x0 contains the expected result. x11 is the signature ptr, x8 is the link ptr, x7 is a temp reg.
  RVTEST_SIGUPD(x11, x8, x7, x0, I_beq_cg_cr_rs1_rs2_edges_offset_rs1val_0x1_rs2val_0x0, I_beq_cg_cr_rs1_rs2_edges_offset_rs1val_0x1_rs2val_0x0_str)
    27b8:	0005a383          	lw	x7,0(x11)
    27bc:	00038863          	beq	x7,x0,27cc <I_beq_cg_cr_rs1_rs2_edges_offset_rs1val_0x1_rs2val_0x0+0x1c>
    27c0:	0d50746f          	jal	x8,a094 <failedtest_x8_x7>
    27c4:	000027b0          	.word	0x000027b0
    27c8:	0000e075          	.word	0x0000e075
    27cc:	00458593          	addi	x11,x11,4
  j 4f # done with test
    27d0:	0280006f          	jal	x0,27f8 <I_beq_cg_cr_rs1_rs2_edges_offset_rs1val_0x1_rs2val_0x0+0x48>
2: # goes here during backward branch if taken
  LI(x1, 1)
    27d4:	00100093          	addi	x1,x0,1
  # Check if x1 contains the expected result. x11 is the signature ptr, x8 is the link ptr, x7 is a temp reg.
  RVTEST_SIGUPD(x11, x8, x7, x1, I_beq_cg_cr_rs1_rs2_edges_offset_rs1val_0x1_rs2val_0x0, I_beq_cg_cr_rs1_rs2_edges_offset_rs1val_0x1_rs2val_0x0_str) # signature 1 for taken
    27d8:	0005a383          	lw	x7,0(x11)
    27dc:	00138863          	beq	x7,x1,27ec <I_beq_cg_cr_rs1_rs2_edges_offset_rs1val_0x1_rs2val_0x0+0x3c>
    27e0:	0b50746f          	jal	x8,a094 <failedtest_x8_x7>
    27e4:	000027b0          	.word	0x000027b0
    27e8:	0000e075          	.word	0x0000e075
    27ec:	00458593          	addi	x11,x11,4
  j 4f # done with test
    27f0:	0080006f          	jal	x0,27f8 <I_beq_cg_cr_rs1_rs2_edges_offset_rs1val_0x1_rs2val_0x0+0x48>
3: # goes here during forward branch if taken
  beq x1, x26, 2b # backward branch, definitely taken
    27f4:	ffa080e3          	beq	x1,x26,27d4 <I_beq_cg_cr_rs1_rs2_edges_offset_rs1val_0x1_rs2val_0x0+0x24>
4: # done with test

# cr_rs1_rs2_edges_offset (Test source rs1 = 0x00000001 rs2 = 0x00000001)
  RVTEST_TESTDATA_LOAD_INT(x20, x21) # load rs1: x21 = 0x00000001
    27f8:	000a2a83          	lw	x21,0(x20)
    27fc:	004a0a13          	addi	x20,x20,4
  RVTEST_TESTDATA_LOAD_INT(x20, x10) # load rs2: x10 = 0x00000001
    2800:	000a2503          	lw	x10,0(x20)
    2804:	004a0a13          	addi	x20,x20,4

00002808 <I_beq_cg_cr_rs1_rs2_edges_offset_rs1val_0x1_rs2val_0x1>:
0: # destination for backwards branch that is never taken
I_beq_cg_cr_rs1_rs2_edges_offset_rs1val_0x1_rs2val_0x1:
  beq x21, x10, 3f # forward branch, if taken
    2808:	04aa8263          	beq	x21,x10,284c <I_beq_cg_cr_rs1_rs2_edges_offset_rs1val_0x1_rs2val_0x1+0x44>
1: # goes here if not taken
  beq x21, x10, 0b # backward branch, never taken
    280c:	feaa8ee3          	beq	x21,x10,2808 <I_beq_cg_cr_rs1_rs2_edges_offset_rs1val_0x1_rs2val_0x1>
  # Check if x0 contains the expected result. x11 is the signature ptr, x8 is the link ptr, x7 is a temp reg.
  RVTEST_SIGUPD(x11, x8, x7, x0, I_beq_cg_cr_rs1_rs2_edges_offset_rs1val_0x1_rs2val_0x1, I_beq_cg_cr_rs1_rs2_edges_offset_rs1val_0x1_rs2val_0x1_str)
    2810:	0005a383          	lw	x7,0(x11)
    2814:	00038863          	beq	x7,x0,2824 <I_beq_cg_cr_rs1_rs2_edges_offset_rs1val_0x1_rs2val_0x1+0x1c>
    2818:	07d0746f          	jal	x8,a094 <failedtest_x8_x7>
    281c:	00002808          	.word	0x00002808
    2820:	0000e0c9          	.word	0x0000e0c9
    2824:	00458593          	addi	x11,x11,4
  j 4f # done with test
    2828:	0280006f          	jal	x0,2850 <I_beq_cg_cr_rs1_rs2_edges_offset_rs1val_0x1_rs2val_0x1+0x48>
2: # goes here during backward branch if taken
  LI(x21, 1)
    282c:	00100a93          	addi	x21,x0,1
  # Check if x21 contains the expected result. x11 is the signature ptr, x8 is the link ptr, x7 is a temp reg.
  RVTEST_SIGUPD(x11, x8, x7, x21, I_beq_cg_cr_rs1_rs2_edges_offset_rs1val_0x1_rs2val_0x1, I_beq_cg_cr_rs1_rs2_edges_offset_rs1val_0x1_rs2val_0x1_str) # signature 1 for taken
    2830:	0005a383          	lw	x7,0(x11)
    2834:	01538863          	beq	x7,x21,2844 <I_beq_cg_cr_rs1_rs2_edges_offset_rs1val_0x1_rs2val_0x1+0x3c>
    2838:	05d0746f          	jal	x8,a094 <failedtest_x8_x7>
    283c:	00002808          	.word	0x00002808
    2840:	0000e0c9          	.word	0x0000e0c9
    2844:	00458593          	addi	x11,x11,4
  j 4f # done with test
    2848:	0080006f          	jal	x0,2850 <I_beq_cg_cr_rs1_rs2_edges_offset_rs1val_0x1_rs2val_0x1+0x48>
3: # goes here during forward branch if taken
  beq x21, x10, 2b # backward branch, definitely taken
    284c:	feaa80e3          	beq	x21,x10,282c <I_beq_cg_cr_rs1_rs2_edges_offset_rs1val_0x1_rs2val_0x1+0x24>
4: # done with test

# cr_rs1_rs2_edges_offset (Test source rs1 = 0x00000001 rs2 = 0x00000002)
  RVTEST_TESTDATA_LOAD_INT(x20, x4) # load rs1: x4 = 0x00000001
    2850:	000a2203          	lw	x4,0(x20)
    2854:	004a0a13          	addi	x20,x20,4
  RVTEST_TESTDATA_LOAD_INT(x20, x2) # load rs2: x2 = 0x00000002
    2858:	000a2103          	lw	x2,0(x20)
    285c:	004a0a13          	addi	x20,x20,4

00002860 <I_beq_cg_cr_rs1_rs2_edges_offset_rs1val_0x1_rs2val_0x2>:
0: # destination for backwards branch that is never taken
I_beq_cg_cr_rs1_rs2_edges_offset_rs1val_0x1_rs2val_0x2:
  beq x4, x2, 3f # forward branch, if taken
    2860:	04220263          	beq	x4,x2,28a4 <I_beq_cg_cr_rs1_rs2_edges_offset_rs1val_0x1_rs2val_0x2+0x44>
1: # goes here if not taken
  beq x4, x2, 0b # backward branch, never taken
    2864:	fe220ee3          	beq	x4,x2,2860 <I_beq_cg_cr_rs1_rs2_edges_offset_rs1val_0x1_rs2val_0x2>
  # Check if x0 contains the expected result. x11 is the signature ptr, x8 is the link ptr, x7 is a temp reg.
  RVTEST_SIGUPD(x11, x8, x7, x0, I_beq_cg_cr_rs1_rs2_edges_offset_rs1val_0x1_rs2val_0x2, I_beq_cg_cr_rs1_rs2_edges_offset_rs1val_0x1_rs2val_0x2_str)
    2868:	0005a383          	lw	x7,0(x11)
    286c:	00038863          	beq	x7,x0,287c <I_beq_cg_cr_rs1_rs2_edges_offset_rs1val_0x1_rs2val_0x2+0x1c>
    2870:	0250746f          	jal	x8,a094 <failedtest_x8_x7>
    2874:	00002860          	.word	0x00002860
    2878:	0000e11d          	.word	0x0000e11d
    287c:	00458593          	addi	x11,x11,4
  j 4f # done with test
    2880:	0280006f          	jal	x0,28a8 <I_beq_cg_cr_rs1_rs2_edges_offset_rs1val_0x1_rs2val_0x2+0x48>
2: # goes here during backward branch if taken
  LI(x4, 1)
    2884:	00100213          	addi	x4,x0,1
  # Check if x4 contains the expected result. x11 is the signature ptr, x8 is the link ptr, x7 is a temp reg.
  RVTEST_SIGUPD(x11, x8, x7, x4, I_beq_cg_cr_rs1_rs2_edges_offset_rs1val_0x1_rs2val_0x2, I_beq_cg_cr_rs1_rs2_edges_offset_rs1val_0x1_rs2val_0x2_str) # signature 1 for taken
    2888:	0005a383          	lw	x7,0(x11)
    288c:	00438863          	beq	x7,x4,289c <I_beq_cg_cr_rs1_rs2_edges_offset_rs1val_0x1_rs2val_0x2+0x3c>
    2890:	0050746f          	jal	x8,a094 <failedtest_x8_x7>
    2894:	00002860          	.word	0x00002860
    2898:	0000e11d          	.word	0x0000e11d
    289c:	00458593          	addi	x11,x11,4
  j 4f # done with test
    28a0:	0080006f          	jal	x0,28a8 <I_beq_cg_cr_rs1_rs2_edges_offset_rs1val_0x1_rs2val_0x2+0x48>
3: # goes here during forward branch if taken
  beq x4, x2, 2b # backward branch, definitely taken
    28a4:	fe2200e3          	beq	x4,x2,2884 <I_beq_cg_cr_rs1_rs2_edges_offset_rs1val_0x1_rs2val_0x2+0x24>
4: # done with test

# cr_rs1_rs2_edges_offset (Test source rs1 = 0x00000001 rs2 = 0x80000000)
  RVTEST_TESTDATA_LOAD_INT(x20, x14) # load rs1: x14 = 0x00000001
    28a8:	000a2703          	lw	x14,0(x20)
    28ac:	004a0a13          	addi	x20,x20,4
  RVTEST_TESTDATA_LOAD_INT(x20, x30) # load rs2: x30 = 0x80000000
    28b0:	000a2f03          	lw	x30,0(x20)
    28b4:	004a0a13          	addi	x20,x20,4

000028b8 <I_beq_cg_cr_rs1_rs2_edges_offset_rs1val_0x1_rs2val_0x80000000>:
0: # destination for backwards branch that is never taken
I_beq_cg_cr_rs1_rs2_edges_offset_rs1val_0x1_rs2val_0x80000000:
  beq x14, x30, 3f # forward branch, if taken
    28b8:	05e70263          	beq	x14,x30,28fc <I_beq_cg_cr_rs1_rs2_edges_offset_rs1val_0x1_rs2val_0x80000000+0x44>
1: # goes here if not taken
  beq x14, x30, 0b # backward branch, never taken
    28bc:	ffe70ee3          	beq	x14,x30,28b8 <I_beq_cg_cr_rs1_rs2_edges_offset_rs1val_0x1_rs2val_0x80000000>
  # Check if x0 contains the expected result. x11 is the signature ptr, x8 is the link ptr, x7 is a temp reg.
  RVTEST_SIGUPD(x11, x8, x7, x0, I_beq_cg_cr_rs1_rs2_edges_offset_rs1val_0x1_rs2val_0x80000000, I_beq_cg_cr_rs1_rs2_edges_offset_rs1val_0x1_rs2val_0x80000000_str)
    28c0:	0005a383          	lw	x7,0(x11)
    28c4:	00038863          	beq	x7,x0,28d4 <I_beq_cg_cr_rs1_rs2_edges_offset_rs1val_0x1_rs2val_0x80000000+0x1c>
    28c8:	7cc0746f          	jal	x8,a094 <failedtest_x8_x7>
    28cc:	000028b8          	.word	0x000028b8
    28d0:	0000e171          	.word	0x0000e171
    28d4:	00458593          	addi	x11,x11,4
  j 4f # done with test
    28d8:	0280006f          	jal	x0,2900 <I_beq_cg_cr_rs1_rs2_edges_offset_rs1val_0x1_rs2val_0x80000000+0x48>
2: # goes here during backward branch if taken
  LI(x14, 1)
    28dc:	00100713          	addi	x14,x0,1
  # Check if x14 contains the expected result. x11 is the signature ptr, x8 is the link ptr, x7 is a temp reg.
  RVTEST_SIGUPD(x11, x8, x7, x14, I_beq_cg_cr_rs1_rs2_edges_offset_rs1val_0x1_rs2val_0x80000000, I_beq_cg_cr_rs1_rs2_edges_offset_rs1val_0x1_rs2val_0x80000000_str) # signature 1 for taken
    28e0:	0005a383          	lw	x7,0(x11)
    28e4:	00e38863          	beq	x7,x14,28f4 <I_beq_cg_cr_rs1_rs2_edges_offset_rs1val_0x1_rs2val_0x80000000+0x3c>
    28e8:	7ac0746f          	jal	x8,a094 <failedtest_x8_x7>
    28ec:	000028b8          	.word	0x000028b8
    28f0:	0000e171          	.word	0x0000e171
    28f4:	00458593          	addi	x11,x11,4
  j 4f # done with test
    28f8:	0080006f          	jal	x0,2900 <I_beq_cg_cr_rs1_rs2_edges_offset_rs1val_0x1_rs2val_0x80000000+0x48>
3: # goes here during forward branch if taken
  beq x14, x30, 2b # backward branch, definitely taken
    28fc:	ffe700e3          	beq	x14,x30,28dc <I_beq_cg_cr_rs1_rs2_edges_offset_rs1val_0x1_rs2val_0x80000000+0x24>
4: # done with test

# cr_rs1_rs2_edges_offset (Test source rs1 = 0x00000001 rs2 = 0x80000001)
  RVTEST_TESTDATA_LOAD_INT(x20, x24) # load rs1: x24 = 0x00000001
    2900:	000a2c03          	lw	x24,0(x20)
    2904:	004a0a13          	addi	x20,x20,4
  RVTEST_TESTDATA_LOAD_INT(x20, x1) # load rs2: x1 = 0x80000001
    2908:	000a2083          	lw	x1,0(x20)
    290c:	004a0a13          	addi	x20,x20,4

00002910 <I_beq_cg_cr_rs1_rs2_edges_offset_rs1val_0x1_rs2val_0x80000001>:
0: # destination for backwards branch that is never taken
I_beq_cg_cr_rs1_rs2_edges_offset_rs1val_0x1_rs2val_0x80000001:
  beq x24, x1, 3f # forward branch, if taken
    2910:	041c0263          	beq	x24,x1,2954 <I_beq_cg_cr_rs1_rs2_edges_offset_rs1val_0x1_rs2val_0x80000001+0x44>
1: # goes here if not taken
  beq x24, x1, 0b # backward branch, never taken
    2914:	fe1c0ee3          	beq	x24,x1,2910 <I_beq_cg_cr_rs1_rs2_edges_offset_rs1val_0x1_rs2val_0x80000001>
  # Check if x0 contains the expected result. x11 is the signature ptr, x8 is the link ptr, x7 is a temp reg.
  RVTEST_SIGUPD(x11, x8, x7, x0, I_beq_cg_cr_rs1_rs2_edges_offset_rs1val_0x1_rs2val_0x80000001, I_beq_cg_cr_rs1_rs2_edges_offset_rs1val_0x1_rs2val_0x80000001_str)
    2918:	0005a383          	lw	x7,0(x11)
    291c:	00038863          	beq	x7,x0,292c <I_beq_cg_cr_rs1_rs2_edges_offset_rs1val_0x1_rs2val_0x80000001+0x1c>
    2920:	7740746f          	jal	x8,a094 <failedtest_x8_x7>
    2924:	00002910          	.word	0x00002910
    2928:	0000e1cc          	.word	0x0000e1cc
    292c:	00458593          	addi	x11,x11,4
  j 4f # done with test
    2930:	0280006f          	jal	x0,2958 <I_beq_cg_cr_rs1_rs2_edges_offset_rs1val_0x1_rs2val_0x80000001+0x48>
2: # goes here during backward branch if taken
  LI(x24, 1)
    2934:	00100c13          	addi	x24,x0,1
  # Check if x24 contains the expected result. x11 is the signature ptr, x8 is the link ptr, x7 is a temp reg.
  RVTEST_SIGUPD(x11, x8, x7, x24, I_beq_cg_cr_rs1_rs2_edges_offset_rs1val_0x1_rs2val_0x80000001, I_beq_cg_cr_rs1_rs2_edges_offset_rs1val_0x1_rs2val_0x80000001_str) # signature 1 for taken
    2938:	0005a383          	lw	x7,0(x11)
    293c:	01838863          	beq	x7,x24,294c <I_beq_cg_cr_rs1_rs2_edges_offset_rs1val_0x1_rs2val_0x80000001+0x3c>
    2940:	7540746f          	jal	x8,a094 <failedtest_x8_x7>
    2944:	00002910          	.word	0x00002910
    2948:	0000e1cc          	.word	0x0000e1cc
    294c:	00458593          	addi	x11,x11,4
  j 4f # done with test
    2950:	0080006f          	jal	x0,2958 <I_beq_cg_cr_rs1_rs2_edges_offset_rs1val_0x1_rs2val_0x80000001+0x48>
3: # goes here during forward branch if taken
  beq x24, x1, 2b # backward branch, definitely taken
    2954:	fe1c00e3          	beq	x24,x1,2934 <I_beq_cg_cr_rs1_rs2_edges_offset_rs1val_0x1_rs2val_0x80000001+0x24>
4: # done with test

# cr_rs1_rs2_edges_offset (Test source rs1 = 0x00000001 rs2 = 0x7fffffff)
  RVTEST_TESTDATA_LOAD_INT(x20, x29) # load rs1: x29 = 0x00000001
    2958:	000a2e83          	lw	x29,0(x20)
    295c:	004a0a13          	addi	x20,x20,4
  RVTEST_TESTDATA_LOAD_INT(x20, x6) # load rs2: x6 = 0x7fffffff
    2960:	000a2303          	lw	x6,0(x20)
    2964:	004a0a13          	addi	x20,x20,4

00002968 <I_beq_cg_cr_rs1_rs2_edges_offset_rs1val_0x1_rs2val_0x7fffffff>:
0: # destination for backwards branch that is never taken
I_beq_cg_cr_rs1_rs2_edges_offset_rs1val_0x1_rs2val_0x7fffffff:
  beq x29, x6, 3f # forward branch, if taken
    2968:	046e8263          	beq	x29,x6,29ac <I_beq_cg_cr_rs1_rs2_edges_offset_rs1val_0x1_rs2val_0x7fffffff+0x44>
1: # goes here if not taken
  beq x29, x6, 0b # backward branch, never taken
    296c:	fe6e8ee3          	beq	x29,x6,2968 <I_beq_cg_cr_rs1_rs2_edges_offset_rs1val_0x1_rs2val_0x7fffffff>
  # Check if x0 contains the expected result. x11 is the signature ptr, x8 is the link ptr, x7 is a temp reg.
  RVTEST_SIGUPD(x11, x8, x7, x0, I_beq_cg_cr_rs1_rs2_edges_offset_rs1val_0x1_rs2val_0x7fffffff, I_beq_cg_cr_rs1_rs2_edges_offset_rs1val_0x1_rs2val_0x7fffffff_str)
    2970:	0005a383          	lw	x7,0(x11)
    2974:	00038863          	beq	x7,x0,2984 <I_beq_cg_cr_rs1_rs2_edges_offset_rs1val_0x1_rs2val_0x7fffffff+0x1c>
    2978:	71c0746f          	jal	x8,a094 <failedtest_x8_x7>
    297c:	00002968          	.word	0x00002968
    2980:	0000e227          	.word	0x0000e227
    2984:	00458593          	addi	x11,x11,4
  j 4f # done with test
    2988:	0280006f          	jal	x0,29b0 <I_beq_cg_cr_rs1_rs2_edges_offset_rs1val_0x1_rs2val_0x7fffffff+0x48>
2: # goes here during backward branch if taken
  LI(x29, 1)
    298c:	00100e93          	addi	x29,x0,1
  # Check if x29 contains the expected result. x11 is the signature ptr, x8 is the link ptr, x7 is a temp reg.
  RVTEST_SIGUPD(x11, x8, x7, x29, I_beq_cg_cr_rs1_rs2_edges_offset_rs1val_0x1_rs2val_0x7fffffff, I_beq_cg_cr_rs1_rs2_edges_offset_rs1val_0x1_rs2val_0x7fffffff_str) # signature 1 for taken
    2990:	0005a383          	lw	x7,0(x11)
    2994:	01d38863          	beq	x7,x29,29a4 <I_beq_cg_cr_rs1_rs2_edges_offset_rs1val_0x1_rs2val_0x7fffffff+0x3c>
    2998:	6fc0746f          	jal	x8,a094 <failedtest_x8_x7>
    299c:	00002968          	.word	0x00002968
    29a0:	0000e227          	.word	0x0000e227
    29a4:	00458593          	addi	x11,x11,4
  j 4f # done with test
    29a8:	0080006f          	jal	x0,29b0 <I_beq_cg_cr_rs1_rs2_edges_offset_rs1val_0x1_rs2val_0x7fffffff+0x48>
3: # goes here during forward branch if taken
  beq x29, x6, 2b # backward branch, definitely taken
    29ac:	fe6e80e3          	beq	x29,x6,298c <I_beq_cg_cr_rs1_rs2_edges_offset_rs1val_0x1_rs2val_0x7fffffff+0x24>
4: # done with test

# cr_rs1_rs2_edges_offset (Test source rs1 = 0x00000001 rs2 = 0x7ffffffe)
  RVTEST_TESTDATA_LOAD_INT(x20, x16) # load rs1: x16 = 0x00000001
    29b0:	000a2803          	lw	x16,0(x20)
    29b4:	004a0a13          	addi	x20,x20,4
  RVTEST_TESTDATA_LOAD_INT(x20, x9) # load rs2: x9 = 0x7ffffffe
    29b8:	000a2483          	lw	x9,0(x20)
    29bc:	004a0a13          	addi	x20,x20,4

000029c0 <I_beq_cg_cr_rs1_rs2_edges_offset_rs1val_0x1_rs2val_0x7ffffffe>:
0: # destination for backwards branch that is never taken
I_beq_cg_cr_rs1_rs2_edges_offset_rs1val_0x1_rs2val_0x7ffffffe:
  beq x16, x9, 3f # forward branch, if taken
    29c0:	04980263          	beq	x16,x9,2a04 <I_beq_cg_cr_rs1_rs2_edges_offset_rs1val_0x1_rs2val_0x7ffffffe+0x44>
1: # goes here if not taken
  beq x16, x9, 0b # backward branch, never taken
    29c4:	fe980ee3          	beq	x16,x9,29c0 <I_beq_cg_cr_rs1_rs2_edges_offset_rs1val_0x1_rs2val_0x7ffffffe>
  # Check if x0 contains the expected result. x11 is the signature ptr, x8 is the link ptr, x7 is a temp reg.
  RVTEST_SIGUPD(x11, x8, x7, x0, I_beq_cg_cr_rs1_rs2_edges_offset_rs1val_0x1_rs2val_0x7ffffffe, I_beq_cg_cr_rs1_rs2_edges_offset_rs1val_0x1_rs2val_0x7ffffffe_str)
    29c8:	0005a383          	lw	x7,0(x11)
    29cc:	00038863          	beq	x7,x0,29dc <I_beq_cg_cr_rs1_rs2_edges_offset_rs1val_0x1_rs2val_0x7ffffffe+0x1c>
    29d0:	6c40746f          	jal	x8,a094 <failedtest_x8_x7>
    29d4:	000029c0          	.word	0x000029c0
    29d8:	0000e282          	.word	0x0000e282
    29dc:	00458593          	addi	x11,x11,4
  j 4f # done with test
    29e0:	0280006f          	jal	x0,2a08 <I_beq_cg_cr_rs1_rs2_edges_offset_rs1val_0x1_rs2val_0x7ffffffe+0x48>
2: # goes here during backward branch if taken
  LI(x16, 1)
    29e4:	00100813          	addi	x16,x0,1
  # Check if x16 contains the expected result. x11 is the signature ptr, x8 is the link ptr, x7 is a temp reg.
  RVTEST_SIGUPD(x11, x8, x7, x16, I_beq_cg_cr_rs1_rs2_edges_offset_rs1val_0x1_rs2val_0x7ffffffe, I_beq_cg_cr_rs1_rs2_edges_offset_rs1val_0x1_rs2val_0x7ffffffe_str) # signature 1 for taken
    29e8:	0005a383          	lw	x7,0(x11)
    29ec:	01038863          	beq	x7,x16,29fc <I_beq_cg_cr_rs1_rs2_edges_offset_rs1val_0x1_rs2val_0x7ffffffe+0x3c>
    29f0:	6a40746f          	jal	x8,a094 <failedtest_x8_x7>
    29f4:	000029c0          	.word	0x000029c0
    29f8:	0000e282          	.word	0x0000e282
    29fc:	00458593          	addi	x11,x11,4
  j 4f # done with test
    2a00:	0080006f          	jal	x0,2a08 <I_beq_cg_cr_rs1_rs2_edges_offset_rs1val_0x1_rs2val_0x7ffffffe+0x48>
3: # goes here during forward branch if taken
  beq x16, x9, 2b # backward branch, definitely taken
    2a04:	fe9800e3          	beq	x16,x9,29e4 <I_beq_cg_cr_rs1_rs2_edges_offset_rs1val_0x1_rs2val_0x7ffffffe+0x24>
4: # done with test

# cr_rs1_rs2_edges_offset (Test source rs1 = 0x00000001 rs2 = 0xffffffff)
  RVTEST_TESTDATA_LOAD_INT(x20, x17) # load rs1: x17 = 0x00000001
    2a08:	000a2883          	lw	x17,0(x20)
    2a0c:	004a0a13          	addi	x20,x20,4
  RVTEST_TESTDATA_LOAD_INT(x20, x29) # load rs2: x29 = 0xffffffff
    2a10:	000a2e83          	lw	x29,0(x20)
    2a14:	004a0a13          	addi	x20,x20,4

00002a18 <I_beq_cg_cr_rs1_rs2_edges_offset_rs1val_0x1_rs2val_0xffffffff>:
0: # destination for backwards branch that is never taken
I_beq_cg_cr_rs1_rs2_edges_offset_rs1val_0x1_rs2val_0xffffffff:
  beq x17, x29, 3f # forward branch, if taken
    2a18:	05d88263          	beq	x17,x29,2a5c <I_beq_cg_cr_rs1_rs2_edges_offset_rs1val_0x1_rs2val_0xffffffff+0x44>
1: # goes here if not taken
  beq x17, x29, 0b # backward branch, never taken
    2a1c:	ffd88ee3          	beq	x17,x29,2a18 <I_beq_cg_cr_rs1_rs2_edges_offset_rs1val_0x1_rs2val_0xffffffff>
  # Check if x0 contains the expected result. x11 is the signature ptr, x8 is the link ptr, x7 is a temp reg.
  RVTEST_SIGUPD(x11, x8, x7, x0, I_beq_cg_cr_rs1_rs2_edges_offset_rs1val_0x1_rs2val_0xffffffff, I_beq_cg_cr_rs1_rs2_edges_offset_rs1val_0x1_rs2val_0xffffffff_str)
    2a20:	0005a383          	lw	x7,0(x11)
    2a24:	00038863          	beq	x7,x0,2a34 <I_beq_cg_cr_rs1_rs2_edges_offset_rs1val_0x1_rs2val_0xffffffff+0x1c>
    2a28:	66c0746f          	jal	x8,a094 <failedtest_x8_x7>
    2a2c:	00002a18          	.word	0x00002a18
    2a30:	0000e2dd          	.word	0x0000e2dd
    2a34:	00458593          	addi	x11,x11,4
  j 4f # done with test
    2a38:	0280006f          	jal	x0,2a60 <I_beq_cg_cr_rs1_rs2_edges_offset_rs1val_0x1_rs2val_0xffffffff+0x48>
2: # goes here during backward branch if taken
  LI(x17, 1)
    2a3c:	00100893          	addi	x17,x0,1
  # Check if x17 contains the expected result. x11 is the signature ptr, x8 is the link ptr, x7 is a temp reg.
  RVTEST_SIGUPD(x11, x8, x7, x17, I_beq_cg_cr_rs1_rs2_edges_offset_rs1val_0x1_rs2val_0xffffffff, I_beq_cg_cr_rs1_rs2_edges_offset_rs1val_0x1_rs2val_0xffffffff_str) # signature 1 for taken
    2a40:	0005a383          	lw	x7,0(x11)
    2a44:	01138863          	beq	x7,x17,2a54 <I_beq_cg_cr_rs1_rs2_edges_offset_rs1val_0x1_rs2val_0xffffffff+0x3c>
    2a48:	64c0746f          	jal	x8,a094 <failedtest_x8_x7>
    2a4c:	00002a18          	.word	0x00002a18
    2a50:	0000e2dd          	.word	0x0000e2dd
    2a54:	00458593          	addi	x11,x11,4
  j 4f # done with test
    2a58:	0080006f          	jal	x0,2a60 <I_beq_cg_cr_rs1_rs2_edges_offset_rs1val_0x1_rs2val_0xffffffff+0x48>
3: # goes here during forward branch if taken
  beq x17, x29, 2b # backward branch, definitely taken
    2a5c:	ffd880e3          	beq	x17,x29,2a3c <I_beq_cg_cr_rs1_rs2_edges_offset_rs1val_0x1_rs2val_0xffffffff+0x24>
4: # done with test

# cr_rs1_rs2_edges_offset (Test source rs1 = 0x00000001 rs2 = 0xfffffffe)
  RVTEST_TESTDATA_LOAD_INT(x20, x10) # load rs1: x10 = 0x00000001
    2a60:	000a2503          	lw	x10,0(x20)
    2a64:	004a0a13          	addi	x20,x20,4
  RVTEST_TESTDATA_LOAD_INT(x20, x23) # load rs2: x23 = 0xfffffffe
    2a68:	000a2b83          	lw	x23,0(x20)
    2a6c:	004a0a13          	addi	x20,x20,4

00002a70 <I_beq_cg_cr_rs1_rs2_edges_offset_rs1val_0x1_rs2val_0xfffffffe>:
0: # destination for backwards branch that is never taken
I_beq_cg_cr_rs1_rs2_edges_offset_rs1val_0x1_rs2val_0xfffffffe:
  beq x10, x23, 3f # forward branch, if taken
    2a70:	05750263          	beq	x10,x23,2ab4 <I_beq_cg_cr_rs1_rs2_edges_offset_rs1val_0x1_rs2val_0xfffffffe+0x44>
1: # goes here if not taken
  beq x10, x23, 0b # backward branch, never taken
    2a74:	ff750ee3          	beq	x10,x23,2a70 <I_beq_cg_cr_rs1_rs2_edges_offset_rs1val_0x1_rs2val_0xfffffffe>
  # Check if x0 contains the expected result. x11 is the signature ptr, x8 is the link ptr, x7 is a temp reg.
  RVTEST_SIGUPD(x11, x8, x7, x0, I_beq_cg_cr_rs1_rs2_edges_offset_rs1val_0x1_rs2val_0xfffffffe, I_beq_cg_cr_rs1_rs2_edges_offset_rs1val_0x1_rs2val_0xfffffffe_str)
    2a78:	0005a383          	lw	x7,0(x11)
    2a7c:	00038863          	beq	x7,x0,2a8c <I_beq_cg_cr_rs1_rs2_edges_offset_rs1val_0x1_rs2val_0xfffffffe+0x1c>
    2a80:	6140746f          	jal	x8,a094 <failedtest_x8_x7>
    2a84:	00002a70          	.word	0x00002a70
    2a88:	0000e338          	.word	0x0000e338
    2a8c:	00458593          	addi	x11,x11,4
  j 4f # done with test
    2a90:	0280006f          	jal	x0,2ab8 <I_beq_cg_cr_rs1_rs2_edges_offset_rs1val_0x1_rs2val_0xfffffffe+0x48>
2: # goes here during backward branch if taken
  LI(x10, 1)
    2a94:	00100513          	addi	x10,x0,1
  # Check if x10 contains the expected result. x11 is the signature ptr, x8 is the link ptr, x7 is a temp reg.
  RVTEST_SIGUPD(x11, x8, x7, x10, I_beq_cg_cr_rs1_rs2_edges_offset_rs1val_0x1_rs2val_0xfffffffe, I_beq_cg_cr_rs1_rs2_edges_offset_rs1val_0x1_rs2val_0xfffffffe_str) # signature 1 for taken
    2a98:	0005a383          	lw	x7,0(x11)
    2a9c:	00a38863          	beq	x7,x10,2aac <I_beq_cg_cr_rs1_rs2_edges_offset_rs1val_0x1_rs2val_0xfffffffe+0x3c>
    2aa0:	5f40746f          	jal	x8,a094 <failedtest_x8_x7>
    2aa4:	00002a70          	.word	0x00002a70
    2aa8:	0000e338          	.word	0x0000e338
    2aac:	00458593          	addi	x11,x11,4
  j 4f # done with test
    2ab0:	0080006f          	jal	x0,2ab8 <I_beq_cg_cr_rs1_rs2_edges_offset_rs1val_0x1_rs2val_0xfffffffe+0x48>
3: # goes here during forward branch if taken
  beq x10, x23, 2b # backward branch, definitely taken
    2ab4:	ff7500e3          	beq	x10,x23,2a94 <I_beq_cg_cr_rs1_rs2_edges_offset_rs1val_0x1_rs2val_0xfffffffe+0x24>
4: # done with test

# cr_rs1_rs2_edges_offset (Test source rs1 = 0x00000001 rs2 = 0x5bbc8872)
  RVTEST_TESTDATA_LOAD_INT(x20, x26) # load rs1: x26 = 0x00000001
    2ab8:	000a2d03          	lw	x26,0(x20)
    2abc:	004a0a13          	addi	x20,x20,4
  RVTEST_TESTDATA_LOAD_INT(x20, x4) # load rs2: x4 = 0x5bbc8872
    2ac0:	000a2203          	lw	x4,0(x20)
    2ac4:	004a0a13          	addi	x20,x20,4

00002ac8 <I_beq_cg_cr_rs1_rs2_edges_offset_rs1val_0x1_rs2val_0x5bbc8872>:
0: # destination for backwards branch that is never taken
I_beq_cg_cr_rs1_rs2_edges_offset_rs1val_0x1_rs2val_0x5bbc8872:
  beq x26, x4, 3f # forward branch, if taken
    2ac8:	044d0263          	beq	x26,x4,2b0c <I_beq_cg_cr_rs1_rs2_edges_offset_rs1val_0x1_rs2val_0x5bbc8872+0x44>
1: # goes here if not taken
  beq x26, x4, 0b # backward branch, never taken
    2acc:	fe4d0ee3          	beq	x26,x4,2ac8 <I_beq_cg_cr_rs1_rs2_edges_offset_rs1val_0x1_rs2val_0x5bbc8872>
  # Check if x0 contains the expected result. x11 is the signature ptr, x8 is the link ptr, x7 is a temp reg.
  RVTEST_SIGUPD(x11, x8, x7, x0, I_beq_cg_cr_rs1_rs2_edges_offset_rs1val_0x1_rs2val_0x5bbc8872, I_beq_cg_cr_rs1_rs2_edges_offset_rs1val_0x1_rs2val_0x5bbc8872_str)
    2ad0:	0005a383          	lw	x7,0(x11)
    2ad4:	00038863          	beq	x7,x0,2ae4 <I_beq_cg_cr_rs1_rs2_edges_offset_rs1val_0x1_rs2val_0x5bbc8872+0x1c>
    2ad8:	5bc0746f          	jal	x8,a094 <failedtest_x8_x7>
    2adc:	00002ac8          	.word	0x00002ac8
    2ae0:	0000e393          	.word	0x0000e393
    2ae4:	00458593          	addi	x11,x11,4
  j 4f # done with test
    2ae8:	0280006f          	jal	x0,2b10 <I_beq_cg_cr_rs1_rs2_edges_offset_rs1val_0x1_rs2val_0x5bbc8872+0x48>
2: # goes here during backward branch if taken
  LI(x26, 1)
    2aec:	00100d13          	addi	x26,x0,1
  # Check if x26 contains the expected result. x11 is the signature ptr, x8 is the link ptr, x7 is a temp reg.
  RVTEST_SIGUPD(x11, x8, x7, x26, I_beq_cg_cr_rs1_rs2_edges_offset_rs1val_0x1_rs2val_0x5bbc8872, I_beq_cg_cr_rs1_rs2_edges_offset_rs1val_0x1_rs2val_0x5bbc8872_str) # signature 1 for taken
    2af0:	0005a383          	lw	x7,0(x11)
    2af4:	01a38863          	beq	x7,x26,2b04 <I_beq_cg_cr_rs1_rs2_edges_offset_rs1val_0x1_rs2val_0x5bbc8872+0x3c>
    2af8:	59c0746f          	jal	x8,a094 <failedtest_x8_x7>
    2afc:	00002ac8          	.word	0x00002ac8
    2b00:	0000e393          	.word	0x0000e393
    2b04:	00458593          	addi	x11,x11,4
  j 4f # done with test
    2b08:	0080006f          	jal	x0,2b10 <I_beq_cg_cr_rs1_rs2_edges_offset_rs1val_0x1_rs2val_0x5bbc8872+0x48>
3: # goes here during forward branch if taken
  beq x26, x4, 2b # backward branch, definitely taken
    2b0c:	fe4d00e3          	beq	x26,x4,2aec <I_beq_cg_cr_rs1_rs2_edges_offset_rs1val_0x1_rs2val_0x5bbc8872+0x24>
4: # done with test

# cr_rs1_rs2_edges_offset (Test source rs1 = 0x00000001 rs2 = 0xaaaaaaaa)
  RVTEST_TESTDATA_LOAD_INT(x20, x18) # load rs1: x18 = 0x00000001
    2b10:	000a2903          	lw	x18,0(x20)
    2b14:	004a0a13          	addi	x20,x20,4
  RVTEST_TESTDATA_LOAD_INT(x20, x16) # load rs2: x16 = 0xaaaaaaaa
    2b18:	000a2803          	lw	x16,0(x20)
    2b1c:	004a0a13          	addi	x20,x20,4

00002b20 <I_beq_cg_cr_rs1_rs2_edges_offset_rs1val_0x1_rs2val_0xaaaaaaaa>:
0: # destination for backwards branch that is never taken
I_beq_cg_cr_rs1_rs2_edges_offset_rs1val_0x1_rs2val_0xaaaaaaaa:
  beq x18, x16, 3f # forward branch, if taken
    2b20:	05090263          	beq	x18,x16,2b64 <I_beq_cg_cr_rs1_rs2_edges_offset_rs1val_0x1_rs2val_0xaaaaaaaa+0x44>
1: # goes here if not taken
  beq x18, x16, 0b # backward branch, never taken
    2b24:	ff090ee3          	beq	x18,x16,2b20 <I_beq_cg_cr_rs1_rs2_edges_offset_rs1val_0x1_rs2val_0xaaaaaaaa>
  # Check if x0 contains the expected result. x11 is the signature ptr, x8 is the link ptr, x7 is a temp reg.
  RVTEST_SIGUPD(x11, x8, x7, x0, I_beq_cg_cr_rs1_rs2_edges_offset_rs1val_0x1_rs2val_0xaaaaaaaa, I_beq_cg_cr_rs1_rs2_edges_offset_rs1val_0x1_rs2val_0xaaaaaaaa_str)
    2b28:	0005a383          	lw	x7,0(x11)
    2b2c:	00038863          	beq	x7,x0,2b3c <I_beq_cg_cr_rs1_rs2_edges_offset_rs1val_0x1_rs2val_0xaaaaaaaa+0x1c>
    2b30:	5640746f          	jal	x8,a094 <failedtest_x8_x7>
    2b34:	00002b20          	.word	0x00002b20
    2b38:	0000e3ee          	.word	0x0000e3ee
    2b3c:	00458593          	addi	x11,x11,4
  j 4f # done with test
    2b40:	0280006f          	jal	x0,2b68 <I_beq_cg_cr_rs1_rs2_edges_offset_rs1val_0x1_rs2val_0xaaaaaaaa+0x48>
2: # goes here during backward branch if taken
  LI(x18, 1)
    2b44:	00100913          	addi	x18,x0,1
  # Check if x18 contains the expected result. x11 is the signature ptr, x8 is the link ptr, x7 is a temp reg.
  RVTEST_SIGUPD(x11, x8, x7, x18, I_beq_cg_cr_rs1_rs2_edges_offset_rs1val_0x1_rs2val_0xaaaaaaaa, I_beq_cg_cr_rs1_rs2_edges_offset_rs1val_0x1_rs2val_0xaaaaaaaa_str) # signature 1 for taken
    2b48:	0005a383          	lw	x7,0(x11)
    2b4c:	01238863          	beq	x7,x18,2b5c <I_beq_cg_cr_rs1_rs2_edges_offset_rs1val_0x1_rs2val_0xaaaaaaaa+0x3c>
    2b50:	5440746f          	jal	x8,a094 <failedtest_x8_x7>
    2b54:	00002b20          	.word	0x00002b20
    2b58:	0000e3ee          	.word	0x0000e3ee
    2b5c:	00458593          	addi	x11,x11,4
  j 4f # done with test
    2b60:	0080006f          	jal	x0,2b68 <I_beq_cg_cr_rs1_rs2_edges_offset_rs1val_0x1_rs2val_0xaaaaaaaa+0x48>
3: # goes here during forward branch if taken
  beq x18, x16, 2b # backward branch, definitely taken
    2b64:	ff0900e3          	beq	x18,x16,2b44 <I_beq_cg_cr_rs1_rs2_edges_offset_rs1val_0x1_rs2val_0xaaaaaaaa+0x24>
4: # done with test

# cr_rs1_rs2_edges_offset (Test source rs1 = 0x00000001 rs2 = 0x55555555)
  RVTEST_TESTDATA_LOAD_INT(x20, x29) # load rs1: x29 = 0x00000001
    2b68:	000a2e83          	lw	x29,0(x20)
    2b6c:	004a0a13          	addi	x20,x20,4
  RVTEST_TESTDATA_LOAD_INT(x20, x31) # load rs2: x31 = 0x55555555
    2b70:	000a2f83          	lw	x31,0(x20)
    2b74:	004a0a13          	addi	x20,x20,4

00002b78 <I_beq_cg_cr_rs1_rs2_edges_offset_rs1val_0x1_rs2val_0x55555555>:
0: # destination for backwards branch that is never taken
I_beq_cg_cr_rs1_rs2_edges_offset_rs1val_0x1_rs2val_0x55555555:
  beq x29, x31, 3f # forward branch, if taken
    2b78:	05fe8263          	beq	x29,x31,2bbc <I_beq_cg_cr_rs1_rs2_edges_offset_rs1val_0x1_rs2val_0x55555555+0x44>
1: # goes here if not taken
  beq x29, x31, 0b # backward branch, never taken
    2b7c:	fffe8ee3          	beq	x29,x31,2b78 <I_beq_cg_cr_rs1_rs2_edges_offset_rs1val_0x1_rs2val_0x55555555>
  # Check if x0 contains the expected result. x11 is the signature ptr, x8 is the link ptr, x7 is a temp reg.
  RVTEST_SIGUPD(x11, x8, x7, x0, I_beq_cg_cr_rs1_rs2_edges_offset_rs1val_0x1_rs2val_0x55555555, I_beq_cg_cr_rs1_rs2_edges_offset_rs1val_0x1_rs2val_0x55555555_str)
    2b80:	0005a383          	lw	x7,0(x11)
    2b84:	00038863          	beq	x7,x0,2b94 <I_beq_cg_cr_rs1_rs2_edges_offset_rs1val_0x1_rs2val_0x55555555+0x1c>
    2b88:	50c0746f          	jal	x8,a094 <failedtest_x8_x7>
    2b8c:	00002b78          	.word	0x00002b78
    2b90:	0000e449          	.word	0x0000e449
    2b94:	00458593          	addi	x11,x11,4
  j 4f # done with test
    2b98:	0280006f          	jal	x0,2bc0 <I_beq_cg_cr_rs1_rs2_edges_offset_rs1val_0x1_rs2val_0x55555555+0x48>
2: # goes here during backward branch if taken
  LI(x29, 1)
    2b9c:	00100e93          	addi	x29,x0,1
  # Check if x29 contains the expected result. x11 is the signature ptr, x8 is the link ptr, x7 is a temp reg.
  RVTEST_SIGUPD(x11, x8, x7, x29, I_beq_cg_cr_rs1_rs2_edges_offset_rs1val_0x1_rs2val_0x55555555, I_beq_cg_cr_rs1_rs2_edges_offset_rs1val_0x1_rs2val_0x55555555_str) # signature 1 for taken
    2ba0:	0005a383          	lw	x7,0(x11)
    2ba4:	01d38863          	beq	x7,x29,2bb4 <I_beq_cg_cr_rs1_rs2_edges_offset_rs1val_0x1_rs2val_0x55555555+0x3c>
    2ba8:	4ec0746f          	jal	x8,a094 <failedtest_x8_x7>
    2bac:	00002b78          	.word	0x00002b78
    2bb0:	0000e449          	.word	0x0000e449
    2bb4:	00458593          	addi	x11,x11,4
  j 4f # done with test
    2bb8:	0080006f          	jal	x0,2bc0 <I_beq_cg_cr_rs1_rs2_edges_offset_rs1val_0x1_rs2val_0x55555555+0x48>
3: # goes here during forward branch if taken
  beq x29, x31, 2b # backward branch, definitely taken
    2bbc:	fffe80e3          	beq	x29,x31,2b9c <I_beq_cg_cr_rs1_rs2_edges_offset_rs1val_0x1_rs2val_0x55555555+0x24>
4: # done with test

# cr_rs1_rs2_edges_offset (Test source rs1 = 0x00000002 rs2 = 0x00000000)
  RVTEST_TESTDATA_LOAD_INT(x20, x21) # load rs1: x21 = 0x00000002
    2bc0:	000a2a83          	lw	x21,0(x20)
    2bc4:	004a0a13          	addi	x20,x20,4
  RVTEST_TESTDATA_LOAD_INT(x20, x12) # load rs2: x12 = 0x00000000
    2bc8:	000a2603          	lw	x12,0(x20)
    2bcc:	004a0a13          	addi	x20,x20,4

00002bd0 <I_beq_cg_cr_rs1_rs2_edges_offset_rs1val_0x2_rs2val_0x0>:
0: # destination for backwards branch that is never taken
I_beq_cg_cr_rs1_rs2_edges_offset_rs1val_0x2_rs2val_0x0:
  beq x21, x12, 3f # forward branch, if taken
    2bd0:	04ca8263          	beq	x21,x12,2c14 <I_beq_cg_cr_rs1_rs2_edges_offset_rs1val_0x2_rs2val_0x0+0x44>
1: # goes here if not taken
  beq x21, x12, 0b # backward branch, never taken
    2bd4:	feca8ee3          	beq	x21,x12,2bd0 <I_beq_cg_cr_rs1_rs2_edges_offset_rs1val_0x2_rs2val_0x0>
  # Check if x0 contains the expected result. x11 is the signature ptr, x8 is the link ptr, x7 is a temp reg.
  RVTEST_SIGUPD(x11, x8, x7, x0, I_beq_cg_cr_rs1_rs2_edges_offset_rs1val_0x2_rs2val_0x0, I_beq_cg_cr_rs1_rs2_edges_offset_rs1val_0x2_rs2val_0x0_str)
    2bd8:	0005a383          	lw	x7,0(x11)
    2bdc:	00038863          	beq	x7,x0,2bec <I_beq_cg_cr_rs1_rs2_edges_offset_rs1val_0x2_rs2val_0x0+0x1c>
    2be0:	4b40746f          	jal	x8,a094 <failedtest_x8_x7>
    2be4:	00002bd0          	.word	0x00002bd0
    2be8:	0000e4a4          	.word	0x0000e4a4
    2bec:	00458593          	addi	x11,x11,4
  j 4f # done with test
    2bf0:	0280006f          	jal	x0,2c18 <I_beq_cg_cr_rs1_rs2_edges_offset_rs1val_0x2_rs2val_0x0+0x48>
2: # goes here during backward branch if taken
  LI(x21, 1)
    2bf4:	00100a93          	addi	x21,x0,1
  # Check if x21 contains the expected result. x11 is the signature ptr, x8 is the link ptr, x7 is a temp reg.
  RVTEST_SIGUPD(x11, x8, x7, x21, I_beq_cg_cr_rs1_rs2_edges_offset_rs1val_0x2_rs2val_0x0, I_beq_cg_cr_rs1_rs2_edges_offset_rs1val_0x2_rs2val_0x0_str) # signature 1 for taken
    2bf8:	0005a383          	lw	x7,0(x11)
    2bfc:	01538863          	beq	x7,x21,2c0c <I_beq_cg_cr_rs1_rs2_edges_offset_rs1val_0x2_rs2val_0x0+0x3c>
    2c00:	4940746f          	jal	x8,a094 <failedtest_x8_x7>
    2c04:	00002bd0          	.word	0x00002bd0
    2c08:	0000e4a4          	.word	0x0000e4a4
    2c0c:	00458593          	addi	x11,x11,4
  j 4f # done with test
    2c10:	0080006f          	jal	x0,2c18 <I_beq_cg_cr_rs1_rs2_edges_offset_rs1val_0x2_rs2val_0x0+0x48>
3: # goes here during forward branch if taken
  beq x21, x12, 2b # backward branch, definitely taken
    2c14:	feca80e3          	beq	x21,x12,2bf4 <I_beq_cg_cr_rs1_rs2_edges_offset_rs1val_0x2_rs2val_0x0+0x24>
4: # done with test

# cr_rs1_rs2_edges_offset (Test source rs1 = 0x00000002 rs2 = 0x00000001)
  RVTEST_TESTDATA_LOAD_INT(x20, x1) # load rs1: x1 = 0x00000002
    2c18:	000a2083          	lw	x1,0(x20)
    2c1c:	004a0a13          	addi	x20,x20,4
  RVTEST_TESTDATA_LOAD_INT(x20, x15) # load rs2: x15 = 0x00000001
    2c20:	000a2783          	lw	x15,0(x20)
    2c24:	004a0a13          	addi	x20,x20,4

00002c28 <I_beq_cg_cr_rs1_rs2_edges_offset_rs1val_0x2_rs2val_0x1>:
0: # destination for backwards branch that is never taken
I_beq_cg_cr_rs1_rs2_edges_offset_rs1val_0x2_rs2val_0x1:
  beq x1, x15, 3f # forward branch, if taken
    2c28:	04f08263          	beq	x1,x15,2c6c <I_beq_cg_cr_rs1_rs2_edges_offset_rs1val_0x2_rs2val_0x1+0x44>
1: # goes here if not taken
  beq x1, x15, 0b # backward branch, never taken
    2c2c:	fef08ee3          	beq	x1,x15,2c28 <I_beq_cg_cr_rs1_rs2_edges_offset_rs1val_0x2_rs2val_0x1>
  # Check if x0 contains the expected result. x11 is the signature ptr, x8 is the link ptr, x7 is a temp reg.
  RVTEST_SIGUPD(x11, x8, x7, x0, I_beq_cg_cr_rs1_rs2_edges_offset_rs1val_0x2_rs2val_0x1, I_beq_cg_cr_rs1_rs2_edges_offset_rs1val_0x2_rs2val_0x1_str)
    2c30:	0005a383          	lw	x7,0(x11)
    2c34:	00038863          	beq	x7,x0,2c44 <I_beq_cg_cr_rs1_rs2_edges_offset_rs1val_0x2_rs2val_0x1+0x1c>
    2c38:	45c0746f          	jal	x8,a094 <failedtest_x8_x7>
    2c3c:	00002c28          	.word	0x00002c28
    2c40:	0000e4f8          	.word	0x0000e4f8
    2c44:	00458593          	addi	x11,x11,4
  j 4f # done with test
    2c48:	0280006f          	jal	x0,2c70 <I_beq_cg_cr_rs1_rs2_edges_offset_rs1val_0x2_rs2val_0x1+0x48>
2: # goes here during backward branch if taken
  LI(x1, 1)
    2c4c:	00100093          	addi	x1,x0,1
  # Check if x1 contains the expected result. x11 is the signature ptr, x8 is the link ptr, x7 is a temp reg.
  RVTEST_SIGUPD(x11, x8, x7, x1, I_beq_cg_cr_rs1_rs2_edges_offset_rs1val_0x2_rs2val_0x1, I_beq_cg_cr_rs1_rs2_edges_offset_rs1val_0x2_rs2val_0x1_str) # signature 1 for taken
    2c50:	0005a383          	lw	x7,0(x11)
    2c54:	00138863          	beq	x7,x1,2c64 <I_beq_cg_cr_rs1_rs2_edges_offset_rs1val_0x2_rs2val_0x1+0x3c>
    2c58:	43c0746f          	jal	x8,a094 <failedtest_x8_x7>
    2c5c:	00002c28          	.word	0x00002c28
    2c60:	0000e4f8          	.word	0x0000e4f8
    2c64:	00458593          	addi	x11,x11,4
  j 4f # done with test
    2c68:	0080006f          	jal	x0,2c70 <I_beq_cg_cr_rs1_rs2_edges_offset_rs1val_0x2_rs2val_0x1+0x48>
3: # goes here during forward branch if taken
