
/home/dev/github/clones/riscv-arch-test/work/rv32i-core/elfs/rv32i/I/I-bge-00.elf:     file format elf32-littleriscv
/home/dev/github/clones/riscv-arch-test/work/rv32i-core/elfs/rv32i/I/I-bge-00.elf
architecture: riscv:rv32, flags 0x00000112:
EXEC_P, HAS_SYMS, D_PAGED
start address 0x00000000

Program Header:
0x70000003 off    0x00024240 vaddr 0x00000000 paddr 0x00000000 align 2**0
         filesz 0x00000033 memsz 0x00000000 flags r--
    LOAD off    0x00001000 vaddr 0x00000000 paddr 0x00000000 align 2**12
         filesz 0x0000c000 memsz 0x0000c000 flags r-x
    LOAD off    0x0000d000 vaddr 0x0000c000 paddr 0x0000c000 align 2**12
         filesz 0x00017240 memsz 0x00017240 flags rwx

Sections:
Idx Name          Size      VMA       LMA       File off  Algn
  0 .text.init    00000040  00000000  00000000  00001000  2**5
                  CONTENTS, ALLOC, LOAD, READONLY, CODE
  1 .text.rvtest  0000b000  00001000  00001000  00002000  2**12
                  CONTENTS, ALLOC, LOAD, READONLY, CODE
  2 .data         00016640  0000c000  0000c000  0000d000  2**8
                  CONTENTS, ALLOC, LOAD, DATA
  3 .text.rvmodel 00000240  00023000  00023000  00024000  2**5
                  CONTENTS, ALLOC, LOAD, READONLY, CODE
  4 .riscv.attributes 00000033  00000000  00000000  00024240  2**0
                  CONTENTS, READONLY
  5 .debug_line   000034ce  00000000  00000000  00024273  2**0
                  CONTENTS, READONLY, DEBUGGING, OCTETS
  6 .debug_line_str 00000069  00000000  00000000  00027741  2**0
                  CONTENTS, READONLY, DEBUGGING, OCTETS
  7 .debug_info   00000023  00000000  00000000  000277aa  2**0
                  CONTENTS, READONLY, DEBUGGING, OCTETS
  8 .debug_abbrev 00000012  00000000  00000000  000277cd  2**0
                  CONTENTS, READONLY, DEBUGGING, OCTETS
  9 .debug_aranges 00000028  00000000  00000000  000277e0  2**3
                  CONTENTS, READONLY, DEBUGGING, OCTETS
 10 .debug_str    00000075  00000000  00000000  00027808  2**0
                  CONTENTS, READONLY, DEBUGGING, OCTETS
 11 .debug_rnglists 0000001b  00000000  00000000  0002787d  2**0
                  CONTENTS, READONLY, DEBUGGING, OCTETS
SYMBOL TABLE:
00000000 l    d  .text.init	00000000 .text.init
00001000 l    d  .text.rvtest	00000000 .text.rvtest
0000c000 l    d  .data	00000000 .data
00023000 l    d  .text.rvmodel	00000000 .text.rvmodel
00000000 l    d  .riscv.attributes	00000000 .riscv.attributes
00000000 l    d  .debug_line	00000000 .debug_line
00000000 l    d  .debug_line_str	00000000 .debug_line_str
00000000 l    d  .debug_info	00000000 .debug_info
00000000 l    d  .debug_abbrev	00000000 .debug_abbrev
00000000 l    d  .debug_aranges	00000000 .debug_aranges
00000000 l    d  .debug_str	00000000 .debug_str
00000000 l    d  .debug_rnglists	00000000 .debug_rnglists
00000000 l    df *ABS*	00000000 ccZLLj9u.o
00000003 l       *ABS*	00000000 MMODE_SIG
00000001 l       *ABS*	00000000 SMODE_SIG
00000001 l       *ABS*	00000000 HMODE_SIG
00000002 l       *ABS*	00000000 VMODE_SIG
00023000 l       .text.rvmodel	00000000 rvmodel_boot
00001018 l       .text.rvtest	00000000 I_bge_cg_cp_rs1_b0
6f5ca309 l       *ABS*	00000000 immx
6f5ca309 l       *ABS*	00000000 absimm
00000000 l       *ABS*	00000000 cry
00000309 l       *ABS*	00000000 imm12
0000a07c l       .text.rvtest	00000000 failedtest_x5_x4
0000cb38 l       .data	00000000 I_bge_cg_cp_rs1_b0_str
00001050 l       .text.rvtest	00000000 I_bge_cg_cp_rs1_b1
0000cb65 l       .data	00000000 I_bge_cg_cp_rs1_b1_str
0000108c l       .text.rvtest	00000000 I_bge_cg_cp_rs1_b2
0000cb92 l       .data	00000000 I_bge_cg_cp_rs1_b2_str
000010c8 l       .text.rvtest	00000000 I_bge_cg_cp_rs1_b3
0000cbbf l       .data	00000000 I_bge_cg_cp_rs1_b3_str
00001108 l       .text.rvtest	00000000 I_bge_cg_cp_rs1_b4
0000a094 l       .text.rvtest	00000000 failedtest_x8_x7
0000cbec l       .data	00000000 I_bge_cg_cp_rs1_b4_str
00001140 l       .text.rvtest	00000000 I_bge_cg_cp_rs1_b5
0000cc19 l       .data	00000000 I_bge_cg_cp_rs1_b5_str
00001178 l       .text.rvtest	00000000 I_bge_cg_cp_rs1_b6
0000cc46 l       .data	00000000 I_bge_cg_cp_rs1_b6_str
000011b8 l       .text.rvtest	00000000 I_bge_cg_cp_rs1_b7
0000cc73 l       .data	00000000 I_bge_cg_cp_rs1_b7_str
000011f0 l       .text.rvtest	00000000 I_bge_cg_cp_rs1_b8
0000cca0 l       .data	00000000 I_bge_cg_cp_rs1_b8_str
00001228 l       .text.rvtest	00000000 I_bge_cg_cp_rs1_b9
0000cccd l       .data	00000000 I_bge_cg_cp_rs1_b9_str
00001264 l       .text.rvtest	00000000 I_bge_cg_cp_rs1_b10
0000ccfb l       .data	00000000 I_bge_cg_cp_rs1_b10_str
0000129c l       .text.rvtest	00000000 I_bge_cg_cp_rs1_b11
0000cd2a l       .data	00000000 I_bge_cg_cp_rs1_b11_str
000012d4 l       .text.rvtest	00000000 I_bge_cg_cp_rs1_b12
0000cd59 l       .data	00000000 I_bge_cg_cp_rs1_b12_str
0000130c l       .text.rvtest	00000000 I_bge_cg_cp_rs1_b13
0000cd88 l       .data	00000000 I_bge_cg_cp_rs1_b13_str
00001344 l       .text.rvtest	00000000 I_bge_cg_cp_rs1_b14
0000cdb7 l       .data	00000000 I_bge_cg_cp_rs1_b14_str
00001380 l       .text.rvtest	00000000 I_bge_cg_cp_rs1_b15
0000cde6 l       .data	00000000 I_bge_cg_cp_rs1_b15_str
000013b8 l       .text.rvtest	00000000 I_bge_cg_cp_rs1_b16
0000ce15 l       .data	00000000 I_bge_cg_cp_rs1_b16_str
000013f0 l       .text.rvtest	00000000 I_bge_cg_cp_rs1_b17
0000ce44 l       .data	00000000 I_bge_cg_cp_rs1_b17_str
00001428 l       .text.rvtest	00000000 I_bge_cg_cp_rs1_b18
0000ce73 l       .data	00000000 I_bge_cg_cp_rs1_b18_str
00001464 l       .text.rvtest	00000000 I_bge_cg_cp_rs1_b19
0000cea2 l       .data	00000000 I_bge_cg_cp_rs1_b19_str
0000149c l       .text.rvtest	00000000 I_bge_cg_cp_rs1_b20
0000ced1 l       .data	00000000 I_bge_cg_cp_rs1_b20_str
000014d4 l       .text.rvtest	00000000 I_bge_cg_cp_rs1_b21
0000cf00 l       .data	00000000 I_bge_cg_cp_rs1_b21_str
0000150c l       .text.rvtest	00000000 I_bge_cg_cp_rs1_b22
0000cf2f l       .data	00000000 I_bge_cg_cp_rs1_b22_str
00001548 l       .text.rvtest	00000000 I_bge_cg_cp_rs1_b23
0000cf5e l       .data	00000000 I_bge_cg_cp_rs1_b23_str
00001580 l       .text.rvtest	00000000 I_bge_cg_cp_rs1_b24
0000cf8d l       .data	00000000 I_bge_cg_cp_rs1_b24_str
000015b8 l       .text.rvtest	00000000 I_bge_cg_cp_rs1_b25
0000cfbc l       .data	00000000 I_bge_cg_cp_rs1_b25_str
000015f4 l       .text.rvtest	00000000 I_bge_cg_cp_rs1_b26
0000cfeb l       .data	00000000 I_bge_cg_cp_rs1_b26_str
0000162c l       .text.rvtest	00000000 I_bge_cg_cp_rs1_b27
0000d01a l       .data	00000000 I_bge_cg_cp_rs1_b27_str
00001664 l       .text.rvtest	00000000 I_bge_cg_cp_rs1_b28
0000d049 l       .data	00000000 I_bge_cg_cp_rs1_b28_str
0000169c l       .text.rvtest	00000000 I_bge_cg_cp_rs1_b29
0000d078 l       .data	00000000 I_bge_cg_cp_rs1_b29_str
000016d4 l       .text.rvtest	00000000 I_bge_cg_cp_rs1_b30
0000d0a7 l       .data	00000000 I_bge_cg_cp_rs1_b30_str
00001710 l       .text.rvtest	00000000 I_bge_cg_cp_rs1_b31
0000d0d6 l       .data	00000000 I_bge_cg_cp_rs1_b31_str
00001748 l       .text.rvtest	00000000 I_bge_cg_cp_rs2_b0
0000d105 l       .data	00000000 I_bge_cg_cp_rs2_b0_str
00001784 l       .text.rvtest	00000000 I_bge_cg_cp_rs2_b1
0000d133 l       .data	00000000 I_bge_cg_cp_rs2_b1_str
000017bc l       .text.rvtest	00000000 I_bge_cg_cp_rs2_b2
0000d161 l       .data	00000000 I_bge_cg_cp_rs2_b2_str
000017f4 l       .text.rvtest	00000000 I_bge_cg_cp_rs2_b3
0000d18f l       .data	00000000 I_bge_cg_cp_rs2_b3_str
00001834 l       .text.rvtest	00000000 I_bge_cg_cp_rs2_b4
0000d1bd l       .data	00000000 I_bge_cg_cp_rs2_b4_str
0000186c l       .text.rvtest	00000000 I_bge_cg_cp_rs2_b5
0000d1eb l       .data	00000000 I_bge_cg_cp_rs2_b5_str
000018a4 l       .text.rvtest	00000000 I_bge_cg_cp_rs2_b6
0000d219 l       .data	00000000 I_bge_cg_cp_rs2_b6_str
000018e4 l       .text.rvtest	00000000 I_bge_cg_cp_rs2_b7
0000a0bc l       .text.rvtest	00000000 failedtest_x14_x13
0000d247 l       .data	00000000 I_bge_cg_cp_rs2_b7_str
0000191c l       .text.rvtest	00000000 I_bge_cg_cp_rs2_b8
0000d275 l       .data	00000000 I_bge_cg_cp_rs2_b8_str
00001954 l       .text.rvtest	00000000 I_bge_cg_cp_rs2_b9
0000d2a3 l       .data	00000000 I_bge_cg_cp_rs2_b9_str
0000198c l       .text.rvtest	00000000 I_bge_cg_cp_rs2_b10
0000d2d1 l       .data	00000000 I_bge_cg_cp_rs2_b10_str
000019c4 l       .text.rvtest	00000000 I_bge_cg_cp_rs2_b11
0000d300 l       .data	00000000 I_bge_cg_cp_rs2_b11_str
000019fc l       .text.rvtest	00000000 I_bge_cg_cp_rs2_b12
0000d32f l       .data	00000000 I_bge_cg_cp_rs2_b12_str
00001a3c l       .text.rvtest	00000000 I_bge_cg_cp_rs2_b13
0000d35e l       .data	00000000 I_bge_cg_cp_rs2_b13_str
00001a74 l       .text.rvtest	00000000 I_bge_cg_cp_rs2_b14
0000d38d l       .data	00000000 I_bge_cg_cp_rs2_b14_str
00001aac l       .text.rvtest	00000000 I_bge_cg_cp_rs2_b15
0000d3bc l       .data	00000000 I_bge_cg_cp_rs2_b15_str
00001ae8 l       .text.rvtest	00000000 I_bge_cg_cp_rs2_b16
0000d3eb l       .data	00000000 I_bge_cg_cp_rs2_b16_str
00001b20 l       .text.rvtest	00000000 I_bge_cg_cp_rs2_b17
0000d41a l       .data	00000000 I_bge_cg_cp_rs2_b17_str
00001b58 l       .text.rvtest	00000000 I_bge_cg_cp_rs2_b18
0000d449 l       .data	00000000 I_bge_cg_cp_rs2_b18_str
00001b90 l       .text.rvtest	00000000 I_bge_cg_cp_rs2_b19
0000d478 l       .data	00000000 I_bge_cg_cp_rs2_b19_str
00001bc8 l       .text.rvtest	00000000 I_bge_cg_cp_rs2_b20
0000d4a7 l       .data	00000000 I_bge_cg_cp_rs2_b20_str
00001c00 l       .text.rvtest	00000000 I_bge_cg_cp_rs2_b21
0000d4d6 l       .data	00000000 I_bge_cg_cp_rs2_b21_str
00001c38 l       .text.rvtest	00000000 I_bge_cg_cp_rs2_b22
0000d505 l       .data	00000000 I_bge_cg_cp_rs2_b22_str
00001c70 l       .text.rvtest	00000000 I_bge_cg_cp_rs2_b23
0000d534 l       .data	00000000 I_bge_cg_cp_rs2_b23_str
00001ca8 l       .text.rvtest	00000000 I_bge_cg_cp_rs2_b24
0000d563 l       .data	00000000 I_bge_cg_cp_rs2_b24_str
00001ce0 l       .text.rvtest	00000000 I_bge_cg_cp_rs2_b25
0000d592 l       .data	00000000 I_bge_cg_cp_rs2_b25_str
00001d1c l       .text.rvtest	00000000 I_bge_cg_cp_rs2_b26
0000d5c1 l       .data	00000000 I_bge_cg_cp_rs2_b26_str
00001d54 l       .text.rvtest	00000000 I_bge_cg_cp_rs2_b27
0000d5f0 l       .data	00000000 I_bge_cg_cp_rs2_b27_str
00001d8c l       .text.rvtest	00000000 I_bge_cg_cp_rs2_b28
0000d61f l       .data	00000000 I_bge_cg_cp_rs2_b28_str
00001dc4 l       .text.rvtest	00000000 I_bge_cg_cp_rs2_b29
0000d64e l       .data	00000000 I_bge_cg_cp_rs2_b29_str
00001dfc l       .text.rvtest	00000000 I_bge_cg_cp_rs2_b30
0000d67d l       .data	00000000 I_bge_cg_cp_rs2_b30_str
00001e34 l       .text.rvtest	00000000 I_bge_cg_cp_rs2_b31
0000d6ac l       .data	00000000 I_bge_cg_cp_rs2_b31_str
00001e6c l       .text.rvtest	00000000 I_bge_cg_cp_rs1_edges_0x0
0000d6db l       .data	00000000 I_bge_cg_cp_rs1_edges_0x0_str
00001ea4 l       .text.rvtest	00000000 I_bge_cg_cp_rs1_edges_0x1
0000d710 l       .data	00000000 I_bge_cg_cp_rs1_edges_0x1_str
00001edc l       .text.rvtest	00000000 I_bge_cg_cp_rs1_edges_0x2
0000d745 l       .data	00000000 I_bge_cg_cp_rs1_edges_0x2_str
00001f14 l       .text.rvtest	00000000 I_bge_cg_cp_rs1_edges_0x80000000
0000d77a l       .data	00000000 I_bge_cg_cp_rs1_edges_0x80000000_str
00001f4c l       .text.rvtest	00000000 I_bge_cg_cp_rs1_edges_0x80000001
0000d7b6 l       .data	00000000 I_bge_cg_cp_rs1_edges_0x80000001_str
00001f84 l       .text.rvtest	00000000 I_bge_cg_cp_rs1_edges_0x7fffffff
0000d7f2 l       .data	00000000 I_bge_cg_cp_rs1_edges_0x7fffffff_str
00001fbc l       .text.rvtest	00000000 I_bge_cg_cp_rs1_edges_0x7ffffffe
0000d82e l       .data	00000000 I_bge_cg_cp_rs1_edges_0x7ffffffe_str
00001ff4 l       .text.rvtest	00000000 I_bge_cg_cp_rs1_edges_0xffffffff
0000d86a l       .data	00000000 I_bge_cg_cp_rs1_edges_0xffffffff_str
0000202c l       .text.rvtest	00000000 I_bge_cg_cp_rs1_edges_0xfffffffe
0000d8a6 l       .data	00000000 I_bge_cg_cp_rs1_edges_0xfffffffe_str
00002064 l       .text.rvtest	00000000 I_bge_cg_cp_rs1_edges_0x5bbc8872
0000d8e2 l       .data	00000000 I_bge_cg_cp_rs1_edges_0x5bbc8872_str
0000209c l       .text.rvtest	00000000 I_bge_cg_cp_rs1_edges_0xaaaaaaaa
0000d91e l       .data	00000000 I_bge_cg_cp_rs1_edges_0xaaaaaaaa_str
000020d4 l       .text.rvtest	00000000 I_bge_cg_cp_rs1_edges_0x55555555
0000d95a l       .data	00000000 I_bge_cg_cp_rs1_edges_0x55555555_str
0000210c l       .text.rvtest	00000000 I_bge_cg_cp_rs2_edges_0x0
0000d996 l       .data	00000000 I_bge_cg_cp_rs2_edges_0x0_str
00002144 l       .text.rvtest	00000000 I_bge_cg_cp_rs2_edges_0x1
0000d9cb l       .data	00000000 I_bge_cg_cp_rs2_edges_0x1_str
0000217c l       .text.rvtest	00000000 I_bge_cg_cp_rs2_edges_0x2
0000da00 l       .data	00000000 I_bge_cg_cp_rs2_edges_0x2_str
000021b4 l       .text.rvtest	00000000 I_bge_cg_cp_rs2_edges_0x80000000
0000da35 l       .data	00000000 I_bge_cg_cp_rs2_edges_0x80000000_str
000021ec l       .text.rvtest	00000000 I_bge_cg_cp_rs2_edges_0x80000001
0000da71 l       .data	00000000 I_bge_cg_cp_rs2_edges_0x80000001_str
00002224 l       .text.rvtest	00000000 I_bge_cg_cp_rs2_edges_0x7fffffff
0000daad l       .data	00000000 I_bge_cg_cp_rs2_edges_0x7fffffff_str
0000225c l       .text.rvtest	00000000 I_bge_cg_cp_rs2_edges_0x7ffffffe
0000dae9 l       .data	00000000 I_bge_cg_cp_rs2_edges_0x7ffffffe_str
00002294 l       .text.rvtest	00000000 I_bge_cg_cp_rs2_edges_0xffffffff
0000db25 l       .data	00000000 I_bge_cg_cp_rs2_edges_0xffffffff_str
000022cc l       .text.rvtest	00000000 I_bge_cg_cp_rs2_edges_0xfffffffe
0000db61 l       .data	00000000 I_bge_cg_cp_rs2_edges_0xfffffffe_str
00002304 l       .text.rvtest	00000000 I_bge_cg_cp_rs2_edges_0x5bbc8872
0000db9d l       .data	00000000 I_bge_cg_cp_rs2_edges_0x5bbc8872_str
0000233c l       .text.rvtest	00000000 I_bge_cg_cp_rs2_edges_0xaaaaaaaa
0000dbd9 l       .data	00000000 I_bge_cg_cp_rs2_edges_0xaaaaaaaa_str
00002374 l       .text.rvtest	00000000 I_bge_cg_cp_rs2_edges_0x55555555
0000dc15 l       .data	00000000 I_bge_cg_cp_rs2_edges_0x55555555_str
000023a4 l       .text.rvtest	00000000 I_bge_cg_cr_rs1_rs2_edges_offset_rs1val_0x0_rs2val_0x0
0000dc51 l       .data	00000000 I_bge_cg_cr_rs1_rs2_edges_offset_rs1val_0x0_rs2val_0x0_str
000023fc l       .text.rvtest	00000000 I_bge_cg_cr_rs1_rs2_edges_offset_rs1val_0x0_rs2val_0x1
0000dca4 l       .data	00000000 I_bge_cg_cr_rs1_rs2_edges_offset_rs1val_0x0_rs2val_0x1_str
00002454 l       .text.rvtest	00000000 I_bge_cg_cr_rs1_rs2_edges_offset_rs1val_0x0_rs2val_0x2
0000dcf7 l       .data	00000000 I_bge_cg_cr_rs1_rs2_edges_offset_rs1val_0x0_rs2val_0x2_str
000024ac l       .text.rvtest	00000000 I_bge_cg_cr_rs1_rs2_edges_offset_rs1val_0x0_rs2val_0x80000000
0000dd4a l       .data	00000000 I_bge_cg_cr_rs1_rs2_edges_offset_rs1val_0x0_rs2val_0x80000000_str
00002504 l       .text.rvtest	00000000 I_bge_cg_cr_rs1_rs2_edges_offset_rs1val_0x0_rs2val_0x80000001
0000dda4 l       .data	00000000 I_bge_cg_cr_rs1_rs2_edges_offset_rs1val_0x0_rs2val_0x80000001_str
0000255c l       .text.rvtest	00000000 I_bge_cg_cr_rs1_rs2_edges_offset_rs1val_0x0_rs2val_0x7fffffff
0000ddfe l       .data	00000000 I_bge_cg_cr_rs1_rs2_edges_offset_rs1val_0x0_rs2val_0x7fffffff_str
000025b4 l       .text.rvtest	00000000 I_bge_cg_cr_rs1_rs2_edges_offset_rs1val_0x0_rs2val_0x7ffffffe
0000de58 l       .data	00000000 I_bge_cg_cr_rs1_rs2_edges_offset_rs1val_0x0_rs2val_0x7ffffffe_str
0000260c l       .text.rvtest	00000000 I_bge_cg_cr_rs1_rs2_edges_offset_rs1val_0x0_rs2val_0xffffffff
0000deb2 l       .data	00000000 I_bge_cg_cr_rs1_rs2_edges_offset_rs1val_0x0_rs2val_0xffffffff_str
00002664 l       .text.rvtest	00000000 I_bge_cg_cr_rs1_rs2_edges_offset_rs1val_0x0_rs2val_0xfffffffe
0000df0c l       .data	00000000 I_bge_cg_cr_rs1_rs2_edges_offset_rs1val_0x0_rs2val_0xfffffffe_str
000026bc l       .text.rvtest	00000000 I_bge_cg_cr_rs1_rs2_edges_offset_rs1val_0x0_rs2val_0x5bbc8872
0000df66 l       .data	00000000 I_bge_cg_cr_rs1_rs2_edges_offset_rs1val_0x0_rs2val_0x5bbc8872_str
00002714 l       .text.rvtest	00000000 I_bge_cg_cr_rs1_rs2_edges_offset_rs1val_0x0_rs2val_0xaaaaaaaa
0000dfc0 l       .data	00000000 I_bge_cg_cr_rs1_rs2_edges_offset_rs1val_0x0_rs2val_0xaaaaaaaa_str
0000276c l       .text.rvtest	00000000 I_bge_cg_cr_rs1_rs2_edges_offset_rs1val_0x0_rs2val_0x55555555
0000e01a l       .data	00000000 I_bge_cg_cr_rs1_rs2_edges_offset_rs1val_0x0_rs2val_0x55555555_str
000027c4 l       .text.rvtest	00000000 I_bge_cg_cr_rs1_rs2_edges_offset_rs1val_0x1_rs2val_0x0
0000e075 l       .data	00000000 I_bge_cg_cr_rs1_rs2_edges_offset_rs1val_0x1_rs2val_0x0_str
0000281c l       .text.rvtest	00000000 I_bge_cg_cr_rs1_rs2_edges_offset_rs1val_0x1_rs2val_0x1
0000e0c9 l       .data	00000000 I_bge_cg_cr_rs1_rs2_edges_offset_rs1val_0x1_rs2val_0x1_str
00002874 l       .text.rvtest	00000000 I_bge_cg_cr_rs1_rs2_edges_offset_rs1val_0x1_rs2val_0x2
0000e11d l       .data	00000000 I_bge_cg_cr_rs1_rs2_edges_offset_rs1val_0x1_rs2val_0x2_str
000028cc l       .text.rvtest	00000000 I_bge_cg_cr_rs1_rs2_edges_offset_rs1val_0x1_rs2val_0x80000000
0000e171 l       .data	00000000 I_bge_cg_cr_rs1_rs2_edges_offset_rs1val_0x1_rs2val_0x80000000_str
00002924 l       .text.rvtest	00000000 I_bge_cg_cr_rs1_rs2_edges_offset_rs1val_0x1_rs2val_0x80000001
0000e1cc l       .data	00000000 I_bge_cg_cr_rs1_rs2_edges_offset_rs1val_0x1_rs2val_0x80000001_str
0000297c l       .text.rvtest	00000000 I_bge_cg_cr_rs1_rs2_edges_offset_rs1val_0x1_rs2val_0x7fffffff
0000e227 l       .data	00000000 I_bge_cg_cr_rs1_rs2_edges_offset_rs1val_0x1_rs2val_0x7fffffff_str
000029d4 l       .text.rvtest	00000000 I_bge_cg_cr_rs1_rs2_edges_offset_rs1val_0x1_rs2val_0x7ffffffe
0000e282 l       .data	00000000 I_bge_cg_cr_rs1_rs2_edges_offset_rs1val_0x1_rs2val_0x7ffffffe_str
00002a2c l       .text.rvtest	00000000 I_bge_cg_cr_rs1_rs2_edges_offset_rs1val_0x1_rs2val_0xffffffff
0000e2dd l       .data	00000000 I_bge_cg_cr_rs1_rs2_edges_offset_rs1val_0x1_rs2val_0xffffffff_str
00002a84 l       .text.rvtest	00000000 I_bge_cg_cr_rs1_rs2_edges_offset_rs1val_0x1_rs2val_0xfffffffe
0000e338 l       .data	00000000 I_bge_cg_cr_rs1_rs2_edges_offset_rs1val_0x1_rs2val_0xfffffffe_str
00002adc l       .text.rvtest	00000000 I_bge_cg_cr_rs1_rs2_edges_offset_rs1val_0x1_rs2val_0x5bbc8872
0000e393 l       .data	00000000 I_bge_cg_cr_rs1_rs2_edges_offset_rs1val_0x1_rs2val_0x5bbc8872_str
00002b34 l       .text.rvtest	00000000 I_bge_cg_cr_rs1_rs2_edges_offset_rs1val_0x1_rs2val_0xaaaaaaaa
0000e3ee l       .data	00000000 I_bge_cg_cr_rs1_rs2_edges_offset_rs1val_0x1_rs2val_0xaaaaaaaa_str
00002b8c l       .text.rvtest	00000000 I_bge_cg_cr_rs1_rs2_edges_offset_rs1val_0x1_rs2val_0x55555555
0000e449 l       .data	00000000 I_bge_cg_cr_rs1_rs2_edges_offset_rs1val_0x1_rs2val_0x55555555_str
00002be4 l       .text.rvtest	00000000 I_bge_cg_cr_rs1_rs2_edges_offset_rs1val_0x2_rs2val_0x0
0000e4a4 l       .data	00000000 I_bge_cg_cr_rs1_rs2_edges_offset_rs1val_0x2_rs2val_0x0_str
00002c3c l       .text.rvtest	00000000 I_bge_cg_cr_rs1_rs2_edges_offset_rs1val_0x2_rs2val_0x1
0000e4f8 l       .data	00000000 I_bge_cg_cr_rs1_rs2_edges_offset_rs1val_0x2_rs2val_0x1_str
00002c94 l       .text.rvtest	00000000 I_bge_cg_cr_rs1_rs2_edges_offset_rs1val_0x2_rs2val_0x2
0000e54c l       .data	00000000 I_bge_cg_cr_rs1_rs2_edges_offset_rs1val_0x2_rs2val_0x2_str
00002cec l       .text.rvtest	00000000 I_bge_cg_cr_rs1_rs2_edges_offset_rs1val_0x2_rs2val_0x80000000
0000e5a0 l       .data	00000000 I_bge_cg_cr_rs1_rs2_edges_offset_rs1val_0x2_rs2val_0x80000000_str
00002d44 l       .text.rvtest	00000000 I_bge_cg_cr_rs1_rs2_edges_offset_rs1val_0x2_rs2val_0x80000001
0000e5fb l       .data	00000000 I_bge_cg_cr_rs1_rs2_edges_offset_rs1val_0x2_rs2val_0x80000001_str
00002d9c l       .text.rvtest	00000000 I_bge_cg_cr_rs1_rs2_edges_offset_rs1val_0x2_rs2val_0x7fffffff
0000e656 l       .data	00000000 I_bge_cg_cr_rs1_rs2_edges_offset_rs1val_0x2_rs2val_0x7fffffff_str
00002df4 l       .text.rvtest	00000000 I_bge_cg_cr_rs1_rs2_edges_offset_rs1val_0x2_rs2val_0x7ffffffe
0000e6b1 l       .data	00000000 I_bge_cg_cr_rs1_rs2_edges_offset_rs1val_0x2_rs2val_0x7ffffffe_str
00002e4c l       .text.rvtest	00000000 I_bge_cg_cr_rs1_rs2_edges_offset_rs1val_0x2_rs2val_0xffffffff
0000e70c l       .data	00000000 I_bge_cg_cr_rs1_rs2_edges_offset_rs1val_0x2_rs2val_0xffffffff_str
00002ea4 l       .text.rvtest	00000000 I_bge_cg_cr_rs1_rs2_edges_offset_rs1val_0x2_rs2val_0xfffffffe
0000e767 l       .data	00000000 I_bge_cg_cr_rs1_rs2_edges_offset_rs1val_0x2_rs2val_0xfffffffe_str
00002efc l       .text.rvtest	00000000 I_bge_cg_cr_rs1_rs2_edges_offset_rs1val_0x2_rs2val_0x5bbc8872
0000e7c2 l       .data	00000000 I_bge_cg_cr_rs1_rs2_edges_offset_rs1val_0x2_rs2val_0x5bbc8872_str
00002f54 l       .text.rvtest	00000000 I_bge_cg_cr_rs1_rs2_edges_offset_rs1val_0x2_rs2val_0xaaaaaaaa
0000e81d l       .data	00000000 I_bge_cg_cr_rs1_rs2_edges_offset_rs1val_0x2_rs2val_0xaaaaaaaa_str
00002fac l       .text.rvtest	00000000 I_bge_cg_cr_rs1_rs2_edges_offset_rs1val_0x2_rs2val_0x55555555
0000e878 l       .data	00000000 I_bge_cg_cr_rs1_rs2_edges_offset_rs1val_0x2_rs2val_0x55555555_str
00003004 l       .text.rvtest	00000000 I_bge_cg_cr_rs1_rs2_edges_offset_rs1val_0x80000000_rs2val_0x0
0000e8d3 l       .data	00000000 I_bge_cg_cr_rs1_rs2_edges_offset_rs1val_0x80000000_rs2val_0x0_str
0000305c l       .text.rvtest	00000000 I_bge_cg_cr_rs1_rs2_edges_offset_rs1val_0x80000000_rs2val_0x1
0000e92e l       .data	00000000 I_bge_cg_cr_rs1_rs2_edges_offset_rs1val_0x80000000_rs2val_0x1_str
000030b4 l       .text.rvtest	00000000 I_bge_cg_cr_rs1_rs2_edges_offset_rs1val_0x80000000_rs2val_0x2
0000e989 l       .data	00000000 I_bge_cg_cr_rs1_rs2_edges_offset_rs1val_0x80000000_rs2val_0x2_str
0000310c l       .text.rvtest	00000000 I_bge_cg_cr_rs1_rs2_edges_offset_rs1val_0x80000000_rs2val_0x80000000
0000e9e4 l       .data	00000000 I_bge_cg_cr_rs1_rs2_edges_offset_rs1val_0x80000000_rs2val_0x80000000_str
00003164 l       .text.rvtest	00000000 I_bge_cg_cr_rs1_rs2_edges_offset_rs1val_0x80000000_rs2val_0x80000001
0000ea46 l       .data	00000000 I_bge_cg_cr_rs1_rs2_edges_offset_rs1val_0x80000000_rs2val_0x80000001_str
000031bc l       .text.rvtest	00000000 I_bge_cg_cr_rs1_rs2_edges_offset_rs1val_0x80000000_rs2val_0x7fffffff
0000eaa8 l       .data	00000000 I_bge_cg_cr_rs1_rs2_edges_offset_rs1val_0x80000000_rs2val_0x7fffffff_str
00003214 l       .text.rvtest	00000000 I_bge_cg_cr_rs1_rs2_edges_offset_rs1val_0x80000000_rs2val_0x7ffffffe
0000eb0a l       .data	00000000 I_bge_cg_cr_rs1_rs2_edges_offset_rs1val_0x80000000_rs2val_0x7ffffffe_str
0000326c l       .text.rvtest	00000000 I_bge_cg_cr_rs1_rs2_edges_offset_rs1val_0x80000000_rs2val_0xffffffff
0000eb6c l       .data	00000000 I_bge_cg_cr_rs1_rs2_edges_offset_rs1val_0x80000000_rs2val_0xffffffff_str
000032c4 l       .text.rvtest	00000000 I_bge_cg_cr_rs1_rs2_edges_offset_rs1val_0x80000000_rs2val_0xfffffffe
0000ebce l       .data	00000000 I_bge_cg_cr_rs1_rs2_edges_offset_rs1val_0x80000000_rs2val_0xfffffffe_str
0000331c l       .text.rvtest	00000000 I_bge_cg_cr_rs1_rs2_edges_offset_rs1val_0x80000000_rs2val_0x5bbc8872
0000ec30 l       .data	00000000 I_bge_cg_cr_rs1_rs2_edges_offset_rs1val_0x80000000_rs2val_0x5bbc8872_str
00003374 l       .text.rvtest	00000000 I_bge_cg_cr_rs1_rs2_edges_offset_rs1val_0x80000000_rs2val_0xaaaaaaaa
0000ec92 l       .data	00000000 I_bge_cg_cr_rs1_rs2_edges_offset_rs1val_0x80000000_rs2val_0xaaaaaaaa_str
000033cc l       .text.rvtest	00000000 I_bge_cg_cr_rs1_rs2_edges_offset_rs1val_0x80000000_rs2val_0x55555555
0000ecf4 l       .data	00000000 I_bge_cg_cr_rs1_rs2_edges_offset_rs1val_0x80000000_rs2val_0x55555555_str
00003424 l       .text.rvtest	00000000 I_bge_cg_cr_rs1_rs2_edges_offset_rs1val_0x80000001_rs2val_0x0
0000ed56 l       .data	00000000 I_bge_cg_cr_rs1_rs2_edges_offset_rs1val_0x80000001_rs2val_0x0_str
0000347c l       .text.rvtest	00000000 I_bge_cg_cr_rs1_rs2_edges_offset_rs1val_0x80000001_rs2val_0x1
0000edb1 l       .data	00000000 I_bge_cg_cr_rs1_rs2_edges_offset_rs1val_0x80000001_rs2val_0x1_str
000034d4 l       .text.rvtest	00000000 I_bge_cg_cr_rs1_rs2_edges_offset_rs1val_0x80000001_rs2val_0x2
0000ee0c l       .data	00000000 I_bge_cg_cr_rs1_rs2_edges_offset_rs1val_0x80000001_rs2val_0x2_str
0000352c l       .text.rvtest	00000000 I_bge_cg_cr_rs1_rs2_edges_offset_rs1val_0x80000001_rs2val_0x80000000
0000ee67 l       .data	00000000 I_bge_cg_cr_rs1_rs2_edges_offset_rs1val_0x80000001_rs2val_0x80000000_str
00003584 l       .text.rvtest	00000000 I_bge_cg_cr_rs1_rs2_edges_offset_rs1val_0x80000001_rs2val_0x80000001
0000eec9 l       .data	00000000 I_bge_cg_cr_rs1_rs2_edges_offset_rs1val_0x80000001_rs2val_0x80000001_str
000035dc l       .text.rvtest	00000000 I_bge_cg_cr_rs1_rs2_edges_offset_rs1val_0x80000001_rs2val_0x7fffffff
0000ef2b l       .data	00000000 I_bge_cg_cr_rs1_rs2_edges_offset_rs1val_0x80000001_rs2val_0x7fffffff_str
00003634 l       .text.rvtest	00000000 I_bge_cg_cr_rs1_rs2_edges_offset_rs1val_0x80000001_rs2val_0x7ffffffe
0000ef8d l       .data	00000000 I_bge_cg_cr_rs1_rs2_edges_offset_rs1val_0x80000001_rs2val_0x7ffffffe_str
0000368c l       .text.rvtest	00000000 I_bge_cg_cr_rs1_rs2_edges_offset_rs1val_0x80000001_rs2val_0xffffffff
0000efef l       .data	00000000 I_bge_cg_cr_rs1_rs2_edges_offset_rs1val_0x80000001_rs2val_0xffffffff_str
000036e4 l       .text.rvtest	00000000 I_bge_cg_cr_rs1_rs2_edges_offset_rs1val_0x80000001_rs2val_0xfffffffe
0000f051 l       .data	00000000 I_bge_cg_cr_rs1_rs2_edges_offset_rs1val_0x80000001_rs2val_0xfffffffe_str
0000373c l       .text.rvtest	00000000 I_bge_cg_cr_rs1_rs2_edges_offset_rs1val_0x80000001_rs2val_0x5bbc8872
0000f0b3 l       .data	00000000 I_bge_cg_cr_rs1_rs2_edges_offset_rs1val_0x80000001_rs2val_0x5bbc8872_str
00003794 l       .text.rvtest	00000000 I_bge_cg_cr_rs1_rs2_edges_offset_rs1val_0x80000001_rs2val_0xaaaaaaaa
0000f115 l       .data	00000000 I_bge_cg_cr_rs1_rs2_edges_offset_rs1val_0x80000001_rs2val_0xaaaaaaaa_str
000037ec l       .text.rvtest	00000000 I_bge_cg_cr_rs1_rs2_edges_offset_rs1val_0x80000001_rs2val_0x55555555
0000f177 l       .data	00000000 I_bge_cg_cr_rs1_rs2_edges_offset_rs1val_0x80000001_rs2val_0x55555555_str
00003844 l       .text.rvtest	00000000 I_bge_cg_cr_rs1_rs2_edges_offset_rs1val_0x7fffffff_rs2val_0x0
0000f1d9 l       .data	00000000 I_bge_cg_cr_rs1_rs2_edges_offset_rs1val_0x7fffffff_rs2val_0x0_str
0000389c l       .text.rvtest	00000000 I_bge_cg_cr_rs1_rs2_edges_offset_rs1val_0x7fffffff_rs2val_0x1
0000f234 l       .data	00000000 I_bge_cg_cr_rs1_rs2_edges_offset_rs1val_0x7fffffff_rs2val_0x1_str
000038f4 l       .text.rvtest	00000000 I_bge_cg_cr_rs1_rs2_edges_offset_rs1val_0x7fffffff_rs2val_0x2
0000f28f l       .data	00000000 I_bge_cg_cr_rs1_rs2_edges_offset_rs1val_0x7fffffff_rs2val_0x2_str
0000394c l       .text.rvtest	00000000 I_bge_cg_cr_rs1_rs2_edges_offset_rs1val_0x7fffffff_rs2val_0x80000000
0000f2ea l       .data	00000000 I_bge_cg_cr_rs1_rs2_edges_offset_rs1val_0x7fffffff_rs2val_0x80000000_str
000039a4 l       .text.rvtest	00000000 I_bge_cg_cr_rs1_rs2_edges_offset_rs1val_0x7fffffff_rs2val_0x80000001
0000f34c l       .data	00000000 I_bge_cg_cr_rs1_rs2_edges_offset_rs1val_0x7fffffff_rs2val_0x80000001_str
000039fc l       .text.rvtest	00000000 I_bge_cg_cr_rs1_rs2_edges_offset_rs1val_0x7fffffff_rs2val_0x7fffffff
0000f3ae l       .data	00000000 I_bge_cg_cr_rs1_rs2_edges_offset_rs1val_0x7fffffff_rs2val_0x7fffffff_str
00003a54 l       .text.rvtest	00000000 I_bge_cg_cr_rs1_rs2_edges_offset_rs1val_0x7fffffff_rs2val_0x7ffffffe
0000f410 l       .data	00000000 I_bge_cg_cr_rs1_rs2_edges_offset_rs1val_0x7fffffff_rs2val_0x7ffffffe_str
00003aac l       .text.rvtest	00000000 I_bge_cg_cr_rs1_rs2_edges_offset_rs1val_0x7fffffff_rs2val_0xffffffff
0000f472 l       .data	00000000 I_bge_cg_cr_rs1_rs2_edges_offset_rs1val_0x7fffffff_rs2val_0xffffffff_str
00003b04 l       .text.rvtest	00000000 I_bge_cg_cr_rs1_rs2_edges_offset_rs1val_0x7fffffff_rs2val_0xfffffffe
0000f4d4 l       .data	00000000 I_bge_cg_cr_rs1_rs2_edges_offset_rs1val_0x7fffffff_rs2val_0xfffffffe_str
00003b5c l       .text.rvtest	00000000 I_bge_cg_cr_rs1_rs2_edges_offset_rs1val_0x7fffffff_rs2val_0x5bbc8872
0000f536 l       .data	00000000 I_bge_cg_cr_rs1_rs2_edges_offset_rs1val_0x7fffffff_rs2val_0x5bbc8872_str
00003bb4 l       .text.rvtest	00000000 I_bge_cg_cr_rs1_rs2_edges_offset_rs1val_0x7fffffff_rs2val_0xaaaaaaaa
0000f598 l       .data	00000000 I_bge_cg_cr_rs1_rs2_edges_offset_rs1val_0x7fffffff_rs2val_0xaaaaaaaa_str
00003c0c l       .text.rvtest	00000000 I_bge_cg_cr_rs1_rs2_edges_offset_rs1val_0x7fffffff_rs2val_0x55555555
0000f5fa l       .data	00000000 I_bge_cg_cr_rs1_rs2_edges_offset_rs1val_0x7fffffff_rs2val_0x55555555_str
00003c64 l       .text.rvtest	00000000 I_bge_cg_cr_rs1_rs2_edges_offset_rs1val_0x7ffffffe_rs2val_0x0
0000f65c l       .data	00000000 I_bge_cg_cr_rs1_rs2_edges_offset_rs1val_0x7ffffffe_rs2val_0x0_str
00003cbc l       .text.rvtest	00000000 I_bge_cg_cr_rs1_rs2_edges_offset_rs1val_0x7ffffffe_rs2val_0x1
0000f6b7 l       .data	00000000 I_bge_cg_cr_rs1_rs2_edges_offset_rs1val_0x7ffffffe_rs2val_0x1_str
00003d14 l       .text.rvtest	00000000 I_bge_cg_cr_rs1_rs2_edges_offset_rs1val_0x7ffffffe_rs2val_0x2
0000f712 l       .data	00000000 I_bge_cg_cr_rs1_rs2_edges_offset_rs1val_0x7ffffffe_rs2val_0x2_str
00003d6c l       .text.rvtest	00000000 I_bge_cg_cr_rs1_rs2_edges_offset_rs1val_0x7ffffffe_rs2val_0x80000000
0000f76d l       .data	00000000 I_bge_cg_cr_rs1_rs2_edges_offset_rs1val_0x7ffffffe_rs2val_0x80000000_str
00003dc4 l       .text.rvtest	00000000 I_bge_cg_cr_rs1_rs2_edges_offset_rs1val_0x7ffffffe_rs2val_0x80000001
0000f7cf l       .data	00000000 I_bge_cg_cr_rs1_rs2_edges_offset_rs1val_0x7ffffffe_rs2val_0x80000001_str
00003e1c l       .text.rvtest	00000000 I_bge_cg_cr_rs1_rs2_edges_offset_rs1val_0x7ffffffe_rs2val_0x7fffffff
0000f831 l       .data	00000000 I_bge_cg_cr_rs1_rs2_edges_offset_rs1val_0x7ffffffe_rs2val_0x7fffffff_str
00003e74 l       .text.rvtest	00000000 I_bge_cg_cr_rs1_rs2_edges_offset_rs1val_0x7ffffffe_rs2val_0x7ffffffe
0000f893 l       .data	00000000 I_bge_cg_cr_rs1_rs2_edges_offset_rs1val_0x7ffffffe_rs2val_0x7ffffffe_str
00003ecc l       .text.rvtest	00000000 I_bge_cg_cr_rs1_rs2_edges_offset_rs1val_0x7ffffffe_rs2val_0xffffffff
0000f8f5 l       .data	00000000 I_bge_cg_cr_rs1_rs2_edges_offset_rs1val_0x7ffffffe_rs2val_0xffffffff_str
00003f24 l       .text.rvtest	00000000 I_bge_cg_cr_rs1_rs2_edges_offset_rs1val_0x7ffffffe_rs2val_0xfffffffe
0000f957 l       .data	00000000 I_bge_cg_cr_rs1_rs2_edges_offset_rs1val_0x7ffffffe_rs2val_0xfffffffe_str
00003f7c l       .text.rvtest	00000000 I_bge_cg_cr_rs1_rs2_edges_offset_rs1val_0x7ffffffe_rs2val_0x5bbc8872
0000f9b9 l       .data	00000000 I_bge_cg_cr_rs1_rs2_edges_offset_rs1val_0x7ffffffe_rs2val_0x5bbc8872_str
00003fd4 l       .text.rvtest	00000000 I_bge_cg_cr_rs1_rs2_edges_offset_rs1val_0x7ffffffe_rs2val_0xaaaaaaaa
0000fa1b l       .data	00000000 I_bge_cg_cr_rs1_rs2_edges_offset_rs1val_0x7ffffffe_rs2val_0xaaaaaaaa_str
0000402c l       .text.rvtest	00000000 I_bge_cg_cr_rs1_rs2_edges_offset_rs1val_0x7ffffffe_rs2val_0x55555555
0000fa7d l       .data	00000000 I_bge_cg_cr_rs1_rs2_edges_offset_rs1val_0x7ffffffe_rs2val_0x55555555_str
00004084 l       .text.rvtest	00000000 I_bge_cg_cr_rs1_rs2_edges_offset_rs1val_0xffffffff_rs2val_0x0
0000fadf l       .data	00000000 I_bge_cg_cr_rs1_rs2_edges_offset_rs1val_0xffffffff_rs2val_0x0_str
000040dc l       .text.rvtest	00000000 I_bge_cg_cr_rs1_rs2_edges_offset_rs1val_0xffffffff_rs2val_0x1
0000fb3a l       .data	00000000 I_bge_cg_cr_rs1_rs2_edges_offset_rs1val_0xffffffff_rs2val_0x1_str
00004134 l       .text.rvtest	00000000 I_bge_cg_cr_rs1_rs2_edges_offset_rs1val_0xffffffff_rs2val_0x2
0000fb95 l       .data	00000000 I_bge_cg_cr_rs1_rs2_edges_offset_rs1val_0xffffffff_rs2val_0x2_str
0000418c l       .text.rvtest	00000000 I_bge_cg_cr_rs1_rs2_edges_offset_rs1val_0xffffffff_rs2val_0x80000000
0000fbf0 l       .data	00000000 I_bge_cg_cr_rs1_rs2_edges_offset_rs1val_0xffffffff_rs2val_0x80000000_str
000041e4 l       .text.rvtest	00000000 I_bge_cg_cr_rs1_rs2_edges_offset_rs1val_0xffffffff_rs2val_0x80000001
0000fc52 l       .data	00000000 I_bge_cg_cr_rs1_rs2_edges_offset_rs1val_0xffffffff_rs2val_0x80000001_str
0000423c l       .text.rvtest	00000000 I_bge_cg_cr_rs1_rs2_edges_offset_rs1val_0xffffffff_rs2val_0x7fffffff
0000fcb4 l       .data	00000000 I_bge_cg_cr_rs1_rs2_edges_offset_rs1val_0xffffffff_rs2val_0x7fffffff_str
00004294 l       .text.rvtest	00000000 I_bge_cg_cr_rs1_rs2_edges_offset_rs1val_0xffffffff_rs2val_0x7ffffffe
0000fd16 l       .data	00000000 I_bge_cg_cr_rs1_rs2_edges_offset_rs1val_0xffffffff_rs2val_0x7ffffffe_str
000042ec l       .text.rvtest	00000000 I_bge_cg_cr_rs1_rs2_edges_offset_rs1val_0xffffffff_rs2val_0xffffffff
0000fd78 l       .data	00000000 I_bge_cg_cr_rs1_rs2_edges_offset_rs1val_0xffffffff_rs2val_0xffffffff_str
00004344 l       .text.rvtest	00000000 I_bge_cg_cr_rs1_rs2_edges_offset_rs1val_0xffffffff_rs2val_0xfffffffe
0000fdda l       .data	00000000 I_bge_cg_cr_rs1_rs2_edges_offset_rs1val_0xffffffff_rs2val_0xfffffffe_str
0000439c l       .text.rvtest	00000000 I_bge_cg_cr_rs1_rs2_edges_offset_rs1val_0xffffffff_rs2val_0x5bbc8872
0000fe3c l       .data	00000000 I_bge_cg_cr_rs1_rs2_edges_offset_rs1val_0xffffffff_rs2val_0x5bbc8872_str
000043f4 l       .text.rvtest	00000000 I_bge_cg_cr_rs1_rs2_edges_offset_rs1val_0xffffffff_rs2val_0xaaaaaaaa
0000fe9e l       .data	00000000 I_bge_cg_cr_rs1_rs2_edges_offset_rs1val_0xffffffff_rs2val_0xaaaaaaaa_str
0000444c l       .text.rvtest	00000000 I_bge_cg_cr_rs1_rs2_edges_offset_rs1val_0xffffffff_rs2val_0x55555555
0000ff00 l       .data	00000000 I_bge_cg_cr_rs1_rs2_edges_offset_rs1val_0xffffffff_rs2val_0x55555555_str
000044a4 l       .text.rvtest	00000000 I_bge_cg_cr_rs1_rs2_edges_offset_rs1val_0xfffffffe_rs2val_0x0
0000ff62 l       .data	00000000 I_bge_cg_cr_rs1_rs2_edges_offset_rs1val_0xfffffffe_rs2val_0x0_str
000044fc l       .text.rvtest	00000000 I_bge_cg_cr_rs1_rs2_edges_offset_rs1val_0xfffffffe_rs2val_0x1
0000ffbd l       .data	00000000 I_bge_cg_cr_rs1_rs2_edges_offset_rs1val_0xfffffffe_rs2val_0x1_str
00004554 l       .text.rvtest	00000000 I_bge_cg_cr_rs1_rs2_edges_offset_rs1val_0xfffffffe_rs2val_0x2
00010018 l       .data	00000000 I_bge_cg_cr_rs1_rs2_edges_offset_rs1val_0xfffffffe_rs2val_0x2_str
000045ac l       .text.rvtest	00000000 I_bge_cg_cr_rs1_rs2_edges_offset_rs1val_0xfffffffe_rs2val_0x80000000
00010073 l       .data	00000000 I_bge_cg_cr_rs1_rs2_edges_offset_rs1val_0xfffffffe_rs2val_0x80000000_str
00004604 l       .text.rvtest	00000000 I_bge_cg_cr_rs1_rs2_edges_offset_rs1val_0xfffffffe_rs2val_0x80000001
000100d5 l       .data	00000000 I_bge_cg_cr_rs1_rs2_edges_offset_rs1val_0xfffffffe_rs2val_0x80000001_str
0000465c l       .text.rvtest	00000000 I_bge_cg_cr_rs1_rs2_edges_offset_rs1val_0xfffffffe_rs2val_0x7fffffff
00010137 l       .data	00000000 I_bge_cg_cr_rs1_rs2_edges_offset_rs1val_0xfffffffe_rs2val_0x7fffffff_str
000046b4 l       .text.rvtest	00000000 I_bge_cg_cr_rs1_rs2_edges_offset_rs1val_0xfffffffe_rs2val_0x7ffffffe
00010199 l       .data	00000000 I_bge_cg_cr_rs1_rs2_edges_offset_rs1val_0xfffffffe_rs2val_0x7ffffffe_str
0000470c l       .text.rvtest	00000000 I_bge_cg_cr_rs1_rs2_edges_offset_rs1val_0xfffffffe_rs2val_0xffffffff
000101fb l       .data	00000000 I_bge_cg_cr_rs1_rs2_edges_offset_rs1val_0xfffffffe_rs2val_0xffffffff_str
00004764 l       .text.rvtest	00000000 I_bge_cg_cr_rs1_rs2_edges_offset_rs1val_0xfffffffe_rs2val_0xfffffffe
0001025d l       .data	00000000 I_bge_cg_cr_rs1_rs2_edges_offset_rs1val_0xfffffffe_rs2val_0xfffffffe_str
000047bc l       .text.rvtest	00000000 I_bge_cg_cr_rs1_rs2_edges_offset_rs1val_0xfffffffe_rs2val_0x5bbc8872
000102bf l       .data	00000000 I_bge_cg_cr_rs1_rs2_edges_offset_rs1val_0xfffffffe_rs2val_0x5bbc8872_str
00004814 l       .text.rvtest	00000000 I_bge_cg_cr_rs1_rs2_edges_offset_rs1val_0xfffffffe_rs2val_0xaaaaaaaa
00010321 l       .data	00000000 I_bge_cg_cr_rs1_rs2_edges_offset_rs1val_0xfffffffe_rs2val_0xaaaaaaaa_str
0000486c l       .text.rvtest	00000000 I_bge_cg_cr_rs1_rs2_edges_offset_rs1val_0xfffffffe_rs2val_0x55555555
00010383 l       .data	00000000 I_bge_cg_cr_rs1_rs2_edges_offset_rs1val_0xfffffffe_rs2val_0x55555555_str
000048c4 l       .text.rvtest	00000000 I_bge_cg_cr_rs1_rs2_edges_offset_rs1val_0x5bbc8872_rs2val_0x0
000103e5 l       .data	00000000 I_bge_cg_cr_rs1_rs2_edges_offset_rs1val_0x5bbc8872_rs2val_0x0_str
0000491c l       .text.rvtest	00000000 I_bge_cg_cr_rs1_rs2_edges_offset_rs1val_0x5bbc8872_rs2val_0x1
00010440 l       .data	00000000 I_bge_cg_cr_rs1_rs2_edges_offset_rs1val_0x5bbc8872_rs2val_0x1_str
00004974 l       .text.rvtest	00000000 I_bge_cg_cr_rs1_rs2_edges_offset_rs1val_0x5bbc8872_rs2val_0x2
0001049b l       .data	00000000 I_bge_cg_cr_rs1_rs2_edges_offset_rs1val_0x5bbc8872_rs2val_0x2_str
000049cc l       .text.rvtest	00000000 I_bge_cg_cr_rs1_rs2_edges_offset_rs1val_0x5bbc8872_rs2val_0x80000000
000104f6 l       .data	00000000 I_bge_cg_cr_rs1_rs2_edges_offset_rs1val_0x5bbc8872_rs2val_0x80000000_str
00004a24 l       .text.rvtest	00000000 I_bge_cg_cr_rs1_rs2_edges_offset_rs1val_0x5bbc8872_rs2val_0x80000001
00010558 l       .data	00000000 I_bge_cg_cr_rs1_rs2_edges_offset_rs1val_0x5bbc8872_rs2val_0x80000001_str
00004a7c l       .text.rvtest	00000000 I_bge_cg_cr_rs1_rs2_edges_offset_rs1val_0x5bbc8872_rs2val_0x7fffffff
000105ba l       .data	00000000 I_bge_cg_cr_rs1_rs2_edges_offset_rs1val_0x5bbc8872_rs2val_0x7fffffff_str
00004ad4 l       .text.rvtest	00000000 I_bge_cg_cr_rs1_rs2_edges_offset_rs1val_0x5bbc8872_rs2val_0x7ffffffe
0001061c l       .data	00000000 I_bge_cg_cr_rs1_rs2_edges_offset_rs1val_0x5bbc8872_rs2val_0x7ffffffe_str
00004b2c l       .text.rvtest	00000000 I_bge_cg_cr_rs1_rs2_edges_offset_rs1val_0x5bbc8872_rs2val_0xffffffff
0001067e l       .data	00000000 I_bge_cg_cr_rs1_rs2_edges_offset_rs1val_0x5bbc8872_rs2val_0xffffffff_str
00004b84 l       .text.rvtest	00000000 I_bge_cg_cr_rs1_rs2_edges_offset_rs1val_0x5bbc8872_rs2val_0xfffffffe
000106e0 l       .data	00000000 I_bge_cg_cr_rs1_rs2_edges_offset_rs1val_0x5bbc8872_rs2val_0xfffffffe_str
00004bdc l       .text.rvtest	00000000 I_bge_cg_cr_rs1_rs2_edges_offset_rs1val_0x5bbc8872_rs2val_0x5bbc8872
00010742 l       .data	00000000 I_bge_cg_cr_rs1_rs2_edges_offset_rs1val_0x5bbc8872_rs2val_0x5bbc8872_str
00004c34 l       .text.rvtest	00000000 I_bge_cg_cr_rs1_rs2_edges_offset_rs1val_0x5bbc8872_rs2val_0xaaaaaaaa
000107a4 l       .data	00000000 I_bge_cg_cr_rs1_rs2_edges_offset_rs1val_0x5bbc8872_rs2val_0xaaaaaaaa_str
00004c8c l       .text.rvtest	00000000 I_bge_cg_cr_rs1_rs2_edges_offset_rs1val_0x5bbc8872_rs2val_0x55555555
00010806 l       .data	00000000 I_bge_cg_cr_rs1_rs2_edges_offset_rs1val_0x5bbc8872_rs2val_0x55555555_str
00004ce4 l       .text.rvtest	00000000 I_bge_cg_cr_rs1_rs2_edges_offset_rs1val_0xaaaaaaaa_rs2val_0x0
00010868 l       .data	00000000 I_bge_cg_cr_rs1_rs2_edges_offset_rs1val_0xaaaaaaaa_rs2val_0x0_str
00004d3c l       .text.rvtest	00000000 I_bge_cg_cr_rs1_rs2_edges_offset_rs1val_0xaaaaaaaa_rs2val_0x1
000108c3 l       .data	00000000 I_bge_cg_cr_rs1_rs2_edges_offset_rs1val_0xaaaaaaaa_rs2val_0x1_str
00004d94 l       .text.rvtest	00000000 I_bge_cg_cr_rs1_rs2_edges_offset_rs1val_0xaaaaaaaa_rs2val_0x2
0001091e l       .data	00000000 I_bge_cg_cr_rs1_rs2_edges_offset_rs1val_0xaaaaaaaa_rs2val_0x2_str
00004dec l       .text.rvtest	00000000 I_bge_cg_cr_rs1_rs2_edges_offset_rs1val_0xaaaaaaaa_rs2val_0x80000000
00010979 l       .data	00000000 I_bge_cg_cr_rs1_rs2_edges_offset_rs1val_0xaaaaaaaa_rs2val_0x80000000_str
00004e44 l       .text.rvtest	00000000 I_bge_cg_cr_rs1_rs2_edges_offset_rs1val_0xaaaaaaaa_rs2val_0x80000001
000109db l       .data	00000000 I_bge_cg_cr_rs1_rs2_edges_offset_rs1val_0xaaaaaaaa_rs2val_0x80000001_str
00004e9c l       .text.rvtest	00000000 I_bge_cg_cr_rs1_rs2_edges_offset_rs1val_0xaaaaaaaa_rs2val_0x7fffffff
00010a3d l       .data	00000000 I_bge_cg_cr_rs1_rs2_edges_offset_rs1val_0xaaaaaaaa_rs2val_0x7fffffff_str
00004ef4 l       .text.rvtest	00000000 I_bge_cg_cr_rs1_rs2_edges_offset_rs1val_0xaaaaaaaa_rs2val_0x7ffffffe
00010a9f l       .data	00000000 I_bge_cg_cr_rs1_rs2_edges_offset_rs1val_0xaaaaaaaa_rs2val_0x7ffffffe_str
00004f4c l       .text.rvtest	00000000 I_bge_cg_cr_rs1_rs2_edges_offset_rs1val_0xaaaaaaaa_rs2val_0xffffffff
00010b01 l       .data	00000000 I_bge_cg_cr_rs1_rs2_edges_offset_rs1val_0xaaaaaaaa_rs2val_0xffffffff_str
00004fa4 l       .text.rvtest	00000000 I_bge_cg_cr_rs1_rs2_edges_offset_rs1val_0xaaaaaaaa_rs2val_0xfffffffe
00010b63 l       .data	00000000 I_bge_cg_cr_rs1_rs2_edges_offset_rs1val_0xaaaaaaaa_rs2val_0xfffffffe_str
00004ffc l       .text.rvtest	00000000 I_bge_cg_cr_rs1_rs2_edges_offset_rs1val_0xaaaaaaaa_rs2val_0x5bbc8872
00010bc5 l       .data	00000000 I_bge_cg_cr_rs1_rs2_edges_offset_rs1val_0xaaaaaaaa_rs2val_0x5bbc8872_str
00005054 l       .text.rvtest	00000000 I_bge_cg_cr_rs1_rs2_edges_offset_rs1val_0xaaaaaaaa_rs2val_0xaaaaaaaa
00010c27 l       .data	00000000 I_bge_cg_cr_rs1_rs2_edges_offset_rs1val_0xaaaaaaaa_rs2val_0xaaaaaaaa_str
000050ac l       .text.rvtest	00000000 I_bge_cg_cr_rs1_rs2_edges_offset_rs1val_0xaaaaaaaa_rs2val_0x55555555
00010c89 l       .data	00000000 I_bge_cg_cr_rs1_rs2_edges_offset_rs1val_0xaaaaaaaa_rs2val_0x55555555_str
00005104 l       .text.rvtest	00000000 I_bge_cg_cr_rs1_rs2_edges_offset_rs1val_0x55555555_rs2val_0x0
00010ceb l       .data	00000000 I_bge_cg_cr_rs1_rs2_edges_offset_rs1val_0x55555555_rs2val_0x0_str
0000515c l       .text.rvtest	00000000 I_bge_cg_cr_rs1_rs2_edges_offset_rs1val_0x55555555_rs2val_0x1
00010d46 l       .data	00000000 I_bge_cg_cr_rs1_rs2_edges_offset_rs1val_0x55555555_rs2val_0x1_str
000051b4 l       .text.rvtest	00000000 I_bge_cg_cr_rs1_rs2_edges_offset_rs1val_0x55555555_rs2val_0x2
00010da1 l       .data	00000000 I_bge_cg_cr_rs1_rs2_edges_offset_rs1val_0x55555555_rs2val_0x2_str
0000520c l       .text.rvtest	00000000 I_bge_cg_cr_rs1_rs2_edges_offset_rs1val_0x55555555_rs2val_0x80000000
00010dfc l       .data	00000000 I_bge_cg_cr_rs1_rs2_edges_offset_rs1val_0x55555555_rs2val_0x80000000_str
00005264 l       .text.rvtest	00000000 I_bge_cg_cr_rs1_rs2_edges_offset_rs1val_0x55555555_rs2val_0x80000001
00010e5e l       .data	00000000 I_bge_cg_cr_rs1_rs2_edges_offset_rs1val_0x55555555_rs2val_0x80000001_str
000052bc l       .text.rvtest	00000000 I_bge_cg_cr_rs1_rs2_edges_offset_rs1val_0x55555555_rs2val_0x7fffffff
00010ec0 l       .data	00000000 I_bge_cg_cr_rs1_rs2_edges_offset_rs1val_0x55555555_rs2val_0x7fffffff_str
00005314 l       .text.rvtest	00000000 I_bge_cg_cr_rs1_rs2_edges_offset_rs1val_0x55555555_rs2val_0x7ffffffe
00010f22 l       .data	00000000 I_bge_cg_cr_rs1_rs2_edges_offset_rs1val_0x55555555_rs2val_0x7ffffffe_str
0000536c l       .text.rvtest	00000000 I_bge_cg_cr_rs1_rs2_edges_offset_rs1val_0x55555555_rs2val_0xffffffff
00010f84 l       .data	00000000 I_bge_cg_cr_rs1_rs2_edges_offset_rs1val_0x55555555_rs2val_0xffffffff_str
000053c4 l       .text.rvtest	00000000 I_bge_cg_cr_rs1_rs2_edges_offset_rs1val_0x55555555_rs2val_0xfffffffe
00010fe6 l       .data	00000000 I_bge_cg_cr_rs1_rs2_edges_offset_rs1val_0x55555555_rs2val_0xfffffffe_str
0000541c l       .text.rvtest	00000000 I_bge_cg_cr_rs1_rs2_edges_offset_rs1val_0x55555555_rs2val_0x5bbc8872
00011048 l       .data	00000000 I_bge_cg_cr_rs1_rs2_edges_offset_rs1val_0x55555555_rs2val_0x5bbc8872_str
00005474 l       .text.rvtest	00000000 I_bge_cg_cr_rs1_rs2_edges_offset_rs1val_0x55555555_rs2val_0xaaaaaaaa
000110aa l       .data	00000000 I_bge_cg_cr_rs1_rs2_edges_offset_rs1val_0x55555555_rs2val_0xaaaaaaaa_str
000054cc l       .text.rvtest	00000000 I_bge_cg_cr_rs1_rs2_edges_offset_rs1val_0x55555555_rs2val_0x55555555
0001110c l       .data	00000000 I_bge_cg_cr_rs1_rs2_edges_offset_rs1val_0x55555555_rs2val_0x55555555_str
0000552c l       .text.rvtest	00000000 I_bge_cg_cmp_rs1_rs2_b0
0001116e l       .data	00000000 I_bge_cg_cmp_rs1_rs2_b0_str
00005564 l       .text.rvtest	00000000 I_bge_cg_cmp_rs1_rs2_b1
000111a2 l       .data	00000000 I_bge_cg_cmp_rs1_rs2_b1_str
0000559c l       .text.rvtest	00000000 I_bge_cg_cmp_rs1_rs2_b2
000111d6 l       .data	00000000 I_bge_cg_cmp_rs1_rs2_b2_str
000055d4 l       .text.rvtest	00000000 I_bge_cg_cmp_rs1_rs2_b3
0001120a l       .data	00000000 I_bge_cg_cmp_rs1_rs2_b3_str
00005614 l       .text.rvtest	00000000 I_bge_cg_cmp_rs1_rs2_b4
0001123e l       .data	00000000 I_bge_cg_cmp_rs1_rs2_b4_str
0000564c l       .text.rvtest	00000000 I_bge_cg_cmp_rs1_rs2_b5
00011272 l       .data	00000000 I_bge_cg_cmp_rs1_rs2_b5_str
00005684 l       .text.rvtest	00000000 I_bge_cg_cmp_rs1_rs2_b6
000112a6 l       .data	00000000 I_bge_cg_cmp_rs1_rs2_b6_str
000056bc l       .text.rvtest	00000000 I_bge_cg_cmp_rs1_rs2_b7
000112da l       .data	00000000 I_bge_cg_cmp_rs1_rs2_b7_str
000056f4 l       .text.rvtest	00000000 I_bge_cg_cmp_rs1_rs2_b8
0001130e l       .data	00000000 I_bge_cg_cmp_rs1_rs2_b8_str
0000572c l       .text.rvtest	00000000 I_bge_cg_cmp_rs1_rs2_b9
00011342 l       .data	00000000 I_bge_cg_cmp_rs1_rs2_b9_str
00005764 l       .text.rvtest	00000000 I_bge_cg_cmp_rs1_rs2_b10
00011376 l       .data	00000000 I_bge_cg_cmp_rs1_rs2_b10_str
0000579c l       .text.rvtest	00000000 I_bge_cg_cmp_rs1_rs2_b11
000113ab l       .data	00000000 I_bge_cg_cmp_rs1_rs2_b11_str
000057d4 l       .text.rvtest	00000000 I_bge_cg_cmp_rs1_rs2_b12
000113e0 l       .data	00000000 I_bge_cg_cmp_rs1_rs2_b12_str
00005814 l       .text.rvtest	00000000 I_bge_cg_cmp_rs1_rs2_b13
00011415 l       .data	00000000 I_bge_cg_cmp_rs1_rs2_b13_str
0000584c l       .text.rvtest	00000000 I_bge_cg_cmp_rs1_rs2_b14
0001144a l       .data	00000000 I_bge_cg_cmp_rs1_rs2_b14_str
00005888 l       .text.rvtest	00000000 I_bge_cg_cmp_rs1_rs2_b15
0001147f l       .data	00000000 I_bge_cg_cmp_rs1_rs2_b15_str
000058c0 l       .text.rvtest	00000000 I_bge_cg_cmp_rs1_rs2_b16
000114b4 l       .data	00000000 I_bge_cg_cmp_rs1_rs2_b16_str
000058f8 l       .text.rvtest	00000000 I_bge_cg_cmp_rs1_rs2_b17
000114e9 l       .data	00000000 I_bge_cg_cmp_rs1_rs2_b17_str
00005930 l       .text.rvtest	00000000 I_bge_cg_cmp_rs1_rs2_b18
0001151e l       .data	00000000 I_bge_cg_cmp_rs1_rs2_b18_str
00005968 l       .text.rvtest	00000000 I_bge_cg_cmp_rs1_rs2_b19
00011553 l       .data	00000000 I_bge_cg_cmp_rs1_rs2_b19_str
000059a0 l       .text.rvtest	00000000 I_bge_cg_cmp_rs1_rs2_b20
00011588 l       .data	00000000 I_bge_cg_cmp_rs1_rs2_b20_str
000059d8 l       .text.rvtest	00000000 I_bge_cg_cmp_rs1_rs2_b21
000115bd l       .data	00000000 I_bge_cg_cmp_rs1_rs2_b21_str
00005a10 l       .text.rvtest	00000000 I_bge_cg_cmp_rs1_rs2_b22
000115f2 l       .data	00000000 I_bge_cg_cmp_rs1_rs2_b22_str
00005a4c l       .text.rvtest	00000000 I_bge_cg_cmp_rs1_rs2_b23
00011627 l       .data	00000000 I_bge_cg_cmp_rs1_rs2_b23_str
00005a88 l       .text.rvtest	00000000 I_bge_cg_cmp_rs1_rs2_b24
0001165c l       .data	00000000 I_bge_cg_cmp_rs1_rs2_b24_str
00005ac4 l       .text.rvtest	00000000 I_bge_cg_cmp_rs1_rs2_b25
00011691 l       .data	00000000 I_bge_cg_cmp_rs1_rs2_b25_str
00005afc l       .text.rvtest	00000000 I_bge_cg_cmp_rs1_rs2_b26
000116c6 l       .data	00000000 I_bge_cg_cmp_rs1_rs2_b26_str
00005b34 l       .text.rvtest	00000000 I_bge_cg_cmp_rs1_rs2_b27
000116fb l       .data	00000000 I_bge_cg_cmp_rs1_rs2_b27_str
00005b6c l       .text.rvtest	00000000 I_bge_cg_cmp_rs1_rs2_b28
00011730 l       .data	00000000 I_bge_cg_cmp_rs1_rs2_b28_str
00005ba4 l       .text.rvtest	00000000 I_bge_cg_cmp_rs1_rs2_b29
00011765 l       .data	00000000 I_bge_cg_cmp_rs1_rs2_b29_str
00005bdc l       .text.rvtest	00000000 I_bge_cg_cmp_rs1_rs2_b30
0001179a l       .data	00000000 I_bge_cg_cmp_rs1_rs2_b30_str
00005c14 l       .text.rvtest	00000000 I_bge_cg_cmp_rs1_rs2_b31
000117cf l       .data	00000000 I_bge_cg_cmp_rs1_rs2_b31_str
00005c50 l       .text.rvtest	00000000 I_bge_cg_cp_offset_neg
00011804 l       .data	00000000 I_bge_cg_cp_offset_neg_str
00005c80 l       .text.rvtest	00000000 I_bge_cg_cp_imm_edges_branch_all
00011837 l       .data	00000000 I_bge_cg_cp_imm_edges_branch_all_str
0000a02c l       .text.rvtest	00000000 exit_cleanup
00011ee4 l       .data	00000000 successstr
00023204 l       .text.rvmodel	00000000 rvmodel_io_write_str
00023208 l       .text.rvmodel	00000000 rvmodel_halt_pass
0000a070 l       .text.rvtest	00000000 abort_test
00011880 l       .data	00000000 begin_failure_scratch
0000a140 l       .text.rvtest	00000000 failedtest_saveregs
0000a0e4 l       .text.rvtest	00000000 failedtest_trap_x7_x9
000119f0 l       .data	00000000 saved_mcause
000119f8 l       .data	00000000 saved_mtval
00011a00 l       .data	00000000 saved_mstatus
0000a1b0 l       .text.rvtest	00000000 failedtest_saveresults
00011880 l       .data	00000000 failure_type
0000a22c l       .text.rvtest	00000000 failedtest_saveresults_trap
0000a1c0 l       .text.rvtest	00000000 failedtest_saveresults_int
0000a600 l       .text.rvtest	00000000 failedtest_saveresults_common
000119d8 l       .data	00000000 trap_diag_fail_str_ptr
000120aa l       .data	00000000 trap_sig_offset_mismatch
0000a4e0 l       .text.rvtest	00000000 trap_diag_offset_mismatch
000119b0 l       .data	00000000 trap_diag_subtype
0001210e l       .data	00000000 sv_Mvect_str
0000a560 l       .text.rvtest	00000000 trap_diag_field_identified
00012210 l       .data	00000000 sv_Mcause_str
0001230b l       .data	00000000 sv_Mepc_str
000123fe l       .data	00000000 sv_Mtval_str
00012571 l       .data	00000000 sv_Mip_str
000124f5 l       .data	00000000 sv_Mtval2_str
00012533 l       .data	00000000 sv_Mtinst_str
0001214e l       .data	00000000 sv_Svect_str
0001224e l       .data	00000000 sv_Scause_str
00012347 l       .data	00000000 sv_Sepc_str
0001243b l       .data	00000000 sv_Stval_str
000125ac l       .data	00000000 sv_Sip_str
0001218e l       .data	00000000 sv_Hvect_str
0001228c l       .data	00000000 sv_Hcause_str
00012383 l       .data	00000000 sv_Hepc_str
00012478 l       .data	00000000 sv_Htval_str
000125e7 l       .data	00000000 sv_Hip_str
000121cf l       .data	00000000 sv_Vvect_str
000122cb l       .data	00000000 sv_Vcause_str
000123c0 l       .data	00000000 sv_Vepc_str
000124b6 l       .data	00000000 sv_Vtval_str
00012623 l       .data	00000000 sv_Vip_str
00012660 l       .data	00000000 Mclr_Mext_int_str
000126af l       .data	00000000 Mclr_Sext_int_str
000127aa l       .data	00000000 Sclr_Sext_int_str
000128a6 l       .data	00000000 Hclr_Sext_int_str
0000a5f0 l       .text.rvtest	00000000 trap_diag_generic_report
000119c8 l       .data	00000000 trap_diag_actual_offset
000119d0 l       .data	00000000 trap_diag_expected_offset
000119b4 l       .data	00000000 trap_diag_mode
000119b8 l       .data	00000000 trap_diag_actual_value
000119c0 l       .data	00000000 trap_diag_expected_value
0000a630 l       .text.rvtest	00000000 failedtest_report
0000a630 l       .text.rvtest	00000000 print_failstr
00011f1a l       .data	00000000 failstr
0000a668 l       .text.rvtest	00000000 print_testnamestr
00011fad l       .data	00000000 testnamestr
0000a6a8 l       .text.rvtest	00000000 print_failure_test_name_str
000119a0 l       .data	00000000 failure_string_ptr
0000a6b8 l       .text.rvtest	00000000 print_newline_str
00011fbf l       .data	00000000 newlinestr
0000aaec l       .text.rvtest	00000000 failedtest_report_trap_detailed
00011fc1 l       .data	00000000 inststr
00011980 l       .data	00000000 failing_instruction
0000ba38 l       .text.rvtest	00000000 failedtest_hex_to_str
00011a08 l       .data	00000000 ascii_buffer
00011fd5 l       .data	00000000 addrstr
00011988 l       .data	00000000 failing_addr
00012a52 l       .data	00000000 regstr
0000a898 l       .text.rvtest	00000000 failedtest_report_not_intreg
00011984 l       .data	00000000 failing_reg
0000bab4 l       .text.rvtest	00000000 failedtest_dec_to_str
0000a974 l       .text.rvtest	00000000 failedtest_report_print_regstr
0000a8ec l       .text.rvtest	00000000 failedtest_report_fpreg
0000a938 l       .text.rvtest	00000000 failedtest_report_vecreg
00012ab2 l       .data	00000000 fflagsstr
0000a9a8 l       .text.rvtest	00000000 failedtest_report_after_reg
00012a63 l       .data	00000000 badvalstr
0000aa0c l       .text.rvtest	00000000 failedtest_report_badval_not_fp
00011990 l       .data	00000000 failing_value
0000aa1c l       .text.rvtest	00000000 failedtest_report_badval_done
00012a7a l       .data	00000000 expvalstr
0000aaac l       .text.rvtest	00000000 failedtest_report_expval_not_fp
00011998 l       .data	00000000 expected_value
0000aabc l       .text.rvtest	00000000 failedtest_report_expval_done
0000b7e4 l       .text.rvtest	00000000 failedtest_report_end
00012ade l       .data	00000000 trap_diag_header_str
00012b0a l       .data	00000000 trap_diag_origstr_label
0000abc0 l       .text.rvtest	00000000 trap_report_offset_mismatch
0000b670 l       .text.rvtest	00000000 trap_report_generic
0000af34 l       .text.rvtest	00000000 trap_report_field_mismatch
00012b1a l       .data	00000000 trap_diag_count_mismatch_str
00012b7b l       .data	00000000 trap_diag_expected_offset_str
00012ba2 l       .data	00000000 trap_diag_actual_offset_str
0000ae14 l       .text.rvtest	00000000 trap_report_missing_traps
0000acfc l       .text.rvtest	00000000 trap_report_extra_traps
00012bc9 l       .data	00000000 trap_diag_extra_traps_str
00012c4e l       .data	00000000 trap_diag_extra_bytes_str
00012c79 l       .data	00000000 trap_diag_extra_hint_str
0000b830 l       .text.rvtest	00000000 failedtest_print_csr_context
00012c03 l       .data	00000000 trap_diag_missing_traps_str
00012d61 l       .data	00000000 trap_diag_missing_hint_str
00012e48 l       .data	00000000 trap_diag_handler_mode_str
0000afc4 l       .text.rvtest	00000000 trap_mode_m
0000b004 l       .text.rvtest	00000000 trap_mode_s
0000b044 l       .text.rvtest	00000000 trap_mode_h
0000b084 l       .text.rvtest	00000000 trap_mode_v
00012e84 l       .data	00000000 trap_diag_mode_unknown_str
0000b0c0 l       .text.rvtest	00000000 trap_mode_print
00012e62 l       .data	00000000 trap_diag_mode_m_str
00012e6a l       .data	00000000 trap_diag_mode_s_str
00012e72 l       .data	00000000 trap_diag_mode_hs_str
00012e7b l       .data	00000000 trap_diag_mode_vs_str
00012e8d l       .data	00000000 trap_diag_field_str
0000b184 l       .text.rvtest	00000000 trap_field_vect
0000b1c4 l       .text.rvtest	00000000 trap_field_cause
0000b204 l       .text.rvtest	00000000 trap_field_epc
0000b244 l       .text.rvtest	00000000 trap_field_tval
0000b284 l       .text.rvtest	00000000 trap_field_ip
0000b2c4 l       .text.rvtest	00000000 trap_field_tval2
0000b304 l       .text.rvtest	00000000 trap_field_tinst
0000b344 l       .text.rvtest	00000000 trap_field_intid
00012fe4 l       .data	00000000 trap_diag_field_unknown_str
0000b380 l       .text.rvtest	00000000 trap_field_print
00012ea7 l       .data	00000000 trap_diag_field_vect_str
00012ed8 l       .data	00000000 trap_diag_field_cause_str
00012ef8 l       .data	00000000 trap_diag_field_epc_str
00012f16 l       .data	00000000 trap_diag_field_tval_str
00012f35 l       .data	00000000 trap_diag_field_ip_str
00012f5d l       .data	00000000 trap_diag_field_tval2_str
00012f89 l       .data	00000000 trap_diag_field_tinst_str
00012fb5 l       .data	00000000 trap_diag_field_intid_str
00012ff3 l       .data	00000000 trap_diag_expected_str
0001300a l       .data	00000000 trap_diag_actual_str
0000b51c l       .text.rvtest	00000000 trap_field_not_cause
00013021 l       .data	00000000 trap_diag_expected_cause_name_str
0000b754 l       .text.rvtest	00000000 trap_cause_to_str
00013038 l       .data	00000000 trap_diag_actual_cause_name_str
0000b51c l       .text.rvtest	00000000 trap_field_not_epc
000130ae l       .data	00000000 trap_diag_hint_vect_str
00013184 l       .data	00000000 trap_diag_hint_cause_str
00013277 l       .data	00000000 trap_diag_hint_epc_str
00013372 l       .data	00000000 trap_diag_hint_tval_str
00013459 l       .data	00000000 trap_diag_hint_ip_str
00013066 l       .data	00000000 trap_diag_generic_str
000119e8 l       .data	00000000 saved_mepc
00012049 l       .data	00000000 xepcinstrstr
0000b778 l       .text.rvtest	00000000 trap_cause_interrupt
0000b758 l       .text.rvtest	00000000 trap_cause_exception
0000b7a4 l       .text.rvtest	00000000 trap_cause_unknown
00011a30 l       .data	00000000 trap_excpt_name_tbl
00011a90 l       .data	00000000 trap_int_name_tbl
00011ece l       .data	00000000 trap_cause_unknown_str
00012a91 l       .data	00000000 endstr
0000b828 l       .text.rvtest	00000000 failedtest_terminate
00023214 l       .text.rvmodel	00000000 rvmodel_halt_fail
000119e0 l       .data	00000000 csr_context_ret_addr
0001206a l       .data	00000000 mepcstr
0001207a l       .data	00000000 mcausestr
0001208a l       .data	00000000 mtvalstr
0001209a l       .data	00000000 mstatusstr
0000ba78 l       .text.rvtest	00000000 failedtest_hex_to_str_loop
0000ba94 l       .text.rvtest	00000000 failedtest_hex_to_str_digit
0000ba98 l       .text.rvtest	00000000 failedtest_hex_to_str_write
00023000 l       .text.rvmodel	00000000 rvtest_boot_to_mmode
00023000 l       .text.rvmodel	00000000 rvtest_init_regs
00013540 l       .data	00000000 signature_base
000231a0 l       .text.rvmodel	00000000 canary_check
00012aba l       .data	00000000 canary_mismatch
0000c000 l       .data	00000000 scratch
00011a30 l       .data	00000000 end_failure_scratch
00011ad0 l       .data	00000000 trap_excpt_name_0
00011af0 l       .data	00000000 trap_excpt_name_1
00011b0a l       .data	00000000 trap_excpt_name_2
00011b1f l       .data	00000000 trap_excpt_name_3
00011b2b l       .data	00000000 trap_excpt_name_4
00011b44 l       .data	00000000 trap_excpt_name_5
00011b57 l       .data	00000000 trap_excpt_name_6
00011b75 l       .data	00000000 trap_excpt_name_7
00011b8d l       .data	00000000 trap_excpt_name_8
00011bab l       .data	00000000 trap_excpt_name_9
00011bc9 l       .data	00000000 trap_excpt_name_10
00011be8 l       .data	00000000 trap_excpt_name_11
00011c06 l       .data	00000000 trap_excpt_name_12
00011c1e l       .data	00000000 trap_excpt_name_13
00011c2f l       .data	00000000 trap_excpt_name_14
00011c3e l       .data	00000000 trap_excpt_name_15
00011c54 l       .data	00000000 trap_excpt_name_16
00011c61 l       .data	00000000 trap_excpt_name_17
00011c70 l       .data	00000000 trap_excpt_name_18
00011c80 l       .data	00000000 trap_excpt_name_19
00011c90 l       .data	00000000 trap_excpt_name_20
00011cae l       .data	00000000 trap_excpt_name_21
00011cc5 l       .data	00000000 trap_excpt_name_22
00011cda l       .data	00000000 trap_excpt_name_23
00011cf6 l       .data	00000000 trap_int_name_0
00011d0e l       .data	00000000 trap_int_name_1
00011d2d l       .data	00000000 trap_int_name_2
00011d54 l       .data	00000000 trap_int_name_3
00011d70 l       .data	00000000 trap_int_name_4
00011d88 l       .data	00000000 trap_int_name_5
00011da4 l       .data	00000000 trap_int_name_6
00011dc8 l       .data	00000000 trap_int_name_7
00011de1 l       .data	00000000 trap_int_name_8
00011df9 l       .data	00000000 trap_int_name_9
00011e18 l       .data	00000000 trap_int_name_10
00011e3f l       .data	00000000 trap_int_name_11
00011e5b l       .data	00000000 trap_int_name_12
00011e80 l       .data	00000000 trap_int_name_13
00011e9c l       .data	00000000 trap_int_name_14
00011eb5 l       .data	00000000 trap_int_name_15
00011f6f l       .data	00000000 abortstr
00012016 l       .data	00000000 xepcstr
00012701 l       .data	00000000 Mclr_Vext_int_str
0001275b l       .data	00000000 Sclr_Mext_int_str
000127fc l       .data	00000000 Sclr_Vext_int_str
00012856 l       .data	00000000 Hclr_Mext_int_str
000128f9 l       .data	00000000 Hclr_Vext_int_str
00012954 l       .data	00000000 Vclr_Mext_int_str
000129a4 l       .data	00000000 Vclr_Sext_int_str
000129f7 l       .data	00000000 Vclr_Vext_int_str
0001304f l       .data	00000000 trap_diag_curr_xepc_str
00013bd8 l       .data	00000000 trap_sigptr
00022640 g       .data	00000000 end_signature
00022640 g       .data	00000000 rvtest_sig_end
00000000 g       .text.init	00000000 rvtest_entry_point
00013540 g       .data	00000000 begin_signature
0000a02c g       .text.rvtest	00000000 rvtest_code_end
00001000 g       .text.rvtest	00000000 rvtest_code_begin
00013540 g       .data	00000000 rvtest_sig_begin
0000c110 g       .data	00000000 rvtest_data_begin
0001353e g       .data	00000000 rvtest_data_end
0000a02c g       .text.rvtest	00000000 cleanup_epilogs
00024000 g       .text.rvmodel	00000000 _end



Disassembly of section .text.init:

00000000 <rvtest_entry_point>:

// Include framework macros
#include "riscv_arch_test.h"

// Set up test environment and declare main entry point
RVTEST_BEGIN
   0:	00023097          	auipc	x1,0x23
   4:	00008093          	addi	x1,x1,0 # 23000 <rvmodel_boot>
   8:	00000013          	addi	x0,x0,0
   c:	00000013          	addi	x0,x0,0
  10:	00000013          	addi	x0,x0,0
  14:	00000013          	addi	x0,x0,0
  18:	00000013          	addi	x0,x0,0
  1c:	00000013          	addi	x0,x0,0
  20:	000080e7          	jalr	x1,0(x1)
  24:	00000013          	addi	x0,x0,0
  28:	00000013          	addi	x0,x0,0
  2c:	00000013          	addi	x0,x0,0
  30:	00000013          	addi	x0,x0,0
  34:	00000013          	addi	x0,x0,0
  38:	00000013          	addi	x0,x0,0
  3c:	00000013          	addi	x0,x0,0

Disassembly of section .text.rvtest:

00001000 <rvtest_code_begin>:
/////////////////////////////////
// cp_rs1
/////////////////////////////////

# Testcase cp_rs1 (Test source rs1 = x0)
  RVTEST_TESTDATA_LOAD_INT(x3, x0) # load rs1: x0 = 0xa579d099
    1000:	0001a003          	lw	x0,0(x3)
    1004:	00418193          	addi	x3,x3,4
  RVTEST_TESTDATA_LOAD_INT(x3, x15) # load rs2: x15 = 0x0b4a5bf3
    1008:	0001a783          	lw	x15,0(x3)
    100c:	00418193          	addi	x3,x3,4
  RVTEST_TESTDATA_LOAD_INT(x3, x1) # load branch taken value: x1 = 0x936c7387
    1010:	0001a083          	lw	x1,0(x3)
    1014:	00418193          	addi	x3,x3,4

00001018 <I_bge_cg_cp_rs1_b0>:
I_bge_cg_cp_rs1_b0:
  bge x0, x15, 1f # perform operation
    1018:	00f05463          	bge	x0,x15,1020 <I_bge_cg_cp_rs1_b0+0x8>
  LI(x1, -1) # branch not taken, set temp_reg to 0
    101c:	fff00093          	addi	x1,x0,-1
1:
  # Check if x1 contains the expected result. x2 is the signature ptr, x5 is the link ptr, x4 is a temp reg.
  RVTEST_SIGUPD(x2, x5, x4, x1, I_bge_cg_cp_rs1_b0, I_bge_cg_cp_rs1_b0_str)
    1020:	00012203          	lw	x4,0(x2)
    1024:	00120863          	beq	x4,x1,1034 <I_bge_cg_cp_rs1_b0+0x1c>
    1028:	054092ef          	jal	x5,a07c <failedtest_x5_x4>
    102c:	00001018          	.word	0x00001018
    1030:	0000cb38          	.word	0x0000cb38
    1034:	00410113          	addi	x2,x2,4

# Testcase cp_rs1 (Test source rs1 = x1)
  RVTEST_TESTDATA_LOAD_INT(x3, x1) # load rs1: x1 = 0x40762d46
    1038:	0001a083          	lw	x1,0(x3)
    103c:	00418193          	addi	x3,x3,4
  RVTEST_TESTDATA_LOAD_INT(x3, x19) # load rs2: x19 = 0x72165370
    1040:	0001a983          	lw	x19,0(x3)
    1044:	00418193          	addi	x3,x3,4
  RVTEST_TESTDATA_LOAD_INT(x3, x8) # load branch taken value: x8 = 0xf425c0c3
    1048:	0001a403          	lw	x8,0(x3)
    104c:	00418193          	addi	x3,x3,4

00001050 <I_bge_cg_cp_rs1_b1>:
I_bge_cg_cp_rs1_b1:
  bge x1, x19, 1f # perform operation
    1050:	0130d463          	bge	x1,x19,1058 <I_bge_cg_cp_rs1_b1+0x8>
  LI(x8, -1) # branch not taken, set temp_reg to 0
    1054:	fff00413          	addi	x8,x0,-1
1:
  # Check if x8 contains the expected result. x2 is the signature ptr, x5 is the link ptr, x4 is a temp reg.
  RVTEST_SIGUPD(x2, x5, x4, x8, I_bge_cg_cp_rs1_b1, I_bge_cg_cp_rs1_b1_str)
    1058:	00012203          	lw	x4,0(x2)
    105c:	00820863          	beq	x4,x8,106c <I_bge_cg_cp_rs1_b1+0x1c>
    1060:	01c092ef          	jal	x5,a07c <failedtest_x5_x4>
    1064:	00001050          	.word	0x00001050
    1068:	0000cb65          	.word	0x0000cb65
    106c:	00410113          	addi	x2,x2,4

  mv x15, x2 # switch signature pointer register to avoid conflict with test
    1070:	00010793          	addi	x15,x2,0
# Testcase cp_rs1 (Test source rs1 = x2)
  RVTEST_TESTDATA_LOAD_INT(x3, x2) # load rs1: x2 = 0x4d6321bc
    1074:	0001a103          	lw	x2,0(x3)
    1078:	00418193          	addi	x3,x3,4
  RVTEST_TESTDATA_LOAD_INT(x3, x25) # load rs2: x25 = 0x59275bf0
    107c:	0001ac83          	lw	x25,0(x3)
    1080:	00418193          	addi	x3,x3,4
  RVTEST_TESTDATA_LOAD_INT(x3, x28) # load branch taken value: x28 = 0xf6cfc3bc
    1084:	0001ae03          	lw	x28,0(x3)
    1088:	00418193          	addi	x3,x3,4

0000108c <I_bge_cg_cp_rs1_b2>:
I_bge_cg_cp_rs1_b2:
  bge x2, x25, 1f # perform operation
    108c:	01915463          	bge	x2,x25,1094 <I_bge_cg_cp_rs1_b2+0x8>
  LI(x28, -1) # branch not taken, set temp_reg to 0
    1090:	fff00e13          	addi	x28,x0,-1
1:
  # Check if x28 contains the expected result. x15 is the signature ptr, x5 is the link ptr, x4 is a temp reg.
  RVTEST_SIGUPD(x15, x5, x4, x28, I_bge_cg_cp_rs1_b2, I_bge_cg_cp_rs1_b2_str)
    1094:	0007a203          	lw	x4,0(x15)
    1098:	01c20863          	beq	x4,x28,10a8 <I_bge_cg_cp_rs1_b2+0x1c>
    109c:	7e1082ef          	jal	x5,a07c <failedtest_x5_x4>
    10a0:	0000108c          	.word	0x0000108c
    10a4:	0000cb92          	.word	0x0000cb92
    10a8:	00478793          	addi	x15,x15,4

  mv x10, x3 # switch data pointer register to avoid conflict with test
    10ac:	00018513          	addi	x10,x3,0
# Testcase cp_rs1 (Test source rs1 = x3)
  RVTEST_TESTDATA_LOAD_INT(x10, x3) # load rs1: x3 = 0x9c84ff98
    10b0:	00052183          	lw	x3,0(x10)
    10b4:	00450513          	addi	x10,x10,4
  RVTEST_TESTDATA_LOAD_INT(x10, x9) # load rs2: x9 = 0xd1384eeb
    10b8:	00052483          	lw	x9,0(x10)
    10bc:	00450513          	addi	x10,x10,4
  RVTEST_TESTDATA_LOAD_INT(x10, x28) # load branch taken value: x28 = 0x6d5156be
    10c0:	00052e03          	lw	x28,0(x10)
    10c4:	00450513          	addi	x10,x10,4

000010c8 <I_bge_cg_cp_rs1_b3>:
I_bge_cg_cp_rs1_b3:
  bge x3, x9, 1f # perform operation
    10c8:	0091d463          	bge	x3,x9,10d0 <I_bge_cg_cp_rs1_b3+0x8>
  LI(x28, -1) # branch not taken, set temp_reg to 0
    10cc:	fff00e13          	addi	x28,x0,-1
1:
  # Check if x28 contains the expected result. x15 is the signature ptr, x5 is the link ptr, x4 is a temp reg.
  RVTEST_SIGUPD(x15, x5, x4, x28, I_bge_cg_cp_rs1_b3, I_bge_cg_cp_rs1_b3_str)
    10d0:	0007a203          	lw	x4,0(x15)
    10d4:	01c20863          	beq	x4,x28,10e4 <I_bge_cg_cp_rs1_b3+0x1c>
    10d8:	7a5082ef          	jal	x5,a07c <failedtest_x5_x4>
    10dc:	000010c8          	.word	0x000010c8
    10e0:	0000cbbf          	.word	0x0000cbbf
    10e4:	00478793          	addi	x15,x15,4

  mv x7, x4 # switch temp register to avoid conflict with test
    10e8:	00020393          	addi	x7,x4,0 # 0 <rvtest_entry_point>
  mv x8, x5 # switch link pointer register to avoid conflict with test
    10ec:	00028413          	addi	x8,x5,0
# Testcase cp_rs1 (Test source rs1 = x4)
  RVTEST_TESTDATA_LOAD_INT(x10, x4) # load rs1: x4 = 0x6a3df9ae
    10f0:	00052203          	lw	x4,0(x10)
    10f4:	00450513          	addi	x10,x10,4
  RVTEST_TESTDATA_LOAD_INT(x10, x3) # load rs2: x3 = 0xa2afd4ce
    10f8:	00052183          	lw	x3,0(x10)
    10fc:	00450513          	addi	x10,x10,4
  RVTEST_TESTDATA_LOAD_INT(x10, x20) # load branch taken value: x20 = 0xad1f56a1
    1100:	00052a03          	lw	x20,0(x10)
    1104:	00450513          	addi	x10,x10,4

00001108 <I_bge_cg_cp_rs1_b4>:
I_bge_cg_cp_rs1_b4:
  bge x4, x3, 1f # perform operation
    1108:	00325463          	bge	x4,x3,1110 <I_bge_cg_cp_rs1_b4+0x8>
  LI(x20, -1) # branch not taken, set temp_reg to 0
    110c:	fff00a13          	addi	x20,x0,-1
1:
  # Check if x20 contains the expected result. x15 is the signature ptr, x8 is the link ptr, x7 is a temp reg.
  RVTEST_SIGUPD(x15, x8, x7, x20, I_bge_cg_cp_rs1_b4, I_bge_cg_cp_rs1_b4_str)
    1110:	0007a383          	lw	x7,0(x15)
    1114:	01438863          	beq	x7,x20,1124 <I_bge_cg_cp_rs1_b4+0x1c>
    1118:	77d0846f          	jal	x8,a094 <failedtest_x8_x7>
    111c:	00001108          	.word	0x00001108
    1120:	0000cbec          	.word	0x0000cbec
    1124:	00478793          	addi	x15,x15,4

# Testcase cp_rs1 (Test source rs1 = x5)
  RVTEST_TESTDATA_LOAD_INT(x10, x5) # load rs1: x5 = 0xeca59bc7
    1128:	00052283          	lw	x5,0(x10)
    112c:	00450513          	addi	x10,x10,4
  RVTEST_TESTDATA_LOAD_INT(x10, x6) # load rs2: x6 = 0xd605e4b1
    1130:	00052303          	lw	x6,0(x10)
    1134:	00450513          	addi	x10,x10,4
  RVTEST_TESTDATA_LOAD_INT(x10, x26) # load branch taken value: x26 = 0xa6768108
    1138:	00052d03          	lw	x26,0(x10)
    113c:	00450513          	addi	x10,x10,4

00001140 <I_bge_cg_cp_rs1_b5>:
I_bge_cg_cp_rs1_b5:
  bge x5, x6, 1f # perform operation
    1140:	0062d463          	bge	x5,x6,1148 <I_bge_cg_cp_rs1_b5+0x8>
  LI(x26, -1) # branch not taken, set temp_reg to 0
    1144:	fff00d13          	addi	x26,x0,-1
1:
  # Check if x26 contains the expected result. x15 is the signature ptr, x8 is the link ptr, x7 is a temp reg.
  RVTEST_SIGUPD(x15, x8, x7, x26, I_bge_cg_cp_rs1_b5, I_bge_cg_cp_rs1_b5_str)
    1148:	0007a383          	lw	x7,0(x15)
    114c:	01a38863          	beq	x7,x26,115c <I_bge_cg_cp_rs1_b5+0x1c>
    1150:	7450846f          	jal	x8,a094 <failedtest_x8_x7>
    1154:	00001140          	.word	0x00001140
    1158:	0000cc19          	.word	0x0000cc19
    115c:	00478793          	addi	x15,x15,4

# Testcase cp_rs1 (Test source rs1 = x6)
  RVTEST_TESTDATA_LOAD_INT(x10, x6) # load rs1: x6 = 0x8ceb7dcc
    1160:	00052303          	lw	x6,0(x10)
    1164:	00450513          	addi	x10,x10,4
  RVTEST_TESTDATA_LOAD_INT(x10, x26) # load rs2: x26 = 0x894ae2a1
    1168:	00052d03          	lw	x26,0(x10)
    116c:	00450513          	addi	x10,x10,4
  RVTEST_TESTDATA_LOAD_INT(x10, x3) # load branch taken value: x3 = 0x5faaf7c6
    1170:	00052183          	lw	x3,0(x10)
    1174:	00450513          	addi	x10,x10,4

00001178 <I_bge_cg_cp_rs1_b6>:
I_bge_cg_cp_rs1_b6:
  bge x6, x26, 1f # perform operation
    1178:	01a35463          	bge	x6,x26,1180 <I_bge_cg_cp_rs1_b6+0x8>
  LI(x3, -1) # branch not taken, set temp_reg to 0
    117c:	fff00193          	addi	x3,x0,-1
1:
  # Check if x3 contains the expected result. x15 is the signature ptr, x8 is the link ptr, x7 is a temp reg.
  RVTEST_SIGUPD(x15, x8, x7, x3, I_bge_cg_cp_rs1_b6, I_bge_cg_cp_rs1_b6_str)
    1180:	0007a383          	lw	x7,0(x15)
    1184:	00338863          	beq	x7,x3,1194 <I_bge_cg_cp_rs1_b6+0x1c>
    1188:	70d0846f          	jal	x8,a094 <failedtest_x8_x7>
    118c:	00001178          	.word	0x00001178
    1190:	0000cc46          	.word	0x0000cc46
    1194:	00478793          	addi	x15,x15,4

  mv x4, x7 # switch temp register to avoid conflict with test
    1198:	00038213          	addi	x4,x7,0
  mv x5, x8 # switch link pointer register to avoid conflict with test
    119c:	00040293          	addi	x5,x8,0
# Testcase cp_rs1 (Test source rs1 = x7)
  RVTEST_TESTDATA_LOAD_INT(x10, x7) # load rs1: x7 = 0x020128c8
    11a0:	00052383          	lw	x7,0(x10)
    11a4:	00450513          	addi	x10,x10,4
  RVTEST_TESTDATA_LOAD_INT(x10, x19) # load rs2: x19 = 0xa79fb7de
    11a8:	00052983          	lw	x19,0(x10)
    11ac:	00450513          	addi	x10,x10,4
  RVTEST_TESTDATA_LOAD_INT(x10, x29) # load branch taken value: x29 = 0x025e853d
    11b0:	00052e83          	lw	x29,0(x10)
    11b4:	00450513          	addi	x10,x10,4

000011b8 <I_bge_cg_cp_rs1_b7>:
I_bge_cg_cp_rs1_b7:
  bge x7, x19, 1f # perform operation
    11b8:	0133d463          	bge	x7,x19,11c0 <I_bge_cg_cp_rs1_b7+0x8>
  LI(x29, -1) # branch not taken, set temp_reg to 0
    11bc:	fff00e93          	addi	x29,x0,-1
1:
  # Check if x29 contains the expected result. x15 is the signature ptr, x5 is the link ptr, x4 is a temp reg.
  RVTEST_SIGUPD(x15, x5, x4, x29, I_bge_cg_cp_rs1_b7, I_bge_cg_cp_rs1_b7_str)
    11c0:	0007a203          	lw	x4,0(x15)
    11c4:	01d20863          	beq	x4,x29,11d4 <I_bge_cg_cp_rs1_b7+0x1c>
    11c8:	6b5082ef          	jal	x5,a07c <failedtest_x5_x4>
    11cc:	000011b8          	.word	0x000011b8
    11d0:	0000cc73          	.word	0x0000cc73
    11d4:	00478793          	addi	x15,x15,4

# Testcase cp_rs1 (Test source rs1 = x8)
  RVTEST_TESTDATA_LOAD_INT(x10, x8) # load rs1: x8 = 0xaadc0c76
    11d8:	00052403          	lw	x8,0(x10)
    11dc:	00450513          	addi	x10,x10,4
  RVTEST_TESTDATA_LOAD_INT(x10, x3) # load rs2: x3 = 0xfd822c47
    11e0:	00052183          	lw	x3,0(x10)
    11e4:	00450513          	addi	x10,x10,4
  RVTEST_TESTDATA_LOAD_INT(x10, x9) # load branch taken value: x9 = 0xf45e385a
    11e8:	00052483          	lw	x9,0(x10)
    11ec:	00450513          	addi	x10,x10,4

000011f0 <I_bge_cg_cp_rs1_b8>:
I_bge_cg_cp_rs1_b8:
  bge x8, x3, 1f # perform operation
    11f0:	00345463          	bge	x8,x3,11f8 <I_bge_cg_cp_rs1_b8+0x8>
  LI(x9, -1) # branch not taken, set temp_reg to 0
    11f4:	fff00493          	addi	x9,x0,-1
1:
  # Check if x9 contains the expected result. x15 is the signature ptr, x5 is the link ptr, x4 is a temp reg.
  RVTEST_SIGUPD(x15, x5, x4, x9, I_bge_cg_cp_rs1_b8, I_bge_cg_cp_rs1_b8_str)
    11f8:	0007a203          	lw	x4,0(x15)
    11fc:	00920863          	beq	x4,x9,120c <I_bge_cg_cp_rs1_b8+0x1c>
    1200:	67d082ef          	jal	x5,a07c <failedtest_x5_x4>
    1204:	000011f0          	.word	0x000011f0
    1208:	0000cca0          	.word	0x0000cca0
    120c:	00478793          	addi	x15,x15,4

# Testcase cp_rs1 (Test source rs1 = x9)
  RVTEST_TESTDATA_LOAD_INT(x10, x9) # load rs1: x9 = 0x0c746b9b
    1210:	00052483          	lw	x9,0(x10)
    1214:	00450513          	addi	x10,x10,4
  RVTEST_TESTDATA_LOAD_INT(x10, x22) # load rs2: x22 = 0x4e8a0fcd
    1218:	00052b03          	lw	x22,0(x10)
    121c:	00450513          	addi	x10,x10,4
  RVTEST_TESTDATA_LOAD_INT(x10, x24) # load branch taken value: x24 = 0x2b7b7d45
    1220:	00052c03          	lw	x24,0(x10)
    1224:	00450513          	addi	x10,x10,4

00001228 <I_bge_cg_cp_rs1_b9>:
I_bge_cg_cp_rs1_b9:
  bge x9, x22, 1f # perform operation
    1228:	0164d463          	bge	x9,x22,1230 <I_bge_cg_cp_rs1_b9+0x8>
  LI(x24, -1) # branch not taken, set temp_reg to 0
    122c:	fff00c13          	addi	x24,x0,-1
1:
  # Check if x24 contains the expected result. x15 is the signature ptr, x5 is the link ptr, x4 is a temp reg.
  RVTEST_SIGUPD(x15, x5, x4, x24, I_bge_cg_cp_rs1_b9, I_bge_cg_cp_rs1_b9_str)
    1230:	0007a203          	lw	x4,0(x15)
    1234:	01820863          	beq	x4,x24,1244 <I_bge_cg_cp_rs1_b9+0x1c>
    1238:	645082ef          	jal	x5,a07c <failedtest_x5_x4>
    123c:	00001228          	.word	0x00001228
    1240:	0000cccd          	.word	0x0000cccd
    1244:	00478793          	addi	x15,x15,4

  mv x19, x10 # switch data pointer register to avoid conflict with test
    1248:	00050993          	addi	x19,x10,0
# Testcase cp_rs1 (Test source rs1 = x10)
  RVTEST_TESTDATA_LOAD_INT(x19, x10) # load rs1: x10 = 0x7e18838f
    124c:	0009a503          	lw	x10,0(x19)
    1250:	00498993          	addi	x19,x19,4
  RVTEST_TESTDATA_LOAD_INT(x19, x29) # load rs2: x29 = 0xada0cda6
    1254:	0009ae83          	lw	x29,0(x19)
    1258:	00498993          	addi	x19,x19,4
  RVTEST_TESTDATA_LOAD_INT(x19, x31) # load branch taken value: x31 = 0x9dadc193
    125c:	0009af83          	lw	x31,0(x19)
    1260:	00498993          	addi	x19,x19,4

00001264 <I_bge_cg_cp_rs1_b10>:
I_bge_cg_cp_rs1_b10:
  bge x10, x29, 1f # perform operation
    1264:	01d55463          	bge	x10,x29,126c <I_bge_cg_cp_rs1_b10+0x8>
  LI(x31, -1) # branch not taken, set temp_reg to 0
    1268:	fff00f93          	addi	x31,x0,-1
1:
  # Check if x31 contains the expected result. x15 is the signature ptr, x5 is the link ptr, x4 is a temp reg.
  RVTEST_SIGUPD(x15, x5, x4, x31, I_bge_cg_cp_rs1_b10, I_bge_cg_cp_rs1_b10_str)
    126c:	0007a203          	lw	x4,0(x15)
    1270:	01f20863          	beq	x4,x31,1280 <I_bge_cg_cp_rs1_b10+0x1c>
    1274:	609082ef          	jal	x5,a07c <failedtest_x5_x4>
    1278:	00001264          	.word	0x00001264
    127c:	0000ccfb          	.word	0x0000ccfb
    1280:	00478793          	addi	x15,x15,4

# Testcase cp_rs1 (Test source rs1 = x11)
  RVTEST_TESTDATA_LOAD_INT(x19, x11) # load rs1: x11 = 0x221e8bcf
    1284:	0009a583          	lw	x11,0(x19)
    1288:	00498993          	addi	x19,x19,4
  RVTEST_TESTDATA_LOAD_INT(x19, x22) # load rs2: x22 = 0xa9efe089
    128c:	0009ab03          	lw	x22,0(x19)
    1290:	00498993          	addi	x19,x19,4
  RVTEST_TESTDATA_LOAD_INT(x19, x12) # load branch taken value: x12 = 0xa060e396
    1294:	0009a603          	lw	x12,0(x19)
    1298:	00498993          	addi	x19,x19,4

0000129c <I_bge_cg_cp_rs1_b11>:
I_bge_cg_cp_rs1_b11:
  bge x11, x22, 1f # perform operation
    129c:	0165d463          	bge	x11,x22,12a4 <I_bge_cg_cp_rs1_b11+0x8>
  LI(x12, -1) # branch not taken, set temp_reg to 0
    12a0:	fff00613          	addi	x12,x0,-1
1:
  # Check if x12 contains the expected result. x15 is the signature ptr, x5 is the link ptr, x4 is a temp reg.
  RVTEST_SIGUPD(x15, x5, x4, x12, I_bge_cg_cp_rs1_b11, I_bge_cg_cp_rs1_b11_str)
    12a4:	0007a203          	lw	x4,0(x15)
    12a8:	00c20863          	beq	x4,x12,12b8 <I_bge_cg_cp_rs1_b11+0x1c>
    12ac:	5d1082ef          	jal	x5,a07c <failedtest_x5_x4>
    12b0:	0000129c          	.word	0x0000129c
    12b4:	0000cd2a          	.word	0x0000cd2a
    12b8:	00478793          	addi	x15,x15,4

# Testcase cp_rs1 (Test source rs1 = x12)
  RVTEST_TESTDATA_LOAD_INT(x19, x12) # load rs1: x12 = 0x42d55a0f
    12bc:	0009a603          	lw	x12,0(x19)
    12c0:	00498993          	addi	x19,x19,4
  RVTEST_TESTDATA_LOAD_INT(x19, x23) # load rs2: x23 = 0x39a9b32f
    12c4:	0009ab83          	lw	x23,0(x19)
    12c8:	00498993          	addi	x19,x19,4
  RVTEST_TESTDATA_LOAD_INT(x19, x8) # load branch taken value: x8 = 0x8e868663
    12cc:	0009a403          	lw	x8,0(x19)
    12d0:	00498993          	addi	x19,x19,4

000012d4 <I_bge_cg_cp_rs1_b12>:
I_bge_cg_cp_rs1_b12:
  bge x12, x23, 1f # perform operation
    12d4:	01765463          	bge	x12,x23,12dc <I_bge_cg_cp_rs1_b12+0x8>
  LI(x8, -1) # branch not taken, set temp_reg to 0
    12d8:	fff00413          	addi	x8,x0,-1
1:
  # Check if x8 contains the expected result. x15 is the signature ptr, x5 is the link ptr, x4 is a temp reg.
  RVTEST_SIGUPD(x15, x5, x4, x8, I_bge_cg_cp_rs1_b12, I_bge_cg_cp_rs1_b12_str)
    12dc:	0007a203          	lw	x4,0(x15)
    12e0:	00820863          	beq	x4,x8,12f0 <I_bge_cg_cp_rs1_b12+0x1c>
    12e4:	599082ef          	jal	x5,a07c <failedtest_x5_x4>
    12e8:	000012d4          	.word	0x000012d4
    12ec:	0000cd59          	.word	0x0000cd59
    12f0:	00478793          	addi	x15,x15,4

# Testcase cp_rs1 (Test source rs1 = x13)
  RVTEST_TESTDATA_LOAD_INT(x19, x13) # load rs1: x13 = 0x0ed7c3c4
    12f4:	0009a683          	lw	x13,0(x19)
    12f8:	00498993          	addi	x19,x19,4
  RVTEST_TESTDATA_LOAD_INT(x19, x30) # load rs2: x30 = 0x95608417
    12fc:	0009af03          	lw	x30,0(x19)
    1300:	00498993          	addi	x19,x19,4
  RVTEST_TESTDATA_LOAD_INT(x19, x9) # load branch taken value: x9 = 0x513716fe
    1304:	0009a483          	lw	x9,0(x19)
    1308:	00498993          	addi	x19,x19,4

0000130c <I_bge_cg_cp_rs1_b13>:
I_bge_cg_cp_rs1_b13:
  bge x13, x30, 1f # perform operation
    130c:	01e6d463          	bge	x13,x30,1314 <I_bge_cg_cp_rs1_b13+0x8>
  LI(x9, -1) # branch not taken, set temp_reg to 0
    1310:	fff00493          	addi	x9,x0,-1
1:
  # Check if x9 contains the expected result. x15 is the signature ptr, x5 is the link ptr, x4 is a temp reg.
  RVTEST_SIGUPD(x15, x5, x4, x9, I_bge_cg_cp_rs1_b13, I_bge_cg_cp_rs1_b13_str)
    1314:	0007a203          	lw	x4,0(x15)
    1318:	00920863          	beq	x4,x9,1328 <I_bge_cg_cp_rs1_b13+0x1c>
    131c:	561082ef          	jal	x5,a07c <failedtest_x5_x4>
    1320:	0000130c          	.word	0x0000130c
    1324:	0000cd88          	.word	0x0000cd88
    1328:	00478793          	addi	x15,x15,4

# Testcase cp_rs1 (Test source rs1 = x14)
  RVTEST_TESTDATA_LOAD_INT(x19, x14) # load rs1: x14 = 0xae078943
    132c:	0009a703          	lw	x14,0(x19)
    1330:	00498993          	addi	x19,x19,4
  RVTEST_TESTDATA_LOAD_INT(x19, x25) # load rs2: x25 = 0xcde5ba96
    1334:	0009ac83          	lw	x25,0(x19)
    1338:	00498993          	addi	x19,x19,4
  RVTEST_TESTDATA_LOAD_INT(x19, x18) # load branch taken value: x18 = 0x82e7c324
    133c:	0009a903          	lw	x18,0(x19)
    1340:	00498993          	addi	x19,x19,4

00001344 <I_bge_cg_cp_rs1_b14>:
I_bge_cg_cp_rs1_b14:
  bge x14, x25, 1f # perform operation
    1344:	01975463          	bge	x14,x25,134c <I_bge_cg_cp_rs1_b14+0x8>
  LI(x18, -1) # branch not taken, set temp_reg to 0
    1348:	fff00913          	addi	x18,x0,-1
1:
  # Check if x18 contains the expected result. x15 is the signature ptr, x5 is the link ptr, x4 is a temp reg.
  RVTEST_SIGUPD(x15, x5, x4, x18, I_bge_cg_cp_rs1_b14, I_bge_cg_cp_rs1_b14_str)
    134c:	0007a203          	lw	x4,0(x15)
    1350:	01220863          	beq	x4,x18,1360 <I_bge_cg_cp_rs1_b14+0x1c>
    1354:	529082ef          	jal	x5,a07c <failedtest_x5_x4>
    1358:	00001344          	.word	0x00001344
    135c:	0000cdb7          	.word	0x0000cdb7
    1360:	00478793          	addi	x15,x15,4

  mv x26, x15 # switch signature pointer register to avoid conflict with test
    1364:	00078d13          	addi	x26,x15,0
# Testcase cp_rs1 (Test source rs1 = x15)
  RVTEST_TESTDATA_LOAD_INT(x19, x15) # load rs1: x15 = 0xf368cfe5
    1368:	0009a783          	lw	x15,0(x19)
    136c:	00498993          	addi	x19,x19,4
  RVTEST_TESTDATA_LOAD_INT(x19, x3) # load rs2: x3 = 0x9347c6f4
    1370:	0009a183          	lw	x3,0(x19)
    1374:	00498993          	addi	x19,x19,4
  RVTEST_TESTDATA_LOAD_INT(x19, x23) # load branch taken value: x23 = 0x34a74212
    1378:	0009ab83          	lw	x23,0(x19)
    137c:	00498993          	addi	x19,x19,4

00001380 <I_bge_cg_cp_rs1_b15>:
I_bge_cg_cp_rs1_b15:
  bge x15, x3, 1f # perform operation
    1380:	0037d463          	bge	x15,x3,1388 <I_bge_cg_cp_rs1_b15+0x8>
  LI(x23, -1) # branch not taken, set temp_reg to 0
    1384:	fff00b93          	addi	x23,x0,-1
1:
  # Check if x23 contains the expected result. x26 is the signature ptr, x5 is the link ptr, x4 is a temp reg.
  RVTEST_SIGUPD(x26, x5, x4, x23, I_bge_cg_cp_rs1_b15, I_bge_cg_cp_rs1_b15_str)
    1388:	000d2203          	lw	x4,0(x26)
    138c:	01720863          	beq	x4,x23,139c <I_bge_cg_cp_rs1_b15+0x1c>
    1390:	4ed082ef          	jal	x5,a07c <failedtest_x5_x4>
    1394:	00001380          	.word	0x00001380
    1398:	0000cde6          	.word	0x0000cde6
    139c:	004d0d13          	addi	x26,x26,4

# Testcase cp_rs1 (Test source rs1 = x16)
  RVTEST_TESTDATA_LOAD_INT(x19, x16) # load rs1: x16 = 0x5c2041f5
    13a0:	0009a803          	lw	x16,0(x19)
    13a4:	00498993          	addi	x19,x19,4
  RVTEST_TESTDATA_LOAD_INT(x19, x12) # load rs2: x12 = 0x1de45c70
    13a8:	0009a603          	lw	x12,0(x19)
    13ac:	00498993          	addi	x19,x19,4
  RVTEST_TESTDATA_LOAD_INT(x19, x27) # load branch taken value: x27 = 0xae9df91d
    13b0:	0009ad83          	lw	x27,0(x19)
    13b4:	00498993          	addi	x19,x19,4

000013b8 <I_bge_cg_cp_rs1_b16>:
I_bge_cg_cp_rs1_b16:
  bge x16, x12, 1f # perform operation
    13b8:	00c85463          	bge	x16,x12,13c0 <I_bge_cg_cp_rs1_b16+0x8>
  LI(x27, -1) # branch not taken, set temp_reg to 0
    13bc:	fff00d93          	addi	x27,x0,-1
1:
  # Check if x27 contains the expected result. x26 is the signature ptr, x5 is the link ptr, x4 is a temp reg.
  RVTEST_SIGUPD(x26, x5, x4, x27, I_bge_cg_cp_rs1_b16, I_bge_cg_cp_rs1_b16_str)
    13c0:	000d2203          	lw	x4,0(x26)
    13c4:	01b20863          	beq	x4,x27,13d4 <I_bge_cg_cp_rs1_b16+0x1c>
    13c8:	4b5082ef          	jal	x5,a07c <failedtest_x5_x4>
    13cc:	000013b8          	.word	0x000013b8
    13d0:	0000ce15          	.word	0x0000ce15
    13d4:	004d0d13          	addi	x26,x26,4

# Testcase cp_rs1 (Test source rs1 = x17)
  RVTEST_TESTDATA_LOAD_INT(x19, x17) # load rs1: x17 = 0x320f318c
    13d8:	0009a883          	lw	x17,0(x19)
    13dc:	00498993          	addi	x19,x19,4
  RVTEST_TESTDATA_LOAD_INT(x19, x12) # load rs2: x12 = 0x1961684c
    13e0:	0009a603          	lw	x12,0(x19)
    13e4:	00498993          	addi	x19,x19,4
  RVTEST_TESTDATA_LOAD_INT(x19, x16) # load branch taken value: x16 = 0xe92199ff
    13e8:	0009a803          	lw	x16,0(x19)
    13ec:	00498993          	addi	x19,x19,4

000013f0 <I_bge_cg_cp_rs1_b17>:
I_bge_cg_cp_rs1_b17:
  bge x17, x12, 1f # perform operation
    13f0:	00c8d463          	bge	x17,x12,13f8 <I_bge_cg_cp_rs1_b17+0x8>
  LI(x16, -1) # branch not taken, set temp_reg to 0
    13f4:	fff00813          	addi	x16,x0,-1
1:
  # Check if x16 contains the expected result. x26 is the signature ptr, x5 is the link ptr, x4 is a temp reg.
  RVTEST_SIGUPD(x26, x5, x4, x16, I_bge_cg_cp_rs1_b17, I_bge_cg_cp_rs1_b17_str)
    13f8:	000d2203          	lw	x4,0(x26)
    13fc:	01020863          	beq	x4,x16,140c <I_bge_cg_cp_rs1_b17+0x1c>
    1400:	47d082ef          	jal	x5,a07c <failedtest_x5_x4>
    1404:	000013f0          	.word	0x000013f0
    1408:	0000ce44          	.word	0x0000ce44
    140c:	004d0d13          	addi	x26,x26,4

# Testcase cp_rs1 (Test source rs1 = x18)
  RVTEST_TESTDATA_LOAD_INT(x19, x18) # load rs1: x18 = 0x74fab850
    1410:	0009a903          	lw	x18,0(x19)
    1414:	00498993          	addi	x19,x19,4
  RVTEST_TESTDATA_LOAD_INT(x19, x9) # load rs2: x9 = 0xcce8ccf9
    1418:	0009a483          	lw	x9,0(x19)
    141c:	00498993          	addi	x19,x19,4
  RVTEST_TESTDATA_LOAD_INT(x19, x16) # load branch taken value: x16 = 0x34ae8a9e
    1420:	0009a803          	lw	x16,0(x19)
    1424:	00498993          	addi	x19,x19,4

00001428 <I_bge_cg_cp_rs1_b18>:
I_bge_cg_cp_rs1_b18:
  bge x18, x9, 1f # perform operation
    1428:	00995463          	bge	x18,x9,1430 <I_bge_cg_cp_rs1_b18+0x8>
  LI(x16, -1) # branch not taken, set temp_reg to 0
    142c:	fff00813          	addi	x16,x0,-1
1:
  # Check if x16 contains the expected result. x26 is the signature ptr, x5 is the link ptr, x4 is a temp reg.
  RVTEST_SIGUPD(x26, x5, x4, x16, I_bge_cg_cp_rs1_b18, I_bge_cg_cp_rs1_b18_str)
    1430:	000d2203          	lw	x4,0(x26)
    1434:	01020863          	beq	x4,x16,1444 <I_bge_cg_cp_rs1_b18+0x1c>
    1438:	445082ef          	jal	x5,a07c <failedtest_x5_x4>
    143c:	00001428          	.word	0x00001428
    1440:	0000ce73          	.word	0x0000ce73
    1444:	004d0d13          	addi	x26,x26,4

  mv x23, x19 # switch data pointer register to avoid conflict with test
    1448:	00098b93          	addi	x23,x19,0
# Testcase cp_rs1 (Test source rs1 = x19)
  RVTEST_TESTDATA_LOAD_INT(x23, x19) # load rs1: x19 = 0xe3f333e5
    144c:	000ba983          	lw	x19,0(x23)
    1450:	004b8b93          	addi	x23,x23,4
  RVTEST_TESTDATA_LOAD_INT(x23, x8) # load rs2: x8 = 0x4859a4ab
    1454:	000ba403          	lw	x8,0(x23)
    1458:	004b8b93          	addi	x23,x23,4
  RVTEST_TESTDATA_LOAD_INT(x23, x16) # load branch taken value: x16 = 0x6dc8b63e
    145c:	000ba803          	lw	x16,0(x23)
    1460:	004b8b93          	addi	x23,x23,4

00001464 <I_bge_cg_cp_rs1_b19>:
I_bge_cg_cp_rs1_b19:
  bge x19, x8, 1f # perform operation
    1464:	0089d463          	bge	x19,x8,146c <I_bge_cg_cp_rs1_b19+0x8>
  LI(x16, -1) # branch not taken, set temp_reg to 0
    1468:	fff00813          	addi	x16,x0,-1
1:
  # Check if x16 contains the expected result. x26 is the signature ptr, x5 is the link ptr, x4 is a temp reg.
  RVTEST_SIGUPD(x26, x5, x4, x16, I_bge_cg_cp_rs1_b19, I_bge_cg_cp_rs1_b19_str)
    146c:	000d2203          	lw	x4,0(x26)
    1470:	01020863          	beq	x4,x16,1480 <I_bge_cg_cp_rs1_b19+0x1c>
    1474:	409082ef          	jal	x5,a07c <failedtest_x5_x4>
    1478:	00001464          	.word	0x00001464
    147c:	0000cea2          	.word	0x0000cea2
    1480:	004d0d13          	addi	x26,x26,4

# Testcase cp_rs1 (Test source rs1 = x20)
  RVTEST_TESTDATA_LOAD_INT(x23, x20) # load rs1: x20 = 0x04800403
    1484:	000baa03          	lw	x20,0(x23)
    1488:	004b8b93          	addi	x23,x23,4
  RVTEST_TESTDATA_LOAD_INT(x23, x8) # load rs2: x8 = 0x5dc2307a
    148c:	000ba403          	lw	x8,0(x23)
    1490:	004b8b93          	addi	x23,x23,4
  RVTEST_TESTDATA_LOAD_INT(x23, x13) # load branch taken value: x13 = 0x743049db
    1494:	000ba683          	lw	x13,0(x23)
    1498:	004b8b93          	addi	x23,x23,4

0000149c <I_bge_cg_cp_rs1_b20>:
I_bge_cg_cp_rs1_b20:
  bge x20, x8, 1f # perform operation
    149c:	008a5463          	bge	x20,x8,14a4 <I_bge_cg_cp_rs1_b20+0x8>
  LI(x13, -1) # branch not taken, set temp_reg to 0
    14a0:	fff00693          	addi	x13,x0,-1
1:
  # Check if x13 contains the expected result. x26 is the signature ptr, x5 is the link ptr, x4 is a temp reg.
  RVTEST_SIGUPD(x26, x5, x4, x13, I_bge_cg_cp_rs1_b20, I_bge_cg_cp_rs1_b20_str)
    14a4:	000d2203          	lw	x4,0(x26)
    14a8:	00d20863          	beq	x4,x13,14b8 <I_bge_cg_cp_rs1_b20+0x1c>
    14ac:	3d1082ef          	jal	x5,a07c <failedtest_x5_x4>
    14b0:	0000149c          	.word	0x0000149c
    14b4:	0000ced1          	.word	0x0000ced1
    14b8:	004d0d13          	addi	x26,x26,4

# Testcase cp_rs1 (Test source rs1 = x21)
  RVTEST_TESTDATA_LOAD_INT(x23, x21) # load rs1: x21 = 0x74c83d1c
    14bc:	000baa83          	lw	x21,0(x23)
    14c0:	004b8b93          	addi	x23,x23,4
  RVTEST_TESTDATA_LOAD_INT(x23, x6) # load rs2: x6 = 0x517687af
    14c4:	000ba303          	lw	x6,0(x23)
    14c8:	004b8b93          	addi	x23,x23,4
  RVTEST_TESTDATA_LOAD_INT(x23, x20) # load branch taken value: x20 = 0xcfbf81ac
    14cc:	000baa03          	lw	x20,0(x23)
    14d0:	004b8b93          	addi	x23,x23,4

000014d4 <I_bge_cg_cp_rs1_b21>:
I_bge_cg_cp_rs1_b21:
  bge x21, x6, 1f # perform operation
    14d4:	006ad463          	bge	x21,x6,14dc <I_bge_cg_cp_rs1_b21+0x8>
  LI(x20, -1) # branch not taken, set temp_reg to 0
    14d8:	fff00a13          	addi	x20,x0,-1
1:
  # Check if x20 contains the expected result. x26 is the signature ptr, x5 is the link ptr, x4 is a temp reg.
  RVTEST_SIGUPD(x26, x5, x4, x20, I_bge_cg_cp_rs1_b21, I_bge_cg_cp_rs1_b21_str)
    14dc:	000d2203          	lw	x4,0(x26)
    14e0:	01420863          	beq	x4,x20,14f0 <I_bge_cg_cp_rs1_b21+0x1c>
    14e4:	399082ef          	jal	x5,a07c <failedtest_x5_x4>
    14e8:	000014d4          	.word	0x000014d4
    14ec:	0000cf00          	.word	0x0000cf00
    14f0:	004d0d13          	addi	x26,x26,4

# Testcase cp_rs1 (Test source rs1 = x22)
  RVTEST_TESTDATA_LOAD_INT(x23, x22) # load rs1: x22 = 0xc4ca759d
    14f4:	000bab03          	lw	x22,0(x23)
    14f8:	004b8b93          	addi	x23,x23,4
  RVTEST_TESTDATA_LOAD_INT(x23, x13) # load rs2: x13 = 0x77bb426a
    14fc:	000ba683          	lw	x13,0(x23)
    1500:	004b8b93          	addi	x23,x23,4
  RVTEST_TESTDATA_LOAD_INT(x23, x12) # load branch taken value: x12 = 0xf6e3493b
    1504:	000ba603          	lw	x12,0(x23)
    1508:	004b8b93          	addi	x23,x23,4

0000150c <I_bge_cg_cp_rs1_b22>:
I_bge_cg_cp_rs1_b22:
  bge x22, x13, 1f # perform operation
    150c:	00db5463          	bge	x22,x13,1514 <I_bge_cg_cp_rs1_b22+0x8>
  LI(x12, -1) # branch not taken, set temp_reg to 0
    1510:	fff00613          	addi	x12,x0,-1
1:
  # Check if x12 contains the expected result. x26 is the signature ptr, x5 is the link ptr, x4 is a temp reg.
  RVTEST_SIGUPD(x26, x5, x4, x12, I_bge_cg_cp_rs1_b22, I_bge_cg_cp_rs1_b22_str)
    1514:	000d2203          	lw	x4,0(x26)
    1518:	00c20863          	beq	x4,x12,1528 <I_bge_cg_cp_rs1_b22+0x1c>
    151c:	361082ef          	jal	x5,a07c <failedtest_x5_x4>
    1520:	0000150c          	.word	0x0000150c
    1524:	0000cf2f          	.word	0x0000cf2f
    1528:	004d0d13          	addi	x26,x26,4

  mv x1, x23 # switch data pointer register to avoid conflict with test
    152c:	000b8093          	addi	x1,x23,0
# Testcase cp_rs1 (Test source rs1 = x23)
  RVTEST_TESTDATA_LOAD_INT(x1, x23) # load rs1: x23 = 0xe160ab7b
    1530:	0000ab83          	lw	x23,0(x1)
    1534:	00408093          	addi	x1,x1,4
  RVTEST_TESTDATA_LOAD_INT(x1, x11) # load rs2: x11 = 0x9ac0be3e
    1538:	0000a583          	lw	x11,0(x1)
    153c:	00408093          	addi	x1,x1,4
  RVTEST_TESTDATA_LOAD_INT(x1, x24) # load branch taken value: x24 = 0x63858c0c
    1540:	0000ac03          	lw	x24,0(x1)
    1544:	00408093          	addi	x1,x1,4

00001548 <I_bge_cg_cp_rs1_b23>:
I_bge_cg_cp_rs1_b23:
  bge x23, x11, 1f # perform operation
    1548:	00bbd463          	bge	x23,x11,1550 <I_bge_cg_cp_rs1_b23+0x8>
  LI(x24, -1) # branch not taken, set temp_reg to 0
    154c:	fff00c13          	addi	x24,x0,-1
1:
  # Check if x24 contains the expected result. x26 is the signature ptr, x5 is the link ptr, x4 is a temp reg.
  RVTEST_SIGUPD(x26, x5, x4, x24, I_bge_cg_cp_rs1_b23, I_bge_cg_cp_rs1_b23_str)
    1550:	000d2203          	lw	x4,0(x26)
    1554:	01820863          	beq	x4,x24,1564 <I_bge_cg_cp_rs1_b23+0x1c>
    1558:	325082ef          	jal	x5,a07c <failedtest_x5_x4>
    155c:	00001548          	.word	0x00001548
    1560:	0000cf5e          	.word	0x0000cf5e
    1564:	004d0d13          	addi	x26,x26,4

# Testcase cp_rs1 (Test source rs1 = x24)
  RVTEST_TESTDATA_LOAD_INT(x1, x24) # load rs1: x24 = 0x6074a012
    1568:	0000ac03          	lw	x24,0(x1)
    156c:	00408093          	addi	x1,x1,4
  RVTEST_TESTDATA_LOAD_INT(x1, x17) # load rs2: x17 = 0x8c053692
    1570:	0000a883          	lw	x17,0(x1)
    1574:	00408093          	addi	x1,x1,4
  RVTEST_TESTDATA_LOAD_INT(x1, x25) # load branch taken value: x25 = 0xc2a9ddc4
    1578:	0000ac83          	lw	x25,0(x1)
    157c:	00408093          	addi	x1,x1,4

00001580 <I_bge_cg_cp_rs1_b24>:
I_bge_cg_cp_rs1_b24:
  bge x24, x17, 1f # perform operation
    1580:	011c5463          	bge	x24,x17,1588 <I_bge_cg_cp_rs1_b24+0x8>
  LI(x25, -1) # branch not taken, set temp_reg to 0
    1584:	fff00c93          	addi	x25,x0,-1
1:
  # Check if x25 contains the expected result. x26 is the signature ptr, x5 is the link ptr, x4 is a temp reg.
  RVTEST_SIGUPD(x26, x5, x4, x25, I_bge_cg_cp_rs1_b24, I_bge_cg_cp_rs1_b24_str)
    1588:	000d2203          	lw	x4,0(x26)
    158c:	01920863          	beq	x4,x25,159c <I_bge_cg_cp_rs1_b24+0x1c>
    1590:	2ed082ef          	jal	x5,a07c <failedtest_x5_x4>
    1594:	00001580          	.word	0x00001580
    1598:	0000cf8d          	.word	0x0000cf8d
    159c:	004d0d13          	addi	x26,x26,4

# Testcase cp_rs1 (Test source rs1 = x25)
  RVTEST_TESTDATA_LOAD_INT(x1, x25) # load rs1: x25 = 0xf539b405
    15a0:	0000ac83          	lw	x25,0(x1)
    15a4:	00408093          	addi	x1,x1,4
  RVTEST_TESTDATA_LOAD_INT(x1, x0) # load rs2: x0 = 0xa78241ad
    15a8:	0000a003          	lw	x0,0(x1)
    15ac:	00408093          	addi	x1,x1,4
  RVTEST_TESTDATA_LOAD_INT(x1, x31) # load branch taken value: x31 = 0x6524790d
    15b0:	0000af83          	lw	x31,0(x1)
    15b4:	00408093          	addi	x1,x1,4

000015b8 <I_bge_cg_cp_rs1_b25>:
I_bge_cg_cp_rs1_b25:
  bge x25, x0, 1f # perform operation
    15b8:	000cd463          	bge	x25,x0,15c0 <I_bge_cg_cp_rs1_b25+0x8>
  LI(x31, -1) # branch not taken, set temp_reg to 0
    15bc:	fff00f93          	addi	x31,x0,-1
1:
  # Check if x31 contains the expected result. x26 is the signature ptr, x5 is the link ptr, x4 is a temp reg.
  RVTEST_SIGUPD(x26, x5, x4, x31, I_bge_cg_cp_rs1_b25, I_bge_cg_cp_rs1_b25_str)
    15c0:	000d2203          	lw	x4,0(x26)
    15c4:	01f20863          	beq	x4,x31,15d4 <I_bge_cg_cp_rs1_b25+0x1c>
    15c8:	2b5082ef          	jal	x5,a07c <failedtest_x5_x4>
    15cc:	000015b8          	.word	0x000015b8
    15d0:	0000cfbc          	.word	0x0000cfbc
    15d4:	004d0d13          	addi	x26,x26,4

  mv x31, x26 # switch signature pointer register to avoid conflict with test
    15d8:	000d0f93          	addi	x31,x26,0
# Testcase cp_rs1 (Test source rs1 = x26)
  RVTEST_TESTDATA_LOAD_INT(x1, x26) # load rs1: x26 = 0x14580cd6
    15dc:	0000ad03          	lw	x26,0(x1)
    15e0:	00408093          	addi	x1,x1,4
  RVTEST_TESTDATA_LOAD_INT(x1, x19) # load rs2: x19 = 0xfe1edaae
    15e4:	0000a983          	lw	x19,0(x1)
    15e8:	00408093          	addi	x1,x1,4
  RVTEST_TESTDATA_LOAD_INT(x1, x25) # load branch taken value: x25 = 0x2ec44db5
    15ec:	0000ac83          	lw	x25,0(x1)
    15f0:	00408093          	addi	x1,x1,4

000015f4 <I_bge_cg_cp_rs1_b26>:
I_bge_cg_cp_rs1_b26:
  bge x26, x19, 1f # perform operation
    15f4:	013d5463          	bge	x26,x19,15fc <I_bge_cg_cp_rs1_b26+0x8>
  LI(x25, -1) # branch not taken, set temp_reg to 0
    15f8:	fff00c93          	addi	x25,x0,-1
1:
  # Check if x25 contains the expected result. x31 is the signature ptr, x5 is the link ptr, x4 is a temp reg.
  RVTEST_SIGUPD(x31, x5, x4, x25, I_bge_cg_cp_rs1_b26, I_bge_cg_cp_rs1_b26_str)
    15fc:	000fa203          	lw	x4,0(x31)
    1600:	01920863          	beq	x4,x25,1610 <I_bge_cg_cp_rs1_b26+0x1c>
    1604:	279082ef          	jal	x5,a07c <failedtest_x5_x4>
    1608:	000015f4          	.word	0x000015f4
    160c:	0000cfeb          	.word	0x0000cfeb
    1610:	004f8f93          	addi	x31,x31,4

# Testcase cp_rs1 (Test source rs1 = x27)
  RVTEST_TESTDATA_LOAD_INT(x1, x27) # load rs1: x27 = 0x8f152300
    1614:	0000ad83          	lw	x27,0(x1)
    1618:	00408093          	addi	x1,x1,4
  RVTEST_TESTDATA_LOAD_INT(x1, x23) # load rs2: x23 = 0xc297c736
    161c:	0000ab83          	lw	x23,0(x1)
    1620:	00408093          	addi	x1,x1,4
  RVTEST_TESTDATA_LOAD_INT(x1, x18) # load branch taken value: x18 = 0x5c4618cc
    1624:	0000a903          	lw	x18,0(x1)
    1628:	00408093          	addi	x1,x1,4

0000162c <I_bge_cg_cp_rs1_b27>:
I_bge_cg_cp_rs1_b27:
  bge x27, x23, 1f # perform operation
    162c:	017dd463          	bge	x27,x23,1634 <I_bge_cg_cp_rs1_b27+0x8>
  LI(x18, -1) # branch not taken, set temp_reg to 0
    1630:	fff00913          	addi	x18,x0,-1
1:
  # Check if x18 contains the expected result. x31 is the signature ptr, x5 is the link ptr, x4 is a temp reg.
  RVTEST_SIGUPD(x31, x5, x4, x18, I_bge_cg_cp_rs1_b27, I_bge_cg_cp_rs1_b27_str)
    1634:	000fa203          	lw	x4,0(x31)
    1638:	01220863          	beq	x4,x18,1648 <I_bge_cg_cp_rs1_b27+0x1c>
    163c:	241082ef          	jal	x5,a07c <failedtest_x5_x4>
    1640:	0000162c          	.word	0x0000162c
    1644:	0000d01a          	.word	0x0000d01a
    1648:	004f8f93          	addi	x31,x31,4

# Testcase cp_rs1 (Test source rs1 = x28)
  RVTEST_TESTDATA_LOAD_INT(x1, x28) # load rs1: x28 = 0x60b6ff9a
    164c:	0000ae03          	lw	x28,0(x1)
    1650:	00408093          	addi	x1,x1,4
  RVTEST_TESTDATA_LOAD_INT(x1, x9) # load rs2: x9 = 0x5bf9c9f5
    1654:	0000a483          	lw	x9,0(x1)
    1658:	00408093          	addi	x1,x1,4
  RVTEST_TESTDATA_LOAD_INT(x1, x14) # load branch taken value: x14 = 0x15aaeef8
    165c:	0000a703          	lw	x14,0(x1)
    1660:	00408093          	addi	x1,x1,4

00001664 <I_bge_cg_cp_rs1_b28>:
I_bge_cg_cp_rs1_b28:
  bge x28, x9, 1f # perform operation
    1664:	009e5463          	bge	x28,x9,166c <I_bge_cg_cp_rs1_b28+0x8>
  LI(x14, -1) # branch not taken, set temp_reg to 0
    1668:	fff00713          	addi	x14,x0,-1
1:
  # Check if x14 contains the expected result. x31 is the signature ptr, x5 is the link ptr, x4 is a temp reg.
  RVTEST_SIGUPD(x31, x5, x4, x14, I_bge_cg_cp_rs1_b28, I_bge_cg_cp_rs1_b28_str)
    166c:	000fa203          	lw	x4,0(x31)
    1670:	00e20863          	beq	x4,x14,1680 <I_bge_cg_cp_rs1_b28+0x1c>
    1674:	209082ef          	jal	x5,a07c <failedtest_x5_x4>
    1678:	00001664          	.word	0x00001664
    167c:	0000d049          	.word	0x0000d049
    1680:	004f8f93          	addi	x31,x31,4

# Testcase cp_rs1 (Test source rs1 = x29)
  RVTEST_TESTDATA_LOAD_INT(x1, x29) # load rs1: x29 = 0xd4811680
    1684:	0000ae83          	lw	x29,0(x1)
    1688:	00408093          	addi	x1,x1,4
  RVTEST_TESTDATA_LOAD_INT(x1, x24) # load rs2: x24 = 0x8b2b0fff
    168c:	0000ac03          	lw	x24,0(x1)
    1690:	00408093          	addi	x1,x1,4
  RVTEST_TESTDATA_LOAD_INT(x1, x28) # load branch taken value: x28 = 0x1b35d327
    1694:	0000ae03          	lw	x28,0(x1)
    1698:	00408093          	addi	x1,x1,4

0000169c <I_bge_cg_cp_rs1_b29>:
I_bge_cg_cp_rs1_b29:
  bge x29, x24, 1f # perform operation
    169c:	018ed463          	bge	x29,x24,16a4 <I_bge_cg_cp_rs1_b29+0x8>
  LI(x28, -1) # branch not taken, set temp_reg to 0
    16a0:	fff00e13          	addi	x28,x0,-1
1:
  # Check if x28 contains the expected result. x31 is the signature ptr, x5 is the link ptr, x4 is a temp reg.
  RVTEST_SIGUPD(x31, x5, x4, x28, I_bge_cg_cp_rs1_b29, I_bge_cg_cp_rs1_b29_str)
    16a4:	000fa203          	lw	x4,0(x31)
    16a8:	01c20863          	beq	x4,x28,16b8 <I_bge_cg_cp_rs1_b29+0x1c>
    16ac:	1d1082ef          	jal	x5,a07c <failedtest_x5_x4>
    16b0:	0000169c          	.word	0x0000169c
    16b4:	0000d078          	.word	0x0000d078
    16b8:	004f8f93          	addi	x31,x31,4

# Testcase cp_rs1 (Test source rs1 = x30)
  RVTEST_TESTDATA_LOAD_INT(x1, x30) # load rs1: x30 = 0xd730c8a7
    16bc:	0000af03          	lw	x30,0(x1)
    16c0:	00408093          	addi	x1,x1,4
  RVTEST_TESTDATA_LOAD_INT(x1, x2) # load rs2: x2 = 0x94bf32b2
    16c4:	0000a103          	lw	x2,0(x1)
    16c8:	00408093          	addi	x1,x1,4
  RVTEST_TESTDATA_LOAD_INT(x1, x22) # load branch taken value: x22 = 0xb2868a41
    16cc:	0000ab03          	lw	x22,0(x1)
    16d0:	00408093          	addi	x1,x1,4

000016d4 <I_bge_cg_cp_rs1_b30>:
I_bge_cg_cp_rs1_b30:
  bge x30, x2, 1f # perform operation
    16d4:	002f5463          	bge	x30,x2,16dc <I_bge_cg_cp_rs1_b30+0x8>
  LI(x22, -1) # branch not taken, set temp_reg to 0
    16d8:	fff00b13          	addi	x22,x0,-1
1:
  # Check if x22 contains the expected result. x31 is the signature ptr, x5 is the link ptr, x4 is a temp reg.
  RVTEST_SIGUPD(x31, x5, x4, x22, I_bge_cg_cp_rs1_b30, I_bge_cg_cp_rs1_b30_str)
    16dc:	000fa203          	lw	x4,0(x31)
    16e0:	01620863          	beq	x4,x22,16f0 <I_bge_cg_cp_rs1_b30+0x1c>
    16e4:	199082ef          	jal	x5,a07c <failedtest_x5_x4>
    16e8:	000016d4          	.word	0x000016d4
    16ec:	0000d0a7          	.word	0x0000d0a7
    16f0:	004f8f93          	addi	x31,x31,4

  mv x16, x31 # switch signature pointer register to avoid conflict with test
    16f4:	000f8813          	addi	x16,x31,0
# Testcase cp_rs1 (Test source rs1 = x31)
  RVTEST_TESTDATA_LOAD_INT(x1, x31) # load rs1: x31 = 0x9f468e18
    16f8:	0000af83          	lw	x31,0(x1)
    16fc:	00408093          	addi	x1,x1,4
  RVTEST_TESTDATA_LOAD_INT(x1, x21) # load rs2: x21 = 0x47d889bf
    1700:	0000aa83          	lw	x21,0(x1)
    1704:	00408093          	addi	x1,x1,4
  RVTEST_TESTDATA_LOAD_INT(x1, x14) # load branch taken value: x14 = 0xaa37ca12
    1708:	0000a703          	lw	x14,0(x1)
    170c:	00408093          	addi	x1,x1,4

00001710 <I_bge_cg_cp_rs1_b31>:
I_bge_cg_cp_rs1_b31:
  bge x31, x21, 1f # perform operation
    1710:	015fd463          	bge	x31,x21,1718 <I_bge_cg_cp_rs1_b31+0x8>
  LI(x14, -1) # branch not taken, set temp_reg to 0
    1714:	fff00713          	addi	x14,x0,-1
1:
  # Check if x14 contains the expected result. x16 is the signature ptr, x5 is the link ptr, x4 is a temp reg.
  RVTEST_SIGUPD(x16, x5, x4, x14, I_bge_cg_cp_rs1_b31, I_bge_cg_cp_rs1_b31_str)
    1718:	00082203          	lw	x4,0(x16)
    171c:	00e20863          	beq	x4,x14,172c <I_bge_cg_cp_rs1_b31+0x1c>
    1720:	15d082ef          	jal	x5,a07c <failedtest_x5_x4>
    1724:	00001710          	.word	0x00001710
    1728:	0000d0d6          	.word	0x0000d0d6
    172c:	00480813          	addi	x16,x16,4
/////////////////////////////////
// cp_rs2
/////////////////////////////////

# Testcase cp_rs2 (Test source rs2 = x0)
  RVTEST_TESTDATA_LOAD_INT(x1, x8) # load rs1: x8 = 0xe977b47c
    1730:	0000a403          	lw	x8,0(x1)
    1734:	00408093          	addi	x1,x1,4
  RVTEST_TESTDATA_LOAD_INT(x1, x0) # load rs2: x0 = 0x7c9a3a75
    1738:	0000a003          	lw	x0,0(x1)
    173c:	00408093          	addi	x1,x1,4
  RVTEST_TESTDATA_LOAD_INT(x1, x29) # load branch taken value: x29 = 0xc5330571
    1740:	0000ae83          	lw	x29,0(x1)
    1744:	00408093          	addi	x1,x1,4

00001748 <I_bge_cg_cp_rs2_b0>:
I_bge_cg_cp_rs2_b0:
  bge x8, x0, 1f # perform operation
    1748:	00045463          	bge	x8,x0,1750 <I_bge_cg_cp_rs2_b0+0x8>
  LI(x29, -1) # branch not taken, set temp_reg to 0
    174c:	fff00e93          	addi	x29,x0,-1
1:
  # Check if x29 contains the expected result. x16 is the signature ptr, x5 is the link ptr, x4 is a temp reg.
  RVTEST_SIGUPD(x16, x5, x4, x29, I_bge_cg_cp_rs2_b0, I_bge_cg_cp_rs2_b0_str)
    1750:	00082203          	lw	x4,0(x16)
    1754:	01d20863          	beq	x4,x29,1764 <I_bge_cg_cp_rs2_b0+0x1c>
    1758:	125082ef          	jal	x5,a07c <failedtest_x5_x4>
    175c:	00001748          	.word	0x00001748
    1760:	0000d105          	.word	0x0000d105
    1764:	00480813          	addi	x16,x16,4

  mv x26, x1 # switch data pointer register to avoid conflict with test
    1768:	00008d13          	addi	x26,x1,0
# Testcase cp_rs2 (Test source rs2 = x1)
  RVTEST_TESTDATA_LOAD_INT(x26, x28) # load rs1: x28 = 0x5e47b785
    176c:	000d2e03          	lw	x28,0(x26)
    1770:	004d0d13          	addi	x26,x26,4
  RVTEST_TESTDATA_LOAD_INT(x26, x1) # load rs2: x1 = 0x7c57a564
    1774:	000d2083          	lw	x1,0(x26)
    1778:	004d0d13          	addi	x26,x26,4
  RVTEST_TESTDATA_LOAD_INT(x26, x3) # load branch taken value: x3 = 0x00cf974e
    177c:	000d2183          	lw	x3,0(x26)
    1780:	004d0d13          	addi	x26,x26,4

00001784 <I_bge_cg_cp_rs2_b1>:
I_bge_cg_cp_rs2_b1:
  bge x28, x1, 1f # perform operation
    1784:	001e5463          	bge	x28,x1,178c <I_bge_cg_cp_rs2_b1+0x8>
  LI(x3, -1) # branch not taken, set temp_reg to 0
    1788:	fff00193          	addi	x3,x0,-1
1:
  # Check if x3 contains the expected result. x16 is the signature ptr, x5 is the link ptr, x4 is a temp reg.
  RVTEST_SIGUPD(x16, x5, x4, x3, I_bge_cg_cp_rs2_b1, I_bge_cg_cp_rs2_b1_str)
    178c:	00082203          	lw	x4,0(x16)
    1790:	00320863          	beq	x4,x3,17a0 <I_bge_cg_cp_rs2_b1+0x1c>
    1794:	0e9082ef          	jal	x5,a07c <failedtest_x5_x4>
    1798:	00001784          	.word	0x00001784
    179c:	0000d133          	.word	0x0000d133
    17a0:	00480813          	addi	x16,x16,4

# Testcase cp_rs2 (Test source rs2 = x2)
  RVTEST_TESTDATA_LOAD_INT(x26, x19) # load rs1: x19 = 0x9505e10c
    17a4:	000d2983          	lw	x19,0(x26)
    17a8:	004d0d13          	addi	x26,x26,4
  RVTEST_TESTDATA_LOAD_INT(x26, x2) # load rs2: x2 = 0xa5a85586
    17ac:	000d2103          	lw	x2,0(x26)
    17b0:	004d0d13          	addi	x26,x26,4
  RVTEST_TESTDATA_LOAD_INT(x26, x15) # load branch taken value: x15 = 0x633e977c
    17b4:	000d2783          	lw	x15,0(x26)
    17b8:	004d0d13          	addi	x26,x26,4

000017bc <I_bge_cg_cp_rs2_b2>:
I_bge_cg_cp_rs2_b2:
  bge x19, x2, 1f # perform operation
    17bc:	0029d463          	bge	x19,x2,17c4 <I_bge_cg_cp_rs2_b2+0x8>
  LI(x15, -1) # branch not taken, set temp_reg to 0
    17c0:	fff00793          	addi	x15,x0,-1
1:
  # Check if x15 contains the expected result. x16 is the signature ptr, x5 is the link ptr, x4 is a temp reg.
  RVTEST_SIGUPD(x16, x5, x4, x15, I_bge_cg_cp_rs2_b2, I_bge_cg_cp_rs2_b2_str)
    17c4:	00082203          	lw	x4,0(x16)
    17c8:	00f20863          	beq	x4,x15,17d8 <I_bge_cg_cp_rs2_b2+0x1c>
    17cc:	0b1082ef          	jal	x5,a07c <failedtest_x5_x4>
    17d0:	000017bc          	.word	0x000017bc
    17d4:	0000d161          	.word	0x0000d161
    17d8:	00480813          	addi	x16,x16,4

# Testcase cp_rs2 (Test source rs2 = x3)
  RVTEST_TESTDATA_LOAD_INT(x26, x11) # load rs1: x11 = 0x44b8c06a
    17dc:	000d2583          	lw	x11,0(x26)
    17e0:	004d0d13          	addi	x26,x26,4
  RVTEST_TESTDATA_LOAD_INT(x26, x3) # load rs2: x3 = 0xdcbb2087
    17e4:	000d2183          	lw	x3,0(x26)
    17e8:	004d0d13          	addi	x26,x26,4
  RVTEST_TESTDATA_LOAD_INT(x26, x20) # load branch taken value: x20 = 0x29874398
    17ec:	000d2a03          	lw	x20,0(x26)
    17f0:	004d0d13          	addi	x26,x26,4

000017f4 <I_bge_cg_cp_rs2_b3>:
I_bge_cg_cp_rs2_b3:
  bge x11, x3, 1f # perform operation
    17f4:	0035d463          	bge	x11,x3,17fc <I_bge_cg_cp_rs2_b3+0x8>
  LI(x20, -1) # branch not taken, set temp_reg to 0
    17f8:	fff00a13          	addi	x20,x0,-1
1:
  # Check if x20 contains the expected result. x16 is the signature ptr, x5 is the link ptr, x4 is a temp reg.
  RVTEST_SIGUPD(x16, x5, x4, x20, I_bge_cg_cp_rs2_b3, I_bge_cg_cp_rs2_b3_str)
    17fc:	00082203          	lw	x4,0(x16)
    1800:	01420863          	beq	x4,x20,1810 <I_bge_cg_cp_rs2_b3+0x1c>
    1804:	079082ef          	jal	x5,a07c <failedtest_x5_x4>
    1808:	000017f4          	.word	0x000017f4
    180c:	0000d18f          	.word	0x0000d18f
    1810:	00480813          	addi	x16,x16,4

  mv x7, x4 # switch temp register to avoid conflict with test
    1814:	00020393          	addi	x7,x4,0 # 0 <rvtest_entry_point>
  mv x8, x5 # switch link pointer register to avoid conflict with test
    1818:	00028413          	addi	x8,x5,0
# Testcase cp_rs2 (Test source rs2 = x4)
  RVTEST_TESTDATA_LOAD_INT(x26, x9) # load rs1: x9 = 0xf2299c90
    181c:	000d2483          	lw	x9,0(x26)
    1820:	004d0d13          	addi	x26,x26,4
  RVTEST_TESTDATA_LOAD_INT(x26, x4) # load rs2: x4 = 0x3cf749bd
    1824:	000d2203          	lw	x4,0(x26)
    1828:	004d0d13          	addi	x26,x26,4
  RVTEST_TESTDATA_LOAD_INT(x26, x17) # load branch taken value: x17 = 0x40189bab
    182c:	000d2883          	lw	x17,0(x26)
    1830:	004d0d13          	addi	x26,x26,4

00001834 <I_bge_cg_cp_rs2_b4>:
I_bge_cg_cp_rs2_b4:
  bge x9, x4, 1f # perform operation
    1834:	0044d463          	bge	x9,x4,183c <I_bge_cg_cp_rs2_b4+0x8>
  LI(x17, -1) # branch not taken, set temp_reg to 0
    1838:	fff00893          	addi	x17,x0,-1
1:
  # Check if x17 contains the expected result. x16 is the signature ptr, x8 is the link ptr, x7 is a temp reg.
  RVTEST_SIGUPD(x16, x8, x7, x17, I_bge_cg_cp_rs2_b4, I_bge_cg_cp_rs2_b4_str)
    183c:	00082383          	lw	x7,0(x16)
    1840:	01138863          	beq	x7,x17,1850 <I_bge_cg_cp_rs2_b4+0x1c>
    1844:	0510846f          	jal	x8,a094 <failedtest_x8_x7>
    1848:	00001834          	.word	0x00001834
    184c:	0000d1bd          	.word	0x0000d1bd
    1850:	00480813          	addi	x16,x16,4

# Testcase cp_rs2 (Test source rs2 = x5)
  RVTEST_TESTDATA_LOAD_INT(x26, x6) # load rs1: x6 = 0xc6169ca0
    1854:	000d2303          	lw	x6,0(x26)
    1858:	004d0d13          	addi	x26,x26,4
  RVTEST_TESTDATA_LOAD_INT(x26, x5) # load rs2: x5 = 0xe4fdc748
    185c:	000d2283          	lw	x5,0(x26)
    1860:	004d0d13          	addi	x26,x26,4
  RVTEST_TESTDATA_LOAD_INT(x26, x9) # load branch taken value: x9 = 0x04ccff88
    1864:	000d2483          	lw	x9,0(x26)
    1868:	004d0d13          	addi	x26,x26,4

0000186c <I_bge_cg_cp_rs2_b5>:
I_bge_cg_cp_rs2_b5:
  bge x6, x5, 1f # perform operation
    186c:	00535463          	bge	x6,x5,1874 <I_bge_cg_cp_rs2_b5+0x8>
  LI(x9, -1) # branch not taken, set temp_reg to 0
    1870:	fff00493          	addi	x9,x0,-1
1:
  # Check if x9 contains the expected result. x16 is the signature ptr, x8 is the link ptr, x7 is a temp reg.
  RVTEST_SIGUPD(x16, x8, x7, x9, I_bge_cg_cp_rs2_b5, I_bge_cg_cp_rs2_b5_str)
    1874:	00082383          	lw	x7,0(x16)
    1878:	00938863          	beq	x7,x9,1888 <I_bge_cg_cp_rs2_b5+0x1c>
    187c:	0190846f          	jal	x8,a094 <failedtest_x8_x7>
    1880:	0000186c          	.word	0x0000186c
    1884:	0000d1eb          	.word	0x0000d1eb
    1888:	00480813          	addi	x16,x16,4

# Testcase cp_rs2 (Test source rs2 = x6)
  RVTEST_TESTDATA_LOAD_INT(x26, x25) # load rs1: x25 = 0xf59075bc
    188c:	000d2c83          	lw	x25,0(x26)
    1890:	004d0d13          	addi	x26,x26,4
  RVTEST_TESTDATA_LOAD_INT(x26, x6) # load rs2: x6 = 0xeaadffc0
    1894:	000d2303          	lw	x6,0(x26)
    1898:	004d0d13          	addi	x26,x26,4
  RVTEST_TESTDATA_LOAD_INT(x26, x28) # load branch taken value: x28 = 0x7d866e3c
    189c:	000d2e03          	lw	x28,0(x26)
    18a0:	004d0d13          	addi	x26,x26,4

000018a4 <I_bge_cg_cp_rs2_b6>:
I_bge_cg_cp_rs2_b6:
  bge x25, x6, 1f # perform operation
    18a4:	006cd463          	bge	x25,x6,18ac <I_bge_cg_cp_rs2_b6+0x8>
  LI(x28, -1) # branch not taken, set temp_reg to 0
    18a8:	fff00e13          	addi	x28,x0,-1
1:
  # Check if x28 contains the expected result. x16 is the signature ptr, x8 is the link ptr, x7 is a temp reg.
  RVTEST_SIGUPD(x16, x8, x7, x28, I_bge_cg_cp_rs2_b6, I_bge_cg_cp_rs2_b6_str)
    18ac:	00082383          	lw	x7,0(x16)
    18b0:	01c38863          	beq	x7,x28,18c0 <I_bge_cg_cp_rs2_b6+0x1c>
    18b4:	7e00846f          	jal	x8,a094 <failedtest_x8_x7>
    18b8:	000018a4          	.word	0x000018a4
    18bc:	0000d219          	.word	0x0000d219
    18c0:	00480813          	addi	x16,x16,4

  mv x13, x7 # switch temp register to avoid conflict with test
    18c4:	00038693          	addi	x13,x7,0
  mv x14, x8 # switch link pointer register to avoid conflict with test
    18c8:	00040713          	addi	x14,x8,0
# Testcase cp_rs2 (Test source rs2 = x7)
  RVTEST_TESTDATA_LOAD_INT(x26, x28) # load rs1: x28 = 0xf231350c
    18cc:	000d2e03          	lw	x28,0(x26)
    18d0:	004d0d13          	addi	x26,x26,4
  RVTEST_TESTDATA_LOAD_INT(x26, x7) # load rs2: x7 = 0x3d1fedbf
    18d4:	000d2383          	lw	x7,0(x26)
    18d8:	004d0d13          	addi	x26,x26,4
  RVTEST_TESTDATA_LOAD_INT(x26, x1) # load branch taken value: x1 = 0x9d4ec32a
    18dc:	000d2083          	lw	x1,0(x26)
    18e0:	004d0d13          	addi	x26,x26,4

000018e4 <I_bge_cg_cp_rs2_b7>:
I_bge_cg_cp_rs2_b7:
  bge x28, x7, 1f # perform operation
    18e4:	007e5463          	bge	x28,x7,18ec <I_bge_cg_cp_rs2_b7+0x8>
  LI(x1, -1) # branch not taken, set temp_reg to 0
    18e8:	fff00093          	addi	x1,x0,-1
1:
  # Check if x1 contains the expected result. x16 is the signature ptr, x14 is the link ptr, x13 is a temp reg.
  RVTEST_SIGUPD(x16, x14, x13, x1, I_bge_cg_cp_rs2_b7, I_bge_cg_cp_rs2_b7_str)
    18ec:	00082683          	lw	x13,0(x16)
    18f0:	00168863          	beq	x13,x1,1900 <I_bge_cg_cp_rs2_b7+0x1c>
    18f4:	7c80876f          	jal	x14,a0bc <failedtest_x14_x13>
    18f8:	000018e4          	.word	0x000018e4
    18fc:	0000d247          	.word	0x0000d247
    1900:	00480813          	addi	x16,x16,4

# Testcase cp_rs2 (Test source rs2 = x8)
  RVTEST_TESTDATA_LOAD_INT(x26, x9) # load rs1: x9 = 0x2c48714d
    1904:	000d2483          	lw	x9,0(x26)
    1908:	004d0d13          	addi	x26,x26,4
  RVTEST_TESTDATA_LOAD_INT(x26, x8) # load rs2: x8 = 0x7dc82acf
    190c:	000d2403          	lw	x8,0(x26)
    1910:	004d0d13          	addi	x26,x26,4
  RVTEST_TESTDATA_LOAD_INT(x26, x3) # load branch taken value: x3 = 0x69e7012b
    1914:	000d2183          	lw	x3,0(x26)
    1918:	004d0d13          	addi	x26,x26,4

0000191c <I_bge_cg_cp_rs2_b8>:
I_bge_cg_cp_rs2_b8:
  bge x9, x8, 1f # perform operation
    191c:	0084d463          	bge	x9,x8,1924 <I_bge_cg_cp_rs2_b8+0x8>
  LI(x3, -1) # branch not taken, set temp_reg to 0
    1920:	fff00193          	addi	x3,x0,-1
1:
  # Check if x3 contains the expected result. x16 is the signature ptr, x14 is the link ptr, x13 is a temp reg.
  RVTEST_SIGUPD(x16, x14, x13, x3, I_bge_cg_cp_rs2_b8, I_bge_cg_cp_rs2_b8_str)
    1924:	00082683          	lw	x13,0(x16)
    1928:	00368863          	beq	x13,x3,1938 <I_bge_cg_cp_rs2_b8+0x1c>
    192c:	7900876f          	jal	x14,a0bc <failedtest_x14_x13>
    1930:	0000191c          	.word	0x0000191c
    1934:	0000d275          	.word	0x0000d275
    1938:	00480813          	addi	x16,x16,4

# Testcase cp_rs2 (Test source rs2 = x9)
  RVTEST_TESTDATA_LOAD_INT(x26, x0) # load rs1: x0 = 0xc0dcd249
    193c:	000d2003          	lw	x0,0(x26)
    1940:	004d0d13          	addi	x26,x26,4
  RVTEST_TESTDATA_LOAD_INT(x26, x9) # load rs2: x9 = 0x078eac93
    1944:	000d2483          	lw	x9,0(x26)
    1948:	004d0d13          	addi	x26,x26,4
  RVTEST_TESTDATA_LOAD_INT(x26, x23) # load branch taken value: x23 = 0xbe78b532
    194c:	000d2b83          	lw	x23,0(x26)
    1950:	004d0d13          	addi	x26,x26,4

00001954 <I_bge_cg_cp_rs2_b9>:
I_bge_cg_cp_rs2_b9:
  bge x0, x9, 1f # perform operation
    1954:	00905463          	bge	x0,x9,195c <I_bge_cg_cp_rs2_b9+0x8>
  LI(x23, -1) # branch not taken, set temp_reg to 0
    1958:	fff00b93          	addi	x23,x0,-1
1:
  # Check if x23 contains the expected result. x16 is the signature ptr, x14 is the link ptr, x13 is a temp reg.
  RVTEST_SIGUPD(x16, x14, x13, x23, I_bge_cg_cp_rs2_b9, I_bge_cg_cp_rs2_b9_str)
    195c:	00082683          	lw	x13,0(x16)
    1960:	01768863          	beq	x13,x23,1970 <I_bge_cg_cp_rs2_b9+0x1c>
    1964:	7580876f          	jal	x14,a0bc <failedtest_x14_x13>
    1968:	00001954          	.word	0x00001954
    196c:	0000d2a3          	.word	0x0000d2a3
    1970:	00480813          	addi	x16,x16,4

# Testcase cp_rs2 (Test source rs2 = x10)
  RVTEST_TESTDATA_LOAD_INT(x26, x1) # load rs1: x1 = 0xc0ddd0f3
    1974:	000d2083          	lw	x1,0(x26)
    1978:	004d0d13          	addi	x26,x26,4
  RVTEST_TESTDATA_LOAD_INT(x26, x10) # load rs2: x10 = 0x6e67eb39
    197c:	000d2503          	lw	x10,0(x26)
    1980:	004d0d13          	addi	x26,x26,4
  RVTEST_TESTDATA_LOAD_INT(x26, x21) # load branch taken value: x21 = 0xe8dfbcac
    1984:	000d2a83          	lw	x21,0(x26)
    1988:	004d0d13          	addi	x26,x26,4

0000198c <I_bge_cg_cp_rs2_b10>:
I_bge_cg_cp_rs2_b10:
  bge x1, x10, 1f # perform operation
    198c:	00a0d463          	bge	x1,x10,1994 <I_bge_cg_cp_rs2_b10+0x8>
  LI(x21, -1) # branch not taken, set temp_reg to 0
    1990:	fff00a93          	addi	x21,x0,-1
1:
  # Check if x21 contains the expected result. x16 is the signature ptr, x14 is the link ptr, x13 is a temp reg.
  RVTEST_SIGUPD(x16, x14, x13, x21, I_bge_cg_cp_rs2_b10, I_bge_cg_cp_rs2_b10_str)
    1994:	00082683          	lw	x13,0(x16)
    1998:	01568863          	beq	x13,x21,19a8 <I_bge_cg_cp_rs2_b10+0x1c>
    199c:	7200876f          	jal	x14,a0bc <failedtest_x14_x13>
    19a0:	0000198c          	.word	0x0000198c
    19a4:	0000d2d1          	.word	0x0000d2d1
    19a8:	00480813          	addi	x16,x16,4

# Testcase cp_rs2 (Test source rs2 = x11)
  RVTEST_TESTDATA_LOAD_INT(x26, x20) # load rs1: x20 = 0x7dbffc6a
    19ac:	000d2a03          	lw	x20,0(x26)
    19b0:	004d0d13          	addi	x26,x26,4
  RVTEST_TESTDATA_LOAD_INT(x26, x11) # load rs2: x11 = 0x5443af06
    19b4:	000d2583          	lw	x11,0(x26)
    19b8:	004d0d13          	addi	x26,x26,4
  RVTEST_TESTDATA_LOAD_INT(x26, x12) # load branch taken value: x12 = 0x9656af2c
    19bc:	000d2603          	lw	x12,0(x26)
    19c0:	004d0d13          	addi	x26,x26,4

000019c4 <I_bge_cg_cp_rs2_b11>:
I_bge_cg_cp_rs2_b11:
  bge x20, x11, 1f # perform operation
    19c4:	00ba5463          	bge	x20,x11,19cc <I_bge_cg_cp_rs2_b11+0x8>
  LI(x12, -1) # branch not taken, set temp_reg to 0
    19c8:	fff00613          	addi	x12,x0,-1
1:
  # Check if x12 contains the expected result. x16 is the signature ptr, x14 is the link ptr, x13 is a temp reg.
  RVTEST_SIGUPD(x16, x14, x13, x12, I_bge_cg_cp_rs2_b11, I_bge_cg_cp_rs2_b11_str)
    19cc:	00082683          	lw	x13,0(x16)
    19d0:	00c68863          	beq	x13,x12,19e0 <I_bge_cg_cp_rs2_b11+0x1c>
    19d4:	6e80876f          	jal	x14,a0bc <failedtest_x14_x13>
    19d8:	000019c4          	.word	0x000019c4
    19dc:	0000d300          	.word	0x0000d300
    19e0:	00480813          	addi	x16,x16,4

# Testcase cp_rs2 (Test source rs2 = x12)
  RVTEST_TESTDATA_LOAD_INT(x26, x17) # load rs1: x17 = 0xfb7779d1
    19e4:	000d2883          	lw	x17,0(x26)
    19e8:	004d0d13          	addi	x26,x26,4
  RVTEST_TESTDATA_LOAD_INT(x26, x12) # load rs2: x12 = 0xe4ccf75f
    19ec:	000d2603          	lw	x12,0(x26)
    19f0:	004d0d13          	addi	x26,x26,4
  RVTEST_TESTDATA_LOAD_INT(x26, x28) # load branch taken value: x28 = 0x79192576
    19f4:	000d2e03          	lw	x28,0(x26)
    19f8:	004d0d13          	addi	x26,x26,4

000019fc <I_bge_cg_cp_rs2_b12>:
I_bge_cg_cp_rs2_b12:
  bge x17, x12, 1f # perform operation
    19fc:	00c8d463          	bge	x17,x12,1a04 <I_bge_cg_cp_rs2_b12+0x8>
  LI(x28, -1) # branch not taken, set temp_reg to 0
    1a00:	fff00e13          	addi	x28,x0,-1
1:
  # Check if x28 contains the expected result. x16 is the signature ptr, x14 is the link ptr, x13 is a temp reg.
  RVTEST_SIGUPD(x16, x14, x13, x28, I_bge_cg_cp_rs2_b12, I_bge_cg_cp_rs2_b12_str)
    1a04:	00082683          	lw	x13,0(x16)
    1a08:	01c68863          	beq	x13,x28,1a18 <I_bge_cg_cp_rs2_b12+0x1c>
    1a0c:	6b00876f          	jal	x14,a0bc <failedtest_x14_x13>
    1a10:	000019fc          	.word	0x000019fc
    1a14:	0000d32f          	.word	0x0000d32f
    1a18:	00480813          	addi	x16,x16,4

  mv x4, x13 # switch temp register to avoid conflict with test
    1a1c:	00068213          	addi	x4,x13,0
  mv x5, x14 # switch link pointer register to avoid conflict with test
    1a20:	00070293          	addi	x5,x14,0
# Testcase cp_rs2 (Test source rs2 = x13)
  RVTEST_TESTDATA_LOAD_INT(x26, x8) # load rs1: x8 = 0xbd92a6bb
    1a24:	000d2403          	lw	x8,0(x26)
    1a28:	004d0d13          	addi	x26,x26,4
  RVTEST_TESTDATA_LOAD_INT(x26, x13) # load rs2: x13 = 0x5dbfa4c0
    1a2c:	000d2683          	lw	x13,0(x26)
    1a30:	004d0d13          	addi	x26,x26,4
  RVTEST_TESTDATA_LOAD_INT(x26, x22) # load branch taken value: x22 = 0xdc9de837
    1a34:	000d2b03          	lw	x22,0(x26)
    1a38:	004d0d13          	addi	x26,x26,4

00001a3c <I_bge_cg_cp_rs2_b13>:
I_bge_cg_cp_rs2_b13:
  bge x8, x13, 1f # perform operation
    1a3c:	00d45463          	bge	x8,x13,1a44 <I_bge_cg_cp_rs2_b13+0x8>
  LI(x22, -1) # branch not taken, set temp_reg to 0
    1a40:	fff00b13          	addi	x22,x0,-1
1:
  # Check if x22 contains the expected result. x16 is the signature ptr, x5 is the link ptr, x4 is a temp reg.
  RVTEST_SIGUPD(x16, x5, x4, x22, I_bge_cg_cp_rs2_b13, I_bge_cg_cp_rs2_b13_str)
    1a44:	00082203          	lw	x4,0(x16)
    1a48:	01620863          	beq	x4,x22,1a58 <I_bge_cg_cp_rs2_b13+0x1c>
    1a4c:	630082ef          	jal	x5,a07c <failedtest_x5_x4>
    1a50:	00001a3c          	.word	0x00001a3c
    1a54:	0000d35e          	.word	0x0000d35e
    1a58:	00480813          	addi	x16,x16,4

# Testcase cp_rs2 (Test source rs2 = x14)
  RVTEST_TESTDATA_LOAD_INT(x26, x23) # load rs1: x23 = 0xf2cafc17
    1a5c:	000d2b83          	lw	x23,0(x26)
    1a60:	004d0d13          	addi	x26,x26,4
  RVTEST_TESTDATA_LOAD_INT(x26, x14) # load rs2: x14 = 0x8b4ca921
    1a64:	000d2703          	lw	x14,0(x26)
    1a68:	004d0d13          	addi	x26,x26,4
  RVTEST_TESTDATA_LOAD_INT(x26, x30) # load branch taken value: x30 = 0xeac0c809
    1a6c:	000d2f03          	lw	x30,0(x26)
    1a70:	004d0d13          	addi	x26,x26,4

00001a74 <I_bge_cg_cp_rs2_b14>:
I_bge_cg_cp_rs2_b14:
  bge x23, x14, 1f # perform operation
    1a74:	00ebd463          	bge	x23,x14,1a7c <I_bge_cg_cp_rs2_b14+0x8>
  LI(x30, -1) # branch not taken, set temp_reg to 0
    1a78:	fff00f13          	addi	x30,x0,-1
1:
  # Check if x30 contains the expected result. x16 is the signature ptr, x5 is the link ptr, x4 is a temp reg.
  RVTEST_SIGUPD(x16, x5, x4, x30, I_bge_cg_cp_rs2_b14, I_bge_cg_cp_rs2_b14_str)
    1a7c:	00082203          	lw	x4,0(x16)
    1a80:	01e20863          	beq	x4,x30,1a90 <I_bge_cg_cp_rs2_b14+0x1c>
    1a84:	5f8082ef          	jal	x5,a07c <failedtest_x5_x4>
    1a88:	00001a74          	.word	0x00001a74
    1a8c:	0000d38d          	.word	0x0000d38d
    1a90:	00480813          	addi	x16,x16,4

# Testcase cp_rs2 (Test source rs2 = x15)
  RVTEST_TESTDATA_LOAD_INT(x26, x29) # load rs1: x29 = 0xba49f854
    1a94:	000d2e83          	lw	x29,0(x26)
    1a98:	004d0d13          	addi	x26,x26,4
  RVTEST_TESTDATA_LOAD_INT(x26, x15) # load rs2: x15 = 0xb107ea7b
    1a9c:	000d2783          	lw	x15,0(x26)
    1aa0:	004d0d13          	addi	x26,x26,4
  RVTEST_TESTDATA_LOAD_INT(x26, x12) # load branch taken value: x12 = 0xd1e20213
    1aa4:	000d2603          	lw	x12,0(x26)
    1aa8:	004d0d13          	addi	x26,x26,4

00001aac <I_bge_cg_cp_rs2_b15>:
I_bge_cg_cp_rs2_b15:
  bge x29, x15, 1f # perform operation
    1aac:	00fed463          	bge	x29,x15,1ab4 <I_bge_cg_cp_rs2_b15+0x8>
  LI(x12, -1) # branch not taken, set temp_reg to 0
    1ab0:	fff00613          	addi	x12,x0,-1
1:
  # Check if x12 contains the expected result. x16 is the signature ptr, x5 is the link ptr, x4 is a temp reg.
  RVTEST_SIGUPD(x16, x5, x4, x12, I_bge_cg_cp_rs2_b15, I_bge_cg_cp_rs2_b15_str)
    1ab4:	00082203          	lw	x4,0(x16)
    1ab8:	00c20863          	beq	x4,x12,1ac8 <I_bge_cg_cp_rs2_b15+0x1c>
    1abc:	5c0082ef          	jal	x5,a07c <failedtest_x5_x4>
    1ac0:	00001aac          	.word	0x00001aac
    1ac4:	0000d3bc          	.word	0x0000d3bc
    1ac8:	00480813          	addi	x16,x16,4

  mv x15, x16 # switch signature pointer register to avoid conflict with test
    1acc:	00080793          	addi	x15,x16,0
# Testcase cp_rs2 (Test source rs2 = x16)
  RVTEST_TESTDATA_LOAD_INT(x26, x22) # load rs1: x22 = 0xc5b0678f
    1ad0:	000d2b03          	lw	x22,0(x26)
    1ad4:	004d0d13          	addi	x26,x26,4
  RVTEST_TESTDATA_LOAD_INT(x26, x16) # load rs2: x16 = 0x50c4a627
    1ad8:	000d2803          	lw	x16,0(x26)
    1adc:	004d0d13          	addi	x26,x26,4
  RVTEST_TESTDATA_LOAD_INT(x26, x12) # load branch taken value: x12 = 0xb906ba7a
    1ae0:	000d2603          	lw	x12,0(x26)
    1ae4:	004d0d13          	addi	x26,x26,4

00001ae8 <I_bge_cg_cp_rs2_b16>:
I_bge_cg_cp_rs2_b16:
  bge x22, x16, 1f # perform operation
    1ae8:	010b5463          	bge	x22,x16,1af0 <I_bge_cg_cp_rs2_b16+0x8>
  LI(x12, -1) # branch not taken, set temp_reg to 0
    1aec:	fff00613          	addi	x12,x0,-1
1:
  # Check if x12 contains the expected result. x15 is the signature ptr, x5 is the link ptr, x4 is a temp reg.
  RVTEST_SIGUPD(x15, x5, x4, x12, I_bge_cg_cp_rs2_b16, I_bge_cg_cp_rs2_b16_str)
    1af0:	0007a203          	lw	x4,0(x15)
    1af4:	00c20863          	beq	x4,x12,1b04 <I_bge_cg_cp_rs2_b16+0x1c>
    1af8:	584082ef          	jal	x5,a07c <failedtest_x5_x4>
    1afc:	00001ae8          	.word	0x00001ae8
    1b00:	0000d3eb          	.word	0x0000d3eb
    1b04:	00478793          	addi	x15,x15,4

# Testcase cp_rs2 (Test source rs2 = x17)
  RVTEST_TESTDATA_LOAD_INT(x26, x21) # load rs1: x21 = 0x6a7d7593
    1b08:	000d2a83          	lw	x21,0(x26)
    1b0c:	004d0d13          	addi	x26,x26,4
  RVTEST_TESTDATA_LOAD_INT(x26, x17) # load rs2: x17 = 0x53c0b9a5
    1b10:	000d2883          	lw	x17,0(x26)
    1b14:	004d0d13          	addi	x26,x26,4
  RVTEST_TESTDATA_LOAD_INT(x26, x18) # load branch taken value: x18 = 0x9cfa2f8f
    1b18:	000d2903          	lw	x18,0(x26)
    1b1c:	004d0d13          	addi	x26,x26,4

00001b20 <I_bge_cg_cp_rs2_b17>:
I_bge_cg_cp_rs2_b17:
  bge x21, x17, 1f # perform operation
    1b20:	011ad463          	bge	x21,x17,1b28 <I_bge_cg_cp_rs2_b17+0x8>
  LI(x18, -1) # branch not taken, set temp_reg to 0
    1b24:	fff00913          	addi	x18,x0,-1
1:
  # Check if x18 contains the expected result. x15 is the signature ptr, x5 is the link ptr, x4 is a temp reg.
  RVTEST_SIGUPD(x15, x5, x4, x18, I_bge_cg_cp_rs2_b17, I_bge_cg_cp_rs2_b17_str)
    1b28:	0007a203          	lw	x4,0(x15)
    1b2c:	01220863          	beq	x4,x18,1b3c <I_bge_cg_cp_rs2_b17+0x1c>
    1b30:	54c082ef          	jal	x5,a07c <failedtest_x5_x4>
    1b34:	00001b20          	.word	0x00001b20
    1b38:	0000d41a          	.word	0x0000d41a
    1b3c:	00478793          	addi	x15,x15,4

# Testcase cp_rs2 (Test source rs2 = x18)
  RVTEST_TESTDATA_LOAD_INT(x26, x12) # load rs1: x12 = 0xe5767898
    1b40:	000d2603          	lw	x12,0(x26)
    1b44:	004d0d13          	addi	x26,x26,4
  RVTEST_TESTDATA_LOAD_INT(x26, x18) # load rs2: x18 = 0xa979cf34
    1b48:	000d2903          	lw	x18,0(x26)
    1b4c:	004d0d13          	addi	x26,x26,4
  RVTEST_TESTDATA_LOAD_INT(x26, x31) # load branch taken value: x31 = 0xcac271e9
    1b50:	000d2f83          	lw	x31,0(x26)
    1b54:	004d0d13          	addi	x26,x26,4

00001b58 <I_bge_cg_cp_rs2_b18>:
I_bge_cg_cp_rs2_b18:
  bge x12, x18, 1f # perform operation
    1b58:	01265463          	bge	x12,x18,1b60 <I_bge_cg_cp_rs2_b18+0x8>
  LI(x31, -1) # branch not taken, set temp_reg to 0
    1b5c:	fff00f93          	addi	x31,x0,-1
1:
  # Check if x31 contains the expected result. x15 is the signature ptr, x5 is the link ptr, x4 is a temp reg.
  RVTEST_SIGUPD(x15, x5, x4, x31, I_bge_cg_cp_rs2_b18, I_bge_cg_cp_rs2_b18_str)
    1b60:	0007a203          	lw	x4,0(x15)
    1b64:	01f20863          	beq	x4,x31,1b74 <I_bge_cg_cp_rs2_b18+0x1c>
    1b68:	514082ef          	jal	x5,a07c <failedtest_x5_x4>
    1b6c:	00001b58          	.word	0x00001b58
    1b70:	0000d449          	.word	0x0000d449
    1b74:	00478793          	addi	x15,x15,4

# Testcase cp_rs2 (Test source rs2 = x19)
  RVTEST_TESTDATA_LOAD_INT(x26, x16) # load rs1: x16 = 0x9a95fcb0
    1b78:	000d2803          	lw	x16,0(x26)
    1b7c:	004d0d13          	addi	x26,x26,4
  RVTEST_TESTDATA_LOAD_INT(x26, x19) # load rs2: x19 = 0xedbbe01d
    1b80:	000d2983          	lw	x19,0(x26)
    1b84:	004d0d13          	addi	x26,x26,4
  RVTEST_TESTDATA_LOAD_INT(x26, x8) # load branch taken value: x8 = 0x008e1f57
    1b88:	000d2403          	lw	x8,0(x26)
    1b8c:	004d0d13          	addi	x26,x26,4

00001b90 <I_bge_cg_cp_rs2_b19>:
I_bge_cg_cp_rs2_b19:
  bge x16, x19, 1f # perform operation
    1b90:	01385463          	bge	x16,x19,1b98 <I_bge_cg_cp_rs2_b19+0x8>
  LI(x8, -1) # branch not taken, set temp_reg to 0
    1b94:	fff00413          	addi	x8,x0,-1
1:
  # Check if x8 contains the expected result. x15 is the signature ptr, x5 is the link ptr, x4 is a temp reg.
  RVTEST_SIGUPD(x15, x5, x4, x8, I_bge_cg_cp_rs2_b19, I_bge_cg_cp_rs2_b19_str)
    1b98:	0007a203          	lw	x4,0(x15)
    1b9c:	00820863          	beq	x4,x8,1bac <I_bge_cg_cp_rs2_b19+0x1c>
    1ba0:	4dc082ef          	jal	x5,a07c <failedtest_x5_x4>
    1ba4:	00001b90          	.word	0x00001b90
    1ba8:	0000d478          	.word	0x0000d478
    1bac:	00478793          	addi	x15,x15,4

# Testcase cp_rs2 (Test source rs2 = x20)
  RVTEST_TESTDATA_LOAD_INT(x26, x21) # load rs1: x21 = 0xe7da9cfc
    1bb0:	000d2a83          	lw	x21,0(x26)
    1bb4:	004d0d13          	addi	x26,x26,4
  RVTEST_TESTDATA_LOAD_INT(x26, x20) # load rs2: x20 = 0x31226df3
    1bb8:	000d2a03          	lw	x20,0(x26)
    1bbc:	004d0d13          	addi	x26,x26,4
  RVTEST_TESTDATA_LOAD_INT(x26, x7) # load branch taken value: x7 = 0xf0bdbc09
    1bc0:	000d2383          	lw	x7,0(x26)
    1bc4:	004d0d13          	addi	x26,x26,4

00001bc8 <I_bge_cg_cp_rs2_b20>:
I_bge_cg_cp_rs2_b20:
  bge x21, x20, 1f # perform operation
    1bc8:	014ad463          	bge	x21,x20,1bd0 <I_bge_cg_cp_rs2_b20+0x8>
  LI(x7, -1) # branch not taken, set temp_reg to 0
    1bcc:	fff00393          	addi	x7,x0,-1
1:
  # Check if x7 contains the expected result. x15 is the signature ptr, x5 is the link ptr, x4 is a temp reg.
  RVTEST_SIGUPD(x15, x5, x4, x7, I_bge_cg_cp_rs2_b20, I_bge_cg_cp_rs2_b20_str)
    1bd0:	0007a203          	lw	x4,0(x15)
    1bd4:	00720863          	beq	x4,x7,1be4 <I_bge_cg_cp_rs2_b20+0x1c>
    1bd8:	4a4082ef          	jal	x5,a07c <failedtest_x5_x4>
    1bdc:	00001bc8          	.word	0x00001bc8
    1be0:	0000d4a7          	.word	0x0000d4a7
    1be4:	00478793          	addi	x15,x15,4

# Testcase cp_rs2 (Test source rs2 = x21)
  RVTEST_TESTDATA_LOAD_INT(x26, x9) # load rs1: x9 = 0x520e6d93
    1be8:	000d2483          	lw	x9,0(x26)
    1bec:	004d0d13          	addi	x26,x26,4
  RVTEST_TESTDATA_LOAD_INT(x26, x21) # load rs2: x21 = 0x20379b5f
    1bf0:	000d2a83          	lw	x21,0(x26)
    1bf4:	004d0d13          	addi	x26,x26,4
  RVTEST_TESTDATA_LOAD_INT(x26, x31) # load branch taken value: x31 = 0x7b441d93
    1bf8:	000d2f83          	lw	x31,0(x26)
    1bfc:	004d0d13          	addi	x26,x26,4

00001c00 <I_bge_cg_cp_rs2_b21>:
I_bge_cg_cp_rs2_b21:
  bge x9, x21, 1f # perform operation
    1c00:	0154d463          	bge	x9,x21,1c08 <I_bge_cg_cp_rs2_b21+0x8>
  LI(x31, -1) # branch not taken, set temp_reg to 0
    1c04:	fff00f93          	addi	x31,x0,-1
1:
  # Check if x31 contains the expected result. x15 is the signature ptr, x5 is the link ptr, x4 is a temp reg.
  RVTEST_SIGUPD(x15, x5, x4, x31, I_bge_cg_cp_rs2_b21, I_bge_cg_cp_rs2_b21_str)
    1c08:	0007a203          	lw	x4,0(x15)
    1c0c:	01f20863          	beq	x4,x31,1c1c <I_bge_cg_cp_rs2_b21+0x1c>
    1c10:	46c082ef          	jal	x5,a07c <failedtest_x5_x4>
    1c14:	00001c00          	.word	0x00001c00
    1c18:	0000d4d6          	.word	0x0000d4d6
    1c1c:	00478793          	addi	x15,x15,4

# Testcase cp_rs2 (Test source rs2 = x22)
  RVTEST_TESTDATA_LOAD_INT(x26, x30) # load rs1: x30 = 0xbc5ff781
    1c20:	000d2f03          	lw	x30,0(x26)
    1c24:	004d0d13          	addi	x26,x26,4
  RVTEST_TESTDATA_LOAD_INT(x26, x22) # load rs2: x22 = 0x46f0f32c
    1c28:	000d2b03          	lw	x22,0(x26)
    1c2c:	004d0d13          	addi	x26,x26,4
  RVTEST_TESTDATA_LOAD_INT(x26, x23) # load branch taken value: x23 = 0x0cc737c1
    1c30:	000d2b83          	lw	x23,0(x26)
    1c34:	004d0d13          	addi	x26,x26,4

00001c38 <I_bge_cg_cp_rs2_b22>:
I_bge_cg_cp_rs2_b22:
  bge x30, x22, 1f # perform operation
    1c38:	016f5463          	bge	x30,x22,1c40 <I_bge_cg_cp_rs2_b22+0x8>
  LI(x23, -1) # branch not taken, set temp_reg to 0
    1c3c:	fff00b93          	addi	x23,x0,-1
1:
  # Check if x23 contains the expected result. x15 is the signature ptr, x5 is the link ptr, x4 is a temp reg.
  RVTEST_SIGUPD(x15, x5, x4, x23, I_bge_cg_cp_rs2_b22, I_bge_cg_cp_rs2_b22_str)
    1c40:	0007a203          	lw	x4,0(x15)
    1c44:	01720863          	beq	x4,x23,1c54 <I_bge_cg_cp_rs2_b22+0x1c>
    1c48:	434082ef          	jal	x5,a07c <failedtest_x5_x4>
    1c4c:	00001c38          	.word	0x00001c38
    1c50:	0000d505          	.word	0x0000d505
    1c54:	00478793          	addi	x15,x15,4

# Testcase cp_rs2 (Test source rs2 = x23)
  RVTEST_TESTDATA_LOAD_INT(x26, x20) # load rs1: x20 = 0xedf404aa
    1c58:	000d2a03          	lw	x20,0(x26)
    1c5c:	004d0d13          	addi	x26,x26,4
  RVTEST_TESTDATA_LOAD_INT(x26, x23) # load rs2: x23 = 0xff1c2cef
    1c60:	000d2b83          	lw	x23,0(x26)
    1c64:	004d0d13          	addi	x26,x26,4
  RVTEST_TESTDATA_LOAD_INT(x26, x25) # load branch taken value: x25 = 0x6fe6ff83
    1c68:	000d2c83          	lw	x25,0(x26)
    1c6c:	004d0d13          	addi	x26,x26,4

00001c70 <I_bge_cg_cp_rs2_b23>:
I_bge_cg_cp_rs2_b23:
  bge x20, x23, 1f # perform operation
    1c70:	017a5463          	bge	x20,x23,1c78 <I_bge_cg_cp_rs2_b23+0x8>
  LI(x25, -1) # branch not taken, set temp_reg to 0
    1c74:	fff00c93          	addi	x25,x0,-1
1:
  # Check if x25 contains the expected result. x15 is the signature ptr, x5 is the link ptr, x4 is a temp reg.
  RVTEST_SIGUPD(x15, x5, x4, x25, I_bge_cg_cp_rs2_b23, I_bge_cg_cp_rs2_b23_str)
    1c78:	0007a203          	lw	x4,0(x15)
    1c7c:	01920863          	beq	x4,x25,1c8c <I_bge_cg_cp_rs2_b23+0x1c>
    1c80:	3fc082ef          	jal	x5,a07c <failedtest_x5_x4>
    1c84:	00001c70          	.word	0x00001c70
    1c88:	0000d534          	.word	0x0000d534
    1c8c:	00478793          	addi	x15,x15,4

# Testcase cp_rs2 (Test source rs2 = x24)
  RVTEST_TESTDATA_LOAD_INT(x26, x22) # load rs1: x22 = 0x95a9aadf
    1c90:	000d2b03          	lw	x22,0(x26)
    1c94:	004d0d13          	addi	x26,x26,4
  RVTEST_TESTDATA_LOAD_INT(x26, x24) # load rs2: x24 = 0x19b0aae0
    1c98:	000d2c03          	lw	x24,0(x26)
    1c9c:	004d0d13          	addi	x26,x26,4
  RVTEST_TESTDATA_LOAD_INT(x26, x27) # load branch taken value: x27 = 0xc1ba8de6
    1ca0:	000d2d83          	lw	x27,0(x26)
    1ca4:	004d0d13          	addi	x26,x26,4

00001ca8 <I_bge_cg_cp_rs2_b24>:
I_bge_cg_cp_rs2_b24:
  bge x22, x24, 1f # perform operation
    1ca8:	018b5463          	bge	x22,x24,1cb0 <I_bge_cg_cp_rs2_b24+0x8>
  LI(x27, -1) # branch not taken, set temp_reg to 0
    1cac:	fff00d93          	addi	x27,x0,-1
1:
  # Check if x27 contains the expected result. x15 is the signature ptr, x5 is the link ptr, x4 is a temp reg.
  RVTEST_SIGUPD(x15, x5, x4, x27, I_bge_cg_cp_rs2_b24, I_bge_cg_cp_rs2_b24_str)
    1cb0:	0007a203          	lw	x4,0(x15)
    1cb4:	01b20863          	beq	x4,x27,1cc4 <I_bge_cg_cp_rs2_b24+0x1c>
    1cb8:	3c4082ef          	jal	x5,a07c <failedtest_x5_x4>
    1cbc:	00001ca8          	.word	0x00001ca8
    1cc0:	0000d563          	.word	0x0000d563
    1cc4:	00478793          	addi	x15,x15,4

# Testcase cp_rs2 (Test source rs2 = x25)
  RVTEST_TESTDATA_LOAD_INT(x26, x16) # load rs1: x16 = 0x7ffdc5df
    1cc8:	000d2803          	lw	x16,0(x26)
    1ccc:	004d0d13          	addi	x26,x26,4
  RVTEST_TESTDATA_LOAD_INT(x26, x25) # load rs2: x25 = 0x81bd25f6
    1cd0:	000d2c83          	lw	x25,0(x26)
    1cd4:	004d0d13          	addi	x26,x26,4
  RVTEST_TESTDATA_LOAD_INT(x26, x29) # load branch taken value: x29 = 0x1af292c9
    1cd8:	000d2e83          	lw	x29,0(x26)
    1cdc:	004d0d13          	addi	x26,x26,4

00001ce0 <I_bge_cg_cp_rs2_b25>:
I_bge_cg_cp_rs2_b25:
  bge x16, x25, 1f # perform operation
    1ce0:	01985463          	bge	x16,x25,1ce8 <I_bge_cg_cp_rs2_b25+0x8>
  LI(x29, -1) # branch not taken, set temp_reg to 0
    1ce4:	fff00e93          	addi	x29,x0,-1
1:
  # Check if x29 contains the expected result. x15 is the signature ptr, x5 is the link ptr, x4 is a temp reg.
  RVTEST_SIGUPD(x15, x5, x4, x29, I_bge_cg_cp_rs2_b25, I_bge_cg_cp_rs2_b25_str)
    1ce8:	0007a203          	lw	x4,0(x15)
    1cec:	01d20863          	beq	x4,x29,1cfc <I_bge_cg_cp_rs2_b25+0x1c>
    1cf0:	38c082ef          	jal	x5,a07c <failedtest_x5_x4>
    1cf4:	00001ce0          	.word	0x00001ce0
    1cf8:	0000d592          	.word	0x0000d592
    1cfc:	00478793          	addi	x15,x15,4

  mv x23, x26 # switch data pointer register to avoid conflict with test
    1d00:	000d0b93          	addi	x23,x26,0
# Testcase cp_rs2 (Test source rs2 = x26)
  RVTEST_TESTDATA_LOAD_INT(x23, x30) # load rs1: x30 = 0x4d46a346
    1d04:	000baf03          	lw	x30,0(x23)
    1d08:	004b8b93          	addi	x23,x23,4
  RVTEST_TESTDATA_LOAD_INT(x23, x26) # load rs2: x26 = 0xf117492e
    1d0c:	000bad03          	lw	x26,0(x23)
    1d10:	004b8b93          	addi	x23,x23,4
  RVTEST_TESTDATA_LOAD_INT(x23, x31) # load branch taken value: x31 = 0x0f3cc512
    1d14:	000baf83          	lw	x31,0(x23)
    1d18:	004b8b93          	addi	x23,x23,4

00001d1c <I_bge_cg_cp_rs2_b26>:
I_bge_cg_cp_rs2_b26:
  bge x30, x26, 1f # perform operation
    1d1c:	01af5463          	bge	x30,x26,1d24 <I_bge_cg_cp_rs2_b26+0x8>
  LI(x31, -1) # branch not taken, set temp_reg to 0
    1d20:	fff00f93          	addi	x31,x0,-1
1:
  # Check if x31 contains the expected result. x15 is the signature ptr, x5 is the link ptr, x4 is a temp reg.
  RVTEST_SIGUPD(x15, x5, x4, x31, I_bge_cg_cp_rs2_b26, I_bge_cg_cp_rs2_b26_str)
    1d24:	0007a203          	lw	x4,0(x15)
    1d28:	01f20863          	beq	x4,x31,1d38 <I_bge_cg_cp_rs2_b26+0x1c>
    1d2c:	350082ef          	jal	x5,a07c <failedtest_x5_x4>
    1d30:	00001d1c          	.word	0x00001d1c
    1d34:	0000d5c1          	.word	0x0000d5c1
    1d38:	00478793          	addi	x15,x15,4

# Testcase cp_rs2 (Test source rs2 = x27)
  RVTEST_TESTDATA_LOAD_INT(x23, x13) # load rs1: x13 = 0xda137421
    1d3c:	000ba683          	lw	x13,0(x23)
    1d40:	004b8b93          	addi	x23,x23,4
  RVTEST_TESTDATA_LOAD_INT(x23, x27) # load rs2: x27 = 0xb0a60678
    1d44:	000bad83          	lw	x27,0(x23)
    1d48:	004b8b93          	addi	x23,x23,4
  RVTEST_TESTDATA_LOAD_INT(x23, x6) # load branch taken value: x6 = 0x555d5938
    1d4c:	000ba303          	lw	x6,0(x23)
    1d50:	004b8b93          	addi	x23,x23,4

00001d54 <I_bge_cg_cp_rs2_b27>:
I_bge_cg_cp_rs2_b27:
  bge x13, x27, 1f # perform operation
    1d54:	01b6d463          	bge	x13,x27,1d5c <I_bge_cg_cp_rs2_b27+0x8>
  LI(x6, -1) # branch not taken, set temp_reg to 0
    1d58:	fff00313          	addi	x6,x0,-1
1:
  # Check if x6 contains the expected result. x15 is the signature ptr, x5 is the link ptr, x4 is a temp reg.
  RVTEST_SIGUPD(x15, x5, x4, x6, I_bge_cg_cp_rs2_b27, I_bge_cg_cp_rs2_b27_str)
    1d5c:	0007a203          	lw	x4,0(x15)
    1d60:	00620863          	beq	x4,x6,1d70 <I_bge_cg_cp_rs2_b27+0x1c>
    1d64:	318082ef          	jal	x5,a07c <failedtest_x5_x4>
    1d68:	00001d54          	.word	0x00001d54
    1d6c:	0000d5f0          	.word	0x0000d5f0
    1d70:	00478793          	addi	x15,x15,4

# Testcase cp_rs2 (Test source rs2 = x28)
  RVTEST_TESTDATA_LOAD_INT(x23, x3) # load rs1: x3 = 0x044507e0
    1d74:	000ba183          	lw	x3,0(x23)
    1d78:	004b8b93          	addi	x23,x23,4
  RVTEST_TESTDATA_LOAD_INT(x23, x28) # load rs2: x28 = 0x2df10103
    1d7c:	000bae03          	lw	x28,0(x23)
    1d80:	004b8b93          	addi	x23,x23,4
  RVTEST_TESTDATA_LOAD_INT(x23, x31) # load branch taken value: x31 = 0x488d517a
    1d84:	000baf83          	lw	x31,0(x23)
    1d88:	004b8b93          	addi	x23,x23,4

00001d8c <I_bge_cg_cp_rs2_b28>:
I_bge_cg_cp_rs2_b28:
  bge x3, x28, 1f # perform operation
    1d8c:	01c1d463          	bge	x3,x28,1d94 <I_bge_cg_cp_rs2_b28+0x8>
  LI(x31, -1) # branch not taken, set temp_reg to 0
    1d90:	fff00f93          	addi	x31,x0,-1
1:
  # Check if x31 contains the expected result. x15 is the signature ptr, x5 is the link ptr, x4 is a temp reg.
  RVTEST_SIGUPD(x15, x5, x4, x31, I_bge_cg_cp_rs2_b28, I_bge_cg_cp_rs2_b28_str)
    1d94:	0007a203          	lw	x4,0(x15)
    1d98:	01f20863          	beq	x4,x31,1da8 <I_bge_cg_cp_rs2_b28+0x1c>
    1d9c:	2e0082ef          	jal	x5,a07c <failedtest_x5_x4>
    1da0:	00001d8c          	.word	0x00001d8c
    1da4:	0000d61f          	.word	0x0000d61f
    1da8:	00478793          	addi	x15,x15,4

# Testcase cp_rs2 (Test source rs2 = x29)
  RVTEST_TESTDATA_LOAD_INT(x23, x1) # load rs1: x1 = 0x283b9177
    1dac:	000ba083          	lw	x1,0(x23)
    1db0:	004b8b93          	addi	x23,x23,4
  RVTEST_TESTDATA_LOAD_INT(x23, x29) # load rs2: x29 = 0x957000ab
    1db4:	000bae83          	lw	x29,0(x23)
    1db8:	004b8b93          	addi	x23,x23,4
  RVTEST_TESTDATA_LOAD_INT(x23, x8) # load branch taken value: x8 = 0x81d79743
    1dbc:	000ba403          	lw	x8,0(x23)
    1dc0:	004b8b93          	addi	x23,x23,4

00001dc4 <I_bge_cg_cp_rs2_b29>:
I_bge_cg_cp_rs2_b29:
  bge x1, x29, 1f # perform operation
    1dc4:	01d0d463          	bge	x1,x29,1dcc <I_bge_cg_cp_rs2_b29+0x8>
  LI(x8, -1) # branch not taken, set temp_reg to 0
    1dc8:	fff00413          	addi	x8,x0,-1
1:
  # Check if x8 contains the expected result. x15 is the signature ptr, x5 is the link ptr, x4 is a temp reg.
  RVTEST_SIGUPD(x15, x5, x4, x8, I_bge_cg_cp_rs2_b29, I_bge_cg_cp_rs2_b29_str)
    1dcc:	0007a203          	lw	x4,0(x15)
    1dd0:	00820863          	beq	x4,x8,1de0 <I_bge_cg_cp_rs2_b29+0x1c>
    1dd4:	2a8082ef          	jal	x5,a07c <failedtest_x5_x4>
    1dd8:	00001dc4          	.word	0x00001dc4
    1ddc:	0000d64e          	.word	0x0000d64e
    1de0:	00478793          	addi	x15,x15,4

# Testcase cp_rs2 (Test source rs2 = x30)
  RVTEST_TESTDATA_LOAD_INT(x23, x24) # load rs1: x24 = 0x97258d74
    1de4:	000bac03          	lw	x24,0(x23)
    1de8:	004b8b93          	addi	x23,x23,4
  RVTEST_TESTDATA_LOAD_INT(x23, x30) # load rs2: x30 = 0xd1015aec
    1dec:	000baf03          	lw	x30,0(x23)
    1df0:	004b8b93          	addi	x23,x23,4
  RVTEST_TESTDATA_LOAD_INT(x23, x3) # load branch taken value: x3 = 0x98631122
    1df4:	000ba183          	lw	x3,0(x23)
    1df8:	004b8b93          	addi	x23,x23,4

00001dfc <I_bge_cg_cp_rs2_b30>:
I_bge_cg_cp_rs2_b30:
  bge x24, x30, 1f # perform operation
    1dfc:	01ec5463          	bge	x24,x30,1e04 <I_bge_cg_cp_rs2_b30+0x8>
  LI(x3, -1) # branch not taken, set temp_reg to 0
    1e00:	fff00193          	addi	x3,x0,-1
1:
  # Check if x3 contains the expected result. x15 is the signature ptr, x5 is the link ptr, x4 is a temp reg.
  RVTEST_SIGUPD(x15, x5, x4, x3, I_bge_cg_cp_rs2_b30, I_bge_cg_cp_rs2_b30_str)
    1e04:	0007a203          	lw	x4,0(x15)
    1e08:	00320863          	beq	x4,x3,1e18 <I_bge_cg_cp_rs2_b30+0x1c>
    1e0c:	270082ef          	jal	x5,a07c <failedtest_x5_x4>
    1e10:	00001dfc          	.word	0x00001dfc
    1e14:	0000d67d          	.word	0x0000d67d
    1e18:	00478793          	addi	x15,x15,4

# Testcase cp_rs2 (Test source rs2 = x31)
  RVTEST_TESTDATA_LOAD_INT(x23, x29) # load rs1: x29 = 0x3d3547ec
    1e1c:	000bae83          	lw	x29,0(x23)
    1e20:	004b8b93          	addi	x23,x23,4
  RVTEST_TESTDATA_LOAD_INT(x23, x31) # load rs2: x31 = 0xaae7bc45
    1e24:	000baf83          	lw	x31,0(x23)
    1e28:	004b8b93          	addi	x23,x23,4
  RVTEST_TESTDATA_LOAD_INT(x23, x25) # load branch taken value: x25 = 0x61fc434a
    1e2c:	000bac83          	lw	x25,0(x23)
    1e30:	004b8b93          	addi	x23,x23,4

00001e34 <I_bge_cg_cp_rs2_b31>:
I_bge_cg_cp_rs2_b31:
  bge x29, x31, 1f # perform operation
    1e34:	01fed463          	bge	x29,x31,1e3c <I_bge_cg_cp_rs2_b31+0x8>
  LI(x25, -1) # branch not taken, set temp_reg to 0
    1e38:	fff00c93          	addi	x25,x0,-1
1:
  # Check if x25 contains the expected result. x15 is the signature ptr, x5 is the link ptr, x4 is a temp reg.
  RVTEST_SIGUPD(x15, x5, x4, x25, I_bge_cg_cp_rs2_b31, I_bge_cg_cp_rs2_b31_str)
    1e3c:	0007a203          	lw	x4,0(x15)
    1e40:	01920863          	beq	x4,x25,1e50 <I_bge_cg_cp_rs2_b31+0x1c>
    1e44:	238082ef          	jal	x5,a07c <failedtest_x5_x4>
    1e48:	00001e34          	.word	0x00001e34
    1e4c:	0000d6ac          	.word	0x0000d6ac
    1e50:	00478793          	addi	x15,x15,4
/////////////////////////////////
// cp_rs1_edges
/////////////////////////////////

# Testcase cp_rs1_edges (Test source rs1 value = 0x00000000)
  RVTEST_TESTDATA_LOAD_INT(x23, x20) # load rs1: x20 = 0x00000000
    1e54:	000baa03          	lw	x20,0(x23)
    1e58:	004b8b93          	addi	x23,x23,4
  RVTEST_TESTDATA_LOAD_INT(x23, x25) # load rs2: x25 = 0x698f782c
    1e5c:	000bac83          	lw	x25,0(x23)
    1e60:	004b8b93          	addi	x23,x23,4
  RVTEST_TESTDATA_LOAD_INT(x23, x9) # load branch taken value: x9 = 0x760cc178
    1e64:	000ba483          	lw	x9,0(x23)
    1e68:	004b8b93          	addi	x23,x23,4

00001e6c <I_bge_cg_cp_rs1_edges_0x0>:
I_bge_cg_cp_rs1_edges_0x0:
  bge x20, x25, 1f # perform operation
    1e6c:	019a5463          	bge	x20,x25,1e74 <I_bge_cg_cp_rs1_edges_0x0+0x8>
  LI(x9, -1) # branch not taken, set temp_reg to 0
    1e70:	fff00493          	addi	x9,x0,-1
1:
  # Check if x9 contains the expected result. x15 is the signature ptr, x5 is the link ptr, x4 is a temp reg.
  RVTEST_SIGUPD(x15, x5, x4, x9, I_bge_cg_cp_rs1_edges_0x0, I_bge_cg_cp_rs1_edges_0x0_str)
    1e74:	0007a203          	lw	x4,0(x15)
    1e78:	00920863          	beq	x4,x9,1e88 <I_bge_cg_cp_rs1_edges_0x0+0x1c>
    1e7c:	200082ef          	jal	x5,a07c <failedtest_x5_x4>
    1e80:	00001e6c          	.word	0x00001e6c
    1e84:	0000d6db          	.word	0x0000d6db
    1e88:	00478793          	addi	x15,x15,4

# Testcase cp_rs1_edges (Test source rs1 value = 0x00000001)
  RVTEST_TESTDATA_LOAD_INT(x23, x16) # load rs1: x16 = 0x00000001
    1e8c:	000ba803          	lw	x16,0(x23)
    1e90:	004b8b93          	addi	x23,x23,4
  RVTEST_TESTDATA_LOAD_INT(x23, x20) # load rs2: x20 = 0x0f454c33
    1e94:	000baa03          	lw	x20,0(x23)
    1e98:	004b8b93          	addi	x23,x23,4
  RVTEST_TESTDATA_LOAD_INT(x23, x9) # load branch taken value: x9 = 0x6ebd4726
    1e9c:	000ba483          	lw	x9,0(x23)
    1ea0:	004b8b93          	addi	x23,x23,4

00001ea4 <I_bge_cg_cp_rs1_edges_0x1>:
I_bge_cg_cp_rs1_edges_0x1:
  bge x16, x20, 1f # perform operation
    1ea4:	01485463          	bge	x16,x20,1eac <I_bge_cg_cp_rs1_edges_0x1+0x8>
  LI(x9, -1) # branch not taken, set temp_reg to 0
    1ea8:	fff00493          	addi	x9,x0,-1
1:
  # Check if x9 contains the expected result. x15 is the signature ptr, x5 is the link ptr, x4 is a temp reg.
  RVTEST_SIGUPD(x15, x5, x4, x9, I_bge_cg_cp_rs1_edges_0x1, I_bge_cg_cp_rs1_edges_0x1_str)
    1eac:	0007a203          	lw	x4,0(x15)
    1eb0:	00920863          	beq	x4,x9,1ec0 <I_bge_cg_cp_rs1_edges_0x1+0x1c>
    1eb4:	1c8082ef          	jal	x5,a07c <failedtest_x5_x4>
    1eb8:	00001ea4          	.word	0x00001ea4
    1ebc:	0000d710          	.word	0x0000d710
    1ec0:	00478793          	addi	x15,x15,4

# Testcase cp_rs1_edges (Test source rs1 value = 0x00000002)
  RVTEST_TESTDATA_LOAD_INT(x23, x24) # load rs1: x24 = 0x00000002
    1ec4:	000bac03          	lw	x24,0(x23)
    1ec8:	004b8b93          	addi	x23,x23,4
  RVTEST_TESTDATA_LOAD_INT(x23, x28) # load rs2: x28 = 0x747c250e
    1ecc:	000bae03          	lw	x28,0(x23)
    1ed0:	004b8b93          	addi	x23,x23,4
  RVTEST_TESTDATA_LOAD_INT(x23, x18) # load branch taken value: x18 = 0xb6d6bc02
    1ed4:	000ba903          	lw	x18,0(x23)
    1ed8:	004b8b93          	addi	x23,x23,4

00001edc <I_bge_cg_cp_rs1_edges_0x2>:
I_bge_cg_cp_rs1_edges_0x2:
  bge x24, x28, 1f # perform operation
    1edc:	01cc5463          	bge	x24,x28,1ee4 <I_bge_cg_cp_rs1_edges_0x2+0x8>
  LI(x18, -1) # branch not taken, set temp_reg to 0
    1ee0:	fff00913          	addi	x18,x0,-1
1:
  # Check if x18 contains the expected result. x15 is the signature ptr, x5 is the link ptr, x4 is a temp reg.
  RVTEST_SIGUPD(x15, x5, x4, x18, I_bge_cg_cp_rs1_edges_0x2, I_bge_cg_cp_rs1_edges_0x2_str)
    1ee4:	0007a203          	lw	x4,0(x15)
    1ee8:	01220863          	beq	x4,x18,1ef8 <I_bge_cg_cp_rs1_edges_0x2+0x1c>
    1eec:	190082ef          	jal	x5,a07c <failedtest_x5_x4>
    1ef0:	00001edc          	.word	0x00001edc
    1ef4:	0000d745          	.word	0x0000d745
    1ef8:	00478793          	addi	x15,x15,4

# Testcase cp_rs1_edges (Test source rs1 value = 0x80000000)
  RVTEST_TESTDATA_LOAD_INT(x23, x8) # load rs1: x8 = 0x80000000
    1efc:	000ba403          	lw	x8,0(x23)
    1f00:	004b8b93          	addi	x23,x23,4
  RVTEST_TESTDATA_LOAD_INT(x23, x24) # load rs2: x24 = 0x77d4056b
    1f04:	000bac03          	lw	x24,0(x23)
    1f08:	004b8b93          	addi	x23,x23,4
  RVTEST_TESTDATA_LOAD_INT(x23, x25) # load branch taken value: x25 = 0x6bfec991
    1f0c:	000bac83          	lw	x25,0(x23)
    1f10:	004b8b93          	addi	x23,x23,4

00001f14 <I_bge_cg_cp_rs1_edges_0x80000000>:
I_bge_cg_cp_rs1_edges_0x80000000:
  bge x8, x24, 1f # perform operation
    1f14:	01845463          	bge	x8,x24,1f1c <I_bge_cg_cp_rs1_edges_0x80000000+0x8>
  LI(x25, -1) # branch not taken, set temp_reg to 0
    1f18:	fff00c93          	addi	x25,x0,-1
1:
  # Check if x25 contains the expected result. x15 is the signature ptr, x5 is the link ptr, x4 is a temp reg.
  RVTEST_SIGUPD(x15, x5, x4, x25, I_bge_cg_cp_rs1_edges_0x80000000, I_bge_cg_cp_rs1_edges_0x80000000_str)
    1f1c:	0007a203          	lw	x4,0(x15)
    1f20:	01920863          	beq	x4,x25,1f30 <I_bge_cg_cp_rs1_edges_0x80000000+0x1c>
    1f24:	158082ef          	jal	x5,a07c <failedtest_x5_x4>
    1f28:	00001f14          	.word	0x00001f14
    1f2c:	0000d77a          	.word	0x0000d77a
    1f30:	00478793          	addi	x15,x15,4

# Testcase cp_rs1_edges (Test source rs1 value = 0x80000001)
  RVTEST_TESTDATA_LOAD_INT(x23, x29) # load rs1: x29 = 0x80000001
    1f34:	000bae83          	lw	x29,0(x23)
    1f38:	004b8b93          	addi	x23,x23,4
  RVTEST_TESTDATA_LOAD_INT(x23, x18) # load rs2: x18 = 0xf3857dc9
    1f3c:	000ba903          	lw	x18,0(x23)
    1f40:	004b8b93          	addi	x23,x23,4
  RVTEST_TESTDATA_LOAD_INT(x23, x11) # load branch taken value: x11 = 0xf6b94c3f
    1f44:	000ba583          	lw	x11,0(x23)
    1f48:	004b8b93          	addi	x23,x23,4

00001f4c <I_bge_cg_cp_rs1_edges_0x80000001>:
I_bge_cg_cp_rs1_edges_0x80000001:
  bge x29, x18, 1f # perform operation
    1f4c:	012ed463          	bge	x29,x18,1f54 <I_bge_cg_cp_rs1_edges_0x80000001+0x8>
  LI(x11, -1) # branch not taken, set temp_reg to 0
    1f50:	fff00593          	addi	x11,x0,-1
1:
  # Check if x11 contains the expected result. x15 is the signature ptr, x5 is the link ptr, x4 is a temp reg.
  RVTEST_SIGUPD(x15, x5, x4, x11, I_bge_cg_cp_rs1_edges_0x80000001, I_bge_cg_cp_rs1_edges_0x80000001_str)
    1f54:	0007a203          	lw	x4,0(x15)
    1f58:	00b20863          	beq	x4,x11,1f68 <I_bge_cg_cp_rs1_edges_0x80000001+0x1c>
    1f5c:	120082ef          	jal	x5,a07c <failedtest_x5_x4>
    1f60:	00001f4c          	.word	0x00001f4c
    1f64:	0000d7b6          	.word	0x0000d7b6
    1f68:	00478793          	addi	x15,x15,4

# Testcase cp_rs1_edges (Test source rs1 value = 0x7fffffff)
  RVTEST_TESTDATA_LOAD_INT(x23, x21) # load rs1: x21 = 0x7fffffff
    1f6c:	000baa83          	lw	x21,0(x23)
    1f70:	004b8b93          	addi	x23,x23,4
  RVTEST_TESTDATA_LOAD_INT(x23, x31) # load rs2: x31 = 0xbbc9c67f
    1f74:	000baf83          	lw	x31,0(x23)
    1f78:	004b8b93          	addi	x23,x23,4
  RVTEST_TESTDATA_LOAD_INT(x23, x16) # load branch taken value: x16 = 0xba0bfdac
    1f7c:	000ba803          	lw	x16,0(x23)
    1f80:	004b8b93          	addi	x23,x23,4

00001f84 <I_bge_cg_cp_rs1_edges_0x7fffffff>:
I_bge_cg_cp_rs1_edges_0x7fffffff:
  bge x21, x31, 1f # perform operation
    1f84:	01fad463          	bge	x21,x31,1f8c <I_bge_cg_cp_rs1_edges_0x7fffffff+0x8>
  LI(x16, -1) # branch not taken, set temp_reg to 0
    1f88:	fff00813          	addi	x16,x0,-1
1:
  # Check if x16 contains the expected result. x15 is the signature ptr, x5 is the link ptr, x4 is a temp reg.
  RVTEST_SIGUPD(x15, x5, x4, x16, I_bge_cg_cp_rs1_edges_0x7fffffff, I_bge_cg_cp_rs1_edges_0x7fffffff_str)
    1f8c:	0007a203          	lw	x4,0(x15)
    1f90:	01020863          	beq	x4,x16,1fa0 <I_bge_cg_cp_rs1_edges_0x7fffffff+0x1c>
    1f94:	0e8082ef          	jal	x5,a07c <failedtest_x5_x4>
    1f98:	00001f84          	.word	0x00001f84
    1f9c:	0000d7f2          	.word	0x0000d7f2
    1fa0:	00478793          	addi	x15,x15,4

# Testcase cp_rs1_edges (Test source rs1 value = 0x7ffffffe)
  RVTEST_TESTDATA_LOAD_INT(x23, x9) # load rs1: x9 = 0x7ffffffe
    1fa4:	000ba483          	lw	x9,0(x23)
    1fa8:	004b8b93          	addi	x23,x23,4
  RVTEST_TESTDATA_LOAD_INT(x23, x18) # load rs2: x18 = 0x7259c84e
    1fac:	000ba903          	lw	x18,0(x23)
    1fb0:	004b8b93          	addi	x23,x23,4
  RVTEST_TESTDATA_LOAD_INT(x23, x30) # load branch taken value: x30 = 0x0b00fa45
    1fb4:	000baf03          	lw	x30,0(x23)
    1fb8:	004b8b93          	addi	x23,x23,4

00001fbc <I_bge_cg_cp_rs1_edges_0x7ffffffe>:
I_bge_cg_cp_rs1_edges_0x7ffffffe:
  bge x9, x18, 1f # perform operation
    1fbc:	0124d463          	bge	x9,x18,1fc4 <I_bge_cg_cp_rs1_edges_0x7ffffffe+0x8>
  LI(x30, -1) # branch not taken, set temp_reg to 0
    1fc0:	fff00f13          	addi	x30,x0,-1
1:
  # Check if x30 contains the expected result. x15 is the signature ptr, x5 is the link ptr, x4 is a temp reg.
  RVTEST_SIGUPD(x15, x5, x4, x30, I_bge_cg_cp_rs1_edges_0x7ffffffe, I_bge_cg_cp_rs1_edges_0x7ffffffe_str)
    1fc4:	0007a203          	lw	x4,0(x15)
    1fc8:	01e20863          	beq	x4,x30,1fd8 <I_bge_cg_cp_rs1_edges_0x7ffffffe+0x1c>
    1fcc:	0b0082ef          	jal	x5,a07c <failedtest_x5_x4>
    1fd0:	00001fbc          	.word	0x00001fbc
    1fd4:	0000d82e          	.word	0x0000d82e
    1fd8:	00478793          	addi	x15,x15,4

# Testcase cp_rs1_edges (Test source rs1 value = 0xffffffff)
  RVTEST_TESTDATA_LOAD_INT(x23, x18) # load rs1: x18 = 0xffffffff
    1fdc:	000ba903          	lw	x18,0(x23)
    1fe0:	004b8b93          	addi	x23,x23,4
  RVTEST_TESTDATA_LOAD_INT(x23, x27) # load rs2: x27 = 0x1efbe19e
    1fe4:	000bad83          	lw	x27,0(x23)
    1fe8:	004b8b93          	addi	x23,x23,4
  RVTEST_TESTDATA_LOAD_INT(x23, x26) # load branch taken value: x26 = 0x9023e67f
    1fec:	000bad03          	lw	x26,0(x23)
    1ff0:	004b8b93          	addi	x23,x23,4

00001ff4 <I_bge_cg_cp_rs1_edges_0xffffffff>:
I_bge_cg_cp_rs1_edges_0xffffffff:
  bge x18, x27, 1f # perform operation
    1ff4:	01b95463          	bge	x18,x27,1ffc <I_bge_cg_cp_rs1_edges_0xffffffff+0x8>
  LI(x26, -1) # branch not taken, set temp_reg to 0
    1ff8:	fff00d13          	addi	x26,x0,-1
1:
  # Check if x26 contains the expected result. x15 is the signature ptr, x5 is the link ptr, x4 is a temp reg.
  RVTEST_SIGUPD(x15, x5, x4, x26, I_bge_cg_cp_rs1_edges_0xffffffff, I_bge_cg_cp_rs1_edges_0xffffffff_str)
    1ffc:	0007a203          	lw	x4,0(x15)
    2000:	01a20863          	beq	x4,x26,2010 <I_bge_cg_cp_rs1_edges_0xffffffff+0x1c>
    2004:	078082ef          	jal	x5,a07c <failedtest_x5_x4>
    2008:	00001ff4          	.word	0x00001ff4
    200c:	0000d86a          	.word	0x0000d86a
    2010:	00478793          	addi	x15,x15,4

# Testcase cp_rs1_edges (Test source rs1 value = 0xfffffffe)
  RVTEST_TESTDATA_LOAD_INT(x23, x3) # load rs1: x3 = 0xfffffffe
    2014:	000ba183          	lw	x3,0(x23)
    2018:	004b8b93          	addi	x23,x23,4
  RVTEST_TESTDATA_LOAD_INT(x23, x29) # load rs2: x29 = 0x569c3b14
    201c:	000bae83          	lw	x29,0(x23)
    2020:	004b8b93          	addi	x23,x23,4
  RVTEST_TESTDATA_LOAD_INT(x23, x16) # load branch taken value: x16 = 0x56bcda32
    2024:	000ba803          	lw	x16,0(x23)
    2028:	004b8b93          	addi	x23,x23,4

0000202c <I_bge_cg_cp_rs1_edges_0xfffffffe>:
I_bge_cg_cp_rs1_edges_0xfffffffe:
  bge x3, x29, 1f # perform operation
    202c:	01d1d463          	bge	x3,x29,2034 <I_bge_cg_cp_rs1_edges_0xfffffffe+0x8>
  LI(x16, -1) # branch not taken, set temp_reg to 0
    2030:	fff00813          	addi	x16,x0,-1
1:
  # Check if x16 contains the expected result. x15 is the signature ptr, x5 is the link ptr, x4 is a temp reg.
  RVTEST_SIGUPD(x15, x5, x4, x16, I_bge_cg_cp_rs1_edges_0xfffffffe, I_bge_cg_cp_rs1_edges_0xfffffffe_str)
    2034:	0007a203          	lw	x4,0(x15)
    2038:	01020863          	beq	x4,x16,2048 <I_bge_cg_cp_rs1_edges_0xfffffffe+0x1c>
    203c:	040082ef          	jal	x5,a07c <failedtest_x5_x4>
    2040:	0000202c          	.word	0x0000202c
    2044:	0000d8a6          	.word	0x0000d8a6
    2048:	00478793          	addi	x15,x15,4

# Testcase cp_rs1_edges (Test source rs1 value = 0x5bbc8872)
  RVTEST_TESTDATA_LOAD_INT(x23, x18) # load rs1: x18 = 0x5bbc8872
    204c:	000ba903          	lw	x18,0(x23)
    2050:	004b8b93          	addi	x23,x23,4
  RVTEST_TESTDATA_LOAD_INT(x23, x2) # load rs2: x2 = 0x9ec02664
    2054:	000ba103          	lw	x2,0(x23)
    2058:	004b8b93          	addi	x23,x23,4
  RVTEST_TESTDATA_LOAD_INT(x23, x30) # load branch taken value: x30 = 0x9b0fbd84
    205c:	000baf03          	lw	x30,0(x23)
    2060:	004b8b93          	addi	x23,x23,4

00002064 <I_bge_cg_cp_rs1_edges_0x5bbc8872>:
I_bge_cg_cp_rs1_edges_0x5bbc8872:
  bge x18, x2, 1f # perform operation
    2064:	00295463          	bge	x18,x2,206c <I_bge_cg_cp_rs1_edges_0x5bbc8872+0x8>
  LI(x30, -1) # branch not taken, set temp_reg to 0
    2068:	fff00f13          	addi	x30,x0,-1
1:
  # Check if x30 contains the expected result. x15 is the signature ptr, x5 is the link ptr, x4 is a temp reg.
  RVTEST_SIGUPD(x15, x5, x4, x30, I_bge_cg_cp_rs1_edges_0x5bbc8872, I_bge_cg_cp_rs1_edges_0x5bbc8872_str)
    206c:	0007a203          	lw	x4,0(x15)
    2070:	01e20863          	beq	x4,x30,2080 <I_bge_cg_cp_rs1_edges_0x5bbc8872+0x1c>
    2074:	008082ef          	jal	x5,a07c <failedtest_x5_x4>
    2078:	00002064          	.word	0x00002064
    207c:	0000d8e2          	.word	0x0000d8e2
    2080:	00478793          	addi	x15,x15,4

# Testcase cp_rs1_edges (Test source rs1 value = 0xaaaaaaaa)
  RVTEST_TESTDATA_LOAD_INT(x23, x1) # load rs1: x1 = 0xaaaaaaaa
    2084:	000ba083          	lw	x1,0(x23)
    2088:	004b8b93          	addi	x23,x23,4
  RVTEST_TESTDATA_LOAD_INT(x23, x9) # load rs2: x9 = 0x65d23f22
    208c:	000ba483          	lw	x9,0(x23)
    2090:	004b8b93          	addi	x23,x23,4
  RVTEST_TESTDATA_LOAD_INT(x23, x21) # load branch taken value: x21 = 0xd40243ad
    2094:	000baa83          	lw	x21,0(x23)
    2098:	004b8b93          	addi	x23,x23,4

0000209c <I_bge_cg_cp_rs1_edges_0xaaaaaaaa>:
I_bge_cg_cp_rs1_edges_0xaaaaaaaa:
  bge x1, x9, 1f # perform operation
    209c:	0090d463          	bge	x1,x9,20a4 <I_bge_cg_cp_rs1_edges_0xaaaaaaaa+0x8>
  LI(x21, -1) # branch not taken, set temp_reg to 0
    20a0:	fff00a93          	addi	x21,x0,-1
1:
  # Check if x21 contains the expected result. x15 is the signature ptr, x5 is the link ptr, x4 is a temp reg.
  RVTEST_SIGUPD(x15, x5, x4, x21, I_bge_cg_cp_rs1_edges_0xaaaaaaaa, I_bge_cg_cp_rs1_edges_0xaaaaaaaa_str)
    20a4:	0007a203          	lw	x4,0(x15)
    20a8:	01520863          	beq	x4,x21,20b8 <I_bge_cg_cp_rs1_edges_0xaaaaaaaa+0x1c>
    20ac:	7d1072ef          	jal	x5,a07c <failedtest_x5_x4>
    20b0:	0000209c          	.word	0x0000209c
    20b4:	0000d91e          	.word	0x0000d91e
    20b8:	00478793          	addi	x15,x15,4

# Testcase cp_rs1_edges (Test source rs1 value = 0x55555555)
  RVTEST_TESTDATA_LOAD_INT(x23, x30) # load rs1: x30 = 0x55555555
    20bc:	000baf03          	lw	x30,0(x23)
    20c0:	004b8b93          	addi	x23,x23,4
  RVTEST_TESTDATA_LOAD_INT(x23, x22) # load rs2: x22 = 0x26eafeed
    20c4:	000bab03          	lw	x22,0(x23)
    20c8:	004b8b93          	addi	x23,x23,4
  RVTEST_TESTDATA_LOAD_INT(x23, x14) # load branch taken value: x14 = 0x83b0a1cf
    20cc:	000ba703          	lw	x14,0(x23)
    20d0:	004b8b93          	addi	x23,x23,4

000020d4 <I_bge_cg_cp_rs1_edges_0x55555555>:
I_bge_cg_cp_rs1_edges_0x55555555:
  bge x30, x22, 1f # perform operation
    20d4:	016f5463          	bge	x30,x22,20dc <I_bge_cg_cp_rs1_edges_0x55555555+0x8>
  LI(x14, -1) # branch not taken, set temp_reg to 0
    20d8:	fff00713          	addi	x14,x0,-1
1:
  # Check if x14 contains the expected result. x15 is the signature ptr, x5 is the link ptr, x4 is a temp reg.
  RVTEST_SIGUPD(x15, x5, x4, x14, I_bge_cg_cp_rs1_edges_0x55555555, I_bge_cg_cp_rs1_edges_0x55555555_str)
    20dc:	0007a203          	lw	x4,0(x15)
    20e0:	00e20863          	beq	x4,x14,20f0 <I_bge_cg_cp_rs1_edges_0x55555555+0x1c>
    20e4:	799072ef          	jal	x5,a07c <failedtest_x5_x4>
    20e8:	000020d4          	.word	0x000020d4
    20ec:	0000d95a          	.word	0x0000d95a
    20f0:	00478793          	addi	x15,x15,4
/////////////////////////////////
// cp_rs2_edges
/////////////////////////////////

# Testcase cp_rs2_edges (Test source rs2 value = 0x00000000)
  RVTEST_TESTDATA_LOAD_INT(x23, x18) # load rs1: x18 = 0xa43b3a53
    20f4:	000ba903          	lw	x18,0(x23)
    20f8:	004b8b93          	addi	x23,x23,4
  RVTEST_TESTDATA_LOAD_INT(x23, x29) # load rs2: x29 = 0x00000000
    20fc:	000bae83          	lw	x29,0(x23)
    2100:	004b8b93          	addi	x23,x23,4
  RVTEST_TESTDATA_LOAD_INT(x23, x10) # load branch taken value: x10 = 0x730d29e4
    2104:	000ba503          	lw	x10,0(x23)
    2108:	004b8b93          	addi	x23,x23,4

0000210c <I_bge_cg_cp_rs2_edges_0x0>:
I_bge_cg_cp_rs2_edges_0x0:
  bge x18, x29, 1f # perform operation
    210c:	01d95463          	bge	x18,x29,2114 <I_bge_cg_cp_rs2_edges_0x0+0x8>
  LI(x10, -1) # branch not taken, set temp_reg to 0
    2110:	fff00513          	addi	x10,x0,-1
1:
  # Check if x10 contains the expected result. x15 is the signature ptr, x5 is the link ptr, x4 is a temp reg.
  RVTEST_SIGUPD(x15, x5, x4, x10, I_bge_cg_cp_rs2_edges_0x0, I_bge_cg_cp_rs2_edges_0x0_str)
    2114:	0007a203          	lw	x4,0(x15)
    2118:	00a20863          	beq	x4,x10,2128 <I_bge_cg_cp_rs2_edges_0x0+0x1c>
    211c:	761072ef          	jal	x5,a07c <failedtest_x5_x4>
    2120:	0000210c          	.word	0x0000210c
    2124:	0000d996          	.word	0x0000d996
    2128:	00478793          	addi	x15,x15,4

# Testcase cp_rs2_edges (Test source rs2 value = 0x00000001)
  RVTEST_TESTDATA_LOAD_INT(x23, x24) # load rs1: x24 = 0xeb81be2c
    212c:	000bac03          	lw	x24,0(x23)
    2130:	004b8b93          	addi	x23,x23,4
  RVTEST_TESTDATA_LOAD_INT(x23, x3) # load rs2: x3 = 0x00000001
    2134:	000ba183          	lw	x3,0(x23)
    2138:	004b8b93          	addi	x23,x23,4
  RVTEST_TESTDATA_LOAD_INT(x23, x25) # load branch taken value: x25 = 0x5660c717
    213c:	000bac83          	lw	x25,0(x23)
    2140:	004b8b93          	addi	x23,x23,4

00002144 <I_bge_cg_cp_rs2_edges_0x1>:
I_bge_cg_cp_rs2_edges_0x1:
  bge x24, x3, 1f # perform operation
    2144:	003c5463          	bge	x24,x3,214c <I_bge_cg_cp_rs2_edges_0x1+0x8>
  LI(x25, -1) # branch not taken, set temp_reg to 0
    2148:	fff00c93          	addi	x25,x0,-1
1:
  # Check if x25 contains the expected result. x15 is the signature ptr, x5 is the link ptr, x4 is a temp reg.
  RVTEST_SIGUPD(x15, x5, x4, x25, I_bge_cg_cp_rs2_edges_0x1, I_bge_cg_cp_rs2_edges_0x1_str)
    214c:	0007a203          	lw	x4,0(x15)
    2150:	01920863          	beq	x4,x25,2160 <I_bge_cg_cp_rs2_edges_0x1+0x1c>
    2154:	729072ef          	jal	x5,a07c <failedtest_x5_x4>
    2158:	00002144          	.word	0x00002144
    215c:	0000d9cb          	.word	0x0000d9cb
    2160:	00478793          	addi	x15,x15,4

# Testcase cp_rs2_edges (Test source rs2 value = 0x00000002)
  RVTEST_TESTDATA_LOAD_INT(x23, x31) # load rs1: x31 = 0xb7da765f
    2164:	000baf83          	lw	x31,0(x23)
    2168:	004b8b93          	addi	x23,x23,4
  RVTEST_TESTDATA_LOAD_INT(x23, x14) # load rs2: x14 = 0x00000002
    216c:	000ba703          	lw	x14,0(x23)
    2170:	004b8b93          	addi	x23,x23,4
  RVTEST_TESTDATA_LOAD_INT(x23, x3) # load branch taken value: x3 = 0xcc5a8e54
    2174:	000ba183          	lw	x3,0(x23)
    2178:	004b8b93          	addi	x23,x23,4

0000217c <I_bge_cg_cp_rs2_edges_0x2>:
I_bge_cg_cp_rs2_edges_0x2:
  bge x31, x14, 1f # perform operation
    217c:	00efd463          	bge	x31,x14,2184 <I_bge_cg_cp_rs2_edges_0x2+0x8>
  LI(x3, -1) # branch not taken, set temp_reg to 0
    2180:	fff00193          	addi	x3,x0,-1
1:
  # Check if x3 contains the expected result. x15 is the signature ptr, x5 is the link ptr, x4 is a temp reg.
  RVTEST_SIGUPD(x15, x5, x4, x3, I_bge_cg_cp_rs2_edges_0x2, I_bge_cg_cp_rs2_edges_0x2_str)
    2184:	0007a203          	lw	x4,0(x15)
    2188:	00320863          	beq	x4,x3,2198 <I_bge_cg_cp_rs2_edges_0x2+0x1c>
    218c:	6f1072ef          	jal	x5,a07c <failedtest_x5_x4>
    2190:	0000217c          	.word	0x0000217c
    2194:	0000da00          	.word	0x0000da00
    2198:	00478793          	addi	x15,x15,4

# Testcase cp_rs2_edges (Test source rs2 value = 0x80000000)
  RVTEST_TESTDATA_LOAD_INT(x23, x8) # load rs1: x8 = 0x13caa878
    219c:	000ba403          	lw	x8,0(x23)
    21a0:	004b8b93          	addi	x23,x23,4
  RVTEST_TESTDATA_LOAD_INT(x23, x12) # load rs2: x12 = 0x80000000
    21a4:	000ba603          	lw	x12,0(x23)
    21a8:	004b8b93          	addi	x23,x23,4
  RVTEST_TESTDATA_LOAD_INT(x23, x1) # load branch taken value: x1 = 0x0b3a4c8c
    21ac:	000ba083          	lw	x1,0(x23)
    21b0:	004b8b93          	addi	x23,x23,4

000021b4 <I_bge_cg_cp_rs2_edges_0x80000000>:
I_bge_cg_cp_rs2_edges_0x80000000:
  bge x8, x12, 1f # perform operation
    21b4:	00c45463          	bge	x8,x12,21bc <I_bge_cg_cp_rs2_edges_0x80000000+0x8>
  LI(x1, -1) # branch not taken, set temp_reg to 0
    21b8:	fff00093          	addi	x1,x0,-1
1:
  # Check if x1 contains the expected result. x15 is the signature ptr, x5 is the link ptr, x4 is a temp reg.
  RVTEST_SIGUPD(x15, x5, x4, x1, I_bge_cg_cp_rs2_edges_0x80000000, I_bge_cg_cp_rs2_edges_0x80000000_str)
    21bc:	0007a203          	lw	x4,0(x15)
    21c0:	00120863          	beq	x4,x1,21d0 <I_bge_cg_cp_rs2_edges_0x80000000+0x1c>
    21c4:	6b9072ef          	jal	x5,a07c <failedtest_x5_x4>
    21c8:	000021b4          	.word	0x000021b4
    21cc:	0000da35          	.word	0x0000da35
    21d0:	00478793          	addi	x15,x15,4

# Testcase cp_rs2_edges (Test source rs2 value = 0x80000001)
  RVTEST_TESTDATA_LOAD_INT(x23, x27) # load rs1: x27 = 0x43830bf3
    21d4:	000bad83          	lw	x27,0(x23)
    21d8:	004b8b93          	addi	x23,x23,4
  RVTEST_TESTDATA_LOAD_INT(x23, x25) # load rs2: x25 = 0x80000001
    21dc:	000bac83          	lw	x25,0(x23)
    21e0:	004b8b93          	addi	x23,x23,4
  RVTEST_TESTDATA_LOAD_INT(x23, x3) # load branch taken value: x3 = 0x4af8da32
    21e4:	000ba183          	lw	x3,0(x23)
    21e8:	004b8b93          	addi	x23,x23,4

000021ec <I_bge_cg_cp_rs2_edges_0x80000001>:
I_bge_cg_cp_rs2_edges_0x80000001:
  bge x27, x25, 1f # perform operation
    21ec:	019dd463          	bge	x27,x25,21f4 <I_bge_cg_cp_rs2_edges_0x80000001+0x8>
  LI(x3, -1) # branch not taken, set temp_reg to 0
    21f0:	fff00193          	addi	x3,x0,-1
1:
  # Check if x3 contains the expected result. x15 is the signature ptr, x5 is the link ptr, x4 is a temp reg.
  RVTEST_SIGUPD(x15, x5, x4, x3, I_bge_cg_cp_rs2_edges_0x80000001, I_bge_cg_cp_rs2_edges_0x80000001_str)
    21f4:	0007a203          	lw	x4,0(x15)
    21f8:	00320863          	beq	x4,x3,2208 <I_bge_cg_cp_rs2_edges_0x80000001+0x1c>
    21fc:	681072ef          	jal	x5,a07c <failedtest_x5_x4>
    2200:	000021ec          	.word	0x000021ec
    2204:	0000da71          	.word	0x0000da71
    2208:	00478793          	addi	x15,x15,4

# Testcase cp_rs2_edges (Test source rs2 value = 0x7fffffff)
  RVTEST_TESTDATA_LOAD_INT(x23, x14) # load rs1: x14 = 0x5f09eb88
    220c:	000ba703          	lw	x14,0(x23)
    2210:	004b8b93          	addi	x23,x23,4
  RVTEST_TESTDATA_LOAD_INT(x23, x28) # load rs2: x28 = 0x7fffffff
    2214:	000bae03          	lw	x28,0(x23)
    2218:	004b8b93          	addi	x23,x23,4
  RVTEST_TESTDATA_LOAD_INT(x23, x6) # load branch taken value: x6 = 0x95f55a9f
    221c:	000ba303          	lw	x6,0(x23)
    2220:	004b8b93          	addi	x23,x23,4

00002224 <I_bge_cg_cp_rs2_edges_0x7fffffff>:
I_bge_cg_cp_rs2_edges_0x7fffffff:
  bge x14, x28, 1f # perform operation
    2224:	01c75463          	bge	x14,x28,222c <I_bge_cg_cp_rs2_edges_0x7fffffff+0x8>
  LI(x6, -1) # branch not taken, set temp_reg to 0
    2228:	fff00313          	addi	x6,x0,-1
1:
  # Check if x6 contains the expected result. x15 is the signature ptr, x5 is the link ptr, x4 is a temp reg.
  RVTEST_SIGUPD(x15, x5, x4, x6, I_bge_cg_cp_rs2_edges_0x7fffffff, I_bge_cg_cp_rs2_edges_0x7fffffff_str)
    222c:	0007a203          	lw	x4,0(x15)
    2230:	00620863          	beq	x4,x6,2240 <I_bge_cg_cp_rs2_edges_0x7fffffff+0x1c>
    2234:	649072ef          	jal	x5,a07c <failedtest_x5_x4>
    2238:	00002224          	.word	0x00002224
    223c:	0000daad          	.word	0x0000daad
    2240:	00478793          	addi	x15,x15,4

# Testcase cp_rs2_edges (Test source rs2 value = 0x7ffffffe)
  RVTEST_TESTDATA_LOAD_INT(x23, x18) # load rs1: x18 = 0x270dadbe
    2244:	000ba903          	lw	x18,0(x23)
    2248:	004b8b93          	addi	x23,x23,4
  RVTEST_TESTDATA_LOAD_INT(x23, x12) # load rs2: x12 = 0x7ffffffe
    224c:	000ba603          	lw	x12,0(x23)
    2250:	004b8b93          	addi	x23,x23,4
  RVTEST_TESTDATA_LOAD_INT(x23, x20) # load branch taken value: x20 = 0x5080ae6a
    2254:	000baa03          	lw	x20,0(x23)
    2258:	004b8b93          	addi	x23,x23,4

0000225c <I_bge_cg_cp_rs2_edges_0x7ffffffe>:
I_bge_cg_cp_rs2_edges_0x7ffffffe:
  bge x18, x12, 1f # perform operation
    225c:	00c95463          	bge	x18,x12,2264 <I_bge_cg_cp_rs2_edges_0x7ffffffe+0x8>
  LI(x20, -1) # branch not taken, set temp_reg to 0
    2260:	fff00a13          	addi	x20,x0,-1
1:
  # Check if x20 contains the expected result. x15 is the signature ptr, x5 is the link ptr, x4 is a temp reg.
  RVTEST_SIGUPD(x15, x5, x4, x20, I_bge_cg_cp_rs2_edges_0x7ffffffe, I_bge_cg_cp_rs2_edges_0x7ffffffe_str)
    2264:	0007a203          	lw	x4,0(x15)
    2268:	01420863          	beq	x4,x20,2278 <I_bge_cg_cp_rs2_edges_0x7ffffffe+0x1c>
    226c:	611072ef          	jal	x5,a07c <failedtest_x5_x4>
    2270:	0000225c          	.word	0x0000225c
    2274:	0000dae9          	.word	0x0000dae9
    2278:	00478793          	addi	x15,x15,4

# Testcase cp_rs2_edges (Test source rs2 value = 0xffffffff)
  RVTEST_TESTDATA_LOAD_INT(x23, x31) # load rs1: x31 = 0xa6a5fe74
    227c:	000baf83          	lw	x31,0(x23)
    2280:	004b8b93          	addi	x23,x23,4
  RVTEST_TESTDATA_LOAD_INT(x23, x16) # load rs2: x16 = 0xffffffff
    2284:	000ba803          	lw	x16,0(x23)
    2288:	004b8b93          	addi	x23,x23,4
  RVTEST_TESTDATA_LOAD_INT(x23, x10) # load branch taken value: x10 = 0x3dece71e
    228c:	000ba503          	lw	x10,0(x23)
    2290:	004b8b93          	addi	x23,x23,4

00002294 <I_bge_cg_cp_rs2_edges_0xffffffff>:
I_bge_cg_cp_rs2_edges_0xffffffff:
  bge x31, x16, 1f # perform operation
    2294:	010fd463          	bge	x31,x16,229c <I_bge_cg_cp_rs2_edges_0xffffffff+0x8>
  LI(x10, -1) # branch not taken, set temp_reg to 0
    2298:	fff00513          	addi	x10,x0,-1
1:
  # Check if x10 contains the expected result. x15 is the signature ptr, x5 is the link ptr, x4 is a temp reg.
  RVTEST_SIGUPD(x15, x5, x4, x10, I_bge_cg_cp_rs2_edges_0xffffffff, I_bge_cg_cp_rs2_edges_0xffffffff_str)
    229c:	0007a203          	lw	x4,0(x15)
    22a0:	00a20863          	beq	x4,x10,22b0 <I_bge_cg_cp_rs2_edges_0xffffffff+0x1c>
    22a4:	5d9072ef          	jal	x5,a07c <failedtest_x5_x4>
    22a8:	00002294          	.word	0x00002294
    22ac:	0000db25          	.word	0x0000db25
    22b0:	00478793          	addi	x15,x15,4

# Testcase cp_rs2_edges (Test source rs2 value = 0xfffffffe)
  RVTEST_TESTDATA_LOAD_INT(x23, x9) # load rs1: x9 = 0x60c0d387
    22b4:	000ba483          	lw	x9,0(x23)
    22b8:	004b8b93          	addi	x23,x23,4
  RVTEST_TESTDATA_LOAD_INT(x23, x18) # load rs2: x18 = 0xfffffffe
    22bc:	000ba903          	lw	x18,0(x23)
    22c0:	004b8b93          	addi	x23,x23,4
  RVTEST_TESTDATA_LOAD_INT(x23, x3) # load branch taken value: x3 = 0x8b3ecbac
    22c4:	000ba183          	lw	x3,0(x23)
    22c8:	004b8b93          	addi	x23,x23,4

000022cc <I_bge_cg_cp_rs2_edges_0xfffffffe>:
I_bge_cg_cp_rs2_edges_0xfffffffe:
  bge x9, x18, 1f # perform operation
    22cc:	0124d463          	bge	x9,x18,22d4 <I_bge_cg_cp_rs2_edges_0xfffffffe+0x8>
  LI(x3, -1) # branch not taken, set temp_reg to 0
    22d0:	fff00193          	addi	x3,x0,-1
1:
  # Check if x3 contains the expected result. x15 is the signature ptr, x5 is the link ptr, x4 is a temp reg.
  RVTEST_SIGUPD(x15, x5, x4, x3, I_bge_cg_cp_rs2_edges_0xfffffffe, I_bge_cg_cp_rs2_edges_0xfffffffe_str)
    22d4:	0007a203          	lw	x4,0(x15)
    22d8:	00320863          	beq	x4,x3,22e8 <I_bge_cg_cp_rs2_edges_0xfffffffe+0x1c>
    22dc:	5a1072ef          	jal	x5,a07c <failedtest_x5_x4>
    22e0:	000022cc          	.word	0x000022cc
    22e4:	0000db61          	.word	0x0000db61
    22e8:	00478793          	addi	x15,x15,4

# Testcase cp_rs2_edges (Test source rs2 value = 0x5bbc8872)
  RVTEST_TESTDATA_LOAD_INT(x23, x29) # load rs1: x29 = 0xc8544500
    22ec:	000bae83          	lw	x29,0(x23)
    22f0:	004b8b93          	addi	x23,x23,4
  RVTEST_TESTDATA_LOAD_INT(x23, x20) # load rs2: x20 = 0x5bbc8872
    22f4:	000baa03          	lw	x20,0(x23)
    22f8:	004b8b93          	addi	x23,x23,4
  RVTEST_TESTDATA_LOAD_INT(x23, x6) # load branch taken value: x6 = 0xc07cbb14
    22fc:	000ba303          	lw	x6,0(x23)
    2300:	004b8b93          	addi	x23,x23,4

00002304 <I_bge_cg_cp_rs2_edges_0x5bbc8872>:
I_bge_cg_cp_rs2_edges_0x5bbc8872:
  bge x29, x20, 1f # perform operation
    2304:	014ed463          	bge	x29,x20,230c <I_bge_cg_cp_rs2_edges_0x5bbc8872+0x8>
  LI(x6, -1) # branch not taken, set temp_reg to 0
    2308:	fff00313          	addi	x6,x0,-1
1:
  # Check if x6 contains the expected result. x15 is the signature ptr, x5 is the link ptr, x4 is a temp reg.
  RVTEST_SIGUPD(x15, x5, x4, x6, I_bge_cg_cp_rs2_edges_0x5bbc8872, I_bge_cg_cp_rs2_edges_0x5bbc8872_str)
    230c:	0007a203          	lw	x4,0(x15)
    2310:	00620863          	beq	x4,x6,2320 <I_bge_cg_cp_rs2_edges_0x5bbc8872+0x1c>
    2314:	569072ef          	jal	x5,a07c <failedtest_x5_x4>
    2318:	00002304          	.word	0x00002304
    231c:	0000db9d          	.word	0x0000db9d
    2320:	00478793          	addi	x15,x15,4

# Testcase cp_rs2_edges (Test source rs2 value = 0xaaaaaaaa)
  RVTEST_TESTDATA_LOAD_INT(x23, x28) # load rs1: x28 = 0xac1e0ff3
    2324:	000bae03          	lw	x28,0(x23)
    2328:	004b8b93          	addi	x23,x23,4
  RVTEST_TESTDATA_LOAD_INT(x23, x26) # load rs2: x26 = 0xaaaaaaaa
    232c:	000bad03          	lw	x26,0(x23)
    2330:	004b8b93          	addi	x23,x23,4
  RVTEST_TESTDATA_LOAD_INT(x23, x18) # load branch taken value: x18 = 0xd2a171ee
    2334:	000ba903          	lw	x18,0(x23)
    2338:	004b8b93          	addi	x23,x23,4

0000233c <I_bge_cg_cp_rs2_edges_0xaaaaaaaa>:
I_bge_cg_cp_rs2_edges_0xaaaaaaaa:
  bge x28, x26, 1f # perform operation
    233c:	01ae5463          	bge	x28,x26,2344 <I_bge_cg_cp_rs2_edges_0xaaaaaaaa+0x8>
  LI(x18, -1) # branch not taken, set temp_reg to 0
    2340:	fff00913          	addi	x18,x0,-1
1:
  # Check if x18 contains the expected result. x15 is the signature ptr, x5 is the link ptr, x4 is a temp reg.
  RVTEST_SIGUPD(x15, x5, x4, x18, I_bge_cg_cp_rs2_edges_0xaaaaaaaa, I_bge_cg_cp_rs2_edges_0xaaaaaaaa_str)
    2344:	0007a203          	lw	x4,0(x15)
    2348:	01220863          	beq	x4,x18,2358 <I_bge_cg_cp_rs2_edges_0xaaaaaaaa+0x1c>
    234c:	531072ef          	jal	x5,a07c <failedtest_x5_x4>
    2350:	0000233c          	.word	0x0000233c
    2354:	0000dbd9          	.word	0x0000dbd9
    2358:	00478793          	addi	x15,x15,4

# Testcase cp_rs2_edges (Test source rs2 value = 0x55555555)
  RVTEST_TESTDATA_LOAD_INT(x23, x26) # load rs1: x26 = 0x6a1b19e8
    235c:	000bad03          	lw	x26,0(x23)
    2360:	004b8b93          	addi	x23,x23,4
  RVTEST_TESTDATA_LOAD_INT(x23, x27) # load rs2: x27 = 0x55555555
    2364:	000bad83          	lw	x27,0(x23)
    2368:	004b8b93          	addi	x23,x23,4
  RVTEST_TESTDATA_LOAD_INT(x23, x16) # load branch taken value: x16 = 0x3a8ab716
    236c:	000ba803          	lw	x16,0(x23)
    2370:	004b8b93          	addi	x23,x23,4

00002374 <I_bge_cg_cp_rs2_edges_0x55555555>:
I_bge_cg_cp_rs2_edges_0x55555555:
  bge x26, x27, 1f # perform operation
    2374:	01bd5463          	bge	x26,x27,237c <I_bge_cg_cp_rs2_edges_0x55555555+0x8>
  LI(x16, -1) # branch not taken, set temp_reg to 0
    2378:	fff00813          	addi	x16,x0,-1
1:
  # Check if x16 contains the expected result. x15 is the signature ptr, x5 is the link ptr, x4 is a temp reg.
  RVTEST_SIGUPD(x15, x5, x4, x16, I_bge_cg_cp_rs2_edges_0x55555555, I_bge_cg_cp_rs2_edges_0x55555555_str)
    237c:	0007a203          	lw	x4,0(x15)
    2380:	01020863          	beq	x4,x16,2390 <I_bge_cg_cp_rs2_edges_0x55555555+0x1c>
    2384:	4f9072ef          	jal	x5,a07c <failedtest_x5_x4>
    2388:	00002374          	.word	0x00002374
    238c:	0000dc15          	.word	0x0000dc15
    2390:	00478793          	addi	x15,x15,4
/////////////////////////////////
// cr_rs1_rs2_edges_offset
/////////////////////////////////

# cr_rs1_rs2_edges_offset (Test source rs1 = 0x00000000 rs2 = 0x00000000)
  RVTEST_TESTDATA_LOAD_INT(x23, x3) # load rs1: x3 = 0x00000000
    2394:	000ba183          	lw	x3,0(x23)
    2398:	004b8b93          	addi	x23,x23,4
  RVTEST_TESTDATA_LOAD_INT(x23, x8) # load rs2: x8 = 0x00000000
    239c:	000ba403          	lw	x8,0(x23)
    23a0:	004b8b93          	addi	x23,x23,4

000023a4 <I_bge_cg_cr_rs1_rs2_edges_offset_rs1val_0x0_rs2val_0x0>:
0: # destination for backwards branch that is never taken
I_bge_cg_cr_rs1_rs2_edges_offset_rs1val_0x0_rs2val_0x0:
  bge x3, x8, 3f # forward branch, if taken
    23a4:	0481d263          	bge	x3,x8,23e8 <I_bge_cg_cr_rs1_rs2_edges_offset_rs1val_0x0_rs2val_0x0+0x44>
1: # goes here if not taken
  bge x3, x8, 0b # backward branch, never taken
    23a8:	fe81dee3          	bge	x3,x8,23a4 <I_bge_cg_cr_rs1_rs2_edges_offset_rs1val_0x0_rs2val_0x0>
  # Check if x0 contains the expected result. x15 is the signature ptr, x5 is the link ptr, x4 is a temp reg.
  RVTEST_SIGUPD(x15, x5, x4, x0, I_bge_cg_cr_rs1_rs2_edges_offset_rs1val_0x0_rs2val_0x0, I_bge_cg_cr_rs1_rs2_edges_offset_rs1val_0x0_rs2val_0x0_str)
    23ac:	0007a203          	lw	x4,0(x15)
    23b0:	00020863          	beq	x4,x0,23c0 <I_bge_cg_cr_rs1_rs2_edges_offset_rs1val_0x0_rs2val_0x0+0x1c>
    23b4:	4c9072ef          	jal	x5,a07c <failedtest_x5_x4>
    23b8:	000023a4          	.word	0x000023a4
    23bc:	0000dc51          	.word	0x0000dc51
    23c0:	00478793          	addi	x15,x15,4
  j 4f # done with test
    23c4:	0280006f          	jal	x0,23ec <I_bge_cg_cr_rs1_rs2_edges_offset_rs1val_0x0_rs2val_0x0+0x48>
2: # goes here during backward branch if taken
  LI(x3, 1)
    23c8:	00100193          	addi	x3,x0,1
  # Check if x3 contains the expected result. x15 is the signature ptr, x5 is the link ptr, x4 is a temp reg.
  RVTEST_SIGUPD(x15, x5, x4, x3, I_bge_cg_cr_rs1_rs2_edges_offset_rs1val_0x0_rs2val_0x0, I_bge_cg_cr_rs1_rs2_edges_offset_rs1val_0x0_rs2val_0x0_str) # signature 1 for taken
    23cc:	0007a203          	lw	x4,0(x15)
    23d0:	00320863          	beq	x4,x3,23e0 <I_bge_cg_cr_rs1_rs2_edges_offset_rs1val_0x0_rs2val_0x0+0x3c>
    23d4:	4a9072ef          	jal	x5,a07c <failedtest_x5_x4>
    23d8:	000023a4          	.word	0x000023a4
    23dc:	0000dc51          	.word	0x0000dc51
    23e0:	00478793          	addi	x15,x15,4
  j 4f # done with test
    23e4:	0080006f          	jal	x0,23ec <I_bge_cg_cr_rs1_rs2_edges_offset_rs1val_0x0_rs2val_0x0+0x48>
3: # goes here during forward branch if taken
  bge x3, x8, 2b # backward branch, definitely taken
    23e8:	fe81d0e3          	bge	x3,x8,23c8 <I_bge_cg_cr_rs1_rs2_edges_offset_rs1val_0x0_rs2val_0x0+0x24>
4: # done with test

# cr_rs1_rs2_edges_offset (Test source rs1 = 0x00000000 rs2 = 0x00000001)
  RVTEST_TESTDATA_LOAD_INT(x23, x22) # load rs1: x22 = 0x00000000
    23ec:	000bab03          	lw	x22,0(x23)
    23f0:	004b8b93          	addi	x23,x23,4
  RVTEST_TESTDATA_LOAD_INT(x23, x1) # load rs2: x1 = 0x00000001
    23f4:	000ba083          	lw	x1,0(x23)
    23f8:	004b8b93          	addi	x23,x23,4

000023fc <I_bge_cg_cr_rs1_rs2_edges_offset_rs1val_0x0_rs2val_0x1>:
0: # destination for backwards branch that is never taken
I_bge_cg_cr_rs1_rs2_edges_offset_rs1val_0x0_rs2val_0x1:
  bge x22, x1, 3f # forward branch, if taken
    23fc:	041b5263          	bge	x22,x1,2440 <I_bge_cg_cr_rs1_rs2_edges_offset_rs1val_0x0_rs2val_0x1+0x44>
1: # goes here if not taken
  bge x22, x1, 0b # backward branch, never taken
    2400:	fe1b5ee3          	bge	x22,x1,23fc <I_bge_cg_cr_rs1_rs2_edges_offset_rs1val_0x0_rs2val_0x1>
  # Check if x0 contains the expected result. x15 is the signature ptr, x5 is the link ptr, x4 is a temp reg.
  RVTEST_SIGUPD(x15, x5, x4, x0, I_bge_cg_cr_rs1_rs2_edges_offset_rs1val_0x0_rs2val_0x1, I_bge_cg_cr_rs1_rs2_edges_offset_rs1val_0x0_rs2val_0x1_str)
    2404:	0007a203          	lw	x4,0(x15)
    2408:	00020863          	beq	x4,x0,2418 <I_bge_cg_cr_rs1_rs2_edges_offset_rs1val_0x0_rs2val_0x1+0x1c>
    240c:	471072ef          	jal	x5,a07c <failedtest_x5_x4>
    2410:	000023fc          	.word	0x000023fc
    2414:	0000dca4          	.word	0x0000dca4
    2418:	00478793          	addi	x15,x15,4
  j 4f # done with test
    241c:	0280006f          	jal	x0,2444 <I_bge_cg_cr_rs1_rs2_edges_offset_rs1val_0x0_rs2val_0x1+0x48>
2: # goes here during backward branch if taken
  LI(x22, 1)
    2420:	00100b13          	addi	x22,x0,1
  # Check if x22 contains the expected result. x15 is the signature ptr, x5 is the link ptr, x4 is a temp reg.
  RVTEST_SIGUPD(x15, x5, x4, x22, I_bge_cg_cr_rs1_rs2_edges_offset_rs1val_0x0_rs2val_0x1, I_bge_cg_cr_rs1_rs2_edges_offset_rs1val_0x0_rs2val_0x1_str) # signature 1 for taken
    2424:	0007a203          	lw	x4,0(x15)
    2428:	01620863          	beq	x4,x22,2438 <I_bge_cg_cr_rs1_rs2_edges_offset_rs1val_0x0_rs2val_0x1+0x3c>
    242c:	451072ef          	jal	x5,a07c <failedtest_x5_x4>
    2430:	000023fc          	.word	0x000023fc
    2434:	0000dca4          	.word	0x0000dca4
    2438:	00478793          	addi	x15,x15,4
  j 4f # done with test
    243c:	0080006f          	jal	x0,2444 <I_bge_cg_cr_rs1_rs2_edges_offset_rs1val_0x0_rs2val_0x1+0x48>
3: # goes here during forward branch if taken
  bge x22, x1, 2b # backward branch, definitely taken
    2440:	fe1b50e3          	bge	x22,x1,2420 <I_bge_cg_cr_rs1_rs2_edges_offset_rs1val_0x0_rs2val_0x1+0x24>
4: # done with test

# cr_rs1_rs2_edges_offset (Test source rs1 = 0x00000000 rs2 = 0x00000002)
  RVTEST_TESTDATA_LOAD_INT(x23, x6) # load rs1: x6 = 0x00000000
    2444:	000ba303          	lw	x6,0(x23)
    2448:	004b8b93          	addi	x23,x23,4
  RVTEST_TESTDATA_LOAD_INT(x23, x12) # load rs2: x12 = 0x00000002
    244c:	000ba603          	lw	x12,0(x23)
    2450:	004b8b93          	addi	x23,x23,4

00002454 <I_bge_cg_cr_rs1_rs2_edges_offset_rs1val_0x0_rs2val_0x2>:
0: # destination for backwards branch that is never taken
I_bge_cg_cr_rs1_rs2_edges_offset_rs1val_0x0_rs2val_0x2:
  bge x6, x12, 3f # forward branch, if taken
    2454:	04c35263          	bge	x6,x12,2498 <I_bge_cg_cr_rs1_rs2_edges_offset_rs1val_0x0_rs2val_0x2+0x44>
1: # goes here if not taken
  bge x6, x12, 0b # backward branch, never taken
    2458:	fec35ee3          	bge	x6,x12,2454 <I_bge_cg_cr_rs1_rs2_edges_offset_rs1val_0x0_rs2val_0x2>
  # Check if x0 contains the expected result. x15 is the signature ptr, x5 is the link ptr, x4 is a temp reg.
  RVTEST_SIGUPD(x15, x5, x4, x0, I_bge_cg_cr_rs1_rs2_edges_offset_rs1val_0x0_rs2val_0x2, I_bge_cg_cr_rs1_rs2_edges_offset_rs1val_0x0_rs2val_0x2_str)
    245c:	0007a203          	lw	x4,0(x15)
    2460:	00020863          	beq	x4,x0,2470 <I_bge_cg_cr_rs1_rs2_edges_offset_rs1val_0x0_rs2val_0x2+0x1c>
    2464:	419072ef          	jal	x5,a07c <failedtest_x5_x4>
    2468:	00002454          	.word	0x00002454
    246c:	0000dcf7          	.word	0x0000dcf7
    2470:	00478793          	addi	x15,x15,4
  j 4f # done with test
    2474:	0280006f          	jal	x0,249c <I_bge_cg_cr_rs1_rs2_edges_offset_rs1val_0x0_rs2val_0x2+0x48>
2: # goes here during backward branch if taken
  LI(x6, 1)
    2478:	00100313          	addi	x6,x0,1
  # Check if x6 contains the expected result. x15 is the signature ptr, x5 is the link ptr, x4 is a temp reg.
  RVTEST_SIGUPD(x15, x5, x4, x6, I_bge_cg_cr_rs1_rs2_edges_offset_rs1val_0x0_rs2val_0x2, I_bge_cg_cr_rs1_rs2_edges_offset_rs1val_0x0_rs2val_0x2_str) # signature 1 for taken
    247c:	0007a203          	lw	x4,0(x15)
    2480:	00620863          	beq	x4,x6,2490 <I_bge_cg_cr_rs1_rs2_edges_offset_rs1val_0x0_rs2val_0x2+0x3c>
    2484:	3f9072ef          	jal	x5,a07c <failedtest_x5_x4>
    2488:	00002454          	.word	0x00002454
    248c:	0000dcf7          	.word	0x0000dcf7
    2490:	00478793          	addi	x15,x15,4
  j 4f # done with test
    2494:	0080006f          	jal	x0,249c <I_bge_cg_cr_rs1_rs2_edges_offset_rs1val_0x0_rs2val_0x2+0x48>
3: # goes here during forward branch if taken
  bge x6, x12, 2b # backward branch, definitely taken
    2498:	fec350e3          	bge	x6,x12,2478 <I_bge_cg_cr_rs1_rs2_edges_offset_rs1val_0x0_rs2val_0x2+0x24>
4: # done with test

# cr_rs1_rs2_edges_offset (Test source rs1 = 0x00000000 rs2 = 0x80000000)
  RVTEST_TESTDATA_LOAD_INT(x23, x25) # load rs1: x25 = 0x00000000
    249c:	000bac83          	lw	x25,0(x23)
    24a0:	004b8b93          	addi	x23,x23,4
  RVTEST_TESTDATA_LOAD_INT(x23, x28) # load rs2: x28 = 0x80000000
    24a4:	000bae03          	lw	x28,0(x23)
    24a8:	004b8b93          	addi	x23,x23,4

000024ac <I_bge_cg_cr_rs1_rs2_edges_offset_rs1val_0x0_rs2val_0x80000000>:
0: # destination for backwards branch that is never taken
I_bge_cg_cr_rs1_rs2_edges_offset_rs1val_0x0_rs2val_0x80000000:
  bge x25, x28, 3f # forward branch, if taken
    24ac:	05ccd263          	bge	x25,x28,24f0 <I_bge_cg_cr_rs1_rs2_edges_offset_rs1val_0x0_rs2val_0x80000000+0x44>
1: # goes here if not taken
  bge x25, x28, 0b # backward branch, never taken
    24b0:	ffccdee3          	bge	x25,x28,24ac <I_bge_cg_cr_rs1_rs2_edges_offset_rs1val_0x0_rs2val_0x80000000>
  # Check if x0 contains the expected result. x15 is the signature ptr, x5 is the link ptr, x4 is a temp reg.
  RVTEST_SIGUPD(x15, x5, x4, x0, I_bge_cg_cr_rs1_rs2_edges_offset_rs1val_0x0_rs2val_0x80000000, I_bge_cg_cr_rs1_rs2_edges_offset_rs1val_0x0_rs2val_0x80000000_str)
    24b4:	0007a203          	lw	x4,0(x15)
    24b8:	00020863          	beq	x4,x0,24c8 <I_bge_cg_cr_rs1_rs2_edges_offset_rs1val_0x0_rs2val_0x80000000+0x1c>
    24bc:	3c1072ef          	jal	x5,a07c <failedtest_x5_x4>
    24c0:	000024ac          	.word	0x000024ac
    24c4:	0000dd4a          	.word	0x0000dd4a
    24c8:	00478793          	addi	x15,x15,4
  j 4f # done with test
    24cc:	0280006f          	jal	x0,24f4 <I_bge_cg_cr_rs1_rs2_edges_offset_rs1val_0x0_rs2val_0x80000000+0x48>
2: # goes here during backward branch if taken
  LI(x25, 1)
    24d0:	00100c93          	addi	x25,x0,1
  # Check if x25 contains the expected result. x15 is the signature ptr, x5 is the link ptr, x4 is a temp reg.
  RVTEST_SIGUPD(x15, x5, x4, x25, I_bge_cg_cr_rs1_rs2_edges_offset_rs1val_0x0_rs2val_0x80000000, I_bge_cg_cr_rs1_rs2_edges_offset_rs1val_0x0_rs2val_0x80000000_str) # signature 1 for taken
    24d4:	0007a203          	lw	x4,0(x15)
    24d8:	01920863          	beq	x4,x25,24e8 <I_bge_cg_cr_rs1_rs2_edges_offset_rs1val_0x0_rs2val_0x80000000+0x3c>
    24dc:	3a1072ef          	jal	x5,a07c <failedtest_x5_x4>
    24e0:	000024ac          	.word	0x000024ac
    24e4:	0000dd4a          	.word	0x0000dd4a
    24e8:	00478793          	addi	x15,x15,4
  j 4f # done with test
    24ec:	0080006f          	jal	x0,24f4 <I_bge_cg_cr_rs1_rs2_edges_offset_rs1val_0x0_rs2val_0x80000000+0x48>
3: # goes here during forward branch if taken
  bge x25, x28, 2b # backward branch, definitely taken
    24f0:	ffccd0e3          	bge	x25,x28,24d0 <I_bge_cg_cr_rs1_rs2_edges_offset_rs1val_0x0_rs2val_0x80000000+0x24>
4: # done with test

# cr_rs1_rs2_edges_offset (Test source rs1 = 0x00000000 rs2 = 0x80000001)
  RVTEST_TESTDATA_LOAD_INT(x23, x13) # load rs1: x13 = 0x00000000
    24f4:	000ba683          	lw	x13,0(x23)
    24f8:	004b8b93          	addi	x23,x23,4
  RVTEST_TESTDATA_LOAD_INT(x23, x25) # load rs2: x25 = 0x80000001
    24fc:	000bac83          	lw	x25,0(x23)
    2500:	004b8b93          	addi	x23,x23,4

00002504 <I_bge_cg_cr_rs1_rs2_edges_offset_rs1val_0x0_rs2val_0x80000001>:
0: # destination for backwards branch that is never taken
I_bge_cg_cr_rs1_rs2_edges_offset_rs1val_0x0_rs2val_0x80000001:
  bge x13, x25, 3f # forward branch, if taken
    2504:	0596d263          	bge	x13,x25,2548 <I_bge_cg_cr_rs1_rs2_edges_offset_rs1val_0x0_rs2val_0x80000001+0x44>
1: # goes here if not taken
  bge x13, x25, 0b # backward branch, never taken
    2508:	ff96dee3          	bge	x13,x25,2504 <I_bge_cg_cr_rs1_rs2_edges_offset_rs1val_0x0_rs2val_0x80000001>
  # Check if x0 contains the expected result. x15 is the signature ptr, x5 is the link ptr, x4 is a temp reg.
  RVTEST_SIGUPD(x15, x5, x4, x0, I_bge_cg_cr_rs1_rs2_edges_offset_rs1val_0x0_rs2val_0x80000001, I_bge_cg_cr_rs1_rs2_edges_offset_rs1val_0x0_rs2val_0x80000001_str)
    250c:	0007a203          	lw	x4,0(x15)
    2510:	00020863          	beq	x4,x0,2520 <I_bge_cg_cr_rs1_rs2_edges_offset_rs1val_0x0_rs2val_0x80000001+0x1c>
    2514:	369072ef          	jal	x5,a07c <failedtest_x5_x4>
    2518:	00002504          	.word	0x00002504
    251c:	0000dda4          	.word	0x0000dda4
    2520:	00478793          	addi	x15,x15,4
  j 4f # done with test
    2524:	0280006f          	jal	x0,254c <I_bge_cg_cr_rs1_rs2_edges_offset_rs1val_0x0_rs2val_0x80000001+0x48>
2: # goes here during backward branch if taken
  LI(x13, 1)
    2528:	00100693          	addi	x13,x0,1
  # Check if x13 contains the expected result. x15 is the signature ptr, x5 is the link ptr, x4 is a temp reg.
  RVTEST_SIGUPD(x15, x5, x4, x13, I_bge_cg_cr_rs1_rs2_edges_offset_rs1val_0x0_rs2val_0x80000001, I_bge_cg_cr_rs1_rs2_edges_offset_rs1val_0x0_rs2val_0x80000001_str) # signature 1 for taken
    252c:	0007a203          	lw	x4,0(x15)
    2530:	00d20863          	beq	x4,x13,2540 <I_bge_cg_cr_rs1_rs2_edges_offset_rs1val_0x0_rs2val_0x80000001+0x3c>
    2534:	349072ef          	jal	x5,a07c <failedtest_x5_x4>
    2538:	00002504          	.word	0x00002504
    253c:	0000dda4          	.word	0x0000dda4
    2540:	00478793          	addi	x15,x15,4
  j 4f # done with test
    2544:	0080006f          	jal	x0,254c <I_bge_cg_cr_rs1_rs2_edges_offset_rs1val_0x0_rs2val_0x80000001+0x48>
3: # goes here during forward branch if taken
  bge x13, x25, 2b # backward branch, definitely taken
    2548:	ff96d0e3          	bge	x13,x25,2528 <I_bge_cg_cr_rs1_rs2_edges_offset_rs1val_0x0_rs2val_0x80000001+0x24>
4: # done with test

# cr_rs1_rs2_edges_offset (Test source rs1 = 0x00000000 rs2 = 0x7fffffff)
  RVTEST_TESTDATA_LOAD_INT(x23, x8) # load rs1: x8 = 0x00000000
    254c:	000ba403          	lw	x8,0(x23)
    2550:	004b8b93          	addi	x23,x23,4
  RVTEST_TESTDATA_LOAD_INT(x23, x22) # load rs2: x22 = 0x7fffffff
    2554:	000bab03          	lw	x22,0(x23)
    2558:	004b8b93          	addi	x23,x23,4

0000255c <I_bge_cg_cr_rs1_rs2_edges_offset_rs1val_0x0_rs2val_0x7fffffff>:
0: # destination for backwards branch that is never taken
I_bge_cg_cr_rs1_rs2_edges_offset_rs1val_0x0_rs2val_0x7fffffff:
  bge x8, x22, 3f # forward branch, if taken
    255c:	05645263          	bge	x8,x22,25a0 <I_bge_cg_cr_rs1_rs2_edges_offset_rs1val_0x0_rs2val_0x7fffffff+0x44>
1: # goes here if not taken
  bge x8, x22, 0b # backward branch, never taken
    2560:	ff645ee3          	bge	x8,x22,255c <I_bge_cg_cr_rs1_rs2_edges_offset_rs1val_0x0_rs2val_0x7fffffff>
  # Check if x0 contains the expected result. x15 is the signature ptr, x5 is the link ptr, x4 is a temp reg.
  RVTEST_SIGUPD(x15, x5, x4, x0, I_bge_cg_cr_rs1_rs2_edges_offset_rs1val_0x0_rs2val_0x7fffffff, I_bge_cg_cr_rs1_rs2_edges_offset_rs1val_0x0_rs2val_0x7fffffff_str)
    2564:	0007a203          	lw	x4,0(x15)
    2568:	00020863          	beq	x4,x0,2578 <I_bge_cg_cr_rs1_rs2_edges_offset_rs1val_0x0_rs2val_0x7fffffff+0x1c>
    256c:	311072ef          	jal	x5,a07c <failedtest_x5_x4>
    2570:	0000255c          	.word	0x0000255c
    2574:	0000ddfe          	.word	0x0000ddfe
    2578:	00478793          	addi	x15,x15,4
  j 4f # done with test
    257c:	0280006f          	jal	x0,25a4 <I_bge_cg_cr_rs1_rs2_edges_offset_rs1val_0x0_rs2val_0x7fffffff+0x48>
2: # goes here during backward branch if taken
  LI(x8, 1)
    2580:	00100413          	addi	x8,x0,1
  # Check if x8 contains the expected result. x15 is the signature ptr, x5 is the link ptr, x4 is a temp reg.
  RVTEST_SIGUPD(x15, x5, x4, x8, I_bge_cg_cr_rs1_rs2_edges_offset_rs1val_0x0_rs2val_0x7fffffff, I_bge_cg_cr_rs1_rs2_edges_offset_rs1val_0x0_rs2val_0x7fffffff_str) # signature 1 for taken
    2584:	0007a203          	lw	x4,0(x15)
    2588:	00820863          	beq	x4,x8,2598 <I_bge_cg_cr_rs1_rs2_edges_offset_rs1val_0x0_rs2val_0x7fffffff+0x3c>
    258c:	2f1072ef          	jal	x5,a07c <failedtest_x5_x4>
    2590:	0000255c          	.word	0x0000255c
    2594:	0000ddfe          	.word	0x0000ddfe
    2598:	00478793          	addi	x15,x15,4
  j 4f # done with test
    259c:	0080006f          	jal	x0,25a4 <I_bge_cg_cr_rs1_rs2_edges_offset_rs1val_0x0_rs2val_0x7fffffff+0x48>
3: # goes here during forward branch if taken
  bge x8, x22, 2b # backward branch, definitely taken
    25a0:	ff6450e3          	bge	x8,x22,2580 <I_bge_cg_cr_rs1_rs2_edges_offset_rs1val_0x0_rs2val_0x7fffffff+0x24>
4: # done with test

# cr_rs1_rs2_edges_offset (Test source rs1 = 0x00000000 rs2 = 0x7ffffffe)
  RVTEST_TESTDATA_LOAD_INT(x23, x7) # load rs1: x7 = 0x00000000
    25a4:	000ba383          	lw	x7,0(x23)
    25a8:	004b8b93          	addi	x23,x23,4
  RVTEST_TESTDATA_LOAD_INT(x23, x28) # load rs2: x28 = 0x7ffffffe
    25ac:	000bae03          	lw	x28,0(x23)
    25b0:	004b8b93          	addi	x23,x23,4

000025b4 <I_bge_cg_cr_rs1_rs2_edges_offset_rs1val_0x0_rs2val_0x7ffffffe>:
0: # destination for backwards branch that is never taken
I_bge_cg_cr_rs1_rs2_edges_offset_rs1val_0x0_rs2val_0x7ffffffe:
  bge x7, x28, 3f # forward branch, if taken
    25b4:	05c3d263          	bge	x7,x28,25f8 <I_bge_cg_cr_rs1_rs2_edges_offset_rs1val_0x0_rs2val_0x7ffffffe+0x44>
1: # goes here if not taken
  bge x7, x28, 0b # backward branch, never taken
    25b8:	ffc3dee3          	bge	x7,x28,25b4 <I_bge_cg_cr_rs1_rs2_edges_offset_rs1val_0x0_rs2val_0x7ffffffe>
  # Check if x0 contains the expected result. x15 is the signature ptr, x5 is the link ptr, x4 is a temp reg.
  RVTEST_SIGUPD(x15, x5, x4, x0, I_bge_cg_cr_rs1_rs2_edges_offset_rs1val_0x0_rs2val_0x7ffffffe, I_bge_cg_cr_rs1_rs2_edges_offset_rs1val_0x0_rs2val_0x7ffffffe_str)
    25bc:	0007a203          	lw	x4,0(x15)
    25c0:	00020863          	beq	x4,x0,25d0 <I_bge_cg_cr_rs1_rs2_edges_offset_rs1val_0x0_rs2val_0x7ffffffe+0x1c>
    25c4:	2b9072ef          	jal	x5,a07c <failedtest_x5_x4>
    25c8:	000025b4          	.word	0x000025b4
    25cc:	0000de58          	.word	0x0000de58
    25d0:	00478793          	addi	x15,x15,4
  j 4f # done with test
    25d4:	0280006f          	jal	x0,25fc <I_bge_cg_cr_rs1_rs2_edges_offset_rs1val_0x0_rs2val_0x7ffffffe+0x48>
2: # goes here during backward branch if taken
  LI(x7, 1)
    25d8:	00100393          	addi	x7,x0,1
  # Check if x7 contains the expected result. x15 is the signature ptr, x5 is the link ptr, x4 is a temp reg.
  RVTEST_SIGUPD(x15, x5, x4, x7, I_bge_cg_cr_rs1_rs2_edges_offset_rs1val_0x0_rs2val_0x7ffffffe, I_bge_cg_cr_rs1_rs2_edges_offset_rs1val_0x0_rs2val_0x7ffffffe_str) # signature 1 for taken
    25dc:	0007a203          	lw	x4,0(x15)
    25e0:	00720863          	beq	x4,x7,25f0 <I_bge_cg_cr_rs1_rs2_edges_offset_rs1val_0x0_rs2val_0x7ffffffe+0x3c>
    25e4:	299072ef          	jal	x5,a07c <failedtest_x5_x4>
    25e8:	000025b4          	.word	0x000025b4
    25ec:	0000de58          	.word	0x0000de58
    25f0:	00478793          	addi	x15,x15,4
  j 4f # done with test
    25f4:	0080006f          	jal	x0,25fc <I_bge_cg_cr_rs1_rs2_edges_offset_rs1val_0x0_rs2val_0x7ffffffe+0x48>
3: # goes here during forward branch if taken
  bge x7, x28, 2b # backward branch, definitely taken
    25f8:	ffc3d0e3          	bge	x7,x28,25d8 <I_bge_cg_cr_rs1_rs2_edges_offset_rs1val_0x0_rs2val_0x7ffffffe+0x24>
4: # done with test

# cr_rs1_rs2_edges_offset (Test source rs1 = 0x00000000 rs2 = 0xffffffff)
  RVTEST_TESTDATA_LOAD_INT(x23, x29) # load rs1: x29 = 0x00000000
    25fc:	000bae83          	lw	x29,0(x23)
    2600:	004b8b93          	addi	x23,x23,4
  RVTEST_TESTDATA_LOAD_INT(x23, x7) # load rs2: x7 = 0xffffffff
    2604:	000ba383          	lw	x7,0(x23)
    2608:	004b8b93          	addi	x23,x23,4

0000260c <I_bge_cg_cr_rs1_rs2_edges_offset_rs1val_0x0_rs2val_0xffffffff>:
0: # destination for backwards branch that is never taken
I_bge_cg_cr_rs1_rs2_edges_offset_rs1val_0x0_rs2val_0xffffffff:
  bge x29, x7, 3f # forward branch, if taken
    260c:	047ed263          	bge	x29,x7,2650 <I_bge_cg_cr_rs1_rs2_edges_offset_rs1val_0x0_rs2val_0xffffffff+0x44>
1: # goes here if not taken
  bge x29, x7, 0b # backward branch, never taken
    2610:	fe7edee3          	bge	x29,x7,260c <I_bge_cg_cr_rs1_rs2_edges_offset_rs1val_0x0_rs2val_0xffffffff>
  # Check if x0 contains the expected result. x15 is the signature ptr, x5 is the link ptr, x4 is a temp reg.
  RVTEST_SIGUPD(x15, x5, x4, x0, I_bge_cg_cr_rs1_rs2_edges_offset_rs1val_0x0_rs2val_0xffffffff, I_bge_cg_cr_rs1_rs2_edges_offset_rs1val_0x0_rs2val_0xffffffff_str)
    2614:	0007a203          	lw	x4,0(x15)
    2618:	00020863          	beq	x4,x0,2628 <I_bge_cg_cr_rs1_rs2_edges_offset_rs1val_0x0_rs2val_0xffffffff+0x1c>
    261c:	261072ef          	jal	x5,a07c <failedtest_x5_x4>
    2620:	0000260c          	.word	0x0000260c
    2624:	0000deb2          	.word	0x0000deb2
    2628:	00478793          	addi	x15,x15,4
  j 4f # done with test
    262c:	0280006f          	jal	x0,2654 <I_bge_cg_cr_rs1_rs2_edges_offset_rs1val_0x0_rs2val_0xffffffff+0x48>
2: # goes here during backward branch if taken
  LI(x29, 1)
    2630:	00100e93          	addi	x29,x0,1
  # Check if x29 contains the expected result. x15 is the signature ptr, x5 is the link ptr, x4 is a temp reg.
  RVTEST_SIGUPD(x15, x5, x4, x29, I_bge_cg_cr_rs1_rs2_edges_offset_rs1val_0x0_rs2val_0xffffffff, I_bge_cg_cr_rs1_rs2_edges_offset_rs1val_0x0_rs2val_0xffffffff_str) # signature 1 for taken
    2634:	0007a203          	lw	x4,0(x15)
    2638:	01d20863          	beq	x4,x29,2648 <I_bge_cg_cr_rs1_rs2_edges_offset_rs1val_0x0_rs2val_0xffffffff+0x3c>
    263c:	241072ef          	jal	x5,a07c <failedtest_x5_x4>
    2640:	0000260c          	.word	0x0000260c
    2644:	0000deb2          	.word	0x0000deb2
    2648:	00478793          	addi	x15,x15,4
  j 4f # done with test
    264c:	0080006f          	jal	x0,2654 <I_bge_cg_cr_rs1_rs2_edges_offset_rs1val_0x0_rs2val_0xffffffff+0x48>
3: # goes here during forward branch if taken
  bge x29, x7, 2b # backward branch, definitely taken
    2650:	fe7ed0e3          	bge	x29,x7,2630 <I_bge_cg_cr_rs1_rs2_edges_offset_rs1val_0x0_rs2val_0xffffffff+0x24>
4: # done with test

# cr_rs1_rs2_edges_offset (Test source rs1 = 0x00000000 rs2 = 0xfffffffe)
  RVTEST_TESTDATA_LOAD_INT(x23, x24) # load rs1: x24 = 0x00000000
    2654:	000bac03          	lw	x24,0(x23)
    2658:	004b8b93          	addi	x23,x23,4
  RVTEST_TESTDATA_LOAD_INT(x23, x13) # load rs2: x13 = 0xfffffffe
    265c:	000ba683          	lw	x13,0(x23)
    2660:	004b8b93          	addi	x23,x23,4

00002664 <I_bge_cg_cr_rs1_rs2_edges_offset_rs1val_0x0_rs2val_0xfffffffe>:
0: # destination for backwards branch that is never taken
I_bge_cg_cr_rs1_rs2_edges_offset_rs1val_0x0_rs2val_0xfffffffe:
  bge x24, x13, 3f # forward branch, if taken
    2664:	04dc5263          	bge	x24,x13,26a8 <I_bge_cg_cr_rs1_rs2_edges_offset_rs1val_0x0_rs2val_0xfffffffe+0x44>
1: # goes here if not taken
  bge x24, x13, 0b # backward branch, never taken
    2668:	fedc5ee3          	bge	x24,x13,2664 <I_bge_cg_cr_rs1_rs2_edges_offset_rs1val_0x0_rs2val_0xfffffffe>
  # Check if x0 contains the expected result. x15 is the signature ptr, x5 is the link ptr, x4 is a temp reg.
  RVTEST_SIGUPD(x15, x5, x4, x0, I_bge_cg_cr_rs1_rs2_edges_offset_rs1val_0x0_rs2val_0xfffffffe, I_bge_cg_cr_rs1_rs2_edges_offset_rs1val_0x0_rs2val_0xfffffffe_str)
    266c:	0007a203          	lw	x4,0(x15)
    2670:	00020863          	beq	x4,x0,2680 <I_bge_cg_cr_rs1_rs2_edges_offset_rs1val_0x0_rs2val_0xfffffffe+0x1c>
    2674:	209072ef          	jal	x5,a07c <failedtest_x5_x4>
    2678:	00002664          	.word	0x00002664
    267c:	0000df0c          	.word	0x0000df0c
    2680:	00478793          	addi	x15,x15,4
  j 4f # done with test
    2684:	0280006f          	jal	x0,26ac <I_bge_cg_cr_rs1_rs2_edges_offset_rs1val_0x0_rs2val_0xfffffffe+0x48>
2: # goes here during backward branch if taken
  LI(x24, 1)
    2688:	00100c13          	addi	x24,x0,1
  # Check if x24 contains the expected result. x15 is the signature ptr, x5 is the link ptr, x4 is a temp reg.
  RVTEST_SIGUPD(x15, x5, x4, x24, I_bge_cg_cr_rs1_rs2_edges_offset_rs1val_0x0_rs2val_0xfffffffe, I_bge_cg_cr_rs1_rs2_edges_offset_rs1val_0x0_rs2val_0xfffffffe_str) # signature 1 for taken
    268c:	0007a203          	lw	x4,0(x15)
    2690:	01820863          	beq	x4,x24,26a0 <I_bge_cg_cr_rs1_rs2_edges_offset_rs1val_0x0_rs2val_0xfffffffe+0x3c>
    2694:	1e9072ef          	jal	x5,a07c <failedtest_x5_x4>
    2698:	00002664          	.word	0x00002664
    269c:	0000df0c          	.word	0x0000df0c
    26a0:	00478793          	addi	x15,x15,4
  j 4f # done with test
    26a4:	0080006f          	jal	x0,26ac <I_bge_cg_cr_rs1_rs2_edges_offset_rs1val_0x0_rs2val_0xfffffffe+0x48>
3: # goes here during forward branch if taken
  bge x24, x13, 2b # backward branch, definitely taken
    26a8:	fedc50e3          	bge	x24,x13,2688 <I_bge_cg_cr_rs1_rs2_edges_offset_rs1val_0x0_rs2val_0xfffffffe+0x24>
4: # done with test

# cr_rs1_rs2_edges_offset (Test source rs1 = 0x00000000 rs2 = 0x5bbc8872)
  RVTEST_TESTDATA_LOAD_INT(x23, x20) # load rs1: x20 = 0x00000000
    26ac:	000baa03          	lw	x20,0(x23)
    26b0:	004b8b93          	addi	x23,x23,4
  RVTEST_TESTDATA_LOAD_INT(x23, x11) # load rs2: x11 = 0x5bbc8872
    26b4:	000ba583          	lw	x11,0(x23)
    26b8:	004b8b93          	addi	x23,x23,4

000026bc <I_bge_cg_cr_rs1_rs2_edges_offset_rs1val_0x0_rs2val_0x5bbc8872>:
0: # destination for backwards branch that is never taken
I_bge_cg_cr_rs1_rs2_edges_offset_rs1val_0x0_rs2val_0x5bbc8872:
  bge x20, x11, 3f # forward branch, if taken
    26bc:	04ba5263          	bge	x20,x11,2700 <I_bge_cg_cr_rs1_rs2_edges_offset_rs1val_0x0_rs2val_0x5bbc8872+0x44>
1: # goes here if not taken
  bge x20, x11, 0b # backward branch, never taken
    26c0:	feba5ee3          	bge	x20,x11,26bc <I_bge_cg_cr_rs1_rs2_edges_offset_rs1val_0x0_rs2val_0x5bbc8872>
  # Check if x0 contains the expected result. x15 is the signature ptr, x5 is the link ptr, x4 is a temp reg.
  RVTEST_SIGUPD(x15, x5, x4, x0, I_bge_cg_cr_rs1_rs2_edges_offset_rs1val_0x0_rs2val_0x5bbc8872, I_bge_cg_cr_rs1_rs2_edges_offset_rs1val_0x0_rs2val_0x5bbc8872_str)
    26c4:	0007a203          	lw	x4,0(x15)
    26c8:	00020863          	beq	x4,x0,26d8 <I_bge_cg_cr_rs1_rs2_edges_offset_rs1val_0x0_rs2val_0x5bbc8872+0x1c>
    26cc:	1b1072ef          	jal	x5,a07c <failedtest_x5_x4>
    26d0:	000026bc          	.word	0x000026bc
    26d4:	0000df66          	.word	0x0000df66
    26d8:	00478793          	addi	x15,x15,4
  j 4f # done with test
    26dc:	0280006f          	jal	x0,2704 <I_bge_cg_cr_rs1_rs2_edges_offset_rs1val_0x0_rs2val_0x5bbc8872+0x48>
2: # goes here during backward branch if taken
  LI(x20, 1)
    26e0:	00100a13          	addi	x20,x0,1
  # Check if x20 contains the expected result. x15 is the signature ptr, x5 is the link ptr, x4 is a temp reg.
  RVTEST_SIGUPD(x15, x5, x4, x20, I_bge_cg_cr_rs1_rs2_edges_offset_rs1val_0x0_rs2val_0x5bbc8872, I_bge_cg_cr_rs1_rs2_edges_offset_rs1val_0x0_rs2val_0x5bbc8872_str) # signature 1 for taken
    26e4:	0007a203          	lw	x4,0(x15)
    26e8:	01420863          	beq	x4,x20,26f8 <I_bge_cg_cr_rs1_rs2_edges_offset_rs1val_0x0_rs2val_0x5bbc8872+0x3c>
    26ec:	191072ef          	jal	x5,a07c <failedtest_x5_x4>
    26f0:	000026bc          	.word	0x000026bc
    26f4:	0000df66          	.word	0x0000df66
    26f8:	00478793          	addi	x15,x15,4
  j 4f # done with test
    26fc:	0080006f          	jal	x0,2704 <I_bge_cg_cr_rs1_rs2_edges_offset_rs1val_0x0_rs2val_0x5bbc8872+0x48>
3: # goes here during forward branch if taken
  bge x20, x11, 2b # backward branch, definitely taken
    2700:	feba50e3          	bge	x20,x11,26e0 <I_bge_cg_cr_rs1_rs2_edges_offset_rs1val_0x0_rs2val_0x5bbc8872+0x24>
4: # done with test

# cr_rs1_rs2_edges_offset (Test source rs1 = 0x00000000 rs2 = 0xaaaaaaaa)
  RVTEST_TESTDATA_LOAD_INT(x23, x24) # load rs1: x24 = 0x00000000
    2704:	000bac03          	lw	x24,0(x23)
    2708:	004b8b93          	addi	x23,x23,4
  RVTEST_TESTDATA_LOAD_INT(x23, x30) # load rs2: x30 = 0xaaaaaaaa
    270c:	000baf03          	lw	x30,0(x23)
    2710:	004b8b93          	addi	x23,x23,4

00002714 <I_bge_cg_cr_rs1_rs2_edges_offset_rs1val_0x0_rs2val_0xaaaaaaaa>:
0: # destination for backwards branch that is never taken
I_bge_cg_cr_rs1_rs2_edges_offset_rs1val_0x0_rs2val_0xaaaaaaaa:
  bge x24, x30, 3f # forward branch, if taken
    2714:	05ec5263          	bge	x24,x30,2758 <I_bge_cg_cr_rs1_rs2_edges_offset_rs1val_0x0_rs2val_0xaaaaaaaa+0x44>
1: # goes here if not taken
  bge x24, x30, 0b # backward branch, never taken
    2718:	ffec5ee3          	bge	x24,x30,2714 <I_bge_cg_cr_rs1_rs2_edges_offset_rs1val_0x0_rs2val_0xaaaaaaaa>
  # Check if x0 contains the expected result. x15 is the signature ptr, x5 is the link ptr, x4 is a temp reg.
  RVTEST_SIGUPD(x15, x5, x4, x0, I_bge_cg_cr_rs1_rs2_edges_offset_rs1val_0x0_rs2val_0xaaaaaaaa, I_bge_cg_cr_rs1_rs2_edges_offset_rs1val_0x0_rs2val_0xaaaaaaaa_str)
    271c:	0007a203          	lw	x4,0(x15)
    2720:	00020863          	beq	x4,x0,2730 <I_bge_cg_cr_rs1_rs2_edges_offset_rs1val_0x0_rs2val_0xaaaaaaaa+0x1c>
    2724:	159072ef          	jal	x5,a07c <failedtest_x5_x4>
    2728:	00002714          	.word	0x00002714
    272c:	0000dfc0          	.word	0x0000dfc0
    2730:	00478793          	addi	x15,x15,4
  j 4f # done with test
    2734:	0280006f          	jal	x0,275c <I_bge_cg_cr_rs1_rs2_edges_offset_rs1val_0x0_rs2val_0xaaaaaaaa+0x48>
2: # goes here during backward branch if taken
  LI(x24, 1)
    2738:	00100c13          	addi	x24,x0,1
  # Check if x24 contains the expected result. x15 is the signature ptr, x5 is the link ptr, x4 is a temp reg.
  RVTEST_SIGUPD(x15, x5, x4, x24, I_bge_cg_cr_rs1_rs2_edges_offset_rs1val_0x0_rs2val_0xaaaaaaaa, I_bge_cg_cr_rs1_rs2_edges_offset_rs1val_0x0_rs2val_0xaaaaaaaa_str) # signature 1 for taken
    273c:	0007a203          	lw	x4,0(x15)
    2740:	01820863          	beq	x4,x24,2750 <I_bge_cg_cr_rs1_rs2_edges_offset_rs1val_0x0_rs2val_0xaaaaaaaa+0x3c>
    2744:	139072ef          	jal	x5,a07c <failedtest_x5_x4>
    2748:	00002714          	.word	0x00002714
    274c:	0000dfc0          	.word	0x0000dfc0
    2750:	00478793          	addi	x15,x15,4
  j 4f # done with test
    2754:	0080006f          	jal	x0,275c <I_bge_cg_cr_rs1_rs2_edges_offset_rs1val_0x0_rs2val_0xaaaaaaaa+0x48>
3: # goes here during forward branch if taken
  bge x24, x30, 2b # backward branch, definitely taken
    2758:	ffec50e3          	bge	x24,x30,2738 <I_bge_cg_cr_rs1_rs2_edges_offset_rs1val_0x0_rs2val_0xaaaaaaaa+0x24>
4: # done with test

# cr_rs1_rs2_edges_offset (Test source rs1 = 0x00000000 rs2 = 0x55555555)
  RVTEST_TESTDATA_LOAD_INT(x23, x13) # load rs1: x13 = 0x00000000
    275c:	000ba683          	lw	x13,0(x23)
    2760:	004b8b93          	addi	x23,x23,4
  RVTEST_TESTDATA_LOAD_INT(x23, x19) # load rs2: x19 = 0x55555555
    2764:	000ba983          	lw	x19,0(x23)
    2768:	004b8b93          	addi	x23,x23,4

0000276c <I_bge_cg_cr_rs1_rs2_edges_offset_rs1val_0x0_rs2val_0x55555555>:
0: # destination for backwards branch that is never taken
I_bge_cg_cr_rs1_rs2_edges_offset_rs1val_0x0_rs2val_0x55555555:
  bge x13, x19, 3f # forward branch, if taken
    276c:	0536d263          	bge	x13,x19,27b0 <I_bge_cg_cr_rs1_rs2_edges_offset_rs1val_0x0_rs2val_0x55555555+0x44>
1: # goes here if not taken
  bge x13, x19, 0b # backward branch, never taken
    2770:	ff36dee3          	bge	x13,x19,276c <I_bge_cg_cr_rs1_rs2_edges_offset_rs1val_0x0_rs2val_0x55555555>
  # Check if x0 contains the expected result. x15 is the signature ptr, x5 is the link ptr, x4 is a temp reg.
  RVTEST_SIGUPD(x15, x5, x4, x0, I_bge_cg_cr_rs1_rs2_edges_offset_rs1val_0x0_rs2val_0x55555555, I_bge_cg_cr_rs1_rs2_edges_offset_rs1val_0x0_rs2val_0x55555555_str)
    2774:	0007a203          	lw	x4,0(x15)
    2778:	00020863          	beq	x4,x0,2788 <I_bge_cg_cr_rs1_rs2_edges_offset_rs1val_0x0_rs2val_0x55555555+0x1c>
    277c:	101072ef          	jal	x5,a07c <failedtest_x5_x4>
    2780:	0000276c          	.word	0x0000276c
    2784:	0000e01a          	.word	0x0000e01a
    2788:	00478793          	addi	x15,x15,4
  j 4f # done with test
    278c:	0280006f          	jal	x0,27b4 <I_bge_cg_cr_rs1_rs2_edges_offset_rs1val_0x0_rs2val_0x55555555+0x48>
2: # goes here during backward branch if taken
  LI(x13, 1)
    2790:	00100693          	addi	x13,x0,1
  # Check if x13 contains the expected result. x15 is the signature ptr, x5 is the link ptr, x4 is a temp reg.
  RVTEST_SIGUPD(x15, x5, x4, x13, I_bge_cg_cr_rs1_rs2_edges_offset_rs1val_0x0_rs2val_0x55555555, I_bge_cg_cr_rs1_rs2_edges_offset_rs1val_0x0_rs2val_0x55555555_str) # signature 1 for taken
    2794:	0007a203          	lw	x4,0(x15)
    2798:	00d20863          	beq	x4,x13,27a8 <I_bge_cg_cr_rs1_rs2_edges_offset_rs1val_0x0_rs2val_0x55555555+0x3c>
    279c:	0e1072ef          	jal	x5,a07c <failedtest_x5_x4>
    27a0:	0000276c          	.word	0x0000276c
    27a4:	0000e01a          	.word	0x0000e01a
    27a8:	00478793          	addi	x15,x15,4
  j 4f # done with test
    27ac:	0080006f          	jal	x0,27b4 <I_bge_cg_cr_rs1_rs2_edges_offset_rs1val_0x0_rs2val_0x55555555+0x48>
3: # goes here during forward branch if taken
  bge x13, x19, 2b # backward branch, definitely taken
    27b0:	ff36d0e3          	bge	x13,x19,2790 <I_bge_cg_cr_rs1_rs2_edges_offset_rs1val_0x0_rs2val_0x55555555+0x24>
4: # done with test

# cr_rs1_rs2_edges_offset (Test source rs1 = 0x00000001 rs2 = 0x00000000)
  RVTEST_TESTDATA_LOAD_INT(x23, x22) # load rs1: x22 = 0x00000001
    27b4:	000bab03          	lw	x22,0(x23)
    27b8:	004b8b93          	addi	x23,x23,4
  RVTEST_TESTDATA_LOAD_INT(x23, x2) # load rs2: x2 = 0x00000000
    27bc:	000ba103          	lw	x2,0(x23)
    27c0:	004b8b93          	addi	x23,x23,4

000027c4 <I_bge_cg_cr_rs1_rs2_edges_offset_rs1val_0x1_rs2val_0x0>:
0: # destination for backwards branch that is never taken
I_bge_cg_cr_rs1_rs2_edges_offset_rs1val_0x1_rs2val_0x0:
  bge x22, x2, 3f # forward branch, if taken
    27c4:	042b5263          	bge	x22,x2,2808 <I_bge_cg_cr_rs1_rs2_edges_offset_rs1val_0x1_rs2val_0x0+0x44>
1: # goes here if not taken
  bge x22, x2, 0b # backward branch, never taken
    27c8:	fe2b5ee3          	bge	x22,x2,27c4 <I_bge_cg_cr_rs1_rs2_edges_offset_rs1val_0x1_rs2val_0x0>
  # Check if x0 contains the expected result. x15 is the signature ptr, x5 is the link ptr, x4 is a temp reg.
  RVTEST_SIGUPD(x15, x5, x4, x0, I_bge_cg_cr_rs1_rs2_edges_offset_rs1val_0x1_rs2val_0x0, I_bge_cg_cr_rs1_rs2_edges_offset_rs1val_0x1_rs2val_0x0_str)
    27cc:	0007a203          	lw	x4,0(x15)
    27d0:	00020863          	beq	x4,x0,27e0 <I_bge_cg_cr_rs1_rs2_edges_offset_rs1val_0x1_rs2val_0x0+0x1c>
    27d4:	0a9072ef          	jal	x5,a07c <failedtest_x5_x4>
    27d8:	000027c4          	.word	0x000027c4
    27dc:	0000e075          	.word	0x0000e075
    27e0:	00478793          	addi	x15,x15,4
  j 4f # done with test
    27e4:	0280006f          	jal	x0,280c <I_bge_cg_cr_rs1_rs2_edges_offset_rs1val_0x1_rs2val_0x0+0x48>
2: # goes here during backward branch if taken
  LI(x22, 1)
    27e8:	00100b13          	addi	x22,x0,1
  # Check if x22 contains the expected result. x15 is the signature ptr, x5 is the link ptr, x4 is a temp reg.
  RVTEST_SIGUPD(x15, x5, x4, x22, I_bge_cg_cr_rs1_rs2_edges_offset_rs1val_0x1_rs2val_0x0, I_bge_cg_cr_rs1_rs2_edges_offset_rs1val_0x1_rs2val_0x0_str) # signature 1 for taken
    27ec:	0007a203          	lw	x4,0(x15)
    27f0:	01620863          	beq	x4,x22,2800 <I_bge_cg_cr_rs1_rs2_edges_offset_rs1val_0x1_rs2val_0x0+0x3c>
    27f4:	089072ef          	jal	x5,a07c <failedtest_x5_x4>
    27f8:	000027c4          	.word	0x000027c4
    27fc:	0000e075          	.word	0x0000e075
    2800:	00478793          	addi	x15,x15,4
  j 4f # done with test
    2804:	0080006f          	jal	x0,280c <I_bge_cg_cr_rs1_rs2_edges_offset_rs1val_0x1_rs2val_0x0+0x48>
3: # goes here during forward branch if taken
  bge x22, x2, 2b # backward branch, definitely taken
    2808:	fe2b50e3          	bge	x22,x2,27e8 <I_bge_cg_cr_rs1_rs2_edges_offset_rs1val_0x1_rs2val_0x0+0x24>
4: # done with test

# cr_rs1_rs2_edges_offset (Test source rs1 = 0x00000001 rs2 = 0x00000001)
  RVTEST_TESTDATA_LOAD_INT(x23, x6) # load rs1: x6 = 0x00000001
    280c:	000ba303          	lw	x6,0(x23)
    2810:	004b8b93          	addi	x23,x23,4
  RVTEST_TESTDATA_LOAD_INT(x23, x27) # load rs2: x27 = 0x00000001
    2814:	000bad83          	lw	x27,0(x23)
    2818:	004b8b93          	addi	x23,x23,4

0000281c <I_bge_cg_cr_rs1_rs2_edges_offset_rs1val_0x1_rs2val_0x1>:
0: # destination for backwards branch that is never taken
I_bge_cg_cr_rs1_rs2_edges_offset_rs1val_0x1_rs2val_0x1:
  bge x6, x27, 3f # forward branch, if taken
    281c:	05b35263          	bge	x6,x27,2860 <I_bge_cg_cr_rs1_rs2_edges_offset_rs1val_0x1_rs2val_0x1+0x44>
1: # goes here if not taken
  bge x6, x27, 0b # backward branch, never taken
    2820:	ffb35ee3          	bge	x6,x27,281c <I_bge_cg_cr_rs1_rs2_edges_offset_rs1val_0x1_rs2val_0x1>
  # Check if x0 contains the expected result. x15 is the signature ptr, x5 is the link ptr, x4 is a temp reg.
  RVTEST_SIGUPD(x15, x5, x4, x0, I_bge_cg_cr_rs1_rs2_edges_offset_rs1val_0x1_rs2val_0x1, I_bge_cg_cr_rs1_rs2_edges_offset_rs1val_0x1_rs2val_0x1_str)
    2824:	0007a203          	lw	x4,0(x15)
    2828:	00020863          	beq	x4,x0,2838 <I_bge_cg_cr_rs1_rs2_edges_offset_rs1val_0x1_rs2val_0x1+0x1c>
    282c:	051072ef          	jal	x5,a07c <failedtest_x5_x4>
    2830:	0000281c          	.word	0x0000281c
    2834:	0000e0c9          	.word	0x0000e0c9
    2838:	00478793          	addi	x15,x15,4
  j 4f # done with test
    283c:	0280006f          	jal	x0,2864 <I_bge_cg_cr_rs1_rs2_edges_offset_rs1val_0x1_rs2val_0x1+0x48>
2: # goes here during backward branch if taken
  LI(x6, 1)
    2840:	00100313          	addi	x6,x0,1
  # Check if x6 contains the expected result. x15 is the signature ptr, x5 is the link ptr, x4 is a temp reg.
  RVTEST_SIGUPD(x15, x5, x4, x6, I_bge_cg_cr_rs1_rs2_edges_offset_rs1val_0x1_rs2val_0x1, I_bge_cg_cr_rs1_rs2_edges_offset_rs1val_0x1_rs2val_0x1_str) # signature 1 for taken
    2844:	0007a203          	lw	x4,0(x15)
    2848:	00620863          	beq	x4,x6,2858 <I_bge_cg_cr_rs1_rs2_edges_offset_rs1val_0x1_rs2val_0x1+0x3c>
    284c:	031072ef          	jal	x5,a07c <failedtest_x5_x4>
    2850:	0000281c          	.word	0x0000281c
    2854:	0000e0c9          	.word	0x0000e0c9
    2858:	00478793          	addi	x15,x15,4
  j 4f # done with test
    285c:	0080006f          	jal	x0,2864 <I_bge_cg_cr_rs1_rs2_edges_offset_rs1val_0x1_rs2val_0x1+0x48>
3: # goes here during forward branch if taken
  bge x6, x27, 2b # backward branch, definitely taken
    2860:	ffb350e3          	bge	x6,x27,2840 <I_bge_cg_cr_rs1_rs2_edges_offset_rs1val_0x1_rs2val_0x1+0x24>
4: # done with test

# cr_rs1_rs2_edges_offset (Test source rs1 = 0x00000001 rs2 = 0x00000002)
  RVTEST_TESTDATA_LOAD_INT(x23, x30) # load rs1: x30 = 0x00000001
    2864:	000baf03          	lw	x30,0(x23)
    2868:	004b8b93          	addi	x23,x23,4
  RVTEST_TESTDATA_LOAD_INT(x23, x21) # load rs2: x21 = 0x00000002
    286c:	000baa83          	lw	x21,0(x23)
    2870:	004b8b93          	addi	x23,x23,4

00002874 <I_bge_cg_cr_rs1_rs2_edges_offset_rs1val_0x1_rs2val_0x2>:
0: # destination for backwards branch that is never taken
I_bge_cg_cr_rs1_rs2_edges_offset_rs1val_0x1_rs2val_0x2:
  bge x30, x21, 3f # forward branch, if taken
    2874:	055f5263          	bge	x30,x21,28b8 <I_bge_cg_cr_rs1_rs2_edges_offset_rs1val_0x1_rs2val_0x2+0x44>
1: # goes here if not taken
  bge x30, x21, 0b # backward branch, never taken
    2878:	ff5f5ee3          	bge	x30,x21,2874 <I_bge_cg_cr_rs1_rs2_edges_offset_rs1val_0x1_rs2val_0x2>
  # Check if x0 contains the expected result. x15 is the signature ptr, x5 is the link ptr, x4 is a temp reg.
  RVTEST_SIGUPD(x15, x5, x4, x0, I_bge_cg_cr_rs1_rs2_edges_offset_rs1val_0x1_rs2val_0x2, I_bge_cg_cr_rs1_rs2_edges_offset_rs1val_0x1_rs2val_0x2_str)
    287c:	0007a203          	lw	x4,0(x15)
    2880:	00020863          	beq	x4,x0,2890 <I_bge_cg_cr_rs1_rs2_edges_offset_rs1val_0x1_rs2val_0x2+0x1c>
    2884:	7f8072ef          	jal	x5,a07c <failedtest_x5_x4>
    2888:	00002874          	.word	0x00002874
    288c:	0000e11d          	.word	0x0000e11d
    2890:	00478793          	addi	x15,x15,4
  j 4f # done with test
    2894:	0280006f          	jal	x0,28bc <I_bge_cg_cr_rs1_rs2_edges_offset_rs1val_0x1_rs2val_0x2+0x48>
2: # goes here during backward branch if taken
  LI(x30, 1)
    2898:	00100f13          	addi	x30,x0,1
  # Check if x30 contains the expected result. x15 is the signature ptr, x5 is the link ptr, x4 is a temp reg.
  RVTEST_SIGUPD(x15, x5, x4, x30, I_bge_cg_cr_rs1_rs2_edges_offset_rs1val_0x1_rs2val_0x2, I_bge_cg_cr_rs1_rs2_edges_offset_rs1val_0x1_rs2val_0x2_str) # signature 1 for taken
    289c:	0007a203          	lw	x4,0(x15)
    28a0:	01e20863          	beq	x4,x30,28b0 <I_bge_cg_cr_rs1_rs2_edges_offset_rs1val_0x1_rs2val_0x2+0x3c>
    28a4:	7d8072ef          	jal	x5,a07c <failedtest_x5_x4>
    28a8:	00002874          	.word	0x00002874
    28ac:	0000e11d          	.word	0x0000e11d
    28b0:	00478793          	addi	x15,x15,4
  j 4f # done with test
    28b4:	0080006f          	jal	x0,28bc <I_bge_cg_cr_rs1_rs2_edges_offset_rs1val_0x1_rs2val_0x2+0x48>
3: # goes here during forward branch if taken
  bge x30, x21, 2b # backward branch, definitely taken
    28b8:	ff5f50e3          	bge	x30,x21,2898 <I_bge_cg_cr_rs1_rs2_edges_offset_rs1val_0x1_rs2val_0x2+0x24>
4: # done with test

# cr_rs1_rs2_edges_offset (Test source rs1 = 0x00000001 rs2 = 0x80000000)
  RVTEST_TESTDATA_LOAD_INT(x23, x31) # load rs1: x31 = 0x00000001
    28bc:	000baf83          	lw	x31,0(x23)
    28c0:	004b8b93          	addi	x23,x23,4
  RVTEST_TESTDATA_LOAD_INT(x23, x20) # load rs2: x20 = 0x80000000
    28c4:	000baa03          	lw	x20,0(x23)
    28c8:	004b8b93          	addi	x23,x23,4

000028cc <I_bge_cg_cr_rs1_rs2_edges_offset_rs1val_0x1_rs2val_0x80000000>:
0: # destination for backwards branch that is never taken
I_bge_cg_cr_rs1_rs2_edges_offset_rs1val_0x1_rs2val_0x80000000:
  bge x31, x20, 3f # forward branch, if taken
    28cc:	054fd263          	bge	x31,x20,2910 <I_bge_cg_cr_rs1_rs2_edges_offset_rs1val_0x1_rs2val_0x80000000+0x44>
1: # goes here if not taken
  bge x31, x20, 0b # backward branch, never taken
    28d0:	ff4fdee3          	bge	x31,x20,28cc <I_bge_cg_cr_rs1_rs2_edges_offset_rs1val_0x1_rs2val_0x80000000>
  # Check if x0 contains the expected result. x15 is the signature ptr, x5 is the link ptr, x4 is a temp reg.
  RVTEST_SIGUPD(x15, x5, x4, x0, I_bge_cg_cr_rs1_rs2_edges_offset_rs1val_0x1_rs2val_0x80000000, I_bge_cg_cr_rs1_rs2_edges_offset_rs1val_0x1_rs2val_0x80000000_str)
    28d4:	0007a203          	lw	x4,0(x15)
    28d8:	00020863          	beq	x4,x0,28e8 <I_bge_cg_cr_rs1_rs2_edges_offset_rs1val_0x1_rs2val_0x80000000+0x1c>
    28dc:	7a0072ef          	jal	x5,a07c <failedtest_x5_x4>
    28e0:	000028cc          	.word	0x000028cc
    28e4:	0000e171          	.word	0x0000e171
    28e8:	00478793          	addi	x15,x15,4
  j 4f # done with test
    28ec:	0280006f          	jal	x0,2914 <I_bge_cg_cr_rs1_rs2_edges_offset_rs1val_0x1_rs2val_0x80000000+0x48>
2: # goes here during backward branch if taken
  LI(x31, 1)
    28f0:	00100f93          	addi	x31,x0,1
  # Check if x31 contains the expected result. x15 is the signature ptr, x5 is the link ptr, x4 is a temp reg.
  RVTEST_SIGUPD(x15, x5, x4, x31, I_bge_cg_cr_rs1_rs2_edges_offset_rs1val_0x1_rs2val_0x80000000, I_bge_cg_cr_rs1_rs2_edges_offset_rs1val_0x1_rs2val_0x80000000_str) # signature 1 for taken
    28f4:	0007a203          	lw	x4,0(x15)
    28f8:	01f20863          	beq	x4,x31,2908 <I_bge_cg_cr_rs1_rs2_edges_offset_rs1val_0x1_rs2val_0x80000000+0x3c>
    28fc:	780072ef          	jal	x5,a07c <failedtest_x5_x4>
    2900:	000028cc          	.word	0x000028cc
    2904:	0000e171          	.word	0x0000e171
    2908:	00478793          	addi	x15,x15,4
  j 4f # done with test
    290c:	0080006f          	jal	x0,2914 <I_bge_cg_cr_rs1_rs2_edges_offset_rs1val_0x1_rs2val_0x80000000+0x48>
3: # goes here during forward branch if taken
  bge x31, x20, 2b # backward branch, definitely taken
    2910:	ff4fd0e3          	bge	x31,x20,28f0 <I_bge_cg_cr_rs1_rs2_edges_offset_rs1val_0x1_rs2val_0x80000000+0x24>
4: # done with test

# cr_rs1_rs2_edges_offset (Test source rs1 = 0x00000001 rs2 = 0x80000001)
  RVTEST_TESTDATA_LOAD_INT(x23, x19) # load rs1: x19 = 0x00000001
    2914:	000ba983          	lw	x19,0(x23)
    2918:	004b8b93          	addi	x23,x23,4
  RVTEST_TESTDATA_LOAD_INT(x23, x22) # load rs2: x22 = 0x80000001
    291c:	000bab03          	lw	x22,0(x23)
    2920:	004b8b93          	addi	x23,x23,4

00002924 <I_bge_cg_cr_rs1_rs2_edges_offset_rs1val_0x1_rs2val_0x80000001>:
0: # destination for backwards branch that is never taken
I_bge_cg_cr_rs1_rs2_edges_offset_rs1val_0x1_rs2val_0x80000001:
  bge x19, x22, 3f # forward branch, if taken
    2924:	0569d263          	bge	x19,x22,2968 <I_bge_cg_cr_rs1_rs2_edges_offset_rs1val_0x1_rs2val_0x80000001+0x44>
1: # goes here if not taken
  bge x19, x22, 0b # backward branch, never taken
    2928:	ff69dee3          	bge	x19,x22,2924 <I_bge_cg_cr_rs1_rs2_edges_offset_rs1val_0x1_rs2val_0x80000001>
  # Check if x0 contains the expected result. x15 is the signature ptr, x5 is the link ptr, x4 is a temp reg.
  RVTEST_SIGUPD(x15, x5, x4, x0, I_bge_cg_cr_rs1_rs2_edges_offset_rs1val_0x1_rs2val_0x80000001, I_bge_cg_cr_rs1_rs2_edges_offset_rs1val_0x1_rs2val_0x80000001_str)
    292c:	0007a203          	lw	x4,0(x15)
    2930:	00020863          	beq	x4,x0,2940 <I_bge_cg_cr_rs1_rs2_edges_offset_rs1val_0x1_rs2val_0x80000001+0x1c>
    2934:	748072ef          	jal	x5,a07c <failedtest_x5_x4>
    2938:	00002924          	.word	0x00002924
    293c:	0000e1cc          	.word	0x0000e1cc
    2940:	00478793          	addi	x15,x15,4
  j 4f # done with test
    2944:	0280006f          	jal	x0,296c <I_bge_cg_cr_rs1_rs2_edges_offset_rs1val_0x1_rs2val_0x80000001+0x48>
2: # goes here during backward branch if taken
  LI(x19, 1)
    2948:	00100993          	addi	x19,x0,1
  # Check if x19 contains the expected result. x15 is the signature ptr, x5 is the link ptr, x4 is a temp reg.
  RVTEST_SIGUPD(x15, x5, x4, x19, I_bge_cg_cr_rs1_rs2_edges_offset_rs1val_0x1_rs2val_0x80000001, I_bge_cg_cr_rs1_rs2_edges_offset_rs1val_0x1_rs2val_0x80000001_str) # signature 1 for taken
    294c:	0007a203          	lw	x4,0(x15)
    2950:	01320863          	beq	x4,x19,2960 <I_bge_cg_cr_rs1_rs2_edges_offset_rs1val_0x1_rs2val_0x80000001+0x3c>
    2954:	728072ef          	jal	x5,a07c <failedtest_x5_x4>
    2958:	00002924          	.word	0x00002924
    295c:	0000e1cc          	.word	0x0000e1cc
    2960:	00478793          	addi	x15,x15,4
  j 4f # done with test
    2964:	0080006f          	jal	x0,296c <I_bge_cg_cr_rs1_rs2_edges_offset_rs1val_0x1_rs2val_0x80000001+0x48>
3: # goes here during forward branch if taken
  bge x19, x22, 2b # backward branch, definitely taken
    2968:	ff69d0e3          	bge	x19,x22,2948 <I_bge_cg_cr_rs1_rs2_edges_offset_rs1val_0x1_rs2val_0x80000001+0x24>
4: # done with test

# cr_rs1_rs2_edges_offset (Test source rs1 = 0x00000001 rs2 = 0x7fffffff)
  RVTEST_TESTDATA_LOAD_INT(x23, x6) # load rs1: x6 = 0x00000001
    296c:	000ba303          	lw	x6,0(x23)
    2970:	004b8b93          	addi	x23,x23,4
  RVTEST_TESTDATA_LOAD_INT(x23, x26) # load rs2: x26 = 0x7fffffff
    2974:	000bad03          	lw	x26,0(x23)
    2978:	004b8b93          	addi	x23,x23,4

0000297c <I_bge_cg_cr_rs1_rs2_edges_offset_rs1val_0x1_rs2val_0x7fffffff>:
0: # destination for backwards branch that is never taken
I_bge_cg_cr_rs1_rs2_edges_offset_rs1val_0x1_rs2val_0x7fffffff:
  bge x6, x26, 3f # forward branch, if taken
    297c:	05a35263          	bge	x6,x26,29c0 <I_bge_cg_cr_rs1_rs2_edges_offset_rs1val_0x1_rs2val_0x7fffffff+0x44>
1: # goes here if not taken
  bge x6, x26, 0b # backward branch, never taken
    2980:	ffa35ee3          	bge	x6,x26,297c <I_bge_cg_cr_rs1_rs2_edges_offset_rs1val_0x1_rs2val_0x7fffffff>
  # Check if x0 contains the expected result. x15 is the signature ptr, x5 is the link ptr, x4 is a temp reg.
  RVTEST_SIGUPD(x15, x5, x4, x0, I_bge_cg_cr_rs1_rs2_edges_offset_rs1val_0x1_rs2val_0x7fffffff, I_bge_cg_cr_rs1_rs2_edges_offset_rs1val_0x1_rs2val_0x7fffffff_str)
    2984:	0007a203          	lw	x4,0(x15)
    2988:	00020863          	beq	x4,x0,2998 <I_bge_cg_cr_rs1_rs2_edges_offset_rs1val_0x1_rs2val_0x7fffffff+0x1c>
    298c:	6f0072ef          	jal	x5,a07c <failedtest_x5_x4>
    2990:	0000297c          	.word	0x0000297c
    2994:	0000e227          	.word	0x0000e227
    2998:	00478793          	addi	x15,x15,4
  j 4f # done with test
    299c:	0280006f          	jal	x0,29c4 <I_bge_cg_cr_rs1_rs2_edges_offset_rs1val_0x1_rs2val_0x7fffffff+0x48>
2: # goes here during backward branch if taken
  LI(x6, 1)
    29a0:	00100313          	addi	x6,x0,1
  # Check if x6 contains the expected result. x15 is the signature ptr, x5 is the link ptr, x4 is a temp reg.
  RVTEST_SIGUPD(x15, x5, x4, x6, I_bge_cg_cr_rs1_rs2_edges_offset_rs1val_0x1_rs2val_0x7fffffff, I_bge_cg_cr_rs1_rs2_edges_offset_rs1val_0x1_rs2val_0x7fffffff_str) # signature 1 for taken
    29a4:	0007a203          	lw	x4,0(x15)
    29a8:	00620863          	beq	x4,x6,29b8 <I_bge_cg_cr_rs1_rs2_edges_offset_rs1val_0x1_rs2val_0x7fffffff+0x3c>
    29ac:	6d0072ef          	jal	x5,a07c <failedtest_x5_x4>
    29b0:	0000297c          	.word	0x0000297c
    29b4:	0000e227          	.word	0x0000e227
    29b8:	00478793          	addi	x15,x15,4
  j 4f # done with test
    29bc:	0080006f          	jal	x0,29c4 <I_bge_cg_cr_rs1_rs2_edges_offset_rs1val_0x1_rs2val_0x7fffffff+0x48>
3: # goes here during forward branch if taken
  bge x6, x26, 2b # backward branch, definitely taken
    29c0:	ffa350e3          	bge	x6,x26,29a0 <I_bge_cg_cr_rs1_rs2_edges_offset_rs1val_0x1_rs2val_0x7fffffff+0x24>
4: # done with test

# cr_rs1_rs2_edges_offset (Test source rs1 = 0x00000001 rs2 = 0x7ffffffe)
  RVTEST_TESTDATA_LOAD_INT(x23, x29) # load rs1: x29 = 0x00000001
    29c4:	000bae83          	lw	x29,0(x23)
    29c8:	004b8b93          	addi	x23,x23,4
  RVTEST_TESTDATA_LOAD_INT(x23, x25) # load rs2: x25 = 0x7ffffffe
    29cc:	000bac83          	lw	x25,0(x23)
    29d0:	004b8b93          	addi	x23,x23,4

000029d4 <I_bge_cg_cr_rs1_rs2_edges_offset_rs1val_0x1_rs2val_0x7ffffffe>:
0: # destination for backwards branch that is never taken
I_bge_cg_cr_rs1_rs2_edges_offset_rs1val_0x1_rs2val_0x7ffffffe:
  bge x29, x25, 3f # forward branch, if taken
    29d4:	059ed263          	bge	x29,x25,2a18 <I_bge_cg_cr_rs1_rs2_edges_offset_rs1val_0x1_rs2val_0x7ffffffe+0x44>
1: # goes here if not taken
  bge x29, x25, 0b # backward branch, never taken
    29d8:	ff9edee3          	bge	x29,x25,29d4 <I_bge_cg_cr_rs1_rs2_edges_offset_rs1val_0x1_rs2val_0x7ffffffe>
  # Check if x0 contains the expected result. x15 is the signature ptr, x5 is the link ptr, x4 is a temp reg.
  RVTEST_SIGUPD(x15, x5, x4, x0, I_bge_cg_cr_rs1_rs2_edges_offset_rs1val_0x1_rs2val_0x7ffffffe, I_bge_cg_cr_rs1_rs2_edges_offset_rs1val_0x1_rs2val_0x7ffffffe_str)
    29dc:	0007a203          	lw	x4,0(x15)
    29e0:	00020863          	beq	x4,x0,29f0 <I_bge_cg_cr_rs1_rs2_edges_offset_rs1val_0x1_rs2val_0x7ffffffe+0x1c>
    29e4:	698072ef          	jal	x5,a07c <failedtest_x5_x4>
    29e8:	000029d4          	.word	0x000029d4
    29ec:	0000e282          	.word	0x0000e282
    29f0:	00478793          	addi	x15,x15,4
  j 4f # done with test
    29f4:	0280006f          	jal	x0,2a1c <I_bge_cg_cr_rs1_rs2_edges_offset_rs1val_0x1_rs2val_0x7ffffffe+0x48>
2: # goes here during backward branch if taken
  LI(x29, 1)
    29f8:	00100e93          	addi	x29,x0,1
  # Check if x29 contains the expected result. x15 is the signature ptr, x5 is the link ptr, x4 is a temp reg.
  RVTEST_SIGUPD(x15, x5, x4, x29, I_bge_cg_cr_rs1_rs2_edges_offset_rs1val_0x1_rs2val_0x7ffffffe, I_bge_cg_cr_rs1_rs2_edges_offset_rs1val_0x1_rs2val_0x7ffffffe_str) # signature 1 for taken
    29fc:	0007a203          	lw	x4,0(x15)
    2a00:	01d20863          	beq	x4,x29,2a10 <I_bge_cg_cr_rs1_rs2_edges_offset_rs1val_0x1_rs2val_0x7ffffffe+0x3c>
    2a04:	678072ef          	jal	x5,a07c <failedtest_x5_x4>
    2a08:	000029d4          	.word	0x000029d4
    2a0c:	0000e282          	.word	0x0000e282
    2a10:	00478793          	addi	x15,x15,4
  j 4f # done with test
    2a14:	0080006f          	jal	x0,2a1c <I_bge_cg_cr_rs1_rs2_edges_offset_rs1val_0x1_rs2val_0x7ffffffe+0x48>
3: # goes here during forward branch if taken
  bge x29, x25, 2b # backward branch, definitely taken
    2a18:	ff9ed0e3          	bge	x29,x25,29f8 <I_bge_cg_cr_rs1_rs2_edges_offset_rs1val_0x1_rs2val_0x7ffffffe+0x24>
4: # done with test

# cr_rs1_rs2_edges_offset (Test source rs1 = 0x00000001 rs2 = 0xffffffff)
  RVTEST_TESTDATA_LOAD_INT(x23, x12) # load rs1: x12 = 0x00000001
    2a1c:	000ba603          	lw	x12,0(x23)
    2a20:	004b8b93          	addi	x23,x23,4
  RVTEST_TESTDATA_LOAD_INT(x23, x19) # load rs2: x19 = 0xffffffff
    2a24:	000ba983          	lw	x19,0(x23)
    2a28:	004b8b93          	addi	x23,x23,4

00002a2c <I_bge_cg_cr_rs1_rs2_edges_offset_rs1val_0x1_rs2val_0xffffffff>:
0: # destination for backwards branch that is never taken
I_bge_cg_cr_rs1_rs2_edges_offset_rs1val_0x1_rs2val_0xffffffff:
  bge x12, x19, 3f # forward branch, if taken
    2a2c:	05365263          	bge	x12,x19,2a70 <I_bge_cg_cr_rs1_rs2_edges_offset_rs1val_0x1_rs2val_0xffffffff+0x44>
1: # goes here if not taken
  bge x12, x19, 0b # backward branch, never taken
    2a30:	ff365ee3          	bge	x12,x19,2a2c <I_bge_cg_cr_rs1_rs2_edges_offset_rs1val_0x1_rs2val_0xffffffff>
  # Check if x0 contains the expected result. x15 is the signature ptr, x5 is the link ptr, x4 is a temp reg.
  RVTEST_SIGUPD(x15, x5, x4, x0, I_bge_cg_cr_rs1_rs2_edges_offset_rs1val_0x1_rs2val_0xffffffff, I_bge_cg_cr_rs1_rs2_edges_offset_rs1val_0x1_rs2val_0xffffffff_str)
    2a34:	0007a203          	lw	x4,0(x15)
    2a38:	00020863          	beq	x4,x0,2a48 <I_bge_cg_cr_rs1_rs2_edges_offset_rs1val_0x1_rs2val_0xffffffff+0x1c>
    2a3c:	640072ef          	jal	x5,a07c <failedtest_x5_x4>
    2a40:	00002a2c          	.word	0x00002a2c
    2a44:	0000e2dd          	.word	0x0000e2dd
    2a48:	00478793          	addi	x15,x15,4
  j 4f # done with test
    2a4c:	0280006f          	jal	x0,2a74 <I_bge_cg_cr_rs1_rs2_edges_offset_rs1val_0x1_rs2val_0xffffffff+0x48>
2: # goes here during backward branch if taken
  LI(x12, 1)
    2a50:	00100613          	addi	x12,x0,1
  # Check if x12 contains the expected result. x15 is the signature ptr, x5 is the link ptr, x4 is a temp reg.
  RVTEST_SIGUPD(x15, x5, x4, x12, I_bge_cg_cr_rs1_rs2_edges_offset_rs1val_0x1_rs2val_0xffffffff, I_bge_cg_cr_rs1_rs2_edges_offset_rs1val_0x1_rs2val_0xffffffff_str) # signature 1 for taken
    2a54:	0007a203          	lw	x4,0(x15)
    2a58:	00c20863          	beq	x4,x12,2a68 <I_bge_cg_cr_rs1_rs2_edges_offset_rs1val_0x1_rs2val_0xffffffff+0x3c>
    2a5c:	620072ef          	jal	x5,a07c <failedtest_x5_x4>
    2a60:	00002a2c          	.word	0x00002a2c
    2a64:	0000e2dd          	.word	0x0000e2dd
    2a68:	00478793          	addi	x15,x15,4
  j 4f # done with test
    2a6c:	0080006f          	jal	x0,2a74 <I_bge_cg_cr_rs1_rs2_edges_offset_rs1val_0x1_rs2val_0xffffffff+0x48>
3: # goes here during forward branch if taken
  bge x12, x19, 2b # backward branch, definitely taken
    2a70:	ff3650e3          	bge	x12,x19,2a50 <I_bge_cg_cr_rs1_rs2_edges_offset_rs1val_0x1_rs2val_0xffffffff+0x24>
4: # done with test

# cr_rs1_rs2_edges_offset (Test source rs1 = 0x00000001 rs2 = 0xfffffffe)
  RVTEST_TESTDATA_LOAD_INT(x23, x3) # load rs1: x3 = 0x00000001
    2a74:	000ba183          	lw	x3,0(x23)
    2a78:	004b8b93          	addi	x23,x23,4
  RVTEST_TESTDATA_LOAD_INT(x23, x31) # load rs2: x31 = 0xfffffffe
    2a7c:	000baf83          	lw	x31,0(x23)
    2a80:	004b8b93          	addi	x23,x23,4

00002a84 <I_bge_cg_cr_rs1_rs2_edges_offset_rs1val_0x1_rs2val_0xfffffffe>:
0: # destination for backwards branch that is never taken
I_bge_cg_cr_rs1_rs2_edges_offset_rs1val_0x1_rs2val_0xfffffffe:
  bge x3, x31, 3f # forward branch, if taken
    2a84:	05f1d263          	bge	x3,x31,2ac8 <I_bge_cg_cr_rs1_rs2_edges_offset_rs1val_0x1_rs2val_0xfffffffe+0x44>
1: # goes here if not taken
  bge x3, x31, 0b # backward branch, never taken
    2a88:	fff1dee3          	bge	x3,x31,2a84 <I_bge_cg_cr_rs1_rs2_edges_offset_rs1val_0x1_rs2val_0xfffffffe>
  # Check if x0 contains the expected result. x15 is the signature ptr, x5 is the link ptr, x4 is a temp reg.
  RVTEST_SIGUPD(x15, x5, x4, x0, I_bge_cg_cr_rs1_rs2_edges_offset_rs1val_0x1_rs2val_0xfffffffe, I_bge_cg_cr_rs1_rs2_edges_offset_rs1val_0x1_rs2val_0xfffffffe_str)
    2a8c:	0007a203          	lw	x4,0(x15)
    2a90:	00020863          	beq	x4,x0,2aa0 <I_bge_cg_cr_rs1_rs2_edges_offset_rs1val_0x1_rs2val_0xfffffffe+0x1c>
    2a94:	5e8072ef          	jal	x5,a07c <failedtest_x5_x4>
    2a98:	00002a84          	.word	0x00002a84
    2a9c:	0000e338          	.word	0x0000e338
    2aa0:	00478793          	addi	x15,x15,4
  j 4f # done with test
    2aa4:	0280006f          	jal	x0,2acc <I_bge_cg_cr_rs1_rs2_edges_offset_rs1val_0x1_rs2val_0xfffffffe+0x48>
2: # goes here during backward branch if taken
  LI(x3, 1)
    2aa8:	00100193          	addi	x3,x0,1
  # Check if x3 contains the expected result. x15 is the signature ptr, x5 is the link ptr, x4 is a temp reg.
  RVTEST_SIGUPD(x15, x5, x4, x3, I_bge_cg_cr_rs1_rs2_edges_offset_rs1val_0x1_rs2val_0xfffffffe, I_bge_cg_cr_rs1_rs2_edges_offset_rs1val_0x1_rs2val_0xfffffffe_str) # signature 1 for taken
    2aac:	0007a203          	lw	x4,0(x15)
    2ab0:	00320863          	beq	x4,x3,2ac0 <I_bge_cg_cr_rs1_rs2_edges_offset_rs1val_0x1_rs2val_0xfffffffe+0x3c>
    2ab4:	5c8072ef          	jal	x5,a07c <failedtest_x5_x4>
    2ab8:	00002a84          	.word	0x00002a84
    2abc:	0000e338          	.word	0x0000e338
    2ac0:	00478793          	addi	x15,x15,4
  j 4f # done with test
    2ac4:	0080006f          	jal	x0,2acc <I_bge_cg_cr_rs1_rs2_edges_offset_rs1val_0x1_rs2val_0xfffffffe+0x48>
3: # goes here during forward branch if taken
  bge x3, x31, 2b # backward branch, definitely taken
    2ac8:	fff1d0e3          	bge	x3,x31,2aa8 <I_bge_cg_cr_rs1_rs2_edges_offset_rs1val_0x1_rs2val_0xfffffffe+0x24>
4: # done with test

# cr_rs1_rs2_edges_offset (Test source rs1 = 0x00000001 rs2 = 0x5bbc8872)
  RVTEST_TESTDATA_LOAD_INT(x23, x7) # load rs1: x7 = 0x00000001
    2acc:	000ba383          	lw	x7,0(x23)
    2ad0:	004b8b93          	addi	x23,x23,4
  RVTEST_TESTDATA_LOAD_INT(x23, x24) # load rs2: x24 = 0x5bbc8872
    2ad4:	000bac03          	lw	x24,0(x23)
    2ad8:	004b8b93          	addi	x23,x23,4

00002adc <I_bge_cg_cr_rs1_rs2_edges_offset_rs1val_0x1_rs2val_0x5bbc8872>:
0: # destination for backwards branch that is never taken
I_bge_cg_cr_rs1_rs2_edges_offset_rs1val_0x1_rs2val_0x5bbc8872:
  bge x7, x24, 3f # forward branch, if taken
    2adc:	0583d263          	bge	x7,x24,2b20 <I_bge_cg_cr_rs1_rs2_edges_offset_rs1val_0x1_rs2val_0x5bbc8872+0x44>
1: # goes here if not taken
  bge x7, x24, 0b # backward branch, never taken
    2ae0:	ff83dee3          	bge	x7,x24,2adc <I_bge_cg_cr_rs1_rs2_edges_offset_rs1val_0x1_rs2val_0x5bbc8872>
  # Check if x0 contains the expected result. x15 is the signature ptr, x5 is the link ptr, x4 is a temp reg.
  RVTEST_SIGUPD(x15, x5, x4, x0, I_bge_cg_cr_rs1_rs2_edges_offset_rs1val_0x1_rs2val_0x5bbc8872, I_bge_cg_cr_rs1_rs2_edges_offset_rs1val_0x1_rs2val_0x5bbc8872_str)
    2ae4:	0007a203          	lw	x4,0(x15)
    2ae8:	00020863          	beq	x4,x0,2af8 <I_bge_cg_cr_rs1_rs2_edges_offset_rs1val_0x1_rs2val_0x5bbc8872+0x1c>
    2aec:	590072ef          	jal	x5,a07c <failedtest_x5_x4>
    2af0:	00002adc          	.word	0x00002adc
    2af4:	0000e393          	.word	0x0000e393
    2af8:	00478793          	addi	x15,x15,4
  j 4f # done with test
    2afc:	0280006f          	jal	x0,2b24 <I_bge_cg_cr_rs1_rs2_edges_offset_rs1val_0x1_rs2val_0x5bbc8872+0x48>
2: # goes here during backward branch if taken
  LI(x7, 1)
    2b00:	00100393          	addi	x7,x0,1
  # Check if x7 contains the expected result. x15 is the signature ptr, x5 is the link ptr, x4 is a temp reg.
  RVTEST_SIGUPD(x15, x5, x4, x7, I_bge_cg_cr_rs1_rs2_edges_offset_rs1val_0x1_rs2val_0x5bbc8872, I_bge_cg_cr_rs1_rs2_edges_offset_rs1val_0x1_rs2val_0x5bbc8872_str) # signature 1 for taken
    2b04:	0007a203          	lw	x4,0(x15)
    2b08:	00720863          	beq	x4,x7,2b18 <I_bge_cg_cr_rs1_rs2_edges_offset_rs1val_0x1_rs2val_0x5bbc8872+0x3c>
    2b0c:	570072ef          	jal	x5,a07c <failedtest_x5_x4>
    2b10:	00002adc          	.word	0x00002adc
    2b14:	0000e393          	.word	0x0000e393
    2b18:	00478793          	addi	x15,x15,4
  j 4f # done with test
    2b1c:	0080006f          	jal	x0,2b24 <I_bge_cg_cr_rs1_rs2_edges_offset_rs1val_0x1_rs2val_0x5bbc8872+0x48>
3: # goes here during forward branch if taken
  bge x7, x24, 2b # backward branch, definitely taken
    2b20:	ff83d0e3          	bge	x7,x24,2b00 <I_bge_cg_cr_rs1_rs2_edges_offset_rs1val_0x1_rs2val_0x5bbc8872+0x24>
4: # done with test

# cr_rs1_rs2_edges_offset (Test source rs1 = 0x00000001 rs2 = 0xaaaaaaaa)
  RVTEST_TESTDATA_LOAD_INT(x23, x26) # load rs1: x26 = 0x00000001
    2b24:	000bad03          	lw	x26,0(x23)
    2b28:	004b8b93          	addi	x23,x23,4
  RVTEST_TESTDATA_LOAD_INT(x23, x7) # load rs2: x7 = 0xaaaaaaaa
    2b2c:	000ba383          	lw	x7,0(x23)
    2b30:	004b8b93          	addi	x23,x23,4

00002b34 <I_bge_cg_cr_rs1_rs2_edges_offset_rs1val_0x1_rs2val_0xaaaaaaaa>:
0: # destination for backwards branch that is never taken
I_bge_cg_cr_rs1_rs2_edges_offset_rs1val_0x1_rs2val_0xaaaaaaaa:
  bge x26, x7, 3f # forward branch, if taken
    2b34:	047d5263          	bge	x26,x7,2b78 <I_bge_cg_cr_rs1_rs2_edges_offset_rs1val_0x1_rs2val_0xaaaaaaaa+0x44>
1: # goes here if not taken
  bge x26, x7, 0b # backward branch, never taken
    2b38:	fe7d5ee3          	bge	x26,x7,2b34 <I_bge_cg_cr_rs1_rs2_edges_offset_rs1val_0x1_rs2val_0xaaaaaaaa>
  # Check if x0 contains the expected result. x15 is the signature ptr, x5 is the link ptr, x4 is a temp reg.
  RVTEST_SIGUPD(x15, x5, x4, x0, I_bge_cg_cr_rs1_rs2_edges_offset_rs1val_0x1_rs2val_0xaaaaaaaa, I_bge_cg_cr_rs1_rs2_edges_offset_rs1val_0x1_rs2val_0xaaaaaaaa_str)
    2b3c:	0007a203          	lw	x4,0(x15)
    2b40:	00020863          	beq	x4,x0,2b50 <I_bge_cg_cr_rs1_rs2_edges_offset_rs1val_0x1_rs2val_0xaaaaaaaa+0x1c>
    2b44:	538072ef          	jal	x5,a07c <failedtest_x5_x4>
    2b48:	00002b34          	.word	0x00002b34
    2b4c:	0000e3ee          	.word	0x0000e3ee
    2b50:	00478793          	addi	x15,x15,4
  j 4f # done with test
    2b54:	0280006f          	jal	x0,2b7c <I_bge_cg_cr_rs1_rs2_edges_offset_rs1val_0x1_rs2val_0xaaaaaaaa+0x48>
2: # goes here during backward branch if taken
  LI(x26, 1)
    2b58:	00100d13          	addi	x26,x0,1
  # Check if x26 contains the expected result. x15 is the signature ptr, x5 is the link ptr, x4 is a temp reg.
  RVTEST_SIGUPD(x15, x5, x4, x26, I_bge_cg_cr_rs1_rs2_edges_offset_rs1val_0x1_rs2val_0xaaaaaaaa, I_bge_cg_cr_rs1_rs2_edges_offset_rs1val_0x1_rs2val_0xaaaaaaaa_str) # signature 1 for taken
    2b5c:	0007a203          	lw	x4,0(x15)
    2b60:	01a20863          	beq	x4,x26,2b70 <I_bge_cg_cr_rs1_rs2_edges_offset_rs1val_0x1_rs2val_0xaaaaaaaa+0x3c>
    2b64:	518072ef          	jal	x5,a07c <failedtest_x5_x4>
    2b68:	00002b34          	.word	0x00002b34
    2b6c:	0000e3ee          	.word	0x0000e3ee
    2b70:	00478793          	addi	x15,x15,4
  j 4f # done with test
    2b74:	0080006f          	jal	x0,2b7c <I_bge_cg_cr_rs1_rs2_edges_offset_rs1val_0x1_rs2val_0xaaaaaaaa+0x48>
3: # goes here during forward branch if taken
  bge x26, x7, 2b # backward branch, definitely taken
    2b78:	fe7d50e3          	bge	x26,x7,2b58 <I_bge_cg_cr_rs1_rs2_edges_offset_rs1val_0x1_rs2val_0xaaaaaaaa+0x24>
4: # done with test

# cr_rs1_rs2_edges_offset (Test source rs1 = 0x00000001 rs2 = 0x55555555)
  RVTEST_TESTDATA_LOAD_INT(x23, x1) # load rs1: x1 = 0x00000001
    2b7c:	000ba083          	lw	x1,0(x23)
    2b80:	004b8b93          	addi	x23,x23,4
  RVTEST_TESTDATA_LOAD_INT(x23, x8) # load rs2: x8 = 0x55555555
    2b84:	000ba403          	lw	x8,0(x23)
    2b88:	004b8b93          	addi	x23,x23,4

00002b8c <I_bge_cg_cr_rs1_rs2_edges_offset_rs1val_0x1_rs2val_0x55555555>:
0: # destination for backwards branch that is never taken
I_bge_cg_cr_rs1_rs2_edges_offset_rs1val_0x1_rs2val_0x55555555:
  bge x1, x8, 3f # forward branch, if taken
    2b8c:	0480d263          	bge	x1,x8,2bd0 <I_bge_cg_cr_rs1_rs2_edges_offset_rs1val_0x1_rs2val_0x55555555+0x44>
1: # goes here if not taken
  bge x1, x8, 0b # backward branch, never taken
    2b90:	fe80dee3          	bge	x1,x8,2b8c <I_bge_cg_cr_rs1_rs2_edges_offset_rs1val_0x1_rs2val_0x55555555>
  # Check if x0 contains the expected result. x15 is the signature ptr, x5 is the link ptr, x4 is a temp reg.
  RVTEST_SIGUPD(x15, x5, x4, x0, I_bge_cg_cr_rs1_rs2_edges_offset_rs1val_0x1_rs2val_0x55555555, I_bge_cg_cr_rs1_rs2_edges_offset_rs1val_0x1_rs2val_0x55555555_str)
    2b94:	0007a203          	lw	x4,0(x15)
    2b98:	00020863          	beq	x4,x0,2ba8 <I_bge_cg_cr_rs1_rs2_edges_offset_rs1val_0x1_rs2val_0x55555555+0x1c>
    2b9c:	4e0072ef          	jal	x5,a07c <failedtest_x5_x4>
    2ba0:	00002b8c          	.word	0x00002b8c
    2ba4:	0000e449          	.word	0x0000e449
    2ba8:	00478793          	addi	x15,x15,4
  j 4f # done with test
    2bac:	0280006f          	jal	x0,2bd4 <I_bge_cg_cr_rs1_rs2_edges_offset_rs1val_0x1_rs2val_0x55555555+0x48>
2: # goes here during backward branch if taken
  LI(x1, 1)
    2bb0:	00100093          	addi	x1,x0,1
  # Check if x1 contains the expected result. x15 is the signature ptr, x5 is the link ptr, x4 is a temp reg.
  RVTEST_SIGUPD(x15, x5, x4, x1, I_bge_cg_cr_rs1_rs2_edges_offset_rs1val_0x1_rs2val_0x55555555, I_bge_cg_cr_rs1_rs2_edges_offset_rs1val_0x1_rs2val_0x55555555_str) # signature 1 for taken
    2bb4:	0007a203          	lw	x4,0(x15)
    2bb8:	00120863          	beq	x4,x1,2bc8 <I_bge_cg_cr_rs1_rs2_edges_offset_rs1val_0x1_rs2val_0x55555555+0x3c>
    2bbc:	4c0072ef          	jal	x5,a07c <failedtest_x5_x4>
    2bc0:	00002b8c          	.word	0x00002b8c
    2bc4:	0000e449          	.word	0x0000e449
    2bc8:	00478793          	addi	x15,x15,4
  j 4f # done with test
    2bcc:	0080006f          	jal	x0,2bd4 <I_bge_cg_cr_rs1_rs2_edges_offset_rs1val_0x1_rs2val_0x55555555+0x48>
3: # goes here during forward branch if taken
  bge x1, x8, 2b # backward branch, definitely taken
    2bd0:	fe80d0e3          	bge	x1,x8,2bb0 <I_bge_cg_cr_rs1_rs2_edges_offset_rs1val_0x1_rs2val_0x55555555+0x24>
4: # done with test

# cr_rs1_rs2_edges_offset (Test source rs1 = 0x00000002 rs2 = 0x00000000)
  RVTEST_TESTDATA_LOAD_INT(x23, x20) # load rs1: x20 = 0x00000002
    2bd4:	000baa03          	lw	x20,0(x23)
    2bd8:	004b8b93          	addi	x23,x23,4
  RVTEST_TESTDATA_LOAD_INT(x23, x3) # load rs2: x3 = 0x00000000
    2bdc:	000ba183          	lw	x3,0(x23)
    2be0:	004b8b93          	addi	x23,x23,4

00002be4 <I_bge_cg_cr_rs1_rs2_edges_offset_rs1val_0x2_rs2val_0x0>:
0: # destination for backwards branch that is never taken
I_bge_cg_cr_rs1_rs2_edges_offset_rs1val_0x2_rs2val_0x0:
  bge x20, x3, 3f # forward branch, if taken
    2be4:	043a5263          	bge	x20,x3,2c28 <I_bge_cg_cr_rs1_rs2_edges_offset_rs1val_0x2_rs2val_0x0+0x44>
1: # goes here if not taken
  bge x20, x3, 0b # backward branch, never taken
    2be8:	fe3a5ee3          	bge	x20,x3,2be4 <I_bge_cg_cr_rs1_rs2_edges_offset_rs1val_0x2_rs2val_0x0>
  # Check if x0 contains the expected result. x15 is the signature ptr, x5 is the link ptr, x4 is a temp reg.
  RVTEST_SIGUPD(x15, x5, x4, x0, I_bge_cg_cr_rs1_rs2_edges_offset_rs1val_0x2_rs2val_0x0, I_bge_cg_cr_rs1_rs2_edges_offset_rs1val_0x2_rs2val_0x0_str)
    2bec:	0007a203          	lw	x4,0(x15)
    2bf0:	00020863          	beq	x4,x0,2c00 <I_bge_cg_cr_rs1_rs2_edges_offset_rs1val_0x2_rs2val_0x0+0x1c>
    2bf4:	488072ef          	jal	x5,a07c <failedtest_x5_x4>
    2bf8:	00002be4          	.word	0x00002be4
    2bfc:	0000e4a4          	.word	0x0000e4a4
    2c00:	00478793          	addi	x15,x15,4
  j 4f # done with test
    2c04:	0280006f          	jal	x0,2c2c <I_bge_cg_cr_rs1_rs2_edges_offset_rs1val_0x2_rs2val_0x0+0x48>
2: # goes here during backward branch if taken
  LI(x20, 1)
    2c08:	00100a13          	addi	x20,x0,1
  # Check if x20 contains the expected result. x15 is the signature ptr, x5 is the link ptr, x4 is a temp reg.
  RVTEST_SIGUPD(x15, x5, x4, x20, I_bge_cg_cr_rs1_rs2_edges_offset_rs1val_0x2_rs2val_0x0, I_bge_cg_cr_rs1_rs2_edges_offset_rs1val_0x2_rs2val_0x0_str) # signature 1 for taken
    2c0c:	0007a203          	lw	x4,0(x15)
    2c10:	01420863          	beq	x4,x20,2c20 <I_bge_cg_cr_rs1_rs2_edges_offset_rs1val_0x2_rs2val_0x0+0x3c>
    2c14:	468072ef          	jal	x5,a07c <failedtest_x5_x4>
    2c18:	00002be4          	.word	0x00002be4
    2c1c:	0000e4a4          	.word	0x0000e4a4
    2c20:	00478793          	addi	x15,x15,4
  j 4f # done with test
    2c24:	0080006f          	jal	x0,2c2c <I_bge_cg_cr_rs1_rs2_edges_offset_rs1val_0x2_rs2val_0x0+0x48>
3: # goes here during forward branch if taken
  bge x20, x3, 2b # backward branch, definitely taken
    2c28:	fe3a50e3          	bge	x20,x3,2c08 <I_bge_cg_cr_rs1_rs2_edges_offset_rs1val_0x2_rs2val_0x0+0x24>
4: # done with test

# cr_rs1_rs2_edges_offset (Test source rs1 = 0x00000002 rs2 = 0x00000001)
  RVTEST_TESTDATA_LOAD_INT(x23, x12) # load rs1: x12 = 0x00000002
    2c2c:	000ba603          	lw	x12,0(x23)
    2c30:	004b8b93          	addi	x23,x23,4
  RVTEST_TESTDATA_LOAD_INT(x23, x2) # load rs2: x2 = 0x00000001
    2c34:	000ba103          	lw	x2,0(x23)
    2c38:	004b8b93          	addi	x23,x23,4

00002c3c <I_bge_cg_cr_rs1_rs2_edges_offset_rs1val_0x2_rs2val_0x1>:
0: # destination for backwards branch that is never taken
I_bge_cg_cr_rs1_rs2_edges_offset_rs1val_0x2_rs2val_0x1:
  bge x12, x2, 3f # forward branch, if taken
    2c3c:	04265263          	bge	x12,x2,2c80 <I_bge_cg_cr_rs1_rs2_edges_offset_rs1val_0x2_rs2val_0x1+0x44>
1: # goes here if not taken
  bge x12, x2, 0b # backward branch, never taken
    2c40:	fe265ee3          	bge	x12,x2,2c3c <I_bge_cg_cr_rs1_rs2_edges_offset_rs1val_0x2_rs2val_0x1>
  # Check if x0 contains the expected result. x15 is the signature ptr, x5 is the link ptr, x4 is a temp reg.
  RVTEST_SIGUPD(x15, x5, x4, x0, I_bge_cg_cr_rs1_rs2_edges_offset_rs1val_0x2_rs2val_0x1, I_bge_cg_cr_rs1_rs2_edges_offset_rs1val_0x2_rs2val_0x1_str)
    2c44:	0007a203          	lw	x4,0(x15)
    2c48:	00020863          	beq	x4,x0,2c58 <I_bge_cg_cr_rs1_rs2_edges_offset_rs1val_0x2_rs2val_0x1+0x1c>
    2c4c:	430072ef          	jal	x5,a07c <failedtest_x5_x4>
    2c50:	00002c3c          	.word	0x00002c3c
    2c54:	0000e4f8          	.word	0x0000e4f8
    2c58:	00478793          	addi	x15,x15,4
  j 4f # done with test
    2c5c:	0280006f          	jal	x0,2c84 <I_bge_cg_cr_rs1_rs2_edges_offset_rs1val_0x2_rs2val_0x1+0x48>
2: # goes here during backward branch if taken
  LI(x12, 1)
    2c60:	00100613          	addi	x12,x0,1
  # Check if x12 contains the expected result. x15 is the signature ptr, x5 is the link ptr, x4 is a temp reg.
  RVTEST_SIGUPD(x15, x5, x4, x12, I_bge_cg_cr_rs1_rs2_edges_offset_rs1val_0x2_rs2val_0x1, I_bge_cg_cr_rs1_rs2_edges_offset_rs1val_0x2_rs2val_0x1_str) # signature 1 for taken
    2c64:	0007a203          	lw	x4,0(x15)
    2c68:	00c20863          	beq	x4,x12,2c78 <I_bge_cg_cr_rs1_rs2_edges_offset_rs1val_0x2_rs2val_0x1+0x3c>
    2c6c:	410072ef          	jal	x5,a07c <failedtest_x5_x4>
    2c70:	00002c3c          	.word	0x00002c3c
    2c74:	0000e4f8          	.word	0x0000e4f8
    2c78:	00478793          	addi	x15,x15,4
  j 4f # done with test
    2c7c:	0080006f          	jal	x0,2c84 <I_bge_cg_cr_rs1_rs2_edges_offset_rs1val_0x2_rs2val_0x1+0x48>
3: # goes here during forward branch if taken
  bge x12, x2, 2b # backward branch, definitely taken
    2c80:	fe2650e3          	bge	x12,x2,2c60 <I_bge_cg_cr_rs1_rs2_edges_offset_rs1val_0x2_rs2val_0x1+0x24>
4: # done with test

# cr_rs1_rs2_edges_offset (Test source rs1 = 0x00000002 rs2 = 0x00000002)
  RVTEST_TESTDATA_LOAD_INT(x23, x3) # load rs1: x3 = 0x00000002
    2c84:	000ba183          	lw	x3,0(x23)
    2c88:	004b8b93          	addi	x23,x23,4
  RVTEST_TESTDATA_LOAD_INT(x23, x30) # load rs2: x30 = 0x00000002
    2c8c:	000baf03          	lw	x30,0(x23)
    2c90:	004b8b93          	addi	x23,x23,4

00002c94 <I_bge_cg_cr_rs1_rs2_edges_offset_rs1val_0x2_rs2val_0x2>:
0: # destination for backwards branch that is never taken
I_bge_cg_cr_rs1_rs2_edges_offset_rs1val_0x2_rs2val_0x2:
  bge x3, x30, 3f # forward branch, if taken
    2c94:	05e1d263          	bge	x3,x30,2cd8 <I_bge_cg_cr_rs1_rs2_edges_offset_rs1val_0x2_rs2val_0x2+0x44>
1: # goes here if not taken
  bge x3, x30, 0b # backward branch, never taken
    2c98:	ffe1dee3          	bge	x3,x30,2c94 <I_bge_cg_cr_rs1_rs2_edges_offset_rs1val_0x2_rs2val_0x2>
  # Check if x0 contains the expected result. x15 is the signature ptr, x5 is the link ptr, x4 is a temp reg.
  RVTEST_SIGUPD(x15, x5, x4, x0, I_bge_cg_cr_rs1_rs2_edges_offset_rs1val_0x2_rs2val_0x2, I_bge_cg_cr_rs1_rs2_edges_offset_rs1val_0x2_rs2val_0x2_str)
    2c9c:	0007a203          	lw	x4,0(x15)
    2ca0:	00020863          	beq	x4,x0,2cb0 <I_bge_cg_cr_rs1_rs2_edges_offset_rs1val_0x2_rs2val_0x2+0x1c>
    2ca4:	3d8072ef          	jal	x5,a07c <failedtest_x5_x4>
    2ca8:	00002c94          	.word	0x00002c94
    2cac:	0000e54c          	.word	0x0000e54c
    2cb0:	00478793          	addi	x15,x15,4
  j 4f # done with test
    2cb4:	0280006f          	jal	x0,2cdc <I_bge_cg_cr_rs1_rs2_edges_offset_rs1val_0x2_rs2val_0x2+0x48>
2: # goes here during backward branch if taken
  LI(x3, 1)
    2cb8:	00100193          	addi	x3,x0,1
  # Check if x3 contains the expected result. x15 is the signature ptr, x5 is the link ptr, x4 is a temp reg.
  RVTEST_SIGUPD(x15, x5, x4, x3, I_bge_cg_cr_rs1_rs2_edges_offset_rs1val_0x2_rs2val_0x2, I_bge_cg_cr_rs1_rs2_edges_offset_rs1val_0x2_rs2val_0x2_str) # signature 1 for taken
    2cbc:	0007a203          	lw	x4,0(x15)
    2cc0:	00320863          	beq	x4,x3,2cd0 <I_bge_cg_cr_rs1_rs2_edges_offset_rs1val_0x2_rs2val_0x2+0x3c>
    2cc4:	3b8072ef          	jal	x5,a07c <failedtest_x5_x4>
    2cc8:	00002c94          	.word	0x00002c94
    2ccc:	0000e54c          	.word	0x0000e54c
    2cd0:	00478793          	addi	x15,x15,4
  j 4f # done with test
    2cd4:	0080006f          	jal	x0,2cdc <I_bge_cg_cr_rs1_rs2_edges_offset_rs1val_0x2_rs2val_0x2+0x48>
3: # goes here during forward branch if taken
  bge x3, x30, 2b # backward branch, definitely taken
    2cd8:	ffe1d0e3          	bge	x3,x30,2cb8 <I_bge_cg_cr_rs1_rs2_edges_offset_rs1val_0x2_rs2val_0x2+0x24>
4: # done with test

# cr_rs1_rs2_edges_offset (Test source rs1 = 0x00000002 rs2 = 0x80000000)
  RVTEST_TESTDATA_LOAD_INT(x23, x3) # load rs1: x3 = 0x00000002
    2cdc:	000ba183          	lw	x3,0(x23)
    2ce0:	004b8b93          	addi	x23,x23,4
  RVTEST_TESTDATA_LOAD_INT(x23, x20) # load rs2: x20 = 0x80000000
    2ce4:	000baa03          	lw	x20,0(x23)
    2ce8:	004b8b93          	addi	x23,x23,4

00002cec <I_bge_cg_cr_rs1_rs2_edges_offset_rs1val_0x2_rs2val_0x80000000>:
0: # destination for backwards branch that is never taken
I_bge_cg_cr_rs1_rs2_edges_offset_rs1val_0x2_rs2val_0x80000000:
  bge x3, x20, 3f # forward branch, if taken
    2cec:	0541d263          	bge	x3,x20,2d30 <I_bge_cg_cr_rs1_rs2_edges_offset_rs1val_0x2_rs2val_0x80000000+0x44>
1: # goes here if not taken
  bge x3, x20, 0b # backward branch, never taken
    2cf0:	ff41dee3          	bge	x3,x20,2cec <I_bge_cg_cr_rs1_rs2_edges_offset_rs1val_0x2_rs2val_0x80000000>
  # Check if x0 contains the expected result. x15 is the signature ptr, x5 is the link ptr, x4 is a temp reg.
  RVTEST_SIGUPD(x15, x5, x4, x0, I_bge_cg_cr_rs1_rs2_edges_offset_rs1val_0x2_rs2val_0x80000000, I_bge_cg_cr_rs1_rs2_edges_offset_rs1val_0x2_rs2val_0x80000000_str)
    2cf4:	0007a203          	lw	x4,0(x15)
    2cf8:	00020863          	beq	x4,x0,2d08 <I_bge_cg_cr_rs1_rs2_edges_offset_rs1val_0x2_rs2val_0x80000000+0x1c>
    2cfc:	380072ef          	jal	x5,a07c <failedtest_x5_x4>
    2d00:	00002cec          	.word	0x00002cec
    2d04:	0000e5a0          	.word	0x0000e5a0
    2d08:	00478793          	addi	x15,x15,4
  j 4f # done with test
    2d0c:	0280006f          	jal	x0,2d34 <I_bge_cg_cr_rs1_rs2_edges_offset_rs1val_0x2_rs2val_0x80000000+0x48>
2: # goes here during backward branch if taken
  LI(x3, 1)
    2d10:	00100193          	addi	x3,x0,1
  # Check if x3 contains the expected result. x15 is the signature ptr, x5 is the link ptr, x4 is a temp reg.
  RVTEST_SIGUPD(x15, x5, x4, x3, I_bge_cg_cr_rs1_rs2_edges_offset_rs1val_0x2_rs2val_0x80000000, I_bge_cg_cr_rs1_rs2_edges_offset_rs1val_0x2_rs2val_0x80000000_str) # signature 1 for taken
    2d14:	0007a203          	lw	x4,0(x15)
    2d18:	00320863          	beq	x4,x3,2d28 <I_bge_cg_cr_rs1_rs2_edges_offset_rs1val_0x2_rs2val_0x80000000+0x3c>
    2d1c:	360072ef          	jal	x5,a07c <failedtest_x5_x4>
    2d20:	00002cec          	.word	0x00002cec
    2d24:	0000e5a0          	.word	0x0000e5a0
    2d28:	00478793          	addi	x15,x15,4
  j 4f # done with test
    2d2c:	0080006f          	jal	x0,2d34 <I_bge_cg_cr_rs1_rs2_edges_offset_rs1val_0x2_rs2val_0x80000000+0x48>
3: # goes here during forward branch if taken
  bge x3, x20, 2b # backward branch, definitely taken
    2d30:	ff41d0e3          	bge	x3,x20,2d10 <I_bge_cg_cr_rs1_rs2_edges_offset_rs1val_0x2_rs2val_0x80000000+0x24>
4: # done with test

# cr_rs1_rs2_edges_offset (Test source rs1 = 0x00000002 rs2 = 0x80000001)
  RVTEST_TESTDATA_LOAD_INT(x23, x18) # load rs1: x18 = 0x00000002
    2d34:	000ba903          	lw	x18,0(x23)
    2d38:	004b8b93          	addi	x23,x23,4
  RVTEST_TESTDATA_LOAD_INT(x23, x28) # load rs2: x28 = 0x80000001
    2d3c:	000bae03          	lw	x28,0(x23)
    2d40:	004b8b93          	addi	x23,x23,4

00002d44 <I_bge_cg_cr_rs1_rs2_edges_offset_rs1val_0x2_rs2val_0x80000001>:
0: # destination for backwards branch that is never taken
I_bge_cg_cr_rs1_rs2_edges_offset_rs1val_0x2_rs2val_0x80000001:
  bge x18, x28, 3f # forward branch, if taken
    2d44:	05c95263          	bge	x18,x28,2d88 <I_bge_cg_cr_rs1_rs2_edges_offset_rs1val_0x2_rs2val_0x80000001+0x44>
1: # goes here if not taken
  bge x18, x28, 0b # backward branch, never taken
    2d48:	ffc95ee3          	bge	x18,x28,2d44 <I_bge_cg_cr_rs1_rs2_edges_offset_rs1val_0x2_rs2val_0x80000001>
  # Check if x0 contains the expected result. x15 is the signature ptr, x5 is the link ptr, x4 is a temp reg.
  RVTEST_SIGUPD(x15, x5, x4, x0, I_bge_cg_cr_rs1_rs2_edges_offset_rs1val_0x2_rs2val_0x80000001, I_bge_cg_cr_rs1_rs2_edges_offset_rs1val_0x2_rs2val_0x80000001_str)
    2d4c:	0007a203          	lw	x4,0(x15)
    2d50:	00020863          	beq	x4,x0,2d60 <I_bge_cg_cr_rs1_rs2_edges_offset_rs1val_0x2_rs2val_0x80000001+0x1c>
    2d54:	328072ef          	jal	x5,a07c <failedtest_x5_x4>
    2d58:	00002d44          	.word	0x00002d44
    2d5c:	0000e5fb          	.word	0x0000e5fb
    2d60:	00478793          	addi	x15,x15,4
  j 4f # done with test
    2d64:	0280006f          	jal	x0,2d8c <I_bge_cg_cr_rs1_rs2_edges_offset_rs1val_0x2_rs2val_0x80000001+0x48>
2: # goes here during backward branch if taken
  LI(x18, 1)
    2d68:	00100913          	addi	x18,x0,1
  # Check if x18 contains the expected result. x15 is the signature ptr, x5 is the link ptr, x4 is a temp reg.
  RVTEST_SIGUPD(x15, x5, x4, x18, I_bge_cg_cr_rs1_rs2_edges_offset_rs1val_0x2_rs2val_0x80000001, I_bge_cg_cr_rs1_rs2_edges_offset_rs1val_0x2_rs2val_0x80000001_str) # signature 1 for taken
    2d6c:	0007a203          	lw	x4,0(x15)
    2d70:	01220863          	beq	x4,x18,2d80 <I_bge_cg_cr_rs1_rs2_edges_offset_rs1val_0x2_rs2val_0x80000001+0x3c>
    2d74:	308072ef          	jal	x5,a07c <failedtest_x5_x4>
    2d78:	00002d44          	.word	0x00002d44
    2d7c:	0000e5fb          	.word	0x0000e5fb
    2d80:	00478793          	addi	x15,x15,4
  j 4f # done with test
    2d84:	0080006f          	jal	x0,2d8c <I_bge_cg_cr_rs1_rs2_edges_offset_rs1val_0x2_rs2val_0x80000001+0x48>
3: # goes here during forward branch if taken
  bge x18, x28, 2b # backward branch, definitely taken
    2d88:	ffc950e3          	bge	x18,x28,2d68 <I_bge_cg_cr_rs1_rs2_edges_offset_rs1val_0x2_rs2val_0x80000001+0x24>
4: # done with test

# cr_rs1_rs2_edges_offset (Test source rs1 = 0x00000002 rs2 = 0x7fffffff)
  RVTEST_TESTDATA_LOAD_INT(x23, x14) # load rs1: x14 = 0x00000002
    2d8c:	000ba703          	lw	x14,0(x23)
    2d90:	004b8b93          	addi	x23,x23,4
  RVTEST_TESTDATA_LOAD_INT(x23, x28) # load rs2: x28 = 0x7fffffff
    2d94:	000bae03          	lw	x28,0(x23)
    2d98:	004b8b93          	addi	x23,x23,4

00002d9c <I_bge_cg_cr_rs1_rs2_edges_offset_rs1val_0x2_rs2val_0x7fffffff>:
0: # destination for backwards branch that is never taken
I_bge_cg_cr_rs1_rs2_edges_offset_rs1val_0x2_rs2val_0x7fffffff:
  bge x14, x28, 3f # forward branch, if taken
    2d9c:	05c75263          	bge	x14,x28,2de0 <I_bge_cg_cr_rs1_rs2_edges_offset_rs1val_0x2_rs2val_0x7fffffff+0x44>
1: # goes here if not taken
  bge x14, x28, 0b # backward branch, never taken
    2da0:	ffc75ee3          	bge	x14,x28,2d9c <I_bge_cg_cr_rs1_rs2_edges_offset_rs1val_0x2_rs2val_0x7fffffff>
  # Check if x0 contains the expected result. x15 is the signature ptr, x5 is the link ptr, x4 is a temp reg.
  RVTEST_SIGUPD(x15, x5, x4, x0, I_bge_cg_cr_rs1_rs2_edges_offset_rs1val_0x2_rs2val_0x7fffffff, I_bge_cg_cr_rs1_rs2_edges_offset_rs1val_0x2_rs2val_0x7fffffff_str)
    2da4:	0007a203          	lw	x4,0(x15)
    2da8:	00020863          	beq	x4,x0,2db8 <I_bge_cg_cr_rs1_rs2_edges_offset_rs1val_0x2_rs2val_0x7fffffff+0x1c>
    2dac:	2d0072ef          	jal	x5,a07c <failedtest_x5_x4>
    2db0:	00002d9c          	.word	0x00002d9c
    2db4:	0000e656          	.word	0x0000e656
    2db8:	00478793          	addi	x15,x15,4
  j 4f # done with test
    2dbc:	0280006f          	jal	x0,2de4 <I_bge_cg_cr_rs1_rs2_edges_offset_rs1val_0x2_rs2val_0x7fffffff+0x48>
2: # goes here during backward branch if taken
  LI(x14, 1)
    2dc0:	00100713          	addi	x14,x0,1
  # Check if x14 contains the expected result. x15 is the signature ptr, x5 is the link ptr, x4 is a temp reg.
  RVTEST_SIGUPD(x15, x5, x4, x14, I_bge_cg_cr_rs1_rs2_edges_offset_rs1val_0x2_rs2val_0x7fffffff, I_bge_cg_cr_rs1_rs2_edges_offset_rs1val_0x2_rs2val_0x7fffffff_str) # signature 1 for taken
    2dc4:	0007a203          	lw	x4,0(x15)
    2dc8:	00e20863          	beq	x4,x14,2dd8 <I_bge_cg_cr_rs1_rs2_edges_offset_rs1val_0x2_rs2val_0x7fffffff+0x3c>
    2dcc:	2b0072ef          	jal	x5,a07c <failedtest_x5_x4>
    2dd0:	00002d9c          	.word	0x00002d9c
    2dd4:	0000e656          	.word	0x0000e656
    2dd8:	00478793          	addi	x15,x15,4
  j 4f # done with test
    2ddc:	0080006f          	jal	x0,2de4 <I_bge_cg_cr_rs1_rs2_edges_offset_rs1val_0x2_rs2val_0x7fffffff+0x48>
3: # goes here during forward branch if taken
  bge x14, x28, 2b # backward branch, definitely taken
    2de0:	ffc750e3          	bge	x14,x28,2dc0 <I_bge_cg_cr_rs1_rs2_edges_offset_rs1val_0x2_rs2val_0x7fffffff+0x24>
4: # done with test

# cr_rs1_rs2_edges_offset (Test source rs1 = 0x00000002 rs2 = 0x7ffffffe)
  RVTEST_TESTDATA_LOAD_INT(x23, x1) # load rs1: x1 = 0x00000002
    2de4:	000ba083          	lw	x1,0(x23)
    2de8:	004b8b93          	addi	x23,x23,4
  RVTEST_TESTDATA_LOAD_INT(x23, x30) # load rs2: x30 = 0x7ffffffe
    2dec:	000baf03          	lw	x30,0(x23)
    2df0:	004b8b93          	addi	x23,x23,4

00002df4 <I_bge_cg_cr_rs1_rs2_edges_offset_rs1val_0x2_rs2val_0x7ffffffe>:
0: # destination for backwards branch that is never taken
I_bge_cg_cr_rs1_rs2_edges_offset_rs1val_0x2_rs2val_0x7ffffffe:
  bge x1, x30, 3f # forward branch, if taken
    2df4:	05e0d263          	bge	x1,x30,2e38 <I_bge_cg_cr_rs1_rs2_edges_offset_rs1val_0x2_rs2val_0x7ffffffe+0x44>
1: # goes here if not taken
  bge x1, x30, 0b # backward branch, never taken
    2df8:	ffe0dee3          	bge	x1,x30,2df4 <I_bge_cg_cr_rs1_rs2_edges_offset_rs1val_0x2_rs2val_0x7ffffffe>
  # Check if x0 contains the expected result. x15 is the signature ptr, x5 is the link ptr, x4 is a temp reg.
  RVTEST_SIGUPD(x15, x5, x4, x0, I_bge_cg_cr_rs1_rs2_edges_offset_rs1val_0x2_rs2val_0x7ffffffe, I_bge_cg_cr_rs1_rs2_edges_offset_rs1val_0x2_rs2val_0x7ffffffe_str)
    2dfc:	0007a203          	lw	x4,0(x15)
    2e00:	00020863          	beq	x4,x0,2e10 <I_bge_cg_cr_rs1_rs2_edges_offset_rs1val_0x2_rs2val_0x7ffffffe+0x1c>
    2e04:	278072ef          	jal	x5,a07c <failedtest_x5_x4>
    2e08:	00002df4          	.word	0x00002df4
    2e0c:	0000e6b1          	.word	0x0000e6b1
    2e10:	00478793          	addi	x15,x15,4
  j 4f # done with test
    2e14:	0280006f          	jal	x0,2e3c <I_bge_cg_cr_rs1_rs2_edges_offset_rs1val_0x2_rs2val_0x7ffffffe+0x48>
2: # goes here during backward branch if taken
  LI(x1, 1)
    2e18:	00100093          	addi	x1,x0,1
  # Check if x1 contains the expected result. x15 is the signature ptr, x5 is the link ptr, x4 is a temp reg.
  RVTEST_SIGUPD(x15, x5, x4, x1, I_bge_cg_cr_rs1_rs2_edges_offset_rs1val_0x2_rs2val_0x7ffffffe, I_bge_cg_cr_rs1_rs2_edges_offset_rs1val_0x2_rs2val_0x7ffffffe_str) # signature 1 for taken
    2e1c:	0007a203          	lw	x4,0(x15)
    2e20:	00120863          	beq	x4,x1,2e30 <I_bge_cg_cr_rs1_rs2_edges_offset_rs1val_0x2_rs2val_0x7ffffffe+0x3c>
    2e24:	258072ef          	jal	x5,a07c <failedtest_x5_x4>
    2e28:	00002df4          	.word	0x00002df4
    2e2c:	0000e6b1          	.word	0x0000e6b1
    2e30:	00478793          	addi	x15,x15,4
  j 4f # done with test
    2e34:	0080006f          	jal	x0,2e3c <I_bge_cg_cr_rs1_rs2_edges_offset_rs1val_0x2_rs2val_0x7ffffffe+0x48>
3: # goes here during forward branch if taken
  bge x1, x30, 2b # backward branch, definitely taken
    2e38:	ffe0d0e3          	bge	x1,x30,2e18 <I_bge_cg_cr_rs1_rs2_edges_offset_rs1val_0x2_rs2val_0x7ffffffe+0x24>
4: # done with test

# cr_rs1_rs2_edges_offset (Test source rs1 = 0x00000002 rs2 = 0xffffffff)
  RVTEST_TESTDATA_LOAD_INT(x23, x21) # load rs1: x21 = 0x00000002
    2e3c:	000baa83          	lw	x21,0(x23)
    2e40:	004b8b93          	addi	x23,x23,4
  RVTEST_TESTDATA_LOAD_INT(x23, x25) # load rs2: x25 = 0xffffffff
    2e44:	000bac83          	lw	x25,0(x23)
    2e48:	004b8b93          	addi	x23,x23,4

00002e4c <I_bge_cg_cr_rs1_rs2_edges_offset_rs1val_0x2_rs2val_0xffffffff>:
0: # destination for backwards branch that is never taken
I_bge_cg_cr_rs1_rs2_edges_offset_rs1val_0x2_rs2val_0xffffffff:
  bge x21, x25, 3f # forward branch, if taken
    2e4c:	059ad263          	bge	x21,x25,2e90 <I_bge_cg_cr_rs1_rs2_edges_offset_rs1val_0x2_rs2val_0xffffffff+0x44>
1: # goes here if not taken
  bge x21, x25, 0b # backward branch, never taken
    2e50:	ff9adee3          	bge	x21,x25,2e4c <I_bge_cg_cr_rs1_rs2_edges_offset_rs1val_0x2_rs2val_0xffffffff>
  # Check if x0 contains the expected result. x15 is the signature ptr, x5 is the link ptr, x4 is a temp reg.
  RVTEST_SIGUPD(x15, x5, x4, x0, I_bge_cg_cr_rs1_rs2_edges_offset_rs1val_0x2_rs2val_0xffffffff, I_bge_cg_cr_rs1_rs2_edges_offset_rs1val_0x2_rs2val_0xffffffff_str)
    2e54:	0007a203          	lw	x4,0(x15)
    2e58:	00020863          	beq	x4,x0,2e68 <I_bge_cg_cr_rs1_rs2_edges_offset_rs1val_0x2_rs2val_0xffffffff+0x1c>
    2e5c:	220072ef          	jal	x5,a07c <failedtest_x5_x4>
    2e60:	00002e4c          	.word	0x00002e4c
    2e64:	0000e70c          	.word	0x0000e70c
    2e68:	00478793          	addi	x15,x15,4
  j 4f # done with test
    2e6c:	0280006f          	jal	x0,2e94 <I_bge_cg_cr_rs1_rs2_edges_offset_rs1val_0x2_rs2val_0xffffffff+0x48>
2: # goes here during backward branch if taken
  LI(x21, 1)
    2e70:	00100a93          	addi	x21,x0,1
  # Check if x21 contains the expected result. x15 is the signature ptr, x5 is the link ptr, x4 is a temp reg.
  RVTEST_SIGUPD(x15, x5, x4, x21, I_bge_cg_cr_rs1_rs2_edges_offset_rs1val_0x2_rs2val_0xffffffff, I_bge_cg_cr_rs1_rs2_edges_offset_rs1val_0x2_rs2val_0xffffffff_str) # signature 1 for taken
    2e74:	0007a203          	lw	x4,0(x15)
    2e78:	01520863          	beq	x4,x21,2e88 <I_bge_cg_cr_rs1_rs2_edges_offset_rs1val_0x2_rs2val_0xffffffff+0x3c>
    2e7c:	200072ef          	jal	x5,a07c <failedtest_x5_x4>
    2e80:	00002e4c          	.word	0x00002e4c
    2e84:	0000e70c          	.word	0x0000e70c
    2e88:	00478793          	addi	x15,x15,4
  j 4f # done with test
    2e8c:	0080006f          	jal	x0,2e94 <I_bge_cg_cr_rs1_rs2_edges_offset_rs1val_0x2_rs2val_0xffffffff+0x48>
3: # goes here during forward branch if taken
  bge x21, x25, 2b # backward branch, definitely taken
    2e90:	ff9ad0e3          	bge	x21,x25,2e70 <I_bge_cg_cr_rs1_rs2_edges_offset_rs1val_0x2_rs2val_0xffffffff+0x24>
4: # done with test

# cr_rs1_rs2_edges_offset (Test source rs1 = 0x00000002 rs2 = 0xfffffffe)
  RVTEST_TESTDATA_LOAD_INT(x23, x16) # load rs1: x16 = 0x00000002
    2e94:	000ba803          	lw	x16,0(x23)
    2e98:	004b8b93          	addi	x23,x23,4
  RVTEST_TESTDATA_LOAD_INT(x23, x3) # load rs2: x3 = 0xfffffffe
    2e9c:	000ba183          	lw	x3,0(x23)
    2ea0:	004b8b93          	addi	x23,x23,4

00002ea4 <I_bge_cg_cr_rs1_rs2_edges_offset_rs1val_0x2_rs2val_0xfffffffe>:
0: # destination for backwards branch that is never taken
I_bge_cg_cr_rs1_rs2_edges_offset_rs1val_0x2_rs2val_0xfffffffe:
  bge x16, x3, 3f # forward branch, if taken
    2ea4:	04385263          	bge	x16,x3,2ee8 <I_bge_cg_cr_rs1_rs2_edges_offset_rs1val_0x2_rs2val_0xfffffffe+0x44>
1: # goes here if not taken
  bge x16, x3, 0b # backward branch, never taken
    2ea8:	fe385ee3          	bge	x16,x3,2ea4 <I_bge_cg_cr_rs1_rs2_edges_offset_rs1val_0x2_rs2val_0xfffffffe>
  # Check if x0 contains the expected result. x15 is the signature ptr, x5 is the link ptr, x4 is a temp reg.
  RVTEST_SIGUPD(x15, x5, x4, x0, I_bge_cg_cr_rs1_rs2_edges_offset_rs1val_0x2_rs2val_0xfffffffe, I_bge_cg_cr_rs1_rs2_edges_offset_rs1val_0x2_rs2val_0xfffffffe_str)
    2eac:	0007a203          	lw	x4,0(x15)
    2eb0:	00020863          	beq	x4,x0,2ec0 <I_bge_cg_cr_rs1_rs2_edges_offset_rs1val_0x2_rs2val_0xfffffffe+0x1c>
    2eb4:	1c8072ef          	jal	x5,a07c <failedtest_x5_x4>
    2eb8:	00002ea4          	.word	0x00002ea4
    2ebc:	0000e767          	.word	0x0000e767
    2ec0:	00478793          	addi	x15,x15,4
  j 4f # done with test
    2ec4:	0280006f          	jal	x0,2eec <I_bge_cg_cr_rs1_rs2_edges_offset_rs1val_0x2_rs2val_0xfffffffe+0x48>
2: # goes here during backward branch if taken
  LI(x16, 1)
    2ec8:	00100813          	addi	x16,x0,1
  # Check if x16 contains the expected result. x15 is the signature ptr, x5 is the link ptr, x4 is a temp reg.
  RVTEST_SIGUPD(x15, x5, x4, x16, I_bge_cg_cr_rs1_rs2_edges_offset_rs1val_0x2_rs2val_0xfffffffe, I_bge_cg_cr_rs1_rs2_edges_offset_rs1val_0x2_rs2val_0xfffffffe_str) # signature 1 for taken
    2ecc:	0007a203          	lw	x4,0(x15)
    2ed0:	01020863          	beq	x4,x16,2ee0 <I_bge_cg_cr_rs1_rs2_edges_offset_rs1val_0x2_rs2val_0xfffffffe+0x3c>
    2ed4:	1a8072ef          	jal	x5,a07c <failedtest_x5_x4>
    2ed8:	00002ea4          	.word	0x00002ea4
    2edc:	0000e767          	.word	0x0000e767
    2ee0:	00478793          	addi	x15,x15,4
  j 4f # done with test
    2ee4:	0080006f          	jal	x0,2eec <I_bge_cg_cr_rs1_rs2_edges_offset_rs1val_0x2_rs2val_0xfffffffe+0x48>
3: # goes here during forward branch if taken
  bge x16, x3, 2b # backward branch, definitely taken
    2ee8:	fe3850e3          	bge	x16,x3,2ec8 <I_bge_cg_cr_rs1_rs2_edges_offset_rs1val_0x2_rs2val_0xfffffffe+0x24>
4: # done with test

# cr_rs1_rs2_edges_offset (Test source rs1 = 0x00000002 rs2 = 0x5bbc8872)
  RVTEST_TESTDATA_LOAD_INT(x23, x6) # load rs1: x6 = 0x00000002
    2eec:	000ba303          	lw	x6,0(x23)
    2ef0:	004b8b93          	addi	x23,x23,4
  RVTEST_TESTDATA_LOAD_INT(x23, x30) # load rs2: x30 = 0x5bbc8872
    2ef4:	000baf03          	lw	x30,0(x23)
    2ef8:	004b8b93          	addi	x23,x23,4

00002efc <I_bge_cg_cr_rs1_rs2_edges_offset_rs1val_0x2_rs2val_0x5bbc8872>:
0: # destination for backwards branch that is never taken
I_bge_cg_cr_rs1_rs2_edges_offset_rs1val_0x2_rs2val_0x5bbc8872:
  bge x6, x30, 3f # forward branch, if taken
    2efc:	05e35263          	bge	x6,x30,2f40 <I_bge_cg_cr_rs1_rs2_edges_offset_rs1val_0x2_rs2val_0x5bbc8872+0x44>
1: # goes here if not taken
  bge x6, x30, 0b # backward branch, never taken
    2f00:	ffe35ee3          	bge	x6,x30,2efc <I_bge_cg_cr_rs1_rs2_edges_offset_rs1val_0x2_rs2val_0x5bbc8872>
  # Check if x0 contains the expected result. x15 is the signature ptr, x5 is the link ptr, x4 is a temp reg.
  RVTEST_SIGUPD(x15, x5, x4, x0, I_bge_cg_cr_rs1_rs2_edges_offset_rs1val_0x2_rs2val_0x5bbc8872, I_bge_cg_cr_rs1_rs2_edges_offset_rs1val_0x2_rs2val_0x5bbc8872_str)
    2f04:	0007a203          	lw	x4,0(x15)
    2f08:	00020863          	beq	x4,x0,2f18 <I_bge_cg_cr_rs1_rs2_edges_offset_rs1val_0x2_rs2val_0x5bbc8872+0x1c>
    2f0c:	170072ef          	jal	x5,a07c <failedtest_x5_x4>
    2f10:	00002efc          	.word	0x00002efc
    2f14:	0000e7c2          	.word	0x0000e7c2
    2f18:	00478793          	addi	x15,x15,4
  j 4f # done with test
    2f1c:	0280006f          	jal	x0,2f44 <I_bge_cg_cr_rs1_rs2_edges_offset_rs1val_0x2_rs2val_0x5bbc8872+0x48>
2: # goes here during backward branch if taken
  LI(x6, 1)
    2f20:	00100313          	addi	x6,x0,1
  # Check if x6 contains the expected result. x15 is the signature ptr, x5 is the link ptr, x4 is a temp reg.
  RVTEST_SIGUPD(x15, x5, x4, x6, I_bge_cg_cr_rs1_rs2_edges_offset_rs1val_0x2_rs2val_0x5bbc8872, I_bge_cg_cr_rs1_rs2_edges_offset_rs1val_0x2_rs2val_0x5bbc8872_str) # signature 1 for taken
    2f24:	0007a203          	lw	x4,0(x15)
    2f28:	00620863          	beq	x4,x6,2f38 <I_bge_cg_cr_rs1_rs2_edges_offset_rs1val_0x2_rs2val_0x5bbc8872+0x3c>
    2f2c:	150072ef          	jal	x5,a07c <failedtest_x5_x4>
    2f30:	00002efc          	.word	0x00002efc
    2f34:	0000e7c2          	.word	0x0000e7c2
    2f38:	00478793          	addi	x15,x15,4
  j 4f # done with test
    2f3c:	0080006f          	jal	x0,2f44 <I_bge_cg_cr_rs1_rs2_edges_offset_rs1val_0x2_rs2val_0x5bbc8872+0x48>
3: # goes here during forward branch if taken
  bge x6, x30, 2b # backward branch, definitely taken
    2f40:	ffe350e3          	bge	x6,x30,2f20 <I_bge_cg_cr_rs1_rs2_edges_offset_rs1val_0x2_rs2val_0x5bbc8872+0x24>
4: # done with test

# cr_rs1_rs2_edges_offset (Test source rs1 = 0x00000002 rs2 = 0xaaaaaaaa)
  RVTEST_TESTDATA_LOAD_INT(x23, x9) # load rs1: x9 = 0x00000002
    2f44:	000ba483          	lw	x9,0(x23)
    2f48:	004b8b93          	addi	x23,x23,4
  RVTEST_TESTDATA_LOAD_INT(x23, x22) # load rs2: x22 = 0xaaaaaaaa
    2f4c:	000bab03          	lw	x22,0(x23)
    2f50:	004b8b93          	addi	x23,x23,4

00002f54 <I_bge_cg_cr_rs1_rs2_edges_offset_rs1val_0x2_rs2val_0xaaaaaaaa>:
0: # destination for backwards branch that is never taken
I_bge_cg_cr_rs1_rs2_edges_offset_rs1val_0x2_rs2val_0xaaaaaaaa:
  bge x9, x22, 3f # forward branch, if taken
    2f54:	0564d263          	bge	x9,x22,2f98 <I_bge_cg_cr_rs1_rs2_edges_offset_rs1val_0x2_rs2val_0xaaaaaaaa+0x44>
1: # goes here if not taken
  bge x9, x22, 0b # backward branch, never taken
    2f58:	ff64dee3          	bge	x9,x22,2f54 <I_bge_cg_cr_rs1_rs2_edges_offset_rs1val_0x2_rs2val_0xaaaaaaaa>
  # Check if x0 contains the expected result. x15 is the signature ptr, x5 is the link ptr, x4 is a temp reg.
  RVTEST_SIGUPD(x15, x5, x4, x0, I_bge_cg_cr_rs1_rs2_edges_offset_rs1val_0x2_rs2val_0xaaaaaaaa, I_bge_cg_cr_rs1_rs2_edges_offset_rs1val_0x2_rs2val_0xaaaaaaaa_str)
    2f5c:	0007a203          	lw	x4,0(x15)
    2f60:	00020863          	beq	x4,x0,2f70 <I_bge_cg_cr_rs1_rs2_edges_offset_rs1val_0x2_rs2val_0xaaaaaaaa+0x1c>
    2f64:	118072ef          	jal	x5,a07c <failedtest_x5_x4>
    2f68:	00002f54          	.word	0x00002f54
    2f6c:	0000e81d          	.word	0x0000e81d
    2f70:	00478793          	addi	x15,x15,4
  j 4f # done with test
    2f74:	0280006f          	jal	x0,2f9c <I_bge_cg_cr_rs1_rs2_edges_offset_rs1val_0x2_rs2val_0xaaaaaaaa+0x48>
2: # goes here during backward branch if taken
  LI(x9, 1)
    2f78:	00100493          	addi	x9,x0,1
  # Check if x9 contains the expected result. x15 is the signature ptr, x5 is the link ptr, x4 is a temp reg.
  RVTEST_SIGUPD(x15, x5, x4, x9, I_bge_cg_cr_rs1_rs2_edges_offset_rs1val_0x2_rs2val_0xaaaaaaaa, I_bge_cg_cr_rs1_rs2_edges_offset_rs1val_0x2_rs2val_0xaaaaaaaa_str) # signature 1 for taken
    2f7c:	0007a203          	lw	x4,0(x15)
    2f80:	00920863          	beq	x4,x9,2f90 <I_bge_cg_cr_rs1_rs2_edges_offset_rs1val_0x2_rs2val_0xaaaaaaaa+0x3c>
    2f84:	0f8072ef          	jal	x5,a07c <failedtest_x5_x4>
    2f88:	00002f54          	.word	0x00002f54
    2f8c:	0000e81d          	.word	0x0000e81d
    2f90:	00478793          	addi	x15,x15,4
  j 4f # done with test
    2f94:	0080006f          	jal	x0,2f9c <I_bge_cg_cr_rs1_rs2_edges_offset_rs1val_0x2_rs2val_0xaaaaaaaa+0x48>
3: # goes here during forward branch if taken
  bge x9, x22, 2b # backward branch, definitely taken
    2f98:	ff64d0e3          	bge	x9,x22,2f78 <I_bge_cg_cr_rs1_rs2_edges_offset_rs1val_0x2_rs2val_0xaaaaaaaa+0x24>
4: # done with test

# cr_rs1_rs2_edges_offset (Test source rs1 = 0x00000002 rs2 = 0x55555555)
  RVTEST_TESTDATA_LOAD_INT(x23, x7) # load rs1: x7 = 0x00000002
    2f9c:	000ba383          	lw	x7,0(x23)
    2fa0:	004b8b93          	addi	x23,x23,4
  RVTEST_TESTDATA_LOAD_INT(x23, x3) # load rs2: x3 = 0x55555555
    2fa4:	000ba183          	lw	x3,0(x23)
    2fa8:	004b8b93          	addi	x23,x23,4

00002fac <I_bge_cg_cr_rs1_rs2_edges_offset_rs1val_0x2_rs2val_0x55555555>:
0: # destination for backwards branch that is never taken
I_bge_cg_cr_rs1_rs2_edges_offset_rs1val_0x2_rs2val_0x55555555:
  bge x7, x3, 3f # forward branch, if taken
    2fac:	0433d263          	bge	x7,x3,2ff0 <I_bge_cg_cr_rs1_rs2_edges_offset_rs1val_0x2_rs2val_0x55555555+0x44>
1: # goes here if not taken
  bge x7, x3, 0b # backward branch, never taken
    2fb0:	fe33dee3          	bge	x7,x3,2fac <I_bge_cg_cr_rs1_rs2_edges_offset_rs1val_0x2_rs2val_0x55555555>
  # Check if x0 contains the expected result. x15 is the signature ptr, x5 is the link ptr, x4 is a temp reg.
  RVTEST_SIGUPD(x15, x5, x4, x0, I_bge_cg_cr_rs1_rs2_edges_offset_rs1val_0x2_rs2val_0x55555555, I_bge_cg_cr_rs1_rs2_edges_offset_rs1val_0x2_rs2val_0x55555555_str)
    2fb4:	0007a203          	lw	x4,0(x15)
    2fb8:	00020863          	beq	x4,x0,2fc8 <I_bge_cg_cr_rs1_rs2_edges_offset_rs1val_0x2_rs2val_0x55555555+0x1c>
    2fbc:	0c0072ef          	jal	x5,a07c <failedtest_x5_x4>
    2fc0:	00002fac          	.word	0x00002fac
    2fc4:	0000e878          	.word	0x0000e878
    2fc8:	00478793          	addi	x15,x15,4
  j 4f # done with test
    2fcc:	0280006f          	jal	x0,2ff4 <I_bge_cg_cr_rs1_rs2_edges_offset_rs1val_0x2_rs2val_0x55555555+0x48>
2: # goes here during backward branch if taken
  LI(x7, 1)
    2fd0:	00100393          	addi	x7,x0,1
  # Check if x7 contains the expected result. x15 is the signature ptr, x5 is the link ptr, x4 is a temp reg.
  RVTEST_SIGUPD(x15, x5, x4, x7, I_bge_cg_cr_rs1_rs2_edges_offset_rs1val_0x2_rs2val_0x55555555, I_bge_cg_cr_rs1_rs2_edges_offset_rs1val_0x2_rs2val_0x55555555_str) # signature 1 for taken
    2fd4:	0007a203          	lw	x4,0(x15)
    2fd8:	00720863          	beq	x4,x7,2fe8 <I_bge_cg_cr_rs1_rs2_edges_offset_rs1val_0x2_rs2val_0x55555555+0x3c>
    2fdc:	0a0072ef          	jal	x5,a07c <failedtest_x5_x4>
    2fe0:	00002fac          	.word	0x00002fac
    2fe4:	0000e878          	.word	0x0000e878
    2fe8:	00478793          	addi	x15,x15,4
  j 4f # done with test
    2fec:	0080006f          	jal	x0,2ff4 <I_bge_cg_cr_rs1_rs2_edges_offset_rs1val_0x2_rs2val_0x55555555+0x48>
3: # goes here during forward branch if taken
  bge x7, x3, 2b # backward branch, definitely taken
    2ff0:	fe33d0e3          	bge	x7,x3,2fd0 <I_bge_cg_cr_rs1_rs2_edges_offset_rs1val_0x2_rs2val_0x55555555+0x24>
4: # done with test

# cr_rs1_rs2_edges_offset (Test source rs1 = 0x80000000 rs2 = 0x00000000)
  RVTEST_TESTDATA_LOAD_INT(x23, x20) # load rs1: x20 = 0x80000000
    2ff4:	000baa03          	lw	x20,0(x23)
    2ff8:	004b8b93          	addi	x23,x23,4
  RVTEST_TESTDATA_LOAD_INT(x23, x22) # load rs2: x22 = 0x00000000
    2ffc:	000bab03          	lw	x22,0(x23)
    3000:	004b8b93          	addi	x23,x23,4

00003004 <I_bge_cg_cr_rs1_rs2_edges_offset_rs1val_0x80000000_rs2val_0x0>:
0: # destination for backwards branch that is never taken
I_bge_cg_cr_rs1_rs2_edges_offset_rs1val_0x80000000_rs2val_0x0:
  bge x20, x22, 3f # forward branch, if taken
    3004:	056a5263          	bge	x20,x22,3048 <I_bge_cg_cr_rs1_rs2_edges_offset_rs1val_0x80000000_rs2val_0x0+0x44>
1: # goes here if not taken
  bge x20, x22, 0b # backward branch, never taken
    3008:	ff6a5ee3          	bge	x20,x22,3004 <I_bge_cg_cr_rs1_rs2_edges_offset_rs1val_0x80000000_rs2val_0x0>
  # Check if x0 contains the expected result. x15 is the signature ptr, x5 is the link ptr, x4 is a temp reg.
  RVTEST_SIGUPD(x15, x5, x4, x0, I_bge_cg_cr_rs1_rs2_edges_offset_rs1val_0x80000000_rs2val_0x0, I_bge_cg_cr_rs1_rs2_edges_offset_rs1val_0x80000000_rs2val_0x0_str)
    300c:	0007a203          	lw	x4,0(x15)
    3010:	00020863          	beq	x4,x0,3020 <I_bge_cg_cr_rs1_rs2_edges_offset_rs1val_0x80000000_rs2val_0x0+0x1c>
    3014:	068072ef          	jal	x5,a07c <failedtest_x5_x4>
    3018:	00003004          	.word	0x00003004
    301c:	0000e8d3          	.word	0x0000e8d3
    3020:	00478793          	addi	x15,x15,4
  j 4f # done with test
    3024:	0280006f          	jal	x0,304c <I_bge_cg_cr_rs1_rs2_edges_offset_rs1val_0x80000000_rs2val_0x0+0x48>
2: # goes here during backward branch if taken
  LI(x20, 1)
    3028:	00100a13          	addi	x20,x0,1
  # Check if x20 contains the expected result. x15 is the signature ptr, x5 is the link ptr, x4 is a temp reg.
  RVTEST_SIGUPD(x15, x5, x4, x20, I_bge_cg_cr_rs1_rs2_edges_offset_rs1val_0x80000000_rs2val_0x0, I_bge_cg_cr_rs1_rs2_edges_offset_rs1val_0x80000000_rs2val_0x0_str) # signature 1 for taken
    302c:	0007a203          	lw	x4,0(x15)
    3030:	01420863          	beq	x4,x20,3040 <I_bge_cg_cr_rs1_rs2_edges_offset_rs1val_0x80000000_rs2val_0x0+0x3c>
    3034:	048072ef          	jal	x5,a07c <failedtest_x5_x4>
    3038:	00003004          	.word	0x00003004
    303c:	0000e8d3          	.word	0x0000e8d3
    3040:	00478793          	addi	x15,x15,4
  j 4f # done with test
    3044:	0080006f          	jal	x0,304c <I_bge_cg_cr_rs1_rs2_edges_offset_rs1val_0x80000000_rs2val_0x0+0x48>
3: # goes here during forward branch if taken
  bge x20, x22, 2b # backward branch, definitely taken
    3048:	ff6a50e3          	bge	x20,x22,3028 <I_bge_cg_cr_rs1_rs2_edges_offset_rs1val_0x80000000_rs2val_0x0+0x24>
4: # done with test

# cr_rs1_rs2_edges_offset (Test source rs1 = 0x80000000 rs2 = 0x00000001)
  RVTEST_TESTDATA_LOAD_INT(x23, x3) # load rs1: x3 = 0x80000000
    304c:	000ba183          	lw	x3,0(x23)
    3050:	004b8b93          	addi	x23,x23,4
  RVTEST_TESTDATA_LOAD_INT(x23, x2) # load rs2: x2 = 0x00000001
    3054:	000ba103          	lw	x2,0(x23)
    3058:	004b8b93          	addi	x23,x23,4

0000305c <I_bge_cg_cr_rs1_rs2_edges_offset_rs1val_0x80000000_rs2val_0x1>:
0: # destination for backwards branch that is never taken
I_bge_cg_cr_rs1_rs2_edges_offset_rs1val_0x80000000_rs2val_0x1:
  bge x3, x2, 3f # forward branch, if taken
    305c:	0421d263          	bge	x3,x2,30a0 <I_bge_cg_cr_rs1_rs2_edges_offset_rs1val_0x80000000_rs2val_0x1+0x44>
1: # goes here if not taken
  bge x3, x2, 0b # backward branch, never taken
    3060:	fe21dee3          	bge	x3,x2,305c <I_bge_cg_cr_rs1_rs2_edges_offset_rs1val_0x80000000_rs2val_0x1>
  # Check if x0 contains the expected result. x15 is the signature ptr, x5 is the link ptr, x4 is a temp reg.
  RVTEST_SIGUPD(x15, x5, x4, x0, I_bge_cg_cr_rs1_rs2_edges_offset_rs1val_0x80000000_rs2val_0x1, I_bge_cg_cr_rs1_rs2_edges_offset_rs1val_0x80000000_rs2val_0x1_str)
    3064:	0007a203          	lw	x4,0(x15)
    3068:	00020863          	beq	x4,x0,3078 <I_bge_cg_cr_rs1_rs2_edges_offset_rs1val_0x80000000_rs2val_0x1+0x1c>
    306c:	010072ef          	jal	x5,a07c <failedtest_x5_x4>
    3070:	0000305c          	.word	0x0000305c
    3074:	0000e92e          	.word	0x0000e92e
    3078:	00478793          	addi	x15,x15,4
  j 4f # done with test
    307c:	0280006f          	jal	x0,30a4 <I_bge_cg_cr_rs1_rs2_edges_offset_rs1val_0x80000000_rs2val_0x1+0x48>
2: # goes here during backward branch if taken
  LI(x3, 1)
    3080:	00100193          	addi	x3,x0,1
  # Check if x3 contains the expected result. x15 is the signature ptr, x5 is the link ptr, x4 is a temp reg.
  RVTEST_SIGUPD(x15, x5, x4, x3, I_bge_cg_cr_rs1_rs2_edges_offset_rs1val_0x80000000_rs2val_0x1, I_bge_cg_cr_rs1_rs2_edges_offset_rs1val_0x80000000_rs2val_0x1_str) # signature 1 for taken
    3084:	0007a203          	lw	x4,0(x15)
    3088:	00320863          	beq	x4,x3,3098 <I_bge_cg_cr_rs1_rs2_edges_offset_rs1val_0x80000000_rs2val_0x1+0x3c>
    308c:	7f1062ef          	jal	x5,a07c <failedtest_x5_x4>
    3090:	0000305c          	.word	0x0000305c
    3094:	0000e92e          	.word	0x0000e92e
    3098:	00478793          	addi	x15,x15,4
  j 4f # done with test
    309c:	0080006f          	jal	x0,30a4 <I_bge_cg_cr_rs1_rs2_edges_offset_rs1val_0x80000000_rs2val_0x1+0x48>
3: # goes here during forward branch if taken
  bge x3, x2, 2b # backward branch, definitely taken
    30a0:	fe21d0e3          	bge	x3,x2,3080 <I_bge_cg_cr_rs1_rs2_edges_offset_rs1val_0x80000000_rs2val_0x1+0x24>
4: # done with test

# cr_rs1_rs2_edges_offset (Test source rs1 = 0x80000000 rs2 = 0x00000002)
  RVTEST_TESTDATA_LOAD_INT(x23, x29) # load rs1: x29 = 0x80000000
    30a4:	000bae83          	lw	x29,0(x23)
    30a8:	004b8b93          	addi	x23,x23,4
  RVTEST_TESTDATA_LOAD_INT(x23, x18) # load rs2: x18 = 0x00000002
    30ac:	000ba903          	lw	x18,0(x23)
    30b0:	004b8b93          	addi	x23,x23,4

000030b4 <I_bge_cg_cr_rs1_rs2_edges_offset_rs1val_0x80000000_rs2val_0x2>:
0: # destination for backwards branch that is never taken
I_bge_cg_cr_rs1_rs2_edges_offset_rs1val_0x80000000_rs2val_0x2:
  bge x29, x18, 3f # forward branch, if taken
    30b4:	052ed263          	bge	x29,x18,30f8 <I_bge_cg_cr_rs1_rs2_edges_offset_rs1val_0x80000000_rs2val_0x2+0x44>
1: # goes here if not taken
  bge x29, x18, 0b # backward branch, never taken
    30b8:	ff2edee3          	bge	x29,x18,30b4 <I_bge_cg_cr_rs1_rs2_edges_offset_rs1val_0x80000000_rs2val_0x2>
  # Check if x0 contains the expected result. x15 is the signature ptr, x5 is the link ptr, x4 is a temp reg.
  RVTEST_SIGUPD(x15, x5, x4, x0, I_bge_cg_cr_rs1_rs2_edges_offset_rs1val_0x80000000_rs2val_0x2, I_bge_cg_cr_rs1_rs2_edges_offset_rs1val_0x80000000_rs2val_0x2_str)
    30bc:	0007a203          	lw	x4,0(x15)
    30c0:	00020863          	beq	x4,x0,30d0 <I_bge_cg_cr_rs1_rs2_edges_offset_rs1val_0x80000000_rs2val_0x2+0x1c>
    30c4:	7b9062ef          	jal	x5,a07c <failedtest_x5_x4>
    30c8:	000030b4          	.word	0x000030b4
    30cc:	0000e989          	.word	0x0000e989
    30d0:	00478793          	addi	x15,x15,4
  j 4f # done with test
    30d4:	0280006f          	jal	x0,30fc <I_bge_cg_cr_rs1_rs2_edges_offset_rs1val_0x80000000_rs2val_0x2+0x48>
2: # goes here during backward branch if taken
  LI(x29, 1)
    30d8:	00100e93          	addi	x29,x0,1
  # Check if x29 contains the expected result. x15 is the signature ptr, x5 is the link ptr, x4 is a temp reg.
  RVTEST_SIGUPD(x15, x5, x4, x29, I_bge_cg_cr_rs1_rs2_edges_offset_rs1val_0x80000000_rs2val_0x2, I_bge_cg_cr_rs1_rs2_edges_offset_rs1val_0x80000000_rs2val_0x2_str) # signature 1 for taken
    30dc:	0007a203          	lw	x4,0(x15)
    30e0:	01d20863          	beq	x4,x29,30f0 <I_bge_cg_cr_rs1_rs2_edges_offset_rs1val_0x80000000_rs2val_0x2+0x3c>
    30e4:	799062ef          	jal	x5,a07c <failedtest_x5_x4>
    30e8:	000030b4          	.word	0x000030b4
    30ec:	0000e989          	.word	0x0000e989
    30f0:	00478793          	addi	x15,x15,4
  j 4f # done with test
    30f4:	0080006f          	jal	x0,30fc <I_bge_cg_cr_rs1_rs2_edges_offset_rs1val_0x80000000_rs2val_0x2+0x48>
3: # goes here during forward branch if taken
  bge x29, x18, 2b # backward branch, definitely taken
    30f8:	ff2ed0e3          	bge	x29,x18,30d8 <I_bge_cg_cr_rs1_rs2_edges_offset_rs1val_0x80000000_rs2val_0x2+0x24>
4: # done with test

# cr_rs1_rs2_edges_offset (Test source rs1 = 0x80000000 rs2 = 0x80000000)
  RVTEST_TESTDATA_LOAD_INT(x23, x8) # load rs1: x8 = 0x80000000
    30fc:	000ba403          	lw	x8,0(x23)
    3100:	004b8b93          	addi	x23,x23,4
  RVTEST_TESTDATA_LOAD_INT(x23, x26) # load rs2: x26 = 0x80000000
    3104:	000bad03          	lw	x26,0(x23)
    3108:	004b8b93          	addi	x23,x23,4

0000310c <I_bge_cg_cr_rs1_rs2_edges_offset_rs1val_0x80000000_rs2val_0x80000000>:
0: # destination for backwards branch that is never taken
I_bge_cg_cr_rs1_rs2_edges_offset_rs1val_0x80000000_rs2val_0x80000000:
  bge x8, x26, 3f # forward branch, if taken
    310c:	05a45263          	bge	x8,x26,3150 <I_bge_cg_cr_rs1_rs2_edges_offset_rs1val_0x80000000_rs2val_0x80000000+0x44>
1: # goes here if not taken
  bge x8, x26, 0b # backward branch, never taken
    3110:	ffa45ee3          	bge	x8,x26,310c <I_bge_cg_cr_rs1_rs2_edges_offset_rs1val_0x80000000_rs2val_0x80000000>
  # Check if x0 contains the expected result. x15 is the signature ptr, x5 is the link ptr, x4 is a temp reg.
  RVTEST_SIGUPD(x15, x5, x4, x0, I_bge_cg_cr_rs1_rs2_edges_offset_rs1val_0x80000000_rs2val_0x80000000, I_bge_cg_cr_rs1_rs2_edges_offset_rs1val_0x80000000_rs2val_0x80000000_str)
    3114:	0007a203          	lw	x4,0(x15)
    3118:	00020863          	beq	x4,x0,3128 <I_bge_cg_cr_rs1_rs2_edges_offset_rs1val_0x80000000_rs2val_0x80000000+0x1c>
    311c:	761062ef          	jal	x5,a07c <failedtest_x5_x4>
    3120:	0000310c          	.word	0x0000310c
    3124:	0000e9e4          	.word	0x0000e9e4
    3128:	00478793          	addi	x15,x15,4
  j 4f # done with test
    312c:	0280006f          	jal	x0,3154 <I_bge_cg_cr_rs1_rs2_edges_offset_rs1val_0x80000000_rs2val_0x80000000+0x48>
2: # goes here during backward branch if taken
  LI(x8, 1)
    3130:	00100413          	addi	x8,x0,1
  # Check if x8 contains the expected result. x15 is the signature ptr, x5 is the link ptr, x4 is a temp reg.
  RVTEST_SIGUPD(x15, x5, x4, x8, I_bge_cg_cr_rs1_rs2_edges_offset_rs1val_0x80000000_rs2val_0x80000000, I_bge_cg_cr_rs1_rs2_edges_offset_rs1val_0x80000000_rs2val_0x80000000_str) # signature 1 for taken
    3134:	0007a203          	lw	x4,0(x15)
    3138:	00820863          	beq	x4,x8,3148 <I_bge_cg_cr_rs1_rs2_edges_offset_rs1val_0x80000000_rs2val_0x80000000+0x3c>
    313c:	741062ef          	jal	x5,a07c <failedtest_x5_x4>
    3140:	0000310c          	.word	0x0000310c
    3144:	0000e9e4          	.word	0x0000e9e4
    3148:	00478793          	addi	x15,x15,4
  j 4f # done with test
    314c:	0080006f          	jal	x0,3154 <I_bge_cg_cr_rs1_rs2_edges_offset_rs1val_0x80000000_rs2val_0x80000000+0x48>
3: # goes here during forward branch if taken
  bge x8, x26, 2b # backward branch, definitely taken
    3150:	ffa450e3          	bge	x8,x26,3130 <I_bge_cg_cr_rs1_rs2_edges_offset_rs1val_0x80000000_rs2val_0x80000000+0x24>
4: # done with test

# cr_rs1_rs2_edges_offset (Test source rs1 = 0x80000000 rs2 = 0x80000001)
  RVTEST_TESTDATA_LOAD_INT(x23, x6) # load rs1: x6 = 0x80000000
    3154:	000ba303          	lw	x6,0(x23)
    3158:	004b8b93          	addi	x23,x23,4
  RVTEST_TESTDATA_LOAD_INT(x23, x12) # load rs2: x12 = 0x80000001
    315c:	000ba603          	lw	x12,0(x23)
    3160:	004b8b93          	addi	x23,x23,4

00003164 <I_bge_cg_cr_rs1_rs2_edges_offset_rs1val_0x80000000_rs2val_0x80000001>:
0: # destination for backwards branch that is never taken
I_bge_cg_cr_rs1_rs2_edges_offset_rs1val_0x80000000_rs2val_0x80000001:
  bge x6, x12, 3f # forward branch, if taken
    3164:	04c35263          	bge	x6,x12,31a8 <I_bge_cg_cr_rs1_rs2_edges_offset_rs1val_0x80000000_rs2val_0x80000001+0x44>
1: # goes here if not taken
  bge x6, x12, 0b # backward branch, never taken
    3168:	fec35ee3          	bge	x6,x12,3164 <I_bge_cg_cr_rs1_rs2_edges_offset_rs1val_0x80000000_rs2val_0x80000001>
  # Check if x0 contains the expected result. x15 is the signature ptr, x5 is the link ptr, x4 is a temp reg.
  RVTEST_SIGUPD(x15, x5, x4, x0, I_bge_cg_cr_rs1_rs2_edges_offset_rs1val_0x80000000_rs2val_0x80000001, I_bge_cg_cr_rs1_rs2_edges_offset_rs1val_0x80000000_rs2val_0x80000001_str)
    316c:	0007a203          	lw	x4,0(x15)
    3170:	00020863          	beq	x4,x0,3180 <I_bge_cg_cr_rs1_rs2_edges_offset_rs1val_0x80000000_rs2val_0x80000001+0x1c>
    3174:	709062ef          	jal	x5,a07c <failedtest_x5_x4>
    3178:	00003164          	.word	0x00003164
    317c:	0000ea46          	.word	0x0000ea46
    3180:	00478793          	addi	x15,x15,4
  j 4f # done with test
    3184:	0280006f          	jal	x0,31ac <I_bge_cg_cr_rs1_rs2_edges_offset_rs1val_0x80000000_rs2val_0x80000001+0x48>
2: # goes here during backward branch if taken
  LI(x6, 1)
    3188:	00100313          	addi	x6,x0,1
  # Check if x6 contains the expected result. x15 is the signature ptr, x5 is the link ptr, x4 is a temp reg.
  RVTEST_SIGUPD(x15, x5, x4, x6, I_bge_cg_cr_rs1_rs2_edges_offset_rs1val_0x80000000_rs2val_0x80000001, I_bge_cg_cr_rs1_rs2_edges_offset_rs1val_0x80000000_rs2val_0x80000001_str) # signature 1 for taken
    318c:	0007a203          	lw	x4,0(x15)
    3190:	00620863          	beq	x4,x6,31a0 <I_bge_cg_cr_rs1_rs2_edges_offset_rs1val_0x80000000_rs2val_0x80000001+0x3c>
    3194:	6e9062ef          	jal	x5,a07c <failedtest_x5_x4>
    3198:	00003164          	.word	0x00003164
    319c:	0000ea46          	.word	0x0000ea46
    31a0:	00478793          	addi	x15,x15,4
  j 4f # done with test
    31a4:	0080006f          	jal	x0,31ac <I_bge_cg_cr_rs1_rs2_edges_offset_rs1val_0x80000000_rs2val_0x80000001+0x48>
3: # goes here during forward branch if taken
  bge x6, x12, 2b # backward branch, definitely taken
    31a8:	fec350e3          	bge	x6,x12,3188 <I_bge_cg_cr_rs1_rs2_edges_offset_rs1val_0x80000000_rs2val_0x80000001+0x24>
4: # done with test

# cr_rs1_rs2_edges_offset (Test source rs1 = 0x80000000 rs2 = 0x7fffffff)
  RVTEST_TESTDATA_LOAD_INT(x23, x3) # load rs1: x3 = 0x80000000
    31ac:	000ba183          	lw	x3,0(x23)
    31b0:	004b8b93          	addi	x23,x23,4
  RVTEST_TESTDATA_LOAD_INT(x23, x19) # load rs2: x19 = 0x7fffffff
    31b4:	000ba983          	lw	x19,0(x23)
    31b8:	004b8b93          	addi	x23,x23,4

000031bc <I_bge_cg_cr_rs1_rs2_edges_offset_rs1val_0x80000000_rs2val_0x7fffffff>:
0: # destination for backwards branch that is never taken
I_bge_cg_cr_rs1_rs2_edges_offset_rs1val_0x80000000_rs2val_0x7fffffff:
  bge x3, x19, 3f # forward branch, if taken
    31bc:	0531d263          	bge	x3,x19,3200 <I_bge_cg_cr_rs1_rs2_edges_offset_rs1val_0x80000000_rs2val_0x7fffffff+0x44>
1: # goes here if not taken
  bge x3, x19, 0b # backward branch, never taken
    31c0:	ff31dee3          	bge	x3,x19,31bc <I_bge_cg_cr_rs1_rs2_edges_offset_rs1val_0x80000000_rs2val_0x7fffffff>
  # Check if x0 contains the expected result. x15 is the signature ptr, x5 is the link ptr, x4 is a temp reg.
  RVTEST_SIGUPD(x15, x5, x4, x0, I_bge_cg_cr_rs1_rs2_edges_offset_rs1val_0x80000000_rs2val_0x7fffffff, I_bge_cg_cr_rs1_rs2_edges_offset_rs1val_0x80000000_rs2val_0x7fffffff_str)
    31c4:	0007a203          	lw	x4,0(x15)
    31c8:	00020863          	beq	x4,x0,31d8 <I_bge_cg_cr_rs1_rs2_edges_offset_rs1val_0x80000000_rs2val_0x7fffffff+0x1c>
    31cc:	6b1062ef          	jal	x5,a07c <failedtest_x5_x4>
    31d0:	000031bc          	.word	0x000031bc
    31d4:	0000eaa8          	.word	0x0000eaa8
    31d8:	00478793          	addi	x15,x15,4
  j 4f # done with test
    31dc:	0280006f          	jal	x0,3204 <I_bge_cg_cr_rs1_rs2_edges_offset_rs1val_0x80000000_rs2val_0x7fffffff+0x48>
2: # goes here during backward branch if taken
  LI(x3, 1)
    31e0:	00100193          	addi	x3,x0,1
  # Check if x3 contains the expected result. x15 is the signature ptr, x5 is the link ptr, x4 is a temp reg.
  RVTEST_SIGUPD(x15, x5, x4, x3, I_bge_cg_cr_rs1_rs2_edges_offset_rs1val_0x80000000_rs2val_0x7fffffff, I_bge_cg_cr_rs1_rs2_edges_offset_rs1val_0x80000000_rs2val_0x7fffffff_str) # signature 1 for taken
    31e4:	0007a203          	lw	x4,0(x15)
    31e8:	00320863          	beq	x4,x3,31f8 <I_bge_cg_cr_rs1_rs2_edges_offset_rs1val_0x80000000_rs2val_0x7fffffff+0x3c>
    31ec:	691062ef          	jal	x5,a07c <failedtest_x5_x4>
    31f0:	000031bc          	.word	0x000031bc
    31f4:	0000eaa8          	.word	0x0000eaa8
    31f8:	00478793          	addi	x15,x15,4
  j 4f # done with test
    31fc:	0080006f          	jal	x0,3204 <I_bge_cg_cr_rs1_rs2_edges_offset_rs1val_0x80000000_rs2val_0x7fffffff+0x48>
3: # goes here during forward branch if taken
  bge x3, x19, 2b # backward branch, definitely taken
    3200:	ff31d0e3          	bge	x3,x19,31e0 <I_bge_cg_cr_rs1_rs2_edges_offset_rs1val_0x80000000_rs2val_0x7fffffff+0x24>
4: # done with test

# cr_rs1_rs2_edges_offset (Test source rs1 = 0x80000000 rs2 = 0x7ffffffe)
  RVTEST_TESTDATA_LOAD_INT(x23, x8) # load rs1: x8 = 0x80000000
    3204:	000ba403          	lw	x8,0(x23)
    3208:	004b8b93          	addi	x23,x23,4
  RVTEST_TESTDATA_LOAD_INT(x23, x9) # load rs2: x9 = 0x7ffffffe
    320c:	000ba483          	lw	x9,0(x23)
    3210:	004b8b93          	addi	x23,x23,4

00003214 <I_bge_cg_cr_rs1_rs2_edges_offset_rs1val_0x80000000_rs2val_0x7ffffffe>:
0: # destination for backwards branch that is never taken
I_bge_cg_cr_rs1_rs2_edges_offset_rs1val_0x80000000_rs2val_0x7ffffffe:
  bge x8, x9, 3f # forward branch, if taken
    3214:	04945263          	bge	x8,x9,3258 <I_bge_cg_cr_rs1_rs2_edges_offset_rs1val_0x80000000_rs2val_0x7ffffffe+0x44>
1: # goes here if not taken
  bge x8, x9, 0b # backward branch, never taken
    3218:	fe945ee3          	bge	x8,x9,3214 <I_bge_cg_cr_rs1_rs2_edges_offset_rs1val_0x80000000_rs2val_0x7ffffffe>
  # Check if x0 contains the expected result. x15 is the signature ptr, x5 is the link ptr, x4 is a temp reg.
  RVTEST_SIGUPD(x15, x5, x4, x0, I_bge_cg_cr_rs1_rs2_edges_offset_rs1val_0x80000000_rs2val_0x7ffffffe, I_bge_cg_cr_rs1_rs2_edges_offset_rs1val_0x80000000_rs2val_0x7ffffffe_str)
    321c:	0007a203          	lw	x4,0(x15)
    3220:	00020863          	beq	x4,x0,3230 <I_bge_cg_cr_rs1_rs2_edges_offset_rs1val_0x80000000_rs2val_0x7ffffffe+0x1c>
    3224:	659062ef          	jal	x5,a07c <failedtest_x5_x4>
    3228:	00003214          	.word	0x00003214
    322c:	0000eb0a          	.word	0x0000eb0a
    3230:	00478793          	addi	x15,x15,4
  j 4f # done with test
    3234:	0280006f          	jal	x0,325c <I_bge_cg_cr_rs1_rs2_edges_offset_rs1val_0x80000000_rs2val_0x7ffffffe+0x48>
2: # goes here during backward branch if taken
  LI(x8, 1)
    3238:	00100413          	addi	x8,x0,1
  # Check if x8 contains the expected result. x15 is the signature ptr, x5 is the link ptr, x4 is a temp reg.
  RVTEST_SIGUPD(x15, x5, x4, x8, I_bge_cg_cr_rs1_rs2_edges_offset_rs1val_0x80000000_rs2val_0x7ffffffe, I_bge_cg_cr_rs1_rs2_edges_offset_rs1val_0x80000000_rs2val_0x7ffffffe_str) # signature 1 for taken
    323c:	0007a203          	lw	x4,0(x15)
    3240:	00820863          	beq	x4,x8,3250 <I_bge_cg_cr_rs1_rs2_edges_offset_rs1val_0x80000000_rs2val_0x7ffffffe+0x3c>
    3244:	639062ef          	jal	x5,a07c <failedtest_x5_x4>
    3248:	00003214          	.word	0x00003214
    324c:	0000eb0a          	.word	0x0000eb0a
    3250:	00478793          	addi	x15,x15,4
  j 4f # done with test
    3254:	0080006f          	jal	x0,325c <I_bge_cg_cr_rs1_rs2_edges_offset_rs1val_0x80000000_rs2val_0x7ffffffe+0x48>
3: # goes here during forward branch if taken
  bge x8, x9, 2b # backward branch, definitely taken
    3258:	fe9450e3          	bge	x8,x9,3238 <I_bge_cg_cr_rs1_rs2_edges_offset_rs1val_0x80000000_rs2val_0x7ffffffe+0x24>
4: # done with test

# cr_rs1_rs2_edges_offset (Test source rs1 = 0x80000000 rs2 = 0xffffffff)
  RVTEST_TESTDATA_LOAD_INT(x23, x28) # load rs1: x28 = 0x80000000
    325c:	000bae03          	lw	x28,0(x23)
    3260:	004b8b93          	addi	x23,x23,4
  RVTEST_TESTDATA_LOAD_INT(x23, x6) # load rs2: x6 = 0xffffffff
    3264:	000ba303          	lw	x6,0(x23)
    3268:	004b8b93          	addi	x23,x23,4

0000326c <I_bge_cg_cr_rs1_rs2_edges_offset_rs1val_0x80000000_rs2val_0xffffffff>:
0: # destination for backwards branch that is never taken
I_bge_cg_cr_rs1_rs2_edges_offset_rs1val_0x80000000_rs2val_0xffffffff:
  bge x28, x6, 3f # forward branch, if taken
    326c:	046e5263          	bge	x28,x6,32b0 <I_bge_cg_cr_rs1_rs2_edges_offset_rs1val_0x80000000_rs2val_0xffffffff+0x44>
1: # goes here if not taken
  bge x28, x6, 0b # backward branch, never taken
    3270:	fe6e5ee3          	bge	x28,x6,326c <I_bge_cg_cr_rs1_rs2_edges_offset_rs1val_0x80000000_rs2val_0xffffffff>
  # Check if x0 contains the expected result. x15 is the signature ptr, x5 is the link ptr, x4 is a temp reg.
  RVTEST_SIGUPD(x15, x5, x4, x0, I_bge_cg_cr_rs1_rs2_edges_offset_rs1val_0x80000000_rs2val_0xffffffff, I_bge_cg_cr_rs1_rs2_edges_offset_rs1val_0x80000000_rs2val_0xffffffff_str)
    3274:	0007a203          	lw	x4,0(x15)
    3278:	00020863          	beq	x4,x0,3288 <I_bge_cg_cr_rs1_rs2_edges_offset_rs1val_0x80000000_rs2val_0xffffffff+0x1c>
    327c:	601062ef          	jal	x5,a07c <failedtest_x5_x4>
    3280:	0000326c          	.word	0x0000326c
    3284:	0000eb6c          	.word	0x0000eb6c
    3288:	00478793          	addi	x15,x15,4
  j 4f # done with test
    328c:	0280006f          	jal	x0,32b4 <I_bge_cg_cr_rs1_rs2_edges_offset_rs1val_0x80000000_rs2val_0xffffffff+0x48>
2: # goes here during backward branch if taken
  LI(x28, 1)
    3290:	00100e13          	addi	x28,x0,1
  # Check if x28 contains the expected result. x15 is the signature ptr, x5 is the link ptr, x4 is a temp reg.
  RVTEST_SIGUPD(x15, x5, x4, x28, I_bge_cg_cr_rs1_rs2_edges_offset_rs1val_0x80000000_rs2val_0xffffffff, I_bge_cg_cr_rs1_rs2_edges_offset_rs1val_0x80000000_rs2val_0xffffffff_str) # signature 1 for taken
    3294:	0007a203          	lw	x4,0(x15)
    3298:	01c20863          	beq	x4,x28,32a8 <I_bge_cg_cr_rs1_rs2_edges_offset_rs1val_0x80000000_rs2val_0xffffffff+0x3c>
    329c:	5e1062ef          	jal	x5,a07c <failedtest_x5_x4>
    32a0:	0000326c          	.word	0x0000326c
    32a4:	0000eb6c          	.word	0x0000eb6c
    32a8:	00478793          	addi	x15,x15,4
  j 4f # done with test
    32ac:	0080006f          	jal	x0,32b4 <I_bge_cg_cr_rs1_rs2_edges_offset_rs1val_0x80000000_rs2val_0xffffffff+0x48>
3: # goes here during forward branch if taken
  bge x28, x6, 2b # backward branch, definitely taken
    32b0:	fe6e50e3          	bge	x28,x6,3290 <I_bge_cg_cr_rs1_rs2_edges_offset_rs1val_0x80000000_rs2val_0xffffffff+0x24>
4: # done with test

# cr_rs1_rs2_edges_offset (Test source rs1 = 0x80000000 rs2 = 0xfffffffe)
  RVTEST_TESTDATA_LOAD_INT(x23, x12) # load rs1: x12 = 0x80000000
    32b4:	000ba603          	lw	x12,0(x23)
    32b8:	004b8b93          	addi	x23,x23,4
  RVTEST_TESTDATA_LOAD_INT(x23, x28) # load rs2: x28 = 0xfffffffe
    32bc:	000bae03          	lw	x28,0(x23)
    32c0:	004b8b93          	addi	x23,x23,4

000032c4 <I_bge_cg_cr_rs1_rs2_edges_offset_rs1val_0x80000000_rs2val_0xfffffffe>:
0: # destination for backwards branch that is never taken
I_bge_cg_cr_rs1_rs2_edges_offset_rs1val_0x80000000_rs2val_0xfffffffe:
  bge x12, x28, 3f # forward branch, if taken
    32c4:	05c65263          	bge	x12,x28,3308 <I_bge_cg_cr_rs1_rs2_edges_offset_rs1val_0x80000000_rs2val_0xfffffffe+0x44>
1: # goes here if not taken
  bge x12, x28, 0b # backward branch, never taken
    32c8:	ffc65ee3          	bge	x12,x28,32c4 <I_bge_cg_cr_rs1_rs2_edges_offset_rs1val_0x80000000_rs2val_0xfffffffe>
  # Check if x0 contains the expected result. x15 is the signature ptr, x5 is the link ptr, x4 is a temp reg.
  RVTEST_SIGUPD(x15, x5, x4, x0, I_bge_cg_cr_rs1_rs2_edges_offset_rs1val_0x80000000_rs2val_0xfffffffe, I_bge_cg_cr_rs1_rs2_edges_offset_rs1val_0x80000000_rs2val_0xfffffffe_str)
    32cc:	0007a203          	lw	x4,0(x15)
    32d0:	00020863          	beq	x4,x0,32e0 <I_bge_cg_cr_rs1_rs2_edges_offset_rs1val_0x80000000_rs2val_0xfffffffe+0x1c>
    32d4:	5a9062ef          	jal	x5,a07c <failedtest_x5_x4>
    32d8:	000032c4          	.word	0x000032c4
    32dc:	0000ebce          	.word	0x0000ebce
    32e0:	00478793          	addi	x15,x15,4
  j 4f # done with test
    32e4:	0280006f          	jal	x0,330c <I_bge_cg_cr_rs1_rs2_edges_offset_rs1val_0x80000000_rs2val_0xfffffffe+0x48>
2: # goes here during backward branch if taken
  LI(x12, 1)
    32e8:	00100613          	addi	x12,x0,1
  # Check if x12 contains the expected result. x15 is the signature ptr, x5 is the link ptr, x4 is a temp reg.
  RVTEST_SIGUPD(x15, x5, x4, x12, I_bge_cg_cr_rs1_rs2_edges_offset_rs1val_0x80000000_rs2val_0xfffffffe, I_bge_cg_cr_rs1_rs2_edges_offset_rs1val_0x80000000_rs2val_0xfffffffe_str) # signature 1 for taken
    32ec:	0007a203          	lw	x4,0(x15)
    32f0:	00c20863          	beq	x4,x12,3300 <I_bge_cg_cr_rs1_rs2_edges_offset_rs1val_0x80000000_rs2val_0xfffffffe+0x3c>
    32f4:	589062ef          	jal	x5,a07c <failedtest_x5_x4>
    32f8:	000032c4          	.word	0x000032c4
    32fc:	0000ebce          	.word	0x0000ebce
    3300:	00478793          	addi	x15,x15,4
  j 4f # done with test
    3304:	0080006f          	jal	x0,330c <I_bge_cg_cr_rs1_rs2_edges_offset_rs1val_0x80000000_rs2val_0xfffffffe+0x48>
3: # goes here during forward branch if taken
  bge x12, x28, 2b # backward branch, definitely taken
    3308:	ffc650e3          	bge	x12,x28,32e8 <I_bge_cg_cr_rs1_rs2_edges_offset_rs1val_0x80000000_rs2val_0xfffffffe+0x24>
4: # done with test

# cr_rs1_rs2_edges_offset (Test source rs1 = 0x80000000 rs2 = 0x5bbc8872)
  RVTEST_TESTDATA_LOAD_INT(x23, x6) # load rs1: x6 = 0x80000000
    330c:	000ba303          	lw	x6,0(x23)
    3310:	004b8b93          	addi	x23,x23,4
  RVTEST_TESTDATA_LOAD_INT(x23, x10) # load rs2: x10 = 0x5bbc8872
    3314:	000ba503          	lw	x10,0(x23)
    3318:	004b8b93          	addi	x23,x23,4

0000331c <I_bge_cg_cr_rs1_rs2_edges_offset_rs1val_0x80000000_rs2val_0x5bbc8872>:
0: # destination for backwards branch that is never taken
I_bge_cg_cr_rs1_rs2_edges_offset_rs1val_0x80000000_rs2val_0x5bbc8872:
  bge x6, x10, 3f # forward branch, if taken
    331c:	04a35263          	bge	x6,x10,3360 <I_bge_cg_cr_rs1_rs2_edges_offset_rs1val_0x80000000_rs2val_0x5bbc8872+0x44>
1: # goes here if not taken
  bge x6, x10, 0b # backward branch, never taken
    3320:	fea35ee3          	bge	x6,x10,331c <I_bge_cg_cr_rs1_rs2_edges_offset_rs1val_0x80000000_rs2val_0x5bbc8872>
  # Check if x0 contains the expected result. x15 is the signature ptr, x5 is the link ptr, x4 is a temp reg.
  RVTEST_SIGUPD(x15, x5, x4, x0, I_bge_cg_cr_rs1_rs2_edges_offset_rs1val_0x80000000_rs2val_0x5bbc8872, I_bge_cg_cr_rs1_rs2_edges_offset_rs1val_0x80000000_rs2val_0x5bbc8872_str)
    3324:	0007a203          	lw	x4,0(x15)
    3328:	00020863          	beq	x4,x0,3338 <I_bge_cg_cr_rs1_rs2_edges_offset_rs1val_0x80000000_rs2val_0x5bbc8872+0x1c>
    332c:	551062ef          	jal	x5,a07c <failedtest_x5_x4>
    3330:	0000331c          	.word	0x0000331c
    3334:	0000ec30          	.word	0x0000ec30
    3338:	00478793          	addi	x15,x15,4
  j 4f # done with test
    333c:	0280006f          	jal	x0,3364 <I_bge_cg_cr_rs1_rs2_edges_offset_rs1val_0x80000000_rs2val_0x5bbc8872+0x48>
2: # goes here during backward branch if taken
  LI(x6, 1)
    3340:	00100313          	addi	x6,x0,1
  # Check if x6 contains the expected result. x15 is the signature ptr, x5 is the link ptr, x4 is a temp reg.
  RVTEST_SIGUPD(x15, x5, x4, x6, I_bge_cg_cr_rs1_rs2_edges_offset_rs1val_0x80000000_rs2val_0x5bbc8872, I_bge_cg_cr_rs1_rs2_edges_offset_rs1val_0x80000000_rs2val_0x5bbc8872_str) # signature 1 for taken
    3344:	0007a203          	lw	x4,0(x15)
    3348:	00620863          	beq	x4,x6,3358 <I_bge_cg_cr_rs1_rs2_edges_offset_rs1val_0x80000000_rs2val_0x5bbc8872+0x3c>
    334c:	531062ef          	jal	x5,a07c <failedtest_x5_x4>
    3350:	0000331c          	.word	0x0000331c
    3354:	0000ec30          	.word	0x0000ec30
    3358:	00478793          	addi	x15,x15,4
  j 4f # done with test
    335c:	0080006f          	jal	x0,3364 <I_bge_cg_cr_rs1_rs2_edges_offset_rs1val_0x80000000_rs2val_0x5bbc8872+0x48>
3: # goes here during forward branch if taken
  bge x6, x10, 2b # backward branch, definitely taken
    3360:	fea350e3          	bge	x6,x10,3340 <I_bge_cg_cr_rs1_rs2_edges_offset_rs1val_0x80000000_rs2val_0x5bbc8872+0x24>
4: # done with test

# cr_rs1_rs2_edges_offset (Test source rs1 = 0x80000000 rs2 = 0xaaaaaaaa)
  RVTEST_TESTDATA_LOAD_INT(x23, x7) # load rs1: x7 = 0x80000000
    3364:	000ba383          	lw	x7,0(x23)
    3368:	004b8b93          	addi	x23,x23,4
  RVTEST_TESTDATA_LOAD_INT(x23, x17) # load rs2: x17 = 0xaaaaaaaa
    336c:	000ba883          	lw	x17,0(x23)
    3370:	004b8b93          	addi	x23,x23,4

00003374 <I_bge_cg_cr_rs1_rs2_edges_offset_rs1val_0x80000000_rs2val_0xaaaaaaaa>:
0: # destination for backwards branch that is never taken
I_bge_cg_cr_rs1_rs2_edges_offset_rs1val_0x80000000_rs2val_0xaaaaaaaa:
  bge x7, x17, 3f # forward branch, if taken
    3374:	0513d263          	bge	x7,x17,33b8 <I_bge_cg_cr_rs1_rs2_edges_offset_rs1val_0x80000000_rs2val_0xaaaaaaaa+0x44>
1: # goes here if not taken
  bge x7, x17, 0b # backward branch, never taken
    3378:	ff13dee3          	bge	x7,x17,3374 <I_bge_cg_cr_rs1_rs2_edges_offset_rs1val_0x80000000_rs2val_0xaaaaaaaa>
  # Check if x0 contains the expected result. x15 is the signature ptr, x5 is the link ptr, x4 is a temp reg.
  RVTEST_SIGUPD(x15, x5, x4, x0, I_bge_cg_cr_rs1_rs2_edges_offset_rs1val_0x80000000_rs2val_0xaaaaaaaa, I_bge_cg_cr_rs1_rs2_edges_offset_rs1val_0x80000000_rs2val_0xaaaaaaaa_str)
    337c:	0007a203          	lw	x4,0(x15)
    3380:	00020863          	beq	x4,x0,3390 <I_bge_cg_cr_rs1_rs2_edges_offset_rs1val_0x80000000_rs2val_0xaaaaaaaa+0x1c>
    3384:	4f9062ef          	jal	x5,a07c <failedtest_x5_x4>
    3388:	00003374          	.word	0x00003374
    338c:	0000ec92          	.word	0x0000ec92
    3390:	00478793          	addi	x15,x15,4
  j 4f # done with test
    3394:	0280006f          	jal	x0,33bc <I_bge_cg_cr_rs1_rs2_edges_offset_rs1val_0x80000000_rs2val_0xaaaaaaaa+0x48>
2: # goes here during backward branch if taken
  LI(x7, 1)
    3398:	00100393          	addi	x7,x0,1
  # Check if x7 contains the expected result. x15 is the signature ptr, x5 is the link ptr, x4 is a temp reg.
  RVTEST_SIGUPD(x15, x5, x4, x7, I_bge_cg_cr_rs1_rs2_edges_offset_rs1val_0x80000000_rs2val_0xaaaaaaaa, I_bge_cg_cr_rs1_rs2_edges_offset_rs1val_0x80000000_rs2val_0xaaaaaaaa_str) # signature 1 for taken
    339c:	0007a203          	lw	x4,0(x15)
    33a0:	00720863          	beq	x4,x7,33b0 <I_bge_cg_cr_rs1_rs2_edges_offset_rs1val_0x80000000_rs2val_0xaaaaaaaa+0x3c>
    33a4:	4d9062ef          	jal	x5,a07c <failedtest_x5_x4>
    33a8:	00003374          	.word	0x00003374
    33ac:	0000ec92          	.word	0x0000ec92
    33b0:	00478793          	addi	x15,x15,4
  j 4f # done with test
    33b4:	0080006f          	jal	x0,33bc <I_bge_cg_cr_rs1_rs2_edges_offset_rs1val_0x80000000_rs2val_0xaaaaaaaa+0x48>
3: # goes here during forward branch if taken
  bge x7, x17, 2b # backward branch, definitely taken
    33b8:	ff13d0e3          	bge	x7,x17,3398 <I_bge_cg_cr_rs1_rs2_edges_offset_rs1val_0x80000000_rs2val_0xaaaaaaaa+0x24>
4: # done with test

# cr_rs1_rs2_edges_offset (Test source rs1 = 0x80000000 rs2 = 0x55555555)
  RVTEST_TESTDATA_LOAD_INT(x23, x13) # load rs1: x13 = 0x80000000
    33bc:	000ba683          	lw	x13,0(x23)
    33c0:	004b8b93          	addi	x23,x23,4
  RVTEST_TESTDATA_LOAD_INT(x23, x8) # load rs2: x8 = 0x55555555
    33c4:	000ba403          	lw	x8,0(x23)
    33c8:	004b8b93          	addi	x23,x23,4

000033cc <I_bge_cg_cr_rs1_rs2_edges_offset_rs1val_0x80000000_rs2val_0x55555555>:
0: # destination for backwards branch that is never taken
I_bge_cg_cr_rs1_rs2_edges_offset_rs1val_0x80000000_rs2val_0x55555555:
  bge x13, x8, 3f # forward branch, if taken
    33cc:	0486d263          	bge	x13,x8,3410 <I_bge_cg_cr_rs1_rs2_edges_offset_rs1val_0x80000000_rs2val_0x55555555+0x44>
1: # goes here if not taken
  bge x13, x8, 0b # backward branch, never taken
    33d0:	fe86dee3          	bge	x13,x8,33cc <I_bge_cg_cr_rs1_rs2_edges_offset_rs1val_0x80000000_rs2val_0x55555555>
  # Check if x0 contains the expected result. x15 is the signature ptr, x5 is the link ptr, x4 is a temp reg.
  RVTEST_SIGUPD(x15, x5, x4, x0, I_bge_cg_cr_rs1_rs2_edges_offset_rs1val_0x80000000_rs2val_0x55555555, I_bge_cg_cr_rs1_rs2_edges_offset_rs1val_0x80000000_rs2val_0x55555555_str)
    33d4:	0007a203          	lw	x4,0(x15)
    33d8:	00020863          	beq	x4,x0,33e8 <I_bge_cg_cr_rs1_rs2_edges_offset_rs1val_0x80000000_rs2val_0x55555555+0x1c>
    33dc:	4a1062ef          	jal	x5,a07c <failedtest_x5_x4>
    33e0:	000033cc          	.word	0x000033cc
    33e4:	0000ecf4          	.word	0x0000ecf4
    33e8:	00478793          	addi	x15,x15,4
  j 4f # done with test
    33ec:	0280006f          	jal	x0,3414 <I_bge_cg_cr_rs1_rs2_edges_offset_rs1val_0x80000000_rs2val_0x55555555+0x48>
2: # goes here during backward branch if taken
  LI(x13, 1)
    33f0:	00100693          	addi	x13,x0,1
  # Check if x13 contains the expected result. x15 is the signature ptr, x5 is the link ptr, x4 is a temp reg.
  RVTEST_SIGUPD(x15, x5, x4, x13, I_bge_cg_cr_rs1_rs2_edges_offset_rs1val_0x80000000_rs2val_0x55555555, I_bge_cg_cr_rs1_rs2_edges_offset_rs1val_0x80000000_rs2val_0x55555555_str) # signature 1 for taken
    33f4:	0007a203          	lw	x4,0(x15)
    33f8:	00d20863          	beq	x4,x13,3408 <I_bge_cg_cr_rs1_rs2_edges_offset_rs1val_0x80000000_rs2val_0x55555555+0x3c>
    33fc:	481062ef          	jal	x5,a07c <failedtest_x5_x4>
    3400:	000033cc          	.word	0x000033cc
    3404:	0000ecf4          	.word	0x0000ecf4
    3408:	00478793          	addi	x15,x15,4
  j 4f # done with test
    340c:	0080006f          	jal	x0,3414 <I_bge_cg_cr_rs1_rs2_edges_offset_rs1val_0x80000000_rs2val_0x55555555+0x48>
3: # goes here during forward branch if taken
  bge x13, x8, 2b # backward branch, definitely taken
    3410:	fe86d0e3          	bge	x13,x8,33f0 <I_bge_cg_cr_rs1_rs2_edges_offset_rs1val_0x80000000_rs2val_0x55555555+0x24>
4: # done with test

# cr_rs1_rs2_edges_offset (Test source rs1 = 0x80000001 rs2 = 0x00000000)
  RVTEST_TESTDATA_LOAD_INT(x23, x27) # load rs1: x27 = 0x80000001
    3414:	000bad83          	lw	x27,0(x23)
    3418:	004b8b93          	addi	x23,x23,4
  RVTEST_TESTDATA_LOAD_INT(x23, x28) # load rs2: x28 = 0x00000000
    341c:	000bae03          	lw	x28,0(x23)
    3420:	004b8b93          	addi	x23,x23,4

00003424 <I_bge_cg_cr_rs1_rs2_edges_offset_rs1val_0x80000001_rs2val_0x0>:
0: # destination for backwards branch that is never taken
I_bge_cg_cr_rs1_rs2_edges_offset_rs1val_0x80000001_rs2val_0x0:
  bge x27, x28, 3f # forward branch, if taken
    3424:	05cdd263          	bge	x27,x28,3468 <I_bge_cg_cr_rs1_rs2_edges_offset_rs1val_0x80000001_rs2val_0x0+0x44>
1: # goes here if not taken
  bge x27, x28, 0b # backward branch, never taken
    3428:	ffcddee3          	bge	x27,x28,3424 <I_bge_cg_cr_rs1_rs2_edges_offset_rs1val_0x80000001_rs2val_0x0>
  # Check if x0 contains the expected result. x15 is the signature ptr, x5 is the link ptr, x4 is a temp reg.
  RVTEST_SIGUPD(x15, x5, x4, x0, I_bge_cg_cr_rs1_rs2_edges_offset_rs1val_0x80000001_rs2val_0x0, I_bge_cg_cr_rs1_rs2_edges_offset_rs1val_0x80000001_rs2val_0x0_str)
    342c:	0007a203          	lw	x4,0(x15)
    3430:	00020863          	beq	x4,x0,3440 <I_bge_cg_cr_rs1_rs2_edges_offset_rs1val_0x80000001_rs2val_0x0+0x1c>
    3434:	449062ef          	jal	x5,a07c <failedtest_x5_x4>
    3438:	00003424          	.word	0x00003424
    343c:	0000ed56          	.word	0x0000ed56
    3440:	00478793          	addi	x15,x15,4
  j 4f # done with test
    3444:	0280006f          	jal	x0,346c <I_bge_cg_cr_rs1_rs2_edges_offset_rs1val_0x80000001_rs2val_0x0+0x48>
2: # goes here during backward branch if taken
  LI(x27, 1)
    3448:	00100d93          	addi	x27,x0,1
  # Check if x27 contains the expected result. x15 is the signature ptr, x5 is the link ptr, x4 is a temp reg.
  RVTEST_SIGUPD(x15, x5, x4, x27, I_bge_cg_cr_rs1_rs2_edges_offset_rs1val_0x80000001_rs2val_0x0, I_bge_cg_cr_rs1_rs2_edges_offset_rs1val_0x80000001_rs2val_0x0_str) # signature 1 for taken
    344c:	0007a203          	lw	x4,0(x15)
    3450:	01b20863          	beq	x4,x27,3460 <I_bge_cg_cr_rs1_rs2_edges_offset_rs1val_0x80000001_rs2val_0x0+0x3c>
    3454:	429062ef          	jal	x5,a07c <failedtest_x5_x4>
    3458:	00003424          	.word	0x00003424
    345c:	0000ed56          	.word	0x0000ed56
    3460:	00478793          	addi	x15,x15,4
  j 4f # done with test
    3464:	0080006f          	jal	x0,346c <I_bge_cg_cr_rs1_rs2_edges_offset_rs1val_0x80000001_rs2val_0x0+0x48>
3: # goes here during forward branch if taken
  bge x27, x28, 2b # backward branch, definitely taken
    3468:	ffcdd0e3          	bge	x27,x28,3448 <I_bge_cg_cr_rs1_rs2_edges_offset_rs1val_0x80000001_rs2val_0x0+0x24>
4: # done with test

# cr_rs1_rs2_edges_offset (Test source rs1 = 0x80000001 rs2 = 0x00000001)
  RVTEST_TESTDATA_LOAD_INT(x23, x2) # load rs1: x2 = 0x80000001
    346c:	000ba103          	lw	x2,0(x23)
    3470:	004b8b93          	addi	x23,x23,4
  RVTEST_TESTDATA_LOAD_INT(x23, x8) # load rs2: x8 = 0x00000001
    3474:	000ba403          	lw	x8,0(x23)
    3478:	004b8b93          	addi	x23,x23,4

0000347c <I_bge_cg_cr_rs1_rs2_edges_offset_rs1val_0x80000001_rs2val_0x1>:
0: # destination for backwards branch that is never taken
I_bge_cg_cr_rs1_rs2_edges_offset_rs1val_0x80000001_rs2val_0x1:
  bge x2, x8, 3f # forward branch, if taken
    347c:	04815263          	bge	x2,x8,34c0 <I_bge_cg_cr_rs1_rs2_edges_offset_rs1val_0x80000001_rs2val_0x1+0x44>
1: # goes here if not taken
  bge x2, x8, 0b # backward branch, never taken
    3480:	fe815ee3          	bge	x2,x8,347c <I_bge_cg_cr_rs1_rs2_edges_offset_rs1val_0x80000001_rs2val_0x1>
  # Check if x0 contains the expected result. x15 is the signature ptr, x5 is the link ptr, x4 is a temp reg.
  RVTEST_SIGUPD(x15, x5, x4, x0, I_bge_cg_cr_rs1_rs2_edges_offset_rs1val_0x80000001_rs2val_0x1, I_bge_cg_cr_rs1_rs2_edges_offset_rs1val_0x80000001_rs2val_0x1_str)
    3484:	0007a203          	lw	x4,0(x15)
    3488:	00020863          	beq	x4,x0,3498 <I_bge_cg_cr_rs1_rs2_edges_offset_rs1val_0x80000001_rs2val_0x1+0x1c>
    348c:	3f1062ef          	jal	x5,a07c <failedtest_x5_x4>
    3490:	0000347c          	.word	0x0000347c
    3494:	0000edb1          	.word	0x0000edb1
    3498:	00478793          	addi	x15,x15,4
  j 4f # done with test
    349c:	0280006f          	jal	x0,34c4 <I_bge_cg_cr_rs1_rs2_edges_offset_rs1val_0x80000001_rs2val_0x1+0x48>
2: # goes here during backward branch if taken
  LI(x2, 1)
    34a0:	00100113          	addi	x2,x0,1
  # Check if x2 contains the expected result. x15 is the signature ptr, x5 is the link ptr, x4 is a temp reg.
  RVTEST_SIGUPD(x15, x5, x4, x2, I_bge_cg_cr_rs1_rs2_edges_offset_rs1val_0x80000001_rs2val_0x1, I_bge_cg_cr_rs1_rs2_edges_offset_rs1val_0x80000001_rs2val_0x1_str) # signature 1 for taken
    34a4:	0007a203          	lw	x4,0(x15)
    34a8:	00220863          	beq	x4,x2,34b8 <I_bge_cg_cr_rs1_rs2_edges_offset_rs1val_0x80000001_rs2val_0x1+0x3c>
    34ac:	3d1062ef          	jal	x5,a07c <failedtest_x5_x4>
    34b0:	0000347c          	.word	0x0000347c
    34b4:	0000edb1          	.word	0x0000edb1
    34b8:	00478793          	addi	x15,x15,4
  j 4f # done with test
    34bc:	0080006f          	jal	x0,34c4 <I_bge_cg_cr_rs1_rs2_edges_offset_rs1val_0x80000001_rs2val_0x1+0x48>
3: # goes here during forward branch if taken
  bge x2, x8, 2b # backward branch, definitely taken
    34c0:	fe8150e3          	bge	x2,x8,34a0 <I_bge_cg_cr_rs1_rs2_edges_offset_rs1val_0x80000001_rs2val_0x1+0x24>
4: # done with test

# cr_rs1_rs2_edges_offset (Test source rs1 = 0x80000001 rs2 = 0x00000002)
  RVTEST_TESTDATA_LOAD_INT(x23, x22) # load rs1: x22 = 0x80000001
    34c4:	000bab03          	lw	x22,0(x23)
    34c8:	004b8b93          	addi	x23,x23,4
  RVTEST_TESTDATA_LOAD_INT(x23, x27) # load rs2: x27 = 0x00000002
    34cc:	000bad83          	lw	x27,0(x23)
    34d0:	004b8b93          	addi	x23,x23,4

000034d4 <I_bge_cg_cr_rs1_rs2_edges_offset_rs1val_0x80000001_rs2val_0x2>:
0: # destination for backwards branch that is never taken
I_bge_cg_cr_rs1_rs2_edges_offset_rs1val_0x80000001_rs2val_0x2:
  bge x22, x27, 3f # forward branch, if taken
    34d4:	05bb5263          	bge	x22,x27,3518 <I_bge_cg_cr_rs1_rs2_edges_offset_rs1val_0x80000001_rs2val_0x2+0x44>
1: # goes here if not taken
  bge x22, x27, 0b # backward branch, never taken
    34d8:	ffbb5ee3          	bge	x22,x27,34d4 <I_bge_cg_cr_rs1_rs2_edges_offset_rs1val_0x80000001_rs2val_0x2>
  # Check if x0 contains the expected result. x15 is the signature ptr, x5 is the link ptr, x4 is a temp reg.
  RVTEST_SIGUPD(x15, x5, x4, x0, I_bge_cg_cr_rs1_rs2_edges_offset_rs1val_0x80000001_rs2val_0x2, I_bge_cg_cr_rs1_rs2_edges_offset_rs1val_0x80000001_rs2val_0x2_str)
    34dc:	0007a203          	lw	x4,0(x15)
    34e0:	00020863          	beq	x4,x0,34f0 <I_bge_cg_cr_rs1_rs2_edges_offset_rs1val_0x80000001_rs2val_0x2+0x1c>
    34e4:	399062ef          	jal	x5,a07c <failedtest_x5_x4>
    34e8:	000034d4          	.word	0x000034d4
    34ec:	0000ee0c          	.word	0x0000ee0c
    34f0:	00478793          	addi	x15,x15,4
  j 4f # done with test
    34f4:	0280006f          	jal	x0,351c <I_bge_cg_cr_rs1_rs2_edges_offset_rs1val_0x80000001_rs2val_0x2+0x48>
2: # goes here during backward branch if taken
  LI(x22, 1)
    34f8:	00100b13          	addi	x22,x0,1
  # Check if x22 contains the expected result. x15 is the signature ptr, x5 is the link ptr, x4 is a temp reg.
  RVTEST_SIGUPD(x15, x5, x4, x22, I_bge_cg_cr_rs1_rs2_edges_offset_rs1val_0x80000001_rs2val_0x2, I_bge_cg_cr_rs1_rs2_edges_offset_rs1val_0x80000001_rs2val_0x2_str) # signature 1 for taken
    34fc:	0007a203          	lw	x4,0(x15)
    3500:	01620863          	beq	x4,x22,3510 <I_bge_cg_cr_rs1_rs2_edges_offset_rs1val_0x80000001_rs2val_0x2+0x3c>
    3504:	379062ef          	jal	x5,a07c <failedtest_x5_x4>
    3508:	000034d4          	.word	0x000034d4
    350c:	0000ee0c          	.word	0x0000ee0c
    3510:	00478793          	addi	x15,x15,4
  j 4f # done with test
    3514:	0080006f          	jal	x0,351c <I_bge_cg_cr_rs1_rs2_edges_offset_rs1val_0x80000001_rs2val_0x2+0x48>
3: # goes here during forward branch if taken
  bge x22, x27, 2b # backward branch, definitely taken
    3518:	ffbb50e3          	bge	x22,x27,34f8 <I_bge_cg_cr_rs1_rs2_edges_offset_rs1val_0x80000001_rs2val_0x2+0x24>
4: # done with test

# cr_rs1_rs2_edges_offset (Test source rs1 = 0x80000001 rs2 = 0x80000000)
  RVTEST_TESTDATA_LOAD_INT(x23, x16) # load rs1: x16 = 0x80000001
    351c:	000ba803          	lw	x16,0(x23)
    3520:	004b8b93          	addi	x23,x23,4
  RVTEST_TESTDATA_LOAD_INT(x23, x29) # load rs2: x29 = 0x80000000
    3524:	000bae83          	lw	x29,0(x23)
    3528:	004b8b93          	addi	x23,x23,4

0000352c <I_bge_cg_cr_rs1_rs2_edges_offset_rs1val_0x80000001_rs2val_0x80000000>:
0: # destination for backwards branch that is never taken
I_bge_cg_cr_rs1_rs2_edges_offset_rs1val_0x80000001_rs2val_0x80000000:
  bge x16, x29, 3f # forward branch, if taken
    352c:	05d85263          	bge	x16,x29,3570 <I_bge_cg_cr_rs1_rs2_edges_offset_rs1val_0x80000001_rs2val_0x80000000+0x44>
1: # goes here if not taken
  bge x16, x29, 0b # backward branch, never taken
    3530:	ffd85ee3          	bge	x16,x29,352c <I_bge_cg_cr_rs1_rs2_edges_offset_rs1val_0x80000001_rs2val_0x80000000>
  # Check if x0 contains the expected result. x15 is the signature ptr, x5 is the link ptr, x4 is a temp reg.
  RVTEST_SIGUPD(x15, x5, x4, x0, I_bge_cg_cr_rs1_rs2_edges_offset_rs1val_0x80000001_rs2val_0x80000000, I_bge_cg_cr_rs1_rs2_edges_offset_rs1val_0x80000001_rs2val_0x80000000_str)
    3534:	0007a203          	lw	x4,0(x15)
    3538:	00020863          	beq	x4,x0,3548 <I_bge_cg_cr_rs1_rs2_edges_offset_rs1val_0x80000001_rs2val_0x80000000+0x1c>
    353c:	341062ef          	jal	x5,a07c <failedtest_x5_x4>
    3540:	0000352c          	.word	0x0000352c
    3544:	0000ee67          	.word	0x0000ee67
    3548:	00478793          	addi	x15,x15,4
  j 4f # done with test
    354c:	0280006f          	jal	x0,3574 <I_bge_cg_cr_rs1_rs2_edges_offset_rs1val_0x80000001_rs2val_0x80000000+0x48>
2: # goes here during backward branch if taken
  LI(x16, 1)
    3550:	00100813          	addi	x16,x0,1
  # Check if x16 contains the expected result. x15 is the signature ptr, x5 is the link ptr, x4 is a temp reg.
  RVTEST_SIGUPD(x15, x5, x4, x16, I_bge_cg_cr_rs1_rs2_edges_offset_rs1val_0x80000001_rs2val_0x80000000, I_bge_cg_cr_rs1_rs2_edges_offset_rs1val_0x80000001_rs2val_0x80000000_str) # signature 1 for taken
    3554:	0007a203          	lw	x4,0(x15)
    3558:	01020863          	beq	x4,x16,3568 <I_bge_cg_cr_rs1_rs2_edges_offset_rs1val_0x80000001_rs2val_0x80000000+0x3c>
    355c:	321062ef          	jal	x5,a07c <failedtest_x5_x4>
    3560:	0000352c          	.word	0x0000352c
    3564:	0000ee67          	.word	0x0000ee67
    3568:	00478793          	addi	x15,x15,4
  j 4f # done with test
    356c:	0080006f          	jal	x0,3574 <I_bge_cg_cr_rs1_rs2_edges_offset_rs1val_0x80000001_rs2val_0x80000000+0x48>
3: # goes here during forward branch if taken
  bge x16, x29, 2b # backward branch, definitely taken
    3570:	ffd850e3          	bge	x16,x29,3550 <I_bge_cg_cr_rs1_rs2_edges_offset_rs1val_0x80000001_rs2val_0x80000000+0x24>
4: # done with test

# cr_rs1_rs2_edges_offset (Test source rs1 = 0x80000001 rs2 = 0x80000001)
  RVTEST_TESTDATA_LOAD_INT(x23, x31) # load rs1: x31 = 0x80000001
    3574:	000baf83          	lw	x31,0(x23)
    3578:	004b8b93          	addi	x23,x23,4
  RVTEST_TESTDATA_LOAD_INT(x23, x27) # load rs2: x27 = 0x80000001
    357c:	000bad83          	lw	x27,0(x23)
    3580:	004b8b93          	addi	x23,x23,4

00003584 <I_bge_cg_cr_rs1_rs2_edges_offset_rs1val_0x80000001_rs2val_0x80000001>:
0: # destination for backwards branch that is never taken
I_bge_cg_cr_rs1_rs2_edges_offset_rs1val_0x80000001_rs2val_0x80000001:
  bge x31, x27, 3f # forward branch, if taken
    3584:	05bfd263          	bge	x31,x27,35c8 <I_bge_cg_cr_rs1_rs2_edges_offset_rs1val_0x80000001_rs2val_0x80000001+0x44>
1: # goes here if not taken
  bge x31, x27, 0b # backward branch, never taken
    3588:	ffbfdee3          	bge	x31,x27,3584 <I_bge_cg_cr_rs1_rs2_edges_offset_rs1val_0x80000001_rs2val_0x80000001>
  # Check if x0 contains the expected result. x15 is the signature ptr, x5 is the link ptr, x4 is a temp reg.
  RVTEST_SIGUPD(x15, x5, x4, x0, I_bge_cg_cr_rs1_rs2_edges_offset_rs1val_0x80000001_rs2val_0x80000001, I_bge_cg_cr_rs1_rs2_edges_offset_rs1val_0x80000001_rs2val_0x80000001_str)
    358c:	0007a203          	lw	x4,0(x15)
    3590:	00020863          	beq	x4,x0,35a0 <I_bge_cg_cr_rs1_rs2_edges_offset_rs1val_0x80000001_rs2val_0x80000001+0x1c>
    3594:	2e9062ef          	jal	x5,a07c <failedtest_x5_x4>
    3598:	00003584          	.word	0x00003584
    359c:	0000eec9          	.word	0x0000eec9
    35a0:	00478793          	addi	x15,x15,4
  j 4f # done with test
    35a4:	0280006f          	jal	x0,35cc <I_bge_cg_cr_rs1_rs2_edges_offset_rs1val_0x80000001_rs2val_0x80000001+0x48>
2: # goes here during backward branch if taken
  LI(x31, 1)
    35a8:	00100f93          	addi	x31,x0,1
  # Check if x31 contains the expected result. x15 is the signature ptr, x5 is the link ptr, x4 is a temp reg.
  RVTEST_SIGUPD(x15, x5, x4, x31, I_bge_cg_cr_rs1_rs2_edges_offset_rs1val_0x80000001_rs2val_0x80000001, I_bge_cg_cr_rs1_rs2_edges_offset_rs1val_0x80000001_rs2val_0x80000001_str) # signature 1 for taken
    35ac:	0007a203          	lw	x4,0(x15)
    35b0:	01f20863          	beq	x4,x31,35c0 <I_bge_cg_cr_rs1_rs2_edges_offset_rs1val_0x80000001_rs2val_0x80000001+0x3c>
    35b4:	2c9062ef          	jal	x5,a07c <failedtest_x5_x4>
    35b8:	00003584          	.word	0x00003584
    35bc:	0000eec9          	.word	0x0000eec9
    35c0:	00478793          	addi	x15,x15,4
  j 4f # done with test
    35c4:	0080006f          	jal	x0,35cc <I_bge_cg_cr_rs1_rs2_edges_offset_rs1val_0x80000001_rs2val_0x80000001+0x48>
3: # goes here during forward branch if taken
  bge x31, x27, 2b # backward branch, definitely taken
    35c8:	ffbfd0e3          	bge	x31,x27,35a8 <I_bge_cg_cr_rs1_rs2_edges_offset_rs1val_0x80000001_rs2val_0x80000001+0x24>
4: # done with test

# cr_rs1_rs2_edges_offset (Test source rs1 = 0x80000001 rs2 = 0x7fffffff)
  RVTEST_TESTDATA_LOAD_INT(x23, x14) # load rs1: x14 = 0x80000001
    35cc:	000ba703          	lw	x14,0(x23)
    35d0:	004b8b93          	addi	x23,x23,4
  RVTEST_TESTDATA_LOAD_INT(x23, x6) # load rs2: x6 = 0x7fffffff
    35d4:	000ba303          	lw	x6,0(x23)
    35d8:	004b8b93          	addi	x23,x23,4

000035dc <I_bge_cg_cr_rs1_rs2_edges_offset_rs1val_0x80000001_rs2val_0x7fffffff>:
0: # destination for backwards branch that is never taken
I_bge_cg_cr_rs1_rs2_edges_offset_rs1val_0x80000001_rs2val_0x7fffffff:
  bge x14, x6, 3f # forward branch, if taken
    35dc:	04675263          	bge	x14,x6,3620 <I_bge_cg_cr_rs1_rs2_edges_offset_rs1val_0x80000001_rs2val_0x7fffffff+0x44>
1: # goes here if not taken
  bge x14, x6, 0b # backward branch, never taken
    35e0:	fe675ee3          	bge	x14,x6,35dc <I_bge_cg_cr_rs1_rs2_edges_offset_rs1val_0x80000001_rs2val_0x7fffffff>
  # Check if x0 contains the expected result. x15 is the signature ptr, x5 is the link ptr, x4 is a temp reg.
  RVTEST_SIGUPD(x15, x5, x4, x0, I_bge_cg_cr_rs1_rs2_edges_offset_rs1val_0x80000001_rs2val_0x7fffffff, I_bge_cg_cr_rs1_rs2_edges_offset_rs1val_0x80000001_rs2val_0x7fffffff_str)
    35e4:	0007a203          	lw	x4,0(x15)
    35e8:	00020863          	beq	x4,x0,35f8 <I_bge_cg_cr_rs1_rs2_edges_offset_rs1val_0x80000001_rs2val_0x7fffffff+0x1c>
    35ec:	291062ef          	jal	x5,a07c <failedtest_x5_x4>
    35f0:	000035dc          	.word	0x000035dc
    35f4:	0000ef2b          	.word	0x0000ef2b
    35f8:	00478793          	addi	x15,x15,4
  j 4f # done with test
    35fc:	0280006f          	jal	x0,3624 <I_bge_cg_cr_rs1_rs2_edges_offset_rs1val_0x80000001_rs2val_0x7fffffff+0x48>
2: # goes here during backward branch if taken
  LI(x14, 1)
    3600:	00100713          	addi	x14,x0,1
  # Check if x14 contains the expected result. x15 is the signature ptr, x5 is the link ptr, x4 is a temp reg.
  RVTEST_SIGUPD(x15, x5, x4, x14, I_bge_cg_cr_rs1_rs2_edges_offset_rs1val_0x80000001_rs2val_0x7fffffff, I_bge_cg_cr_rs1_rs2_edges_offset_rs1val_0x80000001_rs2val_0x7fffffff_str) # signature 1 for taken
    3604:	0007a203          	lw	x4,0(x15)
    3608:	00e20863          	beq	x4,x14,3618 <I_bge_cg_cr_rs1_rs2_edges_offset_rs1val_0x80000001_rs2val_0x7fffffff+0x3c>
    360c:	271062ef          	jal	x5,a07c <failedtest_x5_x4>
    3610:	000035dc          	.word	0x000035dc
    3614:	0000ef2b          	.word	0x0000ef2b
    3618:	00478793          	addi	x15,x15,4
  j 4f # done with test
    361c:	0080006f          	jal	x0,3624 <I_bge_cg_cr_rs1_rs2_edges_offset_rs1val_0x80000001_rs2val_0x7fffffff+0x48>
3: # goes here during forward branch if taken
  bge x14, x6, 2b # backward branch, definitely taken
    3620:	fe6750e3          	bge	x14,x6,3600 <I_bge_cg_cr_rs1_rs2_edges_offset_rs1val_0x80000001_rs2val_0x7fffffff+0x24>
4: # done with test

# cr_rs1_rs2_edges_offset (Test source rs1 = 0x80000001 rs2 = 0x7ffffffe)
  RVTEST_TESTDATA_LOAD_INT(x23, x24) # load rs1: x24 = 0x80000001
    3624:	000bac03          	lw	x24,0(x23)
    3628:	004b8b93          	addi	x23,x23,4
  RVTEST_TESTDATA_LOAD_INT(x23, x7) # load rs2: x7 = 0x7ffffffe
    362c:	000ba383          	lw	x7,0(x23)
    3630:	004b8b93          	addi	x23,x23,4

00003634 <I_bge_cg_cr_rs1_rs2_edges_offset_rs1val_0x80000001_rs2val_0x7ffffffe>:
0: # destination for backwards branch that is never taken
I_bge_cg_cr_rs1_rs2_edges_offset_rs1val_0x80000001_rs2val_0x7ffffffe:
  bge x24, x7, 3f # forward branch, if taken
    3634:	047c5263          	bge	x24,x7,3678 <I_bge_cg_cr_rs1_rs2_edges_offset_rs1val_0x80000001_rs2val_0x7ffffffe+0x44>
1: # goes here if not taken
  bge x24, x7, 0b # backward branch, never taken
    3638:	fe7c5ee3          	bge	x24,x7,3634 <I_bge_cg_cr_rs1_rs2_edges_offset_rs1val_0x80000001_rs2val_0x7ffffffe>
  # Check if x0 contains the expected result. x15 is the signature ptr, x5 is the link ptr, x4 is a temp reg.
  RVTEST_SIGUPD(x15, x5, x4, x0, I_bge_cg_cr_rs1_rs2_edges_offset_rs1val_0x80000001_rs2val_0x7ffffffe, I_bge_cg_cr_rs1_rs2_edges_offset_rs1val_0x80000001_rs2val_0x7ffffffe_str)
    363c:	0007a203          	lw	x4,0(x15)
    3640:	00020863          	beq	x4,x0,3650 <I_bge_cg_cr_rs1_rs2_edges_offset_rs1val_0x80000001_rs2val_0x7ffffffe+0x1c>
    3644:	239062ef          	jal	x5,a07c <failedtest_x5_x4>
    3648:	00003634          	.word	0x00003634
    364c:	0000ef8d          	.word	0x0000ef8d
    3650:	00478793          	addi	x15,x15,4
  j 4f # done with test
    3654:	0280006f          	jal	x0,367c <I_bge_cg_cr_rs1_rs2_edges_offset_rs1val_0x80000001_rs2val_0x7ffffffe+0x48>
2: # goes here during backward branch if taken
  LI(x24, 1)
    3658:	00100c13          	addi	x24,x0,1
  # Check if x24 contains the expected result. x15 is the signature ptr, x5 is the link ptr, x4 is a temp reg.
  RVTEST_SIGUPD(x15, x5, x4, x24, I_bge_cg_cr_rs1_rs2_edges_offset_rs1val_0x80000001_rs2val_0x7ffffffe, I_bge_cg_cr_rs1_rs2_edges_offset_rs1val_0x80000001_rs2val_0x7ffffffe_str) # signature 1 for taken
    365c:	0007a203          	lw	x4,0(x15)
    3660:	01820863          	beq	x4,x24,3670 <I_bge_cg_cr_rs1_rs2_edges_offset_rs1val_0x80000001_rs2val_0x7ffffffe+0x3c>
    3664:	219062ef          	jal	x5,a07c <failedtest_x5_x4>
    3668:	00003634          	.word	0x00003634
    366c:	0000ef8d          	.word	0x0000ef8d
    3670:	00478793          	addi	x15,x15,4
  j 4f # done with test
    3674:	0080006f          	jal	x0,367c <I_bge_cg_cr_rs1_rs2_edges_offset_rs1val_0x80000001_rs2val_0x7ffffffe+0x48>
3: # goes here during forward branch if taken
  bge x24, x7, 2b # backward branch, definitely taken
    3678:	fe7c50e3          	bge	x24,x7,3658 <I_bge_cg_cr_rs1_rs2_edges_offset_rs1val_0x80000001_rs2val_0x7ffffffe+0x24>
4: # done with test

# cr_rs1_rs2_edges_offset (Test source rs1 = 0x80000001 rs2 = 0xffffffff)
  RVTEST_TESTDATA_LOAD_INT(x23, x17) # load rs1: x17 = 0x80000001
    367c:	000ba883          	lw	x17,0(x23)
    3680:	004b8b93          	addi	x23,x23,4
  RVTEST_TESTDATA_LOAD_INT(x23, x8) # load rs2: x8 = 0xffffffff
    3684:	000ba403          	lw	x8,0(x23)
    3688:	004b8b93          	addi	x23,x23,4

0000368c <I_bge_cg_cr_rs1_rs2_edges_offset_rs1val_0x80000001_rs2val_0xffffffff>:
0: # destination for backwards branch that is never taken
I_bge_cg_cr_rs1_rs2_edges_offset_rs1val_0x80000001_rs2val_0xffffffff:
  bge x17, x8, 3f # forward branch, if taken
    368c:	0488d263          	bge	x17,x8,36d0 <I_bge_cg_cr_rs1_rs2_edges_offset_rs1val_0x80000001_rs2val_0xffffffff+0x44>
1: # goes here if not taken
  bge x17, x8, 0b # backward branch, never taken
    3690:	fe88dee3          	bge	x17,x8,368c <I_bge_cg_cr_rs1_rs2_edges_offset_rs1val_0x80000001_rs2val_0xffffffff>
  # Check if x0 contains the expected result. x15 is the signature ptr, x5 is the link ptr, x4 is a temp reg.
  RVTEST_SIGUPD(x15, x5, x4, x0, I_bge_cg_cr_rs1_rs2_edges_offset_rs1val_0x80000001_rs2val_0xffffffff, I_bge_cg_cr_rs1_rs2_edges_offset_rs1val_0x80000001_rs2val_0xffffffff_str)
    3694:	0007a203          	lw	x4,0(x15)
    3698:	00020863          	beq	x4,x0,36a8 <I_bge_cg_cr_rs1_rs2_edges_offset_rs1val_0x80000001_rs2val_0xffffffff+0x1c>
    369c:	1e1062ef          	jal	x5,a07c <failedtest_x5_x4>
    36a0:	0000368c          	.word	0x0000368c
    36a4:	0000efef          	.word	0x0000efef
    36a8:	00478793          	addi	x15,x15,4
  j 4f # done with test
    36ac:	0280006f          	jal	x0,36d4 <I_bge_cg_cr_rs1_rs2_edges_offset_rs1val_0x80000001_rs2val_0xffffffff+0x48>
2: # goes here during backward branch if taken
  LI(x17, 1)
    36b0:	00100893          	addi	x17,x0,1
  # Check if x17 contains the expected result. x15 is the signature ptr, x5 is the link ptr, x4 is a temp reg.
  RVTEST_SIGUPD(x15, x5, x4, x17, I_bge_cg_cr_rs1_rs2_edges_offset_rs1val_0x80000001_rs2val_0xffffffff, I_bge_cg_cr_rs1_rs2_edges_offset_rs1val_0x80000001_rs2val_0xffffffff_str) # signature 1 for taken
    36b4:	0007a203          	lw	x4,0(x15)
    36b8:	01120863          	beq	x4,x17,36c8 <I_bge_cg_cr_rs1_rs2_edges_offset_rs1val_0x80000001_rs2val_0xffffffff+0x3c>
    36bc:	1c1062ef          	jal	x5,a07c <failedtest_x5_x4>
    36c0:	0000368c          	.word	0x0000368c
    36c4:	0000efef          	.word	0x0000efef
    36c8:	00478793          	addi	x15,x15,4
  j 4f # done with test
    36cc:	0080006f          	jal	x0,36d4 <I_bge_cg_cr_rs1_rs2_edges_offset_rs1val_0x80000001_rs2val_0xffffffff+0x48>
3: # goes here during forward branch if taken
  bge x17, x8, 2b # backward branch, definitely taken
    36d0:	fe88d0e3          	bge	x17,x8,36b0 <I_bge_cg_cr_rs1_rs2_edges_offset_rs1val_0x80000001_rs2val_0xffffffff+0x24>
4: # done with test

# cr_rs1_rs2_edges_offset (Test source rs1 = 0x80000001 rs2 = 0xfffffffe)
  RVTEST_TESTDATA_LOAD_INT(x23, x18) # load rs1: x18 = 0x80000001
    36d4:	000ba903          	lw	x18,0(x23)
    36d8:	004b8b93          	addi	x23,x23,4
  RVTEST_TESTDATA_LOAD_INT(x23, x22) # load rs2: x22 = 0xfffffffe
    36dc:	000bab03          	lw	x22,0(x23)
    36e0:	004b8b93          	addi	x23,x23,4

000036e4 <I_bge_cg_cr_rs1_rs2_edges_offset_rs1val_0x80000001_rs2val_0xfffffffe>:
0: # destination for backwards branch that is never taken
I_bge_cg_cr_rs1_rs2_edges_offset_rs1val_0x80000001_rs2val_0xfffffffe:
  bge x18, x22, 3f # forward branch, if taken
    36e4:	05695263          	bge	x18,x22,3728 <I_bge_cg_cr_rs1_rs2_edges_offset_rs1val_0x80000001_rs2val_0xfffffffe+0x44>
1: # goes here if not taken
  bge x18, x22, 0b # backward branch, never taken
    36e8:	ff695ee3          	bge	x18,x22,36e4 <I_bge_cg_cr_rs1_rs2_edges_offset_rs1val_0x80000001_rs2val_0xfffffffe>
  # Check if x0 contains the expected result. x15 is the signature ptr, x5 is the link ptr, x4 is a temp reg.
  RVTEST_SIGUPD(x15, x5, x4, x0, I_bge_cg_cr_rs1_rs2_edges_offset_rs1val_0x80000001_rs2val_0xfffffffe, I_bge_cg_cr_rs1_rs2_edges_offset_rs1val_0x80000001_rs2val_0xfffffffe_str)
    36ec:	0007a203          	lw	x4,0(x15)
    36f0:	00020863          	beq	x4,x0,3700 <I_bge_cg_cr_rs1_rs2_edges_offset_rs1val_0x80000001_rs2val_0xfffffffe+0x1c>
    36f4:	189062ef          	jal	x5,a07c <failedtest_x5_x4>
    36f8:	000036e4          	.word	0x000036e4
    36fc:	0000f051          	.word	0x0000f051
    3700:	00478793          	addi	x15,x15,4
  j 4f # done with test
    3704:	0280006f          	jal	x0,372c <I_bge_cg_cr_rs1_rs2_edges_offset_rs1val_0x80000001_rs2val_0xfffffffe+0x48>
2: # goes here during backward branch if taken
  LI(x18, 1)
    3708:	00100913          	addi	x18,x0,1
  # Check if x18 contains the expected result. x15 is the signature ptr, x5 is the link ptr, x4 is a temp reg.
  RVTEST_SIGUPD(x15, x5, x4, x18, I_bge_cg_cr_rs1_rs2_edges_offset_rs1val_0x80000001_rs2val_0xfffffffe, I_bge_cg_cr_rs1_rs2_edges_offset_rs1val_0x80000001_rs2val_0xfffffffe_str) # signature 1 for taken
    370c:	0007a203          	lw	x4,0(x15)
    3710:	01220863          	beq	x4,x18,3720 <I_bge_cg_cr_rs1_rs2_edges_offset_rs1val_0x80000001_rs2val_0xfffffffe+0x3c>
    3714:	169062ef          	jal	x5,a07c <failedtest_x5_x4>
    3718:	000036e4          	.word	0x000036e4
    371c:	0000f051          	.word	0x0000f051
    3720:	00478793          	addi	x15,x15,4
  j 4f # done with test
    3724:	0080006f          	jal	x0,372c <I_bge_cg_cr_rs1_rs2_edges_offset_rs1val_0x80000001_rs2val_0xfffffffe+0x48>
3: # goes here during forward branch if taken
  bge x18, x22, 2b # backward branch, definitely taken
    3728:	ff6950e3          	bge	x18,x22,3708 <I_bge_cg_cr_rs1_rs2_edges_offset_rs1val_0x80000001_rs2val_0xfffffffe+0x24>
4: # done with test

# cr_rs1_rs2_edges_offset (Test source rs1 = 0x80000001 rs2 = 0x5bbc8872)
  RVTEST_TESTDATA_LOAD_INT(x23, x29) # load rs1: x29 = 0x80000001
    372c:	000bae83          	lw	x29,0(x23)
    3730:	004b8b93          	addi	x23,x23,4
  RVTEST_TESTDATA_LOAD_INT(x23, x30) # load rs2: x30 = 0x5bbc8872
    3734:	000baf03          	lw	x30,0(x23)
    3738:	004b8b93          	addi	x23,x23,4

0000373c <I_bge_cg_cr_rs1_rs2_edges_offset_rs1val_0x80000001_rs2val_0x5bbc8872>:
0: # destination for backwards branch that is never taken
I_bge_cg_cr_rs1_rs2_edges_offset_rs1val_0x80000001_rs2val_0x5bbc8872:
  bge x29, x30, 3f # forward branch, if taken
    373c:	05eed263          	bge	x29,x30,3780 <I_bge_cg_cr_rs1_rs2_edges_offset_rs1val_0x80000001_rs2val_0x5bbc8872+0x44>
1: # goes here if not taken
  bge x29, x30, 0b # backward branch, never taken
    3740:	ffeedee3          	bge	x29,x30,373c <I_bge_cg_cr_rs1_rs2_edges_offset_rs1val_0x80000001_rs2val_0x5bbc8872>
  # Check if x0 contains the expected result. x15 is the signature ptr, x5 is the link ptr, x4 is a temp reg.
  RVTEST_SIGUPD(x15, x5, x4, x0, I_bge_cg_cr_rs1_rs2_edges_offset_rs1val_0x80000001_rs2val_0x5bbc8872, I_bge_cg_cr_rs1_rs2_edges_offset_rs1val_0x80000001_rs2val_0x5bbc8872_str)
    3744:	0007a203          	lw	x4,0(x15)
    3748:	00020863          	beq	x4,x0,3758 <I_bge_cg_cr_rs1_rs2_edges_offset_rs1val_0x80000001_rs2val_0x5bbc8872+0x1c>
    374c:	131062ef          	jal	x5,a07c <failedtest_x5_x4>
    3750:	0000373c          	.word	0x0000373c
    3754:	0000f0b3          	.word	0x0000f0b3
    3758:	00478793          	addi	x15,x15,4
  j 4f # done with test
    375c:	0280006f          	jal	x0,3784 <I_bge_cg_cr_rs1_rs2_edges_offset_rs1val_0x80000001_rs2val_0x5bbc8872+0x48>
2: # goes here during backward branch if taken
  LI(x29, 1)
    3760:	00100e93          	addi	x29,x0,1
  # Check if x29 contains the expected result. x15 is the signature ptr, x5 is the link ptr, x4 is a temp reg.
  RVTEST_SIGUPD(x15, x5, x4, x29, I_bge_cg_cr_rs1_rs2_edges_offset_rs1val_0x80000001_rs2val_0x5bbc8872, I_bge_cg_cr_rs1_rs2_edges_offset_rs1val_0x80000001_rs2val_0x5bbc8872_str) # signature 1 for taken
    3764:	0007a203          	lw	x4,0(x15)
    3768:	01d20863          	beq	x4,x29,3778 <I_bge_cg_cr_rs1_rs2_edges_offset_rs1val_0x80000001_rs2val_0x5bbc8872+0x3c>
    376c:	111062ef          	jal	x5,a07c <failedtest_x5_x4>
    3770:	0000373c          	.word	0x0000373c
    3774:	0000f0b3          	.word	0x0000f0b3
    3778:	00478793          	addi	x15,x15,4
  j 4f # done with test
    377c:	0080006f          	jal	x0,3784 <I_bge_cg_cr_rs1_rs2_edges_offset_rs1val_0x80000001_rs2val_0x5bbc8872+0x48>
3: # goes here during forward branch if taken
  bge x29, x30, 2b # backward branch, definitely taken
    3780:	ffeed0e3          	bge	x29,x30,3760 <I_bge_cg_cr_rs1_rs2_edges_offset_rs1val_0x80000001_rs2val_0x5bbc8872+0x24>
4: # done with test

# cr_rs1_rs2_edges_offset (Test source rs1 = 0x80000001 rs2 = 0xaaaaaaaa)
  RVTEST_TESTDATA_LOAD_INT(x23, x1) # load rs1: x1 = 0x80000001
    3784:	000ba083          	lw	x1,0(x23)
    3788:	004b8b93          	addi	x23,x23,4
  RVTEST_TESTDATA_LOAD_INT(x23, x20) # load rs2: x20 = 0xaaaaaaaa
    378c:	000baa03          	lw	x20,0(x23)
    3790:	004b8b93          	addi	x23,x23,4

00003794 <I_bge_cg_cr_rs1_rs2_edges_offset_rs1val_0x80000001_rs2val_0xaaaaaaaa>:
0: # destination for backwards branch that is never taken
I_bge_cg_cr_rs1_rs2_edges_offset_rs1val_0x80000001_rs2val_0xaaaaaaaa:
  bge x1, x20, 3f # forward branch, if taken
    3794:	0540d263          	bge	x1,x20,37d8 <I_bge_cg_cr_rs1_rs2_edges_offset_rs1val_0x80000001_rs2val_0xaaaaaaaa+0x44>
1: # goes here if not taken
  bge x1, x20, 0b # backward branch, never taken
    3798:	ff40dee3          	bge	x1,x20,3794 <I_bge_cg_cr_rs1_rs2_edges_offset_rs1val_0x80000001_rs2val_0xaaaaaaaa>
  # Check if x0 contains the expected result. x15 is the signature ptr, x5 is the link ptr, x4 is a temp reg.
  RVTEST_SIGUPD(x15, x5, x4, x0, I_bge_cg_cr_rs1_rs2_edges_offset_rs1val_0x80000001_rs2val_0xaaaaaaaa, I_bge_cg_cr_rs1_rs2_edges_offset_rs1val_0x80000001_rs2val_0xaaaaaaaa_str)
    379c:	0007a203          	lw	x4,0(x15)
    37a0:	00020863          	beq	x4,x0,37b0 <I_bge_cg_cr_rs1_rs2_edges_offset_rs1val_0x80000001_rs2val_0xaaaaaaaa+0x1c>
    37a4:	0d9062ef          	jal	x5,a07c <failedtest_x5_x4>
    37a8:	00003794          	.word	0x00003794
    37ac:	0000f115          	.word	0x0000f115
    37b0:	00478793          	addi	x15,x15,4
  j 4f # done with test
    37b4:	0280006f          	jal	x0,37dc <I_bge_cg_cr_rs1_rs2_edges_offset_rs1val_0x80000001_rs2val_0xaaaaaaaa+0x48>
2: # goes here during backward branch if taken
  LI(x1, 1)
    37b8:	00100093          	addi	x1,x0,1
  # Check if x1 contains the expected result. x15 is the signature ptr, x5 is the link ptr, x4 is a temp reg.
  RVTEST_SIGUPD(x15, x5, x4, x1, I_bge_cg_cr_rs1_rs2_edges_offset_rs1val_0x80000001_rs2val_0xaaaaaaaa, I_bge_cg_cr_rs1_rs2_edges_offset_rs1val_0x80000001_rs2val_0xaaaaaaaa_str) # signature 1 for taken
    37bc:	0007a203          	lw	x4,0(x15)
    37c0:	00120863          	beq	x4,x1,37d0 <I_bge_cg_cr_rs1_rs2_edges_offset_rs1val_0x80000001_rs2val_0xaaaaaaaa+0x3c>
    37c4:	0b9062ef          	jal	x5,a07c <failedtest_x5_x4>
    37c8:	00003794          	.word	0x00003794
    37cc:	0000f115          	.word	0x0000f115
    37d0:	00478793          	addi	x15,x15,4
  j 4f # done with test
    37d4:	0080006f          	jal	x0,37dc <I_bge_cg_cr_rs1_rs2_edges_offset_rs1val_0x80000001_rs2val_0xaaaaaaaa+0x48>
3: # goes here during forward branch if taken
  bge x1, x20, 2b # backward branch, definitely taken
    37d8:	ff40d0e3          	bge	x1,x20,37b8 <I_bge_cg_cr_rs1_rs2_edges_offset_rs1val_0x80000001_rs2val_0xaaaaaaaa+0x24>
4: # done with test

# cr_rs1_rs2_edges_offset (Test source rs1 = 0x80000001 rs2 = 0x55555555)
  RVTEST_TESTDATA_LOAD_INT(x23, x9) # load rs1: x9 = 0x80000001
    37dc:	000ba483          	lw	x9,0(x23)
    37e0:	004b8b93          	addi	x23,x23,4
  RVTEST_TESTDATA_LOAD_INT(x23, x11) # load rs2: x11 = 0x55555555
    37e4:	000ba583          	lw	x11,0(x23)
    37e8:	004b8b93          	addi	x23,x23,4

000037ec <I_bge_cg_cr_rs1_rs2_edges_offset_rs1val_0x80000001_rs2val_0x55555555>:
0: # destination for backwards branch that is never taken
I_bge_cg_cr_rs1_rs2_edges_offset_rs1val_0x80000001_rs2val_0x55555555:
  bge x9, x11, 3f # forward branch, if taken
    37ec:	04b4d263          	bge	x9,x11,3830 <I_bge_cg_cr_rs1_rs2_edges_offset_rs1val_0x80000001_rs2val_0x55555555+0x44>
1: # goes here if not taken
  bge x9, x11, 0b # backward branch, never taken
    37f0:	feb4dee3          	bge	x9,x11,37ec <I_bge_cg_cr_rs1_rs2_edges_offset_rs1val_0x80000001_rs2val_0x55555555>
  # Check if x0 contains the expected result. x15 is the signature ptr, x5 is the link ptr, x4 is a temp reg.
  RVTEST_SIGUPD(x15, x5, x4, x0, I_bge_cg_cr_rs1_rs2_edges_offset_rs1val_0x80000001_rs2val_0x55555555, I_bge_cg_cr_rs1_rs2_edges_offset_rs1val_0x80000001_rs2val_0x55555555_str)
    37f4:	0007a203          	lw	x4,0(x15)
    37f8:	00020863          	beq	x4,x0,3808 <I_bge_cg_cr_rs1_rs2_edges_offset_rs1val_0x80000001_rs2val_0x55555555+0x1c>
    37fc:	081062ef          	jal	x5,a07c <failedtest_x5_x4>
    3800:	000037ec          	.word	0x000037ec
    3804:	0000f177          	.word	0x0000f177
    3808:	00478793          	addi	x15,x15,4
  j 4f # done with test
    380c:	0280006f          	jal	x0,3834 <I_bge_cg_cr_rs1_rs2_edges_offset_rs1val_0x80000001_rs2val_0x55555555+0x48>
2: # goes here during backward branch if taken
  LI(x9, 1)
    3810:	00100493          	addi	x9,x0,1
  # Check if x9 contains the expected result. x15 is the signature ptr, x5 is the link ptr, x4 is a temp reg.
  RVTEST_SIGUPD(x15, x5, x4, x9, I_bge_cg_cr_rs1_rs2_edges_offset_rs1val_0x80000001_rs2val_0x55555555, I_bge_cg_cr_rs1_rs2_edges_offset_rs1val_0x80000001_rs2val_0x55555555_str) # signature 1 for taken
    3814:	0007a203          	lw	x4,0(x15)
    3818:	00920863          	beq	x4,x9,3828 <I_bge_cg_cr_rs1_rs2_edges_offset_rs1val_0x80000001_rs2val_0x55555555+0x3c>
    381c:	061062ef          	jal	x5,a07c <failedtest_x5_x4>
    3820:	000037ec          	.word	0x000037ec
    3824:	0000f177          	.word	0x0000f177
    3828:	00478793          	addi	x15,x15,4
  j 4f # done with test
    382c:	0080006f          	jal	x0,3834 <I_bge_cg_cr_rs1_rs2_edges_offset_rs1val_0x80000001_rs2val_0x55555555+0x48>
3: # goes here during forward branch if taken
  bge x9, x11, 2b # backward branch, definitely taken
    3830:	feb4d0e3          	bge	x9,x11,3810 <I_bge_cg_cr_rs1_rs2_edges_offset_rs1val_0x80000001_rs2val_0x55555555+0x24>
4: # done with test

# cr_rs1_rs2_edges_offset (Test source rs1 = 0x7fffffff rs2 = 0x00000000)
  RVTEST_TESTDATA_LOAD_INT(x23, x3) # load rs1: x3 = 0x7fffffff
    3834:	000ba183          	lw	x3,0(x23)
    3838:	004b8b93          	addi	x23,x23,4
  RVTEST_TESTDATA_LOAD_INT(x23, x11) # load rs2: x11 = 0x00000000
    383c:	000ba583          	lw	x11,0(x23)
    3840:	004b8b93          	addi	x23,x23,4

00003844 <I_bge_cg_cr_rs1_rs2_edges_offset_rs1val_0x7fffffff_rs2val_0x0>:
0: # destination for backwards branch that is never taken
I_bge_cg_cr_rs1_rs2_edges_offset_rs1val_0x7fffffff_rs2val_0x0:
  bge x3, x11, 3f # forward branch, if taken
    3844:	04b1d263          	bge	x3,x11,3888 <I_bge_cg_cr_rs1_rs2_edges_offset_rs1val_0x7fffffff_rs2val_0x0+0x44>
1: # goes here if not taken
  bge x3, x11, 0b # backward branch, never taken
    3848:	feb1dee3          	bge	x3,x11,3844 <I_bge_cg_cr_rs1_rs2_edges_offset_rs1val_0x7fffffff_rs2val_0x0>
  # Check if x0 contains the expected result. x15 is the signature ptr, x5 is the link ptr, x4 is a temp reg.
  RVTEST_SIGUPD(x15, x5, x4, x0, I_bge_cg_cr_rs1_rs2_edges_offset_rs1val_0x7fffffff_rs2val_0x0, I_bge_cg_cr_rs1_rs2_edges_offset_rs1val_0x7fffffff_rs2val_0x0_str)
    384c:	0007a203          	lw	x4,0(x15)
    3850:	00020863          	beq	x4,x0,3860 <I_bge_cg_cr_rs1_rs2_edges_offset_rs1val_0x7fffffff_rs2val_0x0+0x1c>
    3854:	029062ef          	jal	x5,a07c <failedtest_x5_x4>
    3858:	00003844          	.word	0x00003844
    385c:	0000f1d9          	.word	0x0000f1d9
    3860:	00478793          	addi	x15,x15,4
  j 4f # done with test
    3864:	0280006f          	jal	x0,388c <I_bge_cg_cr_rs1_rs2_edges_offset_rs1val_0x7fffffff_rs2val_0x0+0x48>
2: # goes here during backward branch if taken
  LI(x3, 1)
    3868:	00100193          	addi	x3,x0,1
  # Check if x3 contains the expected result. x15 is the signature ptr, x5 is the link ptr, x4 is a temp reg.
  RVTEST_SIGUPD(x15, x5, x4, x3, I_bge_cg_cr_rs1_rs2_edges_offset_rs1val_0x7fffffff_rs2val_0x0, I_bge_cg_cr_rs1_rs2_edges_offset_rs1val_0x7fffffff_rs2val_0x0_str) # signature 1 for taken
    386c:	0007a203          	lw	x4,0(x15)
    3870:	00320863          	beq	x4,x3,3880 <I_bge_cg_cr_rs1_rs2_edges_offset_rs1val_0x7fffffff_rs2val_0x0+0x3c>
    3874:	009062ef          	jal	x5,a07c <failedtest_x5_x4>
    3878:	00003844          	.word	0x00003844
    387c:	0000f1d9          	.word	0x0000f1d9
    3880:	00478793          	addi	x15,x15,4
  j 4f # done with test
    3884:	0080006f          	jal	x0,388c <I_bge_cg_cr_rs1_rs2_edges_offset_rs1val_0x7fffffff_rs2val_0x0+0x48>
3: # goes here during forward branch if taken
  bge x3, x11, 2b # backward branch, definitely taken
    3888:	feb1d0e3          	bge	x3,x11,3868 <I_bge_cg_cr_rs1_rs2_edges_offset_rs1val_0x7fffffff_rs2val_0x0+0x24>
4: # done with test

# cr_rs1_rs2_edges_offset (Test source rs1 = 0x7fffffff rs2 = 0x00000001)
  RVTEST_TESTDATA_LOAD_INT(x23, x31) # load rs1: x31 = 0x7fffffff
    388c:	000baf83          	lw	x31,0(x23)
    3890:	004b8b93          	addi	x23,x23,4
  RVTEST_TESTDATA_LOAD_INT(x23, x2) # load rs2: x2 = 0x00000001
    3894:	000ba103          	lw	x2,0(x23)
    3898:	004b8b93          	addi	x23,x23,4

0000389c <I_bge_cg_cr_rs1_rs2_edges_offset_rs1val_0x7fffffff_rs2val_0x1>:
0: # destination for backwards branch that is never taken
I_bge_cg_cr_rs1_rs2_edges_offset_rs1val_0x7fffffff_rs2val_0x1:
  bge x31, x2, 3f # forward branch, if taken
    389c:	042fd263          	bge	x31,x2,38e0 <I_bge_cg_cr_rs1_rs2_edges_offset_rs1val_0x7fffffff_rs2val_0x1+0x44>
1: # goes here if not taken
  bge x31, x2, 0b # backward branch, never taken
    38a0:	fe2fdee3          	bge	x31,x2,389c <I_bge_cg_cr_rs1_rs2_edges_offset_rs1val_0x7fffffff_rs2val_0x1>
  # Check if x0 contains the expected result. x15 is the signature ptr, x5 is the link ptr, x4 is a temp reg.
  RVTEST_SIGUPD(x15, x5, x4, x0, I_bge_cg_cr_rs1_rs2_edges_offset_rs1val_0x7fffffff_rs2val_0x1, I_bge_cg_cr_rs1_rs2_edges_offset_rs1val_0x7fffffff_rs2val_0x1_str)
    38a4:	0007a203          	lw	x4,0(x15)
    38a8:	00020863          	beq	x4,x0,38b8 <I_bge_cg_cr_rs1_rs2_edges_offset_rs1val_0x7fffffff_rs2val_0x1+0x1c>
    38ac:	7d0062ef          	jal	x5,a07c <failedtest_x5_x4>
    38b0:	0000389c          	.word	0x0000389c
    38b4:	0000f234          	.word	0x0000f234
    38b8:	00478793          	addi	x15,x15,4
  j 4f # done with test
    38bc:	0280006f          	jal	x0,38e4 <I_bge_cg_cr_rs1_rs2_edges_offset_rs1val_0x7fffffff_rs2val_0x1+0x48>
2: # goes here during backward branch if taken
  LI(x31, 1)
    38c0:	00100f93          	addi	x31,x0,1
  # Check if x31 contains the expected result. x15 is the signature ptr, x5 is the link ptr, x4 is a temp reg.
  RVTEST_SIGUPD(x15, x5, x4, x31, I_bge_cg_cr_rs1_rs2_edges_offset_rs1val_0x7fffffff_rs2val_0x1, I_bge_cg_cr_rs1_rs2_edges_offset_rs1val_0x7fffffff_rs2val_0x1_str) # signature 1 for taken
    38c4:	0007a203          	lw	x4,0(x15)
    38c8:	01f20863          	beq	x4,x31,38d8 <I_bge_cg_cr_rs1_rs2_edges_offset_rs1val_0x7fffffff_rs2val_0x1+0x3c>
    38cc:	7b0062ef          	jal	x5,a07c <failedtest_x5_x4>
    38d0:	0000389c          	.word	0x0000389c
    38d4:	0000f234          	.word	0x0000f234
    38d8:	00478793          	addi	x15,x15,4
  j 4f # done with test
    38dc:	0080006f          	jal	x0,38e4 <I_bge_cg_cr_rs1_rs2_edges_offset_rs1val_0x7fffffff_rs2val_0x1+0x48>
3: # goes here during forward branch if taken
  bge x31, x2, 2b # backward branch, definitely taken
    38e0:	fe2fd0e3          	bge	x31,x2,38c0 <I_bge_cg_cr_rs1_rs2_edges_offset_rs1val_0x7fffffff_rs2val_0x1+0x24>
4: # done with test

# cr_rs1_rs2_edges_offset (Test source rs1 = 0x7fffffff rs2 = 0x00000002)
  RVTEST_TESTDATA_LOAD_INT(x23, x20) # load rs1: x20 = 0x7fffffff
    38e4:	000baa03          	lw	x20,0(x23)
    38e8:	004b8b93          	addi	x23,x23,4
  RVTEST_TESTDATA_LOAD_INT(x23, x16) # load rs2: x16 = 0x00000002
    38ec:	000ba803          	lw	x16,0(x23)
    38f0:	004b8b93          	addi	x23,x23,4

000038f4 <I_bge_cg_cr_rs1_rs2_edges_offset_rs1val_0x7fffffff_rs2val_0x2>:
0: # destination for backwards branch that is never taken
I_bge_cg_cr_rs1_rs2_edges_offset_rs1val_0x7fffffff_rs2val_0x2:
  bge x20, x16, 3f # forward branch, if taken
    38f4:	050a5263          	bge	x20,x16,3938 <I_bge_cg_cr_rs1_rs2_edges_offset_rs1val_0x7fffffff_rs2val_0x2+0x44>
1: # goes here if not taken
  bge x20, x16, 0b # backward branch, never taken
    38f8:	ff0a5ee3          	bge	x20,x16,38f4 <I_bge_cg_cr_rs1_rs2_edges_offset_rs1val_0x7fffffff_rs2val_0x2>
  # Check if x0 contains the expected result. x15 is the signature ptr, x5 is the link ptr, x4 is a temp reg.
  RVTEST_SIGUPD(x15, x5, x4, x0, I_bge_cg_cr_rs1_rs2_edges_offset_rs1val_0x7fffffff_rs2val_0x2, I_bge_cg_cr_rs1_rs2_edges_offset_rs1val_0x7fffffff_rs2val_0x2_str)
    38fc:	0007a203          	lw	x4,0(x15)
    3900:	00020863          	beq	x4,x0,3910 <I_bge_cg_cr_rs1_rs2_edges_offset_rs1val_0x7fffffff_rs2val_0x2+0x1c>
    3904:	778062ef          	jal	x5,a07c <failedtest_x5_x4>
    3908:	000038f4          	.word	0x000038f4
    390c:	0000f28f          	.word	0x0000f28f
    3910:	00478793          	addi	x15,x15,4
  j 4f # done with test
    3914:	0280006f          	jal	x0,393c <I_bge_cg_cr_rs1_rs2_edges_offset_rs1val_0x7fffffff_rs2val_0x2+0x48>
2: # goes here during backward branch if taken
  LI(x20, 1)
    3918:	00100a13          	addi	x20,x0,1
  # Check if x20 contains the expected result. x15 is the signature ptr, x5 is the link ptr, x4 is a temp reg.
  RVTEST_SIGUPD(x15, x5, x4, x20, I_bge_cg_cr_rs1_rs2_edges_offset_rs1val_0x7fffffff_rs2val_0x2, I_bge_cg_cr_rs1_rs2_edges_offset_rs1val_0x7fffffff_rs2val_0x2_str) # signature 1 for taken
    391c:	0007a203          	lw	x4,0(x15)
    3920:	01420863          	beq	x4,x20,3930 <I_bge_cg_cr_rs1_rs2_edges_offset_rs1val_0x7fffffff_rs2val_0x2+0x3c>
    3924:	758062ef          	jal	x5,a07c <failedtest_x5_x4>
    3928:	000038f4          	.word	0x000038f4
    392c:	0000f28f          	.word	0x0000f28f
    3930:	00478793          	addi	x15,x15,4
  j 4f # done with test
    3934:	0080006f          	jal	x0,393c <I_bge_cg_cr_rs1_rs2_edges_offset_rs1val_0x7fffffff_rs2val_0x2+0x48>
3: # goes here during forward branch if taken
  bge x20, x16, 2b # backward branch, definitely taken
    3938:	ff0a50e3          	bge	x20,x16,3918 <I_bge_cg_cr_rs1_rs2_edges_offset_rs1val_0x7fffffff_rs2val_0x2+0x24>
4: # done with test

# cr_rs1_rs2_edges_offset (Test source rs1 = 0x7fffffff rs2 = 0x80000000)
  RVTEST_TESTDATA_LOAD_INT(x23, x1) # load rs1: x1 = 0x7fffffff
    393c:	000ba083          	lw	x1,0(x23)
    3940:	004b8b93          	addi	x23,x23,4
  RVTEST_TESTDATA_LOAD_INT(x23, x13) # load rs2: x13 = 0x80000000
    3944:	000ba683          	lw	x13,0(x23)
    3948:	004b8b93          	addi	x23,x23,4

0000394c <I_bge_cg_cr_rs1_rs2_edges_offset_rs1val_0x7fffffff_rs2val_0x80000000>:
0: # destination for backwards branch that is never taken
I_bge_cg_cr_rs1_rs2_edges_offset_rs1val_0x7fffffff_rs2val_0x80000000:
  bge x1, x13, 3f # forward branch, if taken
    394c:	04d0d263          	bge	x1,x13,3990 <I_bge_cg_cr_rs1_rs2_edges_offset_rs1val_0x7fffffff_rs2val_0x80000000+0x44>
1: # goes here if not taken
  bge x1, x13, 0b # backward branch, never taken
    3950:	fed0dee3          	bge	x1,x13,394c <I_bge_cg_cr_rs1_rs2_edges_offset_rs1val_0x7fffffff_rs2val_0x80000000>
  # Check if x0 contains the expected result. x15 is the signature ptr, x5 is the link ptr, x4 is a temp reg.
  RVTEST_SIGUPD(x15, x5, x4, x0, I_bge_cg_cr_rs1_rs2_edges_offset_rs1val_0x7fffffff_rs2val_0x80000000, I_bge_cg_cr_rs1_rs2_edges_offset_rs1val_0x7fffffff_rs2val_0x80000000_str)
    3954:	0007a203          	lw	x4,0(x15)
    3958:	00020863          	beq	x4,x0,3968 <I_bge_cg_cr_rs1_rs2_edges_offset_rs1val_0x7fffffff_rs2val_0x80000000+0x1c>
    395c:	720062ef          	jal	x5,a07c <failedtest_x5_x4>
    3960:	0000394c          	.word	0x0000394c
    3964:	0000f2ea          	.word	0x0000f2ea
    3968:	00478793          	addi	x15,x15,4
  j 4f # done with test
    396c:	0280006f          	jal	x0,3994 <I_bge_cg_cr_rs1_rs2_edges_offset_rs1val_0x7fffffff_rs2val_0x80000000+0x48>
2: # goes here during backward branch if taken
  LI(x1, 1)
    3970:	00100093          	addi	x1,x0,1
  # Check if x1 contains the expected result. x15 is the signature ptr, x5 is the link ptr, x4 is a temp reg.
  RVTEST_SIGUPD(x15, x5, x4, x1, I_bge_cg_cr_rs1_rs2_edges_offset_rs1val_0x7fffffff_rs2val_0x80000000, I_bge_cg_cr_rs1_rs2_edges_offset_rs1val_0x7fffffff_rs2val_0x80000000_str) # signature 1 for taken
    3974:	0007a203          	lw	x4,0(x15)
    3978:	00120863          	beq	x4,x1,3988 <I_bge_cg_cr_rs1_rs2_edges_offset_rs1val_0x7fffffff_rs2val_0x80000000+0x3c>
    397c:	700062ef          	jal	x5,a07c <failedtest_x5_x4>
    3980:	0000394c          	.word	0x0000394c
    3984:	0000f2ea          	.word	0x0000f2ea
    3988:	00478793          	addi	x15,x15,4
  j 4f # done with test
    398c:	0080006f          	jal	x0,3994 <I_bge_cg_cr_rs1_rs2_edges_offset_rs1val_0x7fffffff_rs2val_0x80000000+0x48>
3: # goes here during forward branch if taken
  bge x1, x13, 2b # backward branch, definitely taken
    3990:	fed0d0e3          	bge	x1,x13,3970 <I_bge_cg_cr_rs1_rs2_edges_offset_rs1val_0x7fffffff_rs2val_0x80000000+0x24>
4: # done with test

# cr_rs1_rs2_edges_offset (Test source rs1 = 0x7fffffff rs2 = 0x80000001)
  RVTEST_TESTDATA_LOAD_INT(x23, x3) # load rs1: x3 = 0x7fffffff
    3994:	000ba183          	lw	x3,0(x23)
    3998:	004b8b93          	addi	x23,x23,4
  RVTEST_TESTDATA_LOAD_INT(x23, x27) # load rs2: x27 = 0x80000001
    399c:	000bad83          	lw	x27,0(x23)
    39a0:	004b8b93          	addi	x23,x23,4

000039a4 <I_bge_cg_cr_rs1_rs2_edges_offset_rs1val_0x7fffffff_rs2val_0x80000001>:
0: # destination for backwards branch that is never taken
I_bge_cg_cr_rs1_rs2_edges_offset_rs1val_0x7fffffff_rs2val_0x80000001:
  bge x3, x27, 3f # forward branch, if taken
    39a4:	05b1d263          	bge	x3,x27,39e8 <I_bge_cg_cr_rs1_rs2_edges_offset_rs1val_0x7fffffff_rs2val_0x80000001+0x44>
1: # goes here if not taken
  bge x3, x27, 0b # backward branch, never taken
    39a8:	ffb1dee3          	bge	x3,x27,39a4 <I_bge_cg_cr_rs1_rs2_edges_offset_rs1val_0x7fffffff_rs2val_0x80000001>
  # Check if x0 contains the expected result. x15 is the signature ptr, x5 is the link ptr, x4 is a temp reg.
  RVTEST_SIGUPD(x15, x5, x4, x0, I_bge_cg_cr_rs1_rs2_edges_offset_rs1val_0x7fffffff_rs2val_0x80000001, I_bge_cg_cr_rs1_rs2_edges_offset_rs1val_0x7fffffff_rs2val_0x80000001_str)
    39ac:	0007a203          	lw	x4,0(x15)
    39b0:	00020863          	beq	x4,x0,39c0 <I_bge_cg_cr_rs1_rs2_edges_offset_rs1val_0x7fffffff_rs2val_0x80000001+0x1c>
    39b4:	6c8062ef          	jal	x5,a07c <failedtest_x5_x4>
    39b8:	000039a4          	.word	0x000039a4
    39bc:	0000f34c          	.word	0x0000f34c
    39c0:	00478793          	addi	x15,x15,4
  j 4f # done with test
    39c4:	0280006f          	jal	x0,39ec <I_bge_cg_cr_rs1_rs2_edges_offset_rs1val_0x7fffffff_rs2val_0x80000001+0x48>
2: # goes here during backward branch if taken
  LI(x3, 1)
    39c8:	00100193          	addi	x3,x0,1
  # Check if x3 contains the expected result. x15 is the signature ptr, x5 is the link ptr, x4 is a temp reg.
  RVTEST_SIGUPD(x15, x5, x4, x3, I_bge_cg_cr_rs1_rs2_edges_offset_rs1val_0x7fffffff_rs2val_0x80000001, I_bge_cg_cr_rs1_rs2_edges_offset_rs1val_0x7fffffff_rs2val_0x80000001_str) # signature 1 for taken
    39cc:	0007a203          	lw	x4,0(x15)
    39d0:	00320863          	beq	x4,x3,39e0 <I_bge_cg_cr_rs1_rs2_edges_offset_rs1val_0x7fffffff_rs2val_0x80000001+0x3c>
    39d4:	6a8062ef          	jal	x5,a07c <failedtest_x5_x4>
    39d8:	000039a4          	.word	0x000039a4
    39dc:	0000f34c          	.word	0x0000f34c
    39e0:	00478793          	addi	x15,x15,4
  j 4f # done with test
    39e4:	0080006f          	jal	x0,39ec <I_bge_cg_cr_rs1_rs2_edges_offset_rs1val_0x7fffffff_rs2val_0x80000001+0x48>
3: # goes here during forward branch if taken
  bge x3, x27, 2b # backward branch, definitely taken
    39e8:	ffb1d0e3          	bge	x3,x27,39c8 <I_bge_cg_cr_rs1_rs2_edges_offset_rs1val_0x7fffffff_rs2val_0x80000001+0x24>
4: # done with test

# cr_rs1_rs2_edges_offset (Test source rs1 = 0x7fffffff rs2 = 0x7fffffff)
  RVTEST_TESTDATA_LOAD_INT(x23, x14) # load rs1: x14 = 0x7fffffff
    39ec:	000ba703          	lw	x14,0(x23)
    39f0:	004b8b93          	addi	x23,x23,4
  RVTEST_TESTDATA_LOAD_INT(x23, x19) # load rs2: x19 = 0x7fffffff
    39f4:	000ba983          	lw	x19,0(x23)
    39f8:	004b8b93          	addi	x23,x23,4

000039fc <I_bge_cg_cr_rs1_rs2_edges_offset_rs1val_0x7fffffff_rs2val_0x7fffffff>:
0: # destination for backwards branch that is never taken
I_bge_cg_cr_rs1_rs2_edges_offset_rs1val_0x7fffffff_rs2val_0x7fffffff:
  bge x14, x19, 3f # forward branch, if taken
    39fc:	05375263          	bge	x14,x19,3a40 <I_bge_cg_cr_rs1_rs2_edges_offset_rs1val_0x7fffffff_rs2val_0x7fffffff+0x44>
1: # goes here if not taken
  bge x14, x19, 0b # backward branch, never taken
    3a00:	ff375ee3          	bge	x14,x19,39fc <I_bge_cg_cr_rs1_rs2_edges_offset_rs1val_0x7fffffff_rs2val_0x7fffffff>
  # Check if x0 contains the expected result. x15 is the signature ptr, x5 is the link ptr, x4 is a temp reg.
  RVTEST_SIGUPD(x15, x5, x4, x0, I_bge_cg_cr_rs1_rs2_edges_offset_rs1val_0x7fffffff_rs2val_0x7fffffff, I_bge_cg_cr_rs1_rs2_edges_offset_rs1val_0x7fffffff_rs2val_0x7fffffff_str)
    3a04:	0007a203          	lw	x4,0(x15)
    3a08:	00020863          	beq	x4,x0,3a18 <I_bge_cg_cr_rs1_rs2_edges_offset_rs1val_0x7fffffff_rs2val_0x7fffffff+0x1c>
    3a0c:	670062ef          	jal	x5,a07c <failedtest_x5_x4>
    3a10:	000039fc          	.word	0x000039fc
    3a14:	0000f3ae          	.word	0x0000f3ae
    3a18:	00478793          	addi	x15,x15,4
  j 4f # done with test
    3a1c:	0280006f          	jal	x0,3a44 <I_bge_cg_cr_rs1_rs2_edges_offset_rs1val_0x7fffffff_rs2val_0x7fffffff+0x48>
2: # goes here during backward branch if taken
  LI(x14, 1)
    3a20:	00100713          	addi	x14,x0,1
  # Check if x14 contains the expected result. x15 is the signature ptr, x5 is the link ptr, x4 is a temp reg.
  RVTEST_SIGUPD(x15, x5, x4, x14, I_bge_cg_cr_rs1_rs2_edges_offset_rs1val_0x7fffffff_rs2val_0x7fffffff, I_bge_cg_cr_rs1_rs2_edges_offset_rs1val_0x7fffffff_rs2val_0x7fffffff_str) # signature 1 for taken
    3a24:	0007a203          	lw	x4,0(x15)
    3a28:	00e20863          	beq	x4,x14,3a38 <I_bge_cg_cr_rs1_rs2_edges_offset_rs1val_0x7fffffff_rs2val_0x7fffffff+0x3c>
    3a2c:	650062ef          	jal	x5,a07c <failedtest_x5_x4>
    3a30:	000039fc          	.word	0x000039fc
    3a34:	0000f3ae          	.word	0x0000f3ae
    3a38:	00478793          	addi	x15,x15,4
  j 4f # done with test
    3a3c:	0080006f          	jal	x0,3a44 <I_bge_cg_cr_rs1_rs2_edges_offset_rs1val_0x7fffffff_rs2val_0x7fffffff+0x48>
3: # goes here during forward branch if taken
  bge x14, x19, 2b # backward branch, definitely taken
    3a40:	ff3750e3          	bge	x14,x19,3a20 <I_bge_cg_cr_rs1_rs2_edges_offset_rs1val_0x7fffffff_rs2val_0x7fffffff+0x24>
4: # done with test

# cr_rs1_rs2_edges_offset (Test source rs1 = 0x7fffffff rs2 = 0x7ffffffe)
  RVTEST_TESTDATA_LOAD_INT(x23, x25) # load rs1: x25 = 0x7fffffff
    3a44:	000bac83          	lw	x25,0(x23)
    3a48:	004b8b93          	addi	x23,x23,4
  RVTEST_TESTDATA_LOAD_INT(x23, x26) # load rs2: x26 = 0x7ffffffe
    3a4c:	000bad03          	lw	x26,0(x23)
    3a50:	004b8b93          	addi	x23,x23,4

00003a54 <I_bge_cg_cr_rs1_rs2_edges_offset_rs1val_0x7fffffff_rs2val_0x7ffffffe>:
0: # destination for backwards branch that is never taken
I_bge_cg_cr_rs1_rs2_edges_offset_rs1val_0x7fffffff_rs2val_0x7ffffffe:
  bge x25, x26, 3f # forward branch, if taken
    3a54:	05acd263          	bge	x25,x26,3a98 <I_bge_cg_cr_rs1_rs2_edges_offset_rs1val_0x7fffffff_rs2val_0x7ffffffe+0x44>
1: # goes here if not taken
  bge x25, x26, 0b # backward branch, never taken
    3a58:	ffacdee3          	bge	x25,x26,3a54 <I_bge_cg_cr_rs1_rs2_edges_offset_rs1val_0x7fffffff_rs2val_0x7ffffffe>
  # Check if x0 contains the expected result. x15 is the signature ptr, x5 is the link ptr, x4 is a temp reg.
  RVTEST_SIGUPD(x15, x5, x4, x0, I_bge_cg_cr_rs1_rs2_edges_offset_rs1val_0x7fffffff_rs2val_0x7ffffffe, I_bge_cg_cr_rs1_rs2_edges_offset_rs1val_0x7fffffff_rs2val_0x7ffffffe_str)
    3a5c:	0007a203          	lw	x4,0(x15)
    3a60:	00020863          	beq	x4,x0,3a70 <I_bge_cg_cr_rs1_rs2_edges_offset_rs1val_0x7fffffff_rs2val_0x7ffffffe+0x1c>
    3a64:	618062ef          	jal	x5,a07c <failedtest_x5_x4>
    3a68:	00003a54          	.word	0x00003a54
    3a6c:	0000f410          	.word	0x0000f410
    3a70:	00478793          	addi	x15,x15,4
  j 4f # done with test
    3a74:	0280006f          	jal	x0,3a9c <I_bge_cg_cr_rs1_rs2_edges_offset_rs1val_0x7fffffff_rs2val_0x7ffffffe+0x48>
2: # goes here during backward branch if taken
  LI(x25, 1)
    3a78:	00100c93          	addi	x25,x0,1
  # Check if x25 contains the expected result. x15 is the signature ptr, x5 is the link ptr, x4 is a temp reg.
  RVTEST_SIGUPD(x15, x5, x4, x25, I_bge_cg_cr_rs1_rs2_edges_offset_rs1val_0x7fffffff_rs2val_0x7ffffffe, I_bge_cg_cr_rs1_rs2_edges_offset_rs1val_0x7fffffff_rs2val_0x7ffffffe_str) # signature 1 for taken
    3a7c:	0007a203          	lw	x4,0(x15)
    3a80:	01920863          	beq	x4,x25,3a90 <I_bge_cg_cr_rs1_rs2_edges_offset_rs1val_0x7fffffff_rs2val_0x7ffffffe+0x3c>
    3a84:	5f8062ef          	jal	x5,a07c <failedtest_x5_x4>
    3a88:	00003a54          	.word	0x00003a54
    3a8c:	0000f410          	.word	0x0000f410
    3a90:	00478793          	addi	x15,x15,4
  j 4f # done with test
    3a94:	0080006f          	jal	x0,3a9c <I_bge_cg_cr_rs1_rs2_edges_offset_rs1val_0x7fffffff_rs2val_0x7ffffffe+0x48>
3: # goes here during forward branch if taken
  bge x25, x26, 2b # backward branch, definitely taken
    3a98:	ffacd0e3          	bge	x25,x26,3a78 <I_bge_cg_cr_rs1_rs2_edges_offset_rs1val_0x7fffffff_rs2val_0x7ffffffe+0x24>
4: # done with test

# cr_rs1_rs2_edges_offset (Test source rs1 = 0x7fffffff rs2 = 0xffffffff)
  RVTEST_TESTDATA_LOAD_INT(x23, x10) # load rs1: x10 = 0x7fffffff
    3a9c:	000ba503          	lw	x10,0(x23)
    3aa0:	004b8b93          	addi	x23,x23,4
  RVTEST_TESTDATA_LOAD_INT(x23, x8) # load rs2: x8 = 0xffffffff
    3aa4:	000ba403          	lw	x8,0(x23)
    3aa8:	004b8b93          	addi	x23,x23,4

00003aac <I_bge_cg_cr_rs1_rs2_edges_offset_rs1val_0x7fffffff_rs2val_0xffffffff>:
0: # destination for backwards branch that is never taken
I_bge_cg_cr_rs1_rs2_edges_offset_rs1val_0x7fffffff_rs2val_0xffffffff:
  bge x10, x8, 3f # forward branch, if taken
    3aac:	04855263          	bge	x10,x8,3af0 <I_bge_cg_cr_rs1_rs2_edges_offset_rs1val_0x7fffffff_rs2val_0xffffffff+0x44>
1: # goes here if not taken
  bge x10, x8, 0b # backward branch, never taken
    3ab0:	fe855ee3          	bge	x10,x8,3aac <I_bge_cg_cr_rs1_rs2_edges_offset_rs1val_0x7fffffff_rs2val_0xffffffff>
  # Check if x0 contains the expected result. x15 is the signature ptr, x5 is the link ptr, x4 is a temp reg.
  RVTEST_SIGUPD(x15, x5, x4, x0, I_bge_cg_cr_rs1_rs2_edges_offset_rs1val_0x7fffffff_rs2val_0xffffffff, I_bge_cg_cr_rs1_rs2_edges_offset_rs1val_0x7fffffff_rs2val_0xffffffff_str)
    3ab4:	0007a203          	lw	x4,0(x15)
    3ab8:	00020863          	beq	x4,x0,3ac8 <I_bge_cg_cr_rs1_rs2_edges_offset_rs1val_0x7fffffff_rs2val_0xffffffff+0x1c>
    3abc:	5c0062ef          	jal	x5,a07c <failedtest_x5_x4>
    3ac0:	00003aac          	.word	0x00003aac
    3ac4:	0000f472          	.word	0x0000f472
    3ac8:	00478793          	addi	x15,x15,4
  j 4f # done with test
    3acc:	0280006f          	jal	x0,3af4 <I_bge_cg_cr_rs1_rs2_edges_offset_rs1val_0x7fffffff_rs2val_0xffffffff+0x48>
2: # goes here during backward branch if taken
  LI(x10, 1)
    3ad0:	00100513          	addi	x10,x0,1
  # Check if x10 contains the expected result. x15 is the signature ptr, x5 is the link ptr, x4 is a temp reg.
  RVTEST_SIGUPD(x15, x5, x4, x10, I_bge_cg_cr_rs1_rs2_edges_offset_rs1val_0x7fffffff_rs2val_0xffffffff, I_bge_cg_cr_rs1_rs2_edges_offset_rs1val_0x7fffffff_rs2val_0xffffffff_str) # signature 1 for taken
    3ad4:	0007a203          	lw	x4,0(x15)
    3ad8:	00a20863          	beq	x4,x10,3ae8 <I_bge_cg_cr_rs1_rs2_edges_offset_rs1val_0x7fffffff_rs2val_0xffffffff+0x3c>
    3adc:	5a0062ef          	jal	x5,a07c <failedtest_x5_x4>
    3ae0:	00003aac          	.word	0x00003aac
    3ae4:	0000f472          	.word	0x0000f472
    3ae8:	00478793          	addi	x15,x15,4
  j 4f # done with test
    3aec:	0080006f          	jal	x0,3af4 <I_bge_cg_cr_rs1_rs2_edges_offset_rs1val_0x7fffffff_rs2val_0xffffffff+0x48>
3: # goes here during forward branch if taken
  bge x10, x8, 2b # backward branch, definitely taken
    3af0:	fe8550e3          	bge	x10,x8,3ad0 <I_bge_cg_cr_rs1_rs2_edges_offset_rs1val_0x7fffffff_rs2val_0xffffffff+0x24>
4: # done with test

# cr_rs1_rs2_edges_offset (Test source rs1 = 0x7fffffff rs2 = 0xfffffffe)
  RVTEST_TESTDATA_LOAD_INT(x23, x19) # load rs1: x19 = 0x7fffffff
    3af4:	000ba983          	lw	x19,0(x23)
    3af8:	004b8b93          	addi	x23,x23,4
  RVTEST_TESTDATA_LOAD_INT(x23, x7) # load rs2: x7 = 0xfffffffe
    3afc:	000ba383          	lw	x7,0(x23)
    3b00:	004b8b93          	addi	x23,x23,4

00003b04 <I_bge_cg_cr_rs1_rs2_edges_offset_rs1val_0x7fffffff_rs2val_0xfffffffe>:
0: # destination for backwards branch that is never taken
I_bge_cg_cr_rs1_rs2_edges_offset_rs1val_0x7fffffff_rs2val_0xfffffffe:
  bge x19, x7, 3f # forward branch, if taken
    3b04:	0479d263          	bge	x19,x7,3b48 <I_bge_cg_cr_rs1_rs2_edges_offset_rs1val_0x7fffffff_rs2val_0xfffffffe+0x44>
1: # goes here if not taken
  bge x19, x7, 0b # backward branch, never taken
    3b08:	fe79dee3          	bge	x19,x7,3b04 <I_bge_cg_cr_rs1_rs2_edges_offset_rs1val_0x7fffffff_rs2val_0xfffffffe>
  # Check if x0 contains the expected result. x15 is the signature ptr, x5 is the link ptr, x4 is a temp reg.
  RVTEST_SIGUPD(x15, x5, x4, x0, I_bge_cg_cr_rs1_rs2_edges_offset_rs1val_0x7fffffff_rs2val_0xfffffffe, I_bge_cg_cr_rs1_rs2_edges_offset_rs1val_0x7fffffff_rs2val_0xfffffffe_str)
    3b0c:	0007a203          	lw	x4,0(x15)
    3b10:	00020863          	beq	x4,x0,3b20 <I_bge_cg_cr_rs1_rs2_edges_offset_rs1val_0x7fffffff_rs2val_0xfffffffe+0x1c>
    3b14:	568062ef          	jal	x5,a07c <failedtest_x5_x4>
    3b18:	00003b04          	.word	0x00003b04
    3b1c:	0000f4d4          	.word	0x0000f4d4
    3b20:	00478793          	addi	x15,x15,4
  j 4f # done with test
    3b24:	0280006f          	jal	x0,3b4c <I_bge_cg_cr_rs1_rs2_edges_offset_rs1val_0x7fffffff_rs2val_0xfffffffe+0x48>
2: # goes here during backward branch if taken
  LI(x19, 1)
    3b28:	00100993          	addi	x19,x0,1
  # Check if x19 contains the expected result. x15 is the signature ptr, x5 is the link ptr, x4 is a temp reg.
  RVTEST_SIGUPD(x15, x5, x4, x19, I_bge_cg_cr_rs1_rs2_edges_offset_rs1val_0x7fffffff_rs2val_0xfffffffe, I_bge_cg_cr_rs1_rs2_edges_offset_rs1val_0x7fffffff_rs2val_0xfffffffe_str) # signature 1 for taken
    3b2c:	0007a203          	lw	x4,0(x15)
    3b30:	01320863          	beq	x4,x19,3b40 <I_bge_cg_cr_rs1_rs2_edges_offset_rs1val_0x7fffffff_rs2val_0xfffffffe+0x3c>
    3b34:	548062ef          	jal	x5,a07c <failedtest_x5_x4>
    3b38:	00003b04          	.word	0x00003b04
    3b3c:	0000f4d4          	.word	0x0000f4d4
    3b40:	00478793          	addi	x15,x15,4
  j 4f # done with test
    3b44:	0080006f          	jal	x0,3b4c <I_bge_cg_cr_rs1_rs2_edges_offset_rs1val_0x7fffffff_rs2val_0xfffffffe+0x48>
3: # goes here during forward branch if taken
  bge x19, x7, 2b # backward branch, definitely taken
    3b48:	fe79d0e3          	bge	x19,x7,3b28 <I_bge_cg_cr_rs1_rs2_edges_offset_rs1val_0x7fffffff_rs2val_0xfffffffe+0x24>
4: # done with test

# cr_rs1_rs2_edges_offset (Test source rs1 = 0x7fffffff rs2 = 0x5bbc8872)
  RVTEST_TESTDATA_LOAD_INT(x23, x24) # load rs1: x24 = 0x7fffffff
    3b4c:	000bac03          	lw	x24,0(x23)
    3b50:	004b8b93          	addi	x23,x23,4
  RVTEST_TESTDATA_LOAD_INT(x23, x27) # load rs2: x27 = 0x5bbc8872
    3b54:	000bad83          	lw	x27,0(x23)
    3b58:	004b8b93          	addi	x23,x23,4

00003b5c <I_bge_cg_cr_rs1_rs2_edges_offset_rs1val_0x7fffffff_rs2val_0x5bbc8872>:
0: # destination for backwards branch that is never taken
I_bge_cg_cr_rs1_rs2_edges_offset_rs1val_0x7fffffff_rs2val_0x5bbc8872:
  bge x24, x27, 3f # forward branch, if taken
    3b5c:	05bc5263          	bge	x24,x27,3ba0 <I_bge_cg_cr_rs1_rs2_edges_offset_rs1val_0x7fffffff_rs2val_0x5bbc8872+0x44>
1: # goes here if not taken
  bge x24, x27, 0b # backward branch, never taken
    3b60:	ffbc5ee3          	bge	x24,x27,3b5c <I_bge_cg_cr_rs1_rs2_edges_offset_rs1val_0x7fffffff_rs2val_0x5bbc8872>
  # Check if x0 contains the expected result. x15 is the signature ptr, x5 is the link ptr, x4 is a temp reg.
  RVTEST_SIGUPD(x15, x5, x4, x0, I_bge_cg_cr_rs1_rs2_edges_offset_rs1val_0x7fffffff_rs2val_0x5bbc8872, I_bge_cg_cr_rs1_rs2_edges_offset_rs1val_0x7fffffff_rs2val_0x5bbc8872_str)
    3b64:	0007a203          	lw	x4,0(x15)
    3b68:	00020863          	beq	x4,x0,3b78 <I_bge_cg_cr_rs1_rs2_edges_offset_rs1val_0x7fffffff_rs2val_0x5bbc8872+0x1c>
    3b6c:	510062ef          	jal	x5,a07c <failedtest_x5_x4>
    3b70:	00003b5c          	.word	0x00003b5c
    3b74:	0000f536          	.word	0x0000f536
    3b78:	00478793          	addi	x15,x15,4
  j 4f # done with test
    3b7c:	0280006f          	jal	x0,3ba4 <I_bge_cg_cr_rs1_rs2_edges_offset_rs1val_0x7fffffff_rs2val_0x5bbc8872+0x48>
2: # goes here during backward branch if taken
  LI(x24, 1)
    3b80:	00100c13          	addi	x24,x0,1
  # Check if x24 contains the expected result. x15 is the signature ptr, x5 is the link ptr, x4 is a temp reg.
  RVTEST_SIGUPD(x15, x5, x4, x24, I_bge_cg_cr_rs1_rs2_edges_offset_rs1val_0x7fffffff_rs2val_0x5bbc8872, I_bge_cg_cr_rs1_rs2_edges_offset_rs1val_0x7fffffff_rs2val_0x5bbc8872_str) # signature 1 for taken
    3b84:	0007a203          	lw	x4,0(x15)
    3b88:	01820863          	beq	x4,x24,3b98 <I_bge_cg_cr_rs1_rs2_edges_offset_rs1val_0x7fffffff_rs2val_0x5bbc8872+0x3c>
    3b8c:	4f0062ef          	jal	x5,a07c <failedtest_x5_x4>
    3b90:	00003b5c          	.word	0x00003b5c
    3b94:	0000f536          	.word	0x0000f536
    3b98:	00478793          	addi	x15,x15,4
  j 4f # done with test
    3b9c:	0080006f          	jal	x0,3ba4 <I_bge_cg_cr_rs1_rs2_edges_offset_rs1val_0x7fffffff_rs2val_0x5bbc8872+0x48>
3: # goes here during forward branch if taken
  bge x24, x27, 2b # backward branch, definitely taken
    3ba0:	ffbc50e3          	bge	x24,x27,3b80 <I_bge_cg_cr_rs1_rs2_edges_offset_rs1val_0x7fffffff_rs2val_0x5bbc8872+0x24>
4: # done with test

# cr_rs1_rs2_edges_offset (Test source rs1 = 0x7fffffff rs2 = 0xaaaaaaaa)
  RVTEST_TESTDATA_LOAD_INT(x23, x20) # load rs1: x20 = 0x7fffffff
    3ba4:	000baa03          	lw	x20,0(x23)
    3ba8:	004b8b93          	addi	x23,x23,4
  RVTEST_TESTDATA_LOAD_INT(x23, x10) # load rs2: x10 = 0xaaaaaaaa
    3bac:	000ba503          	lw	x10,0(x23)
    3bb0:	004b8b93          	addi	x23,x23,4

00003bb4 <I_bge_cg_cr_rs1_rs2_edges_offset_rs1val_0x7fffffff_rs2val_0xaaaaaaaa>:
0: # destination for backwards branch that is never taken
I_bge_cg_cr_rs1_rs2_edges_offset_rs1val_0x7fffffff_rs2val_0xaaaaaaaa:
  bge x20, x10, 3f # forward branch, if taken
    3bb4:	04aa5263          	bge	x20,x10,3bf8 <I_bge_cg_cr_rs1_rs2_edges_offset_rs1val_0x7fffffff_rs2val_0xaaaaaaaa+0x44>
1: # goes here if not taken
  bge x20, x10, 0b # backward branch, never taken
    3bb8:	feaa5ee3          	bge	x20,x10,3bb4 <I_bge_cg_cr_rs1_rs2_edges_offset_rs1val_0x7fffffff_rs2val_0xaaaaaaaa>
  # Check if x0 contains the expected result. x15 is the signature ptr, x5 is the link ptr, x4 is a temp reg.
  RVTEST_SIGUPD(x15, x5, x4, x0, I_bge_cg_cr_rs1_rs2_edges_offset_rs1val_0x7fffffff_rs2val_0xaaaaaaaa, I_bge_cg_cr_rs1_rs2_edges_offset_rs1val_0x7fffffff_rs2val_0xaaaaaaaa_str)
    3bbc:	0007a203          	lw	x4,0(x15)
    3bc0:	00020863          	beq	x4,x0,3bd0 <I_bge_cg_cr_rs1_rs2_edges_offset_rs1val_0x7fffffff_rs2val_0xaaaaaaaa+0x1c>
    3bc4:	4b8062ef          	jal	x5,a07c <failedtest_x5_x4>
    3bc8:	00003bb4          	.word	0x00003bb4
    3bcc:	0000f598          	.word	0x0000f598
    3bd0:	00478793          	addi	x15,x15,4
  j 4f # done with test
    3bd4:	0280006f          	jal	x0,3bfc <I_bge_cg_cr_rs1_rs2_edges_offset_rs1val_0x7fffffff_rs2val_0xaaaaaaaa+0x48>
2: # goes here during backward branch if taken
  LI(x20, 1)
    3bd8:	00100a13          	addi	x20,x0,1
  # Check if x20 contains the expected result. x15 is the signature ptr, x5 is the link ptr, x4 is a temp reg.
  RVTEST_SIGUPD(x15, x5, x4, x20, I_bge_cg_cr_rs1_rs2_edges_offset_rs1val_0x7fffffff_rs2val_0xaaaaaaaa, I_bge_cg_cr_rs1_rs2_edges_offset_rs1val_0x7fffffff_rs2val_0xaaaaaaaa_str) # signature 1 for taken
    3bdc:	0007a203          	lw	x4,0(x15)
    3be0:	01420863          	beq	x4,x20,3bf0 <I_bge_cg_cr_rs1_rs2_edges_offset_rs1val_0x7fffffff_rs2val_0xaaaaaaaa+0x3c>
    3be4:	498062ef          	jal	x5,a07c <failedtest_x5_x4>
    3be8:	00003bb4          	.word	0x00003bb4
    3bec:	0000f598          	.word	0x0000f598
    3bf0:	00478793          	addi	x15,x15,4
  j 4f # done with test
    3bf4:	0080006f          	jal	x0,3bfc <I_bge_cg_cr_rs1_rs2_edges_offset_rs1val_0x7fffffff_rs2val_0xaaaaaaaa+0x48>
3: # goes here during forward branch if taken
  bge x20, x10, 2b # backward branch, definitely taken
    3bf8:	feaa50e3          	bge	x20,x10,3bd8 <I_bge_cg_cr_rs1_rs2_edges_offset_rs1val_0x7fffffff_rs2val_0xaaaaaaaa+0x24>
4: # done with test

# cr_rs1_rs2_edges_offset (Test source rs1 = 0x7fffffff rs2 = 0x55555555)
  RVTEST_TESTDATA_LOAD_INT(x23, x19) # load rs1: x19 = 0x7fffffff
    3bfc:	000ba983          	lw	x19,0(x23)
    3c00:	004b8b93          	addi	x23,x23,4
  RVTEST_TESTDATA_LOAD_INT(x23, x7) # load rs2: x7 = 0x55555555
    3c04:	000ba383          	lw	x7,0(x23)
    3c08:	004b8b93          	addi	x23,x23,4

00003c0c <I_bge_cg_cr_rs1_rs2_edges_offset_rs1val_0x7fffffff_rs2val_0x55555555>:
0: # destination for backwards branch that is never taken
I_bge_cg_cr_rs1_rs2_edges_offset_rs1val_0x7fffffff_rs2val_0x55555555:
  bge x19, x7, 3f # forward branch, if taken
    3c0c:	0479d263          	bge	x19,x7,3c50 <I_bge_cg_cr_rs1_rs2_edges_offset_rs1val_0x7fffffff_rs2val_0x55555555+0x44>
1: # goes here if not taken
  bge x19, x7, 0b # backward branch, never taken
    3c10:	fe79dee3          	bge	x19,x7,3c0c <I_bge_cg_cr_rs1_rs2_edges_offset_rs1val_0x7fffffff_rs2val_0x55555555>
  # Check if x0 contains the expected result. x15 is the signature ptr, x5 is the link ptr, x4 is a temp reg.
  RVTEST_SIGUPD(x15, x5, x4, x0, I_bge_cg_cr_rs1_rs2_edges_offset_rs1val_0x7fffffff_rs2val_0x55555555, I_bge_cg_cr_rs1_rs2_edges_offset_rs1val_0x7fffffff_rs2val_0x55555555_str)
    3c14:	0007a203          	lw	x4,0(x15)
    3c18:	00020863          	beq	x4,x0,3c28 <I_bge_cg_cr_rs1_rs2_edges_offset_rs1val_0x7fffffff_rs2val_0x55555555+0x1c>
    3c1c:	460062ef          	jal	x5,a07c <failedtest_x5_x4>
    3c20:	00003c0c          	.word	0x00003c0c
    3c24:	0000f5fa          	.word	0x0000f5fa
    3c28:	00478793          	addi	x15,x15,4
  j 4f # done with test
    3c2c:	0280006f          	jal	x0,3c54 <I_bge_cg_cr_rs1_rs2_edges_offset_rs1val_0x7fffffff_rs2val_0x55555555+0x48>
2: # goes here during backward branch if taken
  LI(x19, 1)
    3c30:	00100993          	addi	x19,x0,1
  # Check if x19 contains the expected result. x15 is the signature ptr, x5 is the link ptr, x4 is a temp reg.
  RVTEST_SIGUPD(x15, x5, x4, x19, I_bge_cg_cr_rs1_rs2_edges_offset_rs1val_0x7fffffff_rs2val_0x55555555, I_bge_cg_cr_rs1_rs2_edges_offset_rs1val_0x7fffffff_rs2val_0x55555555_str) # signature 1 for taken
    3c34:	0007a203          	lw	x4,0(x15)
    3c38:	01320863          	beq	x4,x19,3c48 <I_bge_cg_cr_rs1_rs2_edges_offset_rs1val_0x7fffffff_rs2val_0x55555555+0x3c>
    3c3c:	440062ef          	jal	x5,a07c <failedtest_x5_x4>
    3c40:	00003c0c          	.word	0x00003c0c
    3c44:	0000f5fa          	.word	0x0000f5fa
    3c48:	00478793          	addi	x15,x15,4
  j 4f # done with test
    3c4c:	0080006f          	jal	x0,3c54 <I_bge_cg_cr_rs1_rs2_edges_offset_rs1val_0x7fffffff_rs2val_0x55555555+0x48>
3: # goes here during forward branch if taken
  bge x19, x7, 2b # backward branch, definitely taken
    3c50:	fe79d0e3          	bge	x19,x7,3c30 <I_bge_cg_cr_rs1_rs2_edges_offset_rs1val_0x7fffffff_rs2val_0x55555555+0x24>
4: # done with test

# cr_rs1_rs2_edges_offset (Test source rs1 = 0x7ffffffe rs2 = 0x00000000)
  RVTEST_TESTDATA_LOAD_INT(x23, x2) # load rs1: x2 = 0x7ffffffe
    3c54:	000ba103          	lw	x2,0(x23)
    3c58:	004b8b93          	addi	x23,x23,4
  RVTEST_TESTDATA_LOAD_INT(x23, x10) # load rs2: x10 = 0x00000000
    3c5c:	000ba503          	lw	x10,0(x23)
    3c60:	004b8b93          	addi	x23,x23,4

00003c64 <I_bge_cg_cr_rs1_rs2_edges_offset_rs1val_0x7ffffffe_rs2val_0x0>:
0: # destination for backwards branch that is never taken
I_bge_cg_cr_rs1_rs2_edges_offset_rs1val_0x7ffffffe_rs2val_0x0:
  bge x2, x10, 3f # forward branch, if taken
    3c64:	04a15263          	bge	x2,x10,3ca8 <I_bge_cg_cr_rs1_rs2_edges_offset_rs1val_0x7ffffffe_rs2val_0x0+0x44>
1: # goes here if not taken
  bge x2, x10, 0b # backward branch, never taken
    3c68:	fea15ee3          	bge	x2,x10,3c64 <I_bge_cg_cr_rs1_rs2_edges_offset_rs1val_0x7ffffffe_rs2val_0x0>
  # Check if x0 contains the expected result. x15 is the signature ptr, x5 is the link ptr, x4 is a temp reg.
  RVTEST_SIGUPD(x15, x5, x4, x0, I_bge_cg_cr_rs1_rs2_edges_offset_rs1val_0x7ffffffe_rs2val_0x0, I_bge_cg_cr_rs1_rs2_edges_offset_rs1val_0x7ffffffe_rs2val_0x0_str)
    3c6c:	0007a203          	lw	x4,0(x15)
    3c70:	00020863          	beq	x4,x0,3c80 <I_bge_cg_cr_rs1_rs2_edges_offset_rs1val_0x7ffffffe_rs2val_0x0+0x1c>
    3c74:	408062ef          	jal	x5,a07c <failedtest_x5_x4>
    3c78:	00003c64          	.word	0x00003c64
    3c7c:	0000f65c          	.word	0x0000f65c
    3c80:	00478793          	addi	x15,x15,4
  j 4f # done with test
    3c84:	0280006f          	jal	x0,3cac <I_bge_cg_cr_rs1_rs2_edges_offset_rs1val_0x7ffffffe_rs2val_0x0+0x48>
2: # goes here during backward branch if taken
  LI(x2, 1)
    3c88:	00100113          	addi	x2,x0,1
  # Check if x2 contains the expected result. x15 is the signature ptr, x5 is the link ptr, x4 is a temp reg.
  RVTEST_SIGUPD(x15, x5, x4, x2, I_bge_cg_cr_rs1_rs2_edges_offset_rs1val_0x7ffffffe_rs2val_0x0, I_bge_cg_cr_rs1_rs2_edges_offset_rs1val_0x7ffffffe_rs2val_0x0_str) # signature 1 for taken
    3c8c:	0007a203          	lw	x4,0(x15)
    3c90:	00220863          	beq	x4,x2,3ca0 <I_bge_cg_cr_rs1_rs2_edges_offset_rs1val_0x7ffffffe_rs2val_0x0+0x3c>
    3c94:	3e8062ef          	jal	x5,a07c <failedtest_x5_x4>
    3c98:	00003c64          	.word	0x00003c64
    3c9c:	0000f65c          	.word	0x0000f65c
    3ca0:	00478793          	addi	x15,x15,4
  j 4f # done with test
    3ca4:	0080006f          	jal	x0,3cac <I_bge_cg_cr_rs1_rs2_edges_offset_rs1val_0x7ffffffe_rs2val_0x0+0x48>
3: # goes here during forward branch if taken
  bge x2, x10, 2b # backward branch, definitely taken
    3ca8:	fea150e3          	bge	x2,x10,3c88 <I_bge_cg_cr_rs1_rs2_edges_offset_rs1val_0x7ffffffe_rs2val_0x0+0x24>
4: # done with test

# cr_rs1_rs2_edges_offset (Test source rs1 = 0x7ffffffe rs2 = 0x00000001)
  RVTEST_TESTDATA_LOAD_INT(x23, x3) # load rs1: x3 = 0x7ffffffe
    3cac:	000ba183          	lw	x3,0(x23)
    3cb0:	004b8b93          	addi	x23,x23,4
  RVTEST_TESTDATA_LOAD_INT(x23, x9) # load rs2: x9 = 0x00000001
    3cb4:	000ba483          	lw	x9,0(x23)
    3cb8:	004b8b93          	addi	x23,x23,4

00003cbc <I_bge_cg_cr_rs1_rs2_edges_offset_rs1val_0x7ffffffe_rs2val_0x1>:
0: # destination for backwards branch that is never taken
I_bge_cg_cr_rs1_rs2_edges_offset_rs1val_0x7ffffffe_rs2val_0x1:
  bge x3, x9, 3f # forward branch, if taken
    3cbc:	0491d263          	bge	x3,x9,3d00 <I_bge_cg_cr_rs1_rs2_edges_offset_rs1val_0x7ffffffe_rs2val_0x1+0x44>
1: # goes here if not taken
  bge x3, x9, 0b # backward branch, never taken
    3cc0:	fe91dee3          	bge	x3,x9,3cbc <I_bge_cg_cr_rs1_rs2_edges_offset_rs1val_0x7ffffffe_rs2val_0x1>
  # Check if x0 contains the expected result. x15 is the signature ptr, x5 is the link ptr, x4 is a temp reg.
  RVTEST_SIGUPD(x15, x5, x4, x0, I_bge_cg_cr_rs1_rs2_edges_offset_rs1val_0x7ffffffe_rs2val_0x1, I_bge_cg_cr_rs1_rs2_edges_offset_rs1val_0x7ffffffe_rs2val_0x1_str)
    3cc4:	0007a203          	lw	x4,0(x15)
    3cc8:	00020863          	beq	x4,x0,3cd8 <I_bge_cg_cr_rs1_rs2_edges_offset_rs1val_0x7ffffffe_rs2val_0x1+0x1c>
    3ccc:	3b0062ef          	jal	x5,a07c <failedtest_x5_x4>
    3cd0:	00003cbc          	.word	0x00003cbc
    3cd4:	0000f6b7          	.word	0x0000f6b7
    3cd8:	00478793          	addi	x15,x15,4
  j 4f # done with test
    3cdc:	0280006f          	jal	x0,3d04 <I_bge_cg_cr_rs1_rs2_edges_offset_rs1val_0x7ffffffe_rs2val_0x1+0x48>
2: # goes here during backward branch if taken
  LI(x3, 1)
    3ce0:	00100193          	addi	x3,x0,1
  # Check if x3 contains the expected result. x15 is the signature ptr, x5 is the link ptr, x4 is a temp reg.
  RVTEST_SIGUPD(x15, x5, x4, x3, I_bge_cg_cr_rs1_rs2_edges_offset_rs1val_0x7ffffffe_rs2val_0x1, I_bge_cg_cr_rs1_rs2_edges_offset_rs1val_0x7ffffffe_rs2val_0x1_str) # signature 1 for taken
    3ce4:	0007a203          	lw	x4,0(x15)
    3ce8:	00320863          	beq	x4,x3,3cf8 <I_bge_cg_cr_rs1_rs2_edges_offset_rs1val_0x7ffffffe_rs2val_0x1+0x3c>
    3cec:	390062ef          	jal	x5,a07c <failedtest_x5_x4>
    3cf0:	00003cbc          	.word	0x00003cbc
    3cf4:	0000f6b7          	.word	0x0000f6b7
    3cf8:	00478793          	addi	x15,x15,4
  j 4f # done with test
    3cfc:	0080006f          	jal	x0,3d04 <I_bge_cg_cr_rs1_rs2_edges_offset_rs1val_0x7ffffffe_rs2val_0x1+0x48>
3: # goes here during forward branch if taken
  bge x3, x9, 2b # backward branch, definitely taken
    3d00:	fe91d0e3          	bge	x3,x9,3ce0 <I_bge_cg_cr_rs1_rs2_edges_offset_rs1val_0x7ffffffe_rs2val_0x1+0x24>
4: # done with test

# cr_rs1_rs2_edges_offset (Test source rs1 = 0x7ffffffe rs2 = 0x00000002)
  RVTEST_TESTDATA_LOAD_INT(x23, x13) # load rs1: x13 = 0x7ffffffe
    3d04:	000ba683          	lw	x13,0(x23)
    3d08:	004b8b93          	addi	x23,x23,4
  RVTEST_TESTDATA_LOAD_INT(x23, x20) # load rs2: x20 = 0x00000002
    3d0c:	000baa03          	lw	x20,0(x23)
    3d10:	004b8b93          	addi	x23,x23,4

00003d14 <I_bge_cg_cr_rs1_rs2_edges_offset_rs1val_0x7ffffffe_rs2val_0x2>:
0: # destination for backwards branch that is never taken
I_bge_cg_cr_rs1_rs2_edges_offset_rs1val_0x7ffffffe_rs2val_0x2:
  bge x13, x20, 3f # forward branch, if taken
    3d14:	0546d263          	bge	x13,x20,3d58 <I_bge_cg_cr_rs1_rs2_edges_offset_rs1val_0x7ffffffe_rs2val_0x2+0x44>
1: # goes here if not taken
  bge x13, x20, 0b # backward branch, never taken
    3d18:	ff46dee3          	bge	x13,x20,3d14 <I_bge_cg_cr_rs1_rs2_edges_offset_rs1val_0x7ffffffe_rs2val_0x2>
  # Check if x0 contains the expected result. x15 is the signature ptr, x5 is the link ptr, x4 is a temp reg.
  RVTEST_SIGUPD(x15, x5, x4, x0, I_bge_cg_cr_rs1_rs2_edges_offset_rs1val_0x7ffffffe_rs2val_0x2, I_bge_cg_cr_rs1_rs2_edges_offset_rs1val_0x7ffffffe_rs2val_0x2_str)
    3d1c:	0007a203          	lw	x4,0(x15)
    3d20:	00020863          	beq	x4,x0,3d30 <I_bge_cg_cr_rs1_rs2_edges_offset_rs1val_0x7ffffffe_rs2val_0x2+0x1c>
    3d24:	358062ef          	jal	x5,a07c <failedtest_x5_x4>
    3d28:	00003d14          	.word	0x00003d14
    3d2c:	0000f712          	.word	0x0000f712
    3d30:	00478793          	addi	x15,x15,4
  j 4f # done with test
    3d34:	0280006f          	jal	x0,3d5c <I_bge_cg_cr_rs1_rs2_edges_offset_rs1val_0x7ffffffe_rs2val_0x2+0x48>
2: # goes here during backward branch if taken
  LI(x13, 1)
    3d38:	00100693          	addi	x13,x0,1
  # Check if x13 contains the expected result. x15 is the signature ptr, x5 is the link ptr, x4 is a temp reg.
  RVTEST_SIGUPD(x15, x5, x4, x13, I_bge_cg_cr_rs1_rs2_edges_offset_rs1val_0x7ffffffe_rs2val_0x2, I_bge_cg_cr_rs1_rs2_edges_offset_rs1val_0x7ffffffe_rs2val_0x2_str) # signature 1 for taken
    3d3c:	0007a203          	lw	x4,0(x15)
    3d40:	00d20863          	beq	x4,x13,3d50 <I_bge_cg_cr_rs1_rs2_edges_offset_rs1val_0x7ffffffe_rs2val_0x2+0x3c>
    3d44:	338062ef          	jal	x5,a07c <failedtest_x5_x4>
    3d48:	00003d14          	.word	0x00003d14
    3d4c:	0000f712          	.word	0x0000f712
    3d50:	00478793          	addi	x15,x15,4
  j 4f # done with test
    3d54:	0080006f          	jal	x0,3d5c <I_bge_cg_cr_rs1_rs2_edges_offset_rs1val_0x7ffffffe_rs2val_0x2+0x48>
3: # goes here during forward branch if taken
  bge x13, x20, 2b # backward branch, definitely taken
    3d58:	ff46d0e3          	bge	x13,x20,3d38 <I_bge_cg_cr_rs1_rs2_edges_offset_rs1val_0x7ffffffe_rs2val_0x2+0x24>
4: # done with test

# cr_rs1_rs2_edges_offset (Test source rs1 = 0x7ffffffe rs2 = 0x80000000)
  RVTEST_TESTDATA_LOAD_INT(x23, x18) # load rs1: x18 = 0x7ffffffe
    3d5c:	000ba903          	lw	x18,0(x23)
    3d60:	004b8b93          	addi	x23,x23,4
  RVTEST_TESTDATA_LOAD_INT(x23, x19) # load rs2: x19 = 0x80000000
    3d64:	000ba983          	lw	x19,0(x23)
    3d68:	004b8b93          	addi	x23,x23,4

00003d6c <I_bge_cg_cr_rs1_rs2_edges_offset_rs1val_0x7ffffffe_rs2val_0x80000000>:
0: # destination for backwards branch that is never taken
I_bge_cg_cr_rs1_rs2_edges_offset_rs1val_0x7ffffffe_rs2val_0x80000000:
  bge x18, x19, 3f # forward branch, if taken
    3d6c:	05395263          	bge	x18,x19,3db0 <I_bge_cg_cr_rs1_rs2_edges_offset_rs1val_0x7ffffffe_rs2val_0x80000000+0x44>
1: # goes here if not taken
  bge x18, x19, 0b # backward branch, never taken
    3d70:	ff395ee3          	bge	x18,x19,3d6c <I_bge_cg_cr_rs1_rs2_edges_offset_rs1val_0x7ffffffe_rs2val_0x80000000>
  # Check if x0 contains the expected result. x15 is the signature ptr, x5 is the link ptr, x4 is a temp reg.
  RVTEST_SIGUPD(x15, x5, x4, x0, I_bge_cg_cr_rs1_rs2_edges_offset_rs1val_0x7ffffffe_rs2val_0x80000000, I_bge_cg_cr_rs1_rs2_edges_offset_rs1val_0x7ffffffe_rs2val_0x80000000_str)
    3d74:	0007a203          	lw	x4,0(x15)
    3d78:	00020863          	beq	x4,x0,3d88 <I_bge_cg_cr_rs1_rs2_edges_offset_rs1val_0x7ffffffe_rs2val_0x80000000+0x1c>
    3d7c:	300062ef          	jal	x5,a07c <failedtest_x5_x4>
    3d80:	00003d6c          	.word	0x00003d6c
    3d84:	0000f76d          	.word	0x0000f76d
    3d88:	00478793          	addi	x15,x15,4
  j 4f # done with test
    3d8c:	0280006f          	jal	x0,3db4 <I_bge_cg_cr_rs1_rs2_edges_offset_rs1val_0x7ffffffe_rs2val_0x80000000+0x48>
2: # goes here during backward branch if taken
  LI(x18, 1)
    3d90:	00100913          	addi	x18,x0,1
  # Check if x18 contains the expected result. x15 is the signature ptr, x5 is the link ptr, x4 is a temp reg.
  RVTEST_SIGUPD(x15, x5, x4, x18, I_bge_cg_cr_rs1_rs2_edges_offset_rs1val_0x7ffffffe_rs2val_0x80000000, I_bge_cg_cr_rs1_rs2_edges_offset_rs1val_0x7ffffffe_rs2val_0x80000000_str) # signature 1 for taken
    3d94:	0007a203          	lw	x4,0(x15)
    3d98:	01220863          	beq	x4,x18,3da8 <I_bge_cg_cr_rs1_rs2_edges_offset_rs1val_0x7ffffffe_rs2val_0x80000000+0x3c>
    3d9c:	2e0062ef          	jal	x5,a07c <failedtest_x5_x4>
    3da0:	00003d6c          	.word	0x00003d6c
    3da4:	0000f76d          	.word	0x0000f76d
    3da8:	00478793          	addi	x15,x15,4
  j 4f # done with test
    3dac:	0080006f          	jal	x0,3db4 <I_bge_cg_cr_rs1_rs2_edges_offset_rs1val_0x7ffffffe_rs2val_0x80000000+0x48>
3: # goes here during forward branch if taken
  bge x18, x19, 2b # backward branch, definitely taken
    3db0:	ff3950e3          	bge	x18,x19,3d90 <I_bge_cg_cr_rs1_rs2_edges_offset_rs1val_0x7ffffffe_rs2val_0x80000000+0x24>
4: # done with test

# cr_rs1_rs2_edges_offset (Test source rs1 = 0x7ffffffe rs2 = 0x80000001)
  RVTEST_TESTDATA_LOAD_INT(x23, x12) # load rs1: x12 = 0x7ffffffe
    3db4:	000ba603          	lw	x12,0(x23)
    3db8:	004b8b93          	addi	x23,x23,4
  RVTEST_TESTDATA_LOAD_INT(x23, x17) # load rs2: x17 = 0x80000001
    3dbc:	000ba883          	lw	x17,0(x23)
    3dc0:	004b8b93          	addi	x23,x23,4

00003dc4 <I_bge_cg_cr_rs1_rs2_edges_offset_rs1val_0x7ffffffe_rs2val_0x80000001>:
0: # destination for backwards branch that is never taken
I_bge_cg_cr_rs1_rs2_edges_offset_rs1val_0x7ffffffe_rs2val_0x80000001:
  bge x12, x17, 3f # forward branch, if taken
    3dc4:	05165263          	bge	x12,x17,3e08 <I_bge_cg_cr_rs1_rs2_edges_offset_rs1val_0x7ffffffe_rs2val_0x80000001+0x44>
1: # goes here if not taken
  bge x12, x17, 0b # backward branch, never taken
    3dc8:	ff165ee3          	bge	x12,x17,3dc4 <I_bge_cg_cr_rs1_rs2_edges_offset_rs1val_0x7ffffffe_rs2val_0x80000001>
  # Check if x0 contains the expected result. x15 is the signature ptr, x5 is the link ptr, x4 is a temp reg.
  RVTEST_SIGUPD(x15, x5, x4, x0, I_bge_cg_cr_rs1_rs2_edges_offset_rs1val_0x7ffffffe_rs2val_0x80000001, I_bge_cg_cr_rs1_rs2_edges_offset_rs1val_0x7ffffffe_rs2val_0x80000001_str)
    3dcc:	0007a203          	lw	x4,0(x15)
    3dd0:	00020863          	beq	x4,x0,3de0 <I_bge_cg_cr_rs1_rs2_edges_offset_rs1val_0x7ffffffe_rs2val_0x80000001+0x1c>
    3dd4:	2a8062ef          	jal	x5,a07c <failedtest_x5_x4>
    3dd8:	00003dc4          	.word	0x00003dc4
    3ddc:	0000f7cf          	.word	0x0000f7cf
    3de0:	00478793          	addi	x15,x15,4
  j 4f # done with test
    3de4:	0280006f          	jal	x0,3e0c <I_bge_cg_cr_rs1_rs2_edges_offset_rs1val_0x7ffffffe_rs2val_0x80000001+0x48>
2: # goes here during backward branch if taken
  LI(x12, 1)
    3de8:	00100613          	addi	x12,x0,1
  # Check if x12 contains the expected result. x15 is the signature ptr, x5 is the link ptr, x4 is a temp reg.
  RVTEST_SIGUPD(x15, x5, x4, x12, I_bge_cg_cr_rs1_rs2_edges_offset_rs1val_0x7ffffffe_rs2val_0x80000001, I_bge_cg_cr_rs1_rs2_edges_offset_rs1val_0x7ffffffe_rs2val_0x80000001_str) # signature 1 for taken
    3dec:	0007a203          	lw	x4,0(x15)
    3df0:	00c20863          	beq	x4,x12,3e00 <I_bge_cg_cr_rs1_rs2_edges_offset_rs1val_0x7ffffffe_rs2val_0x80000001+0x3c>
    3df4:	288062ef          	jal	x5,a07c <failedtest_x5_x4>
    3df8:	00003dc4          	.word	0x00003dc4
    3dfc:	0000f7cf          	.word	0x0000f7cf
    3e00:	00478793          	addi	x15,x15,4
  j 4f # done with test
    3e04:	0080006f          	jal	x0,3e0c <I_bge_cg_cr_rs1_rs2_edges_offset_rs1val_0x7ffffffe_rs2val_0x80000001+0x48>
3: # goes here during forward branch if taken
  bge x12, x17, 2b # backward branch, definitely taken
    3e08:	ff1650e3          	bge	x12,x17,3de8 <I_bge_cg_cr_rs1_rs2_edges_offset_rs1val_0x7ffffffe_rs2val_0x80000001+0x24>
4: # done with test

# cr_rs1_rs2_edges_offset (Test source rs1 = 0x7ffffffe rs2 = 0x7fffffff)
  RVTEST_TESTDATA_LOAD_INT(x23, x24) # load rs1: x24 = 0x7ffffffe
    3e0c:	000bac03          	lw	x24,0(x23)
    3e10:	004b8b93          	addi	x23,x23,4
  RVTEST_TESTDATA_LOAD_INT(x23, x12) # load rs2: x12 = 0x7fffffff
    3e14:	000ba603          	lw	x12,0(x23)
    3e18:	004b8b93          	addi	x23,x23,4

00003e1c <I_bge_cg_cr_rs1_rs2_edges_offset_rs1val_0x7ffffffe_rs2val_0x7fffffff>:
0: # destination for backwards branch that is never taken
I_bge_cg_cr_rs1_rs2_edges_offset_rs1val_0x7ffffffe_rs2val_0x7fffffff:
  bge x24, x12, 3f # forward branch, if taken
    3e1c:	04cc5263          	bge	x24,x12,3e60 <I_bge_cg_cr_rs1_rs2_edges_offset_rs1val_0x7ffffffe_rs2val_0x7fffffff+0x44>
1: # goes here if not taken
  bge x24, x12, 0b # backward branch, never taken
    3e20:	fecc5ee3          	bge	x24,x12,3e1c <I_bge_cg_cr_rs1_rs2_edges_offset_rs1val_0x7ffffffe_rs2val_0x7fffffff>
  # Check if x0 contains the expected result. x15 is the signature ptr, x5 is the link ptr, x4 is a temp reg.
  RVTEST_SIGUPD(x15, x5, x4, x0, I_bge_cg_cr_rs1_rs2_edges_offset_rs1val_0x7ffffffe_rs2val_0x7fffffff, I_bge_cg_cr_rs1_rs2_edges_offset_rs1val_0x7ffffffe_rs2val_0x7fffffff_str)
    3e24:	0007a203          	lw	x4,0(x15)
    3e28:	00020863          	beq	x4,x0,3e38 <I_bge_cg_cr_rs1_rs2_edges_offset_rs1val_0x7ffffffe_rs2val_0x7fffffff+0x1c>
    3e2c:	250062ef          	jal	x5,a07c <failedtest_x5_x4>
    3e30:	00003e1c          	.word	0x00003e1c
    3e34:	0000f831          	.word	0x0000f831
    3e38:	00478793          	addi	x15,x15,4
  j 4f # done with test
    3e3c:	0280006f          	jal	x0,3e64 <I_bge_cg_cr_rs1_rs2_edges_offset_rs1val_0x7ffffffe_rs2val_0x7fffffff+0x48>
2: # goes here during backward branch if taken
  LI(x24, 1)
    3e40:	00100c13          	addi	x24,x0,1
  # Check if x24 contains the expected result. x15 is the signature ptr, x5 is the link ptr, x4 is a temp reg.
  RVTEST_SIGUPD(x15, x5, x4, x24, I_bge_cg_cr_rs1_rs2_edges_offset_rs1val_0x7ffffffe_rs2val_0x7fffffff, I_bge_cg_cr_rs1_rs2_edges_offset_rs1val_0x7ffffffe_rs2val_0x7fffffff_str) # signature 1 for taken
    3e44:	0007a203          	lw	x4,0(x15)
    3e48:	01820863          	beq	x4,x24,3e58 <I_bge_cg_cr_rs1_rs2_edges_offset_rs1val_0x7ffffffe_rs2val_0x7fffffff+0x3c>
    3e4c:	230062ef          	jal	x5,a07c <failedtest_x5_x4>
    3e50:	00003e1c          	.word	0x00003e1c
    3e54:	0000f831          	.word	0x0000f831
    3e58:	00478793          	addi	x15,x15,4
  j 4f # done with test
    3e5c:	0080006f          	jal	x0,3e64 <I_bge_cg_cr_rs1_rs2_edges_offset_rs1val_0x7ffffffe_rs2val_0x7fffffff+0x48>
3: # goes here during forward branch if taken
  bge x24, x12, 2b # backward branch, definitely taken
    3e60:	fecc50e3          	bge	x24,x12,3e40 <I_bge_cg_cr_rs1_rs2_edges_offset_rs1val_0x7ffffffe_rs2val_0x7fffffff+0x24>
4: # done with test

# cr_rs1_rs2_edges_offset (Test source rs1 = 0x7ffffffe rs2 = 0x7ffffffe)
  RVTEST_TESTDATA_LOAD_INT(x23, x13) # load rs1: x13 = 0x7ffffffe
    3e64:	000ba683          	lw	x13,0(x23)
    3e68:	004b8b93          	addi	x23,x23,4
  RVTEST_TESTDATA_LOAD_INT(x23, x14) # load rs2: x14 = 0x7ffffffe
    3e6c:	000ba703          	lw	x14,0(x23)
    3e70:	004b8b93          	addi	x23,x23,4

00003e74 <I_bge_cg_cr_rs1_rs2_edges_offset_rs1val_0x7ffffffe_rs2val_0x7ffffffe>:
0: # destination for backwards branch that is never taken
I_bge_cg_cr_rs1_rs2_edges_offset_rs1val_0x7ffffffe_rs2val_0x7ffffffe:
  bge x13, x14, 3f # forward branch, if taken
    3e74:	04e6d263          	bge	x13,x14,3eb8 <I_bge_cg_cr_rs1_rs2_edges_offset_rs1val_0x7ffffffe_rs2val_0x7ffffffe+0x44>
1: # goes here if not taken
  bge x13, x14, 0b # backward branch, never taken
    3e78:	fee6dee3          	bge	x13,x14,3e74 <I_bge_cg_cr_rs1_rs2_edges_offset_rs1val_0x7ffffffe_rs2val_0x7ffffffe>
  # Check if x0 contains the expected result. x15 is the signature ptr, x5 is the link ptr, x4 is a temp reg.
  RVTEST_SIGUPD(x15, x5, x4, x0, I_bge_cg_cr_rs1_rs2_edges_offset_rs1val_0x7ffffffe_rs2val_0x7ffffffe, I_bge_cg_cr_rs1_rs2_edges_offset_rs1val_0x7ffffffe_rs2val_0x7ffffffe_str)
    3e7c:	0007a203          	lw	x4,0(x15)
    3e80:	00020863          	beq	x4,x0,3e90 <I_bge_cg_cr_rs1_rs2_edges_offset_rs1val_0x7ffffffe_rs2val_0x7ffffffe+0x1c>
    3e84:	1f8062ef          	jal	x5,a07c <failedtest_x5_x4>
    3e88:	00003e74          	.word	0x00003e74
    3e8c:	0000f893          	.word	0x0000f893
    3e90:	00478793          	addi	x15,x15,4
  j 4f # done with test
    3e94:	0280006f          	jal	x0,3ebc <I_bge_cg_cr_rs1_rs2_edges_offset_rs1val_0x7ffffffe_rs2val_0x7ffffffe+0x48>
2: # goes here during backward branch if taken
  LI(x13, 1)
    3e98:	00100693          	addi	x13,x0,1
  # Check if x13 contains the expected result. x15 is the signature ptr, x5 is the link ptr, x4 is a temp reg.
  RVTEST_SIGUPD(x15, x5, x4, x13, I_bge_cg_cr_rs1_rs2_edges_offset_rs1val_0x7ffffffe_rs2val_0x7ffffffe, I_bge_cg_cr_rs1_rs2_edges_offset_rs1val_0x7ffffffe_rs2val_0x7ffffffe_str) # signature 1 for taken
    3e9c:	0007a203          	lw	x4,0(x15)
    3ea0:	00d20863          	beq	x4,x13,3eb0 <I_bge_cg_cr_rs1_rs2_edges_offset_rs1val_0x7ffffffe_rs2val_0x7ffffffe+0x3c>
    3ea4:	1d8062ef          	jal	x5,a07c <failedtest_x5_x4>
    3ea8:	00003e74          	.word	0x00003e74
    3eac:	0000f893          	.word	0x0000f893
    3eb0:	00478793          	addi	x15,x15,4
  j 4f # done with test
    3eb4:	0080006f          	jal	x0,3ebc <I_bge_cg_cr_rs1_rs2_edges_offset_rs1val_0x7ffffffe_rs2val_0x7ffffffe+0x48>
3: # goes here during forward branch if taken
  bge x13, x14, 2b # backward branch, definitely taken
    3eb8:	fee6d0e3          	bge	x13,x14,3e98 <I_bge_cg_cr_rs1_rs2_edges_offset_rs1val_0x7ffffffe_rs2val_0x7ffffffe+0x24>
4: # done with test

# cr_rs1_rs2_edges_offset (Test source rs1 = 0x7ffffffe rs2 = 0xffffffff)
  RVTEST_TESTDATA_LOAD_INT(x23, x8) # load rs1: x8 = 0x7ffffffe
    3ebc:	000ba403          	lw	x8,0(x23)
    3ec0:	004b8b93          	addi	x23,x23,4
  RVTEST_TESTDATA_LOAD_INT(x23, x28) # load rs2: x28 = 0xffffffff
    3ec4:	000bae03          	lw	x28,0(x23)
    3ec8:	004b8b93          	addi	x23,x23,4

00003ecc <I_bge_cg_cr_rs1_rs2_edges_offset_rs1val_0x7ffffffe_rs2val_0xffffffff>:
0: # destination for backwards branch that is never taken
I_bge_cg_cr_rs1_rs2_edges_offset_rs1val_0x7ffffffe_rs2val_0xffffffff:
  bge x8, x28, 3f # forward branch, if taken
    3ecc:	05c45263          	bge	x8,x28,3f10 <I_bge_cg_cr_rs1_rs2_edges_offset_rs1val_0x7ffffffe_rs2val_0xffffffff+0x44>
1: # goes here if not taken
  bge x8, x28, 0b # backward branch, never taken
    3ed0:	ffc45ee3          	bge	x8,x28,3ecc <I_bge_cg_cr_rs1_rs2_edges_offset_rs1val_0x7ffffffe_rs2val_0xffffffff>
  # Check if x0 contains the expected result. x15 is the signature ptr, x5 is the link ptr, x4 is a temp reg.
  RVTEST_SIGUPD(x15, x5, x4, x0, I_bge_cg_cr_rs1_rs2_edges_offset_rs1val_0x7ffffffe_rs2val_0xffffffff, I_bge_cg_cr_rs1_rs2_edges_offset_rs1val_0x7ffffffe_rs2val_0xffffffff_str)
    3ed4:	0007a203          	lw	x4,0(x15)
    3ed8:	00020863          	beq	x4,x0,3ee8 <I_bge_cg_cr_rs1_rs2_edges_offset_rs1val_0x7ffffffe_rs2val_0xffffffff+0x1c>
    3edc:	1a0062ef          	jal	x5,a07c <failedtest_x5_x4>
    3ee0:	00003ecc          	.word	0x00003ecc
    3ee4:	0000f8f5          	.word	0x0000f8f5
    3ee8:	00478793          	addi	x15,x15,4
  j 4f # done with test
    3eec:	0280006f          	jal	x0,3f14 <I_bge_cg_cr_rs1_rs2_edges_offset_rs1val_0x7ffffffe_rs2val_0xffffffff+0x48>
2: # goes here during backward branch if taken
  LI(x8, 1)
    3ef0:	00100413          	addi	x8,x0,1
  # Check if x8 contains the expected result. x15 is the signature ptr, x5 is the link ptr, x4 is a temp reg.
  RVTEST_SIGUPD(x15, x5, x4, x8, I_bge_cg_cr_rs1_rs2_edges_offset_rs1val_0x7ffffffe_rs2val_0xffffffff, I_bge_cg_cr_rs1_rs2_edges_offset_rs1val_0x7ffffffe_rs2val_0xffffffff_str) # signature 1 for taken
    3ef4:	0007a203          	lw	x4,0(x15)
    3ef8:	00820863          	beq	x4,x8,3f08 <I_bge_cg_cr_rs1_rs2_edges_offset_rs1val_0x7ffffffe_rs2val_0xffffffff+0x3c>
    3efc:	180062ef          	jal	x5,a07c <failedtest_x5_x4>
    3f00:	00003ecc          	.word	0x00003ecc
    3f04:	0000f8f5          	.word	0x0000f8f5
    3f08:	00478793          	addi	x15,x15,4
  j 4f # done with test
    3f0c:	0080006f          	jal	x0,3f14 <I_bge_cg_cr_rs1_rs2_edges_offset_rs1val_0x7ffffffe_rs2val_0xffffffff+0x48>
3: # goes here during forward branch if taken
  bge x8, x28, 2b # backward branch, definitely taken
    3f10:	ffc450e3          	bge	x8,x28,3ef0 <I_bge_cg_cr_rs1_rs2_edges_offset_rs1val_0x7ffffffe_rs2val_0xffffffff+0x24>
4: # done with test

# cr_rs1_rs2_edges_offset (Test source rs1 = 0x7ffffffe rs2 = 0xfffffffe)
  RVTEST_TESTDATA_LOAD_INT(x23, x18) # load rs1: x18 = 0x7ffffffe
    3f14:	000ba903          	lw	x18,0(x23)
    3f18:	004b8b93          	addi	x23,x23,4
  RVTEST_TESTDATA_LOAD_INT(x23, x7) # load rs2: x7 = 0xfffffffe
    3f1c:	000ba383          	lw	x7,0(x23)
    3f20:	004b8b93          	addi	x23,x23,4

00003f24 <I_bge_cg_cr_rs1_rs2_edges_offset_rs1val_0x7ffffffe_rs2val_0xfffffffe>:
0: # destination for backwards branch that is never taken
I_bge_cg_cr_rs1_rs2_edges_offset_rs1val_0x7ffffffe_rs2val_0xfffffffe:
  bge x18, x7, 3f # forward branch, if taken
    3f24:	04795263          	bge	x18,x7,3f68 <I_bge_cg_cr_rs1_rs2_edges_offset_rs1val_0x7ffffffe_rs2val_0xfffffffe+0x44>
1: # goes here if not taken
  bge x18, x7, 0b # backward branch, never taken
    3f28:	fe795ee3          	bge	x18,x7,3f24 <I_bge_cg_cr_rs1_rs2_edges_offset_rs1val_0x7ffffffe_rs2val_0xfffffffe>
  # Check if x0 contains the expected result. x15 is the signature ptr, x5 is the link ptr, x4 is a temp reg.
  RVTEST_SIGUPD(x15, x5, x4, x0, I_bge_cg_cr_rs1_rs2_edges_offset_rs1val_0x7ffffffe_rs2val_0xfffffffe, I_bge_cg_cr_rs1_rs2_edges_offset_rs1val_0x7ffffffe_rs2val_0xfffffffe_str)
    3f2c:	0007a203          	lw	x4,0(x15)
    3f30:	00020863          	beq	x4,x0,3f40 <I_bge_cg_cr_rs1_rs2_edges_offset_rs1val_0x7ffffffe_rs2val_0xfffffffe+0x1c>
    3f34:	148062ef          	jal	x5,a07c <failedtest_x5_x4>
    3f38:	00003f24          	.word	0x00003f24
    3f3c:	0000f957          	.word	0x0000f957
    3f40:	00478793          	addi	x15,x15,4
  j 4f # done with test
    3f44:	0280006f          	jal	x0,3f6c <I_bge_cg_cr_rs1_rs2_edges_offset_rs1val_0x7ffffffe_rs2val_0xfffffffe+0x48>
2: # goes here during backward branch if taken
  LI(x18, 1)
    3f48:	00100913          	addi	x18,x0,1
  # Check if x18 contains the expected result. x15 is the signature ptr, x5 is the link ptr, x4 is a temp reg.
  RVTEST_SIGUPD(x15, x5, x4, x18, I_bge_cg_cr_rs1_rs2_edges_offset_rs1val_0x7ffffffe_rs2val_0xfffffffe, I_bge_cg_cr_rs1_rs2_edges_offset_rs1val_0x7ffffffe_rs2val_0xfffffffe_str) # signature 1 for taken
    3f4c:	0007a203          	lw	x4,0(x15)
    3f50:	01220863          	beq	x4,x18,3f60 <I_bge_cg_cr_rs1_rs2_edges_offset_rs1val_0x7ffffffe_rs2val_0xfffffffe+0x3c>
    3f54:	128062ef          	jal	x5,a07c <failedtest_x5_x4>
    3f58:	00003f24          	.word	0x00003f24
    3f5c:	0000f957          	.word	0x0000f957
    3f60:	00478793          	addi	x15,x15,4
  j 4f # done with test
    3f64:	0080006f          	jal	x0,3f6c <I_bge_cg_cr_rs1_rs2_edges_offset_rs1val_0x7ffffffe_rs2val_0xfffffffe+0x48>
3: # goes here during forward branch if taken
  bge x18, x7, 2b # backward branch, definitely taken
    3f68:	fe7950e3          	bge	x18,x7,3f48 <I_bge_cg_cr_rs1_rs2_edges_offset_rs1val_0x7ffffffe_rs2val_0xfffffffe+0x24>
4: # done with test

# cr_rs1_rs2_edges_offset (Test source rs1 = 0x7ffffffe rs2 = 0x5bbc8872)
  RVTEST_TESTDATA_LOAD_INT(x23, x14) # load rs1: x14 = 0x7ffffffe
    3f6c:	000ba703          	lw	x14,0(x23)
    3f70:	004b8b93          	addi	x23,x23,4
  RVTEST_TESTDATA_LOAD_INT(x23, x21) # load rs2: x21 = 0x5bbc8872
    3f74:	000baa83          	lw	x21,0(x23)
    3f78:	004b8b93          	addi	x23,x23,4

00003f7c <I_bge_cg_cr_rs1_rs2_edges_offset_rs1val_0x7ffffffe_rs2val_0x5bbc8872>:
0: # destination for backwards branch that is never taken
I_bge_cg_cr_rs1_rs2_edges_offset_rs1val_0x7ffffffe_rs2val_0x5bbc8872:
  bge x14, x21, 3f # forward branch, if taken
    3f7c:	05575263          	bge	x14,x21,3fc0 <I_bge_cg_cr_rs1_rs2_edges_offset_rs1val_0x7ffffffe_rs2val_0x5bbc8872+0x44>
1: # goes here if not taken
  bge x14, x21, 0b # backward branch, never taken
    3f80:	ff575ee3          	bge	x14,x21,3f7c <I_bge_cg_cr_rs1_rs2_edges_offset_rs1val_0x7ffffffe_rs2val_0x5bbc8872>
  # Check if x0 contains the expected result. x15 is the signature ptr, x5 is the link ptr, x4 is a temp reg.
  RVTEST_SIGUPD(x15, x5, x4, x0, I_bge_cg_cr_rs1_rs2_edges_offset_rs1val_0x7ffffffe_rs2val_0x5bbc8872, I_bge_cg_cr_rs1_rs2_edges_offset_rs1val_0x7ffffffe_rs2val_0x5bbc8872_str)
    3f84:	0007a203          	lw	x4,0(x15)
    3f88:	00020863          	beq	x4,x0,3f98 <I_bge_cg_cr_rs1_rs2_edges_offset_rs1val_0x7ffffffe_rs2val_0x5bbc8872+0x1c>
    3f8c:	0f0062ef          	jal	x5,a07c <failedtest_x5_x4>
    3f90:	00003f7c          	.word	0x00003f7c
    3f94:	0000f9b9          	.word	0x0000f9b9
    3f98:	00478793          	addi	x15,x15,4
  j 4f # done with test
    3f9c:	0280006f          	jal	x0,3fc4 <I_bge_cg_cr_rs1_rs2_edges_offset_rs1val_0x7ffffffe_rs2val_0x5bbc8872+0x48>
2: # goes here during backward branch if taken
  LI(x14, 1)
    3fa0:	00100713          	addi	x14,x0,1
  # Check if x14 contains the expected result. x15 is the signature ptr, x5 is the link ptr, x4 is a temp reg.
  RVTEST_SIGUPD(x15, x5, x4, x14, I_bge_cg_cr_rs1_rs2_edges_offset_rs1val_0x7ffffffe_rs2val_0x5bbc8872, I_bge_cg_cr_rs1_rs2_edges_offset_rs1val_0x7ffffffe_rs2val_0x5bbc8872_str) # signature 1 for taken
    3fa4:	0007a203          	lw	x4,0(x15)
    3fa8:	00e20863          	beq	x4,x14,3fb8 <I_bge_cg_cr_rs1_rs2_edges_offset_rs1val_0x7ffffffe_rs2val_0x5bbc8872+0x3c>
    3fac:	0d0062ef          	jal	x5,a07c <failedtest_x5_x4>
    3fb0:	00003f7c          	.word	0x00003f7c
    3fb4:	0000f9b9          	.word	0x0000f9b9
    3fb8:	00478793          	addi	x15,x15,4
  j 4f # done with test
    3fbc:	0080006f          	jal	x0,3fc4 <I_bge_cg_cr_rs1_rs2_edges_offset_rs1val_0x7ffffffe_rs2val_0x5bbc8872+0x48>
3: # goes here during forward branch if taken
  bge x14, x21, 2b # backward branch, definitely taken
    3fc0:	ff5750e3          	bge	x14,x21,3fa0 <I_bge_cg_cr_rs1_rs2_edges_offset_rs1val_0x7ffffffe_rs2val_0x5bbc8872+0x24>
4: # done with test

# cr_rs1_rs2_edges_offset (Test source rs1 = 0x7ffffffe rs2 = 0xaaaaaaaa)
  RVTEST_TESTDATA_LOAD_INT(x23, x14) # load rs1: x14 = 0x7ffffffe
    3fc4:	000ba703          	lw	x14,0(x23)
    3fc8:	004b8b93          	addi	x23,x23,4
  RVTEST_TESTDATA_LOAD_INT(x23, x17) # load rs2: x17 = 0xaaaaaaaa
    3fcc:	000ba883          	lw	x17,0(x23)
    3fd0:	004b8b93          	addi	x23,x23,4

00003fd4 <I_bge_cg_cr_rs1_rs2_edges_offset_rs1val_0x7ffffffe_rs2val_0xaaaaaaaa>:
0: # destination for backwards branch that is never taken
I_bge_cg_cr_rs1_rs2_edges_offset_rs1val_0x7ffffffe_rs2val_0xaaaaaaaa:
  bge x14, x17, 3f # forward branch, if taken
    3fd4:	05175263          	bge	x14,x17,4018 <I_bge_cg_cr_rs1_rs2_edges_offset_rs1val_0x7ffffffe_rs2val_0xaaaaaaaa+0x44>
1: # goes here if not taken
  bge x14, x17, 0b # backward branch, never taken
    3fd8:	ff175ee3          	bge	x14,x17,3fd4 <I_bge_cg_cr_rs1_rs2_edges_offset_rs1val_0x7ffffffe_rs2val_0xaaaaaaaa>
  # Check if x0 contains the expected result. x15 is the signature ptr, x5 is the link ptr, x4 is a temp reg.
  RVTEST_SIGUPD(x15, x5, x4, x0, I_bge_cg_cr_rs1_rs2_edges_offset_rs1val_0x7ffffffe_rs2val_0xaaaaaaaa, I_bge_cg_cr_rs1_rs2_edges_offset_rs1val_0x7ffffffe_rs2val_0xaaaaaaaa_str)
    3fdc:	0007a203          	lw	x4,0(x15)
    3fe0:	00020863          	beq	x4,x0,3ff0 <I_bge_cg_cr_rs1_rs2_edges_offset_rs1val_0x7ffffffe_rs2val_0xaaaaaaaa+0x1c>
    3fe4:	098062ef          	jal	x5,a07c <failedtest_x5_x4>
    3fe8:	00003fd4          	.word	0x00003fd4
    3fec:	0000fa1b          	.word	0x0000fa1b
    3ff0:	00478793          	addi	x15,x15,4
  j 4f # done with test
    3ff4:	0280006f          	jal	x0,401c <I_bge_cg_cr_rs1_rs2_edges_offset_rs1val_0x7ffffffe_rs2val_0xaaaaaaaa+0x48>
2: # goes here during backward branch if taken
  LI(x14, 1)
    3ff8:	00100713          	addi	x14,x0,1
  # Check if x14 contains the expected result. x15 is the signature ptr, x5 is the link ptr, x4 is a temp reg.
  RVTEST_SIGUPD(x15, x5, x4, x14, I_bge_cg_cr_rs1_rs2_edges_offset_rs1val_0x7ffffffe_rs2val_0xaaaaaaaa, I_bge_cg_cr_rs1_rs2_edges_offset_rs1val_0x7ffffffe_rs2val_0xaaaaaaaa_str) # signature 1 for taken
    3ffc:	0007a203          	lw	x4,0(x15)
    4000:	00e20863          	beq	x4,x14,4010 <I_bge_cg_cr_rs1_rs2_edges_offset_rs1val_0x7ffffffe_rs2val_0xaaaaaaaa+0x3c>
    4004:	078062ef          	jal	x5,a07c <failedtest_x5_x4>
    4008:	00003fd4          	.word	0x00003fd4
    400c:	0000fa1b          	.word	0x0000fa1b
    4010:	00478793          	addi	x15,x15,4
  j 4f # done with test
    4014:	0080006f          	jal	x0,401c <I_bge_cg_cr_rs1_rs2_edges_offset_rs1val_0x7ffffffe_rs2val_0xaaaaaaaa+0x48>
3: # goes here during forward branch if taken
  bge x14, x17, 2b # backward branch, definitely taken
    4018:	ff1750e3          	bge	x14,x17,3ff8 <I_bge_cg_cr_rs1_rs2_edges_offset_rs1val_0x7ffffffe_rs2val_0xaaaaaaaa+0x24>
4: # done with test

# cr_rs1_rs2_edges_offset (Test source rs1 = 0x7ffffffe rs2 = 0x55555555)
  RVTEST_TESTDATA_LOAD_INT(x23, x22) # load rs1: x22 = 0x7ffffffe
    401c:	000bab03          	lw	x22,0(x23)
    4020:	004b8b93          	addi	x23,x23,4
  RVTEST_TESTDATA_LOAD_INT(x23, x24) # load rs2: x24 = 0x55555555
    4024:	000bac03          	lw	x24,0(x23)
    4028:	004b8b93          	addi	x23,x23,4

0000402c <I_bge_cg_cr_rs1_rs2_edges_offset_rs1val_0x7ffffffe_rs2val_0x55555555>:
0: # destination for backwards branch that is never taken
I_bge_cg_cr_rs1_rs2_edges_offset_rs1val_0x7ffffffe_rs2val_0x55555555:
  bge x22, x24, 3f # forward branch, if taken
    402c:	058b5263          	bge	x22,x24,4070 <I_bge_cg_cr_rs1_rs2_edges_offset_rs1val_0x7ffffffe_rs2val_0x55555555+0x44>
1: # goes here if not taken
  bge x22, x24, 0b # backward branch, never taken
    4030:	ff8b5ee3          	bge	x22,x24,402c <I_bge_cg_cr_rs1_rs2_edges_offset_rs1val_0x7ffffffe_rs2val_0x55555555>
  # Check if x0 contains the expected result. x15 is the signature ptr, x5 is the link ptr, x4 is a temp reg.
  RVTEST_SIGUPD(x15, x5, x4, x0, I_bge_cg_cr_rs1_rs2_edges_offset_rs1val_0x7ffffffe_rs2val_0x55555555, I_bge_cg_cr_rs1_rs2_edges_offset_rs1val_0x7ffffffe_rs2val_0x55555555_str)
    4034:	0007a203          	lw	x4,0(x15)
    4038:	00020863          	beq	x4,x0,4048 <I_bge_cg_cr_rs1_rs2_edges_offset_rs1val_0x7ffffffe_rs2val_0x55555555+0x1c>
    403c:	040062ef          	jal	x5,a07c <failedtest_x5_x4>
    4040:	0000402c          	.word	0x0000402c
    4044:	0000fa7d          	.word	0x0000fa7d
    4048:	00478793          	addi	x15,x15,4
  j 4f # done with test
    404c:	0280006f          	jal	x0,4074 <I_bge_cg_cr_rs1_rs2_edges_offset_rs1val_0x7ffffffe_rs2val_0x55555555+0x48>
2: # goes here during backward branch if taken
  LI(x22, 1)
    4050:	00100b13          	addi	x22,x0,1
  # Check if x22 contains the expected result. x15 is the signature ptr, x5 is the link ptr, x4 is a temp reg.
  RVTEST_SIGUPD(x15, x5, x4, x22, I_bge_cg_cr_rs1_rs2_edges_offset_rs1val_0x7ffffffe_rs2val_0x55555555, I_bge_cg_cr_rs1_rs2_edges_offset_rs1val_0x7ffffffe_rs2val_0x55555555_str) # signature 1 for taken
    4054:	0007a203          	lw	x4,0(x15)
    4058:	01620863          	beq	x4,x22,4068 <I_bge_cg_cr_rs1_rs2_edges_offset_rs1val_0x7ffffffe_rs2val_0x55555555+0x3c>
    405c:	020062ef          	jal	x5,a07c <failedtest_x5_x4>
    4060:	0000402c          	.word	0x0000402c
    4064:	0000fa7d          	.word	0x0000fa7d
    4068:	00478793          	addi	x15,x15,4
  j 4f # done with test
    406c:	0080006f          	jal	x0,4074 <I_bge_cg_cr_rs1_rs2_edges_offset_rs1val_0x7ffffffe_rs2val_0x55555555+0x48>
3: # goes here during forward branch if taken
  bge x22, x24, 2b # backward branch, definitely taken
    4070:	ff8b50e3          	bge	x22,x24,4050 <I_bge_cg_cr_rs1_rs2_edges_offset_rs1val_0x7ffffffe_rs2val_0x55555555+0x24>
4: # done with test

# cr_rs1_rs2_edges_offset (Test source rs1 = 0xffffffff rs2 = 0x00000000)
  RVTEST_TESTDATA_LOAD_INT(x23, x31) # load rs1: x31 = 0xffffffff
    4074:	000baf83          	lw	x31,0(x23)
    4078:	004b8b93          	addi	x23,x23,4
  RVTEST_TESTDATA_LOAD_INT(x23, x20) # load rs2: x20 = 0x00000000
    407c:	000baa03          	lw	x20,0(x23)
    4080:	004b8b93          	addi	x23,x23,4

00004084 <I_bge_cg_cr_rs1_rs2_edges_offset_rs1val_0xffffffff_rs2val_0x0>:
0: # destination for backwards branch that is never taken
I_bge_cg_cr_rs1_rs2_edges_offset_rs1val_0xffffffff_rs2val_0x0:
  bge x31, x20, 3f # forward branch, if taken
    4084:	054fd263          	bge	x31,x20,40c8 <I_bge_cg_cr_rs1_rs2_edges_offset_rs1val_0xffffffff_rs2val_0x0+0x44>
1: # goes here if not taken
  bge x31, x20, 0b # backward branch, never taken
    4088:	ff4fdee3          	bge	x31,x20,4084 <I_bge_cg_cr_rs1_rs2_edges_offset_rs1val_0xffffffff_rs2val_0x0>
  # Check if x0 contains the expected result. x15 is the signature ptr, x5 is the link ptr, x4 is a temp reg.
  RVTEST_SIGUPD(x15, x5, x4, x0, I_bge_cg_cr_rs1_rs2_edges_offset_rs1val_0xffffffff_rs2val_0x0, I_bge_cg_cr_rs1_rs2_edges_offset_rs1val_0xffffffff_rs2val_0x0_str)
    408c:	0007a203          	lw	x4,0(x15)
    4090:	00020863          	beq	x4,x0,40a0 <I_bge_cg_cr_rs1_rs2_edges_offset_rs1val_0xffffffff_rs2val_0x0+0x1c>
    4094:	7e9052ef          	jal	x5,a07c <failedtest_x5_x4>
    4098:	00004084          	.word	0x00004084
    409c:	0000fadf          	.word	0x0000fadf
    40a0:	00478793          	addi	x15,x15,4
  j 4f # done with test
    40a4:	0280006f          	jal	x0,40cc <I_bge_cg_cr_rs1_rs2_edges_offset_rs1val_0xffffffff_rs2val_0x0+0x48>
2: # goes here during backward branch if taken
  LI(x31, 1)
    40a8:	00100f93          	addi	x31,x0,1
  # Check if x31 contains the expected result. x15 is the signature ptr, x5 is the link ptr, x4 is a temp reg.
  RVTEST_SIGUPD(x15, x5, x4, x31, I_bge_cg_cr_rs1_rs2_edges_offset_rs1val_0xffffffff_rs2val_0x0, I_bge_cg_cr_rs1_rs2_edges_offset_rs1val_0xffffffff_rs2val_0x0_str) # signature 1 for taken
    40ac:	0007a203          	lw	x4,0(x15)
    40b0:	01f20863          	beq	x4,x31,40c0 <I_bge_cg_cr_rs1_rs2_edges_offset_rs1val_0xffffffff_rs2val_0x0+0x3c>
    40b4:	7c9052ef          	jal	x5,a07c <failedtest_x5_x4>
    40b8:	00004084          	.word	0x00004084
    40bc:	0000fadf          	.word	0x0000fadf
    40c0:	00478793          	addi	x15,x15,4
  j 4f # done with test
    40c4:	0080006f          	jal	x0,40cc <I_bge_cg_cr_rs1_rs2_edges_offset_rs1val_0xffffffff_rs2val_0x0+0x48>
3: # goes here during forward branch if taken
  bge x31, x20, 2b # backward branch, definitely taken
    40c8:	ff4fd0e3          	bge	x31,x20,40a8 <I_bge_cg_cr_rs1_rs2_edges_offset_rs1val_0xffffffff_rs2val_0x0+0x24>
4: # done with test

# cr_rs1_rs2_edges_offset (Test source rs1 = 0xffffffff rs2 = 0x00000001)
  RVTEST_TESTDATA_LOAD_INT(x23, x8) # load rs1: x8 = 0xffffffff
    40cc:	000ba403          	lw	x8,0(x23)
    40d0:	004b8b93          	addi	x23,x23,4
  RVTEST_TESTDATA_LOAD_INT(x23, x12) # load rs2: x12 = 0x00000001
    40d4:	000ba603          	lw	x12,0(x23)
    40d8:	004b8b93          	addi	x23,x23,4

000040dc <I_bge_cg_cr_rs1_rs2_edges_offset_rs1val_0xffffffff_rs2val_0x1>:
0: # destination for backwards branch that is never taken
I_bge_cg_cr_rs1_rs2_edges_offset_rs1val_0xffffffff_rs2val_0x1:
  bge x8, x12, 3f # forward branch, if taken
    40dc:	04c45263          	bge	x8,x12,4120 <I_bge_cg_cr_rs1_rs2_edges_offset_rs1val_0xffffffff_rs2val_0x1+0x44>
1: # goes here if not taken
  bge x8, x12, 0b # backward branch, never taken
    40e0:	fec45ee3          	bge	x8,x12,40dc <I_bge_cg_cr_rs1_rs2_edges_offset_rs1val_0xffffffff_rs2val_0x1>
  # Check if x0 contains the expected result. x15 is the signature ptr, x5 is the link ptr, x4 is a temp reg.
  RVTEST_SIGUPD(x15, x5, x4, x0, I_bge_cg_cr_rs1_rs2_edges_offset_rs1val_0xffffffff_rs2val_0x1, I_bge_cg_cr_rs1_rs2_edges_offset_rs1val_0xffffffff_rs2val_0x1_str)
    40e4:	0007a203          	lw	x4,0(x15)
    40e8:	00020863          	beq	x4,x0,40f8 <I_bge_cg_cr_rs1_rs2_edges_offset_rs1val_0xffffffff_rs2val_0x1+0x1c>
    40ec:	791052ef          	jal	x5,a07c <failedtest_x5_x4>
    40f0:	000040dc          	.word	0x000040dc
    40f4:	0000fb3a          	.word	0x0000fb3a
    40f8:	00478793          	addi	x15,x15,4
  j 4f # done with test
    40fc:	0280006f          	jal	x0,4124 <I_bge_cg_cr_rs1_rs2_edges_offset_rs1val_0xffffffff_rs2val_0x1+0x48>
2: # goes here during backward branch if taken
  LI(x8, 1)
    4100:	00100413          	addi	x8,x0,1
  # Check if x8 contains the expected result. x15 is the signature ptr, x5 is the link ptr, x4 is a temp reg.
  RVTEST_SIGUPD(x15, x5, x4, x8, I_bge_cg_cr_rs1_rs2_edges_offset_rs1val_0xffffffff_rs2val_0x1, I_bge_cg_cr_rs1_rs2_edges_offset_rs1val_0xffffffff_rs2val_0x1_str) # signature 1 for taken
    4104:	0007a203          	lw	x4,0(x15)
    4108:	00820863          	beq	x4,x8,4118 <I_bge_cg_cr_rs1_rs2_edges_offset_rs1val_0xffffffff_rs2val_0x1+0x3c>
    410c:	771052ef          	jal	x5,a07c <failedtest_x5_x4>
    4110:	000040dc          	.word	0x000040dc
    4114:	0000fb3a          	.word	0x0000fb3a
    4118:	00478793          	addi	x15,x15,4
  j 4f # done with test
    411c:	0080006f          	jal	x0,4124 <I_bge_cg_cr_rs1_rs2_edges_offset_rs1val_0xffffffff_rs2val_0x1+0x48>
3: # goes here during forward branch if taken
  bge x8, x12, 2b # backward branch, definitely taken
    4120:	fec450e3          	bge	x8,x12,4100 <I_bge_cg_cr_rs1_rs2_edges_offset_rs1val_0xffffffff_rs2val_0x1+0x24>
4: # done with test

# cr_rs1_rs2_edges_offset (Test source rs1 = 0xffffffff rs2 = 0x00000002)
  RVTEST_TESTDATA_LOAD_INT(x23, x17) # load rs1: x17 = 0xffffffff
    4124:	000ba883          	lw	x17,0(x23)
    4128:	004b8b93          	addi	x23,x23,4
  RVTEST_TESTDATA_LOAD_INT(x23, x25) # load rs2: x25 = 0x00000002
    412c:	000bac83          	lw	x25,0(x23)
    4130:	004b8b93          	addi	x23,x23,4

00004134 <I_bge_cg_cr_rs1_rs2_edges_offset_rs1val_0xffffffff_rs2val_0x2>:
0: # destination for backwards branch that is never taken
I_bge_cg_cr_rs1_rs2_edges_offset_rs1val_0xffffffff_rs2val_0x2:
  bge x17, x25, 3f # forward branch, if taken
    4134:	0598d263          	bge	x17,x25,4178 <I_bge_cg_cr_rs1_rs2_edges_offset_rs1val_0xffffffff_rs2val_0x2+0x44>
1: # goes here if not taken
  bge x17, x25, 0b # backward branch, never taken
    4138:	ff98dee3          	bge	x17,x25,4134 <I_bge_cg_cr_rs1_rs2_edges_offset_rs1val_0xffffffff_rs2val_0x2>
  # Check if x0 contains the expected result. x15 is the signature ptr, x5 is the link ptr, x4 is a temp reg.
  RVTEST_SIGUPD(x15, x5, x4, x0, I_bge_cg_cr_rs1_rs2_edges_offset_rs1val_0xffffffff_rs2val_0x2, I_bge_cg_cr_rs1_rs2_edges_offset_rs1val_0xffffffff_rs2val_0x2_str)
    413c:	0007a203          	lw	x4,0(x15)
    4140:	00020863          	beq	x4,x0,4150 <I_bge_cg_cr_rs1_rs2_edges_offset_rs1val_0xffffffff_rs2val_0x2+0x1c>
    4144:	739052ef          	jal	x5,a07c <failedtest_x5_x4>
    4148:	00004134          	.word	0x00004134
    414c:	0000fb95          	.word	0x0000fb95
    4150:	00478793          	addi	x15,x15,4
  j 4f # done with test
    4154:	0280006f          	jal	x0,417c <I_bge_cg_cr_rs1_rs2_edges_offset_rs1val_0xffffffff_rs2val_0x2+0x48>
2: # goes here during backward branch if taken
  LI(x17, 1)
    4158:	00100893          	addi	x17,x0,1
  # Check if x17 contains the expected result. x15 is the signature ptr, x5 is the link ptr, x4 is a temp reg.
  RVTEST_SIGUPD(x15, x5, x4, x17, I_bge_cg_cr_rs1_rs2_edges_offset_rs1val_0xffffffff_rs2val_0x2, I_bge_cg_cr_rs1_rs2_edges_offset_rs1val_0xffffffff_rs2val_0x2_str) # signature 1 for taken
    415c:	0007a203          	lw	x4,0(x15)
    4160:	01120863          	beq	x4,x17,4170 <I_bge_cg_cr_rs1_rs2_edges_offset_rs1val_0xffffffff_rs2val_0x2+0x3c>
    4164:	719052ef          	jal	x5,a07c <failedtest_x5_x4>
    4168:	00004134          	.word	0x00004134
    416c:	0000fb95          	.word	0x0000fb95
    4170:	00478793          	addi	x15,x15,4
  j 4f # done with test
    4174:	0080006f          	jal	x0,417c <I_bge_cg_cr_rs1_rs2_edges_offset_rs1val_0xffffffff_rs2val_0x2+0x48>
3: # goes here during forward branch if taken
  bge x17, x25, 2b # backward branch, definitely taken
    4178:	ff98d0e3          	bge	x17,x25,4158 <I_bge_cg_cr_rs1_rs2_edges_offset_rs1val_0xffffffff_rs2val_0x2+0x24>
4: # done with test

# cr_rs1_rs2_edges_offset (Test source rs1 = 0xffffffff rs2 = 0x80000000)
  RVTEST_TESTDATA_LOAD_INT(x23, x2) # load rs1: x2 = 0xffffffff
    417c:	000ba103          	lw	x2,0(x23)
    4180:	004b8b93          	addi	x23,x23,4
  RVTEST_TESTDATA_LOAD_INT(x23, x17) # load rs2: x17 = 0x80000000
    4184:	000ba883          	lw	x17,0(x23)
    4188:	004b8b93          	addi	x23,x23,4

0000418c <I_bge_cg_cr_rs1_rs2_edges_offset_rs1val_0xffffffff_rs2val_0x80000000>:
0: # destination for backwards branch that is never taken
I_bge_cg_cr_rs1_rs2_edges_offset_rs1val_0xffffffff_rs2val_0x80000000:
  bge x2, x17, 3f # forward branch, if taken
    418c:	05115263          	bge	x2,x17,41d0 <I_bge_cg_cr_rs1_rs2_edges_offset_rs1val_0xffffffff_rs2val_0x80000000+0x44>
1: # goes here if not taken
  bge x2, x17, 0b # backward branch, never taken
    4190:	ff115ee3          	bge	x2,x17,418c <I_bge_cg_cr_rs1_rs2_edges_offset_rs1val_0xffffffff_rs2val_0x80000000>
  # Check if x0 contains the expected result. x15 is the signature ptr, x5 is the link ptr, x4 is a temp reg.
  RVTEST_SIGUPD(x15, x5, x4, x0, I_bge_cg_cr_rs1_rs2_edges_offset_rs1val_0xffffffff_rs2val_0x80000000, I_bge_cg_cr_rs1_rs2_edges_offset_rs1val_0xffffffff_rs2val_0x80000000_str)
    4194:	0007a203          	lw	x4,0(x15)
    4198:	00020863          	beq	x4,x0,41a8 <I_bge_cg_cr_rs1_rs2_edges_offset_rs1val_0xffffffff_rs2val_0x80000000+0x1c>
    419c:	6e1052ef          	jal	x5,a07c <failedtest_x5_x4>
    41a0:	0000418c          	.word	0x0000418c
    41a4:	0000fbf0          	.word	0x0000fbf0
    41a8:	00478793          	addi	x15,x15,4
  j 4f # done with test
    41ac:	0280006f          	jal	x0,41d4 <I_bge_cg_cr_rs1_rs2_edges_offset_rs1val_0xffffffff_rs2val_0x80000000+0x48>
2: # goes here during backward branch if taken
  LI(x2, 1)
    41b0:	00100113          	addi	x2,x0,1
  # Check if x2 contains the expected result. x15 is the signature ptr, x5 is the link ptr, x4 is a temp reg.
  RVTEST_SIGUPD(x15, x5, x4, x2, I_bge_cg_cr_rs1_rs2_edges_offset_rs1val_0xffffffff_rs2val_0x80000000, I_bge_cg_cr_rs1_rs2_edges_offset_rs1val_0xffffffff_rs2val_0x80000000_str) # signature 1 for taken
    41b4:	0007a203          	lw	x4,0(x15)
    41b8:	00220863          	beq	x4,x2,41c8 <I_bge_cg_cr_rs1_rs2_edges_offset_rs1val_0xffffffff_rs2val_0x80000000+0x3c>
    41bc:	6c1052ef          	jal	x5,a07c <failedtest_x5_x4>
    41c0:	0000418c          	.word	0x0000418c
    41c4:	0000fbf0          	.word	0x0000fbf0
    41c8:	00478793          	addi	x15,x15,4
  j 4f # done with test
    41cc:	0080006f          	jal	x0,41d4 <I_bge_cg_cr_rs1_rs2_edges_offset_rs1val_0xffffffff_rs2val_0x80000000+0x48>
3: # goes here during forward branch if taken
  bge x2, x17, 2b # backward branch, definitely taken
    41d0:	ff1150e3          	bge	x2,x17,41b0 <I_bge_cg_cr_rs1_rs2_edges_offset_rs1val_0xffffffff_rs2val_0x80000000+0x24>
4: # done with test

# cr_rs1_rs2_edges_offset (Test source rs1 = 0xffffffff rs2 = 0x80000001)
  RVTEST_TESTDATA_LOAD_INT(x23, x16) # load rs1: x16 = 0xffffffff
    41d4:	000ba803          	lw	x16,0(x23)
    41d8:	004b8b93          	addi	x23,x23,4
  RVTEST_TESTDATA_LOAD_INT(x23, x24) # load rs2: x24 = 0x80000001
    41dc:	000bac03          	lw	x24,0(x23)
    41e0:	004b8b93          	addi	x23,x23,4

000041e4 <I_bge_cg_cr_rs1_rs2_edges_offset_rs1val_0xffffffff_rs2val_0x80000001>:
0: # destination for backwards branch that is never taken
I_bge_cg_cr_rs1_rs2_edges_offset_rs1val_0xffffffff_rs2val_0x80000001:
  bge x16, x24, 3f # forward branch, if taken
    41e4:	05885263          	bge	x16,x24,4228 <I_bge_cg_cr_rs1_rs2_edges_offset_rs1val_0xffffffff_rs2val_0x80000001+0x44>
1: # goes here if not taken
  bge x16, x24, 0b # backward branch, never taken
    41e8:	ff885ee3          	bge	x16,x24,41e4 <I_bge_cg_cr_rs1_rs2_edges_offset_rs1val_0xffffffff_rs2val_0x80000001>
  # Check if x0 contains the expected result. x15 is the signature ptr, x5 is the link ptr, x4 is a temp reg.
  RVTEST_SIGUPD(x15, x5, x4, x0, I_bge_cg_cr_rs1_rs2_edges_offset_rs1val_0xffffffff_rs2val_0x80000001, I_bge_cg_cr_rs1_rs2_edges_offset_rs1val_0xffffffff_rs2val_0x80000001_str)
    41ec:	0007a203          	lw	x4,0(x15)
    41f0:	00020863          	beq	x4,x0,4200 <I_bge_cg_cr_rs1_rs2_edges_offset_rs1val_0xffffffff_rs2val_0x80000001+0x1c>
    41f4:	689052ef          	jal	x5,a07c <failedtest_x5_x4>
    41f8:	000041e4          	.word	0x000041e4
    41fc:	0000fc52          	.word	0x0000fc52
    4200:	00478793          	addi	x15,x15,4
  j 4f # done with test
    4204:	0280006f          	jal	x0,422c <I_bge_cg_cr_rs1_rs2_edges_offset_rs1val_0xffffffff_rs2val_0x80000001+0x48>
2: # goes here during backward branch if taken
  LI(x16, 1)
    4208:	00100813          	addi	x16,x0,1
  # Check if x16 contains the expected result. x15 is the signature ptr, x5 is the link ptr, x4 is a temp reg.
  RVTEST_SIGUPD(x15, x5, x4, x16, I_bge_cg_cr_rs1_rs2_edges_offset_rs1val_0xffffffff_rs2val_0x80000001, I_bge_cg_cr_rs1_rs2_edges_offset_rs1val_0xffffffff_rs2val_0x80000001_str) # signature 1 for taken
    420c:	0007a203          	lw	x4,0(x15)
    4210:	01020863          	beq	x4,x16,4220 <I_bge_cg_cr_rs1_rs2_edges_offset_rs1val_0xffffffff_rs2val_0x80000001+0x3c>
    4214:	669052ef          	jal	x5,a07c <failedtest_x5_x4>
    4218:	000041e4          	.word	0x000041e4
    421c:	0000fc52          	.word	0x0000fc52
    4220:	00478793          	addi	x15,x15,4
  j 4f # done with test
    4224:	0080006f          	jal	x0,422c <I_bge_cg_cr_rs1_rs2_edges_offset_rs1val_0xffffffff_rs2val_0x80000001+0x48>
3: # goes here during forward branch if taken
  bge x16, x24, 2b # backward branch, definitely taken
    4228:	ff8850e3          	bge	x16,x24,4208 <I_bge_cg_cr_rs1_rs2_edges_offset_rs1val_0xffffffff_rs2val_0x80000001+0x24>
4: # done with test

# cr_rs1_rs2_edges_offset (Test source rs1 = 0xffffffff rs2 = 0x7fffffff)
  RVTEST_TESTDATA_LOAD_INT(x23, x26) # load rs1: x26 = 0xffffffff
    422c:	000bad03          	lw	x26,0(x23)
    4230:	004b8b93          	addi	x23,x23,4
  RVTEST_TESTDATA_LOAD_INT(x23, x31) # load rs2: x31 = 0x7fffffff
    4234:	000baf83          	lw	x31,0(x23)
    4238:	004b8b93          	addi	x23,x23,4

0000423c <I_bge_cg_cr_rs1_rs2_edges_offset_rs1val_0xffffffff_rs2val_0x7fffffff>:
0: # destination for backwards branch that is never taken
I_bge_cg_cr_rs1_rs2_edges_offset_rs1val_0xffffffff_rs2val_0x7fffffff:
  bge x26, x31, 3f # forward branch, if taken
    423c:	05fd5263          	bge	x26,x31,4280 <I_bge_cg_cr_rs1_rs2_edges_offset_rs1val_0xffffffff_rs2val_0x7fffffff+0x44>
1: # goes here if not taken
  bge x26, x31, 0b # backward branch, never taken
    4240:	fffd5ee3          	bge	x26,x31,423c <I_bge_cg_cr_rs1_rs2_edges_offset_rs1val_0xffffffff_rs2val_0x7fffffff>
  # Check if x0 contains the expected result. x15 is the signature ptr, x5 is the link ptr, x4 is a temp reg.
  RVTEST_SIGUPD(x15, x5, x4, x0, I_bge_cg_cr_rs1_rs2_edges_offset_rs1val_0xffffffff_rs2val_0x7fffffff, I_bge_cg_cr_rs1_rs2_edges_offset_rs1val_0xffffffff_rs2val_0x7fffffff_str)
    4244:	0007a203          	lw	x4,0(x15)
    4248:	00020863          	beq	x4,x0,4258 <I_bge_cg_cr_rs1_rs2_edges_offset_rs1val_0xffffffff_rs2val_0x7fffffff+0x1c>
    424c:	631052ef          	jal	x5,a07c <failedtest_x5_x4>
    4250:	0000423c          	.word	0x0000423c
    4254:	0000fcb4          	.word	0x0000fcb4
    4258:	00478793          	addi	x15,x15,4
  j 4f # done with test
    425c:	0280006f          	jal	x0,4284 <I_bge_cg_cr_rs1_rs2_edges_offset_rs1val_0xffffffff_rs2val_0x7fffffff+0x48>
2: # goes here during backward branch if taken
  LI(x26, 1)
    4260:	00100d13          	addi	x26,x0,1
  # Check if x26 contains the expected result. x15 is the signature ptr, x5 is the link ptr, x4 is a temp reg.
  RVTEST_SIGUPD(x15, x5, x4, x26, I_bge_cg_cr_rs1_rs2_edges_offset_rs1val_0xffffffff_rs2val_0x7fffffff, I_bge_cg_cr_rs1_rs2_edges_offset_rs1val_0xffffffff_rs2val_0x7fffffff_str) # signature 1 for taken
    4264:	0007a203          	lw	x4,0(x15)
    4268:	01a20863          	beq	x4,x26,4278 <I_bge_cg_cr_rs1_rs2_edges_offset_rs1val_0xffffffff_rs2val_0x7fffffff+0x3c>
    426c:	611052ef          	jal	x5,a07c <failedtest_x5_x4>
    4270:	0000423c          	.word	0x0000423c
    4274:	0000fcb4          	.word	0x0000fcb4
    4278:	00478793          	addi	x15,x15,4
  j 4f # done with test
    427c:	0080006f          	jal	x0,4284 <I_bge_cg_cr_rs1_rs2_edges_offset_rs1val_0xffffffff_rs2val_0x7fffffff+0x48>
3: # goes here during forward branch if taken
  bge x26, x31, 2b # backward branch, definitely taken
    4280:	fffd50e3          	bge	x26,x31,4260 <I_bge_cg_cr_rs1_rs2_edges_offset_rs1val_0xffffffff_rs2val_0x7fffffff+0x24>
4: # done with test

# cr_rs1_rs2_edges_offset (Test source rs1 = 0xffffffff rs2 = 0x7ffffffe)
  RVTEST_TESTDATA_LOAD_INT(x23, x29) # load rs1: x29 = 0xffffffff
    4284:	000bae83          	lw	x29,0(x23)
    4288:	004b8b93          	addi	x23,x23,4
  RVTEST_TESTDATA_LOAD_INT(x23, x12) # load rs2: x12 = 0x7ffffffe
    428c:	000ba603          	lw	x12,0(x23)
    4290:	004b8b93          	addi	x23,x23,4

00004294 <I_bge_cg_cr_rs1_rs2_edges_offset_rs1val_0xffffffff_rs2val_0x7ffffffe>:
0: # destination for backwards branch that is never taken
I_bge_cg_cr_rs1_rs2_edges_offset_rs1val_0xffffffff_rs2val_0x7ffffffe:
  bge x29, x12, 3f # forward branch, if taken
    4294:	04ced263          	bge	x29,x12,42d8 <I_bge_cg_cr_rs1_rs2_edges_offset_rs1val_0xffffffff_rs2val_0x7ffffffe+0x44>
1: # goes here if not taken
  bge x29, x12, 0b # backward branch, never taken
    4298:	fecedee3          	bge	x29,x12,4294 <I_bge_cg_cr_rs1_rs2_edges_offset_rs1val_0xffffffff_rs2val_0x7ffffffe>
  # Check if x0 contains the expected result. x15 is the signature ptr, x5 is the link ptr, x4 is a temp reg.
  RVTEST_SIGUPD(x15, x5, x4, x0, I_bge_cg_cr_rs1_rs2_edges_offset_rs1val_0xffffffff_rs2val_0x7ffffffe, I_bge_cg_cr_rs1_rs2_edges_offset_rs1val_0xffffffff_rs2val_0x7ffffffe_str)
    429c:	0007a203          	lw	x4,0(x15)
    42a0:	00020863          	beq	x4,x0,42b0 <I_bge_cg_cr_rs1_rs2_edges_offset_rs1val_0xffffffff_rs2val_0x7ffffffe+0x1c>
    42a4:	5d9052ef          	jal	x5,a07c <failedtest_x5_x4>
    42a8:	00004294          	.word	0x00004294
    42ac:	0000fd16          	.word	0x0000fd16
    42b0:	00478793          	addi	x15,x15,4
  j 4f # done with test
    42b4:	0280006f          	jal	x0,42dc <I_bge_cg_cr_rs1_rs2_edges_offset_rs1val_0xffffffff_rs2val_0x7ffffffe+0x48>
2: # goes here during backward branch if taken
  LI(x29, 1)
    42b8:	00100e93          	addi	x29,x0,1
  # Check if x29 contains the expected result. x15 is the signature ptr, x5 is the link ptr, x4 is a temp reg.
  RVTEST_SIGUPD(x15, x5, x4, x29, I_bge_cg_cr_rs1_rs2_edges_offset_rs1val_0xffffffff_rs2val_0x7ffffffe, I_bge_cg_cr_rs1_rs2_edges_offset_rs1val_0xffffffff_rs2val_0x7ffffffe_str) # signature 1 for taken
    42bc:	0007a203          	lw	x4,0(x15)
    42c0:	01d20863          	beq	x4,x29,42d0 <I_bge_cg_cr_rs1_rs2_edges_offset_rs1val_0xffffffff_rs2val_0x7ffffffe+0x3c>
    42c4:	5b9052ef          	jal	x5,a07c <failedtest_x5_x4>
    42c8:	00004294          	.word	0x00004294
    42cc:	0000fd16          	.word	0x0000fd16
    42d0:	00478793          	addi	x15,x15,4
  j 4f # done with test
    42d4:	0080006f          	jal	x0,42dc <I_bge_cg_cr_rs1_rs2_edges_offset_rs1val_0xffffffff_rs2val_0x7ffffffe+0x48>
3: # goes here during forward branch if taken
  bge x29, x12, 2b # backward branch, definitely taken
    42d8:	feced0e3          	bge	x29,x12,42b8 <I_bge_cg_cr_rs1_rs2_edges_offset_rs1val_0xffffffff_rs2val_0x7ffffffe+0x24>
4: # done with test

# cr_rs1_rs2_edges_offset (Test source rs1 = 0xffffffff rs2 = 0xffffffff)
  RVTEST_TESTDATA_LOAD_INT(x23, x25) # load rs1: x25 = 0xffffffff
    42dc:	000bac83          	lw	x25,0(x23)
    42e0:	004b8b93          	addi	x23,x23,4
  RVTEST_TESTDATA_LOAD_INT(x23, x24) # load rs2: x24 = 0xffffffff
    42e4:	000bac03          	lw	x24,0(x23)
    42e8:	004b8b93          	addi	x23,x23,4

000042ec <I_bge_cg_cr_rs1_rs2_edges_offset_rs1val_0xffffffff_rs2val_0xffffffff>:
0: # destination for backwards branch that is never taken
I_bge_cg_cr_rs1_rs2_edges_offset_rs1val_0xffffffff_rs2val_0xffffffff:
  bge x25, x24, 3f # forward branch, if taken
    42ec:	058cd263          	bge	x25,x24,4330 <I_bge_cg_cr_rs1_rs2_edges_offset_rs1val_0xffffffff_rs2val_0xffffffff+0x44>
1: # goes here if not taken
  bge x25, x24, 0b # backward branch, never taken
    42f0:	ff8cdee3          	bge	x25,x24,42ec <I_bge_cg_cr_rs1_rs2_edges_offset_rs1val_0xffffffff_rs2val_0xffffffff>
  # Check if x0 contains the expected result. x15 is the signature ptr, x5 is the link ptr, x4 is a temp reg.
  RVTEST_SIGUPD(x15, x5, x4, x0, I_bge_cg_cr_rs1_rs2_edges_offset_rs1val_0xffffffff_rs2val_0xffffffff, I_bge_cg_cr_rs1_rs2_edges_offset_rs1val_0xffffffff_rs2val_0xffffffff_str)
    42f4:	0007a203          	lw	x4,0(x15)
    42f8:	00020863          	beq	x4,x0,4308 <I_bge_cg_cr_rs1_rs2_edges_offset_rs1val_0xffffffff_rs2val_0xffffffff+0x1c>
    42fc:	581052ef          	jal	x5,a07c <failedtest_x5_x4>
    4300:	000042ec          	.word	0x000042ec
    4304:	0000fd78          	.word	0x0000fd78
    4308:	00478793          	addi	x15,x15,4
  j 4f # done with test
    430c:	0280006f          	jal	x0,4334 <I_bge_cg_cr_rs1_rs2_edges_offset_rs1val_0xffffffff_rs2val_0xffffffff+0x48>
2: # goes here during backward branch if taken
  LI(x25, 1)
    4310:	00100c93          	addi	x25,x0,1
  # Check if x25 contains the expected result. x15 is the signature ptr, x5 is the link ptr, x4 is a temp reg.
  RVTEST_SIGUPD(x15, x5, x4, x25, I_bge_cg_cr_rs1_rs2_edges_offset_rs1val_0xffffffff_rs2val_0xffffffff, I_bge_cg_cr_rs1_rs2_edges_offset_rs1val_0xffffffff_rs2val_0xffffffff_str) # signature 1 for taken
    4314:	0007a203          	lw	x4,0(x15)
    4318:	01920863          	beq	x4,x25,4328 <I_bge_cg_cr_rs1_rs2_edges_offset_rs1val_0xffffffff_rs2val_0xffffffff+0x3c>
    431c:	561052ef          	jal	x5,a07c <failedtest_x5_x4>
    4320:	000042ec          	.word	0x000042ec
    4324:	0000fd78          	.word	0x0000fd78
    4328:	00478793          	addi	x15,x15,4
  j 4f # done with test
    432c:	0080006f          	jal	x0,4334 <I_bge_cg_cr_rs1_rs2_edges_offset_rs1val_0xffffffff_rs2val_0xffffffff+0x48>
3: # goes here during forward branch if taken
  bge x25, x24, 2b # backward branch, definitely taken
    4330:	ff8cd0e3          	bge	x25,x24,4310 <I_bge_cg_cr_rs1_rs2_edges_offset_rs1val_0xffffffff_rs2val_0xffffffff+0x24>
4: # done with test

# cr_rs1_rs2_edges_offset (Test source rs1 = 0xffffffff rs2 = 0xfffffffe)
  RVTEST_TESTDATA_LOAD_INT(x23, x19) # load rs1: x19 = 0xffffffff
    4334:	000ba983          	lw	x19,0(x23)
    4338:	004b8b93          	addi	x23,x23,4
  RVTEST_TESTDATA_LOAD_INT(x23, x24) # load rs2: x24 = 0xfffffffe
    433c:	000bac03          	lw	x24,0(x23)
    4340:	004b8b93          	addi	x23,x23,4

00004344 <I_bge_cg_cr_rs1_rs2_edges_offset_rs1val_0xffffffff_rs2val_0xfffffffe>:
0: # destination for backwards branch that is never taken
I_bge_cg_cr_rs1_rs2_edges_offset_rs1val_0xffffffff_rs2val_0xfffffffe:
  bge x19, x24, 3f # forward branch, if taken
    4344:	0589d263          	bge	x19,x24,4388 <I_bge_cg_cr_rs1_rs2_edges_offset_rs1val_0xffffffff_rs2val_0xfffffffe+0x44>
1: # goes here if not taken
  bge x19, x24, 0b # backward branch, never taken
    4348:	ff89dee3          	bge	x19,x24,4344 <I_bge_cg_cr_rs1_rs2_edges_offset_rs1val_0xffffffff_rs2val_0xfffffffe>
  # Check if x0 contains the expected result. x15 is the signature ptr, x5 is the link ptr, x4 is a temp reg.
  RVTEST_SIGUPD(x15, x5, x4, x0, I_bge_cg_cr_rs1_rs2_edges_offset_rs1val_0xffffffff_rs2val_0xfffffffe, I_bge_cg_cr_rs1_rs2_edges_offset_rs1val_0xffffffff_rs2val_0xfffffffe_str)
    434c:	0007a203          	lw	x4,0(x15)
    4350:	00020863          	beq	x4,x0,4360 <I_bge_cg_cr_rs1_rs2_edges_offset_rs1val_0xffffffff_rs2val_0xfffffffe+0x1c>
    4354:	529052ef          	jal	x5,a07c <failedtest_x5_x4>
    4358:	00004344          	.word	0x00004344
    435c:	0000fdda          	.word	0x0000fdda
    4360:	00478793          	addi	x15,x15,4
  j 4f # done with test
    4364:	0280006f          	jal	x0,438c <I_bge_cg_cr_rs1_rs2_edges_offset_rs1val_0xffffffff_rs2val_0xfffffffe+0x48>
2: # goes here during backward branch if taken
  LI(x19, 1)
    4368:	00100993          	addi	x19,x0,1
  # Check if x19 contains the expected result. x15 is the signature ptr, x5 is the link ptr, x4 is a temp reg.
  RVTEST_SIGUPD(x15, x5, x4, x19, I_bge_cg_cr_rs1_rs2_edges_offset_rs1val_0xffffffff_rs2val_0xfffffffe, I_bge_cg_cr_rs1_rs2_edges_offset_rs1val_0xffffffff_rs2val_0xfffffffe_str) # signature 1 for taken
    436c:	0007a203          	lw	x4,0(x15)
    4370:	01320863          	beq	x4,x19,4380 <I_bge_cg_cr_rs1_rs2_edges_offset_rs1val_0xffffffff_rs2val_0xfffffffe+0x3c>
    4374:	509052ef          	jal	x5,a07c <failedtest_x5_x4>
    4378:	00004344          	.word	0x00004344
    437c:	0000fdda          	.word	0x0000fdda
    4380:	00478793          	addi	x15,x15,4
  j 4f # done with test
    4384:	0080006f          	jal	x0,438c <I_bge_cg_cr_rs1_rs2_edges_offset_rs1val_0xffffffff_rs2val_0xfffffffe+0x48>
3: # goes here during forward branch if taken
  bge x19, x24, 2b # backward branch, definitely taken
    4388:	ff89d0e3          	bge	x19,x24,4368 <I_bge_cg_cr_rs1_rs2_edges_offset_rs1val_0xffffffff_rs2val_0xfffffffe+0x24>
4: # done with test

# cr_rs1_rs2_edges_offset (Test source rs1 = 0xffffffff rs2 = 0x5bbc8872)
  RVTEST_TESTDATA_LOAD_INT(x23, x10) # load rs1: x10 = 0xffffffff
    438c:	000ba503          	lw	x10,0(x23)
    4390:	004b8b93          	addi	x23,x23,4
  RVTEST_TESTDATA_LOAD_INT(x23, x9) # load rs2: x9 = 0x5bbc8872
    4394:	000ba483          	lw	x9,0(x23)
    4398:	004b8b93          	addi	x23,x23,4

0000439c <I_bge_cg_cr_rs1_rs2_edges_offset_rs1val_0xffffffff_rs2val_0x5bbc8872>:
0: # destination for backwards branch that is never taken
I_bge_cg_cr_rs1_rs2_edges_offset_rs1val_0xffffffff_rs2val_0x5bbc8872:
  bge x10, x9, 3f # forward branch, if taken
    439c:	04955263          	bge	x10,x9,43e0 <I_bge_cg_cr_rs1_rs2_edges_offset_rs1val_0xffffffff_rs2val_0x5bbc8872+0x44>
1: # goes here if not taken
  bge x10, x9, 0b # backward branch, never taken
    43a0:	fe955ee3          	bge	x10,x9,439c <I_bge_cg_cr_rs1_rs2_edges_offset_rs1val_0xffffffff_rs2val_0x5bbc8872>
  # Check if x0 contains the expected result. x15 is the signature ptr, x5 is the link ptr, x4 is a temp reg.
  RVTEST_SIGUPD(x15, x5, x4, x0, I_bge_cg_cr_rs1_rs2_edges_offset_rs1val_0xffffffff_rs2val_0x5bbc8872, I_bge_cg_cr_rs1_rs2_edges_offset_rs1val_0xffffffff_rs2val_0x5bbc8872_str)
    43a4:	0007a203          	lw	x4,0(x15)
    43a8:	00020863          	beq	x4,x0,43b8 <I_bge_cg_cr_rs1_rs2_edges_offset_rs1val_0xffffffff_rs2val_0x5bbc8872+0x1c>
    43ac:	4d1052ef          	jal	x5,a07c <failedtest_x5_x4>
    43b0:	0000439c          	.word	0x0000439c
    43b4:	0000fe3c          	.word	0x0000fe3c
    43b8:	00478793          	addi	x15,x15,4
  j 4f # done with test
    43bc:	0280006f          	jal	x0,43e4 <I_bge_cg_cr_rs1_rs2_edges_offset_rs1val_0xffffffff_rs2val_0x5bbc8872+0x48>
2: # goes here during backward branch if taken
  LI(x10, 1)
    43c0:	00100513          	addi	x10,x0,1
  # Check if x10 contains the expected result. x15 is the signature ptr, x5 is the link ptr, x4 is a temp reg.
  RVTEST_SIGUPD(x15, x5, x4, x10, I_bge_cg_cr_rs1_rs2_edges_offset_rs1val_0xffffffff_rs2val_0x5bbc8872, I_bge_cg_cr_rs1_rs2_edges_offset_rs1val_0xffffffff_rs2val_0x5bbc8872_str) # signature 1 for taken
    43c4:	0007a203          	lw	x4,0(x15)
    43c8:	00a20863          	beq	x4,x10,43d8 <I_bge_cg_cr_rs1_rs2_edges_offset_rs1val_0xffffffff_rs2val_0x5bbc8872+0x3c>
    43cc:	4b1052ef          	jal	x5,a07c <failedtest_x5_x4>
    43d0:	0000439c          	.word	0x0000439c
    43d4:	0000fe3c          	.word	0x0000fe3c
    43d8:	00478793          	addi	x15,x15,4
  j 4f # done with test
    43dc:	0080006f          	jal	x0,43e4 <I_bge_cg_cr_rs1_rs2_edges_offset_rs1val_0xffffffff_rs2val_0x5bbc8872+0x48>
3: # goes here during forward branch if taken
  bge x10, x9, 2b # backward branch, definitely taken
    43e0:	fe9550e3          	bge	x10,x9,43c0 <I_bge_cg_cr_rs1_rs2_edges_offset_rs1val_0xffffffff_rs2val_0x5bbc8872+0x24>
4: # done with test

# cr_rs1_rs2_edges_offset (Test source rs1 = 0xffffffff rs2 = 0xaaaaaaaa)
  RVTEST_TESTDATA_LOAD_INT(x23, x18) # load rs1: x18 = 0xffffffff
    43e4:	000ba903          	lw	x18,0(x23)
    43e8:	004b8b93          	addi	x23,x23,4
  RVTEST_TESTDATA_LOAD_INT(x23, x25) # load rs2: x25 = 0xaaaaaaaa
    43ec:	000bac83          	lw	x25,0(x23)
    43f0:	004b8b93          	addi	x23,x23,4

000043f4 <I_bge_cg_cr_rs1_rs2_edges_offset_rs1val_0xffffffff_rs2val_0xaaaaaaaa>:
0: # destination for backwards branch that is never taken
I_bge_cg_cr_rs1_rs2_edges_offset_rs1val_0xffffffff_rs2val_0xaaaaaaaa:
  bge x18, x25, 3f # forward branch, if taken
    43f4:	05995263          	bge	x18,x25,4438 <I_bge_cg_cr_rs1_rs2_edges_offset_rs1val_0xffffffff_rs2val_0xaaaaaaaa+0x44>
1: # goes here if not taken
  bge x18, x25, 0b # backward branch, never taken
    43f8:	ff995ee3          	bge	x18,x25,43f4 <I_bge_cg_cr_rs1_rs2_edges_offset_rs1val_0xffffffff_rs2val_0xaaaaaaaa>
  # Check if x0 contains the expected result. x15 is the signature ptr, x5 is the link ptr, x4 is a temp reg.
  RVTEST_SIGUPD(x15, x5, x4, x0, I_bge_cg_cr_rs1_rs2_edges_offset_rs1val_0xffffffff_rs2val_0xaaaaaaaa, I_bge_cg_cr_rs1_rs2_edges_offset_rs1val_0xffffffff_rs2val_0xaaaaaaaa_str)
    43fc:	0007a203          	lw	x4,0(x15)
    4400:	00020863          	beq	x4,x0,4410 <I_bge_cg_cr_rs1_rs2_edges_offset_rs1val_0xffffffff_rs2val_0xaaaaaaaa+0x1c>
    4404:	479052ef          	jal	x5,a07c <failedtest_x5_x4>
    4408:	000043f4          	.word	0x000043f4
    440c:	0000fe9e          	.word	0x0000fe9e
    4410:	00478793          	addi	x15,x15,4
  j 4f # done with test
    4414:	0280006f          	jal	x0,443c <I_bge_cg_cr_rs1_rs2_edges_offset_rs1val_0xffffffff_rs2val_0xaaaaaaaa+0x48>
2: # goes here during backward branch if taken
  LI(x18, 1)
    4418:	00100913          	addi	x18,x0,1
  # Check if x18 contains the expected result. x15 is the signature ptr, x5 is the link ptr, x4 is a temp reg.
  RVTEST_SIGUPD(x15, x5, x4, x18, I_bge_cg_cr_rs1_rs2_edges_offset_rs1val_0xffffffff_rs2val_0xaaaaaaaa, I_bge_cg_cr_rs1_rs2_edges_offset_rs1val_0xffffffff_rs2val_0xaaaaaaaa_str) # signature 1 for taken
    441c:	0007a203          	lw	x4,0(x15)
    4420:	01220863          	beq	x4,x18,4430 <I_bge_cg_cr_rs1_rs2_edges_offset_rs1val_0xffffffff_rs2val_0xaaaaaaaa+0x3c>
    4424:	459052ef          	jal	x5,a07c <failedtest_x5_x4>
    4428:	000043f4          	.word	0x000043f4
    442c:	0000fe9e          	.word	0x0000fe9e
    4430:	00478793          	addi	x15,x15,4
  j 4f # done with test
    4434:	0080006f          	jal	x0,443c <I_bge_cg_cr_rs1_rs2_edges_offset_rs1val_0xffffffff_rs2val_0xaaaaaaaa+0x48>
3: # goes here during forward branch if taken
  bge x18, x25, 2b # backward branch, definitely taken
    4438:	ff9950e3          	bge	x18,x25,4418 <I_bge_cg_cr_rs1_rs2_edges_offset_rs1val_0xffffffff_rs2val_0xaaaaaaaa+0x24>
4: # done with test

# cr_rs1_rs2_edges_offset (Test source rs1 = 0xffffffff rs2 = 0x55555555)
  RVTEST_TESTDATA_LOAD_INT(x23, x7) # load rs1: x7 = 0xffffffff
    443c:	000ba383          	lw	x7,0(x23)
    4440:	004b8b93          	addi	x23,x23,4
  RVTEST_TESTDATA_LOAD_INT(x23, x2) # load rs2: x2 = 0x55555555
    4444:	000ba103          	lw	x2,0(x23)
    4448:	004b8b93          	addi	x23,x23,4

0000444c <I_bge_cg_cr_rs1_rs2_edges_offset_rs1val_0xffffffff_rs2val_0x55555555>:
0: # destination for backwards branch that is never taken
I_bge_cg_cr_rs1_rs2_edges_offset_rs1val_0xffffffff_rs2val_0x55555555:
  bge x7, x2, 3f # forward branch, if taken
    444c:	0423d263          	bge	x7,x2,4490 <I_bge_cg_cr_rs1_rs2_edges_offset_rs1val_0xffffffff_rs2val_0x55555555+0x44>
1: # goes here if not taken
  bge x7, x2, 0b # backward branch, never taken
    4450:	fe23dee3          	bge	x7,x2,444c <I_bge_cg_cr_rs1_rs2_edges_offset_rs1val_0xffffffff_rs2val_0x55555555>
  # Check if x0 contains the expected result. x15 is the signature ptr, x5 is the link ptr, x4 is a temp reg.
  RVTEST_SIGUPD(x15, x5, x4, x0, I_bge_cg_cr_rs1_rs2_edges_offset_rs1val_0xffffffff_rs2val_0x55555555, I_bge_cg_cr_rs1_rs2_edges_offset_rs1val_0xffffffff_rs2val_0x55555555_str)
    4454:	0007a203          	lw	x4,0(x15)
    4458:	00020863          	beq	x4,x0,4468 <I_bge_cg_cr_rs1_rs2_edges_offset_rs1val_0xffffffff_rs2val_0x55555555+0x1c>
    445c:	421052ef          	jal	x5,a07c <failedtest_x5_x4>
    4460:	0000444c          	.word	0x0000444c
    4464:	0000ff00          	.word	0x0000ff00
    4468:	00478793          	addi	x15,x15,4
  j 4f # done with test
    446c:	0280006f          	jal	x0,4494 <I_bge_cg_cr_rs1_rs2_edges_offset_rs1val_0xffffffff_rs2val_0x55555555+0x48>
2: # goes here during backward branch if taken
  LI(x7, 1)
    4470:	00100393          	addi	x7,x0,1
  # Check if x7 contains the expected result. x15 is the signature ptr, x5 is the link ptr, x4 is a temp reg.
  RVTEST_SIGUPD(x15, x5, x4, x7, I_bge_cg_cr_rs1_rs2_edges_offset_rs1val_0xffffffff_rs2val_0x55555555, I_bge_cg_cr_rs1_rs2_edges_offset_rs1val_0xffffffff_rs2val_0x55555555_str) # signature 1 for taken
    4474:	0007a203          	lw	x4,0(x15)
    4478:	00720863          	beq	x4,x7,4488 <I_bge_cg_cr_rs1_rs2_edges_offset_rs1val_0xffffffff_rs2val_0x55555555+0x3c>
    447c:	401052ef          	jal	x5,a07c <failedtest_x5_x4>
    4480:	0000444c          	.word	0x0000444c
    4484:	0000ff00          	.word	0x0000ff00
    4488:	00478793          	addi	x15,x15,4
  j 4f # done with test
    448c:	0080006f          	jal	x0,4494 <I_bge_cg_cr_rs1_rs2_edges_offset_rs1val_0xffffffff_rs2val_0x55555555+0x48>
3: # goes here during forward branch if taken
  bge x7, x2, 2b # backward branch, definitely taken
    4490:	fe23d0e3          	bge	x7,x2,4470 <I_bge_cg_cr_rs1_rs2_edges_offset_rs1val_0xffffffff_rs2val_0x55555555+0x24>
4: # done with test

# cr_rs1_rs2_edges_offset (Test source rs1 = 0xfffffffe rs2 = 0x00000000)
  RVTEST_TESTDATA_LOAD_INT(x23, x19) # load rs1: x19 = 0xfffffffe
    4494:	000ba983          	lw	x19,0(x23)
    4498:	004b8b93          	addi	x23,x23,4
  RVTEST_TESTDATA_LOAD_INT(x23, x10) # load rs2: x10 = 0x00000000
    449c:	000ba503          	lw	x10,0(x23)
    44a0:	004b8b93          	addi	x23,x23,4

000044a4 <I_bge_cg_cr_rs1_rs2_edges_offset_rs1val_0xfffffffe_rs2val_0x0>:
0: # destination for backwards branch that is never taken
I_bge_cg_cr_rs1_rs2_edges_offset_rs1val_0xfffffffe_rs2val_0x0:
  bge x19, x10, 3f # forward branch, if taken
    44a4:	04a9d263          	bge	x19,x10,44e8 <I_bge_cg_cr_rs1_rs2_edges_offset_rs1val_0xfffffffe_rs2val_0x0+0x44>
1: # goes here if not taken
  bge x19, x10, 0b # backward branch, never taken
    44a8:	fea9dee3          	bge	x19,x10,44a4 <I_bge_cg_cr_rs1_rs2_edges_offset_rs1val_0xfffffffe_rs2val_0x0>
  # Check if x0 contains the expected result. x15 is the signature ptr, x5 is the link ptr, x4 is a temp reg.
  RVTEST_SIGUPD(x15, x5, x4, x0, I_bge_cg_cr_rs1_rs2_edges_offset_rs1val_0xfffffffe_rs2val_0x0, I_bge_cg_cr_rs1_rs2_edges_offset_rs1val_0xfffffffe_rs2val_0x0_str)
    44ac:	0007a203          	lw	x4,0(x15)
    44b0:	00020863          	beq	x4,x0,44c0 <I_bge_cg_cr_rs1_rs2_edges_offset_rs1val_0xfffffffe_rs2val_0x0+0x1c>
    44b4:	3c9052ef          	jal	x5,a07c <failedtest_x5_x4>
    44b8:	000044a4          	.word	0x000044a4
    44bc:	0000ff62          	.word	0x0000ff62
    44c0:	00478793          	addi	x15,x15,4
  j 4f # done with test
    44c4:	0280006f          	jal	x0,44ec <I_bge_cg_cr_rs1_rs2_edges_offset_rs1val_0xfffffffe_rs2val_0x0+0x48>
2: # goes here during backward branch if taken
  LI(x19, 1)
    44c8:	00100993          	addi	x19,x0,1
  # Check if x19 contains the expected result. x15 is the signature ptr, x5 is the link ptr, x4 is a temp reg.
  RVTEST_SIGUPD(x15, x5, x4, x19, I_bge_cg_cr_rs1_rs2_edges_offset_rs1val_0xfffffffe_rs2val_0x0, I_bge_cg_cr_rs1_rs2_edges_offset_rs1val_0xfffffffe_rs2val_0x0_str) # signature 1 for taken
    44cc:	0007a203          	lw	x4,0(x15)
    44d0:	01320863          	beq	x4,x19,44e0 <I_bge_cg_cr_rs1_rs2_edges_offset_rs1val_0xfffffffe_rs2val_0x0+0x3c>
    44d4:	3a9052ef          	jal	x5,a07c <failedtest_x5_x4>
    44d8:	000044a4          	.word	0x000044a4
    44dc:	0000ff62          	.word	0x0000ff62
    44e0:	00478793          	addi	x15,x15,4
  j 4f # done with test
    44e4:	0080006f          	jal	x0,44ec <I_bge_cg_cr_rs1_rs2_edges_offset_rs1val_0xfffffffe_rs2val_0x0+0x48>
3: # goes here during forward branch if taken
  bge x19, x10, 2b # backward branch, definitely taken
    44e8:	fea9d0e3          	bge	x19,x10,44c8 <I_bge_cg_cr_rs1_rs2_edges_offset_rs1val_0xfffffffe_rs2val_0x0+0x24>
4: # done with test

# cr_rs1_rs2_edges_offset (Test source rs1 = 0xfffffffe rs2 = 0x00000001)
  RVTEST_TESTDATA_LOAD_INT(x23, x2) # load rs1: x2 = 0xfffffffe
    44ec:	000ba103          	lw	x2,0(x23)
    44f0:	004b8b93          	addi	x23,x23,4
  RVTEST_TESTDATA_LOAD_INT(x23, x9) # load rs2: x9 = 0x00000001
    44f4:	000ba483          	lw	x9,0(x23)
    44f8:	004b8b93          	addi	x23,x23,4

000044fc <I_bge_cg_cr_rs1_rs2_edges_offset_rs1val_0xfffffffe_rs2val_0x1>:
0: # destination for backwards branch that is never taken
I_bge_cg_cr_rs1_rs2_edges_offset_rs1val_0xfffffffe_rs2val_0x1:
  bge x2, x9, 3f # forward branch, if taken
    44fc:	04915263          	bge	x2,x9,4540 <I_bge_cg_cr_rs1_rs2_edges_offset_rs1val_0xfffffffe_rs2val_0x1+0x44>
1: # goes here if not taken
  bge x2, x9, 0b # backward branch, never taken
    4500:	fe915ee3          	bge	x2,x9,44fc <I_bge_cg_cr_rs1_rs2_edges_offset_rs1val_0xfffffffe_rs2val_0x1>
  # Check if x0 contains the expected result. x15 is the signature ptr, x5 is the link ptr, x4 is a temp reg.
  RVTEST_SIGUPD(x15, x5, x4, x0, I_bge_cg_cr_rs1_rs2_edges_offset_rs1val_0xfffffffe_rs2val_0x1, I_bge_cg_cr_rs1_rs2_edges_offset_rs1val_0xfffffffe_rs2val_0x1_str)
    4504:	0007a203          	lw	x4,0(x15)
    4508:	00020863          	beq	x4,x0,4518 <I_bge_cg_cr_rs1_rs2_edges_offset_rs1val_0xfffffffe_rs2val_0x1+0x1c>
    450c:	371052ef          	jal	x5,a07c <failedtest_x5_x4>
    4510:	000044fc          	.word	0x000044fc
    4514:	0000ffbd          	.word	0x0000ffbd
    4518:	00478793          	addi	x15,x15,4
  j 4f # done with test
    451c:	0280006f          	jal	x0,4544 <I_bge_cg_cr_rs1_rs2_edges_offset_rs1val_0xfffffffe_rs2val_0x1+0x48>
2: # goes here during backward branch if taken
  LI(x2, 1)
    4520:	00100113          	addi	x2,x0,1
  # Check if x2 contains the expected result. x15 is the signature ptr, x5 is the link ptr, x4 is a temp reg.
  RVTEST_SIGUPD(x15, x5, x4, x2, I_bge_cg_cr_rs1_rs2_edges_offset_rs1val_0xfffffffe_rs2val_0x1, I_bge_cg_cr_rs1_rs2_edges_offset_rs1val_0xfffffffe_rs2val_0x1_str) # signature 1 for taken
    4524:	0007a203          	lw	x4,0(x15)
    4528:	00220863          	beq	x4,x2,4538 <I_bge_cg_cr_rs1_rs2_edges_offset_rs1val_0xfffffffe_rs2val_0x1+0x3c>
    452c:	351052ef          	jal	x5,a07c <failedtest_x5_x4>
    4530:	000044fc          	.word	0x000044fc
    4534:	0000ffbd          	.word	0x0000ffbd
    4538:	00478793          	addi	x15,x15,4
  j 4f # done with test
    453c:	0080006f          	jal	x0,4544 <I_bge_cg_cr_rs1_rs2_edges_offset_rs1val_0xfffffffe_rs2val_0x1+0x48>
3: # goes here during forward branch if taken
  bge x2, x9, 2b # backward branch, definitely taken
    4540:	fe9150e3          	bge	x2,x9,4520 <I_bge_cg_cr_rs1_rs2_edges_offset_rs1val_0xfffffffe_rs2val_0x1+0x24>
4: # done with test

# cr_rs1_rs2_edges_offset (Test source rs1 = 0xfffffffe rs2 = 0x00000002)
  RVTEST_TESTDATA_LOAD_INT(x23, x28) # load rs1: x28 = 0xfffffffe
    4544:	000bae03          	lw	x28,0(x23)
    4548:	004b8b93          	addi	x23,x23,4
  RVTEST_TESTDATA_LOAD_INT(x23, x9) # load rs2: x9 = 0x00000002
    454c:	000ba483          	lw	x9,0(x23)
    4550:	004b8b93          	addi	x23,x23,4

00004554 <I_bge_cg_cr_rs1_rs2_edges_offset_rs1val_0xfffffffe_rs2val_0x2>:
0: # destination for backwards branch that is never taken
I_bge_cg_cr_rs1_rs2_edges_offset_rs1val_0xfffffffe_rs2val_0x2:
  bge x28, x9, 3f # forward branch, if taken
    4554:	049e5263          	bge	x28,x9,4598 <I_bge_cg_cr_rs1_rs2_edges_offset_rs1val_0xfffffffe_rs2val_0x2+0x44>
1: # goes here if not taken
  bge x28, x9, 0b # backward branch, never taken
    4558:	fe9e5ee3          	bge	x28,x9,4554 <I_bge_cg_cr_rs1_rs2_edges_offset_rs1val_0xfffffffe_rs2val_0x2>
  # Check if x0 contains the expected result. x15 is the signature ptr, x5 is the link ptr, x4 is a temp reg.
  RVTEST_SIGUPD(x15, x5, x4, x0, I_bge_cg_cr_rs1_rs2_edges_offset_rs1val_0xfffffffe_rs2val_0x2, I_bge_cg_cr_rs1_rs2_edges_offset_rs1val_0xfffffffe_rs2val_0x2_str)
    455c:	0007a203          	lw	x4,0(x15)
    4560:	00020863          	beq	x4,x0,4570 <I_bge_cg_cr_rs1_rs2_edges_offset_rs1val_0xfffffffe_rs2val_0x2+0x1c>
    4564:	319052ef          	jal	x5,a07c <failedtest_x5_x4>
    4568:	00004554          	.word	0x00004554
    456c:	00010018          	.word	0x00010018
    4570:	00478793          	addi	x15,x15,4
  j 4f # done with test
    4574:	0280006f          	jal	x0,459c <I_bge_cg_cr_rs1_rs2_edges_offset_rs1val_0xfffffffe_rs2val_0x2+0x48>
2: # goes here during backward branch if taken
  LI(x28, 1)
    4578:	00100e13          	addi	x28,x0,1
  # Check if x28 contains the expected result. x15 is the signature ptr, x5 is the link ptr, x4 is a temp reg.
  RVTEST_SIGUPD(x15, x5, x4, x28, I_bge_cg_cr_rs1_rs2_edges_offset_rs1val_0xfffffffe_rs2val_0x2, I_bge_cg_cr_rs1_rs2_edges_offset_rs1val_0xfffffffe_rs2val_0x2_str) # signature 1 for taken
    457c:	0007a203          	lw	x4,0(x15)
    4580:	01c20863          	beq	x4,x28,4590 <I_bge_cg_cr_rs1_rs2_edges_offset_rs1val_0xfffffffe_rs2val_0x2+0x3c>
    4584:	2f9052ef          	jal	x5,a07c <failedtest_x5_x4>
    4588:	00004554          	.word	0x00004554
    458c:	00010018          	.word	0x00010018
    4590:	00478793          	addi	x15,x15,4
  j 4f # done with test
    4594:	0080006f          	jal	x0,459c <I_bge_cg_cr_rs1_rs2_edges_offset_rs1val_0xfffffffe_rs2val_0x2+0x48>
3: # goes here during forward branch if taken
  bge x28, x9, 2b # backward branch, definitely taken
    4598:	fe9e50e3          	bge	x28,x9,4578 <I_bge_cg_cr_rs1_rs2_edges_offset_rs1val_0xfffffffe_rs2val_0x2+0x24>
4: # done with test

# cr_rs1_rs2_edges_offset (Test source rs1 = 0xfffffffe rs2 = 0x80000000)
  RVTEST_TESTDATA_LOAD_INT(x23, x26) # load rs1: x26 = 0xfffffffe
    459c:	000bad03          	lw	x26,0(x23)
    45a0:	004b8b93          	addi	x23,x23,4
  RVTEST_TESTDATA_LOAD_INT(x23, x29) # load rs2: x29 = 0x80000000
    45a4:	000bae83          	lw	x29,0(x23)
    45a8:	004b8b93          	addi	x23,x23,4

000045ac <I_bge_cg_cr_rs1_rs2_edges_offset_rs1val_0xfffffffe_rs2val_0x80000000>:
0: # destination for backwards branch that is never taken
I_bge_cg_cr_rs1_rs2_edges_offset_rs1val_0xfffffffe_rs2val_0x80000000:
  bge x26, x29, 3f # forward branch, if taken
    45ac:	05dd5263          	bge	x26,x29,45f0 <I_bge_cg_cr_rs1_rs2_edges_offset_rs1val_0xfffffffe_rs2val_0x80000000+0x44>
1: # goes here if not taken
  bge x26, x29, 0b # backward branch, never taken
    45b0:	ffdd5ee3          	bge	x26,x29,45ac <I_bge_cg_cr_rs1_rs2_edges_offset_rs1val_0xfffffffe_rs2val_0x80000000>
  # Check if x0 contains the expected result. x15 is the signature ptr, x5 is the link ptr, x4 is a temp reg.
  RVTEST_SIGUPD(x15, x5, x4, x0, I_bge_cg_cr_rs1_rs2_edges_offset_rs1val_0xfffffffe_rs2val_0x80000000, I_bge_cg_cr_rs1_rs2_edges_offset_rs1val_0xfffffffe_rs2val_0x80000000_str)
    45b4:	0007a203          	lw	x4,0(x15)
    45b8:	00020863          	beq	x4,x0,45c8 <I_bge_cg_cr_rs1_rs2_edges_offset_rs1val_0xfffffffe_rs2val_0x80000000+0x1c>
    45bc:	2c1052ef          	jal	x5,a07c <failedtest_x5_x4>
    45c0:	000045ac          	.word	0x000045ac
    45c4:	00010073          	.word	0x00010073
    45c8:	00478793          	addi	x15,x15,4
  j 4f # done with test
    45cc:	0280006f          	jal	x0,45f4 <I_bge_cg_cr_rs1_rs2_edges_offset_rs1val_0xfffffffe_rs2val_0x80000000+0x48>
2: # goes here during backward branch if taken
  LI(x26, 1)
    45d0:	00100d13          	addi	x26,x0,1
  # Check if x26 contains the expected result. x15 is the signature ptr, x5 is the link ptr, x4 is a temp reg.
  RVTEST_SIGUPD(x15, x5, x4, x26, I_bge_cg_cr_rs1_rs2_edges_offset_rs1val_0xfffffffe_rs2val_0x80000000, I_bge_cg_cr_rs1_rs2_edges_offset_rs1val_0xfffffffe_rs2val_0x80000000_str) # signature 1 for taken
    45d4:	0007a203          	lw	x4,0(x15)
    45d8:	01a20863          	beq	x4,x26,45e8 <I_bge_cg_cr_rs1_rs2_edges_offset_rs1val_0xfffffffe_rs2val_0x80000000+0x3c>
    45dc:	2a1052ef          	jal	x5,a07c <failedtest_x5_x4>
    45e0:	000045ac          	.word	0x000045ac
    45e4:	00010073          	.word	0x00010073
    45e8:	00478793          	addi	x15,x15,4
  j 4f # done with test
    45ec:	0080006f          	jal	x0,45f4 <I_bge_cg_cr_rs1_rs2_edges_offset_rs1val_0xfffffffe_rs2val_0x80000000+0x48>
3: # goes here during forward branch if taken
  bge x26, x29, 2b # backward branch, definitely taken
    45f0:	ffdd50e3          	bge	x26,x29,45d0 <I_bge_cg_cr_rs1_rs2_edges_offset_rs1val_0xfffffffe_rs2val_0x80000000+0x24>
4: # done with test

# cr_rs1_rs2_edges_offset (Test source rs1 = 0xfffffffe rs2 = 0x80000001)
  RVTEST_TESTDATA_LOAD_INT(x23, x1) # load rs1: x1 = 0xfffffffe
    45f4:	000ba083          	lw	x1,0(x23)
    45f8:	004b8b93          	addi	x23,x23,4
  RVTEST_TESTDATA_LOAD_INT(x23, x6) # load rs2: x6 = 0x80000001
    45fc:	000ba303          	lw	x6,0(x23)
    4600:	004b8b93          	addi	x23,x23,4

00004604 <I_bge_cg_cr_rs1_rs2_edges_offset_rs1val_0xfffffffe_rs2val_0x80000001>:
0: # destination for backwards branch that is never taken
I_bge_cg_cr_rs1_rs2_edges_offset_rs1val_0xfffffffe_rs2val_0x80000001:
  bge x1, x6, 3f # forward branch, if taken
    4604:	0460d263          	bge	x1,x6,4648 <I_bge_cg_cr_rs1_rs2_edges_offset_rs1val_0xfffffffe_rs2val_0x80000001+0x44>
1: # goes here if not taken
  bge x1, x6, 0b # backward branch, never taken
    4608:	fe60dee3          	bge	x1,x6,4604 <I_bge_cg_cr_rs1_rs2_edges_offset_rs1val_0xfffffffe_rs2val_0x80000001>
  # Check if x0 contains the expected result. x15 is the signature ptr, x5 is the link ptr, x4 is a temp reg.
  RVTEST_SIGUPD(x15, x5, x4, x0, I_bge_cg_cr_rs1_rs2_edges_offset_rs1val_0xfffffffe_rs2val_0x80000001, I_bge_cg_cr_rs1_rs2_edges_offset_rs1val_0xfffffffe_rs2val_0x80000001_str)
    460c:	0007a203          	lw	x4,0(x15)
    4610:	00020863          	beq	x4,x0,4620 <I_bge_cg_cr_rs1_rs2_edges_offset_rs1val_0xfffffffe_rs2val_0x80000001+0x1c>
    4614:	269052ef          	jal	x5,a07c <failedtest_x5_x4>
    4618:	00004604          	.word	0x00004604
    461c:	000100d5          	.word	0x000100d5
    4620:	00478793          	addi	x15,x15,4
  j 4f # done with test
    4624:	0280006f          	jal	x0,464c <I_bge_cg_cr_rs1_rs2_edges_offset_rs1val_0xfffffffe_rs2val_0x80000001+0x48>
2: # goes here during backward branch if taken
  LI(x1, 1)
    4628:	00100093          	addi	x1,x0,1
  # Check if x1 contains the expected result. x15 is the signature ptr, x5 is the link ptr, x4 is a temp reg.
  RVTEST_SIGUPD(x15, x5, x4, x1, I_bge_cg_cr_rs1_rs2_edges_offset_rs1val_0xfffffffe_rs2val_0x80000001, I_bge_cg_cr_rs1_rs2_edges_offset_rs1val_0xfffffffe_rs2val_0x80000001_str) # signature 1 for taken
    462c:	0007a203          	lw	x4,0(x15)
    4630:	00120863          	beq	x4,x1,4640 <I_bge_cg_cr_rs1_rs2_edges_offset_rs1val_0xfffffffe_rs2val_0x80000001+0x3c>
    4634:	249052ef          	jal	x5,a07c <failedtest_x5_x4>
    4638:	00004604          	.word	0x00004604
    463c:	000100d5          	.word	0x000100d5
    4640:	00478793          	addi	x15,x15,4
  j 4f # done with test
    4644:	0080006f          	jal	x0,464c <I_bge_cg_cr_rs1_rs2_edges_offset_rs1val_0xfffffffe_rs2val_0x80000001+0x48>
3: # goes here during forward branch if taken
  bge x1, x6, 2b # backward branch, definitely taken
    4648:	fe60d0e3          	bge	x1,x6,4628 <I_bge_cg_cr_rs1_rs2_edges_offset_rs1val_0xfffffffe_rs2val_0x80000001+0x24>
4: # done with test

# cr_rs1_rs2_edges_offset (Test source rs1 = 0xfffffffe rs2 = 0x7fffffff)
  RVTEST_TESTDATA_LOAD_INT(x23, x14) # load rs1: x14 = 0xfffffffe
    464c:	000ba703          	lw	x14,0(x23)
    4650:	004b8b93          	addi	x23,x23,4
  RVTEST_TESTDATA_LOAD_INT(x23, x9) # load rs2: x9 = 0x7fffffff
    4654:	000ba483          	lw	x9,0(x23)
    4658:	004b8b93          	addi	x23,x23,4

0000465c <I_bge_cg_cr_rs1_rs2_edges_offset_rs1val_0xfffffffe_rs2val_0x7fffffff>:
0: # destination for backwards branch that is never taken
I_bge_cg_cr_rs1_rs2_edges_offset_rs1val_0xfffffffe_rs2val_0x7fffffff:
  bge x14, x9, 3f # forward branch, if taken
    465c:	04975263          	bge	x14,x9,46a0 <I_bge_cg_cr_rs1_rs2_edges_offset_rs1val_0xfffffffe_rs2val_0x7fffffff+0x44>
1: # goes here if not taken
  bge x14, x9, 0b # backward branch, never taken
    4660:	fe975ee3          	bge	x14,x9,465c <I_bge_cg_cr_rs1_rs2_edges_offset_rs1val_0xfffffffe_rs2val_0x7fffffff>
  # Check if x0 contains the expected result. x15 is the signature ptr, x5 is the link ptr, x4 is a temp reg.
  RVTEST_SIGUPD(x15, x5, x4, x0, I_bge_cg_cr_rs1_rs2_edges_offset_rs1val_0xfffffffe_rs2val_0x7fffffff, I_bge_cg_cr_rs1_rs2_edges_offset_rs1val_0xfffffffe_rs2val_0x7fffffff_str)
    4664:	0007a203          	lw	x4,0(x15)
    4668:	00020863          	beq	x4,x0,4678 <I_bge_cg_cr_rs1_rs2_edges_offset_rs1val_0xfffffffe_rs2val_0x7fffffff+0x1c>
    466c:	211052ef          	jal	x5,a07c <failedtest_x5_x4>
    4670:	0000465c          	.word	0x0000465c
    4674:	00010137          	.word	0x00010137
    4678:	00478793          	addi	x15,x15,4
  j 4f # done with test
    467c:	0280006f          	jal	x0,46a4 <I_bge_cg_cr_rs1_rs2_edges_offset_rs1val_0xfffffffe_rs2val_0x7fffffff+0x48>
2: # goes here during backward branch if taken
  LI(x14, 1)
    4680:	00100713          	addi	x14,x0,1
  # Check if x14 contains the expected result. x15 is the signature ptr, x5 is the link ptr, x4 is a temp reg.
  RVTEST_SIGUPD(x15, x5, x4, x14, I_bge_cg_cr_rs1_rs2_edges_offset_rs1val_0xfffffffe_rs2val_0x7fffffff, I_bge_cg_cr_rs1_rs2_edges_offset_rs1val_0xfffffffe_rs2val_0x7fffffff_str) # signature 1 for taken
    4684:	0007a203          	lw	x4,0(x15)
    4688:	00e20863          	beq	x4,x14,4698 <I_bge_cg_cr_rs1_rs2_edges_offset_rs1val_0xfffffffe_rs2val_0x7fffffff+0x3c>
    468c:	1f1052ef          	jal	x5,a07c <failedtest_x5_x4>
    4690:	0000465c          	.word	0x0000465c
    4694:	00010137          	.word	0x00010137
    4698:	00478793          	addi	x15,x15,4
  j 4f # done with test
    469c:	0080006f          	jal	x0,46a4 <I_bge_cg_cr_rs1_rs2_edges_offset_rs1val_0xfffffffe_rs2val_0x7fffffff+0x48>
3: # goes here during forward branch if taken
  bge x14, x9, 2b # backward branch, definitely taken
    46a0:	fe9750e3          	bge	x14,x9,4680 <I_bge_cg_cr_rs1_rs2_edges_offset_rs1val_0xfffffffe_rs2val_0x7fffffff+0x24>
4: # done with test

# cr_rs1_rs2_edges_offset (Test source rs1 = 0xfffffffe rs2 = 0x7ffffffe)
  RVTEST_TESTDATA_LOAD_INT(x23, x25) # load rs1: x25 = 0xfffffffe
    46a4:	000bac83          	lw	x25,0(x23)
    46a8:	004b8b93          	addi	x23,x23,4
  RVTEST_TESTDATA_LOAD_INT(x23, x16) # load rs2: x16 = 0x7ffffffe
    46ac:	000ba803          	lw	x16,0(x23)
    46b0:	004b8b93          	addi	x23,x23,4

000046b4 <I_bge_cg_cr_rs1_rs2_edges_offset_rs1val_0xfffffffe_rs2val_0x7ffffffe>:
0: # destination for backwards branch that is never taken
I_bge_cg_cr_rs1_rs2_edges_offset_rs1val_0xfffffffe_rs2val_0x7ffffffe:
  bge x25, x16, 3f # forward branch, if taken
    46b4:	050cd263          	bge	x25,x16,46f8 <I_bge_cg_cr_rs1_rs2_edges_offset_rs1val_0xfffffffe_rs2val_0x7ffffffe+0x44>
1: # goes here if not taken
  bge x25, x16, 0b # backward branch, never taken
    46b8:	ff0cdee3          	bge	x25,x16,46b4 <I_bge_cg_cr_rs1_rs2_edges_offset_rs1val_0xfffffffe_rs2val_0x7ffffffe>
  # Check if x0 contains the expected result. x15 is the signature ptr, x5 is the link ptr, x4 is a temp reg.
  RVTEST_SIGUPD(x15, x5, x4, x0, I_bge_cg_cr_rs1_rs2_edges_offset_rs1val_0xfffffffe_rs2val_0x7ffffffe, I_bge_cg_cr_rs1_rs2_edges_offset_rs1val_0xfffffffe_rs2val_0x7ffffffe_str)
    46bc:	0007a203          	lw	x4,0(x15)
    46c0:	00020863          	beq	x4,x0,46d0 <I_bge_cg_cr_rs1_rs2_edges_offset_rs1val_0xfffffffe_rs2val_0x7ffffffe+0x1c>
    46c4:	1b9052ef          	jal	x5,a07c <failedtest_x5_x4>
    46c8:	000046b4          	.word	0x000046b4
    46cc:	00010199          	.word	0x00010199
    46d0:	00478793          	addi	x15,x15,4
  j 4f # done with test
    46d4:	0280006f          	jal	x0,46fc <I_bge_cg_cr_rs1_rs2_edges_offset_rs1val_0xfffffffe_rs2val_0x7ffffffe+0x48>
2: # goes here during backward branch if taken
  LI(x25, 1)
    46d8:	00100c93          	addi	x25,x0,1
  # Check if x25 contains the expected result. x15 is the signature ptr, x5 is the link ptr, x4 is a temp reg.
  RVTEST_SIGUPD(x15, x5, x4, x25, I_bge_cg_cr_rs1_rs2_edges_offset_rs1val_0xfffffffe_rs2val_0x7ffffffe, I_bge_cg_cr_rs1_rs2_edges_offset_rs1val_0xfffffffe_rs2val_0x7ffffffe_str) # signature 1 for taken
    46dc:	0007a203          	lw	x4,0(x15)
    46e0:	01920863          	beq	x4,x25,46f0 <I_bge_cg_cr_rs1_rs2_edges_offset_rs1val_0xfffffffe_rs2val_0x7ffffffe+0x3c>
    46e4:	199052ef          	jal	x5,a07c <failedtest_x5_x4>
    46e8:	000046b4          	.word	0x000046b4
    46ec:	00010199          	.word	0x00010199
    46f0:	00478793          	addi	x15,x15,4
  j 4f # done with test
    46f4:	0080006f          	jal	x0,46fc <I_bge_cg_cr_rs1_rs2_edges_offset_rs1val_0xfffffffe_rs2val_0x7ffffffe+0x48>
3: # goes here during forward branch if taken
  bge x25, x16, 2b # backward branch, definitely taken
    46f8:	ff0cd0e3          	bge	x25,x16,46d8 <I_bge_cg_cr_rs1_rs2_edges_offset_rs1val_0xfffffffe_rs2val_0x7ffffffe+0x24>
4: # done with test

# cr_rs1_rs2_edges_offset (Test source rs1 = 0xfffffffe rs2 = 0xffffffff)
  RVTEST_TESTDATA_LOAD_INT(x23, x3) # load rs1: x3 = 0xfffffffe
    46fc:	000ba183          	lw	x3,0(x23)
    4700:	004b8b93          	addi	x23,x23,4
  RVTEST_TESTDATA_LOAD_INT(x23, x10) # load rs2: x10 = 0xffffffff
    4704:	000ba503          	lw	x10,0(x23)
    4708:	004b8b93          	addi	x23,x23,4

0000470c <I_bge_cg_cr_rs1_rs2_edges_offset_rs1val_0xfffffffe_rs2val_0xffffffff>:
0: # destination for backwards branch that is never taken
I_bge_cg_cr_rs1_rs2_edges_offset_rs1val_0xfffffffe_rs2val_0xffffffff:
  bge x3, x10, 3f # forward branch, if taken
    470c:	04a1d263          	bge	x3,x10,4750 <I_bge_cg_cr_rs1_rs2_edges_offset_rs1val_0xfffffffe_rs2val_0xffffffff+0x44>
1: # goes here if not taken
  bge x3, x10, 0b # backward branch, never taken
    4710:	fea1dee3          	bge	x3,x10,470c <I_bge_cg_cr_rs1_rs2_edges_offset_rs1val_0xfffffffe_rs2val_0xffffffff>
  # Check if x0 contains the expected result. x15 is the signature ptr, x5 is the link ptr, x4 is a temp reg.
  RVTEST_SIGUPD(x15, x5, x4, x0, I_bge_cg_cr_rs1_rs2_edges_offset_rs1val_0xfffffffe_rs2val_0xffffffff, I_bge_cg_cr_rs1_rs2_edges_offset_rs1val_0xfffffffe_rs2val_0xffffffff_str)
    4714:	0007a203          	lw	x4,0(x15)
    4718:	00020863          	beq	x4,x0,4728 <I_bge_cg_cr_rs1_rs2_edges_offset_rs1val_0xfffffffe_rs2val_0xffffffff+0x1c>
    471c:	161052ef          	jal	x5,a07c <failedtest_x5_x4>
    4720:	0000470c          	.word	0x0000470c
    4724:	000101fb          	.word	0x000101fb
    4728:	00478793          	addi	x15,x15,4
  j 4f # done with test
    472c:	0280006f          	jal	x0,4754 <I_bge_cg_cr_rs1_rs2_edges_offset_rs1val_0xfffffffe_rs2val_0xffffffff+0x48>
2: # goes here during backward branch if taken
  LI(x3, 1)
    4730:	00100193          	addi	x3,x0,1
  # Check if x3 contains the expected result. x15 is the signature ptr, x5 is the link ptr, x4 is a temp reg.
  RVTEST_SIGUPD(x15, x5, x4, x3, I_bge_cg_cr_rs1_rs2_edges_offset_rs1val_0xfffffffe_rs2val_0xffffffff, I_bge_cg_cr_rs1_rs2_edges_offset_rs1val_0xfffffffe_rs2val_0xffffffff_str) # signature 1 for taken
    4734:	0007a203          	lw	x4,0(x15)
    4738:	00320863          	beq	x4,x3,4748 <I_bge_cg_cr_rs1_rs2_edges_offset_rs1val_0xfffffffe_rs2val_0xffffffff+0x3c>
    473c:	141052ef          	jal	x5,a07c <failedtest_x5_x4>
    4740:	0000470c          	.word	0x0000470c
    4744:	000101fb          	.word	0x000101fb
    4748:	00478793          	addi	x15,x15,4
  j 4f # done with test
    474c:	0080006f          	jal	x0,4754 <I_bge_cg_cr_rs1_rs2_edges_offset_rs1val_0xfffffffe_rs2val_0xffffffff+0x48>
3: # goes here during forward branch if taken
  bge x3, x10, 2b # backward branch, definitely taken
    4750:	fea1d0e3          	bge	x3,x10,4730 <I_bge_cg_cr_rs1_rs2_edges_offset_rs1val_0xfffffffe_rs2val_0xffffffff+0x24>
4: # done with test

# cr_rs1_rs2_edges_offset (Test source rs1 = 0xfffffffe rs2 = 0xfffffffe)
  RVTEST_TESTDATA_LOAD_INT(x23, x12) # load rs1: x12 = 0xfffffffe
    4754:	000ba603          	lw	x12,0(x23)
    4758:	004b8b93          	addi	x23,x23,4
  RVTEST_TESTDATA_LOAD_INT(x23, x27) # load rs2: x27 = 0xfffffffe
    475c:	000bad83          	lw	x27,0(x23)
    4760:	004b8b93          	addi	x23,x23,4

00004764 <I_bge_cg_cr_rs1_rs2_edges_offset_rs1val_0xfffffffe_rs2val_0xfffffffe>:
0: # destination for backwards branch that is never taken
I_bge_cg_cr_rs1_rs2_edges_offset_rs1val_0xfffffffe_rs2val_0xfffffffe:
  bge x12, x27, 3f # forward branch, if taken
    4764:	05b65263          	bge	x12,x27,47a8 <I_bge_cg_cr_rs1_rs2_edges_offset_rs1val_0xfffffffe_rs2val_0xfffffffe+0x44>
1: # goes here if not taken
  bge x12, x27, 0b # backward branch, never taken
    4768:	ffb65ee3          	bge	x12,x27,4764 <I_bge_cg_cr_rs1_rs2_edges_offset_rs1val_0xfffffffe_rs2val_0xfffffffe>
  # Check if x0 contains the expected result. x15 is the signature ptr, x5 is the link ptr, x4 is a temp reg.
  RVTEST_SIGUPD(x15, x5, x4, x0, I_bge_cg_cr_rs1_rs2_edges_offset_rs1val_0xfffffffe_rs2val_0xfffffffe, I_bge_cg_cr_rs1_rs2_edges_offset_rs1val_0xfffffffe_rs2val_0xfffffffe_str)
    476c:	0007a203          	lw	x4,0(x15)
    4770:	00020863          	beq	x4,x0,4780 <I_bge_cg_cr_rs1_rs2_edges_offset_rs1val_0xfffffffe_rs2val_0xfffffffe+0x1c>
    4774:	109052ef          	jal	x5,a07c <failedtest_x5_x4>
    4778:	00004764          	.word	0x00004764
    477c:	0001025d          	.word	0x0001025d
    4780:	00478793          	addi	x15,x15,4
  j 4f # done with test
    4784:	0280006f          	jal	x0,47ac <I_bge_cg_cr_rs1_rs2_edges_offset_rs1val_0xfffffffe_rs2val_0xfffffffe+0x48>
2: # goes here during backward branch if taken
  LI(x12, 1)
    4788:	00100613          	addi	x12,x0,1
  # Check if x12 contains the expected result. x15 is the signature ptr, x5 is the link ptr, x4 is a temp reg.
  RVTEST_SIGUPD(x15, x5, x4, x12, I_bge_cg_cr_rs1_rs2_edges_offset_rs1val_0xfffffffe_rs2val_0xfffffffe, I_bge_cg_cr_rs1_rs2_edges_offset_rs1val_0xfffffffe_rs2val_0xfffffffe_str) # signature 1 for taken
    478c:	0007a203          	lw	x4,0(x15)
    4790:	00c20863          	beq	x4,x12,47a0 <I_bge_cg_cr_rs1_rs2_edges_offset_rs1val_0xfffffffe_rs2val_0xfffffffe+0x3c>
    4794:	0e9052ef          	jal	x5,a07c <failedtest_x5_x4>
    4798:	00004764          	.word	0x00004764
    479c:	0001025d          	.word	0x0001025d
    47a0:	00478793          	addi	x15,x15,4
  j 4f # done with test
    47a4:	0080006f          	jal	x0,47ac <I_bge_cg_cr_rs1_rs2_edges_offset_rs1val_0xfffffffe_rs2val_0xfffffffe+0x48>
3: # goes here during forward branch if taken
  bge x12, x27, 2b # backward branch, definitely taken
    47a8:	ffb650e3          	bge	x12,x27,4788 <I_bge_cg_cr_rs1_rs2_edges_offset_rs1val_0xfffffffe_rs2val_0xfffffffe+0x24>
4: # done with test

# cr_rs1_rs2_edges_offset (Test source rs1 = 0xfffffffe rs2 = 0x5bbc8872)
  RVTEST_TESTDATA_LOAD_INT(x23, x12) # load rs1: x12 = 0xfffffffe
    47ac:	000ba603          	lw	x12,0(x23)
    47b0:	004b8b93          	addi	x23,x23,4
  RVTEST_TESTDATA_LOAD_INT(x23, x21) # load rs2: x21 = 0x5bbc8872
    47b4:	000baa83          	lw	x21,0(x23)
    47b8:	004b8b93          	addi	x23,x23,4

000047bc <I_bge_cg_cr_rs1_rs2_edges_offset_rs1val_0xfffffffe_rs2val_0x5bbc8872>:
0: # destination for backwards branch that is never taken
I_bge_cg_cr_rs1_rs2_edges_offset_rs1val_0xfffffffe_rs2val_0x5bbc8872:
  bge x12, x21, 3f # forward branch, if taken
    47bc:	05565263          	bge	x12,x21,4800 <I_bge_cg_cr_rs1_rs2_edges_offset_rs1val_0xfffffffe_rs2val_0x5bbc8872+0x44>
1: # goes here if not taken
  bge x12, x21, 0b # backward branch, never taken
    47c0:	ff565ee3          	bge	x12,x21,47bc <I_bge_cg_cr_rs1_rs2_edges_offset_rs1val_0xfffffffe_rs2val_0x5bbc8872>
  # Check if x0 contains the expected result. x15 is the signature ptr, x5 is the link ptr, x4 is a temp reg.
  RVTEST_SIGUPD(x15, x5, x4, x0, I_bge_cg_cr_rs1_rs2_edges_offset_rs1val_0xfffffffe_rs2val_0x5bbc8872, I_bge_cg_cr_rs1_rs2_edges_offset_rs1val_0xfffffffe_rs2val_0x5bbc8872_str)
    47c4:	0007a203          	lw	x4,0(x15)
    47c8:	00020863          	beq	x4,x0,47d8 <I_bge_cg_cr_rs1_rs2_edges_offset_rs1val_0xfffffffe_rs2val_0x5bbc8872+0x1c>
    47cc:	0b1052ef          	jal	x5,a07c <failedtest_x5_x4>
    47d0:	000047bc          	.word	0x000047bc
    47d4:	000102bf          	.word	0x000102bf
    47d8:	00478793          	addi	x15,x15,4
  j 4f # done with test
    47dc:	0280006f          	jal	x0,4804 <I_bge_cg_cr_rs1_rs2_edges_offset_rs1val_0xfffffffe_rs2val_0x5bbc8872+0x48>
2: # goes here during backward branch if taken
  LI(x12, 1)
    47e0:	00100613          	addi	x12,x0,1
  # Check if x12 contains the expected result. x15 is the signature ptr, x5 is the link ptr, x4 is a temp reg.
  RVTEST_SIGUPD(x15, x5, x4, x12, I_bge_cg_cr_rs1_rs2_edges_offset_rs1val_0xfffffffe_rs2val_0x5bbc8872, I_bge_cg_cr_rs1_rs2_edges_offset_rs1val_0xfffffffe_rs2val_0x5bbc8872_str) # signature 1 for taken
    47e4:	0007a203          	lw	x4,0(x15)
    47e8:	00c20863          	beq	x4,x12,47f8 <I_bge_cg_cr_rs1_rs2_edges_offset_rs1val_0xfffffffe_rs2val_0x5bbc8872+0x3c>
    47ec:	091052ef          	jal	x5,a07c <failedtest_x5_x4>
    47f0:	000047bc          	.word	0x000047bc
    47f4:	000102bf          	.word	0x000102bf
    47f8:	00478793          	addi	x15,x15,4
  j 4f # done with test
    47fc:	0080006f          	jal	x0,4804 <I_bge_cg_cr_rs1_rs2_edges_offset_rs1val_0xfffffffe_rs2val_0x5bbc8872+0x48>
3: # goes here during forward branch if taken
  bge x12, x21, 2b # backward branch, definitely taken
    4800:	ff5650e3          	bge	x12,x21,47e0 <I_bge_cg_cr_rs1_rs2_edges_offset_rs1val_0xfffffffe_rs2val_0x5bbc8872+0x24>
4: # done with test

# cr_rs1_rs2_edges_offset (Test source rs1 = 0xfffffffe rs2 = 0xaaaaaaaa)
  RVTEST_TESTDATA_LOAD_INT(x23, x8) # load rs1: x8 = 0xfffffffe
    4804:	000ba403          	lw	x8,0(x23)
    4808:	004b8b93          	addi	x23,x23,4
  RVTEST_TESTDATA_LOAD_INT(x23, x22) # load rs2: x22 = 0xaaaaaaaa
    480c:	000bab03          	lw	x22,0(x23)
    4810:	004b8b93          	addi	x23,x23,4

00004814 <I_bge_cg_cr_rs1_rs2_edges_offset_rs1val_0xfffffffe_rs2val_0xaaaaaaaa>:
0: # destination for backwards branch that is never taken
I_bge_cg_cr_rs1_rs2_edges_offset_rs1val_0xfffffffe_rs2val_0xaaaaaaaa:
  bge x8, x22, 3f # forward branch, if taken
    4814:	05645263          	bge	x8,x22,4858 <I_bge_cg_cr_rs1_rs2_edges_offset_rs1val_0xfffffffe_rs2val_0xaaaaaaaa+0x44>
1: # goes here if not taken
  bge x8, x22, 0b # backward branch, never taken
    4818:	ff645ee3          	bge	x8,x22,4814 <I_bge_cg_cr_rs1_rs2_edges_offset_rs1val_0xfffffffe_rs2val_0xaaaaaaaa>
  # Check if x0 contains the expected result. x15 is the signature ptr, x5 is the link ptr, x4 is a temp reg.
  RVTEST_SIGUPD(x15, x5, x4, x0, I_bge_cg_cr_rs1_rs2_edges_offset_rs1val_0xfffffffe_rs2val_0xaaaaaaaa, I_bge_cg_cr_rs1_rs2_edges_offset_rs1val_0xfffffffe_rs2val_0xaaaaaaaa_str)
    481c:	0007a203          	lw	x4,0(x15)
    4820:	00020863          	beq	x4,x0,4830 <I_bge_cg_cr_rs1_rs2_edges_offset_rs1val_0xfffffffe_rs2val_0xaaaaaaaa+0x1c>
    4824:	059052ef          	jal	x5,a07c <failedtest_x5_x4>
    4828:	00004814          	.word	0x00004814
    482c:	00010321          	.word	0x00010321
    4830:	00478793          	addi	x15,x15,4
  j 4f # done with test
    4834:	0280006f          	jal	x0,485c <I_bge_cg_cr_rs1_rs2_edges_offset_rs1val_0xfffffffe_rs2val_0xaaaaaaaa+0x48>
2: # goes here during backward branch if taken
  LI(x8, 1)
    4838:	00100413          	addi	x8,x0,1
  # Check if x8 contains the expected result. x15 is the signature ptr, x5 is the link ptr, x4 is a temp reg.
  RVTEST_SIGUPD(x15, x5, x4, x8, I_bge_cg_cr_rs1_rs2_edges_offset_rs1val_0xfffffffe_rs2val_0xaaaaaaaa, I_bge_cg_cr_rs1_rs2_edges_offset_rs1val_0xfffffffe_rs2val_0xaaaaaaaa_str) # signature 1 for taken
    483c:	0007a203          	lw	x4,0(x15)
    4840:	00820863          	beq	x4,x8,4850 <I_bge_cg_cr_rs1_rs2_edges_offset_rs1val_0xfffffffe_rs2val_0xaaaaaaaa+0x3c>
    4844:	039052ef          	jal	x5,a07c <failedtest_x5_x4>
    4848:	00004814          	.word	0x00004814
    484c:	00010321          	.word	0x00010321
    4850:	00478793          	addi	x15,x15,4
  j 4f # done with test
    4854:	0080006f          	jal	x0,485c <I_bge_cg_cr_rs1_rs2_edges_offset_rs1val_0xfffffffe_rs2val_0xaaaaaaaa+0x48>
3: # goes here during forward branch if taken
  bge x8, x22, 2b # backward branch, definitely taken
    4858:	ff6450e3          	bge	x8,x22,4838 <I_bge_cg_cr_rs1_rs2_edges_offset_rs1val_0xfffffffe_rs2val_0xaaaaaaaa+0x24>
4: # done with test

# cr_rs1_rs2_edges_offset (Test source rs1 = 0xfffffffe rs2 = 0x55555555)
  RVTEST_TESTDATA_LOAD_INT(x23, x14) # load rs1: x14 = 0xfffffffe
    485c:	000ba703          	lw	x14,0(x23)
    4860:	004b8b93          	addi	x23,x23,4
  RVTEST_TESTDATA_LOAD_INT(x23, x8) # load rs2: x8 = 0x55555555
    4864:	000ba403          	lw	x8,0(x23)
    4868:	004b8b93          	addi	x23,x23,4

0000486c <I_bge_cg_cr_rs1_rs2_edges_offset_rs1val_0xfffffffe_rs2val_0x55555555>:
0: # destination for backwards branch that is never taken
I_bge_cg_cr_rs1_rs2_edges_offset_rs1val_0xfffffffe_rs2val_0x55555555:
  bge x14, x8, 3f # forward branch, if taken
    486c:	04875263          	bge	x14,x8,48b0 <I_bge_cg_cr_rs1_rs2_edges_offset_rs1val_0xfffffffe_rs2val_0x55555555+0x44>
1: # goes here if not taken
  bge x14, x8, 0b # backward branch, never taken
    4870:	fe875ee3          	bge	x14,x8,486c <I_bge_cg_cr_rs1_rs2_edges_offset_rs1val_0xfffffffe_rs2val_0x55555555>
  # Check if x0 contains the expected result. x15 is the signature ptr, x5 is the link ptr, x4 is a temp reg.
  RVTEST_SIGUPD(x15, x5, x4, x0, I_bge_cg_cr_rs1_rs2_edges_offset_rs1val_0xfffffffe_rs2val_0x55555555, I_bge_cg_cr_rs1_rs2_edges_offset_rs1val_0xfffffffe_rs2val_0x55555555_str)
    4874:	0007a203          	lw	x4,0(x15)
    4878:	00020863          	beq	x4,x0,4888 <I_bge_cg_cr_rs1_rs2_edges_offset_rs1val_0xfffffffe_rs2val_0x55555555+0x1c>
    487c:	001052ef          	jal	x5,a07c <failedtest_x5_x4>
    4880:	0000486c          	.word	0x0000486c
    4884:	00010383          	.word	0x00010383
    4888:	00478793          	addi	x15,x15,4
  j 4f # done with test
    488c:	0280006f          	jal	x0,48b4 <I_bge_cg_cr_rs1_rs2_edges_offset_rs1val_0xfffffffe_rs2val_0x55555555+0x48>
2: # goes here during backward branch if taken
  LI(x14, 1)
    4890:	00100713          	addi	x14,x0,1
  # Check if x14 contains the expected result. x15 is the signature ptr, x5 is the link ptr, x4 is a temp reg.
  RVTEST_SIGUPD(x15, x5, x4, x14, I_bge_cg_cr_rs1_rs2_edges_offset_rs1val_0xfffffffe_rs2val_0x55555555, I_bge_cg_cr_rs1_rs2_edges_offset_rs1val_0xfffffffe_rs2val_0x55555555_str) # signature 1 for taken
    4894:	0007a203          	lw	x4,0(x15)
    4898:	00e20863          	beq	x4,x14,48a8 <I_bge_cg_cr_rs1_rs2_edges_offset_rs1val_0xfffffffe_rs2val_0x55555555+0x3c>
    489c:	7e0052ef          	jal	x5,a07c <failedtest_x5_x4>
    48a0:	0000486c          	.word	0x0000486c
    48a4:	00010383          	.word	0x00010383
    48a8:	00478793          	addi	x15,x15,4
  j 4f # done with test
    48ac:	0080006f          	jal	x0,48b4 <I_bge_cg_cr_rs1_rs2_edges_offset_rs1val_0xfffffffe_rs2val_0x55555555+0x48>
3: # goes here during forward branch if taken
  bge x14, x8, 2b # backward branch, definitely taken
    48b0:	fe8750e3          	bge	x14,x8,4890 <I_bge_cg_cr_rs1_rs2_edges_offset_rs1val_0xfffffffe_rs2val_0x55555555+0x24>
4: # done with test

# cr_rs1_rs2_edges_offset (Test source rs1 = 0x5bbc8872 rs2 = 0x00000000)
  RVTEST_TESTDATA_LOAD_INT(x23, x27) # load rs1: x27 = 0x5bbc8872
    48b4:	000bad83          	lw	x27,0(x23)
    48b8:	004b8b93          	addi	x23,x23,4
  RVTEST_TESTDATA_LOAD_INT(x23, x10) # load rs2: x10 = 0x00000000
    48bc:	000ba503          	lw	x10,0(x23)
    48c0:	004b8b93          	addi	x23,x23,4

000048c4 <I_bge_cg_cr_rs1_rs2_edges_offset_rs1val_0x5bbc8872_rs2val_0x0>:
0: # destination for backwards branch that is never taken
I_bge_cg_cr_rs1_rs2_edges_offset_rs1val_0x5bbc8872_rs2val_0x0:
  bge x27, x10, 3f # forward branch, if taken
    48c4:	04add263          	bge	x27,x10,4908 <I_bge_cg_cr_rs1_rs2_edges_offset_rs1val_0x5bbc8872_rs2val_0x0+0x44>
1: # goes here if not taken
  bge x27, x10, 0b # backward branch, never taken
    48c8:	feaddee3          	bge	x27,x10,48c4 <I_bge_cg_cr_rs1_rs2_edges_offset_rs1val_0x5bbc8872_rs2val_0x0>
  # Check if x0 contains the expected result. x15 is the signature ptr, x5 is the link ptr, x4 is a temp reg.
  RVTEST_SIGUPD(x15, x5, x4, x0, I_bge_cg_cr_rs1_rs2_edges_offset_rs1val_0x5bbc8872_rs2val_0x0, I_bge_cg_cr_rs1_rs2_edges_offset_rs1val_0x5bbc8872_rs2val_0x0_str)
    48cc:	0007a203          	lw	x4,0(x15)
    48d0:	00020863          	beq	x4,x0,48e0 <I_bge_cg_cr_rs1_rs2_edges_offset_rs1val_0x5bbc8872_rs2val_0x0+0x1c>
    48d4:	7a8052ef          	jal	x5,a07c <failedtest_x5_x4>
    48d8:	000048c4          	.word	0x000048c4
    48dc:	000103e5          	.word	0x000103e5
    48e0:	00478793          	addi	x15,x15,4
  j 4f # done with test
    48e4:	0280006f          	jal	x0,490c <I_bge_cg_cr_rs1_rs2_edges_offset_rs1val_0x5bbc8872_rs2val_0x0+0x48>
2: # goes here during backward branch if taken
  LI(x27, 1)
    48e8:	00100d93          	addi	x27,x0,1
  # Check if x27 contains the expected result. x15 is the signature ptr, x5 is the link ptr, x4 is a temp reg.
  RVTEST_SIGUPD(x15, x5, x4, x27, I_bge_cg_cr_rs1_rs2_edges_offset_rs1val_0x5bbc8872_rs2val_0x0, I_bge_cg_cr_rs1_rs2_edges_offset_rs1val_0x5bbc8872_rs2val_0x0_str) # signature 1 for taken
    48ec:	0007a203          	lw	x4,0(x15)
    48f0:	01b20863          	beq	x4,x27,4900 <I_bge_cg_cr_rs1_rs2_edges_offset_rs1val_0x5bbc8872_rs2val_0x0+0x3c>
    48f4:	788052ef          	jal	x5,a07c <failedtest_x5_x4>
    48f8:	000048c4          	.word	0x000048c4
    48fc:	000103e5          	.word	0x000103e5
    4900:	00478793          	addi	x15,x15,4
  j 4f # done with test
    4904:	0080006f          	jal	x0,490c <I_bge_cg_cr_rs1_rs2_edges_offset_rs1val_0x5bbc8872_rs2val_0x0+0x48>
3: # goes here during forward branch if taken
  bge x27, x10, 2b # backward branch, definitely taken
    4908:	feadd0e3          	bge	x27,x10,48e8 <I_bge_cg_cr_rs1_rs2_edges_offset_rs1val_0x5bbc8872_rs2val_0x0+0x24>
4: # done with test

# cr_rs1_rs2_edges_offset (Test source rs1 = 0x5bbc8872 rs2 = 0x00000001)
  RVTEST_TESTDATA_LOAD_INT(x23, x10) # load rs1: x10 = 0x5bbc8872
    490c:	000ba503          	lw	x10,0(x23)
    4910:	004b8b93          	addi	x23,x23,4
  RVTEST_TESTDATA_LOAD_INT(x23, x1) # load rs2: x1 = 0x00000001
    4914:	000ba083          	lw	x1,0(x23)
    4918:	004b8b93          	addi	x23,x23,4

0000491c <I_bge_cg_cr_rs1_rs2_edges_offset_rs1val_0x5bbc8872_rs2val_0x1>:
0: # destination for backwards branch that is never taken
I_bge_cg_cr_rs1_rs2_edges_offset_rs1val_0x5bbc8872_rs2val_0x1:
  bge x10, x1, 3f # forward branch, if taken
    491c:	04155263          	bge	x10,x1,4960 <I_bge_cg_cr_rs1_rs2_edges_offset_rs1val_0x5bbc8872_rs2val_0x1+0x44>
1: # goes here if not taken
  bge x10, x1, 0b # backward branch, never taken
    4920:	fe155ee3          	bge	x10,x1,491c <I_bge_cg_cr_rs1_rs2_edges_offset_rs1val_0x5bbc8872_rs2val_0x1>
  # Check if x0 contains the expected result. x15 is the signature ptr, x5 is the link ptr, x4 is a temp reg.
  RVTEST_SIGUPD(x15, x5, x4, x0, I_bge_cg_cr_rs1_rs2_edges_offset_rs1val_0x5bbc8872_rs2val_0x1, I_bge_cg_cr_rs1_rs2_edges_offset_rs1val_0x5bbc8872_rs2val_0x1_str)
    4924:	0007a203          	lw	x4,0(x15)
    4928:	00020863          	beq	x4,x0,4938 <I_bge_cg_cr_rs1_rs2_edges_offset_rs1val_0x5bbc8872_rs2val_0x1+0x1c>
    492c:	750052ef          	jal	x5,a07c <failedtest_x5_x4>
    4930:	0000491c          	.word	0x0000491c
    4934:	00010440          	.word	0x00010440
    4938:	00478793          	addi	x15,x15,4
  j 4f # done with test
    493c:	0280006f          	jal	x0,4964 <I_bge_cg_cr_rs1_rs2_edges_offset_rs1val_0x5bbc8872_rs2val_0x1+0x48>
2: # goes here during backward branch if taken
  LI(x10, 1)
    4940:	00100513          	addi	x10,x0,1
  # Check if x10 contains the expected result. x15 is the signature ptr, x5 is the link ptr, x4 is a temp reg.
  RVTEST_SIGUPD(x15, x5, x4, x10, I_bge_cg_cr_rs1_rs2_edges_offset_rs1val_0x5bbc8872_rs2val_0x1, I_bge_cg_cr_rs1_rs2_edges_offset_rs1val_0x5bbc8872_rs2val_0x1_str) # signature 1 for taken
    4944:	0007a203          	lw	x4,0(x15)
    4948:	00a20863          	beq	x4,x10,4958 <I_bge_cg_cr_rs1_rs2_edges_offset_rs1val_0x5bbc8872_rs2val_0x1+0x3c>
    494c:	730052ef          	jal	x5,a07c <failedtest_x5_x4>
    4950:	0000491c          	.word	0x0000491c
    4954:	00010440          	.word	0x00010440
    4958:	00478793          	addi	x15,x15,4
  j 4f # done with test
    495c:	0080006f          	jal	x0,4964 <I_bge_cg_cr_rs1_rs2_edges_offset_rs1val_0x5bbc8872_rs2val_0x1+0x48>
3: # goes here during forward branch if taken
  bge x10, x1, 2b # backward branch, definitely taken
    4960:	fe1550e3          	bge	x10,x1,4940 <I_bge_cg_cr_rs1_rs2_edges_offset_rs1val_0x5bbc8872_rs2val_0x1+0x24>
4: # done with test

# cr_rs1_rs2_edges_offset (Test source rs1 = 0x5bbc8872 rs2 = 0x00000002)
  RVTEST_TESTDATA_LOAD_INT(x23, x2) # load rs1: x2 = 0x5bbc8872
    4964:	000ba103          	lw	x2,0(x23)
    4968:	004b8b93          	addi	x23,x23,4
  RVTEST_TESTDATA_LOAD_INT(x23, x6) # load rs2: x6 = 0x00000002
    496c:	000ba303          	lw	x6,0(x23)
    4970:	004b8b93          	addi	x23,x23,4

00004974 <I_bge_cg_cr_rs1_rs2_edges_offset_rs1val_0x5bbc8872_rs2val_0x2>:
0: # destination for backwards branch that is never taken
I_bge_cg_cr_rs1_rs2_edges_offset_rs1val_0x5bbc8872_rs2val_0x2:
  bge x2, x6, 3f # forward branch, if taken
    4974:	04615263          	bge	x2,x6,49b8 <I_bge_cg_cr_rs1_rs2_edges_offset_rs1val_0x5bbc8872_rs2val_0x2+0x44>
1: # goes here if not taken
  bge x2, x6, 0b # backward branch, never taken
    4978:	fe615ee3          	bge	x2,x6,4974 <I_bge_cg_cr_rs1_rs2_edges_offset_rs1val_0x5bbc8872_rs2val_0x2>
  # Check if x0 contains the expected result. x15 is the signature ptr, x5 is the link ptr, x4 is a temp reg.
  RVTEST_SIGUPD(x15, x5, x4, x0, I_bge_cg_cr_rs1_rs2_edges_offset_rs1val_0x5bbc8872_rs2val_0x2, I_bge_cg_cr_rs1_rs2_edges_offset_rs1val_0x5bbc8872_rs2val_0x2_str)
    497c:	0007a203          	lw	x4,0(x15)
    4980:	00020863          	beq	x4,x0,4990 <I_bge_cg_cr_rs1_rs2_edges_offset_rs1val_0x5bbc8872_rs2val_0x2+0x1c>
    4984:	6f8052ef          	jal	x5,a07c <failedtest_x5_x4>
    4988:	00004974          	.word	0x00004974
    498c:	0001049b          	.word	0x0001049b
    4990:	00478793          	addi	x15,x15,4
  j 4f # done with test
    4994:	0280006f          	jal	x0,49bc <I_bge_cg_cr_rs1_rs2_edges_offset_rs1val_0x5bbc8872_rs2val_0x2+0x48>
2: # goes here during backward branch if taken
  LI(x2, 1)
    4998:	00100113          	addi	x2,x0,1
  # Check if x2 contains the expected result. x15 is the signature ptr, x5 is the link ptr, x4 is a temp reg.
  RVTEST_SIGUPD(x15, x5, x4, x2, I_bge_cg_cr_rs1_rs2_edges_offset_rs1val_0x5bbc8872_rs2val_0x2, I_bge_cg_cr_rs1_rs2_edges_offset_rs1val_0x5bbc8872_rs2val_0x2_str) # signature 1 for taken
    499c:	0007a203          	lw	x4,0(x15)
    49a0:	00220863          	beq	x4,x2,49b0 <I_bge_cg_cr_rs1_rs2_edges_offset_rs1val_0x5bbc8872_rs2val_0x2+0x3c>
    49a4:	6d8052ef          	jal	x5,a07c <failedtest_x5_x4>
    49a8:	00004974          	.word	0x00004974
    49ac:	0001049b          	.word	0x0001049b
    49b0:	00478793          	addi	x15,x15,4
  j 4f # done with test
    49b4:	0080006f          	jal	x0,49bc <I_bge_cg_cr_rs1_rs2_edges_offset_rs1val_0x5bbc8872_rs2val_0x2+0x48>
3: # goes here during forward branch if taken
  bge x2, x6, 2b # backward branch, definitely taken
    49b8:	fe6150e3          	bge	x2,x6,4998 <I_bge_cg_cr_rs1_rs2_edges_offset_rs1val_0x5bbc8872_rs2val_0x2+0x24>
4: # done with test

# cr_rs1_rs2_edges_offset (Test source rs1 = 0x5bbc8872 rs2 = 0x80000000)
  RVTEST_TESTDATA_LOAD_INT(x23, x14) # load rs1: x14 = 0x5bbc8872
    49bc:	000ba703          	lw	x14,0(x23)
    49c0:	004b8b93          	addi	x23,x23,4
  RVTEST_TESTDATA_LOAD_INT(x23, x20) # load rs2: x20 = 0x80000000
    49c4:	000baa03          	lw	x20,0(x23)
    49c8:	004b8b93          	addi	x23,x23,4

000049cc <I_bge_cg_cr_rs1_rs2_edges_offset_rs1val_0x5bbc8872_rs2val_0x80000000>:
0: # destination for backwards branch that is never taken
I_bge_cg_cr_rs1_rs2_edges_offset_rs1val_0x5bbc8872_rs2val_0x80000000:
  bge x14, x20, 3f # forward branch, if taken
    49cc:	05475263          	bge	x14,x20,4a10 <I_bge_cg_cr_rs1_rs2_edges_offset_rs1val_0x5bbc8872_rs2val_0x80000000+0x44>
1: # goes here if not taken
  bge x14, x20, 0b # backward branch, never taken
    49d0:	ff475ee3          	bge	x14,x20,49cc <I_bge_cg_cr_rs1_rs2_edges_offset_rs1val_0x5bbc8872_rs2val_0x80000000>
  # Check if x0 contains the expected result. x15 is the signature ptr, x5 is the link ptr, x4 is a temp reg.
  RVTEST_SIGUPD(x15, x5, x4, x0, I_bge_cg_cr_rs1_rs2_edges_offset_rs1val_0x5bbc8872_rs2val_0x80000000, I_bge_cg_cr_rs1_rs2_edges_offset_rs1val_0x5bbc8872_rs2val_0x80000000_str)
    49d4:	0007a203          	lw	x4,0(x15)
    49d8:	00020863          	beq	x4,x0,49e8 <I_bge_cg_cr_rs1_rs2_edges_offset_rs1val_0x5bbc8872_rs2val_0x80000000+0x1c>
    49dc:	6a0052ef          	jal	x5,a07c <failedtest_x5_x4>
    49e0:	000049cc          	.word	0x000049cc
    49e4:	000104f6          	.word	0x000104f6
    49e8:	00478793          	addi	x15,x15,4
  j 4f # done with test
    49ec:	0280006f          	jal	x0,4a14 <I_bge_cg_cr_rs1_rs2_edges_offset_rs1val_0x5bbc8872_rs2val_0x80000000+0x48>
2: # goes here during backward branch if taken
  LI(x14, 1)
    49f0:	00100713          	addi	x14,x0,1
  # Check if x14 contains the expected result. x15 is the signature ptr, x5 is the link ptr, x4 is a temp reg.
  RVTEST_SIGUPD(x15, x5, x4, x14, I_bge_cg_cr_rs1_rs2_edges_offset_rs1val_0x5bbc8872_rs2val_0x80000000, I_bge_cg_cr_rs1_rs2_edges_offset_rs1val_0x5bbc8872_rs2val_0x80000000_str) # signature 1 for taken
    49f4:	0007a203          	lw	x4,0(x15)
    49f8:	00e20863          	beq	x4,x14,4a08 <I_bge_cg_cr_rs1_rs2_edges_offset_rs1val_0x5bbc8872_rs2val_0x80000000+0x3c>
    49fc:	680052ef          	jal	x5,a07c <failedtest_x5_x4>
    4a00:	000049cc          	.word	0x000049cc
    4a04:	000104f6          	.word	0x000104f6
    4a08:	00478793          	addi	x15,x15,4
  j 4f # done with test
    4a0c:	0080006f          	jal	x0,4a14 <I_bge_cg_cr_rs1_rs2_edges_offset_rs1val_0x5bbc8872_rs2val_0x80000000+0x48>
3: # goes here during forward branch if taken
  bge x14, x20, 2b # backward branch, definitely taken
    4a10:	ff4750e3          	bge	x14,x20,49f0 <I_bge_cg_cr_rs1_rs2_edges_offset_rs1val_0x5bbc8872_rs2val_0x80000000+0x24>
4: # done with test

# cr_rs1_rs2_edges_offset (Test source rs1 = 0x5bbc8872 rs2 = 0x80000001)
  RVTEST_TESTDATA_LOAD_INT(x23, x24) # load rs1: x24 = 0x5bbc8872
    4a14:	000bac03          	lw	x24,0(x23)
    4a18:	004b8b93          	addi	x23,x23,4
  RVTEST_TESTDATA_LOAD_INT(x23, x25) # load rs2: x25 = 0x80000001
    4a1c:	000bac83          	lw	x25,0(x23)
    4a20:	004b8b93          	addi	x23,x23,4

00004a24 <I_bge_cg_cr_rs1_rs2_edges_offset_rs1val_0x5bbc8872_rs2val_0x80000001>:
0: # destination for backwards branch that is never taken
I_bge_cg_cr_rs1_rs2_edges_offset_rs1val_0x5bbc8872_rs2val_0x80000001:
  bge x24, x25, 3f # forward branch, if taken
    4a24:	059c5263          	bge	x24,x25,4a68 <I_bge_cg_cr_rs1_rs2_edges_offset_rs1val_0x5bbc8872_rs2val_0x80000001+0x44>
1: # goes here if not taken
  bge x24, x25, 0b # backward branch, never taken
    4a28:	ff9c5ee3          	bge	x24,x25,4a24 <I_bge_cg_cr_rs1_rs2_edges_offset_rs1val_0x5bbc8872_rs2val_0x80000001>
  # Check if x0 contains the expected result. x15 is the signature ptr, x5 is the link ptr, x4 is a temp reg.
  RVTEST_SIGUPD(x15, x5, x4, x0, I_bge_cg_cr_rs1_rs2_edges_offset_rs1val_0x5bbc8872_rs2val_0x80000001, I_bge_cg_cr_rs1_rs2_edges_offset_rs1val_0x5bbc8872_rs2val_0x80000001_str)
    4a2c:	0007a203          	lw	x4,0(x15)
    4a30:	00020863          	beq	x4,x0,4a40 <I_bge_cg_cr_rs1_rs2_edges_offset_rs1val_0x5bbc8872_rs2val_0x80000001+0x1c>
    4a34:	648052ef          	jal	x5,a07c <failedtest_x5_x4>
    4a38:	00004a24          	.word	0x00004a24
    4a3c:	00010558          	.word	0x00010558
    4a40:	00478793          	addi	x15,x15,4
  j 4f # done with test
    4a44:	0280006f          	jal	x0,4a6c <I_bge_cg_cr_rs1_rs2_edges_offset_rs1val_0x5bbc8872_rs2val_0x80000001+0x48>
2: # goes here during backward branch if taken
  LI(x24, 1)
    4a48:	00100c13          	addi	x24,x0,1
  # Check if x24 contains the expected result. x15 is the signature ptr, x5 is the link ptr, x4 is a temp reg.
  RVTEST_SIGUPD(x15, x5, x4, x24, I_bge_cg_cr_rs1_rs2_edges_offset_rs1val_0x5bbc8872_rs2val_0x80000001, I_bge_cg_cr_rs1_rs2_edges_offset_rs1val_0x5bbc8872_rs2val_0x80000001_str) # signature 1 for taken
    4a4c:	0007a203          	lw	x4,0(x15)
    4a50:	01820863          	beq	x4,x24,4a60 <I_bge_cg_cr_rs1_rs2_edges_offset_rs1val_0x5bbc8872_rs2val_0x80000001+0x3c>
    4a54:	628052ef          	jal	x5,a07c <failedtest_x5_x4>
    4a58:	00004a24          	.word	0x00004a24
    4a5c:	00010558          	.word	0x00010558
    4a60:	00478793          	addi	x15,x15,4
  j 4f # done with test
    4a64:	0080006f          	jal	x0,4a6c <I_bge_cg_cr_rs1_rs2_edges_offset_rs1val_0x5bbc8872_rs2val_0x80000001+0x48>
3: # goes here during forward branch if taken
  bge x24, x25, 2b # backward branch, definitely taken
    4a68:	ff9c50e3          	bge	x24,x25,4a48 <I_bge_cg_cr_rs1_rs2_edges_offset_rs1val_0x5bbc8872_rs2val_0x80000001+0x24>
4: # done with test

# cr_rs1_rs2_edges_offset (Test source rs1 = 0x5bbc8872 rs2 = 0x7fffffff)
  RVTEST_TESTDATA_LOAD_INT(x23, x31) # load rs1: x31 = 0x5bbc8872
    4a6c:	000baf83          	lw	x31,0(x23)
    4a70:	004b8b93          	addi	x23,x23,4
  RVTEST_TESTDATA_LOAD_INT(x23, x24) # load rs2: x24 = 0x7fffffff
    4a74:	000bac03          	lw	x24,0(x23)
    4a78:	004b8b93          	addi	x23,x23,4

00004a7c <I_bge_cg_cr_rs1_rs2_edges_offset_rs1val_0x5bbc8872_rs2val_0x7fffffff>:
0: # destination for backwards branch that is never taken
I_bge_cg_cr_rs1_rs2_edges_offset_rs1val_0x5bbc8872_rs2val_0x7fffffff:
  bge x31, x24, 3f # forward branch, if taken
    4a7c:	058fd263          	bge	x31,x24,4ac0 <I_bge_cg_cr_rs1_rs2_edges_offset_rs1val_0x5bbc8872_rs2val_0x7fffffff+0x44>
1: # goes here if not taken
  bge x31, x24, 0b # backward branch, never taken
    4a80:	ff8fdee3          	bge	x31,x24,4a7c <I_bge_cg_cr_rs1_rs2_edges_offset_rs1val_0x5bbc8872_rs2val_0x7fffffff>
  # Check if x0 contains the expected result. x15 is the signature ptr, x5 is the link ptr, x4 is a temp reg.
  RVTEST_SIGUPD(x15, x5, x4, x0, I_bge_cg_cr_rs1_rs2_edges_offset_rs1val_0x5bbc8872_rs2val_0x7fffffff, I_bge_cg_cr_rs1_rs2_edges_offset_rs1val_0x5bbc8872_rs2val_0x7fffffff_str)
    4a84:	0007a203          	lw	x4,0(x15)
    4a88:	00020863          	beq	x4,x0,4a98 <I_bge_cg_cr_rs1_rs2_edges_offset_rs1val_0x5bbc8872_rs2val_0x7fffffff+0x1c>
    4a8c:	5f0052ef          	jal	x5,a07c <failedtest_x5_x4>
    4a90:	00004a7c          	.word	0x00004a7c
    4a94:	000105ba          	.word	0x000105ba
    4a98:	00478793          	addi	x15,x15,4
  j 4f # done with test
    4a9c:	0280006f          	jal	x0,4ac4 <I_bge_cg_cr_rs1_rs2_edges_offset_rs1val_0x5bbc8872_rs2val_0x7fffffff+0x48>
2: # goes here during backward branch if taken
  LI(x31, 1)
    4aa0:	00100f93          	addi	x31,x0,1
  # Check if x31 contains the expected result. x15 is the signature ptr, x5 is the link ptr, x4 is a temp reg.
  RVTEST_SIGUPD(x15, x5, x4, x31, I_bge_cg_cr_rs1_rs2_edges_offset_rs1val_0x5bbc8872_rs2val_0x7fffffff, I_bge_cg_cr_rs1_rs2_edges_offset_rs1val_0x5bbc8872_rs2val_0x7fffffff_str) # signature 1 for taken
    4aa4:	0007a203          	lw	x4,0(x15)
    4aa8:	01f20863          	beq	x4,x31,4ab8 <I_bge_cg_cr_rs1_rs2_edges_offset_rs1val_0x5bbc8872_rs2val_0x7fffffff+0x3c>
    4aac:	5d0052ef          	jal	x5,a07c <failedtest_x5_x4>
    4ab0:	00004a7c          	.word	0x00004a7c
    4ab4:	000105ba          	.word	0x000105ba
    4ab8:	00478793          	addi	x15,x15,4
  j 4f # done with test
    4abc:	0080006f          	jal	x0,4ac4 <I_bge_cg_cr_rs1_rs2_edges_offset_rs1val_0x5bbc8872_rs2val_0x7fffffff+0x48>
3: # goes here during forward branch if taken
  bge x31, x24, 2b # backward branch, definitely taken
    4ac0:	ff8fd0e3          	bge	x31,x24,4aa0 <I_bge_cg_cr_rs1_rs2_edges_offset_rs1val_0x5bbc8872_rs2val_0x7fffffff+0x24>
4: # done with test

# cr_rs1_rs2_edges_offset (Test source rs1 = 0x5bbc8872 rs2 = 0x7ffffffe)
  RVTEST_TESTDATA_LOAD_INT(x23, x24) # load rs1: x24 = 0x5bbc8872
    4ac4:	000bac03          	lw	x24,0(x23)
    4ac8:	004b8b93          	addi	x23,x23,4
  RVTEST_TESTDATA_LOAD_INT(x23, x3) # load rs2: x3 = 0x7ffffffe
    4acc:	000ba183          	lw	x3,0(x23)
    4ad0:	004b8b93          	addi	x23,x23,4

00004ad4 <I_bge_cg_cr_rs1_rs2_edges_offset_rs1val_0x5bbc8872_rs2val_0x7ffffffe>:
0: # destination for backwards branch that is never taken
I_bge_cg_cr_rs1_rs2_edges_offset_rs1val_0x5bbc8872_rs2val_0x7ffffffe:
  bge x24, x3, 3f # forward branch, if taken
    4ad4:	043c5263          	bge	x24,x3,4b18 <I_bge_cg_cr_rs1_rs2_edges_offset_rs1val_0x5bbc8872_rs2val_0x7ffffffe+0x44>
1: # goes here if not taken
  bge x24, x3, 0b # backward branch, never taken
    4ad8:	fe3c5ee3          	bge	x24,x3,4ad4 <I_bge_cg_cr_rs1_rs2_edges_offset_rs1val_0x5bbc8872_rs2val_0x7ffffffe>
  # Check if x0 contains the expected result. x15 is the signature ptr, x5 is the link ptr, x4 is a temp reg.
  RVTEST_SIGUPD(x15, x5, x4, x0, I_bge_cg_cr_rs1_rs2_edges_offset_rs1val_0x5bbc8872_rs2val_0x7ffffffe, I_bge_cg_cr_rs1_rs2_edges_offset_rs1val_0x5bbc8872_rs2val_0x7ffffffe_str)
    4adc:	0007a203          	lw	x4,0(x15)
    4ae0:	00020863          	beq	x4,x0,4af0 <I_bge_cg_cr_rs1_rs2_edges_offset_rs1val_0x5bbc8872_rs2val_0x7ffffffe+0x1c>
    4ae4:	598052ef          	jal	x5,a07c <failedtest_x5_x4>
    4ae8:	00004ad4          	.word	0x00004ad4
    4aec:	0001061c          	.word	0x0001061c
    4af0:	00478793          	addi	x15,x15,4
  j 4f # done with test
    4af4:	0280006f          	jal	x0,4b1c <I_bge_cg_cr_rs1_rs2_edges_offset_rs1val_0x5bbc8872_rs2val_0x7ffffffe+0x48>
2: # goes here during backward branch if taken
  LI(x24, 1)
    4af8:	00100c13          	addi	x24,x0,1
  # Check if x24 contains the expected result. x15 is the signature ptr, x5 is the link ptr, x4 is a temp reg.
  RVTEST_SIGUPD(x15, x5, x4, x24, I_bge_cg_cr_rs1_rs2_edges_offset_rs1val_0x5bbc8872_rs2val_0x7ffffffe, I_bge_cg_cr_rs1_rs2_edges_offset_rs1val_0x5bbc8872_rs2val_0x7ffffffe_str) # signature 1 for taken
    4afc:	0007a203          	lw	x4,0(x15)
    4b00:	01820863          	beq	x4,x24,4b10 <I_bge_cg_cr_rs1_rs2_edges_offset_rs1val_0x5bbc8872_rs2val_0x7ffffffe+0x3c>
    4b04:	578052ef          	jal	x5,a07c <failedtest_x5_x4>
    4b08:	00004ad4          	.word	0x00004ad4
    4b0c:	0001061c          	.word	0x0001061c
    4b10:	00478793          	addi	x15,x15,4
  j 4f # done with test
    4b14:	0080006f          	jal	x0,4b1c <I_bge_cg_cr_rs1_rs2_edges_offset_rs1val_0x5bbc8872_rs2val_0x7ffffffe+0x48>
3: # goes here during forward branch if taken
  bge x24, x3, 2b # backward branch, definitely taken
    4b18:	fe3c50e3          	bge	x24,x3,4af8 <I_bge_cg_cr_rs1_rs2_edges_offset_rs1val_0x5bbc8872_rs2val_0x7ffffffe+0x24>
4: # done with test

# cr_rs1_rs2_edges_offset (Test source rs1 = 0x5bbc8872 rs2 = 0xffffffff)
  RVTEST_TESTDATA_LOAD_INT(x23, x20) # load rs1: x20 = 0x5bbc8872
    4b1c:	000baa03          	lw	x20,0(x23)
    4b20:	004b8b93          	addi	x23,x23,4
  RVTEST_TESTDATA_LOAD_INT(x23, x30) # load rs2: x30 = 0xffffffff
    4b24:	000baf03          	lw	x30,0(x23)
    4b28:	004b8b93          	addi	x23,x23,4

00004b2c <I_bge_cg_cr_rs1_rs2_edges_offset_rs1val_0x5bbc8872_rs2val_0xffffffff>:
0: # destination for backwards branch that is never taken
I_bge_cg_cr_rs1_rs2_edges_offset_rs1val_0x5bbc8872_rs2val_0xffffffff:
  bge x20, x30, 3f # forward branch, if taken
    4b2c:	05ea5263          	bge	x20,x30,4b70 <I_bge_cg_cr_rs1_rs2_edges_offset_rs1val_0x5bbc8872_rs2val_0xffffffff+0x44>
1: # goes here if not taken
  bge x20, x30, 0b # backward branch, never taken
    4b30:	ffea5ee3          	bge	x20,x30,4b2c <I_bge_cg_cr_rs1_rs2_edges_offset_rs1val_0x5bbc8872_rs2val_0xffffffff>
  # Check if x0 contains the expected result. x15 is the signature ptr, x5 is the link ptr, x4 is a temp reg.
  RVTEST_SIGUPD(x15, x5, x4, x0, I_bge_cg_cr_rs1_rs2_edges_offset_rs1val_0x5bbc8872_rs2val_0xffffffff, I_bge_cg_cr_rs1_rs2_edges_offset_rs1val_0x5bbc8872_rs2val_0xffffffff_str)
    4b34:	0007a203          	lw	x4,0(x15)
    4b38:	00020863          	beq	x4,x0,4b48 <I_bge_cg_cr_rs1_rs2_edges_offset_rs1val_0x5bbc8872_rs2val_0xffffffff+0x1c>
    4b3c:	540052ef          	jal	x5,a07c <failedtest_x5_x4>
    4b40:	00004b2c          	.word	0x00004b2c
    4b44:	0001067e          	.word	0x0001067e
    4b48:	00478793          	addi	x15,x15,4
  j 4f # done with test
    4b4c:	0280006f          	jal	x0,4b74 <I_bge_cg_cr_rs1_rs2_edges_offset_rs1val_0x5bbc8872_rs2val_0xffffffff+0x48>
2: # goes here during backward branch if taken
  LI(x20, 1)
    4b50:	00100a13          	addi	x20,x0,1
  # Check if x20 contains the expected result. x15 is the signature ptr, x5 is the link ptr, x4 is a temp reg.
  RVTEST_SIGUPD(x15, x5, x4, x20, I_bge_cg_cr_rs1_rs2_edges_offset_rs1val_0x5bbc8872_rs2val_0xffffffff, I_bge_cg_cr_rs1_rs2_edges_offset_rs1val_0x5bbc8872_rs2val_0xffffffff_str) # signature 1 for taken
    4b54:	0007a203          	lw	x4,0(x15)
    4b58:	01420863          	beq	x4,x20,4b68 <I_bge_cg_cr_rs1_rs2_edges_offset_rs1val_0x5bbc8872_rs2val_0xffffffff+0x3c>
    4b5c:	520052ef          	jal	x5,a07c <failedtest_x5_x4>
    4b60:	00004b2c          	.word	0x00004b2c
    4b64:	0001067e          	.word	0x0001067e
    4b68:	00478793          	addi	x15,x15,4
  j 4f # done with test
    4b6c:	0080006f          	jal	x0,4b74 <I_bge_cg_cr_rs1_rs2_edges_offset_rs1val_0x5bbc8872_rs2val_0xffffffff+0x48>
3: # goes here during forward branch if taken
  bge x20, x30, 2b # backward branch, definitely taken
    4b70:	ffea50e3          	bge	x20,x30,4b50 <I_bge_cg_cr_rs1_rs2_edges_offset_rs1val_0x5bbc8872_rs2val_0xffffffff+0x24>
4: # done with test

# cr_rs1_rs2_edges_offset (Test source rs1 = 0x5bbc8872 rs2 = 0xfffffffe)
  RVTEST_TESTDATA_LOAD_INT(x23, x17) # load rs1: x17 = 0x5bbc8872
    4b74:	000ba883          	lw	x17,0(x23)
    4b78:	004b8b93          	addi	x23,x23,4
  RVTEST_TESTDATA_LOAD_INT(x23, x26) # load rs2: x26 = 0xfffffffe
    4b7c:	000bad03          	lw	x26,0(x23)
    4b80:	004b8b93          	addi	x23,x23,4

00004b84 <I_bge_cg_cr_rs1_rs2_edges_offset_rs1val_0x5bbc8872_rs2val_0xfffffffe>:
0: # destination for backwards branch that is never taken
I_bge_cg_cr_rs1_rs2_edges_offset_rs1val_0x5bbc8872_rs2val_0xfffffffe:
  bge x17, x26, 3f # forward branch, if taken
    4b84:	05a8d263          	bge	x17,x26,4bc8 <I_bge_cg_cr_rs1_rs2_edges_offset_rs1val_0x5bbc8872_rs2val_0xfffffffe+0x44>
1: # goes here if not taken
  bge x17, x26, 0b # backward branch, never taken
    4b88:	ffa8dee3          	bge	x17,x26,4b84 <I_bge_cg_cr_rs1_rs2_edges_offset_rs1val_0x5bbc8872_rs2val_0xfffffffe>
  # Check if x0 contains the expected result. x15 is the signature ptr, x5 is the link ptr, x4 is a temp reg.
  RVTEST_SIGUPD(x15, x5, x4, x0, I_bge_cg_cr_rs1_rs2_edges_offset_rs1val_0x5bbc8872_rs2val_0xfffffffe, I_bge_cg_cr_rs1_rs2_edges_offset_rs1val_0x5bbc8872_rs2val_0xfffffffe_str)
    4b8c:	0007a203          	lw	x4,0(x15)
    4b90:	00020863          	beq	x4,x0,4ba0 <I_bge_cg_cr_rs1_rs2_edges_offset_rs1val_0x5bbc8872_rs2val_0xfffffffe+0x1c>
    4b94:	4e8052ef          	jal	x5,a07c <failedtest_x5_x4>
    4b98:	00004b84          	.word	0x00004b84
    4b9c:	000106e0          	.word	0x000106e0
    4ba0:	00478793          	addi	x15,x15,4
  j 4f # done with test
    4ba4:	0280006f          	jal	x0,4bcc <I_bge_cg_cr_rs1_rs2_edges_offset_rs1val_0x5bbc8872_rs2val_0xfffffffe+0x48>
2: # goes here during backward branch if taken
  LI(x17, 1)
    4ba8:	00100893          	addi	x17,x0,1
  # Check if x17 contains the expected result. x15 is the signature ptr, x5 is the link ptr, x4 is a temp reg.
  RVTEST_SIGUPD(x15, x5, x4, x17, I_bge_cg_cr_rs1_rs2_edges_offset_rs1val_0x5bbc8872_rs2val_0xfffffffe, I_bge_cg_cr_rs1_rs2_edges_offset_rs1val_0x5bbc8872_rs2val_0xfffffffe_str) # signature 1 for taken
    4bac:	0007a203          	lw	x4,0(x15)
    4bb0:	01120863          	beq	x4,x17,4bc0 <I_bge_cg_cr_rs1_rs2_edges_offset_rs1val_0x5bbc8872_rs2val_0xfffffffe+0x3c>
    4bb4:	4c8052ef          	jal	x5,a07c <failedtest_x5_x4>
    4bb8:	00004b84          	.word	0x00004b84
    4bbc:	000106e0          	.word	0x000106e0
    4bc0:	00478793          	addi	x15,x15,4
  j 4f # done with test
    4bc4:	0080006f          	jal	x0,4bcc <I_bge_cg_cr_rs1_rs2_edges_offset_rs1val_0x5bbc8872_rs2val_0xfffffffe+0x48>
3: # goes here during forward branch if taken
  bge x17, x26, 2b # backward branch, definitely taken
    4bc8:	ffa8d0e3          	bge	x17,x26,4ba8 <I_bge_cg_cr_rs1_rs2_edges_offset_rs1val_0x5bbc8872_rs2val_0xfffffffe+0x24>
4: # done with test

# cr_rs1_rs2_edges_offset (Test source rs1 = 0x5bbc8872 rs2 = 0x5bbc8872)
  RVTEST_TESTDATA_LOAD_INT(x23, x9) # load rs1: x9 = 0x5bbc8872
    4bcc:	000ba483          	lw	x9,0(x23)
    4bd0:	004b8b93          	addi	x23,x23,4
  RVTEST_TESTDATA_LOAD_INT(x23, x24) # load rs2: x24 = 0x5bbc8872
    4bd4:	000bac03          	lw	x24,0(x23)
    4bd8:	004b8b93          	addi	x23,x23,4

00004bdc <I_bge_cg_cr_rs1_rs2_edges_offset_rs1val_0x5bbc8872_rs2val_0x5bbc8872>:
0: # destination for backwards branch that is never taken
I_bge_cg_cr_rs1_rs2_edges_offset_rs1val_0x5bbc8872_rs2val_0x5bbc8872:
  bge x9, x24, 3f # forward branch, if taken
    4bdc:	0584d263          	bge	x9,x24,4c20 <I_bge_cg_cr_rs1_rs2_edges_offset_rs1val_0x5bbc8872_rs2val_0x5bbc8872+0x44>
1: # goes here if not taken
  bge x9, x24, 0b # backward branch, never taken
    4be0:	ff84dee3          	bge	x9,x24,4bdc <I_bge_cg_cr_rs1_rs2_edges_offset_rs1val_0x5bbc8872_rs2val_0x5bbc8872>
  # Check if x0 contains the expected result. x15 is the signature ptr, x5 is the link ptr, x4 is a temp reg.
  RVTEST_SIGUPD(x15, x5, x4, x0, I_bge_cg_cr_rs1_rs2_edges_offset_rs1val_0x5bbc8872_rs2val_0x5bbc8872, I_bge_cg_cr_rs1_rs2_edges_offset_rs1val_0x5bbc8872_rs2val_0x5bbc8872_str)
    4be4:	0007a203          	lw	x4,0(x15)
    4be8:	00020863          	beq	x4,x0,4bf8 <I_bge_cg_cr_rs1_rs2_edges_offset_rs1val_0x5bbc8872_rs2val_0x5bbc8872+0x1c>
    4bec:	490052ef          	jal	x5,a07c <failedtest_x5_x4>
    4bf0:	00004bdc          	.word	0x00004bdc
    4bf4:	00010742          	.word	0x00010742
    4bf8:	00478793          	addi	x15,x15,4
  j 4f # done with test
    4bfc:	0280006f          	jal	x0,4c24 <I_bge_cg_cr_rs1_rs2_edges_offset_rs1val_0x5bbc8872_rs2val_0x5bbc8872+0x48>
2: # goes here during backward branch if taken
  LI(x9, 1)
    4c00:	00100493          	addi	x9,x0,1
  # Check if x9 contains the expected result. x15 is the signature ptr, x5 is the link ptr, x4 is a temp reg.
  RVTEST_SIGUPD(x15, x5, x4, x9, I_bge_cg_cr_rs1_rs2_edges_offset_rs1val_0x5bbc8872_rs2val_0x5bbc8872, I_bge_cg_cr_rs1_rs2_edges_offset_rs1val_0x5bbc8872_rs2val_0x5bbc8872_str) # signature 1 for taken
    4c04:	0007a203          	lw	x4,0(x15)
    4c08:	00920863          	beq	x4,x9,4c18 <I_bge_cg_cr_rs1_rs2_edges_offset_rs1val_0x5bbc8872_rs2val_0x5bbc8872+0x3c>
    4c0c:	470052ef          	jal	x5,a07c <failedtest_x5_x4>
    4c10:	00004bdc          	.word	0x00004bdc
    4c14:	00010742          	.word	0x00010742
    4c18:	00478793          	addi	x15,x15,4
  j 4f # done with test
    4c1c:	0080006f          	jal	x0,4c24 <I_bge_cg_cr_rs1_rs2_edges_offset_rs1val_0x5bbc8872_rs2val_0x5bbc8872+0x48>
3: # goes here during forward branch if taken
  bge x9, x24, 2b # backward branch, definitely taken
    4c20:	ff84d0e3          	bge	x9,x24,4c00 <I_bge_cg_cr_rs1_rs2_edges_offset_rs1val_0x5bbc8872_rs2val_0x5bbc8872+0x24>
4: # done with test

# cr_rs1_rs2_edges_offset (Test source rs1 = 0x5bbc8872 rs2 = 0xaaaaaaaa)
  RVTEST_TESTDATA_LOAD_INT(x23, x2) # load rs1: x2 = 0x5bbc8872
    4c24:	000ba103          	lw	x2,0(x23)
    4c28:	004b8b93          	addi	x23,x23,4
  RVTEST_TESTDATA_LOAD_INT(x23, x7) # load rs2: x7 = 0xaaaaaaaa
    4c2c:	000ba383          	lw	x7,0(x23)
    4c30:	004b8b93          	addi	x23,x23,4

00004c34 <I_bge_cg_cr_rs1_rs2_edges_offset_rs1val_0x5bbc8872_rs2val_0xaaaaaaaa>:
0: # destination for backwards branch that is never taken
I_bge_cg_cr_rs1_rs2_edges_offset_rs1val_0x5bbc8872_rs2val_0xaaaaaaaa:
  bge x2, x7, 3f # forward branch, if taken
    4c34:	04715263          	bge	x2,x7,4c78 <I_bge_cg_cr_rs1_rs2_edges_offset_rs1val_0x5bbc8872_rs2val_0xaaaaaaaa+0x44>
1: # goes here if not taken
  bge x2, x7, 0b # backward branch, never taken
    4c38:	fe715ee3          	bge	x2,x7,4c34 <I_bge_cg_cr_rs1_rs2_edges_offset_rs1val_0x5bbc8872_rs2val_0xaaaaaaaa>
  # Check if x0 contains the expected result. x15 is the signature ptr, x5 is the link ptr, x4 is a temp reg.
  RVTEST_SIGUPD(x15, x5, x4, x0, I_bge_cg_cr_rs1_rs2_edges_offset_rs1val_0x5bbc8872_rs2val_0xaaaaaaaa, I_bge_cg_cr_rs1_rs2_edges_offset_rs1val_0x5bbc8872_rs2val_0xaaaaaaaa_str)
    4c3c:	0007a203          	lw	x4,0(x15)
    4c40:	00020863          	beq	x4,x0,4c50 <I_bge_cg_cr_rs1_rs2_edges_offset_rs1val_0x5bbc8872_rs2val_0xaaaaaaaa+0x1c>
    4c44:	438052ef          	jal	x5,a07c <failedtest_x5_x4>
    4c48:	00004c34          	.word	0x00004c34
    4c4c:	000107a4          	.word	0x000107a4
    4c50:	00478793          	addi	x15,x15,4
  j 4f # done with test
    4c54:	0280006f          	jal	x0,4c7c <I_bge_cg_cr_rs1_rs2_edges_offset_rs1val_0x5bbc8872_rs2val_0xaaaaaaaa+0x48>
2: # goes here during backward branch if taken
  LI(x2, 1)
    4c58:	00100113          	addi	x2,x0,1
  # Check if x2 contains the expected result. x15 is the signature ptr, x5 is the link ptr, x4 is a temp reg.
  RVTEST_SIGUPD(x15, x5, x4, x2, I_bge_cg_cr_rs1_rs2_edges_offset_rs1val_0x5bbc8872_rs2val_0xaaaaaaaa, I_bge_cg_cr_rs1_rs2_edges_offset_rs1val_0x5bbc8872_rs2val_0xaaaaaaaa_str) # signature 1 for taken
    4c5c:	0007a203          	lw	x4,0(x15)
    4c60:	00220863          	beq	x4,x2,4c70 <I_bge_cg_cr_rs1_rs2_edges_offset_rs1val_0x5bbc8872_rs2val_0xaaaaaaaa+0x3c>
    4c64:	418052ef          	jal	x5,a07c <failedtest_x5_x4>
    4c68:	00004c34          	.word	0x00004c34
    4c6c:	000107a4          	.word	0x000107a4
    4c70:	00478793          	addi	x15,x15,4
  j 4f # done with test
    4c74:	0080006f          	jal	x0,4c7c <I_bge_cg_cr_rs1_rs2_edges_offset_rs1val_0x5bbc8872_rs2val_0xaaaaaaaa+0x48>
3: # goes here during forward branch if taken
  bge x2, x7, 2b # backward branch, definitely taken
    4c78:	fe7150e3          	bge	x2,x7,4c58 <I_bge_cg_cr_rs1_rs2_edges_offset_rs1val_0x5bbc8872_rs2val_0xaaaaaaaa+0x24>
4: # done with test

# cr_rs1_rs2_edges_offset (Test source rs1 = 0x5bbc8872 rs2 = 0x55555555)
  RVTEST_TESTDATA_LOAD_INT(x23, x14) # load rs1: x14 = 0x5bbc8872
    4c7c:	000ba703          	lw	x14,0(x23)
    4c80:	004b8b93          	addi	x23,x23,4
  RVTEST_TESTDATA_LOAD_INT(x23, x25) # load rs2: x25 = 0x55555555
    4c84:	000bac83          	lw	x25,0(x23)
    4c88:	004b8b93          	addi	x23,x23,4

00004c8c <I_bge_cg_cr_rs1_rs2_edges_offset_rs1val_0x5bbc8872_rs2val_0x55555555>:
0: # destination for backwards branch that is never taken
I_bge_cg_cr_rs1_rs2_edges_offset_rs1val_0x5bbc8872_rs2val_0x55555555:
  bge x14, x25, 3f # forward branch, if taken
    4c8c:	05975263          	bge	x14,x25,4cd0 <I_bge_cg_cr_rs1_rs2_edges_offset_rs1val_0x5bbc8872_rs2val_0x55555555+0x44>
1: # goes here if not taken
  bge x14, x25, 0b # backward branch, never taken
    4c90:	ff975ee3          	bge	x14,x25,4c8c <I_bge_cg_cr_rs1_rs2_edges_offset_rs1val_0x5bbc8872_rs2val_0x55555555>
  # Check if x0 contains the expected result. x15 is the signature ptr, x5 is the link ptr, x4 is a temp reg.
  RVTEST_SIGUPD(x15, x5, x4, x0, I_bge_cg_cr_rs1_rs2_edges_offset_rs1val_0x5bbc8872_rs2val_0x55555555, I_bge_cg_cr_rs1_rs2_edges_offset_rs1val_0x5bbc8872_rs2val_0x55555555_str)
    4c94:	0007a203          	lw	x4,0(x15)
    4c98:	00020863          	beq	x4,x0,4ca8 <I_bge_cg_cr_rs1_rs2_edges_offset_rs1val_0x5bbc8872_rs2val_0x55555555+0x1c>
    4c9c:	3e0052ef          	jal	x5,a07c <failedtest_x5_x4>
    4ca0:	00004c8c          	.word	0x00004c8c
    4ca4:	00010806          	.word	0x00010806
    4ca8:	00478793          	addi	x15,x15,4
  j 4f # done with test
    4cac:	0280006f          	jal	x0,4cd4 <I_bge_cg_cr_rs1_rs2_edges_offset_rs1val_0x5bbc8872_rs2val_0x55555555+0x48>
2: # goes here during backward branch if taken
  LI(x14, 1)
    4cb0:	00100713          	addi	x14,x0,1
  # Check if x14 contains the expected result. x15 is the signature ptr, x5 is the link ptr, x4 is a temp reg.
  RVTEST_SIGUPD(x15, x5, x4, x14, I_bge_cg_cr_rs1_rs2_edges_offset_rs1val_0x5bbc8872_rs2val_0x55555555, I_bge_cg_cr_rs1_rs2_edges_offset_rs1val_0x5bbc8872_rs2val_0x55555555_str) # signature 1 for taken
    4cb4:	0007a203          	lw	x4,0(x15)
    4cb8:	00e20863          	beq	x4,x14,4cc8 <I_bge_cg_cr_rs1_rs2_edges_offset_rs1val_0x5bbc8872_rs2val_0x55555555+0x3c>
    4cbc:	3c0052ef          	jal	x5,a07c <failedtest_x5_x4>
    4cc0:	00004c8c          	.word	0x00004c8c
    4cc4:	00010806          	.word	0x00010806
    4cc8:	00478793          	addi	x15,x15,4
  j 4f # done with test
    4ccc:	0080006f          	jal	x0,4cd4 <I_bge_cg_cr_rs1_rs2_edges_offset_rs1val_0x5bbc8872_rs2val_0x55555555+0x48>
3: # goes here during forward branch if taken
  bge x14, x25, 2b # backward branch, definitely taken
    4cd0:	ff9750e3          	bge	x14,x25,4cb0 <I_bge_cg_cr_rs1_rs2_edges_offset_rs1val_0x5bbc8872_rs2val_0x55555555+0x24>
4: # done with test

# cr_rs1_rs2_edges_offset (Test source rs1 = 0xaaaaaaaa rs2 = 0x00000000)
  RVTEST_TESTDATA_LOAD_INT(x23, x2) # load rs1: x2 = 0xaaaaaaaa
    4cd4:	000ba103          	lw	x2,0(x23)
    4cd8:	004b8b93          	addi	x23,x23,4
  RVTEST_TESTDATA_LOAD_INT(x23, x18) # load rs2: x18 = 0x00000000
    4cdc:	000ba903          	lw	x18,0(x23)
    4ce0:	004b8b93          	addi	x23,x23,4

00004ce4 <I_bge_cg_cr_rs1_rs2_edges_offset_rs1val_0xaaaaaaaa_rs2val_0x0>:
0: # destination for backwards branch that is never taken
I_bge_cg_cr_rs1_rs2_edges_offset_rs1val_0xaaaaaaaa_rs2val_0x0:
  bge x2, x18, 3f # forward branch, if taken
    4ce4:	05215263          	bge	x2,x18,4d28 <I_bge_cg_cr_rs1_rs2_edges_offset_rs1val_0xaaaaaaaa_rs2val_0x0+0x44>
1: # goes here if not taken
  bge x2, x18, 0b # backward branch, never taken
    4ce8:	ff215ee3          	bge	x2,x18,4ce4 <I_bge_cg_cr_rs1_rs2_edges_offset_rs1val_0xaaaaaaaa_rs2val_0x0>
  # Check if x0 contains the expected result. x15 is the signature ptr, x5 is the link ptr, x4 is a temp reg.
  RVTEST_SIGUPD(x15, x5, x4, x0, I_bge_cg_cr_rs1_rs2_edges_offset_rs1val_0xaaaaaaaa_rs2val_0x0, I_bge_cg_cr_rs1_rs2_edges_offset_rs1val_0xaaaaaaaa_rs2val_0x0_str)
    4cec:	0007a203          	lw	x4,0(x15)
    4cf0:	00020863          	beq	x4,x0,4d00 <I_bge_cg_cr_rs1_rs2_edges_offset_rs1val_0xaaaaaaaa_rs2val_0x0+0x1c>
    4cf4:	388052ef          	jal	x5,a07c <failedtest_x5_x4>
    4cf8:	00004ce4          	.word	0x00004ce4
    4cfc:	00010868          	.word	0x00010868
    4d00:	00478793          	addi	x15,x15,4
  j 4f # done with test
    4d04:	0280006f          	jal	x0,4d2c <I_bge_cg_cr_rs1_rs2_edges_offset_rs1val_0xaaaaaaaa_rs2val_0x0+0x48>
2: # goes here during backward branch if taken
  LI(x2, 1)
    4d08:	00100113          	addi	x2,x0,1
  # Check if x2 contains the expected result. x15 is the signature ptr, x5 is the link ptr, x4 is a temp reg.
  RVTEST_SIGUPD(x15, x5, x4, x2, I_bge_cg_cr_rs1_rs2_edges_offset_rs1val_0xaaaaaaaa_rs2val_0x0, I_bge_cg_cr_rs1_rs2_edges_offset_rs1val_0xaaaaaaaa_rs2val_0x0_str) # signature 1 for taken
    4d0c:	0007a203          	lw	x4,0(x15)
    4d10:	00220863          	beq	x4,x2,4d20 <I_bge_cg_cr_rs1_rs2_edges_offset_rs1val_0xaaaaaaaa_rs2val_0x0+0x3c>
    4d14:	368052ef          	jal	x5,a07c <failedtest_x5_x4>
    4d18:	00004ce4          	.word	0x00004ce4
    4d1c:	00010868          	.word	0x00010868
    4d20:	00478793          	addi	x15,x15,4
  j 4f # done with test
    4d24:	0080006f          	jal	x0,4d2c <I_bge_cg_cr_rs1_rs2_edges_offset_rs1val_0xaaaaaaaa_rs2val_0x0+0x48>
3: # goes here during forward branch if taken
  bge x2, x18, 2b # backward branch, definitely taken
    4d28:	ff2150e3          	bge	x2,x18,4d08 <I_bge_cg_cr_rs1_rs2_edges_offset_rs1val_0xaaaaaaaa_rs2val_0x0+0x24>
4: # done with test

# cr_rs1_rs2_edges_offset (Test source rs1 = 0xaaaaaaaa rs2 = 0x00000001)
  RVTEST_TESTDATA_LOAD_INT(x23, x18) # load rs1: x18 = 0xaaaaaaaa
    4d2c:	000ba903          	lw	x18,0(x23)
    4d30:	004b8b93          	addi	x23,x23,4
  RVTEST_TESTDATA_LOAD_INT(x23, x6) # load rs2: x6 = 0x00000001
    4d34:	000ba303          	lw	x6,0(x23)
    4d38:	004b8b93          	addi	x23,x23,4

00004d3c <I_bge_cg_cr_rs1_rs2_edges_offset_rs1val_0xaaaaaaaa_rs2val_0x1>:
0: # destination for backwards branch that is never taken
I_bge_cg_cr_rs1_rs2_edges_offset_rs1val_0xaaaaaaaa_rs2val_0x1:
  bge x18, x6, 3f # forward branch, if taken
    4d3c:	04695263          	bge	x18,x6,4d80 <I_bge_cg_cr_rs1_rs2_edges_offset_rs1val_0xaaaaaaaa_rs2val_0x1+0x44>
1: # goes here if not taken
  bge x18, x6, 0b # backward branch, never taken
    4d40:	fe695ee3          	bge	x18,x6,4d3c <I_bge_cg_cr_rs1_rs2_edges_offset_rs1val_0xaaaaaaaa_rs2val_0x1>
  # Check if x0 contains the expected result. x15 is the signature ptr, x5 is the link ptr, x4 is a temp reg.
  RVTEST_SIGUPD(x15, x5, x4, x0, I_bge_cg_cr_rs1_rs2_edges_offset_rs1val_0xaaaaaaaa_rs2val_0x1, I_bge_cg_cr_rs1_rs2_edges_offset_rs1val_0xaaaaaaaa_rs2val_0x1_str)
    4d44:	0007a203          	lw	x4,0(x15)
    4d48:	00020863          	beq	x4,x0,4d58 <I_bge_cg_cr_rs1_rs2_edges_offset_rs1val_0xaaaaaaaa_rs2val_0x1+0x1c>
    4d4c:	330052ef          	jal	x5,a07c <failedtest_x5_x4>
    4d50:	00004d3c          	.word	0x00004d3c
    4d54:	000108c3          	.word	0x000108c3
    4d58:	00478793          	addi	x15,x15,4
  j 4f # done with test
    4d5c:	0280006f          	jal	x0,4d84 <I_bge_cg_cr_rs1_rs2_edges_offset_rs1val_0xaaaaaaaa_rs2val_0x1+0x48>
2: # goes here during backward branch if taken
  LI(x18, 1)
    4d60:	00100913          	addi	x18,x0,1
  # Check if x18 contains the expected result. x15 is the signature ptr, x5 is the link ptr, x4 is a temp reg.
  RVTEST_SIGUPD(x15, x5, x4, x18, I_bge_cg_cr_rs1_rs2_edges_offset_rs1val_0xaaaaaaaa_rs2val_0x1, I_bge_cg_cr_rs1_rs2_edges_offset_rs1val_0xaaaaaaaa_rs2val_0x1_str) # signature 1 for taken
    4d64:	0007a203          	lw	x4,0(x15)
    4d68:	01220863          	beq	x4,x18,4d78 <I_bge_cg_cr_rs1_rs2_edges_offset_rs1val_0xaaaaaaaa_rs2val_0x1+0x3c>
    4d6c:	310052ef          	jal	x5,a07c <failedtest_x5_x4>
    4d70:	00004d3c          	.word	0x00004d3c
    4d74:	000108c3          	.word	0x000108c3
    4d78:	00478793          	addi	x15,x15,4
  j 4f # done with test
    4d7c:	0080006f          	jal	x0,4d84 <I_bge_cg_cr_rs1_rs2_edges_offset_rs1val_0xaaaaaaaa_rs2val_0x1+0x48>
3: # goes here during forward branch if taken
  bge x18, x6, 2b # backward branch, definitely taken
    4d80:	fe6950e3          	bge	x18,x6,4d60 <I_bge_cg_cr_rs1_rs2_edges_offset_rs1val_0xaaaaaaaa_rs2val_0x1+0x24>
4: # done with test

# cr_rs1_rs2_edges_offset (Test source rs1 = 0xaaaaaaaa rs2 = 0x00000002)
  RVTEST_TESTDATA_LOAD_INT(x23, x28) # load rs1: x28 = 0xaaaaaaaa
    4d84:	000bae03          	lw	x28,0(x23)
    4d88:	004b8b93          	addi	x23,x23,4
  RVTEST_TESTDATA_LOAD_INT(x23, x22) # load rs2: x22 = 0x00000002
    4d8c:	000bab03          	lw	x22,0(x23)
    4d90:	004b8b93          	addi	x23,x23,4

00004d94 <I_bge_cg_cr_rs1_rs2_edges_offset_rs1val_0xaaaaaaaa_rs2val_0x2>:
0: # destination for backwards branch that is never taken
I_bge_cg_cr_rs1_rs2_edges_offset_rs1val_0xaaaaaaaa_rs2val_0x2:
  bge x28, x22, 3f # forward branch, if taken
    4d94:	056e5263          	bge	x28,x22,4dd8 <I_bge_cg_cr_rs1_rs2_edges_offset_rs1val_0xaaaaaaaa_rs2val_0x2+0x44>
1: # goes here if not taken
  bge x28, x22, 0b # backward branch, never taken
    4d98:	ff6e5ee3          	bge	x28,x22,4d94 <I_bge_cg_cr_rs1_rs2_edges_offset_rs1val_0xaaaaaaaa_rs2val_0x2>
  # Check if x0 contains the expected result. x15 is the signature ptr, x5 is the link ptr, x4 is a temp reg.
  RVTEST_SIGUPD(x15, x5, x4, x0, I_bge_cg_cr_rs1_rs2_edges_offset_rs1val_0xaaaaaaaa_rs2val_0x2, I_bge_cg_cr_rs1_rs2_edges_offset_rs1val_0xaaaaaaaa_rs2val_0x2_str)
    4d9c:	0007a203          	lw	x4,0(x15)
    4da0:	00020863          	beq	x4,x0,4db0 <I_bge_cg_cr_rs1_rs2_edges_offset_rs1val_0xaaaaaaaa_rs2val_0x2+0x1c>
    4da4:	2d8052ef          	jal	x5,a07c <failedtest_x5_x4>
    4da8:	00004d94          	.word	0x00004d94
    4dac:	0001091e          	.word	0x0001091e
    4db0:	00478793          	addi	x15,x15,4
  j 4f # done with test
    4db4:	0280006f          	jal	x0,4ddc <I_bge_cg_cr_rs1_rs2_edges_offset_rs1val_0xaaaaaaaa_rs2val_0x2+0x48>
2: # goes here during backward branch if taken
  LI(x28, 1)
    4db8:	00100e13          	addi	x28,x0,1
  # Check if x28 contains the expected result. x15 is the signature ptr, x5 is the link ptr, x4 is a temp reg.
  RVTEST_SIGUPD(x15, x5, x4, x28, I_bge_cg_cr_rs1_rs2_edges_offset_rs1val_0xaaaaaaaa_rs2val_0x2, I_bge_cg_cr_rs1_rs2_edges_offset_rs1val_0xaaaaaaaa_rs2val_0x2_str) # signature 1 for taken
    4dbc:	0007a203          	lw	x4,0(x15)
    4dc0:	01c20863          	beq	x4,x28,4dd0 <I_bge_cg_cr_rs1_rs2_edges_offset_rs1val_0xaaaaaaaa_rs2val_0x2+0x3c>
    4dc4:	2b8052ef          	jal	x5,a07c <failedtest_x5_x4>
    4dc8:	00004d94          	.word	0x00004d94
    4dcc:	0001091e          	.word	0x0001091e
    4dd0:	00478793          	addi	x15,x15,4
  j 4f # done with test
    4dd4:	0080006f          	jal	x0,4ddc <I_bge_cg_cr_rs1_rs2_edges_offset_rs1val_0xaaaaaaaa_rs2val_0x2+0x48>
3: # goes here during forward branch if taken
  bge x28, x22, 2b # backward branch, definitely taken
    4dd8:	ff6e50e3          	bge	x28,x22,4db8 <I_bge_cg_cr_rs1_rs2_edges_offset_rs1val_0xaaaaaaaa_rs2val_0x2+0x24>
4: # done with test

# cr_rs1_rs2_edges_offset (Test source rs1 = 0xaaaaaaaa rs2 = 0x80000000)
  RVTEST_TESTDATA_LOAD_INT(x23, x28) # load rs1: x28 = 0xaaaaaaaa
    4ddc:	000bae03          	lw	x28,0(x23)
    4de0:	004b8b93          	addi	x23,x23,4
  RVTEST_TESTDATA_LOAD_INT(x23, x1) # load rs2: x1 = 0x80000000
    4de4:	000ba083          	lw	x1,0(x23)
    4de8:	004b8b93          	addi	x23,x23,4

00004dec <I_bge_cg_cr_rs1_rs2_edges_offset_rs1val_0xaaaaaaaa_rs2val_0x80000000>:
0: # destination for backwards branch that is never taken
I_bge_cg_cr_rs1_rs2_edges_offset_rs1val_0xaaaaaaaa_rs2val_0x80000000:
  bge x28, x1, 3f # forward branch, if taken
    4dec:	041e5263          	bge	x28,x1,4e30 <I_bge_cg_cr_rs1_rs2_edges_offset_rs1val_0xaaaaaaaa_rs2val_0x80000000+0x44>
1: # goes here if not taken
  bge x28, x1, 0b # backward branch, never taken
    4df0:	fe1e5ee3          	bge	x28,x1,4dec <I_bge_cg_cr_rs1_rs2_edges_offset_rs1val_0xaaaaaaaa_rs2val_0x80000000>
  # Check if x0 contains the expected result. x15 is the signature ptr, x5 is the link ptr, x4 is a temp reg.
  RVTEST_SIGUPD(x15, x5, x4, x0, I_bge_cg_cr_rs1_rs2_edges_offset_rs1val_0xaaaaaaaa_rs2val_0x80000000, I_bge_cg_cr_rs1_rs2_edges_offset_rs1val_0xaaaaaaaa_rs2val_0x80000000_str)
    4df4:	0007a203          	lw	x4,0(x15)
    4df8:	00020863          	beq	x4,x0,4e08 <I_bge_cg_cr_rs1_rs2_edges_offset_rs1val_0xaaaaaaaa_rs2val_0x80000000+0x1c>
    4dfc:	280052ef          	jal	x5,a07c <failedtest_x5_x4>
    4e00:	00004dec          	.word	0x00004dec
    4e04:	00010979          	.word	0x00010979
    4e08:	00478793          	addi	x15,x15,4
  j 4f # done with test
    4e0c:	0280006f          	jal	x0,4e34 <I_bge_cg_cr_rs1_rs2_edges_offset_rs1val_0xaaaaaaaa_rs2val_0x80000000+0x48>
2: # goes here during backward branch if taken
  LI(x28, 1)
    4e10:	00100e13          	addi	x28,x0,1
  # Check if x28 contains the expected result. x15 is the signature ptr, x5 is the link ptr, x4 is a temp reg.
  RVTEST_SIGUPD(x15, x5, x4, x28, I_bge_cg_cr_rs1_rs2_edges_offset_rs1val_0xaaaaaaaa_rs2val_0x80000000, I_bge_cg_cr_rs1_rs2_edges_offset_rs1val_0xaaaaaaaa_rs2val_0x80000000_str) # signature 1 for taken
    4e14:	0007a203          	lw	x4,0(x15)
    4e18:	01c20863          	beq	x4,x28,4e28 <I_bge_cg_cr_rs1_rs2_edges_offset_rs1val_0xaaaaaaaa_rs2val_0x80000000+0x3c>
    4e1c:	260052ef          	jal	x5,a07c <failedtest_x5_x4>
    4e20:	00004dec          	.word	0x00004dec
    4e24:	00010979          	.word	0x00010979
    4e28:	00478793          	addi	x15,x15,4
  j 4f # done with test
    4e2c:	0080006f          	jal	x0,4e34 <I_bge_cg_cr_rs1_rs2_edges_offset_rs1val_0xaaaaaaaa_rs2val_0x80000000+0x48>
3: # goes here during forward branch if taken
  bge x28, x1, 2b # backward branch, definitely taken
    4e30:	fe1e50e3          	bge	x28,x1,4e10 <I_bge_cg_cr_rs1_rs2_edges_offset_rs1val_0xaaaaaaaa_rs2val_0x80000000+0x24>
4: # done with test

# cr_rs1_rs2_edges_offset (Test source rs1 = 0xaaaaaaaa rs2 = 0x80000001)
  RVTEST_TESTDATA_LOAD_INT(x23, x10) # load rs1: x10 = 0xaaaaaaaa
    4e34:	000ba503          	lw	x10,0(x23)
    4e38:	004b8b93          	addi	x23,x23,4
  RVTEST_TESTDATA_LOAD_INT(x23, x14) # load rs2: x14 = 0x80000001
    4e3c:	000ba703          	lw	x14,0(x23)
    4e40:	004b8b93          	addi	x23,x23,4

00004e44 <I_bge_cg_cr_rs1_rs2_edges_offset_rs1val_0xaaaaaaaa_rs2val_0x80000001>:
0: # destination for backwards branch that is never taken
I_bge_cg_cr_rs1_rs2_edges_offset_rs1val_0xaaaaaaaa_rs2val_0x80000001:
  bge x10, x14, 3f # forward branch, if taken
    4e44:	04e55263          	bge	x10,x14,4e88 <I_bge_cg_cr_rs1_rs2_edges_offset_rs1val_0xaaaaaaaa_rs2val_0x80000001+0x44>
1: # goes here if not taken
  bge x10, x14, 0b # backward branch, never taken
    4e48:	fee55ee3          	bge	x10,x14,4e44 <I_bge_cg_cr_rs1_rs2_edges_offset_rs1val_0xaaaaaaaa_rs2val_0x80000001>
  # Check if x0 contains the expected result. x15 is the signature ptr, x5 is the link ptr, x4 is a temp reg.
  RVTEST_SIGUPD(x15, x5, x4, x0, I_bge_cg_cr_rs1_rs2_edges_offset_rs1val_0xaaaaaaaa_rs2val_0x80000001, I_bge_cg_cr_rs1_rs2_edges_offset_rs1val_0xaaaaaaaa_rs2val_0x80000001_str)
    4e4c:	0007a203          	lw	x4,0(x15)
    4e50:	00020863          	beq	x4,x0,4e60 <I_bge_cg_cr_rs1_rs2_edges_offset_rs1val_0xaaaaaaaa_rs2val_0x80000001+0x1c>
    4e54:	228052ef          	jal	x5,a07c <failedtest_x5_x4>
    4e58:	00004e44          	.word	0x00004e44
    4e5c:	000109db          	.word	0x000109db
    4e60:	00478793          	addi	x15,x15,4
  j 4f # done with test
    4e64:	0280006f          	jal	x0,4e8c <I_bge_cg_cr_rs1_rs2_edges_offset_rs1val_0xaaaaaaaa_rs2val_0x80000001+0x48>
2: # goes here during backward branch if taken
  LI(x10, 1)
    4e68:	00100513          	addi	x10,x0,1
  # Check if x10 contains the expected result. x15 is the signature ptr, x5 is the link ptr, x4 is a temp reg.
  RVTEST_SIGUPD(x15, x5, x4, x10, I_bge_cg_cr_rs1_rs2_edges_offset_rs1val_0xaaaaaaaa_rs2val_0x80000001, I_bge_cg_cr_rs1_rs2_edges_offset_rs1val_0xaaaaaaaa_rs2val_0x80000001_str) # signature 1 for taken
    4e6c:	0007a203          	lw	x4,0(x15)
    4e70:	00a20863          	beq	x4,x10,4e80 <I_bge_cg_cr_rs1_rs2_edges_offset_rs1val_0xaaaaaaaa_rs2val_0x80000001+0x3c>
    4e74:	208052ef          	jal	x5,a07c <failedtest_x5_x4>
    4e78:	00004e44          	.word	0x00004e44
    4e7c:	000109db          	.word	0x000109db
    4e80:	00478793          	addi	x15,x15,4
  j 4f # done with test
    4e84:	0080006f          	jal	x0,4e8c <I_bge_cg_cr_rs1_rs2_edges_offset_rs1val_0xaaaaaaaa_rs2val_0x80000001+0x48>
3: # goes here during forward branch if taken
  bge x10, x14, 2b # backward branch, definitely taken
    4e88:	fee550e3          	bge	x10,x14,4e68 <I_bge_cg_cr_rs1_rs2_edges_offset_rs1val_0xaaaaaaaa_rs2val_0x80000001+0x24>
4: # done with test

# cr_rs1_rs2_edges_offset (Test source rs1 = 0xaaaaaaaa rs2 = 0x7fffffff)
  RVTEST_TESTDATA_LOAD_INT(x23, x26) # load rs1: x26 = 0xaaaaaaaa
    4e8c:	000bad03          	lw	x26,0(x23)
    4e90:	004b8b93          	addi	x23,x23,4
  RVTEST_TESTDATA_LOAD_INT(x23, x30) # load rs2: x30 = 0x7fffffff
    4e94:	000baf03          	lw	x30,0(x23)
    4e98:	004b8b93          	addi	x23,x23,4

00004e9c <I_bge_cg_cr_rs1_rs2_edges_offset_rs1val_0xaaaaaaaa_rs2val_0x7fffffff>:
0: # destination for backwards branch that is never taken
I_bge_cg_cr_rs1_rs2_edges_offset_rs1val_0xaaaaaaaa_rs2val_0x7fffffff:
  bge x26, x30, 3f # forward branch, if taken
    4e9c:	05ed5263          	bge	x26,x30,4ee0 <I_bge_cg_cr_rs1_rs2_edges_offset_rs1val_0xaaaaaaaa_rs2val_0x7fffffff+0x44>
1: # goes here if not taken
  bge x26, x30, 0b # backward branch, never taken
    4ea0:	ffed5ee3          	bge	x26,x30,4e9c <I_bge_cg_cr_rs1_rs2_edges_offset_rs1val_0xaaaaaaaa_rs2val_0x7fffffff>
  # Check if x0 contains the expected result. x15 is the signature ptr, x5 is the link ptr, x4 is a temp reg.
  RVTEST_SIGUPD(x15, x5, x4, x0, I_bge_cg_cr_rs1_rs2_edges_offset_rs1val_0xaaaaaaaa_rs2val_0x7fffffff, I_bge_cg_cr_rs1_rs2_edges_offset_rs1val_0xaaaaaaaa_rs2val_0x7fffffff_str)
    4ea4:	0007a203          	lw	x4,0(x15)
    4ea8:	00020863          	beq	x4,x0,4eb8 <I_bge_cg_cr_rs1_rs2_edges_offset_rs1val_0xaaaaaaaa_rs2val_0x7fffffff+0x1c>
    4eac:	1d0052ef          	jal	x5,a07c <failedtest_x5_x4>
    4eb0:	00004e9c          	.word	0x00004e9c
    4eb4:	00010a3d          	.word	0x00010a3d
    4eb8:	00478793          	addi	x15,x15,4
  j 4f # done with test
    4ebc:	0280006f          	jal	x0,4ee4 <I_bge_cg_cr_rs1_rs2_edges_offset_rs1val_0xaaaaaaaa_rs2val_0x7fffffff+0x48>
2: # goes here during backward branch if taken
  LI(x26, 1)
    4ec0:	00100d13          	addi	x26,x0,1
  # Check if x26 contains the expected result. x15 is the signature ptr, x5 is the link ptr, x4 is a temp reg.
  RVTEST_SIGUPD(x15, x5, x4, x26, I_bge_cg_cr_rs1_rs2_edges_offset_rs1val_0xaaaaaaaa_rs2val_0x7fffffff, I_bge_cg_cr_rs1_rs2_edges_offset_rs1val_0xaaaaaaaa_rs2val_0x7fffffff_str) # signature 1 for taken
    4ec4:	0007a203          	lw	x4,0(x15)
    4ec8:	01a20863          	beq	x4,x26,4ed8 <I_bge_cg_cr_rs1_rs2_edges_offset_rs1val_0xaaaaaaaa_rs2val_0x7fffffff+0x3c>
    4ecc:	1b0052ef          	jal	x5,a07c <failedtest_x5_x4>
    4ed0:	00004e9c          	.word	0x00004e9c
    4ed4:	00010a3d          	.word	0x00010a3d
    4ed8:	00478793          	addi	x15,x15,4
  j 4f # done with test
    4edc:	0080006f          	jal	x0,4ee4 <I_bge_cg_cr_rs1_rs2_edges_offset_rs1val_0xaaaaaaaa_rs2val_0x7fffffff+0x48>
3: # goes here during forward branch if taken
  bge x26, x30, 2b # backward branch, definitely taken
    4ee0:	ffed50e3          	bge	x26,x30,4ec0 <I_bge_cg_cr_rs1_rs2_edges_offset_rs1val_0xaaaaaaaa_rs2val_0x7fffffff+0x24>
4: # done with test

# cr_rs1_rs2_edges_offset (Test source rs1 = 0xaaaaaaaa rs2 = 0x7ffffffe)
  RVTEST_TESTDATA_LOAD_INT(x23, x26) # load rs1: x26 = 0xaaaaaaaa
    4ee4:	000bad03          	lw	x26,0(x23)
    4ee8:	004b8b93          	addi	x23,x23,4
  RVTEST_TESTDATA_LOAD_INT(x23, x14) # load rs2: x14 = 0x7ffffffe
    4eec:	000ba703          	lw	x14,0(x23)
    4ef0:	004b8b93          	addi	x23,x23,4

00004ef4 <I_bge_cg_cr_rs1_rs2_edges_offset_rs1val_0xaaaaaaaa_rs2val_0x7ffffffe>:
0: # destination for backwards branch that is never taken
I_bge_cg_cr_rs1_rs2_edges_offset_rs1val_0xaaaaaaaa_rs2val_0x7ffffffe:
  bge x26, x14, 3f # forward branch, if taken
    4ef4:	04ed5263          	bge	x26,x14,4f38 <I_bge_cg_cr_rs1_rs2_edges_offset_rs1val_0xaaaaaaaa_rs2val_0x7ffffffe+0x44>
1: # goes here if not taken
  bge x26, x14, 0b # backward branch, never taken
    4ef8:	feed5ee3          	bge	x26,x14,4ef4 <I_bge_cg_cr_rs1_rs2_edges_offset_rs1val_0xaaaaaaaa_rs2val_0x7ffffffe>
  # Check if x0 contains the expected result. x15 is the signature ptr, x5 is the link ptr, x4 is a temp reg.
  RVTEST_SIGUPD(x15, x5, x4, x0, I_bge_cg_cr_rs1_rs2_edges_offset_rs1val_0xaaaaaaaa_rs2val_0x7ffffffe, I_bge_cg_cr_rs1_rs2_edges_offset_rs1val_0xaaaaaaaa_rs2val_0x7ffffffe_str)
    4efc:	0007a203          	lw	x4,0(x15)
    4f00:	00020863          	beq	x4,x0,4f10 <I_bge_cg_cr_rs1_rs2_edges_offset_rs1val_0xaaaaaaaa_rs2val_0x7ffffffe+0x1c>
    4f04:	178052ef          	jal	x5,a07c <failedtest_x5_x4>
    4f08:	00004ef4          	.word	0x00004ef4
    4f0c:	00010a9f          	.word	0x00010a9f
    4f10:	00478793          	addi	x15,x15,4
  j 4f # done with test
    4f14:	0280006f          	jal	x0,4f3c <I_bge_cg_cr_rs1_rs2_edges_offset_rs1val_0xaaaaaaaa_rs2val_0x7ffffffe+0x48>
2: # goes here during backward branch if taken
  LI(x26, 1)
    4f18:	00100d13          	addi	x26,x0,1
  # Check if x26 contains the expected result. x15 is the signature ptr, x5 is the link ptr, x4 is a temp reg.
  RVTEST_SIGUPD(x15, x5, x4, x26, I_bge_cg_cr_rs1_rs2_edges_offset_rs1val_0xaaaaaaaa_rs2val_0x7ffffffe, I_bge_cg_cr_rs1_rs2_edges_offset_rs1val_0xaaaaaaaa_rs2val_0x7ffffffe_str) # signature 1 for taken
    4f1c:	0007a203          	lw	x4,0(x15)
    4f20:	01a20863          	beq	x4,x26,4f30 <I_bge_cg_cr_rs1_rs2_edges_offset_rs1val_0xaaaaaaaa_rs2val_0x7ffffffe+0x3c>
    4f24:	158052ef          	jal	x5,a07c <failedtest_x5_x4>
    4f28:	00004ef4          	.word	0x00004ef4
    4f2c:	00010a9f          	.word	0x00010a9f
    4f30:	00478793          	addi	x15,x15,4
  j 4f # done with test
    4f34:	0080006f          	jal	x0,4f3c <I_bge_cg_cr_rs1_rs2_edges_offset_rs1val_0xaaaaaaaa_rs2val_0x7ffffffe+0x48>
3: # goes here during forward branch if taken
  bge x26, x14, 2b # backward branch, definitely taken
    4f38:	feed50e3          	bge	x26,x14,4f18 <I_bge_cg_cr_rs1_rs2_edges_offset_rs1val_0xaaaaaaaa_rs2val_0x7ffffffe+0x24>
4: # done with test

# cr_rs1_rs2_edges_offset (Test source rs1 = 0xaaaaaaaa rs2 = 0xffffffff)
  RVTEST_TESTDATA_LOAD_INT(x23, x7) # load rs1: x7 = 0xaaaaaaaa
    4f3c:	000ba383          	lw	x7,0(x23)
    4f40:	004b8b93          	addi	x23,x23,4
  RVTEST_TESTDATA_LOAD_INT(x23, x10) # load rs2: x10 = 0xffffffff
    4f44:	000ba503          	lw	x10,0(x23)
    4f48:	004b8b93          	addi	x23,x23,4

00004f4c <I_bge_cg_cr_rs1_rs2_edges_offset_rs1val_0xaaaaaaaa_rs2val_0xffffffff>:
0: # destination for backwards branch that is never taken
I_bge_cg_cr_rs1_rs2_edges_offset_rs1val_0xaaaaaaaa_rs2val_0xffffffff:
  bge x7, x10, 3f # forward branch, if taken
    4f4c:	04a3d263          	bge	x7,x10,4f90 <I_bge_cg_cr_rs1_rs2_edges_offset_rs1val_0xaaaaaaaa_rs2val_0xffffffff+0x44>
1: # goes here if not taken
  bge x7, x10, 0b # backward branch, never taken
    4f50:	fea3dee3          	bge	x7,x10,4f4c <I_bge_cg_cr_rs1_rs2_edges_offset_rs1val_0xaaaaaaaa_rs2val_0xffffffff>
  # Check if x0 contains the expected result. x15 is the signature ptr, x5 is the link ptr, x4 is a temp reg.
  RVTEST_SIGUPD(x15, x5, x4, x0, I_bge_cg_cr_rs1_rs2_edges_offset_rs1val_0xaaaaaaaa_rs2val_0xffffffff, I_bge_cg_cr_rs1_rs2_edges_offset_rs1val_0xaaaaaaaa_rs2val_0xffffffff_str)
    4f54:	0007a203          	lw	x4,0(x15)
    4f58:	00020863          	beq	x4,x0,4f68 <I_bge_cg_cr_rs1_rs2_edges_offset_rs1val_0xaaaaaaaa_rs2val_0xffffffff+0x1c>
    4f5c:	120052ef          	jal	x5,a07c <failedtest_x5_x4>
    4f60:	00004f4c          	.word	0x00004f4c
    4f64:	00010b01          	.word	0x00010b01
    4f68:	00478793          	addi	x15,x15,4
  j 4f # done with test
    4f6c:	0280006f          	jal	x0,4f94 <I_bge_cg_cr_rs1_rs2_edges_offset_rs1val_0xaaaaaaaa_rs2val_0xffffffff+0x48>
2: # goes here during backward branch if taken
  LI(x7, 1)
    4f70:	00100393          	addi	x7,x0,1
  # Check if x7 contains the expected result. x15 is the signature ptr, x5 is the link ptr, x4 is a temp reg.
  RVTEST_SIGUPD(x15, x5, x4, x7, I_bge_cg_cr_rs1_rs2_edges_offset_rs1val_0xaaaaaaaa_rs2val_0xffffffff, I_bge_cg_cr_rs1_rs2_edges_offset_rs1val_0xaaaaaaaa_rs2val_0xffffffff_str) # signature 1 for taken
    4f74:	0007a203          	lw	x4,0(x15)
    4f78:	00720863          	beq	x4,x7,4f88 <I_bge_cg_cr_rs1_rs2_edges_offset_rs1val_0xaaaaaaaa_rs2val_0xffffffff+0x3c>
    4f7c:	100052ef          	jal	x5,a07c <failedtest_x5_x4>
    4f80:	00004f4c          	.word	0x00004f4c
    4f84:	00010b01          	.word	0x00010b01
    4f88:	00478793          	addi	x15,x15,4
  j 4f # done with test
    4f8c:	0080006f          	jal	x0,4f94 <I_bge_cg_cr_rs1_rs2_edges_offset_rs1val_0xaaaaaaaa_rs2val_0xffffffff+0x48>
3: # goes here during forward branch if taken
  bge x7, x10, 2b # backward branch, definitely taken
    4f90:	fea3d0e3          	bge	x7,x10,4f70 <I_bge_cg_cr_rs1_rs2_edges_offset_rs1val_0xaaaaaaaa_rs2val_0xffffffff+0x24>
4: # done with test

# cr_rs1_rs2_edges_offset (Test source rs1 = 0xaaaaaaaa rs2 = 0xfffffffe)
  RVTEST_TESTDATA_LOAD_INT(x23, x22) # load rs1: x22 = 0xaaaaaaaa
    4f94:	000bab03          	lw	x22,0(x23)
    4f98:	004b8b93          	addi	x23,x23,4
  RVTEST_TESTDATA_LOAD_INT(x23, x29) # load rs2: x29 = 0xfffffffe
    4f9c:	000bae83          	lw	x29,0(x23)
    4fa0:	004b8b93          	addi	x23,x23,4

00004fa4 <I_bge_cg_cr_rs1_rs2_edges_offset_rs1val_0xaaaaaaaa_rs2val_0xfffffffe>:
0: # destination for backwards branch that is never taken
I_bge_cg_cr_rs1_rs2_edges_offset_rs1val_0xaaaaaaaa_rs2val_0xfffffffe:
  bge x22, x29, 3f # forward branch, if taken
    4fa4:	05db5263          	bge	x22,x29,4fe8 <I_bge_cg_cr_rs1_rs2_edges_offset_rs1val_0xaaaaaaaa_rs2val_0xfffffffe+0x44>
1: # goes here if not taken
  bge x22, x29, 0b # backward branch, never taken
    4fa8:	ffdb5ee3          	bge	x22,x29,4fa4 <I_bge_cg_cr_rs1_rs2_edges_offset_rs1val_0xaaaaaaaa_rs2val_0xfffffffe>
  # Check if x0 contains the expected result. x15 is the signature ptr, x5 is the link ptr, x4 is a temp reg.
  RVTEST_SIGUPD(x15, x5, x4, x0, I_bge_cg_cr_rs1_rs2_edges_offset_rs1val_0xaaaaaaaa_rs2val_0xfffffffe, I_bge_cg_cr_rs1_rs2_edges_offset_rs1val_0xaaaaaaaa_rs2val_0xfffffffe_str)
    4fac:	0007a203          	lw	x4,0(x15)
    4fb0:	00020863          	beq	x4,x0,4fc0 <I_bge_cg_cr_rs1_rs2_edges_offset_rs1val_0xaaaaaaaa_rs2val_0xfffffffe+0x1c>
    4fb4:	0c8052ef          	jal	x5,a07c <failedtest_x5_x4>
    4fb8:	00004fa4          	.word	0x00004fa4
    4fbc:	00010b63          	.word	0x00010b63
    4fc0:	00478793          	addi	x15,x15,4
  j 4f # done with test
    4fc4:	0280006f          	jal	x0,4fec <I_bge_cg_cr_rs1_rs2_edges_offset_rs1val_0xaaaaaaaa_rs2val_0xfffffffe+0x48>
2: # goes here during backward branch if taken
  LI(x22, 1)
    4fc8:	00100b13          	addi	x22,x0,1
  # Check if x22 contains the expected result. x15 is the signature ptr, x5 is the link ptr, x4 is a temp reg.
  RVTEST_SIGUPD(x15, x5, x4, x22, I_bge_cg_cr_rs1_rs2_edges_offset_rs1val_0xaaaaaaaa_rs2val_0xfffffffe, I_bge_cg_cr_rs1_rs2_edges_offset_rs1val_0xaaaaaaaa_rs2val_0xfffffffe_str) # signature 1 for taken
    4fcc:	0007a203          	lw	x4,0(x15)
    4fd0:	01620863          	beq	x4,x22,4fe0 <I_bge_cg_cr_rs1_rs2_edges_offset_rs1val_0xaaaaaaaa_rs2val_0xfffffffe+0x3c>
    4fd4:	0a8052ef          	jal	x5,a07c <failedtest_x5_x4>
    4fd8:	00004fa4          	.word	0x00004fa4
    4fdc:	00010b63          	.word	0x00010b63
    4fe0:	00478793          	addi	x15,x15,4
  j 4f # done with test
    4fe4:	0080006f          	jal	x0,4fec <I_bge_cg_cr_rs1_rs2_edges_offset_rs1val_0xaaaaaaaa_rs2val_0xfffffffe+0x48>
3: # goes here during forward branch if taken
  bge x22, x29, 2b # backward branch, definitely taken
    4fe8:	ffdb50e3          	bge	x22,x29,4fc8 <I_bge_cg_cr_rs1_rs2_edges_offset_rs1val_0xaaaaaaaa_rs2val_0xfffffffe+0x24>
4: # done with test

# cr_rs1_rs2_edges_offset (Test source rs1 = 0xaaaaaaaa rs2 = 0x5bbc8872)
  RVTEST_TESTDATA_LOAD_INT(x23, x19) # load rs1: x19 = 0xaaaaaaaa
    4fec:	000ba983          	lw	x19,0(x23)
    4ff0:	004b8b93          	addi	x23,x23,4
  RVTEST_TESTDATA_LOAD_INT(x23, x21) # load rs2: x21 = 0x5bbc8872
    4ff4:	000baa83          	lw	x21,0(x23)
    4ff8:	004b8b93          	addi	x23,x23,4

00004ffc <I_bge_cg_cr_rs1_rs2_edges_offset_rs1val_0xaaaaaaaa_rs2val_0x5bbc8872>:
0: # destination for backwards branch that is never taken
I_bge_cg_cr_rs1_rs2_edges_offset_rs1val_0xaaaaaaaa_rs2val_0x5bbc8872:
  bge x19, x21, 3f # forward branch, if taken
    4ffc:	0559d263          	bge	x19,x21,5040 <I_bge_cg_cr_rs1_rs2_edges_offset_rs1val_0xaaaaaaaa_rs2val_0x5bbc8872+0x44>
1: # goes here if not taken
  bge x19, x21, 0b # backward branch, never taken
    5000:	ff59dee3          	bge	x19,x21,4ffc <I_bge_cg_cr_rs1_rs2_edges_offset_rs1val_0xaaaaaaaa_rs2val_0x5bbc8872>
  # Check if x0 contains the expected result. x15 is the signature ptr, x5 is the link ptr, x4 is a temp reg.
  RVTEST_SIGUPD(x15, x5, x4, x0, I_bge_cg_cr_rs1_rs2_edges_offset_rs1val_0xaaaaaaaa_rs2val_0x5bbc8872, I_bge_cg_cr_rs1_rs2_edges_offset_rs1val_0xaaaaaaaa_rs2val_0x5bbc8872_str)
    5004:	0007a203          	lw	x4,0(x15)
    5008:	00020863          	beq	x4,x0,5018 <I_bge_cg_cr_rs1_rs2_edges_offset_rs1val_0xaaaaaaaa_rs2val_0x5bbc8872+0x1c>
    500c:	070052ef          	jal	x5,a07c <failedtest_x5_x4>
    5010:	00004ffc          	.word	0x00004ffc
    5014:	00010bc5          	.word	0x00010bc5
    5018:	00478793          	addi	x15,x15,4
  j 4f # done with test
    501c:	0280006f          	jal	x0,5044 <I_bge_cg_cr_rs1_rs2_edges_offset_rs1val_0xaaaaaaaa_rs2val_0x5bbc8872+0x48>
2: # goes here during backward branch if taken
  LI(x19, 1)
    5020:	00100993          	addi	x19,x0,1
  # Check if x19 contains the expected result. x15 is the signature ptr, x5 is the link ptr, x4 is a temp reg.
  RVTEST_SIGUPD(x15, x5, x4, x19, I_bge_cg_cr_rs1_rs2_edges_offset_rs1val_0xaaaaaaaa_rs2val_0x5bbc8872, I_bge_cg_cr_rs1_rs2_edges_offset_rs1val_0xaaaaaaaa_rs2val_0x5bbc8872_str) # signature 1 for taken
    5024:	0007a203          	lw	x4,0(x15)
    5028:	01320863          	beq	x4,x19,5038 <I_bge_cg_cr_rs1_rs2_edges_offset_rs1val_0xaaaaaaaa_rs2val_0x5bbc8872+0x3c>
    502c:	050052ef          	jal	x5,a07c <failedtest_x5_x4>
    5030:	00004ffc          	.word	0x00004ffc
    5034:	00010bc5          	.word	0x00010bc5
    5038:	00478793          	addi	x15,x15,4
  j 4f # done with test
    503c:	0080006f          	jal	x0,5044 <I_bge_cg_cr_rs1_rs2_edges_offset_rs1val_0xaaaaaaaa_rs2val_0x5bbc8872+0x48>
3: # goes here during forward branch if taken
  bge x19, x21, 2b # backward branch, definitely taken
    5040:	ff59d0e3          	bge	x19,x21,5020 <I_bge_cg_cr_rs1_rs2_edges_offset_rs1val_0xaaaaaaaa_rs2val_0x5bbc8872+0x24>
4: # done with test

# cr_rs1_rs2_edges_offset (Test source rs1 = 0xaaaaaaaa rs2 = 0xaaaaaaaa)
  RVTEST_TESTDATA_LOAD_INT(x23, x8) # load rs1: x8 = 0xaaaaaaaa
    5044:	000ba403          	lw	x8,0(x23)
    5048:	004b8b93          	addi	x23,x23,4
  RVTEST_TESTDATA_LOAD_INT(x23, x13) # load rs2: x13 = 0xaaaaaaaa
    504c:	000ba683          	lw	x13,0(x23)
    5050:	004b8b93          	addi	x23,x23,4

00005054 <I_bge_cg_cr_rs1_rs2_edges_offset_rs1val_0xaaaaaaaa_rs2val_0xaaaaaaaa>:
0: # destination for backwards branch that is never taken
I_bge_cg_cr_rs1_rs2_edges_offset_rs1val_0xaaaaaaaa_rs2val_0xaaaaaaaa:
  bge x8, x13, 3f # forward branch, if taken
    5054:	04d45263          	bge	x8,x13,5098 <I_bge_cg_cr_rs1_rs2_edges_offset_rs1val_0xaaaaaaaa_rs2val_0xaaaaaaaa+0x44>
1: # goes here if not taken
  bge x8, x13, 0b # backward branch, never taken
    5058:	fed45ee3          	bge	x8,x13,5054 <I_bge_cg_cr_rs1_rs2_edges_offset_rs1val_0xaaaaaaaa_rs2val_0xaaaaaaaa>
  # Check if x0 contains the expected result. x15 is the signature ptr, x5 is the link ptr, x4 is a temp reg.
  RVTEST_SIGUPD(x15, x5, x4, x0, I_bge_cg_cr_rs1_rs2_edges_offset_rs1val_0xaaaaaaaa_rs2val_0xaaaaaaaa, I_bge_cg_cr_rs1_rs2_edges_offset_rs1val_0xaaaaaaaa_rs2val_0xaaaaaaaa_str)
    505c:	0007a203          	lw	x4,0(x15)
    5060:	00020863          	beq	x4,x0,5070 <I_bge_cg_cr_rs1_rs2_edges_offset_rs1val_0xaaaaaaaa_rs2val_0xaaaaaaaa+0x1c>
    5064:	018052ef          	jal	x5,a07c <failedtest_x5_x4>
    5068:	00005054          	.word	0x00005054
    506c:	00010c27          	.word	0x00010c27
    5070:	00478793          	addi	x15,x15,4
  j 4f # done with test
    5074:	0280006f          	jal	x0,509c <I_bge_cg_cr_rs1_rs2_edges_offset_rs1val_0xaaaaaaaa_rs2val_0xaaaaaaaa+0x48>
2: # goes here during backward branch if taken
  LI(x8, 1)
    5078:	00100413          	addi	x8,x0,1
  # Check if x8 contains the expected result. x15 is the signature ptr, x5 is the link ptr, x4 is a temp reg.
  RVTEST_SIGUPD(x15, x5, x4, x8, I_bge_cg_cr_rs1_rs2_edges_offset_rs1val_0xaaaaaaaa_rs2val_0xaaaaaaaa, I_bge_cg_cr_rs1_rs2_edges_offset_rs1val_0xaaaaaaaa_rs2val_0xaaaaaaaa_str) # signature 1 for taken
    507c:	0007a203          	lw	x4,0(x15)
    5080:	00820863          	beq	x4,x8,5090 <I_bge_cg_cr_rs1_rs2_edges_offset_rs1val_0xaaaaaaaa_rs2val_0xaaaaaaaa+0x3c>
    5084:	7f9042ef          	jal	x5,a07c <failedtest_x5_x4>
    5088:	00005054          	.word	0x00005054
    508c:	00010c27          	.word	0x00010c27
    5090:	00478793          	addi	x15,x15,4
  j 4f # done with test
    5094:	0080006f          	jal	x0,509c <I_bge_cg_cr_rs1_rs2_edges_offset_rs1val_0xaaaaaaaa_rs2val_0xaaaaaaaa+0x48>
3: # goes here during forward branch if taken
  bge x8, x13, 2b # backward branch, definitely taken
    5098:	fed450e3          	bge	x8,x13,5078 <I_bge_cg_cr_rs1_rs2_edges_offset_rs1val_0xaaaaaaaa_rs2val_0xaaaaaaaa+0x24>
4: # done with test

# cr_rs1_rs2_edges_offset (Test source rs1 = 0xaaaaaaaa rs2 = 0x55555555)
  RVTEST_TESTDATA_LOAD_INT(x23, x19) # load rs1: x19 = 0xaaaaaaaa
    509c:	000ba983          	lw	x19,0(x23)
    50a0:	004b8b93          	addi	x23,x23,4
  RVTEST_TESTDATA_LOAD_INT(x23, x29) # load rs2: x29 = 0x55555555
    50a4:	000bae83          	lw	x29,0(x23)
    50a8:	004b8b93          	addi	x23,x23,4

000050ac <I_bge_cg_cr_rs1_rs2_edges_offset_rs1val_0xaaaaaaaa_rs2val_0x55555555>:
0: # destination for backwards branch that is never taken
I_bge_cg_cr_rs1_rs2_edges_offset_rs1val_0xaaaaaaaa_rs2val_0x55555555:
  bge x19, x29, 3f # forward branch, if taken
    50ac:	05d9d263          	bge	x19,x29,50f0 <I_bge_cg_cr_rs1_rs2_edges_offset_rs1val_0xaaaaaaaa_rs2val_0x55555555+0x44>
1: # goes here if not taken
  bge x19, x29, 0b # backward branch, never taken
    50b0:	ffd9dee3          	bge	x19,x29,50ac <I_bge_cg_cr_rs1_rs2_edges_offset_rs1val_0xaaaaaaaa_rs2val_0x55555555>
  # Check if x0 contains the expected result. x15 is the signature ptr, x5 is the link ptr, x4 is a temp reg.
  RVTEST_SIGUPD(x15, x5, x4, x0, I_bge_cg_cr_rs1_rs2_edges_offset_rs1val_0xaaaaaaaa_rs2val_0x55555555, I_bge_cg_cr_rs1_rs2_edges_offset_rs1val_0xaaaaaaaa_rs2val_0x55555555_str)
    50b4:	0007a203          	lw	x4,0(x15)
    50b8:	00020863          	beq	x4,x0,50c8 <I_bge_cg_cr_rs1_rs2_edges_offset_rs1val_0xaaaaaaaa_rs2val_0x55555555+0x1c>
    50bc:	7c1042ef          	jal	x5,a07c <failedtest_x5_x4>
    50c0:	000050ac          	.word	0x000050ac
    50c4:	00010c89          	.word	0x00010c89
    50c8:	00478793          	addi	x15,x15,4
  j 4f # done with test
    50cc:	0280006f          	jal	x0,50f4 <I_bge_cg_cr_rs1_rs2_edges_offset_rs1val_0xaaaaaaaa_rs2val_0x55555555+0x48>
2: # goes here during backward branch if taken
  LI(x19, 1)
    50d0:	00100993          	addi	x19,x0,1
  # Check if x19 contains the expected result. x15 is the signature ptr, x5 is the link ptr, x4 is a temp reg.
  RVTEST_SIGUPD(x15, x5, x4, x19, I_bge_cg_cr_rs1_rs2_edges_offset_rs1val_0xaaaaaaaa_rs2val_0x55555555, I_bge_cg_cr_rs1_rs2_edges_offset_rs1val_0xaaaaaaaa_rs2val_0x55555555_str) # signature 1 for taken
    50d4:	0007a203          	lw	x4,0(x15)
    50d8:	01320863          	beq	x4,x19,50e8 <I_bge_cg_cr_rs1_rs2_edges_offset_rs1val_0xaaaaaaaa_rs2val_0x55555555+0x3c>
    50dc:	7a1042ef          	jal	x5,a07c <failedtest_x5_x4>
    50e0:	000050ac          	.word	0x000050ac
    50e4:	00010c89          	.word	0x00010c89
    50e8:	00478793          	addi	x15,x15,4
  j 4f # done with test
    50ec:	0080006f          	jal	x0,50f4 <I_bge_cg_cr_rs1_rs2_edges_offset_rs1val_0xaaaaaaaa_rs2val_0x55555555+0x48>
3: # goes here during forward branch if taken
  bge x19, x29, 2b # backward branch, definitely taken
    50f0:	ffd9d0e3          	bge	x19,x29,50d0 <I_bge_cg_cr_rs1_rs2_edges_offset_rs1val_0xaaaaaaaa_rs2val_0x55555555+0x24>
4: # done with test

# cr_rs1_rs2_edges_offset (Test source rs1 = 0x55555555 rs2 = 0x00000000)
  RVTEST_TESTDATA_LOAD_INT(x23, x26) # load rs1: x26 = 0x55555555
    50f4:	000bad03          	lw	x26,0(x23)
    50f8:	004b8b93          	addi	x23,x23,4
  RVTEST_TESTDATA_LOAD_INT(x23, x21) # load rs2: x21 = 0x00000000
    50fc:	000baa83          	lw	x21,0(x23)
    5100:	004b8b93          	addi	x23,x23,4

00005104 <I_bge_cg_cr_rs1_rs2_edges_offset_rs1val_0x55555555_rs2val_0x0>:
0: # destination for backwards branch that is never taken
I_bge_cg_cr_rs1_rs2_edges_offset_rs1val_0x55555555_rs2val_0x0:
  bge x26, x21, 3f # forward branch, if taken
    5104:	055d5263          	bge	x26,x21,5148 <I_bge_cg_cr_rs1_rs2_edges_offset_rs1val_0x55555555_rs2val_0x0+0x44>
1: # goes here if not taken
  bge x26, x21, 0b # backward branch, never taken
    5108:	ff5d5ee3          	bge	x26,x21,5104 <I_bge_cg_cr_rs1_rs2_edges_offset_rs1val_0x55555555_rs2val_0x0>
  # Check if x0 contains the expected result. x15 is the signature ptr, x5 is the link ptr, x4 is a temp reg.
  RVTEST_SIGUPD(x15, x5, x4, x0, I_bge_cg_cr_rs1_rs2_edges_offset_rs1val_0x55555555_rs2val_0x0, I_bge_cg_cr_rs1_rs2_edges_offset_rs1val_0x55555555_rs2val_0x0_str)
    510c:	0007a203          	lw	x4,0(x15)
    5110:	00020863          	beq	x4,x0,5120 <I_bge_cg_cr_rs1_rs2_edges_offset_rs1val_0x55555555_rs2val_0x0+0x1c>
    5114:	769042ef          	jal	x5,a07c <failedtest_x5_x4>
    5118:	00005104          	.word	0x00005104
    511c:	00010ceb          	.word	0x00010ceb
    5120:	00478793          	addi	x15,x15,4
  j 4f # done with test
    5124:	0280006f          	jal	x0,514c <I_bge_cg_cr_rs1_rs2_edges_offset_rs1val_0x55555555_rs2val_0x0+0x48>
2: # goes here during backward branch if taken
  LI(x26, 1)
    5128:	00100d13          	addi	x26,x0,1
  # Check if x26 contains the expected result. x15 is the signature ptr, x5 is the link ptr, x4 is a temp reg.
  RVTEST_SIGUPD(x15, x5, x4, x26, I_bge_cg_cr_rs1_rs2_edges_offset_rs1val_0x55555555_rs2val_0x0, I_bge_cg_cr_rs1_rs2_edges_offset_rs1val_0x55555555_rs2val_0x0_str) # signature 1 for taken
    512c:	0007a203          	lw	x4,0(x15)
    5130:	01a20863          	beq	x4,x26,5140 <I_bge_cg_cr_rs1_rs2_edges_offset_rs1val_0x55555555_rs2val_0x0+0x3c>
    5134:	749042ef          	jal	x5,a07c <failedtest_x5_x4>
    5138:	00005104          	.word	0x00005104
    513c:	00010ceb          	.word	0x00010ceb
    5140:	00478793          	addi	x15,x15,4
  j 4f # done with test
    5144:	0080006f          	jal	x0,514c <I_bge_cg_cr_rs1_rs2_edges_offset_rs1val_0x55555555_rs2val_0x0+0x48>
3: # goes here during forward branch if taken
  bge x26, x21, 2b # backward branch, definitely taken
    5148:	ff5d50e3          	bge	x26,x21,5128 <I_bge_cg_cr_rs1_rs2_edges_offset_rs1val_0x55555555_rs2val_0x0+0x24>
4: # done with test

# cr_rs1_rs2_edges_offset (Test source rs1 = 0x55555555 rs2 = 0x00000001)
  RVTEST_TESTDATA_LOAD_INT(x23, x18) # load rs1: x18 = 0x55555555
    514c:	000ba903          	lw	x18,0(x23)
    5150:	004b8b93          	addi	x23,x23,4
  RVTEST_TESTDATA_LOAD_INT(x23, x25) # load rs2: x25 = 0x00000001
    5154:	000bac83          	lw	x25,0(x23)
    5158:	004b8b93          	addi	x23,x23,4

0000515c <I_bge_cg_cr_rs1_rs2_edges_offset_rs1val_0x55555555_rs2val_0x1>:
0: # destination for backwards branch that is never taken
I_bge_cg_cr_rs1_rs2_edges_offset_rs1val_0x55555555_rs2val_0x1:
  bge x18, x25, 3f # forward branch, if taken
    515c:	05995263          	bge	x18,x25,51a0 <I_bge_cg_cr_rs1_rs2_edges_offset_rs1val_0x55555555_rs2val_0x1+0x44>
1: # goes here if not taken
  bge x18, x25, 0b # backward branch, never taken
    5160:	ff995ee3          	bge	x18,x25,515c <I_bge_cg_cr_rs1_rs2_edges_offset_rs1val_0x55555555_rs2val_0x1>
  # Check if x0 contains the expected result. x15 is the signature ptr, x5 is the link ptr, x4 is a temp reg.
  RVTEST_SIGUPD(x15, x5, x4, x0, I_bge_cg_cr_rs1_rs2_edges_offset_rs1val_0x55555555_rs2val_0x1, I_bge_cg_cr_rs1_rs2_edges_offset_rs1val_0x55555555_rs2val_0x1_str)
    5164:	0007a203          	lw	x4,0(x15)
    5168:	00020863          	beq	x4,x0,5178 <I_bge_cg_cr_rs1_rs2_edges_offset_rs1val_0x55555555_rs2val_0x1+0x1c>
    516c:	711042ef          	jal	x5,a07c <failedtest_x5_x4>
    5170:	0000515c          	.word	0x0000515c
    5174:	00010d46          	.word	0x00010d46
    5178:	00478793          	addi	x15,x15,4
  j 4f # done with test
    517c:	0280006f          	jal	x0,51a4 <I_bge_cg_cr_rs1_rs2_edges_offset_rs1val_0x55555555_rs2val_0x1+0x48>
2: # goes here during backward branch if taken
  LI(x18, 1)
    5180:	00100913          	addi	x18,x0,1
  # Check if x18 contains the expected result. x15 is the signature ptr, x5 is the link ptr, x4 is a temp reg.
  RVTEST_SIGUPD(x15, x5, x4, x18, I_bge_cg_cr_rs1_rs2_edges_offset_rs1val_0x55555555_rs2val_0x1, I_bge_cg_cr_rs1_rs2_edges_offset_rs1val_0x55555555_rs2val_0x1_str) # signature 1 for taken
    5184:	0007a203          	lw	x4,0(x15)
    5188:	01220863          	beq	x4,x18,5198 <I_bge_cg_cr_rs1_rs2_edges_offset_rs1val_0x55555555_rs2val_0x1+0x3c>
    518c:	6f1042ef          	jal	x5,a07c <failedtest_x5_x4>
    5190:	0000515c          	.word	0x0000515c
    5194:	00010d46          	.word	0x00010d46
    5198:	00478793          	addi	x15,x15,4
  j 4f # done with test
    519c:	0080006f          	jal	x0,51a4 <I_bge_cg_cr_rs1_rs2_edges_offset_rs1val_0x55555555_rs2val_0x1+0x48>
3: # goes here during forward branch if taken
  bge x18, x25, 2b # backward branch, definitely taken
    51a0:	ff9950e3          	bge	x18,x25,5180 <I_bge_cg_cr_rs1_rs2_edges_offset_rs1val_0x55555555_rs2val_0x1+0x24>
4: # done with test

# cr_rs1_rs2_edges_offset (Test source rs1 = 0x55555555 rs2 = 0x00000002)
  RVTEST_TESTDATA_LOAD_INT(x23, x28) # load rs1: x28 = 0x55555555
    51a4:	000bae03          	lw	x28,0(x23)
    51a8:	004b8b93          	addi	x23,x23,4
  RVTEST_TESTDATA_LOAD_INT(x23, x22) # load rs2: x22 = 0x00000002
    51ac:	000bab03          	lw	x22,0(x23)
    51b0:	004b8b93          	addi	x23,x23,4

000051b4 <I_bge_cg_cr_rs1_rs2_edges_offset_rs1val_0x55555555_rs2val_0x2>:
0: # destination for backwards branch that is never taken
I_bge_cg_cr_rs1_rs2_edges_offset_rs1val_0x55555555_rs2val_0x2:
  bge x28, x22, 3f # forward branch, if taken
    51b4:	056e5263          	bge	x28,x22,51f8 <I_bge_cg_cr_rs1_rs2_edges_offset_rs1val_0x55555555_rs2val_0x2+0x44>
1: # goes here if not taken
  bge x28, x22, 0b # backward branch, never taken
    51b8:	ff6e5ee3          	bge	x28,x22,51b4 <I_bge_cg_cr_rs1_rs2_edges_offset_rs1val_0x55555555_rs2val_0x2>
  # Check if x0 contains the expected result. x15 is the signature ptr, x5 is the link ptr, x4 is a temp reg.
  RVTEST_SIGUPD(x15, x5, x4, x0, I_bge_cg_cr_rs1_rs2_edges_offset_rs1val_0x55555555_rs2val_0x2, I_bge_cg_cr_rs1_rs2_edges_offset_rs1val_0x55555555_rs2val_0x2_str)
    51bc:	0007a203          	lw	x4,0(x15)
    51c0:	00020863          	beq	x4,x0,51d0 <I_bge_cg_cr_rs1_rs2_edges_offset_rs1val_0x55555555_rs2val_0x2+0x1c>
    51c4:	6b9042ef          	jal	x5,a07c <failedtest_x5_x4>
    51c8:	000051b4          	.word	0x000051b4
    51cc:	00010da1          	.word	0x00010da1
    51d0:	00478793          	addi	x15,x15,4
  j 4f # done with test
    51d4:	0280006f          	jal	x0,51fc <I_bge_cg_cr_rs1_rs2_edges_offset_rs1val_0x55555555_rs2val_0x2+0x48>
2: # goes here during backward branch if taken
  LI(x28, 1)
    51d8:	00100e13          	addi	x28,x0,1
  # Check if x28 contains the expected result. x15 is the signature ptr, x5 is the link ptr, x4 is a temp reg.
  RVTEST_SIGUPD(x15, x5, x4, x28, I_bge_cg_cr_rs1_rs2_edges_offset_rs1val_0x55555555_rs2val_0x2, I_bge_cg_cr_rs1_rs2_edges_offset_rs1val_0x55555555_rs2val_0x2_str) # signature 1 for taken
    51dc:	0007a203          	lw	x4,0(x15)
    51e0:	01c20863          	beq	x4,x28,51f0 <I_bge_cg_cr_rs1_rs2_edges_offset_rs1val_0x55555555_rs2val_0x2+0x3c>
    51e4:	699042ef          	jal	x5,a07c <failedtest_x5_x4>
    51e8:	000051b4          	.word	0x000051b4
    51ec:	00010da1          	.word	0x00010da1
    51f0:	00478793          	addi	x15,x15,4
  j 4f # done with test
    51f4:	0080006f          	jal	x0,51fc <I_bge_cg_cr_rs1_rs2_edges_offset_rs1val_0x55555555_rs2val_0x2+0x48>
3: # goes here during forward branch if taken
  bge x28, x22, 2b # backward branch, definitely taken
    51f8:	ff6e50e3          	bge	x28,x22,51d8 <I_bge_cg_cr_rs1_rs2_edges_offset_rs1val_0x55555555_rs2val_0x2+0x24>
4: # done with test

# cr_rs1_rs2_edges_offset (Test source rs1 = 0x55555555 rs2 = 0x80000000)
  RVTEST_TESTDATA_LOAD_INT(x23, x3) # load rs1: x3 = 0x55555555
    51fc:	000ba183          	lw	x3,0(x23)
    5200:	004b8b93          	addi	x23,x23,4
  RVTEST_TESTDATA_LOAD_INT(x23, x24) # load rs2: x24 = 0x80000000
    5204:	000bac03          	lw	x24,0(x23)
    5208:	004b8b93          	addi	x23,x23,4

0000520c <I_bge_cg_cr_rs1_rs2_edges_offset_rs1val_0x55555555_rs2val_0x80000000>:
0: # destination for backwards branch that is never taken
I_bge_cg_cr_rs1_rs2_edges_offset_rs1val_0x55555555_rs2val_0x80000000:
  bge x3, x24, 3f # forward branch, if taken
    520c:	0581d263          	bge	x3,x24,5250 <I_bge_cg_cr_rs1_rs2_edges_offset_rs1val_0x55555555_rs2val_0x80000000+0x44>
1: # goes here if not taken
  bge x3, x24, 0b # backward branch, never taken
    5210:	ff81dee3          	bge	x3,x24,520c <I_bge_cg_cr_rs1_rs2_edges_offset_rs1val_0x55555555_rs2val_0x80000000>
  # Check if x0 contains the expected result. x15 is the signature ptr, x5 is the link ptr, x4 is a temp reg.
  RVTEST_SIGUPD(x15, x5, x4, x0, I_bge_cg_cr_rs1_rs2_edges_offset_rs1val_0x55555555_rs2val_0x80000000, I_bge_cg_cr_rs1_rs2_edges_offset_rs1val_0x55555555_rs2val_0x80000000_str)
    5214:	0007a203          	lw	x4,0(x15)
    5218:	00020863          	beq	x4,x0,5228 <I_bge_cg_cr_rs1_rs2_edges_offset_rs1val_0x55555555_rs2val_0x80000000+0x1c>
    521c:	661042ef          	jal	x5,a07c <failedtest_x5_x4>
    5220:	0000520c          	.word	0x0000520c
    5224:	00010dfc          	.word	0x00010dfc
    5228:	00478793          	addi	x15,x15,4
  j 4f # done with test
    522c:	0280006f          	jal	x0,5254 <I_bge_cg_cr_rs1_rs2_edges_offset_rs1val_0x55555555_rs2val_0x80000000+0x48>
2: # goes here during backward branch if taken
  LI(x3, 1)
    5230:	00100193          	addi	x3,x0,1
  # Check if x3 contains the expected result. x15 is the signature ptr, x5 is the link ptr, x4 is a temp reg.
  RVTEST_SIGUPD(x15, x5, x4, x3, I_bge_cg_cr_rs1_rs2_edges_offset_rs1val_0x55555555_rs2val_0x80000000, I_bge_cg_cr_rs1_rs2_edges_offset_rs1val_0x55555555_rs2val_0x80000000_str) # signature 1 for taken
    5234:	0007a203          	lw	x4,0(x15)
    5238:	00320863          	beq	x4,x3,5248 <I_bge_cg_cr_rs1_rs2_edges_offset_rs1val_0x55555555_rs2val_0x80000000+0x3c>
    523c:	641042ef          	jal	x5,a07c <failedtest_x5_x4>
    5240:	0000520c          	.word	0x0000520c
    5244:	00010dfc          	.word	0x00010dfc
    5248:	00478793          	addi	x15,x15,4
  j 4f # done with test
    524c:	0080006f          	jal	x0,5254 <I_bge_cg_cr_rs1_rs2_edges_offset_rs1val_0x55555555_rs2val_0x80000000+0x48>
3: # goes here during forward branch if taken
  bge x3, x24, 2b # backward branch, definitely taken
    5250:	ff81d0e3          	bge	x3,x24,5230 <I_bge_cg_cr_rs1_rs2_edges_offset_rs1val_0x55555555_rs2val_0x80000000+0x24>
4: # done with test

# cr_rs1_rs2_edges_offset (Test source rs1 = 0x55555555 rs2 = 0x80000001)
  RVTEST_TESTDATA_LOAD_INT(x23, x7) # load rs1: x7 = 0x55555555
    5254:	000ba383          	lw	x7,0(x23)
    5258:	004b8b93          	addi	x23,x23,4
  RVTEST_TESTDATA_LOAD_INT(x23, x19) # load rs2: x19 = 0x80000001
    525c:	000ba983          	lw	x19,0(x23)
    5260:	004b8b93          	addi	x23,x23,4

00005264 <I_bge_cg_cr_rs1_rs2_edges_offset_rs1val_0x55555555_rs2val_0x80000001>:
0: # destination for backwards branch that is never taken
I_bge_cg_cr_rs1_rs2_edges_offset_rs1val_0x55555555_rs2val_0x80000001:
  bge x7, x19, 3f # forward branch, if taken
    5264:	0533d263          	bge	x7,x19,52a8 <I_bge_cg_cr_rs1_rs2_edges_offset_rs1val_0x55555555_rs2val_0x80000001+0x44>
1: # goes here if not taken
  bge x7, x19, 0b # backward branch, never taken
    5268:	ff33dee3          	bge	x7,x19,5264 <I_bge_cg_cr_rs1_rs2_edges_offset_rs1val_0x55555555_rs2val_0x80000001>
  # Check if x0 contains the expected result. x15 is the signature ptr, x5 is the link ptr, x4 is a temp reg.
  RVTEST_SIGUPD(x15, x5, x4, x0, I_bge_cg_cr_rs1_rs2_edges_offset_rs1val_0x55555555_rs2val_0x80000001, I_bge_cg_cr_rs1_rs2_edges_offset_rs1val_0x55555555_rs2val_0x80000001_str)
    526c:	0007a203          	lw	x4,0(x15)
    5270:	00020863          	beq	x4,x0,5280 <I_bge_cg_cr_rs1_rs2_edges_offset_rs1val_0x55555555_rs2val_0x80000001+0x1c>
    5274:	609042ef          	jal	x5,a07c <failedtest_x5_x4>
    5278:	00005264          	.word	0x00005264
    527c:	00010e5e          	.word	0x00010e5e
    5280:	00478793          	addi	x15,x15,4
  j 4f # done with test
    5284:	0280006f          	jal	x0,52ac <I_bge_cg_cr_rs1_rs2_edges_offset_rs1val_0x55555555_rs2val_0x80000001+0x48>
2: # goes here during backward branch if taken
  LI(x7, 1)
    5288:	00100393          	addi	x7,x0,1
  # Check if x7 contains the expected result. x15 is the signature ptr, x5 is the link ptr, x4 is a temp reg.
  RVTEST_SIGUPD(x15, x5, x4, x7, I_bge_cg_cr_rs1_rs2_edges_offset_rs1val_0x55555555_rs2val_0x80000001, I_bge_cg_cr_rs1_rs2_edges_offset_rs1val_0x55555555_rs2val_0x80000001_str) # signature 1 for taken
    528c:	0007a203          	lw	x4,0(x15)
    5290:	00720863          	beq	x4,x7,52a0 <I_bge_cg_cr_rs1_rs2_edges_offset_rs1val_0x55555555_rs2val_0x80000001+0x3c>
    5294:	5e9042ef          	jal	x5,a07c <failedtest_x5_x4>
    5298:	00005264          	.word	0x00005264
    529c:	00010e5e          	.word	0x00010e5e
    52a0:	00478793          	addi	x15,x15,4
  j 4f # done with test
    52a4:	0080006f          	jal	x0,52ac <I_bge_cg_cr_rs1_rs2_edges_offset_rs1val_0x55555555_rs2val_0x80000001+0x48>
3: # goes here during forward branch if taken
  bge x7, x19, 2b # backward branch, definitely taken
    52a8:	ff33d0e3          	bge	x7,x19,5288 <I_bge_cg_cr_rs1_rs2_edges_offset_rs1val_0x55555555_rs2val_0x80000001+0x24>
4: # done with test

# cr_rs1_rs2_edges_offset (Test source rs1 = 0x55555555 rs2 = 0x7fffffff)
  RVTEST_TESTDATA_LOAD_INT(x23, x14) # load rs1: x14 = 0x55555555
    52ac:	000ba703          	lw	x14,0(x23)
    52b0:	004b8b93          	addi	x23,x23,4
  RVTEST_TESTDATA_LOAD_INT(x23, x26) # load rs2: x26 = 0x7fffffff
    52b4:	000bad03          	lw	x26,0(x23)
    52b8:	004b8b93          	addi	x23,x23,4

000052bc <I_bge_cg_cr_rs1_rs2_edges_offset_rs1val_0x55555555_rs2val_0x7fffffff>:
0: # destination for backwards branch that is never taken
I_bge_cg_cr_rs1_rs2_edges_offset_rs1val_0x55555555_rs2val_0x7fffffff:
  bge x14, x26, 3f # forward branch, if taken
    52bc:	05a75263          	bge	x14,x26,5300 <I_bge_cg_cr_rs1_rs2_edges_offset_rs1val_0x55555555_rs2val_0x7fffffff+0x44>
1: # goes here if not taken
  bge x14, x26, 0b # backward branch, never taken
    52c0:	ffa75ee3          	bge	x14,x26,52bc <I_bge_cg_cr_rs1_rs2_edges_offset_rs1val_0x55555555_rs2val_0x7fffffff>
  # Check if x0 contains the expected result. x15 is the signature ptr, x5 is the link ptr, x4 is a temp reg.
  RVTEST_SIGUPD(x15, x5, x4, x0, I_bge_cg_cr_rs1_rs2_edges_offset_rs1val_0x55555555_rs2val_0x7fffffff, I_bge_cg_cr_rs1_rs2_edges_offset_rs1val_0x55555555_rs2val_0x7fffffff_str)
    52c4:	0007a203          	lw	x4,0(x15)
    52c8:	00020863          	beq	x4,x0,52d8 <I_bge_cg_cr_rs1_rs2_edges_offset_rs1val_0x55555555_rs2val_0x7fffffff+0x1c>
    52cc:	5b1042ef          	jal	x5,a07c <failedtest_x5_x4>
    52d0:	000052bc          	.word	0x000052bc
    52d4:	00010ec0          	.word	0x00010ec0
    52d8:	00478793          	addi	x15,x15,4
  j 4f # done with test
    52dc:	0280006f          	jal	x0,5304 <I_bge_cg_cr_rs1_rs2_edges_offset_rs1val_0x55555555_rs2val_0x7fffffff+0x48>
2: # goes here during backward branch if taken
  LI(x14, 1)
    52e0:	00100713          	addi	x14,x0,1
  # Check if x14 contains the expected result. x15 is the signature ptr, x5 is the link ptr, x4 is a temp reg.
  RVTEST_SIGUPD(x15, x5, x4, x14, I_bge_cg_cr_rs1_rs2_edges_offset_rs1val_0x55555555_rs2val_0x7fffffff, I_bge_cg_cr_rs1_rs2_edges_offset_rs1val_0x55555555_rs2val_0x7fffffff_str) # signature 1 for taken
    52e4:	0007a203          	lw	x4,0(x15)
    52e8:	00e20863          	beq	x4,x14,52f8 <I_bge_cg_cr_rs1_rs2_edges_offset_rs1val_0x55555555_rs2val_0x7fffffff+0x3c>
    52ec:	591042ef          	jal	x5,a07c <failedtest_x5_x4>
    52f0:	000052bc          	.word	0x000052bc
    52f4:	00010ec0          	.word	0x00010ec0
    52f8:	00478793          	addi	x15,x15,4
  j 4f # done with test
    52fc:	0080006f          	jal	x0,5304 <I_bge_cg_cr_rs1_rs2_edges_offset_rs1val_0x55555555_rs2val_0x7fffffff+0x48>
3: # goes here during forward branch if taken
  bge x14, x26, 2b # backward branch, definitely taken
    5300:	ffa750e3          	bge	x14,x26,52e0 <I_bge_cg_cr_rs1_rs2_edges_offset_rs1val_0x55555555_rs2val_0x7fffffff+0x24>
4: # done with test

# cr_rs1_rs2_edges_offset (Test source rs1 = 0x55555555 rs2 = 0x7ffffffe)
  RVTEST_TESTDATA_LOAD_INT(x23, x14) # load rs1: x14 = 0x55555555
    5304:	000ba703          	lw	x14,0(x23)
    5308:	004b8b93          	addi	x23,x23,4
  RVTEST_TESTDATA_LOAD_INT(x23, x16) # load rs2: x16 = 0x7ffffffe
    530c:	000ba803          	lw	x16,0(x23)
    5310:	004b8b93          	addi	x23,x23,4

00005314 <I_bge_cg_cr_rs1_rs2_edges_offset_rs1val_0x55555555_rs2val_0x7ffffffe>:
0: # destination for backwards branch that is never taken
I_bge_cg_cr_rs1_rs2_edges_offset_rs1val_0x55555555_rs2val_0x7ffffffe:
  bge x14, x16, 3f # forward branch, if taken
    5314:	05075263          	bge	x14,x16,5358 <I_bge_cg_cr_rs1_rs2_edges_offset_rs1val_0x55555555_rs2val_0x7ffffffe+0x44>
1: # goes here if not taken
  bge x14, x16, 0b # backward branch, never taken
    5318:	ff075ee3          	bge	x14,x16,5314 <I_bge_cg_cr_rs1_rs2_edges_offset_rs1val_0x55555555_rs2val_0x7ffffffe>
  # Check if x0 contains the expected result. x15 is the signature ptr, x5 is the link ptr, x4 is a temp reg.
  RVTEST_SIGUPD(x15, x5, x4, x0, I_bge_cg_cr_rs1_rs2_edges_offset_rs1val_0x55555555_rs2val_0x7ffffffe, I_bge_cg_cr_rs1_rs2_edges_offset_rs1val_0x55555555_rs2val_0x7ffffffe_str)
    531c:	0007a203          	lw	x4,0(x15)
    5320:	00020863          	beq	x4,x0,5330 <I_bge_cg_cr_rs1_rs2_edges_offset_rs1val_0x55555555_rs2val_0x7ffffffe+0x1c>
    5324:	559042ef          	jal	x5,a07c <failedtest_x5_x4>
    5328:	00005314          	.word	0x00005314
    532c:	00010f22          	.word	0x00010f22
    5330:	00478793          	addi	x15,x15,4
  j 4f # done with test
    5334:	0280006f          	jal	x0,535c <I_bge_cg_cr_rs1_rs2_edges_offset_rs1val_0x55555555_rs2val_0x7ffffffe+0x48>
2: # goes here during backward branch if taken
  LI(x14, 1)
    5338:	00100713          	addi	x14,x0,1
  # Check if x14 contains the expected result. x15 is the signature ptr, x5 is the link ptr, x4 is a temp reg.
  RVTEST_SIGUPD(x15, x5, x4, x14, I_bge_cg_cr_rs1_rs2_edges_offset_rs1val_0x55555555_rs2val_0x7ffffffe, I_bge_cg_cr_rs1_rs2_edges_offset_rs1val_0x55555555_rs2val_0x7ffffffe_str) # signature 1 for taken
    533c:	0007a203          	lw	x4,0(x15)
    5340:	00e20863          	beq	x4,x14,5350 <I_bge_cg_cr_rs1_rs2_edges_offset_rs1val_0x55555555_rs2val_0x7ffffffe+0x3c>
    5344:	539042ef          	jal	x5,a07c <failedtest_x5_x4>
    5348:	00005314          	.word	0x00005314
    534c:	00010f22          	.word	0x00010f22
    5350:	00478793          	addi	x15,x15,4
  j 4f # done with test
    5354:	0080006f          	jal	x0,535c <I_bge_cg_cr_rs1_rs2_edges_offset_rs1val_0x55555555_rs2val_0x7ffffffe+0x48>
3: # goes here during forward branch if taken
  bge x14, x16, 2b # backward branch, definitely taken
    5358:	ff0750e3          	bge	x14,x16,5338 <I_bge_cg_cr_rs1_rs2_edges_offset_rs1val_0x55555555_rs2val_0x7ffffffe+0x24>
4: # done with test

# cr_rs1_rs2_edges_offset (Test source rs1 = 0x55555555 rs2 = 0xffffffff)
  RVTEST_TESTDATA_LOAD_INT(x23, x9) # load rs1: x9 = 0x55555555
    535c:	000ba483          	lw	x9,0(x23)
    5360:	004b8b93          	addi	x23,x23,4
  RVTEST_TESTDATA_LOAD_INT(x23, x10) # load rs2: x10 = 0xffffffff
    5364:	000ba503          	lw	x10,0(x23)
    5368:	004b8b93          	addi	x23,x23,4

0000536c <I_bge_cg_cr_rs1_rs2_edges_offset_rs1val_0x55555555_rs2val_0xffffffff>:
0: # destination for backwards branch that is never taken
I_bge_cg_cr_rs1_rs2_edges_offset_rs1val_0x55555555_rs2val_0xffffffff:
  bge x9, x10, 3f # forward branch, if taken
    536c:	04a4d263          	bge	x9,x10,53b0 <I_bge_cg_cr_rs1_rs2_edges_offset_rs1val_0x55555555_rs2val_0xffffffff+0x44>
1: # goes here if not taken
  bge x9, x10, 0b # backward branch, never taken
    5370:	fea4dee3          	bge	x9,x10,536c <I_bge_cg_cr_rs1_rs2_edges_offset_rs1val_0x55555555_rs2val_0xffffffff>
  # Check if x0 contains the expected result. x15 is the signature ptr, x5 is the link ptr, x4 is a temp reg.
  RVTEST_SIGUPD(x15, x5, x4, x0, I_bge_cg_cr_rs1_rs2_edges_offset_rs1val_0x55555555_rs2val_0xffffffff, I_bge_cg_cr_rs1_rs2_edges_offset_rs1val_0x55555555_rs2val_0xffffffff_str)
    5374:	0007a203          	lw	x4,0(x15)
    5378:	00020863          	beq	x4,x0,5388 <I_bge_cg_cr_rs1_rs2_edges_offset_rs1val_0x55555555_rs2val_0xffffffff+0x1c>
    537c:	501042ef          	jal	x5,a07c <failedtest_x5_x4>
    5380:	0000536c          	.word	0x0000536c
    5384:	00010f84          	.word	0x00010f84
    5388:	00478793          	addi	x15,x15,4
  j 4f # done with test
    538c:	0280006f          	jal	x0,53b4 <I_bge_cg_cr_rs1_rs2_edges_offset_rs1val_0x55555555_rs2val_0xffffffff+0x48>
2: # goes here during backward branch if taken
  LI(x9, 1)
    5390:	00100493          	addi	x9,x0,1
  # Check if x9 contains the expected result. x15 is the signature ptr, x5 is the link ptr, x4 is a temp reg.
  RVTEST_SIGUPD(x15, x5, x4, x9, I_bge_cg_cr_rs1_rs2_edges_offset_rs1val_0x55555555_rs2val_0xffffffff, I_bge_cg_cr_rs1_rs2_edges_offset_rs1val_0x55555555_rs2val_0xffffffff_str) # signature 1 for taken
    5394:	0007a203          	lw	x4,0(x15)
    5398:	00920863          	beq	x4,x9,53a8 <I_bge_cg_cr_rs1_rs2_edges_offset_rs1val_0x55555555_rs2val_0xffffffff+0x3c>
    539c:	4e1042ef          	jal	x5,a07c <failedtest_x5_x4>
    53a0:	0000536c          	.word	0x0000536c
    53a4:	00010f84          	.word	0x00010f84
    53a8:	00478793          	addi	x15,x15,4
  j 4f # done with test
    53ac:	0080006f          	jal	x0,53b4 <I_bge_cg_cr_rs1_rs2_edges_offset_rs1val_0x55555555_rs2val_0xffffffff+0x48>
3: # goes here during forward branch if taken
  bge x9, x10, 2b # backward branch, definitely taken
    53b0:	fea4d0e3          	bge	x9,x10,5390 <I_bge_cg_cr_rs1_rs2_edges_offset_rs1val_0x55555555_rs2val_0xffffffff+0x24>
4: # done with test

# cr_rs1_rs2_edges_offset (Test source rs1 = 0x55555555 rs2 = 0xfffffffe)
  RVTEST_TESTDATA_LOAD_INT(x23, x20) # load rs1: x20 = 0x55555555
    53b4:	000baa03          	lw	x20,0(x23)
    53b8:	004b8b93          	addi	x23,x23,4
  RVTEST_TESTDATA_LOAD_INT(x23, x17) # load rs2: x17 = 0xfffffffe
    53bc:	000ba883          	lw	x17,0(x23)
    53c0:	004b8b93          	addi	x23,x23,4

000053c4 <I_bge_cg_cr_rs1_rs2_edges_offset_rs1val_0x55555555_rs2val_0xfffffffe>:
0: # destination for backwards branch that is never taken
I_bge_cg_cr_rs1_rs2_edges_offset_rs1val_0x55555555_rs2val_0xfffffffe:
  bge x20, x17, 3f # forward branch, if taken
    53c4:	051a5263          	bge	x20,x17,5408 <I_bge_cg_cr_rs1_rs2_edges_offset_rs1val_0x55555555_rs2val_0xfffffffe+0x44>
1: # goes here if not taken
  bge x20, x17, 0b # backward branch, never taken
    53c8:	ff1a5ee3          	bge	x20,x17,53c4 <I_bge_cg_cr_rs1_rs2_edges_offset_rs1val_0x55555555_rs2val_0xfffffffe>
  # Check if x0 contains the expected result. x15 is the signature ptr, x5 is the link ptr, x4 is a temp reg.
  RVTEST_SIGUPD(x15, x5, x4, x0, I_bge_cg_cr_rs1_rs2_edges_offset_rs1val_0x55555555_rs2val_0xfffffffe, I_bge_cg_cr_rs1_rs2_edges_offset_rs1val_0x55555555_rs2val_0xfffffffe_str)
    53cc:	0007a203          	lw	x4,0(x15)
    53d0:	00020863          	beq	x4,x0,53e0 <I_bge_cg_cr_rs1_rs2_edges_offset_rs1val_0x55555555_rs2val_0xfffffffe+0x1c>
    53d4:	4a9042ef          	jal	x5,a07c <failedtest_x5_x4>
    53d8:	000053c4          	.word	0x000053c4
    53dc:	00010fe6          	.word	0x00010fe6
    53e0:	00478793          	addi	x15,x15,4
  j 4f # done with test
    53e4:	0280006f          	jal	x0,540c <I_bge_cg_cr_rs1_rs2_edges_offset_rs1val_0x55555555_rs2val_0xfffffffe+0x48>
2: # goes here during backward branch if taken
  LI(x20, 1)
    53e8:	00100a13          	addi	x20,x0,1
  # Check if x20 contains the expected result. x15 is the signature ptr, x5 is the link ptr, x4 is a temp reg.
  RVTEST_SIGUPD(x15, x5, x4, x20, I_bge_cg_cr_rs1_rs2_edges_offset_rs1val_0x55555555_rs2val_0xfffffffe, I_bge_cg_cr_rs1_rs2_edges_offset_rs1val_0x55555555_rs2val_0xfffffffe_str) # signature 1 for taken
    53ec:	0007a203          	lw	x4,0(x15)
    53f0:	01420863          	beq	x4,x20,5400 <I_bge_cg_cr_rs1_rs2_edges_offset_rs1val_0x55555555_rs2val_0xfffffffe+0x3c>
    53f4:	489042ef          	jal	x5,a07c <failedtest_x5_x4>
    53f8:	000053c4          	.word	0x000053c4
    53fc:	00010fe6          	.word	0x00010fe6
    5400:	00478793          	addi	x15,x15,4
  j 4f # done with test
    5404:	0080006f          	jal	x0,540c <I_bge_cg_cr_rs1_rs2_edges_offset_rs1val_0x55555555_rs2val_0xfffffffe+0x48>
3: # goes here during forward branch if taken
  bge x20, x17, 2b # backward branch, definitely taken
    5408:	ff1a50e3          	bge	x20,x17,53e8 <I_bge_cg_cr_rs1_rs2_edges_offset_rs1val_0x55555555_rs2val_0xfffffffe+0x24>
4: # done with test

# cr_rs1_rs2_edges_offset (Test source rs1 = 0x55555555 rs2 = 0x5bbc8872)
  RVTEST_TESTDATA_LOAD_INT(x23, x7) # load rs1: x7 = 0x55555555
    540c:	000ba383          	lw	x7,0(x23)
    5410:	004b8b93          	addi	x23,x23,4
  RVTEST_TESTDATA_LOAD_INT(x23, x29) # load rs2: x29 = 0x5bbc8872
    5414:	000bae83          	lw	x29,0(x23)
    5418:	004b8b93          	addi	x23,x23,4

0000541c <I_bge_cg_cr_rs1_rs2_edges_offset_rs1val_0x55555555_rs2val_0x5bbc8872>:
0: # destination for backwards branch that is never taken
I_bge_cg_cr_rs1_rs2_edges_offset_rs1val_0x55555555_rs2val_0x5bbc8872:
  bge x7, x29, 3f # forward branch, if taken
    541c:	05d3d263          	bge	x7,x29,5460 <I_bge_cg_cr_rs1_rs2_edges_offset_rs1val_0x55555555_rs2val_0x5bbc8872+0x44>
1: # goes here if not taken
  bge x7, x29, 0b # backward branch, never taken
    5420:	ffd3dee3          	bge	x7,x29,541c <I_bge_cg_cr_rs1_rs2_edges_offset_rs1val_0x55555555_rs2val_0x5bbc8872>
  # Check if x0 contains the expected result. x15 is the signature ptr, x5 is the link ptr, x4 is a temp reg.
  RVTEST_SIGUPD(x15, x5, x4, x0, I_bge_cg_cr_rs1_rs2_edges_offset_rs1val_0x55555555_rs2val_0x5bbc8872, I_bge_cg_cr_rs1_rs2_edges_offset_rs1val_0x55555555_rs2val_0x5bbc8872_str)
    5424:	0007a203          	lw	x4,0(x15)
    5428:	00020863          	beq	x4,x0,5438 <I_bge_cg_cr_rs1_rs2_edges_offset_rs1val_0x55555555_rs2val_0x5bbc8872+0x1c>
    542c:	451042ef          	jal	x5,a07c <failedtest_x5_x4>
    5430:	0000541c          	.word	0x0000541c
    5434:	00011048          	.word	0x00011048
    5438:	00478793          	addi	x15,x15,4
  j 4f # done with test
    543c:	0280006f          	jal	x0,5464 <I_bge_cg_cr_rs1_rs2_edges_offset_rs1val_0x55555555_rs2val_0x5bbc8872+0x48>
2: # goes here during backward branch if taken
  LI(x7, 1)
    5440:	00100393          	addi	x7,x0,1
  # Check if x7 contains the expected result. x15 is the signature ptr, x5 is the link ptr, x4 is a temp reg.
  RVTEST_SIGUPD(x15, x5, x4, x7, I_bge_cg_cr_rs1_rs2_edges_offset_rs1val_0x55555555_rs2val_0x5bbc8872, I_bge_cg_cr_rs1_rs2_edges_offset_rs1val_0x55555555_rs2val_0x5bbc8872_str) # signature 1 for taken
    5444:	0007a203          	lw	x4,0(x15)
    5448:	00720863          	beq	x4,x7,5458 <I_bge_cg_cr_rs1_rs2_edges_offset_rs1val_0x55555555_rs2val_0x5bbc8872+0x3c>
    544c:	431042ef          	jal	x5,a07c <failedtest_x5_x4>
    5450:	0000541c          	.word	0x0000541c
    5454:	00011048          	.word	0x00011048
    5458:	00478793          	addi	x15,x15,4
  j 4f # done with test
    545c:	0080006f          	jal	x0,5464 <I_bge_cg_cr_rs1_rs2_edges_offset_rs1val_0x55555555_rs2val_0x5bbc8872+0x48>
3: # goes here during forward branch if taken
  bge x7, x29, 2b # backward branch, definitely taken
    5460:	ffd3d0e3          	bge	x7,x29,5440 <I_bge_cg_cr_rs1_rs2_edges_offset_rs1val_0x55555555_rs2val_0x5bbc8872+0x24>
4: # done with test

# cr_rs1_rs2_edges_offset (Test source rs1 = 0x55555555 rs2 = 0xaaaaaaaa)
  RVTEST_TESTDATA_LOAD_INT(x23, x18) # load rs1: x18 = 0x55555555
    5464:	000ba903          	lw	x18,0(x23)
    5468:	004b8b93          	addi	x23,x23,4
  RVTEST_TESTDATA_LOAD_INT(x23, x31) # load rs2: x31 = 0xaaaaaaaa
    546c:	000baf83          	lw	x31,0(x23)
    5470:	004b8b93          	addi	x23,x23,4

00005474 <I_bge_cg_cr_rs1_rs2_edges_offset_rs1val_0x55555555_rs2val_0xaaaaaaaa>:
0: # destination for backwards branch that is never taken
I_bge_cg_cr_rs1_rs2_edges_offset_rs1val_0x55555555_rs2val_0xaaaaaaaa:
  bge x18, x31, 3f # forward branch, if taken
    5474:	05f95263          	bge	x18,x31,54b8 <I_bge_cg_cr_rs1_rs2_edges_offset_rs1val_0x55555555_rs2val_0xaaaaaaaa+0x44>
1: # goes here if not taken
  bge x18, x31, 0b # backward branch, never taken
    5478:	fff95ee3          	bge	x18,x31,5474 <I_bge_cg_cr_rs1_rs2_edges_offset_rs1val_0x55555555_rs2val_0xaaaaaaaa>
  # Check if x0 contains the expected result. x15 is the signature ptr, x5 is the link ptr, x4 is a temp reg.
  RVTEST_SIGUPD(x15, x5, x4, x0, I_bge_cg_cr_rs1_rs2_edges_offset_rs1val_0x55555555_rs2val_0xaaaaaaaa, I_bge_cg_cr_rs1_rs2_edges_offset_rs1val_0x55555555_rs2val_0xaaaaaaaa_str)
    547c:	0007a203          	lw	x4,0(x15)
    5480:	00020863          	beq	x4,x0,5490 <I_bge_cg_cr_rs1_rs2_edges_offset_rs1val_0x55555555_rs2val_0xaaaaaaaa+0x1c>
    5484:	3f9042ef          	jal	x5,a07c <failedtest_x5_x4>
    5488:	00005474          	.word	0x00005474
    548c:	000110aa          	.word	0x000110aa
    5490:	00478793          	addi	x15,x15,4
  j 4f # done with test
    5494:	0280006f          	jal	x0,54bc <I_bge_cg_cr_rs1_rs2_edges_offset_rs1val_0x55555555_rs2val_0xaaaaaaaa+0x48>
2: # goes here during backward branch if taken
  LI(x18, 1)
    5498:	00100913          	addi	x18,x0,1
  # Check if x18 contains the expected result. x15 is the signature ptr, x5 is the link ptr, x4 is a temp reg.
  RVTEST_SIGUPD(x15, x5, x4, x18, I_bge_cg_cr_rs1_rs2_edges_offset_rs1val_0x55555555_rs2val_0xaaaaaaaa, I_bge_cg_cr_rs1_rs2_edges_offset_rs1val_0x55555555_rs2val_0xaaaaaaaa_str) # signature 1 for taken
    549c:	0007a203          	lw	x4,0(x15)
    54a0:	01220863          	beq	x4,x18,54b0 <I_bge_cg_cr_rs1_rs2_edges_offset_rs1val_0x55555555_rs2val_0xaaaaaaaa+0x3c>
    54a4:	3d9042ef          	jal	x5,a07c <failedtest_x5_x4>
    54a8:	00005474          	.word	0x00005474
    54ac:	000110aa          	.word	0x000110aa
    54b0:	00478793          	addi	x15,x15,4
  j 4f # done with test
    54b4:	0080006f          	jal	x0,54bc <I_bge_cg_cr_rs1_rs2_edges_offset_rs1val_0x55555555_rs2val_0xaaaaaaaa+0x48>
3: # goes here during forward branch if taken
  bge x18, x31, 2b # backward branch, definitely taken
    54b8:	fff950e3          	bge	x18,x31,5498 <I_bge_cg_cr_rs1_rs2_edges_offset_rs1val_0x55555555_rs2val_0xaaaaaaaa+0x24>
4: # done with test

# cr_rs1_rs2_edges_offset (Test source rs1 = 0x55555555 rs2 = 0x55555555)
  RVTEST_TESTDATA_LOAD_INT(x23, x7) # load rs1: x7 = 0x55555555
    54bc:	000ba383          	lw	x7,0(x23)
    54c0:	004b8b93          	addi	x23,x23,4
  RVTEST_TESTDATA_LOAD_INT(x23, x1) # load rs2: x1 = 0x55555555
    54c4:	000ba083          	lw	x1,0(x23)
    54c8:	004b8b93          	addi	x23,x23,4

000054cc <I_bge_cg_cr_rs1_rs2_edges_offset_rs1val_0x55555555_rs2val_0x55555555>:
0: # destination for backwards branch that is never taken
I_bge_cg_cr_rs1_rs2_edges_offset_rs1val_0x55555555_rs2val_0x55555555:
  bge x7, x1, 3f # forward branch, if taken
    54cc:	0413d263          	bge	x7,x1,5510 <I_bge_cg_cr_rs1_rs2_edges_offset_rs1val_0x55555555_rs2val_0x55555555+0x44>
1: # goes here if not taken
  bge x7, x1, 0b # backward branch, never taken
    54d0:	fe13dee3          	bge	x7,x1,54cc <I_bge_cg_cr_rs1_rs2_edges_offset_rs1val_0x55555555_rs2val_0x55555555>
  # Check if x0 contains the expected result. x15 is the signature ptr, x5 is the link ptr, x4 is a temp reg.
  RVTEST_SIGUPD(x15, x5, x4, x0, I_bge_cg_cr_rs1_rs2_edges_offset_rs1val_0x55555555_rs2val_0x55555555, I_bge_cg_cr_rs1_rs2_edges_offset_rs1val_0x55555555_rs2val_0x55555555_str)
    54d4:	0007a203          	lw	x4,0(x15)
    54d8:	00020863          	beq	x4,x0,54e8 <I_bge_cg_cr_rs1_rs2_edges_offset_rs1val_0x55555555_rs2val_0x55555555+0x1c>
    54dc:	3a1042ef          	jal	x5,a07c <failedtest_x5_x4>
    54e0:	000054cc          	.word	0x000054cc
    54e4:	0001110c          	.word	0x0001110c
    54e8:	00478793          	addi	x15,x15,4
  j 4f # done with test
    54ec:	0280006f          	jal	x0,5514 <I_bge_cg_cr_rs1_rs2_edges_offset_rs1val_0x55555555_rs2val_0x55555555+0x48>
2: # goes here during backward branch if taken
  LI(x7, 1)
    54f0:	00100393          	addi	x7,x0,1
  # Check if x7 contains the expected result. x15 is the signature ptr, x5 is the link ptr, x4 is a temp reg.
  RVTEST_SIGUPD(x15, x5, x4, x7, I_bge_cg_cr_rs1_rs2_edges_offset_rs1val_0x55555555_rs2val_0x55555555, I_bge_cg_cr_rs1_rs2_edges_offset_rs1val_0x55555555_rs2val_0x55555555_str) # signature 1 for taken
    54f4:	0007a203          	lw	x4,0(x15)
    54f8:	00720863          	beq	x4,x7,5508 <I_bge_cg_cr_rs1_rs2_edges_offset_rs1val_0x55555555_rs2val_0x55555555+0x3c>
    54fc:	381042ef          	jal	x5,a07c <failedtest_x5_x4>
    5500:	000054cc          	.word	0x000054cc
    5504:	0001110c          	.word	0x0001110c
    5508:	00478793          	addi	x15,x15,4
  j 4f # done with test
    550c:	0080006f          	jal	x0,5514 <I_bge_cg_cr_rs1_rs2_edges_offset_rs1val_0x55555555_rs2val_0x55555555+0x48>
3: # goes here during forward branch if taken
  bge x7, x1, 2b # backward branch, definitely taken
    5510:	fe13d0e3          	bge	x7,x1,54f0 <I_bge_cg_cr_rs1_rs2_edges_offset_rs1val_0x55555555_rs2val_0x55555555+0x24>
/////////////////////////////////
// cmp_rs1_rs2
/////////////////////////////////

# Testcase cmp_rs1_rs2 (Test rs1 = rs2 = x0)
  RVTEST_TESTDATA_LOAD_INT(x23, x0) # load rs1: x0 = 0xeb3ca00f
    5514:	000ba003          	lw	x0,0(x23)
    5518:	004b8b93          	addi	x23,x23,4
  RVTEST_TESTDATA_LOAD_INT(x23, x0) # load rs2: x0 = 0x5d64af55
    551c:	000ba003          	lw	x0,0(x23)
    5520:	004b8b93          	addi	x23,x23,4
  RVTEST_TESTDATA_LOAD_INT(x23, x9) # load branch taken value: x9 = 0x22915901
    5524:	000ba483          	lw	x9,0(x23)
    5528:	004b8b93          	addi	x23,x23,4

0000552c <I_bge_cg_cmp_rs1_rs2_b0>:
I_bge_cg_cmp_rs1_rs2_b0:
  bge x0, x0, 1f # perform operation
    552c:	00005463          	bge	x0,x0,5534 <I_bge_cg_cmp_rs1_rs2_b0+0x8>
  LI(x9, -1) # branch not taken, set temp_reg to 0
    5530:	fff00493          	addi	x9,x0,-1
1:
  # Check if x9 contains the expected result. x15 is the signature ptr, x5 is the link ptr, x4 is a temp reg.
  RVTEST_SIGUPD(x15, x5, x4, x9, I_bge_cg_cmp_rs1_rs2_b0, I_bge_cg_cmp_rs1_rs2_b0_str)
    5534:	0007a203          	lw	x4,0(x15)
    5538:	00920863          	beq	x4,x9,5548 <I_bge_cg_cmp_rs1_rs2_b0+0x1c>
    553c:	341042ef          	jal	x5,a07c <failedtest_x5_x4>
    5540:	0000552c          	.word	0x0000552c
    5544:	0001116e          	.word	0x0001116e
    5548:	00478793          	addi	x15,x15,4

# Testcase cmp_rs1_rs2 (Test rs1 = rs2 = x1)
  RVTEST_TESTDATA_LOAD_INT(x23, x1) # load rs1: x1 = 0xdd30af7e
    554c:	000ba083          	lw	x1,0(x23)
    5550:	004b8b93          	addi	x23,x23,4
  RVTEST_TESTDATA_LOAD_INT(x23, x1) # load rs2: x1 = 0x88b3d4b5
    5554:	000ba083          	lw	x1,0(x23)
    5558:	004b8b93          	addi	x23,x23,4
  RVTEST_TESTDATA_LOAD_INT(x23, x26) # load branch taken value: x26 = 0xd65630c7
    555c:	000bad03          	lw	x26,0(x23)
    5560:	004b8b93          	addi	x23,x23,4

00005564 <I_bge_cg_cmp_rs1_rs2_b1>:
I_bge_cg_cmp_rs1_rs2_b1:
  bge x1, x1, 1f # perform operation
    5564:	0010d463          	bge	x1,x1,556c <I_bge_cg_cmp_rs1_rs2_b1+0x8>
  LI(x26, -1) # branch not taken, set temp_reg to 0
    5568:	fff00d13          	addi	x26,x0,-1
1:
  # Check if x26 contains the expected result. x15 is the signature ptr, x5 is the link ptr, x4 is a temp reg.
  RVTEST_SIGUPD(x15, x5, x4, x26, I_bge_cg_cmp_rs1_rs2_b1, I_bge_cg_cmp_rs1_rs2_b1_str)
    556c:	0007a203          	lw	x4,0(x15)
    5570:	01a20863          	beq	x4,x26,5580 <I_bge_cg_cmp_rs1_rs2_b1+0x1c>
    5574:	309042ef          	jal	x5,a07c <failedtest_x5_x4>
    5578:	00005564          	.word	0x00005564
    557c:	000111a2          	.word	0x000111a2
    5580:	00478793          	addi	x15,x15,4

# Testcase cmp_rs1_rs2 (Test rs1 = rs2 = x2)
  RVTEST_TESTDATA_LOAD_INT(x23, x2) # load rs1: x2 = 0x13142833
    5584:	000ba103          	lw	x2,0(x23)
    5588:	004b8b93          	addi	x23,x23,4
  RVTEST_TESTDATA_LOAD_INT(x23, x2) # load rs2: x2 = 0x2744562b
    558c:	000ba103          	lw	x2,0(x23)
    5590:	004b8b93          	addi	x23,x23,4
  RVTEST_TESTDATA_LOAD_INT(x23, x24) # load branch taken value: x24 = 0x8bc8984b
    5594:	000bac03          	lw	x24,0(x23)
    5598:	004b8b93          	addi	x23,x23,4

0000559c <I_bge_cg_cmp_rs1_rs2_b2>:
I_bge_cg_cmp_rs1_rs2_b2:
  bge x2, x2, 1f # perform operation
    559c:	00215463          	bge	x2,x2,55a4 <I_bge_cg_cmp_rs1_rs2_b2+0x8>
  LI(x24, -1) # branch not taken, set temp_reg to 0
    55a0:	fff00c13          	addi	x24,x0,-1
1:
  # Check if x24 contains the expected result. x15 is the signature ptr, x5 is the link ptr, x4 is a temp reg.
  RVTEST_SIGUPD(x15, x5, x4, x24, I_bge_cg_cmp_rs1_rs2_b2, I_bge_cg_cmp_rs1_rs2_b2_str)
    55a4:	0007a203          	lw	x4,0(x15)
    55a8:	01820863          	beq	x4,x24,55b8 <I_bge_cg_cmp_rs1_rs2_b2+0x1c>
    55ac:	2d1042ef          	jal	x5,a07c <failedtest_x5_x4>
    55b0:	0000559c          	.word	0x0000559c
    55b4:	000111d6          	.word	0x000111d6
    55b8:	00478793          	addi	x15,x15,4

# Testcase cmp_rs1_rs2 (Test rs1 = rs2 = x3)
  RVTEST_TESTDATA_LOAD_INT(x23, x3) # load rs1: x3 = 0x06d45715
    55bc:	000ba183          	lw	x3,0(x23)
    55c0:	004b8b93          	addi	x23,x23,4
  RVTEST_TESTDATA_LOAD_INT(x23, x3) # load rs2: x3 = 0x76f4d9f3
    55c4:	000ba183          	lw	x3,0(x23)
    55c8:	004b8b93          	addi	x23,x23,4
  RVTEST_TESTDATA_LOAD_INT(x23, x7) # load branch taken value: x7 = 0xbc4d8075
    55cc:	000ba383          	lw	x7,0(x23)
    55d0:	004b8b93          	addi	x23,x23,4

000055d4 <I_bge_cg_cmp_rs1_rs2_b3>:
I_bge_cg_cmp_rs1_rs2_b3:
  bge x3, x3, 1f # perform operation
    55d4:	0031d463          	bge	x3,x3,55dc <I_bge_cg_cmp_rs1_rs2_b3+0x8>
  LI(x7, -1) # branch not taken, set temp_reg to 0
    55d8:	fff00393          	addi	x7,x0,-1
1:
  # Check if x7 contains the expected result. x15 is the signature ptr, x5 is the link ptr, x4 is a temp reg.
  RVTEST_SIGUPD(x15, x5, x4, x7, I_bge_cg_cmp_rs1_rs2_b3, I_bge_cg_cmp_rs1_rs2_b3_str)
    55dc:	0007a203          	lw	x4,0(x15)
    55e0:	00720863          	beq	x4,x7,55f0 <I_bge_cg_cmp_rs1_rs2_b3+0x1c>
    55e4:	299042ef          	jal	x5,a07c <failedtest_x5_x4>
    55e8:	000055d4          	.word	0x000055d4
    55ec:	0001120a          	.word	0x0001120a
    55f0:	00478793          	addi	x15,x15,4

  mv x13, x4 # switch temp register to avoid conflict with test
    55f4:	00020693          	addi	x13,x4,0 # 0 <rvtest_entry_point>
  mv x14, x5 # switch link pointer register to avoid conflict with test
    55f8:	00028713          	addi	x14,x5,0
# Testcase cmp_rs1_rs2 (Test rs1 = rs2 = x4)
  RVTEST_TESTDATA_LOAD_INT(x23, x4) # load rs1: x4 = 0x9234f193
    55fc:	000ba203          	lw	x4,0(x23)
    5600:	004b8b93          	addi	x23,x23,4
  RVTEST_TESTDATA_LOAD_INT(x23, x4) # load rs2: x4 = 0x22b20476
    5604:	000ba203          	lw	x4,0(x23)
    5608:	004b8b93          	addi	x23,x23,4
  RVTEST_TESTDATA_LOAD_INT(x23, x1) # load branch taken value: x1 = 0x5bb35b16
    560c:	000ba083          	lw	x1,0(x23)
    5610:	004b8b93          	addi	x23,x23,4

00005614 <I_bge_cg_cmp_rs1_rs2_b4>:
I_bge_cg_cmp_rs1_rs2_b4:
  bge x4, x4, 1f # perform operation
    5614:	00425463          	bge	x4,x4,561c <I_bge_cg_cmp_rs1_rs2_b4+0x8>
  LI(x1, -1) # branch not taken, set temp_reg to 0
    5618:	fff00093          	addi	x1,x0,-1
1:
  # Check if x1 contains the expected result. x15 is the signature ptr, x14 is the link ptr, x13 is a temp reg.
  RVTEST_SIGUPD(x15, x14, x13, x1, I_bge_cg_cmp_rs1_rs2_b4, I_bge_cg_cmp_rs1_rs2_b4_str)
    561c:	0007a683          	lw	x13,0(x15)
    5620:	00168863          	beq	x13,x1,5630 <I_bge_cg_cmp_rs1_rs2_b4+0x1c>
    5624:	2990476f          	jal	x14,a0bc <failedtest_x14_x13>
    5628:	00005614          	.word	0x00005614
    562c:	0001123e          	.word	0x0001123e
    5630:	00478793          	addi	x15,x15,4

# Testcase cmp_rs1_rs2 (Test rs1 = rs2 = x5)
  RVTEST_TESTDATA_LOAD_INT(x23, x5) # load rs1: x5 = 0xf1e89f9b
    5634:	000ba283          	lw	x5,0(x23)
    5638:	004b8b93          	addi	x23,x23,4
  RVTEST_TESTDATA_LOAD_INT(x23, x5) # load rs2: x5 = 0xd8b734c6
    563c:	000ba283          	lw	x5,0(x23)
    5640:	004b8b93          	addi	x23,x23,4
  RVTEST_TESTDATA_LOAD_INT(x23, x4) # load branch taken value: x4 = 0xdb62d4bf
    5644:	000ba203          	lw	x4,0(x23)
    5648:	004b8b93          	addi	x23,x23,4

0000564c <I_bge_cg_cmp_rs1_rs2_b5>:
I_bge_cg_cmp_rs1_rs2_b5:
  bge x5, x5, 1f # perform operation
    564c:	0052d463          	bge	x5,x5,5654 <I_bge_cg_cmp_rs1_rs2_b5+0x8>
  LI(x4, -1) # branch not taken, set temp_reg to 0
    5650:	fff00213          	addi	x4,x0,-1
1:
  # Check if x4 contains the expected result. x15 is the signature ptr, x14 is the link ptr, x13 is a temp reg.
  RVTEST_SIGUPD(x15, x14, x13, x4, I_bge_cg_cmp_rs1_rs2_b5, I_bge_cg_cmp_rs1_rs2_b5_str)
    5654:	0007a683          	lw	x13,0(x15)
    5658:	00468863          	beq	x13,x4,5668 <I_bge_cg_cmp_rs1_rs2_b5+0x1c>
    565c:	2610476f          	jal	x14,a0bc <failedtest_x14_x13>
    5660:	0000564c          	.word	0x0000564c
    5664:	00011272          	.word	0x00011272
    5668:	00478793          	addi	x15,x15,4

# Testcase cmp_rs1_rs2 (Test rs1 = rs2 = x6)
  RVTEST_TESTDATA_LOAD_INT(x23, x6) # load rs1: x6 = 0x0861a295
    566c:	000ba303          	lw	x6,0(x23)
    5670:	004b8b93          	addi	x23,x23,4
  RVTEST_TESTDATA_LOAD_INT(x23, x6) # load rs2: x6 = 0x4e274342
    5674:	000ba303          	lw	x6,0(x23)
    5678:	004b8b93          	addi	x23,x23,4
  RVTEST_TESTDATA_LOAD_INT(x23, x7) # load branch taken value: x7 = 0xd94002f5
    567c:	000ba383          	lw	x7,0(x23)
    5680:	004b8b93          	addi	x23,x23,4

00005684 <I_bge_cg_cmp_rs1_rs2_b6>:
I_bge_cg_cmp_rs1_rs2_b6:
  bge x6, x6, 1f # perform operation
    5684:	00635463          	bge	x6,x6,568c <I_bge_cg_cmp_rs1_rs2_b6+0x8>
  LI(x7, -1) # branch not taken, set temp_reg to 0
    5688:	fff00393          	addi	x7,x0,-1
1:
  # Check if x7 contains the expected result. x15 is the signature ptr, x14 is the link ptr, x13 is a temp reg.
  RVTEST_SIGUPD(x15, x14, x13, x7, I_bge_cg_cmp_rs1_rs2_b6, I_bge_cg_cmp_rs1_rs2_b6_str)
    568c:	0007a683          	lw	x13,0(x15)
    5690:	00768863          	beq	x13,x7,56a0 <I_bge_cg_cmp_rs1_rs2_b6+0x1c>
    5694:	2290476f          	jal	x14,a0bc <failedtest_x14_x13>
    5698:	00005684          	.word	0x00005684
    569c:	000112a6          	.word	0x000112a6
    56a0:	00478793          	addi	x15,x15,4

# Testcase cmp_rs1_rs2 (Test rs1 = rs2 = x7)
  RVTEST_TESTDATA_LOAD_INT(x23, x7) # load rs1: x7 = 0x72ca6690
    56a4:	000ba383          	lw	x7,0(x23)
    56a8:	004b8b93          	addi	x23,x23,4
  RVTEST_TESTDATA_LOAD_INT(x23, x7) # load rs2: x7 = 0xe2fc1a7c
    56ac:	000ba383          	lw	x7,0(x23)
    56b0:	004b8b93          	addi	x23,x23,4
  RVTEST_TESTDATA_LOAD_INT(x23, x5) # load branch taken value: x5 = 0x4d8d8764
    56b4:	000ba283          	lw	x5,0(x23)
    56b8:	004b8b93          	addi	x23,x23,4

000056bc <I_bge_cg_cmp_rs1_rs2_b7>:
I_bge_cg_cmp_rs1_rs2_b7:
  bge x7, x7, 1f # perform operation
    56bc:	0073d463          	bge	x7,x7,56c4 <I_bge_cg_cmp_rs1_rs2_b7+0x8>
  LI(x5, -1) # branch not taken, set temp_reg to 0
    56c0:	fff00293          	addi	x5,x0,-1
1:
  # Check if x5 contains the expected result. x15 is the signature ptr, x14 is the link ptr, x13 is a temp reg.
  RVTEST_SIGUPD(x15, x14, x13, x5, I_bge_cg_cmp_rs1_rs2_b7, I_bge_cg_cmp_rs1_rs2_b7_str)
    56c4:	0007a683          	lw	x13,0(x15)
    56c8:	00568863          	beq	x13,x5,56d8 <I_bge_cg_cmp_rs1_rs2_b7+0x1c>
    56cc:	1f10476f          	jal	x14,a0bc <failedtest_x14_x13>
    56d0:	000056bc          	.word	0x000056bc
    56d4:	000112da          	.word	0x000112da
    56d8:	00478793          	addi	x15,x15,4

# Testcase cmp_rs1_rs2 (Test rs1 = rs2 = x8)
  RVTEST_TESTDATA_LOAD_INT(x23, x8) # load rs1: x8 = 0xae4d0038
    56dc:	000ba403          	lw	x8,0(x23)
    56e0:	004b8b93          	addi	x23,x23,4
  RVTEST_TESTDATA_LOAD_INT(x23, x8) # load rs2: x8 = 0xf99d7c3a
    56e4:	000ba403          	lw	x8,0(x23)
    56e8:	004b8b93          	addi	x23,x23,4
  RVTEST_TESTDATA_LOAD_INT(x23, x17) # load branch taken value: x17 = 0x92bd954c
    56ec:	000ba883          	lw	x17,0(x23)
    56f0:	004b8b93          	addi	x23,x23,4

000056f4 <I_bge_cg_cmp_rs1_rs2_b8>:
I_bge_cg_cmp_rs1_rs2_b8:
  bge x8, x8, 1f # perform operation
    56f4:	00845463          	bge	x8,x8,56fc <I_bge_cg_cmp_rs1_rs2_b8+0x8>
  LI(x17, -1) # branch not taken, set temp_reg to 0
    56f8:	fff00893          	addi	x17,x0,-1
1:
  # Check if x17 contains the expected result. x15 is the signature ptr, x14 is the link ptr, x13 is a temp reg.
  RVTEST_SIGUPD(x15, x14, x13, x17, I_bge_cg_cmp_rs1_rs2_b8, I_bge_cg_cmp_rs1_rs2_b8_str)
    56fc:	0007a683          	lw	x13,0(x15)
    5700:	01168863          	beq	x13,x17,5710 <I_bge_cg_cmp_rs1_rs2_b8+0x1c>
    5704:	1b90476f          	jal	x14,a0bc <failedtest_x14_x13>
    5708:	000056f4          	.word	0x000056f4
    570c:	0001130e          	.word	0x0001130e
    5710:	00478793          	addi	x15,x15,4

# Testcase cmp_rs1_rs2 (Test rs1 = rs2 = x9)
  RVTEST_TESTDATA_LOAD_INT(x23, x9) # load rs1: x9 = 0x7c99402c
    5714:	000ba483          	lw	x9,0(x23)
    5718:	004b8b93          	addi	x23,x23,4
  RVTEST_TESTDATA_LOAD_INT(x23, x9) # load rs2: x9 = 0x95ebbd2b
    571c:	000ba483          	lw	x9,0(x23)
    5720:	004b8b93          	addi	x23,x23,4
  RVTEST_TESTDATA_LOAD_INT(x23, x4) # load branch taken value: x4 = 0x3c8ffda4
    5724:	000ba203          	lw	x4,0(x23)
    5728:	004b8b93          	addi	x23,x23,4

0000572c <I_bge_cg_cmp_rs1_rs2_b9>:
I_bge_cg_cmp_rs1_rs2_b9:
  bge x9, x9, 1f # perform operation
    572c:	0094d463          	bge	x9,x9,5734 <I_bge_cg_cmp_rs1_rs2_b9+0x8>
  LI(x4, -1) # branch not taken, set temp_reg to 0
    5730:	fff00213          	addi	x4,x0,-1
1:
  # Check if x4 contains the expected result. x15 is the signature ptr, x14 is the link ptr, x13 is a temp reg.
  RVTEST_SIGUPD(x15, x14, x13, x4, I_bge_cg_cmp_rs1_rs2_b9, I_bge_cg_cmp_rs1_rs2_b9_str)
    5734:	0007a683          	lw	x13,0(x15)
    5738:	00468863          	beq	x13,x4,5748 <I_bge_cg_cmp_rs1_rs2_b9+0x1c>
    573c:	1810476f          	jal	x14,a0bc <failedtest_x14_x13>
    5740:	0000572c          	.word	0x0000572c
    5744:	00011342          	.word	0x00011342
    5748:	00478793          	addi	x15,x15,4

# Testcase cmp_rs1_rs2 (Test rs1 = rs2 = x10)
  RVTEST_TESTDATA_LOAD_INT(x23, x10) # load rs1: x10 = 0x0c8b32d0
    574c:	000ba503          	lw	x10,0(x23)
    5750:	004b8b93          	addi	x23,x23,4
  RVTEST_TESTDATA_LOAD_INT(x23, x10) # load rs2: x10 = 0xed6079d8
    5754:	000ba503          	lw	x10,0(x23)
    5758:	004b8b93          	addi	x23,x23,4
  RVTEST_TESTDATA_LOAD_INT(x23, x26) # load branch taken value: x26 = 0xfe4bd87e
    575c:	000bad03          	lw	x26,0(x23)
    5760:	004b8b93          	addi	x23,x23,4

00005764 <I_bge_cg_cmp_rs1_rs2_b10>:
I_bge_cg_cmp_rs1_rs2_b10:
  bge x10, x10, 1f # perform operation
    5764:	00a55463          	bge	x10,x10,576c <I_bge_cg_cmp_rs1_rs2_b10+0x8>
  LI(x26, -1) # branch not taken, set temp_reg to 0
    5768:	fff00d13          	addi	x26,x0,-1
1:
  # Check if x26 contains the expected result. x15 is the signature ptr, x14 is the link ptr, x13 is a temp reg.
  RVTEST_SIGUPD(x15, x14, x13, x26, I_bge_cg_cmp_rs1_rs2_b10, I_bge_cg_cmp_rs1_rs2_b10_str)
    576c:	0007a683          	lw	x13,0(x15)
    5770:	01a68863          	beq	x13,x26,5780 <I_bge_cg_cmp_rs1_rs2_b10+0x1c>
    5774:	1490476f          	jal	x14,a0bc <failedtest_x14_x13>
    5778:	00005764          	.word	0x00005764
    577c:	00011376          	.word	0x00011376
    5780:	00478793          	addi	x15,x15,4

# Testcase cmp_rs1_rs2 (Test rs1 = rs2 = x11)
  RVTEST_TESTDATA_LOAD_INT(x23, x11) # load rs1: x11 = 0x84a6856a
    5784:	000ba583          	lw	x11,0(x23)
    5788:	004b8b93          	addi	x23,x23,4
  RVTEST_TESTDATA_LOAD_INT(x23, x11) # load rs2: x11 = 0x4116524d
    578c:	000ba583          	lw	x11,0(x23)
    5790:	004b8b93          	addi	x23,x23,4
  RVTEST_TESTDATA_LOAD_INT(x23, x30) # load branch taken value: x30 = 0x1c21d18c
    5794:	000baf03          	lw	x30,0(x23)
    5798:	004b8b93          	addi	x23,x23,4

0000579c <I_bge_cg_cmp_rs1_rs2_b11>:
I_bge_cg_cmp_rs1_rs2_b11:
  bge x11, x11, 1f # perform operation
    579c:	00b5d463          	bge	x11,x11,57a4 <I_bge_cg_cmp_rs1_rs2_b11+0x8>
  LI(x30, -1) # branch not taken, set temp_reg to 0
    57a0:	fff00f13          	addi	x30,x0,-1
1:
  # Check if x30 contains the expected result. x15 is the signature ptr, x14 is the link ptr, x13 is a temp reg.
  RVTEST_SIGUPD(x15, x14, x13, x30, I_bge_cg_cmp_rs1_rs2_b11, I_bge_cg_cmp_rs1_rs2_b11_str)
    57a4:	0007a683          	lw	x13,0(x15)
    57a8:	01e68863          	beq	x13,x30,57b8 <I_bge_cg_cmp_rs1_rs2_b11+0x1c>
    57ac:	1110476f          	jal	x14,a0bc <failedtest_x14_x13>
    57b0:	0000579c          	.word	0x0000579c
    57b4:	000113ab          	.word	0x000113ab
    57b8:	00478793          	addi	x15,x15,4

# Testcase cmp_rs1_rs2 (Test rs1 = rs2 = x12)
  RVTEST_TESTDATA_LOAD_INT(x23, x12) # load rs1: x12 = 0xad9bd9bc
    57bc:	000ba603          	lw	x12,0(x23)
    57c0:	004b8b93          	addi	x23,x23,4
  RVTEST_TESTDATA_LOAD_INT(x23, x12) # load rs2: x12 = 0x277ac5f0
    57c4:	000ba603          	lw	x12,0(x23)
    57c8:	004b8b93          	addi	x23,x23,4
  RVTEST_TESTDATA_LOAD_INT(x23, x28) # load branch taken value: x28 = 0x0758df31
    57cc:	000bae03          	lw	x28,0(x23)
    57d0:	004b8b93          	addi	x23,x23,4

000057d4 <I_bge_cg_cmp_rs1_rs2_b12>:
I_bge_cg_cmp_rs1_rs2_b12:
  bge x12, x12, 1f # perform operation
    57d4:	00c65463          	bge	x12,x12,57dc <I_bge_cg_cmp_rs1_rs2_b12+0x8>
  LI(x28, -1) # branch not taken, set temp_reg to 0
    57d8:	fff00e13          	addi	x28,x0,-1
1:
  # Check if x28 contains the expected result. x15 is the signature ptr, x14 is the link ptr, x13 is a temp reg.
  RVTEST_SIGUPD(x15, x14, x13, x28, I_bge_cg_cmp_rs1_rs2_b12, I_bge_cg_cmp_rs1_rs2_b12_str)
    57dc:	0007a683          	lw	x13,0(x15)
    57e0:	01c68863          	beq	x13,x28,57f0 <I_bge_cg_cmp_rs1_rs2_b12+0x1c>
    57e4:	0d90476f          	jal	x14,a0bc <failedtest_x14_x13>
    57e8:	000057d4          	.word	0x000057d4
    57ec:	000113e0          	.word	0x000113e0
    57f0:	00478793          	addi	x15,x15,4

  mv x4, x13 # switch temp register to avoid conflict with test
    57f4:	00068213          	addi	x4,x13,0
  mv x5, x14 # switch link pointer register to avoid conflict with test
    57f8:	00070293          	addi	x5,x14,0
# Testcase cmp_rs1_rs2 (Test rs1 = rs2 = x13)
  RVTEST_TESTDATA_LOAD_INT(x23, x13) # load rs1: x13 = 0x1b7a39fd
    57fc:	000ba683          	lw	x13,0(x23)
    5800:	004b8b93          	addi	x23,x23,4
  RVTEST_TESTDATA_LOAD_INT(x23, x13) # load rs2: x13 = 0x620bf388
    5804:	000ba683          	lw	x13,0(x23)
    5808:	004b8b93          	addi	x23,x23,4
  RVTEST_TESTDATA_LOAD_INT(x23, x18) # load branch taken value: x18 = 0xec087086
    580c:	000ba903          	lw	x18,0(x23)
    5810:	004b8b93          	addi	x23,x23,4

00005814 <I_bge_cg_cmp_rs1_rs2_b13>:
I_bge_cg_cmp_rs1_rs2_b13:
  bge x13, x13, 1f # perform operation
    5814:	00d6d463          	bge	x13,x13,581c <I_bge_cg_cmp_rs1_rs2_b13+0x8>
  LI(x18, -1) # branch not taken, set temp_reg to 0
    5818:	fff00913          	addi	x18,x0,-1
1:
  # Check if x18 contains the expected result. x15 is the signature ptr, x5 is the link ptr, x4 is a temp reg.
  RVTEST_SIGUPD(x15, x5, x4, x18, I_bge_cg_cmp_rs1_rs2_b13, I_bge_cg_cmp_rs1_rs2_b13_str)
    581c:	0007a203          	lw	x4,0(x15)
    5820:	01220863          	beq	x4,x18,5830 <I_bge_cg_cmp_rs1_rs2_b13+0x1c>
    5824:	059042ef          	jal	x5,a07c <failedtest_x5_x4>
    5828:	00005814          	.word	0x00005814
    582c:	00011415          	.word	0x00011415
    5830:	00478793          	addi	x15,x15,4

# Testcase cmp_rs1_rs2 (Test rs1 = rs2 = x14)
  RVTEST_TESTDATA_LOAD_INT(x23, x14) # load rs1: x14 = 0xa8901291
    5834:	000ba703          	lw	x14,0(x23)
    5838:	004b8b93          	addi	x23,x23,4
  RVTEST_TESTDATA_LOAD_INT(x23, x14) # load rs2: x14 = 0xa954efab
    583c:	000ba703          	lw	x14,0(x23)
    5840:	004b8b93          	addi	x23,x23,4
  RVTEST_TESTDATA_LOAD_INT(x23, x13) # load branch taken value: x13 = 0xe6d76313
    5844:	000ba683          	lw	x13,0(x23)
    5848:	004b8b93          	addi	x23,x23,4

0000584c <I_bge_cg_cmp_rs1_rs2_b14>:
I_bge_cg_cmp_rs1_rs2_b14:
  bge x14, x14, 1f # perform operation
    584c:	00e75463          	bge	x14,x14,5854 <I_bge_cg_cmp_rs1_rs2_b14+0x8>
  LI(x13, -1) # branch not taken, set temp_reg to 0
    5850:	fff00693          	addi	x13,x0,-1
1:
  # Check if x13 contains the expected result. x15 is the signature ptr, x5 is the link ptr, x4 is a temp reg.
  RVTEST_SIGUPD(x15, x5, x4, x13, I_bge_cg_cmp_rs1_rs2_b14, I_bge_cg_cmp_rs1_rs2_b14_str)
    5854:	0007a203          	lw	x4,0(x15)
    5858:	00d20863          	beq	x4,x13,5868 <I_bge_cg_cmp_rs1_rs2_b14+0x1c>
    585c:	021042ef          	jal	x5,a07c <failedtest_x5_x4>
    5860:	0000584c          	.word	0x0000584c
    5864:	0001144a          	.word	0x0001144a
    5868:	00478793          	addi	x15,x15,4

  mv x25, x15 # switch signature pointer register to avoid conflict with test
    586c:	00078c93          	addi	x25,x15,0
# Testcase cmp_rs1_rs2 (Test rs1 = rs2 = x15)
  RVTEST_TESTDATA_LOAD_INT(x23, x15) # load rs1: x15 = 0xda751af2
    5870:	000ba783          	lw	x15,0(x23)
    5874:	004b8b93          	addi	x23,x23,4
  RVTEST_TESTDATA_LOAD_INT(x23, x15) # load rs2: x15 = 0xc8077a6a
    5878:	000ba783          	lw	x15,0(x23)
    587c:	004b8b93          	addi	x23,x23,4
  RVTEST_TESTDATA_LOAD_INT(x23, x27) # load branch taken value: x27 = 0x6f929954
    5880:	000bad83          	lw	x27,0(x23)
    5884:	004b8b93          	addi	x23,x23,4

00005888 <I_bge_cg_cmp_rs1_rs2_b15>:
I_bge_cg_cmp_rs1_rs2_b15:
  bge x15, x15, 1f # perform operation
    5888:	00f7d463          	bge	x15,x15,5890 <I_bge_cg_cmp_rs1_rs2_b15+0x8>
  LI(x27, -1) # branch not taken, set temp_reg to 0
    588c:	fff00d93          	addi	x27,x0,-1
1:
  # Check if x27 contains the expected result. x25 is the signature ptr, x5 is the link ptr, x4 is a temp reg.
  RVTEST_SIGUPD(x25, x5, x4, x27, I_bge_cg_cmp_rs1_rs2_b15, I_bge_cg_cmp_rs1_rs2_b15_str)
    5890:	000ca203          	lw	x4,0(x25)
    5894:	01b20863          	beq	x4,x27,58a4 <I_bge_cg_cmp_rs1_rs2_b15+0x1c>
    5898:	7e4042ef          	jal	x5,a07c <failedtest_x5_x4>
    589c:	00005888          	.word	0x00005888
    58a0:	0001147f          	.word	0x0001147f
    58a4:	004c8c93          	addi	x25,x25,4

# Testcase cmp_rs1_rs2 (Test rs1 = rs2 = x16)
  RVTEST_TESTDATA_LOAD_INT(x23, x16) # load rs1: x16 = 0xb01c47fd
    58a8:	000ba803          	lw	x16,0(x23)
    58ac:	004b8b93          	addi	x23,x23,4
  RVTEST_TESTDATA_LOAD_INT(x23, x16) # load rs2: x16 = 0x310ee69b
    58b0:	000ba803          	lw	x16,0(x23)
    58b4:	004b8b93          	addi	x23,x23,4
  RVTEST_TESTDATA_LOAD_INT(x23, x12) # load branch taken value: x12 = 0xfb463107
    58b8:	000ba603          	lw	x12,0(x23)
    58bc:	004b8b93          	addi	x23,x23,4

000058c0 <I_bge_cg_cmp_rs1_rs2_b16>:
I_bge_cg_cmp_rs1_rs2_b16:
  bge x16, x16, 1f # perform operation
    58c0:	01085463          	bge	x16,x16,58c8 <I_bge_cg_cmp_rs1_rs2_b16+0x8>
  LI(x12, -1) # branch not taken, set temp_reg to 0
    58c4:	fff00613          	addi	x12,x0,-1
1:
  # Check if x12 contains the expected result. x25 is the signature ptr, x5 is the link ptr, x4 is a temp reg.
  RVTEST_SIGUPD(x25, x5, x4, x12, I_bge_cg_cmp_rs1_rs2_b16, I_bge_cg_cmp_rs1_rs2_b16_str)
    58c8:	000ca203          	lw	x4,0(x25)
    58cc:	00c20863          	beq	x4,x12,58dc <I_bge_cg_cmp_rs1_rs2_b16+0x1c>
    58d0:	7ac042ef          	jal	x5,a07c <failedtest_x5_x4>
    58d4:	000058c0          	.word	0x000058c0
    58d8:	000114b4          	.word	0x000114b4
    58dc:	004c8c93          	addi	x25,x25,4

# Testcase cmp_rs1_rs2 (Test rs1 = rs2 = x17)
  RVTEST_TESTDATA_LOAD_INT(x23, x17) # load rs1: x17 = 0x59e1ba84
    58e0:	000ba883          	lw	x17,0(x23)
    58e4:	004b8b93          	addi	x23,x23,4
  RVTEST_TESTDATA_LOAD_INT(x23, x17) # load rs2: x17 = 0xbfb685bd
    58e8:	000ba883          	lw	x17,0(x23)
    58ec:	004b8b93          	addi	x23,x23,4
  RVTEST_TESTDATA_LOAD_INT(x23, x8) # load branch taken value: x8 = 0xc606ac31
    58f0:	000ba403          	lw	x8,0(x23)
    58f4:	004b8b93          	addi	x23,x23,4

000058f8 <I_bge_cg_cmp_rs1_rs2_b17>:
I_bge_cg_cmp_rs1_rs2_b17:
  bge x17, x17, 1f # perform operation
    58f8:	0118d463          	bge	x17,x17,5900 <I_bge_cg_cmp_rs1_rs2_b17+0x8>
  LI(x8, -1) # branch not taken, set temp_reg to 0
    58fc:	fff00413          	addi	x8,x0,-1
1:
  # Check if x8 contains the expected result. x25 is the signature ptr, x5 is the link ptr, x4 is a temp reg.
  RVTEST_SIGUPD(x25, x5, x4, x8, I_bge_cg_cmp_rs1_rs2_b17, I_bge_cg_cmp_rs1_rs2_b17_str)
    5900:	000ca203          	lw	x4,0(x25)
    5904:	00820863          	beq	x4,x8,5914 <I_bge_cg_cmp_rs1_rs2_b17+0x1c>
    5908:	774042ef          	jal	x5,a07c <failedtest_x5_x4>
    590c:	000058f8          	.word	0x000058f8
    5910:	000114e9          	.word	0x000114e9
    5914:	004c8c93          	addi	x25,x25,4

# Testcase cmp_rs1_rs2 (Test rs1 = rs2 = x18)
  RVTEST_TESTDATA_LOAD_INT(x23, x18) # load rs1: x18 = 0x45fdfcd6
    5918:	000ba903          	lw	x18,0(x23)
    591c:	004b8b93          	addi	x23,x23,4
  RVTEST_TESTDATA_LOAD_INT(x23, x18) # load rs2: x18 = 0x744a5483
    5920:	000ba903          	lw	x18,0(x23)
    5924:	004b8b93          	addi	x23,x23,4
  RVTEST_TESTDATA_LOAD_INT(x23, x12) # load branch taken value: x12 = 0xf8c4a76b
    5928:	000ba603          	lw	x12,0(x23)
    592c:	004b8b93          	addi	x23,x23,4

00005930 <I_bge_cg_cmp_rs1_rs2_b18>:
I_bge_cg_cmp_rs1_rs2_b18:
  bge x18, x18, 1f # perform operation
    5930:	01295463          	bge	x18,x18,5938 <I_bge_cg_cmp_rs1_rs2_b18+0x8>
  LI(x12, -1) # branch not taken, set temp_reg to 0
    5934:	fff00613          	addi	x12,x0,-1
1:
  # Check if x12 contains the expected result. x25 is the signature ptr, x5 is the link ptr, x4 is a temp reg.
  RVTEST_SIGUPD(x25, x5, x4, x12, I_bge_cg_cmp_rs1_rs2_b18, I_bge_cg_cmp_rs1_rs2_b18_str)
    5938:	000ca203          	lw	x4,0(x25)
    593c:	00c20863          	beq	x4,x12,594c <I_bge_cg_cmp_rs1_rs2_b18+0x1c>
    5940:	73c042ef          	jal	x5,a07c <failedtest_x5_x4>
    5944:	00005930          	.word	0x00005930
    5948:	0001151e          	.word	0x0001151e
    594c:	004c8c93          	addi	x25,x25,4

# Testcase cmp_rs1_rs2 (Test rs1 = rs2 = x19)
  RVTEST_TESTDATA_LOAD_INT(x23, x19) # load rs1: x19 = 0x56eabc54
    5950:	000ba983          	lw	x19,0(x23)
    5954:	004b8b93          	addi	x23,x23,4
  RVTEST_TESTDATA_LOAD_INT(x23, x19) # load rs2: x19 = 0xf9be023e
    5958:	000ba983          	lw	x19,0(x23)
    595c:	004b8b93          	addi	x23,x23,4
  RVTEST_TESTDATA_LOAD_INT(x23, x12) # load branch taken value: x12 = 0xc78c2bba
    5960:	000ba603          	lw	x12,0(x23)
    5964:	004b8b93          	addi	x23,x23,4

00005968 <I_bge_cg_cmp_rs1_rs2_b19>:
I_bge_cg_cmp_rs1_rs2_b19:
  bge x19, x19, 1f # perform operation
    5968:	0139d463          	bge	x19,x19,5970 <I_bge_cg_cmp_rs1_rs2_b19+0x8>
  LI(x12, -1) # branch not taken, set temp_reg to 0
    596c:	fff00613          	addi	x12,x0,-1
1:
  # Check if x12 contains the expected result. x25 is the signature ptr, x5 is the link ptr, x4 is a temp reg.
  RVTEST_SIGUPD(x25, x5, x4, x12, I_bge_cg_cmp_rs1_rs2_b19, I_bge_cg_cmp_rs1_rs2_b19_str)
    5970:	000ca203          	lw	x4,0(x25)
    5974:	00c20863          	beq	x4,x12,5984 <I_bge_cg_cmp_rs1_rs2_b19+0x1c>
    5978:	704042ef          	jal	x5,a07c <failedtest_x5_x4>
    597c:	00005968          	.word	0x00005968
    5980:	00011553          	.word	0x00011553
    5984:	004c8c93          	addi	x25,x25,4

# Testcase cmp_rs1_rs2 (Test rs1 = rs2 = x20)
  RVTEST_TESTDATA_LOAD_INT(x23, x20) # load rs1: x20 = 0xf71b7565
    5988:	000baa03          	lw	x20,0(x23)
    598c:	004b8b93          	addi	x23,x23,4
  RVTEST_TESTDATA_LOAD_INT(x23, x20) # load rs2: x20 = 0x3c5f6a45
    5990:	000baa03          	lw	x20,0(x23)
    5994:	004b8b93          	addi	x23,x23,4
  RVTEST_TESTDATA_LOAD_INT(x23, x19) # load branch taken value: x19 = 0x7d887a56
    5998:	000ba983          	lw	x19,0(x23)
    599c:	004b8b93          	addi	x23,x23,4

000059a0 <I_bge_cg_cmp_rs1_rs2_b20>:
I_bge_cg_cmp_rs1_rs2_b20:
  bge x20, x20, 1f # perform operation
    59a0:	014a5463          	bge	x20,x20,59a8 <I_bge_cg_cmp_rs1_rs2_b20+0x8>
  LI(x19, -1) # branch not taken, set temp_reg to 0
    59a4:	fff00993          	addi	x19,x0,-1
1:
  # Check if x19 contains the expected result. x25 is the signature ptr, x5 is the link ptr, x4 is a temp reg.
  RVTEST_SIGUPD(x25, x5, x4, x19, I_bge_cg_cmp_rs1_rs2_b20, I_bge_cg_cmp_rs1_rs2_b20_str)
    59a8:	000ca203          	lw	x4,0(x25)
    59ac:	01320863          	beq	x4,x19,59bc <I_bge_cg_cmp_rs1_rs2_b20+0x1c>
    59b0:	6cc042ef          	jal	x5,a07c <failedtest_x5_x4>
    59b4:	000059a0          	.word	0x000059a0
    59b8:	00011588          	.word	0x00011588
    59bc:	004c8c93          	addi	x25,x25,4

# Testcase cmp_rs1_rs2 (Test rs1 = rs2 = x21)
  RVTEST_TESTDATA_LOAD_INT(x23, x21) # load rs1: x21 = 0xe5c2a258
    59c0:	000baa83          	lw	x21,0(x23)
    59c4:	004b8b93          	addi	x23,x23,4
  RVTEST_TESTDATA_LOAD_INT(x23, x21) # load rs2: x21 = 0x9173677f
    59c8:	000baa83          	lw	x21,0(x23)
    59cc:	004b8b93          	addi	x23,x23,4
  RVTEST_TESTDATA_LOAD_INT(x23, x12) # load branch taken value: x12 = 0x90e29e03
    59d0:	000ba603          	lw	x12,0(x23)
    59d4:	004b8b93          	addi	x23,x23,4

000059d8 <I_bge_cg_cmp_rs1_rs2_b21>:
I_bge_cg_cmp_rs1_rs2_b21:
  bge x21, x21, 1f # perform operation
    59d8:	015ad463          	bge	x21,x21,59e0 <I_bge_cg_cmp_rs1_rs2_b21+0x8>
  LI(x12, -1) # branch not taken, set temp_reg to 0
    59dc:	fff00613          	addi	x12,x0,-1
1:
  # Check if x12 contains the expected result. x25 is the signature ptr, x5 is the link ptr, x4 is a temp reg.
  RVTEST_SIGUPD(x25, x5, x4, x12, I_bge_cg_cmp_rs1_rs2_b21, I_bge_cg_cmp_rs1_rs2_b21_str)
    59e0:	000ca203          	lw	x4,0(x25)
    59e4:	00c20863          	beq	x4,x12,59f4 <I_bge_cg_cmp_rs1_rs2_b21+0x1c>
    59e8:	694042ef          	jal	x5,a07c <failedtest_x5_x4>
    59ec:	000059d8          	.word	0x000059d8
    59f0:	000115bd          	.word	0x000115bd
    59f4:	004c8c93          	addi	x25,x25,4

# Testcase cmp_rs1_rs2 (Test rs1 = rs2 = x22)
  RVTEST_TESTDATA_LOAD_INT(x23, x22) # load rs1: x22 = 0x5542b41c
    59f8:	000bab03          	lw	x22,0(x23)
    59fc:	004b8b93          	addi	x23,x23,4
  RVTEST_TESTDATA_LOAD_INT(x23, x22) # load rs2: x22 = 0x975e9660
    5a00:	000bab03          	lw	x22,0(x23)
    5a04:	004b8b93          	addi	x23,x23,4
  RVTEST_TESTDATA_LOAD_INT(x23, x17) # load branch taken value: x17 = 0xe7b438cd
    5a08:	000ba883          	lw	x17,0(x23)
    5a0c:	004b8b93          	addi	x23,x23,4

00005a10 <I_bge_cg_cmp_rs1_rs2_b22>:
I_bge_cg_cmp_rs1_rs2_b22:
  bge x22, x22, 1f # perform operation
    5a10:	016b5463          	bge	x22,x22,5a18 <I_bge_cg_cmp_rs1_rs2_b22+0x8>
  LI(x17, -1) # branch not taken, set temp_reg to 0
    5a14:	fff00893          	addi	x17,x0,-1
1:
  # Check if x17 contains the expected result. x25 is the signature ptr, x5 is the link ptr, x4 is a temp reg.
  RVTEST_SIGUPD(x25, x5, x4, x17, I_bge_cg_cmp_rs1_rs2_b22, I_bge_cg_cmp_rs1_rs2_b22_str)
    5a18:	000ca203          	lw	x4,0(x25)
    5a1c:	01120863          	beq	x4,x17,5a2c <I_bge_cg_cmp_rs1_rs2_b22+0x1c>
    5a20:	65c042ef          	jal	x5,a07c <failedtest_x5_x4>
    5a24:	00005a10          	.word	0x00005a10
    5a28:	000115f2          	.word	0x000115f2
    5a2c:	004c8c93          	addi	x25,x25,4

  mv x24, x23 # switch data pointer register to avoid conflict with test
    5a30:	000b8c13          	addi	x24,x23,0
# Testcase cmp_rs1_rs2 (Test rs1 = rs2 = x23)
  RVTEST_TESTDATA_LOAD_INT(x24, x23) # load rs1: x23 = 0xdad88368
    5a34:	000c2b83          	lw	x23,0(x24)
    5a38:	004c0c13          	addi	x24,x24,4
  RVTEST_TESTDATA_LOAD_INT(x24, x23) # load rs2: x23 = 0xed691f91
    5a3c:	000c2b83          	lw	x23,0(x24)
    5a40:	004c0c13          	addi	x24,x24,4
  RVTEST_TESTDATA_LOAD_INT(x24, x28) # load branch taken value: x28 = 0xf058aa3e
    5a44:	000c2e03          	lw	x28,0(x24)
    5a48:	004c0c13          	addi	x24,x24,4

00005a4c <I_bge_cg_cmp_rs1_rs2_b23>:
I_bge_cg_cmp_rs1_rs2_b23:
  bge x23, x23, 1f # perform operation
    5a4c:	017bd463          	bge	x23,x23,5a54 <I_bge_cg_cmp_rs1_rs2_b23+0x8>
  LI(x28, -1) # branch not taken, set temp_reg to 0
    5a50:	fff00e13          	addi	x28,x0,-1
1:
  # Check if x28 contains the expected result. x25 is the signature ptr, x5 is the link ptr, x4 is a temp reg.
  RVTEST_SIGUPD(x25, x5, x4, x28, I_bge_cg_cmp_rs1_rs2_b23, I_bge_cg_cmp_rs1_rs2_b23_str)
    5a54:	000ca203          	lw	x4,0(x25)
    5a58:	01c20863          	beq	x4,x28,5a68 <I_bge_cg_cmp_rs1_rs2_b23+0x1c>
    5a5c:	620042ef          	jal	x5,a07c <failedtest_x5_x4>
    5a60:	00005a4c          	.word	0x00005a4c
    5a64:	00011627          	.word	0x00011627
    5a68:	004c8c93          	addi	x25,x25,4

  mv x1, x24 # switch data pointer register to avoid conflict with test
    5a6c:	000c0093          	addi	x1,x24,0
# Testcase cmp_rs1_rs2 (Test rs1 = rs2 = x24)
  RVTEST_TESTDATA_LOAD_INT(x1, x24) # load rs1: x24 = 0x77a14269
    5a70:	0000ac03          	lw	x24,0(x1)
    5a74:	00408093          	addi	x1,x1,4
  RVTEST_TESTDATA_LOAD_INT(x1, x24) # load rs2: x24 = 0xa61c2e99
    5a78:	0000ac03          	lw	x24,0(x1)
    5a7c:	00408093          	addi	x1,x1,4
  RVTEST_TESTDATA_LOAD_INT(x1, x23) # load branch taken value: x23 = 0x17ee79a2
    5a80:	0000ab83          	lw	x23,0(x1)
    5a84:	00408093          	addi	x1,x1,4

00005a88 <I_bge_cg_cmp_rs1_rs2_b24>:
I_bge_cg_cmp_rs1_rs2_b24:
  bge x24, x24, 1f # perform operation
    5a88:	018c5463          	bge	x24,x24,5a90 <I_bge_cg_cmp_rs1_rs2_b24+0x8>
  LI(x23, -1) # branch not taken, set temp_reg to 0
    5a8c:	fff00b93          	addi	x23,x0,-1
1:
  # Check if x23 contains the expected result. x25 is the signature ptr, x5 is the link ptr, x4 is a temp reg.
  RVTEST_SIGUPD(x25, x5, x4, x23, I_bge_cg_cmp_rs1_rs2_b24, I_bge_cg_cmp_rs1_rs2_b24_str)
    5a90:	000ca203          	lw	x4,0(x25)
    5a94:	01720863          	beq	x4,x23,5aa4 <I_bge_cg_cmp_rs1_rs2_b24+0x1c>
    5a98:	5e4042ef          	jal	x5,a07c <failedtest_x5_x4>
    5a9c:	00005a88          	.word	0x00005a88
    5aa0:	0001165c          	.word	0x0001165c
    5aa4:	004c8c93          	addi	x25,x25,4

  mv x21, x25 # switch signature pointer register to avoid conflict with test
    5aa8:	000c8a93          	addi	x21,x25,0
# Testcase cmp_rs1_rs2 (Test rs1 = rs2 = x25)
  RVTEST_TESTDATA_LOAD_INT(x1, x25) # load rs1: x25 = 0x52d152fd
    5aac:	0000ac83          	lw	x25,0(x1)
    5ab0:	00408093          	addi	x1,x1,4
  RVTEST_TESTDATA_LOAD_INT(x1, x25) # load rs2: x25 = 0x599cc866
    5ab4:	0000ac83          	lw	x25,0(x1)
    5ab8:	00408093          	addi	x1,x1,4
  RVTEST_TESTDATA_LOAD_INT(x1, x13) # load branch taken value: x13 = 0x93f2becb
    5abc:	0000a683          	lw	x13,0(x1)
    5ac0:	00408093          	addi	x1,x1,4

00005ac4 <I_bge_cg_cmp_rs1_rs2_b25>:
I_bge_cg_cmp_rs1_rs2_b25:
  bge x25, x25, 1f # perform operation
    5ac4:	019cd463          	bge	x25,x25,5acc <I_bge_cg_cmp_rs1_rs2_b25+0x8>
  LI(x13, -1) # branch not taken, set temp_reg to 0
    5ac8:	fff00693          	addi	x13,x0,-1
1:
  # Check if x13 contains the expected result. x21 is the signature ptr, x5 is the link ptr, x4 is a temp reg.
  RVTEST_SIGUPD(x21, x5, x4, x13, I_bge_cg_cmp_rs1_rs2_b25, I_bge_cg_cmp_rs1_rs2_b25_str)
    5acc:	000aa203          	lw	x4,0(x21)
    5ad0:	00d20863          	beq	x4,x13,5ae0 <I_bge_cg_cmp_rs1_rs2_b25+0x1c>
    5ad4:	5a8042ef          	jal	x5,a07c <failedtest_x5_x4>
    5ad8:	00005ac4          	.word	0x00005ac4
    5adc:	00011691          	.word	0x00011691
    5ae0:	004a8a93          	addi	x21,x21,4

# Testcase cmp_rs1_rs2 (Test rs1 = rs2 = x26)
  RVTEST_TESTDATA_LOAD_INT(x1, x26) # load rs1: x26 = 0x5f9d6139
    5ae4:	0000ad03          	lw	x26,0(x1)
    5ae8:	00408093          	addi	x1,x1,4
  RVTEST_TESTDATA_LOAD_INT(x1, x26) # load rs2: x26 = 0x3c47ef7a
    5aec:	0000ad03          	lw	x26,0(x1)
    5af0:	00408093          	addi	x1,x1,4
  RVTEST_TESTDATA_LOAD_INT(x1, x8) # load branch taken value: x8 = 0x39c52208
    5af4:	0000a403          	lw	x8,0(x1)
    5af8:	00408093          	addi	x1,x1,4

00005afc <I_bge_cg_cmp_rs1_rs2_b26>:
I_bge_cg_cmp_rs1_rs2_b26:
  bge x26, x26, 1f # perform operation
    5afc:	01ad5463          	bge	x26,x26,5b04 <I_bge_cg_cmp_rs1_rs2_b26+0x8>
  LI(x8, -1) # branch not taken, set temp_reg to 0
    5b00:	fff00413          	addi	x8,x0,-1
1:
  # Check if x8 contains the expected result. x21 is the signature ptr, x5 is the link ptr, x4 is a temp reg.
  RVTEST_SIGUPD(x21, x5, x4, x8, I_bge_cg_cmp_rs1_rs2_b26, I_bge_cg_cmp_rs1_rs2_b26_str)
    5b04:	000aa203          	lw	x4,0(x21)
    5b08:	00820863          	beq	x4,x8,5b18 <I_bge_cg_cmp_rs1_rs2_b26+0x1c>
    5b0c:	570042ef          	jal	x5,a07c <failedtest_x5_x4>
    5b10:	00005afc          	.word	0x00005afc
    5b14:	000116c6          	.word	0x000116c6
    5b18:	004a8a93          	addi	x21,x21,4

# Testcase cmp_rs1_rs2 (Test rs1 = rs2 = x27)
  RVTEST_TESTDATA_LOAD_INT(x1, x27) # load rs1: x27 = 0x1280ef76
    5b1c:	0000ad83          	lw	x27,0(x1)
    5b20:	00408093          	addi	x1,x1,4
  RVTEST_TESTDATA_LOAD_INT(x1, x27) # load rs2: x27 = 0x5c3a38d7
    5b24:	0000ad83          	lw	x27,0(x1)
    5b28:	00408093          	addi	x1,x1,4
  RVTEST_TESTDATA_LOAD_INT(x1, x12) # load branch taken value: x12 = 0xf4632e66
    5b2c:	0000a603          	lw	x12,0(x1)
    5b30:	00408093          	addi	x1,x1,4

00005b34 <I_bge_cg_cmp_rs1_rs2_b27>:
I_bge_cg_cmp_rs1_rs2_b27:
  bge x27, x27, 1f # perform operation
    5b34:	01bdd463          	bge	x27,x27,5b3c <I_bge_cg_cmp_rs1_rs2_b27+0x8>
  LI(x12, -1) # branch not taken, set temp_reg to 0
    5b38:	fff00613          	addi	x12,x0,-1
1:
  # Check if x12 contains the expected result. x21 is the signature ptr, x5 is the link ptr, x4 is a temp reg.
  RVTEST_SIGUPD(x21, x5, x4, x12, I_bge_cg_cmp_rs1_rs2_b27, I_bge_cg_cmp_rs1_rs2_b27_str)
    5b3c:	000aa203          	lw	x4,0(x21)
    5b40:	00c20863          	beq	x4,x12,5b50 <I_bge_cg_cmp_rs1_rs2_b27+0x1c>
    5b44:	538042ef          	jal	x5,a07c <failedtest_x5_x4>
    5b48:	00005b34          	.word	0x00005b34
    5b4c:	000116fb          	.word	0x000116fb
    5b50:	004a8a93          	addi	x21,x21,4

# Testcase cmp_rs1_rs2 (Test rs1 = rs2 = x28)
  RVTEST_TESTDATA_LOAD_INT(x1, x28) # load rs1: x28 = 0x90268d5c
    5b54:	0000ae03          	lw	x28,0(x1)
    5b58:	00408093          	addi	x1,x1,4
  RVTEST_TESTDATA_LOAD_INT(x1, x28) # load rs2: x28 = 0x0c3cfaa7
    5b5c:	0000ae03          	lw	x28,0(x1)
    5b60:	00408093          	addi	x1,x1,4
  RVTEST_TESTDATA_LOAD_INT(x1, x19) # load branch taken value: x19 = 0xcc5f5a49
    5b64:	0000a983          	lw	x19,0(x1)
    5b68:	00408093          	addi	x1,x1,4

00005b6c <I_bge_cg_cmp_rs1_rs2_b28>:
I_bge_cg_cmp_rs1_rs2_b28:
  bge x28, x28, 1f # perform operation
    5b6c:	01ce5463          	bge	x28,x28,5b74 <I_bge_cg_cmp_rs1_rs2_b28+0x8>
  LI(x19, -1) # branch not taken, set temp_reg to 0
    5b70:	fff00993          	addi	x19,x0,-1
1:
  # Check if x19 contains the expected result. x21 is the signature ptr, x5 is the link ptr, x4 is a temp reg.
  RVTEST_SIGUPD(x21, x5, x4, x19, I_bge_cg_cmp_rs1_rs2_b28, I_bge_cg_cmp_rs1_rs2_b28_str)
    5b74:	000aa203          	lw	x4,0(x21)
    5b78:	01320863          	beq	x4,x19,5b88 <I_bge_cg_cmp_rs1_rs2_b28+0x1c>
    5b7c:	500042ef          	jal	x5,a07c <failedtest_x5_x4>
    5b80:	00005b6c          	.word	0x00005b6c
    5b84:	00011730          	.word	0x00011730
    5b88:	004a8a93          	addi	x21,x21,4

# Testcase cmp_rs1_rs2 (Test rs1 = rs2 = x29)
  RVTEST_TESTDATA_LOAD_INT(x1, x29) # load rs1: x29 = 0x8b56997e
    5b8c:	0000ae83          	lw	x29,0(x1)
    5b90:	00408093          	addi	x1,x1,4
  RVTEST_TESTDATA_LOAD_INT(x1, x29) # load rs2: x29 = 0x3681f84a
    5b94:	0000ae83          	lw	x29,0(x1)
    5b98:	00408093          	addi	x1,x1,4
  RVTEST_TESTDATA_LOAD_INT(x1, x28) # load branch taken value: x28 = 0xef7c0c22
    5b9c:	0000ae03          	lw	x28,0(x1)
    5ba0:	00408093          	addi	x1,x1,4

00005ba4 <I_bge_cg_cmp_rs1_rs2_b29>:
I_bge_cg_cmp_rs1_rs2_b29:
  bge x29, x29, 1f # perform operation
    5ba4:	01ded463          	bge	x29,x29,5bac <I_bge_cg_cmp_rs1_rs2_b29+0x8>
  LI(x28, -1) # branch not taken, set temp_reg to 0
    5ba8:	fff00e13          	addi	x28,x0,-1
1:
  # Check if x28 contains the expected result. x21 is the signature ptr, x5 is the link ptr, x4 is a temp reg.
  RVTEST_SIGUPD(x21, x5, x4, x28, I_bge_cg_cmp_rs1_rs2_b29, I_bge_cg_cmp_rs1_rs2_b29_str)
    5bac:	000aa203          	lw	x4,0(x21)
    5bb0:	01c20863          	beq	x4,x28,5bc0 <I_bge_cg_cmp_rs1_rs2_b29+0x1c>
    5bb4:	4c8042ef          	jal	x5,a07c <failedtest_x5_x4>
    5bb8:	00005ba4          	.word	0x00005ba4
    5bbc:	00011765          	.word	0x00011765
    5bc0:	004a8a93          	addi	x21,x21,4

# Testcase cmp_rs1_rs2 (Test rs1 = rs2 = x30)
  RVTEST_TESTDATA_LOAD_INT(x1, x30) # load rs1: x30 = 0xd7b247f9
    5bc4:	0000af03          	lw	x30,0(x1)
    5bc8:	00408093          	addi	x1,x1,4
  RVTEST_TESTDATA_LOAD_INT(x1, x30) # load rs2: x30 = 0xc621899c
    5bcc:	0000af03          	lw	x30,0(x1)
    5bd0:	00408093          	addi	x1,x1,4
  RVTEST_TESTDATA_LOAD_INT(x1, x3) # load branch taken value: x3 = 0x788105e1
    5bd4:	0000a183          	lw	x3,0(x1)
    5bd8:	00408093          	addi	x1,x1,4

00005bdc <I_bge_cg_cmp_rs1_rs2_b30>:
I_bge_cg_cmp_rs1_rs2_b30:
  bge x30, x30, 1f # perform operation
    5bdc:	01ef5463          	bge	x30,x30,5be4 <I_bge_cg_cmp_rs1_rs2_b30+0x8>
  LI(x3, -1) # branch not taken, set temp_reg to 0
    5be0:	fff00193          	addi	x3,x0,-1
1:
  # Check if x3 contains the expected result. x21 is the signature ptr, x5 is the link ptr, x4 is a temp reg.
  RVTEST_SIGUPD(x21, x5, x4, x3, I_bge_cg_cmp_rs1_rs2_b30, I_bge_cg_cmp_rs1_rs2_b30_str)
    5be4:	000aa203          	lw	x4,0(x21)
    5be8:	00320863          	beq	x4,x3,5bf8 <I_bge_cg_cmp_rs1_rs2_b30+0x1c>
    5bec:	490042ef          	jal	x5,a07c <failedtest_x5_x4>
    5bf0:	00005bdc          	.word	0x00005bdc
    5bf4:	0001179a          	.word	0x0001179a
    5bf8:	004a8a93          	addi	x21,x21,4

# Testcase cmp_rs1_rs2 (Test rs1 = rs2 = x31)
  RVTEST_TESTDATA_LOAD_INT(x1, x31) # load rs1: x31 = 0xb65c9ed9
    5bfc:	0000af83          	lw	x31,0(x1)
    5c00:	00408093          	addi	x1,x1,4
  RVTEST_TESTDATA_LOAD_INT(x1, x31) # load rs2: x31 = 0x431670fe
    5c04:	0000af83          	lw	x31,0(x1)
    5c08:	00408093          	addi	x1,x1,4
  RVTEST_TESTDATA_LOAD_INT(x1, x15) # load branch taken value: x15 = 0x086dbac5
    5c0c:	0000a783          	lw	x15,0(x1)
    5c10:	00408093          	addi	x1,x1,4

00005c14 <I_bge_cg_cmp_rs1_rs2_b31>:
I_bge_cg_cmp_rs1_rs2_b31:
  bge x31, x31, 1f # perform operation
    5c14:	01ffd463          	bge	x31,x31,5c1c <I_bge_cg_cmp_rs1_rs2_b31+0x8>
  LI(x15, -1) # branch not taken, set temp_reg to 0
    5c18:	fff00793          	addi	x15,x0,-1
1:
  # Check if x15 contains the expected result. x21 is the signature ptr, x5 is the link ptr, x4 is a temp reg.
  RVTEST_SIGUPD(x21, x5, x4, x15, I_bge_cg_cmp_rs1_rs2_b31, I_bge_cg_cmp_rs1_rs2_b31_str)
    5c1c:	000aa203          	lw	x4,0(x21)
    5c20:	00f20863          	beq	x4,x15,5c30 <I_bge_cg_cmp_rs1_rs2_b31+0x1c>
    5c24:	458042ef          	jal	x5,a07c <failedtest_x5_x4>
    5c28:	00005c14          	.word	0x00005c14
    5c2c:	000117cf          	.word	0x000117cf
    5c30:	004a8a93          	addi	x21,x21,4
/////////////////////////////////
// cp_offset
/////////////////////////////////

# Testcase cp_offset negative bin (positive bin is covered by other coverpoints)
  LI(x19, 1)
    5c34:	00100993          	addi	x19,x0,1
  LI(x31, 1) # setup for taken branch
    5c38:	00100f93          	addi	x31,x0,1
  RVTEST_TESTDATA_LOAD_INT(x1, x22) # load branch check value: x22 = 0xe617a4b5
    5c3c:	0000ab03          	lw	x22,0(x1)
    5c40:	00408093          	addi	x1,x1,4
  j 2f # jump past backward branch target
    5c44:	00c0006f          	jal	x0,5c50 <I_bge_cg_cp_offset_neg>
1: addi x22, x22, 4 # backward branch target, increment check value
    5c48:	004b0b13          	addi	x22,x22,4
  j 3f # jump past backward branch
    5c4c:	00c0006f          	jal	x0,5c58 <I_bge_cg_cp_offset_neg+0x8>

00005c50 <I_bge_cg_cp_offset_neg>:
I_bge_cg_cp_offset_neg:
2: bge x19, x31, 1b # backward branch
    5c50:	fff9dce3          	bge	x19,x31,5c48 <I_bge_cg_cmp_rs1_rs2_b31+0x34>
  addi x22, x22, -2 # branch not taken, decrement check value
    5c54:	ffeb0b13          	addi	x22,x22,-2
3:  # done with sequence
  # Check if x22 contains the expected result. x21 is the signature ptr, x5 is the link ptr, x4 is a temp reg.
  RVTEST_SIGUPD(x21, x5, x4, x22, I_bge_cg_cp_offset_neg, I_bge_cg_cp_offset_neg_str)
    5c58:	000aa203          	lw	x4,0(x21)
    5c5c:	01620863          	beq	x4,x22,5c6c <I_bge_cg_cp_offset_neg+0x1c>
    5c60:	41c042ef          	jal	x5,a07c <failedtest_x5_x4>
    5c64:	00005c50          	.word	0x00005c50
    5c68:	00011804          	.word	0x00011804
    5c6c:	004a8a93          	addi	x21,x21,4

/////////////////////////////////
// cp_imm_edges_branch
/////////////////////////////////

  RVTEST_TESTDATA_LOAD_INT(x1, x19) # load branch check value: x19 = 0x00001000
    5c70:	0000a983          	lw	x19,0(x1)
    5c74:	00408093          	addi	x1,x1,4
  LI(x29, 1)
    5c78:	00100e93          	addi	x29,x0,1
  LI(x18, 1) # setup for taken branch
    5c7c:	00100913          	addi	x18,x0,1

00005c80 <I_bge_cg_cp_imm_edges_branch_all>:

I_bge_cg_cp_imm_edges_branch_all:

# branch forward by 4
  bge x29, x18, 1f
    5c80:	012ed263          	bge	x29,x18,5c84 <I_bge_cg_cp_imm_edges_branch_all+0x4>
  # offset too small to modify counter for checking
1:
  nop
    5c84:	00000013          	addi	x0,x0,0

# branch forward by 8
  bge x29, x18, 2f
    5c88:	012ed463          	bge	x29,x18,5c90 <I_bge_cg_cp_imm_edges_branch_all+0x10>
  addi x19, x19, -2 # shouldn't happen
    5c8c:	ffe98993          	addi	x19,x19,-2
2:
  addi x19, x19, 4 # should happen
    5c90:	00498993          	addi	x19,x19,4

# branch forward by 16
  bge x29, x18, 3f
    5c94:	012ed863          	bge	x29,x18,5ca4 <I_bge_cg_cp_imm_edges_branch_all+0x24>
  addi x19, x19, -8 # shouldn't happen
    5c98:	ff898993          	addi	x19,x19,-8
  j 19f # shouldn't happen
    5c9c:	3700406f          	jal	x0,a00c <I_bge_cg_cp_imm_edges_branch_all+0x438c>
  nop # use up 4 bytes
    5ca0:	00000013          	addi	x0,x0,0
3:
  addi x19, x19, 16 # should happen
    5ca4:	01098993          	addi	x19,x19,16
    5ca8:	00000013          	addi	x0,x0,0
    5cac:	00000013          	addi	x0,x0,0
    5cb0:	00000013          	addi	x0,x0,0
    5cb4:	00000013          	addi	x0,x0,0
    5cb8:	00000013          	addi	x0,x0,0
    5cbc:	00000013          	addi	x0,x0,0
    5cc0:	00000013          	addi	x0,x0,0
    5cc4:	00000013          	addi	x0,x0,0
    5cc8:	00000013          	addi	x0,x0,0
    5ccc:	00000013          	addi	x0,x0,0
    5cd0:	00000013          	addi	x0,x0,0
    5cd4:	00000013          	addi	x0,x0,0
    5cd8:	00000013          	addi	x0,x0,0
    5cdc:	00000013          	addi	x0,x0,0
    5ce0:	00000013          	addi	x0,x0,0
    5ce4:	00000013          	addi	x0,x0,0
    5ce8:	00000013          	addi	x0,x0,0
    5cec:	00000013          	addi	x0,x0,0
    5cf0:	00000013          	addi	x0,x0,0
    5cf4:	00000013          	addi	x0,x0,0
    5cf8:	00000013          	addi	x0,x0,0
    5cfc:	00000013          	addi	x0,x0,0
    5d00:	00000013          	addi	x0,x0,0
    5d04:	00000013          	addi	x0,x0,0
    5d08:	00000013          	addi	x0,x0,0
    5d0c:	00000013          	addi	x0,x0,0
    5d10:	00000013          	addi	x0,x0,0
    5d14:	00000013          	addi	x0,x0,0
    5d18:	00000013          	addi	x0,x0,0
    5d1c:	00000013          	addi	x0,x0,0
    5d20:	00000013          	addi	x0,x0,0
    5d24:	00000013          	addi	x0,x0,0
    5d28:	00000013          	addi	x0,x0,0
    5d2c:	00000013          	addi	x0,x0,0
    5d30:	00000013          	addi	x0,x0,0
    5d34:	00000013          	addi	x0,x0,0
    5d38:	00000013          	addi	x0,x0,0
    5d3c:	00000013          	addi	x0,x0,0
    5d40:	00000013          	addi	x0,x0,0
    5d44:	00000013          	addi	x0,x0,0
    5d48:	00000013          	addi	x0,x0,0
    5d4c:	00000013          	addi	x0,x0,0
    5d50:	00000013          	addi	x0,x0,0
    5d54:	00000013          	addi	x0,x0,0
    5d58:	00000013          	addi	x0,x0,0
    5d5c:	00000013          	addi	x0,x0,0
    5d60:	00000013          	addi	x0,x0,0
    5d64:	00000013          	addi	x0,x0,0
    5d68:	00000013          	addi	x0,x0,0
    5d6c:	00000013          	addi	x0,x0,0
    5d70:	00000013          	addi	x0,x0,0
    5d74:	00000013          	addi	x0,x0,0
    5d78:	00000013          	addi	x0,x0,0
    5d7c:	00000013          	addi	x0,x0,0
    5d80:	00000013          	addi	x0,x0,0
    5d84:	00000013          	addi	x0,x0,0
    5d88:	00000013          	addi	x0,x0,0
    5d8c:	00000013          	addi	x0,x0,0
    5d90:	00000013          	addi	x0,x0,0
    5d94:	00000013          	addi	x0,x0,0
    5d98:	00000013          	addi	x0,x0,0
    5d9c:	00000013          	addi	x0,x0,0
    5da0:	00000013          	addi	x0,x0,0
    5da4:	00000013          	addi	x0,x0,0
    5da8:	00000013          	addi	x0,x0,0
    5dac:	00000013          	addi	x0,x0,0
    5db0:	00000013          	addi	x0,x0,0
    5db4:	00000013          	addi	x0,x0,0
    5db8:	00000013          	addi	x0,x0,0
    5dbc:	00000013          	addi	x0,x0,0
    5dc0:	00000013          	addi	x0,x0,0
    5dc4:	00000013          	addi	x0,x0,0
    5dc8:	00000013          	addi	x0,x0,0
    5dcc:	00000013          	addi	x0,x0,0
    5dd0:	00000013          	addi	x0,x0,0
    5dd4:	00000013          	addi	x0,x0,0
    5dd8:	00000013          	addi	x0,x0,0
    5ddc:	00000013          	addi	x0,x0,0
    5de0:	00000013          	addi	x0,x0,0
    5de4:	00000013          	addi	x0,x0,0
    5de8:	00000013          	addi	x0,x0,0
    5dec:	00000013          	addi	x0,x0,0
    5df0:	00000013          	addi	x0,x0,0
    5df4:	00000013          	addi	x0,x0,0
    5df8:	00000013          	addi	x0,x0,0
    5dfc:	00000013          	addi	x0,x0,0
    5e00:	00000013          	addi	x0,x0,0
    5e04:	00000013          	addi	x0,x0,0
    5e08:	00000013          	addi	x0,x0,0
    5e0c:	00000013          	addi	x0,x0,0
    5e10:	00000013          	addi	x0,x0,0
    5e14:	00000013          	addi	x0,x0,0
    5e18:	00000013          	addi	x0,x0,0
    5e1c:	00000013          	addi	x0,x0,0
    5e20:	00000013          	addi	x0,x0,0
    5e24:	00000013          	addi	x0,x0,0
    5e28:	00000013          	addi	x0,x0,0
    5e2c:	00000013          	addi	x0,x0,0
    5e30:	00000013          	addi	x0,x0,0
    5e34:	00000013          	addi	x0,x0,0
    5e38:	00000013          	addi	x0,x0,0
    5e3c:	00000013          	addi	x0,x0,0
    5e40:	00000013          	addi	x0,x0,0
    5e44:	00000013          	addi	x0,x0,0
    5e48:	00000013          	addi	x0,x0,0
    5e4c:	00000013          	addi	x0,x0,0
    5e50:	00000013          	addi	x0,x0,0
    5e54:	00000013          	addi	x0,x0,0
    5e58:	00000013          	addi	x0,x0,0
    5e5c:	00000013          	addi	x0,x0,0
    5e60:	00000013          	addi	x0,x0,0
    5e64:	00000013          	addi	x0,x0,0
    5e68:	00000013          	addi	x0,x0,0
    5e6c:	00000013          	addi	x0,x0,0
    5e70:	00000013          	addi	x0,x0,0
    5e74:	00000013          	addi	x0,x0,0
    5e78:	00000013          	addi	x0,x0,0
    5e7c:	00000013          	addi	x0,x0,0
    5e80:	00000013          	addi	x0,x0,0
    5e84:	00000013          	addi	x0,x0,0
    5e88:	00000013          	addi	x0,x0,0
    5e8c:	00000013          	addi	x0,x0,0
    5e90:	00000013          	addi	x0,x0,0
    5e94:	00000013          	addi	x0,x0,0
    5e98:	00000013          	addi	x0,x0,0
    5e9c:	00000013          	addi	x0,x0,0
    5ea0:	00000013          	addi	x0,x0,0
    5ea4:	00000013          	addi	x0,x0,0
    5ea8:	00000013          	addi	x0,x0,0
    5eac:	00000013          	addi	x0,x0,0
    5eb0:	00000013          	addi	x0,x0,0
    5eb4:	00000013          	addi	x0,x0,0
    5eb8:	00000013          	addi	x0,x0,0
    5ebc:	00000013          	addi	x0,x0,0
    5ec0:	00000013          	addi	x0,x0,0
    5ec4:	00000013          	addi	x0,x0,0
    5ec8:	00000013          	addi	x0,x0,0
    5ecc:	00000013          	addi	x0,x0,0
    5ed0:	00000013          	addi	x0,x0,0
    5ed4:	00000013          	addi	x0,x0,0
    5ed8:	00000013          	addi	x0,x0,0
    5edc:	00000013          	addi	x0,x0,0
    5ee0:	00000013          	addi	x0,x0,0
    5ee4:	00000013          	addi	x0,x0,0
    5ee8:	00000013          	addi	x0,x0,0
    5eec:	00000013          	addi	x0,x0,0
    5ef0:	00000013          	addi	x0,x0,0
    5ef4:	00000013          	addi	x0,x0,0
    5ef8:	00000013          	addi	x0,x0,0
    5efc:	00000013          	addi	x0,x0,0
    5f00:	00000013          	addi	x0,x0,0
    5f04:	00000013          	addi	x0,x0,0
    5f08:	00000013          	addi	x0,x0,0
    5f0c:	00000013          	addi	x0,x0,0
    5f10:	00000013          	addi	x0,x0,0
    5f14:	00000013          	addi	x0,x0,0
    5f18:	00000013          	addi	x0,x0,0
    5f1c:	00000013          	addi	x0,x0,0
    5f20:	00000013          	addi	x0,x0,0
    5f24:	00000013          	addi	x0,x0,0
    5f28:	00000013          	addi	x0,x0,0
    5f2c:	00000013          	addi	x0,x0,0
    5f30:	00000013          	addi	x0,x0,0
    5f34:	00000013          	addi	x0,x0,0
    5f38:	00000013          	addi	x0,x0,0
    5f3c:	00000013          	addi	x0,x0,0
    5f40:	00000013          	addi	x0,x0,0
    5f44:	00000013          	addi	x0,x0,0
    5f48:	00000013          	addi	x0,x0,0
    5f4c:	00000013          	addi	x0,x0,0
    5f50:	00000013          	addi	x0,x0,0
    5f54:	00000013          	addi	x0,x0,0
    5f58:	00000013          	addi	x0,x0,0
    5f5c:	00000013          	addi	x0,x0,0
    5f60:	00000013          	addi	x0,x0,0
    5f64:	00000013          	addi	x0,x0,0
    5f68:	00000013          	addi	x0,x0,0
    5f6c:	00000013          	addi	x0,x0,0
    5f70:	00000013          	addi	x0,x0,0
    5f74:	00000013          	addi	x0,x0,0
    5f78:	00000013          	addi	x0,x0,0
    5f7c:	00000013          	addi	x0,x0,0
    5f80:	00000013          	addi	x0,x0,0
    5f84:	00000013          	addi	x0,x0,0
    5f88:	00000013          	addi	x0,x0,0
    5f8c:	00000013          	addi	x0,x0,0
    5f90:	00000013          	addi	x0,x0,0
    5f94:	00000013          	addi	x0,x0,0
    5f98:	00000013          	addi	x0,x0,0
    5f9c:	00000013          	addi	x0,x0,0
    5fa0:	00000013          	addi	x0,x0,0
    5fa4:	00000013          	addi	x0,x0,0
    5fa8:	00000013          	addi	x0,x0,0
    5fac:	00000013          	addi	x0,x0,0
    5fb0:	00000013          	addi	x0,x0,0
    5fb4:	00000013          	addi	x0,x0,0
    5fb8:	00000013          	addi	x0,x0,0
    5fbc:	00000013          	addi	x0,x0,0
    5fc0:	00000013          	addi	x0,x0,0
    5fc4:	00000013          	addi	x0,x0,0
    5fc8:	00000013          	addi	x0,x0,0
    5fcc:	00000013          	addi	x0,x0,0
    5fd0:	00000013          	addi	x0,x0,0
    5fd4:	00000013          	addi	x0,x0,0
    5fd8:	00000013          	addi	x0,x0,0
    5fdc:	00000013          	addi	x0,x0,0
    5fe0:	00000013          	addi	x0,x0,0
    5fe4:	00000013          	addi	x0,x0,0
    5fe8:	00000013          	addi	x0,x0,0
    5fec:	00000013          	addi	x0,x0,0
    5ff0:	00000013          	addi	x0,x0,0
    5ff4:	00000013          	addi	x0,x0,0
    5ff8:	00000013          	addi	x0,x0,0
    5ffc:	00000013          	addi	x0,x0,0

# branch forward by 2048
  .p2align 11 # align to 2048 bytes
  bge x29, x18, 4f
    6000:	012ed0e3          	bge	x29,x18,6800 <I_bge_cg_cp_imm_edges_branch_all+0xb80>
  addi x19, x19, -32 # shouldn't happen
    6004:	fe098993          	addi	x19,x19,-32
  j 19f # shouldn't happen
    6008:	0040406f          	jal	x0,a00c <I_bge_cg_cp_imm_edges_branch_all+0x438c>
    600c:	00000013          	addi	x0,x0,0
    6010:	00000013          	addi	x0,x0,0
    6014:	00000013          	addi	x0,x0,0
    6018:	00000013          	addi	x0,x0,0
    601c:	00000013          	addi	x0,x0,0
    6020:	00000013          	addi	x0,x0,0
    6024:	00000013          	addi	x0,x0,0
    6028:	00000013          	addi	x0,x0,0
    602c:	00000013          	addi	x0,x0,0
    6030:	00000013          	addi	x0,x0,0
    6034:	00000013          	addi	x0,x0,0
    6038:	00000013          	addi	x0,x0,0
    603c:	00000013          	addi	x0,x0,0
    6040:	00000013          	addi	x0,x0,0
    6044:	00000013          	addi	x0,x0,0
    6048:	00000013          	addi	x0,x0,0
    604c:	00000013          	addi	x0,x0,0
    6050:	00000013          	addi	x0,x0,0
    6054:	00000013          	addi	x0,x0,0
    6058:	00000013          	addi	x0,x0,0
    605c:	00000013          	addi	x0,x0,0
    6060:	00000013          	addi	x0,x0,0
    6064:	00000013          	addi	x0,x0,0
    6068:	00000013          	addi	x0,x0,0
    606c:	00000013          	addi	x0,x0,0
    6070:	00000013          	addi	x0,x0,0
    6074:	00000013          	addi	x0,x0,0
    6078:	00000013          	addi	x0,x0,0
    607c:	00000013          	addi	x0,x0,0
    6080:	00000013          	addi	x0,x0,0
    6084:	00000013          	addi	x0,x0,0
    6088:	00000013          	addi	x0,x0,0
    608c:	00000013          	addi	x0,x0,0
    6090:	00000013          	addi	x0,x0,0
    6094:	00000013          	addi	x0,x0,0
    6098:	00000013          	addi	x0,x0,0
    609c:	00000013          	addi	x0,x0,0
    60a0:	00000013          	addi	x0,x0,0
    60a4:	00000013          	addi	x0,x0,0
    60a8:	00000013          	addi	x0,x0,0
    60ac:	00000013          	addi	x0,x0,0
    60b0:	00000013          	addi	x0,x0,0
    60b4:	00000013          	addi	x0,x0,0
    60b8:	00000013          	addi	x0,x0,0
    60bc:	00000013          	addi	x0,x0,0
    60c0:	00000013          	addi	x0,x0,0
    60c4:	00000013          	addi	x0,x0,0
    60c8:	00000013          	addi	x0,x0,0
    60cc:	00000013          	addi	x0,x0,0
    60d0:	00000013          	addi	x0,x0,0
    60d4:	00000013          	addi	x0,x0,0
    60d8:	00000013          	addi	x0,x0,0
    60dc:	00000013          	addi	x0,x0,0
    60e0:	00000013          	addi	x0,x0,0
    60e4:	00000013          	addi	x0,x0,0
    60e8:	00000013          	addi	x0,x0,0
    60ec:	00000013          	addi	x0,x0,0
    60f0:	00000013          	addi	x0,x0,0
    60f4:	00000013          	addi	x0,x0,0
    60f8:	00000013          	addi	x0,x0,0
    60fc:	00000013          	addi	x0,x0,0
    6100:	00000013          	addi	x0,x0,0
    6104:	00000013          	addi	x0,x0,0
    6108:	00000013          	addi	x0,x0,0
    610c:	00000013          	addi	x0,x0,0
    6110:	00000013          	addi	x0,x0,0
    6114:	00000013          	addi	x0,x0,0
    6118:	00000013          	addi	x0,x0,0
    611c:	00000013          	addi	x0,x0,0
    6120:	00000013          	addi	x0,x0,0
    6124:	00000013          	addi	x0,x0,0
    6128:	00000013          	addi	x0,x0,0
    612c:	00000013          	addi	x0,x0,0
    6130:	00000013          	addi	x0,x0,0
    6134:	00000013          	addi	x0,x0,0
    6138:	00000013          	addi	x0,x0,0
    613c:	00000013          	addi	x0,x0,0
    6140:	00000013          	addi	x0,x0,0
    6144:	00000013          	addi	x0,x0,0
    6148:	00000013          	addi	x0,x0,0
    614c:	00000013          	addi	x0,x0,0
    6150:	00000013          	addi	x0,x0,0
    6154:	00000013          	addi	x0,x0,0
    6158:	00000013          	addi	x0,x0,0
    615c:	00000013          	addi	x0,x0,0
    6160:	00000013          	addi	x0,x0,0
    6164:	00000013          	addi	x0,x0,0
    6168:	00000013          	addi	x0,x0,0
    616c:	00000013          	addi	x0,x0,0
    6170:	00000013          	addi	x0,x0,0
    6174:	00000013          	addi	x0,x0,0
    6178:	00000013          	addi	x0,x0,0
    617c:	00000013          	addi	x0,x0,0
    6180:	00000013          	addi	x0,x0,0
    6184:	00000013          	addi	x0,x0,0
    6188:	00000013          	addi	x0,x0,0
    618c:	00000013          	addi	x0,x0,0
    6190:	00000013          	addi	x0,x0,0
    6194:	00000013          	addi	x0,x0,0
    6198:	00000013          	addi	x0,x0,0
    619c:	00000013          	addi	x0,x0,0
    61a0:	00000013          	addi	x0,x0,0
    61a4:	00000013          	addi	x0,x0,0
    61a8:	00000013          	addi	x0,x0,0
    61ac:	00000013          	addi	x0,x0,0
    61b0:	00000013          	addi	x0,x0,0
    61b4:	00000013          	addi	x0,x0,0
    61b8:	00000013          	addi	x0,x0,0
    61bc:	00000013          	addi	x0,x0,0
    61c0:	00000013          	addi	x0,x0,0
    61c4:	00000013          	addi	x0,x0,0
    61c8:	00000013          	addi	x0,x0,0
    61cc:	00000013          	addi	x0,x0,0
    61d0:	00000013          	addi	x0,x0,0
    61d4:	00000013          	addi	x0,x0,0
    61d8:	00000013          	addi	x0,x0,0
    61dc:	00000013          	addi	x0,x0,0
    61e0:	00000013          	addi	x0,x0,0
    61e4:	00000013          	addi	x0,x0,0
    61e8:	00000013          	addi	x0,x0,0
    61ec:	00000013          	addi	x0,x0,0
    61f0:	00000013          	addi	x0,x0,0
    61f4:	00000013          	addi	x0,x0,0
    61f8:	00000013          	addi	x0,x0,0
    61fc:	00000013          	addi	x0,x0,0
    6200:	00000013          	addi	x0,x0,0
    6204:	00000013          	addi	x0,x0,0
    6208:	00000013          	addi	x0,x0,0
    620c:	00000013          	addi	x0,x0,0
    6210:	00000013          	addi	x0,x0,0
    6214:	00000013          	addi	x0,x0,0
    6218:	00000013          	addi	x0,x0,0
    621c:	00000013          	addi	x0,x0,0
    6220:	00000013          	addi	x0,x0,0
    6224:	00000013          	addi	x0,x0,0
    6228:	00000013          	addi	x0,x0,0
    622c:	00000013          	addi	x0,x0,0
    6230:	00000013          	addi	x0,x0,0
    6234:	00000013          	addi	x0,x0,0
    6238:	00000013          	addi	x0,x0,0
    623c:	00000013          	addi	x0,x0,0
    6240:	00000013          	addi	x0,x0,0
    6244:	00000013          	addi	x0,x0,0
    6248:	00000013          	addi	x0,x0,0
    624c:	00000013          	addi	x0,x0,0
    6250:	00000013          	addi	x0,x0,0
    6254:	00000013          	addi	x0,x0,0
    6258:	00000013          	addi	x0,x0,0
    625c:	00000013          	addi	x0,x0,0
    6260:	00000013          	addi	x0,x0,0
    6264:	00000013          	addi	x0,x0,0
    6268:	00000013          	addi	x0,x0,0
    626c:	00000013          	addi	x0,x0,0
    6270:	00000013          	addi	x0,x0,0
    6274:	00000013          	addi	x0,x0,0
    6278:	00000013          	addi	x0,x0,0
    627c:	00000013          	addi	x0,x0,0
    6280:	00000013          	addi	x0,x0,0
    6284:	00000013          	addi	x0,x0,0
    6288:	00000013          	addi	x0,x0,0
    628c:	00000013          	addi	x0,x0,0
    6290:	00000013          	addi	x0,x0,0
    6294:	00000013          	addi	x0,x0,0
    6298:	00000013          	addi	x0,x0,0
    629c:	00000013          	addi	x0,x0,0
    62a0:	00000013          	addi	x0,x0,0
    62a4:	00000013          	addi	x0,x0,0
    62a8:	00000013          	addi	x0,x0,0
    62ac:	00000013          	addi	x0,x0,0
    62b0:	00000013          	addi	x0,x0,0
    62b4:	00000013          	addi	x0,x0,0
    62b8:	00000013          	addi	x0,x0,0
    62bc:	00000013          	addi	x0,x0,0
    62c0:	00000013          	addi	x0,x0,0
    62c4:	00000013          	addi	x0,x0,0
    62c8:	00000013          	addi	x0,x0,0
    62cc:	00000013          	addi	x0,x0,0
    62d0:	00000013          	addi	x0,x0,0
    62d4:	00000013          	addi	x0,x0,0
    62d8:	00000013          	addi	x0,x0,0
    62dc:	00000013          	addi	x0,x0,0
    62e0:	00000013          	addi	x0,x0,0
    62e4:	00000013          	addi	x0,x0,0
    62e8:	00000013          	addi	x0,x0,0
    62ec:	00000013          	addi	x0,x0,0
    62f0:	00000013          	addi	x0,x0,0
    62f4:	00000013          	addi	x0,x0,0
    62f8:	00000013          	addi	x0,x0,0
    62fc:	00000013          	addi	x0,x0,0
    6300:	00000013          	addi	x0,x0,0
    6304:	00000013          	addi	x0,x0,0
    6308:	00000013          	addi	x0,x0,0
    630c:	00000013          	addi	x0,x0,0
    6310:	00000013          	addi	x0,x0,0
    6314:	00000013          	addi	x0,x0,0
    6318:	00000013          	addi	x0,x0,0
    631c:	00000013          	addi	x0,x0,0
    6320:	00000013          	addi	x0,x0,0
    6324:	00000013          	addi	x0,x0,0
    6328:	00000013          	addi	x0,x0,0
    632c:	00000013          	addi	x0,x0,0
    6330:	00000013          	addi	x0,x0,0
    6334:	00000013          	addi	x0,x0,0
    6338:	00000013          	addi	x0,x0,0
    633c:	00000013          	addi	x0,x0,0
    6340:	00000013          	addi	x0,x0,0
    6344:	00000013          	addi	x0,x0,0
    6348:	00000013          	addi	x0,x0,0
    634c:	00000013          	addi	x0,x0,0
    6350:	00000013          	addi	x0,x0,0
    6354:	00000013          	addi	x0,x0,0
    6358:	00000013          	addi	x0,x0,0
    635c:	00000013          	addi	x0,x0,0
    6360:	00000013          	addi	x0,x0,0
    6364:	00000013          	addi	x0,x0,0
    6368:	00000013          	addi	x0,x0,0
    636c:	00000013          	addi	x0,x0,0
    6370:	00000013          	addi	x0,x0,0
    6374:	00000013          	addi	x0,x0,0
    6378:	00000013          	addi	x0,x0,0
    637c:	00000013          	addi	x0,x0,0
    6380:	00000013          	addi	x0,x0,0
    6384:	00000013          	addi	x0,x0,0
    6388:	00000013          	addi	x0,x0,0
    638c:	00000013          	addi	x0,x0,0
    6390:	00000013          	addi	x0,x0,0
    6394:	00000013          	addi	x0,x0,0
    6398:	00000013          	addi	x0,x0,0
    639c:	00000013          	addi	x0,x0,0
    63a0:	00000013          	addi	x0,x0,0
    63a4:	00000013          	addi	x0,x0,0
    63a8:	00000013          	addi	x0,x0,0
    63ac:	00000013          	addi	x0,x0,0
    63b0:	00000013          	addi	x0,x0,0
    63b4:	00000013          	addi	x0,x0,0
    63b8:	00000013          	addi	x0,x0,0
    63bc:	00000013          	addi	x0,x0,0
    63c0:	00000013          	addi	x0,x0,0
    63c4:	00000013          	addi	x0,x0,0
    63c8:	00000013          	addi	x0,x0,0
    63cc:	00000013          	addi	x0,x0,0
    63d0:	00000013          	addi	x0,x0,0
    63d4:	00000013          	addi	x0,x0,0
    63d8:	00000013          	addi	x0,x0,0
    63dc:	00000013          	addi	x0,x0,0
    63e0:	00000013          	addi	x0,x0,0
    63e4:	00000013          	addi	x0,x0,0
    63e8:	00000013          	addi	x0,x0,0
    63ec:	00000013          	addi	x0,x0,0
    63f0:	00000013          	addi	x0,x0,0
    63f4:	00000013          	addi	x0,x0,0
    63f8:	00000013          	addi	x0,x0,0
    63fc:	00000013          	addi	x0,x0,0
    6400:	00000013          	addi	x0,x0,0
    6404:	00000013          	addi	x0,x0,0
    6408:	00000013          	addi	x0,x0,0
    640c:	00000013          	addi	x0,x0,0
    6410:	00000013          	addi	x0,x0,0
    6414:	00000013          	addi	x0,x0,0
    6418:	00000013          	addi	x0,x0,0
    641c:	00000013          	addi	x0,x0,0
    6420:	00000013          	addi	x0,x0,0
    6424:	00000013          	addi	x0,x0,0
    6428:	00000013          	addi	x0,x0,0
    642c:	00000013          	addi	x0,x0,0
    6430:	00000013          	addi	x0,x0,0
    6434:	00000013          	addi	x0,x0,0
    6438:	00000013          	addi	x0,x0,0
    643c:	00000013          	addi	x0,x0,0
    6440:	00000013          	addi	x0,x0,0
    6444:	00000013          	addi	x0,x0,0
    6448:	00000013          	addi	x0,x0,0
    644c:	00000013          	addi	x0,x0,0
    6450:	00000013          	addi	x0,x0,0
    6454:	00000013          	addi	x0,x0,0
    6458:	00000013          	addi	x0,x0,0
    645c:	00000013          	addi	x0,x0,0
    6460:	00000013          	addi	x0,x0,0
    6464:	00000013          	addi	x0,x0,0
    6468:	00000013          	addi	x0,x0,0
    646c:	00000013          	addi	x0,x0,0
    6470:	00000013          	addi	x0,x0,0
    6474:	00000013          	addi	x0,x0,0
    6478:	00000013          	addi	x0,x0,0
    647c:	00000013          	addi	x0,x0,0
    6480:	00000013          	addi	x0,x0,0
    6484:	00000013          	addi	x0,x0,0
    6488:	00000013          	addi	x0,x0,0
    648c:	00000013          	addi	x0,x0,0
    6490:	00000013          	addi	x0,x0,0
    6494:	00000013          	addi	x0,x0,0
    6498:	00000013          	addi	x0,x0,0
    649c:	00000013          	addi	x0,x0,0
    64a0:	00000013          	addi	x0,x0,0
    64a4:	00000013          	addi	x0,x0,0
    64a8:	00000013          	addi	x0,x0,0
    64ac:	00000013          	addi	x0,x0,0
    64b0:	00000013          	addi	x0,x0,0
    64b4:	00000013          	addi	x0,x0,0
    64b8:	00000013          	addi	x0,x0,0
    64bc:	00000013          	addi	x0,x0,0
    64c0:	00000013          	addi	x0,x0,0
    64c4:	00000013          	addi	x0,x0,0
    64c8:	00000013          	addi	x0,x0,0
    64cc:	00000013          	addi	x0,x0,0
    64d0:	00000013          	addi	x0,x0,0
    64d4:	00000013          	addi	x0,x0,0
    64d8:	00000013          	addi	x0,x0,0
    64dc:	00000013          	addi	x0,x0,0
    64e0:	00000013          	addi	x0,x0,0
    64e4:	00000013          	addi	x0,x0,0
    64e8:	00000013          	addi	x0,x0,0
    64ec:	00000013          	addi	x0,x0,0
    64f0:	00000013          	addi	x0,x0,0
    64f4:	00000013          	addi	x0,x0,0
    64f8:	00000013          	addi	x0,x0,0
    64fc:	00000013          	addi	x0,x0,0
    6500:	00000013          	addi	x0,x0,0
    6504:	00000013          	addi	x0,x0,0
    6508:	00000013          	addi	x0,x0,0
    650c:	00000013          	addi	x0,x0,0
    6510:	00000013          	addi	x0,x0,0
    6514:	00000013          	addi	x0,x0,0
    6518:	00000013          	addi	x0,x0,0
    651c:	00000013          	addi	x0,x0,0
    6520:	00000013          	addi	x0,x0,0
    6524:	00000013          	addi	x0,x0,0
    6528:	00000013          	addi	x0,x0,0
    652c:	00000013          	addi	x0,x0,0
    6530:	00000013          	addi	x0,x0,0
    6534:	00000013          	addi	x0,x0,0
    6538:	00000013          	addi	x0,x0,0
    653c:	00000013          	addi	x0,x0,0
    6540:	00000013          	addi	x0,x0,0
    6544:	00000013          	addi	x0,x0,0
    6548:	00000013          	addi	x0,x0,0
    654c:	00000013          	addi	x0,x0,0
    6550:	00000013          	addi	x0,x0,0
    6554:	00000013          	addi	x0,x0,0
    6558:	00000013          	addi	x0,x0,0
    655c:	00000013          	addi	x0,x0,0
    6560:	00000013          	addi	x0,x0,0
    6564:	00000013          	addi	x0,x0,0
    6568:	00000013          	addi	x0,x0,0
    656c:	00000013          	addi	x0,x0,0
    6570:	00000013          	addi	x0,x0,0
    6574:	00000013          	addi	x0,x0,0
    6578:	00000013          	addi	x0,x0,0
    657c:	00000013          	addi	x0,x0,0
    6580:	00000013          	addi	x0,x0,0
    6584:	00000013          	addi	x0,x0,0
    6588:	00000013          	addi	x0,x0,0
    658c:	00000013          	addi	x0,x0,0
    6590:	00000013          	addi	x0,x0,0
    6594:	00000013          	addi	x0,x0,0
    6598:	00000013          	addi	x0,x0,0
    659c:	00000013          	addi	x0,x0,0
    65a0:	00000013          	addi	x0,x0,0
    65a4:	00000013          	addi	x0,x0,0
    65a8:	00000013          	addi	x0,x0,0
    65ac:	00000013          	addi	x0,x0,0
    65b0:	00000013          	addi	x0,x0,0
    65b4:	00000013          	addi	x0,x0,0
    65b8:	00000013          	addi	x0,x0,0
    65bc:	00000013          	addi	x0,x0,0
    65c0:	00000013          	addi	x0,x0,0
    65c4:	00000013          	addi	x0,x0,0
    65c8:	00000013          	addi	x0,x0,0
    65cc:	00000013          	addi	x0,x0,0
    65d0:	00000013          	addi	x0,x0,0
    65d4:	00000013          	addi	x0,x0,0
    65d8:	00000013          	addi	x0,x0,0
    65dc:	00000013          	addi	x0,x0,0
    65e0:	00000013          	addi	x0,x0,0
    65e4:	00000013          	addi	x0,x0,0
    65e8:	00000013          	addi	x0,x0,0
    65ec:	00000013          	addi	x0,x0,0
    65f0:	00000013          	addi	x0,x0,0
    65f4:	00000013          	addi	x0,x0,0
    65f8:	00000013          	addi	x0,x0,0
    65fc:	00000013          	addi	x0,x0,0
    6600:	00000013          	addi	x0,x0,0
    6604:	00000013          	addi	x0,x0,0
    6608:	00000013          	addi	x0,x0,0
    660c:	00000013          	addi	x0,x0,0
    6610:	00000013          	addi	x0,x0,0
    6614:	00000013          	addi	x0,x0,0
    6618:	00000013          	addi	x0,x0,0
    661c:	00000013          	addi	x0,x0,0
    6620:	00000013          	addi	x0,x0,0
    6624:	00000013          	addi	x0,x0,0
    6628:	00000013          	addi	x0,x0,0
    662c:	00000013          	addi	x0,x0,0
    6630:	00000013          	addi	x0,x0,0
    6634:	00000013          	addi	x0,x0,0
    6638:	00000013          	addi	x0,x0,0
    663c:	00000013          	addi	x0,x0,0
    6640:	00000013          	addi	x0,x0,0
    6644:	00000013          	addi	x0,x0,0
    6648:	00000013          	addi	x0,x0,0
    664c:	00000013          	addi	x0,x0,0
    6650:	00000013          	addi	x0,x0,0
    6654:	00000013          	addi	x0,x0,0
    6658:	00000013          	addi	x0,x0,0
    665c:	00000013          	addi	x0,x0,0
    6660:	00000013          	addi	x0,x0,0
    6664:	00000013          	addi	x0,x0,0
    6668:	00000013          	addi	x0,x0,0
    666c:	00000013          	addi	x0,x0,0
    6670:	00000013          	addi	x0,x0,0
    6674:	00000013          	addi	x0,x0,0
    6678:	00000013          	addi	x0,x0,0
    667c:	00000013          	addi	x0,x0,0
    6680:	00000013          	addi	x0,x0,0
    6684:	00000013          	addi	x0,x0,0
    6688:	00000013          	addi	x0,x0,0
    668c:	00000013          	addi	x0,x0,0
    6690:	00000013          	addi	x0,x0,0
    6694:	00000013          	addi	x0,x0,0
    6698:	00000013          	addi	x0,x0,0
    669c:	00000013          	addi	x0,x0,0
    66a0:	00000013          	addi	x0,x0,0
    66a4:	00000013          	addi	x0,x0,0
    66a8:	00000013          	addi	x0,x0,0
    66ac:	00000013          	addi	x0,x0,0
    66b0:	00000013          	addi	x0,x0,0
    66b4:	00000013          	addi	x0,x0,0
    66b8:	00000013          	addi	x0,x0,0
    66bc:	00000013          	addi	x0,x0,0
    66c0:	00000013          	addi	x0,x0,0
    66c4:	00000013          	addi	x0,x0,0
    66c8:	00000013          	addi	x0,x0,0
    66cc:	00000013          	addi	x0,x0,0
    66d0:	00000013          	addi	x0,x0,0
    66d4:	00000013          	addi	x0,x0,0
    66d8:	00000013          	addi	x0,x0,0
    66dc:	00000013          	addi	x0,x0,0
    66e0:	00000013          	addi	x0,x0,0
    66e4:	00000013          	addi	x0,x0,0
    66e8:	00000013          	addi	x0,x0,0
    66ec:	00000013          	addi	x0,x0,0
    66f0:	00000013          	addi	x0,x0,0
    66f4:	00000013          	addi	x0,x0,0
    66f8:	00000013          	addi	x0,x0,0
    66fc:	00000013          	addi	x0,x0,0
    6700:	00000013          	addi	x0,x0,0
    6704:	00000013          	addi	x0,x0,0
    6708:	00000013          	addi	x0,x0,0
    670c:	00000013          	addi	x0,x0,0
    6710:	00000013          	addi	x0,x0,0
    6714:	00000013          	addi	x0,x0,0
    6718:	00000013          	addi	x0,x0,0
    671c:	00000013          	addi	x0,x0,0
    6720:	00000013          	addi	x0,x0,0
    6724:	00000013          	addi	x0,x0,0
    6728:	00000013          	addi	x0,x0,0
    672c:	00000013          	addi	x0,x0,0
    6730:	00000013          	addi	x0,x0,0
    6734:	00000013          	addi	x0,x0,0
    6738:	00000013          	addi	x0,x0,0
    673c:	00000013          	addi	x0,x0,0
    6740:	00000013          	addi	x0,x0,0
    6744:	00000013          	addi	x0,x0,0
    6748:	00000013          	addi	x0,x0,0
    674c:	00000013          	addi	x0,x0,0
    6750:	00000013          	addi	x0,x0,0
    6754:	00000013          	addi	x0,x0,0
    6758:	00000013          	addi	x0,x0,0
    675c:	00000013          	addi	x0,x0,0
    6760:	00000013          	addi	x0,x0,0
    6764:	00000013          	addi	x0,x0,0
    6768:	00000013          	addi	x0,x0,0
    676c:	00000013          	addi	x0,x0,0
    6770:	00000013          	addi	x0,x0,0
    6774:	00000013          	addi	x0,x0,0
    6778:	00000013          	addi	x0,x0,0
    677c:	00000013          	addi	x0,x0,0
    6780:	00000013          	addi	x0,x0,0
    6784:	00000013          	addi	x0,x0,0
    6788:	00000013          	addi	x0,x0,0
    678c:	00000013          	addi	x0,x0,0
    6790:	00000013          	addi	x0,x0,0
    6794:	00000013          	addi	x0,x0,0
    6798:	00000013          	addi	x0,x0,0
    679c:	00000013          	addi	x0,x0,0
    67a0:	00000013          	addi	x0,x0,0
    67a4:	00000013          	addi	x0,x0,0
    67a8:	00000013          	addi	x0,x0,0
    67ac:	00000013          	addi	x0,x0,0
    67b0:	00000013          	addi	x0,x0,0
    67b4:	00000013          	addi	x0,x0,0
    67b8:	00000013          	addi	x0,x0,0
    67bc:	00000013          	addi	x0,x0,0
    67c0:	00000013          	addi	x0,x0,0
    67c4:	00000013          	addi	x0,x0,0
    67c8:	00000013          	addi	x0,x0,0
    67cc:	00000013          	addi	x0,x0,0
    67d0:	00000013          	addi	x0,x0,0
    67d4:	00000013          	addi	x0,x0,0
    67d8:	00000013          	addi	x0,x0,0
    67dc:	00000013          	addi	x0,x0,0
    67e0:	00000013          	addi	x0,x0,0
    67e4:	00000013          	addi	x0,x0,0
    67e8:	00000013          	addi	x0,x0,0
    67ec:	00000013          	addi	x0,x0,0
    67f0:	00000013          	addi	x0,x0,0
    67f4:	00000013          	addi	x0,x0,0
    67f8:	00000013          	addi	x0,x0,0
    67fc:	00000013          	addi	x0,x0,0
  .p2align 11 # align to 2048 bytes
4:
  addi x19, x19, 64 # should happen
    6800:	04098993          	addi	x19,x19,64
    6804:	00000013          	addi	x0,x0,0
    6808:	00000013          	addi	x0,x0,0
    680c:	00000013          	addi	x0,x0,0
    6810:	00000013          	addi	x0,x0,0
    6814:	00000013          	addi	x0,x0,0
    6818:	00000013          	addi	x0,x0,0
    681c:	00000013          	addi	x0,x0,0
    6820:	00000013          	addi	x0,x0,0
    6824:	00000013          	addi	x0,x0,0
    6828:	00000013          	addi	x0,x0,0
    682c:	00000013          	addi	x0,x0,0
    6830:	00000013          	addi	x0,x0,0
    6834:	00000013          	addi	x0,x0,0
    6838:	00000013          	addi	x0,x0,0
    683c:	00000013          	addi	x0,x0,0
    6840:	00000013          	addi	x0,x0,0
    6844:	00000013          	addi	x0,x0,0
    6848:	00000013          	addi	x0,x0,0
    684c:	00000013          	addi	x0,x0,0
    6850:	00000013          	addi	x0,x0,0
    6854:	00000013          	addi	x0,x0,0
    6858:	00000013          	addi	x0,x0,0
    685c:	00000013          	addi	x0,x0,0
    6860:	00000013          	addi	x0,x0,0
    6864:	00000013          	addi	x0,x0,0
    6868:	00000013          	addi	x0,x0,0
    686c:	00000013          	addi	x0,x0,0
    6870:	00000013          	addi	x0,x0,0
    6874:	00000013          	addi	x0,x0,0
    6878:	00000013          	addi	x0,x0,0
    687c:	00000013          	addi	x0,x0,0
    6880:	00000013          	addi	x0,x0,0
    6884:	00000013          	addi	x0,x0,0
    6888:	00000013          	addi	x0,x0,0
    688c:	00000013          	addi	x0,x0,0
    6890:	00000013          	addi	x0,x0,0
    6894:	00000013          	addi	x0,x0,0
    6898:	00000013          	addi	x0,x0,0
    689c:	00000013          	addi	x0,x0,0
    68a0:	00000013          	addi	x0,x0,0
    68a4:	00000013          	addi	x0,x0,0
    68a8:	00000013          	addi	x0,x0,0
    68ac:	00000013          	addi	x0,x0,0
    68b0:	00000013          	addi	x0,x0,0
    68b4:	00000013          	addi	x0,x0,0
    68b8:	00000013          	addi	x0,x0,0
    68bc:	00000013          	addi	x0,x0,0
    68c0:	00000013          	addi	x0,x0,0
    68c4:	00000013          	addi	x0,x0,0
    68c8:	00000013          	addi	x0,x0,0
    68cc:	00000013          	addi	x0,x0,0
    68d0:	00000013          	addi	x0,x0,0
    68d4:	00000013          	addi	x0,x0,0
    68d8:	00000013          	addi	x0,x0,0
    68dc:	00000013          	addi	x0,x0,0
    68e0:	00000013          	addi	x0,x0,0
    68e4:	00000013          	addi	x0,x0,0
    68e8:	00000013          	addi	x0,x0,0
    68ec:	00000013          	addi	x0,x0,0
    68f0:	00000013          	addi	x0,x0,0
    68f4:	00000013          	addi	x0,x0,0
    68f8:	00000013          	addi	x0,x0,0
    68fc:	00000013          	addi	x0,x0,0
    6900:	00000013          	addi	x0,x0,0
    6904:	00000013          	addi	x0,x0,0
    6908:	00000013          	addi	x0,x0,0
    690c:	00000013          	addi	x0,x0,0
    6910:	00000013          	addi	x0,x0,0
    6914:	00000013          	addi	x0,x0,0
    6918:	00000013          	addi	x0,x0,0
    691c:	00000013          	addi	x0,x0,0
    6920:	00000013          	addi	x0,x0,0
    6924:	00000013          	addi	x0,x0,0
    6928:	00000013          	addi	x0,x0,0
    692c:	00000013          	addi	x0,x0,0
    6930:	00000013          	addi	x0,x0,0
    6934:	00000013          	addi	x0,x0,0
    6938:	00000013          	addi	x0,x0,0
    693c:	00000013          	addi	x0,x0,0
    6940:	00000013          	addi	x0,x0,0
    6944:	00000013          	addi	x0,x0,0
    6948:	00000013          	addi	x0,x0,0
    694c:	00000013          	addi	x0,x0,0
    6950:	00000013          	addi	x0,x0,0
    6954:	00000013          	addi	x0,x0,0
    6958:	00000013          	addi	x0,x0,0
    695c:	00000013          	addi	x0,x0,0
    6960:	00000013          	addi	x0,x0,0
    6964:	00000013          	addi	x0,x0,0
    6968:	00000013          	addi	x0,x0,0
    696c:	00000013          	addi	x0,x0,0
    6970:	00000013          	addi	x0,x0,0
    6974:	00000013          	addi	x0,x0,0
    6978:	00000013          	addi	x0,x0,0
    697c:	00000013          	addi	x0,x0,0
    6980:	00000013          	addi	x0,x0,0
    6984:	00000013          	addi	x0,x0,0
    6988:	00000013          	addi	x0,x0,0
    698c:	00000013          	addi	x0,x0,0
    6990:	00000013          	addi	x0,x0,0
    6994:	00000013          	addi	x0,x0,0
    6998:	00000013          	addi	x0,x0,0
    699c:	00000013          	addi	x0,x0,0
    69a0:	00000013          	addi	x0,x0,0
    69a4:	00000013          	addi	x0,x0,0
    69a8:	00000013          	addi	x0,x0,0
    69ac:	00000013          	addi	x0,x0,0
    69b0:	00000013          	addi	x0,x0,0
    69b4:	00000013          	addi	x0,x0,0
    69b8:	00000013          	addi	x0,x0,0
    69bc:	00000013          	addi	x0,x0,0
    69c0:	00000013          	addi	x0,x0,0
    69c4:	00000013          	addi	x0,x0,0
    69c8:	00000013          	addi	x0,x0,0
    69cc:	00000013          	addi	x0,x0,0
    69d0:	00000013          	addi	x0,x0,0
    69d4:	00000013          	addi	x0,x0,0
    69d8:	00000013          	addi	x0,x0,0
    69dc:	00000013          	addi	x0,x0,0
    69e0:	00000013          	addi	x0,x0,0
    69e4:	00000013          	addi	x0,x0,0
    69e8:	00000013          	addi	x0,x0,0
    69ec:	00000013          	addi	x0,x0,0
    69f0:	00000013          	addi	x0,x0,0
    69f4:	00000013          	addi	x0,x0,0
    69f8:	00000013          	addi	x0,x0,0
    69fc:	00000013          	addi	x0,x0,0
    6a00:	00000013          	addi	x0,x0,0
    6a04:	00000013          	addi	x0,x0,0
    6a08:	00000013          	addi	x0,x0,0
    6a0c:	00000013          	addi	x0,x0,0
    6a10:	00000013          	addi	x0,x0,0
    6a14:	00000013          	addi	x0,x0,0
    6a18:	00000013          	addi	x0,x0,0
    6a1c:	00000013          	addi	x0,x0,0
    6a20:	00000013          	addi	x0,x0,0
    6a24:	00000013          	addi	x0,x0,0
    6a28:	00000013          	addi	x0,x0,0
    6a2c:	00000013          	addi	x0,x0,0
    6a30:	00000013          	addi	x0,x0,0
    6a34:	00000013          	addi	x0,x0,0
    6a38:	00000013          	addi	x0,x0,0
    6a3c:	00000013          	addi	x0,x0,0
    6a40:	00000013          	addi	x0,x0,0
    6a44:	00000013          	addi	x0,x0,0
    6a48:	00000013          	addi	x0,x0,0
    6a4c:	00000013          	addi	x0,x0,0
    6a50:	00000013          	addi	x0,x0,0
    6a54:	00000013          	addi	x0,x0,0
    6a58:	00000013          	addi	x0,x0,0
    6a5c:	00000013          	addi	x0,x0,0
    6a60:	00000013          	addi	x0,x0,0
    6a64:	00000013          	addi	x0,x0,0
    6a68:	00000013          	addi	x0,x0,0
    6a6c:	00000013          	addi	x0,x0,0
    6a70:	00000013          	addi	x0,x0,0
    6a74:	00000013          	addi	x0,x0,0
    6a78:	00000013          	addi	x0,x0,0
    6a7c:	00000013          	addi	x0,x0,0
    6a80:	00000013          	addi	x0,x0,0
    6a84:	00000013          	addi	x0,x0,0
    6a88:	00000013          	addi	x0,x0,0
    6a8c:	00000013          	addi	x0,x0,0
    6a90:	00000013          	addi	x0,x0,0
    6a94:	00000013          	addi	x0,x0,0
    6a98:	00000013          	addi	x0,x0,0
    6a9c:	00000013          	addi	x0,x0,0
    6aa0:	00000013          	addi	x0,x0,0
    6aa4:	00000013          	addi	x0,x0,0
    6aa8:	00000013          	addi	x0,x0,0
    6aac:	00000013          	addi	x0,x0,0
    6ab0:	00000013          	addi	x0,x0,0
    6ab4:	00000013          	addi	x0,x0,0
    6ab8:	00000013          	addi	x0,x0,0
    6abc:	00000013          	addi	x0,x0,0
    6ac0:	00000013          	addi	x0,x0,0
    6ac4:	00000013          	addi	x0,x0,0
    6ac8:	00000013          	addi	x0,x0,0
    6acc:	00000013          	addi	x0,x0,0
    6ad0:	00000013          	addi	x0,x0,0
    6ad4:	00000013          	addi	x0,x0,0
    6ad8:	00000013          	addi	x0,x0,0
    6adc:	00000013          	addi	x0,x0,0
    6ae0:	00000013          	addi	x0,x0,0
    6ae4:	00000013          	addi	x0,x0,0
    6ae8:	00000013          	addi	x0,x0,0
    6aec:	00000013          	addi	x0,x0,0
    6af0:	00000013          	addi	x0,x0,0
    6af4:	00000013          	addi	x0,x0,0
    6af8:	00000013          	addi	x0,x0,0
    6afc:	00000013          	addi	x0,x0,0
    6b00:	00000013          	addi	x0,x0,0
    6b04:	00000013          	addi	x0,x0,0
    6b08:	00000013          	addi	x0,x0,0
    6b0c:	00000013          	addi	x0,x0,0
    6b10:	00000013          	addi	x0,x0,0
    6b14:	00000013          	addi	x0,x0,0
    6b18:	00000013          	addi	x0,x0,0
    6b1c:	00000013          	addi	x0,x0,0
    6b20:	00000013          	addi	x0,x0,0
    6b24:	00000013          	addi	x0,x0,0
    6b28:	00000013          	addi	x0,x0,0
    6b2c:	00000013          	addi	x0,x0,0
    6b30:	00000013          	addi	x0,x0,0
    6b34:	00000013          	addi	x0,x0,0
    6b38:	00000013          	addi	x0,x0,0
    6b3c:	00000013          	addi	x0,x0,0
    6b40:	00000013          	addi	x0,x0,0
    6b44:	00000013          	addi	x0,x0,0
    6b48:	00000013          	addi	x0,x0,0
    6b4c:	00000013          	addi	x0,x0,0
    6b50:	00000013          	addi	x0,x0,0
    6b54:	00000013          	addi	x0,x0,0
    6b58:	00000013          	addi	x0,x0,0
    6b5c:	00000013          	addi	x0,x0,0
    6b60:	00000013          	addi	x0,x0,0
    6b64:	00000013          	addi	x0,x0,0
    6b68:	00000013          	addi	x0,x0,0
    6b6c:	00000013          	addi	x0,x0,0
    6b70:	00000013          	addi	x0,x0,0
    6b74:	00000013          	addi	x0,x0,0
    6b78:	00000013          	addi	x0,x0,0
    6b7c:	00000013          	addi	x0,x0,0
    6b80:	00000013          	addi	x0,x0,0
    6b84:	00000013          	addi	x0,x0,0
    6b88:	00000013          	addi	x0,x0,0
    6b8c:	00000013          	addi	x0,x0,0
    6b90:	00000013          	addi	x0,x0,0
    6b94:	00000013          	addi	x0,x0,0
    6b98:	00000013          	addi	x0,x0,0
    6b9c:	00000013          	addi	x0,x0,0
    6ba0:	00000013          	addi	x0,x0,0
    6ba4:	00000013          	addi	x0,x0,0
    6ba8:	00000013          	addi	x0,x0,0
    6bac:	00000013          	addi	x0,x0,0
    6bb0:	00000013          	addi	x0,x0,0
    6bb4:	00000013          	addi	x0,x0,0
    6bb8:	00000013          	addi	x0,x0,0
    6bbc:	00000013          	addi	x0,x0,0
    6bc0:	00000013          	addi	x0,x0,0
    6bc4:	00000013          	addi	x0,x0,0
    6bc8:	00000013          	addi	x0,x0,0
    6bcc:	00000013          	addi	x0,x0,0
    6bd0:	00000013          	addi	x0,x0,0
    6bd4:	00000013          	addi	x0,x0,0
    6bd8:	00000013          	addi	x0,x0,0
    6bdc:	00000013          	addi	x0,x0,0
    6be0:	00000013          	addi	x0,x0,0
    6be4:	00000013          	addi	x0,x0,0
    6be8:	00000013          	addi	x0,x0,0
    6bec:	00000013          	addi	x0,x0,0
    6bf0:	00000013          	addi	x0,x0,0
    6bf4:	00000013          	addi	x0,x0,0
    6bf8:	00000013          	addi	x0,x0,0
    6bfc:	00000013          	addi	x0,x0,0
    6c00:	00000013          	addi	x0,x0,0
    6c04:	00000013          	addi	x0,x0,0
    6c08:	00000013          	addi	x0,x0,0
    6c0c:	00000013          	addi	x0,x0,0
    6c10:	00000013          	addi	x0,x0,0
    6c14:	00000013          	addi	x0,x0,0
    6c18:	00000013          	addi	x0,x0,0
    6c1c:	00000013          	addi	x0,x0,0
    6c20:	00000013          	addi	x0,x0,0
    6c24:	00000013          	addi	x0,x0,0
    6c28:	00000013          	addi	x0,x0,0
    6c2c:	00000013          	addi	x0,x0,0
    6c30:	00000013          	addi	x0,x0,0
    6c34:	00000013          	addi	x0,x0,0
    6c38:	00000013          	addi	x0,x0,0
    6c3c:	00000013          	addi	x0,x0,0
    6c40:	00000013          	addi	x0,x0,0
    6c44:	00000013          	addi	x0,x0,0
    6c48:	00000013          	addi	x0,x0,0
    6c4c:	00000013          	addi	x0,x0,0
    6c50:	00000013          	addi	x0,x0,0
    6c54:	00000013          	addi	x0,x0,0
    6c58:	00000013          	addi	x0,x0,0
    6c5c:	00000013          	addi	x0,x0,0
    6c60:	00000013          	addi	x0,x0,0
    6c64:	00000013          	addi	x0,x0,0
    6c68:	00000013          	addi	x0,x0,0
    6c6c:	00000013          	addi	x0,x0,0
    6c70:	00000013          	addi	x0,x0,0
    6c74:	00000013          	addi	x0,x0,0
    6c78:	00000013          	addi	x0,x0,0
    6c7c:	00000013          	addi	x0,x0,0
    6c80:	00000013          	addi	x0,x0,0
    6c84:	00000013          	addi	x0,x0,0
    6c88:	00000013          	addi	x0,x0,0
    6c8c:	00000013          	addi	x0,x0,0
    6c90:	00000013          	addi	x0,x0,0
    6c94:	00000013          	addi	x0,x0,0
    6c98:	00000013          	addi	x0,x0,0
    6c9c:	00000013          	addi	x0,x0,0
    6ca0:	00000013          	addi	x0,x0,0
    6ca4:	00000013          	addi	x0,x0,0
    6ca8:	00000013          	addi	x0,x0,0
    6cac:	00000013          	addi	x0,x0,0
    6cb0:	00000013          	addi	x0,x0,0
    6cb4:	00000013          	addi	x0,x0,0
    6cb8:	00000013          	addi	x0,x0,0
    6cbc:	00000013          	addi	x0,x0,0
    6cc0:	00000013          	addi	x0,x0,0
    6cc4:	00000013          	addi	x0,x0,0
    6cc8:	00000013          	addi	x0,x0,0
    6ccc:	00000013          	addi	x0,x0,0
    6cd0:	00000013          	addi	x0,x0,0
    6cd4:	00000013          	addi	x0,x0,0
    6cd8:	00000013          	addi	x0,x0,0
    6cdc:	00000013          	addi	x0,x0,0
    6ce0:	00000013          	addi	x0,x0,0
    6ce4:	00000013          	addi	x0,x0,0
    6ce8:	00000013          	addi	x0,x0,0
    6cec:	00000013          	addi	x0,x0,0
    6cf0:	00000013          	addi	x0,x0,0
    6cf4:	00000013          	addi	x0,x0,0
    6cf8:	00000013          	addi	x0,x0,0
    6cfc:	00000013          	addi	x0,x0,0
    6d00:	00000013          	addi	x0,x0,0
    6d04:	00000013          	addi	x0,x0,0
    6d08:	00000013          	addi	x0,x0,0
    6d0c:	00000013          	addi	x0,x0,0
    6d10:	00000013          	addi	x0,x0,0
    6d14:	00000013          	addi	x0,x0,0
    6d18:	00000013          	addi	x0,x0,0
    6d1c:	00000013          	addi	x0,x0,0
    6d20:	00000013          	addi	x0,x0,0
    6d24:	00000013          	addi	x0,x0,0
    6d28:	00000013          	addi	x0,x0,0
    6d2c:	00000013          	addi	x0,x0,0
    6d30:	00000013          	addi	x0,x0,0
    6d34:	00000013          	addi	x0,x0,0
    6d38:	00000013          	addi	x0,x0,0
    6d3c:	00000013          	addi	x0,x0,0
    6d40:	00000013          	addi	x0,x0,0
    6d44:	00000013          	addi	x0,x0,0
    6d48:	00000013          	addi	x0,x0,0
    6d4c:	00000013          	addi	x0,x0,0
    6d50:	00000013          	addi	x0,x0,0
    6d54:	00000013          	addi	x0,x0,0
    6d58:	00000013          	addi	x0,x0,0
    6d5c:	00000013          	addi	x0,x0,0
    6d60:	00000013          	addi	x0,x0,0
    6d64:	00000013          	addi	x0,x0,0
    6d68:	00000013          	addi	x0,x0,0
    6d6c:	00000013          	addi	x0,x0,0
    6d70:	00000013          	addi	x0,x0,0
    6d74:	00000013          	addi	x0,x0,0
    6d78:	00000013          	addi	x0,x0,0
    6d7c:	00000013          	addi	x0,x0,0
    6d80:	00000013          	addi	x0,x0,0
    6d84:	00000013          	addi	x0,x0,0
    6d88:	00000013          	addi	x0,x0,0
    6d8c:	00000013          	addi	x0,x0,0
    6d90:	00000013          	addi	x0,x0,0
    6d94:	00000013          	addi	x0,x0,0
    6d98:	00000013          	addi	x0,x0,0
    6d9c:	00000013          	addi	x0,x0,0
    6da0:	00000013          	addi	x0,x0,0
    6da4:	00000013          	addi	x0,x0,0
    6da8:	00000013          	addi	x0,x0,0
    6dac:	00000013          	addi	x0,x0,0
    6db0:	00000013          	addi	x0,x0,0
    6db4:	00000013          	addi	x0,x0,0
    6db8:	00000013          	addi	x0,x0,0
    6dbc:	00000013          	addi	x0,x0,0
    6dc0:	00000013          	addi	x0,x0,0
    6dc4:	00000013          	addi	x0,x0,0
    6dc8:	00000013          	addi	x0,x0,0
    6dcc:	00000013          	addi	x0,x0,0
    6dd0:	00000013          	addi	x0,x0,0
    6dd4:	00000013          	addi	x0,x0,0
    6dd8:	00000013          	addi	x0,x0,0
    6ddc:	00000013          	addi	x0,x0,0
    6de0:	00000013          	addi	x0,x0,0
    6de4:	00000013          	addi	x0,x0,0
    6de8:	00000013          	addi	x0,x0,0
    6dec:	00000013          	addi	x0,x0,0
    6df0:	00000013          	addi	x0,x0,0
    6df4:	00000013          	addi	x0,x0,0
    6df8:	00000013          	addi	x0,x0,0
    6dfc:	00000013          	addi	x0,x0,0
    6e00:	00000013          	addi	x0,x0,0
    6e04:	00000013          	addi	x0,x0,0
    6e08:	00000013          	addi	x0,x0,0
    6e0c:	00000013          	addi	x0,x0,0
    6e10:	00000013          	addi	x0,x0,0
    6e14:	00000013          	addi	x0,x0,0
    6e18:	00000013          	addi	x0,x0,0
    6e1c:	00000013          	addi	x0,x0,0
    6e20:	00000013          	addi	x0,x0,0
    6e24:	00000013          	addi	x0,x0,0
    6e28:	00000013          	addi	x0,x0,0
    6e2c:	00000013          	addi	x0,x0,0
    6e30:	00000013          	addi	x0,x0,0
    6e34:	00000013          	addi	x0,x0,0
    6e38:	00000013          	addi	x0,x0,0
    6e3c:	00000013          	addi	x0,x0,0
    6e40:	00000013          	addi	x0,x0,0
    6e44:	00000013          	addi	x0,x0,0
    6e48:	00000013          	addi	x0,x0,0
    6e4c:	00000013          	addi	x0,x0,0
    6e50:	00000013          	addi	x0,x0,0
    6e54:	00000013          	addi	x0,x0,0
    6e58:	00000013          	addi	x0,x0,0
    6e5c:	00000013          	addi	x0,x0,0
    6e60:	00000013          	addi	x0,x0,0
    6e64:	00000013          	addi	x0,x0,0
    6e68:	00000013          	addi	x0,x0,0
    6e6c:	00000013          	addi	x0,x0,0
    6e70:	00000013          	addi	x0,x0,0
    6e74:	00000013          	addi	x0,x0,0
    6e78:	00000013          	addi	x0,x0,0
    6e7c:	00000013          	addi	x0,x0,0
    6e80:	00000013          	addi	x0,x0,0
    6e84:	00000013          	addi	x0,x0,0
    6e88:	00000013          	addi	x0,x0,0
    6e8c:	00000013          	addi	x0,x0,0
    6e90:	00000013          	addi	x0,x0,0
    6e94:	00000013          	addi	x0,x0,0
    6e98:	00000013          	addi	x0,x0,0
    6e9c:	00000013          	addi	x0,x0,0
    6ea0:	00000013          	addi	x0,x0,0
    6ea4:	00000013          	addi	x0,x0,0
    6ea8:	00000013          	addi	x0,x0,0
    6eac:	00000013          	addi	x0,x0,0
    6eb0:	00000013          	addi	x0,x0,0
    6eb4:	00000013          	addi	x0,x0,0
    6eb8:	00000013          	addi	x0,x0,0
    6ebc:	00000013          	addi	x0,x0,0
    6ec0:	00000013          	addi	x0,x0,0
    6ec4:	00000013          	addi	x0,x0,0
    6ec8:	00000013          	addi	x0,x0,0
    6ecc:	00000013          	addi	x0,x0,0
    6ed0:	00000013          	addi	x0,x0,0
    6ed4:	00000013          	addi	x0,x0,0
    6ed8:	00000013          	addi	x0,x0,0
    6edc:	00000013          	addi	x0,x0,0
    6ee0:	00000013          	addi	x0,x0,0
    6ee4:	00000013          	addi	x0,x0,0
    6ee8:	00000013          	addi	x0,x0,0
    6eec:	00000013          	addi	x0,x0,0
    6ef0:	00000013          	addi	x0,x0,0
    6ef4:	00000013          	addi	x0,x0,0
    6ef8:	00000013          	addi	x0,x0,0
    6efc:	00000013          	addi	x0,x0,0
    6f00:	00000013          	addi	x0,x0,0
    6f04:	00000013          	addi	x0,x0,0
    6f08:	00000013          	addi	x0,x0,0
    6f0c:	00000013          	addi	x0,x0,0
    6f10:	00000013          	addi	x0,x0,0
    6f14:	00000013          	addi	x0,x0,0
    6f18:	00000013          	addi	x0,x0,0
    6f1c:	00000013          	addi	x0,x0,0
    6f20:	00000013          	addi	x0,x0,0
    6f24:	00000013          	addi	x0,x0,0
    6f28:	00000013          	addi	x0,x0,0
    6f2c:	00000013          	addi	x0,x0,0
    6f30:	00000013          	addi	x0,x0,0
    6f34:	00000013          	addi	x0,x0,0
    6f38:	00000013          	addi	x0,x0,0
    6f3c:	00000013          	addi	x0,x0,0
    6f40:	00000013          	addi	x0,x0,0
    6f44:	00000013          	addi	x0,x0,0
    6f48:	00000013          	addi	x0,x0,0
    6f4c:	00000013          	addi	x0,x0,0
    6f50:	00000013          	addi	x0,x0,0
    6f54:	00000013          	addi	x0,x0,0
    6f58:	00000013          	addi	x0,x0,0
    6f5c:	00000013          	addi	x0,x0,0
    6f60:	00000013          	addi	x0,x0,0
    6f64:	00000013          	addi	x0,x0,0
    6f68:	00000013          	addi	x0,x0,0
    6f6c:	00000013          	addi	x0,x0,0
    6f70:	00000013          	addi	x0,x0,0
    6f74:	00000013          	addi	x0,x0,0
    6f78:	00000013          	addi	x0,x0,0
    6f7c:	00000013          	addi	x0,x0,0
    6f80:	00000013          	addi	x0,x0,0
    6f84:	00000013          	addi	x0,x0,0
    6f88:	00000013          	addi	x0,x0,0
    6f8c:	00000013          	addi	x0,x0,0
    6f90:	00000013          	addi	x0,x0,0
    6f94:	00000013          	addi	x0,x0,0
    6f98:	00000013          	addi	x0,x0,0
    6f9c:	00000013          	addi	x0,x0,0
    6fa0:	00000013          	addi	x0,x0,0
    6fa4:	00000013          	addi	x0,x0,0
    6fa8:	00000013          	addi	x0,x0,0
    6fac:	00000013          	addi	x0,x0,0
    6fb0:	00000013          	addi	x0,x0,0
    6fb4:	00000013          	addi	x0,x0,0
    6fb8:	00000013          	addi	x0,x0,0
    6fbc:	00000013          	addi	x0,x0,0
    6fc0:	00000013          	addi	x0,x0,0
    6fc4:	00000013          	addi	x0,x0,0
    6fc8:	00000013          	addi	x0,x0,0
    6fcc:	00000013          	addi	x0,x0,0
    6fd0:	00000013          	addi	x0,x0,0
    6fd4:	00000013          	addi	x0,x0,0
    6fd8:	00000013          	addi	x0,x0,0
    6fdc:	00000013          	addi	x0,x0,0
    6fe0:	00000013          	addi	x0,x0,0
    6fe4:	00000013          	addi	x0,x0,0
    6fe8:	00000013          	addi	x0,x0,0
    6fec:	00000013          	addi	x0,x0,0
    6ff0:	00000013          	addi	x0,x0,0
    6ff4:	00000013          	addi	x0,x0,0
    6ff8:	00000013          	addi	x0,x0,0
    6ffc:	00000013          	addi	x0,x0,0

# branch forward by 4092
  .p2align 12 # align to 4096 bytes
  nop # use up 4 bytes
    7000:	00000013          	addi	x0,x0,0
  bge x29, x18, 5f
    7004:	7f2edee3          	bge	x29,x18,8000 <I_bge_cg_cp_imm_edges_branch_all+0x2380>
  addi x19, x19, -128 # shouldn't happen
    7008:	f8098993          	addi	x19,x19,-128
  j 19f # shouldn't happen
    700c:	0000306f          	jal	x0,a00c <I_bge_cg_cp_imm_edges_branch_all+0x438c>
    7010:	00000013          	addi	x0,x0,0
    7014:	00000013          	addi	x0,x0,0
    7018:	00000013          	addi	x0,x0,0
    701c:	00000013          	addi	x0,x0,0
    7020:	00000013          	addi	x0,x0,0
    7024:	00000013          	addi	x0,x0,0
    7028:	00000013          	addi	x0,x0,0
    702c:	00000013          	addi	x0,x0,0
    7030:	00000013          	addi	x0,x0,0
    7034:	00000013          	addi	x0,x0,0
    7038:	00000013          	addi	x0,x0,0
    703c:	00000013          	addi	x0,x0,0
    7040:	00000013          	addi	x0,x0,0
    7044:	00000013          	addi	x0,x0,0
    7048:	00000013          	addi	x0,x0,0
    704c:	00000013          	addi	x0,x0,0
    7050:	00000013          	addi	x0,x0,0
    7054:	00000013          	addi	x0,x0,0
    7058:	00000013          	addi	x0,x0,0
    705c:	00000013          	addi	x0,x0,0
    7060:	00000013          	addi	x0,x0,0
    7064:	00000013          	addi	x0,x0,0
    7068:	00000013          	addi	x0,x0,0
    706c:	00000013          	addi	x0,x0,0
    7070:	00000013          	addi	x0,x0,0
    7074:	00000013          	addi	x0,x0,0
    7078:	00000013          	addi	x0,x0,0
    707c:	00000013          	addi	x0,x0,0
    7080:	00000013          	addi	x0,x0,0
    7084:	00000013          	addi	x0,x0,0
    7088:	00000013          	addi	x0,x0,0
    708c:	00000013          	addi	x0,x0,0
    7090:	00000013          	addi	x0,x0,0
    7094:	00000013          	addi	x0,x0,0
    7098:	00000013          	addi	x0,x0,0
    709c:	00000013          	addi	x0,x0,0
    70a0:	00000013          	addi	x0,x0,0
    70a4:	00000013          	addi	x0,x0,0
    70a8:	00000013          	addi	x0,x0,0
    70ac:	00000013          	addi	x0,x0,0
    70b0:	00000013          	addi	x0,x0,0
    70b4:	00000013          	addi	x0,x0,0
    70b8:	00000013          	addi	x0,x0,0
    70bc:	00000013          	addi	x0,x0,0
    70c0:	00000013          	addi	x0,x0,0
    70c4:	00000013          	addi	x0,x0,0
    70c8:	00000013          	addi	x0,x0,0
    70cc:	00000013          	addi	x0,x0,0
    70d0:	00000013          	addi	x0,x0,0
    70d4:	00000013          	addi	x0,x0,0
    70d8:	00000013          	addi	x0,x0,0
    70dc:	00000013          	addi	x0,x0,0
    70e0:	00000013          	addi	x0,x0,0
    70e4:	00000013          	addi	x0,x0,0
    70e8:	00000013          	addi	x0,x0,0
    70ec:	00000013          	addi	x0,x0,0
    70f0:	00000013          	addi	x0,x0,0
    70f4:	00000013          	addi	x0,x0,0
    70f8:	00000013          	addi	x0,x0,0
    70fc:	00000013          	addi	x0,x0,0
    7100:	00000013          	addi	x0,x0,0
    7104:	00000013          	addi	x0,x0,0
    7108:	00000013          	addi	x0,x0,0
    710c:	00000013          	addi	x0,x0,0
    7110:	00000013          	addi	x0,x0,0
    7114:	00000013          	addi	x0,x0,0
    7118:	00000013          	addi	x0,x0,0
    711c:	00000013          	addi	x0,x0,0
    7120:	00000013          	addi	x0,x0,0
    7124:	00000013          	addi	x0,x0,0
    7128:	00000013          	addi	x0,x0,0
    712c:	00000013          	addi	x0,x0,0
    7130:	00000013          	addi	x0,x0,0
    7134:	00000013          	addi	x0,x0,0
    7138:	00000013          	addi	x0,x0,0
    713c:	00000013          	addi	x0,x0,0
    7140:	00000013          	addi	x0,x0,0
    7144:	00000013          	addi	x0,x0,0
    7148:	00000013          	addi	x0,x0,0
    714c:	00000013          	addi	x0,x0,0
    7150:	00000013          	addi	x0,x0,0
    7154:	00000013          	addi	x0,x0,0
    7158:	00000013          	addi	x0,x0,0
    715c:	00000013          	addi	x0,x0,0
    7160:	00000013          	addi	x0,x0,0
    7164:	00000013          	addi	x0,x0,0
    7168:	00000013          	addi	x0,x0,0
    716c:	00000013          	addi	x0,x0,0
    7170:	00000013          	addi	x0,x0,0
    7174:	00000013          	addi	x0,x0,0
    7178:	00000013          	addi	x0,x0,0
    717c:	00000013          	addi	x0,x0,0
    7180:	00000013          	addi	x0,x0,0
    7184:	00000013          	addi	x0,x0,0
    7188:	00000013          	addi	x0,x0,0
    718c:	00000013          	addi	x0,x0,0
    7190:	00000013          	addi	x0,x0,0
    7194:	00000013          	addi	x0,x0,0
    7198:	00000013          	addi	x0,x0,0
    719c:	00000013          	addi	x0,x0,0
    71a0:	00000013          	addi	x0,x0,0
    71a4:	00000013          	addi	x0,x0,0
    71a8:	00000013          	addi	x0,x0,0
    71ac:	00000013          	addi	x0,x0,0
    71b0:	00000013          	addi	x0,x0,0
    71b4:	00000013          	addi	x0,x0,0
    71b8:	00000013          	addi	x0,x0,0
    71bc:	00000013          	addi	x0,x0,0
    71c0:	00000013          	addi	x0,x0,0
    71c4:	00000013          	addi	x0,x0,0
    71c8:	00000013          	addi	x0,x0,0
    71cc:	00000013          	addi	x0,x0,0
    71d0:	00000013          	addi	x0,x0,0
    71d4:	00000013          	addi	x0,x0,0
    71d8:	00000013          	addi	x0,x0,0
    71dc:	00000013          	addi	x0,x0,0
    71e0:	00000013          	addi	x0,x0,0
    71e4:	00000013          	addi	x0,x0,0
    71e8:	00000013          	addi	x0,x0,0
    71ec:	00000013          	addi	x0,x0,0
    71f0:	00000013          	addi	x0,x0,0
    71f4:	00000013          	addi	x0,x0,0
    71f8:	00000013          	addi	x0,x0,0
    71fc:	00000013          	addi	x0,x0,0
    7200:	00000013          	addi	x0,x0,0
    7204:	00000013          	addi	x0,x0,0
    7208:	00000013          	addi	x0,x0,0
    720c:	00000013          	addi	x0,x0,0
    7210:	00000013          	addi	x0,x0,0
    7214:	00000013          	addi	x0,x0,0
    7218:	00000013          	addi	x0,x0,0
    721c:	00000013          	addi	x0,x0,0
    7220:	00000013          	addi	x0,x0,0
    7224:	00000013          	addi	x0,x0,0
    7228:	00000013          	addi	x0,x0,0
    722c:	00000013          	addi	x0,x0,0
    7230:	00000013          	addi	x0,x0,0
    7234:	00000013          	addi	x0,x0,0
    7238:	00000013          	addi	x0,x0,0
    723c:	00000013          	addi	x0,x0,0
    7240:	00000013          	addi	x0,x0,0
    7244:	00000013          	addi	x0,x0,0
    7248:	00000013          	addi	x0,x0,0
    724c:	00000013          	addi	x0,x0,0
    7250:	00000013          	addi	x0,x0,0
    7254:	00000013          	addi	x0,x0,0
    7258:	00000013          	addi	x0,x0,0
    725c:	00000013          	addi	x0,x0,0
    7260:	00000013          	addi	x0,x0,0
    7264:	00000013          	addi	x0,x0,0
    7268:	00000013          	addi	x0,x0,0
    726c:	00000013          	addi	x0,x0,0
    7270:	00000013          	addi	x0,x0,0
    7274:	00000013          	addi	x0,x0,0
    7278:	00000013          	addi	x0,x0,0
    727c:	00000013          	addi	x0,x0,0
    7280:	00000013          	addi	x0,x0,0
    7284:	00000013          	addi	x0,x0,0
    7288:	00000013          	addi	x0,x0,0
    728c:	00000013          	addi	x0,x0,0
    7290:	00000013          	addi	x0,x0,0
    7294:	00000013          	addi	x0,x0,0
    7298:	00000013          	addi	x0,x0,0
    729c:	00000013          	addi	x0,x0,0
    72a0:	00000013          	addi	x0,x0,0
    72a4:	00000013          	addi	x0,x0,0
    72a8:	00000013          	addi	x0,x0,0
    72ac:	00000013          	addi	x0,x0,0
    72b0:	00000013          	addi	x0,x0,0
    72b4:	00000013          	addi	x0,x0,0
    72b8:	00000013          	addi	x0,x0,0
    72bc:	00000013          	addi	x0,x0,0
    72c0:	00000013          	addi	x0,x0,0
    72c4:	00000013          	addi	x0,x0,0
    72c8:	00000013          	addi	x0,x0,0
    72cc:	00000013          	addi	x0,x0,0
    72d0:	00000013          	addi	x0,x0,0
    72d4:	00000013          	addi	x0,x0,0
    72d8:	00000013          	addi	x0,x0,0
    72dc:	00000013          	addi	x0,x0,0
    72e0:	00000013          	addi	x0,x0,0
    72e4:	00000013          	addi	x0,x0,0
    72e8:	00000013          	addi	x0,x0,0
    72ec:	00000013          	addi	x0,x0,0
    72f0:	00000013          	addi	x0,x0,0
    72f4:	00000013          	addi	x0,x0,0
    72f8:	00000013          	addi	x0,x0,0
    72fc:	00000013          	addi	x0,x0,0
    7300:	00000013          	addi	x0,x0,0
    7304:	00000013          	addi	x0,x0,0
    7308:	00000013          	addi	x0,x0,0
    730c:	00000013          	addi	x0,x0,0
    7310:	00000013          	addi	x0,x0,0
    7314:	00000013          	addi	x0,x0,0
    7318:	00000013          	addi	x0,x0,0
    731c:	00000013          	addi	x0,x0,0
    7320:	00000013          	addi	x0,x0,0
    7324:	00000013          	addi	x0,x0,0
    7328:	00000013          	addi	x0,x0,0
    732c:	00000013          	addi	x0,x0,0
    7330:	00000013          	addi	x0,x0,0
    7334:	00000013          	addi	x0,x0,0
    7338:	00000013          	addi	x0,x0,0
    733c:	00000013          	addi	x0,x0,0
    7340:	00000013          	addi	x0,x0,0
    7344:	00000013          	addi	x0,x0,0
    7348:	00000013          	addi	x0,x0,0
    734c:	00000013          	addi	x0,x0,0
    7350:	00000013          	addi	x0,x0,0
    7354:	00000013          	addi	x0,x0,0
    7358:	00000013          	addi	x0,x0,0
    735c:	00000013          	addi	x0,x0,0
    7360:	00000013          	addi	x0,x0,0
    7364:	00000013          	addi	x0,x0,0
    7368:	00000013          	addi	x0,x0,0
    736c:	00000013          	addi	x0,x0,0
    7370:	00000013          	addi	x0,x0,0
    7374:	00000013          	addi	x0,x0,0
    7378:	00000013          	addi	x0,x0,0
    737c:	00000013          	addi	x0,x0,0
    7380:	00000013          	addi	x0,x0,0
    7384:	00000013          	addi	x0,x0,0
    7388:	00000013          	addi	x0,x0,0
    738c:	00000013          	addi	x0,x0,0
    7390:	00000013          	addi	x0,x0,0
    7394:	00000013          	addi	x0,x0,0
    7398:	00000013          	addi	x0,x0,0
    739c:	00000013          	addi	x0,x0,0
    73a0:	00000013          	addi	x0,x0,0
    73a4:	00000013          	addi	x0,x0,0
    73a8:	00000013          	addi	x0,x0,0
    73ac:	00000013          	addi	x0,x0,0
    73b0:	00000013          	addi	x0,x0,0
    73b4:	00000013          	addi	x0,x0,0
    73b8:	00000013          	addi	x0,x0,0
    73bc:	00000013          	addi	x0,x0,0
    73c0:	00000013          	addi	x0,x0,0
    73c4:	00000013          	addi	x0,x0,0
    73c8:	00000013          	addi	x0,x0,0
    73cc:	00000013          	addi	x0,x0,0
    73d0:	00000013          	addi	x0,x0,0
    73d4:	00000013          	addi	x0,x0,0
    73d8:	00000013          	addi	x0,x0,0
    73dc:	00000013          	addi	x0,x0,0
    73e0:	00000013          	addi	x0,x0,0
    73e4:	00000013          	addi	x0,x0,0
    73e8:	00000013          	addi	x0,x0,0
    73ec:	00000013          	addi	x0,x0,0
    73f0:	00000013          	addi	x0,x0,0
    73f4:	00000013          	addi	x0,x0,0
    73f8:	00000013          	addi	x0,x0,0
    73fc:	00000013          	addi	x0,x0,0
    7400:	00000013          	addi	x0,x0,0
    7404:	00000013          	addi	x0,x0,0
    7408:	00000013          	addi	x0,x0,0
    740c:	00000013          	addi	x0,x0,0
    7410:	00000013          	addi	x0,x0,0
    7414:	00000013          	addi	x0,x0,0
    7418:	00000013          	addi	x0,x0,0
    741c:	00000013          	addi	x0,x0,0
    7420:	00000013          	addi	x0,x0,0
    7424:	00000013          	addi	x0,x0,0
    7428:	00000013          	addi	x0,x0,0
    742c:	00000013          	addi	x0,x0,0
    7430:	00000013          	addi	x0,x0,0
    7434:	00000013          	addi	x0,x0,0
    7438:	00000013          	addi	x0,x0,0
    743c:	00000013          	addi	x0,x0,0
    7440:	00000013          	addi	x0,x0,0
    7444:	00000013          	addi	x0,x0,0
    7448:	00000013          	addi	x0,x0,0
    744c:	00000013          	addi	x0,x0,0
    7450:	00000013          	addi	x0,x0,0
    7454:	00000013          	addi	x0,x0,0
    7458:	00000013          	addi	x0,x0,0
    745c:	00000013          	addi	x0,x0,0
    7460:	00000013          	addi	x0,x0,0
    7464:	00000013          	addi	x0,x0,0
    7468:	00000013          	addi	x0,x0,0
    746c:	00000013          	addi	x0,x0,0
    7470:	00000013          	addi	x0,x0,0
    7474:	00000013          	addi	x0,x0,0
    7478:	00000013          	addi	x0,x0,0
    747c:	00000013          	addi	x0,x0,0
    7480:	00000013          	addi	x0,x0,0
    7484:	00000013          	addi	x0,x0,0
    7488:	00000013          	addi	x0,x0,0
    748c:	00000013          	addi	x0,x0,0
    7490:	00000013          	addi	x0,x0,0
    7494:	00000013          	addi	x0,x0,0
    7498:	00000013          	addi	x0,x0,0
    749c:	00000013          	addi	x0,x0,0
    74a0:	00000013          	addi	x0,x0,0
    74a4:	00000013          	addi	x0,x0,0
    74a8:	00000013          	addi	x0,x0,0
    74ac:	00000013          	addi	x0,x0,0
    74b0:	00000013          	addi	x0,x0,0
    74b4:	00000013          	addi	x0,x0,0
    74b8:	00000013          	addi	x0,x0,0
    74bc:	00000013          	addi	x0,x0,0
    74c0:	00000013          	addi	x0,x0,0
    74c4:	00000013          	addi	x0,x0,0
    74c8:	00000013          	addi	x0,x0,0
    74cc:	00000013          	addi	x0,x0,0
    74d0:	00000013          	addi	x0,x0,0
    74d4:	00000013          	addi	x0,x0,0
    74d8:	00000013          	addi	x0,x0,0
    74dc:	00000013          	addi	x0,x0,0
    74e0:	00000013          	addi	x0,x0,0
    74e4:	00000013          	addi	x0,x0,0
    74e8:	00000013          	addi	x0,x0,0
    74ec:	00000013          	addi	x0,x0,0
    74f0:	00000013          	addi	x0,x0,0
    74f4:	00000013          	addi	x0,x0,0
    74f8:	00000013          	addi	x0,x0,0
    74fc:	00000013          	addi	x0,x0,0
    7500:	00000013          	addi	x0,x0,0
    7504:	00000013          	addi	x0,x0,0
    7508:	00000013          	addi	x0,x0,0
    750c:	00000013          	addi	x0,x0,0
    7510:	00000013          	addi	x0,x0,0
    7514:	00000013          	addi	x0,x0,0
    7518:	00000013          	addi	x0,x0,0
    751c:	00000013          	addi	x0,x0,0
    7520:	00000013          	addi	x0,x0,0
    7524:	00000013          	addi	x0,x0,0
    7528:	00000013          	addi	x0,x0,0
    752c:	00000013          	addi	x0,x0,0
    7530:	00000013          	addi	x0,x0,0
    7534:	00000013          	addi	x0,x0,0
    7538:	00000013          	addi	x0,x0,0
    753c:	00000013          	addi	x0,x0,0
    7540:	00000013          	addi	x0,x0,0
    7544:	00000013          	addi	x0,x0,0
    7548:	00000013          	addi	x0,x0,0
    754c:	00000013          	addi	x0,x0,0
    7550:	00000013          	addi	x0,x0,0
    7554:	00000013          	addi	x0,x0,0
    7558:	00000013          	addi	x0,x0,0
    755c:	00000013          	addi	x0,x0,0
    7560:	00000013          	addi	x0,x0,0
    7564:	00000013          	addi	x0,x0,0
    7568:	00000013          	addi	x0,x0,0
    756c:	00000013          	addi	x0,x0,0
    7570:	00000013          	addi	x0,x0,0
    7574:	00000013          	addi	x0,x0,0
    7578:	00000013          	addi	x0,x0,0
    757c:	00000013          	addi	x0,x0,0
    7580:	00000013          	addi	x0,x0,0
    7584:	00000013          	addi	x0,x0,0
    7588:	00000013          	addi	x0,x0,0
    758c:	00000013          	addi	x0,x0,0
    7590:	00000013          	addi	x0,x0,0
    7594:	00000013          	addi	x0,x0,0
    7598:	00000013          	addi	x0,x0,0
    759c:	00000013          	addi	x0,x0,0
    75a0:	00000013          	addi	x0,x0,0
    75a4:	00000013          	addi	x0,x0,0
    75a8:	00000013          	addi	x0,x0,0
    75ac:	00000013          	addi	x0,x0,0
    75b0:	00000013          	addi	x0,x0,0
    75b4:	00000013          	addi	x0,x0,0
    75b8:	00000013          	addi	x0,x0,0
    75bc:	00000013          	addi	x0,x0,0
    75c0:	00000013          	addi	x0,x0,0
    75c4:	00000013          	addi	x0,x0,0
    75c8:	00000013          	addi	x0,x0,0
    75cc:	00000013          	addi	x0,x0,0
    75d0:	00000013          	addi	x0,x0,0
    75d4:	00000013          	addi	x0,x0,0
    75d8:	00000013          	addi	x0,x0,0
    75dc:	00000013          	addi	x0,x0,0
    75e0:	00000013          	addi	x0,x0,0
    75e4:	00000013          	addi	x0,x0,0
    75e8:	00000013          	addi	x0,x0,0
    75ec:	00000013          	addi	x0,x0,0
    75f0:	00000013          	addi	x0,x0,0
    75f4:	00000013          	addi	x0,x0,0
    75f8:	00000013          	addi	x0,x0,0
    75fc:	00000013          	addi	x0,x0,0
    7600:	00000013          	addi	x0,x0,0
    7604:	00000013          	addi	x0,x0,0
    7608:	00000013          	addi	x0,x0,0
    760c:	00000013          	addi	x0,x0,0
    7610:	00000013          	addi	x0,x0,0
    7614:	00000013          	addi	x0,x0,0
    7618:	00000013          	addi	x0,x0,0
    761c:	00000013          	addi	x0,x0,0
    7620:	00000013          	addi	x0,x0,0
    7624:	00000013          	addi	x0,x0,0
    7628:	00000013          	addi	x0,x0,0
    762c:	00000013          	addi	x0,x0,0
    7630:	00000013          	addi	x0,x0,0
    7634:	00000013          	addi	x0,x0,0
    7638:	00000013          	addi	x0,x0,0
    763c:	00000013          	addi	x0,x0,0
    7640:	00000013          	addi	x0,x0,0
    7644:	00000013          	addi	x0,x0,0
    7648:	00000013          	addi	x0,x0,0
    764c:	00000013          	addi	x0,x0,0
    7650:	00000013          	addi	x0,x0,0
    7654:	00000013          	addi	x0,x0,0
    7658:	00000013          	addi	x0,x0,0
    765c:	00000013          	addi	x0,x0,0
    7660:	00000013          	addi	x0,x0,0
    7664:	00000013          	addi	x0,x0,0
    7668:	00000013          	addi	x0,x0,0
    766c:	00000013          	addi	x0,x0,0
    7670:	00000013          	addi	x0,x0,0
    7674:	00000013          	addi	x0,x0,0
    7678:	00000013          	addi	x0,x0,0
    767c:	00000013          	addi	x0,x0,0
    7680:	00000013          	addi	x0,x0,0
    7684:	00000013          	addi	x0,x0,0
    7688:	00000013          	addi	x0,x0,0
    768c:	00000013          	addi	x0,x0,0
    7690:	00000013          	addi	x0,x0,0
    7694:	00000013          	addi	x0,x0,0
    7698:	00000013          	addi	x0,x0,0
    769c:	00000013          	addi	x0,x0,0
    76a0:	00000013          	addi	x0,x0,0
    76a4:	00000013          	addi	x0,x0,0
    76a8:	00000013          	addi	x0,x0,0
    76ac:	00000013          	addi	x0,x0,0
    76b0:	00000013          	addi	x0,x0,0
    76b4:	00000013          	addi	x0,x0,0
    76b8:	00000013          	addi	x0,x0,0
    76bc:	00000013          	addi	x0,x0,0
    76c0:	00000013          	addi	x0,x0,0
    76c4:	00000013          	addi	x0,x0,0
    76c8:	00000013          	addi	x0,x0,0
    76cc:	00000013          	addi	x0,x0,0
    76d0:	00000013          	addi	x0,x0,0
    76d4:	00000013          	addi	x0,x0,0
    76d8:	00000013          	addi	x0,x0,0
    76dc:	00000013          	addi	x0,x0,0
    76e0:	00000013          	addi	x0,x0,0
    76e4:	00000013          	addi	x0,x0,0
    76e8:	00000013          	addi	x0,x0,0
    76ec:	00000013          	addi	x0,x0,0
    76f0:	00000013          	addi	x0,x0,0
    76f4:	00000013          	addi	x0,x0,0
    76f8:	00000013          	addi	x0,x0,0
    76fc:	00000013          	addi	x0,x0,0
    7700:	00000013          	addi	x0,x0,0
    7704:	00000013          	addi	x0,x0,0
    7708:	00000013          	addi	x0,x0,0
    770c:	00000013          	addi	x0,x0,0
    7710:	00000013          	addi	x0,x0,0
    7714:	00000013          	addi	x0,x0,0
    7718:	00000013          	addi	x0,x0,0
    771c:	00000013          	addi	x0,x0,0
    7720:	00000013          	addi	x0,x0,0
    7724:	00000013          	addi	x0,x0,0
    7728:	00000013          	addi	x0,x0,0
    772c:	00000013          	addi	x0,x0,0
    7730:	00000013          	addi	x0,x0,0
    7734:	00000013          	addi	x0,x0,0
    7738:	00000013          	addi	x0,x0,0
    773c:	00000013          	addi	x0,x0,0
    7740:	00000013          	addi	x0,x0,0
    7744:	00000013          	addi	x0,x0,0
    7748:	00000013          	addi	x0,x0,0
    774c:	00000013          	addi	x0,x0,0
    7750:	00000013          	addi	x0,x0,0
    7754:	00000013          	addi	x0,x0,0
    7758:	00000013          	addi	x0,x0,0
    775c:	00000013          	addi	x0,x0,0
    7760:	00000013          	addi	x0,x0,0
    7764:	00000013          	addi	x0,x0,0
    7768:	00000013          	addi	x0,x0,0
    776c:	00000013          	addi	x0,x0,0
    7770:	00000013          	addi	x0,x0,0
    7774:	00000013          	addi	x0,x0,0
    7778:	00000013          	addi	x0,x0,0
    777c:	00000013          	addi	x0,x0,0
    7780:	00000013          	addi	x0,x0,0
    7784:	00000013          	addi	x0,x0,0
    7788:	00000013          	addi	x0,x0,0
    778c:	00000013          	addi	x0,x0,0
    7790:	00000013          	addi	x0,x0,0
    7794:	00000013          	addi	x0,x0,0
    7798:	00000013          	addi	x0,x0,0
    779c:	00000013          	addi	x0,x0,0
    77a0:	00000013          	addi	x0,x0,0
    77a4:	00000013          	addi	x0,x0,0
    77a8:	00000013          	addi	x0,x0,0
    77ac:	00000013          	addi	x0,x0,0
    77b0:	00000013          	addi	x0,x0,0
    77b4:	00000013          	addi	x0,x0,0
    77b8:	00000013          	addi	x0,x0,0
    77bc:	00000013          	addi	x0,x0,0
    77c0:	00000013          	addi	x0,x0,0
    77c4:	00000013          	addi	x0,x0,0
    77c8:	00000013          	addi	x0,x0,0
    77cc:	00000013          	addi	x0,x0,0
    77d0:	00000013          	addi	x0,x0,0
    77d4:	00000013          	addi	x0,x0,0
    77d8:	00000013          	addi	x0,x0,0
    77dc:	00000013          	addi	x0,x0,0
    77e0:	00000013          	addi	x0,x0,0
    77e4:	00000013          	addi	x0,x0,0
    77e8:	00000013          	addi	x0,x0,0
    77ec:	00000013          	addi	x0,x0,0
    77f0:	00000013          	addi	x0,x0,0
    77f4:	00000013          	addi	x0,x0,0
    77f8:	00000013          	addi	x0,x0,0
    77fc:	00000013          	addi	x0,x0,0
    7800:	00000013          	addi	x0,x0,0
    7804:	00000013          	addi	x0,x0,0
    7808:	00000013          	addi	x0,x0,0
    780c:	00000013          	addi	x0,x0,0
    7810:	00000013          	addi	x0,x0,0
    7814:	00000013          	addi	x0,x0,0
    7818:	00000013          	addi	x0,x0,0
    781c:	00000013          	addi	x0,x0,0
    7820:	00000013          	addi	x0,x0,0
    7824:	00000013          	addi	x0,x0,0
    7828:	00000013          	addi	x0,x0,0
    782c:	00000013          	addi	x0,x0,0
    7830:	00000013          	addi	x0,x0,0
    7834:	00000013          	addi	x0,x0,0
    7838:	00000013          	addi	x0,x0,0
    783c:	00000013          	addi	x0,x0,0
    7840:	00000013          	addi	x0,x0,0
    7844:	00000013          	addi	x0,x0,0
    7848:	00000013          	addi	x0,x0,0
    784c:	00000013          	addi	x0,x0,0
    7850:	00000013          	addi	x0,x0,0
    7854:	00000013          	addi	x0,x0,0
    7858:	00000013          	addi	x0,x0,0
    785c:	00000013          	addi	x0,x0,0
    7860:	00000013          	addi	x0,x0,0
    7864:	00000013          	addi	x0,x0,0
    7868:	00000013          	addi	x0,x0,0
    786c:	00000013          	addi	x0,x0,0
    7870:	00000013          	addi	x0,x0,0
    7874:	00000013          	addi	x0,x0,0
    7878:	00000013          	addi	x0,x0,0
    787c:	00000013          	addi	x0,x0,0
    7880:	00000013          	addi	x0,x0,0
    7884:	00000013          	addi	x0,x0,0
    7888:	00000013          	addi	x0,x0,0
    788c:	00000013          	addi	x0,x0,0
    7890:	00000013          	addi	x0,x0,0
    7894:	00000013          	addi	x0,x0,0
    7898:	00000013          	addi	x0,x0,0
    789c:	00000013          	addi	x0,x0,0
    78a0:	00000013          	addi	x0,x0,0
    78a4:	00000013          	addi	x0,x0,0
    78a8:	00000013          	addi	x0,x0,0
    78ac:	00000013          	addi	x0,x0,0
    78b0:	00000013          	addi	x0,x0,0
    78b4:	00000013          	addi	x0,x0,0
    78b8:	00000013          	addi	x0,x0,0
    78bc:	00000013          	addi	x0,x0,0
    78c0:	00000013          	addi	x0,x0,0
    78c4:	00000013          	addi	x0,x0,0
    78c8:	00000013          	addi	x0,x0,0
    78cc:	00000013          	addi	x0,x0,0
    78d0:	00000013          	addi	x0,x0,0
    78d4:	00000013          	addi	x0,x0,0
    78d8:	00000013          	addi	x0,x0,0
    78dc:	00000013          	addi	x0,x0,0
    78e0:	00000013          	addi	x0,x0,0
    78e4:	00000013          	addi	x0,x0,0
    78e8:	00000013          	addi	x0,x0,0
    78ec:	00000013          	addi	x0,x0,0
    78f0:	00000013          	addi	x0,x0,0
    78f4:	00000013          	addi	x0,x0,0
    78f8:	00000013          	addi	x0,x0,0
    78fc:	00000013          	addi	x0,x0,0
    7900:	00000013          	addi	x0,x0,0
    7904:	00000013          	addi	x0,x0,0
    7908:	00000013          	addi	x0,x0,0
    790c:	00000013          	addi	x0,x0,0
    7910:	00000013          	addi	x0,x0,0
    7914:	00000013          	addi	x0,x0,0
    7918:	00000013          	addi	x0,x0,0
    791c:	00000013          	addi	x0,x0,0
    7920:	00000013          	addi	x0,x0,0
    7924:	00000013          	addi	x0,x0,0
    7928:	00000013          	addi	x0,x0,0
    792c:	00000013          	addi	x0,x0,0
    7930:	00000013          	addi	x0,x0,0
    7934:	00000013          	addi	x0,x0,0
    7938:	00000013          	addi	x0,x0,0
    793c:	00000013          	addi	x0,x0,0
    7940:	00000013          	addi	x0,x0,0
    7944:	00000013          	addi	x0,x0,0
    7948:	00000013          	addi	x0,x0,0
    794c:	00000013          	addi	x0,x0,0
    7950:	00000013          	addi	x0,x0,0
    7954:	00000013          	addi	x0,x0,0
    7958:	00000013          	addi	x0,x0,0
    795c:	00000013          	addi	x0,x0,0
    7960:	00000013          	addi	x0,x0,0
    7964:	00000013          	addi	x0,x0,0
    7968:	00000013          	addi	x0,x0,0
    796c:	00000013          	addi	x0,x0,0
    7970:	00000013          	addi	x0,x0,0
    7974:	00000013          	addi	x0,x0,0
    7978:	00000013          	addi	x0,x0,0
    797c:	00000013          	addi	x0,x0,0
    7980:	00000013          	addi	x0,x0,0
    7984:	00000013          	addi	x0,x0,0
    7988:	00000013          	addi	x0,x0,0
    798c:	00000013          	addi	x0,x0,0
    7990:	00000013          	addi	x0,x0,0
    7994:	00000013          	addi	x0,x0,0
    7998:	00000013          	addi	x0,x0,0
    799c:	00000013          	addi	x0,x0,0
    79a0:	00000013          	addi	x0,x0,0
    79a4:	00000013          	addi	x0,x0,0
    79a8:	00000013          	addi	x0,x0,0
    79ac:	00000013          	addi	x0,x0,0
    79b0:	00000013          	addi	x0,x0,0
    79b4:	00000013          	addi	x0,x0,0
    79b8:	00000013          	addi	x0,x0,0
    79bc:	00000013          	addi	x0,x0,0
    79c0:	00000013          	addi	x0,x0,0
    79c4:	00000013          	addi	x0,x0,0
    79c8:	00000013          	addi	x0,x0,0
    79cc:	00000013          	addi	x0,x0,0
    79d0:	00000013          	addi	x0,x0,0
    79d4:	00000013          	addi	x0,x0,0
    79d8:	00000013          	addi	x0,x0,0
    79dc:	00000013          	addi	x0,x0,0
    79e0:	00000013          	addi	x0,x0,0
    79e4:	00000013          	addi	x0,x0,0
    79e8:	00000013          	addi	x0,x0,0
    79ec:	00000013          	addi	x0,x0,0
    79f0:	00000013          	addi	x0,x0,0
    79f4:	00000013          	addi	x0,x0,0
    79f8:	00000013          	addi	x0,x0,0
    79fc:	00000013          	addi	x0,x0,0
    7a00:	00000013          	addi	x0,x0,0
    7a04:	00000013          	addi	x0,x0,0
    7a08:	00000013          	addi	x0,x0,0
    7a0c:	00000013          	addi	x0,x0,0
    7a10:	00000013          	addi	x0,x0,0
    7a14:	00000013          	addi	x0,x0,0
    7a18:	00000013          	addi	x0,x0,0
    7a1c:	00000013          	addi	x0,x0,0
    7a20:	00000013          	addi	x0,x0,0
    7a24:	00000013          	addi	x0,x0,0
    7a28:	00000013          	addi	x0,x0,0
    7a2c:	00000013          	addi	x0,x0,0
    7a30:	00000013          	addi	x0,x0,0
    7a34:	00000013          	addi	x0,x0,0
    7a38:	00000013          	addi	x0,x0,0
    7a3c:	00000013          	addi	x0,x0,0
    7a40:	00000013          	addi	x0,x0,0
    7a44:	00000013          	addi	x0,x0,0
    7a48:	00000013          	addi	x0,x0,0
    7a4c:	00000013          	addi	x0,x0,0
    7a50:	00000013          	addi	x0,x0,0
    7a54:	00000013          	addi	x0,x0,0
    7a58:	00000013          	addi	x0,x0,0
    7a5c:	00000013          	addi	x0,x0,0
    7a60:	00000013          	addi	x0,x0,0
    7a64:	00000013          	addi	x0,x0,0
    7a68:	00000013          	addi	x0,x0,0
    7a6c:	00000013          	addi	x0,x0,0
    7a70:	00000013          	addi	x0,x0,0
    7a74:	00000013          	addi	x0,x0,0
    7a78:	00000013          	addi	x0,x0,0
    7a7c:	00000013          	addi	x0,x0,0
    7a80:	00000013          	addi	x0,x0,0
    7a84:	00000013          	addi	x0,x0,0
    7a88:	00000013          	addi	x0,x0,0
    7a8c:	00000013          	addi	x0,x0,0
    7a90:	00000013          	addi	x0,x0,0
    7a94:	00000013          	addi	x0,x0,0
    7a98:	00000013          	addi	x0,x0,0
    7a9c:	00000013          	addi	x0,x0,0
    7aa0:	00000013          	addi	x0,x0,0
    7aa4:	00000013          	addi	x0,x0,0
    7aa8:	00000013          	addi	x0,x0,0
    7aac:	00000013          	addi	x0,x0,0
    7ab0:	00000013          	addi	x0,x0,0
    7ab4:	00000013          	addi	x0,x0,0
    7ab8:	00000013          	addi	x0,x0,0
    7abc:	00000013          	addi	x0,x0,0
    7ac0:	00000013          	addi	x0,x0,0
    7ac4:	00000013          	addi	x0,x0,0
    7ac8:	00000013          	addi	x0,x0,0
    7acc:	00000013          	addi	x0,x0,0
    7ad0:	00000013          	addi	x0,x0,0
    7ad4:	00000013          	addi	x0,x0,0
    7ad8:	00000013          	addi	x0,x0,0
    7adc:	00000013          	addi	x0,x0,0
    7ae0:	00000013          	addi	x0,x0,0
    7ae4:	00000013          	addi	x0,x0,0
    7ae8:	00000013          	addi	x0,x0,0
    7aec:	00000013          	addi	x0,x0,0
    7af0:	00000013          	addi	x0,x0,0
    7af4:	00000013          	addi	x0,x0,0
    7af8:	00000013          	addi	x0,x0,0
    7afc:	00000013          	addi	x0,x0,0
    7b00:	00000013          	addi	x0,x0,0
    7b04:	00000013          	addi	x0,x0,0
    7b08:	00000013          	addi	x0,x0,0
    7b0c:	00000013          	addi	x0,x0,0
    7b10:	00000013          	addi	x0,x0,0
    7b14:	00000013          	addi	x0,x0,0
    7b18:	00000013          	addi	x0,x0,0
    7b1c:	00000013          	addi	x0,x0,0
    7b20:	00000013          	addi	x0,x0,0
    7b24:	00000013          	addi	x0,x0,0
    7b28:	00000013          	addi	x0,x0,0
    7b2c:	00000013          	addi	x0,x0,0
    7b30:	00000013          	addi	x0,x0,0
    7b34:	00000013          	addi	x0,x0,0
    7b38:	00000013          	addi	x0,x0,0
    7b3c:	00000013          	addi	x0,x0,0
    7b40:	00000013          	addi	x0,x0,0
    7b44:	00000013          	addi	x0,x0,0
    7b48:	00000013          	addi	x0,x0,0
    7b4c:	00000013          	addi	x0,x0,0
    7b50:	00000013          	addi	x0,x0,0
    7b54:	00000013          	addi	x0,x0,0
    7b58:	00000013          	addi	x0,x0,0
    7b5c:	00000013          	addi	x0,x0,0
    7b60:	00000013          	addi	x0,x0,0
    7b64:	00000013          	addi	x0,x0,0
    7b68:	00000013          	addi	x0,x0,0
    7b6c:	00000013          	addi	x0,x0,0
    7b70:	00000013          	addi	x0,x0,0
    7b74:	00000013          	addi	x0,x0,0
    7b78:	00000013          	addi	x0,x0,0
    7b7c:	00000013          	addi	x0,x0,0
    7b80:	00000013          	addi	x0,x0,0
    7b84:	00000013          	addi	x0,x0,0
    7b88:	00000013          	addi	x0,x0,0
    7b8c:	00000013          	addi	x0,x0,0
    7b90:	00000013          	addi	x0,x0,0
    7b94:	00000013          	addi	x0,x0,0
    7b98:	00000013          	addi	x0,x0,0
    7b9c:	00000013          	addi	x0,x0,0
    7ba0:	00000013          	addi	x0,x0,0
    7ba4:	00000013          	addi	x0,x0,0
    7ba8:	00000013          	addi	x0,x0,0
    7bac:	00000013          	addi	x0,x0,0
    7bb0:	00000013          	addi	x0,x0,0
    7bb4:	00000013          	addi	x0,x0,0
    7bb8:	00000013          	addi	x0,x0,0
    7bbc:	00000013          	addi	x0,x0,0
    7bc0:	00000013          	addi	x0,x0,0
    7bc4:	00000013          	addi	x0,x0,0
    7bc8:	00000013          	addi	x0,x0,0
    7bcc:	00000013          	addi	x0,x0,0
    7bd0:	00000013          	addi	x0,x0,0
    7bd4:	00000013          	addi	x0,x0,0
    7bd8:	00000013          	addi	x0,x0,0
    7bdc:	00000013          	addi	x0,x0,0
    7be0:	00000013          	addi	x0,x0,0
    7be4:	00000013          	addi	x0,x0,0
    7be8:	00000013          	addi	x0,x0,0
    7bec:	00000013          	addi	x0,x0,0
    7bf0:	00000013          	addi	x0,x0,0
    7bf4:	00000013          	addi	x0,x0,0
    7bf8:	00000013          	addi	x0,x0,0
    7bfc:	00000013          	addi	x0,x0,0
    7c00:	00000013          	addi	x0,x0,0
    7c04:	00000013          	addi	x0,x0,0
    7c08:	00000013          	addi	x0,x0,0
    7c0c:	00000013          	addi	x0,x0,0
    7c10:	00000013          	addi	x0,x0,0
    7c14:	00000013          	addi	x0,x0,0
    7c18:	00000013          	addi	x0,x0,0
    7c1c:	00000013          	addi	x0,x0,0
    7c20:	00000013          	addi	x0,x0,0
    7c24:	00000013          	addi	x0,x0,0
    7c28:	00000013          	addi	x0,x0,0
    7c2c:	00000013          	addi	x0,x0,0
    7c30:	00000013          	addi	x0,x0,0
    7c34:	00000013          	addi	x0,x0,0
    7c38:	00000013          	addi	x0,x0,0
    7c3c:	00000013          	addi	x0,x0,0
    7c40:	00000013          	addi	x0,x0,0
    7c44:	00000013          	addi	x0,x0,0
    7c48:	00000013          	addi	x0,x0,0
    7c4c:	00000013          	addi	x0,x0,0
    7c50:	00000013          	addi	x0,x0,0
    7c54:	00000013          	addi	x0,x0,0
    7c58:	00000013          	addi	x0,x0,0
    7c5c:	00000013          	addi	x0,x0,0
    7c60:	00000013          	addi	x0,x0,0
    7c64:	00000013          	addi	x0,x0,0
    7c68:	00000013          	addi	x0,x0,0
    7c6c:	00000013          	addi	x0,x0,0
    7c70:	00000013          	addi	x0,x0,0
    7c74:	00000013          	addi	x0,x0,0
    7c78:	00000013          	addi	x0,x0,0
    7c7c:	00000013          	addi	x0,x0,0
    7c80:	00000013          	addi	x0,x0,0
    7c84:	00000013          	addi	x0,x0,0
    7c88:	00000013          	addi	x0,x0,0
    7c8c:	00000013          	addi	x0,x0,0
    7c90:	00000013          	addi	x0,x0,0
    7c94:	00000013          	addi	x0,x0,0
    7c98:	00000013          	addi	x0,x0,0
    7c9c:	00000013          	addi	x0,x0,0
    7ca0:	00000013          	addi	x0,x0,0
    7ca4:	00000013          	addi	x0,x0,0
    7ca8:	00000013          	addi	x0,x0,0
    7cac:	00000013          	addi	x0,x0,0
    7cb0:	00000013          	addi	x0,x0,0
    7cb4:	00000013          	addi	x0,x0,0
    7cb8:	00000013          	addi	x0,x0,0
    7cbc:	00000013          	addi	x0,x0,0
    7cc0:	00000013          	addi	x0,x0,0
    7cc4:	00000013          	addi	x0,x0,0
    7cc8:	00000013          	addi	x0,x0,0
    7ccc:	00000013          	addi	x0,x0,0
    7cd0:	00000013          	addi	x0,x0,0
    7cd4:	00000013          	addi	x0,x0,0
    7cd8:	00000013          	addi	x0,x0,0
    7cdc:	00000013          	addi	x0,x0,0
    7ce0:	00000013          	addi	x0,x0,0
    7ce4:	00000013          	addi	x0,x0,0
    7ce8:	00000013          	addi	x0,x0,0
    7cec:	00000013          	addi	x0,x0,0
    7cf0:	00000013          	addi	x0,x0,0
    7cf4:	00000013          	addi	x0,x0,0
    7cf8:	00000013          	addi	x0,x0,0
    7cfc:	00000013          	addi	x0,x0,0
    7d00:	00000013          	addi	x0,x0,0
    7d04:	00000013          	addi	x0,x0,0
    7d08:	00000013          	addi	x0,x0,0
    7d0c:	00000013          	addi	x0,x0,0
    7d10:	00000013          	addi	x0,x0,0
    7d14:	00000013          	addi	x0,x0,0
    7d18:	00000013          	addi	x0,x0,0
    7d1c:	00000013          	addi	x0,x0,0
    7d20:	00000013          	addi	x0,x0,0
    7d24:	00000013          	addi	x0,x0,0
    7d28:	00000013          	addi	x0,x0,0
    7d2c:	00000013          	addi	x0,x0,0
    7d30:	00000013          	addi	x0,x0,0
    7d34:	00000013          	addi	x0,x0,0
    7d38:	00000013          	addi	x0,x0,0
    7d3c:	00000013          	addi	x0,x0,0
    7d40:	00000013          	addi	x0,x0,0
    7d44:	00000013          	addi	x0,x0,0
    7d48:	00000013          	addi	x0,x0,0
    7d4c:	00000013          	addi	x0,x0,0
    7d50:	00000013          	addi	x0,x0,0
    7d54:	00000013          	addi	x0,x0,0
    7d58:	00000013          	addi	x0,x0,0
    7d5c:	00000013          	addi	x0,x0,0
    7d60:	00000013          	addi	x0,x0,0
    7d64:	00000013          	addi	x0,x0,0
    7d68:	00000013          	addi	x0,x0,0
    7d6c:	00000013          	addi	x0,x0,0
    7d70:	00000013          	addi	x0,x0,0
    7d74:	00000013          	addi	x0,x0,0
    7d78:	00000013          	addi	x0,x0,0
    7d7c:	00000013          	addi	x0,x0,0
    7d80:	00000013          	addi	x0,x0,0
    7d84:	00000013          	addi	x0,x0,0
    7d88:	00000013          	addi	x0,x0,0
    7d8c:	00000013          	addi	x0,x0,0
    7d90:	00000013          	addi	x0,x0,0
    7d94:	00000013          	addi	x0,x0,0
    7d98:	00000013          	addi	x0,x0,0
    7d9c:	00000013          	addi	x0,x0,0
    7da0:	00000013          	addi	x0,x0,0
    7da4:	00000013          	addi	x0,x0,0
    7da8:	00000013          	addi	x0,x0,0
    7dac:	00000013          	addi	x0,x0,0
    7db0:	00000013          	addi	x0,x0,0
    7db4:	00000013          	addi	x0,x0,0
    7db8:	00000013          	addi	x0,x0,0
    7dbc:	00000013          	addi	x0,x0,0
    7dc0:	00000013          	addi	x0,x0,0
    7dc4:	00000013          	addi	x0,x0,0
    7dc8:	00000013          	addi	x0,x0,0
    7dcc:	00000013          	addi	x0,x0,0
    7dd0:	00000013          	addi	x0,x0,0
    7dd4:	00000013          	addi	x0,x0,0
    7dd8:	00000013          	addi	x0,x0,0
    7ddc:	00000013          	addi	x0,x0,0
    7de0:	00000013          	addi	x0,x0,0
    7de4:	00000013          	addi	x0,x0,0
    7de8:	00000013          	addi	x0,x0,0
    7dec:	00000013          	addi	x0,x0,0
    7df0:	00000013          	addi	x0,x0,0
    7df4:	00000013          	addi	x0,x0,0
    7df8:	00000013          	addi	x0,x0,0
    7dfc:	00000013          	addi	x0,x0,0
    7e00:	00000013          	addi	x0,x0,0
    7e04:	00000013          	addi	x0,x0,0
    7e08:	00000013          	addi	x0,x0,0
    7e0c:	00000013          	addi	x0,x0,0
    7e10:	00000013          	addi	x0,x0,0
    7e14:	00000013          	addi	x0,x0,0
    7e18:	00000013          	addi	x0,x0,0
    7e1c:	00000013          	addi	x0,x0,0
    7e20:	00000013          	addi	x0,x0,0
    7e24:	00000013          	addi	x0,x0,0
    7e28:	00000013          	addi	x0,x0,0
    7e2c:	00000013          	addi	x0,x0,0
    7e30:	00000013          	addi	x0,x0,0
    7e34:	00000013          	addi	x0,x0,0
    7e38:	00000013          	addi	x0,x0,0
    7e3c:	00000013          	addi	x0,x0,0
    7e40:	00000013          	addi	x0,x0,0
    7e44:	00000013          	addi	x0,x0,0
    7e48:	00000013          	addi	x0,x0,0
    7e4c:	00000013          	addi	x0,x0,0
    7e50:	00000013          	addi	x0,x0,0
    7e54:	00000013          	addi	x0,x0,0
    7e58:	00000013          	addi	x0,x0,0
    7e5c:	00000013          	addi	x0,x0,0
    7e60:	00000013          	addi	x0,x0,0
    7e64:	00000013          	addi	x0,x0,0
    7e68:	00000013          	addi	x0,x0,0
    7e6c:	00000013          	addi	x0,x0,0
    7e70:	00000013          	addi	x0,x0,0
    7e74:	00000013          	addi	x0,x0,0
    7e78:	00000013          	addi	x0,x0,0
    7e7c:	00000013          	addi	x0,x0,0
    7e80:	00000013          	addi	x0,x0,0
    7e84:	00000013          	addi	x0,x0,0
    7e88:	00000013          	addi	x0,x0,0
    7e8c:	00000013          	addi	x0,x0,0
    7e90:	00000013          	addi	x0,x0,0
    7e94:	00000013          	addi	x0,x0,0
    7e98:	00000013          	addi	x0,x0,0
    7e9c:	00000013          	addi	x0,x0,0
    7ea0:	00000013          	addi	x0,x0,0
    7ea4:	00000013          	addi	x0,x0,0
    7ea8:	00000013          	addi	x0,x0,0
    7eac:	00000013          	addi	x0,x0,0
    7eb0:	00000013          	addi	x0,x0,0
    7eb4:	00000013          	addi	x0,x0,0
    7eb8:	00000013          	addi	x0,x0,0
    7ebc:	00000013          	addi	x0,x0,0
    7ec0:	00000013          	addi	x0,x0,0
    7ec4:	00000013          	addi	x0,x0,0
    7ec8:	00000013          	addi	x0,x0,0
    7ecc:	00000013          	addi	x0,x0,0
    7ed0:	00000013          	addi	x0,x0,0
    7ed4:	00000013          	addi	x0,x0,0
    7ed8:	00000013          	addi	x0,x0,0
    7edc:	00000013          	addi	x0,x0,0
    7ee0:	00000013          	addi	x0,x0,0
    7ee4:	00000013          	addi	x0,x0,0
    7ee8:	00000013          	addi	x0,x0,0
    7eec:	00000013          	addi	x0,x0,0
    7ef0:	00000013          	addi	x0,x0,0
    7ef4:	00000013          	addi	x0,x0,0
    7ef8:	00000013          	addi	x0,x0,0
    7efc:	00000013          	addi	x0,x0,0
    7f00:	00000013          	addi	x0,x0,0
    7f04:	00000013          	addi	x0,x0,0
    7f08:	00000013          	addi	x0,x0,0
    7f0c:	00000013          	addi	x0,x0,0
    7f10:	00000013          	addi	x0,x0,0
    7f14:	00000013          	addi	x0,x0,0
    7f18:	00000013          	addi	x0,x0,0
    7f1c:	00000013          	addi	x0,x0,0
    7f20:	00000013          	addi	x0,x0,0
    7f24:	00000013          	addi	x0,x0,0
    7f28:	00000013          	addi	x0,x0,0
    7f2c:	00000013          	addi	x0,x0,0
    7f30:	00000013          	addi	x0,x0,0
    7f34:	00000013          	addi	x0,x0,0
    7f38:	00000013          	addi	x0,x0,0
    7f3c:	00000013          	addi	x0,x0,0
    7f40:	00000013          	addi	x0,x0,0
    7f44:	00000013          	addi	x0,x0,0
    7f48:	00000013          	addi	x0,x0,0
    7f4c:	00000013          	addi	x0,x0,0
    7f50:	00000013          	addi	x0,x0,0
    7f54:	00000013          	addi	x0,x0,0
    7f58:	00000013          	addi	x0,x0,0
    7f5c:	00000013          	addi	x0,x0,0
    7f60:	00000013          	addi	x0,x0,0
    7f64:	00000013          	addi	x0,x0,0
    7f68:	00000013          	addi	x0,x0,0
    7f6c:	00000013          	addi	x0,x0,0
    7f70:	00000013          	addi	x0,x0,0
    7f74:	00000013          	addi	x0,x0,0
    7f78:	00000013          	addi	x0,x0,0
    7f7c:	00000013          	addi	x0,x0,0
    7f80:	00000013          	addi	x0,x0,0
    7f84:	00000013          	addi	x0,x0,0
    7f88:	00000013          	addi	x0,x0,0
    7f8c:	00000013          	addi	x0,x0,0
    7f90:	00000013          	addi	x0,x0,0
    7f94:	00000013          	addi	x0,x0,0
    7f98:	00000013          	addi	x0,x0,0
    7f9c:	00000013          	addi	x0,x0,0
    7fa0:	00000013          	addi	x0,x0,0
    7fa4:	00000013          	addi	x0,x0,0
    7fa8:	00000013          	addi	x0,x0,0
    7fac:	00000013          	addi	x0,x0,0
    7fb0:	00000013          	addi	x0,x0,0
    7fb4:	00000013          	addi	x0,x0,0
    7fb8:	00000013          	addi	x0,x0,0
    7fbc:	00000013          	addi	x0,x0,0
    7fc0:	00000013          	addi	x0,x0,0
    7fc4:	00000013          	addi	x0,x0,0
    7fc8:	00000013          	addi	x0,x0,0
    7fcc:	00000013          	addi	x0,x0,0
    7fd0:	00000013          	addi	x0,x0,0
    7fd4:	00000013          	addi	x0,x0,0
    7fd8:	00000013          	addi	x0,x0,0
    7fdc:	00000013          	addi	x0,x0,0
    7fe0:	00000013          	addi	x0,x0,0
    7fe4:	00000013          	addi	x0,x0,0
    7fe8:	00000013          	addi	x0,x0,0
    7fec:	00000013          	addi	x0,x0,0
    7ff0:	00000013          	addi	x0,x0,0
    7ff4:	00000013          	addi	x0,x0,0
    7ff8:	00000013          	addi	x0,x0,0
    7ffc:	00000013          	addi	x0,x0,0
  .p2align 12 # align to 4096 bytes
5:
  addi x19, x19, 256 # should happen
    8000:	10098993          	addi	x19,x19,256

# backward branch by -4
  j 7f # jump around to test backward branch
    8004:	0080006f          	jal	x0,800c <I_bge_cg_cp_imm_edges_branch_all+0x238c>
6:
  j 9f # backward branch succeeded
    8008:	0180006f          	jal	x0,8020 <I_bge_cg_cp_imm_edges_branch_all+0x23a0>
  # offset too small to modify counter for checking
7:
  bge x29, x18, 6b
    800c:	ff2edee3          	bge	x29,x18,8008 <I_bge_cg_cp_imm_edges_branch_all+0x2388>
  addi x19, x19, -512 # shouldn't happen
    8010:	e0098993          	addi	x19,x19,-512
  j 19f # shouldn't happen
    8014:	7f90106f          	jal	x0,a00c <I_bge_cg_cp_imm_edges_branch_all+0x438c>

# backward branch by -8
8:
  addi x19, x19, 1024 # should happen
    8018:	40098993          	addi	x19,x19,1024
  j 11f # backward branch succeeded
    801c:	7e50106f          	jal	x0,a000 <I_bge_cg_cp_imm_edges_branch_all+0x4380>
9:
  bge x29, x18, 8b
    8020:	ff2edce3          	bge	x29,x18,8018 <I_bge_cg_cp_imm_edges_branch_all+0x2398>
  addi x19, x19, -2048 # shouldn't happen
    8024:	80098993          	addi	x19,x19,-2048
  j 19f # shouldn't happen
    8028:	7e50106f          	jal	x0,a00c <I_bge_cg_cp_imm_edges_branch_all+0x438c>
    802c:	00000013          	addi	x0,x0,0
    8030:	00000013          	addi	x0,x0,0
    8034:	00000013          	addi	x0,x0,0
    8038:	00000013          	addi	x0,x0,0
    803c:	00000013          	addi	x0,x0,0
    8040:	00000013          	addi	x0,x0,0
    8044:	00000013          	addi	x0,x0,0
    8048:	00000013          	addi	x0,x0,0
    804c:	00000013          	addi	x0,x0,0
    8050:	00000013          	addi	x0,x0,0
    8054:	00000013          	addi	x0,x0,0
    8058:	00000013          	addi	x0,x0,0
    805c:	00000013          	addi	x0,x0,0
    8060:	00000013          	addi	x0,x0,0
    8064:	00000013          	addi	x0,x0,0
    8068:	00000013          	addi	x0,x0,0
    806c:	00000013          	addi	x0,x0,0
    8070:	00000013          	addi	x0,x0,0
    8074:	00000013          	addi	x0,x0,0
    8078:	00000013          	addi	x0,x0,0
    807c:	00000013          	addi	x0,x0,0
    8080:	00000013          	addi	x0,x0,0
    8084:	00000013          	addi	x0,x0,0
    8088:	00000013          	addi	x0,x0,0
    808c:	00000013          	addi	x0,x0,0
    8090:	00000013          	addi	x0,x0,0
    8094:	00000013          	addi	x0,x0,0
    8098:	00000013          	addi	x0,x0,0
    809c:	00000013          	addi	x0,x0,0
    80a0:	00000013          	addi	x0,x0,0
    80a4:	00000013          	addi	x0,x0,0
    80a8:	00000013          	addi	x0,x0,0
    80ac:	00000013          	addi	x0,x0,0
    80b0:	00000013          	addi	x0,x0,0
    80b4:	00000013          	addi	x0,x0,0
    80b8:	00000013          	addi	x0,x0,0
    80bc:	00000013          	addi	x0,x0,0
    80c0:	00000013          	addi	x0,x0,0
    80c4:	00000013          	addi	x0,x0,0
    80c8:	00000013          	addi	x0,x0,0
    80cc:	00000013          	addi	x0,x0,0
    80d0:	00000013          	addi	x0,x0,0
    80d4:	00000013          	addi	x0,x0,0
    80d8:	00000013          	addi	x0,x0,0
    80dc:	00000013          	addi	x0,x0,0
    80e0:	00000013          	addi	x0,x0,0
    80e4:	00000013          	addi	x0,x0,0
    80e8:	00000013          	addi	x0,x0,0
    80ec:	00000013          	addi	x0,x0,0
    80f0:	00000013          	addi	x0,x0,0
    80f4:	00000013          	addi	x0,x0,0
    80f8:	00000013          	addi	x0,x0,0
    80fc:	00000013          	addi	x0,x0,0
    8100:	00000013          	addi	x0,x0,0
    8104:	00000013          	addi	x0,x0,0
    8108:	00000013          	addi	x0,x0,0
    810c:	00000013          	addi	x0,x0,0
    8110:	00000013          	addi	x0,x0,0
    8114:	00000013          	addi	x0,x0,0
    8118:	00000013          	addi	x0,x0,0
    811c:	00000013          	addi	x0,x0,0
    8120:	00000013          	addi	x0,x0,0
    8124:	00000013          	addi	x0,x0,0
    8128:	00000013          	addi	x0,x0,0
    812c:	00000013          	addi	x0,x0,0
    8130:	00000013          	addi	x0,x0,0
    8134:	00000013          	addi	x0,x0,0
    8138:	00000013          	addi	x0,x0,0
    813c:	00000013          	addi	x0,x0,0
    8140:	00000013          	addi	x0,x0,0
    8144:	00000013          	addi	x0,x0,0
    8148:	00000013          	addi	x0,x0,0
    814c:	00000013          	addi	x0,x0,0
    8150:	00000013          	addi	x0,x0,0
    8154:	00000013          	addi	x0,x0,0
    8158:	00000013          	addi	x0,x0,0
    815c:	00000013          	addi	x0,x0,0
    8160:	00000013          	addi	x0,x0,0
    8164:	00000013          	addi	x0,x0,0
    8168:	00000013          	addi	x0,x0,0
    816c:	00000013          	addi	x0,x0,0
    8170:	00000013          	addi	x0,x0,0
    8174:	00000013          	addi	x0,x0,0
    8178:	00000013          	addi	x0,x0,0
    817c:	00000013          	addi	x0,x0,0
    8180:	00000013          	addi	x0,x0,0
    8184:	00000013          	addi	x0,x0,0
    8188:	00000013          	addi	x0,x0,0
    818c:	00000013          	addi	x0,x0,0
    8190:	00000013          	addi	x0,x0,0
    8194:	00000013          	addi	x0,x0,0
    8198:	00000013          	addi	x0,x0,0
    819c:	00000013          	addi	x0,x0,0
    81a0:	00000013          	addi	x0,x0,0
    81a4:	00000013          	addi	x0,x0,0
    81a8:	00000013          	addi	x0,x0,0
    81ac:	00000013          	addi	x0,x0,0
    81b0:	00000013          	addi	x0,x0,0
    81b4:	00000013          	addi	x0,x0,0
    81b8:	00000013          	addi	x0,x0,0
    81bc:	00000013          	addi	x0,x0,0
    81c0:	00000013          	addi	x0,x0,0
    81c4:	00000013          	addi	x0,x0,0
    81c8:	00000013          	addi	x0,x0,0
    81cc:	00000013          	addi	x0,x0,0
    81d0:	00000013          	addi	x0,x0,0
    81d4:	00000013          	addi	x0,x0,0
    81d8:	00000013          	addi	x0,x0,0
    81dc:	00000013          	addi	x0,x0,0
    81e0:	00000013          	addi	x0,x0,0
    81e4:	00000013          	addi	x0,x0,0
    81e8:	00000013          	addi	x0,x0,0
    81ec:	00000013          	addi	x0,x0,0
    81f0:	00000013          	addi	x0,x0,0
    81f4:	00000013          	addi	x0,x0,0
    81f8:	00000013          	addi	x0,x0,0
    81fc:	00000013          	addi	x0,x0,0
    8200:	00000013          	addi	x0,x0,0
    8204:	00000013          	addi	x0,x0,0
    8208:	00000013          	addi	x0,x0,0
    820c:	00000013          	addi	x0,x0,0
    8210:	00000013          	addi	x0,x0,0
    8214:	00000013          	addi	x0,x0,0
    8218:	00000013          	addi	x0,x0,0
    821c:	00000013          	addi	x0,x0,0
    8220:	00000013          	addi	x0,x0,0
    8224:	00000013          	addi	x0,x0,0
    8228:	00000013          	addi	x0,x0,0
    822c:	00000013          	addi	x0,x0,0
    8230:	00000013          	addi	x0,x0,0
    8234:	00000013          	addi	x0,x0,0
    8238:	00000013          	addi	x0,x0,0
    823c:	00000013          	addi	x0,x0,0
    8240:	00000013          	addi	x0,x0,0
    8244:	00000013          	addi	x0,x0,0
    8248:	00000013          	addi	x0,x0,0
    824c:	00000013          	addi	x0,x0,0
    8250:	00000013          	addi	x0,x0,0
    8254:	00000013          	addi	x0,x0,0
    8258:	00000013          	addi	x0,x0,0
    825c:	00000013          	addi	x0,x0,0
    8260:	00000013          	addi	x0,x0,0
    8264:	00000013          	addi	x0,x0,0
    8268:	00000013          	addi	x0,x0,0
    826c:	00000013          	addi	x0,x0,0
    8270:	00000013          	addi	x0,x0,0
    8274:	00000013          	addi	x0,x0,0
    8278:	00000013          	addi	x0,x0,0
    827c:	00000013          	addi	x0,x0,0
    8280:	00000013          	addi	x0,x0,0
    8284:	00000013          	addi	x0,x0,0
    8288:	00000013          	addi	x0,x0,0
    828c:	00000013          	addi	x0,x0,0
    8290:	00000013          	addi	x0,x0,0
    8294:	00000013          	addi	x0,x0,0
    8298:	00000013          	addi	x0,x0,0
    829c:	00000013          	addi	x0,x0,0
    82a0:	00000013          	addi	x0,x0,0
    82a4:	00000013          	addi	x0,x0,0
    82a8:	00000013          	addi	x0,x0,0
    82ac:	00000013          	addi	x0,x0,0
    82b0:	00000013          	addi	x0,x0,0
    82b4:	00000013          	addi	x0,x0,0
    82b8:	00000013          	addi	x0,x0,0
    82bc:	00000013          	addi	x0,x0,0
    82c0:	00000013          	addi	x0,x0,0
    82c4:	00000013          	addi	x0,x0,0
    82c8:	00000013          	addi	x0,x0,0
    82cc:	00000013          	addi	x0,x0,0
    82d0:	00000013          	addi	x0,x0,0
    82d4:	00000013          	addi	x0,x0,0
    82d8:	00000013          	addi	x0,x0,0
    82dc:	00000013          	addi	x0,x0,0
    82e0:	00000013          	addi	x0,x0,0
    82e4:	00000013          	addi	x0,x0,0
    82e8:	00000013          	addi	x0,x0,0
    82ec:	00000013          	addi	x0,x0,0
    82f0:	00000013          	addi	x0,x0,0
    82f4:	00000013          	addi	x0,x0,0
    82f8:	00000013          	addi	x0,x0,0
    82fc:	00000013          	addi	x0,x0,0
    8300:	00000013          	addi	x0,x0,0
    8304:	00000013          	addi	x0,x0,0
    8308:	00000013          	addi	x0,x0,0
    830c:	00000013          	addi	x0,x0,0
    8310:	00000013          	addi	x0,x0,0
    8314:	00000013          	addi	x0,x0,0
    8318:	00000013          	addi	x0,x0,0
    831c:	00000013          	addi	x0,x0,0
    8320:	00000013          	addi	x0,x0,0
    8324:	00000013          	addi	x0,x0,0
    8328:	00000013          	addi	x0,x0,0
    832c:	00000013          	addi	x0,x0,0
    8330:	00000013          	addi	x0,x0,0
    8334:	00000013          	addi	x0,x0,0
    8338:	00000013          	addi	x0,x0,0
    833c:	00000013          	addi	x0,x0,0
    8340:	00000013          	addi	x0,x0,0
    8344:	00000013          	addi	x0,x0,0
    8348:	00000013          	addi	x0,x0,0
    834c:	00000013          	addi	x0,x0,0
    8350:	00000013          	addi	x0,x0,0
    8354:	00000013          	addi	x0,x0,0
    8358:	00000013          	addi	x0,x0,0
    835c:	00000013          	addi	x0,x0,0
    8360:	00000013          	addi	x0,x0,0
    8364:	00000013          	addi	x0,x0,0
    8368:	00000013          	addi	x0,x0,0
    836c:	00000013          	addi	x0,x0,0
    8370:	00000013          	addi	x0,x0,0
    8374:	00000013          	addi	x0,x0,0
    8378:	00000013          	addi	x0,x0,0
    837c:	00000013          	addi	x0,x0,0
    8380:	00000013          	addi	x0,x0,0
    8384:	00000013          	addi	x0,x0,0
    8388:	00000013          	addi	x0,x0,0
    838c:	00000013          	addi	x0,x0,0
    8390:	00000013          	addi	x0,x0,0
    8394:	00000013          	addi	x0,x0,0
    8398:	00000013          	addi	x0,x0,0
    839c:	00000013          	addi	x0,x0,0
    83a0:	00000013          	addi	x0,x0,0
    83a4:	00000013          	addi	x0,x0,0
    83a8:	00000013          	addi	x0,x0,0
    83ac:	00000013          	addi	x0,x0,0
    83b0:	00000013          	addi	x0,x0,0
    83b4:	00000013          	addi	x0,x0,0
    83b8:	00000013          	addi	x0,x0,0
    83bc:	00000013          	addi	x0,x0,0
    83c0:	00000013          	addi	x0,x0,0
    83c4:	00000013          	addi	x0,x0,0
    83c8:	00000013          	addi	x0,x0,0
    83cc:	00000013          	addi	x0,x0,0
    83d0:	00000013          	addi	x0,x0,0
    83d4:	00000013          	addi	x0,x0,0
    83d8:	00000013          	addi	x0,x0,0
    83dc:	00000013          	addi	x0,x0,0
    83e0:	00000013          	addi	x0,x0,0
    83e4:	00000013          	addi	x0,x0,0
    83e8:	00000013          	addi	x0,x0,0
    83ec:	00000013          	addi	x0,x0,0
    83f0:	00000013          	addi	x0,x0,0
    83f4:	00000013          	addi	x0,x0,0
    83f8:	00000013          	addi	x0,x0,0
    83fc:	00000013          	addi	x0,x0,0
    8400:	00000013          	addi	x0,x0,0
    8404:	00000013          	addi	x0,x0,0
    8408:	00000013          	addi	x0,x0,0
    840c:	00000013          	addi	x0,x0,0
    8410:	00000013          	addi	x0,x0,0
    8414:	00000013          	addi	x0,x0,0
    8418:	00000013          	addi	x0,x0,0
    841c:	00000013          	addi	x0,x0,0
    8420:	00000013          	addi	x0,x0,0
    8424:	00000013          	addi	x0,x0,0
    8428:	00000013          	addi	x0,x0,0
    842c:	00000013          	addi	x0,x0,0
    8430:	00000013          	addi	x0,x0,0
    8434:	00000013          	addi	x0,x0,0
    8438:	00000013          	addi	x0,x0,0
    843c:	00000013          	addi	x0,x0,0
    8440:	00000013          	addi	x0,x0,0
    8444:	00000013          	addi	x0,x0,0
    8448:	00000013          	addi	x0,x0,0
    844c:	00000013          	addi	x0,x0,0
    8450:	00000013          	addi	x0,x0,0
    8454:	00000013          	addi	x0,x0,0
    8458:	00000013          	addi	x0,x0,0
    845c:	00000013          	addi	x0,x0,0
    8460:	00000013          	addi	x0,x0,0
    8464:	00000013          	addi	x0,x0,0
    8468:	00000013          	addi	x0,x0,0
    846c:	00000013          	addi	x0,x0,0
    8470:	00000013          	addi	x0,x0,0
    8474:	00000013          	addi	x0,x0,0
    8478:	00000013          	addi	x0,x0,0
    847c:	00000013          	addi	x0,x0,0
    8480:	00000013          	addi	x0,x0,0
    8484:	00000013          	addi	x0,x0,0
    8488:	00000013          	addi	x0,x0,0
    848c:	00000013          	addi	x0,x0,0
    8490:	00000013          	addi	x0,x0,0
    8494:	00000013          	addi	x0,x0,0
    8498:	00000013          	addi	x0,x0,0
    849c:	00000013          	addi	x0,x0,0
    84a0:	00000013          	addi	x0,x0,0
    84a4:	00000013          	addi	x0,x0,0
    84a8:	00000013          	addi	x0,x0,0
    84ac:	00000013          	addi	x0,x0,0
    84b0:	00000013          	addi	x0,x0,0
    84b4:	00000013          	addi	x0,x0,0
    84b8:	00000013          	addi	x0,x0,0
    84bc:	00000013          	addi	x0,x0,0
    84c0:	00000013          	addi	x0,x0,0
    84c4:	00000013          	addi	x0,x0,0
    84c8:	00000013          	addi	x0,x0,0
    84cc:	00000013          	addi	x0,x0,0
    84d0:	00000013          	addi	x0,x0,0
    84d4:	00000013          	addi	x0,x0,0
    84d8:	00000013          	addi	x0,x0,0
    84dc:	00000013          	addi	x0,x0,0
    84e0:	00000013          	addi	x0,x0,0
    84e4:	00000013          	addi	x0,x0,0
    84e8:	00000013          	addi	x0,x0,0
    84ec:	00000013          	addi	x0,x0,0
    84f0:	00000013          	addi	x0,x0,0
    84f4:	00000013          	addi	x0,x0,0
    84f8:	00000013          	addi	x0,x0,0
    84fc:	00000013          	addi	x0,x0,0
    8500:	00000013          	addi	x0,x0,0
    8504:	00000013          	addi	x0,x0,0
    8508:	00000013          	addi	x0,x0,0
    850c:	00000013          	addi	x0,x0,0
    8510:	00000013          	addi	x0,x0,0
    8514:	00000013          	addi	x0,x0,0
    8518:	00000013          	addi	x0,x0,0
    851c:	00000013          	addi	x0,x0,0
    8520:	00000013          	addi	x0,x0,0
    8524:	00000013          	addi	x0,x0,0
    8528:	00000013          	addi	x0,x0,0
    852c:	00000013          	addi	x0,x0,0
    8530:	00000013          	addi	x0,x0,0
    8534:	00000013          	addi	x0,x0,0
    8538:	00000013          	addi	x0,x0,0
    853c:	00000013          	addi	x0,x0,0
    8540:	00000013          	addi	x0,x0,0
    8544:	00000013          	addi	x0,x0,0
    8548:	00000013          	addi	x0,x0,0
    854c:	00000013          	addi	x0,x0,0
    8550:	00000013          	addi	x0,x0,0
    8554:	00000013          	addi	x0,x0,0
    8558:	00000013          	addi	x0,x0,0
    855c:	00000013          	addi	x0,x0,0
    8560:	00000013          	addi	x0,x0,0
    8564:	00000013          	addi	x0,x0,0
    8568:	00000013          	addi	x0,x0,0
    856c:	00000013          	addi	x0,x0,0
    8570:	00000013          	addi	x0,x0,0
    8574:	00000013          	addi	x0,x0,0
    8578:	00000013          	addi	x0,x0,0
    857c:	00000013          	addi	x0,x0,0
    8580:	00000013          	addi	x0,x0,0
    8584:	00000013          	addi	x0,x0,0
    8588:	00000013          	addi	x0,x0,0
    858c:	00000013          	addi	x0,x0,0
    8590:	00000013          	addi	x0,x0,0
    8594:	00000013          	addi	x0,x0,0
    8598:	00000013          	addi	x0,x0,0
    859c:	00000013          	addi	x0,x0,0
    85a0:	00000013          	addi	x0,x0,0
    85a4:	00000013          	addi	x0,x0,0
    85a8:	00000013          	addi	x0,x0,0
    85ac:	00000013          	addi	x0,x0,0
    85b0:	00000013          	addi	x0,x0,0
    85b4:	00000013          	addi	x0,x0,0
    85b8:	00000013          	addi	x0,x0,0
    85bc:	00000013          	addi	x0,x0,0
    85c0:	00000013          	addi	x0,x0,0
    85c4:	00000013          	addi	x0,x0,0
    85c8:	00000013          	addi	x0,x0,0
    85cc:	00000013          	addi	x0,x0,0
    85d0:	00000013          	addi	x0,x0,0
    85d4:	00000013          	addi	x0,x0,0
    85d8:	00000013          	addi	x0,x0,0
    85dc:	00000013          	addi	x0,x0,0
    85e0:	00000013          	addi	x0,x0,0
    85e4:	00000013          	addi	x0,x0,0
    85e8:	00000013          	addi	x0,x0,0
    85ec:	00000013          	addi	x0,x0,0
    85f0:	00000013          	addi	x0,x0,0
    85f4:	00000013          	addi	x0,x0,0
    85f8:	00000013          	addi	x0,x0,0
    85fc:	00000013          	addi	x0,x0,0
    8600:	00000013          	addi	x0,x0,0
    8604:	00000013          	addi	x0,x0,0
    8608:	00000013          	addi	x0,x0,0
    860c:	00000013          	addi	x0,x0,0
    8610:	00000013          	addi	x0,x0,0
    8614:	00000013          	addi	x0,x0,0
    8618:	00000013          	addi	x0,x0,0
    861c:	00000013          	addi	x0,x0,0
    8620:	00000013          	addi	x0,x0,0
    8624:	00000013          	addi	x0,x0,0
    8628:	00000013          	addi	x0,x0,0
    862c:	00000013          	addi	x0,x0,0
    8630:	00000013          	addi	x0,x0,0
    8634:	00000013          	addi	x0,x0,0
    8638:	00000013          	addi	x0,x0,0
    863c:	00000013          	addi	x0,x0,0
    8640:	00000013          	addi	x0,x0,0
    8644:	00000013          	addi	x0,x0,0
    8648:	00000013          	addi	x0,x0,0
    864c:	00000013          	addi	x0,x0,0
    8650:	00000013          	addi	x0,x0,0
    8654:	00000013          	addi	x0,x0,0
    8658:	00000013          	addi	x0,x0,0
    865c:	00000013          	addi	x0,x0,0
    8660:	00000013          	addi	x0,x0,0
    8664:	00000013          	addi	x0,x0,0
    8668:	00000013          	addi	x0,x0,0
    866c:	00000013          	addi	x0,x0,0
    8670:	00000013          	addi	x0,x0,0
    8674:	00000013          	addi	x0,x0,0
    8678:	00000013          	addi	x0,x0,0
    867c:	00000013          	addi	x0,x0,0
    8680:	00000013          	addi	x0,x0,0
    8684:	00000013          	addi	x0,x0,0
    8688:	00000013          	addi	x0,x0,0
    868c:	00000013          	addi	x0,x0,0
    8690:	00000013          	addi	x0,x0,0
    8694:	00000013          	addi	x0,x0,0
    8698:	00000013          	addi	x0,x0,0
    869c:	00000013          	addi	x0,x0,0
    86a0:	00000013          	addi	x0,x0,0
    86a4:	00000013          	addi	x0,x0,0
    86a8:	00000013          	addi	x0,x0,0
    86ac:	00000013          	addi	x0,x0,0
    86b0:	00000013          	addi	x0,x0,0
    86b4:	00000013          	addi	x0,x0,0
    86b8:	00000013          	addi	x0,x0,0
    86bc:	00000013          	addi	x0,x0,0
    86c0:	00000013          	addi	x0,x0,0
    86c4:	00000013          	addi	x0,x0,0
    86c8:	00000013          	addi	x0,x0,0
    86cc:	00000013          	addi	x0,x0,0
    86d0:	00000013          	addi	x0,x0,0
    86d4:	00000013          	addi	x0,x0,0
    86d8:	00000013          	addi	x0,x0,0
    86dc:	00000013          	addi	x0,x0,0
    86e0:	00000013          	addi	x0,x0,0
    86e4:	00000013          	addi	x0,x0,0
    86e8:	00000013          	addi	x0,x0,0
    86ec:	00000013          	addi	x0,x0,0
    86f0:	00000013          	addi	x0,x0,0
    86f4:	00000013          	addi	x0,x0,0
    86f8:	00000013          	addi	x0,x0,0
    86fc:	00000013          	addi	x0,x0,0
    8700:	00000013          	addi	x0,x0,0
    8704:	00000013          	addi	x0,x0,0
    8708:	00000013          	addi	x0,x0,0
    870c:	00000013          	addi	x0,x0,0
    8710:	00000013          	addi	x0,x0,0
    8714:	00000013          	addi	x0,x0,0
    8718:	00000013          	addi	x0,x0,0
    871c:	00000013          	addi	x0,x0,0
    8720:	00000013          	addi	x0,x0,0
    8724:	00000013          	addi	x0,x0,0
    8728:	00000013          	addi	x0,x0,0
    872c:	00000013          	addi	x0,x0,0
    8730:	00000013          	addi	x0,x0,0
    8734:	00000013          	addi	x0,x0,0
    8738:	00000013          	addi	x0,x0,0
    873c:	00000013          	addi	x0,x0,0
    8740:	00000013          	addi	x0,x0,0
    8744:	00000013          	addi	x0,x0,0
    8748:	00000013          	addi	x0,x0,0
    874c:	00000013          	addi	x0,x0,0
    8750:	00000013          	addi	x0,x0,0
    8754:	00000013          	addi	x0,x0,0
    8758:	00000013          	addi	x0,x0,0
    875c:	00000013          	addi	x0,x0,0
    8760:	00000013          	addi	x0,x0,0
    8764:	00000013          	addi	x0,x0,0
    8768:	00000013          	addi	x0,x0,0
    876c:	00000013          	addi	x0,x0,0
    8770:	00000013          	addi	x0,x0,0
    8774:	00000013          	addi	x0,x0,0
    8778:	00000013          	addi	x0,x0,0
    877c:	00000013          	addi	x0,x0,0
    8780:	00000013          	addi	x0,x0,0
    8784:	00000013          	addi	x0,x0,0
    8788:	00000013          	addi	x0,x0,0
    878c:	00000013          	addi	x0,x0,0
    8790:	00000013          	addi	x0,x0,0
    8794:	00000013          	addi	x0,x0,0
    8798:	00000013          	addi	x0,x0,0
    879c:	00000013          	addi	x0,x0,0
    87a0:	00000013          	addi	x0,x0,0
    87a4:	00000013          	addi	x0,x0,0
    87a8:	00000013          	addi	x0,x0,0
    87ac:	00000013          	addi	x0,x0,0
    87b0:	00000013          	addi	x0,x0,0
    87b4:	00000013          	addi	x0,x0,0
    87b8:	00000013          	addi	x0,x0,0
    87bc:	00000013          	addi	x0,x0,0
    87c0:	00000013          	addi	x0,x0,0
    87c4:	00000013          	addi	x0,x0,0
    87c8:	00000013          	addi	x0,x0,0
    87cc:	00000013          	addi	x0,x0,0
    87d0:	00000013          	addi	x0,x0,0
    87d4:	00000013          	addi	x0,x0,0
    87d8:	00000013          	addi	x0,x0,0
    87dc:	00000013          	addi	x0,x0,0
    87e0:	00000013          	addi	x0,x0,0
    87e4:	00000013          	addi	x0,x0,0
    87e8:	00000013          	addi	x0,x0,0
    87ec:	00000013          	addi	x0,x0,0
    87f0:	00000013          	addi	x0,x0,0
    87f4:	00000013          	addi	x0,x0,0
    87f8:	00000013          	addi	x0,x0,0
    87fc:	00000013          	addi	x0,x0,0
    8800:	00000013          	addi	x0,x0,0
    8804:	00000013          	addi	x0,x0,0
    8808:	00000013          	addi	x0,x0,0
    880c:	00000013          	addi	x0,x0,0
    8810:	00000013          	addi	x0,x0,0
    8814:	00000013          	addi	x0,x0,0
    8818:	00000013          	addi	x0,x0,0
    881c:	00000013          	addi	x0,x0,0
    8820:	00000013          	addi	x0,x0,0
    8824:	00000013          	addi	x0,x0,0
    8828:	00000013          	addi	x0,x0,0
    882c:	00000013          	addi	x0,x0,0
    8830:	00000013          	addi	x0,x0,0
    8834:	00000013          	addi	x0,x0,0
    8838:	00000013          	addi	x0,x0,0
    883c:	00000013          	addi	x0,x0,0
    8840:	00000013          	addi	x0,x0,0
    8844:	00000013          	addi	x0,x0,0
    8848:	00000013          	addi	x0,x0,0
    884c:	00000013          	addi	x0,x0,0
    8850:	00000013          	addi	x0,x0,0
    8854:	00000013          	addi	x0,x0,0
    8858:	00000013          	addi	x0,x0,0
    885c:	00000013          	addi	x0,x0,0
    8860:	00000013          	addi	x0,x0,0
    8864:	00000013          	addi	x0,x0,0
    8868:	00000013          	addi	x0,x0,0
    886c:	00000013          	addi	x0,x0,0
    8870:	00000013          	addi	x0,x0,0
    8874:	00000013          	addi	x0,x0,0
    8878:	00000013          	addi	x0,x0,0
    887c:	00000013          	addi	x0,x0,0
    8880:	00000013          	addi	x0,x0,0
    8884:	00000013          	addi	x0,x0,0
    8888:	00000013          	addi	x0,x0,0
    888c:	00000013          	addi	x0,x0,0
    8890:	00000013          	addi	x0,x0,0
    8894:	00000013          	addi	x0,x0,0
    8898:	00000013          	addi	x0,x0,0
    889c:	00000013          	addi	x0,x0,0
    88a0:	00000013          	addi	x0,x0,0
    88a4:	00000013          	addi	x0,x0,0
    88a8:	00000013          	addi	x0,x0,0
    88ac:	00000013          	addi	x0,x0,0
    88b0:	00000013          	addi	x0,x0,0
    88b4:	00000013          	addi	x0,x0,0
    88b8:	00000013          	addi	x0,x0,0
    88bc:	00000013          	addi	x0,x0,0
    88c0:	00000013          	addi	x0,x0,0
    88c4:	00000013          	addi	x0,x0,0
    88c8:	00000013          	addi	x0,x0,0
    88cc:	00000013          	addi	x0,x0,0
    88d0:	00000013          	addi	x0,x0,0
    88d4:	00000013          	addi	x0,x0,0
    88d8:	00000013          	addi	x0,x0,0
    88dc:	00000013          	addi	x0,x0,0
    88e0:	00000013          	addi	x0,x0,0
    88e4:	00000013          	addi	x0,x0,0
    88e8:	00000013          	addi	x0,x0,0
    88ec:	00000013          	addi	x0,x0,0
    88f0:	00000013          	addi	x0,x0,0
    88f4:	00000013          	addi	x0,x0,0
    88f8:	00000013          	addi	x0,x0,0
    88fc:	00000013          	addi	x0,x0,0
    8900:	00000013          	addi	x0,x0,0
    8904:	00000013          	addi	x0,x0,0
    8908:	00000013          	addi	x0,x0,0
    890c:	00000013          	addi	x0,x0,0
    8910:	00000013          	addi	x0,x0,0
    8914:	00000013          	addi	x0,x0,0
    8918:	00000013          	addi	x0,x0,0
    891c:	00000013          	addi	x0,x0,0
    8920:	00000013          	addi	x0,x0,0
    8924:	00000013          	addi	x0,x0,0
    8928:	00000013          	addi	x0,x0,0
    892c:	00000013          	addi	x0,x0,0
    8930:	00000013          	addi	x0,x0,0
    8934:	00000013          	addi	x0,x0,0
    8938:	00000013          	addi	x0,x0,0
    893c:	00000013          	addi	x0,x0,0
    8940:	00000013          	addi	x0,x0,0
    8944:	00000013          	addi	x0,x0,0
    8948:	00000013          	addi	x0,x0,0
    894c:	00000013          	addi	x0,x0,0
    8950:	00000013          	addi	x0,x0,0
    8954:	00000013          	addi	x0,x0,0
    8958:	00000013          	addi	x0,x0,0
    895c:	00000013          	addi	x0,x0,0
    8960:	00000013          	addi	x0,x0,0
    8964:	00000013          	addi	x0,x0,0
    8968:	00000013          	addi	x0,x0,0
    896c:	00000013          	addi	x0,x0,0
    8970:	00000013          	addi	x0,x0,0
    8974:	00000013          	addi	x0,x0,0
    8978:	00000013          	addi	x0,x0,0
    897c:	00000013          	addi	x0,x0,0
    8980:	00000013          	addi	x0,x0,0
    8984:	00000013          	addi	x0,x0,0
    8988:	00000013          	addi	x0,x0,0
    898c:	00000013          	addi	x0,x0,0
    8990:	00000013          	addi	x0,x0,0
    8994:	00000013          	addi	x0,x0,0
    8998:	00000013          	addi	x0,x0,0
    899c:	00000013          	addi	x0,x0,0
    89a0:	00000013          	addi	x0,x0,0
    89a4:	00000013          	addi	x0,x0,0
    89a8:	00000013          	addi	x0,x0,0
    89ac:	00000013          	addi	x0,x0,0
    89b0:	00000013          	addi	x0,x0,0
    89b4:	00000013          	addi	x0,x0,0
    89b8:	00000013          	addi	x0,x0,0
    89bc:	00000013          	addi	x0,x0,0
    89c0:	00000013          	addi	x0,x0,0
    89c4:	00000013          	addi	x0,x0,0
    89c8:	00000013          	addi	x0,x0,0
    89cc:	00000013          	addi	x0,x0,0
    89d0:	00000013          	addi	x0,x0,0
    89d4:	00000013          	addi	x0,x0,0
    89d8:	00000013          	addi	x0,x0,0
    89dc:	00000013          	addi	x0,x0,0
    89e0:	00000013          	addi	x0,x0,0
    89e4:	00000013          	addi	x0,x0,0
    89e8:	00000013          	addi	x0,x0,0
    89ec:	00000013          	addi	x0,x0,0
    89f0:	00000013          	addi	x0,x0,0
    89f4:	00000013          	addi	x0,x0,0
    89f8:	00000013          	addi	x0,x0,0
    89fc:	00000013          	addi	x0,x0,0
    8a00:	00000013          	addi	x0,x0,0
    8a04:	00000013          	addi	x0,x0,0
    8a08:	00000013          	addi	x0,x0,0
    8a0c:	00000013          	addi	x0,x0,0
    8a10:	00000013          	addi	x0,x0,0
    8a14:	00000013          	addi	x0,x0,0
    8a18:	00000013          	addi	x0,x0,0
    8a1c:	00000013          	addi	x0,x0,0
    8a20:	00000013          	addi	x0,x0,0
    8a24:	00000013          	addi	x0,x0,0
    8a28:	00000013          	addi	x0,x0,0
    8a2c:	00000013          	addi	x0,x0,0
    8a30:	00000013          	addi	x0,x0,0
    8a34:	00000013          	addi	x0,x0,0
    8a38:	00000013          	addi	x0,x0,0
    8a3c:	00000013          	addi	x0,x0,0
    8a40:	00000013          	addi	x0,x0,0
    8a44:	00000013          	addi	x0,x0,0
    8a48:	00000013          	addi	x0,x0,0
    8a4c:	00000013          	addi	x0,x0,0
    8a50:	00000013          	addi	x0,x0,0
    8a54:	00000013          	addi	x0,x0,0
    8a58:	00000013          	addi	x0,x0,0
    8a5c:	00000013          	addi	x0,x0,0
    8a60:	00000013          	addi	x0,x0,0
    8a64:	00000013          	addi	x0,x0,0
    8a68:	00000013          	addi	x0,x0,0
    8a6c:	00000013          	addi	x0,x0,0
    8a70:	00000013          	addi	x0,x0,0
    8a74:	00000013          	addi	x0,x0,0
    8a78:	00000013          	addi	x0,x0,0
    8a7c:	00000013          	addi	x0,x0,0
    8a80:	00000013          	addi	x0,x0,0
    8a84:	00000013          	addi	x0,x0,0
    8a88:	00000013          	addi	x0,x0,0
    8a8c:	00000013          	addi	x0,x0,0
    8a90:	00000013          	addi	x0,x0,0
    8a94:	00000013          	addi	x0,x0,0
    8a98:	00000013          	addi	x0,x0,0
    8a9c:	00000013          	addi	x0,x0,0
    8aa0:	00000013          	addi	x0,x0,0
    8aa4:	00000013          	addi	x0,x0,0
    8aa8:	00000013          	addi	x0,x0,0
    8aac:	00000013          	addi	x0,x0,0
    8ab0:	00000013          	addi	x0,x0,0
    8ab4:	00000013          	addi	x0,x0,0
    8ab8:	00000013          	addi	x0,x0,0
    8abc:	00000013          	addi	x0,x0,0
    8ac0:	00000013          	addi	x0,x0,0
    8ac4:	00000013          	addi	x0,x0,0
    8ac8:	00000013          	addi	x0,x0,0
    8acc:	00000013          	addi	x0,x0,0
    8ad0:	00000013          	addi	x0,x0,0
    8ad4:	00000013          	addi	x0,x0,0
    8ad8:	00000013          	addi	x0,x0,0
    8adc:	00000013          	addi	x0,x0,0
    8ae0:	00000013          	addi	x0,x0,0
    8ae4:	00000013          	addi	x0,x0,0
    8ae8:	00000013          	addi	x0,x0,0
    8aec:	00000013          	addi	x0,x0,0
    8af0:	00000013          	addi	x0,x0,0
    8af4:	00000013          	addi	x0,x0,0
    8af8:	00000013          	addi	x0,x0,0
    8afc:	00000013          	addi	x0,x0,0
    8b00:	00000013          	addi	x0,x0,0
    8b04:	00000013          	addi	x0,x0,0
    8b08:	00000013          	addi	x0,x0,0
    8b0c:	00000013          	addi	x0,x0,0
    8b10:	00000013          	addi	x0,x0,0
    8b14:	00000013          	addi	x0,x0,0
    8b18:	00000013          	addi	x0,x0,0
    8b1c:	00000013          	addi	x0,x0,0
    8b20:	00000013          	addi	x0,x0,0
    8b24:	00000013          	addi	x0,x0,0
    8b28:	00000013          	addi	x0,x0,0
    8b2c:	00000013          	addi	x0,x0,0
    8b30:	00000013          	addi	x0,x0,0
    8b34:	00000013          	addi	x0,x0,0
    8b38:	00000013          	addi	x0,x0,0
    8b3c:	00000013          	addi	x0,x0,0
    8b40:	00000013          	addi	x0,x0,0
    8b44:	00000013          	addi	x0,x0,0
    8b48:	00000013          	addi	x0,x0,0
    8b4c:	00000013          	addi	x0,x0,0
    8b50:	00000013          	addi	x0,x0,0
    8b54:	00000013          	addi	x0,x0,0
    8b58:	00000013          	addi	x0,x0,0
    8b5c:	00000013          	addi	x0,x0,0
    8b60:	00000013          	addi	x0,x0,0
    8b64:	00000013          	addi	x0,x0,0
    8b68:	00000013          	addi	x0,x0,0
    8b6c:	00000013          	addi	x0,x0,0
    8b70:	00000013          	addi	x0,x0,0
    8b74:	00000013          	addi	x0,x0,0
    8b78:	00000013          	addi	x0,x0,0
    8b7c:	00000013          	addi	x0,x0,0
    8b80:	00000013          	addi	x0,x0,0
    8b84:	00000013          	addi	x0,x0,0
    8b88:	00000013          	addi	x0,x0,0
    8b8c:	00000013          	addi	x0,x0,0
    8b90:	00000013          	addi	x0,x0,0
    8b94:	00000013          	addi	x0,x0,0
    8b98:	00000013          	addi	x0,x0,0
    8b9c:	00000013          	addi	x0,x0,0
    8ba0:	00000013          	addi	x0,x0,0
    8ba4:	00000013          	addi	x0,x0,0
    8ba8:	00000013          	addi	x0,x0,0
    8bac:	00000013          	addi	x0,x0,0
    8bb0:	00000013          	addi	x0,x0,0
    8bb4:	00000013          	addi	x0,x0,0
    8bb8:	00000013          	addi	x0,x0,0
    8bbc:	00000013          	addi	x0,x0,0
    8bc0:	00000013          	addi	x0,x0,0
    8bc4:	00000013          	addi	x0,x0,0
    8bc8:	00000013          	addi	x0,x0,0
    8bcc:	00000013          	addi	x0,x0,0
    8bd0:	00000013          	addi	x0,x0,0
    8bd4:	00000013          	addi	x0,x0,0
    8bd8:	00000013          	addi	x0,x0,0
    8bdc:	00000013          	addi	x0,x0,0
    8be0:	00000013          	addi	x0,x0,0
    8be4:	00000013          	addi	x0,x0,0
    8be8:	00000013          	addi	x0,x0,0
    8bec:	00000013          	addi	x0,x0,0
    8bf0:	00000013          	addi	x0,x0,0
    8bf4:	00000013          	addi	x0,x0,0
    8bf8:	00000013          	addi	x0,x0,0
    8bfc:	00000013          	addi	x0,x0,0
    8c00:	00000013          	addi	x0,x0,0
    8c04:	00000013          	addi	x0,x0,0
    8c08:	00000013          	addi	x0,x0,0
    8c0c:	00000013          	addi	x0,x0,0
    8c10:	00000013          	addi	x0,x0,0
    8c14:	00000013          	addi	x0,x0,0
    8c18:	00000013          	addi	x0,x0,0
    8c1c:	00000013          	addi	x0,x0,0
    8c20:	00000013          	addi	x0,x0,0
    8c24:	00000013          	addi	x0,x0,0
    8c28:	00000013          	addi	x0,x0,0
    8c2c:	00000013          	addi	x0,x0,0
    8c30:	00000013          	addi	x0,x0,0
    8c34:	00000013          	addi	x0,x0,0
    8c38:	00000013          	addi	x0,x0,0
    8c3c:	00000013          	addi	x0,x0,0
    8c40:	00000013          	addi	x0,x0,0
    8c44:	00000013          	addi	x0,x0,0
    8c48:	00000013          	addi	x0,x0,0
    8c4c:	00000013          	addi	x0,x0,0
    8c50:	00000013          	addi	x0,x0,0
    8c54:	00000013          	addi	x0,x0,0
    8c58:	00000013          	addi	x0,x0,0
    8c5c:	00000013          	addi	x0,x0,0
    8c60:	00000013          	addi	x0,x0,0
    8c64:	00000013          	addi	x0,x0,0
    8c68:	00000013          	addi	x0,x0,0
    8c6c:	00000013          	addi	x0,x0,0
    8c70:	00000013          	addi	x0,x0,0
    8c74:	00000013          	addi	x0,x0,0
    8c78:	00000013          	addi	x0,x0,0
    8c7c:	00000013          	addi	x0,x0,0
    8c80:	00000013          	addi	x0,x0,0
    8c84:	00000013          	addi	x0,x0,0
    8c88:	00000013          	addi	x0,x0,0
    8c8c:	00000013          	addi	x0,x0,0
    8c90:	00000013          	addi	x0,x0,0
    8c94:	00000013          	addi	x0,x0,0
    8c98:	00000013          	addi	x0,x0,0
    8c9c:	00000013          	addi	x0,x0,0
    8ca0:	00000013          	addi	x0,x0,0
    8ca4:	00000013          	addi	x0,x0,0
    8ca8:	00000013          	addi	x0,x0,0
    8cac:	00000013          	addi	x0,x0,0
    8cb0:	00000013          	addi	x0,x0,0
    8cb4:	00000013          	addi	x0,x0,0
    8cb8:	00000013          	addi	x0,x0,0
    8cbc:	00000013          	addi	x0,x0,0
    8cc0:	00000013          	addi	x0,x0,0
    8cc4:	00000013          	addi	x0,x0,0
    8cc8:	00000013          	addi	x0,x0,0
    8ccc:	00000013          	addi	x0,x0,0
    8cd0:	00000013          	addi	x0,x0,0
    8cd4:	00000013          	addi	x0,x0,0
    8cd8:	00000013          	addi	x0,x0,0
    8cdc:	00000013          	addi	x0,x0,0
    8ce0:	00000013          	addi	x0,x0,0
    8ce4:	00000013          	addi	x0,x0,0
    8ce8:	00000013          	addi	x0,x0,0
    8cec:	00000013          	addi	x0,x0,0
    8cf0:	00000013          	addi	x0,x0,0
    8cf4:	00000013          	addi	x0,x0,0
    8cf8:	00000013          	addi	x0,x0,0
    8cfc:	00000013          	addi	x0,x0,0
    8d00:	00000013          	addi	x0,x0,0
    8d04:	00000013          	addi	x0,x0,0
    8d08:	00000013          	addi	x0,x0,0
    8d0c:	00000013          	addi	x0,x0,0
    8d10:	00000013          	addi	x0,x0,0
    8d14:	00000013          	addi	x0,x0,0
    8d18:	00000013          	addi	x0,x0,0
    8d1c:	00000013          	addi	x0,x0,0
    8d20:	00000013          	addi	x0,x0,0
    8d24:	00000013          	addi	x0,x0,0
    8d28:	00000013          	addi	x0,x0,0
    8d2c:	00000013          	addi	x0,x0,0
    8d30:	00000013          	addi	x0,x0,0
    8d34:	00000013          	addi	x0,x0,0
    8d38:	00000013          	addi	x0,x0,0
    8d3c:	00000013          	addi	x0,x0,0
    8d40:	00000013          	addi	x0,x0,0
    8d44:	00000013          	addi	x0,x0,0
    8d48:	00000013          	addi	x0,x0,0
    8d4c:	00000013          	addi	x0,x0,0
    8d50:	00000013          	addi	x0,x0,0
    8d54:	00000013          	addi	x0,x0,0
    8d58:	00000013          	addi	x0,x0,0
    8d5c:	00000013          	addi	x0,x0,0
    8d60:	00000013          	addi	x0,x0,0
    8d64:	00000013          	addi	x0,x0,0
    8d68:	00000013          	addi	x0,x0,0
    8d6c:	00000013          	addi	x0,x0,0
    8d70:	00000013          	addi	x0,x0,0
    8d74:	00000013          	addi	x0,x0,0
    8d78:	00000013          	addi	x0,x0,0
    8d7c:	00000013          	addi	x0,x0,0
    8d80:	00000013          	addi	x0,x0,0
    8d84:	00000013          	addi	x0,x0,0
    8d88:	00000013          	addi	x0,x0,0
    8d8c:	00000013          	addi	x0,x0,0
    8d90:	00000013          	addi	x0,x0,0
    8d94:	00000013          	addi	x0,x0,0
    8d98:	00000013          	addi	x0,x0,0
    8d9c:	00000013          	addi	x0,x0,0
    8da0:	00000013          	addi	x0,x0,0
    8da4:	00000013          	addi	x0,x0,0
    8da8:	00000013          	addi	x0,x0,0
    8dac:	00000013          	addi	x0,x0,0
    8db0:	00000013          	addi	x0,x0,0
    8db4:	00000013          	addi	x0,x0,0
    8db8:	00000013          	addi	x0,x0,0
    8dbc:	00000013          	addi	x0,x0,0
    8dc0:	00000013          	addi	x0,x0,0
    8dc4:	00000013          	addi	x0,x0,0
    8dc8:	00000013          	addi	x0,x0,0
    8dcc:	00000013          	addi	x0,x0,0
    8dd0:	00000013          	addi	x0,x0,0
    8dd4:	00000013          	addi	x0,x0,0
    8dd8:	00000013          	addi	x0,x0,0
    8ddc:	00000013          	addi	x0,x0,0
    8de0:	00000013          	addi	x0,x0,0
    8de4:	00000013          	addi	x0,x0,0
    8de8:	00000013          	addi	x0,x0,0
    8dec:	00000013          	addi	x0,x0,0
    8df0:	00000013          	addi	x0,x0,0
    8df4:	00000013          	addi	x0,x0,0
    8df8:	00000013          	addi	x0,x0,0
    8dfc:	00000013          	addi	x0,x0,0
    8e00:	00000013          	addi	x0,x0,0
    8e04:	00000013          	addi	x0,x0,0
    8e08:	00000013          	addi	x0,x0,0
    8e0c:	00000013          	addi	x0,x0,0
    8e10:	00000013          	addi	x0,x0,0
    8e14:	00000013          	addi	x0,x0,0
    8e18:	00000013          	addi	x0,x0,0
    8e1c:	00000013          	addi	x0,x0,0
    8e20:	00000013          	addi	x0,x0,0
    8e24:	00000013          	addi	x0,x0,0
    8e28:	00000013          	addi	x0,x0,0
    8e2c:	00000013          	addi	x0,x0,0
    8e30:	00000013          	addi	x0,x0,0
    8e34:	00000013          	addi	x0,x0,0
    8e38:	00000013          	addi	x0,x0,0
    8e3c:	00000013          	addi	x0,x0,0
    8e40:	00000013          	addi	x0,x0,0
    8e44:	00000013          	addi	x0,x0,0
    8e48:	00000013          	addi	x0,x0,0
    8e4c:	00000013          	addi	x0,x0,0
    8e50:	00000013          	addi	x0,x0,0
    8e54:	00000013          	addi	x0,x0,0
    8e58:	00000013          	addi	x0,x0,0
    8e5c:	00000013          	addi	x0,x0,0
    8e60:	00000013          	addi	x0,x0,0
    8e64:	00000013          	addi	x0,x0,0
    8e68:	00000013          	addi	x0,x0,0
    8e6c:	00000013          	addi	x0,x0,0
    8e70:	00000013          	addi	x0,x0,0
    8e74:	00000013          	addi	x0,x0,0
    8e78:	00000013          	addi	x0,x0,0
    8e7c:	00000013          	addi	x0,x0,0
    8e80:	00000013          	addi	x0,x0,0
    8e84:	00000013          	addi	x0,x0,0
    8e88:	00000013          	addi	x0,x0,0
    8e8c:	00000013          	addi	x0,x0,0
    8e90:	00000013          	addi	x0,x0,0
    8e94:	00000013          	addi	x0,x0,0
    8e98:	00000013          	addi	x0,x0,0
    8e9c:	00000013          	addi	x0,x0,0
    8ea0:	00000013          	addi	x0,x0,0
    8ea4:	00000013          	addi	x0,x0,0
    8ea8:	00000013          	addi	x0,x0,0
    8eac:	00000013          	addi	x0,x0,0
    8eb0:	00000013          	addi	x0,x0,0
    8eb4:	00000013          	addi	x0,x0,0
    8eb8:	00000013          	addi	x0,x0,0
    8ebc:	00000013          	addi	x0,x0,0
    8ec0:	00000013          	addi	x0,x0,0
    8ec4:	00000013          	addi	x0,x0,0
    8ec8:	00000013          	addi	x0,x0,0
    8ecc:	00000013          	addi	x0,x0,0
    8ed0:	00000013          	addi	x0,x0,0
    8ed4:	00000013          	addi	x0,x0,0
    8ed8:	00000013          	addi	x0,x0,0
    8edc:	00000013          	addi	x0,x0,0
    8ee0:	00000013          	addi	x0,x0,0
    8ee4:	00000013          	addi	x0,x0,0
    8ee8:	00000013          	addi	x0,x0,0
    8eec:	00000013          	addi	x0,x0,0
    8ef0:	00000013          	addi	x0,x0,0
    8ef4:	00000013          	addi	x0,x0,0
    8ef8:	00000013          	addi	x0,x0,0
    8efc:	00000013          	addi	x0,x0,0
    8f00:	00000013          	addi	x0,x0,0
    8f04:	00000013          	addi	x0,x0,0
    8f08:	00000013          	addi	x0,x0,0
    8f0c:	00000013          	addi	x0,x0,0
    8f10:	00000013          	addi	x0,x0,0
    8f14:	00000013          	addi	x0,x0,0
    8f18:	00000013          	addi	x0,x0,0
    8f1c:	00000013          	addi	x0,x0,0
    8f20:	00000013          	addi	x0,x0,0
    8f24:	00000013          	addi	x0,x0,0
    8f28:	00000013          	addi	x0,x0,0
    8f2c:	00000013          	addi	x0,x0,0
    8f30:	00000013          	addi	x0,x0,0
    8f34:	00000013          	addi	x0,x0,0
    8f38:	00000013          	addi	x0,x0,0
    8f3c:	00000013          	addi	x0,x0,0
    8f40:	00000013          	addi	x0,x0,0
    8f44:	00000013          	addi	x0,x0,0
    8f48:	00000013          	addi	x0,x0,0
    8f4c:	00000013          	addi	x0,x0,0
    8f50:	00000013          	addi	x0,x0,0
    8f54:	00000013          	addi	x0,x0,0
    8f58:	00000013          	addi	x0,x0,0
    8f5c:	00000013          	addi	x0,x0,0
    8f60:	00000013          	addi	x0,x0,0
    8f64:	00000013          	addi	x0,x0,0
    8f68:	00000013          	addi	x0,x0,0
    8f6c:	00000013          	addi	x0,x0,0
    8f70:	00000013          	addi	x0,x0,0
    8f74:	00000013          	addi	x0,x0,0
    8f78:	00000013          	addi	x0,x0,0
    8f7c:	00000013          	addi	x0,x0,0
    8f80:	00000013          	addi	x0,x0,0
    8f84:	00000013          	addi	x0,x0,0
    8f88:	00000013          	addi	x0,x0,0
    8f8c:	00000013          	addi	x0,x0,0
    8f90:	00000013          	addi	x0,x0,0
    8f94:	00000013          	addi	x0,x0,0
    8f98:	00000013          	addi	x0,x0,0
    8f9c:	00000013          	addi	x0,x0,0
    8fa0:	00000013          	addi	x0,x0,0
    8fa4:	00000013          	addi	x0,x0,0
    8fa8:	00000013          	addi	x0,x0,0
    8fac:	00000013          	addi	x0,x0,0
    8fb0:	00000013          	addi	x0,x0,0
    8fb4:	00000013          	addi	x0,x0,0
    8fb8:	00000013          	addi	x0,x0,0
    8fbc:	00000013          	addi	x0,x0,0
    8fc0:	00000013          	addi	x0,x0,0
    8fc4:	00000013          	addi	x0,x0,0
    8fc8:	00000013          	addi	x0,x0,0
    8fcc:	00000013          	addi	x0,x0,0
    8fd0:	00000013          	addi	x0,x0,0
    8fd4:	00000013          	addi	x0,x0,0
    8fd8:	00000013          	addi	x0,x0,0
    8fdc:	00000013          	addi	x0,x0,0
    8fe0:	00000013          	addi	x0,x0,0
    8fe4:	00000013          	addi	x0,x0,0
    8fe8:	00000013          	addi	x0,x0,0
    8fec:	00000013          	addi	x0,x0,0
    8ff0:	00000013          	addi	x0,x0,0
    8ff4:	00000013          	addi	x0,x0,0
    8ff8:	00000013          	addi	x0,x0,0
    8ffc:	00000013          	addi	x0,x0,0

# backward branch by 4096
  .p2align 12 # align to 4096 bytes
10:
  addi x19, x19, 1 # should happen
    9000:	00198993          	addi	x19,x19,1
  j 20f # backward branch succeeded
    9004:	00c0106f          	jal	x0,a010 <I_bge_cg_cp_imm_edges_branch_all+0x4390>
    9008:	00000013          	addi	x0,x0,0
    900c:	00000013          	addi	x0,x0,0
    9010:	00000013          	addi	x0,x0,0
    9014:	00000013          	addi	x0,x0,0
    9018:	00000013          	addi	x0,x0,0
    901c:	00000013          	addi	x0,x0,0
    9020:	00000013          	addi	x0,x0,0
    9024:	00000013          	addi	x0,x0,0
    9028:	00000013          	addi	x0,x0,0
    902c:	00000013          	addi	x0,x0,0
    9030:	00000013          	addi	x0,x0,0
    9034:	00000013          	addi	x0,x0,0
    9038:	00000013          	addi	x0,x0,0
    903c:	00000013          	addi	x0,x0,0
    9040:	00000013          	addi	x0,x0,0
    9044:	00000013          	addi	x0,x0,0
    9048:	00000013          	addi	x0,x0,0
    904c:	00000013          	addi	x0,x0,0
    9050:	00000013          	addi	x0,x0,0
    9054:	00000013          	addi	x0,x0,0
    9058:	00000013          	addi	x0,x0,0
    905c:	00000013          	addi	x0,x0,0
    9060:	00000013          	addi	x0,x0,0
    9064:	00000013          	addi	x0,x0,0
    9068:	00000013          	addi	x0,x0,0
    906c:	00000013          	addi	x0,x0,0
    9070:	00000013          	addi	x0,x0,0
    9074:	00000013          	addi	x0,x0,0
    9078:	00000013          	addi	x0,x0,0
    907c:	00000013          	addi	x0,x0,0
    9080:	00000013          	addi	x0,x0,0
    9084:	00000013          	addi	x0,x0,0
    9088:	00000013          	addi	x0,x0,0
    908c:	00000013          	addi	x0,x0,0
    9090:	00000013          	addi	x0,x0,0
    9094:	00000013          	addi	x0,x0,0
    9098:	00000013          	addi	x0,x0,0
    909c:	00000013          	addi	x0,x0,0
    90a0:	00000013          	addi	x0,x0,0
    90a4:	00000013          	addi	x0,x0,0
    90a8:	00000013          	addi	x0,x0,0
    90ac:	00000013          	addi	x0,x0,0
    90b0:	00000013          	addi	x0,x0,0
    90b4:	00000013          	addi	x0,x0,0
    90b8:	00000013          	addi	x0,x0,0
    90bc:	00000013          	addi	x0,x0,0
    90c0:	00000013          	addi	x0,x0,0
    90c4:	00000013          	addi	x0,x0,0
    90c8:	00000013          	addi	x0,x0,0
    90cc:	00000013          	addi	x0,x0,0
    90d0:	00000013          	addi	x0,x0,0
    90d4:	00000013          	addi	x0,x0,0
    90d8:	00000013          	addi	x0,x0,0
    90dc:	00000013          	addi	x0,x0,0
    90e0:	00000013          	addi	x0,x0,0
    90e4:	00000013          	addi	x0,x0,0
    90e8:	00000013          	addi	x0,x0,0
    90ec:	00000013          	addi	x0,x0,0
    90f0:	00000013          	addi	x0,x0,0
    90f4:	00000013          	addi	x0,x0,0
    90f8:	00000013          	addi	x0,x0,0
    90fc:	00000013          	addi	x0,x0,0
    9100:	00000013          	addi	x0,x0,0
    9104:	00000013          	addi	x0,x0,0
    9108:	00000013          	addi	x0,x0,0
    910c:	00000013          	addi	x0,x0,0
    9110:	00000013          	addi	x0,x0,0
    9114:	00000013          	addi	x0,x0,0
    9118:	00000013          	addi	x0,x0,0
    911c:	00000013          	addi	x0,x0,0
    9120:	00000013          	addi	x0,x0,0
    9124:	00000013          	addi	x0,x0,0
    9128:	00000013          	addi	x0,x0,0
    912c:	00000013          	addi	x0,x0,0
    9130:	00000013          	addi	x0,x0,0
    9134:	00000013          	addi	x0,x0,0
    9138:	00000013          	addi	x0,x0,0
    913c:	00000013          	addi	x0,x0,0
    9140:	00000013          	addi	x0,x0,0
    9144:	00000013          	addi	x0,x0,0
    9148:	00000013          	addi	x0,x0,0
    914c:	00000013          	addi	x0,x0,0
    9150:	00000013          	addi	x0,x0,0
    9154:	00000013          	addi	x0,x0,0
    9158:	00000013          	addi	x0,x0,0
    915c:	00000013          	addi	x0,x0,0
    9160:	00000013          	addi	x0,x0,0
    9164:	00000013          	addi	x0,x0,0
    9168:	00000013          	addi	x0,x0,0
    916c:	00000013          	addi	x0,x0,0
    9170:	00000013          	addi	x0,x0,0
    9174:	00000013          	addi	x0,x0,0
    9178:	00000013          	addi	x0,x0,0
    917c:	00000013          	addi	x0,x0,0
    9180:	00000013          	addi	x0,x0,0
    9184:	00000013          	addi	x0,x0,0
    9188:	00000013          	addi	x0,x0,0
    918c:	00000013          	addi	x0,x0,0
    9190:	00000013          	addi	x0,x0,0
    9194:	00000013          	addi	x0,x0,0
    9198:	00000013          	addi	x0,x0,0
    919c:	00000013          	addi	x0,x0,0
    91a0:	00000013          	addi	x0,x0,0
    91a4:	00000013          	addi	x0,x0,0
    91a8:	00000013          	addi	x0,x0,0
    91ac:	00000013          	addi	x0,x0,0
    91b0:	00000013          	addi	x0,x0,0
    91b4:	00000013          	addi	x0,x0,0
    91b8:	00000013          	addi	x0,x0,0
    91bc:	00000013          	addi	x0,x0,0
    91c0:	00000013          	addi	x0,x0,0
    91c4:	00000013          	addi	x0,x0,0
    91c8:	00000013          	addi	x0,x0,0
    91cc:	00000013          	addi	x0,x0,0
    91d0:	00000013          	addi	x0,x0,0
    91d4:	00000013          	addi	x0,x0,0
    91d8:	00000013          	addi	x0,x0,0
    91dc:	00000013          	addi	x0,x0,0
    91e0:	00000013          	addi	x0,x0,0
    91e4:	00000013          	addi	x0,x0,0
    91e8:	00000013          	addi	x0,x0,0
    91ec:	00000013          	addi	x0,x0,0
    91f0:	00000013          	addi	x0,x0,0
    91f4:	00000013          	addi	x0,x0,0
    91f8:	00000013          	addi	x0,x0,0
    91fc:	00000013          	addi	x0,x0,0
    9200:	00000013          	addi	x0,x0,0
    9204:	00000013          	addi	x0,x0,0
    9208:	00000013          	addi	x0,x0,0
    920c:	00000013          	addi	x0,x0,0
    9210:	00000013          	addi	x0,x0,0
    9214:	00000013          	addi	x0,x0,0
    9218:	00000013          	addi	x0,x0,0
    921c:	00000013          	addi	x0,x0,0
    9220:	00000013          	addi	x0,x0,0
    9224:	00000013          	addi	x0,x0,0
    9228:	00000013          	addi	x0,x0,0
    922c:	00000013          	addi	x0,x0,0
    9230:	00000013          	addi	x0,x0,0
    9234:	00000013          	addi	x0,x0,0
    9238:	00000013          	addi	x0,x0,0
    923c:	00000013          	addi	x0,x0,0
    9240:	00000013          	addi	x0,x0,0
    9244:	00000013          	addi	x0,x0,0
    9248:	00000013          	addi	x0,x0,0
    924c:	00000013          	addi	x0,x0,0
    9250:	00000013          	addi	x0,x0,0
    9254:	00000013          	addi	x0,x0,0
    9258:	00000013          	addi	x0,x0,0
    925c:	00000013          	addi	x0,x0,0
    9260:	00000013          	addi	x0,x0,0
    9264:	00000013          	addi	x0,x0,0
    9268:	00000013          	addi	x0,x0,0
    926c:	00000013          	addi	x0,x0,0
    9270:	00000013          	addi	x0,x0,0
    9274:	00000013          	addi	x0,x0,0
    9278:	00000013          	addi	x0,x0,0
    927c:	00000013          	addi	x0,x0,0
    9280:	00000013          	addi	x0,x0,0
    9284:	00000013          	addi	x0,x0,0
    9288:	00000013          	addi	x0,x0,0
    928c:	00000013          	addi	x0,x0,0
    9290:	00000013          	addi	x0,x0,0
    9294:	00000013          	addi	x0,x0,0
    9298:	00000013          	addi	x0,x0,0
    929c:	00000013          	addi	x0,x0,0
    92a0:	00000013          	addi	x0,x0,0
    92a4:	00000013          	addi	x0,x0,0
    92a8:	00000013          	addi	x0,x0,0
    92ac:	00000013          	addi	x0,x0,0
    92b0:	00000013          	addi	x0,x0,0
    92b4:	00000013          	addi	x0,x0,0
    92b8:	00000013          	addi	x0,x0,0
    92bc:	00000013          	addi	x0,x0,0
    92c0:	00000013          	addi	x0,x0,0
    92c4:	00000013          	addi	x0,x0,0
    92c8:	00000013          	addi	x0,x0,0
    92cc:	00000013          	addi	x0,x0,0
    92d0:	00000013          	addi	x0,x0,0
    92d4:	00000013          	addi	x0,x0,0
    92d8:	00000013          	addi	x0,x0,0
    92dc:	00000013          	addi	x0,x0,0
    92e0:	00000013          	addi	x0,x0,0
    92e4:	00000013          	addi	x0,x0,0
    92e8:	00000013          	addi	x0,x0,0
    92ec:	00000013          	addi	x0,x0,0
    92f0:	00000013          	addi	x0,x0,0
    92f4:	00000013          	addi	x0,x0,0
    92f8:	00000013          	addi	x0,x0,0
    92fc:	00000013          	addi	x0,x0,0
    9300:	00000013          	addi	x0,x0,0
    9304:	00000013          	addi	x0,x0,0
    9308:	00000013          	addi	x0,x0,0
    930c:	00000013          	addi	x0,x0,0
    9310:	00000013          	addi	x0,x0,0
    9314:	00000013          	addi	x0,x0,0
    9318:	00000013          	addi	x0,x0,0
    931c:	00000013          	addi	x0,x0,0
    9320:	00000013          	addi	x0,x0,0
    9324:	00000013          	addi	x0,x0,0
    9328:	00000013          	addi	x0,x0,0
    932c:	00000013          	addi	x0,x0,0
    9330:	00000013          	addi	x0,x0,0
    9334:	00000013          	addi	x0,x0,0
    9338:	00000013          	addi	x0,x0,0
    933c:	00000013          	addi	x0,x0,0
    9340:	00000013          	addi	x0,x0,0
    9344:	00000013          	addi	x0,x0,0
    9348:	00000013          	addi	x0,x0,0
    934c:	00000013          	addi	x0,x0,0
    9350:	00000013          	addi	x0,x0,0
    9354:	00000013          	addi	x0,x0,0
    9358:	00000013          	addi	x0,x0,0
    935c:	00000013          	addi	x0,x0,0
    9360:	00000013          	addi	x0,x0,0
    9364:	00000013          	addi	x0,x0,0
    9368:	00000013          	addi	x0,x0,0
    936c:	00000013          	addi	x0,x0,0
    9370:	00000013          	addi	x0,x0,0
    9374:	00000013          	addi	x0,x0,0
    9378:	00000013          	addi	x0,x0,0
    937c:	00000013          	addi	x0,x0,0
    9380:	00000013          	addi	x0,x0,0
    9384:	00000013          	addi	x0,x0,0
    9388:	00000013          	addi	x0,x0,0
    938c:	00000013          	addi	x0,x0,0
    9390:	00000013          	addi	x0,x0,0
    9394:	00000013          	addi	x0,x0,0
    9398:	00000013          	addi	x0,x0,0
    939c:	00000013          	addi	x0,x0,0
    93a0:	00000013          	addi	x0,x0,0
    93a4:	00000013          	addi	x0,x0,0
    93a8:	00000013          	addi	x0,x0,0
    93ac:	00000013          	addi	x0,x0,0
    93b0:	00000013          	addi	x0,x0,0
    93b4:	00000013          	addi	x0,x0,0
    93b8:	00000013          	addi	x0,x0,0
    93bc:	00000013          	addi	x0,x0,0
    93c0:	00000013          	addi	x0,x0,0
    93c4:	00000013          	addi	x0,x0,0
    93c8:	00000013          	addi	x0,x0,0
    93cc:	00000013          	addi	x0,x0,0
    93d0:	00000013          	addi	x0,x0,0
    93d4:	00000013          	addi	x0,x0,0
    93d8:	00000013          	addi	x0,x0,0
    93dc:	00000013          	addi	x0,x0,0
    93e0:	00000013          	addi	x0,x0,0
    93e4:	00000013          	addi	x0,x0,0
    93e8:	00000013          	addi	x0,x0,0
    93ec:	00000013          	addi	x0,x0,0
    93f0:	00000013          	addi	x0,x0,0
    93f4:	00000013          	addi	x0,x0,0
    93f8:	00000013          	addi	x0,x0,0
    93fc:	00000013          	addi	x0,x0,0
    9400:	00000013          	addi	x0,x0,0
    9404:	00000013          	addi	x0,x0,0
    9408:	00000013          	addi	x0,x0,0
    940c:	00000013          	addi	x0,x0,0
    9410:	00000013          	addi	x0,x0,0
    9414:	00000013          	addi	x0,x0,0
    9418:	00000013          	addi	x0,x0,0
    941c:	00000013          	addi	x0,x0,0
    9420:	00000013          	addi	x0,x0,0
    9424:	00000013          	addi	x0,x0,0
    9428:	00000013          	addi	x0,x0,0
    942c:	00000013          	addi	x0,x0,0
    9430:	00000013          	addi	x0,x0,0
    9434:	00000013          	addi	x0,x0,0
    9438:	00000013          	addi	x0,x0,0
    943c:	00000013          	addi	x0,x0,0
    9440:	00000013          	addi	x0,x0,0
    9444:	00000013          	addi	x0,x0,0
    9448:	00000013          	addi	x0,x0,0
    944c:	00000013          	addi	x0,x0,0
    9450:	00000013          	addi	x0,x0,0
    9454:	00000013          	addi	x0,x0,0
    9458:	00000013          	addi	x0,x0,0
    945c:	00000013          	addi	x0,x0,0
    9460:	00000013          	addi	x0,x0,0
    9464:	00000013          	addi	x0,x0,0
    9468:	00000013          	addi	x0,x0,0
    946c:	00000013          	addi	x0,x0,0
    9470:	00000013          	addi	x0,x0,0
    9474:	00000013          	addi	x0,x0,0
    9478:	00000013          	addi	x0,x0,0
    947c:	00000013          	addi	x0,x0,0
    9480:	00000013          	addi	x0,x0,0
    9484:	00000013          	addi	x0,x0,0
    9488:	00000013          	addi	x0,x0,0
    948c:	00000013          	addi	x0,x0,0
    9490:	00000013          	addi	x0,x0,0
    9494:	00000013          	addi	x0,x0,0
    9498:	00000013          	addi	x0,x0,0
    949c:	00000013          	addi	x0,x0,0
    94a0:	00000013          	addi	x0,x0,0
    94a4:	00000013          	addi	x0,x0,0
    94a8:	00000013          	addi	x0,x0,0
    94ac:	00000013          	addi	x0,x0,0
    94b0:	00000013          	addi	x0,x0,0
    94b4:	00000013          	addi	x0,x0,0
    94b8:	00000013          	addi	x0,x0,0
    94bc:	00000013          	addi	x0,x0,0
    94c0:	00000013          	addi	x0,x0,0
    94c4:	00000013          	addi	x0,x0,0
    94c8:	00000013          	addi	x0,x0,0
    94cc:	00000013          	addi	x0,x0,0
    94d0:	00000013          	addi	x0,x0,0
    94d4:	00000013          	addi	x0,x0,0
    94d8:	00000013          	addi	x0,x0,0
    94dc:	00000013          	addi	x0,x0,0
    94e0:	00000013          	addi	x0,x0,0
    94e4:	00000013          	addi	x0,x0,0
    94e8:	00000013          	addi	x0,x0,0
    94ec:	00000013          	addi	x0,x0,0
    94f0:	00000013          	addi	x0,x0,0
    94f4:	00000013          	addi	x0,x0,0
    94f8:	00000013          	addi	x0,x0,0
    94fc:	00000013          	addi	x0,x0,0
    9500:	00000013          	addi	x0,x0,0
    9504:	00000013          	addi	x0,x0,0
    9508:	00000013          	addi	x0,x0,0
    950c:	00000013          	addi	x0,x0,0
    9510:	00000013          	addi	x0,x0,0
    9514:	00000013          	addi	x0,x0,0
    9518:	00000013          	addi	x0,x0,0
    951c:	00000013          	addi	x0,x0,0
    9520:	00000013          	addi	x0,x0,0
    9524:	00000013          	addi	x0,x0,0
    9528:	00000013          	addi	x0,x0,0
    952c:	00000013          	addi	x0,x0,0
    9530:	00000013          	addi	x0,x0,0
    9534:	00000013          	addi	x0,x0,0
    9538:	00000013          	addi	x0,x0,0
    953c:	00000013          	addi	x0,x0,0
    9540:	00000013          	addi	x0,x0,0
    9544:	00000013          	addi	x0,x0,0
    9548:	00000013          	addi	x0,x0,0
    954c:	00000013          	addi	x0,x0,0
    9550:	00000013          	addi	x0,x0,0
    9554:	00000013          	addi	x0,x0,0
    9558:	00000013          	addi	x0,x0,0
    955c:	00000013          	addi	x0,x0,0
    9560:	00000013          	addi	x0,x0,0
    9564:	00000013          	addi	x0,x0,0
    9568:	00000013          	addi	x0,x0,0
    956c:	00000013          	addi	x0,x0,0
    9570:	00000013          	addi	x0,x0,0
    9574:	00000013          	addi	x0,x0,0
    9578:	00000013          	addi	x0,x0,0
    957c:	00000013          	addi	x0,x0,0
    9580:	00000013          	addi	x0,x0,0
    9584:	00000013          	addi	x0,x0,0
    9588:	00000013          	addi	x0,x0,0
    958c:	00000013          	addi	x0,x0,0
    9590:	00000013          	addi	x0,x0,0
    9594:	00000013          	addi	x0,x0,0
    9598:	00000013          	addi	x0,x0,0
    959c:	00000013          	addi	x0,x0,0
    95a0:	00000013          	addi	x0,x0,0
    95a4:	00000013          	addi	x0,x0,0
    95a8:	00000013          	addi	x0,x0,0
    95ac:	00000013          	addi	x0,x0,0
    95b0:	00000013          	addi	x0,x0,0
    95b4:	00000013          	addi	x0,x0,0
    95b8:	00000013          	addi	x0,x0,0
    95bc:	00000013          	addi	x0,x0,0
    95c0:	00000013          	addi	x0,x0,0
    95c4:	00000013          	addi	x0,x0,0
    95c8:	00000013          	addi	x0,x0,0
    95cc:	00000013          	addi	x0,x0,0
    95d0:	00000013          	addi	x0,x0,0
    95d4:	00000013          	addi	x0,x0,0
    95d8:	00000013          	addi	x0,x0,0
    95dc:	00000013          	addi	x0,x0,0
    95e0:	00000013          	addi	x0,x0,0
    95e4:	00000013          	addi	x0,x0,0
    95e8:	00000013          	addi	x0,x0,0
    95ec:	00000013          	addi	x0,x0,0
    95f0:	00000013          	addi	x0,x0,0
    95f4:	00000013          	addi	x0,x0,0
    95f8:	00000013          	addi	x0,x0,0
    95fc:	00000013          	addi	x0,x0,0
    9600:	00000013          	addi	x0,x0,0
    9604:	00000013          	addi	x0,x0,0
    9608:	00000013          	addi	x0,x0,0
    960c:	00000013          	addi	x0,x0,0
    9610:	00000013          	addi	x0,x0,0
    9614:	00000013          	addi	x0,x0,0
    9618:	00000013          	addi	x0,x0,0
    961c:	00000013          	addi	x0,x0,0
    9620:	00000013          	addi	x0,x0,0
    9624:	00000013          	addi	x0,x0,0
    9628:	00000013          	addi	x0,x0,0
    962c:	00000013          	addi	x0,x0,0
    9630:	00000013          	addi	x0,x0,0
    9634:	00000013          	addi	x0,x0,0
    9638:	00000013          	addi	x0,x0,0
    963c:	00000013          	addi	x0,x0,0
    9640:	00000013          	addi	x0,x0,0
    9644:	00000013          	addi	x0,x0,0
    9648:	00000013          	addi	x0,x0,0
    964c:	00000013          	addi	x0,x0,0
    9650:	00000013          	addi	x0,x0,0
    9654:	00000013          	addi	x0,x0,0
    9658:	00000013          	addi	x0,x0,0
    965c:	00000013          	addi	x0,x0,0
    9660:	00000013          	addi	x0,x0,0
    9664:	00000013          	addi	x0,x0,0
    9668:	00000013          	addi	x0,x0,0
    966c:	00000013          	addi	x0,x0,0
    9670:	00000013          	addi	x0,x0,0
    9674:	00000013          	addi	x0,x0,0
    9678:	00000013          	addi	x0,x0,0
    967c:	00000013          	addi	x0,x0,0
    9680:	00000013          	addi	x0,x0,0
    9684:	00000013          	addi	x0,x0,0
    9688:	00000013          	addi	x0,x0,0
    968c:	00000013          	addi	x0,x0,0
    9690:	00000013          	addi	x0,x0,0
    9694:	00000013          	addi	x0,x0,0
    9698:	00000013          	addi	x0,x0,0
    969c:	00000013          	addi	x0,x0,0
    96a0:	00000013          	addi	x0,x0,0
    96a4:	00000013          	addi	x0,x0,0
    96a8:	00000013          	addi	x0,x0,0
    96ac:	00000013          	addi	x0,x0,0
    96b0:	00000013          	addi	x0,x0,0
    96b4:	00000013          	addi	x0,x0,0
    96b8:	00000013          	addi	x0,x0,0
    96bc:	00000013          	addi	x0,x0,0
    96c0:	00000013          	addi	x0,x0,0
    96c4:	00000013          	addi	x0,x0,0
    96c8:	00000013          	addi	x0,x0,0
    96cc:	00000013          	addi	x0,x0,0
    96d0:	00000013          	addi	x0,x0,0
    96d4:	00000013          	addi	x0,x0,0
    96d8:	00000013          	addi	x0,x0,0
    96dc:	00000013          	addi	x0,x0,0
    96e0:	00000013          	addi	x0,x0,0
    96e4:	00000013          	addi	x0,x0,0
    96e8:	00000013          	addi	x0,x0,0
    96ec:	00000013          	addi	x0,x0,0
    96f0:	00000013          	addi	x0,x0,0
    96f4:	00000013          	addi	x0,x0,0
    96f8:	00000013          	addi	x0,x0,0
    96fc:	00000013          	addi	x0,x0,0
    9700:	00000013          	addi	x0,x0,0
    9704:	00000013          	addi	x0,x0,0
    9708:	00000013          	addi	x0,x0,0
    970c:	00000013          	addi	x0,x0,0
    9710:	00000013          	addi	x0,x0,0
    9714:	00000013          	addi	x0,x0,0
    9718:	00000013          	addi	x0,x0,0
    971c:	00000013          	addi	x0,x0,0
    9720:	00000013          	addi	x0,x0,0
    9724:	00000013          	addi	x0,x0,0
    9728:	00000013          	addi	x0,x0,0
    972c:	00000013          	addi	x0,x0,0
    9730:	00000013          	addi	x0,x0,0
    9734:	00000013          	addi	x0,x0,0
    9738:	00000013          	addi	x0,x0,0
    973c:	00000013          	addi	x0,x0,0
    9740:	00000013          	addi	x0,x0,0
    9744:	00000013          	addi	x0,x0,0
    9748:	00000013          	addi	x0,x0,0
    974c:	00000013          	addi	x0,x0,0
    9750:	00000013          	addi	x0,x0,0
    9754:	00000013          	addi	x0,x0,0
    9758:	00000013          	addi	x0,x0,0
    975c:	00000013          	addi	x0,x0,0
    9760:	00000013          	addi	x0,x0,0
    9764:	00000013          	addi	x0,x0,0
    9768:	00000013          	addi	x0,x0,0
    976c:	00000013          	addi	x0,x0,0
    9770:	00000013          	addi	x0,x0,0
    9774:	00000013          	addi	x0,x0,0
    9778:	00000013          	addi	x0,x0,0
    977c:	00000013          	addi	x0,x0,0
    9780:	00000013          	addi	x0,x0,0
    9784:	00000013          	addi	x0,x0,0
    9788:	00000013          	addi	x0,x0,0
    978c:	00000013          	addi	x0,x0,0
    9790:	00000013          	addi	x0,x0,0
    9794:	00000013          	addi	x0,x0,0
    9798:	00000013          	addi	x0,x0,0
    979c:	00000013          	addi	x0,x0,0
    97a0:	00000013          	addi	x0,x0,0
    97a4:	00000013          	addi	x0,x0,0
    97a8:	00000013          	addi	x0,x0,0
    97ac:	00000013          	addi	x0,x0,0
    97b0:	00000013          	addi	x0,x0,0
    97b4:	00000013          	addi	x0,x0,0
    97b8:	00000013          	addi	x0,x0,0
    97bc:	00000013          	addi	x0,x0,0
    97c0:	00000013          	addi	x0,x0,0
    97c4:	00000013          	addi	x0,x0,0
    97c8:	00000013          	addi	x0,x0,0
    97cc:	00000013          	addi	x0,x0,0
    97d0:	00000013          	addi	x0,x0,0
    97d4:	00000013          	addi	x0,x0,0
    97d8:	00000013          	addi	x0,x0,0
    97dc:	00000013          	addi	x0,x0,0
    97e0:	00000013          	addi	x0,x0,0
    97e4:	00000013          	addi	x0,x0,0
    97e8:	00000013          	addi	x0,x0,0
    97ec:	00000013          	addi	x0,x0,0
    97f0:	00000013          	addi	x0,x0,0
    97f4:	00000013          	addi	x0,x0,0
    97f8:	00000013          	addi	x0,x0,0
    97fc:	00000013          	addi	x0,x0,0
    9800:	00000013          	addi	x0,x0,0
    9804:	00000013          	addi	x0,x0,0
    9808:	00000013          	addi	x0,x0,0
    980c:	00000013          	addi	x0,x0,0
    9810:	00000013          	addi	x0,x0,0
    9814:	00000013          	addi	x0,x0,0
    9818:	00000013          	addi	x0,x0,0
    981c:	00000013          	addi	x0,x0,0
    9820:	00000013          	addi	x0,x0,0
    9824:	00000013          	addi	x0,x0,0
    9828:	00000013          	addi	x0,x0,0
    982c:	00000013          	addi	x0,x0,0
    9830:	00000013          	addi	x0,x0,0
    9834:	00000013          	addi	x0,x0,0
    9838:	00000013          	addi	x0,x0,0
    983c:	00000013          	addi	x0,x0,0
    9840:	00000013          	addi	x0,x0,0
    9844:	00000013          	addi	x0,x0,0
    9848:	00000013          	addi	x0,x0,0
    984c:	00000013          	addi	x0,x0,0
    9850:	00000013          	addi	x0,x0,0
    9854:	00000013          	addi	x0,x0,0
    9858:	00000013          	addi	x0,x0,0
    985c:	00000013          	addi	x0,x0,0
    9860:	00000013          	addi	x0,x0,0
    9864:	00000013          	addi	x0,x0,0
    9868:	00000013          	addi	x0,x0,0
    986c:	00000013          	addi	x0,x0,0
    9870:	00000013          	addi	x0,x0,0
    9874:	00000013          	addi	x0,x0,0
    9878:	00000013          	addi	x0,x0,0
    987c:	00000013          	addi	x0,x0,0
    9880:	00000013          	addi	x0,x0,0
    9884:	00000013          	addi	x0,x0,0
    9888:	00000013          	addi	x0,x0,0
    988c:	00000013          	addi	x0,x0,0
    9890:	00000013          	addi	x0,x0,0
    9894:	00000013          	addi	x0,x0,0
    9898:	00000013          	addi	x0,x0,0
    989c:	00000013          	addi	x0,x0,0
    98a0:	00000013          	addi	x0,x0,0
    98a4:	00000013          	addi	x0,x0,0
    98a8:	00000013          	addi	x0,x0,0
    98ac:	00000013          	addi	x0,x0,0
    98b0:	00000013          	addi	x0,x0,0
    98b4:	00000013          	addi	x0,x0,0
    98b8:	00000013          	addi	x0,x0,0
    98bc:	00000013          	addi	x0,x0,0
    98c0:	00000013          	addi	x0,x0,0
    98c4:	00000013          	addi	x0,x0,0
    98c8:	00000013          	addi	x0,x0,0
    98cc:	00000013          	addi	x0,x0,0
    98d0:	00000013          	addi	x0,x0,0
    98d4:	00000013          	addi	x0,x0,0
    98d8:	00000013          	addi	x0,x0,0
    98dc:	00000013          	addi	x0,x0,0
    98e0:	00000013          	addi	x0,x0,0
    98e4:	00000013          	addi	x0,x0,0
    98e8:	00000013          	addi	x0,x0,0
    98ec:	00000013          	addi	x0,x0,0
    98f0:	00000013          	addi	x0,x0,0
    98f4:	00000013          	addi	x0,x0,0
    98f8:	00000013          	addi	x0,x0,0
    98fc:	00000013          	addi	x0,x0,0
    9900:	00000013          	addi	x0,x0,0
    9904:	00000013          	addi	x0,x0,0
    9908:	00000013          	addi	x0,x0,0
    990c:	00000013          	addi	x0,x0,0
    9910:	00000013          	addi	x0,x0,0
    9914:	00000013          	addi	x0,x0,0
    9918:	00000013          	addi	x0,x0,0
    991c:	00000013          	addi	x0,x0,0
    9920:	00000013          	addi	x0,x0,0
    9924:	00000013          	addi	x0,x0,0
    9928:	00000013          	addi	x0,x0,0
    992c:	00000013          	addi	x0,x0,0
    9930:	00000013          	addi	x0,x0,0
    9934:	00000013          	addi	x0,x0,0
    9938:	00000013          	addi	x0,x0,0
    993c:	00000013          	addi	x0,x0,0
    9940:	00000013          	addi	x0,x0,0
    9944:	00000013          	addi	x0,x0,0
    9948:	00000013          	addi	x0,x0,0
    994c:	00000013          	addi	x0,x0,0
    9950:	00000013          	addi	x0,x0,0
    9954:	00000013          	addi	x0,x0,0
    9958:	00000013          	addi	x0,x0,0
    995c:	00000013          	addi	x0,x0,0
    9960:	00000013          	addi	x0,x0,0
    9964:	00000013          	addi	x0,x0,0
    9968:	00000013          	addi	x0,x0,0
    996c:	00000013          	addi	x0,x0,0
    9970:	00000013          	addi	x0,x0,0
    9974:	00000013          	addi	x0,x0,0
    9978:	00000013          	addi	x0,x0,0
    997c:	00000013          	addi	x0,x0,0
    9980:	00000013          	addi	x0,x0,0
    9984:	00000013          	addi	x0,x0,0
    9988:	00000013          	addi	x0,x0,0
    998c:	00000013          	addi	x0,x0,0
    9990:	00000013          	addi	x0,x0,0
    9994:	00000013          	addi	x0,x0,0
    9998:	00000013          	addi	x0,x0,0
    999c:	00000013          	addi	x0,x0,0
    99a0:	00000013          	addi	x0,x0,0
    99a4:	00000013          	addi	x0,x0,0
    99a8:	00000013          	addi	x0,x0,0
    99ac:	00000013          	addi	x0,x0,0
    99b0:	00000013          	addi	x0,x0,0
    99b4:	00000013          	addi	x0,x0,0
    99b8:	00000013          	addi	x0,x0,0
    99bc:	00000013          	addi	x0,x0,0
    99c0:	00000013          	addi	x0,x0,0
    99c4:	00000013          	addi	x0,x0,0
    99c8:	00000013          	addi	x0,x0,0
    99cc:	00000013          	addi	x0,x0,0
    99d0:	00000013          	addi	x0,x0,0
    99d4:	00000013          	addi	x0,x0,0
    99d8:	00000013          	addi	x0,x0,0
    99dc:	00000013          	addi	x0,x0,0
    99e0:	00000013          	addi	x0,x0,0
    99e4:	00000013          	addi	x0,x0,0
    99e8:	00000013          	addi	x0,x0,0
    99ec:	00000013          	addi	x0,x0,0
    99f0:	00000013          	addi	x0,x0,0
    99f4:	00000013          	addi	x0,x0,0
    99f8:	00000013          	addi	x0,x0,0
    99fc:	00000013          	addi	x0,x0,0
    9a00:	00000013          	addi	x0,x0,0
    9a04:	00000013          	addi	x0,x0,0
    9a08:	00000013          	addi	x0,x0,0
    9a0c:	00000013          	addi	x0,x0,0
    9a10:	00000013          	addi	x0,x0,0
    9a14:	00000013          	addi	x0,x0,0
    9a18:	00000013          	addi	x0,x0,0
    9a1c:	00000013          	addi	x0,x0,0
    9a20:	00000013          	addi	x0,x0,0
    9a24:	00000013          	addi	x0,x0,0
    9a28:	00000013          	addi	x0,x0,0
    9a2c:	00000013          	addi	x0,x0,0
    9a30:	00000013          	addi	x0,x0,0
    9a34:	00000013          	addi	x0,x0,0
    9a38:	00000013          	addi	x0,x0,0
    9a3c:	00000013          	addi	x0,x0,0
    9a40:	00000013          	addi	x0,x0,0
    9a44:	00000013          	addi	x0,x0,0
    9a48:	00000013          	addi	x0,x0,0
    9a4c:	00000013          	addi	x0,x0,0
    9a50:	00000013          	addi	x0,x0,0
    9a54:	00000013          	addi	x0,x0,0
    9a58:	00000013          	addi	x0,x0,0
    9a5c:	00000013          	addi	x0,x0,0
    9a60:	00000013          	addi	x0,x0,0
    9a64:	00000013          	addi	x0,x0,0
    9a68:	00000013          	addi	x0,x0,0
    9a6c:	00000013          	addi	x0,x0,0
    9a70:	00000013          	addi	x0,x0,0
    9a74:	00000013          	addi	x0,x0,0
    9a78:	00000013          	addi	x0,x0,0
    9a7c:	00000013          	addi	x0,x0,0
    9a80:	00000013          	addi	x0,x0,0
    9a84:	00000013          	addi	x0,x0,0
    9a88:	00000013          	addi	x0,x0,0
    9a8c:	00000013          	addi	x0,x0,0
    9a90:	00000013          	addi	x0,x0,0
    9a94:	00000013          	addi	x0,x0,0
    9a98:	00000013          	addi	x0,x0,0
    9a9c:	00000013          	addi	x0,x0,0
    9aa0:	00000013          	addi	x0,x0,0
    9aa4:	00000013          	addi	x0,x0,0
    9aa8:	00000013          	addi	x0,x0,0
    9aac:	00000013          	addi	x0,x0,0
    9ab0:	00000013          	addi	x0,x0,0
    9ab4:	00000013          	addi	x0,x0,0
    9ab8:	00000013          	addi	x0,x0,0
    9abc:	00000013          	addi	x0,x0,0
    9ac0:	00000013          	addi	x0,x0,0
    9ac4:	00000013          	addi	x0,x0,0
    9ac8:	00000013          	addi	x0,x0,0
    9acc:	00000013          	addi	x0,x0,0
    9ad0:	00000013          	addi	x0,x0,0
    9ad4:	00000013          	addi	x0,x0,0
    9ad8:	00000013          	addi	x0,x0,0
    9adc:	00000013          	addi	x0,x0,0
    9ae0:	00000013          	addi	x0,x0,0
    9ae4:	00000013          	addi	x0,x0,0
    9ae8:	00000013          	addi	x0,x0,0
    9aec:	00000013          	addi	x0,x0,0
    9af0:	00000013          	addi	x0,x0,0
    9af4:	00000013          	addi	x0,x0,0
    9af8:	00000013          	addi	x0,x0,0
    9afc:	00000013          	addi	x0,x0,0
    9b00:	00000013          	addi	x0,x0,0
    9b04:	00000013          	addi	x0,x0,0
    9b08:	00000013          	addi	x0,x0,0
    9b0c:	00000013          	addi	x0,x0,0
    9b10:	00000013          	addi	x0,x0,0
    9b14:	00000013          	addi	x0,x0,0
    9b18:	00000013          	addi	x0,x0,0
    9b1c:	00000013          	addi	x0,x0,0
    9b20:	00000013          	addi	x0,x0,0
    9b24:	00000013          	addi	x0,x0,0
    9b28:	00000013          	addi	x0,x0,0
    9b2c:	00000013          	addi	x0,x0,0
    9b30:	00000013          	addi	x0,x0,0
    9b34:	00000013          	addi	x0,x0,0
    9b38:	00000013          	addi	x0,x0,0
    9b3c:	00000013          	addi	x0,x0,0
    9b40:	00000013          	addi	x0,x0,0
    9b44:	00000013          	addi	x0,x0,0
    9b48:	00000013          	addi	x0,x0,0
    9b4c:	00000013          	addi	x0,x0,0
    9b50:	00000013          	addi	x0,x0,0
    9b54:	00000013          	addi	x0,x0,0
    9b58:	00000013          	addi	x0,x0,0
    9b5c:	00000013          	addi	x0,x0,0
    9b60:	00000013          	addi	x0,x0,0
    9b64:	00000013          	addi	x0,x0,0
    9b68:	00000013          	addi	x0,x0,0
    9b6c:	00000013          	addi	x0,x0,0
    9b70:	00000013          	addi	x0,x0,0
    9b74:	00000013          	addi	x0,x0,0
    9b78:	00000013          	addi	x0,x0,0
    9b7c:	00000013          	addi	x0,x0,0
    9b80:	00000013          	addi	x0,x0,0
    9b84:	00000013          	addi	x0,x0,0
    9b88:	00000013          	addi	x0,x0,0
    9b8c:	00000013          	addi	x0,x0,0
    9b90:	00000013          	addi	x0,x0,0
    9b94:	00000013          	addi	x0,x0,0
    9b98:	00000013          	addi	x0,x0,0
    9b9c:	00000013          	addi	x0,x0,0
    9ba0:	00000013          	addi	x0,x0,0
    9ba4:	00000013          	addi	x0,x0,0
    9ba8:	00000013          	addi	x0,x0,0
    9bac:	00000013          	addi	x0,x0,0
    9bb0:	00000013          	addi	x0,x0,0
    9bb4:	00000013          	addi	x0,x0,0
    9bb8:	00000013          	addi	x0,x0,0
    9bbc:	00000013          	addi	x0,x0,0
    9bc0:	00000013          	addi	x0,x0,0
    9bc4:	00000013          	addi	x0,x0,0
    9bc8:	00000013          	addi	x0,x0,0
    9bcc:	00000013          	addi	x0,x0,0
    9bd0:	00000013          	addi	x0,x0,0
    9bd4:	00000013          	addi	x0,x0,0
    9bd8:	00000013          	addi	x0,x0,0
    9bdc:	00000013          	addi	x0,x0,0
    9be0:	00000013          	addi	x0,x0,0
    9be4:	00000013          	addi	x0,x0,0
    9be8:	00000013          	addi	x0,x0,0
    9bec:	00000013          	addi	x0,x0,0
    9bf0:	00000013          	addi	x0,x0,0
    9bf4:	00000013          	addi	x0,x0,0
    9bf8:	00000013          	addi	x0,x0,0
    9bfc:	00000013          	addi	x0,x0,0
    9c00:	00000013          	addi	x0,x0,0
    9c04:	00000013          	addi	x0,x0,0
    9c08:	00000013          	addi	x0,x0,0
    9c0c:	00000013          	addi	x0,x0,0
    9c10:	00000013          	addi	x0,x0,0
    9c14:	00000013          	addi	x0,x0,0
    9c18:	00000013          	addi	x0,x0,0
    9c1c:	00000013          	addi	x0,x0,0
    9c20:	00000013          	addi	x0,x0,0
    9c24:	00000013          	addi	x0,x0,0
    9c28:	00000013          	addi	x0,x0,0
    9c2c:	00000013          	addi	x0,x0,0
    9c30:	00000013          	addi	x0,x0,0
    9c34:	00000013          	addi	x0,x0,0
    9c38:	00000013          	addi	x0,x0,0
    9c3c:	00000013          	addi	x0,x0,0
    9c40:	00000013          	addi	x0,x0,0
    9c44:	00000013          	addi	x0,x0,0
    9c48:	00000013          	addi	x0,x0,0
    9c4c:	00000013          	addi	x0,x0,0
    9c50:	00000013          	addi	x0,x0,0
    9c54:	00000013          	addi	x0,x0,0
    9c58:	00000013          	addi	x0,x0,0
    9c5c:	00000013          	addi	x0,x0,0
    9c60:	00000013          	addi	x0,x0,0
    9c64:	00000013          	addi	x0,x0,0
    9c68:	00000013          	addi	x0,x0,0
    9c6c:	00000013          	addi	x0,x0,0
    9c70:	00000013          	addi	x0,x0,0
    9c74:	00000013          	addi	x0,x0,0
    9c78:	00000013          	addi	x0,x0,0
    9c7c:	00000013          	addi	x0,x0,0
    9c80:	00000013          	addi	x0,x0,0
    9c84:	00000013          	addi	x0,x0,0
    9c88:	00000013          	addi	x0,x0,0
    9c8c:	00000013          	addi	x0,x0,0
    9c90:	00000013          	addi	x0,x0,0
    9c94:	00000013          	addi	x0,x0,0
    9c98:	00000013          	addi	x0,x0,0
    9c9c:	00000013          	addi	x0,x0,0
    9ca0:	00000013          	addi	x0,x0,0
    9ca4:	00000013          	addi	x0,x0,0
    9ca8:	00000013          	addi	x0,x0,0
    9cac:	00000013          	addi	x0,x0,0
    9cb0:	00000013          	addi	x0,x0,0
    9cb4:	00000013          	addi	x0,x0,0
    9cb8:	00000013          	addi	x0,x0,0
    9cbc:	00000013          	addi	x0,x0,0
    9cc0:	00000013          	addi	x0,x0,0
    9cc4:	00000013          	addi	x0,x0,0
    9cc8:	00000013          	addi	x0,x0,0
    9ccc:	00000013          	addi	x0,x0,0
    9cd0:	00000013          	addi	x0,x0,0
    9cd4:	00000013          	addi	x0,x0,0
    9cd8:	00000013          	addi	x0,x0,0
    9cdc:	00000013          	addi	x0,x0,0
    9ce0:	00000013          	addi	x0,x0,0
    9ce4:	00000013          	addi	x0,x0,0
    9ce8:	00000013          	addi	x0,x0,0
    9cec:	00000013          	addi	x0,x0,0
    9cf0:	00000013          	addi	x0,x0,0
    9cf4:	00000013          	addi	x0,x0,0
    9cf8:	00000013          	addi	x0,x0,0
    9cfc:	00000013          	addi	x0,x0,0
    9d00:	00000013          	addi	x0,x0,0
    9d04:	00000013          	addi	x0,x0,0
    9d08:	00000013          	addi	x0,x0,0
    9d0c:	00000013          	addi	x0,x0,0
    9d10:	00000013          	addi	x0,x0,0
    9d14:	00000013          	addi	x0,x0,0
    9d18:	00000013          	addi	x0,x0,0
    9d1c:	00000013          	addi	x0,x0,0
    9d20:	00000013          	addi	x0,x0,0
    9d24:	00000013          	addi	x0,x0,0
    9d28:	00000013          	addi	x0,x0,0
    9d2c:	00000013          	addi	x0,x0,0
    9d30:	00000013          	addi	x0,x0,0
    9d34:	00000013          	addi	x0,x0,0
    9d38:	00000013          	addi	x0,x0,0
    9d3c:	00000013          	addi	x0,x0,0
    9d40:	00000013          	addi	x0,x0,0
    9d44:	00000013          	addi	x0,x0,0
    9d48:	00000013          	addi	x0,x0,0
    9d4c:	00000013          	addi	x0,x0,0
    9d50:	00000013          	addi	x0,x0,0
    9d54:	00000013          	addi	x0,x0,0
    9d58:	00000013          	addi	x0,x0,0
    9d5c:	00000013          	addi	x0,x0,0
    9d60:	00000013          	addi	x0,x0,0
    9d64:	00000013          	addi	x0,x0,0
    9d68:	00000013          	addi	x0,x0,0
    9d6c:	00000013          	addi	x0,x0,0
    9d70:	00000013          	addi	x0,x0,0
    9d74:	00000013          	addi	x0,x0,0
    9d78:	00000013          	addi	x0,x0,0
    9d7c:	00000013          	addi	x0,x0,0
    9d80:	00000013          	addi	x0,x0,0
    9d84:	00000013          	addi	x0,x0,0
    9d88:	00000013          	addi	x0,x0,0
    9d8c:	00000013          	addi	x0,x0,0
    9d90:	00000013          	addi	x0,x0,0
    9d94:	00000013          	addi	x0,x0,0
    9d98:	00000013          	addi	x0,x0,0
    9d9c:	00000013          	addi	x0,x0,0
    9da0:	00000013          	addi	x0,x0,0
    9da4:	00000013          	addi	x0,x0,0
    9da8:	00000013          	addi	x0,x0,0
    9dac:	00000013          	addi	x0,x0,0
    9db0:	00000013          	addi	x0,x0,0
    9db4:	00000013          	addi	x0,x0,0
    9db8:	00000013          	addi	x0,x0,0
    9dbc:	00000013          	addi	x0,x0,0
    9dc0:	00000013          	addi	x0,x0,0
    9dc4:	00000013          	addi	x0,x0,0
    9dc8:	00000013          	addi	x0,x0,0
    9dcc:	00000013          	addi	x0,x0,0
    9dd0:	00000013          	addi	x0,x0,0
    9dd4:	00000013          	addi	x0,x0,0
    9dd8:	00000013          	addi	x0,x0,0
    9ddc:	00000013          	addi	x0,x0,0
    9de0:	00000013          	addi	x0,x0,0
    9de4:	00000013          	addi	x0,x0,0
    9de8:	00000013          	addi	x0,x0,0
    9dec:	00000013          	addi	x0,x0,0
    9df0:	00000013          	addi	x0,x0,0
    9df4:	00000013          	addi	x0,x0,0
    9df8:	00000013          	addi	x0,x0,0
    9dfc:	00000013          	addi	x0,x0,0
    9e00:	00000013          	addi	x0,x0,0
    9e04:	00000013          	addi	x0,x0,0
    9e08:	00000013          	addi	x0,x0,0
    9e0c:	00000013          	addi	x0,x0,0
    9e10:	00000013          	addi	x0,x0,0
    9e14:	00000013          	addi	x0,x0,0
    9e18:	00000013          	addi	x0,x0,0
    9e1c:	00000013          	addi	x0,x0,0
    9e20:	00000013          	addi	x0,x0,0
    9e24:	00000013          	addi	x0,x0,0
    9e28:	00000013          	addi	x0,x0,0
    9e2c:	00000013          	addi	x0,x0,0
    9e30:	00000013          	addi	x0,x0,0
    9e34:	00000013          	addi	x0,x0,0
    9e38:	00000013          	addi	x0,x0,0
    9e3c:	00000013          	addi	x0,x0,0
    9e40:	00000013          	addi	x0,x0,0
    9e44:	00000013          	addi	x0,x0,0
    9e48:	00000013          	addi	x0,x0,0
    9e4c:	00000013          	addi	x0,x0,0
    9e50:	00000013          	addi	x0,x0,0
    9e54:	00000013          	addi	x0,x0,0
    9e58:	00000013          	addi	x0,x0,0
    9e5c:	00000013          	addi	x0,x0,0
    9e60:	00000013          	addi	x0,x0,0
    9e64:	00000013          	addi	x0,x0,0
    9e68:	00000013          	addi	x0,x0,0
    9e6c:	00000013          	addi	x0,x0,0
    9e70:	00000013          	addi	x0,x0,0
    9e74:	00000013          	addi	x0,x0,0
    9e78:	00000013          	addi	x0,x0,0
    9e7c:	00000013          	addi	x0,x0,0
    9e80:	00000013          	addi	x0,x0,0
    9e84:	00000013          	addi	x0,x0,0
    9e88:	00000013          	addi	x0,x0,0
    9e8c:	00000013          	addi	x0,x0,0
    9e90:	00000013          	addi	x0,x0,0
    9e94:	00000013          	addi	x0,x0,0
    9e98:	00000013          	addi	x0,x0,0
    9e9c:	00000013          	addi	x0,x0,0
    9ea0:	00000013          	addi	x0,x0,0
    9ea4:	00000013          	addi	x0,x0,0
    9ea8:	00000013          	addi	x0,x0,0
    9eac:	00000013          	addi	x0,x0,0
    9eb0:	00000013          	addi	x0,x0,0
    9eb4:	00000013          	addi	x0,x0,0
    9eb8:	00000013          	addi	x0,x0,0
    9ebc:	00000013          	addi	x0,x0,0
    9ec0:	00000013          	addi	x0,x0,0
    9ec4:	00000013          	addi	x0,x0,0
    9ec8:	00000013          	addi	x0,x0,0
    9ecc:	00000013          	addi	x0,x0,0
    9ed0:	00000013          	addi	x0,x0,0
    9ed4:	00000013          	addi	x0,x0,0
    9ed8:	00000013          	addi	x0,x0,0
    9edc:	00000013          	addi	x0,x0,0
    9ee0:	00000013          	addi	x0,x0,0
    9ee4:	00000013          	addi	x0,x0,0
    9ee8:	00000013          	addi	x0,x0,0
    9eec:	00000013          	addi	x0,x0,0
    9ef0:	00000013          	addi	x0,x0,0
    9ef4:	00000013          	addi	x0,x0,0
    9ef8:	00000013          	addi	x0,x0,0
    9efc:	00000013          	addi	x0,x0,0
    9f00:	00000013          	addi	x0,x0,0
    9f04:	00000013          	addi	x0,x0,0
    9f08:	00000013          	addi	x0,x0,0
    9f0c:	00000013          	addi	x0,x0,0
    9f10:	00000013          	addi	x0,x0,0
    9f14:	00000013          	addi	x0,x0,0
    9f18:	00000013          	addi	x0,x0,0
    9f1c:	00000013          	addi	x0,x0,0
    9f20:	00000013          	addi	x0,x0,0
    9f24:	00000013          	addi	x0,x0,0
    9f28:	00000013          	addi	x0,x0,0
    9f2c:	00000013          	addi	x0,x0,0
    9f30:	00000013          	addi	x0,x0,0
    9f34:	00000013          	addi	x0,x0,0
    9f38:	00000013          	addi	x0,x0,0
    9f3c:	00000013          	addi	x0,x0,0
    9f40:	00000013          	addi	x0,x0,0
    9f44:	00000013          	addi	x0,x0,0
    9f48:	00000013          	addi	x0,x0,0
    9f4c:	00000013          	addi	x0,x0,0
    9f50:	00000013          	addi	x0,x0,0
    9f54:	00000013          	addi	x0,x0,0
    9f58:	00000013          	addi	x0,x0,0
    9f5c:	00000013          	addi	x0,x0,0
    9f60:	00000013          	addi	x0,x0,0
    9f64:	00000013          	addi	x0,x0,0
    9f68:	00000013          	addi	x0,x0,0
    9f6c:	00000013          	addi	x0,x0,0
    9f70:	00000013          	addi	x0,x0,0
    9f74:	00000013          	addi	x0,x0,0
    9f78:	00000013          	addi	x0,x0,0
    9f7c:	00000013          	addi	x0,x0,0
    9f80:	00000013          	addi	x0,x0,0
    9f84:	00000013          	addi	x0,x0,0
    9f88:	00000013          	addi	x0,x0,0
    9f8c:	00000013          	addi	x0,x0,0
    9f90:	00000013          	addi	x0,x0,0
    9f94:	00000013          	addi	x0,x0,0
    9f98:	00000013          	addi	x0,x0,0
    9f9c:	00000013          	addi	x0,x0,0
    9fa0:	00000013          	addi	x0,x0,0
    9fa4:	00000013          	addi	x0,x0,0
    9fa8:	00000013          	addi	x0,x0,0
    9fac:	00000013          	addi	x0,x0,0
    9fb0:	00000013          	addi	x0,x0,0
    9fb4:	00000013          	addi	x0,x0,0
    9fb8:	00000013          	addi	x0,x0,0
    9fbc:	00000013          	addi	x0,x0,0
    9fc0:	00000013          	addi	x0,x0,0
    9fc4:	00000013          	addi	x0,x0,0
    9fc8:	00000013          	addi	x0,x0,0
    9fcc:	00000013          	addi	x0,x0,0
    9fd0:	00000013          	addi	x0,x0,0
    9fd4:	00000013          	addi	x0,x0,0
    9fd8:	00000013          	addi	x0,x0,0
    9fdc:	00000013          	addi	x0,x0,0
    9fe0:	00000013          	addi	x0,x0,0
    9fe4:	00000013          	addi	x0,x0,0
    9fe8:	00000013          	addi	x0,x0,0
    9fec:	00000013          	addi	x0,x0,0
    9ff0:	00000013          	addi	x0,x0,0
    9ff4:	00000013          	addi	x0,x0,0
    9ff8:	00000013          	addi	x0,x0,0
    9ffc:	00000013          	addi	x0,x0,0
  .p2align 12 # align to 4096 bytes
11:
  .insn 0x812ed063 # bge x29, x18, -4096; GCC is turning this into a small branch and a jump
    a000:	812ed063          	bge	x29,x18,9000 <I_bge_cg_cp_imm_edges_branch_all+0x3380>
  addi x19, x19, 300 # shouldn't happen
    a004:	12c98993          	addi	x19,x19,300
  j 19f # shouldn't happen
    a008:	0040006f          	jal	x0,a00c <I_bge_cg_cp_imm_edges_branch_all+0x438c>

# Shouldn't reach here, write failure code
19:
  LI(x19, -1)
    a00c:	fff00993          	addi	x19,x0,-1

# end of branches
20:

  # Check if x19 contains the expected result. x21 is the signature ptr, x5 is the link ptr, x4 is a temp reg.
  RVTEST_SIGUPD(x21, x5, x4, x19, I_bge_cg_cp_imm_edges_branch_all, I_bge_cg_cp_imm_edges_branch_all_str)
    a010:	000aa203          	lw	x4,0(x21)
    a014:	01320863          	beq	x4,x19,a024 <I_bge_cg_cp_imm_edges_branch_all+0x43a4>
    a018:	064002ef          	jal	x5,a07c <failedtest_x5_x4>
    a01c:	00005c80          	.word	0x00005c80
    a020:	00011837          	.word	0x00011837
    a024:	004a8a93          	addi	x21,x21,4

  mv x2, x21 # restore signature pointer to default register for teardown
    a028:	000a8113          	addi	x2,x21,0

0000a02c <cleanup_epilogs>:
    a02c:	00000013          	addi	x0,x0,0
    a030:	00000013          	addi	x0,x0,0
    a034:	00000013          	addi	x0,x0,0
    a038:	00000013          	addi	x0,x0,0
    a03c:	00000013          	addi	x0,x0,0

// Instantiate trap handlers and other epilog code, call RVMODEL_HALT at end of test
RVTEST_CODE_END
    a040:	00008517          	auipc	x10,0x8
    a044:	ea450513          	addi	x10,x10,-348 # 11ee4 <successstr>
    a048:	00000013          	addi	x0,x0,0
    a04c:	00000013          	addi	x0,x0,0
    a050:	00000013          	addi	x0,x0,0
    a054:	00000013          	addi	x0,x0,0
    a058:	00000013          	addi	x0,x0,0
    a05c:	00000013          	addi	x0,x0,0
    a060:	00019097          	auipc	x1,0x19
    a064:	1a4080e7          	jalr	x1,420(x1) # 23204 <rvmodel_io_write_str>
    a068:	00019097          	auipc	x1,0x19
    a06c:	1a0080e7          	jalr	x1,416(x1) # 23208 <rvmodel_halt_pass>

0000a070 <abort_test>:
    a070:	bad0e737          	lui	x14,0xbad0e
    a074:	ead70713          	addi	x14,x14,-339 # bad0dead <absimm+0x4b743ba4>
    a078:	fb5ff06f          	jal	x0,a02c <cleanup_epilogs>

0000a07c <failedtest_x5_x4>:
    a07c:	00008217          	auipc	x4,0x8
    a080:	80420213          	addi	x4,x4,-2044 # 11880 <begin_failure_scratch>
    a084:	02522423          	sw	x5,40(x4) # 28 <MMODE_SIG+0x25>
    a088:	00122423          	sw	x1,8(x4) # 8 <MMODE_SIG+0x5>
    a08c:	00022023          	sw	x0,0(x4) # 0 <rvtest_entry_point>
    a090:	0b00006f          	jal	x0,a140 <failedtest_saveregs>

0000a094 <failedtest_x8_x7>:
    a094:	00007397          	auipc	x7,0x7
    a098:	7ec38393          	addi	x7,x7,2028 # 11880 <begin_failure_scratch>
    a09c:	0483a023          	sw	x8,64(x7)
    a0a0:	0243a023          	sw	x4,32(x7)
    a0a4:	0253a423          	sw	x5,40(x7)
    a0a8:	0013a423          	sw	x1,8(x7)
    a0ac:	0003a023          	sw	x0,0(x7)
    a0b0:	00038213          	addi	x4,x7,0
    a0b4:	00040293          	addi	x5,x8,0
    a0b8:	0880006f          	jal	x0,a140 <failedtest_saveregs>

0000a0bc <failedtest_x14_x13>:
    a0bc:	00007697          	auipc	x13,0x7
    a0c0:	7c468693          	addi	x13,x13,1988 # 11880 <begin_failure_scratch>
    a0c4:	06e6a823          	sw	x14,112(x13)
    a0c8:	0246a023          	sw	x4,32(x13)
    a0cc:	0256a423          	sw	x5,40(x13)
    a0d0:	0016a423          	sw	x1,8(x13)
    a0d4:	0006a023          	sw	x0,0(x13)
    a0d8:	00068213          	addi	x4,x13,0
    a0dc:	00070293          	addi	x5,x14,0
    a0e0:	0600006f          	jal	x0,a140 <failedtest_saveregs>

0000a0e4 <failedtest_trap_x7_x9>:
    a0e4:	00007497          	auipc	x9,0x7
    a0e8:	79c48493          	addi	x9,x9,1948 # 11880 <begin_failure_scratch>
    a0ec:	0674a423          	sw	x7,104(x9)
    a0f0:	0244a023          	sw	x4,32(x9)
    a0f4:	0254a423          	sw	x5,40(x9)
    a0f8:	0014a423          	sw	x1,8(x9)
    a0fc:	00300093          	addi	x1,x0,3
    a100:	0014a023          	sw	x1,0(x9)
    a104:	00048213          	addi	x4,x9,0
    a108:	00038293          	addi	x5,x7,0
    a10c:	342020f3          	csrrs	x1,mcause,x0
    a110:	00008497          	auipc	x9,0x8
    a114:	8e048493          	addi	x9,x9,-1824 # 119f0 <saved_mcause>
    a118:	0014a023          	sw	x1,0(x9)
    a11c:	343020f3          	csrrs	x1,mtval,x0
    a120:	00008497          	auipc	x9,0x8
    a124:	8d848493          	addi	x9,x9,-1832 # 119f8 <saved_mtval>
    a128:	0014a023          	sw	x1,0(x9)
    a12c:	300020f3          	csrrs	x1,mstatus,x0
    a130:	00008497          	auipc	x9,0x8
    a134:	8d048493          	addi	x9,x9,-1840 # 11a00 <saved_mstatus>
    a138:	0014a023          	sw	x1,0(x9)
    a13c:	0040006f          	jal	x0,a140 <failedtest_saveregs>

0000a140 <failedtest_saveregs>:
    a140:	00222823          	sw	x2,16(x4) # 10 <MMODE_SIG+0xd>
    a144:	00322c23          	sw	x3,24(x4) # 18 <MMODE_SIG+0x15>
    a148:	02622823          	sw	x6,48(x4) # 30 <MMODE_SIG+0x2d>
    a14c:	02722c23          	sw	x7,56(x4) # 38 <MMODE_SIG+0x35>
    a150:	04822023          	sw	x8,64(x4) # 40 <MMODE_SIG+0x3d>
    a154:	04922423          	sw	x9,72(x4) # 48 <MMODE_SIG+0x45>
    a158:	04a22823          	sw	x10,80(x4) # 50 <MMODE_SIG+0x4d>
    a15c:	04b22c23          	sw	x11,88(x4) # 58 <MMODE_SIG+0x55>
    a160:	06c22023          	sw	x12,96(x4) # 60 <MMODE_SIG+0x5d>
    a164:	06d22423          	sw	x13,104(x4) # 68 <MMODE_SIG+0x65>
    a168:	06e22823          	sw	x14,112(x4) # 70 <MMODE_SIG+0x6d>
    a16c:	06f22c23          	sw	x15,120(x4) # 78 <MMODE_SIG+0x75>
    a170:	09022023          	sw	x16,128(x4) # 80 <MMODE_SIG+0x7d>
    a174:	09122423          	sw	x17,136(x4) # 88 <MMODE_SIG+0x85>
    a178:	09222823          	sw	x18,144(x4) # 90 <MMODE_SIG+0x8d>
    a17c:	09322c23          	sw	x19,152(x4) # 98 <MMODE_SIG+0x95>
    a180:	0b422023          	sw	x20,160(x4) # a0 <MMODE_SIG+0x9d>
    a184:	0b522423          	sw	x21,168(x4) # a8 <MMODE_SIG+0xa5>
    a188:	0b622823          	sw	x22,176(x4) # b0 <MMODE_SIG+0xad>
    a18c:	0b722c23          	sw	x23,184(x4) # b8 <MMODE_SIG+0xb5>
    a190:	0d822023          	sw	x24,192(x4) # c0 <MMODE_SIG+0xbd>
    a194:	0d922423          	sw	x25,200(x4) # c8 <MMODE_SIG+0xc5>
    a198:	0da22823          	sw	x26,208(x4) # d0 <MMODE_SIG+0xcd>
    a19c:	0db22c23          	sw	x27,216(x4) # d8 <MMODE_SIG+0xd5>
    a1a0:	0fc22023          	sw	x28,224(x4) # e0 <MMODE_SIG+0xdd>
    a1a4:	0fd22423          	sw	x29,232(x4) # e8 <MMODE_SIG+0xe5>
    a1a8:	0fe22823          	sw	x30,240(x4) # f0 <MMODE_SIG+0xed>
    a1ac:	0ff22c23          	sw	x31,248(x4) # f8 <MMODE_SIG+0xf5>

0000a1b0 <failedtest_saveresults>:
    a1b0:	00007497          	auipc	x9,0x7
    a1b4:	6d04a483          	lw	x9,1744(x9) # 11880 <begin_failure_scratch>
    a1b8:	00300513          	addi	x10,x0,3
    a1bc:	06a48863          	beq	x9,x10,a22c <failedtest_saveresults_trap>

0000a1c0 <failedtest_saveresults_int>:
    a1c0:	ffa2d303          	lhu	x6,-6(x5)
    a1c4:	ff82d383          	lhu	x7,-8(x5)
    a1c8:	01031313          	slli	x6,x6,0x10
    a1cc:	00736333          	or	x6,x6,x7
    a1d0:	00f35393          	srli	x7,x6,0xf
    a1d4:	01f3f393          	andi	x7,x7,31
    a1d8:	01435413          	srli	x8,x6,0x14
    a1dc:	01f47413          	andi	x8,x8,31
    a1e0:	10822223          	sw	x8,260(x4) # 104 <MMODE_SIG+0x101>
    a1e4:	00341313          	slli	x6,x8,0x3
    a1e8:	00620333          	add	x6,x4,x6
    a1ec:	00032303          	lw	x6,0(x6)
    a1f0:	10622823          	sw	x6,272(x4) # 110 <MMODE_SIG+0x10d>
    a1f4:	ff62d303          	lhu	x6,-10(x5)
    a1f8:	ff42d383          	lhu	x7,-12(x5)
    a1fc:	01031313          	slli	x6,x6,0x10
    a200:	00736333          	or	x6,x6,x7
    a204:	41435393          	srai	x7,x6,0x14
    a208:	00f35313          	srli	x6,x6,0xf
    a20c:	01f37313          	andi	x6,x6,31
    a210:	00331313          	slli	x6,x6,0x3
    a214:	00620333          	add	x6,x4,x6
    a218:	00032303          	lw	x6,0(x6)
    a21c:	00730333          	add	x6,x6,x7
    a220:	00032303          	lw	x6,0(x6)
    a224:	10622c23          	sw	x6,280(x4) # 118 <MMODE_SIG+0x115>
    a228:	3d80006f          	jal	x0,a600 <failedtest_saveresults_common>

0000a22c <failedtest_saveresults_trap>:
    a22c:	0042a303          	lw	x6,4(x5)
    a230:	00007817          	auipc	x16,0x7
    a234:	7a880813          	addi	x16,x16,1960 # 119d8 <trap_diag_fail_str_ptr>
    a238:	00682023          	sw	x6,0(x16)
    a23c:	0002a303          	lw	x6,0(x5)
    a240:	10622423          	sw	x6,264(x4) # 108 <MMODE_SIG+0x105>
    a244:	00007817          	auipc	x16,0x7
    a248:	79480813          	addi	x16,x16,1940 # 119d8 <trap_diag_fail_str_ptr>
    a24c:	00082303          	lw	x6,0(x16)
    a250:	00008397          	auipc	x7,0x8
    a254:	e5a38393          	addi	x7,x7,-422 # 120aa <trap_sig_offset_mismatch>
    a258:	28730463          	beq	x6,x7,a4e0 <trap_diag_offset_mismatch>
    a25c:	00000413          	addi	x8,x0,0
    a260:	00007817          	auipc	x16,0x7
    a264:	75080813          	addi	x16,x16,1872 # 119b0 <trap_diag_subtype>
    a268:	00882023          	sw	x8,0(x16)
    a26c:	00008397          	auipc	x7,0x8
    a270:	ea238393          	addi	x7,x7,-350 # 1210e <sv_Mvect_str>
    a274:	00731863          	bne	x6,x7,a284 <failedtest_saveresults_trap+0x58>
    a278:	00100413          	addi	x8,x0,1
    a27c:	00000493          	addi	x9,x0,0
    a280:	2e00006f          	jal	x0,a560 <trap_diag_field_identified>
    a284:	00008397          	auipc	x7,0x8
    a288:	f8c38393          	addi	x7,x7,-116 # 12210 <sv_Mcause_str>
    a28c:	00731863          	bne	x6,x7,a29c <failedtest_saveresults_trap+0x70>
    a290:	00200413          	addi	x8,x0,2
    a294:	00000493          	addi	x9,x0,0
    a298:	2c80006f          	jal	x0,a560 <trap_diag_field_identified>
    a29c:	00008397          	auipc	x7,0x8
    a2a0:	06f38393          	addi	x7,x7,111 # 1230b <sv_Mepc_str>
    a2a4:	00731863          	bne	x6,x7,a2b4 <failedtest_saveresults_trap+0x88>
    a2a8:	00300413          	addi	x8,x0,3
    a2ac:	00000493          	addi	x9,x0,0
    a2b0:	2b00006f          	jal	x0,a560 <trap_diag_field_identified>
    a2b4:	00008397          	auipc	x7,0x8
    a2b8:	14a38393          	addi	x7,x7,330 # 123fe <sv_Mtval_str>
    a2bc:	00731863          	bne	x6,x7,a2cc <failedtest_saveresults_trap+0xa0>
    a2c0:	00400413          	addi	x8,x0,4
    a2c4:	00000493          	addi	x9,x0,0
    a2c8:	2980006f          	jal	x0,a560 <trap_diag_field_identified>
    a2cc:	00008397          	auipc	x7,0x8
    a2d0:	2a538393          	addi	x7,x7,677 # 12571 <sv_Mip_str>
    a2d4:	00731863          	bne	x6,x7,a2e4 <failedtest_saveresults_trap+0xb8>
    a2d8:	00500413          	addi	x8,x0,5
    a2dc:	00000493          	addi	x9,x0,0
    a2e0:	2800006f          	jal	x0,a560 <trap_diag_field_identified>
    a2e4:	00008397          	auipc	x7,0x8
    a2e8:	21138393          	addi	x7,x7,529 # 124f5 <sv_Mtval2_str>
    a2ec:	00731863          	bne	x6,x7,a2fc <failedtest_saveresults_trap+0xd0>
    a2f0:	00600413          	addi	x8,x0,6
    a2f4:	00000493          	addi	x9,x0,0
    a2f8:	2680006f          	jal	x0,a560 <trap_diag_field_identified>
    a2fc:	00008397          	auipc	x7,0x8
    a300:	23738393          	addi	x7,x7,567 # 12533 <sv_Mtinst_str>
    a304:	00731863          	bne	x6,x7,a314 <failedtest_saveresults_trap+0xe8>
    a308:	00700413          	addi	x8,x0,7
    a30c:	00000493          	addi	x9,x0,0
    a310:	2500006f          	jal	x0,a560 <trap_diag_field_identified>
    a314:	00008397          	auipc	x7,0x8
    a318:	e3a38393          	addi	x7,x7,-454 # 1214e <sv_Svect_str>
    a31c:	00731863          	bne	x6,x7,a32c <failedtest_saveresults_trap+0x100>
    a320:	00100413          	addi	x8,x0,1
    a324:	00100493          	addi	x9,x0,1
    a328:	2380006f          	jal	x0,a560 <trap_diag_field_identified>
    a32c:	00008397          	auipc	x7,0x8
    a330:	f2238393          	addi	x7,x7,-222 # 1224e <sv_Scause_str>
    a334:	00731863          	bne	x6,x7,a344 <failedtest_saveresults_trap+0x118>
    a338:	00200413          	addi	x8,x0,2
    a33c:	00100493          	addi	x9,x0,1
    a340:	2200006f          	jal	x0,a560 <trap_diag_field_identified>
    a344:	00008397          	auipc	x7,0x8
    a348:	00338393          	addi	x7,x7,3 # 12347 <sv_Sepc_str>
    a34c:	00731863          	bne	x6,x7,a35c <failedtest_saveresults_trap+0x130>
    a350:	00300413          	addi	x8,x0,3
    a354:	00100493          	addi	x9,x0,1
    a358:	2080006f          	jal	x0,a560 <trap_diag_field_identified>
    a35c:	00008397          	auipc	x7,0x8
    a360:	0df38393          	addi	x7,x7,223 # 1243b <sv_Stval_str>
    a364:	00731863          	bne	x6,x7,a374 <failedtest_saveresults_trap+0x148>
    a368:	00400413          	addi	x8,x0,4
    a36c:	00100493          	addi	x9,x0,1
    a370:	1f00006f          	jal	x0,a560 <trap_diag_field_identified>
    a374:	00008397          	auipc	x7,0x8
    a378:	23838393          	addi	x7,x7,568 # 125ac <sv_Sip_str>
    a37c:	00731863          	bne	x6,x7,a38c <failedtest_saveresults_trap+0x160>
    a380:	00500413          	addi	x8,x0,5
    a384:	00100493          	addi	x9,x0,1
    a388:	1d80006f          	jal	x0,a560 <trap_diag_field_identified>
    a38c:	00008397          	auipc	x7,0x8
    a390:	e0238393          	addi	x7,x7,-510 # 1218e <sv_Hvect_str>
    a394:	00731863          	bne	x6,x7,a3a4 <failedtest_saveresults_trap+0x178>
    a398:	00100413          	addi	x8,x0,1
    a39c:	00200493          	addi	x9,x0,2
    a3a0:	1c00006f          	jal	x0,a560 <trap_diag_field_identified>
    a3a4:	00008397          	auipc	x7,0x8
    a3a8:	ee838393          	addi	x7,x7,-280 # 1228c <sv_Hcause_str>
    a3ac:	00731863          	bne	x6,x7,a3bc <failedtest_saveresults_trap+0x190>
    a3b0:	00200413          	addi	x8,x0,2
    a3b4:	00200493          	addi	x9,x0,2
    a3b8:	1a80006f          	jal	x0,a560 <trap_diag_field_identified>
    a3bc:	00008397          	auipc	x7,0x8
    a3c0:	fc738393          	addi	x7,x7,-57 # 12383 <sv_Hepc_str>
    a3c4:	00731863          	bne	x6,x7,a3d4 <failedtest_saveresults_trap+0x1a8>
    a3c8:	00300413          	addi	x8,x0,3
    a3cc:	00200493          	addi	x9,x0,2
    a3d0:	1900006f          	jal	x0,a560 <trap_diag_field_identified>
    a3d4:	00008397          	auipc	x7,0x8
    a3d8:	0a438393          	addi	x7,x7,164 # 12478 <sv_Htval_str>
    a3dc:	00731863          	bne	x6,x7,a3ec <failedtest_saveresults_trap+0x1c0>
    a3e0:	00400413          	addi	x8,x0,4
    a3e4:	00200493          	addi	x9,x0,2
    a3e8:	1780006f          	jal	x0,a560 <trap_diag_field_identified>
    a3ec:	00008397          	auipc	x7,0x8
    a3f0:	1fb38393          	addi	x7,x7,507 # 125e7 <sv_Hip_str>
    a3f4:	00731863          	bne	x6,x7,a404 <failedtest_saveresults_trap+0x1d8>
    a3f8:	00500413          	addi	x8,x0,5
    a3fc:	00200493          	addi	x9,x0,2
    a400:	1600006f          	jal	x0,a560 <trap_diag_field_identified>
    a404:	00008397          	auipc	x7,0x8
    a408:	dcb38393          	addi	x7,x7,-565 # 121cf <sv_Vvect_str>
    a40c:	00731863          	bne	x6,x7,a41c <failedtest_saveresults_trap+0x1f0>
    a410:	00100413          	addi	x8,x0,1
    a414:	00300493          	addi	x9,x0,3
    a418:	1480006f          	jal	x0,a560 <trap_diag_field_identified>
    a41c:	00008397          	auipc	x7,0x8
    a420:	eaf38393          	addi	x7,x7,-337 # 122cb <sv_Vcause_str>
    a424:	00731863          	bne	x6,x7,a434 <failedtest_saveresults_trap+0x208>
    a428:	00200413          	addi	x8,x0,2
    a42c:	00300493          	addi	x9,x0,3
    a430:	1300006f          	jal	x0,a560 <trap_diag_field_identified>
    a434:	00008397          	auipc	x7,0x8
    a438:	f8c38393          	addi	x7,x7,-116 # 123c0 <sv_Vepc_str>
    a43c:	00731863          	bne	x6,x7,a44c <failedtest_saveresults_trap+0x220>
    a440:	00300413          	addi	x8,x0,3
    a444:	00300493          	addi	x9,x0,3
    a448:	1180006f          	jal	x0,a560 <trap_diag_field_identified>
    a44c:	00008397          	auipc	x7,0x8
    a450:	06a38393          	addi	x7,x7,106 # 124b6 <sv_Vtval_str>
    a454:	00731863          	bne	x6,x7,a464 <failedtest_saveresults_trap+0x238>
    a458:	00400413          	addi	x8,x0,4
    a45c:	00300493          	addi	x9,x0,3
    a460:	1000006f          	jal	x0,a560 <trap_diag_field_identified>
    a464:	00008397          	auipc	x7,0x8
    a468:	1bf38393          	addi	x7,x7,447 # 12623 <sv_Vip_str>
    a46c:	00731863          	bne	x6,x7,a47c <failedtest_saveresults_trap+0x250>
    a470:	00500413          	addi	x8,x0,5
    a474:	00300493          	addi	x9,x0,3
    a478:	0e80006f          	jal	x0,a560 <trap_diag_field_identified>
    a47c:	00008397          	auipc	x7,0x8
    a480:	1e438393          	addi	x7,x7,484 # 12660 <Mclr_Mext_int_str>
    a484:	00731863          	bne	x6,x7,a494 <failedtest_saveresults_trap+0x268>
    a488:	00800413          	addi	x8,x0,8
    a48c:	00000493          	addi	x9,x0,0
    a490:	0d00006f          	jal	x0,a560 <trap_diag_field_identified>
    a494:	00008397          	auipc	x7,0x8
    a498:	21b38393          	addi	x7,x7,539 # 126af <Mclr_Sext_int_str>
    a49c:	00731863          	bne	x6,x7,a4ac <failedtest_saveresults_trap+0x280>
    a4a0:	00800413          	addi	x8,x0,8
    a4a4:	00000493          	addi	x9,x0,0
    a4a8:	0b80006f          	jal	x0,a560 <trap_diag_field_identified>
    a4ac:	00008397          	auipc	x7,0x8
    a4b0:	2fe38393          	addi	x7,x7,766 # 127aa <Sclr_Sext_int_str>
    a4b4:	00731863          	bne	x6,x7,a4c4 <failedtest_saveresults_trap+0x298>
    a4b8:	00800413          	addi	x8,x0,8
    a4bc:	00100493          	addi	x9,x0,1
    a4c0:	0a00006f          	jal	x0,a560 <trap_diag_field_identified>
    a4c4:	00008397          	auipc	x7,0x8
    a4c8:	3e238393          	addi	x7,x7,994 # 128a6 <Hclr_Sext_int_str>
    a4cc:	00731863          	bne	x6,x7,a4dc <failedtest_saveresults_trap+0x2b0>
    a4d0:	00800413          	addi	x8,x0,8
    a4d4:	00200493          	addi	x9,x0,2
    a4d8:	0880006f          	jal	x0,a560 <trap_diag_field_identified>
    a4dc:	1140006f          	jal	x0,a5f0 <trap_diag_generic_report>

0000a4e0 <trap_diag_offset_mismatch>:
    a4e0:	00900413          	addi	x8,x0,9
    a4e4:	00007817          	auipc	x16,0x7
    a4e8:	4cc80813          	addi	x16,x16,1228 # 119b0 <trap_diag_subtype>
    a4ec:	00882023          	sw	x8,0(x16)
    a4f0:	ffa2d303          	lhu	x6,-6(x5)
    a4f4:	ff82d383          	lhu	x7,-8(x5)
    a4f8:	01031313          	slli	x6,x6,0x10
    a4fc:	00736333          	or	x6,x6,x7
    a500:	01435413          	srli	x8,x6,0x14
    a504:	01f47413          	andi	x8,x8,31
    a508:	00341313          	slli	x6,x8,0x3
    a50c:	00620333          	add	x6,x4,x6
    a510:	00032303          	lw	x6,0(x6)
    a514:	00007817          	auipc	x16,0x7
    a518:	4b480813          	addi	x16,x16,1204 # 119c8 <trap_diag_actual_offset>
    a51c:	00682023          	sw	x6,0(x16)
    a520:	ff62d303          	lhu	x6,-10(x5)
    a524:	ff42d383          	lhu	x7,-12(x5)
    a528:	01031313          	slli	x6,x6,0x10
    a52c:	00736333          	or	x6,x6,x7
    a530:	41435393          	srai	x7,x6,0x14
    a534:	00f35313          	srli	x6,x6,0xf
    a538:	01f37313          	andi	x6,x6,31
    a53c:	00331313          	slli	x6,x6,0x3
    a540:	00620333          	add	x6,x4,x6
    a544:	00032303          	lw	x6,0(x6)
    a548:	00730333          	add	x6,x6,x7
    a54c:	00032303          	lw	x6,0(x6)
    a550:	00007817          	auipc	x16,0x7
    a554:	48080813          	addi	x16,x16,1152 # 119d0 <trap_diag_expected_offset>
    a558:	00682023          	sw	x6,0(x16)
    a55c:	0a40006f          	jal	x0,a600 <failedtest_saveresults_common>

0000a560 <trap_diag_field_identified>:
    a560:	00007817          	auipc	x16,0x7
    a564:	45080813          	addi	x16,x16,1104 # 119b0 <trap_diag_subtype>
    a568:	00882023          	sw	x8,0(x16)
    a56c:	00007817          	auipc	x16,0x7
    a570:	44880813          	addi	x16,x16,1096 # 119b4 <trap_diag_mode>
    a574:	00982023          	sw	x9,0(x16)
    a578:	ffa2d303          	lhu	x6,-6(x5)
    a57c:	ff82d383          	lhu	x7,-8(x5)
    a580:	01031313          	slli	x6,x6,0x10
    a584:	00736333          	or	x6,x6,x7
    a588:	01435713          	srli	x14,x6,0x14
    a58c:	01f77713          	andi	x14,x14,31
    a590:	00371313          	slli	x6,x14,0x3
    a594:	00620333          	add	x6,x4,x6
    a598:	00032303          	lw	x6,0(x6)
    a59c:	10622823          	sw	x6,272(x4) # 110 <MMODE_SIG+0x10d>
    a5a0:	00007817          	auipc	x16,0x7
    a5a4:	41880813          	addi	x16,x16,1048 # 119b8 <trap_diag_actual_value>
    a5a8:	00682023          	sw	x6,0(x16)
    a5ac:	ff62d303          	lhu	x6,-10(x5)
    a5b0:	ff42d383          	lhu	x7,-12(x5)
    a5b4:	01031313          	slli	x6,x6,0x10
    a5b8:	00736333          	or	x6,x6,x7
    a5bc:	41435393          	srai	x7,x6,0x14
    a5c0:	00f35313          	srli	x6,x6,0xf
    a5c4:	01f37313          	andi	x6,x6,31
    a5c8:	00331313          	slli	x6,x6,0x3
    a5cc:	00620333          	add	x6,x4,x6
    a5d0:	00032303          	lw	x6,0(x6)
    a5d4:	00730333          	add	x6,x6,x7
    a5d8:	00032303          	lw	x6,0(x6)
    a5dc:	10622c23          	sw	x6,280(x4) # 118 <MMODE_SIG+0x115>
    a5e0:	00007817          	auipc	x16,0x7
    a5e4:	3e080813          	addi	x16,x16,992 # 119c0 <trap_diag_expected_value>
    a5e8:	00682023          	sw	x6,0(x16)
    a5ec:	0140006f          	jal	x0,a600 <failedtest_saveresults_common>

0000a5f0 <trap_diag_generic_report>:
    a5f0:	00007817          	auipc	x16,0x7
    a5f4:	3c080813          	addi	x16,x16,960 # 119b0 <trap_diag_subtype>
    a5f8:	00082023          	sw	x0,0(x16)
    a5fc:	0040006f          	jal	x0,a600 <failedtest_saveresults_common>

0000a600 <failedtest_saveresults_common>:
    a600:	0002a303          	lw	x6,0(x5)
    a604:	10622423          	sw	x6,264(x4) # 108 <MMODE_SIG+0x105>
    a608:	00035383          	lhu	x7,0(x6)
    a60c:	0033f413          	andi	x8,x7,3
    a610:	00300493          	addi	x9,x0,3
    a614:	00941863          	bne	x8,x9,a624 <failedtest_saveresults_common+0x24>
    a618:	00235403          	lhu	x8,2(x6)
    a61c:	01041413          	slli	x8,x8,0x10
    a620:	0083e3b3          	or	x7,x7,x8
    a624:	10722023          	sw	x7,256(x4) # 100 <MMODE_SIG+0xfd>
    a628:	0042a303          	lw	x6,4(x5)
    a62c:	12622023          	sw	x6,288(x4) # 120 <MMODE_SIG+0x11d>

0000a630 <failedtest_report>:
    a630:	00000013          	addi	x0,x0,0
    a634:	00000013          	addi	x0,x0,0
    a638:	00000013          	addi	x0,x0,0
    a63c:	00000013          	addi	x0,x0,0
    a640:	00008517          	auipc	x10,0x8
    a644:	8da50513          	addi	x10,x10,-1830 # 11f1a <failstr>
    a648:	00000013          	addi	x0,x0,0
    a64c:	00000013          	addi	x0,x0,0
    a650:	00000013          	addi	x0,x0,0
    a654:	00000013          	addi	x0,x0,0
    a658:	00000013          	addi	x0,x0,0
    a65c:	00000013          	addi	x0,x0,0
    a660:	00019097          	auipc	x1,0x19
    a664:	ba4080e7          	jalr	x1,-1116(x1) # 23204 <rvmodel_io_write_str>

0000a668 <print_testnamestr>:
    a668:	00000013          	addi	x0,x0,0
    a66c:	00000013          	addi	x0,x0,0
    a670:	00000013          	addi	x0,x0,0
    a674:	00000013          	addi	x0,x0,0
    a678:	00000013          	addi	x0,x0,0
    a67c:	00000013          	addi	x0,x0,0
    a680:	00008517          	auipc	x10,0x8
    a684:	92d50513          	addi	x10,x10,-1747 # 11fad <testnamestr>
    a688:	00000013          	addi	x0,x0,0
    a68c:	00000013          	addi	x0,x0,0
    a690:	00000013          	addi	x0,x0,0
    a694:	00000013          	addi	x0,x0,0
    a698:	00000013          	addi	x0,x0,0
    a69c:	00000013          	addi	x0,x0,0
    a6a0:	00019097          	auipc	x1,0x19
    a6a4:	b64080e7          	jalr	x1,-1180(x1) # 23204 <rvmodel_io_write_str>

0000a6a8 <print_failure_test_name_str>:
    a6a8:	00007517          	auipc	x10,0x7
    a6ac:	2f852503          	lw	x10,760(x10) # 119a0 <failure_string_ptr>
    a6b0:	00019097          	auipc	x1,0x19
    a6b4:	b54080e7          	jalr	x1,-1196(x1) # 23204 <rvmodel_io_write_str>

0000a6b8 <print_newline_str>:
    a6b8:	00000013          	addi	x0,x0,0
    a6bc:	00000013          	addi	x0,x0,0
    a6c0:	00008517          	auipc	x10,0x8
    a6c4:	8ff50513          	addi	x10,x10,-1793 # 11fbf <newlinestr>
    a6c8:	00000013          	addi	x0,x0,0
    a6cc:	00000013          	addi	x0,x0,0
    a6d0:	00000013          	addi	x0,x0,0
    a6d4:	00000013          	addi	x0,x0,0
    a6d8:	00000013          	addi	x0,x0,0
    a6dc:	00000013          	addi	x0,x0,0
    a6e0:	00019097          	auipc	x1,0x19
    a6e4:	b24080e7          	jalr	x1,-1244(x1) # 23204 <rvmodel_io_write_str>
    a6e8:	00007517          	auipc	x10,0x7
    a6ec:	19852503          	lw	x10,408(x10) # 11880 <begin_failure_scratch>
    a6f0:	00300593          	addi	x11,x0,3
    a6f4:	3eb50c63          	beq	x10,x11,aaec <failedtest_report_trap_detailed>
    a6f8:	00000013          	addi	x0,x0,0
    a6fc:	00000013          	addi	x0,x0,0
    a700:	00008517          	auipc	x10,0x8
    a704:	8c150513          	addi	x10,x10,-1855 # 11fc1 <inststr>
    a708:	00000013          	addi	x0,x0,0
    a70c:	00000013          	addi	x0,x0,0
    a710:	00000013          	addi	x0,x0,0
    a714:	00000013          	addi	x0,x0,0
    a718:	00000013          	addi	x0,x0,0
    a71c:	00000013          	addi	x0,x0,0
    a720:	00019097          	auipc	x1,0x19
    a724:	ae4080e7          	jalr	x1,-1308(x1) # 23204 <rvmodel_io_write_str>
    a728:	00007517          	auipc	x10,0x7
    a72c:	25852503          	lw	x10,600(x10) # 11980 <failing_instruction>
    a730:	02000593          	addi	x11,x0,32
    a734:	00357613          	andi	x12,x10,3
    a738:	00300693          	addi	x13,x0,3
    a73c:	00d60463          	beq	x12,x13,a744 <print_newline_str+0x8c>
    a740:	01000593          	addi	x11,x0,16
    a744:	2f4010ef          	jal	x1,ba38 <failedtest_hex_to_str>
    a748:	00000013          	addi	x0,x0,0
    a74c:	00000013          	addi	x0,x0,0
    a750:	00000013          	addi	x0,x0,0
    a754:	00000013          	addi	x0,x0,0
    a758:	00000013          	addi	x0,x0,0
    a75c:	00000013          	addi	x0,x0,0
    a760:	00007517          	auipc	x10,0x7
    a764:	2a850513          	addi	x10,x10,680 # 11a08 <ascii_buffer>
    a768:	00000013          	addi	x0,x0,0
    a76c:	00000013          	addi	x0,x0,0
    a770:	00000013          	addi	x0,x0,0
    a774:	00000013          	addi	x0,x0,0
    a778:	00000013          	addi	x0,x0,0
    a77c:	00000013          	addi	x0,x0,0
    a780:	00019097          	auipc	x1,0x19
    a784:	a84080e7          	jalr	x1,-1404(x1) # 23204 <rvmodel_io_write_str>
    a788:	00000013          	addi	x0,x0,0
    a78c:	00000013          	addi	x0,x0,0
    a790:	00000013          	addi	x0,x0,0
    a794:	00000013          	addi	x0,x0,0
    a798:	00000013          	addi	x0,x0,0
    a79c:	00000013          	addi	x0,x0,0
    a7a0:	00008517          	auipc	x10,0x8
    a7a4:	83550513          	addi	x10,x10,-1995 # 11fd5 <addrstr>
    a7a8:	00000013          	addi	x0,x0,0
    a7ac:	00000013          	addi	x0,x0,0
    a7b0:	00000013          	addi	x0,x0,0
    a7b4:	00000013          	addi	x0,x0,0
    a7b8:	00000013          	addi	x0,x0,0
    a7bc:	00000013          	addi	x0,x0,0
    a7c0:	00019097          	auipc	x1,0x19
    a7c4:	a44080e7          	jalr	x1,-1468(x1) # 23204 <rvmodel_io_write_str>
    a7c8:	00007517          	auipc	x10,0x7
    a7cc:	1c052503          	lw	x10,448(x10) # 11988 <failing_addr>
    a7d0:	02000593          	addi	x11,x0,32
    a7d4:	264010ef          	jal	x1,ba38 <failedtest_hex_to_str>
    a7d8:	00000013          	addi	x0,x0,0
    a7dc:	00000013          	addi	x0,x0,0
    a7e0:	00007517          	auipc	x10,0x7
    a7e4:	22850513          	addi	x10,x10,552 # 11a08 <ascii_buffer>
    a7e8:	00000013          	addi	x0,x0,0
    a7ec:	00000013          	addi	x0,x0,0
    a7f0:	00000013          	addi	x0,x0,0
    a7f4:	00000013          	addi	x0,x0,0
    a7f8:	00000013          	addi	x0,x0,0
    a7fc:	00000013          	addi	x0,x0,0
    a800:	00019097          	auipc	x1,0x19
    a804:	a04080e7          	jalr	x1,-1532(x1) # 23204 <rvmodel_io_write_str>
    a808:	00000013          	addi	x0,x0,0
    a80c:	00000013          	addi	x0,x0,0
    a810:	00000013          	addi	x0,x0,0
    a814:	00000013          	addi	x0,x0,0
    a818:	00000013          	addi	x0,x0,0
    a81c:	00000013          	addi	x0,x0,0
    a820:	00008517          	auipc	x10,0x8
    a824:	23250513          	addi	x10,x10,562 # 12a52 <regstr>
    a828:	00000013          	addi	x0,x0,0
    a82c:	00000013          	addi	x0,x0,0
    a830:	00000013          	addi	x0,x0,0
    a834:	00000013          	addi	x0,x0,0
    a838:	00000013          	addi	x0,x0,0
    a83c:	00000013          	addi	x0,x0,0
    a840:	00019097          	auipc	x1,0x19
    a844:	9c4080e7          	jalr	x1,-1596(x1) # 23204 <rvmodel_io_write_str>
    a848:	00007517          	auipc	x10,0x7
    a84c:	03852503          	lw	x10,56(x10) # 11880 <begin_failure_scratch>
    a850:	00050663          	beq	x10,x0,a85c <print_newline_str+0x1a4>
    a854:	00300593          	addi	x11,x0,3
    a858:	04b51063          	bne	x10,x11,a898 <failedtest_report_not_intreg>
    a85c:	07800593          	addi	x11,x0,120
    a860:	00007617          	auipc	x12,0x7
    a864:	1a860613          	addi	x12,x12,424 # 11a08 <ascii_buffer>
    a868:	00000013          	addi	x0,x0,0
    a86c:	00000013          	addi	x0,x0,0
    a870:	00000013          	addi	x0,x0,0
    a874:	00000013          	addi	x0,x0,0
    a878:	00000013          	addi	x0,x0,0
    a87c:	00000013          	addi	x0,x0,0
    a880:	00b60023          	sb	x11,0(x12)
    a884:	00160613          	addi	x12,x12,1
    a888:	00007517          	auipc	x10,0x7
    a88c:	0fc52503          	lw	x10,252(x10) # 11984 <failing_reg>
    a890:	224010ef          	jal	x1,bab4 <failedtest_dec_to_str>
    a894:	0e00006f          	jal	x0,a974 <failedtest_report_print_regstr>

0000a898 <failedtest_report_not_intreg>:
    a898:	00100593          	addi	x11,x0,1
    a89c:	04b50863          	beq	x10,x11,a8ec <failedtest_report_fpreg>
    a8a0:	00400593          	addi	x11,x0,4
    a8a4:	08b50a63          	beq	x10,x11,a938 <failedtest_report_vecreg>
    a8a8:	00000013          	addi	x0,x0,0
    a8ac:	00000013          	addi	x0,x0,0
    a8b0:	00000013          	addi	x0,x0,0
    a8b4:	00000013          	addi	x0,x0,0
    a8b8:	00000013          	addi	x0,x0,0
    a8bc:	00000013          	addi	x0,x0,0
    a8c0:	00008517          	auipc	x10,0x8
    a8c4:	1f250513          	addi	x10,x10,498 # 12ab2 <fflagsstr>
    a8c8:	00000013          	addi	x0,x0,0
    a8cc:	00000013          	addi	x0,x0,0
    a8d0:	00000013          	addi	x0,x0,0
    a8d4:	00000013          	addi	x0,x0,0
    a8d8:	00000013          	addi	x0,x0,0
    a8dc:	00000013          	addi	x0,x0,0
    a8e0:	00019097          	auipc	x1,0x19
    a8e4:	924080e7          	jalr	x1,-1756(x1) # 23204 <rvmodel_io_write_str>
    a8e8:	0c00006f          	jal	x0,a9a8 <failedtest_report_after_reg>

0000a8ec <failedtest_report_fpreg>:
    a8ec:	06600593          	addi	x11,x0,102
    a8f0:	00000013          	addi	x0,x0,0
    a8f4:	00000013          	addi	x0,x0,0
    a8f8:	00000013          	addi	x0,x0,0
    a8fc:	00000013          	addi	x0,x0,0
    a900:	00007617          	auipc	x12,0x7
    a904:	10860613          	addi	x12,x12,264 # 11a08 <ascii_buffer>
    a908:	00000013          	addi	x0,x0,0
    a90c:	00000013          	addi	x0,x0,0
    a910:	00000013          	addi	x0,x0,0
    a914:	00000013          	addi	x0,x0,0
    a918:	00000013          	addi	x0,x0,0
    a91c:	00000013          	addi	x0,x0,0
    a920:	00b60023          	sb	x11,0(x12)
    a924:	00160613          	addi	x12,x12,1
    a928:	00007517          	auipc	x10,0x7
    a92c:	05c52503          	lw	x10,92(x10) # 11984 <failing_reg>
    a930:	184010ef          	jal	x1,bab4 <failedtest_dec_to_str>
    a934:	0400006f          	jal	x0,a974 <failedtest_report_print_regstr>

0000a938 <failedtest_report_vecreg>:
    a938:	07600593          	addi	x11,x0,118
    a93c:	00000013          	addi	x0,x0,0
    a940:	00007617          	auipc	x12,0x7
    a944:	0c860613          	addi	x12,x12,200 # 11a08 <ascii_buffer>
    a948:	00000013          	addi	x0,x0,0
    a94c:	00000013          	addi	x0,x0,0
    a950:	00000013          	addi	x0,x0,0
    a954:	00000013          	addi	x0,x0,0
    a958:	00000013          	addi	x0,x0,0
    a95c:	00000013          	addi	x0,x0,0
    a960:	00b60023          	sb	x11,0(x12)
    a964:	00160613          	addi	x12,x12,1
    a968:	00007517          	auipc	x10,0x7
    a96c:	01c52503          	lw	x10,28(x10) # 11984 <failing_reg>
    a970:	144010ef          	jal	x1,bab4 <failedtest_dec_to_str>

0000a974 <failedtest_report_print_regstr>:
    a974:	00000013          	addi	x0,x0,0
    a978:	00000013          	addi	x0,x0,0
    a97c:	00000013          	addi	x0,x0,0
    a980:	00007517          	auipc	x10,0x7
    a984:	08850513          	addi	x10,x10,136 # 11a08 <ascii_buffer>
    a988:	00000013          	addi	x0,x0,0
    a98c:	00000013          	addi	x0,x0,0
    a990:	00000013          	addi	x0,x0,0
    a994:	00000013          	addi	x0,x0,0
    a998:	00000013          	addi	x0,x0,0
    a99c:	00000013          	addi	x0,x0,0
    a9a0:	00019097          	auipc	x1,0x19
    a9a4:	864080e7          	jalr	x1,-1948(x1) # 23204 <rvmodel_io_write_str>

0000a9a8 <failedtest_report_after_reg>:
    a9a8:	00000013          	addi	x0,x0,0
    a9ac:	00000013          	addi	x0,x0,0
    a9b0:	00000013          	addi	x0,x0,0
    a9b4:	00000013          	addi	x0,x0,0
    a9b8:	00000013          	addi	x0,x0,0
    a9bc:	00000013          	addi	x0,x0,0
    a9c0:	00008517          	auipc	x10,0x8
    a9c4:	0a350513          	addi	x10,x10,163 # 12a63 <badvalstr>
    a9c8:	00000013          	addi	x0,x0,0
    a9cc:	00000013          	addi	x0,x0,0
    a9d0:	00000013          	addi	x0,x0,0
    a9d4:	00000013          	addi	x0,x0,0
    a9d8:	00000013          	addi	x0,x0,0
    a9dc:	00000013          	addi	x0,x0,0
    a9e0:	00019097          	auipc	x1,0x19
    a9e4:	824080e7          	jalr	x1,-2012(x1) # 23204 <rvmodel_io_write_str>
    a9e8:	00007517          	auipc	x10,0x7
    a9ec:	e9852503          	lw	x10,-360(x10) # 11880 <begin_failure_scratch>
    a9f0:	00100593          	addi	x11,x0,1
    a9f4:	00b51c63          	bne	x10,x11,aa0c <failedtest_report_badval_not_fp>
    a9f8:	00007517          	auipc	x10,0x7
    a9fc:	f9852503          	lw	x10,-104(x10) # 11990 <failing_value>
    aa00:	02000593          	addi	x11,x0,32
    aa04:	034010ef          	jal	x1,ba38 <failedtest_hex_to_str>
    aa08:	0140006f          	jal	x0,aa1c <failedtest_report_badval_done>

0000aa0c <failedtest_report_badval_not_fp>:
    aa0c:	00007517          	auipc	x10,0x7
    aa10:	f8452503          	lw	x10,-124(x10) # 11990 <failing_value>
    aa14:	02000593          	addi	x11,x0,32
    aa18:	020010ef          	jal	x1,ba38 <failedtest_hex_to_str>

0000aa1c <failedtest_report_badval_done>:
    aa1c:	00000013          	addi	x0,x0,0
    aa20:	00007517          	auipc	x10,0x7
    aa24:	fe850513          	addi	x10,x10,-24 # 11a08 <ascii_buffer>
    aa28:	00000013          	addi	x0,x0,0
    aa2c:	00000013          	addi	x0,x0,0
    aa30:	00000013          	addi	x0,x0,0
    aa34:	00000013          	addi	x0,x0,0
    aa38:	00000013          	addi	x0,x0,0
    aa3c:	00000013          	addi	x0,x0,0
    aa40:	00018097          	auipc	x1,0x18
    aa44:	7c4080e7          	jalr	x1,1988(x1) # 23204 <rvmodel_io_write_str>
    aa48:	00000013          	addi	x0,x0,0
    aa4c:	00000013          	addi	x0,x0,0
    aa50:	00000013          	addi	x0,x0,0
    aa54:	00000013          	addi	x0,x0,0
    aa58:	00000013          	addi	x0,x0,0
    aa5c:	00000013          	addi	x0,x0,0
    aa60:	00008517          	auipc	x10,0x8
    aa64:	01a50513          	addi	x10,x10,26 # 12a7a <expvalstr>
    aa68:	00000013          	addi	x0,x0,0
    aa6c:	00000013          	addi	x0,x0,0
    aa70:	00000013          	addi	x0,x0,0
    aa74:	00000013          	addi	x0,x0,0
    aa78:	00000013          	addi	x0,x0,0
    aa7c:	00000013          	addi	x0,x0,0
    aa80:	00018097          	auipc	x1,0x18
    aa84:	784080e7          	jalr	x1,1924(x1) # 23204 <rvmodel_io_write_str>
    aa88:	00007517          	auipc	x10,0x7
    aa8c:	df852503          	lw	x10,-520(x10) # 11880 <begin_failure_scratch>
    aa90:	00100593          	addi	x11,x0,1
    aa94:	00b51c63          	bne	x10,x11,aaac <failedtest_report_expval_not_fp>
    aa98:	00007517          	auipc	x10,0x7
    aa9c:	f0052503          	lw	x10,-256(x10) # 11998 <expected_value>
    aaa0:	02000593          	addi	x11,x0,32
    aaa4:	795000ef          	jal	x1,ba38 <failedtest_hex_to_str>
    aaa8:	0140006f          	jal	x0,aabc <failedtest_report_expval_done>

0000aaac <failedtest_report_expval_not_fp>:
    aaac:	00007517          	auipc	x10,0x7
    aab0:	eec52503          	lw	x10,-276(x10) # 11998 <expected_value>
    aab4:	02000593          	addi	x11,x0,32
    aab8:	781000ef          	jal	x1,ba38 <failedtest_hex_to_str>

0000aabc <failedtest_report_expval_done>:
    aabc:	00000013          	addi	x0,x0,0
    aac0:	00007517          	auipc	x10,0x7
    aac4:	f4850513          	addi	x10,x10,-184 # 11a08 <ascii_buffer>
    aac8:	00000013          	addi	x0,x0,0
    aacc:	00000013          	addi	x0,x0,0
    aad0:	00000013          	addi	x0,x0,0
    aad4:	00000013          	addi	x0,x0,0
    aad8:	00000013          	addi	x0,x0,0
    aadc:	00000013          	addi	x0,x0,0
    aae0:	00018097          	auipc	x1,0x18
    aae4:	724080e7          	jalr	x1,1828(x1) # 23204 <rvmodel_io_write_str>
    aae8:	4fd0006f          	jal	x0,b7e4 <failedtest_report_end>

0000aaec <failedtest_report_trap_detailed>:
    aaec:	00000013          	addi	x0,x0,0
    aaf0:	00000013          	addi	x0,x0,0
    aaf4:	00000013          	addi	x0,x0,0
    aaf8:	00000013          	addi	x0,x0,0
    aafc:	00000013          	addi	x0,x0,0
    ab00:	00008517          	auipc	x10,0x8
    ab04:	fde50513          	addi	x10,x10,-34 # 12ade <trap_diag_header_str>
    ab08:	00000013          	addi	x0,x0,0
    ab0c:	00000013          	addi	x0,x0,0
    ab10:	00000013          	addi	x0,x0,0
    ab14:	00000013          	addi	x0,x0,0
    ab18:	00000013          	addi	x0,x0,0
    ab1c:	00000013          	addi	x0,x0,0
    ab20:	00018097          	auipc	x1,0x18
    ab24:	6e4080e7          	jalr	x1,1764(x1) # 23204 <rvmodel_io_write_str>
    ab28:	00000013          	addi	x0,x0,0
    ab2c:	00000013          	addi	x0,x0,0
    ab30:	00000013          	addi	x0,x0,0
    ab34:	00000013          	addi	x0,x0,0
    ab38:	00000013          	addi	x0,x0,0
    ab3c:	00000013          	addi	x0,x0,0
    ab40:	00008517          	auipc	x10,0x8
    ab44:	fca50513          	addi	x10,x10,-54 # 12b0a <trap_diag_origstr_label>
    ab48:	00000013          	addi	x0,x0,0
    ab4c:	00000013          	addi	x0,x0,0
    ab50:	00000013          	addi	x0,x0,0
    ab54:	00000013          	addi	x0,x0,0
    ab58:	00000013          	addi	x0,x0,0
    ab5c:	00000013          	addi	x0,x0,0
    ab60:	00018097          	auipc	x1,0x18
    ab64:	6a4080e7          	jalr	x1,1700(x1) # 23204 <rvmodel_io_write_str>
    ab68:	00007817          	auipc	x16,0x7
    ab6c:	e7080813          	addi	x16,x16,-400 # 119d8 <trap_diag_fail_str_ptr>
    ab70:	00082503          	lw	x10,0(x16)
    ab74:	00018097          	auipc	x1,0x18
    ab78:	690080e7          	jalr	x1,1680(x1) # 23204 <rvmodel_io_write_str>
    ab7c:	00000013          	addi	x0,x0,0
    ab80:	00007517          	auipc	x10,0x7
    ab84:	43f50513          	addi	x10,x10,1087 # 11fbf <newlinestr>
    ab88:	00000013          	addi	x0,x0,0
    ab8c:	00000013          	addi	x0,x0,0
    ab90:	00000013          	addi	x0,x0,0
    ab94:	00000013          	addi	x0,x0,0
    ab98:	00000013          	addi	x0,x0,0
    ab9c:	00000013          	addi	x0,x0,0
    aba0:	00018097          	auipc	x1,0x18
    aba4:	664080e7          	jalr	x1,1636(x1) # 23204 <rvmodel_io_write_str>
    aba8:	00007417          	auipc	x8,0x7
    abac:	e0842403          	lw	x8,-504(x8) # 119b0 <trap_diag_subtype>
    abb0:	00900493          	addi	x9,x0,9
    abb4:	00940663          	beq	x8,x9,abc0 <trap_report_offset_mismatch>
    abb8:	2a040ce3          	beq	x8,x0,b670 <trap_report_generic>
    abbc:	3780006f          	jal	x0,af34 <trap_report_field_mismatch>

0000abc0 <trap_report_offset_mismatch>:
    abc0:	00008517          	auipc	x10,0x8
    abc4:	f5a50513          	addi	x10,x10,-166 # 12b1a <trap_diag_count_mismatch_str>
    abc8:	00000013          	addi	x0,x0,0
    abcc:	00000013          	addi	x0,x0,0
    abd0:	00000013          	addi	x0,x0,0
    abd4:	00000013          	addi	x0,x0,0
    abd8:	00000013          	addi	x0,x0,0
    abdc:	00000013          	addi	x0,x0,0
    abe0:	00018097          	auipc	x1,0x18
    abe4:	624080e7          	jalr	x1,1572(x1) # 23204 <rvmodel_io_write_str>
    abe8:	00000013          	addi	x0,x0,0
    abec:	00000013          	addi	x0,x0,0
    abf0:	00000013          	addi	x0,x0,0
    abf4:	00000013          	addi	x0,x0,0
    abf8:	00000013          	addi	x0,x0,0
    abfc:	00000013          	addi	x0,x0,0
    ac00:	00008517          	auipc	x10,0x8
    ac04:	f7b50513          	addi	x10,x10,-133 # 12b7b <trap_diag_expected_offset_str>
    ac08:	00000013          	addi	x0,x0,0
    ac0c:	00000013          	addi	x0,x0,0
    ac10:	00000013          	addi	x0,x0,0
    ac14:	00000013          	addi	x0,x0,0
    ac18:	00000013          	addi	x0,x0,0
    ac1c:	00000013          	addi	x0,x0,0
    ac20:	00018097          	auipc	x1,0x18
    ac24:	5e4080e7          	jalr	x1,1508(x1) # 23204 <rvmodel_io_write_str>
    ac28:	00007517          	auipc	x10,0x7
    ac2c:	da852503          	lw	x10,-600(x10) # 119d0 <trap_diag_expected_offset>
    ac30:	02000593          	addi	x11,x0,32
    ac34:	605000ef          	jal	x1,ba38 <failedtest_hex_to_str>
    ac38:	00000013          	addi	x0,x0,0
    ac3c:	00000013          	addi	x0,x0,0
    ac40:	00007517          	auipc	x10,0x7
    ac44:	dc850513          	addi	x10,x10,-568 # 11a08 <ascii_buffer>
    ac48:	00000013          	addi	x0,x0,0
    ac4c:	00000013          	addi	x0,x0,0
    ac50:	00000013          	addi	x0,x0,0
    ac54:	00000013          	addi	x0,x0,0
    ac58:	00000013          	addi	x0,x0,0
    ac5c:	00000013          	addi	x0,x0,0
    ac60:	00018097          	auipc	x1,0x18
    ac64:	5a4080e7          	jalr	x1,1444(x1) # 23204 <rvmodel_io_write_str>
    ac68:	00000013          	addi	x0,x0,0
    ac6c:	00000013          	addi	x0,x0,0
    ac70:	00000013          	addi	x0,x0,0
    ac74:	00000013          	addi	x0,x0,0
    ac78:	00000013          	addi	x0,x0,0
    ac7c:	00000013          	addi	x0,x0,0
    ac80:	00008517          	auipc	x10,0x8
    ac84:	f2250513          	addi	x10,x10,-222 # 12ba2 <trap_diag_actual_offset_str>
    ac88:	00000013          	addi	x0,x0,0
    ac8c:	00000013          	addi	x0,x0,0
    ac90:	00000013          	addi	x0,x0,0
    ac94:	00000013          	addi	x0,x0,0
    ac98:	00000013          	addi	x0,x0,0
    ac9c:	00000013          	addi	x0,x0,0
    aca0:	00018097          	auipc	x1,0x18
    aca4:	564080e7          	jalr	x1,1380(x1) # 23204 <rvmodel_io_write_str>
    aca8:	00007517          	auipc	x10,0x7
    acac:	d2052503          	lw	x10,-736(x10) # 119c8 <trap_diag_actual_offset>
    acb0:	02000593          	addi	x11,x0,32
    acb4:	585000ef          	jal	x1,ba38 <failedtest_hex_to_str>
    acb8:	00000013          	addi	x0,x0,0
    acbc:	00000013          	addi	x0,x0,0
    acc0:	00007517          	auipc	x10,0x7
    acc4:	d4850513          	addi	x10,x10,-696 # 11a08 <ascii_buffer>
    acc8:	00000013          	addi	x0,x0,0
    accc:	00000013          	addi	x0,x0,0
    acd0:	00000013          	addi	x0,x0,0
    acd4:	00000013          	addi	x0,x0,0
    acd8:	00000013          	addi	x0,x0,0
    acdc:	00000013          	addi	x0,x0,0
    ace0:	00018097          	auipc	x1,0x18
    ace4:	524080e7          	jalr	x1,1316(x1) # 23204 <rvmodel_io_write_str>
    ace8:	00007317          	auipc	x6,0x7
    acec:	ce032303          	lw	x6,-800(x6) # 119c8 <trap_diag_actual_offset>
    acf0:	00007397          	auipc	x7,0x7
    acf4:	ce03a383          	lw	x7,-800(x7) # 119d0 <trap_diag_expected_offset>
    acf8:	10734e63          	blt	x6,x7,ae14 <trap_report_missing_traps>

0000acfc <trap_report_extra_traps>:
    acfc:	00000013          	addi	x0,x0,0
    ad00:	00008517          	auipc	x10,0x8
    ad04:	ec950513          	addi	x10,x10,-311 # 12bc9 <trap_diag_extra_traps_str>
    ad08:	00000013          	addi	x0,x0,0
    ad0c:	00000013          	addi	x0,x0,0
    ad10:	00000013          	addi	x0,x0,0
    ad14:	00000013          	addi	x0,x0,0
    ad18:	00000013          	addi	x0,x0,0
    ad1c:	00000013          	addi	x0,x0,0
    ad20:	00018097          	auipc	x1,0x18
    ad24:	4e4080e7          	jalr	x1,1252(x1) # 23204 <rvmodel_io_write_str>
    ad28:	00007317          	auipc	x6,0x7
    ad2c:	ca032303          	lw	x6,-864(x6) # 119c8 <trap_diag_actual_offset>
    ad30:	00007397          	auipc	x7,0x7
    ad34:	ca03a383          	lw	x7,-864(x7) # 119d0 <trap_diag_expected_offset>
    ad38:	40730333          	sub	x6,x6,x7
    ad3c:	00235313          	srli	x6,x6,0x2
    ad40:	00008517          	auipc	x10,0x8
    ad44:	f0e50513          	addi	x10,x10,-242 # 12c4e <trap_diag_extra_bytes_str>
    ad48:	00000013          	addi	x0,x0,0
    ad4c:	00000013          	addi	x0,x0,0
    ad50:	00000013          	addi	x0,x0,0
    ad54:	00000013          	addi	x0,x0,0
    ad58:	00000013          	addi	x0,x0,0
    ad5c:	00000013          	addi	x0,x0,0
    ad60:	00018097          	auipc	x1,0x18
    ad64:	4a4080e7          	jalr	x1,1188(x1) # 23204 <rvmodel_io_write_str>
    ad68:	00007317          	auipc	x6,0x7
    ad6c:	c6032303          	lw	x6,-928(x6) # 119c8 <trap_diag_actual_offset>
    ad70:	00007397          	auipc	x7,0x7
    ad74:	c603a383          	lw	x7,-928(x7) # 119d0 <trap_diag_expected_offset>
    ad78:	40730533          	sub	x10,x6,x7
    ad7c:	02000593          	addi	x11,x0,32
    ad80:	4b9000ef          	jal	x1,ba38 <failedtest_hex_to_str>
    ad84:	00000013          	addi	x0,x0,0
    ad88:	00000013          	addi	x0,x0,0
    ad8c:	00000013          	addi	x0,x0,0
    ad90:	00000013          	addi	x0,x0,0
    ad94:	00000013          	addi	x0,x0,0
    ad98:	00000013          	addi	x0,x0,0
    ad9c:	00000013          	addi	x0,x0,0
    ada0:	00007517          	auipc	x10,0x7
    ada4:	c6850513          	addi	x10,x10,-920 # 11a08 <ascii_buffer>
    ada8:	00000013          	addi	x0,x0,0
    adac:	00000013          	addi	x0,x0,0
    adb0:	00000013          	addi	x0,x0,0
    adb4:	00000013          	addi	x0,x0,0
    adb8:	00000013          	addi	x0,x0,0
    adbc:	00000013          	addi	x0,x0,0
    adc0:	00018097          	auipc	x1,0x18
    adc4:	444080e7          	jalr	x1,1092(x1) # 23204 <rvmodel_io_write_str>
    adc8:	00000013          	addi	x0,x0,0
    adcc:	00000013          	addi	x0,x0,0
    add0:	00000013          	addi	x0,x0,0
    add4:	00000013          	addi	x0,x0,0
    add8:	00000013          	addi	x0,x0,0
    addc:	00000013          	addi	x0,x0,0
    ade0:	00008517          	auipc	x10,0x8
    ade4:	e9950513          	addi	x10,x10,-359 # 12c79 <trap_diag_extra_hint_str>
    ade8:	00000013          	addi	x0,x0,0
    adec:	00000013          	addi	x0,x0,0
    adf0:	00000013          	addi	x0,x0,0
    adf4:	00000013          	addi	x0,x0,0
    adf8:	00000013          	addi	x0,x0,0
    adfc:	00000013          	addi	x0,x0,0
    ae00:	00018097          	auipc	x1,0x18
    ae04:	404080e7          	jalr	x1,1028(x1) # 23204 <rvmodel_io_write_str>
    ae08:	00001097          	auipc	x1,0x1
    ae0c:	a28080e7          	jalr	x1,-1496(x1) # b830 <failedtest_print_csr_context>
    ae10:	1d50006f          	jal	x0,b7e4 <failedtest_report_end>

0000ae14 <trap_report_missing_traps>:
    ae14:	00000013          	addi	x0,x0,0
    ae18:	00000013          	addi	x0,x0,0
    ae1c:	00000013          	addi	x0,x0,0
    ae20:	00008517          	auipc	x10,0x8
    ae24:	de350513          	addi	x10,x10,-541 # 12c03 <trap_diag_missing_traps_str>
    ae28:	00000013          	addi	x0,x0,0
    ae2c:	00000013          	addi	x0,x0,0
    ae30:	00000013          	addi	x0,x0,0
    ae34:	00000013          	addi	x0,x0,0
    ae38:	00000013          	addi	x0,x0,0
    ae3c:	00000013          	addi	x0,x0,0
    ae40:	00018097          	auipc	x1,0x18
    ae44:	3c4080e7          	jalr	x1,964(x1) # 23204 <rvmodel_io_write_str>
    ae48:	00000013          	addi	x0,x0,0
    ae4c:	00000013          	addi	x0,x0,0
    ae50:	00000013          	addi	x0,x0,0
    ae54:	00000013          	addi	x0,x0,0
    ae58:	00000013          	addi	x0,x0,0
    ae5c:	00000013          	addi	x0,x0,0
    ae60:	00008517          	auipc	x10,0x8
    ae64:	dee50513          	addi	x10,x10,-530 # 12c4e <trap_diag_extra_bytes_str>
    ae68:	00000013          	addi	x0,x0,0
    ae6c:	00000013          	addi	x0,x0,0
    ae70:	00000013          	addi	x0,x0,0
    ae74:	00000013          	addi	x0,x0,0
    ae78:	00000013          	addi	x0,x0,0
    ae7c:	00000013          	addi	x0,x0,0
    ae80:	00018097          	auipc	x1,0x18
    ae84:	384080e7          	jalr	x1,900(x1) # 23204 <rvmodel_io_write_str>
    ae88:	00007317          	auipc	x6,0x7
    ae8c:	b4832303          	lw	x6,-1208(x6) # 119d0 <trap_diag_expected_offset>
    ae90:	00007397          	auipc	x7,0x7
    ae94:	b383a383          	lw	x7,-1224(x7) # 119c8 <trap_diag_actual_offset>
    ae98:	40730533          	sub	x10,x6,x7
    ae9c:	02000593          	addi	x11,x0,32
    aea0:	399000ef          	jal	x1,ba38 <failedtest_hex_to_str>
    aea4:	00000013          	addi	x0,x0,0
    aea8:	00000013          	addi	x0,x0,0
    aeac:	00000013          	addi	x0,x0,0
    aeb0:	00000013          	addi	x0,x0,0
    aeb4:	00000013          	addi	x0,x0,0
    aeb8:	00000013          	addi	x0,x0,0
    aebc:	00000013          	addi	x0,x0,0
    aec0:	00007517          	auipc	x10,0x7
    aec4:	b4850513          	addi	x10,x10,-1208 # 11a08 <ascii_buffer>
    aec8:	00000013          	addi	x0,x0,0
    aecc:	00000013          	addi	x0,x0,0
    aed0:	00000013          	addi	x0,x0,0
    aed4:	00000013          	addi	x0,x0,0
    aed8:	00000013          	addi	x0,x0,0
    aedc:	00000013          	addi	x0,x0,0
    aee0:	00018097          	auipc	x1,0x18
    aee4:	324080e7          	jalr	x1,804(x1) # 23204 <rvmodel_io_write_str>
    aee8:	00000013          	addi	x0,x0,0
    aeec:	00000013          	addi	x0,x0,0
    aef0:	00000013          	addi	x0,x0,0
    aef4:	00000013          	addi	x0,x0,0
    aef8:	00000013          	addi	x0,x0,0
    aefc:	00000013          	addi	x0,x0,0
    af00:	00008517          	auipc	x10,0x8
    af04:	e6150513          	addi	x10,x10,-415 # 12d61 <trap_diag_missing_hint_str>
    af08:	00000013          	addi	x0,x0,0
    af0c:	00000013          	addi	x0,x0,0
    af10:	00000013          	addi	x0,x0,0
    af14:	00000013          	addi	x0,x0,0
    af18:	00000013          	addi	x0,x0,0
    af1c:	00000013          	addi	x0,x0,0
    af20:	00018097          	auipc	x1,0x18
    af24:	2e4080e7          	jalr	x1,740(x1) # 23204 <rvmodel_io_write_str>
    af28:	00001097          	auipc	x1,0x1
    af2c:	908080e7          	jalr	x1,-1784(x1) # b830 <failedtest_print_csr_context>
    af30:	0b50006f          	jal	x0,b7e4 <failedtest_report_end>

0000af34 <trap_report_field_mismatch>:
    af34:	00000013          	addi	x0,x0,0
    af38:	00000013          	addi	x0,x0,0
    af3c:	00000013          	addi	x0,x0,0
    af40:	00008517          	auipc	x10,0x8
    af44:	f0850513          	addi	x10,x10,-248 # 12e48 <trap_diag_handler_mode_str>
    af48:	00000013          	addi	x0,x0,0
    af4c:	00000013          	addi	x0,x0,0
    af50:	00000013          	addi	x0,x0,0
    af54:	00000013          	addi	x0,x0,0
    af58:	00000013          	addi	x0,x0,0
    af5c:	00000013          	addi	x0,x0,0
    af60:	00018097          	auipc	x1,0x18
    af64:	2a4080e7          	jalr	x1,676(x1) # 23204 <rvmodel_io_write_str>
    af68:	00007517          	auipc	x10,0x7
    af6c:	a4c52503          	lw	x10,-1460(x10) # 119b4 <trap_diag_mode>
    af70:	04050a63          	beq	x10,x0,afc4 <trap_mode_m>
    af74:	00100593          	addi	x11,x0,1
    af78:	08b50663          	beq	x10,x11,b004 <trap_mode_s>
    af7c:	00200593          	addi	x11,x0,2
    af80:	0cb50263          	beq	x10,x11,b044 <trap_mode_h>
    af84:	00300593          	addi	x11,x0,3
    af88:	0eb50e63          	beq	x10,x11,b084 <trap_mode_v>
    af8c:	00000013          	addi	x0,x0,0
    af90:	00000013          	addi	x0,x0,0
    af94:	00000013          	addi	x0,x0,0
    af98:	00000013          	addi	x0,x0,0
    af9c:	00000013          	addi	x0,x0,0
    afa0:	00008517          	auipc	x10,0x8
    afa4:	ee450513          	addi	x10,x10,-284 # 12e84 <trap_diag_mode_unknown_str>
    afa8:	00000013          	addi	x0,x0,0
    afac:	00000013          	addi	x0,x0,0
    afb0:	00000013          	addi	x0,x0,0
    afb4:	00000013          	addi	x0,x0,0
    afb8:	00000013          	addi	x0,x0,0
    afbc:	00000013          	addi	x0,x0,0
    afc0:	1000006f          	jal	x0,b0c0 <trap_mode_print>

0000afc4 <trap_mode_m>:
    afc4:	00000013          	addi	x0,x0,0
    afc8:	00000013          	addi	x0,x0,0
    afcc:	00000013          	addi	x0,x0,0
    afd0:	00000013          	addi	x0,x0,0
    afd4:	00000013          	addi	x0,x0,0
    afd8:	00000013          	addi	x0,x0,0
    afdc:	00000013          	addi	x0,x0,0
    afe0:	00008517          	auipc	x10,0x8
    afe4:	e8250513          	addi	x10,x10,-382 # 12e62 <trap_diag_mode_m_str>
    afe8:	00000013          	addi	x0,x0,0
    afec:	00000013          	addi	x0,x0,0
    aff0:	00000013          	addi	x0,x0,0
    aff4:	00000013          	addi	x0,x0,0
    aff8:	00000013          	addi	x0,x0,0
    affc:	00000013          	addi	x0,x0,0
    b000:	0c00006f          	jal	x0,b0c0 <trap_mode_print>

0000b004 <trap_mode_s>:
    b004:	00000013          	addi	x0,x0,0
    b008:	00000013          	addi	x0,x0,0
    b00c:	00000013          	addi	x0,x0,0
    b010:	00000013          	addi	x0,x0,0
    b014:	00000013          	addi	x0,x0,0
    b018:	00000013          	addi	x0,x0,0
    b01c:	00000013          	addi	x0,x0,0
    b020:	00008517          	auipc	x10,0x8
    b024:	e4a50513          	addi	x10,x10,-438 # 12e6a <trap_diag_mode_s_str>
    b028:	00000013          	addi	x0,x0,0
    b02c:	00000013          	addi	x0,x0,0
    b030:	00000013          	addi	x0,x0,0
    b034:	00000013          	addi	x0,x0,0
    b038:	00000013          	addi	x0,x0,0
    b03c:	00000013          	addi	x0,x0,0
    b040:	0800006f          	jal	x0,b0c0 <trap_mode_print>

0000b044 <trap_mode_h>:
    b044:	00000013          	addi	x0,x0,0
    b048:	00000013          	addi	x0,x0,0
    b04c:	00000013          	addi	x0,x0,0
    b050:	00000013          	addi	x0,x0,0
    b054:	00000013          	addi	x0,x0,0
    b058:	00000013          	addi	x0,x0,0
    b05c:	00000013          	addi	x0,x0,0
    b060:	00008517          	auipc	x10,0x8
    b064:	e1250513          	addi	x10,x10,-494 # 12e72 <trap_diag_mode_hs_str>
    b068:	00000013          	addi	x0,x0,0
    b06c:	00000013          	addi	x0,x0,0
    b070:	00000013          	addi	x0,x0,0
    b074:	00000013          	addi	x0,x0,0
    b078:	00000013          	addi	x0,x0,0
    b07c:	00000013          	addi	x0,x0,0
    b080:	0400006f          	jal	x0,b0c0 <trap_mode_print>

0000b084 <trap_mode_v>:
    b084:	00000013          	addi	x0,x0,0
    b088:	00000013          	addi	x0,x0,0
    b08c:	00000013          	addi	x0,x0,0
    b090:	00000013          	addi	x0,x0,0
    b094:	00000013          	addi	x0,x0,0
    b098:	00000013          	addi	x0,x0,0
    b09c:	00000013          	addi	x0,x0,0
    b0a0:	00008517          	auipc	x10,0x8
    b0a4:	ddb50513          	addi	x10,x10,-549 # 12e7b <trap_diag_mode_vs_str>
    b0a8:	00000013          	addi	x0,x0,0
    b0ac:	00000013          	addi	x0,x0,0
    b0b0:	00000013          	addi	x0,x0,0
    b0b4:	00000013          	addi	x0,x0,0
    b0b8:	00000013          	addi	x0,x0,0
    b0bc:	00000013          	addi	x0,x0,0

0000b0c0 <trap_mode_print>:
    b0c0:	00018097          	auipc	x1,0x18
    b0c4:	144080e7          	jalr	x1,324(x1) # 23204 <rvmodel_io_write_str>
    b0c8:	00000013          	addi	x0,x0,0
    b0cc:	00000013          	addi	x0,x0,0
    b0d0:	00000013          	addi	x0,x0,0
    b0d4:	00000013          	addi	x0,x0,0
    b0d8:	00000013          	addi	x0,x0,0
    b0dc:	00000013          	addi	x0,x0,0
    b0e0:	00008517          	auipc	x10,0x8
    b0e4:	dad50513          	addi	x10,x10,-595 # 12e8d <trap_diag_field_str>
    b0e8:	00000013          	addi	x0,x0,0
    b0ec:	00000013          	addi	x0,x0,0
    b0f0:	00000013          	addi	x0,x0,0
    b0f4:	00000013          	addi	x0,x0,0
    b0f8:	00000013          	addi	x0,x0,0
    b0fc:	00000013          	addi	x0,x0,0
    b100:	00018097          	auipc	x1,0x18
    b104:	104080e7          	jalr	x1,260(x1) # 23204 <rvmodel_io_write_str>
    b108:	00007517          	auipc	x10,0x7
    b10c:	8a852503          	lw	x10,-1880(x10) # 119b0 <trap_diag_subtype>
    b110:	00100593          	addi	x11,x0,1
    b114:	06b50863          	beq	x10,x11,b184 <trap_field_vect>
    b118:	00200593          	addi	x11,x0,2
    b11c:	0ab50463          	beq	x10,x11,b1c4 <trap_field_cause>
    b120:	00300593          	addi	x11,x0,3
    b124:	0eb50063          	beq	x10,x11,b204 <trap_field_epc>
    b128:	00400593          	addi	x11,x0,4
    b12c:	10b50c63          	beq	x10,x11,b244 <trap_field_tval>
    b130:	00500593          	addi	x11,x0,5
    b134:	14b50863          	beq	x10,x11,b284 <trap_field_ip>
    b138:	00600593          	addi	x11,x0,6
    b13c:	18b50463          	beq	x10,x11,b2c4 <trap_field_tval2>
    b140:	00700593          	addi	x11,x0,7
    b144:	1cb50063          	beq	x10,x11,b304 <trap_field_tinst>
    b148:	00800593          	addi	x11,x0,8
    b14c:	1eb50c63          	beq	x10,x11,b344 <trap_field_intid>
    b150:	00000013          	addi	x0,x0,0
    b154:	00000013          	addi	x0,x0,0
    b158:	00000013          	addi	x0,x0,0
    b15c:	00000013          	addi	x0,x0,0
    b160:	00008517          	auipc	x10,0x8
    b164:	e8450513          	addi	x10,x10,-380 # 12fe4 <trap_diag_field_unknown_str>
    b168:	00000013          	addi	x0,x0,0
    b16c:	00000013          	addi	x0,x0,0
    b170:	00000013          	addi	x0,x0,0
    b174:	00000013          	addi	x0,x0,0
    b178:	00000013          	addi	x0,x0,0
    b17c:	00000013          	addi	x0,x0,0
    b180:	2000006f          	jal	x0,b380 <trap_field_print>

0000b184 <trap_field_vect>:
    b184:	00000013          	addi	x0,x0,0
    b188:	00000013          	addi	x0,x0,0
    b18c:	00000013          	addi	x0,x0,0
    b190:	00000013          	addi	x0,x0,0
    b194:	00000013          	addi	x0,x0,0
    b198:	00000013          	addi	x0,x0,0
    b19c:	00000013          	addi	x0,x0,0
    b1a0:	00008517          	auipc	x10,0x8
    b1a4:	d0750513          	addi	x10,x10,-761 # 12ea7 <trap_diag_field_vect_str>
    b1a8:	00000013          	addi	x0,x0,0
    b1ac:	00000013          	addi	x0,x0,0
    b1b0:	00000013          	addi	x0,x0,0
    b1b4:	00000013          	addi	x0,x0,0
    b1b8:	00000013          	addi	x0,x0,0
    b1bc:	00000013          	addi	x0,x0,0
    b1c0:	1c00006f          	jal	x0,b380 <trap_field_print>

0000b1c4 <trap_field_cause>:
    b1c4:	00000013          	addi	x0,x0,0
    b1c8:	00000013          	addi	x0,x0,0
    b1cc:	00000013          	addi	x0,x0,0
    b1d0:	00000013          	addi	x0,x0,0
    b1d4:	00000013          	addi	x0,x0,0
    b1d8:	00000013          	addi	x0,x0,0
    b1dc:	00000013          	addi	x0,x0,0
    b1e0:	00008517          	auipc	x10,0x8
    b1e4:	cf850513          	addi	x10,x10,-776 # 12ed8 <trap_diag_field_cause_str>
    b1e8:	00000013          	addi	x0,x0,0
    b1ec:	00000013          	addi	x0,x0,0
    b1f0:	00000013          	addi	x0,x0,0
    b1f4:	00000013          	addi	x0,x0,0
    b1f8:	00000013          	addi	x0,x0,0
    b1fc:	00000013          	addi	x0,x0,0
    b200:	1800006f          	jal	x0,b380 <trap_field_print>

0000b204 <trap_field_epc>:
    b204:	00000013          	addi	x0,x0,0
    b208:	00000013          	addi	x0,x0,0
    b20c:	00000013          	addi	x0,x0,0
    b210:	00000013          	addi	x0,x0,0
    b214:	00000013          	addi	x0,x0,0
    b218:	00000013          	addi	x0,x0,0
    b21c:	00000013          	addi	x0,x0,0
    b220:	00008517          	auipc	x10,0x8
    b224:	cd850513          	addi	x10,x10,-808 # 12ef8 <trap_diag_field_epc_str>
    b228:	00000013          	addi	x0,x0,0
    b22c:	00000013          	addi	x0,x0,0
    b230:	00000013          	addi	x0,x0,0
    b234:	00000013          	addi	x0,x0,0
    b238:	00000013          	addi	x0,x0,0
    b23c:	00000013          	addi	x0,x0,0
    b240:	1400006f          	jal	x0,b380 <trap_field_print>

0000b244 <trap_field_tval>:
    b244:	00000013          	addi	x0,x0,0
    b248:	00000013          	addi	x0,x0,0
    b24c:	00000013          	addi	x0,x0,0
    b250:	00000013          	addi	x0,x0,0
    b254:	00000013          	addi	x0,x0,0
    b258:	00000013          	addi	x0,x0,0
    b25c:	00000013          	addi	x0,x0,0
    b260:	00008517          	auipc	x10,0x8
    b264:	cb650513          	addi	x10,x10,-842 # 12f16 <trap_diag_field_tval_str>
    b268:	00000013          	addi	x0,x0,0
    b26c:	00000013          	addi	x0,x0,0
    b270:	00000013          	addi	x0,x0,0
    b274:	00000013          	addi	x0,x0,0
    b278:	00000013          	addi	x0,x0,0
    b27c:	00000013          	addi	x0,x0,0
    b280:	1000006f          	jal	x0,b380 <trap_field_print>

0000b284 <trap_field_ip>:
    b284:	00000013          	addi	x0,x0,0
    b288:	00000013          	addi	x0,x0,0
    b28c:	00000013          	addi	x0,x0,0
    b290:	00000013          	addi	x0,x0,0
    b294:	00000013          	addi	x0,x0,0
    b298:	00000013          	addi	x0,x0,0
    b29c:	00000013          	addi	x0,x0,0
    b2a0:	00008517          	auipc	x10,0x8
    b2a4:	c9550513          	addi	x10,x10,-875 # 12f35 <trap_diag_field_ip_str>
    b2a8:	00000013          	addi	x0,x0,0
    b2ac:	00000013          	addi	x0,x0,0
    b2b0:	00000013          	addi	x0,x0,0
    b2b4:	00000013          	addi	x0,x0,0
    b2b8:	00000013          	addi	x0,x0,0
    b2bc:	00000013          	addi	x0,x0,0
    b2c0:	0c00006f          	jal	x0,b380 <trap_field_print>

0000b2c4 <trap_field_tval2>:
    b2c4:	00000013          	addi	x0,x0,0
    b2c8:	00000013          	addi	x0,x0,0
    b2cc:	00000013          	addi	x0,x0,0
    b2d0:	00000013          	addi	x0,x0,0
    b2d4:	00000013          	addi	x0,x0,0
    b2d8:	00000013          	addi	x0,x0,0
    b2dc:	00000013          	addi	x0,x0,0
    b2e0:	00008517          	auipc	x10,0x8
    b2e4:	c7d50513          	addi	x10,x10,-899 # 12f5d <trap_diag_field_tval2_str>
    b2e8:	00000013          	addi	x0,x0,0
    b2ec:	00000013          	addi	x0,x0,0
    b2f0:	00000013          	addi	x0,x0,0
    b2f4:	00000013          	addi	x0,x0,0
    b2f8:	00000013          	addi	x0,x0,0
    b2fc:	00000013          	addi	x0,x0,0
    b300:	0800006f          	jal	x0,b380 <trap_field_print>

0000b304 <trap_field_tinst>:
    b304:	00000013          	addi	x0,x0,0
    b308:	00000013          	addi	x0,x0,0
    b30c:	00000013          	addi	x0,x0,0
    b310:	00000013          	addi	x0,x0,0
    b314:	00000013          	addi	x0,x0,0
    b318:	00000013          	addi	x0,x0,0
    b31c:	00000013          	addi	x0,x0,0
    b320:	00008517          	auipc	x10,0x8
    b324:	c6950513          	addi	x10,x10,-919 # 12f89 <trap_diag_field_tinst_str>
    b328:	00000013          	addi	x0,x0,0
    b32c:	00000013          	addi	x0,x0,0
    b330:	00000013          	addi	x0,x0,0
    b334:	00000013          	addi	x0,x0,0
    b338:	00000013          	addi	x0,x0,0
    b33c:	00000013          	addi	x0,x0,0
    b340:	0400006f          	jal	x0,b380 <trap_field_print>

0000b344 <trap_field_intid>:
    b344:	00000013          	addi	x0,x0,0
    b348:	00000013          	addi	x0,x0,0
    b34c:	00000013          	addi	x0,x0,0
    b350:	00000013          	addi	x0,x0,0
    b354:	00000013          	addi	x0,x0,0
    b358:	00000013          	addi	x0,x0,0
    b35c:	00000013          	addi	x0,x0,0
    b360:	00008517          	auipc	x10,0x8
    b364:	c5550513          	addi	x10,x10,-939 # 12fb5 <trap_diag_field_intid_str>
    b368:	00000013          	addi	x0,x0,0
    b36c:	00000013          	addi	x0,x0,0
    b370:	00000013          	addi	x0,x0,0
    b374:	00000013          	addi	x0,x0,0
    b378:	00000013          	addi	x0,x0,0
    b37c:	00000013          	addi	x0,x0,0

0000b380 <trap_field_print>:
    b380:	00018097          	auipc	x1,0x18
    b384:	e84080e7          	jalr	x1,-380(x1) # 23204 <rvmodel_io_write_str>
    b388:	00000013          	addi	x0,x0,0
    b38c:	00000013          	addi	x0,x0,0
    b390:	00000013          	addi	x0,x0,0
    b394:	00000013          	addi	x0,x0,0
    b398:	00000013          	addi	x0,x0,0
    b39c:	00000013          	addi	x0,x0,0
    b3a0:	00008517          	auipc	x10,0x8
    b3a4:	c5350513          	addi	x10,x10,-941 # 12ff3 <trap_diag_expected_str>
    b3a8:	00000013          	addi	x0,x0,0
    b3ac:	00000013          	addi	x0,x0,0
    b3b0:	00000013          	addi	x0,x0,0
    b3b4:	00000013          	addi	x0,x0,0
    b3b8:	00000013          	addi	x0,x0,0
    b3bc:	00000013          	addi	x0,x0,0
    b3c0:	00018097          	auipc	x1,0x18
    b3c4:	e44080e7          	jalr	x1,-444(x1) # 23204 <rvmodel_io_write_str>
    b3c8:	00006517          	auipc	x10,0x6
    b3cc:	5f852503          	lw	x10,1528(x10) # 119c0 <trap_diag_expected_value>
    b3d0:	02000593          	addi	x11,x0,32
    b3d4:	664000ef          	jal	x1,ba38 <failedtest_hex_to_str>
    b3d8:	00000013          	addi	x0,x0,0
    b3dc:	00000013          	addi	x0,x0,0
    b3e0:	00006517          	auipc	x10,0x6
    b3e4:	62850513          	addi	x10,x10,1576 # 11a08 <ascii_buffer>
    b3e8:	00000013          	addi	x0,x0,0
    b3ec:	00000013          	addi	x0,x0,0
    b3f0:	00000013          	addi	x0,x0,0
    b3f4:	00000013          	addi	x0,x0,0
    b3f8:	00000013          	addi	x0,x0,0
    b3fc:	00000013          	addi	x0,x0,0
    b400:	00018097          	auipc	x1,0x18
    b404:	e04080e7          	jalr	x1,-508(x1) # 23204 <rvmodel_io_write_str>
    b408:	00000013          	addi	x0,x0,0
    b40c:	00000013          	addi	x0,x0,0
    b410:	00000013          	addi	x0,x0,0
    b414:	00000013          	addi	x0,x0,0
    b418:	00000013          	addi	x0,x0,0
    b41c:	00000013          	addi	x0,x0,0
    b420:	00008517          	auipc	x10,0x8
    b424:	bea50513          	addi	x10,x10,-1046 # 1300a <trap_diag_actual_str>
    b428:	00000013          	addi	x0,x0,0
    b42c:	00000013          	addi	x0,x0,0
    b430:	00000013          	addi	x0,x0,0
    b434:	00000013          	addi	x0,x0,0
    b438:	00000013          	addi	x0,x0,0
    b43c:	00000013          	addi	x0,x0,0
    b440:	00018097          	auipc	x1,0x18
    b444:	dc4080e7          	jalr	x1,-572(x1) # 23204 <rvmodel_io_write_str>
    b448:	00006517          	auipc	x10,0x6
    b44c:	57052503          	lw	x10,1392(x10) # 119b8 <trap_diag_actual_value>
    b450:	02000593          	addi	x11,x0,32
    b454:	5e4000ef          	jal	x1,ba38 <failedtest_hex_to_str>
    b458:	00000013          	addi	x0,x0,0
    b45c:	00000013          	addi	x0,x0,0
    b460:	00006517          	auipc	x10,0x6
    b464:	5a850513          	addi	x10,x10,1448 # 11a08 <ascii_buffer>
    b468:	00000013          	addi	x0,x0,0
    b46c:	00000013          	addi	x0,x0,0
    b470:	00000013          	addi	x0,x0,0
    b474:	00000013          	addi	x0,x0,0
    b478:	00000013          	addi	x0,x0,0
    b47c:	00000013          	addi	x0,x0,0
    b480:	00018097          	auipc	x1,0x18
    b484:	d84080e7          	jalr	x1,-636(x1) # 23204 <rvmodel_io_write_str>
    b488:	00006517          	auipc	x10,0x6
    b48c:	52852503          	lw	x10,1320(x10) # 119b0 <trap_diag_subtype>
    b490:	00200593          	addi	x11,x0,2
    b494:	08b51463          	bne	x10,x11,b51c <trap_field_not_cause>
    b498:	00000013          	addi	x0,x0,0
    b49c:	00000013          	addi	x0,x0,0
    b4a0:	00008517          	auipc	x10,0x8
    b4a4:	b8150513          	addi	x10,x10,-1151 # 13021 <trap_diag_expected_cause_name_str>
    b4a8:	00000013          	addi	x0,x0,0
    b4ac:	00000013          	addi	x0,x0,0
    b4b0:	00000013          	addi	x0,x0,0
    b4b4:	00000013          	addi	x0,x0,0
    b4b8:	00000013          	addi	x0,x0,0
    b4bc:	00000013          	addi	x0,x0,0
    b4c0:	00018097          	auipc	x1,0x18
    b4c4:	d44080e7          	jalr	x1,-700(x1) # 23204 <rvmodel_io_write_str>
    b4c8:	00006517          	auipc	x10,0x6
    b4cc:	4f852503          	lw	x10,1272(x10) # 119c0 <trap_diag_expected_value>
    b4d0:	284000ef          	jal	x1,b754 <trap_cause_to_str>
    b4d4:	00018097          	auipc	x1,0x18
    b4d8:	d30080e7          	jalr	x1,-720(x1) # 23204 <rvmodel_io_write_str>
    b4dc:	00000013          	addi	x0,x0,0
    b4e0:	00008517          	auipc	x10,0x8
    b4e4:	b5850513          	addi	x10,x10,-1192 # 13038 <trap_diag_actual_cause_name_str>
    b4e8:	00000013          	addi	x0,x0,0
    b4ec:	00000013          	addi	x0,x0,0
    b4f0:	00000013          	addi	x0,x0,0
    b4f4:	00000013          	addi	x0,x0,0
    b4f8:	00000013          	addi	x0,x0,0
    b4fc:	00000013          	addi	x0,x0,0
    b500:	00018097          	auipc	x1,0x18
    b504:	d04080e7          	jalr	x1,-764(x1) # 23204 <rvmodel_io_write_str>
    b508:	00006517          	auipc	x10,0x6
    b50c:	4b052503          	lw	x10,1200(x10) # 119b8 <trap_diag_actual_value>
    b510:	244000ef          	jal	x1,b754 <trap_cause_to_str>
    b514:	00018097          	auipc	x1,0x18
    b518:	cf0080e7          	jalr	x1,-784(x1) # 23204 <rvmodel_io_write_str>

0000b51c <trap_field_not_cause>:
    b51c:	00000097          	auipc	x1,0x0
    b520:	314080e7          	jalr	x1,788(x1) # b830 <failedtest_print_csr_context>
    b524:	00006517          	auipc	x10,0x6
    b528:	48c52503          	lw	x10,1164(x10) # 119b0 <trap_diag_subtype>
    b52c:	00100593          	addi	x11,x0,1
    b530:	02b51e63          	bne	x10,x11,b56c <trap_field_not_cause+0x50>
    b534:	00000013          	addi	x0,x0,0
    b538:	00000013          	addi	x0,x0,0
    b53c:	00000013          	addi	x0,x0,0
    b540:	00008517          	auipc	x10,0x8
    b544:	b6e50513          	addi	x10,x10,-1170 # 130ae <trap_diag_hint_vect_str>
    b548:	00000013          	addi	x0,x0,0
    b54c:	00000013          	addi	x0,x0,0
    b550:	00000013          	addi	x0,x0,0
    b554:	00000013          	addi	x0,x0,0
    b558:	00000013          	addi	x0,x0,0
    b55c:	00000013          	addi	x0,x0,0
    b560:	00018097          	auipc	x1,0x18
    b564:	ca4080e7          	jalr	x1,-860(x1) # 23204 <rvmodel_io_write_str>
    b568:	27c0006f          	jal	x0,b7e4 <failedtest_report_end>
    b56c:	00200593          	addi	x11,x0,2
    b570:	02b51e63          	bne	x10,x11,b5ac <trap_field_not_cause+0x90>
    b574:	00000013          	addi	x0,x0,0
    b578:	00000013          	addi	x0,x0,0
    b57c:	00000013          	addi	x0,x0,0
    b580:	00008517          	auipc	x10,0x8
    b584:	c0450513          	addi	x10,x10,-1020 # 13184 <trap_diag_hint_cause_str>
    b588:	00000013          	addi	x0,x0,0
    b58c:	00000013          	addi	x0,x0,0
    b590:	00000013          	addi	x0,x0,0
    b594:	00000013          	addi	x0,x0,0
    b598:	00000013          	addi	x0,x0,0
    b59c:	00000013          	addi	x0,x0,0
    b5a0:	00018097          	auipc	x1,0x18
    b5a4:	c64080e7          	jalr	x1,-924(x1) # 23204 <rvmodel_io_write_str>
    b5a8:	23c0006f          	jal	x0,b7e4 <failedtest_report_end>
    b5ac:	00300593          	addi	x11,x0,3
    b5b0:	02b51e63          	bne	x10,x11,b5ec <trap_field_not_cause+0xd0>
    b5b4:	00000013          	addi	x0,x0,0
    b5b8:	00000013          	addi	x0,x0,0
    b5bc:	00000013          	addi	x0,x0,0
    b5c0:	00008517          	auipc	x10,0x8
    b5c4:	cb750513          	addi	x10,x10,-841 # 13277 <trap_diag_hint_epc_str>
    b5c8:	00000013          	addi	x0,x0,0
    b5cc:	00000013          	addi	x0,x0,0
    b5d0:	00000013          	addi	x0,x0,0
    b5d4:	00000013          	addi	x0,x0,0
    b5d8:	00000013          	addi	x0,x0,0
    b5dc:	00000013          	addi	x0,x0,0
    b5e0:	00018097          	auipc	x1,0x18
    b5e4:	c24080e7          	jalr	x1,-988(x1) # 23204 <rvmodel_io_write_str>
    b5e8:	1fc0006f          	jal	x0,b7e4 <failedtest_report_end>
    b5ec:	00400593          	addi	x11,x0,4
    b5f0:	02b51e63          	bne	x10,x11,b62c <trap_field_not_cause+0x110>
    b5f4:	00000013          	addi	x0,x0,0
    b5f8:	00000013          	addi	x0,x0,0
    b5fc:	00000013          	addi	x0,x0,0
    b600:	00008517          	auipc	x10,0x8
    b604:	d7250513          	addi	x10,x10,-654 # 13372 <trap_diag_hint_tval_str>
    b608:	00000013          	addi	x0,x0,0
    b60c:	00000013          	addi	x0,x0,0
    b610:	00000013          	addi	x0,x0,0
    b614:	00000013          	addi	x0,x0,0
    b618:	00000013          	addi	x0,x0,0
    b61c:	00000013          	addi	x0,x0,0
    b620:	00018097          	auipc	x1,0x18
    b624:	be4080e7          	jalr	x1,-1052(x1) # 23204 <rvmodel_io_write_str>
    b628:	1bc0006f          	jal	x0,b7e4 <failedtest_report_end>
    b62c:	00500593          	addi	x11,x0,5
    b630:	02b51e63          	bne	x10,x11,b66c <trap_field_not_cause+0x150>
    b634:	00000013          	addi	x0,x0,0
    b638:	00000013          	addi	x0,x0,0
    b63c:	00000013          	addi	x0,x0,0
    b640:	00008517          	auipc	x10,0x8
    b644:	e1950513          	addi	x10,x10,-487 # 13459 <trap_diag_hint_ip_str>
    b648:	00000013          	addi	x0,x0,0
    b64c:	00000013          	addi	x0,x0,0
    b650:	00000013          	addi	x0,x0,0
    b654:	00000013          	addi	x0,x0,0
    b658:	00000013          	addi	x0,x0,0
    b65c:	00000013          	addi	x0,x0,0
    b660:	00018097          	auipc	x1,0x18
    b664:	ba4080e7          	jalr	x1,-1116(x1) # 23204 <rvmodel_io_write_str>
    b668:	17c0006f          	jal	x0,b7e4 <failedtest_report_end>
    b66c:	1780006f          	jal	x0,b7e4 <failedtest_report_end>

0000b670 <trap_report_generic>:
    b670:	00000013          	addi	x0,x0,0
    b674:	00000013          	addi	x0,x0,0
    b678:	00000013          	addi	x0,x0,0
    b67c:	00000013          	addi	x0,x0,0
    b680:	00008517          	auipc	x10,0x8
    b684:	9e650513          	addi	x10,x10,-1562 # 13066 <trap_diag_generic_str>
    b688:	00000013          	addi	x0,x0,0
    b68c:	00000013          	addi	x0,x0,0
    b690:	00000013          	addi	x0,x0,0
    b694:	00000013          	addi	x0,x0,0
    b698:	00000013          	addi	x0,x0,0
    b69c:	00000013          	addi	x0,x0,0
    b6a0:	00018097          	auipc	x1,0x18
    b6a4:	b64080e7          	jalr	x1,-1180(x1) # 23204 <rvmodel_io_write_str>
    b6a8:	00006617          	auipc	x12,0x6
    b6ac:	34062603          	lw	x12,832(x12) # 119e8 <saved_mepc>
    b6b0:	00000013          	addi	x0,x0,0
    b6b4:	00000013          	addi	x0,x0,0
    b6b8:	00000013          	addi	x0,x0,0
    b6bc:	00000013          	addi	x0,x0,0
    b6c0:	00007517          	auipc	x10,0x7
    b6c4:	98950513          	addi	x10,x10,-1655 # 12049 <xepcinstrstr>
    b6c8:	00000013          	addi	x0,x0,0
    b6cc:	00000013          	addi	x0,x0,0
    b6d0:	00000013          	addi	x0,x0,0
    b6d4:	00000013          	addi	x0,x0,0
    b6d8:	00000013          	addi	x0,x0,0
    b6dc:	00000013          	addi	x0,x0,0
    b6e0:	00018097          	auipc	x1,0x18
    b6e4:	b24080e7          	jalr	x1,-1244(x1) # 23204 <rvmodel_io_write_str>
    b6e8:	00065503          	lhu	x10,0(x12)
    b6ec:	01000593          	addi	x11,x0,16
    b6f0:	00357413          	andi	x8,x10,3
    b6f4:	00300493          	addi	x9,x0,3
    b6f8:	00941a63          	bne	x8,x9,b70c <trap_report_generic+0x9c>
    b6fc:	00265403          	lhu	x8,2(x12)
    b700:	01041413          	slli	x8,x8,0x10
    b704:	00856533          	or	x10,x10,x8
    b708:	02000593          	addi	x11,x0,32
    b70c:	32c000ef          	jal	x1,ba38 <failedtest_hex_to_str>
    b710:	00000013          	addi	x0,x0,0
    b714:	00000013          	addi	x0,x0,0
    b718:	00000013          	addi	x0,x0,0
    b71c:	00000013          	addi	x0,x0,0
    b720:	00006517          	auipc	x10,0x6
    b724:	2e850513          	addi	x10,x10,744 # 11a08 <ascii_buffer>
    b728:	00000013          	addi	x0,x0,0
    b72c:	00000013          	addi	x0,x0,0
    b730:	00000013          	addi	x0,x0,0
    b734:	00000013          	addi	x0,x0,0
    b738:	00000013          	addi	x0,x0,0
    b73c:	00000013          	addi	x0,x0,0
    b740:	00018097          	auipc	x1,0x18
    b744:	ac4080e7          	jalr	x1,-1340(x1) # 23204 <rvmodel_io_write_str>
    b748:	00000097          	auipc	x1,0x0
    b74c:	0e8080e7          	jalr	x1,232(x1) # b830 <failedtest_print_csr_context>
    b750:	0940006f          	jal	x0,b7e4 <failedtest_report_end>

0000b754 <trap_cause_to_str>:
    b754:	02054263          	blt	x10,x0,b778 <trap_cause_interrupt>

0000b758 <trap_cause_exception>:
    b758:	01800593          	addi	x11,x0,24
    b75c:	04b55463          	bge	x10,x11,b7a4 <trap_cause_unknown>
    b760:	00006597          	auipc	x11,0x6
    b764:	2d058593          	addi	x11,x11,720 # 11a30 <end_failure_scratch>
    b768:	00251613          	slli	x12,x10,0x2
    b76c:	00c585b3          	add	x11,x11,x12
    b770:	0005a503          	lw	x10,0(x11)
    b774:	00008067          	jalr	x0,0(x1)

0000b778 <trap_cause_interrupt>:
    b778:	00100593          	addi	x11,x0,1
    b77c:	01f59593          	slli	x11,x11,0x1f
    b780:	00b54533          	xor	x10,x10,x11
    b784:	01000593          	addi	x11,x0,16
    b788:	00b55e63          	bge	x10,x11,b7a4 <trap_cause_unknown>
    b78c:	00006597          	auipc	x11,0x6
    b790:	30458593          	addi	x11,x11,772 # 11a90 <trap_int_name_tbl>
    b794:	00251613          	slli	x12,x10,0x2
    b798:	00c585b3          	add	x11,x11,x12
    b79c:	0005a503          	lw	x10,0(x11)
    b7a0:	00008067          	jalr	x0,0(x1)

0000b7a4 <trap_cause_unknown>:
    b7a4:	00000013          	addi	x0,x0,0
    b7a8:	00000013          	addi	x0,x0,0
    b7ac:	00000013          	addi	x0,x0,0
    b7b0:	00000013          	addi	x0,x0,0
    b7b4:	00000013          	addi	x0,x0,0
    b7b8:	00000013          	addi	x0,x0,0
    b7bc:	00000013          	addi	x0,x0,0
    b7c0:	00006517          	auipc	x10,0x6
    b7c4:	70e50513          	addi	x10,x10,1806 # 11ece <trap_cause_unknown_str>
    b7c8:	00000013          	addi	x0,x0,0
    b7cc:	00000013          	addi	x0,x0,0
    b7d0:	00000013          	addi	x0,x0,0
    b7d4:	00000013          	addi	x0,x0,0
    b7d8:	00000013          	addi	x0,x0,0
    b7dc:	00000013          	addi	x0,x0,0
    b7e0:	00008067          	jalr	x0,0(x1)

0000b7e4 <failedtest_report_end>:
    b7e4:	00000013          	addi	x0,x0,0
    b7e8:	00000013          	addi	x0,x0,0
    b7ec:	00000013          	addi	x0,x0,0
    b7f0:	00000013          	addi	x0,x0,0
    b7f4:	00000013          	addi	x0,x0,0
    b7f8:	00000013          	addi	x0,x0,0
    b7fc:	00000013          	addi	x0,x0,0
    b800:	00007517          	auipc	x10,0x7
    b804:	29150513          	addi	x10,x10,657 # 12a91 <endstr>
    b808:	00000013          	addi	x0,x0,0
    b80c:	00000013          	addi	x0,x0,0
    b810:	00000013          	addi	x0,x0,0
    b814:	00000013          	addi	x0,x0,0
    b818:	00000013          	addi	x0,x0,0
    b81c:	00000013          	addi	x0,x0,0
    b820:	00018097          	auipc	x1,0x18
    b824:	9e4080e7          	jalr	x1,-1564(x1) # 23204 <rvmodel_io_write_str>

0000b828 <failedtest_terminate>:
    b828:	00018097          	auipc	x1,0x18
    b82c:	9ec080e7          	jalr	x1,-1556(x1) # 23214 <rvmodel_halt_fail>

0000b830 <failedtest_print_csr_context>:
    b830:	00006617          	auipc	x12,0x6
    b834:	1b060613          	addi	x12,x12,432 # 119e0 <csr_context_ret_addr>
    b838:	00162023          	sw	x1,0(x12)
    b83c:	00000013          	addi	x0,x0,0
    b840:	00007517          	auipc	x10,0x7
    b844:	82a50513          	addi	x10,x10,-2006 # 1206a <mepcstr>
    b848:	00000013          	addi	x0,x0,0
    b84c:	00000013          	addi	x0,x0,0
    b850:	00000013          	addi	x0,x0,0
    b854:	00000013          	addi	x0,x0,0
    b858:	00000013          	addi	x0,x0,0
    b85c:	00000013          	addi	x0,x0,0
    b860:	00018097          	auipc	x1,0x18
    b864:	9a4080e7          	jalr	x1,-1628(x1) # 23204 <rvmodel_io_write_str>
    b868:	00006517          	auipc	x10,0x6
    b86c:	18052503          	lw	x10,384(x10) # 119e8 <saved_mepc>
    b870:	02000593          	addi	x11,x0,32
    b874:	1c4000ef          	jal	x1,ba38 <failedtest_hex_to_str>
    b878:	00000013          	addi	x0,x0,0
    b87c:	00000013          	addi	x0,x0,0
    b880:	00006517          	auipc	x10,0x6
    b884:	18850513          	addi	x10,x10,392 # 11a08 <ascii_buffer>
    b888:	00000013          	addi	x0,x0,0
    b88c:	00000013          	addi	x0,x0,0
    b890:	00000013          	addi	x0,x0,0
    b894:	00000013          	addi	x0,x0,0
    b898:	00000013          	addi	x0,x0,0
    b89c:	00000013          	addi	x0,x0,0
    b8a0:	00018097          	auipc	x1,0x18
    b8a4:	964080e7          	jalr	x1,-1692(x1) # 23204 <rvmodel_io_write_str>
    b8a8:	00000013          	addi	x0,x0,0
    b8ac:	00000013          	addi	x0,x0,0
    b8b0:	00000013          	addi	x0,x0,0
    b8b4:	00000013          	addi	x0,x0,0
    b8b8:	00000013          	addi	x0,x0,0
    b8bc:	00000013          	addi	x0,x0,0
    b8c0:	00006517          	auipc	x10,0x6
    b8c4:	7ba50513          	addi	x10,x10,1978 # 1207a <mcausestr>
    b8c8:	00000013          	addi	x0,x0,0
    b8cc:	00000013          	addi	x0,x0,0
    b8d0:	00000013          	addi	x0,x0,0
    b8d4:	00000013          	addi	x0,x0,0
    b8d8:	00000013          	addi	x0,x0,0
    b8dc:	00000013          	addi	x0,x0,0
    b8e0:	00018097          	auipc	x1,0x18
    b8e4:	924080e7          	jalr	x1,-1756(x1) # 23204 <rvmodel_io_write_str>
    b8e8:	00006517          	auipc	x10,0x6
    b8ec:	10852503          	lw	x10,264(x10) # 119f0 <saved_mcause>
    b8f0:	02000593          	addi	x11,x0,32
    b8f4:	144000ef          	jal	x1,ba38 <failedtest_hex_to_str>
    b8f8:	00000013          	addi	x0,x0,0
    b8fc:	00000013          	addi	x0,x0,0
    b900:	00006517          	auipc	x10,0x6
    b904:	10850513          	addi	x10,x10,264 # 11a08 <ascii_buffer>
    b908:	00000013          	addi	x0,x0,0
    b90c:	00000013          	addi	x0,x0,0
    b910:	00000013          	addi	x0,x0,0
    b914:	00000013          	addi	x0,x0,0
    b918:	00000013          	addi	x0,x0,0
    b91c:	00000013          	addi	x0,x0,0
    b920:	00018097          	auipc	x1,0x18
    b924:	8e4080e7          	jalr	x1,-1820(x1) # 23204 <rvmodel_io_write_str>
    b928:	00000013          	addi	x0,x0,0
    b92c:	00000013          	addi	x0,x0,0
    b930:	00000013          	addi	x0,x0,0
    b934:	00000013          	addi	x0,x0,0
    b938:	00000013          	addi	x0,x0,0
    b93c:	00000013          	addi	x0,x0,0
    b940:	00006517          	auipc	x10,0x6
    b944:	74a50513          	addi	x10,x10,1866 # 1208a <mtvalstr>
    b948:	00000013          	addi	x0,x0,0
    b94c:	00000013          	addi	x0,x0,0
    b950:	00000013          	addi	x0,x0,0
    b954:	00000013          	addi	x0,x0,0
    b958:	00000013          	addi	x0,x0,0
    b95c:	00000013          	addi	x0,x0,0
    b960:	00018097          	auipc	x1,0x18
    b964:	8a4080e7          	jalr	x1,-1884(x1) # 23204 <rvmodel_io_write_str>
    b968:	00006517          	auipc	x10,0x6
    b96c:	09052503          	lw	x10,144(x10) # 119f8 <saved_mtval>
    b970:	02000593          	addi	x11,x0,32
    b974:	0c4000ef          	jal	x1,ba38 <failedtest_hex_to_str>
    b978:	00000013          	addi	x0,x0,0
    b97c:	00000013          	addi	x0,x0,0
    b980:	00006517          	auipc	x10,0x6
    b984:	08850513          	addi	x10,x10,136 # 11a08 <ascii_buffer>
    b988:	00000013          	addi	x0,x0,0
    b98c:	00000013          	addi	x0,x0,0
    b990:	00000013          	addi	x0,x0,0
    b994:	00000013          	addi	x0,x0,0
    b998:	00000013          	addi	x0,x0,0
    b99c:	00000013          	addi	x0,x0,0
    b9a0:	00018097          	auipc	x1,0x18
    b9a4:	864080e7          	jalr	x1,-1948(x1) # 23204 <rvmodel_io_write_str>
    b9a8:	00000013          	addi	x0,x0,0
    b9ac:	00000013          	addi	x0,x0,0
    b9b0:	00000013          	addi	x0,x0,0
    b9b4:	00000013          	addi	x0,x0,0
    b9b8:	00000013          	addi	x0,x0,0
    b9bc:	00000013          	addi	x0,x0,0
    b9c0:	00006517          	auipc	x10,0x6
    b9c4:	6da50513          	addi	x10,x10,1754 # 1209a <mstatusstr>
    b9c8:	00000013          	addi	x0,x0,0
    b9cc:	00000013          	addi	x0,x0,0
    b9d0:	00000013          	addi	x0,x0,0
    b9d4:	00000013          	addi	x0,x0,0
    b9d8:	00000013          	addi	x0,x0,0
    b9dc:	00000013          	addi	x0,x0,0
    b9e0:	00018097          	auipc	x1,0x18
    b9e4:	824080e7          	jalr	x1,-2012(x1) # 23204 <rvmodel_io_write_str>
    b9e8:	00006517          	auipc	x10,0x6
    b9ec:	01852503          	lw	x10,24(x10) # 11a00 <saved_mstatus>
    b9f0:	02000593          	addi	x11,x0,32
    b9f4:	044000ef          	jal	x1,ba38 <failedtest_hex_to_str>
    b9f8:	00000013          	addi	x0,x0,0
    b9fc:	00000013          	addi	x0,x0,0
    ba00:	00006517          	auipc	x10,0x6
    ba04:	00850513          	addi	x10,x10,8 # 11a08 <ascii_buffer>
    ba08:	00000013          	addi	x0,x0,0
    ba0c:	00000013          	addi	x0,x0,0
    ba10:	00000013          	addi	x0,x0,0
    ba14:	00000013          	addi	x0,x0,0
    ba18:	00000013          	addi	x0,x0,0
    ba1c:	00000013          	addi	x0,x0,0
    ba20:	00017097          	auipc	x1,0x17
    ba24:	7e4080e7          	jalr	x1,2020(x1) # 23204 <rvmodel_io_write_str>
    ba28:	00006617          	auipc	x12,0x6
    ba2c:	fb860613          	addi	x12,x12,-72 # 119e0 <csr_context_ret_addr>
    ba30:	00062083          	lw	x1,0(x12)
    ba34:	00008067          	jalr	x0,0(x1)

0000ba38 <failedtest_hex_to_str>:
    ba38:	00000013          	addi	x0,x0,0
    ba3c:	00000013          	addi	x0,x0,0
    ba40:	00006617          	auipc	x12,0x6
    ba44:	fc860613          	addi	x12,x12,-56 # 11a08 <ascii_buffer>
    ba48:	00000013          	addi	x0,x0,0
    ba4c:	00000013          	addi	x0,x0,0
    ba50:	00000013          	addi	x0,x0,0
    ba54:	00000013          	addi	x0,x0,0
    ba58:	00000013          	addi	x0,x0,0
    ba5c:	00000013          	addi	x0,x0,0
    ba60:	03000693          	addi	x13,x0,48
    ba64:	00d60023          	sb	x13,0(x12)
    ba68:	07800693          	addi	x13,x0,120
    ba6c:	00d600a3          	sb	x13,1(x12)
    ba70:	00260613          	addi	x12,x12,2
    ba74:	00058693          	addi	x13,x11,0

0000ba78 <failedtest_hex_to_str_loop>:
    ba78:	ffc68693          	addi	x13,x13,-4
    ba7c:	00d55733          	srl	x14,x10,x13
    ba80:	00f77713          	andi	x14,x14,15
    ba84:	00a00793          	addi	x15,x0,10
    ba88:	00f74663          	blt	x14,x15,ba94 <failedtest_hex_to_str_digit>
    ba8c:	05770713          	addi	x14,x14,87
    ba90:	0080006f          	jal	x0,ba98 <failedtest_hex_to_str_write>

0000ba94 <failedtest_hex_to_str_digit>:
    ba94:	03070713          	addi	x14,x14,48

0000ba98 <failedtest_hex_to_str_write>:
    ba98:	00e60023          	sb	x14,0(x12)
    ba9c:	00160613          	addi	x12,x12,1
    baa0:	fc069ce3          	bne	x13,x0,ba78 <failedtest_hex_to_str_loop>
    baa4:	00a00693          	addi	x13,x0,10
    baa8:	00d60023          	sb	x13,0(x12)
    baac:	000600a3          	sb	x0,1(x12)
    bab0:	00008067          	jalr	x0,0(x1)

0000bab4 <failedtest_dec_to_str>:
    bab4:	00a00693          	addi	x13,x0,10
    bab8:	02d54663          	blt	x10,x13,bae4 <failedtest_dec_to_str+0x30>
    babc:	ff650513          	addi	x10,x10,-10
    bac0:	03100713          	addi	x14,x0,49
    bac4:	00d54c63          	blt	x10,x13,badc <failedtest_dec_to_str+0x28>
    bac8:	ff650513          	addi	x10,x10,-10
    bacc:	03200713          	addi	x14,x0,50
    bad0:	00d54663          	blt	x10,x13,badc <failedtest_dec_to_str+0x28>
    bad4:	ff650513          	addi	x10,x10,-10
    bad8:	03300713          	addi	x14,x0,51
    badc:	00e60023          	sb	x14,0(x12)
    bae0:	00160613          	addi	x12,x12,1
    bae4:	03050513          	addi	x10,x10,48
    bae8:	00a60023          	sb	x10,0(x12)
    baec:	00a00693          	addi	x13,x0,10
    baf0:	00d600a3          	sb	x13,1(x12)
    baf4:	00060123          	sb	x0,2(x12)
    baf8:	00008067          	jalr	x0,0(x1)
    bafc:	00000013          	addi	x0,x0,0
    bb00:	00000013          	addi	x0,x0,0
    bb04:	00000013          	addi	x0,x0,0
    bb08:	00000013          	addi	x0,x0,0
    bb0c:	00000013          	addi	x0,x0,0
    bb10:	00000013          	addi	x0,x0,0
    bb14:	00000013          	addi	x0,x0,0
    bb18:	00000013          	addi	x0,x0,0
    bb1c:	00000013          	addi	x0,x0,0
    bb20:	00000013          	addi	x0,x0,0
    bb24:	00000013          	addi	x0,x0,0
    bb28:	00000013          	addi	x0,x0,0
    bb2c:	00000013          	addi	x0,x0,0
    bb30:	00000013          	addi	x0,x0,0
    bb34:	00000013          	addi	x0,x0,0
    bb38:	00000013          	addi	x0,x0,0
    bb3c:	00000013          	addi	x0,x0,0
    bb40:	00000013          	addi	x0,x0,0
    bb44:	00000013          	addi	x0,x0,0
    bb48:	00000013          	addi	x0,x0,0
    bb4c:	00000013          	addi	x0,x0,0
    bb50:	00000013          	addi	x0,x0,0
    bb54:	00000013          	addi	x0,x0,0
    bb58:	00000013          	addi	x0,x0,0
    bb5c:	00000013          	addi	x0,x0,0
    bb60:	00000013          	addi	x0,x0,0
    bb64:	00000013          	addi	x0,x0,0
    bb68:	00000013          	addi	x0,x0,0
    bb6c:	00000013          	addi	x0,x0,0
    bb70:	00000013          	addi	x0,x0,0
    bb74:	00000013          	addi	x0,x0,0
    bb78:	00000013          	addi	x0,x0,0
    bb7c:	00000013          	addi	x0,x0,0
    bb80:	00000013          	addi	x0,x0,0
    bb84:	00000013          	addi	x0,x0,0
    bb88:	00000013          	addi	x0,x0,0
    bb8c:	00000013          	addi	x0,x0,0
    bb90:	00000013          	addi	x0,x0,0
    bb94:	00000013          	addi	x0,x0,0
    bb98:	00000013          	addi	x0,x0,0
    bb9c:	00000013          	addi	x0,x0,0
    bba0:	00000013          	addi	x0,x0,0
    bba4:	00000013          	addi	x0,x0,0
    bba8:	00000013          	addi	x0,x0,0
    bbac:	00000013          	addi	x0,x0,0
    bbb0:	00000013          	addi	x0,x0,0
    bbb4:	00000013          	addi	x0,x0,0
    bbb8:	00000013          	addi	x0,x0,0
    bbbc:	00000013          	addi	x0,x0,0
    bbc0:	00000013          	addi	x0,x0,0
    bbc4:	00000013          	addi	x0,x0,0
    bbc8:	00000013          	addi	x0,x0,0
    bbcc:	00000013          	addi	x0,x0,0
    bbd0:	00000013          	addi	x0,x0,0
    bbd4:	00000013          	addi	x0,x0,0
    bbd8:	00000013          	addi	x0,x0,0
    bbdc:	00000013          	addi	x0,x0,0
    bbe0:	00000013          	addi	x0,x0,0
    bbe4:	00000013          	addi	x0,x0,0
    bbe8:	00000013          	addi	x0,x0,0
    bbec:	00000013          	addi	x0,x0,0
    bbf0:	00000013          	addi	x0,x0,0
    bbf4:	00000013          	addi	x0,x0,0
    bbf8:	00000013          	addi	x0,x0,0
    bbfc:	00000013          	addi	x0,x0,0
    bc00:	00000013          	addi	x0,x0,0
    bc04:	00000013          	addi	x0,x0,0
    bc08:	00000013          	addi	x0,x0,0
    bc0c:	00000013          	addi	x0,x0,0
    bc10:	00000013          	addi	x0,x0,0
    bc14:	00000013          	addi	x0,x0,0
    bc18:	00000013          	addi	x0,x0,0
    bc1c:	00000013          	addi	x0,x0,0
    bc20:	00000013          	addi	x0,x0,0
    bc24:	00000013          	addi	x0,x0,0
    bc28:	00000013          	addi	x0,x0,0
    bc2c:	00000013          	addi	x0,x0,0
    bc30:	00000013          	addi	x0,x0,0
    bc34:	00000013          	addi	x0,x0,0
    bc38:	00000013          	addi	x0,x0,0
    bc3c:	00000013          	addi	x0,x0,0
    bc40:	00000013          	addi	x0,x0,0
    bc44:	00000013          	addi	x0,x0,0
    bc48:	00000013          	addi	x0,x0,0
    bc4c:	00000013          	addi	x0,x0,0
    bc50:	00000013          	addi	x0,x0,0
    bc54:	00000013          	addi	x0,x0,0
    bc58:	00000013          	addi	x0,x0,0
    bc5c:	00000013          	addi	x0,x0,0
    bc60:	00000013          	addi	x0,x0,0
    bc64:	00000013          	addi	x0,x0,0
    bc68:	00000013          	addi	x0,x0,0
    bc6c:	00000013          	addi	x0,x0,0
    bc70:	00000013          	addi	x0,x0,0
    bc74:	00000013          	addi	x0,x0,0
    bc78:	00000013          	addi	x0,x0,0
    bc7c:	00000013          	addi	x0,x0,0
    bc80:	00000013          	addi	x0,x0,0
    bc84:	00000013          	addi	x0,x0,0
    bc88:	00000013          	addi	x0,x0,0
    bc8c:	00000013          	addi	x0,x0,0
    bc90:	00000013          	addi	x0,x0,0
    bc94:	00000013          	addi	x0,x0,0
    bc98:	00000013          	addi	x0,x0,0
    bc9c:	00000013          	addi	x0,x0,0
    bca0:	00000013          	addi	x0,x0,0
    bca4:	00000013          	addi	x0,x0,0
    bca8:	00000013          	addi	x0,x0,0
    bcac:	00000013          	addi	x0,x0,0
    bcb0:	00000013          	addi	x0,x0,0
    bcb4:	00000013          	addi	x0,x0,0
    bcb8:	00000013          	addi	x0,x0,0
    bcbc:	00000013          	addi	x0,x0,0
    bcc0:	00000013          	addi	x0,x0,0
    bcc4:	00000013          	addi	x0,x0,0
    bcc8:	00000013          	addi	x0,x0,0
    bccc:	00000013          	addi	x0,x0,0
    bcd0:	00000013          	addi	x0,x0,0
    bcd4:	00000013          	addi	x0,x0,0
    bcd8:	00000013          	addi	x0,x0,0
    bcdc:	00000013          	addi	x0,x0,0
    bce0:	00000013          	addi	x0,x0,0
    bce4:	00000013          	addi	x0,x0,0
    bce8:	00000013          	addi	x0,x0,0
    bcec:	00000013          	addi	x0,x0,0
    bcf0:	00000013          	addi	x0,x0,0
    bcf4:	00000013          	addi	x0,x0,0
    bcf8:	00000013          	addi	x0,x0,0
    bcfc:	00000013          	addi	x0,x0,0
    bd00:	00000013          	addi	x0,x0,0
    bd04:	00000013          	addi	x0,x0,0
    bd08:	00000013          	addi	x0,x0,0
    bd0c:	00000013          	addi	x0,x0,0
    bd10:	00000013          	addi	x0,x0,0
    bd14:	00000013          	addi	x0,x0,0
    bd18:	00000013          	addi	x0,x0,0
    bd1c:	00000013          	addi	x0,x0,0
    bd20:	00000013          	addi	x0,x0,0
    bd24:	00000013          	addi	x0,x0,0
    bd28:	00000013          	addi	x0,x0,0
    bd2c:	00000013          	addi	x0,x0,0
    bd30:	00000013          	addi	x0,x0,0
    bd34:	00000013          	addi	x0,x0,0
    bd38:	00000013          	addi	x0,x0,0
    bd3c:	00000013          	addi	x0,x0,0
    bd40:	00000013          	addi	x0,x0,0
    bd44:	00000013          	addi	x0,x0,0
    bd48:	00000013          	addi	x0,x0,0
    bd4c:	00000013          	addi	x0,x0,0
    bd50:	00000013          	addi	x0,x0,0
    bd54:	00000013          	addi	x0,x0,0
    bd58:	00000013          	addi	x0,x0,0
    bd5c:	00000013          	addi	x0,x0,0
    bd60:	00000013          	addi	x0,x0,0
    bd64:	00000013          	addi	x0,x0,0
    bd68:	00000013          	addi	x0,x0,0
    bd6c:	00000013          	addi	x0,x0,0
    bd70:	00000013          	addi	x0,x0,0
    bd74:	00000013          	addi	x0,x0,0
    bd78:	00000013          	addi	x0,x0,0
    bd7c:	00000013          	addi	x0,x0,0
    bd80:	00000013          	addi	x0,x0,0
    bd84:	00000013          	addi	x0,x0,0
    bd88:	00000013          	addi	x0,x0,0
    bd8c:	00000013          	addi	x0,x0,0
    bd90:	00000013          	addi	x0,x0,0
    bd94:	00000013          	addi	x0,x0,0
    bd98:	00000013          	addi	x0,x0,0
    bd9c:	00000013          	addi	x0,x0,0
    bda0:	00000013          	addi	x0,x0,0
    bda4:	00000013          	addi	x0,x0,0
    bda8:	00000013          	addi	x0,x0,0
    bdac:	00000013          	addi	x0,x0,0
    bdb0:	00000013          	addi	x0,x0,0
    bdb4:	00000013          	addi	x0,x0,0
    bdb8:	00000013          	addi	x0,x0,0
    bdbc:	00000013          	addi	x0,x0,0
    bdc0:	00000013          	addi	x0,x0,0
    bdc4:	00000013          	addi	x0,x0,0
    bdc8:	00000013          	addi	x0,x0,0
    bdcc:	00000013          	addi	x0,x0,0
    bdd0:	00000013          	addi	x0,x0,0
    bdd4:	00000013          	addi	x0,x0,0
    bdd8:	00000013          	addi	x0,x0,0
    bddc:	00000013          	addi	x0,x0,0
    bde0:	00000013          	addi	x0,x0,0
    bde4:	00000013          	addi	x0,x0,0
    bde8:	00000013          	addi	x0,x0,0
    bdec:	00000013          	addi	x0,x0,0
    bdf0:	00000013          	addi	x0,x0,0
    bdf4:	00000013          	addi	x0,x0,0
    bdf8:	00000013          	addi	x0,x0,0
    bdfc:	00000013          	addi	x0,x0,0
    be00:	00000013          	addi	x0,x0,0
    be04:	00000013          	addi	x0,x0,0
    be08:	00000013          	addi	x0,x0,0
    be0c:	00000013          	addi	x0,x0,0
    be10:	00000013          	addi	x0,x0,0
    be14:	00000013          	addi	x0,x0,0
    be18:	00000013          	addi	x0,x0,0
    be1c:	00000013          	addi	x0,x0,0
    be20:	00000013          	addi	x0,x0,0
    be24:	00000013          	addi	x0,x0,0
    be28:	00000013          	addi	x0,x0,0
    be2c:	00000013          	addi	x0,x0,0
    be30:	00000013          	addi	x0,x0,0
    be34:	00000013          	addi	x0,x0,0
    be38:	00000013          	addi	x0,x0,0
    be3c:	00000013          	addi	x0,x0,0
    be40:	00000013          	addi	x0,x0,0
    be44:	00000013          	addi	x0,x0,0
    be48:	00000013          	addi	x0,x0,0
    be4c:	00000013          	addi	x0,x0,0
    be50:	00000013          	addi	x0,x0,0
    be54:	00000013          	addi	x0,x0,0
    be58:	00000013          	addi	x0,x0,0
    be5c:	00000013          	addi	x0,x0,0
    be60:	00000013          	addi	x0,x0,0
    be64:	00000013          	addi	x0,x0,0
    be68:	00000013          	addi	x0,x0,0
    be6c:	00000013          	addi	x0,x0,0
    be70:	00000013          	addi	x0,x0,0
    be74:	00000013          	addi	x0,x0,0
    be78:	00000013          	addi	x0,x0,0
    be7c:	00000013          	addi	x0,x0,0
    be80:	00000013          	addi	x0,x0,0
    be84:	00000013          	addi	x0,x0,0
    be88:	00000013          	addi	x0,x0,0
    be8c:	00000013          	addi	x0,x0,0
    be90:	00000013          	addi	x0,x0,0
    be94:	00000013          	addi	x0,x0,0
    be98:	00000013          	addi	x0,x0,0
    be9c:	00000013          	addi	x0,x0,0
    bea0:	00000013          	addi	x0,x0,0
    bea4:	00000013          	addi	x0,x0,0
    bea8:	00000013          	addi	x0,x0,0
    beac:	00000013          	addi	x0,x0,0
    beb0:	00000013          	addi	x0,x0,0
    beb4:	00000013          	addi	x0,x0,0
    beb8:	00000013          	addi	x0,x0,0
    bebc:	00000013          	addi	x0,x0,0
    bec0:	00000013          	addi	x0,x0,0
    bec4:	00000013          	addi	x0,x0,0
    bec8:	00000013          	addi	x0,x0,0
    becc:	00000013          	addi	x0,x0,0
    bed0:	00000013          	addi	x0,x0,0
    bed4:	00000013          	addi	x0,x0,0
    bed8:	00000013          	addi	x0,x0,0
    bedc:	00000013          	addi	x0,x0,0
    bee0:	00000013          	addi	x0,x0,0
    bee4:	00000013          	addi	x0,x0,0
    bee8:	00000013          	addi	x0,x0,0
    beec:	00000013          	addi	x0,x0,0
    bef0:	00000013          	addi	x0,x0,0
    bef4:	00000013          	addi	x0,x0,0
    bef8:	00000013          	addi	x0,x0,0
    befc:	00000013          	addi	x0,x0,0
    bf00:	00000013          	addi	x0,x0,0
    bf04:	00000013          	addi	x0,x0,0
    bf08:	00000013          	addi	x0,x0,0
    bf0c:	00000013          	addi	x0,x0,0
    bf10:	00000013          	addi	x0,x0,0
    bf14:	00000013          	addi	x0,x0,0
    bf18:	00000013          	addi	x0,x0,0
    bf1c:	00000013          	addi	x0,x0,0
    bf20:	00000013          	addi	x0,x0,0
    bf24:	00000013          	addi	x0,x0,0
    bf28:	00000013          	addi	x0,x0,0
    bf2c:	00000013          	addi	x0,x0,0
    bf30:	00000013          	addi	x0,x0,0
    bf34:	00000013          	addi	x0,x0,0
    bf38:	00000013          	addi	x0,x0,0
    bf3c:	00000013          	addi	x0,x0,0
    bf40:	00000013          	addi	x0,x0,0
    bf44:	00000013          	addi	x0,x0,0
    bf48:	00000013          	addi	x0,x0,0
    bf4c:	00000013          	addi	x0,x0,0
    bf50:	00000013          	addi	x0,x0,0
    bf54:	00000013          	addi	x0,x0,0
    bf58:	00000013          	addi	x0,x0,0
    bf5c:	00000013          	addi	x0,x0,0
    bf60:	00000013          	addi	x0,x0,0
    bf64:	00000013          	addi	x0,x0,0
    bf68:	00000013          	addi	x0,x0,0
    bf6c:	00000013          	addi	x0,x0,0
    bf70:	00000013          	addi	x0,x0,0
    bf74:	00000013          	addi	x0,x0,0
    bf78:	00000013          	addi	x0,x0,0
    bf7c:	00000013          	addi	x0,x0,0
    bf80:	00000013          	addi	x0,x0,0
    bf84:	00000013          	addi	x0,x0,0
    bf88:	00000013          	addi	x0,x0,0
    bf8c:	00000013          	addi	x0,x0,0
    bf90:	00000013          	addi	x0,x0,0
    bf94:	00000013          	addi	x0,x0,0
    bf98:	00000013          	addi	x0,x0,0
    bf9c:	00000013          	addi	x0,x0,0
    bfa0:	00000013          	addi	x0,x0,0
    bfa4:	00000013          	addi	x0,x0,0
    bfa8:	00000013          	addi	x0,x0,0
    bfac:	00000013          	addi	x0,x0,0
    bfb0:	00000013          	addi	x0,x0,0
    bfb4:	00000013          	addi	x0,x0,0
    bfb8:	00000013          	addi	x0,x0,0
    bfbc:	00000013          	addi	x0,x0,0
    bfc0:	00000013          	addi	x0,x0,0
    bfc4:	00000013          	addi	x0,x0,0
    bfc8:	00000013          	addi	x0,x0,0
    bfcc:	00000013          	addi	x0,x0,0
    bfd0:	00000013          	addi	x0,x0,0
    bfd4:	00000013          	addi	x0,x0,0
    bfd8:	00000013          	addi	x0,x0,0
    bfdc:	00000013          	addi	x0,x0,0
    bfe0:	00000013          	addi	x0,x0,0
    bfe4:	00000013          	addi	x0,x0,0
    bfe8:	00000013          	addi	x0,x0,0
    bfec:	00000013          	addi	x0,x0,0
    bff0:	00000013          	addi	x0,x0,0
    bff4:	00000013          	addi	x0,x0,0
    bff8:	00000013          	addi	x0,x0,0
    bffc:	00000013          	addi	x0,x0,0

Disassembly of section .text.rvmodel:

00023000 <rvmodel_boot>:
   23000:	feedc0b7          	lui	x1,0xfeedc
   23004:	ead08093          	addi	x1,x1,-339 # feedbead <absimm+0x8f911ba4>
   23008:	01909793          	slli	x15,x1,0x19
   2300c:	0070d113          	srli	x2,x1,0x7
   23010:	00f16133          	or	x2,x2,x15
   23014:	01911793          	slli	x15,x2,0x19
   23018:	00715193          	srli	x3,x2,0x7
   2301c:	00f1e1b3          	or	x3,x3,x15
   23020:	01919793          	slli	x15,x3,0x19
   23024:	0071d213          	srli	x4,x3,0x7
   23028:	00f26233          	or	x4,x4,x15
   2302c:	01921793          	slli	x15,x4,0x19
   23030:	00725293          	srli	x5,x4,0x7
   23034:	00f2e2b3          	or	x5,x5,x15
   23038:	01929793          	slli	x15,x5,0x19
   2303c:	0072d313          	srli	x6,x5,0x7
   23040:	00f36333          	or	x6,x6,x15
   23044:	01931793          	slli	x15,x6,0x19
   23048:	00735393          	srli	x7,x6,0x7
   2304c:	00f3e3b3          	or	x7,x7,x15
   23050:	01939793          	slli	x15,x7,0x19
   23054:	0073d413          	srli	x8,x7,0x7
   23058:	00f46433          	or	x8,x8,x15
   2305c:	01941793          	slli	x15,x8,0x19
   23060:	00745493          	srli	x9,x8,0x7
   23064:	00f4e4b3          	or	x9,x9,x15
   23068:	01949793          	slli	x15,x9,0x19
   2306c:	0074d513          	srli	x10,x9,0x7
   23070:	00f56533          	or	x10,x10,x15
   23074:	01951793          	slli	x15,x10,0x19
   23078:	00755593          	srli	x11,x10,0x7
   2307c:	00f5e5b3          	or	x11,x11,x15
   23080:	01959793          	slli	x15,x11,0x19
   23084:	0075d613          	srli	x12,x11,0x7
   23088:	00f66633          	or	x12,x12,x15
   2308c:	01961793          	slli	x15,x12,0x19
   23090:	00765693          	srli	x13,x12,0x7
   23094:	00f6e6b3          	or	x13,x13,x15
   23098:	01969793          	slli	x15,x13,0x19
   2309c:	0076d713          	srli	x14,x13,0x7
   230a0:	00f76733          	or	x14,x14,x15
   230a4:	fab807b7          	lui	x15,0xfab80
   230a8:	bb678793          	addi	x15,x15,-1098 # fab7fbb6 <absimm+0x8b5b58ad>
   230ac:	7d5c0837          	lui	x16,0x7d5c0
   230b0:	ddb80813          	addi	x16,x16,-549 # 7d5bfddb <absimm+0xdff5ad2>
   230b4:	01981793          	slli	x15,x16,0x19
   230b8:	00785893          	srli	x17,x16,0x7
   230bc:	00f8e8b3          	or	x17,x17,x15
   230c0:	01989793          	slli	x15,x17,0x19
   230c4:	0078d913          	srli	x18,x17,0x7
   230c8:	00f96933          	or	x18,x18,x15
   230cc:	01991793          	slli	x15,x18,0x19
   230d0:	00795993          	srli	x19,x18,0x7
   230d4:	00f9e9b3          	or	x19,x19,x15
   230d8:	01999793          	slli	x15,x19,0x19
   230dc:	0079da13          	srli	x20,x19,0x7
   230e0:	00fa6a33          	or	x20,x20,x15
   230e4:	019a1793          	slli	x15,x20,0x19
   230e8:	007a5a93          	srli	x21,x20,0x7
   230ec:	00faeab3          	or	x21,x21,x15
   230f0:	019a9793          	slli	x15,x21,0x19
   230f4:	007adb13          	srli	x22,x21,0x7
   230f8:	00fb6b33          	or	x22,x22,x15
   230fc:	019b1793          	slli	x15,x22,0x19
   23100:	007b5b93          	srli	x23,x22,0x7
   23104:	00fbebb3          	or	x23,x23,x15
   23108:	019b9793          	slli	x15,x23,0x19
   2310c:	007bdc13          	srli	x24,x23,0x7
   23110:	00fc6c33          	or	x24,x24,x15
   23114:	019c1793          	slli	x15,x24,0x19
   23118:	007c5c93          	srli	x25,x24,0x7
   2311c:	00fcecb3          	or	x25,x25,x15
   23120:	019c9793          	slli	x15,x25,0x19
   23124:	007cdd13          	srli	x26,x25,0x7
   23128:	00fd6d33          	or	x26,x26,x15
   2312c:	019d1793          	slli	x15,x26,0x19
   23130:	007d5d93          	srli	x27,x26,0x7
   23134:	00fdedb3          	or	x27,x27,x15
   23138:	019d9793          	slli	x15,x27,0x19
   2313c:	007dde13          	srli	x28,x27,0x7
   23140:	00fe6e33          	or	x28,x28,x15
   23144:	019e1793          	slli	x15,x28,0x19
   23148:	007e5e93          	srli	x29,x28,0x7
   2314c:	00feeeb3          	or	x29,x29,x15
   23150:	019e9793          	slli	x15,x29,0x19
   23154:	007edf13          	srli	x30,x29,0x7
   23158:	00ff6f33          	or	x30,x30,x15
   2315c:	019f1793          	slli	x15,x30,0x19
   23160:	007f5f93          	srli	x31,x30,0x7
   23164:	00ffefb3          	or	x31,x31,x15
   23168:	00000013          	addi	x0,x0,0
   2316c:	00000013          	addi	x0,x0,0
   23170:	00000013          	addi	x0,x0,0
   23174:	00000013          	addi	x0,x0,0
   23178:	00000013          	addi	x0,x0,0
   2317c:	00000013          	addi	x0,x0,0
   23180:	ffff0117          	auipc	x2,0xffff0
   23184:	3c010113          	addi	x2,x2,960 # 13540 <begin_signature>
   23188:	00000013          	addi	x0,x0,0
   2318c:	00000013          	addi	x0,x0,0
   23190:	00000013          	addi	x0,x0,0
   23194:	00000013          	addi	x0,x0,0
   23198:	00000013          	addi	x0,x0,0
   2319c:	00000013          	addi	x0,x0,0

000231a0 <canary_check>:
   231a0:	6f5ca337          	lui	x6,0x6f5ca
   231a4:	30930313          	addi	x6,x6,777 # 6f5ca309 <absimm>
   231a8:	00012203          	lw	x4,0(x2)
   231ac:	00620863          	beq	x4,x6,231bc <canary_check+0x1c>
   231b0:	ecde62ef          	jal	x5,a07c <failedtest_x5_x4>
   231b4:	000231a0          	.word	0x000231a0
   231b8:	00012aba          	.word	0x00012aba
   231bc:	00410113          	addi	x2,x2,4
   231c0:	fffe9197          	auipc	x3,0xfffe9
   231c4:	f5018193          	addi	x3,x3,-176 # c110 <rvtest_data_begin>
   231c8:	00000013          	addi	x0,x0,0
   231cc:	00000013          	addi	x0,x0,0
   231d0:	00000013          	addi	x0,x0,0
   231d4:	00000013          	addi	x0,x0,0
   231d8:	00000013          	addi	x0,x0,0
   231dc:	00000013          	addi	x0,x0,0
   231e0:	fffde317          	auipc	x6,0xfffde
   231e4:	e2030313          	addi	x6,x6,-480 # 1000 <rvtest_code_begin>
   231e8:	00000013          	addi	x0,x0,0
   231ec:	00000013          	addi	x0,x0,0
   231f0:	00000013          	addi	x0,x0,0
   231f4:	00000013          	addi	x0,x0,0
   231f8:	00000013          	addi	x0,x0,0
   231fc:	00000013          	addi	x0,x0,0
   23200:	00030067          	jalr	x0,0(x6)

00023204 <rvmodel_io_write_str>:
   23204:	00008067          	jalr	x0,0(x1)

00023208 <rvmodel_halt_pass>:
   23208:	00000513          	addi	x10,x0,0
   2320c:	00000073          	ecall
   23210:	0000006f          	jal	x0,23210 <rvmodel_halt_pass+0x8>

00023214 <rvmodel_halt_fail>:
   23214:	00100513          	addi	x10,x0,1
   23218:	00000073          	ecall
   2321c:	0000006f          	jal	x0,2321c <rvmodel_halt_fail+0x8>
   23220:	00000013          	addi	x0,x0,0
   23224:	00000013          	addi	x0,x0,0
   23228:	00000013          	addi	x0,x0,0
   2322c:	00000013          	addi	x0,x0,0
   23230:	00000013          	addi	x0,x0,0
   23234:	00000013          	addi	x0,x0,0
   23238:	00000013          	addi	x0,x0,0
   2323c:	00000013          	addi	x0,x0,0
