
/home/dev/github/clones/riscv-arch-test/work/rv32i-core/elfs/rv32i/I/I-bge-00.elf:     file format elf32-littleriscv
/home/dev/github/clones/riscv-arch-test/work/rv32i-core/elfs/rv32i/I/I-bge-00.elf
architecture: riscv:rv32, flags 0x00000112:
EXEC_P, HAS_SYMS, D_PAGED
start address 0x00000000

Program Header:
0x70000003 off    0x00024240 vaddr 0x00000000 paddr 0x00000000 align 2**0
         filesz 0x00000033 memsz 0x00000000 flags r--
    LOAD off    0x00001000 vaddr 0x00000000 paddr 0x00000000 align 2**12
         filesz 0x0000c000 memsz 0x0000c000 flags r-x
    LOAD off    0x0000d000 vaddr 0x0000c000 paddr 0x0000c000 align 2**12
         filesz 0x00017240 memsz 0x00017240 flags rwx

Sections:
Idx Name          Size      VMA       LMA       File off  Algn
  0 .text.init    00000040  00000000  00000000  00001000  2**5
                  CONTENTS, ALLOC, LOAD, READONLY, CODE
  1 .text.rvtest  0000b000  00001000  00001000  00002000  2**12
                  CONTENTS, ALLOC, LOAD, READONLY, CODE
  2 .data         00016640  0000c000  0000c000  0000d000  2**8
                  CONTENTS, ALLOC, LOAD, DATA
  3 .text.rvmodel 00000240  00023000  00023000  00024000  2**5
                  CONTENTS, ALLOC, LOAD, READONLY, CODE
  4 .riscv.attributes 00000033  00000000  00000000  00024240  2**0
                  CONTENTS, READONLY
  5 .debug_line   000034ce  00000000  00000000  00024273  2**0
                  CONTENTS, READONLY, DEBUGGING, OCTETS
  6 .debug_line_str 00000069  00000000  00000000  00027741  2**0
                  CONTENTS, READONLY, DEBUGGING, OCTETS
  7 .debug_info   00000023  00000000  00000000  000277aa  2**0
                  CONTENTS, READONLY, DEBUGGING, OCTETS
  8 .debug_abbrev 00000012  00000000  00000000  000277cd  2**0
                  CONTENTS, READONLY, DEBUGGING, OCTETS
  9 .debug_aranges 00000028  00000000  00000000  000277e0  2**3
                  CONTENTS, READONLY, DEBUGGING, OCTETS
 10 .debug_str    00000075  00000000  00000000  00027808  2**0
                  CONTENTS, READONLY, DEBUGGING, OCTETS
 11 .debug_rnglists 0000001b  00000000  00000000  0002787d  2**0
                  CONTENTS, READONLY, DEBUGGING, OCTETS
SYMBOL TABLE:
00000000 l    d  .text.init	00000000 .text.init
00001000 l    d  .text.rvtest	00000000 .text.rvtest
0000c000 l    d  .data	00000000 .data
00023000 l    d  .text.rvmodel	00000000 .text.rvmodel
00000000 l    d  .riscv.attributes	00000000 .riscv.attributes
00000000 l    d  .debug_line	00000000 .debug_line
00000000 l    d  .debug_line_str	00000000 .debug_line_str
00000000 l    d  .debug_info	00000000 .debug_info
00000000 l    d  .debug_abbrev	00000000 .debug_abbrev
00000000 l    d  .debug_aranges	00000000 .debug_aranges
00000000 l    d  .debug_str	00000000 .debug_str
00000000 l    d  .debug_rnglists	00000000 .debug_rnglists
00000000 l    df *ABS*	00000000 ccZLLj9u.o
00000003 l       *ABS*	00000000 MMODE_SIG
00000001 l       *ABS*	00000000 SMODE_SIG
00000001 l       *ABS*	00000000 HMODE_SIG
00000002 l       *ABS*	00000000 VMODE_SIG
00023000 l       .text.rvmodel	00000000 rvmodel_boot
00001018 l       .text.rvtest	00000000 I_bge_cg_cp_rs1_b0
6f5ca309 l       *ABS*	00000000 immx
6f5ca309 l       *ABS*	00000000 absimm
00000000 l       *ABS*	00000000 cry
00000309 l       *ABS*	00000000 imm12
0000a07c l       .text.rvtest	00000000 failedtest_x5_x4
0000cb38 l       .data	00000000 I_bge_cg_cp_rs1_b0_str
00001050 l       .text.rvtest	00000000 I_bge_cg_cp_rs1_b1
0000cb65 l       .data	00000000 I_bge_cg_cp_rs1_b1_str
0000108c l       .text.rvtest	00000000 I_bge_cg_cp_rs1_b2
0000cb92 l       .data	00000000 I_bge_cg_cp_rs1_b2_str
000010c8 l       .text.rvtest	00000000 I_bge_cg_cp_rs1_b3
0000cbbf l       .data	00000000 I_bge_cg_cp_rs1_b3_str
00001108 l       .text.rvtest	00000000 I_bge_cg_cp_rs1_b4
0000a094 l       .text.rvtest	00000000 failedtest_x8_x7
0000cbec l       .data	00000000 I_bge_cg_cp_rs1_b4_str
00001140 l       .text.rvtest	00000000 I_bge_cg_cp_rs1_b5
0000cc19 l       .data	00000000 I_bge_cg_cp_rs1_b5_str
00001178 l       .text.rvtest	00000000 I_bge_cg_cp_rs1_b6
0000cc46 l       .data	00000000 I_bge_cg_cp_rs1_b6_str
000011b8 l       .text.rvtest	00000000 I_bge_cg_cp_rs1_b7
0000cc73 l       .data	00000000 I_bge_cg_cp_rs1_b7_str
000011f0 l       .text.rvtest	00000000 I_bge_cg_cp_rs1_b8
0000cca0 l       .data	00000000 I_bge_cg_cp_rs1_b8_str
00001228 l       .text.rvtest	00000000 I_bge_cg_cp_rs1_b9
0000cccd l       .data	00000000 I_bge_cg_cp_rs1_b9_str
00001264 l       .text.rvtest	00000000 I_bge_cg_cp_rs1_b10
0000ccfb l       .data	00000000 I_bge_cg_cp_rs1_b10_str
0000129c l       .text.rvtest	00000000 I_bge_cg_cp_rs1_b11
0000cd2a l       .data	00000000 I_bge_cg_cp_rs1_b11_str
000012d4 l       .text.rvtest	00000000 I_bge_cg_cp_rs1_b12
0000cd59 l       .data	00000000 I_bge_cg_cp_rs1_b12_str
0000130c l       .text.rvtest	00000000 I_bge_cg_cp_rs1_b13
0000cd88 l       .data	00000000 I_bge_cg_cp_rs1_b13_str
00001344 l       .text.rvtest	00000000 I_bge_cg_cp_rs1_b14
0000cdb7 l       .data	00000000 I_bge_cg_cp_rs1_b14_str
00001380 l       .text.rvtest	00000000 I_bge_cg_cp_rs1_b15
0000cde6 l       .data	00000000 I_bge_cg_cp_rs1_b15_str
000013b8 l       .text.rvtest	00000000 I_bge_cg_cp_rs1_b16
0000ce15 l       .data	00000000 I_bge_cg_cp_rs1_b16_str
000013f0 l       .text.rvtest	00000000 I_bge_cg_cp_rs1_b17
0000ce44 l       .data	00000000 I_bge_cg_cp_rs1_b17_str
00001428 l       .text.rvtest	00000000 I_bge_cg_cp_rs1_b18
0000ce73 l       .data	00000000 I_bge_cg_cp_rs1_b18_str
00001464 l       .text.rvtest	00000000 I_bge_cg_cp_rs1_b19
0000cea2 l       .data	00000000 I_bge_cg_cp_rs1_b19_str
0000149c l       .text.rvtest	00000000 I_bge_cg_cp_rs1_b20
0000ced1 l       .data	00000000 I_bge_cg_cp_rs1_b20_str
000014d4 l       .text.rvtest	00000000 I_bge_cg_cp_rs1_b21
0000cf00 l       .data	00000000 I_bge_cg_cp_rs1_b21_str
0000150c l       .text.rvtest	00000000 I_bge_cg_cp_rs1_b22
0000cf2f l       .data	00000000 I_bge_cg_cp_rs1_b22_str
00001548 l       .text.rvtest	00000000 I_bge_cg_cp_rs1_b23
0000cf5e l       .data	00000000 I_bge_cg_cp_rs1_b23_str
00001580 l       .text.rvtest	00000000 I_bge_cg_cp_rs1_b24
0000cf8d l       .data	00000000 I_bge_cg_cp_rs1_b24_str
000015b8 l       .text.rvtest	00000000 I_bge_cg_cp_rs1_b25
0000cfbc l       .data	00000000 I_bge_cg_cp_rs1_b25_str
000015f4 l       .text.rvtest	00000000 I_bge_cg_cp_rs1_b26
0000cfeb l       .data	00000000 I_bge_cg_cp_rs1_b26_str
0000162c l       .text.rvtest	00000000 I_bge_cg_cp_rs1_b27
0000d01a l       .data	00000000 I_bge_cg_cp_rs1_b27_str
00001664 l       .text.rvtest	00000000 I_bge_cg_cp_rs1_b28
0000d049 l       .data	00000000 I_bge_cg_cp_rs1_b28_str
0000169c l       .text.rvtest	00000000 I_bge_cg_cp_rs1_b29
0000d078 l       .data	00000000 I_bge_cg_cp_rs1_b29_str
000016d4 l       .text.rvtest	00000000 I_bge_cg_cp_rs1_b30
0000d0a7 l       .data	00000000 I_bge_cg_cp_rs1_b30_str
00001710 l       .text.rvtest	00000000 I_bge_cg_cp_rs1_b31
0000d0d6 l       .data	00000000 I_bge_cg_cp_rs1_b31_str
00001748 l       .text.rvtest	00000000 I_bge_cg_cp_rs2_b0
0000d105 l       .data	00000000 I_bge_cg_cp_rs2_b0_str
00001784 l       .text.rvtest	00000000 I_bge_cg_cp_rs2_b1
0000d133 l       .data	00000000 I_bge_cg_cp_rs2_b1_str
000017bc l       .text.rvtest	00000000 I_bge_cg_cp_rs2_b2
0000d161 l       .data	00000000 I_bge_cg_cp_rs2_b2_str
000017f4 l       .text.rvtest	00000000 I_bge_cg_cp_rs2_b3
0000d18f l       .data	00000000 I_bge_cg_cp_rs2_b3_str
00001834 l       .text.rvtest	00000000 I_bge_cg_cp_rs2_b4
0000d1bd l       .data	00000000 I_bge_cg_cp_rs2_b4_str
0000186c l       .text.rvtest	00000000 I_bge_cg_cp_rs2_b5
0000d1eb l       .data	00000000 I_bge_cg_cp_rs2_b5_str
000018a4 l       .text.rvtest	00000000 I_bge_cg_cp_rs2_b6
0000d219 l       .data	00000000 I_bge_cg_cp_rs2_b6_str
000018e4 l       .text.rvtest	00000000 I_bge_cg_cp_rs2_b7
0000a0bc l       .text.rvtest	00000000 failedtest_x14_x13
0000d247 l       .data	00000000 I_bge_cg_cp_rs2_b7_str
0000191c l       .text.rvtest	00000000 I_bge_cg_cp_rs2_b8
0000d275 l       .data	00000000 I_bge_cg_cp_rs2_b8_str
00001954 l       .text.rvtest	00000000 I_bge_cg_cp_rs2_b9
0000d2a3 l       .data	00000000 I_bge_cg_cp_rs2_b9_str
0000198c l       .text.rvtest	00000000 I_bge_cg_cp_rs2_b10
0000d2d1 l       .data	00000000 I_bge_cg_cp_rs2_b10_str
000019c4 l       .text.rvtest	00000000 I_bge_cg_cp_rs2_b11
0000d300 l       .data	00000000 I_bge_cg_cp_rs2_b11_str
000019fc l       .text.rvtest	00000000 I_bge_cg_cp_rs2_b12
0000d32f l       .data	00000000 I_bge_cg_cp_rs2_b12_str
00001a3c l       .text.rvtest	00000000 I_bge_cg_cp_rs2_b13
0000d35e l       .data	00000000 I_bge_cg_cp_rs2_b13_str
00001a74 l       .text.rvtest	00000000 I_bge_cg_cp_rs2_b14
0000d38d l       .data	00000000 I_bge_cg_cp_rs2_b14_str
00001aac l       .text.rvtest	00000000 I_bge_cg_cp_rs2_b15
0000d3bc l       .data	00000000 I_bge_cg_cp_rs2_b15_str
00001ae8 l       .text.rvtest	00000000 I_bge_cg_cp_rs2_b16
0000d3eb l       .data	00000000 I_bge_cg_cp_rs2_b16_str
00001b20 l       .text.rvtest	00000000 I_bge_cg_cp_rs2_b17
0000d41a l       .data	00000000 I_bge_cg_cp_rs2_b17_str
00001b58 l       .text.rvtest	00000000 I_bge_cg_cp_rs2_b18
0000d449 l       .data	00000000 I_bge_cg_cp_rs2_b18_str
00001b90 l       .text.rvtest	00000000 I_bge_cg_cp_rs2_b19
0000d478 l       .data	00000000 I_bge_cg_cp_rs2_b19_str
00001bc8 l       .text.rvtest	00000000 I_bge_cg_cp_rs2_b20
0000d4a7 l       .data	00000000 I_bge_cg_cp_rs2_b20_str
00001c00 l       .text.rvtest	00000000 I_bge_cg_cp_rs2_b21
0000d4d6 l       .data	00000000 I_bge_cg_cp_rs2_b21_str
00001c38 l       .text.rvtest	00000000 I_bge_cg_cp_rs2_b22
0000d505 l       .data	00000000 I_bge_cg_cp_rs2_b22_str
00001c70 l       .text.rvtest	00000000 I_bge_cg_cp_rs2_b23
0000d534 l       .data	00000000 I_bge_cg_cp_rs2_b23_str
00001ca8 l       .text.rvtest	00000000 I_bge_cg_cp_rs2_b24
0000d563 l       .data	00000000 I_bge_cg_cp_rs2_b24_str
00001ce0 l       .text.rvtest	00000000 I_bge_cg_cp_rs2_b25
0000d592 l       .data	00000000 I_bge_cg_cp_rs2_b25_str
00001d1c l       .text.rvtest	00000000 I_bge_cg_cp_rs2_b26
0000d5c1 l       .data	00000000 I_bge_cg_cp_rs2_b26_str
00001d54 l       .text.rvtest	00000000 I_bge_cg_cp_rs2_b27
0000d5f0 l       .data	00000000 I_bge_cg_cp_rs2_b27_str
00001d8c l       .text.rvtest	00000000 I_bge_cg_cp_rs2_b28
0000d61f l       .data	00000000 I_bge_cg_cp_rs2_b28_str
00001dc4 l       .text.rvtest	00000000 I_bge_cg_cp_rs2_b29
0000d64e l       .data	00000000 I_bge_cg_cp_rs2_b29_str
00001dfc l       .text.rvtest	00000000 I_bge_cg_cp_rs2_b30
0000d67d l       .data	00000000 I_bge_cg_cp_rs2_b30_str
00001e34 l       .text.rvtest	00000000 I_bge_cg_cp_rs2_b31
0000d6ac l       .data	00000000 I_bge_cg_cp_rs2_b31_str
00001e6c l       .text.rvtest	00000000 I_bge_cg_cp_rs1_edges_0x0
0000d6db l       .data	00000000 I_bge_cg_cp_rs1_edges_0x0_str
00001ea4 l       .text.rvtest	00000000 I_bge_cg_cp_rs1_edges_0x1
0000d710 l       .data	00000000 I_bge_cg_cp_rs1_edges_0x1_str
00001edc l       .text.rvtest	00000000 I_bge_cg_cp_rs1_edges_0x2
0000d745 l       .data	00000000 I_bge_cg_cp_rs1_edges_0x2_str
00001f14 l       .text.rvtest	00000000 I_bge_cg_cp_rs1_edges_0x80000000
0000d77a l       .data	00000000 I_bge_cg_cp_rs1_edges_0x80000000_str
00001f4c l       .text.rvtest	00000000 I_bge_cg_cp_rs1_edges_0x80000001
0000d7b6 l       .data	00000000 I_bge_cg_cp_rs1_edges_0x80000001_str
00001f84 l       .text.rvtest	00000000 I_bge_cg_cp_rs1_edges_0x7fffffff
0000d7f2 l       .data	00000000 I_bge_cg_cp_rs1_edges_0x7fffffff_str
00001fbc l       .text.rvtest	00000000 I_bge_cg_cp_rs1_edges_0x7ffffffe
0000d82e l       .data	00000000 I_bge_cg_cp_rs1_edges_0x7ffffffe_str
00001ff4 l       .text.rvtest	00000000 I_bge_cg_cp_rs1_edges_0xffffffff
0000d86a l       .data	00000000 I_bge_cg_cp_rs1_edges_0xffffffff_str
0000202c l       .text.rvtest	00000000 I_bge_cg_cp_rs1_edges_0xfffffffe
0000d8a6 l       .data	00000000 I_bge_cg_cp_rs1_edges_0xfffffffe_str
00002064 l       .text.rvtest	00000000 I_bge_cg_cp_rs1_edges_0x5bbc8872
0000d8e2 l       .data	00000000 I_bge_cg_cp_rs1_edges_0x5bbc8872_str
0000209c l       .text.rvtest	00000000 I_bge_cg_cp_rs1_edges_0xaaaaaaaa
0000d91e l       .data	00000000 I_bge_cg_cp_rs1_edges_0xaaaaaaaa_str
000020d4 l       .text.rvtest	00000000 I_bge_cg_cp_rs1_edges_0x55555555
0000d95a l       .data	00000000 I_bge_cg_cp_rs1_edges_0x55555555_str
0000210c l       .text.rvtest	00000000 I_bge_cg_cp_rs2_edges_0x0
0000d996 l       .data	00000000 I_bge_cg_cp_rs2_edges_0x0_str
00002144 l       .text.rvtest	00000000 I_bge_cg_cp_rs2_edges_0x1
0000d9cb l       .data	00000000 I_bge_cg_cp_rs2_edges_0x1_str
0000217c l       .text.rvtest	00000000 I_bge_cg_cp_rs2_edges_0x2
0000da00 l       .data	00000000 I_bge_cg_cp_rs2_edges_0x2_str
000021b4 l       .text.rvtest	00000000 I_bge_cg_cp_rs2_edges_0x80000000
0000da35 l       .data	00000000 I_bge_cg_cp_rs2_edges_0x80000000_str
000021ec l       .text.rvtest	00000000 I_bge_cg_cp_rs2_edges_0x80000001
0000da71 l       .data	00000000 I_bge_cg_cp_rs2_edges_0x80000001_str
00002224 l       .text.rvtest	00000000 I_bge_cg_cp_rs2_edges_0x7fffffff
0000daad l       .data	00000000 I_bge_cg_cp_rs2_edges_0x7fffffff_str
0000225c l       .text.rvtest	00000000 I_bge_cg_cp_rs2_edges_0x7ffffffe
0000dae9 l       .data	00000000 I_bge_cg_cp_rs2_edges_0x7ffffffe_str
00002294 l       .text.rvtest	00000000 I_bge_cg_cp_rs2_edges_0xffffffff
0000db25 l       .data	00000000 I_bge_cg_cp_rs2_edges_0xffffffff_str
000022cc l       .text.rvtest	00000000 I_bge_cg_cp_rs2_edges_0xfffffffe
0000db61 l       .data	00000000 I_bge_cg_cp_rs2_edges_0xfffffffe_str
00002304 l       .text.rvtest	00000000 I_bge_cg_cp_rs2_edges_0x5bbc8872
0000db9d l       .data	00000000 I_bge_cg_cp_rs2_edges_0x5bbc8872_str
0000233c l       .text.rvtest	00000000 I_bge_cg_cp_rs2_edges_0xaaaaaaaa
0000dbd9 l       .data	00000000 I_bge_cg_cp_rs2_edges_0xaaaaaaaa_str
00002374 l       .text.rvtest	00000000 I_bge_cg_cp_rs2_edges_0x55555555
0000dc15 l       .data	00000000 I_bge_cg_cp_rs2_edges_0x55555555_str
000023a4 l       .text.rvtest	00000000 I_bge_cg_cr_rs1_rs2_edges_offset_rs1val_0x0_rs2val_0x0
0000dc51 l       .data	00000000 I_bge_cg_cr_rs1_rs2_edges_offset_rs1val_0x0_rs2val_0x0_str
000023fc l       .text.rvtest	00000000 I_bge_cg_cr_rs1_rs2_edges_offset_rs1val_0x0_rs2val_0x1
0000dca4 l       .data	00000000 I_bge_cg_cr_rs1_rs2_edges_offset_rs1val_0x0_rs2val_0x1_str
00002454 l       .text.rvtest	00000000 I_bge_cg_cr_rs1_rs2_edges_offset_rs1val_0x0_rs2val_0x2
0000dcf7 l       .data	00000000 I_bge_cg_cr_rs1_rs2_edges_offset_rs1val_0x0_rs2val_0x2_str
000024ac l       .text.rvtest	00000000 I_bge_cg_cr_rs1_rs2_edges_offset_rs1val_0x0_rs2val_0x80000000
0000dd4a l       .data	00000000 I_bge_cg_cr_rs1_rs2_edges_offset_rs1val_0x0_rs2val_0x80000000_str
00002504 l       .text.rvtest	00000000 I_bge_cg_cr_rs1_rs2_edges_offset_rs1val_0x0_rs2val_0x80000001
0000dda4 l       .data	00000000 I_bge_cg_cr_rs1_rs2_edges_offset_rs1val_0x0_rs2val_0x80000001_str
0000255c l       .text.rvtest	00000000 I_bge_cg_cr_rs1_rs2_edges_offset_rs1val_0x0_rs2val_0x7fffffff
0000ddfe l       .data	00000000 I_bge_cg_cr_rs1_rs2_edges_offset_rs1val_0x0_rs2val_0x7fffffff_str
000025b4 l       .text.rvtest	00000000 I_bge_cg_cr_rs1_rs2_edges_offset_rs1val_0x0_rs2val_0x7ffffffe
0000de58 l       .data	00000000 I_bge_cg_cr_rs1_rs2_edges_offset_rs1val_0x0_rs2val_0x7ffffffe_str
0000260c l       .text.rvtest	00000000 I_bge_cg_cr_rs1_rs2_edges_offset_rs1val_0x0_rs2val_0xffffffff
0000deb2 l       .data	00000000 I_bge_cg_cr_rs1_rs2_edges_offset_rs1val_0x0_rs2val_0xffffffff_str
00002664 l       .text.rvtest	00000000 I_bge_cg_cr_rs1_rs2_edges_offset_rs1val_0x0_rs2val_0xfffffffe
0000df0c l       .data	00000000 I_bge_cg_cr_rs1_rs2_edges_offset_rs1val_0x0_rs2val_0xfffffffe_str
000026bc l       .text.rvtest	00000000 I_bge_cg_cr_rs1_rs2_edges_offset_rs1val_0x0_rs2val_0x5bbc8872
0000df66 l       .data	00000000 I_bge_cg_cr_rs1_rs2_edges_offset_rs1val_0x0_rs2val_0x5bbc8872_str
00002714 l       .text.rvtest	00000000 I_bge_cg_cr_rs1_rs2_edges_offset_rs1val_0x0_rs2val_0xaaaaaaaa
0000dfc0 l       .data	00000000 I_bge_cg_cr_rs1_rs2_edges_offset_rs1val_0x0_rs2val_0xaaaaaaaa_str
0000276c l       .text.rvtest	00000000 I_bge_cg_cr_rs1_rs2_edges_offset_rs1val_0x0_rs2val_0x55555555
0000e01a l       .data	00000000 I_bge_cg_cr_rs1_rs2_edges_offset_rs1val_0x0_rs2val_0x55555555_str
000027c4 l       .text.rvtest	00000000 I_bge_cg_cr_rs1_rs2_edges_offset_rs1val_0x1_rs2val_0x0
0000e075 l       .data	00000000 I_bge_cg_cr_rs1_rs2_edges_offset_rs1val_0x1_rs2val_0x0_str
0000281c l       .text.rvtest	00000000 I_bge_cg_cr_rs1_rs2_edges_offset_rs1val_0x1_rs2val_0x1
0000e0c9 l       .data	00000000 I_bge_cg_cr_rs1_rs2_edges_offset_rs1val_0x1_rs2val_0x1_str
00002874 l       .text.rvtest	00000000 I_bge_cg_cr_rs1_rs2_edges_offset_rs1val_0x1_rs2val_0x2
0000e11d l       .data	00000000 I_bge_cg_cr_rs1_rs2_edges_offset_rs1val_0x1_rs2val_0x2_str
000028cc l       .text.rvtest	00000000 I_bge_cg_cr_rs1_rs2_edges_offset_rs1val_0x1_rs2val_0x80000000
0000e171 l       .data	00000000 I_bge_cg_cr_rs1_rs2_edges_offset_rs1val_0x1_rs2val_0x80000000_str
00002924 l       .text.rvtest	00000000 I_bge_cg_cr_rs1_rs2_edges_offset_rs1val_0x1_rs2val_0x80000001
0000e1cc l       .data	00000000 I_bge_cg_cr_rs1_rs2_edges_offset_rs1val_0x1_rs2val_0x80000001_str
0000297c l       .text.rvtest	00000000 I_bge_cg_cr_rs1_rs2_edges_offset_rs1val_0x1_rs2val_0x7fffffff
0000e227 l       .data	00000000 I_bge_cg_cr_rs1_rs2_edges_offset_rs1val_0x1_rs2val_0x7fffffff_str
000029d4 l       .text.rvtest	00000000 I_bge_cg_cr_rs1_rs2_edges_offset_rs1val_0x1_rs2val_0x7ffffffe
0000e282 l       .data	00000000 I_bge_cg_cr_rs1_rs2_edges_offset_rs1val_0x1_rs2val_0x7ffffffe_str
00002a2c l       .text.rvtest	00000000 I_bge_cg_cr_rs1_rs2_edges_offset_rs1val_0x1_rs2val_0xffffffff
0000e2dd l       .data	00000000 I_bge_cg_cr_rs1_rs2_edges_offset_rs1val_0x1_rs2val_0xffffffff_str
00002a84 l       .text.rvtest	00000000 I_bge_cg_cr_rs1_rs2_edges_offset_rs1val_0x1_rs2val_0xfffffffe
0000e338 l       .data	00000000 I_bge_cg_cr_rs1_rs2_edges_offset_rs1val_0x1_rs2val_0xfffffffe_str
00002adc l       .text.rvtest	00000000 I_bge_cg_cr_rs1_rs2_edges_offset_rs1val_0x1_rs2val_0x5bbc8872
0000e393 l       .data	00000000 I_bge_cg_cr_rs1_rs2_edges_offset_rs1val_0x1_rs2val_0x5bbc8872_str
00002b34 l       .text.rvtest	00000000 I_bge_cg_cr_rs1_rs2_edges_offset_rs1val_0x1_rs2val_0xaaaaaaaa
0000e3ee l       .data	00000000 I_bge_cg_cr_rs1_rs2_edges_offset_rs1val_0x1_rs2val_0xaaaaaaaa_str
00002b8c l       .text.rvtest	00000000 I_bge_cg_cr_rs1_rs2_edges_offset_rs1val_0x1_rs2val_0x55555555
0000e449 l       .data	00000000 I_bge_cg_cr_rs1_rs2_edges_offset_rs1val_0x1_rs2val_0x55555555_str
00002be4 l       .text.rvtest	00000000 I_bge_cg_cr_rs1_rs2_edges_offset_rs1val_0x2_rs2val_0x0
0000e4a4 l       .data	00000000 I_bge_cg_cr_rs1_rs2_edges_offset_rs1val_0x2_rs2val_0x0_str
00002c3c l       .text.rvtest	00000000 I_bge_cg_cr_rs1_rs2_edges_offset_rs1val_0x2_rs2val_0x1
0000e4f8 l       .data	00000000 I_bge_cg_cr_rs1_rs2_edges_offset_rs1val_0x2_rs2val_0x1_str
00002c94 l       .text.rvtest	00000000 I_bge_cg_cr_rs1_rs2_edges_offset_rs1val_0x2_rs2val_0x2
0000e54c l       .data	00000000 I_bge_cg_cr_rs1_rs2_edges_offset_rs1val_0x2_rs2val_0x2_str
00002cec l       .text.rvtest	00000000 I_bge_cg_cr_rs1_rs2_edges_offset_rs1val_0x2_rs2val_0x80000000
0000e5a0 l       .data	00000000 I_bge_cg_cr_rs1_rs2_edges_offset_rs1val_0x2_rs2val_0x80000000_str
00002d44 l       .text.rvtest	00000000 I_bge_cg_cr_rs1_rs2_edges_offset_rs1val_0x2_rs2val_0x80000001
0000e5fb l       .data	00000000 I_bge_cg_cr_rs1_rs2_edges_offset_rs1val_0x2_rs2val_0x80000001_str
00002d9c l       .text.rvtest	00000000 I_bge_cg_cr_rs1_rs2_edges_offset_rs1val_0x2_rs2val_0x7fffffff
0000e656 l       .data	00000000 I_bge_cg_cr_rs1_rs2_edges_offset_rs1val_0x2_rs2val_0x7fffffff_str
00002df4 l       .text.rvtest	00000000 I_bge_cg_cr_rs1_rs2_edges_offset_rs1val_0x2_rs2val_0x7ffffffe
0000e6b1 l       .data	00000000 I_bge_cg_cr_rs1_rs2_edges_offset_rs1val_0x2_rs2val_0x7ffffffe_str
00002e4c l       .text.rvtest	00000000 I_bge_cg_cr_rs1_rs2_edges_offset_rs1val_0x2_rs2val_0xffffffff
0000e70c l       .data	00000000 I_bge_cg_cr_rs1_rs2_edges_offset_rs1val_0x2_rs2val_0xffffffff_str
00002ea4 l       .text.rvtest	00000000 I_bge_cg_cr_rs1_rs2_edges_offset_rs1val_0x2_rs2val_0xfffffffe
0000e767 l       .data	00000000 I_bge_cg_cr_rs1_rs2_edges_offset_rs1val_0x2_rs2val_0xfffffffe_str
00002efc l       .text.rvtest	00000000 I_bge_cg_cr_rs1_rs2_edges_offset_rs1val_0x2_rs2val_0x5bbc8872
0000e7c2 l       .data	00000000 I_bge_cg_cr_rs1_rs2_edges_offset_rs1val_0x2_rs2val_0x5bbc8872_str
00002f54 l       .text.rvtest	00000000 I_bge_cg_cr_rs1_rs2_edges_offset_rs1val_0x2_rs2val_0xaaaaaaaa
0000e81d l       .data	00000000 I_bge_cg_cr_rs1_rs2_edges_offset_rs1val_0x2_rs2val_0xaaaaaaaa_str
00002fac l       .text.rvtest	00000000 I_bge_cg_cr_rs1_rs2_edges_offset_rs1val_0x2_rs2val_0x55555555
0000e878 l       .data	00000000 I_bge_cg_cr_rs1_rs2_edges_offset_rs1val_0x2_rs2val_0x55555555_str
00003004 l       .text.rvtest	00000000 I_bge_cg_cr_rs1_rs2_edges_offset_rs1val_0x80000000_rs2val_0x0
0000e8d3 l       .data	00000000 I_bge_cg_cr_rs1_rs2_edges_offset_rs1val_0x80000000_rs2val_0x0_str
0000305c l       .text.rvtest	00000000 I_bge_cg_cr_rs1_rs2_edges_offset_rs1val_0x80000000_rs2val_0x1
0000e92e l       .data	00000000 I_bge_cg_cr_rs1_rs2_edges_offset_rs1val_0x80000000_rs2val_0x1_str
000030b4 l       .text.rvtest	00000000 I_bge_cg_cr_rs1_rs2_edges_offset_rs1val_0x80000000_rs2val_0x2
0000e989 l       .data	00000000 I_bge_cg_cr_rs1_rs2_edges_offset_rs1val_0x80000000_rs2val_0x2_str
0000310c l       .text.rvtest	00000000 I_bge_cg_cr_rs1_rs2_edges_offset_rs1val_0x80000000_rs2val_0x80000000
0000e9e4 l       .data	00000000 I_bge_cg_cr_rs1_rs2_edges_offset_rs1val_0x80000000_rs2val_0x80000000_str
00003164 l       .text.rvtest	00000000 I_bge_cg_cr_rs1_rs2_edges_offset_rs1val_0x80000000_rs2val_0x80000001
0000ea46 l       .data	00000000 I_bge_cg_cr_rs1_rs2_edges_offset_rs1val_0x80000000_rs2val_0x80000001_str
000031bc l       .text.rvtest	00000000 I_bge_cg_cr_rs1_rs2_edges_offset_rs1val_0x80000000_rs2val_0x7fffffff
0000eaa8 l       .data	00000000 I_bge_cg_cr_rs1_rs2_edges_offset_rs1val_0x80000000_rs2val_0x7fffffff_str
00003214 l       .text.rvtest	00000000 I_bge_cg_cr_rs1_rs2_edges_offset_rs1val_0x80000000_rs2val_0x7ffffffe
0000eb0a l       .data	00000000 I_bge_cg_cr_rs1_rs2_edges_offset_rs1val_0x80000000_rs2val_0x7ffffffe_str
0000326c l       .text.rvtest	00000000 I_bge_cg_cr_rs1_rs2_edges_offset_rs1val_0x80000000_rs2val_0xffffffff
0000eb6c l       .data	00000000 I_bge_cg_cr_rs1_rs2_edges_offset_rs1val_0x80000000_rs2val_0xffffffff_str
000032c4 l       .text.rvtest	00000000 I_bge_cg_cr_rs1_rs2_edges_offset_rs1val_0x80000000_rs2val_0xfffffffe
0000ebce l       .data	00000000 I_bge_cg_cr_rs1_rs2_edges_offset_rs1val_0x80000000_rs2val_0xfffffffe_str
0000331c l       .text.rvtest	00000000 I_bge_cg_cr_rs1_rs2_edges_offset_rs1val_0x80000000_rs2val_0x5bbc8872
0000ec30 l       .data	00000000 I_bge_cg_cr_rs1_rs2_edges_offset_rs1val_0x80000000_rs2val_0x5bbc8872_str
00003374 l       .text.rvtest	00000000 I_bge_cg_cr_rs1_rs2_edges_offset_rs1val_0x80000000_rs2val_0xaaaaaaaa
0000ec92 l       .data	00000000 I_bge_cg_cr_rs1_rs2_edges_offset_rs1val_0x80000000_rs2val_0xaaaaaaaa_str
000033cc l       .text.rvtest	00000000 I_bge_cg_cr_rs1_rs2_edges_offset_rs1val_0x80000000_rs2val_0x55555555
0000ecf4 l       .data	00000000 I_bge_cg_cr_rs1_rs2_edges_offset_rs1val_0x80000000_rs2val_0x55555555_str
00003424 l       .text.rvtest	00000000 I_bge_cg_cr_rs1_rs2_edges_offset_rs1val_0x80000001_rs2val_0x0
0000ed56 l       .data	00000000 I_bge_cg_cr_rs1_rs2_edges_offset_rs1val_0x80000001_rs2val_0x0_str
0000347c l       .text.rvtest	00000000 I_bge_cg_cr_rs1_rs2_edges_offset_rs1val_0x80000001_rs2val_0x1
0000edb1 l       .data	00000000 I_bge_cg_cr_rs1_rs2_edges_offset_rs1val_0x80000001_rs2val_0x1_str
000034d4 l       .text.rvtest	00000000 I_bge_cg_cr_rs1_rs2_edges_offset_rs1val_0x80000001_rs2val_0x2
0000ee0c l       .data	00000000 I_bge_cg_cr_rs1_rs2_edges_offset_rs1val_0x80000001_rs2val_0x2_str
0000352c l       .text.rvtest	00000000 I_bge_cg_cr_rs1_rs2_edges_offset_rs1val_0x80000001_rs2val_0x80000000
0000ee67 l       .data	00000000 I_bge_cg_cr_rs1_rs2_edges_offset_rs1val_0x80000001_rs2val_0x80000000_str
00003584 l       .text.rvtest	00000000 I_bge_cg_cr_rs1_rs2_edges_offset_rs1val_0x80000001_rs2val_0x80000001
0000eec9 l       .data	00000000 I_bge_cg_cr_rs1_rs2_edges_offset_rs1val_0x80000001_rs2val_0x80000001_str
000035dc l       .text.rvtest	00000000 I_bge_cg_cr_rs1_rs2_edges_offset_rs1val_0x80000001_rs2val_0x7fffffff
0000ef2b l       .data	00000000 I_bge_cg_cr_rs1_rs2_edges_offset_rs1val_0x80000001_rs2val_0x7fffffff_str
00003634 l       .text.rvtest	00000000 I_bge_cg_cr_rs1_rs2_edges_offset_rs1val_0x80000001_rs2val_0x7ffffffe
0000ef8d l       .data	00000000 I_bge_cg_cr_rs1_rs2_edges_offset_rs1val_0x80000001_rs2val_0x7ffffffe_str
0000368c l       .text.rvtest	00000000 I_bge_cg_cr_rs1_rs2_edges_offset_rs1val_0x80000001_rs2val_0xffffffff
0000efef l       .data	00000000 I_bge_cg_cr_rs1_rs2_edges_offset_rs1val_0x80000001_rs2val_0xffffffff_str
000036e4 l       .text.rvtest	00000000 I_bge_cg_cr_rs1_rs2_edges_offset_rs1val_0x80000001_rs2val_0xfffffffe
0000f051 l       .data	00000000 I_bge_cg_cr_rs1_rs2_edges_offset_rs1val_0x80000001_rs2val_0xfffffffe_str
0000373c l       .text.rvtest	00000000 I_bge_cg_cr_rs1_rs2_edges_offset_rs1val_0x80000001_rs2val_0x5bbc8872
0000f0b3 l       .data	00000000 I_bge_cg_cr_rs1_rs2_edges_offset_rs1val_0x80000001_rs2val_0x5bbc8872_str
00003794 l       .text.rvtest	00000000 I_bge_cg_cr_rs1_rs2_edges_offset_rs1val_0x80000001_rs2val_0xaaaaaaaa
0000f115 l       .data	00000000 I_bge_cg_cr_rs1_rs2_edges_offset_rs1val_0x80000001_rs2val_0xaaaaaaaa_str
000037ec l       .text.rvtest	00000000 I_bge_cg_cr_rs1_rs2_edges_offset_rs1val_0x80000001_rs2val_0x55555555
0000f177 l       .data	00000000 I_bge_cg_cr_rs1_rs2_edges_offset_rs1val_0x80000001_rs2val_0x55555555_str
00003844 l       .text.rvtest	00000000 I_bge_cg_cr_rs1_rs2_edges_offset_rs1val_0x7fffffff_rs2val_0x0
0000f1d9 l       .data	00000000 I_bge_cg_cr_rs1_rs2_edges_offset_rs1val_0x7fffffff_rs2val_0x0_str
0000389c l       .text.rvtest	00000000 I_bge_cg_cr_rs1_rs2_edges_offset_rs1val_0x7fffffff_rs2val_0x1
0000f234 l       .data	00000000 I_bge_cg_cr_rs1_rs2_edges_offset_rs1val_0x7fffffff_rs2val_0x1_str
000038f4 l       .text.rvtest	00000000 I_bge_cg_cr_rs1_rs2_edges_offset_rs1val_0x7fffffff_rs2val_0x2
0000f28f l       .data	00000000 I_bge_cg_cr_rs1_rs2_edges_offset_rs1val_0x7fffffff_rs2val_0x2_str
0000394c l       .text.rvtest	00000000 I_bge_cg_cr_rs1_rs2_edges_offset_rs1val_0x7fffffff_rs2val_0x80000000
0000f2ea l       .data	00000000 I_bge_cg_cr_rs1_rs2_edges_offset_rs1val_0x7fffffff_rs2val_0x80000000_str
000039a4 l       .text.rvtest	00000000 I_bge_cg_cr_rs1_rs2_edges_offset_rs1val_0x7fffffff_rs2val_0x80000001
0000f34c l       .data	00000000 I_bge_cg_cr_rs1_rs2_edges_offset_rs1val_0x7fffffff_rs2val_0x80000001_str
000039fc l       .text.rvtest	00000000 I_bge_cg_cr_rs1_rs2_edges_offset_rs1val_0x7fffffff_rs2val_0x7fffffff
0000f3ae l       .data	00000000 I_bge_cg_cr_rs1_rs2_edges_offset_rs1val_0x7fffffff_rs2val_0x7fffffff_str
00003a54 l       .text.rvtest	00000000 I_bge_cg_cr_rs1_rs2_edges_offset_rs1val_0x7fffffff_rs2val_0x7ffffffe
0000f410 l       .data	00000000 I_bge_cg_cr_rs1_rs2_edges_offset_rs1val_0x7fffffff_rs2val_0x7ffffffe_str
00003aac l       .text.rvtest	00000000 I_bge_cg_cr_rs1_rs2_edges_offset_rs1val_0x7fffffff_rs2val_0xffffffff
0000f472 l       .data	00000000 I_bge_cg_cr_rs1_rs2_edges_offset_rs1val_0x7fffffff_rs2val_0xffffffff_str
00003b04 l       .text.rvtest	00000000 I_bge_cg_cr_rs1_rs2_edges_offset_rs1val_0x7fffffff_rs2val_0xfffffffe
0000f4d4 l       .data	00000000 I_bge_cg_cr_rs1_rs2_edges_offset_rs1val_0x7fffffff_rs2val_0xfffffffe_str
00003b5c l       .text.rvtest	00000000 I_bge_cg_cr_rs1_rs2_edges_offset_rs1val_0x7fffffff_rs2val_0x5bbc8872
0000f536 l       .data	00000000 I_bge_cg_cr_rs1_rs2_edges_offset_rs1val_0x7fffffff_rs2val_0x5bbc8872_str
00003bb4 l       .text.rvtest	00000000 I_bge_cg_cr_rs1_rs2_edges_offset_rs1val_0x7fffffff_rs2val_0xaaaaaaaa
0000f598 l       .data	00000000 I_bge_cg_cr_rs1_rs2_edges_offset_rs1val_0x7fffffff_rs2val_0xaaaaaaaa_str
00003c0c l       .text.rvtest	00000000 I_bge_cg_cr_rs1_rs2_edges_offset_rs1val_0x7fffffff_rs2val_0x55555555
0000f5fa l       .data	00000000 I_bge_cg_cr_rs1_rs2_edges_offset_rs1val_0x7fffffff_rs2val_0x55555555_str
00003c64 l       .text.rvtest	00000000 I_bge_cg_cr_rs1_rs2_edges_offset_rs1val_0x7ffffffe_rs2val_0x0
0000f65c l       .data	00000000 I_bge_cg_cr_rs1_rs2_edges_offset_rs1val_0x7ffffffe_rs2val_0x0_str
00003cbc l       .text.rvtest	00000000 I_bge_cg_cr_rs1_rs2_edges_offset_rs1val_0x7ffffffe_rs2val_0x1
0000f6b7 l       .data	00000000 I_bge_cg_cr_rs1_rs2_edges_offset_rs1val_0x7ffffffe_rs2val_0x1_str
00003d14 l       .text.rvtest	00000000 I_bge_cg_cr_rs1_rs2_edges_offset_rs1val_0x7ffffffe_rs2val_0x2
0000f712 l       .data	00000000 I_bge_cg_cr_rs1_rs2_edges_offset_rs1val_0x7ffffffe_rs2val_0x2_str
00003d6c l       .text.rvtest	00000000 I_bge_cg_cr_rs1_rs2_edges_offset_rs1val_0x7ffffffe_rs2val_0x80000000
0000f76d l       .data	00000000 I_bge_cg_cr_rs1_rs2_edges_offset_rs1val_0x7ffffffe_rs2val_0x80000000_str
00003dc4 l       .text.rvtest	00000000 I_bge_cg_cr_rs1_rs2_edges_offset_rs1val_0x7ffffffe_rs2val_0x80000001
0000f7cf l       .data	00000000 I_bge_cg_cr_rs1_rs2_edges_offset_rs1val_0x7ffffffe_rs2val_0x80000001_str
00003e1c l       .text.rvtest	00000000 I_bge_cg_cr_rs1_rs2_edges_offset_rs1val_0x7ffffffe_rs2val_0x7fffffff
0000f831 l       .data	00000000 I_bge_cg_cr_rs1_rs2_edges_offset_rs1val_0x7ffffffe_rs2val_0x7fffffff_str
00003e74 l       .text.rvtest	00000000 I_bge_cg_cr_rs1_rs2_edges_offset_rs1val_0x7ffffffe_rs2val_0x7ffffffe
0000f893 l       .data	00000000 I_bge_cg_cr_rs1_rs2_edges_offset_rs1val_0x7ffffffe_rs2val_0x7ffffffe_str
00003ecc l       .text.rvtest	00000000 I_bge_cg_cr_rs1_rs2_edges_offset_rs1val_0x7ffffffe_rs2val_0xffffffff
0000f8f5 l       .data	00000000 I_bge_cg_cr_rs1_rs2_edges_offset_rs1val_0x7ffffffe_rs2val_0xffffffff_str
00003f24 l       .text.rvtest	00000000 I_bge_cg_cr_rs1_rs2_edges_offset_rs1val_0x7ffffffe_rs2val_0xfffffffe
0000f957 l       .data	00000000 I_bge_cg_cr_rs1_rs2_edges_offset_rs1val_0x7ffffffe_rs2val_0xfffffffe_str
00003f7c l       .text.rvtest	00000000 I_bge_cg_cr_rs1_rs2_edges_offset_rs1val_0x7ffffffe_rs2val_0x5bbc8872
0000f9b9 l       .data	00000000 I_bge_cg_cr_rs1_rs2_edges_offset_rs1val_0x7ffffffe_rs2val_0x5bbc8872_str
00003fd4 l       .text.rvtest	00000000 I_bge_cg_cr_rs1_rs2_edges_offset_rs1val_0x7ffffffe_rs2val_0xaaaaaaaa
0000fa1b l       .data	00000000 I_bge_cg_cr_rs1_rs2_edges_offset_rs1val_0x7ffffffe_rs2val_0xaaaaaaaa_str
0000402c l       .text.rvtest	00000000 I_bge_cg_cr_rs1_rs2_edges_offset_rs1val_0x7ffffffe_rs2val_0x55555555
0000fa7d l       .data	00000000 I_bge_cg_cr_rs1_rs2_edges_offset_rs1val_0x7ffffffe_rs2val_0x55555555_str
00004084 l       .text.rvtest	00000000 I_bge_cg_cr_rs1_rs2_edges_offset_rs1val_0xffffffff_rs2val_0x0
0000fadf l       .data	00000000 I_bge_cg_cr_rs1_rs2_edges_offset_rs1val_0xffffffff_rs2val_0x0_str
000040dc l       .text.rvtest	00000000 I_bge_cg_cr_rs1_rs2_edges_offset_rs1val_0xffffffff_rs2val_0x1
0000fb3a l       .data	00000000 I_bge_cg_cr_rs1_rs2_edges_offset_rs1val_0xffffffff_rs2val_0x1_str
00004134 l       .text.rvtest	00000000 I_bge_cg_cr_rs1_rs2_edges_offset_rs1val_0xffffffff_rs2val_0x2
0000fb95 l       .data	00000000 I_bge_cg_cr_rs1_rs2_edges_offset_rs1val_0xffffffff_rs2val_0x2_str
0000418c l       .text.rvtest	00000000 I_bge_cg_cr_rs1_rs2_edges_offset_rs1val_0xffffffff_rs2val_0x80000000
0000fbf0 l       .data	00000000 I_bge_cg_cr_rs1_rs2_edges_offset_rs1val_0xffffffff_rs2val_0x80000000_str
000041e4 l       .text.rvtest	00000000 I_bge_cg_cr_rs1_rs2_edges_offset_rs1val_0xffffffff_rs2val_0x80000001
0000fc52 l       .data	00000000 I_bge_cg_cr_rs1_rs2_edges_offset_rs1val_0xffffffff_rs2val_0x80000001_str
0000423c l       .text.rvtest	00000000 I_bge_cg_cr_rs1_rs2_edges_offset_rs1val_0xffffffff_rs2val_0x7fffffff
0000fcb4 l       .data	00000000 I_bge_cg_cr_rs1_rs2_edges_offset_rs1val_0xffffffff_rs2val_0x7fffffff_str
00004294 l       .text.rvtest	00000000 I_bge_cg_cr_rs1_rs2_edges_offset_rs1val_0xffffffff_rs2val_0x7ffffffe
0000fd16 l       .data	00000000 I_bge_cg_cr_rs1_rs2_edges_offset_rs1val_0xffffffff_rs2val_0x7ffffffe_str
000042ec l       .text.rvtest	00000000 I_bge_cg_cr_rs1_rs2_edges_offset_rs1val_0xffffffff_rs2val_0xffffffff
0000fd78 l       .data	00000000 I_bge_cg_cr_rs1_rs2_edges_offset_rs1val_0xffffffff_rs2val_0xffffffff_str
00004344 l       .text.rvtest	00000000 I_bge_cg_cr_rs1_rs2_edges_offset_rs1val_0xffffffff_rs2val_0xfffffffe
0000fdda l       .data	00000000 I_bge_cg_cr_rs1_rs2_edges_offset_rs1val_0xffffffff_rs2val_0xfffffffe_str
0000439c l       .text.rvtest	00000000 I_bge_cg_cr_rs1_rs2_edges_offset_rs1val_0xffffffff_rs2val_0x5bbc8872
0000fe3c l       .data	00000000 I_bge_cg_cr_rs1_rs2_edges_offset_rs1val_0xffffffff_rs2val_0x5bbc8872_str
000043f4 l       .text.rvtest	00000000 I_bge_cg_cr_rs1_rs2_edges_offset_rs1val_0xffffffff_rs2val_0xaaaaaaaa
0000fe9e l       .data	00000000 I_bge_cg_cr_rs1_rs2_edges_offset_rs1val_0xffffffff_rs2val_0xaaaaaaaa_str
0000444c l       .text.rvtest	00000000 I_bge_cg_cr_rs1_rs2_edges_offset_rs1val_0xffffffff_rs2val_0x55555555
0000ff00 l       .data	00000000 I_bge_cg_cr_rs1_rs2_edges_offset_rs1val_0xffffffff_rs2val_0x55555555_str
000044a4 l       .text.rvtest	00000000 I_bge_cg_cr_rs1_rs2_edges_offset_rs1val_0xfffffffe_rs2val_0x0
0000ff62 l       .data	00000000 I_bge_cg_cr_rs1_rs2_edges_offset_rs1val_0xfffffffe_rs2val_0x0_str
000044fc l       .text.rvtest	00000000 I_bge_cg_cr_rs1_rs2_edges_offset_rs1val_0xfffffffe_rs2val_0x1
0000ffbd l       .data	00000000 I_bge_cg_cr_rs1_rs2_edges_offset_rs1val_0xfffffffe_rs2val_0x1_str
00004554 l       .text.rvtest	00000000 I_bge_cg_cr_rs1_rs2_edges_offset_rs1val_0xfffffffe_rs2val_0x2
00010018 l       .data	00000000 I_bge_cg_cr_rs1_rs2_edges_offset_rs1val_0xfffffffe_rs2val_0x2_str
000045ac l       .text.rvtest	00000000 I_bge_cg_cr_rs1_rs2_edges_offset_rs1val_0xfffffffe_rs2val_0x80000000
00010073 l       .data	00000000 I_bge_cg_cr_rs1_rs2_edges_offset_rs1val_0xfffffffe_rs2val_0x80000000_str
00004604 l       .text.rvtest	00000000 I_bge_cg_cr_rs1_rs2_edges_offset_rs1val_0xfffffffe_rs2val_0x80000001
000100d5 l       .data	00000000 I_bge_cg_cr_rs1_rs2_edges_offset_rs1val_0xfffffffe_rs2val_0x80000001_str
0000465c l       .text.rvtest	00000000 I_bge_cg_cr_rs1_rs2_edges_offset_rs1val_0xfffffffe_rs2val_0x7fffffff
00010137 l       .data	00000000 I_bge_cg_cr_rs1_rs2_edges_offset_rs1val_0xfffffffe_rs2val_0x7fffffff_str
000046b4 l       .text.rvtest	00000000 I_bge_cg_cr_rs1_rs2_edges_offset_rs1val_0xfffffffe_rs2val_0x7ffffffe
00010199 l       .data	00000000 I_bge_cg_cr_rs1_rs2_edges_offset_rs1val_0xfffffffe_rs2val_0x7ffffffe_str
0000470c l       .text.rvtest	00000000 I_bge_cg_cr_rs1_rs2_edges_offset_rs1val_0xfffffffe_rs2val_0xffffffff
000101fb l       .data	00000000 I_bge_cg_cr_rs1_rs2_edges_offset_rs1val_0xfffffffe_rs2val_0xffffffff_str
00004764 l       .text.rvtest	00000000 I_bge_cg_cr_rs1_rs2_edges_offset_rs1val_0xfffffffe_rs2val_0xfffffffe
0001025d l       .data	00000000 I_bge_cg_cr_rs1_rs2_edges_offset_rs1val_0xfffffffe_rs2val_0xfffffffe_str
000047bc l       .text.rvtest	00000000 I_bge_cg_cr_rs1_rs2_edges_offset_rs1val_0xfffffffe_rs2val_0x5bbc8872
000102bf l       .data	00000000 I_bge_cg_cr_rs1_rs2_edges_offset_rs1val_0xfffffffe_rs2val_0x5bbc8872_str
00004814 l       .text.rvtest	00000000 I_bge_cg_cr_rs1_rs2_edges_offset_rs1val_0xfffffffe_rs2val_0xaaaaaaaa
00010321 l       .data	00000000 I_bge_cg_cr_rs1_rs2_edges_offset_rs1val_0xfffffffe_rs2val_0xaaaaaaaa_str
0000486c l       .text.rvtest	00000000 I_bge_cg_cr_rs1_rs2_edges_offset_rs1val_0xfffffffe_rs2val_0x55555555
00010383 l       .data	00000000 I_bge_cg_cr_rs1_rs2_edges_offset_rs1val_0xfffffffe_rs2val_0x55555555_str
000048c4 l       .text.rvtest	00000000 I_bge_cg_cr_rs1_rs2_edges_offset_rs1val_0x5bbc8872_rs2val_0x0
000103e5 l       .data	00000000 I_bge_cg_cr_rs1_rs2_edges_offset_rs1val_0x5bbc8872_rs2val_0x0_str
0000491c l       .text.rvtest	00000000 I_bge_cg_cr_rs1_rs2_edges_offset_rs1val_0x5bbc8872_rs2val_0x1
00010440 l       .data	00000000 I_bge_cg_cr_rs1_rs2_edges_offset_rs1val_0x5bbc8872_rs2val_0x1_str
00004974 l       .text.rvtest	00000000 I_bge_cg_cr_rs1_rs2_edges_offset_rs1val_0x5bbc8872_rs2val_0x2
0001049b l       .data	00000000 I_bge_cg_cr_rs1_rs2_edges_offset_rs1val_0x5bbc8872_rs2val_0x2_str
000049cc l       .text.rvtest	00000000 I_bge_cg_cr_rs1_rs2_edges_offset_rs1val_0x5bbc8872_rs2val_0x80000000
000104f6 l       .data	00000000 I_bge_cg_cr_rs1_rs2_edges_offset_rs1val_0x5bbc8872_rs2val_0x80000000_str
00004a24 l       .text.rvtest	00000000 I_bge_cg_cr_rs1_rs2_edges_offset_rs1val_0x5bbc8872_rs2val_0x80000001
00010558 l       .data	00000000 I_bge_cg_cr_rs1_rs2_edges_offset_rs1val_0x5bbc8872_rs2val_0x80000001_str
00004a7c l       .text.rvtest	00000000 I_bge_cg_cr_rs1_rs2_edges_offset_rs1val_0x5bbc8872_rs2val_0x7fffffff
000105ba l       .data	00000000 I_bge_cg_cr_rs1_rs2_edges_offset_rs1val_0x5bbc8872_rs2val_0x7fffffff_str
00004ad4 l       .text.rvtest	00000000 I_bge_cg_cr_rs1_rs2_edges_offset_rs1val_0x5bbc8872_rs2val_0x7ffffffe
0001061c l       .data	00000000 I_bge_cg_cr_rs1_rs2_edges_offset_rs1val_0x5bbc8872_rs2val_0x7ffffffe_str
00004b2c l       .text.rvtest	00000000 I_bge_cg_cr_rs1_rs2_edges_offset_rs1val_0x5bbc8872_rs2val_0xffffffff
0001067e l       .data	00000000 I_bge_cg_cr_rs1_rs2_edges_offset_rs1val_0x5bbc8872_rs2val_0xffffffff_str
00004b84 l       .text.rvtest	00000000 I_bge_cg_cr_rs1_rs2_edges_offset_rs1val_0x5bbc8872_rs2val_0xfffffffe
000106e0 l       .data	00000000 I_bge_cg_cr_rs1_rs2_edges_offset_rs1val_0x5bbc8872_rs2val_0xfffffffe_str
00004bdc l       .text.rvtest	00000000 I_bge_cg_cr_rs1_rs2_edges_offset_rs1val_0x5bbc8872_rs2val_0x5bbc8872
00010742 l       .data	00000000 I_bge_cg_cr_rs1_rs2_edges_offset_rs1val_0x5bbc8872_rs2val_0x5bbc8872_str
00004c34 l       .text.rvtest	00000000 I_bge_cg_cr_rs1_rs2_edges_offset_rs1val_0x5bbc8872_rs2val_0xaaaaaaaa
000107a4 l       .data	00000000 I_bge_cg_cr_rs1_rs2_edges_offset_rs1val_0x5bbc8872_rs2val_0xaaaaaaaa_str
00004c8c l       .text.rvtest	00000000 I_bge_cg_cr_rs1_rs2_edges_offset_rs1val_0x5bbc8872_rs2val_0x55555555
00010806 l       .data	00000000 I_bge_cg_cr_rs1_rs2_edges_offset_rs1val_0x5bbc8872_rs2val_0x55555555_str
00004ce4 l       .text.rvtest	00000000 I_bge_cg_cr_rs1_rs2_edges_offset_rs1val_0xaaaaaaaa_rs2val_0x0
00010868 l       .data	00000000 I_bge_cg_cr_rs1_rs2_edges_offset_rs1val_0xaaaaaaaa_rs2val_0x0_str
00004d3c l       .text.rvtest	00000000 I_bge_cg_cr_rs1_rs2_edges_offset_rs1val_0xaaaaaaaa_rs2val_0x1
000108c3 l       .data	00000000 I_bge_cg_cr_rs1_rs2_edges_offset_rs1val_0xaaaaaaaa_rs2val_0x1_str
00004d94 l       .text.rvtest	00000000 I_bge_cg_cr_rs1_rs2_edges_offset_rs1val_0xaaaaaaaa_rs2val_0x2
0001091e l       .data	00000000 I_bge_cg_cr_rs1_rs2_edges_offset_rs1val_0xaaaaaaaa_rs2val_0x2_str
00004dec l       .text.rvtest	00000000 I_bge_cg_cr_rs1_rs2_edges_offset_rs1val_0xaaaaaaaa_rs2val_0x80000000
00010979 l       .data	00000000 I_bge_cg_cr_rs1_rs2_edges_offset_rs1val_0xaaaaaaaa_rs2val_0x80000000_str
00004e44 l       .text.rvtest	00000000 I_bge_cg_cr_rs1_rs2_edges_offset_rs1val_0xaaaaaaaa_rs2val_0x80000001
000109db l       .data	00000000 I_bge_cg_cr_rs1_rs2_edges_offset_rs1val_0xaaaaaaaa_rs2val_0x80000001_str
00004e9c l       .text.rvtest	00000000 I_bge_cg_cr_rs1_rs2_edges_offset_rs1val_0xaaaaaaaa_rs2val_0x7fffffff
00010a3d l       .data	00000000 I_bge_cg_cr_rs1_rs2_edges_offset_rs1val_0xaaaaaaaa_rs2val_0x7fffffff_str
00004ef4 l       .text.rvtest	00000000 I_bge_cg_cr_rs1_rs2_edges_offset_rs1val_0xaaaaaaaa_rs2val_0x7ffffffe
00010a9f l       .data	00000000 I_bge_cg_cr_rs1_rs2_edges_offset_rs1val_0xaaaaaaaa_rs2val_0x7ffffffe_str
00004f4c l       .text.rvtest	00000000 I_bge_cg_cr_rs1_rs2_edges_offset_rs1val_0xaaaaaaaa_rs2val_0xffffffff
00010b01 l       .data	00000000 I_bge_cg_cr_rs1_rs2_edges_offset_rs1val_0xaaaaaaaa_rs2val_0xffffffff_str
00004fa4 l       .text.rvtest	00000000 I_bge_cg_cr_rs1_rs2_edges_offset_rs1val_0xaaaaaaaa_rs2val_0xfffffffe
00010b63 l       .data	00000000 I_bge_cg_cr_rs1_rs2_edges_offset_rs1val_0xaaaaaaaa_rs2val_0xfffffffe_str
00004ffc l       .text.rvtest	00000000 I_bge_cg_cr_rs1_rs2_edges_offset_rs1val_0xaaaaaaaa_rs2val_0x5bbc8872
00010bc5 l       .data	00000000 I_bge_cg_cr_rs1_rs2_edges_offset_rs1val_0xaaaaaaaa_rs2val_0x5bbc8872_str
00005054 l       .text.rvtest	00000000 I_bge_cg_cr_rs1_rs2_edges_offset_rs1val_0xaaaaaaaa_rs2val_0xaaaaaaaa
00010c27 l       .data	00000000 I_bge_cg_cr_rs1_rs2_edges_offset_rs1val_0xaaaaaaaa_rs2val_0xaaaaaaaa_str
000050ac l       .text.rvtest	00000000 I_bge_cg_cr_rs1_rs2_edges_offset_rs1val_0xaaaaaaaa_rs2val_0x55555555
00010c89 l       .data	00000000 I_bge_cg_cr_rs1_rs2_edges_offset_rs1val_0xaaaaaaaa_rs2val_0x55555555_str
00005104 l       .text.rvtest	00000000 I_bge_cg_cr_rs1_rs2_edges_offset_rs1val_0x55555555_rs2val_0x0
00010ceb l       .data	00000000 I_bge_cg_cr_rs1_rs2_edges_offset_rs1val_0x55555555_rs2val_0x0_str
0000515c l       .text.rvtest	00000000 I_bge_cg_cr_rs1_rs2_edges_offset_rs1val_0x55555555_rs2val_0x1
00010d46 l       .data	00000000 I_bge_cg_cr_rs1_rs2_edges_offset_rs1val_0x55555555_rs2val_0x1_str
000051b4 l       .text.rvtest	00000000 I_bge_cg_cr_rs1_rs2_edges_offset_rs1val_0x55555555_rs2val_0x2
00010da1 l       .data	00000000 I_bge_cg_cr_rs1_rs2_edges_offset_rs1val_0x55555555_rs2val_0x2_str
0000520c l       .text.rvtest	00000000 I_bge_cg_cr_rs1_rs2_edges_offset_rs1val_0x55555555_rs2val_0x80000000
00010dfc l       .data	00000000 I_bge_cg_cr_rs1_rs2_edges_offset_rs1val_0x55555555_rs2val_0x80000000_str
00005264 l       .text.rvtest	00000000 I_bge_cg_cr_rs1_rs2_edges_offset_rs1val_0x55555555_rs2val_0x80000001
00010e5e l       .data	00000000 I_bge_cg_cr_rs1_rs2_edges_offset_rs1val_0x55555555_rs2val_0x80000001_str
000052bc l       .text.rvtest	00000000 I_bge_cg_cr_rs1_rs2_edges_offset_rs1val_0x55555555_rs2val_0x7fffffff
00010ec0 l       .data	00000000 I_bge_cg_cr_rs1_rs2_edges_offset_rs1val_0x55555555_rs2val_0x7fffffff_str
00005314 l       .text.rvtest	00000000 I_bge_cg_cr_rs1_rs2_edges_offset_rs1val_0x55555555_rs2val_0x7ffffffe
00010f22 l       .data	00000000 I_bge_cg_cr_rs1_rs2_edges_offset_rs1val_0x55555555_rs2val_0x7ffffffe_str
0000536c l       .text.rvtest	00000000 I_bge_cg_cr_rs1_rs2_edges_offset_rs1val_0x55555555_rs2val_0xffffffff
00010f84 l       .data	00000000 I_bge_cg_cr_rs1_rs2_edges_offset_rs1val_0x55555555_rs2val_0xffffffff_str
000053c4 l       .text.rvtest	00000000 I_bge_cg_cr_rs1_rs2_edges_offset_rs1val_0x55555555_rs2val_0xfffffffe
00010fe6 l       .data	00000000 I_bge_cg_cr_rs1_rs2_edges_offset_rs1val_0x55555555_rs2val_0xfffffffe_str
0000541c l       .text.rvtest	00000000 I_bge_cg_cr_rs1_rs2_edges_offset_rs1val_0x55555555_rs2val_0x5bbc8872
00011048 l       .data	00000000 I_bge_cg_cr_rs1_rs2_edges_offset_rs1val_0x55555555_rs2val_0x5bbc8872_str
00005474 l       .text.rvtest	00000000 I_bge_cg_cr_rs1_rs2_edges_offset_rs1val_0x55555555_rs2val_0xaaaaaaaa
000110aa l       .data	00000000 I_bge_cg_cr_rs1_rs2_edges_offset_rs1val_0x55555555_rs2val_0xaaaaaaaa_str
000054cc l       .text.rvtest	00000000 I_bge_cg_cr_rs1_rs2_edges_offset_rs1val_0x55555555_rs2val_0x55555555
0001110c l       .data	00000000 I_bge_cg_cr_rs1_rs2_edges_offset_rs1val_0x55555555_rs2val_0x55555555_str
0000552c l       .text.rvtest	00000000 I_bge_cg_cmp_rs1_rs2_b0
0001116e l       .data	00000000 I_bge_cg_cmp_rs1_rs2_b0_str
00005564 l       .text.rvtest	00000000 I_bge_cg_cmp_rs1_rs2_b1
000111a2 l       .data	00000000 I_bge_cg_cmp_rs1_rs2_b1_str
0000559c l       .text.rvtest	00000000 I_bge_cg_cmp_rs1_rs2_b2
000111d6 l       .data	00000000 I_bge_cg_cmp_rs1_rs2_b2_str
000055d4 l       .text.rvtest	00000000 I_bge_cg_cmp_rs1_rs2_b3
0001120a l       .data	00000000 I_bge_cg_cmp_rs1_rs2_b3_str
00005614 l       .text.rvtest	00000000 I_bge_cg_cmp_rs1_rs2_b4
0001123e l       .data	00000000 I_bge_cg_cmp_rs1_rs2_b4_str
0000564c l       .text.rvtest	00000000 I_bge_cg_cmp_rs1_rs2_b5
00011272 l       .data	00000000 I_bge_cg_cmp_rs1_rs2_b5_str
00005684 l       .text.rvtest	00000000 I_bge_cg_cmp_rs1_rs2_b6
000112a6 l       .data	00000000 I_bge_cg_cmp_rs1_rs2_b6_str
000056bc l       .text.rvtest	00000000 I_bge_cg_cmp_rs1_rs2_b7
000112da l       .data	00000000 I_bge_cg_cmp_rs1_rs2_b7_str
000056f4 l       .text.rvtest	00000000 I_bge_cg_cmp_rs1_rs2_b8
0001130e l       .data	00000000 I_bge_cg_cmp_rs1_rs2_b8_str
0000572c l       .text.rvtest	00000000 I_bge_cg_cmp_rs1_rs2_b9
00011342 l       .data	00000000 I_bge_cg_cmp_rs1_rs2_b9_str
00005764 l       .text.rvtest	00000000 I_bge_cg_cmp_rs1_rs2_b10
00011376 l       .data	00000000 I_bge_cg_cmp_rs1_rs2_b10_str
0000579c l       .text.rvtest	00000000 I_bge_cg_cmp_rs1_rs2_b11
000113ab l       .data	00000000 I_bge_cg_cmp_rs1_rs2_b11_str
000057d4 l       .text.rvtest	00000000 I_bge_cg_cmp_rs1_rs2_b12
000113e0 l       .data	00000000 I_bge_cg_cmp_rs1_rs2_b12_str
00005814 l       .text.rvtest	00000000 I_bge_cg_cmp_rs1_rs2_b13
00011415 l       .data	00000000 I_bge_cg_cmp_rs1_rs2_b13_str
0000584c l       .text.rvtest	00000000 I_bge_cg_cmp_rs1_rs2_b14
0001144a l       .data	00000000 I_bge_cg_cmp_rs1_rs2_b14_str
00005888 l       .text.rvtest	00000000 I_bge_cg_cmp_rs1_rs2_b15
0001147f l       .data	00000000 I_bge_cg_cmp_rs1_rs2_b15_str
000058c0 l       .text.rvtest	00000000 I_bge_cg_cmp_rs1_rs2_b16
000114b4 l       .data	00000000 I_bge_cg_cmp_rs1_rs2_b16_str
000058f8 l       .text.rvtest	00000000 I_bge_cg_cmp_rs1_rs2_b17
000114e9 l       .data	00000000 I_bge_cg_cmp_rs1_rs2_b17_str
00005930 l       .text.rvtest	00000000 I_bge_cg_cmp_rs1_rs2_b18
0001151e l       .data	00000000 I_bge_cg_cmp_rs1_rs2_b18_str
00005968 l       .text.rvtest	00000000 I_bge_cg_cmp_rs1_rs2_b19
00011553 l       .data	00000000 I_bge_cg_cmp_rs1_rs2_b19_str
000059a0 l       .text.rvtest	00000000 I_bge_cg_cmp_rs1_rs2_b20
00011588 l       .data	00000000 I_bge_cg_cmp_rs1_rs2_b20_str
000059d8 l       .text.rvtest	00000000 I_bge_cg_cmp_rs1_rs2_b21
000115bd l       .data	00000000 I_bge_cg_cmp_rs1_rs2_b21_str
00005a10 l       .text.rvtest	00000000 I_bge_cg_cmp_rs1_rs2_b22
000115f2 l       .data	00000000 I_bge_cg_cmp_rs1_rs2_b22_str
00005a4c l       .text.rvtest	00000000 I_bge_cg_cmp_rs1_rs2_b23
00011627 l       .data	00000000 I_bge_cg_cmp_rs1_rs2_b23_str
00005a88 l       .text.rvtest	00000000 I_bge_cg_cmp_rs1_rs2_b24
0001165c l       .data	00000000 I_bge_cg_cmp_rs1_rs2_b24_str
00005ac4 l       .text.rvtest	00000000 I_bge_cg_cmp_rs1_rs2_b25
00011691 l       .data	00000000 I_bge_cg_cmp_rs1_rs2_b25_str
00005afc l       .text.rvtest	00000000 I_bge_cg_cmp_rs1_rs2_b26
000116c6 l       .data	00000000 I_bge_cg_cmp_rs1_rs2_b26_str
00005b34 l       .text.rvtest	00000000 I_bge_cg_cmp_rs1_rs2_b27
000116fb l       .data	00000000 I_bge_cg_cmp_rs1_rs2_b27_str
00005b6c l       .text.rvtest	00000000 I_bge_cg_cmp_rs1_rs2_b28
00011730 l       .data	00000000 I_bge_cg_cmp_rs1_rs2_b28_str
00005ba4 l       .text.rvtest	00000000 I_bge_cg_cmp_rs1_rs2_b29
00011765 l       .data	00000000 I_bge_cg_cmp_rs1_rs2_b29_str
00005bdc l       .text.rvtest	00000000 I_bge_cg_cmp_rs1_rs2_b30
0001179a l       .data	00000000 I_bge_cg_cmp_rs1_rs2_b30_str
00005c14 l       .text.rvtest	00000000 I_bge_cg_cmp_rs1_rs2_b31
000117cf l       .data	00000000 I_bge_cg_cmp_rs1_rs2_b31_str
00005c50 l       .text.rvtest	00000000 I_bge_cg_cp_offset_neg
00011804 l       .data	00000000 I_bge_cg_cp_offset_neg_str
00005c80 l       .text.rvtest	00000000 I_bge_cg_cp_imm_edges_branch_all
00011837 l       .data	00000000 I_bge_cg_cp_imm_edges_branch_all_str
0000a02c l       .text.rvtest	00000000 exit_cleanup
00011ee4 l       .data	00000000 successstr
00023204 l       .text.rvmodel	00000000 rvmodel_io_write_str
00023208 l       .text.rvmodel	00000000 rvmodel_halt_pass
0000a070 l       .text.rvtest	00000000 abort_test
00011880 l       .data	00000000 begin_failure_scratch
0000a140 l       .text.rvtest	00000000 failedtest_saveregs
0000a0e4 l       .text.rvtest	00000000 failedtest_trap_x7_x9
000119f0 l       .data	00000000 saved_mcause
000119f8 l       .data	00000000 saved_mtval
00011a00 l       .data	00000000 saved_mstatus
0000a1b0 l       .text.rvtest	00000000 failedtest_saveresults
00011880 l       .data	00000000 failure_type
0000a22c l       .text.rvtest	00000000 failedtest_saveresults_trap
0000a1c0 l       .text.rvtest	00000000 failedtest_saveresults_int
0000a600 l       .text.rvtest	00000000 failedtest_saveresults_common
000119d8 l       .data	00000000 trap_diag_fail_str_ptr
000120aa l       .data	00000000 trap_sig_offset_mismatch
0000a4e0 l       .text.rvtest	00000000 trap_diag_offset_mismatch
000119b0 l       .data	00000000 trap_diag_subtype
0001210e l       .data	00000000 sv_Mvect_str
0000a560 l       .text.rvtest	00000000 trap_diag_field_identified
00012210 l       .data	00000000 sv_Mcause_str
0001230b l       .data	00000000 sv_Mepc_str
000123fe l       .data	00000000 sv_Mtval_str
00012571 l       .data	00000000 sv_Mip_str
000124f5 l       .data	00000000 sv_Mtval2_str
00012533 l       .data	00000000 sv_Mtinst_str
0001214e l       .data	00000000 sv_Svect_str
0001224e l       .data	00000000 sv_Scause_str
00012347 l       .data	00000000 sv_Sepc_str
0001243b l       .data	00000000 sv_Stval_str
000125ac l       .data	00000000 sv_Sip_str
0001218e l       .data	00000000 sv_Hvect_str
0001228c l       .data	00000000 sv_Hcause_str
00012383 l       .data	00000000 sv_Hepc_str
00012478 l       .data	00000000 sv_Htval_str
000125e7 l       .data	00000000 sv_Hip_str
000121cf l       .data	00000000 sv_Vvect_str
000122cb l       .data	00000000 sv_Vcause_str
000123c0 l       .data	00000000 sv_Vepc_str
000124b6 l       .data	00000000 sv_Vtval_str
00012623 l       .data	00000000 sv_Vip_str
00012660 l       .data	00000000 Mclr_Mext_int_str
000126af l       .data	00000000 Mclr_Sext_int_str
000127aa l       .data	00000000 Sclr_Sext_int_str
000128a6 l       .data	00000000 Hclr_Sext_int_str
0000a5f0 l       .text.rvtest	00000000 trap_diag_generic_report
000119c8 l       .data	00000000 trap_diag_actual_offset
000119d0 l       .data	00000000 trap_diag_expected_offset
000119b4 l       .data	00000000 trap_diag_mode
000119b8 l       .data	00000000 trap_diag_actual_value
000119c0 l       .data	00000000 trap_diag_expected_value
0000a630 l       .text.rvtest	00000000 failedtest_report
0000a630 l       .text.rvtest	00000000 print_failstr
00011f1a l       .data	00000000 failstr
0000a668 l       .text.rvtest	00000000 print_testnamestr
00011fad l       .data	00000000 testnamestr
0000a6a8 l       .text.rvtest	00000000 print_failure_test_name_str
000119a0 l       .data	00000000 failure_string_ptr
0000a6b8 l       .text.rvtest	00000000 print_newline_str
00011fbf l       .data	00000000 newlinestr
0000aaec l       .text.rvtest	00000000 failedtest_report_trap_detailed
00011fc1 l       .data	00000000 inststr
00011980 l       .data	00000000 failing_instruction
0000ba38 l       .text.rvtest	00000000 failedtest_hex_to_str
00011a08 l       .data	00000000 ascii_buffer
00011fd5 l       .data	00000000 addrstr
00011988 l       .data	00000000 failing_addr
00012a52 l       .data	00000000 regstr
0000a898 l       .text.rvtest	00000000 failedtest_report_not_intreg
00011984 l       .data	00000000 failing_reg
0000bab4 l       .text.rvtest	00000000 failedtest_dec_to_str
0000a974 l       .text.rvtest	00000000 failedtest_report_print_regstr
0000a8ec l       .text.rvtest	00000000 failedtest_report_fpreg
0000a938 l       .text.rvtest	00000000 failedtest_report_vecreg
00012ab2 l       .data	00000000 fflagsstr
0000a9a8 l       .text.rvtest	00000000 failedtest_report_after_reg
00012a63 l       .data	00000000 badvalstr
0000aa0c l       .text.rvtest	00000000 failedtest_report_badval_not_fp
00011990 l       .data	00000000 failing_value
0000aa1c l       .text.rvtest	00000000 failedtest_report_badval_done
00012a7a l       .data	00000000 expvalstr
0000aaac l       .text.rvtest	00000000 failedtest_report_expval_not_fp
00011998 l       .data	00000000 expected_value
0000aabc l       .text.rvtest	00000000 failedtest_report_expval_done
0000b7e4 l       .text.rvtest	00000000 failedtest_report_end
00012ade l       .data	00000000 trap_diag_header_str
00012b0a l       .data	00000000 trap_diag_origstr_label
0000abc0 l       .text.rvtest	00000000 trap_report_offset_mismatch
0000b670 l       .text.rvtest	00000000 trap_report_generic
0000af34 l       .text.rvtest	00000000 trap_report_field_mismatch
00012b1a l       .data	00000000 trap_diag_count_mismatch_str
00012b7b l       .data	00000000 trap_diag_expected_offset_str
00012ba2 l       .data	00000000 trap_diag_actual_offset_str
0000ae14 l       .text.rvtest	00000000 trap_report_missing_traps
0000acfc l       .text.rvtest	00000000 trap_report_extra_traps
00012bc9 l       .data	00000000 trap_diag_extra_traps_str
00012c4e l       .data	00000000 trap_diag_extra_bytes_str
00012c79 l       .data	00000000 trap_diag_extra_hint_str
0000b830 l       .text.rvtest	00000000 failedtest_print_csr_context
00012c03 l       .data	00000000 trap_diag_missing_traps_str
00012d61 l       .data	00000000 trap_diag_missing_hint_str
00012e48 l       .data	00000000 trap_diag_handler_mode_str
0000afc4 l       .text.rvtest	00000000 trap_mode_m
0000b004 l       .text.rvtest	00000000 trap_mode_s
0000b044 l       .text.rvtest	00000000 trap_mode_h
0000b084 l       .text.rvtest	00000000 trap_mode_v
00012e84 l       .data	00000000 trap_diag_mode_unknown_str
0000b0c0 l       .text.rvtest	00000000 trap_mode_print
00012e62 l       .data	00000000 trap_diag_mode_m_str
00012e6a l       .data	00000000 trap_diag_mode_s_str
00012e72 l       .data	00000000 trap_diag_mode_hs_str
00012e7b l       .data	00000000 trap_diag_mode_vs_str
00012e8d l       .data	00000000 trap_diag_field_str
0000b184 l       .text.rvtest	00000000 trap_field_vect
0000b1c4 l       .text.rvtest	00000000 trap_field_cause
0000b204 l       .text.rvtest	00000000 trap_field_epc
0000b244 l       .text.rvtest	00000000 trap_field_tval
0000b284 l       .text.rvtest	00000000 trap_field_ip
0000b2c4 l       .text.rvtest	00000000 trap_field_tval2
0000b304 l       .text.rvtest	00000000 trap_field_tinst
0000b344 l       .text.rvtest	00000000 trap_field_intid
00012fe4 l       .data	00000000 trap_diag_field_unknown_str
0000b380 l       .text.rvtest	00000000 trap_field_print
00012ea7 l       .data	00000000 trap_diag_field_vect_str
00012ed8 l       .data	00000000 trap_diag_field_cause_str
00012ef8 l       .data	00000000 trap_diag_field_epc_str
00012f16 l       .data	00000000 trap_diag_field_tval_str
00012f35 l       .data	00000000 trap_diag_field_ip_str
00012f5d l       .data	00000000 trap_diag_field_tval2_str
00012f89 l       .data	00000000 trap_diag_field_tinst_str
00012fb5 l       .data	00000000 trap_diag_field_intid_str
00012ff3 l       .data	00000000 trap_diag_expected_str
0001300a l       .data	00000000 trap_diag_actual_str
0000b51c l       .text.rvtest	00000000 trap_field_not_cause
00013021 l       .data	00000000 trap_diag_expected_cause_name_str
0000b754 l       .text.rvtest	00000000 trap_cause_to_str
00013038 l       .data	00000000 trap_diag_actual_cause_name_str
0000b51c l       .text.rvtest	00000000 trap_field_not_epc
000130ae l       .data	00000000 trap_diag_hint_vect_str
00013184 l       .data	00000000 trap_diag_hint_cause_str
00013277 l       .data	00000000 trap_diag_hint_epc_str
00013372 l       .data	00000000 trap_diag_hint_tval_str
00013459 l       .data	00000000 trap_diag_hint_ip_str
00013066 l       .data	00000000 trap_diag_generic_str
000119e8 l       .data	00000000 saved_mepc
00012049 l       .data	00000000 xepcinstrstr
0000b778 l       .text.rvtest	00000000 trap_cause_interrupt
0000b758 l       .text.rvtest	00000000 trap_cause_exception
0000b7a4 l       .text.rvtest	00000000 trap_cause_unknown
00011a30 l       .data	00000000 trap_excpt_name_tbl
00011a90 l       .data	00000000 trap_int_name_tbl
00011ece l       .data	00000000 trap_cause_unknown_str
00012a91 l       .data	00000000 endstr
0000b828 l       .text.rvtest	00000000 failedtest_terminate
00023214 l       .text.rvmodel	00000000 rvmodel_halt_fail
000119e0 l       .data	00000000 csr_context_ret_addr
0001206a l       .data	00000000 mepcstr
0001207a l       .data	00000000 mcausestr
0001208a l       .data	00000000 mtvalstr
0001209a l       .data	00000000 mstatusstr
0000ba78 l       .text.rvtest	00000000 failedtest_hex_to_str_loop
0000ba94 l       .text.rvtest	00000000 failedtest_hex_to_str_digit
0000ba98 l       .text.rvtest	00000000 failedtest_hex_to_str_write
00023000 l       .text.rvmodel	00000000 rvtest_boot_to_mmode
00023000 l       .text.rvmodel	00000000 rvtest_init_regs
00013540 l       .data	00000000 signature_base
000231a0 l       .text.rvmodel	00000000 canary_check
00012aba l       .data	00000000 canary_mismatch
0000c000 l       .data	00000000 scratch
00011a30 l       .data	00000000 end_failure_scratch
00011ad0 l       .data	00000000 trap_excpt_name_0
00011af0 l       .data	00000000 trap_excpt_name_1
00011b0a l       .data	00000000 trap_excpt_name_2
00011b1f l       .data	00000000 trap_excpt_name_3
00011b2b l       .data	00000000 trap_excpt_name_4
00011b44 l       .data	00000000 trap_excpt_name_5
00011b57 l       .data	00000000 trap_excpt_name_6
00011b75 l       .data	00000000 trap_excpt_name_7
00011b8d l       .data	00000000 trap_excpt_name_8
00011bab l       .data	00000000 trap_excpt_name_9
00011bc9 l       .data	00000000 trap_excpt_name_10
00011be8 l       .data	00000000 trap_excpt_name_11
00011c06 l       .data	00000000 trap_excpt_name_12
00011c1e l       .data	00000000 trap_excpt_name_13
00011c2f l       .data	00000000 trap_excpt_name_14
00011c3e l       .data	00000000 trap_excpt_name_15
00011c54 l       .data	00000000 trap_excpt_name_16
00011c61 l       .data	00000000 trap_excpt_name_17
00011c70 l       .data	00000000 trap_excpt_name_18
00011c80 l       .data	00000000 trap_excpt_name_19
00011c90 l       .data	00000000 trap_excpt_name_20
00011cae l       .data	00000000 trap_excpt_name_21
00011cc5 l       .data	00000000 trap_excpt_name_22
00011cda l       .data	00000000 trap_excpt_name_23
00011cf6 l       .data	00000000 trap_int_name_0
00011d0e l       .data	00000000 trap_int_name_1
00011d2d l       .data	00000000 trap_int_name_2
00011d54 l       .data	00000000 trap_int_name_3
00011d70 l       .data	00000000 trap_int_name_4
00011d88 l       .data	00000000 trap_int_name_5
00011da4 l       .data	00000000 trap_int_name_6
00011dc8 l       .data	00000000 trap_int_name_7
00011de1 l       .data	00000000 trap_int_name_8
00011df9 l       .data	00000000 trap_int_name_9
00011e18 l       .data	00000000 trap_int_name_10
00011e3f l       .data	00000000 trap_int_name_11
00011e5b l       .data	00000000 trap_int_name_12
00011e80 l       .data	00000000 trap_int_name_13
00011e9c l       .data	00000000 trap_int_name_14
00011eb5 l       .data	00000000 trap_int_name_15
00011f6f l       .data	00000000 abortstr
00012016 l       .data	00000000 xepcstr
00012701 l       .data	00000000 Mclr_Vext_int_str
0001275b l       .data	00000000 Sclr_Mext_int_str
000127fc l       .data	00000000 Sclr_Vext_int_str
00012856 l       .data	00000000 Hclr_Mext_int_str
000128f9 l       .data	00000000 Hclr_Vext_int_str
00012954 l       .data	00000000 Vclr_Mext_int_str
000129a4 l       .data	00000000 Vclr_Sext_int_str
000129f7 l       .data	00000000 Vclr_Vext_int_str
0001304f l       .data	00000000 trap_diag_curr_xepc_str
00013bd8 l       .data	00000000 trap_sigptr
00022640 g       .data	00000000 end_signature
00022640 g       .data	00000000 rvtest_sig_end
00000000 g       .text.init	00000000 rvtest_entry_point
00013540 g       .data	00000000 begin_signature
0000a02c g       .text.rvtest	00000000 rvtest_code_end
00001000 g       .text.rvtest	00000000 rvtest_code_begin
00013540 g       .data	00000000 rvtest_sig_begin
0000c110 g       .data	00000000 rvtest_data_begin
0001353e g       .data	00000000 rvtest_data_end
0000a02c g       .text.rvtest	00000000 cleanup_epilogs
00024000 g       .text.rvmodel	00000000 _end



Disassembly of section .text.init:

00000000 <rvtest_entry_point>:

// Include framework macros
#include "riscv_arch_test.h"

// Set up test environment and declare main entry point
RVTEST_BEGIN
   0:	00023097          	auipc	x1,0x23
   4:	00008093          	addi	x1,x1,0 # 23000 <rvmodel_boot>
   8:	00000013          	addi	x0,x0,0
   c:	00000013          	addi	x0,x0,0
  10:	00000013          	addi	x0,x0,0
  14:	00000013          	addi	x0,x0,0
  18:	00000013          	addi	x0,x0,0
  1c:	00000013          	addi	x0,x0,0
  20:	000080e7          	jalr	x1,0(x1)
  24:	00000013          	addi	x0,x0,0
  28:	00000013          	addi	x0,x0,0
  2c:	00000013          	addi	x0,x0,0
  30:	00000013          	addi	x0,x0,0
  34:	00000013          	addi	x0,x0,0
  38:	00000013          	addi	x0,x0,0
  3c:	00000013          	addi	x0,x0,0

Disassembly of section .text.rvtest:

00001000 <rvtest_code_begin>:
/////////////////////////////////
// cp_rs1
/////////////////////////////////

# Testcase cp_rs1 (Test source rs1 = x0)
  RVTEST_TESTDATA_LOAD_INT(x3, x0) # load rs1: x0 = 0xa579d099
    1000:	0001a003          	lw	x0,0(x3)
    1004:	00418193          	addi	x3,x3,4
  RVTEST_TESTDATA_LOAD_INT(x3, x15) # load rs2: x15 = 0x0b4a5bf3
    1008:	0001a783          	lw	x15,0(x3)
    100c:	00418193          	addi	x3,x3,4
  RVTEST_TESTDATA_LOAD_INT(x3, x1) # load branch taken value: x1 = 0x936c7387
    1010:	0001a083          	lw	x1,0(x3)
    1014:	00418193          	addi	x3,x3,4

00001018 <I_bge_cg_cp_rs1_b0>:
I_bge_cg_cp_rs1_b0:
  bge x0, x15, 1f # perform operation
    1018:	00f05463          	bge	x0,x15,1020 <I_bge_cg_cp_rs1_b0+0x8>
  LI(x1, -1) # branch not taken, set temp_reg to 0
    101c:	fff00093          	addi	x1,x0,-1
1:
  # Check if x1 contains the expected result. x2 is the signature ptr, x5 is the link ptr, x4 is a temp reg.
  RVTEST_SIGUPD(x2, x5, x4, x1, I_bge_cg_cp_rs1_b0, I_bge_cg_cp_rs1_b0_str)
    1020:	00012203          	lw	x4,0(x2)
    1024:	00120863          	beq	x4,x1,1034 <I_bge_cg_cp_rs1_b0+0x1c>
    1028:	054092ef          	jal	x5,a07c <failedtest_x5_x4>
    102c:	00001018          	.word	0x00001018
    1030:	0000cb38          	.word	0x0000cb38
    1034:	00410113          	addi	x2,x2,4

# Testcase cp_rs1 (Test source rs1 = x1)
  RVTEST_TESTDATA_LOAD_INT(x3, x1) # load rs1: x1 = 0x40762d46
    1038:	0001a083          	lw	x1,0(x3)
    103c:	00418193          	addi	x3,x3,4
  RVTEST_TESTDATA_LOAD_INT(x3, x19) # load rs2: x19 = 0x72165370
    1040:	0001a983          	lw	x19,0(x3)
    1044:	00418193          	addi	x3,x3,4
  RVTEST_TESTDATA_LOAD_INT(x3, x8) # load branch taken value: x8 = 0xf425c0c3
    1048:	0001a403          	lw	x8,0(x3)
    104c:	00418193          	addi	x3,x3,4

00001050 <I_bge_cg_cp_rs1_b1>:
I_bge_cg_cp_rs1_b1:
  bge x1, x19, 1f # perform operation
    1050:	0130d463          	bge	x1,x19,1058 <I_bge_cg_cp_rs1_b1+0x8>
  LI(x8, -1) # branch not taken, set temp_reg to 0
    1054:	fff00413          	addi	x8,x0,-1
1:
  # Check if x8 contains the expected result. x2 is the signature ptr, x5 is the link ptr, x4 is a temp reg.
  RVTEST_SIGUPD(x2, x5, x4, x8, I_bge_cg_cp_rs1_b1, I_bge_cg_cp_rs1_b1_str)
    1058:	00012203          	lw	x4,0(x2)
    105c:	00820863          	beq	x4,x8,106c <I_bge_cg_cp_rs1_b1+0x1c>
    1060:	01c092ef          	jal	x5,a07c <failedtest_x5_x4>
    1064:	00001050          	.word	0x00001050
    1068:	0000cb65          	.word	0x0000cb65
    106c:	00410113          	addi	x2,x2,4

  mv x15, x2 # switch signature pointer register to avoid conflict with test
    1070:	00010793          	addi	x15,x2,0
# Testcase cp_rs1 (Test source rs1 = x2)
  RVTEST_TESTDATA_LOAD_INT(x3, x2) # load rs1: x2 = 0x4d6321bc
    1074:	0001a103          	lw	x2,0(x3)
    1078:	00418193          	addi	x3,x3,4
  RVTEST_TESTDATA_LOAD_INT(x3, x25) # load rs2: x25 = 0x59275bf0
    107c:	0001ac83          	lw	x25,0(x3)
    1080:	00418193          	addi	x3,x3,4
  RVTEST_TESTDATA_LOAD_INT(x3, x28) # load branch taken value: x28 = 0xf6cfc3bc
    1084:	0001ae03          	lw	x28,0(x3)
    1088:	00418193          	addi	x3,x3,4

0000108c <I_bge_cg_cp_rs1_b2>:
I_bge_cg_cp_rs1_b2:
  bge x2, x25, 1f # perform operation
    108c:	01915463          	bge	x2,x25,1094 <I_bge_cg_cp_rs1_b2+0x8>
  LI(x28, -1) # branch not taken, set temp_reg to 0
    1090:	fff00e13          	addi	x28,x0,-1
1:
  # Check if x28 contains the expected result. x15 is the signature ptr, x5 is the link ptr, x4 is a temp reg.
  RVTEST_SIGUPD(x15, x5, x4, x28, I_bge_cg_cp_rs1_b2, I_bge_cg_cp_rs1_b2_str)
    1094:	0007a203          	lw	x4,0(x15)
    1098:	01c20863          	beq	x4,x28,10a8 <I_bge_cg_cp_rs1_b2+0x1c>
    109c:	7e1082ef          	jal	x5,a07c <failedtest_x5_x4>
    10a0:	0000108c          	.word	0x0000108c
    10a4:	0000cb92          	.word	0x0000cb92
    10a8:	00478793          	addi	x15,x15,4

  mv x10, x3 # switch data pointer register to avoid conflict with test
    10ac:	00018513          	addi	x10,x3,0
# Testcase cp_rs1 (Test source rs1 = x3)
  RVTEST_TESTDATA_LOAD_INT(x10, x3) # load rs1: x3 = 0x9c84ff98
    10b0:	00052183          	lw	x3,0(x10)
    10b4:	00450513          	addi	x10,x10,4
  RVTEST_TESTDATA_LOAD_INT(x10, x9) # load rs2: x9 = 0xd1384eeb
    10b8:	00052483          	lw	x9,0(x10)
    10bc:	00450513          	addi	x10,x10,4
  RVTEST_TESTDATA_LOAD_INT(x10, x28) # load branch taken value: x28 = 0x6d5156be
    10c0:	00052e03          	lw	x28,0(x10)
    10c4:	00450513          	addi	x10,x10,4

000010c8 <I_bge_cg_cp_rs1_b3>:
I_bge_cg_cp_rs1_b3:
  bge x3, x9, 1f # perform operation
    10c8:	0091d463          	bge	x3,x9,10d0 <I_bge_cg_cp_rs1_b3+0x8>
  LI(x28, -1) # branch not taken, set temp_reg to 0
    10cc:	fff00e13          	addi	x28,x0,-1
1:
  # Check if x28 contains the expected result. x15 is the signature ptr, x5 is the link ptr, x4 is a temp reg.
  RVTEST_SIGUPD(x15, x5, x4, x28, I_bge_cg_cp_rs1_b3, I_bge_cg_cp_rs1_b3_str)
    10d0:	0007a203          	lw	x4,0(x15)
    10d4:	01c20863          	beq	x4,x28,10e4 <I_bge_cg_cp_rs1_b3+0x1c>
    10d8:	7a5082ef          	jal	x5,a07c <failedtest_x5_x4>
    10dc:	000010c8          	.word	0x000010c8
    10e0:	0000cbbf          	.word	0x0000cbbf
    10e4:	00478793          	addi	x15,x15,4

  mv x7, x4 # switch temp register to avoid conflict with test
    10e8:	00020393          	addi	x7,x4,0 # 0 <rvtest_entry_point>
  mv x8, x5 # switch link pointer register to avoid conflict with test
    10ec:	00028413          	addi	x8,x5,0
# Testcase cp_rs1 (Test source rs1 = x4)
  RVTEST_TESTDATA_LOAD_INT(x10, x4) # load rs1: x4 = 0x6a3df9ae
    10f0:	00052203          	lw	x4,0(x10)
    10f4:	00450513          	addi	x10,x10,4
  RVTEST_TESTDATA_LOAD_INT(x10, x3) # load rs2: x3 = 0xa2afd4ce
    10f8:	00052183          	lw	x3,0(x10)
    10fc:	00450513          	addi	x10,x10,4
  RVTEST_TESTDATA_LOAD_INT(x10, x20) # load branch taken value: x20 = 0xad1f56a1
    1100:	00052a03          	lw	x20,0(x10)
    1104:	00450513          	addi	x10,x10,4

00001108 <I_bge_cg_cp_rs1_b4>:
I_bge_cg_cp_rs1_b4:
  bge x4, x3, 1f # perform operation
    1108:	00325463          	bge	x4,x3,1110 <I_bge_cg_cp_rs1_b4+0x8>
  LI(x20, -1) # branch not taken, set temp_reg to 0
    110c:	fff00a13          	addi	x20,x0,-1
1:
  # Check if x20 contains the expected result. x15 is the signature ptr, x8 is the link ptr, x7 is a temp reg.
  RVTEST_SIGUPD(x15, x8, x7, x20, I_bge_cg_cp_rs1_b4, I_bge_cg_cp_rs1_b4_str)
    1110:	0007a383          	lw	x7,0(x15)
    1114:	01438863          	beq	x7,x20,1124 <I_bge_cg_cp_rs1_b4+0x1c>
    1118:	77d0846f          	jal	x8,a094 <failedtest_x8_x7>
    111c:	00001108          	.word	0x00001108
    1120:	0000cbec          	.word	0x0000cbec
    1124:	00478793          	addi	x15,x15,4

# Testcase cp_rs1 (Test source rs1 = x5)
  RVTEST_TESTDATA_LOAD_INT(x10, x5) # load rs1: x5 = 0xeca59bc7
    1128:	00052283          	lw	x5,0(x10)
    112c:	00450513          	addi	x10,x10,4
  RVTEST_TESTDATA_LOAD_INT(x10, x6) # load rs2: x6 = 0xd605e4b1
    1130:	00052303          	lw	x6,0(x10)
    1134:	00450513          	addi	x10,x10,4
  RVTEST_TESTDATA_LOAD_INT(x10, x26) # load branch taken value: x26 = 0xa6768108
    1138:	00052d03          	lw	x26,0(x10)
    113c:	00450513          	addi	x10,x10,4

00001140 <I_bge_cg_cp_rs1_b5>:
I_bge_cg_cp_rs1_b5:
  bge x5, x6, 1f # perform operation
    1140:	0062d463          	bge	x5,x6,1148 <I_bge_cg_cp_rs1_b5+0x8>
  LI(x26, -1) # branch not taken, set temp_reg to 0
    1144:	fff00d13          	addi	x26,x0,-1
1:
  # Check if x26 contains the expected result. x15 is the signature ptr, x8 is the link ptr, x7 is a temp reg.
  RVTEST_SIGUPD(x15, x8, x7, x26, I_bge_cg_cp_rs1_b5, I_bge_cg_cp_rs1_b5_str)
    1148:	0007a383          	lw	x7,0(x15)
    114c:	01a38863          	beq	x7,x26,115c <I_bge_cg_cp_rs1_b5+0x1c>
    1150:	7450846f          	jal	x8,a094 <failedtest_x8_x7>
    1154:	00001140          	.word	0x00001140
    1158:	0000cc19          	.word	0x0000cc19
    115c:	00478793          	addi	x15,x15,4

# Testcase cp_rs1 (Test source rs1 = x6)
  RVTEST_TESTDATA_LOAD_INT(x10, x6) # load rs1: x6 = 0x8ceb7dcc
    1160:	00052303          	lw	x6,0(x10)
    1164:	00450513          	addi	x10,x10,4
  RVTEST_TESTDATA_LOAD_INT(x10, x26) # load rs2: x26 = 0x894ae2a1
    1168:	00052d03          	lw	x26,0(x10)
    116c:	00450513          	addi	x10,x10,4
  RVTEST_TESTDATA_LOAD_INT(x10, x3) # load branch taken value: x3 = 0x5faaf7c6
    1170:	00052183          	lw	x3,0(x10)
    1174:	00450513          	addi	x10,x10,4

00001178 <I_bge_cg_cp_rs1_b6>:
I_bge_cg_cp_rs1_b6:
  bge x6, x26, 1f # perform operation
    1178:	01a35463          	bge	x6,x26,1180 <I_bge_cg_cp_rs1_b6+0x8>
  LI(x3, -1) # branch not taken, set temp_reg to 0
    117c:	fff00193          	addi	x3,x0,-1
1:
  # Check if x3 contains the expected result. x15 is the signature ptr, x8 is the link ptr, x7 is a temp reg.
  RVTEST_SIGUPD(x15, x8, x7, x3, I_bge_cg_cp_rs1_b6, I_bge_cg_cp_rs1_b6_str)
    1180:	0007a383          	lw	x7,0(x15)
    1184:	00338863          	beq	x7,x3,1194 <I_bge_cg_cp_rs1_b6+0x1c>
    1188:	70d0846f          	jal	x8,a094 <failedtest_x8_x7>
    118c:	00001178          	.word	0x00001178
    1190:	0000cc46          	.word	0x0000cc46
    1194:	00478793          	addi	x15,x15,4

  mv x4, x7 # switch temp register to avoid conflict with test
    1198:	00038213          	addi	x4,x7,0
  mv x5, x8 # switch link pointer register to avoid conflict with test
    119c:	00040293          	addi	x5,x8,0
# Testcase cp_rs1 (Test source rs1 = x7)
  RVTEST_TESTDATA_LOAD_INT(x10, x7) # load rs1: x7 = 0x020128c8
    11a0:	00052383          	lw	x7,0(x10)
    11a4:	00450513          	addi	x10,x10,4
  RVTEST_TESTDATA_LOAD_INT(x10, x19) # load rs2: x19 = 0xa79fb7de
    11a8:	00052983          	lw	x19,0(x10)
    11ac:	00450513          	addi	x10,x10,4
  RVTEST_TESTDATA_LOAD_INT(x10, x29) # load branch taken value: x29 = 0x025e853d
    11b0:	00052e83          	lw	x29,0(x10)
    11b4:	00450513          	addi	x10,x10,4

000011b8 <I_bge_cg_cp_rs1_b7>:
I_bge_cg_cp_rs1_b7:
  bge x7, x19, 1f # perform operation
    11b8:	0133d463          	bge	x7,x19,11c0 <I_bge_cg_cp_rs1_b7+0x8>
  LI(x29, -1) # branch not taken, set temp_reg to 0
    11bc:	fff00e93          	addi	x29,x0,-1
1:
  # Check if x29 contains the expected result. x15 is the signature ptr, x5 is the link ptr, x4 is a temp reg.
  RVTEST_SIGUPD(x15, x5, x4, x29, I_bge_cg_cp_rs1_b7, I_bge_cg_cp_rs1_b7_str)
    11c0:	0007a203          	lw	x4,0(x15)
    11c4:	01d20863          	beq	x4,x29,11d4 <I_bge_cg_cp_rs1_b7+0x1c>
    11c8:	6b5082ef          	jal	x5,a07c <failedtest_x5_x4>
    11cc:	000011b8          	.word	0x000011b8
    11d0:	0000cc73          	.word	0x0000cc73
    11d4:	00478793          	addi	x15,x15,4

# Testcase cp_rs1 (Test source rs1 = x8)
  RVTEST_TESTDATA_LOAD_INT(x10, x8) # load rs1: x8 = 0xaadc0c76
    11d8:	00052403          	lw	x8,0(x10)
    11dc:	00450513          	addi	x10,x10,4
  RVTEST_TESTDATA_LOAD_INT(x10, x3) # load rs2: x3 = 0xfd822c47
    11e0:	00052183          	lw	x3,0(x10)
    11e4:	00450513          	addi	x10,x10,4
  RVTEST_TESTDATA_LOAD_INT(x10, x9) # load branch taken value: x9 = 0xf45e385a
    11e8:	00052483          	lw	x9,0(x10)
    11ec:	00450513          	addi	x10,x10,4

000011f0 <I_bge_cg_cp_rs1_b8>:
I_bge_cg_cp_rs1_b8:
  bge x8, x3, 1f # perform operation
    11f0:	00345463          	bge	x8,x3,11f8 <I_bge_cg_cp_rs1_b8+0x8>
  LI(x9, -1) # branch not taken, set temp_reg to 0
    11f4:	fff00493          	addi	x9,x0,-1
1:
  # Check if x9 contains the expected result. x15 is the signature ptr, x5 is the link ptr, x4 is a temp reg.
  RVTEST_SIGUPD(x15, x5, x4, x9, I_bge_cg_cp_rs1_b8, I_bge_cg_cp_rs1_b8_str)
    11f8:	0007a203          	lw	x4,0(x15)
    11fc:	00920863          	beq	x4,x9,120c <I_bge_cg_cp_rs1_b8+0x1c>
    1200:	67d082ef          	jal	x5,a07c <failedtest_x5_x4>
    1204:	000011f0          	.word	0x000011f0
    1208:	0000cca0          	.word	0x0000cca0
    120c:	00478793          	addi	x15,x15,4

# Testcase cp_rs1 (Test source rs1 = x9)
  RVTEST_TESTDATA_LOAD_INT(x10, x9) # load rs1: x9 = 0x0c746b9b
    1210:	00052483          	lw	x9,0(x10)
    1214:	00450513          	addi	x10,x10,4
  RVTEST_TESTDATA_LOAD_INT(x10, x22) # load rs2: x22 = 0x4e8a0fcd
    1218:	00052b03          	lw	x22,0(x10)
    121c:	00450513          	addi	x10,x10,4
  RVTEST_TESTDATA_LOAD_INT(x10, x24) # load branch taken value: x24 = 0x2b7b7d45
    1220:	00052c03          	lw	x24,0(x10)
    1224:	00450513          	addi	x10,x10,4

00001228 <I_bge_cg_cp_rs1_b9>:
I_bge_cg_cp_rs1_b9:
  bge x9, x22, 1f # perform operation
    1228:	0164d463          	bge	x9,x22,1230 <I_bge_cg_cp_rs1_b9+0x8>
  LI(x24, -1) # branch not taken, set temp_reg to 0
    122c:	fff00c13          	addi	x24,x0,-1
1:
  # Check if x24 contains the expected result. x15 is the signature ptr, x5 is the link ptr, x4 is a temp reg.
  RVTEST_SIGUPD(x15, x5, x4, x24, I_bge_cg_cp_rs1_b9, I_bge_cg_cp_rs1_b9_str)
    1230:	0007a203          	lw	x4,0(x15)
    1234:	01820863          	beq	x4,x24,1244 <I_bge_cg_cp_rs1_b9+0x1c>
    1238:	645082ef          	jal	x5,a07c <failedtest_x5_x4>
    123c:	00001228          	.word	0x00001228
    1240:	0000cccd          	.word	0x0000cccd
    1244:	00478793          	addi	x15,x15,4

  mv x19, x10 # switch data pointer register to avoid conflict with test
    1248:	00050993          	addi	x19,x10,0
# Testcase cp_rs1 (Test source rs1 = x10)
  RVTEST_TESTDATA_LOAD_INT(x19, x10) # load rs1: x10 = 0x7e18838f
    124c:	0009a503          	lw	x10,0(x19)
    1250:	00498993          	addi	x19,x19,4
  RVTEST_TESTDATA_LOAD_INT(x19, x29) # load rs2: x29 = 0xada0cda6
    1254:	0009ae83          	lw	x29,0(x19)
    1258:	00498993          	addi	x19,x19,4
  RVTEST_TESTDATA_LOAD_INT(x19, x31) # load branch taken value: x31 = 0x9dadc193
    125c:	0009af83          	lw	x31,0(x19)
    1260:	00498993          	addi	x19,x19,4

00001264 <I_bge_cg_cp_rs1_b10>:
I_bge_cg_cp_rs1_b10:
  bge x10, x29, 1f # perform operation
    1264:	01d55463          	bge	x10,x29,126c <I_bge_cg_cp_rs1_b10+0x8>
  LI(x31, -1) # branch not taken, set temp_reg to 0
    1268:	fff00f93          	addi	x31,x0,-1
1:
  # Check if x31 contains the expected result. x15 is the signature ptr, x5 is the link ptr, x4 is a temp reg.
  RVTEST_SIGUPD(x15, x5, x4, x31, I_bge_cg_cp_rs1_b10, I_bge_cg_cp_rs1_b10_str)
    126c:	0007a203          	lw	x4,0(x15)
    1270:	01f20863          	beq	x4,x31,1280 <I_bge_cg_cp_rs1_b10+0x1c>
    1274:	609082ef          	jal	x5,a07c <failedtest_x5_x4>
    1278:	00001264          	.word	0x00001264
    127c:	0000ccfb          	.word	0x0000ccfb
    1280:	00478793          	addi	x15,x15,4

# Testcase cp_rs1 (Test source rs1 = x11)
  RVTEST_TESTDATA_LOAD_INT(x19, x11) # load rs1: x11 = 0x221e8bcf
    1284:	0009a583          	lw	x11,0(x19)
    1288:	00498993          	addi	x19,x19,4
  RVTEST_TESTDATA_LOAD_INT(x19, x22) # load rs2: x22 = 0xa9efe089
    128c:	0009ab03          	lw	x22,0(x19)
    1290:	00498993          	addi	x19,x19,4
  RVTEST_TESTDATA_LOAD_INT(x19, x12) # load branch taken value: x12 = 0xa060e396
    1294:	0009a603          	lw	x12,0(x19)
    1298:	00498993          	addi	x19,x19,4

0000129c <I_bge_cg_cp_rs1_b11>:
I_bge_cg_cp_rs1_b11:
  bge x11, x22, 1f # perform operation
    129c:	0165d463          	bge	x11,x22,12a4 <I_bge_cg_cp_rs1_b11+0x8>
  LI(x12, -1) # branch not taken, set temp_reg to 0
    12a0:	fff00613          	addi	x12,x0,-1
1:
  # Check if x12 contains the expected result. x15 is the signature ptr, x5 is the link ptr, x4 is a temp reg.
  RVTEST_SIGUPD(x15, x5, x4, x12, I_bge_cg_cp_rs1_b11, I_bge_cg_cp_rs1_b11_str)
    12a4:	0007a203          	lw	x4,0(x15)
    12a8:	00c20863          	beq	x4,x12,12b8 <I_bge_cg_cp_rs1_b11+0x1c>
    12ac:	5d1082ef          	jal	x5,a07c <failedtest_x5_x4>
    12b0:	0000129c          	.word	0x0000129c
    12b4:	0000cd2a          	.word	0x0000cd2a
    12b8:	00478793          	addi	x15,x15,4

# Testcase cp_rs1 (Test source rs1 = x12)
  RVTEST_TESTDATA_LOAD_INT(x19, x12) # load rs1: x12 = 0x42d55a0f
    12bc:	0009a603          	lw	x12,0(x19)
    12c0:	00498993          	addi	x19,x19,4
  RVTEST_TESTDATA_LOAD_INT(x19, x23) # load rs2: x23 = 0x39a9b32f
    12c4:	0009ab83          	lw	x23,0(x19)
    12c8:	00498993          	addi	x19,x19,4
  RVTEST_TESTDATA_LOAD_INT(x19, x8) # load branch taken value: x8 = 0x8e868663
    12cc:	0009a403          	lw	x8,0(x19)
    12d0:	00498993          	addi	x19,x19,4

000012d4 <I_bge_cg_cp_rs1_b12>:
I_bge_cg_cp_rs1_b12:
  bge x12, x23, 1f # perform operation
    12d4:	01765463          	bge	x12,x23,12dc <I_bge_cg_cp_rs1_b12+0x8>
  LI(x8, -1) # branch not taken, set temp_reg to 0
    12d8:	fff00413          	addi	x8,x0,-1
1:
  # Check if x8 contains the expected result. x15 is the signature ptr, x5 is the link ptr, x4 is a temp reg.
  RVTEST_SIGUPD(x15, x5, x4, x8, I_bge_cg_cp_rs1_b12, I_bge_cg_cp_rs1_b12_str)
    12dc:	0007a203          	lw	x4,0(x15)
    12e0:	00820863          	beq	x4,x8,12f0 <I_bge_cg_cp_rs1_b12+0x1c>
    12e4:	599082ef          	jal	x5,a07c <failedtest_x5_x4>
    12e8:	000012d4          	.word	0x000012d4
    12ec:	0000cd59          	.word	0x0000cd59
    12f0:	00478793          	addi	x15,x15,4

# Testcase cp_rs1 (Test source rs1 = x13)
  RVTEST_TESTDATA_LOAD_INT(x19, x13) # load rs1: x13 = 0x0ed7c3c4
    12f4:	0009a683          	lw	x13,0(x19)
    12f8:	00498993          	addi	x19,x19,4
  RVTEST_TESTDATA_LOAD_INT(x19, x30) # load rs2: x30 = 0x95608417
    12fc:	0009af03          	lw	x30,0(x19)
    1300:	00498993          	addi	x19,x19,4
  RVTEST_TESTDATA_LOAD_INT(x19, x9) # load branch taken value: x9 = 0x513716fe
    1304:	0009a483          	lw	x9,0(x19)
    1308:	00498993          	addi	x19,x19,4

0000130c <I_bge_cg_cp_rs1_b13>:
I_bge_cg_cp_rs1_b13:
  bge x13, x30, 1f # perform operation
    130c:	01e6d463          	bge	x13,x30,1314 <I_bge_cg_cp_rs1_b13+0x8>
  LI(x9, -1) # branch not taken, set temp_reg to 0
    1310:	fff00493          	addi	x9,x0,-1
1:
  # Check if x9 contains the expected result. x15 is the signature ptr, x5 is the link ptr, x4 is a temp reg.
  RVTEST_SIGUPD(x15, x5, x4, x9, I_bge_cg_cp_rs1_b13, I_bge_cg_cp_rs1_b13_str)
    1314:	0007a203          	lw	x4,0(x15)
    1318:	00920863          	beq	x4,x9,1328 <I_bge_cg_cp_rs1_b13+0x1c>
    131c:	561082ef          	jal	x5,a07c <failedtest_x5_x4>
    1320:	0000130c          	.word	0x0000130c
    1324:	0000cd88          	.word	0x0000cd88
    1328:	00478793          	addi	x15,x15,4

# Testcase cp_rs1 (Test source rs1 = x14)
  RVTEST_TESTDATA_LOAD_INT(x19, x14) # load rs1: x14 = 0xae078943
    132c:	0009a703          	lw	x14,0(x19)
    1330:	00498993          	addi	x19,x19,4
  RVTEST_TESTDATA_LOAD_INT(x19, x25) # load rs2: x25 = 0xcde5ba96
    1334:	0009ac83          	lw	x25,0(x19)
    1338:	00498993          	addi	x19,x19,4
  RVTEST_TESTDATA_LOAD_INT(x19, x18) # load branch taken value: x18 = 0x82e7c324
    133c:	0009a903          	lw	x18,0(x19)
    1340:	00498993          	addi	x19,x19,4

00001344 <I_bge_cg_cp_rs1_b14>:
I_bge_cg_cp_rs1_b14:
  bge x14, x25, 1f # perform operation
    1344:	01975463          	bge	x14,x25,134c <I_bge_cg_cp_rs1_b14+0x8>
  LI(x18, -1) # branch not taken, set temp_reg to 0
    1348:	fff00913          	addi	x18,x0,-1
1:
  # Check if x18 contains the expected result. x15 is the signature ptr, x5 is the link ptr, x4 is a temp reg.
  RVTEST_SIGUPD(x15, x5, x4, x18, I_bge_cg_cp_rs1_b14, I_bge_cg_cp_rs1_b14_str)
    134c:	0007a203          	lw	x4,0(x15)
    1350:	01220863          	beq	x4,x18,1360 <I_bge_cg_cp_rs1_b14+0x1c>
    1354:	529082ef          	jal	x5,a07c <failedtest_x5_x4>
    1358:	00001344          	.word	0x00001344
    135c:	0000cdb7          	.word	0x0000cdb7
    1360:	00478793          	addi	x15,x15,4

  mv x26, x15 # switch signature pointer register to avoid conflict with test
    1364:	00078d13          	addi	x26,x15,0
# Testcase cp_rs1 (Test source rs1 = x15)
  RVTEST_TESTDATA_LOAD_INT(x19, x15) # load rs1: x15 = 0xf368cfe5
    1368:	0009a783          	lw	x15,0(x19)
    136c:	00498993          	addi	x19,x19,4
  RVTEST_TESTDATA_LOAD_INT(x19, x3) # load rs2: x3 = 0x9347c6f4
    1370:	0009a183          	lw	x3,0(x19)
    1374:	00498993          	addi	x19,x19,4
  RVTEST_TESTDATA_LOAD_INT(x19, x23) # load branch taken value: x23 = 0x34a74212
    1378:	0009ab83          	lw	x23,0(x19)
    137c:	00498993          	addi	x19,x19,4

00001380 <I_bge_cg_cp_rs1_b15>:
I_bge_cg_cp_rs1_b15:
  bge x15, x3, 1f # perform operation
    1380:	0037d463          	bge	x15,x3,1388 <I_bge_cg_cp_rs1_b15+0x8>
  LI(x23, -1) # branch not taken, set temp_reg to 0
    1384:	fff00b93          	addi	x23,x0,-1
1:
  # Check if x23 contains the expected result. x26 is the signature ptr, x5 is the link ptr, x4 is a temp reg.
  RVTEST_SIGUPD(x26, x5, x4, x23, I_bge_cg_cp_rs1_b15, I_bge_cg_cp_rs1_b15_str)
    1388:	000d2203          	lw	x4,0(x26)
    138c:	01720863          	beq	x4,x23,139c <I_bge_cg_cp_rs1_b15+0x1c>
    1390:	4ed082ef          	jal	x5,a07c <failedtest_x5_x4>
    1394:	00001380          	.word	0x00001380
    1398:	0000cde6          	.word	0x0000cde6
    139c:	004d0d13          	addi	x26,x26,4

# Testcase cp_rs1 (Test source rs1 = x16)
  RVTEST_TESTDATA_LOAD_INT(x19, x16) # load rs1: x16 = 0x5c2041f5
    13a0:	0009a803          	lw	x16,0(x19)
    13a4:	00498993          	addi	x19,x19,4
  RVTEST_TESTDATA_LOAD_INT(x19, x12) # load rs2: x12 = 0x1de45c70
    13a8:	0009a603          	lw	x12,0(x19)
    13ac:	00498993          	addi	x19,x19,4
  RVTEST_TESTDATA_LOAD_INT(x19, x27) # load branch taken value: x27 = 0xae9df91d
    13b0:	0009ad83          	lw	x27,0(x19)
    13b4:	00498993          	addi	x19,x19,4

000013b8 <I_bge_cg_cp_rs1_b16>:
I_bge_cg_cp_rs1_b16:
  bge x16, x12, 1f # perform operation
    13b8:	00c85463          	bge	x16,x12,13c0 <I_bge_cg_cp_rs1_b16+0x8>
  LI(x27, -1) # branch not taken, set temp_reg to 0
    13bc:	fff00d93          	addi	x27,x0,-1
1:
  # Check if x27 contains the expected result. x26 is the signature ptr, x5 is the link ptr, x4 is a temp reg.
  RVTEST_SIGUPD(x26, x5, x4, x27, I_bge_cg_cp_rs1_b16, I_bge_cg_cp_rs1_b16_str)
    13c0:	000d2203          	lw	x4,0(x26)
    13c4:	01b20863          	beq	x4,x27,13d4 <I_bge_cg_cp_rs1_b16+0x1c>
    13c8:	4b5082ef          	jal	x5,a07c <failedtest_x5_x4>
    13cc:	000013b8          	.word	0x000013b8
    13d0:	0000ce15          	.word	0x0000ce15
    13d4:	004d0d13          	addi	x26,x26,4

# Testcase cp_rs1 (Test source rs1 = x17)
  RVTEST_TESTDATA_LOAD_INT(x19, x17) # load rs1: x17 = 0x320f318c
    13d8:	0009a883          	lw	x17,0(x19)
    13dc:	00498993          	addi	x19,x19,4
  RVTEST_TESTDATA_LOAD_INT(x19, x12) # load rs2: x12 = 0x1961684c
    13e0:	0009a603          	lw	x12,0(x19)
    13e4:	00498993          	addi	x19,x19,4
  RVTEST_TESTDATA_LOAD_INT(x19, x16) # load branch taken value: x16 = 0xe92199ff
    13e8:	0009a803          	lw	x16,0(x19)
    13ec:	00498993          	addi	x19,x19,4

000013f0 <I_bge_cg_cp_rs1_b17>:
I_bge_cg_cp_rs1_b17:
  bge x17, x12, 1f # perform operation
    13f0:	00c8d463          	bge	x17,x12,13f8 <I_bge_cg_cp_rs1_b17+0x8>
  LI(x16, -1) # branch not taken, set temp_reg to 0
    13f4:	fff00813          	addi	x16,x0,-1
1:
  # Check if x16 contains the expected result. x26 is the signature ptr, x5 is the link ptr, x4 is a temp reg.
  RVTEST_SIGUPD(x26, x5, x4, x16, I_bge_cg_cp_rs1_b17, I_bge_cg_cp_rs1_b17_str)
    13f8:	000d2203          	lw	x4,0(x26)
    13fc:	01020863          	beq	x4,x16,140c <I_bge_cg_cp_rs1_b17+0x1c>
    1400:	47d082ef          	jal	x5,a07c <failedtest_x5_x4>
    1404:	000013f0          	.word	0x000013f0
    1408:	0000ce44          	.word	0x0000ce44
    140c:	004d0d13          	addi	x26,x26,4

# Testcase cp_rs1 (Test source rs1 = x18)
  RVTEST_TESTDATA_LOAD_INT(x19, x18) # load rs1: x18 = 0x74fab850
    1410:	0009a903          	lw	x18,0(x19)
    1414:	00498993          	addi	x19,x19,4
  RVTEST_TESTDATA_LOAD_INT(x19, x9) # load rs2: x9 = 0xcce8ccf9
    1418:	0009a483          	lw	x9,0(x19)
    141c:	00498993          	addi	x19,x19,4
  RVTEST_TESTDATA_LOAD_INT(x19, x16) # load branch taken value: x16 = 0x34ae8a9e
    1420:	0009a803          	lw	x16,0(x19)
    1424:	00498993          	addi	x19,x19,4

00001428 <I_bge_cg_cp_rs1_b18>:
I_bge_cg_cp_rs1_b18:
  bge x18, x9, 1f # perform operation
    1428:	00995463          	bge	x18,x9,1430 <I_bge_cg_cp_rs1_b18+0x8>
  LI(x16, -1) # branch not taken, set temp_reg to 0
    142c:	fff00813          	addi	x16,x0,-1
1:
  # Check if x16 contains the expected result. x26 is the signature ptr, x5 is the link ptr, x4 is a temp reg.
  RVTEST_SIGUPD(x26, x5, x4, x16, I_bge_cg_cp_rs1_b18, I_bge_cg_cp_rs1_b18_str)
    1430:	000d2203          	lw	x4,0(x26)
    1434:	01020863          	beq	x4,x16,1444 <I_bge_cg_cp_rs1_b18+0x1c>
    1438:	445082ef          	jal	x5,a07c <failedtest_x5_x4>
    143c:	00001428          	.word	0x00001428
    1440:	0000ce73          	.word	0x0000ce73
    1444:	004d0d13          	addi	x26,x26,4

  mv x23, x19 # switch data pointer register to avoid conflict with test
    1448:	00098b93          	addi	x23,x19,0
# Testcase cp_rs1 (Test source rs1 = x19)
  RVTEST_TESTDATA_LOAD_INT(x23, x19) # load rs1: x19 = 0xe3f333e5
    144c:	000ba983          	lw	x19,0(x23)
    1450:	004b8b93          	addi	x23,x23,4
  RVTEST_TESTDATA_LOAD_INT(x23, x8) # load rs2: x8 = 0x4859a4ab
    1454:	000ba403          	lw	x8,0(x23)
    1458:	004b8b93          	addi	x23,x23,4
  RVTEST_TESTDATA_LOAD_INT(x23, x16) # load branch taken value: x16 = 0x6dc8b63e
    145c:	000ba803          	lw	x16,0(x23)
    1460:	004b8b93          	addi	x23,x23,4

00001464 <I_bge_cg_cp_rs1_b19>:
I_bge_cg_cp_rs1_b19:
  bge x19, x8, 1f # perform operation
    1464:	0089d463          	bge	x19,x8,146c <I_bge_cg_cp_rs1_b19+0x8>
  LI(x16, -1) # branch not taken, set temp_reg to 0
    1468:	fff00813          	addi	x16,x0,-1
1:
  # Check if x16 contains the expected result. x26 is the signature ptr, x5 is the link ptr, x4 is a temp reg.
  RVTEST_SIGUPD(x26, x5, x4, x16, I_bge_cg_cp_rs1_b19, I_bge_cg_cp_rs1_b19_str)
    146c:	000d2203          	lw	x4,0(x26)
    1470:	01020863          	beq	x4,x16,1480 <I_bge_cg_cp_rs1_b19+0x1c>
    1474:	409082ef          	jal	x5,a07c <failedtest_x5_x4>
    1478:	00001464          	.word	0x00001464
    147c:	0000cea2          	.word	0x0000cea2
    1480:	004d0d13          	addi	x26,x26,4

# Testcase cp_rs1 (Test source rs1 = x20)
  RVTEST_TESTDATA_LOAD_INT(x23, x20) # load rs1: x20 = 0x04800403
    1484:	000baa03          	lw	x20,0(x23)
    1488:	004b8b93          	addi	x23,x23,4
  RVTEST_TESTDATA_LOAD_INT(x23, x8) # load rs2: x8 = 0x5dc2307a
    148c:	000ba403          	lw	x8,0(x23)
    1490:	004b8b93          	addi	x23,x23,4
  RVTEST_TESTDATA_LOAD_INT(x23, x13) # load branch taken value: x13 = 0x743049db
    1494:	000ba683          	lw	x13,0(x23)
    1498:	004b8b93          	addi	x23,x23,4

0000149c <I_bge_cg_cp_rs1_b20>:
I_bge_cg_cp_rs1_b20:
  bge x20, x8, 1f # perform operation
    149c:	008a5463          	bge	x20,x8,14a4 <I_bge_cg_cp_rs1_b20+0x8>
  LI(x13, -1) # branch not taken, set temp_reg to 0
    14a0:	fff00693          	addi	x13,x0,-1
1:
  # Check if x13 contains the expected result. x26 is the signature ptr, x5 is the link ptr, x4 is a temp reg.
  RVTEST_SIGUPD(x26, x5, x4, x13, I_bge_cg_cp_rs1_b20, I_bge_cg_cp_rs1_b20_str)
    14a4:	000d2203          	lw	x4,0(x26)
    14a8:	00d20863          	beq	x4,x13,14b8 <I_bge_cg_cp_rs1_b20+0x1c>
    14ac:	3d1082ef          	jal	x5,a07c <failedtest_x5_x4>
    14b0:	0000149c          	.word	0x0000149c
    14b4:	0000ced1          	.word	0x0000ced1
    14b8:	004d0d13          	addi	x26,x26,4

# Testcase cp_rs1 (Test source rs1 = x21)
  RVTEST_TESTDATA_LOAD_INT(x23, x21) # load rs1: x21 = 0x74c83d1c
    14bc:	000baa83          	lw	x21,0(x23)
    14c0:	004b8b93          	addi	x23,x23,4
  RVTEST_TESTDATA_LOAD_INT(x23, x6) # load rs2: x6 = 0x517687af
    14c4:	000ba303          	lw	x6,0(x23)
    14c8:	004b8b93          	addi	x23,x23,4
  RVTEST_TESTDATA_LOAD_INT(x23, x20) # load branch taken value: x20 = 0xcfbf81ac
    14cc:	000baa03          	lw	x20,0(x23)
    14d0:	004b8b93          	addi	x23,x23,4

000014d4 <I_bge_cg_cp_rs1_b21>:
I_bge_cg_cp_rs1_b21:
  bge x21, x6, 1f # perform operation
    14d4:	006ad463          	bge	x21,x6,14dc <I_bge_cg_cp_rs1_b21+0x8>
  LI(x20, -1) # branch not taken, set temp_reg to 0
    14d8:	fff00a13          	addi	x20,x0,-1
1:
  # Check if x20 contains the expected result. x26 is the signature ptr, x5 is the link ptr, x4 is a temp reg.
  RVTEST_SIGUPD(x26, x5, x4, x20, I_bge_cg_cp_rs1_b21, I_bge_cg_cp_rs1_b21_str)
    14dc:	000d2203          	lw	x4,0(x26)
    14e0:	01420863          	beq	x4,x20,14f0 <I_bge_cg_cp_rs1_b21+0x1c>
    14e4:	399082ef          	jal	x5,a07c <failedtest_x5_x4>
    14e8:	000014d4          	.word	0x000014d4
    14ec:	0000cf00          	.word	0x0000cf00
    14f0:	004d0d13          	addi	x26,x26,4

# Testcase cp_rs1 (Test source rs1 = x22)
  RVTEST_TESTDATA_LOAD_INT(x23, x22) # load rs1: x22 = 0xc4ca759d
    14f4:	000bab03          	lw	x22,0(x23)
    14f8:	004b8b93          	addi	x23,x23,4
  RVTEST_TESTDATA_LOAD_INT(x23, x13) # load rs2: x13 = 0x77bb426a
    14fc:	000ba683          	lw	x13,0(x23)
    1500:	004b8b93          	addi	x23,x23,4
  RVTEST_TESTDATA_LOAD_INT(x23, x12) # load branch taken value: x12 = 0xf6e3493b
    1504:	000ba603          	lw	x12,0(x23)
    1508:	004b8b93          	addi	x23,x23,4

0000150c <I_bge_cg_cp_rs1_b22>:
I_bge_cg_cp_rs1_b22:
  bge x22, x13, 1f # perform operation
    150c:	00db5463          	bge	x22,x13,1514 <I_bge_cg_cp_rs1_b22+0x8>
  LI(x12, -1) # branch not taken, set temp_reg to 0
    1510:	fff00613          	addi	x12,x0,-1
1:
  # Check if x12 contains the expected result. x26 is the signature ptr, x5 is the link ptr, x4 is a temp reg.
  RVTEST_SIGUPD(x26, x5, x4, x12, I_bge_cg_cp_rs1_b22, I_bge_cg_cp_rs1_b22_str)
    1514:	000d2203          	lw	x4,0(x26)
    1518:	00c20863          	beq	x4,x12,1528 <I_bge_cg_cp_rs1_b22+0x1c>
    151c:	361082ef          	jal	x5,a07c <failedtest_x5_x4>
    1520:	0000150c          	.word	0x0000150c
    1524:	0000cf2f          	.word	0x0000cf2f
    1528:	004d0d13          	addi	x26,x26,4

  mv x1, x23 # switch data pointer register to avoid conflict with test
    152c:	000b8093          	addi	x1,x23,0
# Testcase cp_rs1 (Test source rs1 = x23)
  RVTEST_TESTDATA_LOAD_INT(x1, x23) # load rs1: x23 = 0xe160ab7b
    1530:	0000ab83          	lw	x23,0(x1)
    1534:	00408093          	addi	x1,x1,4
  RVTEST_TESTDATA_LOAD_INT(x1, x11) # load rs2: x11 = 0x9ac0be3e
    1538:	0000a583          	lw	x11,0(x1)
    153c:	00408093          	addi	x1,x1,4
  RVTEST_TESTDATA_LOAD_INT(x1, x24) # load branch taken value: x24 = 0x63858c0c
    1540:	0000ac03          	lw	x24,0(x1)
    1544:	00408093          	addi	x1,x1,4

00001548 <I_bge_cg_cp_rs1_b23>:
I_bge_cg_cp_rs1_b23:
  bge x23, x11, 1f # perform operation
    1548:	00bbd463          	bge	x23,x11,1550 <I_bge_cg_cp_rs1_b23+0x8>
  LI(x24, -1) # branch not taken, set temp_reg to 0
    154c:	fff00c13          	addi	x24,x0,-1
1:
  # Check if x24 contains the expected result. x26 is the signature ptr, x5 is the link ptr, x4 is a temp reg.
  RVTEST_SIGUPD(x26, x5, x4, x24, I_bge_cg_cp_rs1_b23, I_bge_cg_cp_rs1_b23_str)
    1550:	000d2203          	lw	x4,0(x26)
    1554:	01820863          	beq	x4,x24,1564 <I_bge_cg_cp_rs1_b23+0x1c>
    1558:	325082ef          	jal	x5,a07c <failedtest_x5_x4>
    155c:	00001548          	.word	0x00001548
    1560:	0000cf5e          	.word	0x0000cf5e
    1564:	004d0d13          	addi	x26,x26,4

# Testcase cp_rs1 (Test source rs1 = x24)
  RVTEST_TESTDATA_LOAD_INT(x1, x24) # load rs1: x24 = 0x6074a012
    1568:	0000ac03          	lw	x24,0(x1)
    156c:	00408093          	addi	x1,x1,4
  RVTEST_TESTDATA_LOAD_INT(x1, x17) # load rs2: x17 = 0x8c053692
    1570:	0000a883          	lw	x17,0(x1)
    1574:	00408093          	addi	x1,x1,4
  RVTEST_TESTDATA_LOAD_INT(x1, x25) # load branch taken value: x25 = 0xc2a9ddc4
    1578:	0000ac83          	lw	x25,0(x1)
    157c:	00408093          	addi	x1,x1,4

00001580 <I_bge_cg_cp_rs1_b24>:
I_bge_cg_cp_rs1_b24:
  bge x24, x17, 1f # perform operation
    1580:	011c5463          	bge	x24,x17,1588 <I_bge_cg_cp_rs1_b24+0x8>
  LI(x25, -1) # branch not taken, set temp_reg to 0
    1584:	fff00c93          	addi	x25,x0,-1
1:
  # Check if x25 contains the expected result. x26 is the signature ptr, x5 is the link ptr, x4 is a temp reg.
  RVTEST_SIGUPD(x26, x5, x4, x25, I_bge_cg_cp_rs1_b24, I_bge_cg_cp_rs1_b24_str)
    1588:	000d2203          	lw	x4,0(x26)
    158c:	01920863          	beq	x4,x25,159c <I_bge_cg_cp_rs1_b24+0x1c>
    1590:	2ed082ef          	jal	x5,a07c <failedtest_x5_x4>
    1594:	00001580          	.word	0x00001580
    1598:	0000cf8d          	.word	0x0000cf8d
    159c:	004d0d13          	addi	x26,x26,4

# Testcase cp_rs1 (Test source rs1 = x25)
  RVTEST_TESTDATA_LOAD_INT(x1, x25) # load rs1: x25 = 0xf539b405
    15a0:	0000ac83          	lw	x25,0(x1)
    15a4:	00408093          	addi	x1,x1,4
  RVTEST_TESTDATA_LOAD_INT(x1, x0) # load rs2: x0 = 0xa78241ad
    15a8:	0000a003          	lw	x0,0(x1)
    15ac:	00408093          	addi	x1,x1,4
  RVTEST_TESTDATA_LOAD_INT(x1, x31) # load branch taken value: x31 = 0x6524790d
    15b0:	0000af83          	lw	x31,0(x1)
    15b4:	00408093          	addi	x1,x1,4

000015b8 <I_bge_cg_cp_rs1_b25>:
I_bge_cg_cp_rs1_b25:
  bge x25, x0, 1f # perform operation
    15b8:	000cd463          	bge	x25,x0,15c0 <I_bge_cg_cp_rs1_b25+0x8>
  LI(x31, -1) # branch not taken, set temp_reg to 0
    15bc:	fff00f93          	addi	x31,x0,-1
1:
  # Check if x31 contains the expected result. x26 is the signature ptr, x5 is the link ptr, x4 is a temp reg.
  RVTEST_SIGUPD(x26, x5, x4, x31, I_bge_cg_cp_rs1_b25, I_bge_cg_cp_rs1_b25_str)
    15c0:	000d2203          	lw	x4,0(x26)
    15c4:	01f20863          	beq	x4,x31,15d4 <I_bge_cg_cp_rs1_b25+0x1c>
    15c8:	2b5082ef          	jal	x5,a07c <failedtest_x5_x4>
    15cc:	000015b8          	.word	0x000015b8
    15d0:	0000cfbc          	.word	0x0000cfbc
    15d4:	004d0d13          	addi	x26,x26,4

  mv x31, x26 # switch signature pointer register to avoid conflict with test
    15d8:	000d0f93          	addi	x31,x26,0
# Testcase cp_rs1 (Test source rs1 = x26)
  RVTEST_TESTDATA_LOAD_INT(x1, x26) # load rs1: x26 = 0x14580cd6
    15dc:	0000ad03          	lw	x26,0(x1)
    15e0:	00408093          	addi	x1,x1,4
  RVTEST_TESTDATA_LOAD_INT(x1, x19) # load rs2: x19 = 0xfe1edaae
    15e4:	0000a983          	lw	x19,0(x1)
    15e8:	00408093          	addi	x1,x1,4
  RVTEST_TESTDATA_LOAD_INT(x1, x25) # load branch taken value: x25 = 0x2ec44db5
    15ec:	0000ac83          	lw	x25,0(x1)
    15f0:	00408093          	addi	x1,x1,4

000015f4 <I_bge_cg_cp_rs1_b26>:
I_bge_cg_cp_rs1_b26:
  bge x26, x19, 1f # perform operation
    15f4:	013d5463          	bge	x26,x19,15fc <I_bge_cg_cp_rs1_b26+0x8>
  LI(x25, -1) # branch not taken, set temp_reg to 0
    15f8:	fff00c93          	addi	x25,x0,-1
1:
  # Check if x25 contains the expected result. x31 is the signature ptr, x5 is the link ptr, x4 is a temp reg.
  RVTEST_SIGUPD(x31, x5, x4, x25, I_bge_cg_cp_rs1_b26, I_bge_cg_cp_rs1_b26_str)
    15fc:	000fa203          	lw	x4,0(x31)
    1600:	01920863          	beq	x4,x25,1610 <I_bge_cg_cp_rs1_b26+0x1c>
    1604:	279082ef          	jal	x5,a07c <failedtest_x5_x4>
    1608:	000015f4          	.word	0x000015f4
    160c:	0000cfeb          	.word	0x0000cfeb
    1610:	004f8f93          	addi	x31,x31,4

# Testcase cp_rs1 (Test source rs1 = x27)
  RVTEST_TESTDATA_LOAD_INT(x1, x27) # load rs1: x27 = 0x8f152300
    1614:	0000ad83          	lw	x27,0(x1)
    1618:	00408093          	addi	x1,x1,4
  RVTEST_TESTDATA_LOAD_INT(x1, x23) # load rs2: x23 = 0xc297c736
    161c:	0000ab83          	lw	x23,0(x1)
    1620:	00408093          	addi	x1,x1,4
  RVTEST_TESTDATA_LOAD_INT(x1, x18) # load branch taken value: x18 = 0x5c4618cc
    1624:	0000a903          	lw	x18,0(x1)
    1628:	00408093          	addi	x1,x1,4

0000162c <I_bge_cg_cp_rs1_b27>:
I_bge_cg_cp_rs1_b27:
  bge x27, x23, 1f # perform operation
    162c:	017dd463          	bge	x27,x23,1634 <I_bge_cg_cp_rs1_b27+0x8>
  LI(x18, -1) # branch not taken, set temp_reg to 0
    1630:	fff00913          	addi	x18,x0,-1
1:
  # Check if x18 contains the expected result. x31 is the signature ptr, x5 is the link ptr, x4 is a temp reg.
  RVTEST_SIGUPD(x31, x5, x4, x18, I_bge_cg_cp_rs1_b27, I_bge_cg_cp_rs1_b27_str)
    1634:	000fa203          	lw	x4,0(x31)
    1638:	01220863          	beq	x4,x18,1648 <I_bge_cg_cp_rs1_b27+0x1c>
    163c:	241082ef          	jal	x5,a07c <failedtest_x5_x4>
    1640:	0000162c          	.word	0x0000162c
    1644:	0000d01a          	.word	0x0000d01a
    1648:	004f8f93          	addi	x31,x31,4

# Testcase cp_rs1 (Test source rs1 = x28)
  RVTEST_TESTDATA_LOAD_INT(x1, x28) # load rs1: x28 = 0x60b6ff9a
    164c:	0000ae03          	lw	x28,0(x1)
    1650:	00408093          	addi	x1,x1,4
  RVTEST_TESTDATA_LOAD_INT(x1, x9) # load rs2: x9 = 0x5bf9c9f5
    1654:	0000a483          	lw	x9,0(x1)
    1658:	00408093          	addi	x1,x1,4
  RVTEST_TESTDATA_LOAD_INT(x1, x14) # load branch taken value: x14 = 0x15aaeef8
    165c:	0000a703          	lw	x14,0(x1)
    1660:	00408093          	addi	x1,x1,4

00001664 <I_bge_cg_cp_rs1_b28>:
I_bge_cg_cp_rs1_b28:
  bge x28, x9, 1f # perform operation
    1664:	009e5463          	bge	x28,x9,166c <I_bge_cg_cp_rs1_b28+0x8>
  LI(x14, -1) # branch not taken, set temp_reg to 0
    1668:	fff00713          	addi	x14,x0,-1
1:
  # Check if x14 contains the expected result. x31 is the signature ptr, x5 is the link ptr, x4 is a temp reg.
  RVTEST_SIGUPD(x31, x5, x4, x14, I_bge_cg_cp_rs1_b28, I_bge_cg_cp_rs1_b28_str)
    166c:	000fa203          	lw	x4,0(x31)
    1670:	00e20863          	beq	x4,x14,1680 <I_bge_cg_cp_rs1_b28+0x1c>
    1674:	209082ef          	jal	x5,a07c <failedtest_x5_x4>
    1678:	00001664          	.word	0x00001664
    167c:	0000d049          	.word	0x0000d049
    1680:	004f8f93          	addi	x31,x31,4

# Testcase cp_rs1 (Test source rs1 = x29)
  RVTEST_TESTDATA_LOAD_INT(x1, x29) # load rs1: x29 = 0xd4811680
    1684:	0000ae83          	lw	x29,0(x1)
    1688:	00408093          	addi	x1,x1,4
  RVTEST_TESTDATA_LOAD_INT(x1, x24) # load rs2: x24 = 0x8b2b0fff
    168c:	0000ac03          	lw	x24,0(x1)
    1690:	00408093          	addi	x1,x1,4
  RVTEST_TESTDATA_LOAD_INT(x1, x28) # load branch taken value: x28 = 0x1b35d327
    1694:	0000ae03          	lw	x28,0(x1)
    1698:	00408093          	addi	x1,x1,4

0000169c <I_bge_cg_cp_rs1_b29>:
I_bge_cg_cp_rs1_b29:
  bge x29, x24, 1f # perform operation
    169c:	018ed463          	bge	x29,x24,16a4 <I_bge_cg_cp_rs1_b29+0x8>
  LI(x28, -1) # branch not taken, set temp_reg to 0
    16a0:	fff00e13          	addi	x28,x0,-1
1:
  # Check if x28 contains the expected result. x31 is the signature ptr, x5 is the link ptr, x4 is a temp reg.
  RVTEST_SIGUPD(x31, x5, x4, x28, I_bge_cg_cp_rs1_b29, I_bge_cg_cp_rs1_b29_str)
    16a4:	000fa203          	lw	x4,0(x31)
    16a8:	01c20863          	beq	x4,x28,16b8 <I_bge_cg_cp_rs1_b29+0x1c>
    16ac:	1d1082ef          	jal	x5,a07c <failedtest_x5_x4>
    16b0:	0000169c          	.word	0x0000169c
    16b4:	0000d078          	.word	0x0000d078
    16b8:	004f8f93          	addi	x31,x31,4

# Testcase cp_rs1 (Test source rs1 = x30)
  RVTEST_TESTDATA_LOAD_INT(x1, x30) # load rs1: x30 = 0xd730c8a7
    16bc:	0000af03          	lw	x30,0(x1)
    16c0:	00408093          	addi	x1,x1,4
  RVTEST_TESTDATA_LOAD_INT(x1, x2) # load rs2: x2 = 0x94bf32b2
    16c4:	0000a103          	lw	x2,0(x1)
    16c8:	00408093          	addi	x1,x1,4
  RVTEST_TESTDATA_LOAD_INT(x1, x22) # load branch taken value: x22 = 0xb2868a41
    16cc:	0000ab03          	lw	x22,0(x1)
    16d0:	00408093          	addi	x1,x1,4

000016d4 <I_bge_cg_cp_rs1_b30>:
I_bge_cg_cp_rs1_b30:
  bge x30, x2, 1f # perform operation
    16d4:	002f5463          	bge	x30,x2,16dc <I_bge_cg_cp_rs1_b30+0x8>
  LI(x22, -1) # branch not taken, set temp_reg to 0
    16d8:	fff00b13          	addi	x22,x0,-1
1:
  # Check if x22 contains the expected result. x31 is the signature ptr, x5 is the link ptr, x4 is a temp reg.
  RVTEST_SIGUPD(x31, x5, x4, x22, I_bge_cg_cp_rs1_b30, I_bge_cg_cp_rs1_b30_str)
    16dc:	000fa203          	lw	x4,0(x31)
    16e0:	01620863          	beq	x4,x22,16f0 <I_bge_cg_cp_rs1_b30+0x1c>
    16e4:	199082ef          	jal	x5,a07c <failedtest_x5_x4>
    16e8:	000016d4          	.word	0x000016d4
    16ec:	0000d0a7          	.word	0x0000d0a7
    16f0:	004f8f93          	addi	x31,x31,4

  mv x16, x31 # switch signature pointer register to avoid conflict with test
    16f4:	000f8813          	addi	x16,x31,0
# Testcase cp_rs1 (Test source rs1 = x31)
  RVTEST_TESTDATA_LOAD_INT(x1, x31) # load rs1: x31 = 0x9f468e18
    16f8:	0000af83          	lw	x31,0(x1)
    16fc:	00408093          	addi	x1,x1,4
  RVTEST_TESTDATA_LOAD_INT(x1, x21) # load rs2: x21 = 0x47d889bf
    1700:	0000aa83          	lw	x21,0(x1)
    1704:	00408093          	addi	x1,x1,4
  RVTEST_TESTDATA_LOAD_INT(x1, x14) # load branch taken value: x14 = 0xaa37ca12
    1708:	0000a703          	lw	x14,0(x1)
    170c:	00408093          	addi	x1,x1,4

00001710 <I_bge_cg_cp_rs1_b31>:
I_bge_cg_cp_rs1_b31:
  bge x31, x21, 1f # perform operation
    1710:	015fd463          	bge	x31,x21,1718 <I_bge_cg_cp_rs1_b31+0x8>
  LI(x14, -1) # branch not taken, set temp_reg to 0
    1714:	fff00713          	addi	x14,x0,-1
1:
  # Check if x14 contains the expected result. x16 is the signature ptr, x5 is the link ptr, x4 is a temp reg.
  RVTEST_SIGUPD(x16, x5, x4, x14, I_bge_cg_cp_rs1_b31, I_bge_cg_cp_rs1_b31_str)
    1718:	00082203          	lw	x4,0(x16)
    171c:	00e20863          	beq	x4,x14,172c <I_bge_cg_cp_rs1_b31+0x1c>
    1720:	15d082ef          	jal	x5,a07c <failedtest_x5_x4>
    1724:	00001710          	.word	0x00001710
    1728:	0000d0d6          	.word	0x0000d0d6
    172c:	00480813          	addi	x16,x16,4
/////////////////////////////////
// cp_rs2
/////////////////////////////////

# Testcase cp_rs2 (Test source rs2 = x0)
  RVTEST_TESTDATA_LOAD_INT(x1, x8) # load rs1: x8 = 0xe977b47c
    1730:	0000a403          	lw	x8,0(x1)
    1734:	00408093          	addi	x1,x1,4
  RVTEST_TESTDATA_LOAD_INT(x1, x0) # load rs2: x0 = 0x7c9a3a75
    1738:	0000a003          	lw	x0,0(x1)
    173c:	00408093          	addi	x1,x1,4
  RVTEST_TESTDATA_LOAD_INT(x1, x29) # load branch taken value: x29 = 0xc5330571
    1740:	0000ae83          	lw	x29,0(x1)
    1744:	00408093          	addi	x1,x1,4

00001748 <I_bge_cg_cp_rs2_b0>:
I_bge_cg_cp_rs2_b0:
  bge x8, x0, 1f # perform operation
    1748:	00045463          	bge	x8,x0,1750 <I_bge_cg_cp_rs2_b0+0x8>
  LI(x29, -1) # branch not taken, set temp_reg to 0
    174c:	fff00e93          	addi	x29,x0,-1
1:
  # Check if x29 contains the expected result. x16 is the signature ptr, x5 is the link ptr, x4 is a temp reg.
  RVTEST_SIGUPD(x16, x5, x4, x29, I_bge_cg_cp_rs2_b0, I_bge_cg_cp_rs2_b0_str)
    1750:	00082203          	lw	x4,0(x16)
    1754:	01d20863          	beq	x4,x29,1764 <I_bge_cg_cp_rs2_b0+0x1c>
    1758:	125082ef          	jal	x5,a07c <failedtest_x5_x4>
    175c:	00001748          	.word	0x00001748
    1760:	0000d105          	.word	0x0000d105
    1764:	00480813          	addi	x16,x16,4

  mv x26, x1 # switch data pointer register to avoid conflict with test
    1768:	00008d13          	addi	x26,x1,0
# Testcase cp_rs2 (Test source rs2 = x1)
  RVTEST_TESTDATA_LOAD_INT(x26, x28) # load rs1: x28 = 0x5e47b785
    176c:	000d2e03          	lw	x28,0(x26)
    1770:	004d0d13          	addi	x26,x26,4
  RVTEST_TESTDATA_LOAD_INT(x26, x1) # load rs2: x1 = 0x7c57a564
    1774:	000d2083          	lw	x1,0(x26)
    1778:	004d0d13          	addi	x26,x26,4
  RVTEST_TESTDATA_LOAD_INT(x26, x3) # load branch taken value: x3 = 0x00cf974e
    177c:	000d2183          	lw	x3,0(x26)
    1780:	004d0d13          	addi	x26,x26,4

00001784 <I_bge_cg_cp_rs2_b1>:
I_bge_cg_cp_rs2_b1:
  bge x28, x1, 1f # perform operation
    1784:	001e5463          	bge	x28,x1,178c <I_bge_cg_cp_rs2_b1+0x8>
  LI(x3, -1) # branch not taken, set temp_reg to 0
    1788:	fff00193          	addi	x3,x0,-1
1:
  # Check if x3 contains the expected result. x16 is the signature ptr, x5 is the link ptr, x4 is a temp reg.
  RVTEST_SIGUPD(x16, x5, x4, x3, I_bge_cg_cp_rs2_b1, I_bge_cg_cp_rs2_b1_str)
    178c:	00082203          	lw	x4,0(x16)
    1790:	00320863          	beq	x4,x3,17a0 <I_bge_cg_cp_rs2_b1+0x1c>
    1794:	0e9082ef          	jal	x5,a07c <failedtest_x5_x4>
    1798:	00001784          	.word	0x00001784
    179c:	0000d133          	.word	0x0000d133
    17a0:	00480813          	addi	x16,x16,4

# Testcase cp_rs2 (Test source rs2 = x2)
  RVTEST_TESTDATA_LOAD_INT(x26, x19) # load rs1: x19 = 0x9505e10c
    17a4:	000d2983          	lw	x19,0(x26)
    17a8:	004d0d13          	addi	x26,x26,4
  RVTEST_TESTDATA_LOAD_INT(x26, x2) # load rs2: x2 = 0xa5a85586
    17ac:	000d2103          	lw	x2,0(x26)
    17b0:	004d0d13          	addi	x26,x26,4
  RVTEST_TESTDATA_LOAD_INT(x26, x15) # load branch taken value: x15 = 0x633e977c
    17b4:	000d2783          	lw	x15,0(x26)
    17b8:	004d0d13          	addi	x26,x26,4

000017bc <I_bge_cg_cp_rs2_b2>:
I_bge_cg_cp_rs2_b2:
  bge x19, x2, 1f # perform operation
    17bc:	0029d463          	bge	x19,x2,17c4 <I_bge_cg_cp_rs2_b2+0x8>
  LI(x15, -1) # branch not taken, set temp_reg to 0
    17c0:	fff00793          	addi	x15,x0,-1
1:
  # Check if x15 contains the expected result. x16 is the signature ptr, x5 is the link ptr, x4 is a temp reg.
  RVTEST_SIGUPD(x16, x5, x4, x15, I_bge_cg_cp_rs2_b2, I_bge_cg_cp_rs2_b2_str)
    17c4:	00082203          	lw	x4,0(x16)
    17c8:	00f20863          	beq	x4,x15,17d8 <I_bge_cg_cp_rs2_b2+0x1c>
    17cc:	0b1082ef          	jal	x5,a07c <failedtest_x5_x4>
    17d0:	000017bc          	.word	0x000017bc
    17d4:	0000d161          	.word	0x0000d161
    17d8:	00480813          	addi	x16,x16,4

# Testcase cp_rs2 (Test source rs2 = x3)
  RVTEST_TESTDATA_LOAD_INT(x26, x11) # load rs1: x11 = 0x44b8c06a
    17dc:	000d2583          	lw	x11,0(x26)
    17e0:	004d0d13          	addi	x26,x26,4
  RVTEST_TESTDATA_LOAD_INT(x26, x3) # load rs2: x3 = 0xdcbb2087
    17e4:	000d2183          	lw	x3,0(x26)
    17e8:	004d0d13          	addi	x26,x26,4
  RVTEST_TESTDATA_LOAD_INT(x26, x20) # load branch taken value: x20 = 0x29874398
    17ec:	000d2a03          	lw	x20,0(x26)
    17f0:	004d0d13          	addi	x26,x26,4

000017f4 <I_bge_cg_cp_rs2_b3>:
I_bge_cg_cp_rs2_b3:
  bge x11, x3, 1f # perform operation
    17f4:	0035d463          	bge	x11,x3,17fc <I_bge_cg_cp_rs2_b3+0x8>
  LI(x20, -1) # branch not taken, set temp_reg to 0
    17f8:	fff00a13          	addi	x20,x0,-1
1:
  # Check if x20 contains the expected result. x16 is the signature ptr, x5 is the link ptr, x4 is a temp reg.
  RVTEST_SIGUPD(x16, x5, x4, x20, I_bge_cg_cp_rs2_b3, I_bge_cg_cp_rs2_b3_str)
    17fc:	00082203          	lw	x4,0(x16)
    1800:	01420863          	beq	x4,x20,1810 <I_bge_cg_cp_rs2_b3+0x1c>
    1804:	079082ef          	jal	x5,a07c <failedtest_x5_x4>
    1808:	000017f4          	.word	0x000017f4
    180c:	0000d18f          	.word	0x0000d18f
    1810:	00480813          	addi	x16,x16,4

  mv x7, x4 # switch temp register to avoid conflict with test
    1814:	00020393          	addi	x7,x4,0 # 0 <rvtest_entry_point>
  mv x8, x5 # switch link pointer register to avoid conflict with test
    1818:	00028413          	addi	x8,x5,0
# Testcase cp_rs2 (Test source rs2 = x4)
  RVTEST_TESTDATA_LOAD_INT(x26, x9) # load rs1: x9 = 0xf2299c90
    181c:	000d2483          	lw	x9,0(x26)
    1820:	004d0d13          	addi	x26,x26,4
  RVTEST_TESTDATA_LOAD_INT(x26, x4) # load rs2: x4 = 0x3cf749bd
    1824:	000d2203          	lw	x4,0(x26)
    1828:	004d0d13          	addi	x26,x26,4
  RVTEST_TESTDATA_LOAD_INT(x26, x17) # load branch taken value: x17 = 0x40189bab
    182c:	000d2883          	lw	x17,0(x26)
    1830:	004d0d13          	addi	x26,x26,4

00001834 <I_bge_cg_cp_rs2_b4>:
I_bge_cg_cp_rs2_b4:
  bge x9, x4, 1f # perform operation
    1834:	0044d463          	bge	x9,x4,183c <I_bge_cg_cp_rs2_b4+0x8>
  LI(x17, -1) # branch not taken, set temp_reg to 0
    1838:	fff00893          	addi	x17,x0,-1
1:
  # Check if x17 contains the expected result. x16 is the signature ptr, x8 is the link ptr, x7 is a temp reg.
  RVTEST_SIGUPD(x16, x8, x7, x17, I_bge_cg_cp_rs2_b4, I_bge_cg_cp_rs2_b4_str)
    183c:	00082383          	lw	x7,0(x16)
    1840:	01138863          	beq	x7,x17,1850 <I_bge_cg_cp_rs2_b4+0x1c>
    1844:	0510846f          	jal	x8,a094 <failedtest_x8_x7>
    1848:	00001834          	.word	0x00001834
    184c:	0000d1bd          	.word	0x0000d1bd
    1850:	00480813          	addi	x16,x16,4

# Testcase cp_rs2 (Test source rs2 = x5)
  RVTEST_TESTDATA_LOAD_INT(x26, x6) # load rs1: x6 = 0xc6169ca0
    1854:	000d2303          	lw	x6,0(x26)
    1858:	004d0d13          	addi	x26,x26,4
  RVTEST_TESTDATA_LOAD_INT(x26, x5) # load rs2: x5 = 0xe4fdc748
    185c:	000d2283          	lw	x5,0(x26)
    1860:	004d0d13          	addi	x26,x26,4
  RVTEST_TESTDATA_LOAD_INT(x26, x9) # load branch taken value: x9 = 0x04ccff88
    1864:	000d2483          	lw	x9,0(x26)
    1868:	004d0d13          	addi	x26,x26,4

0000186c <I_bge_cg_cp_rs2_b5>:
I_bge_cg_cp_rs2_b5:
  bge x6, x5, 1f # perform operation
    186c:	00535463          	bge	x6,x5,1874 <I_bge_cg_cp_rs2_b5+0x8>
  LI(x9, -1) # branch not taken, set temp_reg to 0
    1870:	fff00493          	addi	x9,x0,-1
1:
  # Check if x9 contains the expected result. x16 is the signature ptr, x8 is the link ptr, x7 is a temp reg.
  RVTEST_SIGUPD(x16, x8, x7, x9, I_bge_cg_cp_rs2_b5, I_bge_cg_cp_rs2_b5_str)
    1874:	00082383          	lw	x7,0(x16)
    1878:	00938863          	beq	x7,x9,1888 <I_bge_cg_cp_rs2_b5+0x1c>
    187c:	0190846f          	jal	x8,a094 <failedtest_x8_x7>
    1880:	0000186c          	.word	0x0000186c
    1884:	0000d1eb          	.word	0x0000d1eb
    1888:	00480813          	addi	x16,x16,4

# Testcase cp_rs2 (Test source rs2 = x6)
  RVTEST_TESTDATA_LOAD_INT(x26, x25) # load rs1: x25 = 0xf59075bc
    188c:	000d2c83          	lw	x25,0(x26)
    1890:	004d0d13          	addi	x26,x26,4
  RVTEST_TESTDATA_LOAD_INT(x26, x6) # load rs2: x6 = 0xeaadffc0
    1894:	000d2303          	lw	x6,0(x26)
    1898:	004d0d13          	addi	x26,x26,4
  RVTEST_TESTDATA_LOAD_INT(x26, x28) # load branch taken value: x28 = 0x7d866e3c
    189c:	000d2e03          	lw	x28,0(x26)
    18a0:	004d0d13          	addi	x26,x26,4

000018a4 <I_bge_cg_cp_rs2_b6>:
I_bge_cg_cp_rs2_b6:
  bge x25, x6, 1f # perform operation
    18a4:	006cd463          	bge	x25,x6,18ac <I_bge_cg_cp_rs2_b6+0x8>
  LI(x28, -1) # branch not taken, set temp_reg to 0
    18a8:	fff00e13          	addi	x28,x0,-1
1:
  # Check if x28 contains the expected result. x16 is the signature ptr, x8 is the link ptr, x7 is a temp reg.
  RVTEST_SIGUPD(x16, x8, x7, x28, I_bge_cg_cp_rs2_b6, I_bge_cg_cp_rs2_b6_str)
    18ac:	00082383          	lw	x7,0(x16)
    18b0:	01c38863          	beq	x7,x28,18c0 <I_bge_cg_cp_rs2_b6+0x1c>
    18b4:	7e00846f          	jal	x8,a094 <failedtest_x8_x7>
    18b8:	000018a4          	.word	0x000018a4
    18bc:	0000d219          	.word	0x0000d219
    18c0:	00480813          	addi	x16,x16,4

  mv x13, x7 # switch temp register to avoid conflict with test
    18c4:	00038693          	addi	x13,x7,0
  mv x14, x8 # switch link pointer register to avoid conflict with test
    18c8:	00040713          	addi	x14,x8,0
# Testcase cp_rs2 (Test source rs2 = x7)
  RVTEST_TESTDATA_LOAD_INT(x26, x28) # load rs1: x28 = 0xf231350c
    18cc:	000d2e03          	lw	x28,0(x26)
    18d0:	004d0d13          	addi	x26,x26,4
  RVTEST_TESTDATA_LOAD_INT(x26, x7) # load rs2: x7 = 0x3d1fedbf
    18d4:	000d2383          	lw	x7,0(x26)
    18d8:	004d0d13          	addi	x26,x26,4
  RVTEST_TESTDATA_LOAD_INT(x26, x1) # load branch taken value: x1 = 0x9d4ec32a
    18dc:	000d2083          	lw	x1,0(x26)
    18e0:	004d0d13          	addi	x26,x26,4

000018e4 <I_bge_cg_cp_rs2_b7>:
I_bge_cg_cp_rs2_b7:
  bge x28, x7, 1f # perform operation
    18e4:	007e5463          	bge	x28,x7,18ec <I_bge_cg_cp_rs2_b7+0x8>
  LI(x1, -1) # branch not taken, set temp_reg to 0
    18e8:	fff00093          	addi	x1,x0,-1
1:
  # Check if x1 contains the expected result. x16 is the signature ptr, x14 is the link ptr, x13 is a temp reg.
  RVTEST_SIGUPD(x16, x14, x13, x1, I_bge_cg_cp_rs2_b7, I_bge_cg_cp_rs2_b7_str)
    18ec:	00082683          	lw	x13,0(x16)
    18f0:	00168863          	beq	x13,x1,1900 <I_bge_cg_cp_rs2_b7+0x1c>
    18f4:	7c80876f          	jal	x14,a0bc <failedtest_x14_x13>
    18f8:	000018e4          	.word	0x000018e4
    18fc:	0000d247          	.word	0x0000d247
    1900:	00480813          	addi	x16,x16,4

# Testcase cp_rs2 (Test source rs2 = x8)
  RVTEST_TESTDATA_LOAD_INT(x26, x9) # load rs1: x9 = 0x2c48714d
    1904:	000d2483          	lw	x9,0(x26)
    1908:	004d0d13          	addi	x26,x26,4
  RVTEST_TESTDATA_LOAD_INT(x26, x8) # load rs2: x8 = 0x7dc82acf
    190c:	000d2403          	lw	x8,0(x26)
    1910:	004d0d13          	addi	x26,x26,4
  RVTEST_TESTDATA_LOAD_INT(x26, x3) # load branch taken value: x3 = 0x69e7012b
    1914:	000d2183          	lw	x3,0(x26)
    1918:	004d0d13          	addi	x26,x26,4

0000191c <I_bge_cg_cp_rs2_b8>:
I_bge_cg_cp_rs2_b8:
  bge x9, x8, 1f # perform operation
    191c:	0084d463          	bge	x9,x8,1924 <I_bge_cg_cp_rs2_b8+0x8>
  LI(x3, -1) # branch not taken, set temp_reg to 0
    1920:	fff00193          	addi	x3,x0,-1
1:
  # Check if x3 contains the expected result. x16 is the signature ptr, x14 is the link ptr, x13 is a temp reg.
  RVTEST_SIGUPD(x16, x14, x13, x3, I_bge_cg_cp_rs2_b8, I_bge_cg_cp_rs2_b8_str)
    1924:	00082683          	lw	x13,0(x16)
    1928:	00368863          	beq	x13,x3,1938 <I_bge_cg_cp_rs2_b8+0x1c>
    192c:	7900876f          	jal	x14,a0bc <failedtest_x14_x13>
    1930:	0000191c          	.word	0x0000191c
    1934:	0000d275          	.word	0x0000d275
    1938:	00480813          	addi	x16,x16,4

# Testcase cp_rs2 (Test source rs2 = x9)
  RVTEST_TESTDATA_LOAD_INT(x26, x0) # load rs1: x0 = 0xc0dcd249
    193c:	000d2003          	lw	x0,0(x26)
    1940:	004d0d13          	addi	x26,x26,4
  RVTEST_TESTDATA_LOAD_INT(x26, x9) # load rs2: x9 = 0x078eac93
    1944:	000d2483          	lw	x9,0(x26)
    1948:	004d0d13          	addi	x26,x26,4
  RVTEST_TESTDATA_LOAD_INT(x26, x23) # load branch taken value: x23 = 0xbe78b532
    194c:	000d2b83          	lw	x23,0(x26)
    1950:	004d0d13          	addi	x26,x26,4

00001954 <I_bge_cg_cp_rs2_b9>:
I_bge_cg_cp_rs2_b9:
  bge x0, x9, 1f # perform operation
    1954:	00905463          	bge	x0,x9,195c <I_bge_cg_cp_rs2_b9+0x8>
  LI(x23, -1) # branch not taken, set temp_reg to 0
    1958:	fff00b93          	addi	x23,x0,-1
1:
  # Check if x23 contains the expected result. x16 is the signature ptr, x14 is the link ptr, x13 is a temp reg.
  RVTEST_SIGUPD(x16, x14, x13, x23, I_bge_cg_cp_rs2_b9, I_bge_cg_cp_rs2_b9_str)
    195c:	00082683          	lw	x13,0(x16)
    1960:	01768863          	beq	x13,x23,1970 <I_bge_cg_cp_rs2_b9+0x1c>
    1964:	7580876f          	jal	x14,a0bc <failedtest_x14_x13>
    1968:	00001954          	.word	0x00001954
    196c:	0000d2a3          	.word	0x0000d2a3
    1970:	00480813          	addi	x16,x16,4

# Testcase cp_rs2 (Test source rs2 = x10)
  RVTEST_TESTDATA_LOAD_INT(x26, x1) # load rs1: x1 = 0xc0ddd0f3
    1974:	000d2083          	lw	x1,0(x26)
    1978:	004d0d13          	addi	x26,x26,4
  RVTEST_TESTDATA_LOAD_INT(x26, x10) # load rs2: x10 = 0x6e67eb39
    197c:	000d2503          	lw	x10,0(x26)
    1980:	004d0d13          	addi	x26,x26,4
  RVTEST_TESTDATA_LOAD_INT(x26, x21) # load branch taken value: x21 = 0xe8dfbcac
    1984:	000d2a83          	lw	x21,0(x26)
    1988:	004d0d13          	addi	x26,x26,4

0000198c <I_bge_cg_cp_rs2_b10>:
I_bge_cg_cp_rs2_b10:
  bge x1, x10, 1f # perform operation
    198c:	00a0d463          	bge	x1,x10,1994 <I_bge_cg_cp_rs2_b10+0x8>
  LI(x21, -1) # branch not taken, set temp_reg to 0
    1990:	fff00a93          	addi	x21,x0,-1
1:
  # Check if x21 contains the expected result. x16 is the signature ptr, x14 is the link ptr, x13 is a temp reg.
  RVTEST_SIGUPD(x16, x14, x13, x21, I_bge_cg_cp_rs2_b10, I_bge_cg_cp_rs2_b10_str)
    1994:	00082683          	lw	x13,0(x16)
    1998:	01568863          	beq	x13,x21,19a8 <I_bge_cg_cp_rs2_b10+0x1c>
    199c:	7200876f          	jal	x14,a0bc <failedtest_x14_x13>
    19a0:	0000198c          	.word	0x0000198c
    19a4:	0000d2d1          	.word	0x0000d2d1
    19a8:	00480813          	addi	x16,x16,4

# Testcase cp_rs2 (Test source rs2 = x11)
  RVTEST_TESTDATA_LOAD_INT(x26, x20) # load rs1: x20 = 0x7dbffc6a
    19ac:	000d2a03          	lw	x20,0(x26)
    19b0:	004d0d13          	addi	x26,x26,4
  RVTEST_TESTDATA_LOAD_INT(x26, x11) # load rs2: x11 = 0x5443af06
    19b4:	000d2583          	lw	x11,0(x26)
    19b8:	004d0d13          	addi	x26,x26,4
  RVTEST_TESTDATA_LOAD_INT(x26, x12) # load branch taken value: x12 = 0x9656af2c
    19bc:	000d2603          	lw	x12,0(x26)
    19c0:	004d0d13          	addi	x26,x26,4

000019c4 <I_bge_cg_cp_rs2_b11>:
I_bge_cg_cp_rs2_b11:
  bge x20, x11, 1f # perform operation
    19c4:	00ba5463          	bge	x20,x11,19cc <I_bge_cg_cp_rs2_b11+0x8>
  LI(x12, -1) # branch not taken, set temp_reg to 0
    19c8:	fff00613          	addi	x12,x0,-1
1:
  # Check if x12 contains the expected result. x16 is the signature ptr, x14 is the link ptr, x13 is a temp reg.
  RVTEST_SIGUPD(x16, x14, x13, x12, I_bge_cg_cp_rs2_b11, I_bge_cg_cp_rs2_b11_str)
    19cc:	00082683          	lw	x13,0(x16)
    19d0:	00c68863          	beq	x13,x12,19e0 <I_bge_cg_cp_rs2_b11+0x1c>
    19d4:	6e80876f          	jal	x14,a0bc <failedtest_x14_x13>
    19d8:	000019c4          	.word	0x000019c4
    19dc:	0000d300          	.word	0x0000d300
    19e0:	00480813          	addi	x16,x16,4

# Testcase cp_rs2 (Test source rs2 = x12)
  RVTEST_TESTDATA_LOAD_INT(x26, x17) # load rs1: x17 = 0xfb7779d1
    19e4:	000d2883          	lw	x17,0(x26)
    19e8:	004d0d13          	addi	x26,x26,4
  RVTEST_TESTDATA_LOAD_INT(x26, x12) # load rs2: x12 = 0xe4ccf75f
    19ec:	000d2603          	lw	x12,0(x26)
    19f0:	004d0d13          	addi	x26,x26,4
  RVTEST_TESTDATA_LOAD_INT(x26, x28) # load branch taken value: x28 = 0x79192576
    19f4:	000d2e03          	lw	x28,0(x26)
    19f8:	004d0d13          	addi	x26,x26,4

000019fc <I_bge_cg_cp_rs2_b12>:
I_bge_cg_cp_rs2_b12:
  bge x17, x12, 1f # perform operation
    19fc:	00c8d463          	bge	x17,x12,1a04 <I_bge_cg_cp_rs2_b12+0x8>
  LI(x28, -1) # branch not taken, set temp_reg to 0
    1a00:	fff00e13          	addi	x28,x0,-1
1:
  # Check if x28 contains the expected result. x16 is the signature ptr, x14 is the link ptr, x13 is a temp reg.
  RVTEST_SIGUPD(x16, x14, x13, x28, I_bge_cg_cp_rs2_b12, I_bge_cg_cp_rs2_b12_str)
    1a04:	00082683          	lw	x13,0(x16)
    1a08:	01c68863          	beq	x13,x28,1a18 <I_bge_cg_cp_rs2_b12+0x1c>
    1a0c:	6b00876f          	jal	x14,a0bc <failedtest_x14_x13>
    1a10:	000019fc          	.word	0x000019fc
    1a14:	0000d32f          	.word	0x0000d32f
    1a18:	00480813          	addi	x16,x16,4

  mv x4, x13 # switch temp register to avoid conflict with test
    1a1c:	00068213          	addi	x4,x13,0
  mv x5, x14 # switch link pointer register to avoid conflict with test
    1a20:	00070293          	addi	x5,x14,0
# Testcase cp_rs2 (Test source rs2 = x13)
  RVTEST_TESTDATA_LOAD_INT(x26, x8) # load rs1: x8 = 0xbd92a6bb
    1a24:	000d2403          	lw	x8,0(x26)
    1a28:	004d0d13          	addi	x26,x26,4
  RVTEST_TESTDATA_LOAD_INT(x26, x13) # load rs2: x13 = 0x5dbfa4c0
    1a2c:	000d2683          	lw	x13,0(x26)
    1a30:	004d0d13          	addi	x26,x26,4
  RVTEST_TESTDATA_LOAD_INT(x26, x22) # load branch taken value: x22 = 0xdc9de837
    1a34:	000d2b03          	lw	x22,0(x26)
    1a38:	004d0d13          	addi	x26,x26,4

00001a3c <I_bge_cg_cp_rs2_b13>:
I_bge_cg_cp_rs2_b13:
  bge x8, x13, 1f # perform operation
    1a3c:	00d45463          	bge	x8,x13,1a44 <I_bge_cg_cp_rs2_b13+0x8>
  LI(x22, -1) # branch not taken, set temp_reg to 0
    1a40:	fff00b13          	addi	x22,x0,-1
1:
  # Check if x22 contains the expected result. x16 is the signature ptr, x5 is the link ptr, x4 is a temp reg.
  RVTEST_SIGUPD(x16, x5, x4, x22, I_bge_cg_cp_rs2_b13, I_bge_cg_cp_rs2_b13_str)
    1a44:	00082203          	lw	x4,0(x16)
    1a48:	01620863          	beq	x4,x22,1a58 <I_bge_cg_cp_rs2_b13+0x1c>
    1a4c:	630082ef          	jal	x5,a07c <failedtest_x5_x4>
    1a50:	00001a3c          	.word	0x00001a3c
    1a54:	0000d35e          	.word	0x0000d35e
    1a58:	00480813          	addi	x16,x16,4

# Testcase cp_rs2 (Test source rs2 = x14)
  RVTEST_TESTDATA_LOAD_INT(x26, x23) # load rs1: x23 = 0xf2cafc17
    1a5c:	000d2b83          	lw	x23,0(x26)
    1a60:	004d0d13          	addi	x26,x26,4
  RVTEST_TESTDATA_LOAD_INT(x26, x14) # load rs2: x14 = 0x8b4ca921
    1a64:	000d2703          	lw	x14,0(x26)
    1a68:	004d0d13          	addi	x26,x26,4
  RVTEST_TESTDATA_LOAD_INT(x26, x30) # load branch taken value: x30 = 0xeac0c809
    1a6c:	000d2f03          	lw	x30,0(x26)
    1a70:	004d0d13          	addi	x26,x26,4

00001a74 <I_bge_cg_cp_rs2_b14>:
I_bge_cg_cp_rs2_b14:
  bge x23, x14, 1f # perform operation
    1a74:	00ebd463          	bge	x23,x14,1a7c <I_bge_cg_cp_rs2_b14+0x8>
  LI(x30, -1) # branch not taken, set temp_reg to 0
    1a78:	fff00f13          	addi	x30,x0,-1
1:
  # Check if x30 contains the expected result. x16 is the signature ptr, x5 is the link ptr, x4 is a temp reg.
  RVTEST_SIGUPD(x16, x5, x4, x30, I_bge_cg_cp_rs2_b14, I_bge_cg_cp_rs2_b14_str)
    1a7c:	00082203          	lw	x4,0(x16)
    1a80:	01e20863          	beq	x4,x30,1a90 <I_bge_cg_cp_rs2_b14+0x1c>
    1a84:	5f8082ef          	jal	x5,a07c <failedtest_x5_x4>
    1a88:	00001a74          	.word	0x00001a74
    1a8c:	0000d38d          	.word	0x0000d38d
    1a90:	00480813          	addi	x16,x16,4

# Testcase cp_rs2 (Test source rs2 = x15)
  RVTEST_TESTDATA_LOAD_INT(x26, x29) # load rs1: x29 = 0xba49f854
    1a94:	000d2e83          	lw	x29,0(x26)
    1a98:	004d0d13          	addi	x26,x26,4
  RVTEST_TESTDATA_LOAD_INT(x26, x15) # load rs2: x15 = 0xb107ea7b
    1a9c:	000d2783          	lw	x15,0(x26)
    1aa0:	004d0d13          	addi	x26,x26,4
  RVTEST_TESTDATA_LOAD_INT(x26, x12) # load branch taken value: x12 = 0xd1e20213
    1aa4:	000d2603          	lw	x12,0(x26)
    1aa8:	004d0d13          	addi	x26,x26,4

00001aac <I_bge_cg_cp_rs2_b15>:
I_bge_cg_cp_rs2_b15:
  bge x29, x15, 1f # perform operation
    1aac:	00fed463          	bge	x29,x15,1ab4 <I_bge_cg_cp_rs2_b15+0x8>
  LI(x12, -1) # branch not taken, set temp_reg to 0
    1ab0:	fff00613          	addi	x12,x0,-1
1:
  # Check if x12 contains the expected result. x16 is the signature ptr, x5 is the link ptr, x4 is a temp reg.
  RVTEST_SIGUPD(x16, x5, x4, x12, I_bge_cg_cp_rs2_b15, I_bge_cg_cp_rs2_b15_str)
    1ab4:	00082203          	lw	x4,0(x16)
    1ab8:	00c20863          	beq	x4,x12,1ac8 <I_bge_cg_cp_rs2_b15+0x1c>
    1abc:	5c0082ef          	jal	x5,a07c <failedtest_x5_x4>
    1ac0:	00001aac          	.word	0x00001aac
    1ac4:	0000d3bc          	.word	0x0000d3bc
    1ac8:	00480813          	addi	x16,x16,4

  mv x15, x16 # switch signature pointer register to avoid conflict with test
    1acc:	00080793          	addi	x15,x16,0
# Testcase cp_rs2 (Test source rs2 = x16)
  RVTEST_TESTDATA_LOAD_INT(x26, x22) # load rs1: x22 = 0xc5b0678f
    1ad0:	000d2b03          	lw	x22,0(x26)
    1ad4:	004d0d13          	addi	x26,x26,4
  RVTEST_TESTDATA_LOAD_INT(x26, x16) # load rs2: x16 = 0x50c4a627
    1ad8:	000d2803          	lw	x16,0(x26)
    1adc:	004d0d13          	addi	x26,x26,4
  RVTEST_TESTDATA_LOAD_INT(x26, x12) # load branch taken value: x12 = 0xb906ba7a
    1ae0:	000d2603          	lw	x12,0(x26)
    1ae4:	004d0d13          	addi	x26,x26,4

00001ae8 <I_bge_cg_cp_rs2_b16>:
I_bge_cg_cp_rs2_b16:
  bge x22, x16, 1f # perform operation
    1ae8:	010b5463          	bge	x22,x16,1af0 <I_bge_cg_cp_rs2_b16+0x8>
  LI(x12, -1) # branch not taken, set temp_reg to 0
    1aec:	fff00613          	addi	x12,x0,-1
1:
  # Check if x12 contains the expected result. x15 is the signature ptr, x5 is the link ptr, x4 is a temp reg.
  RVTEST_SIGUPD(x15, x5, x4, x12, I_bge_cg_cp_rs2_b16, I_bge_cg_cp_rs2_b16_str)
    1af0:	0007a203          	lw	x4,0(x15)
    1af4:	00c20863          	beq	x4,x12,1b04 <I_bge_cg_cp_rs2_b16+0x1c>
    1af8:	584082ef          	jal	x5,a07c <failedtest_x5_x4>
    1afc:	00001ae8          	.word	0x00001ae8
    1b00:	0000d3eb          	.word	0x0000d3eb
    1b04:	00478793          	addi	x15,x15,4

# Testcase cp_rs2 (Test source rs2 = x17)
  RVTEST_TESTDATA_LOAD_INT(x26, x21) # load rs1: x21 = 0x6a7d7593
    1b08:	000d2a83          	lw	x21,0(x26)
    1b0c:	004d0d13          	addi	x26,x26,4
  RVTEST_TESTDATA_LOAD_INT(x26, x17) # load rs2: x17 = 0x53c0b9a5
    1b10:	000d2883          	lw	x17,0(x26)
    1b14:	004d0d13          	addi	x26,x26,4
  RVTEST_TESTDATA_LOAD_INT(x26, x18) # load branch taken value: x18 = 0x9cfa2f8f
    1b18:	000d2903          	lw	x18,0(x26)
    1b1c:	004d0d13          	addi	x26,x26,4

00001b20 <I_bge_cg_cp_rs2_b17>:
I_bge_cg_cp_rs2_b17:
  bge x21, x17, 1f # perform operation
    1b20:	011ad463          	bge	x21,x17,1b28 <I_bge_cg_cp_rs2_b17+0x8>
  LI(x18, -1) # branch not taken, set temp_reg to 0
    1b24:	fff00913          	addi	x18,x0,-1
1:
  # Check if x18 contains the expected result. x15 is the signature ptr, x5 is the link ptr, x4 is a temp reg.
  RVTEST_SIGUPD(x15, x5, x4, x18, I_bge_cg_cp_rs2_b17, I_bge_cg_cp_rs2_b17_str)
    1b28:	0007a203          	lw	x4,0(x15)
    1b2c:	01220863          	beq	x4,x18,1b3c <I_bge_cg_cp_rs2_b17+0x1c>
    1b30:	54c082ef          	jal	x5,a07c <failedtest_x5_x4>
    1b34:	00001b20          	.word	0x00001b20
    1b38:	0000d41a          	.word	0x0000d41a
    1b3c:	00478793          	addi	x15,x15,4

# Testcase cp_rs2 (Test source rs2 = x18)
  RVTEST_TESTDATA_LOAD_INT(x26, x12) # load rs1: x12 = 0xe5767898
    1b40:	000d2603          	lw	x12,0(x26)
    1b44:	004d0d13          	addi	x26,x26,4
  RVTEST_TESTDATA_LOAD_INT(x26, x18) # load rs2: x18 = 0xa979cf34
    1b48:	000d2903          	lw	x18,0(x26)
    1b4c:	004d0d13          	addi	x26,x26,4
  RVTEST_TESTDATA_LOAD_INT(x26, x31) # load branch taken value: x31 = 0xcac271e9
    1b50:	000d2f83          	lw	x31,0(x26)
    1b54:	004d0d13          	addi	x26,x26,4

00001b58 <I_bge_cg_cp_rs2_b18>:
I_bge_cg_cp_rs2_b18:
  bge x12, x18, 1f # perform operation
    1b58:	01265463          	bge	x12,x18,1b60 <I_bge_cg_cp_rs2_b18+0x8>
  LI(x31, -1) # branch not taken, set temp_reg to 0
    1b5c:	fff00f93          	addi	x31,x0,-1
1:
  # Check if x31 contains the expected result. x15 is the signature ptr, x5 is the link ptr, x4 is a temp reg.
  RVTEST_SIGUPD(x15, x5, x4, x31, I_bge_cg_cp_rs2_b18, I_bge_cg_cp_rs2_b18_str)
    1b60:	0007a203          	lw	x4,0(x15)
    1b64:	01f20863          	beq	x4,x31,1b74 <I_bge_cg_cp_rs2_b18+0x1c>
    1b68:	514082ef          	jal	x5,a07c <failedtest_x5_x4>
    1b6c:	00001b58          	.word	0x00001b58
    1b70:	0000d449          	.word	0x0000d449
    1b74:	00478793          	addi	x15,x15,4

# Testcase cp_rs2 (Test source rs2 = x19)
  RVTEST_TESTDATA_LOAD_INT(x26, x16) # load rs1: x16 = 0x9a95fcb0
    1b78:	000d2803          	lw	x16,0(x26)
    1b7c:	004d0d13          	addi	x26,x26,4
  RVTEST_TESTDATA_LOAD_INT(x26, x19) # load rs2: x19 = 0xedbbe01d
    1b80:	000d2983          	lw	x19,0(x26)
    1b84:	004d0d13          	addi	x26,x26,4
  RVTEST_TESTDATA_LOAD_INT(x26, x8) # load branch taken value: x8 = 0x008e1f57
    1b88:	000d2403          	lw	x8,0(x26)
    1b8c:	004d0d13          	addi	x26,x26,4

00001b90 <I_bge_cg_cp_rs2_b19>:
I_bge_cg_cp_rs2_b19:
  bge x16, x19, 1f # perform operation
    1b90:	01385463          	bge	x16,x19,1b98 <I_bge_cg_cp_rs2_b19+0x8>
  LI(x8, -1) # branch not taken, set temp_reg to 0
    1b94:	fff00413          	addi	x8,x0,-1
1:
  # Check if x8 contains the expected result. x15 is the signature ptr, x5 is the link ptr, x4 is a temp reg.
  RVTEST_SIGUPD(x15, x5, x4, x8, I_bge_cg_cp_rs2_b19, I_bge_cg_cp_rs2_b19_str)
    1b98:	0007a203          	lw	x4,0(x15)
    1b9c:	00820863          	beq	x4,x8,1bac <I_bge_cg_cp_rs2_b19+0x1c>
    1ba0:	4dc082ef          	jal	x5,a07c <failedtest_x5_x4>
    1ba4:	00001b90          	.word	0x00001b90
    1ba8:	0000d478          	.word	0x0000d478
    1bac:	00478793          	addi	x15,x15,4

# Testcase cp_rs2 (Test source rs2 = x20)
  RVTEST_TESTDATA_LOAD_INT(x26, x21) # load rs1: x21 = 0xe7da9cfc
    1bb0:	000d2a83          	lw	x21,0(x26)
    1bb4:	004d0d13          	addi	x26,x26,4
  RVTEST_TESTDATA_LOAD_INT(x26, x20) # load rs2: x20 = 0x31226df3
    1bb8:	000d2a03          	lw	x20,0(x26)
    1bbc:	004d0d13          	addi	x26,x26,4
  RVTEST_TESTDATA_LOAD_INT(x26, x7) # load branch taken value: x7 = 0xf0bdbc09
    1bc0:	000d2383          	lw	x7,0(x26)
    1bc4:	004d0d13          	addi	x26,x26,4

00001bc8 <I_bge_cg_cp_rs2_b20>:
I_bge_cg_cp_rs2_b20:
  bge x21, x20, 1f # perform operation
    1bc8:	014ad463          	bge	x21,x20,1bd0 <I_bge_cg_cp_rs2_b20+0x8>
  LI(x7, -1) # branch not taken, set temp_reg to 0
    1bcc:	fff00393          	addi	x7,x0,-1
1:
  # Check if x7 contains the expected result. x15 is the signature ptr, x5 is the link ptr, x4 is a temp reg.
  RVTEST_SIGUPD(x15, x5, x4, x7, I_bge_cg_cp_rs2_b20, I_bge_cg_cp_rs2_b20_str)
    1bd0:	0007a203          	lw	x4,0(x15)
    1bd4:	00720863          	beq	x4,x7,1be4 <I_bge_cg_cp_rs2_b20+0x1c>
    1bd8:	4a4082ef          	jal	x5,a07c <failedtest_x5_x4>
    1bdc:	00001bc8          	.word	0x00001bc8
    1be0:	0000d4a7          	.word	0x0000d4a7
    1be4:	00478793          	addi	x15,x15,4

# Testcase cp_rs2 (Test source rs2 = x21)
  RVTEST_TESTDATA_LOAD_INT(x26, x9) # load rs1: x9 = 0x520e6d93
    1be8:	000d2483          	lw	x9,0(x26)
    1bec:	004d0d13          	addi	x26,x26,4
  RVTEST_TESTDATA_LOAD_INT(x26, x21) # load rs2: x21 = 0x20379b5f
    1bf0:	000d2a83          	lw	x21,0(x26)
    1bf4:	004d0d13          	addi	x26,x26,4
  RVTEST_TESTDATA_LOAD_INT(x26, x31) # load branch taken value: x31 = 0x7b441d93
    1bf8:	000d2f83          	lw	x31,0(x26)
    1bfc:	004d0d13          	addi	x26,x26,4

00001c00 <I_bge_cg_cp_rs2_b21>:
I_bge_cg_cp_rs2_b21:
  bge x9, x21, 1f # perform operation
    1c00:	0154d463          	bge	x9,x21,1c08 <I_bge_cg_cp_rs2_b21+0x8>
  LI(x31, -1) # branch not taken, set temp_reg to 0
    1c04:	fff00f93          	addi	x31,x0,-1
1:
  # Check if x31 contains the expected result. x15 is the signature ptr, x5 is the link ptr, x4 is a temp reg.
  RVTEST_SIGUPD(x15, x5, x4, x31, I_bge_cg_cp_rs2_b21, I_bge_cg_cp_rs2_b21_str)
    1c08:	0007a203          	lw	x4,0(x15)
    1c0c:	01f20863          	beq	x4,x31,1c1c <I_bge_cg_cp_rs2_b21+0x1c>
    1c10:	46c082ef          	jal	x5,a07c <failedtest_x5_x4>
    1c14:	00001c00          	.word	0x00001c00
    1c18:	0000d4d6          	.word	0x0000d4d6
    1c1c:	00478793          	addi	x15,x15,4

# Testcase cp_rs2 (Test source rs2 = x22)
  RVTEST_TESTDATA_LOAD_INT(x26, x30) # load rs1: x30 = 0xbc5ff781
    1c20:	000d2f03          	lw	x30,0(x26)
    1c24:	004d0d13          	addi	x26,x26,4
  RVTEST_TESTDATA_LOAD_INT(x26, x22) # load rs2: x22 = 0x46f0f32c
    1c28:	000d2b03          	lw	x22,0(x26)
    1c2c:	004d0d13          	addi	x26,x26,4
  RVTEST_TESTDATA_LOAD_INT(x26, x23) # load branch taken value: x23 = 0x0cc737c1
    1c30:	000d2b83          	lw	x23,0(x26)
    1c34:	004d0d13          	addi	x26,x26,4

00001c38 <I_bge_cg_cp_rs2_b22>:
I_bge_cg_cp_rs2_b22:
  bge x30, x22, 1f # perform operation
    1c38:	016f5463          	bge	x30,x22,1c40 <I_bge_cg_cp_rs2_b22+0x8>
  LI(x23, -1) # branch not taken, set temp_reg to 0
    1c3c:	fff00b93          	addi	x23,x0,-1
1:
  # Check if x23 contains the expected result. x15 is the signature ptr, x5 is the link ptr, x4 is a temp reg.
  RVTEST_SIGUPD(x15, x5, x4, x23, I_bge_cg_cp_rs2_b22, I_bge_cg_cp_rs2_b22_str)
    1c40:	0007a203          	lw	x4,0(x15)
    1c44:	01720863          	beq	x4,x23,1c54 <I_bge_cg_cp_rs2_b22+0x1c>
    1c48:	434082ef          	jal	x5,a07c <failedtest_x5_x4>
    1c4c:	00001c38          	.word	0x00001c38
    1c50:	0000d505          	.word	0x0000d505
    1c54:	00478793          	addi	x15,x15,4

# Testcase cp_rs2 (Test source rs2 = x23)
  RVTEST_TESTDATA_LOAD_INT(x26, x20) # load rs1: x20 = 0xedf404aa
    1c58:	000d2a03          	lw	x20,0(x26)
    1c5c:	004d0d13          	addi	x26,x26,4
  RVTEST_TESTDATA_LOAD_INT(x26, x23) # load rs2: x23 = 0xff1c2cef
    1c60:	000d2b83          	lw	x23,0(x26)
    1c64:	004d0d13          	addi	x26,x26,4
  RVTEST_TESTDATA_LOAD_INT(x26, x25) # load branch taken value: x25 = 0x6fe6ff83
    1c68:	000d2c83          	lw	x25,0(x26)
    1c6c:	004d0d13          	addi	x26,x26,4

00001c70 <I_bge_cg_cp_rs2_b23>:
I_bge_cg_cp_rs2_b23:
  bge x20, x23, 1f # perform operation
    1c70:	017a5463          	bge	x20,x23,1c78 <I_bge_cg_cp_rs2_b23+0x8>
  LI(x25, -1) # branch not taken, set temp_reg to 0
    1c74:	fff00c93          	addi	x25,x0,-1
1:
  # Check if x25 contains the expected result. x15 is the signature ptr, x5 is the link ptr, x4 is a temp reg.
  RVTEST_SIGUPD(x15, x5, x4, x25, I_bge_cg_cp_rs2_b23, I_bge_cg_cp_rs2_b23_str)
    1c78:	0007a203          	lw	x4,0(x15)
    1c7c:	01920863          	beq	x4,x25,1c8c <I_bge_cg_cp_rs2_b23+0x1c>
    1c80:	3fc082ef          	jal	x5,a07c <failedtest_x5_x4>
    1c84:	00001c70          	.word	0x00001c70
    1c88:	0000d534          	.word	0x0000d534
    1c8c:	00478793          	addi	x15,x15,4

# Testcase cp_rs2 (Test source rs2 = x24)
  RVTEST_TESTDATA_LOAD_INT(x26, x22) # load rs1: x22 = 0x95a9aadf
    1c90:	000d2b03          	lw	x22,0(x26)
    1c94:	004d0d13          	addi	x26,x26,4
  RVTEST_TESTDATA_LOAD_INT(x26, x24) # load rs2: x24 = 0x19b0aae0
    1c98:	000d2c03          	lw	x24,0(x26)
    1c9c:	004d0d13          	addi	x26,x26,4
  RVTEST_TESTDATA_LOAD_INT(x26, x27) # load branch taken value: x27 = 0xc1ba8de6
    1ca0:	000d2d83          	lw	x27,0(x26)
    1ca4:	004d0d13          	addi	x26,x26,4

00001ca8 <I_bge_cg_cp_rs2_b24>:
I_bge_cg_cp_rs2_b24:
  bge x22, x24, 1f # perform operation
    1ca8:	018b5463          	bge	x22,x24,1cb0 <I_bge_cg_cp_rs2_b24+0x8>
  LI(x27, -1) # branch not taken, set temp_reg to 0
    1cac:	fff00d93          	addi	x27,x0,-1
1:
  # Check if x27 contains the expected result. x15 is the signature ptr, x5 is the link ptr, x4 is a temp reg.
  RVTEST_SIGUPD(x15, x5, x4, x27, I_bge_cg_cp_rs2_b24, I_bge_cg_cp_rs2_b24_str)
    1cb0:	0007a203          	lw	x4,0(x15)
    1cb4:	01b20863          	beq	x4,x27,1cc4 <I_bge_cg_cp_rs2_b24+0x1c>
    1cb8:	3c4082ef          	jal	x5,a07c <failedtest_x5_x4>
    1cbc:	00001ca8          	.word	0x00001ca8
    1cc0:	0000d563          	.word	0x0000d563
    1cc4:	00478793          	addi	x15,x15,4

# Testcase cp_rs2 (Test source rs2 = x25)
  RVTEST_TESTDATA_LOAD_INT(x26, x16) # load rs1: x16 = 0x7ffdc5df
    1cc8:	000d2803          	lw	x16,0(x26)
    1ccc:	004d0d13          	addi	x26,x26,4
  RVTEST_TESTDATA_LOAD_INT(x26, x25) # load rs2: x25 = 0x81bd25f6
    1cd0:	000d2c83          	lw	x25,0(x26)
    1cd4:	004d0d13          	addi	x26,x26,4
  RVTEST_TESTDATA_LOAD_INT(x26, x29) # load branch taken value: x29 = 0x1af292c9
    1cd8:	000d2e83          	lw	x29,0(x26)
    1cdc:	004d0d13          	addi	x26,x26,4

00001ce0 <I_bge_cg_cp_rs2_b25>:
I_bge_cg_cp_rs2_b25:
  bge x16, x25, 1f # perform operation
    1ce0:	01985463          	bge	x16,x25,1ce8 <I_bge_cg_cp_rs2_b25+0x8>
  LI(x29, -1) # branch not taken, set temp_reg to 0
    1ce4:	fff00e93          	addi	x29,x0,-1
1:
  # Check if x29 contains the expected result. x15 is the signature ptr, x5 is the link ptr, x4 is a temp reg.
  RVTEST_SIGUPD(x15, x5, x4, x29, I_bge_cg_cp_rs2_b25, I_bge_cg_cp_rs2_b25_str)
    1ce8:	0007a203          	lw	x4,0(x15)
    1cec:	01d20863          	beq	x4,x29,1cfc <I_bge_cg_cp_rs2_b25+0x1c>
    1cf0:	38c082ef          	jal	x5,a07c <failedtest_x5_x4>
    1cf4:	00001ce0          	.word	0x00001ce0
    1cf8:	0000d592          	.word	0x0000d592
    1cfc:	00478793          	addi	x15,x15,4

  mv x23, x26 # switch data pointer register to avoid conflict with test
    1d00:	000d0b93          	addi	x23,x26,0
# Testcase cp_rs2 (Test source rs2 = x26)
  RVTEST_TESTDATA_LOAD_INT(x23, x30) # load rs1: x30 = 0x4d46a346
    1d04:	000baf03          	lw	x30,0(x23)
    1d08:	004b8b93          	addi	x23,x23,4
  RVTEST_TESTDATA_LOAD_INT(x23, x26) # load rs2: x26 = 0xf117492e
    1d0c:	000bad03          	lw	x26,0(x23)
    1d10:	004b8b93          	addi	x23,x23,4
  RVTEST_TESTDATA_LOAD_INT(x23, x31) # load branch taken value: x31 = 0x0f3cc512
    1d14:	000baf83          	lw	x31,0(x23)
    1d18:	004b8b93          	addi	x23,x23,4

00001d1c <I_bge_cg_cp_rs2_b26>:
I_bge_cg_cp_rs2_b26:
  bge x30, x26, 1f # perform operation
    1d1c:	01af5463          	bge	x30,x26,1d24 <I_bge_cg_cp_rs2_b26+0x8>
  LI(x31, -1) # branch not taken, set temp_reg to 0
    1d20:	fff00f93          	addi	x31,x0,-1
1:
  # Check if x31 contains the expected result. x15 is the signature ptr, x5 is the link ptr, x4 is a temp reg.
  RVTEST_SIGUPD(x15, x5, x4, x31, I_bge_cg_cp_rs2_b26, I_bge_cg_cp_rs2_b26_str)
    1d24:	0007a203          	lw	x4,0(x15)
    1d28:	01f20863          	beq	x4,x31,1d38 <I_bge_cg_cp_rs2_b26+0x1c>
    1d2c:	350082ef          	jal	x5,a07c <failedtest_x5_x4>
    1d30:	00001d1c          	.word	0x00001d1c
    1d34:	0000d5c1          	.word	0x0000d5c1
    1d38:	00478793          	addi	x15,x15,4

# Testcase cp_rs2 (Test source rs2 = x27)
  RVTEST_TESTDATA_LOAD_INT(x23, x13) # load rs1: x13 = 0xda137421
    1d3c:	000ba683          	lw	x13,0(x23)
    1d40:	004b8b93          	addi	x23,x23,4
  RVTEST_TESTDATA_LOAD_INT(x23, x27) # load rs2: x27 = 0xb0a60678
    1d44:	000bad83          	lw	x27,0(x23)
    1d48:	004b8b93          	addi	x23,x23,4
  RVTEST_TESTDATA_LOAD_INT(x23, x6) # load branch taken value: x6 = 0x555d5938
    1d4c:	000ba303          	lw	x6,0(x23)
    1d50:	004b8b93          	addi	x23,x23,4

00001d54 <I_bge_cg_cp_rs2_b27>:
I_bge_cg_cp_rs2_b27:
  bge x13, x27, 1f # perform operation
    1d54:	01b6d463          	bge	x13,x27,1d5c <I_bge_cg_cp_rs2_b27+0x8>
  LI(x6, -1) # branch not taken, set temp_reg to 0
    1d58:	fff00313          	addi	x6,x0,-1
1:
  # Check if x6 contains the expected result. x15 is the signature ptr, x5 is the link ptr, x4 is a temp reg.
  RVTEST_SIGUPD(x15, x5, x4, x6, I_bge_cg_cp_rs2_b27, I_bge_cg_cp_rs2_b27_str)
    1d5c:	0007a203          	lw	x4,0(x15)
    1d60:	00620863          	beq	x4,x6,1d70 <I_bge_cg_cp_rs2_b27+0x1c>
    1d64:	318082ef          	jal	x5,a07c <failedtest_x5_x4>
    1d68:	00001d54          	.word	0x00001d54
    1d6c:	0000d5f0          	.word	0x0000d5f0
    1d70:	00478793          	addi	x15,x15,4

# Testcase cp_rs2 (Test source rs2 = x28)
  RVTEST_TESTDATA_LOAD_INT(x23, x3) # load rs1: x3 = 0x044507e0
    1d74:	000ba183          	lw	x3,0(x23)
    1d78:	004b8b93          	addi	x23,x23,4
  RVTEST_TESTDATA_LOAD_INT(x23, x28) # load rs2: x28 = 0x2df10103
    1d7c:	000bae03          	lw	x28,0(x23)
    1d80:	004b8b93          	addi	x23,x23,4
  RVTEST_TESTDATA_LOAD_INT(x23, x31) # load branch taken value: x31 = 0x488d517a
    1d84:	000baf83          	lw	x31,0(x23)
    1d88:	004b8b93          	addi	x23,x23,4

00001d8c <I_bge_cg_cp_rs2_b28>:
I_bge_cg_cp_rs2_b28:
  bge x3, x28, 1f # perform operation
    1d8c:	01c1d463          	bge	x3,x28,1d94 <I_bge_cg_cp_rs2_b28+0x8>
  LI(x31, -1) # branch not taken, set temp_reg to 0
    1d90:	fff00f93          	addi	x31,x0,-1
1:
  # Check if x31 contains the expected result. x15 is the signature ptr, x5 is the link ptr, x4 is a temp reg.
  RVTEST_SIGUPD(x15, x5, x4, x31, I_bge_cg_cp_rs2_b28, I_bge_cg_cp_rs2_b28_str)
    1d94:	0007a203          	lw	x4,0(x15)
    1d98:	01f20863          	beq	x4,x31,1da8 <I_bge_cg_cp_rs2_b28+0x1c>
    1d9c:	2e0082ef          	jal	x5,a07c <failedtest_x5_x4>
    1da0:	00001d8c          	.word	0x00001d8c
    1da4:	0000d61f          	.word	0x0000d61f
    1da8:	00478793          	addi	x15,x15,4

# Testcase cp_rs2 (Test source rs2 = x29)
  RVTEST_TESTDATA_LOAD_INT(x23, x1) # load rs1: x1 = 0x283b9177
    1dac:	000ba083          	lw	x1,0(x23)
    1db0:	004b8b93          	addi	x23,x23,4
  RVTEST_TESTDATA_LOAD_INT(x23, x29) # load rs2: x29 = 0x957000ab
    1db4:	000bae83          	lw	x29,0(x23)
    1db8:	004b8b93          	addi	x23,x23,4
  RVTEST_TESTDATA_LOAD_INT(x23, x8) # load branch taken value: x8 = 0x81d79743
    1dbc:	000ba403          	lw	x8,0(x23)
    1dc0:	004b8b93          	addi	x23,x23,4

00001dc4 <I_bge_cg_cp_rs2_b29>:
I_bge_cg_cp_rs2_b29:
  bge x1, x29, 1f # perform operation
    1dc4:	01d0d463          	bge	x1,x29,1dcc <I_bge_cg_cp_rs2_b29+0x8>
  LI(x8, -1) # branch not taken, set temp_reg to 0
    1dc8:	fff00413          	addi	x8,x0,-1
1:
  # Check if x8 contains the expected result. x15 is the signature ptr, x5 is the link ptr, x4 is a temp reg.
  RVTEST_SIGUPD(x15, x5, x4, x8, I_bge_cg_cp_rs2_b29, I_bge_cg_cp_rs2_b29_str)
    1dcc:	0007a203          	lw	x4,0(x15)
    1dd0:	00820863          	beq	x4,x8,1de0 <I_bge_cg_cp_rs2_b29+0x1c>
    1dd4:	2a8082ef          	jal	x5,a07c <failedtest_x5_x4>
    1dd8:	00001dc4          	.word	0x00001dc4
    1ddc:	0000d64e          	.word	0x0000d64e
    1de0:	00478793          	addi	x15,x15,4

# Testcase cp_rs2 (Test source rs2 = x30)
  RVTEST_TESTDATA_LOAD_INT(x23, x24) # load rs1: x24 = 0x97258d74
    1de4:	000bac03          	lw	x24,0(x23)
    1de8:	004b8b93          	addi	x23,x23,4
  RVTEST_TESTDATA_LOAD_INT(x23, x30) # load rs2: x30 = 0xd1015aec
    1dec:	000baf03          	lw	x30,0(x23)
    1df0:	004b8b93          	addi	x23,x23,4
  RVTEST_TESTDATA_LOAD_INT(x23, x3) # load branch taken value: x3 = 0x98631122
    1df4:	000ba183          	lw	x3,0(x23)
    1df8:	004b8b93          	addi	x23,x23,4

00001dfc <I_bge_cg_cp_rs2_b30>:
I_bge_cg_cp_rs2_b30:
  bge x24, x30, 1f # perform operation
    1dfc:	01ec5463          	bge	x24,x30,1e04 <I_bge_cg_cp_rs2_b30+0x8>
  LI(x3, -1) # branch not taken, set temp_reg to 0
    1e00:	fff00193          	addi	x3,x0,-1
1:
  # Check if x3 contains the expected result. x15 is the signature ptr, x5 is the link ptr, x4 is a temp reg.
  RVTEST_SIGUPD(x15, x5, x4, x3, I_bge_cg_cp_rs2_b30, I_bge_cg_cp_rs2_b30_str)
    1e04:	0007a203          	lw	x4,0(x15)
    1e08:	00320863          	beq	x4,x3,1e18 <I_bge_cg_cp_rs2_b30+0x1c>
    1e0c:	270082ef          	jal	x5,a07c <failedtest_x5_x4>
    1e10:	00001dfc          	.word	0x00001dfc
    1e14:	0000d67d          	.word	0x0000d67d
    1e18:	00478793          	addi	x15,x15,4

# Testcase cp_rs2 (Test source rs2 = x31)
  RVTEST_TESTDATA_LOAD_INT(x23, x29) # load rs1: x29 = 0x3d3547ec
    1e1c:	000bae83          	lw	x29,0(x23)
    1e20:	004b8b93          	addi	x23,x23,4
  RVTEST_TESTDATA_LOAD_INT(x23, x31) # load rs2: x31 = 0xaae7bc45
    1e24:	000baf83          	lw	x31,0(x23)
    1e28:	004b8b93          	addi	x23,x23,4
  RVTEST_TESTDATA_LOAD_INT(x23, x25) # load branch taken value: x25 = 0x61fc434a
    1e2c:	000bac83          	lw	x25,0(x23)
    1e30:	004b8b93          	addi	x23,x23,4

00001e34 <I_bge_cg_cp_rs2_b31>:
I_bge_cg_cp_rs2_b31:
  bge x29, x31, 1f # perform operation
    1e34:	01fed463          	bge	x29,x31,1e3c <I_bge_cg_cp_rs2_b31+0x8>
  LI(x25, -1) # branch not taken, set temp_reg to 0
    1e38:	fff00c93          	addi	x25,x0,-1
1:
  # Check if x25 contains the expected result. x15 is the signature ptr, x5 is the link ptr, x4 is a temp reg.
  RVTEST_SIGUPD(x15, x5, x4, x25, I_bge_cg_cp_rs2_b31, I_bge_cg_cp_rs2_b31_str)
    1e3c:	0007a203          	lw	x4,0(x15)
    1e40:	01920863          	beq	x4,x25,1e50 <I_bge_cg_cp_rs2_b31+0x1c>
    1e44:	238082ef          	jal	x5,a07c <failedtest_x5_x4>
    1e48:	00001e34          	.word	0x00001e34
    1e4c:	0000d6ac          	.word	0x0000d6ac
    1e50:	00478793          	addi	x15,x15,4
/////////////////////////////////
// cp_rs1_edges
/////////////////////////////////

# Testcase cp_rs1_edges (Test source rs1 value = 0x00000000)
  RVTEST_TESTDATA_LOAD_INT(x23, x20) # load rs1: x20 = 0x00000000
    1e54:	000baa03          	lw	x20,0(x23)
    1e58:	004b8b93          	addi	x23,x23,4
  RVTEST_TESTDATA_LOAD_INT(x23, x25) # load rs2: x25 = 0x698f782c
    1e5c:	000bac83          	lw	x25,0(x23)
    1e60:	004b8b93          	addi	x23,x23,4
  RVTEST_TESTDATA_LOAD_INT(x23, x9) # load branch taken value: x9 = 0x760cc178
    1e64:	000ba483          	lw	x9,0(x23)
    1e68:	004b8b93          	addi	x23,x23,4

00001e6c <I_bge_cg_cp_rs1_edges_0x0>:
I_bge_cg_cp_rs1_edges_0x0:
  bge x20, x25, 1f # perform operation
    1e6c:	019a5463          	bge	x20,x25,1e74 <I_bge_cg_cp_rs1_edges_0x0+0x8>
  LI(x9, -1) # branch not taken, set temp_reg to 0
    1e70:	fff00493          	addi	x9,x0,-1
1:
  # Check if x9 contains the expected result. x15 is the signature ptr, x5 is the link ptr, x4 is a temp reg.
  RVTEST_SIGUPD(x15, x5, x4, x9, I_bge_cg_cp_rs1_edges_0x0, I_bge_cg_cp_rs1_edges_0x0_str)
    1e74:	0007a203          	lw	x4,0(x15)
    1e78:	00920863          	beq	x4,x9,1e88 <I_bge_cg_cp_rs1_edges_0x0+0x1c>
    1e7c:	200082ef          	jal	x5,a07c <failedtest_x5_x4>
    1e80:	00001e6c          	.word	0x00001e6c
    1e84:	0000d6db          	.word	0x0000d6db
    1e88:	00478793          	addi	x15,x15,4

# Testcase cp_rs1_edges (Test source rs1 value = 0x00000001)
  RVTEST_TESTDATA_LOAD_INT(x23, x16) # load rs1: x16 = 0x00000001
    1e8c:	000ba803          	lw	x16,0(x23)
    1e90:	004b8b93          	addi	x23,x23,4
  RVTEST_TESTDATA_LOAD_INT(x23, x20) # load rs2: x20 = 0x0f454c33
    1e94:	000baa03          	lw	x20,0(x23)
    1e98:	004b8b93          	addi	x23,x23,4
  RVTEST_TESTDATA_LOAD_INT(x23, x9) # load branch taken value: x9 = 0x6ebd4726
    1e9c:	000ba483          	lw	x9,0(x23)
    1ea0:	004b8b93          	addi	x23,x23,4

00001ea4 <I_bge_cg_cp_rs1_edges_0x1>:
I_bge_cg_cp_rs1_edges_0x1:
  bge x16, x20, 1f # perform operation
    1ea4:	01485463          	bge	x16,x20,1eac <I_bge_cg_cp_rs1_edges_0x1+0x8>
  LI(x9, -1) # branch not taken, set temp_reg to 0
    1ea8:	fff00493          	addi	x9,x0,-1
1:
  # Check if x9 contains the expected result. x15 is the signature ptr, x5 is the link ptr, x4 is a temp reg.
  RVTEST_SIGUPD(x15, x5, x4, x9, I_bge_cg_cp_rs1_edges_0x1, I_bge_cg_cp_rs1_edges_0x1_str)
    1eac:	0007a203          	lw	x4,0(x15)
    1eb0:	00920863          	beq	x4,x9,1ec0 <I_bge_cg_cp_rs1_edges_0x1+0x1c>
    1eb4:	1c8082ef          	jal	x5,a07c <failedtest_x5_x4>
    1eb8:	00001ea4          	.word	0x00001ea4
    1ebc:	0000d710          	.word	0x0000d710
    1ec0:	00478793          	addi	x15,x15,4

# Testcase cp_rs1_edges (Test source rs1 value = 0x00000002)
  RVTEST_TESTDATA_LOAD_INT(x23, x24) # load rs1: x24 = 0x00000002
    1ec4:	000bac03          	lw	x24,0(x23)
    1ec8:	004b8b93          	addi	x23,x23,4
  RVTEST_TESTDATA_LOAD_INT(x23, x28) # load rs2: x28 = 0x747c250e
    1ecc:	000bae03          	lw	x28,0(x23)
    1ed0:	004b8b93          	addi	x23,x23,4
  RVTEST_TESTDATA_LOAD_INT(x23, x18) # load branch taken value: x18 = 0xb6d6bc02
    1ed4:	000ba903          	lw	x18,0(x23)
    1ed8:	004b8b93          	addi	x23,x23,4

00001edc <I_bge_cg_cp_rs1_edges_0x2>:
I_bge_cg_cp_rs1_edges_0x2:
  bge x24, x28, 1f # perform operation
    1edc:	01cc5463          	bge	x24,x28,1ee4 <I_bge_cg_cp_rs1_edges_0x2+0x8>
  LI(x18, -1) # branch not taken, set temp_reg to 0
    1ee0:	fff00913          	addi	x18,x0,-1
1:
  # Check if x18 contains the expected result. x15 is the signature ptr, x5 is the link ptr, x4 is a temp reg.
  RVTEST_SIGUPD(x15, x5, x4, x18, I_bge_cg_cp_rs1_edges_0x2, I_bge_cg_cp_rs1_edges_0x2_str)
    1ee4:	0007a203          	lw	x4,0(x15)
    1ee8:	01220863          	beq	x4,x18,1ef8 <I_bge_cg_cp_rs1_edges_0x2+0x1c>
    1eec:	190082ef          	jal	x5,a07c <failedtest_x5_x4>
    1ef0:	00001edc          	.word	0x00001edc
    1ef4:	0000d745          	.word	0x0000d745
    1ef8:	00478793          	addi	x15,x15,4

# Testcase cp_rs1_edges (Test source rs1 value = 0x80000000)
  RVTEST_TESTDATA_LOAD_INT(x23, x8) # load rs1: x8 = 0x80000000
    1efc:	000ba403          	lw	x8,0(x23)
    1f00:	004b8b93          	addi	x23,x23,4
  RVTEST_TESTDATA_LOAD_INT(x23, x24) # load rs2: x24 = 0x77d4056b
    1f04:	000bac03          	lw	x24,0(x23)
    1f08:	004b8b93          	addi	x23,x23,4
  RVTEST_TESTDATA_LOAD_INT(x23, x25) # load branch taken value: x25 = 0x6bfec991
    1f0c:	000bac83          	lw	x25,0(x23)
    1f10:	004b8b93          	addi	x23,x23,4

00001f14 <I_bge_cg_cp_rs1_edges_0x80000000>:
I_bge_cg_cp_rs1_edges_0x80000000:
  bge x8, x24, 1f # perform operation
    1f14:	01845463          	bge	x8,x24,1f1c <I_bge_cg_cp_rs1_edges_0x80000000+0x8>
  LI(x25, -1) # branch not taken, set temp_reg to 0
    1f18:	fff00c93          	addi	x25,x0,-1
1:
  # Check if x25 contains the expected result. x15 is the signature ptr, x5 is the link ptr, x4 is a temp reg.
  RVTEST_SIGUPD(x15, x5, x4, x25, I_bge_cg_cp_rs1_edges_0x80000000, I_bge_cg_cp_rs1_edges_0x80000000_str)
    1f1c:	0007a203          	lw	x4,0(x15)
    1f20:	01920863          	beq	x4,x25,1f30 <I_bge_cg_cp_rs1_edges_0x80000000+0x1c>
    1f24:	158082ef          	jal	x5,a07c <failedtest_x5_x4>
    1f28:	00001f14          	.word	0x00001f14
    1f2c:	0000d77a          	.word	0x0000d77a
    1f30:	00478793          	addi	x15,x15,4

# Testcase cp_rs1_edges (Test source rs1 value = 0x80000001)
  RVTEST_TESTDATA_LOAD_INT(x23, x29) # load rs1: x29 = 0x80000001
    1f34:	000bae83          	lw	x29,0(x23)
    1f38:	004b8b93          	addi	x23,x23,4
  RVTEST_TESTDATA_LOAD_INT(x23, x18) # load rs2: x18 = 0xf3857dc9
    1f3c:	000ba903          	lw	x18,0(x23)
    1f40:	004b8b93          	addi	x23,x23,4
  RVTEST_TESTDATA_LOAD_INT(x23, x11) # load branch taken value: x11 = 0xf6b94c3f
    1f44:	000ba583          	lw	x11,0(x23)
    1f48:	004b8b93          	addi	x23,x23,4

00001f4c <I_bge_cg_cp_rs1_edges_0x80000001>:
I_bge_cg_cp_rs1_edges_0x80000001:
  bge x29, x18, 1f # perform operation
    1f4c:	012ed463          	bge	x29,x18,1f54 <I_bge_cg_cp_rs1_edges_0x80000001+0x8>
  LI(x11, -1) # branch not taken, set temp_reg to 0
    1f50:	fff00593          	addi	x11,x0,-1
1:
  # Check if x11 contains the expected result. x15 is the signature ptr, x5 is the link ptr, x4 is a temp reg.
  RVTEST_SIGUPD(x15, x5, x4, x11, I_bge_cg_cp_rs1_edges_0x80000001, I_bge_cg_cp_rs1_edges_0x80000001_str)
    1f54:	0007a203          	lw	x4,0(x15)
    1f58:	00b20863          	beq	x4,x11,1f68 <I_bge_cg_cp_rs1_edges_0x80000001+0x1c>
    1f5c:	120082ef          	jal	x5,a07c <failedtest_x5_x4>
    1f60:	00001f4c          	.word	0x00001f4c
    1f64:	0000d7b6          	.word	0x0000d7b6
    1f68:	00478793          	addi	x15,x15,4

# Testcase cp_rs1_edges (Test source rs1 value = 0x7fffffff)
  RVTEST_TESTDATA_LOAD_INT(x23, x21) # load rs1: x21 = 0x7fffffff
    1f6c:	000baa83          	lw	x21,0(x23)
    1f70:	004b8b93          	addi	x23,x23,4
  RVTEST_TESTDATA_LOAD_INT(x23, x31) # load rs2: x31 = 0xbbc9c67f
    1f74:	000baf83          	lw	x31,0(x23)
    1f78:	004b8b93          	addi	x23,x23,4
  RVTEST_TESTDATA_LOAD_INT(x23, x16) # load branch taken value: x16 = 0xba0bfdac
    1f7c:	000ba803          	lw	x16,0(x23)
    1f80:	004b8b93          	addi	x23,x23,4

00001f84 <I_bge_cg_cp_rs1_edges_0x7fffffff>:
I_bge_cg_cp_rs1_edges_0x7fffffff:
  bge x21, x31, 1f # perform operation
    1f84:	01fad463          	bge	x21,x31,1f8c <I_bge_cg_cp_rs1_edges_0x7fffffff+0x8>
  LI(x16, -1) # branch not taken, set temp_reg to 0
    1f88:	fff00813          	addi	x16,x0,-1
1:
  # Check if x16 contains the expected result. x15 is the signature ptr, x5 is the link ptr, x4 is a temp reg.
  RVTEST_SIGUPD(x15, x5, x4, x16, I_bge_cg_cp_rs1_edges_0x7fffffff, I_bge_cg_cp_rs1_edges_0x7fffffff_str)
    1f8c:	0007a203          	lw	x4,0(x15)
    1f90:	01020863          	beq	x4,x16,1fa0 <I_bge_cg_cp_rs1_edges_0x7fffffff+0x1c>
    1f94:	0e8082ef          	jal	x5,a07c <failedtest_x5_x4>
    1f98:	00001f84          	.word	0x00001f84
    1f9c:	0000d7f2          	.word	0x0000d7f2
    1fa0:	00478793          	addi	x15,x15,4

# Testcase cp_rs1_edges (Test source rs1 value = 0x7ffffffe)
  RVTEST_TESTDATA_LOAD_INT(x23, x9) # load rs1: x9 = 0x7ffffffe
    1fa4:	000ba483          	lw	x9,0(x23)
    1fa8:	004b8b93          	addi	x23,x23,4
  RVTEST_TESTDATA_LOAD_INT(x23, x18) # load rs2: x18 = 0x7259c84e
    1fac:	000ba903          	lw	x18,0(x23)
    1fb0:	004b8b93          	addi	x23,x23,4
  RVTEST_TESTDATA_LOAD_INT(x23, x30) # load branch taken value: x30 = 0x0b00fa45
    1fb4:	000baf03          	lw	x30,0(x23)
    1fb8:	004b8b93          	addi	x23,x23,4

00001fbc <I_bge_cg_cp_rs1_edges_0x7ffffffe>:
I_bge_cg_cp_rs1_edges_0x7ffffffe:
  bge x9, x18, 1f # perform operation
    1fbc:	0124d463          	bge	x9,x18,1fc4 <I_bge_cg_cp_rs1_edges_0x7ffffffe+0x8>
  LI(x30, -1) # branch not taken, set temp_reg to 0
    1fc0:	fff00f13          	addi	x30,x0,-1
1:
  # Check if x30 contains the expected result. x15 is the signature ptr, x5 is the link ptr, x4 is a temp reg.
  RVTEST_SIGUPD(x15, x5, x4, x30, I_bge_cg_cp_rs1_edges_0x7ffffffe, I_bge_cg_cp_rs1_edges_0x7ffffffe_str)
    1fc4:	0007a203          	lw	x4,0(x15)
    1fc8:	01e20863          	beq	x4,x30,1fd8 <I_bge_cg_cp_rs1_edges_0x7ffffffe+0x1c>
    1fcc:	0b0082ef          	jal	x5,a07c <failedtest_x5_x4>
    1fd0:	00001fbc          	.word	0x00001fbc
    1fd4:	0000d82e          	.word	0x0000d82e
    1fd8:	00478793          	addi	x15,x15,4

# Testcase cp_rs1_edges (Test source rs1 value = 0xffffffff)
  RVTEST_TESTDATA_LOAD_INT(x23, x18) # load rs1: x18 = 0xffffffff
    1fdc:	000ba903          	lw	x18,0(x23)
    1fe0:	004b8b93          	addi	x23,x23,4
  RVTEST_TESTDATA_LOAD_INT(x23, x27) # load rs2: x27 = 0x1efbe19e
    1fe4:	000bad83          	lw	x27,0(x23)
    1fe8:	004b8b93          	addi	x23,x23,4
  RVTEST_TESTDATA_LOAD_INT(x23, x26) # load branch taken value: x26 = 0x9023e67f
    1fec:	000bad03          	lw	x26,0(x23)
    1ff0:	004b8b93          	addi	x23,x23,4

00001ff4 <I_bge_cg_cp_rs1_edges_0xffffffff>:
I_bge_cg_cp_rs1_edges_0xffffffff:
  bge x18, x27, 1f # perform operation
    1ff4:	01b95463          	bge	x18,x27,1ffc <I_bge_cg_cp_rs1_edges_0xffffffff+0x8>
  LI(x26, -1) # branch not taken, set temp_reg to 0
    1ff8:	fff00d13          	addi	x26,x0,-1
1:
  # Check if x26 contains the expected result. x15 is the signature ptr, x5 is the link ptr, x4 is a temp reg.
  RVTEST_SIGUPD(x15, x5, x4, x26, I_bge_cg_cp_rs1_edges_0xffffffff, I_bge_cg_cp_rs1_edges_0xffffffff_str)
    1ffc:	0007a203          	lw	x4,0(x15)
    2000:	01a20863          	beq	x4,x26,2010 <I_bge_cg_cp_rs1_edges_0xffffffff+0x1c>
    2004:	078082ef          	jal	x5,a07c <failedtest_x5_x4>
    2008:	00001ff4          	.word	0x00001ff4
    200c:	0000d86a          	.word	0x0000d86a
    2010:	00478793          	addi	x15,x15,4

# Testcase cp_rs1_edges (Test source rs1 value = 0xfffffffe)
  RVTEST_TESTDATA_LOAD_INT(x23, x3) # load rs1: x3 = 0xfffffffe
    2014:	000ba183          	lw	x3,0(x23)
    2018:	004b8b93          	addi	x23,x23,4
  RVTEST_TESTDATA_LOAD_INT(x23, x29) # load rs2: x29 = 0x569c3b14
    201c:	000bae83          	lw	x29,0(x23)
    2020:	004b8b93          	addi	x23,x23,4
  RVTEST_TESTDATA_LOAD_INT(x23, x16) # load branch taken value: x16 = 0x56bcda32
    2024:	000ba803          	lw	x16,0(x23)
    2028:	004b8b93          	addi	x23,x23,4

0000202c <I_bge_cg_cp_rs1_edges_0xfffffffe>:
I_bge_cg_cp_rs1_edges_0xfffffffe:
  bge x3, x29, 1f # perform operation
    202c:	01d1d463          	bge	x3,x29,2034 <I_bge_cg_cp_rs1_edges_0xfffffffe+0x8>
  LI(x16, -1) # branch not taken, set temp_reg to 0
    2030:	fff00813          	addi	x16,x0,-1
1:
  # Check if x16 contains the expected result. x15 is the signature ptr, x5 is the link ptr, x4 is a temp reg.
  RVTEST_SIGUPD(x15, x5, x4, x16, I_bge_cg_cp_rs1_edges_0xfffffffe, I_bge_cg_cp_rs1_edges_0xfffffffe_str)
    2034:	0007a203          	lw	x4,0(x15)
    2038:	01020863          	beq	x4,x16,2048 <I_bge_cg_cp_rs1_edges_0xfffffffe+0x1c>
    203c:	040082ef          	jal	x5,a07c <failedtest_x5_x4>
    2040:	0000202c          	.word	0x0000202c
    2044:	0000d8a6          	.word	0x0000d8a6
    2048:	00478793          	addi	x15,x15,4

# Testcase cp_rs1_edges (Test source rs1 value = 0x5bbc8872)
  RVTEST_TESTDATA_LOAD_INT(x23, x18) # load rs1: x18 = 0x5bbc8872
    204c:	000ba903          	lw	x18,0(x23)
    2050:	004b8b93          	addi	x23,x23,4
  RVTEST_TESTDATA_LOAD_INT(x23, x2) # load rs2: x2 = 0x9ec02664
    2054:	000ba103          	lw	x2,0(x23)
    2058:	004b8b93          	addi	x23,x23,4
  RVTEST_TESTDATA_LOAD_INT(x23, x30) # load branch taken value: x30 = 0x9b0fbd84
    205c:	000baf03          	lw	x30,0(x23)
    2060:	004b8b93          	addi	x23,x23,4

00002064 <I_bge_cg_cp_rs1_edges_0x5bbc8872>:
I_bge_cg_cp_rs1_edges_0x5bbc8872:
  bge x18, x2, 1f # perform operation
    2064:	00295463          	bge	x18,x2,206c <I_bge_cg_cp_rs1_edges_0x5bbc8872+0x8>
  LI(x30, -1) # branch not taken, set temp_reg to 0
    2068:	fff00f13          	addi	x30,x0,-1
1:
  # Check if x30 contains the expected result. x15 is the signature ptr, x5 is the link ptr, x4 is a temp reg.
  RVTEST_SIGUPD(x15, x5, x4, x30, I_bge_cg_cp_rs1_edges_0x5bbc8872, I_bge_cg_cp_rs1_edges_0x5bbc8872_str)
    206c:	0007a203          	lw	x4,0(x15)
    2070:	01e20863          	beq	x4,x30,2080 <I_bge_cg_cp_rs1_edges_0x5bbc8872+0x1c>
    2074:	008082ef          	jal	x5,a07c <failedtest_x5_x4>
    2078:	00002064          	.word	0x00002064
    207c:	0000d8e2          	.word	0x0000d8e2
    2080:	00478793          	addi	x15,x15,4

# Testcase cp_rs1_edges (Test source rs1 value = 0xaaaaaaaa)
  RVTEST_TESTDATA_LOAD_INT(x23, x1) # load rs1: x1 = 0xaaaaaaaa
    2084:	000ba083          	lw	x1,0(x23)
    2088:	004b8b93          	addi	x23,x23,4
  RVTEST_TESTDATA_LOAD_INT(x23, x9) # load rs2: x9 = 0x65d23f22
    208c:	000ba483          	lw	x9,0(x23)
    2090:	004b8b93          	addi	x23,x23,4
  RVTEST_TESTDATA_LOAD_INT(x23, x21) # load branch taken value: x21 = 0xd40243ad
    2094:	000baa83          	lw	x21,0(x23)
    2098:	004b8b93          	addi	x23,x23,4

0000209c <I_bge_cg_cp_rs1_edges_0xaaaaaaaa>:
I_bge_cg_cp_rs1_edges_0xaaaaaaaa:
  bge x1, x9, 1f # perform operation
    209c:	0090d463          	bge	x1,x9,20a4 <I_bge_cg_cp_rs1_edges_0xaaaaaaaa+0x8>
  LI(x21, -1) # branch not taken, set temp_reg to 0
    20a0:	fff00a93          	addi	x21,x0,-1
1:
  # Check if x21 contains the expected result. x15 is the signature ptr, x5 is the link ptr, x4 is a temp reg.
  RVTEST_SIGUPD(x15, x5, x4, x21, I_bge_cg_cp_rs1_edges_0xaaaaaaaa, I_bge_cg_cp_rs1_edges_0xaaaaaaaa_str)
    20a4:	0007a203          	lw	x4,0(x15)
    20a8:	01520863          	beq	x4,x21,20b8 <I_bge_cg_cp_rs1_edges_0xaaaaaaaa+0x1c>
    20ac:	7d1072ef          	jal	x5,a07c <failedtest_x5_x4>
    20b0:	0000209c          	.word	0x0000209c
    20b4:	0000d91e          	.word	0x0000d91e
    20b8:	00478793          	addi	x15,x15,4

# Testcase cp_rs1_edges (Test source rs1 value = 0x55555555)
  RVTEST_TESTDATA_LOAD_INT(x23, x30) # load rs1: x30 = 0x55555555
    20bc:	000baf03          	lw	x30,0(x23)
    20c0:	004b8b93          	addi	x23,x23,4
  RVTEST_TESTDATA_LOAD_INT(x23, x22) # load rs2: x22 = 0x26eafeed
    20c4:	000bab03          	lw	x22,0(x23)
    20c8:	004b8b93          	addi	x23,x23,4
  RVTEST_TESTDATA_LOAD_INT(x23, x14) # load branch taken value: x14 = 0x83b0a1cf
    20cc:	000ba703          	lw	x14,0(x23)
    20d0:	004b8b93          	addi	x23,x23,4

000020d4 <I_bge_cg_cp_rs1_edges_0x55555555>:
I_bge_cg_cp_rs1_edges_0x55555555:
  bge x30, x22, 1f # perform operation
    20d4:	016f5463          	bge	x30,x22,20dc <I_bge_cg_cp_rs1_edges_0x55555555+0x8>
  LI(x14, -1) # branch not taken, set temp_reg to 0
    20d8:	fff00713          	addi	x14,x0,-1
1:
  # Check if x14 contains the expected result. x15 is the signature ptr, x5 is the link ptr, x4 is a temp reg.
  RVTEST_SIGUPD(x15, x5, x4, x14, I_bge_cg_cp_rs1_edges_0x55555555, I_bge_cg_cp_rs1_edges_0x55555555_str)
    20dc:	0007a203          	lw	x4,0(x15)
    20e0:	00e20863          	beq	x4,x14,20f0 <I_bge_cg_cp_rs1_edges_0x55555555+0x1c>
    20e4:	799072ef          	jal	x5,a07c <failedtest_x5_x4>
    20e8:	000020d4          	.word	0x000020d4
    20ec:	0000d95a          	.word	0x0000d95a
    20f0:	00478793          	addi	x15,x15,4
/////////////////////////////////
// cp_rs2_edges
/////////////////////////////////

# Testcase cp_rs2_edges (Test source rs2 value = 0x00000000)
  RVTEST_TESTDATA_LOAD_INT(x23, x18) # load rs1: x18 = 0xa43b3a53
    20f4:	000ba903          	lw	x18,0(x23)
    20f8:	004b8b93          	addi	x23,x23,4
  RVTEST_TESTDATA_LOAD_INT(x23, x29) # load rs2: x29 = 0x00000000
    20fc:	000bae83          	lw	x29,0(x23)
    2100:	004b8b93          	addi	x23,x23,4
  RVTEST_TESTDATA_LOAD_INT(x23, x10) # load branch taken value: x10 = 0x730d29e4
    2104:	000ba503          	lw	x10,0(x23)
    2108:	004b8b93          	addi	x23,x23,4

0000210c <I_bge_cg_cp_rs2_edges_0x0>:
I_bge_cg_cp_rs2_edges_0x0:
  bge x18, x29, 1f # perform operation
    210c:	01d95463          	bge	x18,x29,2114 <I_bge_cg_cp_rs2_edges_0x0+0x8>
  LI(x10, -1) # branch not taken, set temp_reg to 0
    2110:	fff00513          	addi	x10,x0,-1
1:
  # Check if x10 contains the expected result. x15 is the signature ptr, x5 is the link ptr, x4 is a temp reg.
  RVTEST_SIGUPD(x15, x5, x4, x10, I_bge_cg_cp_rs2_edges_0x0, I_bge_cg_cp_rs2_edges_0x0_str)
    2114:	0007a203          	lw	x4,0(x15)
    2118:	00a20863          	beq	x4,x10,2128 <I_bge_cg_cp_rs2_edges_0x0+0x1c>
    211c:	761072ef          	jal	x5,a07c <failedtest_x5_x4>
    2120:	0000210c          	.word	0x0000210c
    2124:	0000d996          	.word	0x0000d996
    2128:	00478793          	addi	x15,x15,4

# Testcase cp_rs2_edges (Test source rs2 value = 0x00000001)
  RVTEST_TESTDATA_LOAD_INT(x23, x24) # load rs1: x24 = 0xeb81be2c
    212c:	000bac03          	lw	x24,0(x23)
    2130:	004b8b93          	addi	x23,x23,4
  RVTEST_TESTDATA_LOAD_INT(x23, x3) # load rs2: x3 = 0x00000001
    2134:	000ba183          	lw	x3,0(x23)
    2138:	004b8b93          	addi	x23,x23,4
  RVTEST_TESTDATA_LOAD_INT(x23, x25) # load branch taken value: x25 = 0x5660c717
    213c:	000bac83          	lw	x25,0(x23)
    2140:	004b8b93          	addi	x23,x23,4

00002144 <I_bge_cg_cp_rs2_edges_0x1>:
I_bge_cg_cp_rs2_edges_0x1:
  bge x24, x3, 1f # perform operation
    2144:	003c5463          	bge	x24,x3,214c <I_bge_cg_cp_rs2_edges_0x1+0x8>
  LI(x25, -1) # branch not taken, set temp_reg to 0
    2148:	fff00c93          	addi	x25,x0,-1
1:
  # Check if x25 contains the expected result. x15 is the signature ptr, x5 is the link ptr, x4 is a temp reg.
  RVTEST_SIGUPD(x15, x5, x4, x25, I_bge_cg_cp_rs2_edges_0x1, I_bge_cg_cp_rs2_edges_0x1_str)
    214c:	0007a203          	lw	x4,0(x15)
    2150:	01920863          	beq	x4,x25,2160 <I_bge_cg_cp_rs2_edges_0x1+0x1c>
    2154:	729072ef          	jal	x5,a07c <failedtest_x5_x4>
    2158:	00002144          	.word	0x00002144
    215c:	0000d9cb          	.word	0x0000d9cb
    2160:	00478793          	addi	x15,x15,4

# Testcase cp_rs2_edges (Test source rs2 value = 0x00000002)
  RVTEST_TESTDATA_LOAD_INT(x23, x31) # load rs1: x31 = 0xb7da765f
    2164:	000baf83          	lw	x31,0(x23)
    2168:	004b8b93          	addi	x23,x23,4
  RVTEST_TESTDATA_LOAD_INT(x23, x14) # load rs2: x14 = 0x00000002
    216c:	000ba703          	lw	x14,0(x23)
    2170:	004b8b93          	addi	x23,x23,4
  RVTEST_TESTDATA_LOAD_INT(x23, x3) # load branch taken value: x3 = 0xcc5a8e54
    2174:	000ba183          	lw	x3,0(x23)
    2178:	004b8b93          	addi	x23,x23,4

0000217c <I_bge_cg_cp_rs2_edges_0x2>:
I_bge_cg_cp_rs2_edges_0x2:
  bge x31, x14, 1f # perform operation
    217c:	00efd463          	bge	x31,x14,2184 <I_bge_cg_cp_rs2_edges_0x2+0x8>
  LI(x3, -1) # branch not taken, set temp_reg to 0
    2180:	fff00193          	addi	x3,x0,-1
1:
  # Check if x3 contains the expected result. x15 is the signature ptr, x5 is the link ptr, x4 is a temp reg.
  RVTEST_SIGUPD(x15, x5, x4, x3, I_bge_cg_cp_rs2_edges_0x2, I_bge_cg_cp_rs2_edges_0x2_str)
    2184:	0007a203          	lw	x4,0(x15)
    2188:	00320863          	beq	x4,x3,2198 <I_bge_cg_cp_rs2_edges_0x2+0x1c>
    218c:	6f1072ef          	jal	x5,a07c <failedtest_x5_x4>
    2190:	0000217c          	.word	0x0000217c
    2194:	0000da00          	.word	0x0000da00
    2198:	00478793          	addi	x15,x15,4

# Testcase cp_rs2_edges (Test source rs2 value = 0x80000000)
  RVTEST_TESTDATA_LOAD_INT(x23, x8) # load rs1: x8 = 0x13caa878
    219c:	000ba403          	lw	x8,0(x23)
    21a0:	004b8b93          	addi	x23,x23,4
  RVTEST_TESTDATA_LOAD_INT(x23, x12) # load rs2: x12 = 0x80000000
    21a4:	000ba603          	lw	x12,0(x23)
    21a8:	004b8b93          	addi	x23,x23,4
  RVTEST_TESTDATA_LOAD_INT(x23, x1) # load branch taken value: x1 = 0x0b3a4c8c
    21ac:	000ba083          	lw	x1,0(x23)
    21b0:	004b8b93          	addi	x23,x23,4

000021b4 <I_bge_cg_cp_rs2_edges_0x80000000>:
I_bge_cg_cp_rs2_edges_0x80000000:
  bge x8, x12, 1f # perform operation
    21b4:	00c45463          	bge	x8,x12,21bc <I_bge_cg_cp_rs2_edges_0x80000000+0x8>
  LI(x1, -1) # branch not taken, set temp_reg to 0
    21b8:	fff00093          	addi	x1,x0,-1
1:
  # Check if x1 contains the expected result. x15 is the signature ptr, x5 is the link ptr, x4 is a temp reg.
  RVTEST_SIGUPD(x15, x5, x4, x1, I_bge_cg_cp_rs2_edges_0x80000000, I_bge_cg_cp_rs2_edges_0x80000000_str)
    21bc:	0007a203          	lw	x4,0(x15)
    21c0:	00120863          	beq	x4,x1,21d0 <I_bge_cg_cp_rs2_edges_0x80000000+0x1c>
    21c4:	6b9072ef          	jal	x5,a07c <failedtest_x5_x4>
    21c8:	000021b4          	.word	0x000021b4
    21cc:	0000da35          	.word	0x0000da35
    21d0:	00478793          	addi	x15,x15,4

# Testcase cp_rs2_edges (Test source rs2 value = 0x80000001)
  RVTEST_TESTDATA_LOAD_INT(x23, x27) # load rs1: x27 = 0x43830bf3
    21d4:	000bad83          	lw	x27,0(x23)
    21d8:	004b8b93          	addi	x23,x23,4
  RVTEST_TESTDATA_LOAD_INT(x23, x25) # load rs2: x25 = 0x80000001
    21dc:	000bac83          	lw	x25,0(x23)
    21e0:	004b8b93          	addi	x23,x23,4
  RVTEST_TESTDATA_LOAD_INT(x23, x3) # load branch taken value: x3 = 0x4af8da32
    21e4:	000ba183          	lw	x3,0(x23)
    21e8:	004b8b93          	addi	x23,x23,4

000021ec <I_bge_cg_cp_rs2_edges_0x80000001>:
I_bge_cg_cp_rs2_edges_0x80000001:
  bge x27, x25, 1f # perform operation
    21ec:	019dd463          	bge	x27,x25,21f4 <I_bge_cg_cp_rs2_edges_0x80000001+0x8>
  LI(x3, -1) # branch not taken, set temp_reg to 0
    21f0:	fff00193          	addi	x3,x0,-1
1:
  # Check if x3 contains the expected result. x15 is the signature ptr, x5 is the link ptr, x4 is a temp reg.
  RVTEST_SIGUPD(x15, x5, x4, x3, I_bge_cg_cp_rs2_edges_0x80000001, I_bge_cg_cp_rs2_edges_0x80000001_str)
    21f4:	0007a203          	lw	x4,0(x15)
    21f8:	00320863          	beq	x4,x3,2208 <I_bge_cg_cp_rs2_edges_0x80000001+0x1c>
    21fc:	681072ef          	jal	x5,a07c <failedtest_x5_x4>
    2200:	000021ec          	.word	0x000021ec
    2204:	0000da71          	.word	0x0000da71
    2208:	00478793          	addi	x15,x15,4

# Testcase cp_rs2_edges (Test source rs2 value = 0x7fffffff)
  RVTEST_TESTDATA_LOAD_INT(x23, x14) # load rs1: x14 = 0x5f09eb88
    220c:	000ba703          	lw	x14,0(x23)
    2210:	004b8b93          	addi	x23,x23,4
  RVTEST_TESTDATA_LOAD_INT(x23, x28) # load rs2: x28 = 0x7fffffff
    2214:	000bae03          	lw	x28,0(x23)
    2218:	004b8b93          	addi	x23,x23,4
  RVTEST_TESTDATA_LOAD_INT(x23, x6) # load branch taken value: x6 = 0x95f55a9f
    221c:	000ba303          	lw	x6,0(x23)
    2220:	004b8b93          	addi	x23,x23,4

00002224 <I_bge_cg_cp_rs2_edges_0x7fffffff>:
I_bge_cg_cp_rs2_edges_0x7fffffff:
  bge x14, x28, 1f # perform operation
    2224:	01c75463          	bge	x14,x28,222c <I_bge_cg_cp_rs2_edges_0x7fffffff+0x8>
  LI(x6, -1) # branch not taken, set temp_reg to 0
    2228:	fff00313          	addi	x6,x0,-1
1:
  # Check if x6 contains the expected result. x15 is the signature ptr, x5 is the link ptr, x4 is a temp reg.
  RVTEST_SIGUPD(x15, x5, x4, x6, I_bge_cg_cp_rs2_edges_0x7fffffff, I_bge_cg_cp_rs2_edges_0x7fffffff_str)
    222c:	0007a203          	lw	x4,0(x15)
    2230:	00620863          	beq	x4,x6,2240 <I_bge_cg_cp_rs2_edges_0x7fffffff+0x1c>
    2234:	649072ef          	jal	x5,a07c <failedtest_x5_x4>
    2238:	00002224          	.word	0x00002224
    223c:	0000daad          	.word	0x0000daad
    2240:	00478793          	addi	x15,x15,4

# Testcase cp_rs2_edges (Test source rs2 value = 0x7ffffffe)
  RVTEST_TESTDATA_LOAD_INT(x23, x18) # load rs1: x18 = 0x270dadbe
    2244:	000ba903          	lw	x18,0(x23)
    2248:	004b8b93          	addi	x23,x23,4
  RVTEST_TESTDATA_LOAD_INT(x23, x12) # load rs2: x12 = 0x7ffffffe
    224c:	000ba603          	lw	x12,0(x23)
    2250:	004b8b93          	addi	x23,x23,4
  RVTEST_TESTDATA_LOAD_INT(x23, x20) # load branch taken value: x20 = 0x5080ae6a
    2254:	000baa03          	lw	x20,0(x23)
    2258:	004b8b93          	addi	x23,x23,4

0000225c <I_bge_cg_cp_rs2_edges_0x7ffffffe>:
I_bge_cg_cp_rs2_edges_0x7ffffffe:
  bge x18, x12, 1f # perform operation
    225c:	00c95463          	bge	x18,x12,2264 <I_bge_cg_cp_rs2_edges_0x7ffffffe+0x8>
  LI(x20, -1) # branch not taken, set temp_reg to 0
    2260:	fff00a13          	addi	x20,x0,-1
1:
  # Check if x20 contains the expected result. x15 is the signature ptr, x5 is the link ptr, x4 is a temp reg.
  RVTEST_SIGUPD(x15, x5, x4, x20, I_bge_cg_cp_rs2_edges_0x7ffffffe, I_bge_cg_cp_rs2_edges_0x7ffffffe_str)
    2264:	0007a203          	lw	x4,0(x15)
    2268:	01420863          	beq	x4,x20,2278 <I_bge_cg_cp_rs2_edges_0x7ffffffe+0x1c>
    226c:	611072ef          	jal	x5,a07c <failedtest_x5_x4>
    2270:	0000225c          	.word	0x0000225c
    2274:	0000dae9          	.word	0x0000dae9
    2278:	00478793          	addi	x15,x15,4

# Testcase cp_rs2_edges (Test source rs2 value = 0xffffffff)
  RVTEST_TESTDATA_LOAD_INT(x23, x31) # load rs1: x31 = 0xa6a5fe74
    227c:	000baf83          	lw	x31,0(x23)
    2280:	004b8b93          	addi	x23,x23,4
  RVTEST_TESTDATA_LOAD_INT(x23, x16) # load rs2: x16 = 0xffffffff
    2284:	000ba803          	lw	x16,0(x23)
    2288:	004b8b93          	addi	x23,x23,4
  RVTEST_TESTDATA_LOAD_INT(x23, x10) # load branch taken value: x10 = 0x3dece71e
    228c:	000ba503          	lw	x10,0(x23)
    2290:	004b8b93          	addi	x23,x23,4

00002294 <I_bge_cg_cp_rs2_edges_0xffffffff>:
I_bge_cg_cp_rs2_edges_0xffffffff:
  bge x31, x16, 1f # perform operation
    2294:	010fd463          	bge	x31,x16,229c <I_bge_cg_cp_rs2_edges_0xffffffff+0x8>
  LI(x10, -1) # branch not taken, set temp_reg to 0
    2298:	fff00513          	addi	x10,x0,-1
1:
  # Check if x10 contains the expected result. x15 is the signature ptr, x5 is the link ptr, x4 is a temp reg.
  RVTEST_SIGUPD(x15, x5, x4, x10, I_bge_cg_cp_rs2_edges_0xffffffff, I_bge_cg_cp_rs2_edges_0xffffffff_str)
    229c:	0007a203          	lw	x4,0(x15)
    22a0:	00a20863          	beq	x4,x10,22b0 <I_bge_cg_cp_rs2_edges_0xffffffff+0x1c>
    22a4:	5d9072ef          	jal	x5,a07c <failedtest_x5_x4>
    22a8:	00002294          	.word	0x00002294
    22ac:	0000db25          	.word	0x0000db25
    22b0:	00478793          	addi	x15,x15,4

# Testcase cp_rs2_edges (Test source rs2 value = 0xfffffffe)
  RVTEST_TESTDATA_LOAD_INT(x23, x9) # load rs1: x9 = 0x60c0d387
    22b4:	000ba483          	lw	x9,0(x23)
    22b8:	004b8b93          	addi	x23,x23,4
  RVTEST_TESTDATA_LOAD_INT(x23, x18) # load rs2: x18 = 0xfffffffe
    22bc:	000ba903          	lw	x18,0(x23)
    22c0:	004b8b93          	addi	x23,x23,4
  RVTEST_TESTDATA_LOAD_INT(x23, x3) # load branch taken value: x3 = 0x8b3ecbac
    22c4:	000ba183          	lw	x3,0(x23)
    22c8:	004b8b93          	addi	x23,x23,4

000022cc <I_bge_cg_cp_rs2_edges_0xfffffffe>:
I_bge_cg_cp_rs2_edges_0xfffffffe:
  bge x9, x18, 1f # perform operation
    22cc:	0124d463          	bge	x9,x18,22d4 <I_bge_cg_cp_rs2_edges_0xfffffffe+0x8>
  LI(x3, -1) # branch not taken, set temp_reg to 0
    22d0:	fff00193          	addi	x3,x0,-1
1:
  # Check if x3 contains the expected result. x15 is the signature ptr, x5 is the link ptr, x4 is a temp reg.
  RVTEST_SIGUPD(x15, x5, x4, x3, I_bge_cg_cp_rs2_edges_0xfffffffe, I_bge_cg_cp_rs2_edges_0xfffffffe_str)
    22d4:	0007a203          	lw	x4,0(x15)
    22d8:	00320863          	beq	x4,x3,22e8 <I_bge_cg_cp_rs2_edges_0xfffffffe+0x1c>
    22dc:	5a1072ef          	jal	x5,a07c <failedtest_x5_x4>
    22e0:	000022cc          	.word	0x000022cc
    22e4:	0000db61          	.word	0x0000db61
    22e8:	00478793          	addi	x15,x15,4

# Testcase cp_rs2_edges (Test source rs2 value = 0x5bbc8872)
  RVTEST_TESTDATA_LOAD_INT(x23, x29) # load rs1: x29 = 0xc8544500
    22ec:	000bae83          	lw	x29,0(x23)
    22f0:	004b8b93          	addi	x23,x23,4
  RVTEST_TESTDATA_LOAD_INT(x23, x20) # load rs2: x20 = 0x5bbc8872
    22f4:	000baa03          	lw	x20,0(x23)
    22f8:	004b8b93          	addi	x23,x23,4
  RVTEST_TESTDATA_LOAD_INT(x23, x6) # load branch taken value: x6 = 0xc07cbb14
    22fc:	000ba303          	lw	x6,0(x23)
    2300:	004b8b93          	addi	x23,x23,4

00002304 <I_bge_cg_cp_rs2_edges_0x5bbc8872>:
I_bge_cg_cp_rs2_edges_0x5bbc8872:
  bge x29, x20, 1f # perform operation
    2304:	014ed463          	bge	x29,x20,230c <I_bge_cg_cp_rs2_edges_0x5bbc8872+0x8>
  LI(x6, -1) # branch not taken, set temp_reg to 0
    2308:	fff00313          	addi	x6,x0,-1
1:
  # Check if x6 contains the expected result. x15 is the signature ptr, x5 is the link ptr, x4 is a temp reg.
  RVTEST_SIGUPD(x15, x5, x4, x6, I_bge_cg_cp_rs2_edges_0x5bbc8872, I_bge_cg_cp_rs2_edges_0x5bbc8872_str)
    230c:	0007a203          	lw	x4,0(x15)
    2310:	00620863          	beq	x4,x6,2320 <I_bge_cg_cp_rs2_edges_0x5bbc8872+0x1c>
    2314:	569072ef          	jal	x5,a07c <failedtest_x5_x4>
    2318:	00002304          	.word	0x00002304
    231c:	0000db9d          	.word	0x0000db9d
    2320:	00478793          	addi	x15,x15,4

# Testcase cp_rs2_edges (Test source rs2 value = 0xaaaaaaaa)
  RVTEST_TESTDATA_LOAD_INT(x23, x28) # load rs1: x28 = 0xac1e0ff3
    2324:	000bae03          	lw	x28,0(x23)
    2328:	004b8b93          	addi	x23,x23,4
  RVTEST_TESTDATA_LOAD_INT(x23, x26) # load rs2: x26 = 0xaaaaaaaa
    232c:	000bad03          	lw	x26,0(x23)
    2330:	004b8b93          	addi	x23,x23,4
  RVTEST_TESTDATA_LOAD_INT(x23, x18) # load branch taken value: x18 = 0xd2a171ee
    2334:	000ba903          	lw	x18,0(x23)
    2338:	004b8b93          	addi	x23,x23,4

0000233c <I_bge_cg_cp_rs2_edges_0xaaaaaaaa>:
I_bge_cg_cp_rs2_edges_0xaaaaaaaa:
  bge x28, x26, 1f # perform operation
    233c:	01ae5463          	bge	x28,x26,2344 <I_bge_cg_cp_rs2_edges_0xaaaaaaaa+0x8>
  LI(x18, -1) # branch not taken, set temp_reg to 0
    2340:	fff00913          	addi	x18,x0,-1
1:
  # Check if x18 contains the expected result. x15 is the signature ptr, x5 is the link ptr, x4 is a temp reg.
  RVTEST_SIGUPD(x15, x5, x4, x18, I_bge_cg_cp_rs2_edges_0xaaaaaaaa, I_bge_cg_cp_rs2_edges_0xaaaaaaaa_str)
    2344:	0007a203          	lw	x4,0(x15)
    2348:	01220863          	beq	x4,x18,2358 <I_bge_cg_cp_rs2_edges_0xaaaaaaaa+0x1c>
    234c:	531072ef          	jal	x5,a07c <failedtest_x5_x4>
    2350:	0000233c          	.word	0x0000233c
    2354:	0000dbd9          	.word	0x0000dbd9
    2358:	00478793          	addi	x15,x15,4

# Testcase cp_rs2_edges (Test source rs2 value = 0x55555555)
  RVTEST_TESTDATA_LOAD_INT(x23, x26) # load rs1: x26 = 0x6a1b19e8
    235c:	000bad03          	lw	x26,0(x23)
    2360:	004b8b93          	addi	x23,x23,4
  RVTEST_TESTDATA_LOAD_INT(x23, x27) # load rs2: x27 = 0x55555555
    2364:	000bad83          	lw	x27,0(x23)
    2368:	004b8b93          	addi	x23,x23,4
  RVTEST_TESTDATA_LOAD_INT(x23, x16) # load branch taken value: x16 = 0x3a8ab716
    236c:	000ba803          	lw	x16,0(x23)
    2370:	004b8b93          	addi	x23,x23,4

00002374 <I_bge_cg_cp_rs2_edges_0x55555555>:
I_bge_cg_cp_rs2_edges_0x55555555:
  bge x26, x27, 1f # perform operation
    2374:	01bd5463          	bge	x26,x27,237c <I_bge_cg_cp_rs2_edges_0x55555555+0x8>
  LI(x16, -1) # branch not taken, set temp_reg to 0
    2378:	fff00813          	addi	x16,x0,-1
1:
  # Check if x16 contains the expected result. x15 is the signature ptr, x5 is the link ptr, x4 is a temp reg.
  RVTEST_SIGUPD(x15, x5, x4, x16, I_bge_cg_cp_rs2_edges_0x55555555, I_bge_cg_cp_rs2_edges_0x55555555_str)
    237c:	0007a203          	lw	x4,0(x15)
    2380:	01020863          	beq	x4,x16,2390 <I_bge_cg_cp_rs2_edges_0x55555555+0x1c>
    2384:	4f9072ef          	jal	x5,a07c <failedtest_x5_x4>
    2388:	00002374          	.word	0x00002374
    238c:	0000dc15          	.word	0x0000dc15
    2390:	00478793          	addi	x15,x15,4
/////////////////////////////////
// cr_rs1_rs2_edges_offset
/////////////////////////////////

# cr_rs1_rs2_edges_offset (Test source rs1 = 0x00000000 rs2 = 0x00000000)
  RVTEST_TESTDATA_LOAD_INT(x23, x3) # load rs1: x3 = 0x00000000
    2394:	000ba183          	lw	x3,0(x23)
    2398:	004b8b93          	addi	x23,x23,4
  RVTEST_TESTDATA_LOAD_INT(x23, x8) # load rs2: x8 = 0x00000000
    239c:	000ba403          	lw	x8,0(x23)
    23a0:	004b8b93          	addi	x23,x23,4

000023a4 <I_bge_cg_cr_rs1_rs2_edges_offset_rs1val_0x0_rs2val_0x0>:
0: # destination for backwards branch that is never taken
I_bge_cg_cr_rs1_rs2_edges_offset_rs1val_0x0_rs2val_0x0:
  bge x3, x8, 3f # forward branch, if taken
    23a4:	0481d263          	bge	x3,x8,23e8 <I_bge_cg_cr_rs1_rs2_edges_offset_rs1val_0x0_rs2val_0x0+0x44>
1: # goes here if not taken
  bge x3, x8, 0b # backward branch, never taken
    23a8:	fe81dee3          	bge	x3,x8,23a4 <I_bge_cg_cr_rs1_rs2_edges_offset_rs1val_0x0_rs2val_0x0>
  # Check if x0 contains the expected result. x15 is the signature ptr, x5 is the link ptr, x4 is a temp reg.
  RVTEST_SIGUPD(x15, x5, x4, x0, I_bge_cg_cr_rs1_rs2_edges_offset_rs1val_0x0_rs2val_0x0, I_bge_cg_cr_rs1_rs2_edges_offset_rs1val_0x0_rs2val_0x0_str)
    23ac:	0007a203          	lw	x4,0(x15)
    23b0:	00020863          	beq	x4,x0,23c0 <I_bge_cg_cr_rs1_rs2_edges_offset_rs1val_0x0_rs2val_0x0+0x1c>
    23b4:	4c9072ef          	jal	x5,a07c <failedtest_x5_x4>
    23b8:	000023a4          	.word	0x000023a4
    23bc:	0000dc51          	.word	0x0000dc51
    23c0:	00478793          	addi	x15,x15,4
  j 4f # done with test
    23c4:	0280006f          	jal	x0,23ec <I_bge_cg_cr_rs1_rs2_edges_offset_rs1val_0x0_rs2val_0x0+0x48>
2: # goes here during backward branch if taken
  LI(x3, 1)
    23c8:	00100193          	addi	x3,x0,1
  # Check if x3 contains the expected result. x15 is the signature ptr, x5 is the link ptr, x4 is a temp reg.
  RVTEST_SIGUPD(x15, x5, x4, x3, I_bge_cg_cr_rs1_rs2_edges_offset_rs1val_0x0_rs2val_0x0, I_bge_cg_cr_rs1_rs2_edges_offset_rs1val_0x0_rs2val_0x0_str) # signature 1 for taken
    23cc:	0007a203          	lw	x4,0(x15)
    23d0:	00320863          	beq	x4,x3,23e0 <I_bge_cg_cr_rs1_rs2_edges_offset_rs1val_0x0_rs2val_0x0+0x3c>
    23d4:	4a9072ef          	jal	x5,a07c <failedtest_x5_x4>
    23d8:	000023a4          	.word	0x000023a4
    23dc:	0000dc51          	.word	0x0000dc51
    23e0:	00478793          	addi	x15,x15,4
  j 4f # done with test
    23e4:	0080006f          	jal	x0,23ec <I_bge_cg_cr_rs1_rs2_edges_offset_rs1val_0x0_rs2val_0x0+0x48>
3: # goes here during forward branch if taken
  bge x3, x8, 2b # backward branch, definitely taken
    23e8:	fe81d0e3          	bge	x3,x8,23c8 <I_bge_cg_cr_rs1_rs2_edges_offset_rs1val_0x0_rs2val_0x0+0x24>
4: # done with test

# cr_rs1_rs2_edges_offset (Test source rs1 = 0x00000000 rs2 = 0x00000001)
  RVTEST_TESTDATA_LOAD_INT(x23, x22) # load rs1: x22 = 0x00000000
    23ec:	000bab03          	lw	x22,0(x23)
    23f0:	004b8b93          	addi	x23,x23,4
  RVTEST_TESTDATA_LOAD_INT(x23, x1) # load rs2: x1 = 0x00000001
    23f4:	000ba083          	lw	x1,0(x23)
    23f8:	004b8b93          	addi	x23,x23,4

000023fc <I_bge_cg_cr_rs1_rs2_edges_offset_rs1val_0x0_rs2val_0x1>:
0: # destination for backwards branch that is never taken
I_bge_cg_cr_rs1_rs2_edges_offset_rs1val_0x0_rs2val_0x1:
  bge x22, x1, 3f # forward branch, if taken
    23fc:	041b5263          	bge	x22,x1,2440 <I_bge_cg_cr_rs1_rs2_edges_offset_rs1val_0x0_rs2val_0x1+0x44>
1: # goes here if not taken
  bge x22, x1, 0b # backward branch, never taken
    2400:	fe1b5ee3          	bge	x22,x1,23fc <I_bge_cg_cr_rs1_rs2_edges_offset_rs1val_0x0_rs2val_0x1>
  # Check if x0 contains the expected result. x15 is the signature ptr, x5 is the link ptr, x4 is a temp reg.
  RVTEST_SIGUPD(x15, x5, x4, x0, I_bge_cg_cr_rs1_rs2_edges_offset_rs1val_0x0_rs2val_0x1, I_bge_cg_cr_rs1_rs2_edges_offset_rs1val_0x0_rs2val_0x1_str)
    2404:	0007a203          	lw	x4,0(x15)
    2408:	00020863          	beq	x4,x0,2418 <I_bge_cg_cr_rs1_rs2_edges_offset_rs1val_0x0_rs2val_0x1+0x1c>
    240c:	471072ef          	jal	x5,a07c <failedtest_x5_x4>
    2410:	000023fc          	.word	0x000023fc
    2414:	0000dca4          	.word	0x0000dca4
    2418:	00478793          	addi	x15,x15,4
  j 4f # done with test
    241c:	0280006f          	jal	x0,2444 <I_bge_cg_cr_rs1_rs2_edges_offset_rs1val_0x0_rs2val_0x1+0x48>
2: # goes here during backward branch if taken
  LI(x22, 1)
    2420:	00100b13          	addi	x22,x0,1
  # Check if x22 contains the expected result. x15 is the signature ptr, x5 is the link ptr, x4 is a temp reg.
  RVTEST_SIGUPD(x15, x5, x4, x22, I_bge_cg_cr_rs1_rs2_edges_offset_rs1val_0x0_rs2val_0x1, I_bge_cg_cr_rs1_rs2_edges_offset_rs1val_0x0_rs2val_0x1_str) # signature 1 for taken
    2424:	0007a203          	lw	x4,0(x15)
    2428:	01620863          	beq	x4,x22,2438 <I_bge_cg_cr_rs1_rs2_edges_offset_rs1val_0x0_rs2val_0x1+0x3c>
    242c:	451072ef          	jal	x5,a07c <failedtest_x5_x4>
    2430:	000023fc          	.word	0x000023fc
    2434:	0000dca4          	.word	0x0000dca4
    2438:	00478793          	addi	x15,x15,4
  j 4f # done with test
    243c:	0080006f          	jal	x0,2444 <I_bge_cg_cr_rs1_rs2_edges_offset_rs1val_0x0_rs2val_0x1+0x48>
3: # goes here during forward branch if taken
  bge x22, x1, 2b # backward branch, definitely taken
    2440:	fe1b50e3          	bge	x22,x1,2420 <I_bge_cg_cr_rs1_rs2_edges_offset_rs1val_0x0_rs2val_0x1+0x24>
4: # done with test

# cr_rs1_rs2_edges_offset (Test source rs1 = 0x00000000 rs2 = 0x00000002)
  RVTEST_TESTDATA_LOAD_INT(x23, x6) # load rs1: x6 = 0x00000000
    2444:	000ba303          	lw	x6,0(x23)
    2448:	004b8b93          	addi	x23,x23,4
  RVTEST_TESTDATA_LOAD_INT(x23, x12) # load rs2: x12 = 0x00000002
    244c:	000ba603          	lw	x12,0(x23)
    2450:	004b8b93          	addi	x23,x23,4

00002454 <I_bge_cg_cr_rs1_rs2_edges_offset_rs1val_0x0_rs2val_0x2>:
0: # destination for backwards branch that is never taken
I_bge_cg_cr_rs1_rs2_edges_offset_rs1val_0x0_rs2val_0x2:
  bge x6, x12, 3f # forward branch, if taken
    2454:	04c35263          	bge	x6,x12,2498 <I_bge_cg_cr_rs1_rs2_edges_offset_rs1val_0x0_rs2val_0x2+0x44>
1: # goes here if not taken
  bge x6, x12, 0b # backward branch, never taken
    2458:	fec35ee3          	bge	x6,x12,2454 <I_bge_cg_cr_rs1_rs2_edges_offset_rs1val_0x0_rs2val_0x2>
  # Check if x0 contains the expected result. x15 is the signature ptr, x5 is the link ptr, x4 is a temp reg.
  RVTEST_SIGUPD(x15, x5, x4, x0, I_bge_cg_cr_rs1_rs2_edges_offset_rs1val_0x0_rs2val_0x2, I_bge_cg_cr_rs1_rs2_edges_offset_rs1val_0x0_rs2val_0x2_str)
    245c:	0007a203          	lw	x4,0(x15)
    2460:	00020863          	beq	x4,x0,2470 <I_bge_cg_cr_rs1_rs2_edges_offset_rs1val_0x0_rs2val_0x2+0x1c>
    2464:	419072ef          	jal	x5,a07c <failedtest_x5_x4>
    2468:	00002454          	.word	0x00002454
    246c:	0000dcf7          	.word	0x0000dcf7
    2470:	00478793          	addi	x15,x15,4
  j 4f # done with test
    2474:	0280006f          	jal	x0,249c <I_bge_cg_cr_rs1_rs2_edges_offset_rs1val_0x0_rs2val_0x2+0x48>
2: # goes here during backward branch if taken
  LI(x6, 1)
    2478:	00100313          	addi	x6,x0,1
  # Check if x6 contains the expected result. x15 is the signature ptr, x5 is the link ptr, x4 is a temp reg.
  RVTEST_SIGUPD(x15, x5, x4, x6, I_bge_cg_cr_rs1_rs2_edges_offset_rs1val_0x0_rs2val_0x2, I_bge_cg_cr_rs1_rs2_edges_offset_rs1val_0x0_rs2val_0x2_str) # signature 1 for taken
    247c:	0007a203          	lw	x4,0(x15)
    2480:	00620863          	beq	x4,x6,2490 <I_bge_cg_cr_rs1_rs2_edges_offset_rs1val_0x0_rs2val_0x2+0x3c>
    2484:	3f9072ef          	jal	x5,a07c <failedtest_x5_x4>
    2488:	00002454          	.word	0x00002454
    248c:	0000dcf7          	.word	0x0000dcf7
    2490:	00478793          	addi	x15,x15,4
  j 4f # done with test
    2494:	0080006f          	jal	x0,249c <I_bge_cg_cr_rs1_rs2_edges_offset_rs1val_0x0_rs2val_0x2+0x48>
3: # goes here during forward branch if taken
  bge x6, x12, 2b # backward branch, definitely taken
    2498:	fec350e3          	bge	x6,x12,2478 <I_bge_cg_cr_rs1_rs2_edges_offset_rs1val_0x0_rs2val_0x2+0x24>
4: # done with test

# cr_rs1_rs2_edges_offset (Test source rs1 = 0x00000000 rs2 = 0x80000000)
  RVTEST_TESTDATA_LOAD_INT(x23, x25) # load rs1: x25 = 0x00000000
    249c:	000bac83          	lw	x25,0(x23)
    24a0:	004b8b93          	addi	x23,x23,4
  RVTEST_TESTDATA_LOAD_INT(x23, x28) # load rs2: x28 = 0x80000000
    24a4:	000bae03          	lw	x28,0(x23)
    24a8:	004b8b93          	addi	x23,x23,4

000024ac <I_bge_cg_cr_rs1_rs2_edges_offset_rs1val_0x0_rs2val_0x80000000>:
0: # destination for backwards branch that is never taken
I_bge_cg_cr_rs1_rs2_edges_offset_rs1val_0x0_rs2val_0x80000000:
  bge x25, x28, 3f # forward branch, if taken
    24ac:	05ccd263          	bge	x25,x28,24f0 <I_bge_cg_cr_rs1_rs2_edges_offset_rs1val_0x0_rs2val_0x80000000+0x44>
1: # goes here if not taken
  bge x25, x28, 0b # backward branch, never taken
    24b0:	ffccdee3          	bge	x25,x28,24ac <I_bge_cg_cr_rs1_rs2_edges_offset_rs1val_0x0_rs2val_0x80000000>
  # Check if x0 contains the expected result. x15 is the signature ptr, x5 is the link ptr, x4 is a temp reg.
  RVTEST_SIGUPD(x15, x5, x4, x0, I_bge_cg_cr_rs1_rs2_edges_offset_rs1val_0x0_rs2val_0x80000000, I_bge_cg_cr_rs1_rs2_edges_offset_rs1val_0x0_rs2val_0x80000000_str)
    24b4:	0007a203          	lw	x4,0(x15)
    24b8:	00020863          	beq	x4,x0,24c8 <I_bge_cg_cr_rs1_rs2_edges_offset_rs1val_0x0_rs2val_0x80000000+0x1c>
    24bc:	3c1072ef          	jal	x5,a07c <failedtest_x5_x4>
    24c0:	000024ac          	.word	0x000024ac
    24c4:	0000dd4a          	.word	0x0000dd4a
    24c8:	00478793          	addi	x15,x15,4
  j 4f # done with test
    24cc:	0280006f          	jal	x0,24f4 <I_bge_cg_cr_rs1_rs2_edges_offset_rs1val_0x0_rs2val_0x80000000+0x48>
2: # goes here during backward branch if taken
  LI(x25, 1)
    24d0:	00100c93          	addi	x25,x0,1
  # Check if x25 contains the expected result. x15 is the signature ptr, x5 is the link ptr, x4 is a temp reg.
  RVTEST_SIGUPD(x15, x5, x4, x25, I_bge_cg_cr_rs1_rs2_edges_offset_rs1val_0x0_rs2val_0x80000000, I_bge_cg_cr_rs1_rs2_edges_offset_rs1val_0x0_rs2val_0x80000000_str) # signature 1 for taken
    24d4:	0007a203          	lw	x4,0(x15)
    24d8:	01920863          	beq	x4,x25,24e8 <I_bge_cg_cr_rs1_rs2_edges_offset_rs1val_0x0_rs2val_0x80000000+0x3c>
    24dc:	3a1072ef          	jal	x5,a07c <failedtest_x5_x4>
    24e0:	000024ac          	.word	0x000024ac
    24e4:	0000dd4a          	.word	0x0000dd4a
    24e8:	00478793          	addi	x15,x15,4
  j 4f # done with test
    24ec:	0080006f          	jal	x0,24f4 <I_bge_cg_cr_rs1_rs2_edges_offset_rs1val_0x0_rs2val_0x80000000+0x48>
3: # goes here during forward branch if taken
  bge x25, x28, 2b # backward branch, definitely taken
    24f0:	ffccd0e3          	bge	x25,x28,24d0 <I_bge_cg_cr_rs1_rs2_edges_offset_rs1val_0x0_rs2val_0x80000000+0x24>
4: # done with test

# cr_rs1_rs2_edges_offset (Test source rs1 = 0x00000000 rs2 = 0x80000001)
  RVTEST_TESTDATA_LOAD_INT(x23, x13) # load rs1: x13 = 0x00000000
    24f4:	000ba683          	lw	x13,0(x23)
    24f8:	004b8b93          	addi	x23,x23,4
  RVTEST_TESTDATA_LOAD_INT(x23, x25) # load rs2: x25 = 0x80000001
    24fc:	000bac83          	lw	x25,0(x23)
    2500:	004b8b93          	addi	x23,x23,4

00002504 <I_bge_cg_cr_rs1_rs2_edges_offset_rs1val_0x0_rs2val_0x80000001>:
0: # destination for backwards branch that is never taken
I_bge_cg_cr_rs1_rs2_edges_offset_rs1val_0x0_rs2val_0x80000001:
  bge x13, x25, 3f # forward branch, if taken
    2504:	0596d263          	bge	x13,x25,2548 <I_bge_cg_cr_rs1_rs2_edges_offset_rs1val_0x0_rs2val_0x80000001+0x44>
1: # goes here if not taken
  bge x13, x25, 0b # backward branch, never taken
    2508:	ff96dee3          	bge	x13,x25,2504 <I_bge_cg_cr_rs1_rs2_edges_offset_rs1val_0x0_rs2val_0x80000001>
  # Check if x0 contains the expected result. x15 is the signature ptr, x5 is the link ptr, x4 is a temp reg.
  RVTEST_SIGUPD(x15, x5, x4, x0, I_bge_cg_cr_rs1_rs2_edges_offset_rs1val_0x0_rs2val_0x80000001, I_bge_cg_cr_rs1_rs2_edges_offset_rs1val_0x0_rs2val_0x80000001_str)
    250c:	0007a203          	lw	x4,0(x15)
    2510:	00020863          	beq	x4,x0,2520 <I_bge_cg_cr_rs1_rs2_edges_offset_rs1val_0x0_rs2val_0x80000001+0x1c>
    2514:	369072ef          	jal	x5,a07c <failedtest_x5_x4>
    2518:	00002504          	.word	0x00002504
    251c:	0000dda4          	.word	0x0000dda4
    2520:	00478793          	addi	x15,x15,4
  j 4f # done with test
    2524:	0280006f          	jal	x0,254c <I_bge_cg_cr_rs1_rs2_edges_offset_rs1val_0x0_rs2val_0x80000001+0x48>
2: # goes here during backward branch if taken
  LI(x13, 1)
    2528:	00100693          	addi	x13,x0,1
  # Check if x13 contains the expected result. x15 is the signature ptr, x5 is the link ptr, x4 is a temp reg.
  RVTEST_SIGUPD(x15, x5, x4, x13, I_bge_cg_cr_rs1_rs2_edges_offset_rs1val_0x0_rs2val_0x80000001, I_bge_cg_cr_rs1_rs2_edges_offset_rs1val_0x0_rs2val_0x80000001_str) # signature 1 for taken
    252c:	0007a203          	lw	x4,0(x15)
    2530:	00d20863          	beq	x4,x13,2540 <I_bge_cg_cr_rs1_rs2_edges_offset_rs1val_0x0_rs2val_0x80000001+0x3c>
    2534:	349072ef          	jal	x5,a07c <failedtest_x5_x4>
    2538:	00002504          	.word	0x00002504
    253c:	0000dda4          	.word	0x0000dda4
    2540:	00478793          	addi	x15,x15,4
  j 4f # done with test
    2544:	0080006f          	jal	x0,254c <I_bge_cg_cr_rs1_rs2_edges_offset_rs1val_0x0_rs2val_0x80000001+0x48>
3: # goes here during forward branch if taken
  bge x13, x25, 2b # backward branch, definitely taken
    2548:	ff96d0e3          	bge	x13,x25,2528 <I_bge_cg_cr_rs1_rs2_edges_offset_rs1val_0x0_rs2val_0x80000001+0x24>
4: # done with test

# cr_rs1_rs2_edges_offset (Test source rs1 = 0x00000000 rs2 = 0x7fffffff)
  RVTEST_TESTDATA_LOAD_INT(x23, x8) # load rs1: x8 = 0x00000000
    254c:	000ba403          	lw	x8,0(x23)
    2550:	004b8b93          	addi	x23,x23,4
  RVTEST_TESTDATA_LOAD_INT(x23, x22) # load rs2: x22 = 0x7fffffff
    2554:	000bab03          	lw	x22,0(x23)
    2558:	004b8b93          	addi	x23,x23,4

0000255c <I_bge_cg_cr_rs1_rs2_edges_offset_rs1val_0x0_rs2val_0x7fffffff>:
0: # destination for backwards branch that is never taken
I_bge_cg_cr_rs1_rs2_edges_offset_rs1val_0x0_rs2val_0x7fffffff:
  bge x8, x22, 3f # forward branch, if taken
    255c:	05645263          	bge	x8,x22,25a0 <I_bge_cg_cr_rs1_rs2_edges_offset_rs1val_0x0_rs2val_0x7fffffff+0x44>
1: # goes here if not taken
  bge x8, x22, 0b # backward branch, never taken
    2560:	ff645ee3          	bge	x8,x22,255c <I_bge_cg_cr_rs1_rs2_edges_offset_rs1val_0x0_rs2val_0x7fffffff>
  # Check if x0 contains the expected result. x15 is the signature ptr, x5 is the link ptr, x4 is a temp reg.
  RVTEST_SIGUPD(x15, x5, x4, x0, I_bge_cg_cr_rs1_rs2_edges_offset_rs1val_0x0_rs2val_0x7fffffff, I_bge_cg_cr_rs1_rs2_edges_offset_rs1val_0x0_rs2val_0x7fffffff_str)
    2564:	0007a203          	lw	x4,0(x15)
    2568:	00020863          	beq	x4,x0,2578 <I_bge_cg_cr_rs1_rs2_edges_offset_rs1val_0x0_rs2val_0x7fffffff+0x1c>
    256c:	311072ef          	jal	x5,a07c <failedtest_x5_x4>
    2570:	0000255c          	.word	0x0000255c
    2574:	0000ddfe          	.word	0x0000ddfe
    2578:	00478793          	addi	x15,x15,4
  j 4f # done with test
    257c:	0280006f          	jal	x0,25a4 <I_bge_cg_cr_rs1_rs2_edges_offset_rs1val_0x0_rs2val_0x7fffffff+0x48>
2: # goes here during backward branch if taken
  LI(x8, 1)
    2580:	00100413          	addi	x8,x0,1
  # Check if x8 contains the expected result. x15 is the signature ptr, x5 is the link ptr, x4 is a temp reg.
  RVTEST_SIGUPD(x15, x5, x4, x8, I_bge_cg_cr_rs1_rs2_edges_offset_rs1val_0x0_rs2val_0x7fffffff, I_bge_cg_cr_rs1_rs2_edges_offset_rs1val_0x0_rs2val_0x7fffffff_str) # signature 1 for taken
    2584:	0007a203          	lw	x4,0(x15)
    2588:	00820863          	beq	x4,x8,2598 <I_bge_cg_cr_rs1_rs2_edges_offset_rs1val_0x0_rs2val_0x7fffffff+0x3c>
    258c:	2f1072ef          	jal	x5,a07c <failedtest_x5_x4>
    2590:	0000255c          	.word	0x0000255c
    2594:	0000ddfe          	.word	0x0000ddfe
    2598:	00478793          	addi	x15,x15,4
  j 4f # done with test
    259c:	0080006f          	jal	x0,25a4 <I_bge_cg_cr_rs1_rs2_edges_offset_rs1val_0x0_rs2val_0x7fffffff+0x48>
3: # goes here during forward branch if taken
  bge x8, x22, 2b # backward branch, definitely taken
    25a0:	ff6450e3          	bge	x8,x22,2580 <I_bge_cg_cr_rs1_rs2_edges_offset_rs1val_0x0_rs2val_0x7fffffff+0x24>
4: # done with test

# cr_rs1_rs2_edges_offset (Test source rs1 = 0x00000000 rs2 = 0x7ffffffe)
  RVTEST_TESTDATA_LOAD_INT(x23, x7) # load rs1: x7 = 0x00000000
    25a4:	000ba383          	lw	x7,0(x23)
    25a8:	004b8b93          	addi	x23,x23,4
  RVTEST_TESTDATA_LOAD_INT(x23, x28) # load rs2: x28 = 0x7ffffffe
    25ac:	000bae03          	lw	x28,0(x23)
    25b0:	004b8b93          	addi	x23,x23,4

000025b4 <I_bge_cg_cr_rs1_rs2_edges_offset_rs1val_0x0_rs2val_0x7ffffffe>:
0: # destination for backwards branch that is never taken
I_bge_cg_cr_rs1_rs2_edges_offset_rs1val_0x0_rs2val_0x7ffffffe:
  bge x7, x28, 3f # forward branch, if taken
    25b4:	05c3d263          	bge	x7,x28,25f8 <I_bge_cg_cr_rs1_rs2_edges_offset_rs1val_0x0_rs2val_0x7ffffffe+0x44>
1: # goes here if not taken
  bge x7, x28, 0b # backward branch, never taken
    25b8:	ffc3dee3          	bge	x7,x28,25b4 <I_bge_cg_cr_rs1_rs2_edges_offset_rs1val_0x0_rs2val_0x7ffffffe>
  # Check if x0 contains the expected result. x15 is the signature ptr, x5 is the link ptr, x4 is a temp reg.
  RVTEST_SIGUPD(x15, x5, x4, x0, I_bge_cg_cr_rs1_rs2_edges_offset_rs1val_0x0_rs2val_0x7ffffffe, I_bge_cg_cr_rs1_rs2_edges_offset_rs1val_0x0_rs2val_0x7ffffffe_str)
    25bc:	0007a203          	lw	x4,0(x15)
    25c0:	00020863          	beq	x4,x0,25d0 <I_bge_cg_cr_rs1_rs2_edges_offset_rs1val_0x0_rs2val_0x7ffffffe+0x1c>
    25c4:	2b9072ef          	jal	x5,a07c <failedtest_x5_x4>
    25c8:	000025b4          	.word	0x000025b4
    25cc:	0000de58          	.word	0x0000de58
    25d0:	00478793          	addi	x15,x15,4
  j 4f # done with test
    25d4:	0280006f          	jal	x0,25fc <I_bge_cg_cr_rs1_rs2_edges_offset_rs1val_0x0_rs2val_0x7ffffffe+0x48>
2: # goes here during backward branch if taken
  LI(x7, 1)
    25d8:	00100393          	addi	x7,x0,1
  # Check if x7 contains the expected result. x15 is the signature ptr, x5 is the link ptr, x4 is a temp reg.
  RVTEST_SIGUPD(x15, x5, x4, x7, I_bge_cg_cr_rs1_rs2_edges_offset_rs1val_0x0_rs2val_0x7ffffffe, I_bge_cg_cr_rs1_rs2_edges_offset_rs1val_0x0_rs2val_0x7ffffffe_str) # signature 1 for taken
    25dc:	0007a203          	lw	x4,0(x15)
    25e0:	00720863          	beq	x4,x7,25f0 <I_bge_cg_cr_rs1_rs2_edges_offset_rs1val_0x0_rs2val_0x7ffffffe+0x3c>
    25e4:	299072ef          	jal	x5,a07c <failedtest_x5_x4>
    25e8:	000025b4          	.word	0x000025b4
    25ec:	0000de58          	.word	0x0000de58
    25f0:	00478793          	addi	x15,x15,4
  j 4f # done with test
    25f4:	0080006f          	jal	x0,25fc <I_bge_cg_cr_rs1_rs2_edges_offset_rs1val_0x0_rs2val_0x7ffffffe+0x48>
3: # goes here during forward branch if taken
  bge x7, x28, 2b # backward branch, definitely taken
    25f8:	ffc3d0e3          	bge	x7,x28,25d8 <I_bge_cg_cr_rs1_rs2_edges_offset_rs1val_0x0_rs2val_0x7ffffffe+0x24>
4: # done with test

# cr_rs1_rs2_edges_offset (Test source rs1 = 0x00000000 rs2 = 0xffffffff)
  RVTEST_TESTDATA_LOAD_INT(x23, x29) # load rs1: x29 = 0x00000000
    25fc:	000bae83          	lw	x29,0(x23)
    2600:	004b8b93          	addi	x23,x23,4
  RVTEST_TESTDATA_LOAD_INT(x23, x7) # load rs2: x7 = 0xffffffff
    2604:	000ba383          	lw	x7,0(x23)
    2608:	004b8b93          	addi	x23,x23,4

0000260c <I_bge_cg_cr_rs1_rs2_edges_offset_rs1val_0x0_rs2val_0xffffffff>:
0: # destination for backwards branch that is never taken
I_bge_cg_cr_rs1_rs2_edges_offset_rs1val_0x0_rs2val_0xffffffff:
  bge x29, x7, 3f # forward branch, if taken
    260c:	047ed263          	bge	x29,x7,2650 <I_bge_cg_cr_rs1_rs2_edges_offset_rs1val_0x0_rs2val_0xffffffff+0x44>
1: # goes here if not taken
  bge x29, x7, 0b # backward branch, never taken
    2610:	fe7edee3          	bge	x29,x7,260c <I_bge_cg_cr_rs1_rs2_edges_offset_rs1val_0x0_rs2val_0xffffffff>
  # Check if x0 contains the expected result. x15 is the signature ptr, x5 is the link ptr, x4 is a temp reg.
  RVTEST_SIGUPD(x15, x5, x4, x0, I_bge_cg_cr_rs1_rs2_edges_offset_rs1val_0x0_rs2val_0xffffffff, I_bge_cg_cr_rs1_rs2_edges_offset_rs1val_0x0_rs2val_0xffffffff_str)
    2614:	0007a203          	lw	x4,0(x15)
    2618:	00020863          	beq	x4,x0,2628 <I_bge_cg_cr_rs1_rs2_edges_offset_rs1val_0x0_rs2val_0xffffffff+0x1c>
    261c:	261072ef          	jal	x5,a07c <failedtest_x5_x4>
    2620:	0000260c          	.word	0x0000260c
    2624:	0000deb2          	.word	0x0000deb2
    2628:	00478793          	addi	x15,x15,4
  j 4f # done with test
    262c:	0280006f          	jal	x0,2654 <I_bge_cg_cr_rs1_rs2_edges_offset_rs1val_0x0_rs2val_0xffffffff+0x48>
2: # goes here during backward branch if taken
  LI(x29, 1)
    2630:	00100e93          	addi	x29,x0,1
  # Check if x29 contains the expected result. x15 is the signature ptr, x5 is the link ptr, x4 is a temp reg.
  RVTEST_SIGUPD(x15, x5, x4, x29, I_bge_cg_cr_rs1_rs2_edges_offset_rs1val_0x0_rs2val_0xffffffff, I_bge_cg_cr_rs1_rs2_edges_offset_rs1val_0x0_rs2val_0xffffffff_str) # signature 1 for taken
    2634:	0007a203          	lw	x4,0(x15)
    2638:	01d20863          	beq	x4,x29,2648 <I_bge_cg_cr_rs1_rs2_edges_offset_rs1val_0x0_rs2val_0xffffffff+0x3c>
    263c:	241072ef          	jal	x5,a07c <failedtest_x5_x4>
    2640:	0000260c          	.word	0x0000260c
    2644:	0000deb2          	.word	0x0000deb2
    2648:	00478793          	addi	x15,x15,4
  j 4f # done with test
    264c:	0080006f          	jal	x0,2654 <I_bge_cg_cr_rs1_rs2_edges_offset_rs1val_0x0_rs2val_0xffffffff+0x48>
3: # goes here during forward branch if taken
  bge x29, x7, 2b # backward branch, definitely taken
    2650:	fe7ed0e3          	bge	x29,x7,2630 <I_bge_cg_cr_rs1_rs2_edges_offset_rs1val_0x0_rs2val_0xffffffff+0x24>
4: # done with test

# cr_rs1_rs2_edges_offset (Test source rs1 = 0x00000000 rs2 = 0xfffffffe)
  RVTEST_TESTDATA_LOAD_INT(x23, x24) # load rs1: x24 = 0x00000000
    2654:	000bac03          	lw	x24,0(x23)
    2658:	004b8b93          	addi	x23,x23,4
  RVTEST_TESTDATA_LOAD_INT(x23, x13) # load rs2: x13 = 0xfffffffe
    265c:	000ba683          	lw	x13,0(x23)
    2660:	004b8b93          	addi	x23,x23,4

00002664 <I_bge_cg_cr_rs1_rs2_edges_offset_rs1val_0x0_rs2val_0xfffffffe>:
0: # destination for backwards branch that is never taken
I_bge_cg_cr_rs1_rs2_edges_offset_rs1val_0x0_rs2val_0xfffffffe:
  bge x24, x13, 3f # forward branch, if taken
    2664:	04dc5263          	bge	x24,x13,26a8 <I_bge_cg_cr_rs1_rs2_edges_offset_rs1val_0x0_rs2val_0xfffffffe+0x44>
1: # goes here if not taken
  bge x24, x13, 0b # backward branch, never taken
    2668:	fedc5ee3          	bge	x24,x13,2664 <I_bge_cg_cr_rs1_rs2_edges_offset_rs1val_0x0_rs2val_0xfffffffe>
  # Check if x0 contains the expected result. x15 is the signature ptr, x5 is the link ptr, x4 is a temp reg.
  RVTEST_SIGUPD(x15, x5, x4, x0, I_bge_cg_cr_rs1_rs2_edges_offset_rs1val_0x0_rs2val_0xfffffffe, I_bge_cg_cr_rs1_rs2_edges_offset_rs1val_0x0_rs2val_0xfffffffe_str)
    266c:	0007a203          	lw	x4,0(x15)
    2670:	00020863          	beq	x4,x0,2680 <I_bge_cg_cr_rs1_rs2_edges_offset_rs1val_0x0_rs2val_0xfffffffe+0x1c>
    2674:	209072ef          	jal	x5,a07c <failedtest_x5_x4>
    2678:	00002664          	.word	0x00002664
    267c:	0000df0c          	.word	0x0000df0c
    2680:	00478793          	addi	x15,x15,4
  j 4f # done with test
    2684:	0280006f          	jal	x0,26ac <I_bge_cg_cr_rs1_rs2_edges_offset_rs1val_0x0_rs2val_0xfffffffe+0x48>
2: # goes here during backward branch if taken
  LI(x24, 1)
    2688:	00100c13          	addi	x24,x0,1
  # Check if x24 contains the expected result. x15 is the signature ptr, x5 is the link ptr, x4 is a temp reg.
  RVTEST_SIGUPD(x15, x5, x4, x24, I_bge_cg_cr_rs1_rs2_edges_offset_rs1val_0x0_rs2val_0xfffffffe, I_bge_cg_cr_rs1_rs2_edges_offset_rs1val_0x0_rs2val_0xfffffffe_str) # signature 1 for taken
    268c:	0007a203          	lw	x4,0(x15)
    2690:	01820863          	beq	x4,x24,26a0 <I_bge_cg_cr_rs1_rs2_edges_offset_rs1val_0x0_rs2val_0xfffffffe+0x3c>
    2694:	1e9072ef          	jal	x5,a07c <failedtest_x5_x4>
    2698:	00002664          	.word	0x00002664
    269c:	0000df0c          	.word	0x0000df0c
    26a0:	00478793          	addi	x15,x15,4
  j 4f # done with test
    26a4:	0080006f          	jal	x0,26ac <I_bge_cg_cr_rs1_rs2_edges_offset_rs1val_0x0_rs2val_0xfffffffe+0x48>
3: # goes here during forward branch if taken
  bge x24, x13, 2b # backward branch, definitely taken
    26a8:	fedc50e3          	bge	x24,x13,2688 <I_bge_cg_cr_rs1_rs2_edges_offset_rs1val_0x0_rs2val_0xfffffffe+0x24>
4: # done with test

# cr_rs1_rs2_edges_offset (Test source rs1 = 0x00000000 rs2 = 0x5bbc8872)
  RVTEST_TESTDATA_LOAD_INT(x23, x20) # load rs1: x20 = 0x00000000
    26ac:	000baa03          	lw	x20,0(x23)
    26b0:	004b8b93          	addi	x23,x23,4
  RVTEST_TESTDATA_LOAD_INT(x23, x11) # load rs2: x11 = 0x5bbc8872
    26b4:	000ba583          	lw	x11,0(x23)
    26b8:	004b8b93          	addi	x23,x23,4

000026bc <I_bge_cg_cr_rs1_rs2_edges_offset_rs1val_0x0_rs2val_0x5bbc8872>:
0: # destination for backwards branch that is never taken
I_bge_cg_cr_rs1_rs2_edges_offset_rs1val_0x0_rs2val_0x5bbc8872:
  bge x20, x11, 3f # forward branch, if taken
    26bc:	04ba5263          	bge	x20,x11,2700 <I_bge_cg_cr_rs1_rs2_edges_offset_rs1val_0x0_rs2val_0x5bbc8872+0x44>
1: # goes here if not taken
  bge x20, x11, 0b # backward branch, never taken
    26c0:	feba5ee3          	bge	x20,x11,26bc <I_bge_cg_cr_rs1_rs2_edges_offset_rs1val_0x0_rs2val_0x5bbc8872>
  # Check if x0 contains the expected result. x15 is the signature ptr, x5 is the link ptr, x4 is a temp reg.
  RVTEST_SIGUPD(x15, x5, x4, x0, I_bge_cg_cr_rs1_rs2_edges_offset_rs1val_0x0_rs2val_0x5bbc8872, I_bge_cg_cr_rs1_rs2_edges_offset_rs1val_0x0_rs2val_0x5bbc8872_str)
    26c4:	0007a203          	lw	x4,0(x15)
    26c8:	00020863          	beq	x4,x0,26d8 <I_bge_cg_cr_rs1_rs2_edges_offset_rs1val_0x0_rs2val_0x5bbc8872+0x1c>
    26cc:	1b1072ef          	jal	x5,a07c <failedtest_x5_x4>
    26d0:	000026bc          	.word	0x000026bc
    26d4:	0000df66          	.word	0x0000df66
    26d8:	00478793          	addi	x15,x15,4
  j 4f # done with test
    26dc:	0280006f          	jal	x0,2704 <I_bge_cg_cr_rs1_rs2_edges_offset_rs1val_0x0_rs2val_0x5bbc8872+0x48>
2: # goes here during backward branch if taken
  LI(x20, 1)
    26e0:	00100a13          	addi	x20,x0,1
  # Check if x20 contains the expected result. x15 is the signature ptr, x5 is the link ptr, x4 is a temp reg.
  RVTEST_SIGUPD(x15, x5, x4, x20, I_bge_cg_cr_rs1_rs2_edges_offset_rs1val_0x0_rs2val_0x5bbc8872, I_bge_cg_cr_rs1_rs2_edges_offset_rs1val_0x0_rs2val_0x5bbc8872_str) # signature 1 for taken
    26e4:	0007a203          	lw	x4,0(x15)
    26e8:	01420863          	beq	x4,x20,26f8 <I_bge_cg_cr_rs1_rs2_edges_offset_rs1val_0x0_rs2val_0x5bbc8872+0x3c>
    26ec:	191072ef          	jal	x5,a07c <failedtest_x5_x4>
    26f0:	000026bc          	.word	0x000026bc
    26f4:	0000df66          	.word	0x0000df66
    26f8:	00478793          	addi	x15,x15,4
  j 4f # done with test
    26fc:	0080006f          	jal	x0,2704 <I_bge_cg_cr_rs1_rs2_edges_offset_rs1val_0x0_rs2val_0x5bbc8872+0x48>
3: # goes here during forward branch if taken
  bge x20, x11, 2b # backward branch, definitely taken
    2700:	feba50e3          	bge	x20,x11,26e0 <I_bge_cg_cr_rs1_rs2_edges_offset_rs1val_0x0_rs2val_0x5bbc8872+0x24>
4: # done with test

# cr_rs1_rs2_edges_offset (Test source rs1 = 0x00000000 rs2 = 0xaaaaaaaa)
  RVTEST_TESTDATA_LOAD_INT(x23, x24) # load rs1: x24 = 0x00000000
    2704:	000bac03          	lw	x24,0(x23)
    2708:	004b8b93          	addi	x23,x23,4
  RVTEST_TESTDATA_LOAD_INT(x23, x30) # load rs2: x30 = 0xaaaaaaaa
    270c:	000baf03          	lw	x30,0(x23)
    2710:	004b8b93          	addi	x23,x23,4

00002714 <I_bge_cg_cr_rs1_rs2_edges_offset_rs1val_0x0_rs2val_0xaaaaaaaa>:
0: # destination for backwards branch that is never taken
I_bge_cg_cr_rs1_rs2_edges_offset_rs1val_0x0_rs2val_0xaaaaaaaa:
  bge x24, x30, 3f # forward branch, if taken
    2714:	05ec5263          	bge	x24,x30,2758 <I_bge_cg_cr_rs1_rs2_edges_offset_rs1val_0x0_rs2val_0xaaaaaaaa+0x44>
1: # goes here if not taken
  bge x24, x30, 0b # backward branch, never taken
    2718:	ffec5ee3          	bge	x24,x30,2714 <I_bge_cg_cr_rs1_rs2_edges_offset_rs1val_0x0_rs2val_0xaaaaaaaa>
  # Check if x0 contains the expected result. x15 is the signature ptr, x5 is the link ptr, x4 is a temp reg.
  RVTEST_SIGUPD(x15, x5, x4, x0, I_bge_cg_cr_rs1_rs2_edges_offset_rs1val_0x0_rs2val_0xaaaaaaaa, I_bge_cg_cr_rs1_rs2_edges_offset_rs1val_0x0_rs2val_0xaaaaaaaa_str)
    271c:	0007a203          	lw	x4,0(x15)
    2720:	00020863          	beq	x4,x0,2730 <I_bge_cg_cr_rs1_rs2_edges_offset_rs1val_0x0_rs2val_0xaaaaaaaa+0x1c>
    2724:	159072ef          	jal	x5,a07c <failedtest_x5_x4>
    2728:	00002714          	.word	0x00002714
    272c:	0000dfc0          	.word	0x0000dfc0
    2730:	00478793          	addi	x15,x15,4
  j 4f # done with test
    2734:	0280006f          	jal	x0,275c <I_bge_cg_cr_rs1_rs2_edges_offset_rs1val_0x0_rs2val_0xaaaaaaaa+0x48>
2: # goes here during backward branch if taken
  LI(x24, 1)
    2738:	00100c13          	addi	x24,x0,1
  # Check if x24 contains the expected result. x15 is the signature ptr, x5 is the link ptr, x4 is a temp reg.
  RVTEST_SIGUPD(x15, x5, x4, x24, I_bge_cg_cr_rs1_rs2_edges_offset_rs1val_0x0_rs2val_0xaaaaaaaa, I_bge_cg_cr_rs1_rs2_edges_offset_rs1val_0x0_rs2val_0xaaaaaaaa_str) # signature 1 for taken
    273c:	0007a203          	lw	x4,0(x15)
    2740:	01820863          	beq	x4,x24,2750 <I_bge_cg_cr_rs1_rs2_edges_offset_rs1val_0x0_rs2val_0xaaaaaaaa+0x3c>
    2744:	139072ef          	jal	x5,a07c <failedtest_x5_x4>
    2748:	00002714          	.word	0x00002714
    274c:	0000dfc0          	.word	0x0000dfc0
    2750:	00478793          	addi	x15,x15,4
  j 4f # done with test
    2754:	0080006f          	jal	x0,275c <I_bge_cg_cr_rs1_rs2_edges_offset_rs1val_0x0_rs2val_0xaaaaaaaa+0x48>
3: # goes here during forward branch if taken
  bge x24, x30, 2b # backward branch, definitely taken
    2758:	ffec50e3          	bge	x24,x30,2738 <I_bge_cg_cr_rs1_rs2_edges_offset_rs1val_0x0_rs2val_0xaaaaaaaa+0x24>
4: # done with test

# cr_rs1_rs2_edges_offset (Test source rs1 = 0x00000000 rs2 = 0x55555555)
  RVTEST_TESTDATA_LOAD_INT(x23, x13) # load rs1: x13 = 0x00000000
    275c:	000ba683          	lw	x13,0(x23)
    2760:	004b8b93          	addi	x23,x23,4
  RVTEST_TESTDATA_LOAD_INT(x23, x19) # load rs2: x19 = 0x55555555
    2764:	000ba983          	lw	x19,0(x23)
    2768:	004b8b93          	addi	x23,x23,4

0000276c <I_bge_cg_cr_rs1_rs2_edges_offset_rs1val_0x0_rs2val_0x55555555>:
0: # destination for backwards branch that is never taken
I_bge_cg_cr_rs1_rs2_edges_offset_rs1val_0x0_rs2val_0x55555555:
  bge x13, x19, 3f # forward branch, if taken
    276c:	0536d263          	bge	x13,x19,27b0 <I_bge_cg_cr_rs1_rs2_edges_offset_rs1val_0x0_rs2val_0x55555555+0x44>
1: # goes here if not taken
  bge x13, x19, 0b # backward branch, never taken
    2770:	ff36dee3          	bge	x13,x19,276c <I_bge_cg_cr_rs1_rs2_edges_offset_rs1val_0x0_rs2val_0x55555555>
  # Check if x0 contains the expected result. x15 is the signature ptr, x5 is the link ptr, x4 is a temp reg.
  RVTEST_SIGUPD(x15, x5, x4, x0, I_bge_cg_cr_rs1_rs2_edges_offset_rs1val_0x0_rs2val_0x55555555, I_bge_cg_cr_rs1_rs2_edges_offset_rs1val_0x0_rs2val_0x55555555_str)
    2774:	0007a203          	lw	x4,0(x15)
    2778:	00020863          	beq	x4,x0,2788 <I_bge_cg_cr_rs1_rs2_edges_offset_rs1val_0x0_rs2val_0x55555555+0x1c>
    277c:	101072ef          	jal	x5,a07c <failedtest_x5_x4>
    2780:	0000276c          	.word	0x0000276c
    2784:	0000e01a          	.word	0x0000e01a
    2788:	00478793          	addi	x15,x15,4
  j 4f # done with test
    278c:	0280006f          	jal	x0,27b4 <I_bge_cg_cr_rs1_rs2_edges_offset_rs1val_0x0_rs2val_0x55555555+0x48>
2: # goes here during backward branch if taken
  LI(x13, 1)
    2790:	00100693          	addi	x13,x0,1
  # Check if x13 contains the expected result. x15 is the signature ptr, x5 is the link ptr, x4 is a temp reg.
  RVTEST_SIGUPD(x15, x5, x4, x13, I_bge_cg_cr_rs1_rs2_edges_offset_rs1val_0x0_rs2val_0x55555555, I_bge_cg_cr_rs1_rs2_edges_offset_rs1val_0x0_rs2val_0x55555555_str) # signature 1 for taken
    2794:	0007a203          	lw	x4,0(x15)
    2798:	00d20863          	beq	x4,x13,27a8 <I_bge_cg_cr_rs1_rs2_edges_offset_rs1val_0x0_rs2val_0x55555555+0x3c>
    279c:	0e1072ef          	jal	x5,a07c <failedtest_x5_x4>
    27a0:	0000276c          	.word	0x0000276c
    27a4:	0000e01a          	.word	0x0000e01a
    27a8:	00478793          	addi	x15,x15,4
  j 4f # done with test
    27ac:	0080006f          	jal	x0,27b4 <I_bge_cg_cr_rs1_rs2_edges_offset_rs1val_0x0_rs2val_0x55555555+0x48>
3: # goes here during forward branch if taken
  bge x13, x19, 2b # backward branch, definitely taken
    27b0:	ff36d0e3          	bge	x13,x19,2790 <I_bge_cg_cr_rs1_rs2_edges_offset_rs1val_0x0_rs2val_0x55555555+0x24>
4: # done with test

# cr_rs1_rs2_edges_offset (Test source rs1 = 0x00000001 rs2 = 0x00000000)
  RVTEST_TESTDATA_LOAD_INT(x23, x22) # load rs1: x22 = 0x00000001
    27b4:	000bab03          	lw	x22,0(x23)
    27b8:	004b8b93          	addi	x23,x23,4
  RVTEST_TESTDATA_LOAD_INT(x23, x2) # load rs2: x2 = 0x00000000
    27bc:	000ba103          	lw	x2,0(x23)
    27c0:	004b8b93          	addi	x23,x23,4

000027c4 <I_bge_cg_cr_rs1_rs2_edges_offset_rs1val_0x1_rs2val_0x0>:
0: # destination for backwards branch that is never taken
I_bge_cg_cr_rs1_rs2_edges_offset_rs1val_0x1_rs2val_0x0:
  bge x22, x2, 3f # forward branch, if taken
    27c4:	042b5263          	bge	x22,x2,2808 <I_bge_cg_cr_rs1_rs2_edges_offset_rs1val_0x1_rs2val_0x0+0x44>
1: # goes here if not taken
  bge x22, x2, 0b # backward branch, never taken
    27c8:	fe2b5ee3          	bge	x22,x2,27c4 <I_bge_cg_cr_rs1_rs2_edges_offset_rs1val_0x1_rs2val_0x0>
  # Check if x0 contains the expected result. x15 is the signature ptr, x5 is the link ptr, x4 is a temp reg.
  RVTEST_SIGUPD(x15, x5, x4, x0, I_bge_cg_cr_rs1_rs2_edges_offset_rs1val_0x1_rs2val_0x0, I_bge_cg_cr_rs1_rs2_edges_offset_rs1val_0x1_rs2val_0x0_str)
    27cc:	0007a203          	lw	x4,0(x15)
    27d0:	00020863          	beq	x4,x0,27e0 <I_bge_cg_cr_rs1_rs2_edges_offset_rs1val_0x1_rs2val_0x0+0x1c>
    27d4:	0a9072ef          	jal	x5,a07c <failedtest_x5_x4>
    27d8:	000027c4          	.word	0x000027c4
    27dc:	0000e075          	.word	0x0000e075
    27e0:	00478793          	addi	x15,x15,4
  j 4f # done with test
    27e4:	0280006f          	jal	x0,280c <I_bge_cg_cr_rs1_rs2_edges_offset_rs1val_0x1_rs2val_0x0+0x48>
2: # goes here during backward branch if taken
  LI(x22, 1)
    27e8:	00100b13          	addi	x22,x0,1
  # Check if x22 contains the expected result. x15 is the signature ptr, x5 is the link ptr, x4 is a temp reg.
  RVTEST_SIGUPD(x15, x5, x4, x22, I_bge_cg_cr_rs1_rs2_edges_offset_rs1val_0x1_rs2val_0x0, I_bge_cg_cr_rs1_rs2_edges_offset_rs1val_0x1_rs2val_0x0_str) # signature 1 for taken
    27ec:	0007a203          	lw	x4,0(x15)
    27f0:	01620863          	beq	x4,x22,2800 <I_bge_cg_cr_rs1_rs2_edges_offset_rs1val_0x1_rs2val_0x0+0x3c>
    27f4:	089072ef          	jal	x5,a07c <failedtest_x5_x4>
    27f8:	000027c4          	.word	0x000027c4
    27fc:	0000e075          	.word	0x0000e075
    2800:	00478793          	addi	x15,x15,4
  j 4f # done with test
    2804:	0080006f          	jal	x0,280c <I_bge_cg_cr_rs1_rs2_edges_offset_rs1val_0x1_rs2val_0x0+0x48>
3: # goes here during forward branch if taken
  bge x22, x2, 2b # backward branch, definitely taken
    2808:	fe2b50e3          	bge	x22,x2,27e8 <I_bge_cg_cr_rs1_rs2_edges_offset_rs1val_0x1_rs2val_0x0+0x24>
4: # done with test

# cr_rs1_rs2_edges_offset (Test source rs1 = 0x00000001 rs2 = 0x00000001)
  RVTEST_TESTDATA_LOAD_INT(x23, x6) # load rs1: x6 = 0x00000001
    280c:	000ba303          	lw	x6,0(x23)
    2810:	004b8b93          	addi	x23,x23,4
  RVTEST_TESTDATA_LOAD_INT(x23, x27) # load rs2: x27 = 0x00000001
    2814:	000bad83          	lw	x27,0(x23)
    2818:	004b8b93          	addi	x23,x23,4

0000281c <I_bge_cg_cr_rs1_rs2_edges_offset_rs1val_0x1_rs2val_0x1>:
0: # destination for backwards branch that is never taken
I_bge_cg_cr_rs1_rs2_edges_offset_rs1val_0x1_rs2val_0x1:
  bge x6, x27, 3f # forward branch, if taken
    281c:	05b35263          	bge	x6,x27,2860 <I_bge_cg_cr_rs1_rs2_edges_offset_rs1val_0x1_rs2val_0x1+0x44>
1: # goes here if not taken
  bge x6, x27, 0b # backward branch, never taken
    2820:	ffb35ee3          	bge	x6,x27,281c <I_bge_cg_cr_rs1_rs2_edges_offset_rs1val_0x1_rs2val_0x1>
  # Check if x0 contains the expected result. x15 is the signature ptr, x5 is the link ptr, x4 is a temp reg.
  RVTEST_SIGUPD(x15, x5, x4, x0, I_bge_cg_cr_rs1_rs2_edges_offset_rs1val_0x1_rs2val_0x1, I_bge_cg_cr_rs1_rs2_edges_offset_rs1val_0x1_rs2val_0x1_str)
    2824:	0007a203          	lw	x4,0(x15)
    2828:	00020863          	beq	x4,x0,2838 <I_bge_cg_cr_rs1_rs2_edges_offset_rs1val_0x1_rs2val_0x1+0x1c>
    282c:	051072ef          	jal	x5,a07c <failedtest_x5_x4>
    2830:	0000281c          	.word	0x0000281c
    2834:	0000e0c9          	.word	0x0000e0c9
    2838:	00478793          	addi	x15,x15,4
  j 4f # done with test
    283c:	0280006f          	jal	x0,2864 <I_bge_cg_cr_rs1_rs2_edges_offset_rs1val_0x1_rs2val_0x1+0x48>
2: # goes here during backward branch if taken
  LI(x6, 1)
    2840:	00100313          	addi	x6,x0,1
  # Check if x6 contains the expected result. x15 is the signature ptr, x5 is the link ptr, x4 is a temp reg.
  RVTEST_SIGUPD(x15, x5, x4, x6, I_bge_cg_cr_rs1_rs2_edges_offset_rs1val_0x1_rs2val_0x1, I_bge_cg_cr_rs1_rs2_edges_offset_rs1val_0x1_rs2val_0x1_str) # signature 1 for taken
    2844:	0007a203          	lw	x4,0(x15)
    2848:	00620863          	beq	x4,x6,2858 <I_bge_cg_cr_rs1_rs2_edges_offset_rs1val_0x1_rs2val_0x1+0x3c>
    284c:	031072ef          	jal	x5,a07c <failedtest_x5_x4>
    2850:	0000281c          	.word	0x0000281c
    2854:	0000e0c9          	.word	0x0000e0c9
    2858:	00478793          	addi	x15,x15,4
  j 4f # done with test
    285c:	0080006f          	jal	x0,2864 <I_bge_cg_cr_rs1_rs2_edges_offset_rs1val_0x1_rs2val_0x1+0x48>
3: # goes here during forward branch if taken
  bge x6, x27, 2b # backward branch, definitely taken
    2860:	ffb350e3          	bge	x6,x27,2840 <I_bge_cg_cr_rs1_rs2_edges_offset_rs1val_0x1_rs2val_0x1+0x24>
4: # done with test

# cr_rs1_rs2_edges_offset (Test source rs1 = 0x00000001 rs2 = 0x00000002)
  RVTEST_TESTDATA_LOAD_INT(x23, x30) # load rs1: x30 = 0x00000001
    2864:	000baf03          	lw	x30,0(x23)
    2868:	004b8b93          	addi	x23,x23,4
  RVTEST_TESTDATA_LOAD_INT(x23, x21) # load rs2: x21 = 0x00000002
    286c:	000baa83          	lw	x21,0(x23)
    2870:	004b8b93          	addi	x23,x23,4

00002874 <I_bge_cg_cr_rs1_rs2_edges_offset_rs1val_0x1_rs2val_0x2>:
0: # destination for backwards branch that is never taken
I_bge_cg_cr_rs1_rs2_edges_offset_rs1val_0x1_rs2val_0x2:
  bge x30, x21, 3f # forward branch, if taken
    2874:	055f5263          	bge	x30,x21,28b8 <I_bge_cg_cr_rs1_rs2_edges_offset_rs1val_0x1_rs2val_0x2+0x44>
1: # goes here if not taken
  bge x30, x21, 0b # backward branch, never taken
    2878:	ff5f5ee3          	bge	x30,x21,2874 <I_bge_cg_cr_rs1_rs2_edges_offset_rs1val_0x1_rs2val_0x2>
  # Check if x0 contains the expected result. x15 is the signature ptr, x5 is the link ptr, x4 is a temp reg.
  RVTEST_SIGUPD(x15, x5, x4, x0, I_bge_cg_cr_rs1_rs2_edges_offset_rs1val_0x1_rs2val_0x2, I_bge_cg_cr_rs1_rs2_edges_offset_rs1val_0x1_rs2val_0x2_str)
    287c:	0007a203          	lw	x4,0(x15)
    2880:	00020863          	beq	x4,x0,2890 <I_bge_cg_cr_rs1_rs2_edges_offset_rs1val_0x1_rs2val_0x2+0x1c>
    2884:	7f8072ef          	jal	x5,a07c <failedtest_x5_x4>
    2888:	00002874          	.word	0x00002874
    288c:	0000e11d          	.word	0x0000e11d
    2890:	00478793          	addi	x15,x15,4
  j 4f # done with test
    2894:	0280006f          	jal	x0,28bc <I_bge_cg_cr_rs1_rs2_edges_offset_rs1val_0x1_rs2val_0x2+0x48>
2: # goes here during backward branch if taken
  LI(x30, 1)
    2898:	00100f13          	addi	x30,x0,1
  # Check if x30 contains the expected result. x15 is the signature ptr, x5 is the link ptr, x4 is a temp reg.
  RVTEST_SIGUPD(x15, x5, x4, x30, I_bge_cg_cr_rs1_rs2_edges_offset_rs1val_0x1_rs2val_0x2, I_bge_cg_cr_rs1_rs2_edges_offset_rs1val_0x1_rs2val_0x2_str) # signature 1 for taken
    289c:	0007a203          	lw	x4,0(x15)
    28a0:	01e20863          	beq	x4,x30,28b0 <I_bge_cg_cr_rs1_rs2_edges_offset_rs1val_0x1_rs2val_0x2+0x3c>
    28a4:	7d8072ef          	jal	x5,a07c <failedtest_x5_x4>
    28a8:	00002874          	.word	0x00002874
    28ac:	0000e11d          	.word	0x0000e11d
    28b0:	00478793          	addi	x15,x15,4
  j 4f # done with test
    28b4:	0080006f          	jal	x0,28bc <I_bge_cg_cr_rs1_rs2_edges_offset_rs1val_0x1_rs2val_0x2+0x48>
3: # goes here during forward branch if taken
  bge x30, x21, 2b # backward branch, definitely taken
    28b8:	ff5f50e3          	bge	x30,x21,2898 <I_bge_cg_cr_rs1_rs2_edges_offset_rs1val_0x1_rs2val_0x2+0x24>
4: # done with test

# cr_rs1_rs2_edges_offset (Test source rs1 = 0x00000001 rs2 = 0x80000000)
  RVTEST_TESTDATA_LOAD_INT(x23, x31) # load rs1: x31 = 0x00000001
    28bc:	000baf83          	lw	x31,0(x23)
    28c0:	004b8b93          	addi	x23,x23,4
  RVTEST_TESTDATA_LOAD_INT(x23, x20) # load rs2: x20 = 0x80000000
    28c4:	000baa03          	lw	x20,0(x23)
    28c8:	004b8b93          	addi	x23,x23,4

000028cc <I_bge_cg_cr_rs1_rs2_edges_offset_rs1val_0x1_rs2val_0x80000000>:
0: # destination for backwards branch that is never taken
I_bge_cg_cr_rs1_rs2_edges_offset_rs1val_0x1_rs2val_0x80000000:
  bge x31, x20, 3f # forward branch, if taken
    28cc:	054fd263          	bge	x31,x20,2910 <I_bge_cg_cr_rs1_rs2_edges_offset_rs1val_0x1_rs2val_0x80000000+0x44>
1: # goes here if not taken
  bge x31, x20, 0b # backward branch, never taken
    28d0:	ff4fdee3          	bge	x31,x20,28cc <I_bge_cg_cr_rs1_rs2_edges_offset_rs1val_0x1_rs2val_0x80000000>
  # Check if x0 contains the expected result. x15 is the signature ptr, x5 is the link ptr, x4 is a temp reg.
  RVTEST_SIGUPD(x15, x5, x4, x0, I_bge_cg_cr_rs1_rs2_edges_offset_rs1val_0x1_rs2val_0x80000000, I_bge_cg_cr_rs1_rs2_edges_offset_rs1val_0x1_rs2val_0x80000000_str)
    28d4:	0007a203          	lw	x4,0(x15)
    28d8:	00020863          	beq	x4,x0,28e8 <I_bge_cg_cr_rs1_rs2_edges_offset_rs1val_0x1_rs2val_0x80000000+0x1c>
    28dc:	7a0072ef          	jal	x5,a07c <failedtest_x5_x4>
    28e0:	000028cc          	.word	0x000028cc
    28e4:	0000e171          	.word	0x0000e171
    28e8:	00478793          	addi	x15,x15,4
  j 4f # done with test
    28ec:	0280006f          	jal	x0,2914 <I_bge_cg_cr_rs1_rs2_edges_offset_rs1val_0x1_rs2val_0x80000000+0x48>
2: # goes here during backward branch if taken
  LI(x31, 1)
    28f0:	00100f93          	addi	x31,x0,1
  # Check if x31 contains the expected result. x15 is the signature ptr, x5 is the link ptr, x4 is a temp reg.
  RVTEST_SIGUPD(x15, x5, x4, x31, I_bge_cg_cr_rs1_rs2_edges_offset_rs1val_0x1_rs2val_0x80000000, I_bge_cg_cr_rs1_rs2_edges_offset_rs1val_0x1_rs2val_0x80000000_str) # signature 1 for taken
    28f4:	0007a203          	lw	x4,0(x15)
    28f8:	01f20863          	beq	x4,x31,2908 <I_bge_cg_cr_rs1_rs2_edges_offset_rs1val_0x1_rs2val_0x80000000+0x3c>
    28fc:	780072ef          	jal	x5,a07c <failedtest_x5_x4>
    2900:	000028cc          	.word	0x000028cc
    2904:	0000e171          	.word	0x0000e171
    2908:	00478793          	addi	x15,x15,4
  j 4f # done with test
    290c:	0080006f          	jal	x0,2914 <I_bge_cg_cr_rs1_rs2_edges_offset_rs1val_0x1_rs2val_0x80000000+0x48>
3: # goes here during forward branch if taken
  bge x31, x20, 2b # backward branch, definitely taken
    2910:	ff4fd0e3          	bge	x31,x20,28f0 <I_bge_cg_cr_rs1_rs2_edges_offset_rs1val_0x1_rs2val_0x80000000+0x24>
4: # done with test

# cr_rs1_rs2_edges_offset (Test source rs1 = 0x00000001 rs2 = 0x80000001)
  RVTEST_TESTDATA_LOAD_INT(x23, x19) # load rs1: x19 = 0x00000001
    2914:	000ba983          	lw	x19,0(x23)
    2918:	004b8b93          	addi	x23,x23,4
  RVTEST_TESTDATA_LOAD_INT(x23, x22) # load rs2: x22 = 0x80000001
    291c:	000bab03          	lw	x22,0(x23)
    2920:	004b8b93          	addi	x23,x23,4

00002924 <I_bge_cg_cr_rs1_rs2_edges_offset_rs1val_0x1_rs2val_0x80000001>:
0: # destination for backwards branch that is never taken
I_bge_cg_cr_rs1_rs2_edges_offset_rs1val_0x1_rs2val_0x80000001:
  bge x19, x22, 3f # forward branch, if taken
    2924:	0569d263          	bge	x19,x22,2968 <I_bge_cg_cr_rs1_rs2_edges_offset_rs1val_0x1_rs2val_0x80000001+0x44>
1: # goes here if not taken
  bge x19, x22, 0b # backward branch, never taken
    2928:	ff69dee3          	bge	x19,x22,2924 <I_bge_cg_cr_rs1_rs2_edges_offset_rs1val_0x1_rs2val_0x80000001>
  # Check if x0 contains the expected result. x15 is the signature ptr, x5 is the link ptr, x4 is a temp reg.
  RVTEST_SIGUPD(x15, x5, x4, x0, I_bge_cg_cr_rs1_rs2_edges_offset_rs1val_0x1_rs2val_0x80000001, I_bge_cg_cr_rs1_rs2_edges_offset_rs1val_0x1_rs2val_0x80000001_str)
    292c:	0007a203          	lw	x4,0(x15)
    2930:	00020863          	beq	x4,x0,2940 <I_bge_cg_cr_rs1_rs2_edges_offset_rs1val_0x1_rs2val_0x80000001+0x1c>
    2934:	748072ef          	jal	x5,a07c <failedtest_x5_x4>
    2938:	00002924          	.word	0x00002924
    293c:	0000e1cc          	.word	0x0000e1cc
    2940:	00478793          	addi	x15,x15,4
  j 4f # done with test
    2944:	0280006f          	jal	x0,296c <I_bge_cg_cr_rs1_rs2_edges_offset_rs1val_0x1_rs2val_0x80000001+0x48>
2: # goes here during backward branch if taken
  LI(x19, 1)
    2948:	00100993          	addi	x19,x0,1
  # Check if x19 contains the expected result. x15 is the signature ptr, x5 is the link ptr, x4 is a temp reg.
  RVTEST_SIGUPD(x15, x5, x4, x19, I_bge_cg_cr_rs1_rs2_edges_offset_rs1val_0x1_rs2val_0x80000001, I_bge_cg_cr_rs1_rs2_edges_offset_rs1val_0x1_rs2val_0x80000001_str) # signature 1 for taken
    294c:	0007a203          	lw	x4,0(x15)
    2950:	01320863          	beq	x4,x19,2960 <I_bge_cg_cr_rs1_rs2_edges_offset_rs1val_0x1_rs2val_0x80000001+0x3c>
    2954:	728072ef          	jal	x5,a07c <failedtest_x5_x4>
    2958:	00002924          	.word	0x00002924
    295c:	0000e1cc          	.word	0x0000e1cc
    2960:	00478793          	addi	x15,x15,4
  j 4f # done with test
    2964:	0080006f          	jal	x0,296c <I_bge_cg_cr_rs1_rs2_edges_offset_rs1val_0x1_rs2val_0x80000001+0x48>
3: # goes here during forward branch if taken
  bge x19, x22, 2b # backward branch, definitely taken
    2968:	ff69d0e3          	bge	x19,x22,2948 <I_bge_cg_cr_rs1_rs2_edges_offset_rs1val_0x1_rs2val_0x80000001+0x24>
4: # done with test

# cr_rs1_rs2_edges_offset (Test source rs1 = 0x00000001 rs2 = 0x7fffffff)
  RVTEST_TESTDATA_LOAD_INT(x23, x6) # load rs1: x6 = 0x00000001
    296c:	000ba303          	lw	x6,0(x23)
    2970:	004b8b93          	addi	x23,x23,4
  RVTEST_TESTDATA_LOAD_INT(x23, x26) # load rs2: x26 = 0x7fffffff
    2974:	000bad03          	lw	x26,0(x23)
    2978:	004b8b93          	addi	x23,x23,4

0000297c <I_bge_cg_cr_rs1_rs2_edges_offset_rs1val_0x1_rs2val_0x7fffffff>:
0: # destination for backwards branch that is never taken
I_bge_cg_cr_rs1_rs2_edges_offset_rs1val_0x1_rs2val_0x7fffffff:
  bge x6, x26, 3f # forward branch, if taken
    297c:	05a35263          	bge	x6,x26,29c0 <I_bge_cg_cr_rs1_rs2_edges_offset_rs1val_0x1_rs2val_0x7fffffff+0x44>
1: # goes here if not taken
  bge x6, x26, 0b # backward branch, never taken
    2980:	ffa35ee3          	bge	x6,x26,297c <I_bge_cg_cr_rs1_rs2_edges_offset_rs1val_0x1_rs2val_0x7fffffff>
  # Check if x0 contains the expected result. x15 is the signature ptr, x5 is the link ptr, x4 is a temp reg.
  RVTEST_SIGUPD(x15, x5, x4, x0, I_bge_cg_cr_rs1_rs2_edges_offset_rs1val_0x1_rs2val_0x7fffffff, I_bge_cg_cr_rs1_rs2_edges_offset_rs1val_0x1_rs2val_0x7fffffff_str)
    2984:	0007a203          	lw	x4,0(x15)
    2988:	00020863          	beq	x4,x0,2998 <I_bge_cg_cr_rs1_rs2_edges_offset_rs1val_0x1_rs2val_0x7fffffff+0x1c>
    298c:	6f0072ef          	jal	x5,a07c <failedtest_x5_x4>
    2990:	0000297c          	.word	0x0000297c
    2994:	0000e227          	.word	0x0000e227
    2998:	00478793          	addi	x15,x15,4
  j 4f # done with test
    299c:	0280006f          	jal	x0,29c4 <I_bge_cg_cr_rs1_rs2_edges_offset_rs1val_0x1_rs2val_0x7fffffff+0x48>
2: # goes here during backward branch if taken
  LI(x6, 1)
    29a0:	00100313          	addi	x6,x0,1
  # Check if x6 contains the expected result. x15 is the signature ptr, x5 is the link ptr, x4 is a temp reg.
  RVTEST_SIGUPD(x15, x5, x4, x6, I_bge_cg_cr_rs1_rs2_edges_offset_rs1val_0x1_rs2val_0x7fffffff, I_bge_cg_cr_rs1_rs2_edges_offset_rs1val_0x1_rs2val_0x7fffffff_str) # signature 1 for taken
    29a4:	0007a203          	lw	x4,0(x15)
    29a8:	00620863          	beq	x4,x6,29b8 <I_bge_cg_cr_rs1_rs2_edges_offset_rs1val_0x1_rs2val_0x7fffffff+0x3c>
    29ac:	6d0072ef          	jal	x5,a07c <failedtest_x5_x4>
    29b0:	0000297c          	.word	0x0000297c
    29b4:	0000e227          	.word	0x0000e227
    29b8:	00478793          	addi	x15,x15,4
  j 4f # done with test
    29bc:	0080006f          	jal	x0,29c4 <I_bge_cg_cr_rs1_rs2_edges_offset_rs1val_0x1_rs2val_0x7fffffff+0x48>
3: # goes here during forward branch if taken
  bge x6, x26, 2b # backward branch, definitely taken
    29c0:	ffa350e3          	bge	x6,x26,29a0 <I_bge_cg_cr_rs1_rs2_edges_offset_rs1val_0x1_rs2val_0x7fffffff+0x24>
4: # done with test

# cr_rs1_rs2_edges_offset (Test source rs1 = 0x00000001 rs2 = 0x7ffffffe)
  RVTEST_TESTDATA_LOAD_INT(x23, x29) # load rs1: x29 = 0x00000001
    29c4:	000bae83          	lw	x29,0(x23)
    29c8:	004b8b93          	addi	x23,x23,4
  RVTEST_TESTDATA_LOAD_INT(x23, x25) # load rs2: x25 = 0x7ffffffe
    29cc:	000bac83          	lw	x25,0(x23)
    29d0:	004b8b93          	addi	x23,x23,4

000029d4 <I_bge_cg_cr_rs1_rs2_edges_offset_rs1val_0x1_rs2val_0x7ffffffe>:
0: # destination for backwards branch that is never taken
I_bge_cg_cr_rs1_rs2_edges_offset_rs1val_0x1_rs2val_0x7ffffffe:
  bge x29, x25, 3f # forward branch, if taken
    29d4:	059ed263          	bge	x29,x25,2a18 <I_bge_cg_cr_rs1_rs2_edges_offset_rs1val_0x1_rs2val_0x7ffffffe+0x44>
1: # goes here if not taken
  bge x29, x25, 0b # backward branch, never taken
    29d8:	ff9edee3          	bge	x29,x25,29d4 <I_bge_cg_cr_rs1_rs2_edges_offset_rs1val_0x1_rs2val_0x7ffffffe>
  # Check if x0 contains the expected result. x15 is the signature ptr, x5 is the link ptr, x4 is a temp reg.
  RVTEST_SIGUPD(x15, x5, x4, x0, I_bge_cg_cr_rs1_rs2_edges_offset_rs1val_0x1_rs2val_0x7ffffffe, I_bge_cg_cr_rs1_rs2_edges_offset_rs1val_0x1_rs2val_0x7ffffffe_str)
    29dc:	0007a203          	lw	x4,0(x15)
    29e0:	00020863          	beq	x4,x0,29f0 <I_bge_cg_cr_rs1_rs2_edges_offset_rs1val_0x1_rs2val_0x7ffffffe+0x1c>
    29e4:	698072ef          	jal	x5,a07c <failedtest_x5_x4>
    29e8:	000029d4          	.word	0x000029d4
    29ec:	0000e282          	.word	0x0000e282
    29f0:	00478793          	addi	x15,x15,4
  j 4f # done with test
    29f4:	0280006f          	jal	x0,2a1c <I_bge_cg_cr_rs1_rs2_edges_offset_rs1val_0x1_rs2val_0x7ffffffe+0x48>
2: # goes here during backward branch if taken
  LI(x29, 1)
    29f8:	00100e93          	addi	x29,x0,1
  # Check if x29 contains the expected result. x15 is the signature ptr, x5 is the link ptr, x4 is a temp reg.
  RVTEST_SIGUPD(x15, x5, x4, x29, I_bge_cg_cr_rs1_rs2_edges_offset_rs1val_0x1_rs2val_0x7ffffffe, I_bge_cg_cr_rs1_rs2_edges_offset_rs1val_0x1_rs2val_0x7ffffffe_str) # signature 1 for taken
    29fc:	0007a203          	lw	x4,0(x15)
    2a00:	01d20863          	beq	x4,x29,2a10 <I_bge_cg_cr_rs1_rs2_edges_offset_rs1val_0x1_rs2val_0x7ffffffe+0x3c>
    2a04:	678072ef          	jal	x5,a07c <failedtest_x5_x4>
    2a08:	000029d4          	.word	0x000029d4
    2a0c:	0000e282          	.word	0x0000e282
    2a10:	00478793          	addi	x15,x15,4
  j 4f # done with test
    2a14:	0080006f          	jal	x0,2a1c <I_bge_cg_cr_rs1_rs2_edges_offset_rs1val_0x1_rs2val_0x7ffffffe+0x48>
3: # goes here during forward branch if taken
  bge x29, x25, 2b # backward branch, definitely taken
    2a18:	ff9ed0e3          	bge	x29,x25,29f8 <I_bge_cg_cr_rs1_rs2_edges_offset_rs1val_0x1_rs2val_0x7ffffffe+0x24>
4: # done with test

# cr_rs1_rs2_edges_offset (Test source rs1 = 0x00000001 rs2 = 0xffffffff)
  RVTEST_TESTDATA_LOAD_INT(x23, x12) # load rs1: x12 = 0x00000001
    2a1c:	000ba603          	lw	x12,0(x23)
    2a20:	004b8b93          	addi	x23,x23,4
  RVTEST_TESTDATA_LOAD_INT(x23, x19) # load rs2: x19 = 0xffffffff
    2a24:	000ba983          	lw	x19,0(x23)
    2a28:	004b8b93          	addi	x23,x23,4

00002a2c <I_bge_cg_cr_rs1_rs2_edges_offset_rs1val_0x1_rs2val_0xffffffff>:
0: # destination for backwards branch that is never taken
I_bge_cg_cr_rs1_rs2_edges_offset_rs1val_0x1_rs2val_0xffffffff:
  bge x12, x19, 3f # forward branch, if taken
    2a2c:	05365263          	bge	x12,x19,2a70 <I_bge_cg_cr_rs1_rs2_edges_offset_rs1val_0x1_rs2val_0xffffffff+0x44>
1: # goes here if not taken
  bge x12, x19, 0b # backward branch, never taken
    2a30:	ff365ee3          	bge	x12,x19,2a2c <I_bge_cg_cr_rs1_rs2_edges_offset_rs1val_0x1_rs2val_0xffffffff>
  # Check if x0 contains the expected result. x15 is the signature ptr, x5 is the link ptr, x4 is a temp reg.
  RVTEST_SIGUPD(x15, x5, x4, x0, I_bge_cg_cr_rs1_rs2_edges_offset_rs1val_0x1_rs2val_0xffffffff, I_bge_cg_cr_rs1_rs2_edges_offset_rs1val_0x1_rs2val_0xffffffff_str)
    2a34:	0007a203          	lw	x4,0(x15)
    2a38:	00020863          	beq	x4,x0,2a48 <I_bge_cg_cr_rs1_rs2_edges_offset_rs1val_0x1_rs2val_0xffffffff+0x1c>
    2a3c:	640072ef          	jal	x5,a07c <failedtest_x5_x4>
    2a40:	00002a2c          	.word	0x00002a2c
    2a44:	0000e2dd          	.word	0x0000e2dd
    2a48:	00478793          	addi	x15,x15,4
  j 4f # done with test
    2a4c:	0280006f          	jal	x0,2a74 <I_bge_cg_cr_rs1_rs2_edges_offset_rs1val_0x1_rs2val_0xffffffff+0x48>
2: # goes here during backward branch if taken
  LI(x12, 1)
    2a50:	00100613          	addi	x12,x0,1
  # Check if x12 contains the expected result. x15 is the signature ptr, x5 is the link ptr, x4 is a temp reg.
  RVTEST_SIGUPD(x15, x5, x4, x12, I_bge_cg_cr_rs1_rs2_edges_offset_rs1val_0x1_rs2val_0xffffffff, I_bge_cg_cr_rs1_rs2_edges_offset_rs1val_0x1_rs2val_0xffffffff_str) # signature 1 for taken
    2a54:	0007a203          	lw	x4,0(x15)
    2a58:	00c20863          	beq	x4,x12,2a68 <I_bge_cg_cr_rs1_rs2_edges_offset_rs1val_0x1_rs2val_0xffffffff+0x3c>
    2a5c:	620072ef          	jal	x5,a07c <failedtest_x5_x4>
    2a60:	00002a2c          	.word	0x00002a2c
    2a64:	0000e2dd          	.word	0x0000e2dd
    2a68:	00478793          	addi	x15,x15,4
  j 4f # done with test
    2a6c:	0080006f          	jal	x0,2a74 <I_bge_cg_cr_rs1_rs2_edges_offset_rs1val_0x1_rs2val_0xffffffff+0x48>
3: # goes here during forward branch if taken
  bge x12, x19, 2b # backward branch, definitely taken
    2a70:	ff3650e3          	bge	x12,x19,2a50 <I_bge_cg_cr_rs1_rs2_edges_offset_rs1val_0x1_rs2val_0xffffffff+0x24>
4: # done with test

# cr_rs1_rs2_edges_offset (Test source rs1 = 0x00000001 rs2 = 0xfffffffe)
  RVTEST_TESTDATA_LOAD_INT(x23, x3) # load rs1: x3 = 0x00000001
    2a74:	000ba183          	lw	x3,0(x23)
    2a78:	004b8b93          	addi	x23,x23,4
  RVTEST_TESTDATA_LOAD_INT(x23, x31) # load rs2: x31 = 0xfffffffe
    2a7c:	000baf83          	lw	x31,0(x23)
    2a80:	004b8b93          	addi	x23,x23,4

00002a84 <I_bge_cg_cr_rs1_rs2_edges_offset_rs1val_0x1_rs2val_0xfffffffe>:
0: # destination for backwards branch that is never taken
I_bge_cg_cr_rs1_rs2_edges_offset_rs1val_0x1_rs2val_0xfffffffe:
  bge x3, x31, 3f # forward branch, if taken
    2a84:	05f1d263          	bge	x3,x31,2ac8 <I_bge_cg_cr_rs1_rs2_edges_offset_rs1val_0x1_rs2val_0xfffffffe+0x44>
1: # goes here if not taken
  bge x3, x31, 0b # backward branch, never taken
    2a88:	fff1dee3          	bge	x3,x31,2a84 <I_bge_cg_cr_rs1_rs2_edges_offset_rs1val_0x1_rs2val_0xfffffffe>
  # Check if x0 contains the expected result. x15 is the signature ptr, x5 is the link ptr, x4 is a temp reg.
  RVTEST_SIGUPD(x15, x5, x4, x0, I_bge_cg_cr_rs1_rs2_edges_offset_rs1val_0x1_rs2val_0xfffffffe, I_bge_cg_cr_rs1_rs2_edges_offset_rs1val_0x1_rs2val_0xfffffffe_str)
    2a8c:	0007a203          	lw	x4,0(x15)
    2a90:	00020863          	beq	x4,x0,2aa0 <I_bge_cg_cr_rs1_rs2_edges_offset_rs1val_0x1_rs2val_0xfffffffe+0x1c>
    2a94:	5e8072ef          	jal	x5,a07c <failedtest_x5_x4>
    2a98:	00002a84          	.word	0x00002a84
    2a9c:	0000e338          	.word	0x0000e338
    2aa0:	00478793          	addi	x15,x15,4
  j 4f # done with test
    2aa4:	0280006f          	jal	x0,2acc <I_bge_cg_cr_rs1_rs2_edges_offset_rs1val_0x1_rs2val_0xfffffffe+0x48>
2: # goes here during backward branch if taken
  LI(x3, 1)
    2aa8:	00100193          	addi	x3,x0,1
  # Check if x3 contains the expected result. x15 is the signature ptr, x5 is the link ptr, x4 is a temp reg.
  RVTEST_SIGUPD(x15, x5, x4, x3, I_bge_cg_cr_rs1_rs2_edges_offset_rs1val_0x1_rs2val_0xfffffffe, I_bge_cg_cr_rs1_rs2_edges_offset_rs1val_0x1_rs2val_0xfffffffe_str) # signature 1 for taken
    2aac:	0007a203          	lw	x4,0(x15)
    2ab0:	00320863          	beq	x4,x3,2ac0 <I_bge_cg_cr_rs1_rs2_edges_offset_rs1val_0x1_rs2val_0xfffffffe+0x3c>
    2ab4:	5c8072ef          	jal	x5,a07c <failedtest_x5_x4>
    2ab8:	00002a84          	.word	0x00002a84
    2abc:	0000e338          	.word	0x0000e338
    2ac0:	00478793          	addi	x15,x15,4
  j 4f # done with test
    2ac4:	0080006f          	jal	x0,2acc <I_bge_cg_cr_rs1_rs2_edges_offset_rs1val_0x1_rs2val_0xfffffffe+0x48>
3: # goes here during forward branch if taken
  bge x3, x31, 2b # backward branch, definitely taken
    2ac8:	fff1d0e3          	bge	x3,x31,2aa8 <I_bge_cg_cr_rs1_rs2_edges_offset_rs1val_0x1_rs2val_0xfffffffe+0x24>
4: # done with test

# cr_rs1_rs2_edges_offset (Test source rs1 = 0x00000001 rs2 = 0x5bbc8872)
  RVTEST_TESTDATA_LOAD_INT(x23, x7) # load rs1: x7 = 0x00000001
    2acc:	000ba383          	lw	x7,0(x23)
    2ad0:	004b8b93          	addi	x23,x23,4
  RVTEST_TESTDATA_LOAD_INT(x23, x24) # load rs2: x24 = 0x5bbc8872
    2ad4:	000bac03          	lw	x24,0(x23)
    2ad8:	004b8b93          	addi	x23,x23,4

00002adc <I_bge_cg_cr_rs1_rs2_edges_offset_rs1val_0x1_rs2val_0x5bbc8872>:
0: # destination for backwards branch that is never taken
I_bge_cg_cr_rs1_rs2_edges_offset_rs1val_0x1_rs2val_0x5bbc8872:
  bge x7, x24, 3f # forward branch, if taken
    2adc:	0583d263          	bge	x7,x24,2b20 <I_bge_cg_cr_rs1_rs2_edges_offset_rs1val_0x1_rs2val_0x5bbc8872+0x44>
1: # goes here if not taken
  bge x7, x24, 0b # backward branch, never taken
    2ae0:	ff83dee3          	bge	x7,x24,2adc <I_bge_cg_cr_rs1_rs2_edges_offset_rs1val_0x1_rs2val_0x5bbc8872>
  # Check if x0 contains the expected result. x15 is the signature ptr, x5 is the link ptr, x4 is a temp reg.
  RVTEST_SIGUPD(x15, x5, x4, x0, I_bge_cg_cr_rs1_rs2_edges_offset_rs1val_0x1_rs2val_0x5bbc8872, I_bge_cg_cr_rs1_rs2_edges_offset_rs1val_0x1_rs2val_0x5bbc8872_str)
    2ae4:	0007a203          	lw	x4,0(x15)
    2ae8:	00020863          	beq	x4,x0,2af8 <I_bge_cg_cr_rs1_rs2_edges_offset_rs1val_0x1_rs2val_0x5bbc8872+0x1c>
    2aec:	590072ef          	jal	x5,a07c <failedtest_x5_x4>
    2af0:	00002adc          	.word	0x00002adc
    2af4:	0000e393          	.word	0x0000e393
    2af8:	00478793          	addi	x15,x15,4
  j 4f # done with test
    2afc:	0280006f          	jal	x0,2b24 <I_bge_cg_cr_rs1_rs2_edges_offset_rs1val_0x1_rs2val_0x5bbc8872+0x48>
2: # goes here during backward branch if taken
  LI(x7, 1)
    2b00:	00100393          	addi	x7,x0,1
  # Check if x7 contains the expected result. x15 is the signature ptr, x5 is the link ptr, x4 is a temp reg.
  RVTEST_SIGUPD(x15, x5, x4, x7, I_bge_cg_cr_rs1_rs2_edges_offset_rs1val_0x1_rs2val_0x5bbc8872, I_bge_cg_cr_rs1_rs2_edges_offset_rs1val_0x1_rs2val_0x5bbc8872_str) # signature 1 for taken
    2b04:	0007a203          	lw	x4,0(x15)
    2b08:	00720863          	beq	x4,x7,2b18 <I_bge_cg_cr_rs1_rs2_edges_offset_rs1val_0x1_rs2val_0x5bbc8872+0x3c>
    2b0c:	570072ef          	jal	x5,a07c <failedtest_x5_x4>
    2b10:	00002adc          	.word	0x00002adc
    2b14:	0000e393          	.word	0x0000e393
    2b18:	00478793          	addi	x15,x15,4
  j 4f # done with test
    2b1c:	0080006f          	jal	x0,2b24 <I_bge_cg_cr_rs1_rs2_edges_offset_rs1val_0x1_rs2val_0x5bbc8872+0x48>
3: # goes here during forward branch if taken
  bge x7, x24, 2b # backward branch, definitely taken
    2b20:	ff83d0e3          	bge	x7,x24,2b00 <I_bge_cg_cr_rs1_rs2_edges_offset_rs1val_0x1_rs2val_0x5bbc8872+0x24>
4: # done with test

# cr_rs1_rs2_edges_offset (Test source rs1 = 0x00000001 rs2 = 0xaaaaaaaa)
  RVTEST_TESTDATA_LOAD_INT(x23, x26) # load rs1: x26 = 0x00000001
    2b24:	000bad03          	lw	x26,0(x23)
    2b28:	004b8b93          	addi	x23,x23,4
  RVTEST_TESTDATA_LOAD_INT(x23, x7) # load rs2: x7 = 0xaaaaaaaa
    2b2c:	000ba383          	lw	x7,0(x23)
    2b30:	004b8b93          	addi	x23,x23,4

00002b34 <I_bge_cg_cr_rs1_rs2_edges_offset_rs1val_0x1_rs2val_0xaaaaaaaa>:
0: # destination for backwards branch that is never taken
I_bge_cg_cr_rs1_rs2_edges_offset_rs1val_0x1_rs2val_0xaaaaaaaa:
  bge x26, x7, 3f # forward branch, if taken
    2b34:	047d5263          	bge	x26,x7,2b78 <I_bge_cg_cr_rs1_rs2_edges_offset_rs1val_0x1_rs2val_0xaaaaaaaa+0x44>
1: # goes here if not taken
  bge x26, x7, 0b # backward branch, never taken
    2b38:	fe7d5ee3          	bge	x26,x7,2b34 <I_bge_cg_cr_rs1_rs2_edges_offset_rs1val_0x1_rs2val_0xaaaaaaaa>
  # Check if x0 contains the expected result. x15 is the signature ptr, x5 is the link ptr, x4 is a temp reg.
  RVTEST_SIGUPD(x15, x5, x4, x0, I_bge_cg_cr_rs1_rs2_edges_offset_rs1val_0x1_rs2val_0xaaaaaaaa, I_bge_cg_cr_rs1_rs2_edges_offset_rs1val_0x1_rs2val_0xaaaaaaaa_str)
    2b3c:	0007a203          	lw	x4,0(x15)
    2b40:	00020863          	beq	x4,x0,2b50 <I_bge_cg_cr_rs1_rs2_edges_offset_rs1val_0x1_rs2val_0xaaaaaaaa+0x1c>
    2b44:	538072ef          	jal	x5,a07c <failedtest_x5_x4>
    2b48:	00002b34          	.word	0x00002b34
    2b4c:	0000e3ee          	.word	0x0000e3ee
    2b50:	00478793          	addi	x15,x15,4
  j 4f # done with test
    2b54:	0280006f          	jal	x0,2b7c <I_bge_cg_cr_rs1_rs2_edges_offset_rs1val_0x1_rs2val_0xaaaaaaaa+0x48>
2: # goes here during backward branch if taken
  LI(x26, 1)
    2b58:	00100d13          	addi	x26,x0,1
  # Check if x26 contains the expected result. x15 is the signature ptr, x5 is the link ptr, x4 is a temp reg.
  RVTEST_SIGUPD(x15, x5, x4, x26, I_bge_cg_cr_rs1_rs2_edges_offset_rs1val_0x1_rs2val_0xaaaaaaaa, I_bge_cg_cr_rs1_rs2_edges_offset_rs1val_0x1_rs2val_0xaaaaaaaa_str) # signature 1 for taken
    2b5c:	0007a203          	lw	x4,0(x15)
    2b60:	01a20863          	beq	x4,x26,2b70 <I_bge_cg_cr_rs1_rs2_edges_offset_rs1val_0x1_rs2val_0xaaaaaaaa+0x3c>
    2b64:	518072ef          	jal	x5,a07c <failedtest_x5_x4>
    2b68:	00002b34          	.word	0x00002b34
    2b6c:	0000e3ee          	.word	0x0000e3ee
    2b70:	00478793          	addi	x15,x15,4
  j 4f # done with test
    2b74:	0080006f          	jal	x0,2b7c <I_bge_cg_cr_rs1_rs2_edges_offset_rs1val_0x1_rs2val_0xaaaaaaaa+0x48>
3: # goes here during forward branch if taken
  bge x26, x7, 2b # backward branch, definitely taken
    2b78:	fe7d50e3          	bge	x26,x7,2b58 <I_bge_cg_cr_rs1_rs2_edges_offset_rs1val_0x1_rs2val_0xaaaaaaaa+0x24>
4: # done with test

# cr_rs1_rs2_edges_offset (Test source rs1 = 0x00000001 rs2 = 0x55555555)
  RVTEST_TESTDATA_LOAD_INT(x23, x1) # load rs1: x1 = 0x00000001
    2b7c:	000ba083          	lw	x1,0(x23)
    2b80:	004b8b93          	addi	x23,x23,4
  RVTEST_TESTDATA_LOAD_INT(x23, x8) # load rs2: x8 = 0x55555555
    2b84:	000ba403          	lw	x8,0(x23)
    2b88:	004b8b93          	addi	x23,x23,4

00002b8c <I_bge_cg_cr_rs1_rs2_edges_offset_rs1val_0x1_rs2val_0x55555555>:
0: # destination for backwards branch that is never taken
I_bge_cg_cr_rs1_rs2_edges_offset_rs1val_0x1_rs2val_0x55555555:
  bge x1, x8, 3f # forward branch, if taken
    2b8c:	0480d263          	bge	x1,x8,2bd0 <I_bge_cg_cr_rs1_rs2_edges_offset_rs1val_0x1_rs2val_0x55555555+0x44>
1: # goes here if not taken
  bge x1, x8, 0b # backward branch, never taken
    2b90:	fe80dee3          	bge	x1,x8,2b8c <I_bge_cg_cr_rs1_rs2_edges_offset_rs1val_0x1_rs2val_0x55555555>
  # Check if x0 contains the expected result. x15 is the signature ptr, x5 is the link ptr, x4 is a temp reg.
  RVTEST_SIGUPD(x15, x5, x4, x0, I_bge_cg_cr_rs1_rs2_edges_offset_rs1val_0x1_rs2val_0x55555555, I_bge_cg_cr_rs1_rs2_edges_offset_rs1val_0x1_rs2val_0x55555555_str)
    2b94:	0007a203          	lw	x4,0(x15)
    2b98:	00020863          	beq	x4,x0,2ba8 <I_bge_cg_cr_rs1_rs2_edges_offset_rs1val_0x1_rs2val_0x55555555+0x1c>
    2b9c:	4e0072ef          	jal	x5,a07c <failedtest_x5_x4>
    2ba0:	00002b8c          	.word	0x00002b8c
    2ba4:	0000e449          	.word	0x0000e449
    2ba8:	00478793          	addi	x15,x15,4
  j 4f # done with test
    2bac:	0280006f          	jal	x0,2bd4 <I_bge_cg_cr_rs1_rs2_edges_offset_rs1val_0x1_rs2val_0x55555555+0x48>
2: # goes here during backward branch if taken
  LI(x1, 1)
    2bb0:	00100093          	addi	x1,x0,1
  # Check if x1 contains the expected result. x15 is the signature ptr, x5 is the link ptr, x4 is a temp reg.
  RVTEST_SIGUPD(x15, x5, x4, x1, I_bge_cg_cr_rs1_rs2_edges_offset_rs1val_0x1_rs2val_0x55555555, I_bge_cg_cr_rs1_rs2_edges_offset_rs1val_0x1_rs2val_0x55555555_str) # signature 1 for taken
    2bb4:	0007a203          	lw	x4,0(x15)
    2bb8:	00120863          	beq	x4,x1,2bc8 <I_bge_cg_cr_rs1_rs2_edges_offset_rs1val_0x1_rs2val_0x55555555+0x3c>
    2bbc:	4c0072ef          	jal	x5,a07c <failedtest_x5_x4>
    2bc0:	00002b8c          	.word	0x00002b8c
    2bc4:	0000e449          	.word	0x0000e449
    2bc8:	00478793          	addi	x15,x15,4
  j 4f # done with test
    2bcc:	0080006f          	jal	x0,2bd4 <I_bge_cg_cr_rs1_rs2_edges_offset_rs1val_0x1_rs2val_0x55555555+0x48>
3: # goes here during forward branch if taken
  bge x1, x8, 2b # backward branch, definitely taken
    2bd0:	fe80d0e3          	bge	x1,x8,2bb0 <I_bge_cg_cr_rs1_rs2_edges_offset_rs1val_0x1_rs2val_0x55555555+0x24>
4: # done with test

# cr_rs1_rs2_edges_offset (Test source rs1 = 0x00000002 rs2 = 0x00000000)
  RVTEST_TESTDATA_LOAD_INT(x23, x20) # load rs1: x20 = 0x00000002
    2bd4:	000baa03          	lw	x20,0(x23)
    2bd8:	004b8b93          	addi	x23,x23,4
  RVTEST_TESTDATA_LOAD_INT(x23, x3) # load rs2: x3 = 0x00000000
    2bdc:	000ba183          	lw	x3,0(x23)
    2be0:	004b8b93          	addi	x23,x23,4

00002be4 <I_bge_cg_cr_rs1_rs2_edges_offset_rs1val_0x2_rs2val_0x0>:
0: # destination for backwards branch that is never taken
I_bge_cg_cr_rs1_rs2_edges_offset_rs1val_0x2_rs2val_0x0:
  bge x20, x3, 3f # forward branch, if taken
    2be4:	043a5263          	bge	x20,x3,2c28 <I_bge_cg_cr_rs1_rs2_edges_offset_rs1val_0x2_rs2val_0x0+0x44>
1: # goes here if not taken
  bge x20, x3, 0b # backward branch, never taken
    2be8:	fe3a5ee3          	bge	x20,x3,2be4 <I_bge_cg_cr_rs1_rs2_edges_offset_rs1val_0x2_rs2val_0x0>
  # Check if x0 contains the expected result. x15 is the signature ptr, x5 is the link ptr, x4 is a temp reg.
  RVTEST_SIGUPD(x15, x5, x4, x0, I_bge_cg_cr_rs1_rs2_edges_offset_rs1val_0x2_rs2val_0x0, I_bge_cg_cr_rs1_rs2_edges_offset_rs1val_0x2_rs2val_0x0_str)
    2bec:	0007a203          	lw	x4,0(x15)
    2bf0:	00020863          	beq	x4,x0,2c00 <I_bge_cg_cr_rs1_rs2_edges_offset_rs1val_0x2_rs2val_0x0+0x1c>
    2bf4:	488072ef          	jal	x5,a07c <failedtest_x5_x4>
    2bf8:	00002be4          	.word	0x00002be4
    2bfc:	0000e4a4          	.word	0x0000e4a4
    2c00:	00478793          	addi	x15,x15,4
  j 4f # done with test
    2c04:	0280006f          	jal	x0,2c2c <I_bge_cg_cr_rs1_rs2_edges_offset_rs1val_0x2_rs2val_0x0+0x48>
2: # goes here during backward branch if taken
  LI(x20, 1)
    2c08:	00100a13          	addi	x20,x0,1
  # Check if x20 contains the expected result. x15 is the signature ptr, x5 is the link ptr, x4 is a temp reg.
  RVTEST_SIGUPD(x15, x5, x4, x20, I_bge_cg_cr_rs1_rs2_edges_offset_rs1val_0x2_rs2val_0x0, I_bge_cg_cr_rs1_rs2_edges_offset_rs1val_0x2_rs2val_0x0_str) # signature 1 for taken
    2c0c:	0007a203          	lw	x4,0(x15)
    2c10:	01420863          	beq	x4,x20,2c20 <I_bge_cg_cr_rs1_rs2_edges_offset_rs1val_0x2_rs2val_0x0+0x3c>
    2c14:	468072ef          	jal	x5,a07c <failedtest_x5_x4>
    2c18:	00002be4          	.word	0x00002be4
    2c1c:	0000e4a4          	.word	0x0000e4a4
    2c20:	00478793          	addi	x15,x15,4
  j 4f # done with test
    2c24:	0080006f          	jal	x0,2c2c <I_bge_cg_cr_rs1_rs2_edges_offset_rs1val_0x2_rs2val_0x0+0x48>
3: # goes here during forward branch if taken
  bge x20, x3, 2b # backward branch, definitely taken
    2c28:	fe3a50e3          	bge	x20,x3,2c08 <I_bge_cg_cr_rs1_rs2_edges_offset_rs1val_0x2_rs2val_0x0+0x24>
4: # done with test

# cr_rs1_rs2_edges_offset (Test source rs1 = 0x00000002 rs2 = 0x00000001)
  RVTEST_TESTDATA_LOAD_INT(x23, x12) # load rs1: x12 = 0x00000002
    2c2c:	000ba603          	lw	x12,0(x23)
    2c30:	004b8b93          	addi	x23,x23,4
  RVTEST_TESTDATA_LOAD_INT(x23, x2) # load rs2: x2 = 0x00000001
    2c34:	000ba103          	lw	x2,0(x23)
    2c38:	004b8b93          	addi	x23,x23,4

00002c3c <I_bge_cg_cr_rs1_rs2_edges_offset_rs1val_0x2_rs2val_0x1>:
0: # destination for backwards branch that is never taken
I_bge_cg_cr_rs1_rs2_edges_offset_rs1val_0x2_rs2val_0x1:
  bge x12, x2, 3f # forward branch, if taken
    2c3c:	04265263          	bge	x12,x2,2c80 <I_bge_cg_cr_rs1_rs2_edges_offset_rs1val_0x2_rs2val_0x1+0x44>
1: # goes here if not taken
  bge x12, x2, 0b # backward branch, never taken
    2c40:	fe265ee3          	bge	x12,x2,2c3c <I_bge_cg_cr_rs1_rs2_edges_offset_rs1val_0x2_rs2val_0x1>
  # Check if x0 contains the expected result. x15 is the signature ptr, x5 is the link ptr, x4 is a temp reg.
  RVTEST_SIGUPD(x15, x5, x4, x0, I_bge_cg_cr_rs1_rs2_edges_offset_rs1val_0x2_rs2val_0x1, I_bge_cg_cr_rs1_rs2_edges_offset_rs1val_0x2_rs2val_0x1_str)
    2c44:	0007a203          	lw	x4,0(x15)
    2c48:	00020863          	beq	x4,x0,2c58 <I_bge_cg_cr_rs1_rs2_edges_offset_rs1val_0x2_rs2val_0x1+0x1c>
    2c4c:	430072ef          	jal	x5,a07c <failedtest_x5_x4>
    2c50:	00002c3c          	.word	0x00002c3c
    2c54:	0000e4f8          	.word	0x0000e4f8
    2c58:	00478793          	addi	x15,x15,4
  j 4f # done with test
    2c5c:	0280006f          	jal	x0,2c84 <I_bge_cg_cr_rs1_rs2_edges_offset_rs1val_0x2_rs2val_0x1+0x48>
2: # goes here during backward branch if taken
  LI(x12, 1)
    2c60:	00100613          	addi	x12,x0,1
  # Check if x12 contains the expected result. x15 is the signature ptr, x5 is the link ptr, x4 is a temp reg.
  RVTEST_SIGUPD(x15, x5, x4, x12, I_bge_cg_cr_rs1_rs2_edges_offset_rs1val_0x2_rs2val_0x1, I_bge_cg_cr_rs1_rs2_edges_offset_rs1val_0x2_rs2val_0x1_str) # signature 1 for taken
    2c64:	0007a203          	lw	x4,0(x15)
    2c68:	00c20863          	beq	x4,x12,2c78 <I_bge_cg_cr_rs1_rs2_edges_offset_rs1val_0x2_rs2val_0x1+0x3c>
    2c6c:	410072ef          	jal	x5,a07c <failedtest_x5_x4>
    2c70:	00002c3c          	.word	0x00002c3c
    2c74:	0000e4f8          	.word	0x0000e4f8
