
/home/dev/github/clones/riscv-arch-test/work/rv32i-core/elfs/rv32i/I/I-blt-00.elf:     file format elf32-littleriscv
/home/dev/github/clones/riscv-arch-test/work/rv32i-core/elfs/rv32i/I/I-blt-00.elf
architecture: riscv:rv32, flags 0x00000112:
EXEC_P, HAS_SYMS, D_PAGED
start address 0x00000000

Program Header:
0x70000003 off    0x00024240 vaddr 0x00000000 paddr 0x00000000 align 2**0
         filesz 0x00000033 memsz 0x00000000 flags r--
    LOAD off    0x00001000 vaddr 0x00000000 paddr 0x00000000 align 2**12
         filesz 0x0000c000 memsz 0x0000c000 flags r-x
    LOAD off    0x0000d000 vaddr 0x0000c000 paddr 0x0000c000 align 2**12
         filesz 0x00017240 memsz 0x00017240 flags rwx

Sections:
Idx Name          Size      VMA       LMA       File off  Algn
  0 .text.init    00000040  00000000  00000000  00001000  2**5
                  CONTENTS, ALLOC, LOAD, READONLY, CODE
  1 .text.rvtest  0000b000  00001000  00001000  00002000  2**12
                  CONTENTS, ALLOC, LOAD, READONLY, CODE
  2 .data         00016640  0000c000  0000c000  0000d000  2**8
                  CONTENTS, ALLOC, LOAD, DATA
  3 .text.rvmodel 00000240  00023000  00023000  00024000  2**5
                  CONTENTS, ALLOC, LOAD, READONLY, CODE
  4 .riscv.attributes 00000033  00000000  00000000  00024240  2**0
                  CONTENTS, READONLY
  5 .debug_line   000034b0  00000000  00000000  00024273  2**0
                  CONTENTS, READONLY, DEBUGGING, OCTETS
  6 .debug_line_str 00000069  00000000  00000000  00027723  2**0
                  CONTENTS, READONLY, DEBUGGING, OCTETS
  7 .debug_info   00000023  00000000  00000000  0002778c  2**0
                  CONTENTS, READONLY, DEBUGGING, OCTETS
  8 .debug_abbrev 00000012  00000000  00000000  000277af  2**0
                  CONTENTS, READONLY, DEBUGGING, OCTETS
  9 .debug_aranges 00000028  00000000  00000000  000277c8  2**3
                  CONTENTS, READONLY, DEBUGGING, OCTETS
 10 .debug_str    00000075  00000000  00000000  000277f0  2**0
                  CONTENTS, READONLY, DEBUGGING, OCTETS
 11 .debug_rnglists 0000001b  00000000  00000000  00027865  2**0
                  CONTENTS, READONLY, DEBUGGING, OCTETS
SYMBOL TABLE:
00000000 l    d  .text.init	00000000 .text.init
00001000 l    d  .text.rvtest	00000000 .text.rvtest
0000c000 l    d  .data	00000000 .data
00023000 l    d  .text.rvmodel	00000000 .text.rvmodel
00000000 l    d  .riscv.attributes	00000000 .riscv.attributes
00000000 l    d  .debug_line	00000000 .debug_line
00000000 l    d  .debug_line_str	00000000 .debug_line_str
00000000 l    d  .debug_info	00000000 .debug_info
00000000 l    d  .debug_abbrev	00000000 .debug_abbrev
00000000 l    d  .debug_aranges	00000000 .debug_aranges
00000000 l    d  .debug_str	00000000 .debug_str
00000000 l    d  .debug_rnglists	00000000 .debug_rnglists
00000000 l    df *ABS*	00000000 ccMM6xOO.o
00000003 l       *ABS*	00000000 MMODE_SIG
00000001 l       *ABS*	00000000 SMODE_SIG
00000001 l       *ABS*	00000000 HMODE_SIG
00000002 l       *ABS*	00000000 VMODE_SIG
00023000 l       .text.rvmodel	00000000 rvmodel_boot
00001018 l       .text.rvtest	00000000 I_blt_cg_cp_rs1_b0
6f5ca309 l       *ABS*	00000000 immx
6f5ca309 l       *ABS*	00000000 absimm
00000000 l       *ABS*	00000000 cry
00000309 l       *ABS*	00000000 imm12
0000a07c l       .text.rvtest	00000000 failedtest_x5_x4
0000cb38 l       .data	00000000 I_blt_cg_cp_rs1_b0_str
00001050 l       .text.rvtest	00000000 I_blt_cg_cp_rs1_b1
0000cb65 l       .data	00000000 I_blt_cg_cp_rs1_b1_str
0000108c l       .text.rvtest	00000000 I_blt_cg_cp_rs1_b2
0000cb92 l       .data	00000000 I_blt_cg_cp_rs1_b2_str
000010c8 l       .text.rvtest	00000000 I_blt_cg_cp_rs1_b3
0000cbbf l       .data	00000000 I_blt_cg_cp_rs1_b3_str
00001108 l       .text.rvtest	00000000 I_blt_cg_cp_rs1_b4
0000a0bc l       .text.rvtest	00000000 failedtest_x14_x13
0000cbec l       .data	00000000 I_blt_cg_cp_rs1_b4_str
00001140 l       .text.rvtest	00000000 I_blt_cg_cp_rs1_b5
0000cc19 l       .data	00000000 I_blt_cg_cp_rs1_b5_str
00001178 l       .text.rvtest	00000000 I_blt_cg_cp_rs1_b6
0000cc46 l       .data	00000000 I_blt_cg_cp_rs1_b6_str
000011b0 l       .text.rvtest	00000000 I_blt_cg_cp_rs1_b7
0000cc73 l       .data	00000000 I_blt_cg_cp_rs1_b7_str
000011e8 l       .text.rvtest	00000000 I_blt_cg_cp_rs1_b8
0000cca0 l       .data	00000000 I_blt_cg_cp_rs1_b8_str
00001220 l       .text.rvtest	00000000 I_blt_cg_cp_rs1_b9
0000cccd l       .data	00000000 I_blt_cg_cp_rs1_b9_str
00001258 l       .text.rvtest	00000000 I_blt_cg_cp_rs1_b10
0000ccfb l       .data	00000000 I_blt_cg_cp_rs1_b10_str
00001290 l       .text.rvtest	00000000 I_blt_cg_cp_rs1_b11
0000cd2a l       .data	00000000 I_blt_cg_cp_rs1_b11_str
000012c8 l       .text.rvtest	00000000 I_blt_cg_cp_rs1_b12
0000cd59 l       .data	00000000 I_blt_cg_cp_rs1_b12_str
00001308 l       .text.rvtest	00000000 I_blt_cg_cp_rs1_b13
0000cd88 l       .data	00000000 I_blt_cg_cp_rs1_b13_str
00001340 l       .text.rvtest	00000000 I_blt_cg_cp_rs1_b14
0000cdb7 l       .data	00000000 I_blt_cg_cp_rs1_b14_str
00001378 l       .text.rvtest	00000000 I_blt_cg_cp_rs1_b15
0000cde6 l       .data	00000000 I_blt_cg_cp_rs1_b15_str
000013b0 l       .text.rvtest	00000000 I_blt_cg_cp_rs1_b16
0000ce15 l       .data	00000000 I_blt_cg_cp_rs1_b16_str
000013e8 l       .text.rvtest	00000000 I_blt_cg_cp_rs1_b17
0000ce44 l       .data	00000000 I_blt_cg_cp_rs1_b17_str
00001424 l       .text.rvtest	00000000 I_blt_cg_cp_rs1_b18
0000ce73 l       .data	00000000 I_blt_cg_cp_rs1_b18_str
0000145c l       .text.rvtest	00000000 I_blt_cg_cp_rs1_b19
0000cea2 l       .data	00000000 I_blt_cg_cp_rs1_b19_str
00001494 l       .text.rvtest	00000000 I_blt_cg_cp_rs1_b20
0000ced1 l       .data	00000000 I_blt_cg_cp_rs1_b20_str
000014cc l       .text.rvtest	00000000 I_blt_cg_cp_rs1_b21
0000cf00 l       .data	00000000 I_blt_cg_cp_rs1_b21_str
00001504 l       .text.rvtest	00000000 I_blt_cg_cp_rs1_b22
0000cf2f l       .data	00000000 I_blt_cg_cp_rs1_b22_str
0000153c l       .text.rvtest	00000000 I_blt_cg_cp_rs1_b23
0000cf5e l       .data	00000000 I_blt_cg_cp_rs1_b23_str
00001578 l       .text.rvtest	00000000 I_blt_cg_cp_rs1_b24
0000cf8d l       .data	00000000 I_blt_cg_cp_rs1_b24_str
000015b0 l       .text.rvtest	00000000 I_blt_cg_cp_rs1_b25
0000cfbc l       .data	00000000 I_blt_cg_cp_rs1_b25_str
000015e8 l       .text.rvtest	00000000 I_blt_cg_cp_rs1_b26
0000cfeb l       .data	00000000 I_blt_cg_cp_rs1_b26_str
00001620 l       .text.rvtest	00000000 I_blt_cg_cp_rs1_b27
0000d01a l       .data	00000000 I_blt_cg_cp_rs1_b27_str
00001658 l       .text.rvtest	00000000 I_blt_cg_cp_rs1_b28
0000d049 l       .data	00000000 I_blt_cg_cp_rs1_b28_str
00001690 l       .text.rvtest	00000000 I_blt_cg_cp_rs1_b29
0000d078 l       .data	00000000 I_blt_cg_cp_rs1_b29_str
000016c8 l       .text.rvtest	00000000 I_blt_cg_cp_rs1_b30
0000d0a7 l       .data	00000000 I_blt_cg_cp_rs1_b30_str
00001700 l       .text.rvtest	00000000 I_blt_cg_cp_rs1_b31
0000d0d6 l       .data	00000000 I_blt_cg_cp_rs1_b31_str
00001738 l       .text.rvtest	00000000 I_blt_cg_cp_rs2_b0
0000d105 l       .data	00000000 I_blt_cg_cp_rs2_b0_str
00001770 l       .text.rvtest	00000000 I_blt_cg_cp_rs2_b1
0000d133 l       .data	00000000 I_blt_cg_cp_rs2_b1_str
000017ac l       .text.rvtest	00000000 I_blt_cg_cp_rs2_b2
0000d161 l       .data	00000000 I_blt_cg_cp_rs2_b2_str
000017e4 l       .text.rvtest	00000000 I_blt_cg_cp_rs2_b3
0000d18f l       .data	00000000 I_blt_cg_cp_rs2_b3_str
00001824 l       .text.rvtest	00000000 I_blt_cg_cp_rs2_b4
0000d1bd l       .data	00000000 I_blt_cg_cp_rs2_b4_str
0000185c l       .text.rvtest	00000000 I_blt_cg_cp_rs2_b5
0000d1eb l       .data	00000000 I_blt_cg_cp_rs2_b5_str
00001894 l       .text.rvtest	00000000 I_blt_cg_cp_rs2_b6
0000d219 l       .data	00000000 I_blt_cg_cp_rs2_b6_str
000018cc l       .text.rvtest	00000000 I_blt_cg_cp_rs2_b7
0000d247 l       .data	00000000 I_blt_cg_cp_rs2_b7_str
00001904 l       .text.rvtest	00000000 I_blt_cg_cp_rs2_b8
0000d275 l       .data	00000000 I_blt_cg_cp_rs2_b8_str
0000193c l       .text.rvtest	00000000 I_blt_cg_cp_rs2_b9
0000d2a3 l       .data	00000000 I_blt_cg_cp_rs2_b9_str
00001974 l       .text.rvtest	00000000 I_blt_cg_cp_rs2_b10
0000d2d1 l       .data	00000000 I_blt_cg_cp_rs2_b10_str
000019ac l       .text.rvtest	00000000 I_blt_cg_cp_rs2_b11
0000d300 l       .data	00000000 I_blt_cg_cp_rs2_b11_str
000019e8 l       .text.rvtest	00000000 I_blt_cg_cp_rs2_b12
0000d32f l       .data	00000000 I_blt_cg_cp_rs2_b12_str
00001a28 l       .text.rvtest	00000000 I_blt_cg_cp_rs2_b13
0000d35e l       .data	00000000 I_blt_cg_cp_rs2_b13_str
00001a60 l       .text.rvtest	00000000 I_blt_cg_cp_rs2_b14
0000d38d l       .data	00000000 I_blt_cg_cp_rs2_b14_str
00001a98 l       .text.rvtest	00000000 I_blt_cg_cp_rs2_b15
0000d3bc l       .data	00000000 I_blt_cg_cp_rs2_b15_str
00001ad0 l       .text.rvtest	00000000 I_blt_cg_cp_rs2_b16
0000d3eb l       .data	00000000 I_blt_cg_cp_rs2_b16_str
00001b08 l       .text.rvtest	00000000 I_blt_cg_cp_rs2_b17
0000d41a l       .data	00000000 I_blt_cg_cp_rs2_b17_str
00001b40 l       .text.rvtest	00000000 I_blt_cg_cp_rs2_b18
0000d449 l       .data	00000000 I_blt_cg_cp_rs2_b18_str
00001b7c l       .text.rvtest	00000000 I_blt_cg_cp_rs2_b19
0000d478 l       .data	00000000 I_blt_cg_cp_rs2_b19_str
00001bb4 l       .text.rvtest	00000000 I_blt_cg_cp_rs2_b20
0000d4a7 l       .data	00000000 I_blt_cg_cp_rs2_b20_str
00001bec l       .text.rvtest	00000000 I_blt_cg_cp_rs2_b21
0000d4d6 l       .data	00000000 I_blt_cg_cp_rs2_b21_str
00001c24 l       .text.rvtest	00000000 I_blt_cg_cp_rs2_b22
0000d505 l       .data	00000000 I_blt_cg_cp_rs2_b22_str
00001c5c l       .text.rvtest	00000000 I_blt_cg_cp_rs2_b23
0000d534 l       .data	00000000 I_blt_cg_cp_rs2_b23_str
00001c94 l       .text.rvtest	00000000 I_blt_cg_cp_rs2_b24
0000d563 l       .data	00000000 I_blt_cg_cp_rs2_b24_str
00001ccc l       .text.rvtest	00000000 I_blt_cg_cp_rs2_b25
0000d592 l       .data	00000000 I_blt_cg_cp_rs2_b25_str
00001d04 l       .text.rvtest	00000000 I_blt_cg_cp_rs2_b26
0000d5c1 l       .data	00000000 I_blt_cg_cp_rs2_b26_str
00001d3c l       .text.rvtest	00000000 I_blt_cg_cp_rs2_b27
0000d5f0 l       .data	00000000 I_blt_cg_cp_rs2_b27_str
00001d74 l       .text.rvtest	00000000 I_blt_cg_cp_rs2_b28
0000d61f l       .data	00000000 I_blt_cg_cp_rs2_b28_str
00001dac l       .text.rvtest	00000000 I_blt_cg_cp_rs2_b29
0000d64e l       .data	00000000 I_blt_cg_cp_rs2_b29_str
00001de8 l       .text.rvtest	00000000 I_blt_cg_cp_rs2_b30
0000d67d l       .data	00000000 I_blt_cg_cp_rs2_b30_str
00001e20 l       .text.rvtest	00000000 I_blt_cg_cp_rs2_b31
0000d6ac l       .data	00000000 I_blt_cg_cp_rs2_b31_str
00001e58 l       .text.rvtest	00000000 I_blt_cg_cp_rs1_edges_0x0
0000d6db l       .data	00000000 I_blt_cg_cp_rs1_edges_0x0_str
00001e90 l       .text.rvtest	00000000 I_blt_cg_cp_rs1_edges_0x1
0000d710 l       .data	00000000 I_blt_cg_cp_rs1_edges_0x1_str
00001ec8 l       .text.rvtest	00000000 I_blt_cg_cp_rs1_edges_0x2
0000d745 l       .data	00000000 I_blt_cg_cp_rs1_edges_0x2_str
00001f00 l       .text.rvtest	00000000 I_blt_cg_cp_rs1_edges_0x80000000
0000d77a l       .data	00000000 I_blt_cg_cp_rs1_edges_0x80000000_str
00001f38 l       .text.rvtest	00000000 I_blt_cg_cp_rs1_edges_0x80000001
0000d7b6 l       .data	00000000 I_blt_cg_cp_rs1_edges_0x80000001_str
00001f70 l       .text.rvtest	00000000 I_blt_cg_cp_rs1_edges_0x7fffffff
0000d7f2 l       .data	00000000 I_blt_cg_cp_rs1_edges_0x7fffffff_str
00001fa8 l       .text.rvtest	00000000 I_blt_cg_cp_rs1_edges_0x7ffffffe
0000d82e l       .data	00000000 I_blt_cg_cp_rs1_edges_0x7ffffffe_str
00001fe0 l       .text.rvtest	00000000 I_blt_cg_cp_rs1_edges_0xffffffff
0000d86a l       .data	00000000 I_blt_cg_cp_rs1_edges_0xffffffff_str
00002018 l       .text.rvtest	00000000 I_blt_cg_cp_rs1_edges_0xfffffffe
0000d8a6 l       .data	00000000 I_blt_cg_cp_rs1_edges_0xfffffffe_str
00002050 l       .text.rvtest	00000000 I_blt_cg_cp_rs1_edges_0x5bbc8872
0000d8e2 l       .data	00000000 I_blt_cg_cp_rs1_edges_0x5bbc8872_str
00002088 l       .text.rvtest	00000000 I_blt_cg_cp_rs1_edges_0xaaaaaaaa
0000d91e l       .data	00000000 I_blt_cg_cp_rs1_edges_0xaaaaaaaa_str
000020c0 l       .text.rvtest	00000000 I_blt_cg_cp_rs1_edges_0x55555555
0000d95a l       .data	00000000 I_blt_cg_cp_rs1_edges_0x55555555_str
000020f8 l       .text.rvtest	00000000 I_blt_cg_cp_rs2_edges_0x0
0000d996 l       .data	00000000 I_blt_cg_cp_rs2_edges_0x0_str
00002130 l       .text.rvtest	00000000 I_blt_cg_cp_rs2_edges_0x1
0000d9cb l       .data	00000000 I_blt_cg_cp_rs2_edges_0x1_str
00002168 l       .text.rvtest	00000000 I_blt_cg_cp_rs2_edges_0x2
0000da00 l       .data	00000000 I_blt_cg_cp_rs2_edges_0x2_str
000021a0 l       .text.rvtest	00000000 I_blt_cg_cp_rs2_edges_0x80000000
0000da35 l       .data	00000000 I_blt_cg_cp_rs2_edges_0x80000000_str
000021d8 l       .text.rvtest	00000000 I_blt_cg_cp_rs2_edges_0x80000001
0000da71 l       .data	00000000 I_blt_cg_cp_rs2_edges_0x80000001_str
00002210 l       .text.rvtest	00000000 I_blt_cg_cp_rs2_edges_0x7fffffff
0000daad l       .data	00000000 I_blt_cg_cp_rs2_edges_0x7fffffff_str
00002248 l       .text.rvtest	00000000 I_blt_cg_cp_rs2_edges_0x7ffffffe
0000dae9 l       .data	00000000 I_blt_cg_cp_rs2_edges_0x7ffffffe_str
00002280 l       .text.rvtest	00000000 I_blt_cg_cp_rs2_edges_0xffffffff
0000db25 l       .data	00000000 I_blt_cg_cp_rs2_edges_0xffffffff_str
000022b8 l       .text.rvtest	00000000 I_blt_cg_cp_rs2_edges_0xfffffffe
0000db61 l       .data	00000000 I_blt_cg_cp_rs2_edges_0xfffffffe_str
000022f0 l       .text.rvtest	00000000 I_blt_cg_cp_rs2_edges_0x5bbc8872
0000db9d l       .data	00000000 I_blt_cg_cp_rs2_edges_0x5bbc8872_str
00002328 l       .text.rvtest	00000000 I_blt_cg_cp_rs2_edges_0xaaaaaaaa
0000dbd9 l       .data	00000000 I_blt_cg_cp_rs2_edges_0xaaaaaaaa_str
00002360 l       .text.rvtest	00000000 I_blt_cg_cp_rs2_edges_0x55555555
0000dc15 l       .data	00000000 I_blt_cg_cp_rs2_edges_0x55555555_str
00002390 l       .text.rvtest	00000000 I_blt_cg_cr_rs1_rs2_edges_offset_rs1val_0x0_rs2val_0x0
0000dc51 l       .data	00000000 I_blt_cg_cr_rs1_rs2_edges_offset_rs1val_0x0_rs2val_0x0_str
000023e8 l       .text.rvtest	00000000 I_blt_cg_cr_rs1_rs2_edges_offset_rs1val_0x0_rs2val_0x1
0000dca4 l       .data	00000000 I_blt_cg_cr_rs1_rs2_edges_offset_rs1val_0x0_rs2val_0x1_str
00002440 l       .text.rvtest	00000000 I_blt_cg_cr_rs1_rs2_edges_offset_rs1val_0x0_rs2val_0x2
0000dcf7 l       .data	00000000 I_blt_cg_cr_rs1_rs2_edges_offset_rs1val_0x0_rs2val_0x2_str
00002498 l       .text.rvtest	00000000 I_blt_cg_cr_rs1_rs2_edges_offset_rs1val_0x0_rs2val_0x80000000
0000dd4a l       .data	00000000 I_blt_cg_cr_rs1_rs2_edges_offset_rs1val_0x0_rs2val_0x80000000_str
000024f0 l       .text.rvtest	00000000 I_blt_cg_cr_rs1_rs2_edges_offset_rs1val_0x0_rs2val_0x80000001
0000dda4 l       .data	00000000 I_blt_cg_cr_rs1_rs2_edges_offset_rs1val_0x0_rs2val_0x80000001_str
00002548 l       .text.rvtest	00000000 I_blt_cg_cr_rs1_rs2_edges_offset_rs1val_0x0_rs2val_0x7fffffff
0000ddfe l       .data	00000000 I_blt_cg_cr_rs1_rs2_edges_offset_rs1val_0x0_rs2val_0x7fffffff_str
000025a0 l       .text.rvtest	00000000 I_blt_cg_cr_rs1_rs2_edges_offset_rs1val_0x0_rs2val_0x7ffffffe
0000de58 l       .data	00000000 I_blt_cg_cr_rs1_rs2_edges_offset_rs1val_0x0_rs2val_0x7ffffffe_str
000025f8 l       .text.rvtest	00000000 I_blt_cg_cr_rs1_rs2_edges_offset_rs1val_0x0_rs2val_0xffffffff
0000deb2 l       .data	00000000 I_blt_cg_cr_rs1_rs2_edges_offset_rs1val_0x0_rs2val_0xffffffff_str
00002650 l       .text.rvtest	00000000 I_blt_cg_cr_rs1_rs2_edges_offset_rs1val_0x0_rs2val_0xfffffffe
0000df0c l       .data	00000000 I_blt_cg_cr_rs1_rs2_edges_offset_rs1val_0x0_rs2val_0xfffffffe_str
000026a8 l       .text.rvtest	00000000 I_blt_cg_cr_rs1_rs2_edges_offset_rs1val_0x0_rs2val_0x5bbc8872
0000df66 l       .data	00000000 I_blt_cg_cr_rs1_rs2_edges_offset_rs1val_0x0_rs2val_0x5bbc8872_str
00002700 l       .text.rvtest	00000000 I_blt_cg_cr_rs1_rs2_edges_offset_rs1val_0x0_rs2val_0xaaaaaaaa
0000dfc0 l       .data	00000000 I_blt_cg_cr_rs1_rs2_edges_offset_rs1val_0x0_rs2val_0xaaaaaaaa_str
00002758 l       .text.rvtest	00000000 I_blt_cg_cr_rs1_rs2_edges_offset_rs1val_0x0_rs2val_0x55555555
0000e01a l       .data	00000000 I_blt_cg_cr_rs1_rs2_edges_offset_rs1val_0x0_rs2val_0x55555555_str
000027b0 l       .text.rvtest	00000000 I_blt_cg_cr_rs1_rs2_edges_offset_rs1val_0x1_rs2val_0x0
0000e075 l       .data	00000000 I_blt_cg_cr_rs1_rs2_edges_offset_rs1val_0x1_rs2val_0x0_str
00002808 l       .text.rvtest	00000000 I_blt_cg_cr_rs1_rs2_edges_offset_rs1val_0x1_rs2val_0x1
0000e0c9 l       .data	00000000 I_blt_cg_cr_rs1_rs2_edges_offset_rs1val_0x1_rs2val_0x1_str
00002860 l       .text.rvtest	00000000 I_blt_cg_cr_rs1_rs2_edges_offset_rs1val_0x1_rs2val_0x2
0000e11d l       .data	00000000 I_blt_cg_cr_rs1_rs2_edges_offset_rs1val_0x1_rs2val_0x2_str
000028b8 l       .text.rvtest	00000000 I_blt_cg_cr_rs1_rs2_edges_offset_rs1val_0x1_rs2val_0x80000000
0000e171 l       .data	00000000 I_blt_cg_cr_rs1_rs2_edges_offset_rs1val_0x1_rs2val_0x80000000_str
00002910 l       .text.rvtest	00000000 I_blt_cg_cr_rs1_rs2_edges_offset_rs1val_0x1_rs2val_0x80000001
0000e1cc l       .data	00000000 I_blt_cg_cr_rs1_rs2_edges_offset_rs1val_0x1_rs2val_0x80000001_str
00002968 l       .text.rvtest	00000000 I_blt_cg_cr_rs1_rs2_edges_offset_rs1val_0x1_rs2val_0x7fffffff
0000e227 l       .data	00000000 I_blt_cg_cr_rs1_rs2_edges_offset_rs1val_0x1_rs2val_0x7fffffff_str
000029c0 l       .text.rvtest	00000000 I_blt_cg_cr_rs1_rs2_edges_offset_rs1val_0x1_rs2val_0x7ffffffe
0000e282 l       .data	00000000 I_blt_cg_cr_rs1_rs2_edges_offset_rs1val_0x1_rs2val_0x7ffffffe_str
00002a18 l       .text.rvtest	00000000 I_blt_cg_cr_rs1_rs2_edges_offset_rs1val_0x1_rs2val_0xffffffff
0000e2dd l       .data	00000000 I_blt_cg_cr_rs1_rs2_edges_offset_rs1val_0x1_rs2val_0xffffffff_str
00002a70 l       .text.rvtest	00000000 I_blt_cg_cr_rs1_rs2_edges_offset_rs1val_0x1_rs2val_0xfffffffe
0000e338 l       .data	00000000 I_blt_cg_cr_rs1_rs2_edges_offset_rs1val_0x1_rs2val_0xfffffffe_str
00002ac8 l       .text.rvtest	00000000 I_blt_cg_cr_rs1_rs2_edges_offset_rs1val_0x1_rs2val_0x5bbc8872
0000e393 l       .data	00000000 I_blt_cg_cr_rs1_rs2_edges_offset_rs1val_0x1_rs2val_0x5bbc8872_str
00002b20 l       .text.rvtest	00000000 I_blt_cg_cr_rs1_rs2_edges_offset_rs1val_0x1_rs2val_0xaaaaaaaa
0000e3ee l       .data	00000000 I_blt_cg_cr_rs1_rs2_edges_offset_rs1val_0x1_rs2val_0xaaaaaaaa_str
00002b78 l       .text.rvtest	00000000 I_blt_cg_cr_rs1_rs2_edges_offset_rs1val_0x1_rs2val_0x55555555
0000e449 l       .data	00000000 I_blt_cg_cr_rs1_rs2_edges_offset_rs1val_0x1_rs2val_0x55555555_str
00002bd0 l       .text.rvtest	00000000 I_blt_cg_cr_rs1_rs2_edges_offset_rs1val_0x2_rs2val_0x0
0000e4a4 l       .data	00000000 I_blt_cg_cr_rs1_rs2_edges_offset_rs1val_0x2_rs2val_0x0_str
00002c28 l       .text.rvtest	00000000 I_blt_cg_cr_rs1_rs2_edges_offset_rs1val_0x2_rs2val_0x1
0000e4f8 l       .data	00000000 I_blt_cg_cr_rs1_rs2_edges_offset_rs1val_0x2_rs2val_0x1_str
00002c80 l       .text.rvtest	00000000 I_blt_cg_cr_rs1_rs2_edges_offset_rs1val_0x2_rs2val_0x2
0000e54c l       .data	00000000 I_blt_cg_cr_rs1_rs2_edges_offset_rs1val_0x2_rs2val_0x2_str
00002cd8 l       .text.rvtest	00000000 I_blt_cg_cr_rs1_rs2_edges_offset_rs1val_0x2_rs2val_0x80000000
0000e5a0 l       .data	00000000 I_blt_cg_cr_rs1_rs2_edges_offset_rs1val_0x2_rs2val_0x80000000_str
00002d30 l       .text.rvtest	00000000 I_blt_cg_cr_rs1_rs2_edges_offset_rs1val_0x2_rs2val_0x80000001
0000e5fb l       .data	00000000 I_blt_cg_cr_rs1_rs2_edges_offset_rs1val_0x2_rs2val_0x80000001_str
00002d88 l       .text.rvtest	00000000 I_blt_cg_cr_rs1_rs2_edges_offset_rs1val_0x2_rs2val_0x7fffffff
0000e656 l       .data	00000000 I_blt_cg_cr_rs1_rs2_edges_offset_rs1val_0x2_rs2val_0x7fffffff_str
00002de0 l       .text.rvtest	00000000 I_blt_cg_cr_rs1_rs2_edges_offset_rs1val_0x2_rs2val_0x7ffffffe
0000e6b1 l       .data	00000000 I_blt_cg_cr_rs1_rs2_edges_offset_rs1val_0x2_rs2val_0x7ffffffe_str
00002e38 l       .text.rvtest	00000000 I_blt_cg_cr_rs1_rs2_edges_offset_rs1val_0x2_rs2val_0xffffffff
0000e70c l       .data	00000000 I_blt_cg_cr_rs1_rs2_edges_offset_rs1val_0x2_rs2val_0xffffffff_str
00002e90 l       .text.rvtest	00000000 I_blt_cg_cr_rs1_rs2_edges_offset_rs1val_0x2_rs2val_0xfffffffe
0000e767 l       .data	00000000 I_blt_cg_cr_rs1_rs2_edges_offset_rs1val_0x2_rs2val_0xfffffffe_str
00002ee8 l       .text.rvtest	00000000 I_blt_cg_cr_rs1_rs2_edges_offset_rs1val_0x2_rs2val_0x5bbc8872
0000e7c2 l       .data	00000000 I_blt_cg_cr_rs1_rs2_edges_offset_rs1val_0x2_rs2val_0x5bbc8872_str
00002f40 l       .text.rvtest	00000000 I_blt_cg_cr_rs1_rs2_edges_offset_rs1val_0x2_rs2val_0xaaaaaaaa
0000e81d l       .data	00000000 I_blt_cg_cr_rs1_rs2_edges_offset_rs1val_0x2_rs2val_0xaaaaaaaa_str
00002f98 l       .text.rvtest	00000000 I_blt_cg_cr_rs1_rs2_edges_offset_rs1val_0x2_rs2val_0x55555555
0000e878 l       .data	00000000 I_blt_cg_cr_rs1_rs2_edges_offset_rs1val_0x2_rs2val_0x55555555_str
00002ff0 l       .text.rvtest	00000000 I_blt_cg_cr_rs1_rs2_edges_offset_rs1val_0x80000000_rs2val_0x0
0000e8d3 l       .data	00000000 I_blt_cg_cr_rs1_rs2_edges_offset_rs1val_0x80000000_rs2val_0x0_str
00003048 l       .text.rvtest	00000000 I_blt_cg_cr_rs1_rs2_edges_offset_rs1val_0x80000000_rs2val_0x1
0000e92e l       .data	00000000 I_blt_cg_cr_rs1_rs2_edges_offset_rs1val_0x80000000_rs2val_0x1_str
000030a0 l       .text.rvtest	00000000 I_blt_cg_cr_rs1_rs2_edges_offset_rs1val_0x80000000_rs2val_0x2
0000e989 l       .data	00000000 I_blt_cg_cr_rs1_rs2_edges_offset_rs1val_0x80000000_rs2val_0x2_str
000030f8 l       .text.rvtest	00000000 I_blt_cg_cr_rs1_rs2_edges_offset_rs1val_0x80000000_rs2val_0x80000000
0000e9e4 l       .data	00000000 I_blt_cg_cr_rs1_rs2_edges_offset_rs1val_0x80000000_rs2val_0x80000000_str
00003150 l       .text.rvtest	00000000 I_blt_cg_cr_rs1_rs2_edges_offset_rs1val_0x80000000_rs2val_0x80000001
0000ea46 l       .data	00000000 I_blt_cg_cr_rs1_rs2_edges_offset_rs1val_0x80000000_rs2val_0x80000001_str
000031a8 l       .text.rvtest	00000000 I_blt_cg_cr_rs1_rs2_edges_offset_rs1val_0x80000000_rs2val_0x7fffffff
0000eaa8 l       .data	00000000 I_blt_cg_cr_rs1_rs2_edges_offset_rs1val_0x80000000_rs2val_0x7fffffff_str
00003200 l       .text.rvtest	00000000 I_blt_cg_cr_rs1_rs2_edges_offset_rs1val_0x80000000_rs2val_0x7ffffffe
0000eb0a l       .data	00000000 I_blt_cg_cr_rs1_rs2_edges_offset_rs1val_0x80000000_rs2val_0x7ffffffe_str
00003258 l       .text.rvtest	00000000 I_blt_cg_cr_rs1_rs2_edges_offset_rs1val_0x80000000_rs2val_0xffffffff
0000eb6c l       .data	00000000 I_blt_cg_cr_rs1_rs2_edges_offset_rs1val_0x80000000_rs2val_0xffffffff_str
000032b0 l       .text.rvtest	00000000 I_blt_cg_cr_rs1_rs2_edges_offset_rs1val_0x80000000_rs2val_0xfffffffe
0000ebce l       .data	00000000 I_blt_cg_cr_rs1_rs2_edges_offset_rs1val_0x80000000_rs2val_0xfffffffe_str
00003308 l       .text.rvtest	00000000 I_blt_cg_cr_rs1_rs2_edges_offset_rs1val_0x80000000_rs2val_0x5bbc8872
0000ec30 l       .data	00000000 I_blt_cg_cr_rs1_rs2_edges_offset_rs1val_0x80000000_rs2val_0x5bbc8872_str
00003360 l       .text.rvtest	00000000 I_blt_cg_cr_rs1_rs2_edges_offset_rs1val_0x80000000_rs2val_0xaaaaaaaa
0000ec92 l       .data	00000000 I_blt_cg_cr_rs1_rs2_edges_offset_rs1val_0x80000000_rs2val_0xaaaaaaaa_str
000033b8 l       .text.rvtest	00000000 I_blt_cg_cr_rs1_rs2_edges_offset_rs1val_0x80000000_rs2val_0x55555555
0000ecf4 l       .data	00000000 I_blt_cg_cr_rs1_rs2_edges_offset_rs1val_0x80000000_rs2val_0x55555555_str
00003410 l       .text.rvtest	00000000 I_blt_cg_cr_rs1_rs2_edges_offset_rs1val_0x80000001_rs2val_0x0
0000ed56 l       .data	00000000 I_blt_cg_cr_rs1_rs2_edges_offset_rs1val_0x80000001_rs2val_0x0_str
00003468 l       .text.rvtest	00000000 I_blt_cg_cr_rs1_rs2_edges_offset_rs1val_0x80000001_rs2val_0x1
0000edb1 l       .data	00000000 I_blt_cg_cr_rs1_rs2_edges_offset_rs1val_0x80000001_rs2val_0x1_str
000034c0 l       .text.rvtest	00000000 I_blt_cg_cr_rs1_rs2_edges_offset_rs1val_0x80000001_rs2val_0x2
0000ee0c l       .data	00000000 I_blt_cg_cr_rs1_rs2_edges_offset_rs1val_0x80000001_rs2val_0x2_str
00003518 l       .text.rvtest	00000000 I_blt_cg_cr_rs1_rs2_edges_offset_rs1val_0x80000001_rs2val_0x80000000
0000ee67 l       .data	00000000 I_blt_cg_cr_rs1_rs2_edges_offset_rs1val_0x80000001_rs2val_0x80000000_str
00003570 l       .text.rvtest	00000000 I_blt_cg_cr_rs1_rs2_edges_offset_rs1val_0x80000001_rs2val_0x80000001
0000eec9 l       .data	00000000 I_blt_cg_cr_rs1_rs2_edges_offset_rs1val_0x80000001_rs2val_0x80000001_str
000035c8 l       .text.rvtest	00000000 I_blt_cg_cr_rs1_rs2_edges_offset_rs1val_0x80000001_rs2val_0x7fffffff
0000ef2b l       .data	00000000 I_blt_cg_cr_rs1_rs2_edges_offset_rs1val_0x80000001_rs2val_0x7fffffff_str
00003620 l       .text.rvtest	00000000 I_blt_cg_cr_rs1_rs2_edges_offset_rs1val_0x80000001_rs2val_0x7ffffffe
0000ef8d l       .data	00000000 I_blt_cg_cr_rs1_rs2_edges_offset_rs1val_0x80000001_rs2val_0x7ffffffe_str
00003678 l       .text.rvtest	00000000 I_blt_cg_cr_rs1_rs2_edges_offset_rs1val_0x80000001_rs2val_0xffffffff
0000efef l       .data	00000000 I_blt_cg_cr_rs1_rs2_edges_offset_rs1val_0x80000001_rs2val_0xffffffff_str
000036d0 l       .text.rvtest	00000000 I_blt_cg_cr_rs1_rs2_edges_offset_rs1val_0x80000001_rs2val_0xfffffffe
0000f051 l       .data	00000000 I_blt_cg_cr_rs1_rs2_edges_offset_rs1val_0x80000001_rs2val_0xfffffffe_str
00003728 l       .text.rvtest	00000000 I_blt_cg_cr_rs1_rs2_edges_offset_rs1val_0x80000001_rs2val_0x5bbc8872
0000f0b3 l       .data	00000000 I_blt_cg_cr_rs1_rs2_edges_offset_rs1val_0x80000001_rs2val_0x5bbc8872_str
00003780 l       .text.rvtest	00000000 I_blt_cg_cr_rs1_rs2_edges_offset_rs1val_0x80000001_rs2val_0xaaaaaaaa
0000f115 l       .data	00000000 I_blt_cg_cr_rs1_rs2_edges_offset_rs1val_0x80000001_rs2val_0xaaaaaaaa_str
000037d8 l       .text.rvtest	00000000 I_blt_cg_cr_rs1_rs2_edges_offset_rs1val_0x80000001_rs2val_0x55555555
0000f177 l       .data	00000000 I_blt_cg_cr_rs1_rs2_edges_offset_rs1val_0x80000001_rs2val_0x55555555_str
00003830 l       .text.rvtest	00000000 I_blt_cg_cr_rs1_rs2_edges_offset_rs1val_0x7fffffff_rs2val_0x0
0000f1d9 l       .data	00000000 I_blt_cg_cr_rs1_rs2_edges_offset_rs1val_0x7fffffff_rs2val_0x0_str
00003888 l       .text.rvtest	00000000 I_blt_cg_cr_rs1_rs2_edges_offset_rs1val_0x7fffffff_rs2val_0x1
0000f234 l       .data	00000000 I_blt_cg_cr_rs1_rs2_edges_offset_rs1val_0x7fffffff_rs2val_0x1_str
000038e0 l       .text.rvtest	00000000 I_blt_cg_cr_rs1_rs2_edges_offset_rs1val_0x7fffffff_rs2val_0x2
0000f28f l       .data	00000000 I_blt_cg_cr_rs1_rs2_edges_offset_rs1val_0x7fffffff_rs2val_0x2_str
00003938 l       .text.rvtest	00000000 I_blt_cg_cr_rs1_rs2_edges_offset_rs1val_0x7fffffff_rs2val_0x80000000
0000f2ea l       .data	00000000 I_blt_cg_cr_rs1_rs2_edges_offset_rs1val_0x7fffffff_rs2val_0x80000000_str
00003990 l       .text.rvtest	00000000 I_blt_cg_cr_rs1_rs2_edges_offset_rs1val_0x7fffffff_rs2val_0x80000001
0000f34c l       .data	00000000 I_blt_cg_cr_rs1_rs2_edges_offset_rs1val_0x7fffffff_rs2val_0x80000001_str
000039e8 l       .text.rvtest	00000000 I_blt_cg_cr_rs1_rs2_edges_offset_rs1val_0x7fffffff_rs2val_0x7fffffff
0000f3ae l       .data	00000000 I_blt_cg_cr_rs1_rs2_edges_offset_rs1val_0x7fffffff_rs2val_0x7fffffff_str
00003a40 l       .text.rvtest	00000000 I_blt_cg_cr_rs1_rs2_edges_offset_rs1val_0x7fffffff_rs2val_0x7ffffffe
0000f410 l       .data	00000000 I_blt_cg_cr_rs1_rs2_edges_offset_rs1val_0x7fffffff_rs2val_0x7ffffffe_str
00003a98 l       .text.rvtest	00000000 I_blt_cg_cr_rs1_rs2_edges_offset_rs1val_0x7fffffff_rs2val_0xffffffff
0000f472 l       .data	00000000 I_blt_cg_cr_rs1_rs2_edges_offset_rs1val_0x7fffffff_rs2val_0xffffffff_str
00003af0 l       .text.rvtest	00000000 I_blt_cg_cr_rs1_rs2_edges_offset_rs1val_0x7fffffff_rs2val_0xfffffffe
0000f4d4 l       .data	00000000 I_blt_cg_cr_rs1_rs2_edges_offset_rs1val_0x7fffffff_rs2val_0xfffffffe_str
00003b48 l       .text.rvtest	00000000 I_blt_cg_cr_rs1_rs2_edges_offset_rs1val_0x7fffffff_rs2val_0x5bbc8872
0000f536 l       .data	00000000 I_blt_cg_cr_rs1_rs2_edges_offset_rs1val_0x7fffffff_rs2val_0x5bbc8872_str
00003ba0 l       .text.rvtest	00000000 I_blt_cg_cr_rs1_rs2_edges_offset_rs1val_0x7fffffff_rs2val_0xaaaaaaaa
0000f598 l       .data	00000000 I_blt_cg_cr_rs1_rs2_edges_offset_rs1val_0x7fffffff_rs2val_0xaaaaaaaa_str
00003bf8 l       .text.rvtest	00000000 I_blt_cg_cr_rs1_rs2_edges_offset_rs1val_0x7fffffff_rs2val_0x55555555
0000f5fa l       .data	00000000 I_blt_cg_cr_rs1_rs2_edges_offset_rs1val_0x7fffffff_rs2val_0x55555555_str
00003c50 l       .text.rvtest	00000000 I_blt_cg_cr_rs1_rs2_edges_offset_rs1val_0x7ffffffe_rs2val_0x0
0000f65c l       .data	00000000 I_blt_cg_cr_rs1_rs2_edges_offset_rs1val_0x7ffffffe_rs2val_0x0_str
00003ca8 l       .text.rvtest	00000000 I_blt_cg_cr_rs1_rs2_edges_offset_rs1val_0x7ffffffe_rs2val_0x1
0000f6b7 l       .data	00000000 I_blt_cg_cr_rs1_rs2_edges_offset_rs1val_0x7ffffffe_rs2val_0x1_str
00003d00 l       .text.rvtest	00000000 I_blt_cg_cr_rs1_rs2_edges_offset_rs1val_0x7ffffffe_rs2val_0x2
0000f712 l       .data	00000000 I_blt_cg_cr_rs1_rs2_edges_offset_rs1val_0x7ffffffe_rs2val_0x2_str
00003d58 l       .text.rvtest	00000000 I_blt_cg_cr_rs1_rs2_edges_offset_rs1val_0x7ffffffe_rs2val_0x80000000
0000f76d l       .data	00000000 I_blt_cg_cr_rs1_rs2_edges_offset_rs1val_0x7ffffffe_rs2val_0x80000000_str
00003db0 l       .text.rvtest	00000000 I_blt_cg_cr_rs1_rs2_edges_offset_rs1val_0x7ffffffe_rs2val_0x80000001
0000f7cf l       .data	00000000 I_blt_cg_cr_rs1_rs2_edges_offset_rs1val_0x7ffffffe_rs2val_0x80000001_str
00003e08 l       .text.rvtest	00000000 I_blt_cg_cr_rs1_rs2_edges_offset_rs1val_0x7ffffffe_rs2val_0x7fffffff
0000f831 l       .data	00000000 I_blt_cg_cr_rs1_rs2_edges_offset_rs1val_0x7ffffffe_rs2val_0x7fffffff_str
00003e60 l       .text.rvtest	00000000 I_blt_cg_cr_rs1_rs2_edges_offset_rs1val_0x7ffffffe_rs2val_0x7ffffffe
0000f893 l       .data	00000000 I_blt_cg_cr_rs1_rs2_edges_offset_rs1val_0x7ffffffe_rs2val_0x7ffffffe_str
00003eb8 l       .text.rvtest	00000000 I_blt_cg_cr_rs1_rs2_edges_offset_rs1val_0x7ffffffe_rs2val_0xffffffff
0000f8f5 l       .data	00000000 I_blt_cg_cr_rs1_rs2_edges_offset_rs1val_0x7ffffffe_rs2val_0xffffffff_str
00003f10 l       .text.rvtest	00000000 I_blt_cg_cr_rs1_rs2_edges_offset_rs1val_0x7ffffffe_rs2val_0xfffffffe
0000f957 l       .data	00000000 I_blt_cg_cr_rs1_rs2_edges_offset_rs1val_0x7ffffffe_rs2val_0xfffffffe_str
00003f68 l       .text.rvtest	00000000 I_blt_cg_cr_rs1_rs2_edges_offset_rs1val_0x7ffffffe_rs2val_0x5bbc8872
0000f9b9 l       .data	00000000 I_blt_cg_cr_rs1_rs2_edges_offset_rs1val_0x7ffffffe_rs2val_0x5bbc8872_str
00003fc0 l       .text.rvtest	00000000 I_blt_cg_cr_rs1_rs2_edges_offset_rs1val_0x7ffffffe_rs2val_0xaaaaaaaa
0000fa1b l       .data	00000000 I_blt_cg_cr_rs1_rs2_edges_offset_rs1val_0x7ffffffe_rs2val_0xaaaaaaaa_str
00004018 l       .text.rvtest	00000000 I_blt_cg_cr_rs1_rs2_edges_offset_rs1val_0x7ffffffe_rs2val_0x55555555
0000fa7d l       .data	00000000 I_blt_cg_cr_rs1_rs2_edges_offset_rs1val_0x7ffffffe_rs2val_0x55555555_str
00004070 l       .text.rvtest	00000000 I_blt_cg_cr_rs1_rs2_edges_offset_rs1val_0xffffffff_rs2val_0x0
0000fadf l       .data	00000000 I_blt_cg_cr_rs1_rs2_edges_offset_rs1val_0xffffffff_rs2val_0x0_str
000040c8 l       .text.rvtest	00000000 I_blt_cg_cr_rs1_rs2_edges_offset_rs1val_0xffffffff_rs2val_0x1
0000fb3a l       .data	00000000 I_blt_cg_cr_rs1_rs2_edges_offset_rs1val_0xffffffff_rs2val_0x1_str
00004120 l       .text.rvtest	00000000 I_blt_cg_cr_rs1_rs2_edges_offset_rs1val_0xffffffff_rs2val_0x2
0000fb95 l       .data	00000000 I_blt_cg_cr_rs1_rs2_edges_offset_rs1val_0xffffffff_rs2val_0x2_str
00004178 l       .text.rvtest	00000000 I_blt_cg_cr_rs1_rs2_edges_offset_rs1val_0xffffffff_rs2val_0x80000000
0000fbf0 l       .data	00000000 I_blt_cg_cr_rs1_rs2_edges_offset_rs1val_0xffffffff_rs2val_0x80000000_str
000041d0 l       .text.rvtest	00000000 I_blt_cg_cr_rs1_rs2_edges_offset_rs1val_0xffffffff_rs2val_0x80000001
0000fc52 l       .data	00000000 I_blt_cg_cr_rs1_rs2_edges_offset_rs1val_0xffffffff_rs2val_0x80000001_str
00004228 l       .text.rvtest	00000000 I_blt_cg_cr_rs1_rs2_edges_offset_rs1val_0xffffffff_rs2val_0x7fffffff
0000fcb4 l       .data	00000000 I_blt_cg_cr_rs1_rs2_edges_offset_rs1val_0xffffffff_rs2val_0x7fffffff_str
00004280 l       .text.rvtest	00000000 I_blt_cg_cr_rs1_rs2_edges_offset_rs1val_0xffffffff_rs2val_0x7ffffffe
0000fd16 l       .data	00000000 I_blt_cg_cr_rs1_rs2_edges_offset_rs1val_0xffffffff_rs2val_0x7ffffffe_str
000042d8 l       .text.rvtest	00000000 I_blt_cg_cr_rs1_rs2_edges_offset_rs1val_0xffffffff_rs2val_0xffffffff
0000fd78 l       .data	00000000 I_blt_cg_cr_rs1_rs2_edges_offset_rs1val_0xffffffff_rs2val_0xffffffff_str
00004330 l       .text.rvtest	00000000 I_blt_cg_cr_rs1_rs2_edges_offset_rs1val_0xffffffff_rs2val_0xfffffffe
0000fdda l       .data	00000000 I_blt_cg_cr_rs1_rs2_edges_offset_rs1val_0xffffffff_rs2val_0xfffffffe_str
00004388 l       .text.rvtest	00000000 I_blt_cg_cr_rs1_rs2_edges_offset_rs1val_0xffffffff_rs2val_0x5bbc8872
0000fe3c l       .data	00000000 I_blt_cg_cr_rs1_rs2_edges_offset_rs1val_0xffffffff_rs2val_0x5bbc8872_str
000043e0 l       .text.rvtest	00000000 I_blt_cg_cr_rs1_rs2_edges_offset_rs1val_0xffffffff_rs2val_0xaaaaaaaa
0000fe9e l       .data	00000000 I_blt_cg_cr_rs1_rs2_edges_offset_rs1val_0xffffffff_rs2val_0xaaaaaaaa_str
00004438 l       .text.rvtest	00000000 I_blt_cg_cr_rs1_rs2_edges_offset_rs1val_0xffffffff_rs2val_0x55555555
0000ff00 l       .data	00000000 I_blt_cg_cr_rs1_rs2_edges_offset_rs1val_0xffffffff_rs2val_0x55555555_str
00004490 l       .text.rvtest	00000000 I_blt_cg_cr_rs1_rs2_edges_offset_rs1val_0xfffffffe_rs2val_0x0
0000ff62 l       .data	00000000 I_blt_cg_cr_rs1_rs2_edges_offset_rs1val_0xfffffffe_rs2val_0x0_str
000044e8 l       .text.rvtest	00000000 I_blt_cg_cr_rs1_rs2_edges_offset_rs1val_0xfffffffe_rs2val_0x1
0000ffbd l       .data	00000000 I_blt_cg_cr_rs1_rs2_edges_offset_rs1val_0xfffffffe_rs2val_0x1_str
00004540 l       .text.rvtest	00000000 I_blt_cg_cr_rs1_rs2_edges_offset_rs1val_0xfffffffe_rs2val_0x2
00010018 l       .data	00000000 I_blt_cg_cr_rs1_rs2_edges_offset_rs1val_0xfffffffe_rs2val_0x2_str
00004598 l       .text.rvtest	00000000 I_blt_cg_cr_rs1_rs2_edges_offset_rs1val_0xfffffffe_rs2val_0x80000000
00010073 l       .data	00000000 I_blt_cg_cr_rs1_rs2_edges_offset_rs1val_0xfffffffe_rs2val_0x80000000_str
000045f0 l       .text.rvtest	00000000 I_blt_cg_cr_rs1_rs2_edges_offset_rs1val_0xfffffffe_rs2val_0x80000001
000100d5 l       .data	00000000 I_blt_cg_cr_rs1_rs2_edges_offset_rs1val_0xfffffffe_rs2val_0x80000001_str
00004648 l       .text.rvtest	00000000 I_blt_cg_cr_rs1_rs2_edges_offset_rs1val_0xfffffffe_rs2val_0x7fffffff
00010137 l       .data	00000000 I_blt_cg_cr_rs1_rs2_edges_offset_rs1val_0xfffffffe_rs2val_0x7fffffff_str
000046a0 l       .text.rvtest	00000000 I_blt_cg_cr_rs1_rs2_edges_offset_rs1val_0xfffffffe_rs2val_0x7ffffffe
00010199 l       .data	00000000 I_blt_cg_cr_rs1_rs2_edges_offset_rs1val_0xfffffffe_rs2val_0x7ffffffe_str
000046f8 l       .text.rvtest	00000000 I_blt_cg_cr_rs1_rs2_edges_offset_rs1val_0xfffffffe_rs2val_0xffffffff
000101fb l       .data	00000000 I_blt_cg_cr_rs1_rs2_edges_offset_rs1val_0xfffffffe_rs2val_0xffffffff_str
00004750 l       .text.rvtest	00000000 I_blt_cg_cr_rs1_rs2_edges_offset_rs1val_0xfffffffe_rs2val_0xfffffffe
0001025d l       .data	00000000 I_blt_cg_cr_rs1_rs2_edges_offset_rs1val_0xfffffffe_rs2val_0xfffffffe_str
000047a8 l       .text.rvtest	00000000 I_blt_cg_cr_rs1_rs2_edges_offset_rs1val_0xfffffffe_rs2val_0x5bbc8872
000102bf l       .data	00000000 I_blt_cg_cr_rs1_rs2_edges_offset_rs1val_0xfffffffe_rs2val_0x5bbc8872_str
00004800 l       .text.rvtest	00000000 I_blt_cg_cr_rs1_rs2_edges_offset_rs1val_0xfffffffe_rs2val_0xaaaaaaaa
00010321 l       .data	00000000 I_blt_cg_cr_rs1_rs2_edges_offset_rs1val_0xfffffffe_rs2val_0xaaaaaaaa_str
00004858 l       .text.rvtest	00000000 I_blt_cg_cr_rs1_rs2_edges_offset_rs1val_0xfffffffe_rs2val_0x55555555
00010383 l       .data	00000000 I_blt_cg_cr_rs1_rs2_edges_offset_rs1val_0xfffffffe_rs2val_0x55555555_str
000048b0 l       .text.rvtest	00000000 I_blt_cg_cr_rs1_rs2_edges_offset_rs1val_0x5bbc8872_rs2val_0x0
000103e5 l       .data	00000000 I_blt_cg_cr_rs1_rs2_edges_offset_rs1val_0x5bbc8872_rs2val_0x0_str
00004908 l       .text.rvtest	00000000 I_blt_cg_cr_rs1_rs2_edges_offset_rs1val_0x5bbc8872_rs2val_0x1
00010440 l       .data	00000000 I_blt_cg_cr_rs1_rs2_edges_offset_rs1val_0x5bbc8872_rs2val_0x1_str
00004960 l       .text.rvtest	00000000 I_blt_cg_cr_rs1_rs2_edges_offset_rs1val_0x5bbc8872_rs2val_0x2
0001049b l       .data	00000000 I_blt_cg_cr_rs1_rs2_edges_offset_rs1val_0x5bbc8872_rs2val_0x2_str
000049b8 l       .text.rvtest	00000000 I_blt_cg_cr_rs1_rs2_edges_offset_rs1val_0x5bbc8872_rs2val_0x80000000
000104f6 l       .data	00000000 I_blt_cg_cr_rs1_rs2_edges_offset_rs1val_0x5bbc8872_rs2val_0x80000000_str
00004a10 l       .text.rvtest	00000000 I_blt_cg_cr_rs1_rs2_edges_offset_rs1val_0x5bbc8872_rs2val_0x80000001
00010558 l       .data	00000000 I_blt_cg_cr_rs1_rs2_edges_offset_rs1val_0x5bbc8872_rs2val_0x80000001_str
00004a68 l       .text.rvtest	00000000 I_blt_cg_cr_rs1_rs2_edges_offset_rs1val_0x5bbc8872_rs2val_0x7fffffff
000105ba l       .data	00000000 I_blt_cg_cr_rs1_rs2_edges_offset_rs1val_0x5bbc8872_rs2val_0x7fffffff_str
00004ac0 l       .text.rvtest	00000000 I_blt_cg_cr_rs1_rs2_edges_offset_rs1val_0x5bbc8872_rs2val_0x7ffffffe
0001061c l       .data	00000000 I_blt_cg_cr_rs1_rs2_edges_offset_rs1val_0x5bbc8872_rs2val_0x7ffffffe_str
00004b18 l       .text.rvtest	00000000 I_blt_cg_cr_rs1_rs2_edges_offset_rs1val_0x5bbc8872_rs2val_0xffffffff
0001067e l       .data	00000000 I_blt_cg_cr_rs1_rs2_edges_offset_rs1val_0x5bbc8872_rs2val_0xffffffff_str
00004b70 l       .text.rvtest	00000000 I_blt_cg_cr_rs1_rs2_edges_offset_rs1val_0x5bbc8872_rs2val_0xfffffffe
000106e0 l       .data	00000000 I_blt_cg_cr_rs1_rs2_edges_offset_rs1val_0x5bbc8872_rs2val_0xfffffffe_str
00004bc8 l       .text.rvtest	00000000 I_blt_cg_cr_rs1_rs2_edges_offset_rs1val_0x5bbc8872_rs2val_0x5bbc8872
00010742 l       .data	00000000 I_blt_cg_cr_rs1_rs2_edges_offset_rs1val_0x5bbc8872_rs2val_0x5bbc8872_str
00004c20 l       .text.rvtest	00000000 I_blt_cg_cr_rs1_rs2_edges_offset_rs1val_0x5bbc8872_rs2val_0xaaaaaaaa
000107a4 l       .data	00000000 I_blt_cg_cr_rs1_rs2_edges_offset_rs1val_0x5bbc8872_rs2val_0xaaaaaaaa_str
00004c78 l       .text.rvtest	00000000 I_blt_cg_cr_rs1_rs2_edges_offset_rs1val_0x5bbc8872_rs2val_0x55555555
00010806 l       .data	00000000 I_blt_cg_cr_rs1_rs2_edges_offset_rs1val_0x5bbc8872_rs2val_0x55555555_str
00004cd0 l       .text.rvtest	00000000 I_blt_cg_cr_rs1_rs2_edges_offset_rs1val_0xaaaaaaaa_rs2val_0x0
00010868 l       .data	00000000 I_blt_cg_cr_rs1_rs2_edges_offset_rs1val_0xaaaaaaaa_rs2val_0x0_str
00004d28 l       .text.rvtest	00000000 I_blt_cg_cr_rs1_rs2_edges_offset_rs1val_0xaaaaaaaa_rs2val_0x1
000108c3 l       .data	00000000 I_blt_cg_cr_rs1_rs2_edges_offset_rs1val_0xaaaaaaaa_rs2val_0x1_str
00004d80 l       .text.rvtest	00000000 I_blt_cg_cr_rs1_rs2_edges_offset_rs1val_0xaaaaaaaa_rs2val_0x2
0001091e l       .data	00000000 I_blt_cg_cr_rs1_rs2_edges_offset_rs1val_0xaaaaaaaa_rs2val_0x2_str
00004dd8 l       .text.rvtest	00000000 I_blt_cg_cr_rs1_rs2_edges_offset_rs1val_0xaaaaaaaa_rs2val_0x80000000
00010979 l       .data	00000000 I_blt_cg_cr_rs1_rs2_edges_offset_rs1val_0xaaaaaaaa_rs2val_0x80000000_str
00004e30 l       .text.rvtest	00000000 I_blt_cg_cr_rs1_rs2_edges_offset_rs1val_0xaaaaaaaa_rs2val_0x80000001
000109db l       .data	00000000 I_blt_cg_cr_rs1_rs2_edges_offset_rs1val_0xaaaaaaaa_rs2val_0x80000001_str
00004e88 l       .text.rvtest	00000000 I_blt_cg_cr_rs1_rs2_edges_offset_rs1val_0xaaaaaaaa_rs2val_0x7fffffff
00010a3d l       .data	00000000 I_blt_cg_cr_rs1_rs2_edges_offset_rs1val_0xaaaaaaaa_rs2val_0x7fffffff_str
00004ee0 l       .text.rvtest	00000000 I_blt_cg_cr_rs1_rs2_edges_offset_rs1val_0xaaaaaaaa_rs2val_0x7ffffffe
00010a9f l       .data	00000000 I_blt_cg_cr_rs1_rs2_edges_offset_rs1val_0xaaaaaaaa_rs2val_0x7ffffffe_str
00004f38 l       .text.rvtest	00000000 I_blt_cg_cr_rs1_rs2_edges_offset_rs1val_0xaaaaaaaa_rs2val_0xffffffff
00010b01 l       .data	00000000 I_blt_cg_cr_rs1_rs2_edges_offset_rs1val_0xaaaaaaaa_rs2val_0xffffffff_str
00004f90 l       .text.rvtest	00000000 I_blt_cg_cr_rs1_rs2_edges_offset_rs1val_0xaaaaaaaa_rs2val_0xfffffffe
00010b63 l       .data	00000000 I_blt_cg_cr_rs1_rs2_edges_offset_rs1val_0xaaaaaaaa_rs2val_0xfffffffe_str
00004fe8 l       .text.rvtest	00000000 I_blt_cg_cr_rs1_rs2_edges_offset_rs1val_0xaaaaaaaa_rs2val_0x5bbc8872
00010bc5 l       .data	00000000 I_blt_cg_cr_rs1_rs2_edges_offset_rs1val_0xaaaaaaaa_rs2val_0x5bbc8872_str
00005040 l       .text.rvtest	00000000 I_blt_cg_cr_rs1_rs2_edges_offset_rs1val_0xaaaaaaaa_rs2val_0xaaaaaaaa
00010c27 l       .data	00000000 I_blt_cg_cr_rs1_rs2_edges_offset_rs1val_0xaaaaaaaa_rs2val_0xaaaaaaaa_str
00005098 l       .text.rvtest	00000000 I_blt_cg_cr_rs1_rs2_edges_offset_rs1val_0xaaaaaaaa_rs2val_0x55555555
00010c89 l       .data	00000000 I_blt_cg_cr_rs1_rs2_edges_offset_rs1val_0xaaaaaaaa_rs2val_0x55555555_str
000050f0 l       .text.rvtest	00000000 I_blt_cg_cr_rs1_rs2_edges_offset_rs1val_0x55555555_rs2val_0x0
00010ceb l       .data	00000000 I_blt_cg_cr_rs1_rs2_edges_offset_rs1val_0x55555555_rs2val_0x0_str
00005148 l       .text.rvtest	00000000 I_blt_cg_cr_rs1_rs2_edges_offset_rs1val_0x55555555_rs2val_0x1
00010d46 l       .data	00000000 I_blt_cg_cr_rs1_rs2_edges_offset_rs1val_0x55555555_rs2val_0x1_str
000051a0 l       .text.rvtest	00000000 I_blt_cg_cr_rs1_rs2_edges_offset_rs1val_0x55555555_rs2val_0x2
00010da1 l       .data	00000000 I_blt_cg_cr_rs1_rs2_edges_offset_rs1val_0x55555555_rs2val_0x2_str
000051f8 l       .text.rvtest	00000000 I_blt_cg_cr_rs1_rs2_edges_offset_rs1val_0x55555555_rs2val_0x80000000
00010dfc l       .data	00000000 I_blt_cg_cr_rs1_rs2_edges_offset_rs1val_0x55555555_rs2val_0x80000000_str
00005250 l       .text.rvtest	00000000 I_blt_cg_cr_rs1_rs2_edges_offset_rs1val_0x55555555_rs2val_0x80000001
00010e5e l       .data	00000000 I_blt_cg_cr_rs1_rs2_edges_offset_rs1val_0x55555555_rs2val_0x80000001_str
000052a8 l       .text.rvtest	00000000 I_blt_cg_cr_rs1_rs2_edges_offset_rs1val_0x55555555_rs2val_0x7fffffff
00010ec0 l       .data	00000000 I_blt_cg_cr_rs1_rs2_edges_offset_rs1val_0x55555555_rs2val_0x7fffffff_str
00005300 l       .text.rvtest	00000000 I_blt_cg_cr_rs1_rs2_edges_offset_rs1val_0x55555555_rs2val_0x7ffffffe
00010f22 l       .data	00000000 I_blt_cg_cr_rs1_rs2_edges_offset_rs1val_0x55555555_rs2val_0x7ffffffe_str
00005358 l       .text.rvtest	00000000 I_blt_cg_cr_rs1_rs2_edges_offset_rs1val_0x55555555_rs2val_0xffffffff
00010f84 l       .data	00000000 I_blt_cg_cr_rs1_rs2_edges_offset_rs1val_0x55555555_rs2val_0xffffffff_str
000053b0 l       .text.rvtest	00000000 I_blt_cg_cr_rs1_rs2_edges_offset_rs1val_0x55555555_rs2val_0xfffffffe
00010fe6 l       .data	00000000 I_blt_cg_cr_rs1_rs2_edges_offset_rs1val_0x55555555_rs2val_0xfffffffe_str
00005408 l       .text.rvtest	00000000 I_blt_cg_cr_rs1_rs2_edges_offset_rs1val_0x55555555_rs2val_0x5bbc8872
00011048 l       .data	00000000 I_blt_cg_cr_rs1_rs2_edges_offset_rs1val_0x55555555_rs2val_0x5bbc8872_str
00005460 l       .text.rvtest	00000000 I_blt_cg_cr_rs1_rs2_edges_offset_rs1val_0x55555555_rs2val_0xaaaaaaaa
000110aa l       .data	00000000 I_blt_cg_cr_rs1_rs2_edges_offset_rs1val_0x55555555_rs2val_0xaaaaaaaa_str
000054b8 l       .text.rvtest	00000000 I_blt_cg_cr_rs1_rs2_edges_offset_rs1val_0x55555555_rs2val_0x55555555
0001110c l       .data	00000000 I_blt_cg_cr_rs1_rs2_edges_offset_rs1val_0x55555555_rs2val_0x55555555_str
00005518 l       .text.rvtest	00000000 I_blt_cg_cmp_rs1_rs2_b0
0001116e l       .data	00000000 I_blt_cg_cmp_rs1_rs2_b0_str
00005550 l       .text.rvtest	00000000 I_blt_cg_cmp_rs1_rs2_b1
000111a2 l       .data	00000000 I_blt_cg_cmp_rs1_rs2_b1_str
00005588 l       .text.rvtest	00000000 I_blt_cg_cmp_rs1_rs2_b2
000111d6 l       .data	00000000 I_blt_cg_cmp_rs1_rs2_b2_str
000055c0 l       .text.rvtest	00000000 I_blt_cg_cmp_rs1_rs2_b3
0001120a l       .data	00000000 I_blt_cg_cmp_rs1_rs2_b3_str
00005600 l       .text.rvtest	00000000 I_blt_cg_cmp_rs1_rs2_b4
0000a094 l       .text.rvtest	00000000 failedtest_x8_x7
0001123e l       .data	00000000 I_blt_cg_cmp_rs1_rs2_b4_str
00005638 l       .text.rvtest	00000000 I_blt_cg_cmp_rs1_rs2_b5
00011272 l       .data	00000000 I_blt_cg_cmp_rs1_rs2_b5_str
00005670 l       .text.rvtest	00000000 I_blt_cg_cmp_rs1_rs2_b6
000112a6 l       .data	00000000 I_blt_cg_cmp_rs1_rs2_b6_str
000056b0 l       .text.rvtest	00000000 I_blt_cg_cmp_rs1_rs2_b7
000112da l       .data	00000000 I_blt_cg_cmp_rs1_rs2_b7_str
000056e8 l       .text.rvtest	00000000 I_blt_cg_cmp_rs1_rs2_b8
0001130e l       .data	00000000 I_blt_cg_cmp_rs1_rs2_b8_str
00005720 l       .text.rvtest	00000000 I_blt_cg_cmp_rs1_rs2_b9
00011342 l       .data	00000000 I_blt_cg_cmp_rs1_rs2_b9_str
00005758 l       .text.rvtest	00000000 I_blt_cg_cmp_rs1_rs2_b10
00011376 l       .data	00000000 I_blt_cg_cmp_rs1_rs2_b10_str
00005790 l       .text.rvtest	00000000 I_blt_cg_cmp_rs1_rs2_b11
000113ab l       .data	00000000 I_blt_cg_cmp_rs1_rs2_b11_str
000057c8 l       .text.rvtest	00000000 I_blt_cg_cmp_rs1_rs2_b12
000113e0 l       .data	00000000 I_blt_cg_cmp_rs1_rs2_b12_str
00005800 l       .text.rvtest	00000000 I_blt_cg_cmp_rs1_rs2_b13
00011415 l       .data	00000000 I_blt_cg_cmp_rs1_rs2_b13_str
00005838 l       .text.rvtest	00000000 I_blt_cg_cmp_rs1_rs2_b14
0001144a l       .data	00000000 I_blt_cg_cmp_rs1_rs2_b14_str
00005870 l       .text.rvtest	00000000 I_blt_cg_cmp_rs1_rs2_b15
0001147f l       .data	00000000 I_blt_cg_cmp_rs1_rs2_b15_str
000058a8 l       .text.rvtest	00000000 I_blt_cg_cmp_rs1_rs2_b16
000114b4 l       .data	00000000 I_blt_cg_cmp_rs1_rs2_b16_str
000058e4 l       .text.rvtest	00000000 I_blt_cg_cmp_rs1_rs2_b17
000114e9 l       .data	00000000 I_blt_cg_cmp_rs1_rs2_b17_str
0000591c l       .text.rvtest	00000000 I_blt_cg_cmp_rs1_rs2_b18
0001151e l       .data	00000000 I_blt_cg_cmp_rs1_rs2_b18_str
00005954 l       .text.rvtest	00000000 I_blt_cg_cmp_rs1_rs2_b19
00011553 l       .data	00000000 I_blt_cg_cmp_rs1_rs2_b19_str
0000598c l       .text.rvtest	00000000 I_blt_cg_cmp_rs1_rs2_b20
00011588 l       .data	00000000 I_blt_cg_cmp_rs1_rs2_b20_str
000059c4 l       .text.rvtest	00000000 I_blt_cg_cmp_rs1_rs2_b21
000115bd l       .data	00000000 I_blt_cg_cmp_rs1_rs2_b21_str
00005a00 l       .text.rvtest	00000000 I_blt_cg_cmp_rs1_rs2_b22
000115f2 l       .data	00000000 I_blt_cg_cmp_rs1_rs2_b22_str
00005a3c l       .text.rvtest	00000000 I_blt_cg_cmp_rs1_rs2_b23
00011627 l       .data	00000000 I_blt_cg_cmp_rs1_rs2_b23_str
00005a74 l       .text.rvtest	00000000 I_blt_cg_cmp_rs1_rs2_b24
0001165c l       .data	00000000 I_blt_cg_cmp_rs1_rs2_b24_str
00005aac l       .text.rvtest	00000000 I_blt_cg_cmp_rs1_rs2_b25
00011691 l       .data	00000000 I_blt_cg_cmp_rs1_rs2_b25_str
00005ae8 l       .text.rvtest	00000000 I_blt_cg_cmp_rs1_rs2_b26
000116c6 l       .data	00000000 I_blt_cg_cmp_rs1_rs2_b26_str
00005b20 l       .text.rvtest	00000000 I_blt_cg_cmp_rs1_rs2_b27
000116fb l       .data	00000000 I_blt_cg_cmp_rs1_rs2_b27_str
00005b58 l       .text.rvtest	00000000 I_blt_cg_cmp_rs1_rs2_b28
00011730 l       .data	00000000 I_blt_cg_cmp_rs1_rs2_b28_str
00005b90 l       .text.rvtest	00000000 I_blt_cg_cmp_rs1_rs2_b29
00011765 l       .data	00000000 I_blt_cg_cmp_rs1_rs2_b29_str
00005bc8 l       .text.rvtest	00000000 I_blt_cg_cmp_rs1_rs2_b30
0001179a l       .data	00000000 I_blt_cg_cmp_rs1_rs2_b30_str
00005c00 l       .text.rvtest	00000000 I_blt_cg_cmp_rs1_rs2_b31
000117cf l       .data	00000000 I_blt_cg_cmp_rs1_rs2_b31_str
00005c3c l       .text.rvtest	00000000 I_blt_cg_cp_offset_neg
00011804 l       .data	00000000 I_blt_cg_cp_offset_neg_str
00005c6c l       .text.rvtest	00000000 I_blt_cg_cp_imm_edges_branch_all
00011837 l       .data	00000000 I_blt_cg_cp_imm_edges_branch_all_str
0000a02c l       .text.rvtest	00000000 exit_cleanup
00011ee4 l       .data	00000000 successstr
00023204 l       .text.rvmodel	00000000 rvmodel_io_write_str
00023208 l       .text.rvmodel	00000000 rvmodel_halt_pass
0000a070 l       .text.rvtest	00000000 abort_test
00011880 l       .data	00000000 begin_failure_scratch
0000a140 l       .text.rvtest	00000000 failedtest_saveregs
0000a0e4 l       .text.rvtest	00000000 failedtest_trap_x7_x9
000119f0 l       .data	00000000 saved_mcause
000119f8 l       .data	00000000 saved_mtval
00011a00 l       .data	00000000 saved_mstatus
0000a1b0 l       .text.rvtest	00000000 failedtest_saveresults
00011880 l       .data	00000000 failure_type
0000a22c l       .text.rvtest	00000000 failedtest_saveresults_trap
0000a1c0 l       .text.rvtest	00000000 failedtest_saveresults_int
0000a600 l       .text.rvtest	00000000 failedtest_saveresults_common
000119d8 l       .data	00000000 trap_diag_fail_str_ptr
000120aa l       .data	00000000 trap_sig_offset_mismatch
0000a4e0 l       .text.rvtest	00000000 trap_diag_offset_mismatch
000119b0 l       .data	00000000 trap_diag_subtype
0001210e l       .data	00000000 sv_Mvect_str
0000a560 l       .text.rvtest	00000000 trap_diag_field_identified
00012210 l       .data	00000000 sv_Mcause_str
0001230b l       .data	00000000 sv_Mepc_str
000123fe l       .data	00000000 sv_Mtval_str
00012571 l       .data	00000000 sv_Mip_str
000124f5 l       .data	00000000 sv_Mtval2_str
00012533 l       .data	00000000 sv_Mtinst_str
0001214e l       .data	00000000 sv_Svect_str
0001224e l       .data	00000000 sv_Scause_str
00012347 l       .data	00000000 sv_Sepc_str
0001243b l       .data	00000000 sv_Stval_str
000125ac l       .data	00000000 sv_Sip_str
0001218e l       .data	00000000 sv_Hvect_str
0001228c l       .data	00000000 sv_Hcause_str
00012383 l       .data	00000000 sv_Hepc_str
00012478 l       .data	00000000 sv_Htval_str
000125e7 l       .data	00000000 sv_Hip_str
000121cf l       .data	00000000 sv_Vvect_str
000122cb l       .data	00000000 sv_Vcause_str
000123c0 l       .data	00000000 sv_Vepc_str
000124b6 l       .data	00000000 sv_Vtval_str
00012623 l       .data	00000000 sv_Vip_str
00012660 l       .data	00000000 Mclr_Mext_int_str
000126af l       .data	00000000 Mclr_Sext_int_str
000127aa l       .data	00000000 Sclr_Sext_int_str
000128a6 l       .data	00000000 Hclr_Sext_int_str
0000a5f0 l       .text.rvtest	00000000 trap_diag_generic_report
000119c8 l       .data	00000000 trap_diag_actual_offset
000119d0 l       .data	00000000 trap_diag_expected_offset
000119b4 l       .data	00000000 trap_diag_mode
000119b8 l       .data	00000000 trap_diag_actual_value
000119c0 l       .data	00000000 trap_diag_expected_value
0000a630 l       .text.rvtest	00000000 failedtest_report
0000a630 l       .text.rvtest	00000000 print_failstr
00011f1a l       .data	00000000 failstr
0000a668 l       .text.rvtest	00000000 print_testnamestr
00011fad l       .data	00000000 testnamestr
0000a6a8 l       .text.rvtest	00000000 print_failure_test_name_str
000119a0 l       .data	00000000 failure_string_ptr
0000a6b8 l       .text.rvtest	00000000 print_newline_str
00011fbf l       .data	00000000 newlinestr
0000aaec l       .text.rvtest	00000000 failedtest_report_trap_detailed
00011fc1 l       .data	00000000 inststr
00011980 l       .data	00000000 failing_instruction
0000ba38 l       .text.rvtest	00000000 failedtest_hex_to_str
00011a08 l       .data	00000000 ascii_buffer
00011fd5 l       .data	00000000 addrstr
00011988 l       .data	00000000 failing_addr
00012a52 l       .data	00000000 regstr
0000a898 l       .text.rvtest	00000000 failedtest_report_not_intreg
00011984 l       .data	00000000 failing_reg
0000bab4 l       .text.rvtest	00000000 failedtest_dec_to_str
0000a974 l       .text.rvtest	00000000 failedtest_report_print_regstr
0000a8ec l       .text.rvtest	00000000 failedtest_report_fpreg
0000a938 l       .text.rvtest	00000000 failedtest_report_vecreg
00012ab2 l       .data	00000000 fflagsstr
0000a9a8 l       .text.rvtest	00000000 failedtest_report_after_reg
00012a63 l       .data	00000000 badvalstr
0000aa0c l       .text.rvtest	00000000 failedtest_report_badval_not_fp
00011990 l       .data	00000000 failing_value
0000aa1c l       .text.rvtest	00000000 failedtest_report_badval_done
00012a7a l       .data	00000000 expvalstr
0000aaac l       .text.rvtest	00000000 failedtest_report_expval_not_fp
00011998 l       .data	00000000 expected_value
0000aabc l       .text.rvtest	00000000 failedtest_report_expval_done
0000b7e4 l       .text.rvtest	00000000 failedtest_report_end
00012ade l       .data	00000000 trap_diag_header_str
00012b0a l       .data	00000000 trap_diag_origstr_label
0000abc0 l       .text.rvtest	00000000 trap_report_offset_mismatch
0000b670 l       .text.rvtest	00000000 trap_report_generic
0000af34 l       .text.rvtest	00000000 trap_report_field_mismatch
00012b1a l       .data	00000000 trap_diag_count_mismatch_str
00012b7b l       .data	00000000 trap_diag_expected_offset_str
00012ba2 l       .data	00000000 trap_diag_actual_offset_str
0000ae14 l       .text.rvtest	00000000 trap_report_missing_traps
0000acfc l       .text.rvtest	00000000 trap_report_extra_traps
00012bc9 l       .data	00000000 trap_diag_extra_traps_str
00012c4e l       .data	00000000 trap_diag_extra_bytes_str
00012c79 l       .data	00000000 trap_diag_extra_hint_str
0000b830 l       .text.rvtest	00000000 failedtest_print_csr_context
00012c03 l       .data	00000000 trap_diag_missing_traps_str
00012d61 l       .data	00000000 trap_diag_missing_hint_str
00012e48 l       .data	00000000 trap_diag_handler_mode_str
0000afc4 l       .text.rvtest	00000000 trap_mode_m
0000b004 l       .text.rvtest	00000000 trap_mode_s
0000b044 l       .text.rvtest	00000000 trap_mode_h
0000b084 l       .text.rvtest	00000000 trap_mode_v
00012e84 l       .data	00000000 trap_diag_mode_unknown_str
0000b0c0 l       .text.rvtest	00000000 trap_mode_print
00012e62 l       .data	00000000 trap_diag_mode_m_str
00012e6a l       .data	00000000 trap_diag_mode_s_str
00012e72 l       .data	00000000 trap_diag_mode_hs_str
00012e7b l       .data	00000000 trap_diag_mode_vs_str
00012e8d l       .data	00000000 trap_diag_field_str
0000b184 l       .text.rvtest	00000000 trap_field_vect
0000b1c4 l       .text.rvtest	00000000 trap_field_cause
0000b204 l       .text.rvtest	00000000 trap_field_epc
0000b244 l       .text.rvtest	00000000 trap_field_tval
0000b284 l       .text.rvtest	00000000 trap_field_ip
0000b2c4 l       .text.rvtest	00000000 trap_field_tval2
0000b304 l       .text.rvtest	00000000 trap_field_tinst
0000b344 l       .text.rvtest	00000000 trap_field_intid
00012fe4 l       .data	00000000 trap_diag_field_unknown_str
0000b380 l       .text.rvtest	00000000 trap_field_print
00012ea7 l       .data	00000000 trap_diag_field_vect_str
00012ed8 l       .data	00000000 trap_diag_field_cause_str
00012ef8 l       .data	00000000 trap_diag_field_epc_str
00012f16 l       .data	00000000 trap_diag_field_tval_str
00012f35 l       .data	00000000 trap_diag_field_ip_str
00012f5d l       .data	00000000 trap_diag_field_tval2_str
00012f89 l       .data	00000000 trap_diag_field_tinst_str
00012fb5 l       .data	00000000 trap_diag_field_intid_str
00012ff3 l       .data	00000000 trap_diag_expected_str
0001300a l       .data	00000000 trap_diag_actual_str
0000b51c l       .text.rvtest	00000000 trap_field_not_cause
00013021 l       .data	00000000 trap_diag_expected_cause_name_str
0000b754 l       .text.rvtest	00000000 trap_cause_to_str
00013038 l       .data	00000000 trap_diag_actual_cause_name_str
0000b51c l       .text.rvtest	00000000 trap_field_not_epc
000130ae l       .data	00000000 trap_diag_hint_vect_str
00013184 l       .data	00000000 trap_diag_hint_cause_str
00013277 l       .data	00000000 trap_diag_hint_epc_str
00013372 l       .data	00000000 trap_diag_hint_tval_str
00013459 l       .data	00000000 trap_diag_hint_ip_str
00013066 l       .data	00000000 trap_diag_generic_str
000119e8 l       .data	00000000 saved_mepc
00012049 l       .data	00000000 xepcinstrstr
0000b778 l       .text.rvtest	00000000 trap_cause_interrupt
0000b758 l       .text.rvtest	00000000 trap_cause_exception
0000b7a4 l       .text.rvtest	00000000 trap_cause_unknown
00011a30 l       .data	00000000 trap_excpt_name_tbl
00011a90 l       .data	00000000 trap_int_name_tbl
00011ece l       .data	00000000 trap_cause_unknown_str
00012a91 l       .data	00000000 endstr
0000b828 l       .text.rvtest	00000000 failedtest_terminate
00023214 l       .text.rvmodel	00000000 rvmodel_halt_fail
000119e0 l       .data	00000000 csr_context_ret_addr
0001206a l       .data	00000000 mepcstr
0001207a l       .data	00000000 mcausestr
0001208a l       .data	00000000 mtvalstr
0001209a l       .data	00000000 mstatusstr
0000ba78 l       .text.rvtest	00000000 failedtest_hex_to_str_loop
0000ba94 l       .text.rvtest	00000000 failedtest_hex_to_str_digit
0000ba98 l       .text.rvtest	00000000 failedtest_hex_to_str_write
00023000 l       .text.rvmodel	00000000 rvtest_boot_to_mmode
00023000 l       .text.rvmodel	00000000 rvtest_init_regs
00013540 l       .data	00000000 signature_base
000231a0 l       .text.rvmodel	00000000 canary_check
00012aba l       .data	00000000 canary_mismatch
0000c000 l       .data	00000000 scratch
00011a30 l       .data	00000000 end_failure_scratch
00011ad0 l       .data	00000000 trap_excpt_name_0
00011af0 l       .data	00000000 trap_excpt_name_1
00011b0a l       .data	00000000 trap_excpt_name_2
00011b1f l       .data	00000000 trap_excpt_name_3
00011b2b l       .data	00000000 trap_excpt_name_4
00011b44 l       .data	00000000 trap_excpt_name_5
00011b57 l       .data	00000000 trap_excpt_name_6
00011b75 l       .data	00000000 trap_excpt_name_7
00011b8d l       .data	00000000 trap_excpt_name_8
00011bab l       .data	00000000 trap_excpt_name_9
00011bc9 l       .data	00000000 trap_excpt_name_10
00011be8 l       .data	00000000 trap_excpt_name_11
00011c06 l       .data	00000000 trap_excpt_name_12
00011c1e l       .data	00000000 trap_excpt_name_13
00011c2f l       .data	00000000 trap_excpt_name_14
00011c3e l       .data	00000000 trap_excpt_name_15
00011c54 l       .data	00000000 trap_excpt_name_16
00011c61 l       .data	00000000 trap_excpt_name_17
00011c70 l       .data	00000000 trap_excpt_name_18
00011c80 l       .data	00000000 trap_excpt_name_19
00011c90 l       .data	00000000 trap_excpt_name_20
00011cae l       .data	00000000 trap_excpt_name_21
00011cc5 l       .data	00000000 trap_excpt_name_22
00011cda l       .data	00000000 trap_excpt_name_23
00011cf6 l       .data	00000000 trap_int_name_0
00011d0e l       .data	00000000 trap_int_name_1
00011d2d l       .data	00000000 trap_int_name_2
00011d54 l       .data	00000000 trap_int_name_3
00011d70 l       .data	00000000 trap_int_name_4
00011d88 l       .data	00000000 trap_int_name_5
00011da4 l       .data	00000000 trap_int_name_6
00011dc8 l       .data	00000000 trap_int_name_7
00011de1 l       .data	00000000 trap_int_name_8
00011df9 l       .data	00000000 trap_int_name_9
00011e18 l       .data	00000000 trap_int_name_10
00011e3f l       .data	00000000 trap_int_name_11
00011e5b l       .data	00000000 trap_int_name_12
00011e80 l       .data	00000000 trap_int_name_13
00011e9c l       .data	00000000 trap_int_name_14
00011eb5 l       .data	00000000 trap_int_name_15
00011f6f l       .data	00000000 abortstr
00012016 l       .data	00000000 xepcstr
00012701 l       .data	00000000 Mclr_Vext_int_str
0001275b l       .data	00000000 Sclr_Mext_int_str
000127fc l       .data	00000000 Sclr_Vext_int_str
00012856 l       .data	00000000 Hclr_Mext_int_str
000128f9 l       .data	00000000 Hclr_Vext_int_str
00012954 l       .data	00000000 Vclr_Mext_int_str
000129a4 l       .data	00000000 Vclr_Sext_int_str
000129f7 l       .data	00000000 Vclr_Vext_int_str
0001304f l       .data	00000000 trap_diag_curr_xepc_str
00013bd8 l       .data	00000000 trap_sigptr
00022640 g       .data	00000000 end_signature
00022640 g       .data	00000000 rvtest_sig_end
00000000 g       .text.init	00000000 rvtest_entry_point
00013540 g       .data	00000000 begin_signature
0000a02c g       .text.rvtest	00000000 rvtest_code_end
00001000 g       .text.rvtest	00000000 rvtest_code_begin
00013540 g       .data	00000000 rvtest_sig_begin
0000c110 g       .data	00000000 rvtest_data_begin
0001353e g       .data	00000000 rvtest_data_end
0000a02c g       .text.rvtest	00000000 cleanup_epilogs
00024000 g       .text.rvmodel	00000000 _end



Disassembly of section .text.init:

00000000 <rvtest_entry_point>:

// Include framework macros
#include "riscv_arch_test.h"

// Set up test environment and declare main entry point
RVTEST_BEGIN
   0:	00023097          	auipc	x1,0x23
   4:	00008093          	addi	x1,x1,0 # 23000 <rvmodel_boot>
   8:	00000013          	addi	x0,x0,0
   c:	00000013          	addi	x0,x0,0
  10:	00000013          	addi	x0,x0,0
  14:	00000013          	addi	x0,x0,0
  18:	00000013          	addi	x0,x0,0
  1c:	00000013          	addi	x0,x0,0
  20:	000080e7          	jalr	x1,0(x1)
  24:	00000013          	addi	x0,x0,0
  28:	00000013          	addi	x0,x0,0
  2c:	00000013          	addi	x0,x0,0
  30:	00000013          	addi	x0,x0,0
  34:	00000013          	addi	x0,x0,0
  38:	00000013          	addi	x0,x0,0
  3c:	00000013          	addi	x0,x0,0

Disassembly of section .text.rvtest:

00001000 <rvtest_code_begin>:
/////////////////////////////////
// cp_rs1
/////////////////////////////////

# Testcase cp_rs1 (Test source rs1 = x0)
  RVTEST_TESTDATA_LOAD_INT(x3, x0) # load rs1: x0 = 0xd3c03a0b
    1000:	0001a003          	lw	x0,0(x3)
    1004:	00418193          	addi	x3,x3,4
  RVTEST_TESTDATA_LOAD_INT(x3, x26) # load rs2: x26 = 0x00245547
    1008:	0001ad03          	lw	x26,0(x3)
    100c:	00418193          	addi	x3,x3,4
  RVTEST_TESTDATA_LOAD_INT(x3, x30) # load branch taken value: x30 = 0x3539cb13
    1010:	0001af03          	lw	x30,0(x3)
    1014:	00418193          	addi	x3,x3,4

00001018 <I_blt_cg_cp_rs1_b0>:
I_blt_cg_cp_rs1_b0:
  blt x0, x26, 1f # perform operation
    1018:	01a04463          	blt	x0,x26,1020 <I_blt_cg_cp_rs1_b0+0x8>
  LI(x30, -1) # branch not taken, set temp_reg to 0
    101c:	fff00f13          	addi	x30,x0,-1
1:
  # Check if x30 contains the expected result. x2 is the signature ptr, x5 is the link ptr, x4 is a temp reg.
  RVTEST_SIGUPD(x2, x5, x4, x30, I_blt_cg_cp_rs1_b0, I_blt_cg_cp_rs1_b0_str)
    1020:	00012203          	lw	x4,0(x2)
    1024:	01e20863          	beq	x4,x30,1034 <I_blt_cg_cp_rs1_b0+0x1c>
    1028:	054092ef          	jal	x5,a07c <failedtest_x5_x4>
    102c:	00001018          	.word	0x00001018
    1030:	0000cb38          	.word	0x0000cb38
    1034:	00410113          	addi	x2,x2,4

# Testcase cp_rs1 (Test source rs1 = x1)
  RVTEST_TESTDATA_LOAD_INT(x3, x1) # load rs1: x1 = 0xcca4889d
    1038:	0001a083          	lw	x1,0(x3)
    103c:	00418193          	addi	x3,x3,4
  RVTEST_TESTDATA_LOAD_INT(x3, x10) # load rs2: x10 = 0xd73c0e04
    1040:	0001a503          	lw	x10,0(x3)
    1044:	00418193          	addi	x3,x3,4
  RVTEST_TESTDATA_LOAD_INT(x3, x28) # load branch taken value: x28 = 0x47ad4a46
    1048:	0001ae03          	lw	x28,0(x3)
    104c:	00418193          	addi	x3,x3,4

00001050 <I_blt_cg_cp_rs1_b1>:
I_blt_cg_cp_rs1_b1:
  blt x1, x10, 1f # perform operation
    1050:	00a0c463          	blt	x1,x10,1058 <I_blt_cg_cp_rs1_b1+0x8>
  LI(x28, -1) # branch not taken, set temp_reg to 0
    1054:	fff00e13          	addi	x28,x0,-1
1:
  # Check if x28 contains the expected result. x2 is the signature ptr, x5 is the link ptr, x4 is a temp reg.
  RVTEST_SIGUPD(x2, x5, x4, x28, I_blt_cg_cp_rs1_b1, I_blt_cg_cp_rs1_b1_str)
    1058:	00012203          	lw	x4,0(x2)
    105c:	01c20863          	beq	x4,x28,106c <I_blt_cg_cp_rs1_b1+0x1c>
    1060:	01c092ef          	jal	x5,a07c <failedtest_x5_x4>
    1064:	00001050          	.word	0x00001050
    1068:	0000cb65          	.word	0x0000cb65
    106c:	00410113          	addi	x2,x2,4

  mv x24, x2 # switch signature pointer register to avoid conflict with test
    1070:	00010c13          	addi	x24,x2,0
# Testcase cp_rs1 (Test source rs1 = x2)
  RVTEST_TESTDATA_LOAD_INT(x3, x2) # load rs1: x2 = 0x958e8ae5
    1074:	0001a103          	lw	x2,0(x3)
    1078:	00418193          	addi	x3,x3,4
  RVTEST_TESTDATA_LOAD_INT(x3, x23) # load rs2: x23 = 0x8f56eb80
    107c:	0001ab83          	lw	x23,0(x3)
    1080:	00418193          	addi	x3,x3,4
  RVTEST_TESTDATA_LOAD_INT(x3, x30) # load branch taken value: x30 = 0xf70cc50c
    1084:	0001af03          	lw	x30,0(x3)
    1088:	00418193          	addi	x3,x3,4

0000108c <I_blt_cg_cp_rs1_b2>:
I_blt_cg_cp_rs1_b2:
  blt x2, x23, 1f # perform operation
    108c:	01714463          	blt	x2,x23,1094 <I_blt_cg_cp_rs1_b2+0x8>
  LI(x30, -1) # branch not taken, set temp_reg to 0
    1090:	fff00f13          	addi	x30,x0,-1
1:
  # Check if x30 contains the expected result. x24 is the signature ptr, x5 is the link ptr, x4 is a temp reg.
  RVTEST_SIGUPD(x24, x5, x4, x30, I_blt_cg_cp_rs1_b2, I_blt_cg_cp_rs1_b2_str)
    1094:	000c2203          	lw	x4,0(x24)
    1098:	01e20863          	beq	x4,x30,10a8 <I_blt_cg_cp_rs1_b2+0x1c>
    109c:	7e1082ef          	jal	x5,a07c <failedtest_x5_x4>
    10a0:	0000108c          	.word	0x0000108c
    10a4:	0000cb92          	.word	0x0000cb92
    10a8:	004c0c13          	addi	x24,x24,4

  mv x18, x3 # switch data pointer register to avoid conflict with test
    10ac:	00018913          	addi	x18,x3,0
# Testcase cp_rs1 (Test source rs1 = x3)
  RVTEST_TESTDATA_LOAD_INT(x18, x3) # load rs1: x3 = 0x1e29e519
    10b0:	00092183          	lw	x3,0(x18)
    10b4:	00490913          	addi	x18,x18,4
  RVTEST_TESTDATA_LOAD_INT(x18, x26) # load rs2: x26 = 0x0293cecf
    10b8:	00092d03          	lw	x26,0(x18)
    10bc:	00490913          	addi	x18,x18,4
  RVTEST_TESTDATA_LOAD_INT(x18, x7) # load branch taken value: x7 = 0x4338087b
    10c0:	00092383          	lw	x7,0(x18)
    10c4:	00490913          	addi	x18,x18,4

000010c8 <I_blt_cg_cp_rs1_b3>:
I_blt_cg_cp_rs1_b3:
  blt x3, x26, 1f # perform operation
    10c8:	01a1c463          	blt	x3,x26,10d0 <I_blt_cg_cp_rs1_b3+0x8>
  LI(x7, -1) # branch not taken, set temp_reg to 0
    10cc:	fff00393          	addi	x7,x0,-1
1:
  # Check if x7 contains the expected result. x24 is the signature ptr, x5 is the link ptr, x4 is a temp reg.
  RVTEST_SIGUPD(x24, x5, x4, x7, I_blt_cg_cp_rs1_b3, I_blt_cg_cp_rs1_b3_str)
    10d0:	000c2203          	lw	x4,0(x24)
    10d4:	00720863          	beq	x4,x7,10e4 <I_blt_cg_cp_rs1_b3+0x1c>
    10d8:	7a5082ef          	jal	x5,a07c <failedtest_x5_x4>
    10dc:	000010c8          	.word	0x000010c8
    10e0:	0000cbbf          	.word	0x0000cbbf
    10e4:	004c0c13          	addi	x24,x24,4

  mv x13, x4 # switch temp register to avoid conflict with test
    10e8:	00020693          	addi	x13,x4,0 # 0 <rvtest_entry_point>
  mv x14, x5 # switch link pointer register to avoid conflict with test
    10ec:	00028713          	addi	x14,x5,0
# Testcase cp_rs1 (Test source rs1 = x4)
  RVTEST_TESTDATA_LOAD_INT(x18, x4) # load rs1: x4 = 0x90cf597e
    10f0:	00092203          	lw	x4,0(x18)
    10f4:	00490913          	addi	x18,x18,4
  RVTEST_TESTDATA_LOAD_INT(x18, x22) # load rs2: x22 = 0x740b9c27
    10f8:	00092b03          	lw	x22,0(x18)
    10fc:	00490913          	addi	x18,x18,4
  RVTEST_TESTDATA_LOAD_INT(x18, x10) # load branch taken value: x10 = 0x184af098
    1100:	00092503          	lw	x10,0(x18)
    1104:	00490913          	addi	x18,x18,4

00001108 <I_blt_cg_cp_rs1_b4>:
I_blt_cg_cp_rs1_b4:
  blt x4, x22, 1f # perform operation
    1108:	01624463          	blt	x4,x22,1110 <I_blt_cg_cp_rs1_b4+0x8>
  LI(x10, -1) # branch not taken, set temp_reg to 0
    110c:	fff00513          	addi	x10,x0,-1
1:
  # Check if x10 contains the expected result. x24 is the signature ptr, x14 is the link ptr, x13 is a temp reg.
  RVTEST_SIGUPD(x24, x14, x13, x10, I_blt_cg_cp_rs1_b4, I_blt_cg_cp_rs1_b4_str)
    1110:	000c2683          	lw	x13,0(x24)
    1114:	00a68863          	beq	x13,x10,1124 <I_blt_cg_cp_rs1_b4+0x1c>
    1118:	7a50876f          	jal	x14,a0bc <failedtest_x14_x13>
    111c:	00001108          	.word	0x00001108
    1120:	0000cbec          	.word	0x0000cbec
    1124:	004c0c13          	addi	x24,x24,4

# Testcase cp_rs1 (Test source rs1 = x5)
  RVTEST_TESTDATA_LOAD_INT(x18, x5) # load rs1: x5 = 0x94ab3787
    1128:	00092283          	lw	x5,0(x18)
    112c:	00490913          	addi	x18,x18,4
  RVTEST_TESTDATA_LOAD_INT(x18, x15) # load rs2: x15 = 0x042d2d9c
    1130:	00092783          	lw	x15,0(x18)
    1134:	00490913          	addi	x18,x18,4
  RVTEST_TESTDATA_LOAD_INT(x18, x26) # load branch taken value: x26 = 0x0623c01e
    1138:	00092d03          	lw	x26,0(x18)
    113c:	00490913          	addi	x18,x18,4

00001140 <I_blt_cg_cp_rs1_b5>:
I_blt_cg_cp_rs1_b5:
  blt x5, x15, 1f # perform operation
    1140:	00f2c463          	blt	x5,x15,1148 <I_blt_cg_cp_rs1_b5+0x8>
  LI(x26, -1) # branch not taken, set temp_reg to 0
    1144:	fff00d13          	addi	x26,x0,-1
1:
  # Check if x26 contains the expected result. x24 is the signature ptr, x14 is the link ptr, x13 is a temp reg.
  RVTEST_SIGUPD(x24, x14, x13, x26, I_blt_cg_cp_rs1_b5, I_blt_cg_cp_rs1_b5_str)
    1148:	000c2683          	lw	x13,0(x24)
    114c:	01a68863          	beq	x13,x26,115c <I_blt_cg_cp_rs1_b5+0x1c>
    1150:	76d0876f          	jal	x14,a0bc <failedtest_x14_x13>
    1154:	00001140          	.word	0x00001140
    1158:	0000cc19          	.word	0x0000cc19
    115c:	004c0c13          	addi	x24,x24,4

# Testcase cp_rs1 (Test source rs1 = x6)
  RVTEST_TESTDATA_LOAD_INT(x18, x6) # load rs1: x6 = 0x361a8dc8
    1160:	00092303          	lw	x6,0(x18)
    1164:	00490913          	addi	x18,x18,4
  RVTEST_TESTDATA_LOAD_INT(x18, x9) # load rs2: x9 = 0x2fd35e65
    1168:	00092483          	lw	x9,0(x18)
    116c:	00490913          	addi	x18,x18,4
  RVTEST_TESTDATA_LOAD_INT(x18, x28) # load branch taken value: x28 = 0x58d37957
    1170:	00092e03          	lw	x28,0(x18)
    1174:	00490913          	addi	x18,x18,4

00001178 <I_blt_cg_cp_rs1_b6>:
I_blt_cg_cp_rs1_b6:
  blt x6, x9, 1f # perform operation
    1178:	00934463          	blt	x6,x9,1180 <I_blt_cg_cp_rs1_b6+0x8>
  LI(x28, -1) # branch not taken, set temp_reg to 0
    117c:	fff00e13          	addi	x28,x0,-1
1:
  # Check if x28 contains the expected result. x24 is the signature ptr, x14 is the link ptr, x13 is a temp reg.
  RVTEST_SIGUPD(x24, x14, x13, x28, I_blt_cg_cp_rs1_b6, I_blt_cg_cp_rs1_b6_str)
    1180:	000c2683          	lw	x13,0(x24)
    1184:	01c68863          	beq	x13,x28,1194 <I_blt_cg_cp_rs1_b6+0x1c>
    1188:	7350876f          	jal	x14,a0bc <failedtest_x14_x13>
    118c:	00001178          	.word	0x00001178
    1190:	0000cc46          	.word	0x0000cc46
    1194:	004c0c13          	addi	x24,x24,4

# Testcase cp_rs1 (Test source rs1 = x7)
  RVTEST_TESTDATA_LOAD_INT(x18, x7) # load rs1: x7 = 0xc2d08b8a
    1198:	00092383          	lw	x7,0(x18)
    119c:	00490913          	addi	x18,x18,4
  RVTEST_TESTDATA_LOAD_INT(x18, x27) # load rs2: x27 = 0x26d065bc
    11a0:	00092d83          	lw	x27,0(x18)
    11a4:	00490913          	addi	x18,x18,4
  RVTEST_TESTDATA_LOAD_INT(x18, x9) # load branch taken value: x9 = 0x5c7d6b5b
    11a8:	00092483          	lw	x9,0(x18)
    11ac:	00490913          	addi	x18,x18,4

000011b0 <I_blt_cg_cp_rs1_b7>:
I_blt_cg_cp_rs1_b7:
  blt x7, x27, 1f # perform operation
    11b0:	01b3c463          	blt	x7,x27,11b8 <I_blt_cg_cp_rs1_b7+0x8>
  LI(x9, -1) # branch not taken, set temp_reg to 0
    11b4:	fff00493          	addi	x9,x0,-1
1:
  # Check if x9 contains the expected result. x24 is the signature ptr, x14 is the link ptr, x13 is a temp reg.
  RVTEST_SIGUPD(x24, x14, x13, x9, I_blt_cg_cp_rs1_b7, I_blt_cg_cp_rs1_b7_str)
    11b8:	000c2683          	lw	x13,0(x24)
    11bc:	00968863          	beq	x13,x9,11cc <I_blt_cg_cp_rs1_b7+0x1c>
    11c0:	6fd0876f          	jal	x14,a0bc <failedtest_x14_x13>
    11c4:	000011b0          	.word	0x000011b0
    11c8:	0000cc73          	.word	0x0000cc73
    11cc:	004c0c13          	addi	x24,x24,4

# Testcase cp_rs1 (Test source rs1 = x8)
  RVTEST_TESTDATA_LOAD_INT(x18, x8) # load rs1: x8 = 0xf1cdd022
    11d0:	00092403          	lw	x8,0(x18)
    11d4:	00490913          	addi	x18,x18,4
  RVTEST_TESTDATA_LOAD_INT(x18, x31) # load rs2: x31 = 0xe3a0b408
    11d8:	00092f83          	lw	x31,0(x18)
    11dc:	00490913          	addi	x18,x18,4
  RVTEST_TESTDATA_LOAD_INT(x18, x7) # load branch taken value: x7 = 0x45d4a4b2
    11e0:	00092383          	lw	x7,0(x18)
    11e4:	00490913          	addi	x18,x18,4

000011e8 <I_blt_cg_cp_rs1_b8>:
I_blt_cg_cp_rs1_b8:
  blt x8, x31, 1f # perform operation
    11e8:	01f44463          	blt	x8,x31,11f0 <I_blt_cg_cp_rs1_b8+0x8>
  LI(x7, -1) # branch not taken, set temp_reg to 0
    11ec:	fff00393          	addi	x7,x0,-1
1:
  # Check if x7 contains the expected result. x24 is the signature ptr, x14 is the link ptr, x13 is a temp reg.
  RVTEST_SIGUPD(x24, x14, x13, x7, I_blt_cg_cp_rs1_b8, I_blt_cg_cp_rs1_b8_str)
    11f0:	000c2683          	lw	x13,0(x24)
    11f4:	00768863          	beq	x13,x7,1204 <I_blt_cg_cp_rs1_b8+0x1c>
    11f8:	6c50876f          	jal	x14,a0bc <failedtest_x14_x13>
    11fc:	000011e8          	.word	0x000011e8
    1200:	0000cca0          	.word	0x0000cca0
    1204:	004c0c13          	addi	x24,x24,4

# Testcase cp_rs1 (Test source rs1 = x9)
  RVTEST_TESTDATA_LOAD_INT(x18, x9) # load rs1: x9 = 0xb9cc9b83
    1208:	00092483          	lw	x9,0(x18)
    120c:	00490913          	addi	x18,x18,4
  RVTEST_TESTDATA_LOAD_INT(x18, x7) # load rs2: x7 = 0x16273bc8
    1210:	00092383          	lw	x7,0(x18)
    1214:	00490913          	addi	x18,x18,4
  RVTEST_TESTDATA_LOAD_INT(x18, x4) # load branch taken value: x4 = 0xf0bb46c5
    1218:	00092203          	lw	x4,0(x18)
    121c:	00490913          	addi	x18,x18,4

00001220 <I_blt_cg_cp_rs1_b9>:
I_blt_cg_cp_rs1_b9:
  blt x9, x7, 1f # perform operation
    1220:	0074c463          	blt	x9,x7,1228 <I_blt_cg_cp_rs1_b9+0x8>
  LI(x4, -1) # branch not taken, set temp_reg to 0
    1224:	fff00213          	addi	x4,x0,-1
1:
  # Check if x4 contains the expected result. x24 is the signature ptr, x14 is the link ptr, x13 is a temp reg.
  RVTEST_SIGUPD(x24, x14, x13, x4, I_blt_cg_cp_rs1_b9, I_blt_cg_cp_rs1_b9_str)
    1228:	000c2683          	lw	x13,0(x24)
    122c:	00468863          	beq	x13,x4,123c <I_blt_cg_cp_rs1_b9+0x1c>
    1230:	68d0876f          	jal	x14,a0bc <failedtest_x14_x13>
    1234:	00001220          	.word	0x00001220
    1238:	0000cccd          	.word	0x0000cccd
    123c:	004c0c13          	addi	x24,x24,4

# Testcase cp_rs1 (Test source rs1 = x10)
  RVTEST_TESTDATA_LOAD_INT(x18, x10) # load rs1: x10 = 0x1257579d
    1240:	00092503          	lw	x10,0(x18)
    1244:	00490913          	addi	x18,x18,4
  RVTEST_TESTDATA_LOAD_INT(x18, x11) # load rs2: x11 = 0x4c78b2c7
    1248:	00092583          	lw	x11,0(x18)
    124c:	00490913          	addi	x18,x18,4
  RVTEST_TESTDATA_LOAD_INT(x18, x15) # load branch taken value: x15 = 0x5d0ef56c
    1250:	00092783          	lw	x15,0(x18)
    1254:	00490913          	addi	x18,x18,4

00001258 <I_blt_cg_cp_rs1_b10>:
I_blt_cg_cp_rs1_b10:
  blt x10, x11, 1f # perform operation
    1258:	00b54463          	blt	x10,x11,1260 <I_blt_cg_cp_rs1_b10+0x8>
  LI(x15, -1) # branch not taken, set temp_reg to 0
    125c:	fff00793          	addi	x15,x0,-1
1:
  # Check if x15 contains the expected result. x24 is the signature ptr, x14 is the link ptr, x13 is a temp reg.
  RVTEST_SIGUPD(x24, x14, x13, x15, I_blt_cg_cp_rs1_b10, I_blt_cg_cp_rs1_b10_str)
    1260:	000c2683          	lw	x13,0(x24)
    1264:	00f68863          	beq	x13,x15,1274 <I_blt_cg_cp_rs1_b10+0x1c>
    1268:	6550876f          	jal	x14,a0bc <failedtest_x14_x13>
    126c:	00001258          	.word	0x00001258
    1270:	0000ccfb          	.word	0x0000ccfb
    1274:	004c0c13          	addi	x24,x24,4

# Testcase cp_rs1 (Test source rs1 = x11)
  RVTEST_TESTDATA_LOAD_INT(x18, x11) # load rs1: x11 = 0x5f72bb1c
    1278:	00092583          	lw	x11,0(x18)
    127c:	00490913          	addi	x18,x18,4
  RVTEST_TESTDATA_LOAD_INT(x18, x2) # load rs2: x2 = 0xa214e307
    1280:	00092103          	lw	x2,0(x18)
    1284:	00490913          	addi	x18,x18,4
  RVTEST_TESTDATA_LOAD_INT(x18, x23) # load branch taken value: x23 = 0x1ad57a06
    1288:	00092b83          	lw	x23,0(x18)
    128c:	00490913          	addi	x18,x18,4

00001290 <I_blt_cg_cp_rs1_b11>:
I_blt_cg_cp_rs1_b11:
  blt x11, x2, 1f # perform operation
    1290:	0025c463          	blt	x11,x2,1298 <I_blt_cg_cp_rs1_b11+0x8>
  LI(x23, -1) # branch not taken, set temp_reg to 0
    1294:	fff00b93          	addi	x23,x0,-1
1:
  # Check if x23 contains the expected result. x24 is the signature ptr, x14 is the link ptr, x13 is a temp reg.
  RVTEST_SIGUPD(x24, x14, x13, x23, I_blt_cg_cp_rs1_b11, I_blt_cg_cp_rs1_b11_str)
    1298:	000c2683          	lw	x13,0(x24)
    129c:	01768863          	beq	x13,x23,12ac <I_blt_cg_cp_rs1_b11+0x1c>
    12a0:	61d0876f          	jal	x14,a0bc <failedtest_x14_x13>
    12a4:	00001290          	.word	0x00001290
    12a8:	0000cd2a          	.word	0x0000cd2a
    12ac:	004c0c13          	addi	x24,x24,4

# Testcase cp_rs1 (Test source rs1 = x12)
  RVTEST_TESTDATA_LOAD_INT(x18, x12) # load rs1: x12 = 0x9629d4f8
    12b0:	00092603          	lw	x12,0(x18)
    12b4:	00490913          	addi	x18,x18,4
  RVTEST_TESTDATA_LOAD_INT(x18, x20) # load rs2: x20 = 0xb2a34e85
    12b8:	00092a03          	lw	x20,0(x18)
    12bc:	00490913          	addi	x18,x18,4
  RVTEST_TESTDATA_LOAD_INT(x18, x30) # load branch taken value: x30 = 0x0df9f354
    12c0:	00092f03          	lw	x30,0(x18)
    12c4:	00490913          	addi	x18,x18,4

000012c8 <I_blt_cg_cp_rs1_b12>:
I_blt_cg_cp_rs1_b12:
  blt x12, x20, 1f # perform operation
    12c8:	01464463          	blt	x12,x20,12d0 <I_blt_cg_cp_rs1_b12+0x8>
  LI(x30, -1) # branch not taken, set temp_reg to 0
    12cc:	fff00f13          	addi	x30,x0,-1
1:
  # Check if x30 contains the expected result. x24 is the signature ptr, x14 is the link ptr, x13 is a temp reg.
  RVTEST_SIGUPD(x24, x14, x13, x30, I_blt_cg_cp_rs1_b12, I_blt_cg_cp_rs1_b12_str)
    12d0:	000c2683          	lw	x13,0(x24)
    12d4:	01e68863          	beq	x13,x30,12e4 <I_blt_cg_cp_rs1_b12+0x1c>
    12d8:	5e50876f          	jal	x14,a0bc <failedtest_x14_x13>
    12dc:	000012c8          	.word	0x000012c8
    12e0:	0000cd59          	.word	0x0000cd59
    12e4:	004c0c13          	addi	x24,x24,4

  mv x4, x13 # switch temp register to avoid conflict with test
    12e8:	00068213          	addi	x4,x13,0
  mv x5, x14 # switch link pointer register to avoid conflict with test
    12ec:	00070293          	addi	x5,x14,0
# Testcase cp_rs1 (Test source rs1 = x13)
  RVTEST_TESTDATA_LOAD_INT(x18, x13) # load rs1: x13 = 0x1b47c1aa
    12f0:	00092683          	lw	x13,0(x18)
    12f4:	00490913          	addi	x18,x18,4
  RVTEST_TESTDATA_LOAD_INT(x18, x26) # load rs2: x26 = 0x0106b234
    12f8:	00092d03          	lw	x26,0(x18)
    12fc:	00490913          	addi	x18,x18,4
  RVTEST_TESTDATA_LOAD_INT(x18, x28) # load branch taken value: x28 = 0x932075e8
    1300:	00092e03          	lw	x28,0(x18)
    1304:	00490913          	addi	x18,x18,4

00001308 <I_blt_cg_cp_rs1_b13>:
I_blt_cg_cp_rs1_b13:
  blt x13, x26, 1f # perform operation
    1308:	01a6c463          	blt	x13,x26,1310 <I_blt_cg_cp_rs1_b13+0x8>
  LI(x28, -1) # branch not taken, set temp_reg to 0
    130c:	fff00e13          	addi	x28,x0,-1
1:
  # Check if x28 contains the expected result. x24 is the signature ptr, x5 is the link ptr, x4 is a temp reg.
  RVTEST_SIGUPD(x24, x5, x4, x28, I_blt_cg_cp_rs1_b13, I_blt_cg_cp_rs1_b13_str)
    1310:	000c2203          	lw	x4,0(x24)
    1314:	01c20863          	beq	x4,x28,1324 <I_blt_cg_cp_rs1_b13+0x1c>
    1318:	565082ef          	jal	x5,a07c <failedtest_x5_x4>
    131c:	00001308          	.word	0x00001308
    1320:	0000cd88          	.word	0x0000cd88
    1324:	004c0c13          	addi	x24,x24,4

# Testcase cp_rs1 (Test source rs1 = x14)
  RVTEST_TESTDATA_LOAD_INT(x18, x14) # load rs1: x14 = 0x7b2d4e35
    1328:	00092703          	lw	x14,0(x18)
    132c:	00490913          	addi	x18,x18,4
  RVTEST_TESTDATA_LOAD_INT(x18, x3) # load rs2: x3 = 0xcd075539
    1330:	00092183          	lw	x3,0(x18)
    1334:	00490913          	addi	x18,x18,4
  RVTEST_TESTDATA_LOAD_INT(x18, x21) # load branch taken value: x21 = 0x535da38e
    1338:	00092a83          	lw	x21,0(x18)
    133c:	00490913          	addi	x18,x18,4

00001340 <I_blt_cg_cp_rs1_b14>:
I_blt_cg_cp_rs1_b14:
  blt x14, x3, 1f # perform operation
    1340:	00374463          	blt	x14,x3,1348 <I_blt_cg_cp_rs1_b14+0x8>
  LI(x21, -1) # branch not taken, set temp_reg to 0
    1344:	fff00a93          	addi	x21,x0,-1
1:
  # Check if x21 contains the expected result. x24 is the signature ptr, x5 is the link ptr, x4 is a temp reg.
  RVTEST_SIGUPD(x24, x5, x4, x21, I_blt_cg_cp_rs1_b14, I_blt_cg_cp_rs1_b14_str)
    1348:	000c2203          	lw	x4,0(x24)
    134c:	01520863          	beq	x4,x21,135c <I_blt_cg_cp_rs1_b14+0x1c>
    1350:	52d082ef          	jal	x5,a07c <failedtest_x5_x4>
    1354:	00001340          	.word	0x00001340
    1358:	0000cdb7          	.word	0x0000cdb7
    135c:	004c0c13          	addi	x24,x24,4

# Testcase cp_rs1 (Test source rs1 = x15)
  RVTEST_TESTDATA_LOAD_INT(x18, x15) # load rs1: x15 = 0x13bbde60
    1360:	00092783          	lw	x15,0(x18)
    1364:	00490913          	addi	x18,x18,4
  RVTEST_TESTDATA_LOAD_INT(x18, x27) # load rs2: x27 = 0x139de929
    1368:	00092d83          	lw	x27,0(x18)
    136c:	00490913          	addi	x18,x18,4
  RVTEST_TESTDATA_LOAD_INT(x18, x14) # load branch taken value: x14 = 0x9bbc980e
    1370:	00092703          	lw	x14,0(x18)
    1374:	00490913          	addi	x18,x18,4

00001378 <I_blt_cg_cp_rs1_b15>:
I_blt_cg_cp_rs1_b15:
  blt x15, x27, 1f # perform operation
    1378:	01b7c463          	blt	x15,x27,1380 <I_blt_cg_cp_rs1_b15+0x8>
  LI(x14, -1) # branch not taken, set temp_reg to 0
    137c:	fff00713          	addi	x14,x0,-1
1:
  # Check if x14 contains the expected result. x24 is the signature ptr, x5 is the link ptr, x4 is a temp reg.
  RVTEST_SIGUPD(x24, x5, x4, x14, I_blt_cg_cp_rs1_b15, I_blt_cg_cp_rs1_b15_str)
    1380:	000c2203          	lw	x4,0(x24)
    1384:	00e20863          	beq	x4,x14,1394 <I_blt_cg_cp_rs1_b15+0x1c>
    1388:	4f5082ef          	jal	x5,a07c <failedtest_x5_x4>
    138c:	00001378          	.word	0x00001378
    1390:	0000cde6          	.word	0x0000cde6
    1394:	004c0c13          	addi	x24,x24,4

# Testcase cp_rs1 (Test source rs1 = x16)
  RVTEST_TESTDATA_LOAD_INT(x18, x16) # load rs1: x16 = 0x6300f08b
    1398:	00092803          	lw	x16,0(x18)
    139c:	00490913          	addi	x18,x18,4
  RVTEST_TESTDATA_LOAD_INT(x18, x23) # load rs2: x23 = 0x592cf24a
    13a0:	00092b83          	lw	x23,0(x18)
    13a4:	00490913          	addi	x18,x18,4
  RVTEST_TESTDATA_LOAD_INT(x18, x17) # load branch taken value: x17 = 0x0c952272
    13a8:	00092883          	lw	x17,0(x18)
    13ac:	00490913          	addi	x18,x18,4

000013b0 <I_blt_cg_cp_rs1_b16>:
I_blt_cg_cp_rs1_b16:
  blt x16, x23, 1f # perform operation
    13b0:	01784463          	blt	x16,x23,13b8 <I_blt_cg_cp_rs1_b16+0x8>
  LI(x17, -1) # branch not taken, set temp_reg to 0
    13b4:	fff00893          	addi	x17,x0,-1
1:
  # Check if x17 contains the expected result. x24 is the signature ptr, x5 is the link ptr, x4 is a temp reg.
  RVTEST_SIGUPD(x24, x5, x4, x17, I_blt_cg_cp_rs1_b16, I_blt_cg_cp_rs1_b16_str)
    13b8:	000c2203          	lw	x4,0(x24)
    13bc:	01120863          	beq	x4,x17,13cc <I_blt_cg_cp_rs1_b16+0x1c>
    13c0:	4bd082ef          	jal	x5,a07c <failedtest_x5_x4>
    13c4:	000013b0          	.word	0x000013b0
    13c8:	0000ce15          	.word	0x0000ce15
    13cc:	004c0c13          	addi	x24,x24,4

# Testcase cp_rs1 (Test source rs1 = x17)
  RVTEST_TESTDATA_LOAD_INT(x18, x17) # load rs1: x17 = 0xda14706c
    13d0:	00092883          	lw	x17,0(x18)
    13d4:	00490913          	addi	x18,x18,4
  RVTEST_TESTDATA_LOAD_INT(x18, x23) # load rs2: x23 = 0x2a250464
    13d8:	00092b83          	lw	x23,0(x18)
    13dc:	00490913          	addi	x18,x18,4
  RVTEST_TESTDATA_LOAD_INT(x18, x10) # load branch taken value: x10 = 0x82263646
    13e0:	00092503          	lw	x10,0(x18)
    13e4:	00490913          	addi	x18,x18,4

000013e8 <I_blt_cg_cp_rs1_b17>:
I_blt_cg_cp_rs1_b17:
  blt x17, x23, 1f # perform operation
    13e8:	0178c463          	blt	x17,x23,13f0 <I_blt_cg_cp_rs1_b17+0x8>
  LI(x10, -1) # branch not taken, set temp_reg to 0
    13ec:	fff00513          	addi	x10,x0,-1
1:
  # Check if x10 contains the expected result. x24 is the signature ptr, x5 is the link ptr, x4 is a temp reg.
  RVTEST_SIGUPD(x24, x5, x4, x10, I_blt_cg_cp_rs1_b17, I_blt_cg_cp_rs1_b17_str)
    13f0:	000c2203          	lw	x4,0(x24)
    13f4:	00a20863          	beq	x4,x10,1404 <I_blt_cg_cp_rs1_b17+0x1c>
    13f8:	485082ef          	jal	x5,a07c <failedtest_x5_x4>
    13fc:	000013e8          	.word	0x000013e8
    1400:	0000ce44          	.word	0x0000ce44
    1404:	004c0c13          	addi	x24,x24,4

  mv x2, x18 # switch data pointer register to avoid conflict with test
    1408:	00090113          	addi	x2,x18,0
# Testcase cp_rs1 (Test source rs1 = x18)
  RVTEST_TESTDATA_LOAD_INT(x2, x18) # load rs1: x18 = 0xf42439ee
    140c:	00012903          	lw	x18,0(x2)
    1410:	00410113          	addi	x2,x2,4
  RVTEST_TESTDATA_LOAD_INT(x2, x10) # load rs2: x10 = 0xc3759660
    1414:	00012503          	lw	x10,0(x2)
    1418:	00410113          	addi	x2,x2,4
  RVTEST_TESTDATA_LOAD_INT(x2, x23) # load branch taken value: x23 = 0xc7de4b62
    141c:	00012b83          	lw	x23,0(x2)
    1420:	00410113          	addi	x2,x2,4

00001424 <I_blt_cg_cp_rs1_b18>:
I_blt_cg_cp_rs1_b18:
  blt x18, x10, 1f # perform operation
    1424:	00a94463          	blt	x18,x10,142c <I_blt_cg_cp_rs1_b18+0x8>
  LI(x23, -1) # branch not taken, set temp_reg to 0
    1428:	fff00b93          	addi	x23,x0,-1
1:
  # Check if x23 contains the expected result. x24 is the signature ptr, x5 is the link ptr, x4 is a temp reg.
  RVTEST_SIGUPD(x24, x5, x4, x23, I_blt_cg_cp_rs1_b18, I_blt_cg_cp_rs1_b18_str)
    142c:	000c2203          	lw	x4,0(x24)
    1430:	01720863          	beq	x4,x23,1440 <I_blt_cg_cp_rs1_b18+0x1c>
    1434:	449082ef          	jal	x5,a07c <failedtest_x5_x4>
    1438:	00001424          	.word	0x00001424
    143c:	0000ce73          	.word	0x0000ce73
    1440:	004c0c13          	addi	x24,x24,4

# Testcase cp_rs1 (Test source rs1 = x19)
  RVTEST_TESTDATA_LOAD_INT(x2, x19) # load rs1: x19 = 0xe4322dd1
    1444:	00012983          	lw	x19,0(x2)
    1448:	00410113          	addi	x2,x2,4
  RVTEST_TESTDATA_LOAD_INT(x2, x9) # load rs2: x9 = 0x526f7184
    144c:	00012483          	lw	x9,0(x2)
    1450:	00410113          	addi	x2,x2,4
  RVTEST_TESTDATA_LOAD_INT(x2, x17) # load branch taken value: x17 = 0x56c8f391
    1454:	00012883          	lw	x17,0(x2)
    1458:	00410113          	addi	x2,x2,4

0000145c <I_blt_cg_cp_rs1_b19>:
I_blt_cg_cp_rs1_b19:
  blt x19, x9, 1f # perform operation
    145c:	0099c463          	blt	x19,x9,1464 <I_blt_cg_cp_rs1_b19+0x8>
  LI(x17, -1) # branch not taken, set temp_reg to 0
    1460:	fff00893          	addi	x17,x0,-1
1:
  # Check if x17 contains the expected result. x24 is the signature ptr, x5 is the link ptr, x4 is a temp reg.
  RVTEST_SIGUPD(x24, x5, x4, x17, I_blt_cg_cp_rs1_b19, I_blt_cg_cp_rs1_b19_str)
    1464:	000c2203          	lw	x4,0(x24)
    1468:	01120863          	beq	x4,x17,1478 <I_blt_cg_cp_rs1_b19+0x1c>
    146c:	411082ef          	jal	x5,a07c <failedtest_x5_x4>
    1470:	0000145c          	.word	0x0000145c
    1474:	0000cea2          	.word	0x0000cea2
    1478:	004c0c13          	addi	x24,x24,4

# Testcase cp_rs1 (Test source rs1 = x20)
  RVTEST_TESTDATA_LOAD_INT(x2, x20) # load rs1: x20 = 0xa3988674
    147c:	00012a03          	lw	x20,0(x2)
    1480:	00410113          	addi	x2,x2,4
  RVTEST_TESTDATA_LOAD_INT(x2, x6) # load rs2: x6 = 0x0b2a87ad
    1484:	00012303          	lw	x6,0(x2)
    1488:	00410113          	addi	x2,x2,4
  RVTEST_TESTDATA_LOAD_INT(x2, x26) # load branch taken value: x26 = 0x5058817a
    148c:	00012d03          	lw	x26,0(x2)
    1490:	00410113          	addi	x2,x2,4

00001494 <I_blt_cg_cp_rs1_b20>:
I_blt_cg_cp_rs1_b20:
  blt x20, x6, 1f # perform operation
    1494:	006a4463          	blt	x20,x6,149c <I_blt_cg_cp_rs1_b20+0x8>
  LI(x26, -1) # branch not taken, set temp_reg to 0
    1498:	fff00d13          	addi	x26,x0,-1
1:
  # Check if x26 contains the expected result. x24 is the signature ptr, x5 is the link ptr, x4 is a temp reg.
  RVTEST_SIGUPD(x24, x5, x4, x26, I_blt_cg_cp_rs1_b20, I_blt_cg_cp_rs1_b20_str)
    149c:	000c2203          	lw	x4,0(x24)
    14a0:	01a20863          	beq	x4,x26,14b0 <I_blt_cg_cp_rs1_b20+0x1c>
    14a4:	3d9082ef          	jal	x5,a07c <failedtest_x5_x4>
    14a8:	00001494          	.word	0x00001494
    14ac:	0000ced1          	.word	0x0000ced1
    14b0:	004c0c13          	addi	x24,x24,4

# Testcase cp_rs1 (Test source rs1 = x21)
  RVTEST_TESTDATA_LOAD_INT(x2, x21) # load rs1: x21 = 0x9a5a2b93
    14b4:	00012a83          	lw	x21,0(x2)
    14b8:	00410113          	addi	x2,x2,4
  RVTEST_TESTDATA_LOAD_INT(x2, x18) # load rs2: x18 = 0x3d87657c
    14bc:	00012903          	lw	x18,0(x2)
    14c0:	00410113          	addi	x2,x2,4
  RVTEST_TESTDATA_LOAD_INT(x2, x14) # load branch taken value: x14 = 0x67189e9f
    14c4:	00012703          	lw	x14,0(x2)
    14c8:	00410113          	addi	x2,x2,4

000014cc <I_blt_cg_cp_rs1_b21>:
I_blt_cg_cp_rs1_b21:
  blt x21, x18, 1f # perform operation
    14cc:	012ac463          	blt	x21,x18,14d4 <I_blt_cg_cp_rs1_b21+0x8>
  LI(x14, -1) # branch not taken, set temp_reg to 0
    14d0:	fff00713          	addi	x14,x0,-1
1:
  # Check if x14 contains the expected result. x24 is the signature ptr, x5 is the link ptr, x4 is a temp reg.
  RVTEST_SIGUPD(x24, x5, x4, x14, I_blt_cg_cp_rs1_b21, I_blt_cg_cp_rs1_b21_str)
    14d4:	000c2203          	lw	x4,0(x24)
    14d8:	00e20863          	beq	x4,x14,14e8 <I_blt_cg_cp_rs1_b21+0x1c>
    14dc:	3a1082ef          	jal	x5,a07c <failedtest_x5_x4>
    14e0:	000014cc          	.word	0x000014cc
    14e4:	0000cf00          	.word	0x0000cf00
    14e8:	004c0c13          	addi	x24,x24,4

# Testcase cp_rs1 (Test source rs1 = x22)
  RVTEST_TESTDATA_LOAD_INT(x2, x22) # load rs1: x22 = 0xdc9f5178
    14ec:	00012b03          	lw	x22,0(x2)
    14f0:	00410113          	addi	x2,x2,4
  RVTEST_TESTDATA_LOAD_INT(x2, x16) # load rs2: x16 = 0x0ee869cd
    14f4:	00012803          	lw	x16,0(x2)
    14f8:	00410113          	addi	x2,x2,4
  RVTEST_TESTDATA_LOAD_INT(x2, x9) # load branch taken value: x9 = 0x62c975ed
    14fc:	00012483          	lw	x9,0(x2)
    1500:	00410113          	addi	x2,x2,4

00001504 <I_blt_cg_cp_rs1_b22>:
I_blt_cg_cp_rs1_b22:
  blt x22, x16, 1f # perform operation
    1504:	010b4463          	blt	x22,x16,150c <I_blt_cg_cp_rs1_b22+0x8>
  LI(x9, -1) # branch not taken, set temp_reg to 0
    1508:	fff00493          	addi	x9,x0,-1
1:
  # Check if x9 contains the expected result. x24 is the signature ptr, x5 is the link ptr, x4 is a temp reg.
  RVTEST_SIGUPD(x24, x5, x4, x9, I_blt_cg_cp_rs1_b22, I_blt_cg_cp_rs1_b22_str)
    150c:	000c2203          	lw	x4,0(x24)
    1510:	00920863          	beq	x4,x9,1520 <I_blt_cg_cp_rs1_b22+0x1c>
    1514:	369082ef          	jal	x5,a07c <failedtest_x5_x4>
    1518:	00001504          	.word	0x00001504
    151c:	0000cf2f          	.word	0x0000cf2f
    1520:	004c0c13          	addi	x24,x24,4

# Testcase cp_rs1 (Test source rs1 = x23)
  RVTEST_TESTDATA_LOAD_INT(x2, x23) # load rs1: x23 = 0x05fe8bc0
    1524:	00012b83          	lw	x23,0(x2)
    1528:	00410113          	addi	x2,x2,4
  RVTEST_TESTDATA_LOAD_INT(x2, x26) # load rs2: x26 = 0x8339e5a4
    152c:	00012d03          	lw	x26,0(x2)
    1530:	00410113          	addi	x2,x2,4
  RVTEST_TESTDATA_LOAD_INT(x2, x10) # load branch taken value: x10 = 0x2f80b249
    1534:	00012503          	lw	x10,0(x2)
    1538:	00410113          	addi	x2,x2,4

0000153c <I_blt_cg_cp_rs1_b23>:
I_blt_cg_cp_rs1_b23:
  blt x23, x26, 1f # perform operation
    153c:	01abc463          	blt	x23,x26,1544 <I_blt_cg_cp_rs1_b23+0x8>
  LI(x10, -1) # branch not taken, set temp_reg to 0
    1540:	fff00513          	addi	x10,x0,-1
1:
  # Check if x10 contains the expected result. x24 is the signature ptr, x5 is the link ptr, x4 is a temp reg.
  RVTEST_SIGUPD(x24, x5, x4, x10, I_blt_cg_cp_rs1_b23, I_blt_cg_cp_rs1_b23_str)
    1544:	000c2203          	lw	x4,0(x24)
    1548:	00a20863          	beq	x4,x10,1558 <I_blt_cg_cp_rs1_b23+0x1c>
    154c:	331082ef          	jal	x5,a07c <failedtest_x5_x4>
    1550:	0000153c          	.word	0x0000153c
    1554:	0000cf5e          	.word	0x0000cf5e
    1558:	004c0c13          	addi	x24,x24,4

  mv x19, x24 # switch signature pointer register to avoid conflict with test
    155c:	000c0993          	addi	x19,x24,0
# Testcase cp_rs1 (Test source rs1 = x24)
  RVTEST_TESTDATA_LOAD_INT(x2, x24) # load rs1: x24 = 0x863c6bd4
    1560:	00012c03          	lw	x24,0(x2)
    1564:	00410113          	addi	x2,x2,4
  RVTEST_TESTDATA_LOAD_INT(x2, x16) # load rs2: x16 = 0x54fd4739
    1568:	00012803          	lw	x16,0(x2)
    156c:	00410113          	addi	x2,x2,4
  RVTEST_TESTDATA_LOAD_INT(x2, x25) # load branch taken value: x25 = 0x3997d795
    1570:	00012c83          	lw	x25,0(x2)
    1574:	00410113          	addi	x2,x2,4

00001578 <I_blt_cg_cp_rs1_b24>:
I_blt_cg_cp_rs1_b24:
  blt x24, x16, 1f # perform operation
    1578:	010c4463          	blt	x24,x16,1580 <I_blt_cg_cp_rs1_b24+0x8>
  LI(x25, -1) # branch not taken, set temp_reg to 0
    157c:	fff00c93          	addi	x25,x0,-1
1:
  # Check if x25 contains the expected result. x19 is the signature ptr, x5 is the link ptr, x4 is a temp reg.
  RVTEST_SIGUPD(x19, x5, x4, x25, I_blt_cg_cp_rs1_b24, I_blt_cg_cp_rs1_b24_str)
    1580:	0009a203          	lw	x4,0(x19)
    1584:	01920863          	beq	x4,x25,1594 <I_blt_cg_cp_rs1_b24+0x1c>
    1588:	2f5082ef          	jal	x5,a07c <failedtest_x5_x4>
    158c:	00001578          	.word	0x00001578
    1590:	0000cf8d          	.word	0x0000cf8d
    1594:	00498993          	addi	x19,x19,4

# Testcase cp_rs1 (Test source rs1 = x25)
  RVTEST_TESTDATA_LOAD_INT(x2, x25) # load rs1: x25 = 0xa254109b
    1598:	00012c83          	lw	x25,0(x2)
    159c:	00410113          	addi	x2,x2,4
  RVTEST_TESTDATA_LOAD_INT(x2, x24) # load rs2: x24 = 0x90072082
    15a0:	00012c03          	lw	x24,0(x2)
    15a4:	00410113          	addi	x2,x2,4
  RVTEST_TESTDATA_LOAD_INT(x2, x23) # load branch taken value: x23 = 0xff52dee2
    15a8:	00012b83          	lw	x23,0(x2)
    15ac:	00410113          	addi	x2,x2,4

000015b0 <I_blt_cg_cp_rs1_b25>:
I_blt_cg_cp_rs1_b25:
  blt x25, x24, 1f # perform operation
    15b0:	018cc463          	blt	x25,x24,15b8 <I_blt_cg_cp_rs1_b25+0x8>
  LI(x23, -1) # branch not taken, set temp_reg to 0
    15b4:	fff00b93          	addi	x23,x0,-1
1:
  # Check if x23 contains the expected result. x19 is the signature ptr, x5 is the link ptr, x4 is a temp reg.
  RVTEST_SIGUPD(x19, x5, x4, x23, I_blt_cg_cp_rs1_b25, I_blt_cg_cp_rs1_b25_str)
    15b8:	0009a203          	lw	x4,0(x19)
    15bc:	01720863          	beq	x4,x23,15cc <I_blt_cg_cp_rs1_b25+0x1c>
    15c0:	2bd082ef          	jal	x5,a07c <failedtest_x5_x4>
    15c4:	000015b0          	.word	0x000015b0
    15c8:	0000cfbc          	.word	0x0000cfbc
    15cc:	00498993          	addi	x19,x19,4

# Testcase cp_rs1 (Test source rs1 = x26)
  RVTEST_TESTDATA_LOAD_INT(x2, x26) # load rs1: x26 = 0x1d882cab
    15d0:	00012d03          	lw	x26,0(x2)
    15d4:	00410113          	addi	x2,x2,4
  RVTEST_TESTDATA_LOAD_INT(x2, x16) # load rs2: x16 = 0x676aa1d7
    15d8:	00012803          	lw	x16,0(x2)
    15dc:	00410113          	addi	x2,x2,4
  RVTEST_TESTDATA_LOAD_INT(x2, x1) # load branch taken value: x1 = 0x5da281cf
    15e0:	00012083          	lw	x1,0(x2)
    15e4:	00410113          	addi	x2,x2,4

000015e8 <I_blt_cg_cp_rs1_b26>:
I_blt_cg_cp_rs1_b26:
  blt x26, x16, 1f # perform operation
    15e8:	010d4463          	blt	x26,x16,15f0 <I_blt_cg_cp_rs1_b26+0x8>
  LI(x1, -1) # branch not taken, set temp_reg to 0
    15ec:	fff00093          	addi	x1,x0,-1
1:
  # Check if x1 contains the expected result. x19 is the signature ptr, x5 is the link ptr, x4 is a temp reg.
  RVTEST_SIGUPD(x19, x5, x4, x1, I_blt_cg_cp_rs1_b26, I_blt_cg_cp_rs1_b26_str)
    15f0:	0009a203          	lw	x4,0(x19)
    15f4:	00120863          	beq	x4,x1,1604 <I_blt_cg_cp_rs1_b26+0x1c>
    15f8:	285082ef          	jal	x5,a07c <failedtest_x5_x4>
    15fc:	000015e8          	.word	0x000015e8
    1600:	0000cfeb          	.word	0x0000cfeb
    1604:	00498993          	addi	x19,x19,4

# Testcase cp_rs1 (Test source rs1 = x27)
  RVTEST_TESTDATA_LOAD_INT(x2, x27) # load rs1: x27 = 0x2d22b112
    1608:	00012d83          	lw	x27,0(x2)
    160c:	00410113          	addi	x2,x2,4
  RVTEST_TESTDATA_LOAD_INT(x2, x20) # load rs2: x20 = 0x3e3094c7
    1610:	00012a03          	lw	x20,0(x2)
    1614:	00410113          	addi	x2,x2,4
  RVTEST_TESTDATA_LOAD_INT(x2, x18) # load branch taken value: x18 = 0x19ba1f82
    1618:	00012903          	lw	x18,0(x2)
    161c:	00410113          	addi	x2,x2,4

00001620 <I_blt_cg_cp_rs1_b27>:
I_blt_cg_cp_rs1_b27:
  blt x27, x20, 1f # perform operation
    1620:	014dc463          	blt	x27,x20,1628 <I_blt_cg_cp_rs1_b27+0x8>
  LI(x18, -1) # branch not taken, set temp_reg to 0
    1624:	fff00913          	addi	x18,x0,-1
1:
  # Check if x18 contains the expected result. x19 is the signature ptr, x5 is the link ptr, x4 is a temp reg.
  RVTEST_SIGUPD(x19, x5, x4, x18, I_blt_cg_cp_rs1_b27, I_blt_cg_cp_rs1_b27_str)
    1628:	0009a203          	lw	x4,0(x19)
    162c:	01220863          	beq	x4,x18,163c <I_blt_cg_cp_rs1_b27+0x1c>
    1630:	24d082ef          	jal	x5,a07c <failedtest_x5_x4>
    1634:	00001620          	.word	0x00001620
    1638:	0000d01a          	.word	0x0000d01a
    163c:	00498993          	addi	x19,x19,4

# Testcase cp_rs1 (Test source rs1 = x28)
  RVTEST_TESTDATA_LOAD_INT(x2, x28) # load rs1: x28 = 0xb767ebfe
    1640:	00012e03          	lw	x28,0(x2)
    1644:	00410113          	addi	x2,x2,4
  RVTEST_TESTDATA_LOAD_INT(x2, x7) # load rs2: x7 = 0xb7a6171a
    1648:	00012383          	lw	x7,0(x2)
    164c:	00410113          	addi	x2,x2,4
  RVTEST_TESTDATA_LOAD_INT(x2, x1) # load branch taken value: x1 = 0x548ba7e5
    1650:	00012083          	lw	x1,0(x2)
    1654:	00410113          	addi	x2,x2,4

00001658 <I_blt_cg_cp_rs1_b28>:
I_blt_cg_cp_rs1_b28:
  blt x28, x7, 1f # perform operation
    1658:	007e4463          	blt	x28,x7,1660 <I_blt_cg_cp_rs1_b28+0x8>
  LI(x1, -1) # branch not taken, set temp_reg to 0
    165c:	fff00093          	addi	x1,x0,-1
1:
  # Check if x1 contains the expected result. x19 is the signature ptr, x5 is the link ptr, x4 is a temp reg.
  RVTEST_SIGUPD(x19, x5, x4, x1, I_blt_cg_cp_rs1_b28, I_blt_cg_cp_rs1_b28_str)
    1660:	0009a203          	lw	x4,0(x19)
    1664:	00120863          	beq	x4,x1,1674 <I_blt_cg_cp_rs1_b28+0x1c>
    1668:	215082ef          	jal	x5,a07c <failedtest_x5_x4>
    166c:	00001658          	.word	0x00001658
    1670:	0000d049          	.word	0x0000d049
    1674:	00498993          	addi	x19,x19,4

# Testcase cp_rs1 (Test source rs1 = x29)
  RVTEST_TESTDATA_LOAD_INT(x2, x29) # load rs1: x29 = 0x6073bbc3
    1678:	00012e83          	lw	x29,0(x2)
    167c:	00410113          	addi	x2,x2,4
  RVTEST_TESTDATA_LOAD_INT(x2, x30) # load rs2: x30 = 0x4a9b8b25
    1680:	00012f03          	lw	x30,0(x2)
    1684:	00410113          	addi	x2,x2,4
  RVTEST_TESTDATA_LOAD_INT(x2, x22) # load branch taken value: x22 = 0x2f341c40
    1688:	00012b03          	lw	x22,0(x2)
    168c:	00410113          	addi	x2,x2,4

00001690 <I_blt_cg_cp_rs1_b29>:
I_blt_cg_cp_rs1_b29:
  blt x29, x30, 1f # perform operation
    1690:	01eec463          	blt	x29,x30,1698 <I_blt_cg_cp_rs1_b29+0x8>
  LI(x22, -1) # branch not taken, set temp_reg to 0
    1694:	fff00b13          	addi	x22,x0,-1
1:
  # Check if x22 contains the expected result. x19 is the signature ptr, x5 is the link ptr, x4 is a temp reg.
  RVTEST_SIGUPD(x19, x5, x4, x22, I_blt_cg_cp_rs1_b29, I_blt_cg_cp_rs1_b29_str)
    1698:	0009a203          	lw	x4,0(x19)
    169c:	01620863          	beq	x4,x22,16ac <I_blt_cg_cp_rs1_b29+0x1c>
    16a0:	1dd082ef          	jal	x5,a07c <failedtest_x5_x4>
    16a4:	00001690          	.word	0x00001690
    16a8:	0000d078          	.word	0x0000d078
    16ac:	00498993          	addi	x19,x19,4

# Testcase cp_rs1 (Test source rs1 = x30)
  RVTEST_TESTDATA_LOAD_INT(x2, x30) # load rs1: x30 = 0x7b533cbd
    16b0:	00012f03          	lw	x30,0(x2)
    16b4:	00410113          	addi	x2,x2,4
  RVTEST_TESTDATA_LOAD_INT(x2, x10) # load rs2: x10 = 0xae14c79d
    16b8:	00012503          	lw	x10,0(x2)
    16bc:	00410113          	addi	x2,x2,4
  RVTEST_TESTDATA_LOAD_INT(x2, x9) # load branch taken value: x9 = 0x0af43a6c
    16c0:	00012483          	lw	x9,0(x2)
    16c4:	00410113          	addi	x2,x2,4

000016c8 <I_blt_cg_cp_rs1_b30>:
I_blt_cg_cp_rs1_b30:
  blt x30, x10, 1f # perform operation
    16c8:	00af4463          	blt	x30,x10,16d0 <I_blt_cg_cp_rs1_b30+0x8>
  LI(x9, -1) # branch not taken, set temp_reg to 0
    16cc:	fff00493          	addi	x9,x0,-1
1:
  # Check if x9 contains the expected result. x19 is the signature ptr, x5 is the link ptr, x4 is a temp reg.
  RVTEST_SIGUPD(x19, x5, x4, x9, I_blt_cg_cp_rs1_b30, I_blt_cg_cp_rs1_b30_str)
    16d0:	0009a203          	lw	x4,0(x19)
    16d4:	00920863          	beq	x4,x9,16e4 <I_blt_cg_cp_rs1_b30+0x1c>
    16d8:	1a5082ef          	jal	x5,a07c <failedtest_x5_x4>
    16dc:	000016c8          	.word	0x000016c8
    16e0:	0000d0a7          	.word	0x0000d0a7
    16e4:	00498993          	addi	x19,x19,4

# Testcase cp_rs1 (Test source rs1 = x31)
  RVTEST_TESTDATA_LOAD_INT(x2, x31) # load rs1: x31 = 0x01c4ee78
    16e8:	00012f83          	lw	x31,0(x2)
    16ec:	00410113          	addi	x2,x2,4
  RVTEST_TESTDATA_LOAD_INT(x2, x1) # load rs2: x1 = 0xecb95c6e
    16f0:	00012083          	lw	x1,0(x2)
    16f4:	00410113          	addi	x2,x2,4
  RVTEST_TESTDATA_LOAD_INT(x2, x14) # load branch taken value: x14 = 0x49b8c698
    16f8:	00012703          	lw	x14,0(x2)
    16fc:	00410113          	addi	x2,x2,4

00001700 <I_blt_cg_cp_rs1_b31>:
I_blt_cg_cp_rs1_b31:
  blt x31, x1, 1f # perform operation
    1700:	001fc463          	blt	x31,x1,1708 <I_blt_cg_cp_rs1_b31+0x8>
  LI(x14, -1) # branch not taken, set temp_reg to 0
    1704:	fff00713          	addi	x14,x0,-1
1:
  # Check if x14 contains the expected result. x19 is the signature ptr, x5 is the link ptr, x4 is a temp reg.
  RVTEST_SIGUPD(x19, x5, x4, x14, I_blt_cg_cp_rs1_b31, I_blt_cg_cp_rs1_b31_str)
    1708:	0009a203          	lw	x4,0(x19)
    170c:	00e20863          	beq	x4,x14,171c <I_blt_cg_cp_rs1_b31+0x1c>
    1710:	16d082ef          	jal	x5,a07c <failedtest_x5_x4>
    1714:	00001700          	.word	0x00001700
    1718:	0000d0d6          	.word	0x0000d0d6
    171c:	00498993          	addi	x19,x19,4
/////////////////////////////////
// cp_rs2
/////////////////////////////////

# Testcase cp_rs2 (Test source rs2 = x0)
  RVTEST_TESTDATA_LOAD_INT(x2, x10) # load rs1: x10 = 0xd1c96e0f
    1720:	00012503          	lw	x10,0(x2)
    1724:	00410113          	addi	x2,x2,4
  RVTEST_TESTDATA_LOAD_INT(x2, x0) # load rs2: x0 = 0xde7f9c0e
    1728:	00012003          	lw	x0,0(x2)
    172c:	00410113          	addi	x2,x2,4
  RVTEST_TESTDATA_LOAD_INT(x2, x23) # load branch taken value: x23 = 0xb3c883d0
    1730:	00012b83          	lw	x23,0(x2)
    1734:	00410113          	addi	x2,x2,4

00001738 <I_blt_cg_cp_rs2_b0>:
I_blt_cg_cp_rs2_b0:
  blt x10, x0, 1f # perform operation
    1738:	00054463          	blt	x10,x0,1740 <I_blt_cg_cp_rs2_b0+0x8>
  LI(x23, -1) # branch not taken, set temp_reg to 0
    173c:	fff00b93          	addi	x23,x0,-1
1:
  # Check if x23 contains the expected result. x19 is the signature ptr, x5 is the link ptr, x4 is a temp reg.
  RVTEST_SIGUPD(x19, x5, x4, x23, I_blt_cg_cp_rs2_b0, I_blt_cg_cp_rs2_b0_str)
    1740:	0009a203          	lw	x4,0(x19)
    1744:	01720863          	beq	x4,x23,1754 <I_blt_cg_cp_rs2_b0+0x1c>
    1748:	135082ef          	jal	x5,a07c <failedtest_x5_x4>
    174c:	00001738          	.word	0x00001738
    1750:	0000d105          	.word	0x0000d105
    1754:	00498993          	addi	x19,x19,4

# Testcase cp_rs2 (Test source rs2 = x1)
  RVTEST_TESTDATA_LOAD_INT(x2, x9) # load rs1: x9 = 0x44fe664a
    1758:	00012483          	lw	x9,0(x2)
    175c:	00410113          	addi	x2,x2,4
  RVTEST_TESTDATA_LOAD_INT(x2, x1) # load rs2: x1 = 0xd30255b5
    1760:	00012083          	lw	x1,0(x2)
    1764:	00410113          	addi	x2,x2,4
  RVTEST_TESTDATA_LOAD_INT(x2, x17) # load branch taken value: x17 = 0xe57be130
    1768:	00012883          	lw	x17,0(x2)
    176c:	00410113          	addi	x2,x2,4

00001770 <I_blt_cg_cp_rs2_b1>:
I_blt_cg_cp_rs2_b1:
  blt x9, x1, 1f # perform operation
    1770:	0014c463          	blt	x9,x1,1778 <I_blt_cg_cp_rs2_b1+0x8>
  LI(x17, -1) # branch not taken, set temp_reg to 0
    1774:	fff00893          	addi	x17,x0,-1
1:
  # Check if x17 contains the expected result. x19 is the signature ptr, x5 is the link ptr, x4 is a temp reg.
  RVTEST_SIGUPD(x19, x5, x4, x17, I_blt_cg_cp_rs2_b1, I_blt_cg_cp_rs2_b1_str)
    1778:	0009a203          	lw	x4,0(x19)
    177c:	01120863          	beq	x4,x17,178c <I_blt_cg_cp_rs2_b1+0x1c>
    1780:	0fd082ef          	jal	x5,a07c <failedtest_x5_x4>
    1784:	00001770          	.word	0x00001770
    1788:	0000d133          	.word	0x0000d133
    178c:	00498993          	addi	x19,x19,4

  mv x12, x2 # switch data pointer register to avoid conflict with test
    1790:	00010613          	addi	x12,x2,0
# Testcase cp_rs2 (Test source rs2 = x2)
  RVTEST_TESTDATA_LOAD_INT(x12, x15) # load rs1: x15 = 0x531e2421
    1794:	00062783          	lw	x15,0(x12)
    1798:	00460613          	addi	x12,x12,4
  RVTEST_TESTDATA_LOAD_INT(x12, x2) # load rs2: x2 = 0xa8f7cc44
    179c:	00062103          	lw	x2,0(x12)
    17a0:	00460613          	addi	x12,x12,4
  RVTEST_TESTDATA_LOAD_INT(x12, x14) # load branch taken value: x14 = 0xd60ad3dc
    17a4:	00062703          	lw	x14,0(x12)
    17a8:	00460613          	addi	x12,x12,4

000017ac <I_blt_cg_cp_rs2_b2>:
I_blt_cg_cp_rs2_b2:
  blt x15, x2, 1f # perform operation
    17ac:	0027c463          	blt	x15,x2,17b4 <I_blt_cg_cp_rs2_b2+0x8>
  LI(x14, -1) # branch not taken, set temp_reg to 0
    17b0:	fff00713          	addi	x14,x0,-1
1:
  # Check if x14 contains the expected result. x19 is the signature ptr, x5 is the link ptr, x4 is a temp reg.
  RVTEST_SIGUPD(x19, x5, x4, x14, I_blt_cg_cp_rs2_b2, I_blt_cg_cp_rs2_b2_str)
    17b4:	0009a203          	lw	x4,0(x19)
    17b8:	00e20863          	beq	x4,x14,17c8 <I_blt_cg_cp_rs2_b2+0x1c>
    17bc:	0c1082ef          	jal	x5,a07c <failedtest_x5_x4>
    17c0:	000017ac          	.word	0x000017ac
    17c4:	0000d161          	.word	0x0000d161
    17c8:	00498993          	addi	x19,x19,4

# Testcase cp_rs2 (Test source rs2 = x3)
  RVTEST_TESTDATA_LOAD_INT(x12, x6) # load rs1: x6 = 0xe57939de
    17cc:	00062303          	lw	x6,0(x12)
    17d0:	00460613          	addi	x12,x12,4
  RVTEST_TESTDATA_LOAD_INT(x12, x3) # load rs2: x3 = 0x26577a97
    17d4:	00062183          	lw	x3,0(x12)
    17d8:	00460613          	addi	x12,x12,4
  RVTEST_TESTDATA_LOAD_INT(x12, x29) # load branch taken value: x29 = 0x81837f49
    17dc:	00062e83          	lw	x29,0(x12)
    17e0:	00460613          	addi	x12,x12,4

000017e4 <I_blt_cg_cp_rs2_b3>:
I_blt_cg_cp_rs2_b3:
  blt x6, x3, 1f # perform operation
    17e4:	00334463          	blt	x6,x3,17ec <I_blt_cg_cp_rs2_b3+0x8>
  LI(x29, -1) # branch not taken, set temp_reg to 0
    17e8:	fff00e93          	addi	x29,x0,-1
1:
  # Check if x29 contains the expected result. x19 is the signature ptr, x5 is the link ptr, x4 is a temp reg.
  RVTEST_SIGUPD(x19, x5, x4, x29, I_blt_cg_cp_rs2_b3, I_blt_cg_cp_rs2_b3_str)
    17ec:	0009a203          	lw	x4,0(x19)
    17f0:	01d20863          	beq	x4,x29,1800 <I_blt_cg_cp_rs2_b3+0x1c>
    17f4:	089082ef          	jal	x5,a07c <failedtest_x5_x4>
    17f8:	000017e4          	.word	0x000017e4
    17fc:	0000d18f          	.word	0x0000d18f
    1800:	00498993          	addi	x19,x19,4

  mv x13, x4 # switch temp register to avoid conflict with test
    1804:	00020693          	addi	x13,x4,0 # 0 <rvtest_entry_point>
  mv x14, x5 # switch link pointer register to avoid conflict with test
    1808:	00028713          	addi	x14,x5,0
# Testcase cp_rs2 (Test source rs2 = x4)
  RVTEST_TESTDATA_LOAD_INT(x12, x21) # load rs1: x21 = 0xd716dee8
    180c:	00062a83          	lw	x21,0(x12)
    1810:	00460613          	addi	x12,x12,4
  RVTEST_TESTDATA_LOAD_INT(x12, x4) # load rs2: x4 = 0x14e2b288
    1814:	00062203          	lw	x4,0(x12)
    1818:	00460613          	addi	x12,x12,4
  RVTEST_TESTDATA_LOAD_INT(x12, x6) # load branch taken value: x6 = 0x9879d504
    181c:	00062303          	lw	x6,0(x12)
    1820:	00460613          	addi	x12,x12,4

00001824 <I_blt_cg_cp_rs2_b4>:
I_blt_cg_cp_rs2_b4:
  blt x21, x4, 1f # perform operation
    1824:	004ac463          	blt	x21,x4,182c <I_blt_cg_cp_rs2_b4+0x8>
  LI(x6, -1) # branch not taken, set temp_reg to 0
    1828:	fff00313          	addi	x6,x0,-1
1:
  # Check if x6 contains the expected result. x19 is the signature ptr, x14 is the link ptr, x13 is a temp reg.
  RVTEST_SIGUPD(x19, x14, x13, x6, I_blt_cg_cp_rs2_b4, I_blt_cg_cp_rs2_b4_str)
    182c:	0009a683          	lw	x13,0(x19)
    1830:	00668863          	beq	x13,x6,1840 <I_blt_cg_cp_rs2_b4+0x1c>
    1834:	0890876f          	jal	x14,a0bc <failedtest_x14_x13>
    1838:	00001824          	.word	0x00001824
    183c:	0000d1bd          	.word	0x0000d1bd
    1840:	00498993          	addi	x19,x19,4

# Testcase cp_rs2 (Test source rs2 = x5)
  RVTEST_TESTDATA_LOAD_INT(x12, x16) # load rs1: x16 = 0x33899615
    1844:	00062803          	lw	x16,0(x12)
    1848:	00460613          	addi	x12,x12,4
  RVTEST_TESTDATA_LOAD_INT(x12, x5) # load rs2: x5 = 0x3710204d
    184c:	00062283          	lw	x5,0(x12)
    1850:	00460613          	addi	x12,x12,4
  RVTEST_TESTDATA_LOAD_INT(x12, x30) # load branch taken value: x30 = 0x7f428c24
    1854:	00062f03          	lw	x30,0(x12)
    1858:	00460613          	addi	x12,x12,4

0000185c <I_blt_cg_cp_rs2_b5>:
I_blt_cg_cp_rs2_b5:
  blt x16, x5, 1f # perform operation
    185c:	00584463          	blt	x16,x5,1864 <I_blt_cg_cp_rs2_b5+0x8>
  LI(x30, -1) # branch not taken, set temp_reg to 0
    1860:	fff00f13          	addi	x30,x0,-1
1:
  # Check if x30 contains the expected result. x19 is the signature ptr, x14 is the link ptr, x13 is a temp reg.
  RVTEST_SIGUPD(x19, x14, x13, x30, I_blt_cg_cp_rs2_b5, I_blt_cg_cp_rs2_b5_str)
    1864:	0009a683          	lw	x13,0(x19)
    1868:	01e68863          	beq	x13,x30,1878 <I_blt_cg_cp_rs2_b5+0x1c>
    186c:	0510876f          	jal	x14,a0bc <failedtest_x14_x13>
    1870:	0000185c          	.word	0x0000185c
    1874:	0000d1eb          	.word	0x0000d1eb
    1878:	00498993          	addi	x19,x19,4

# Testcase cp_rs2 (Test source rs2 = x6)
  RVTEST_TESTDATA_LOAD_INT(x12, x3) # load rs1: x3 = 0xb24037ed
    187c:	00062183          	lw	x3,0(x12)
    1880:	00460613          	addi	x12,x12,4
  RVTEST_TESTDATA_LOAD_INT(x12, x6) # load rs2: x6 = 0x12303a8b
    1884:	00062303          	lw	x6,0(x12)
    1888:	00460613          	addi	x12,x12,4
  RVTEST_TESTDATA_LOAD_INT(x12, x1) # load branch taken value: x1 = 0xc7b5cb1e
    188c:	00062083          	lw	x1,0(x12)
    1890:	00460613          	addi	x12,x12,4

00001894 <I_blt_cg_cp_rs2_b6>:
I_blt_cg_cp_rs2_b6:
  blt x3, x6, 1f # perform operation
    1894:	0061c463          	blt	x3,x6,189c <I_blt_cg_cp_rs2_b6+0x8>
  LI(x1, -1) # branch not taken, set temp_reg to 0
    1898:	fff00093          	addi	x1,x0,-1
1:
  # Check if x1 contains the expected result. x19 is the signature ptr, x14 is the link ptr, x13 is a temp reg.
  RVTEST_SIGUPD(x19, x14, x13, x1, I_blt_cg_cp_rs2_b6, I_blt_cg_cp_rs2_b6_str)
    189c:	0009a683          	lw	x13,0(x19)
    18a0:	00168863          	beq	x13,x1,18b0 <I_blt_cg_cp_rs2_b6+0x1c>
    18a4:	0190876f          	jal	x14,a0bc <failedtest_x14_x13>
    18a8:	00001894          	.word	0x00001894
    18ac:	0000d219          	.word	0x0000d219
    18b0:	00498993          	addi	x19,x19,4

# Testcase cp_rs2 (Test source rs2 = x7)
  RVTEST_TESTDATA_LOAD_INT(x12, x10) # load rs1: x10 = 0xbbaca9dd
    18b4:	00062503          	lw	x10,0(x12)
    18b8:	00460613          	addi	x12,x12,4
  RVTEST_TESTDATA_LOAD_INT(x12, x7) # load rs2: x7 = 0xd6e5b8c9
    18bc:	00062383          	lw	x7,0(x12)
    18c0:	00460613          	addi	x12,x12,4
  RVTEST_TESTDATA_LOAD_INT(x12, x9) # load branch taken value: x9 = 0x175b535f
    18c4:	00062483          	lw	x9,0(x12)
    18c8:	00460613          	addi	x12,x12,4

000018cc <I_blt_cg_cp_rs2_b7>:
I_blt_cg_cp_rs2_b7:
  blt x10, x7, 1f # perform operation
    18cc:	00754463          	blt	x10,x7,18d4 <I_blt_cg_cp_rs2_b7+0x8>
  LI(x9, -1) # branch not taken, set temp_reg to 0
    18d0:	fff00493          	addi	x9,x0,-1
1:
  # Check if x9 contains the expected result. x19 is the signature ptr, x14 is the link ptr, x13 is a temp reg.
  RVTEST_SIGUPD(x19, x14, x13, x9, I_blt_cg_cp_rs2_b7, I_blt_cg_cp_rs2_b7_str)
    18d4:	0009a683          	lw	x13,0(x19)
    18d8:	00968863          	beq	x13,x9,18e8 <I_blt_cg_cp_rs2_b7+0x1c>
    18dc:	7e00876f          	jal	x14,a0bc <failedtest_x14_x13>
    18e0:	000018cc          	.word	0x000018cc
    18e4:	0000d247          	.word	0x0000d247
    18e8:	00498993          	addi	x19,x19,4

# Testcase cp_rs2 (Test source rs2 = x8)
  RVTEST_TESTDATA_LOAD_INT(x12, x29) # load rs1: x29 = 0xa1b2cfed
    18ec:	00062e83          	lw	x29,0(x12)
    18f0:	00460613          	addi	x12,x12,4
  RVTEST_TESTDATA_LOAD_INT(x12, x8) # load rs2: x8 = 0x36a125a2
    18f4:	00062403          	lw	x8,0(x12)
    18f8:	00460613          	addi	x12,x12,4
  RVTEST_TESTDATA_LOAD_INT(x12, x15) # load branch taken value: x15 = 0xd8b96312
    18fc:	00062783          	lw	x15,0(x12)
    1900:	00460613          	addi	x12,x12,4

00001904 <I_blt_cg_cp_rs2_b8>:
I_blt_cg_cp_rs2_b8:
  blt x29, x8, 1f # perform operation
    1904:	008ec463          	blt	x29,x8,190c <I_blt_cg_cp_rs2_b8+0x8>
  LI(x15, -1) # branch not taken, set temp_reg to 0
    1908:	fff00793          	addi	x15,x0,-1
1:
  # Check if x15 contains the expected result. x19 is the signature ptr, x14 is the link ptr, x13 is a temp reg.
  RVTEST_SIGUPD(x19, x14, x13, x15, I_blt_cg_cp_rs2_b8, I_blt_cg_cp_rs2_b8_str)
    190c:	0009a683          	lw	x13,0(x19)
    1910:	00f68863          	beq	x13,x15,1920 <I_blt_cg_cp_rs2_b8+0x1c>
    1914:	7a80876f          	jal	x14,a0bc <failedtest_x14_x13>
    1918:	00001904          	.word	0x00001904
    191c:	0000d275          	.word	0x0000d275
    1920:	00498993          	addi	x19,x19,4

# Testcase cp_rs2 (Test source rs2 = x9)
  RVTEST_TESTDATA_LOAD_INT(x12, x11) # load rs1: x11 = 0x76c329bf
    1924:	00062583          	lw	x11,0(x12)
    1928:	00460613          	addi	x12,x12,4
  RVTEST_TESTDATA_LOAD_INT(x12, x9) # load rs2: x9 = 0x5c0e05d2
    192c:	00062483          	lw	x9,0(x12)
    1930:	00460613          	addi	x12,x12,4
  RVTEST_TESTDATA_LOAD_INT(x12, x5) # load branch taken value: x5 = 0x5b96d828
    1934:	00062283          	lw	x5,0(x12)
    1938:	00460613          	addi	x12,x12,4

0000193c <I_blt_cg_cp_rs2_b9>:
I_blt_cg_cp_rs2_b9:
  blt x11, x9, 1f # perform operation
    193c:	0095c463          	blt	x11,x9,1944 <I_blt_cg_cp_rs2_b9+0x8>
  LI(x5, -1) # branch not taken, set temp_reg to 0
    1940:	fff00293          	addi	x5,x0,-1
1:
  # Check if x5 contains the expected result. x19 is the signature ptr, x14 is the link ptr, x13 is a temp reg.
  RVTEST_SIGUPD(x19, x14, x13, x5, I_blt_cg_cp_rs2_b9, I_blt_cg_cp_rs2_b9_str)
    1944:	0009a683          	lw	x13,0(x19)
    1948:	00568863          	beq	x13,x5,1958 <I_blt_cg_cp_rs2_b9+0x1c>
    194c:	7700876f          	jal	x14,a0bc <failedtest_x14_x13>
    1950:	0000193c          	.word	0x0000193c
    1954:	0000d2a3          	.word	0x0000d2a3
    1958:	00498993          	addi	x19,x19,4

# Testcase cp_rs2 (Test source rs2 = x10)
  RVTEST_TESTDATA_LOAD_INT(x12, x7) # load rs1: x7 = 0xc92c2c14
    195c:	00062383          	lw	x7,0(x12)
    1960:	00460613          	addi	x12,x12,4
  RVTEST_TESTDATA_LOAD_INT(x12, x10) # load rs2: x10 = 0x47642a88
    1964:	00062503          	lw	x10,0(x12)
    1968:	00460613          	addi	x12,x12,4
  RVTEST_TESTDATA_LOAD_INT(x12, x31) # load branch taken value: x31 = 0xc6186efc
    196c:	00062f83          	lw	x31,0(x12)
    1970:	00460613          	addi	x12,x12,4

00001974 <I_blt_cg_cp_rs2_b10>:
I_blt_cg_cp_rs2_b10:
  blt x7, x10, 1f # perform operation
    1974:	00a3c463          	blt	x7,x10,197c <I_blt_cg_cp_rs2_b10+0x8>
  LI(x31, -1) # branch not taken, set temp_reg to 0
    1978:	fff00f93          	addi	x31,x0,-1
1:
  # Check if x31 contains the expected result. x19 is the signature ptr, x14 is the link ptr, x13 is a temp reg.
  RVTEST_SIGUPD(x19, x14, x13, x31, I_blt_cg_cp_rs2_b10, I_blt_cg_cp_rs2_b10_str)
    197c:	0009a683          	lw	x13,0(x19)
    1980:	01f68863          	beq	x13,x31,1990 <I_blt_cg_cp_rs2_b10+0x1c>
    1984:	7380876f          	jal	x14,a0bc <failedtest_x14_x13>
    1988:	00001974          	.word	0x00001974
    198c:	0000d2d1          	.word	0x0000d2d1
    1990:	00498993          	addi	x19,x19,4

# Testcase cp_rs2 (Test source rs2 = x11)
  RVTEST_TESTDATA_LOAD_INT(x12, x30) # load rs1: x30 = 0xaa49875f
    1994:	00062f03          	lw	x30,0(x12)
    1998:	00460613          	addi	x12,x12,4
  RVTEST_TESTDATA_LOAD_INT(x12, x11) # load rs2: x11 = 0xaed0c339
    199c:	00062583          	lw	x11,0(x12)
    19a0:	00460613          	addi	x12,x12,4
  RVTEST_TESTDATA_LOAD_INT(x12, x16) # load branch taken value: x16 = 0x126bfe74
    19a4:	00062803          	lw	x16,0(x12)
    19a8:	00460613          	addi	x12,x12,4

000019ac <I_blt_cg_cp_rs2_b11>:
I_blt_cg_cp_rs2_b11:
  blt x30, x11, 1f # perform operation
    19ac:	00bf4463          	blt	x30,x11,19b4 <I_blt_cg_cp_rs2_b11+0x8>
  LI(x16, -1) # branch not taken, set temp_reg to 0
    19b0:	fff00813          	addi	x16,x0,-1
1:
  # Check if x16 contains the expected result. x19 is the signature ptr, x14 is the link ptr, x13 is a temp reg.
  RVTEST_SIGUPD(x19, x14, x13, x16, I_blt_cg_cp_rs2_b11, I_blt_cg_cp_rs2_b11_str)
    19b4:	0009a683          	lw	x13,0(x19)
    19b8:	01068863          	beq	x13,x16,19c8 <I_blt_cg_cp_rs2_b11+0x1c>
    19bc:	7000876f          	jal	x14,a0bc <failedtest_x14_x13>
    19c0:	000019ac          	.word	0x000019ac
    19c4:	0000d300          	.word	0x0000d300
    19c8:	00498993          	addi	x19,x19,4

  mv x30, x12 # switch data pointer register to avoid conflict with test
    19cc:	00060f13          	addi	x30,x12,0
# Testcase cp_rs2 (Test source rs2 = x12)
  RVTEST_TESTDATA_LOAD_INT(x30, x28) # load rs1: x28 = 0x684dbf96
    19d0:	000f2e03          	lw	x28,0(x30)
    19d4:	004f0f13          	addi	x30,x30,4
  RVTEST_TESTDATA_LOAD_INT(x30, x12) # load rs2: x12 = 0x855fd0c1
    19d8:	000f2603          	lw	x12,0(x30)
    19dc:	004f0f13          	addi	x30,x30,4
  RVTEST_TESTDATA_LOAD_INT(x30, x4) # load branch taken value: x4 = 0x6bf4b36c
    19e0:	000f2203          	lw	x4,0(x30)
    19e4:	004f0f13          	addi	x30,x30,4

000019e8 <I_blt_cg_cp_rs2_b12>:
I_blt_cg_cp_rs2_b12:
  blt x28, x12, 1f # perform operation
    19e8:	00ce4463          	blt	x28,x12,19f0 <I_blt_cg_cp_rs2_b12+0x8>
  LI(x4, -1) # branch not taken, set temp_reg to 0
    19ec:	fff00213          	addi	x4,x0,-1
1:
  # Check if x4 contains the expected result. x19 is the signature ptr, x14 is the link ptr, x13 is a temp reg.
  RVTEST_SIGUPD(x19, x14, x13, x4, I_blt_cg_cp_rs2_b12, I_blt_cg_cp_rs2_b12_str)
    19f0:	0009a683          	lw	x13,0(x19)
    19f4:	00468863          	beq	x13,x4,1a04 <I_blt_cg_cp_rs2_b12+0x1c>
    19f8:	6c40876f          	jal	x14,a0bc <failedtest_x14_x13>
    19fc:	000019e8          	.word	0x000019e8
    1a00:	0000d32f          	.word	0x0000d32f
    1a04:	00498993          	addi	x19,x19,4

  mv x4, x13 # switch temp register to avoid conflict with test
    1a08:	00068213          	addi	x4,x13,0
  mv x5, x14 # switch link pointer register to avoid conflict with test
    1a0c:	00070293          	addi	x5,x14,0
# Testcase cp_rs2 (Test source rs2 = x13)
  RVTEST_TESTDATA_LOAD_INT(x30, x21) # load rs1: x21 = 0xfb4c6f79
    1a10:	000f2a83          	lw	x21,0(x30)
    1a14:	004f0f13          	addi	x30,x30,4
  RVTEST_TESTDATA_LOAD_INT(x30, x13) # load rs2: x13 = 0xe3572452
    1a18:	000f2683          	lw	x13,0(x30)
    1a1c:	004f0f13          	addi	x30,x30,4
  RVTEST_TESTDATA_LOAD_INT(x30, x11) # load branch taken value: x11 = 0x954b983c
    1a20:	000f2583          	lw	x11,0(x30)
    1a24:	004f0f13          	addi	x30,x30,4

00001a28 <I_blt_cg_cp_rs2_b13>:
I_blt_cg_cp_rs2_b13:
  blt x21, x13, 1f # perform operation
    1a28:	00dac463          	blt	x21,x13,1a30 <I_blt_cg_cp_rs2_b13+0x8>
  LI(x11, -1) # branch not taken, set temp_reg to 0
    1a2c:	fff00593          	addi	x11,x0,-1
1:
  # Check if x11 contains the expected result. x19 is the signature ptr, x5 is the link ptr, x4 is a temp reg.
  RVTEST_SIGUPD(x19, x5, x4, x11, I_blt_cg_cp_rs2_b13, I_blt_cg_cp_rs2_b13_str)
    1a30:	0009a203          	lw	x4,0(x19)
    1a34:	00b20863          	beq	x4,x11,1a44 <I_blt_cg_cp_rs2_b13+0x1c>
    1a38:	644082ef          	jal	x5,a07c <failedtest_x5_x4>
    1a3c:	00001a28          	.word	0x00001a28
    1a40:	0000d35e          	.word	0x0000d35e
    1a44:	00498993          	addi	x19,x19,4

# Testcase cp_rs2 (Test source rs2 = x14)
  RVTEST_TESTDATA_LOAD_INT(x30, x18) # load rs1: x18 = 0x6562960b
    1a48:	000f2903          	lw	x18,0(x30)
    1a4c:	004f0f13          	addi	x30,x30,4
  RVTEST_TESTDATA_LOAD_INT(x30, x14) # load rs2: x14 = 0x7a5996a8
    1a50:	000f2703          	lw	x14,0(x30)
    1a54:	004f0f13          	addi	x30,x30,4
  RVTEST_TESTDATA_LOAD_INT(x30, x11) # load branch taken value: x11 = 0xe6bc5200
    1a58:	000f2583          	lw	x11,0(x30)
    1a5c:	004f0f13          	addi	x30,x30,4

00001a60 <I_blt_cg_cp_rs2_b14>:
I_blt_cg_cp_rs2_b14:
  blt x18, x14, 1f # perform operation
    1a60:	00e94463          	blt	x18,x14,1a68 <I_blt_cg_cp_rs2_b14+0x8>
  LI(x11, -1) # branch not taken, set temp_reg to 0
    1a64:	fff00593          	addi	x11,x0,-1
1:
  # Check if x11 contains the expected result. x19 is the signature ptr, x5 is the link ptr, x4 is a temp reg.
  RVTEST_SIGUPD(x19, x5, x4, x11, I_blt_cg_cp_rs2_b14, I_blt_cg_cp_rs2_b14_str)
    1a68:	0009a203          	lw	x4,0(x19)
    1a6c:	00b20863          	beq	x4,x11,1a7c <I_blt_cg_cp_rs2_b14+0x1c>
    1a70:	60c082ef          	jal	x5,a07c <failedtest_x5_x4>
    1a74:	00001a60          	.word	0x00001a60
    1a78:	0000d38d          	.word	0x0000d38d
    1a7c:	00498993          	addi	x19,x19,4

# Testcase cp_rs2 (Test source rs2 = x15)
  RVTEST_TESTDATA_LOAD_INT(x30, x7) # load rs1: x7 = 0x75e8df82
    1a80:	000f2383          	lw	x7,0(x30)
    1a84:	004f0f13          	addi	x30,x30,4
  RVTEST_TESTDATA_LOAD_INT(x30, x15) # load rs2: x15 = 0xa2d4e9e4
    1a88:	000f2783          	lw	x15,0(x30)
    1a8c:	004f0f13          	addi	x30,x30,4
  RVTEST_TESTDATA_LOAD_INT(x30, x22) # load branch taken value: x22 = 0xeea23dd7
    1a90:	000f2b03          	lw	x22,0(x30)
    1a94:	004f0f13          	addi	x30,x30,4

00001a98 <I_blt_cg_cp_rs2_b15>:
I_blt_cg_cp_rs2_b15:
  blt x7, x15, 1f # perform operation
    1a98:	00f3c463          	blt	x7,x15,1aa0 <I_blt_cg_cp_rs2_b15+0x8>
  LI(x22, -1) # branch not taken, set temp_reg to 0
    1a9c:	fff00b13          	addi	x22,x0,-1
1:
  # Check if x22 contains the expected result. x19 is the signature ptr, x5 is the link ptr, x4 is a temp reg.
  RVTEST_SIGUPD(x19, x5, x4, x22, I_blt_cg_cp_rs2_b15, I_blt_cg_cp_rs2_b15_str)
    1aa0:	0009a203          	lw	x4,0(x19)
    1aa4:	01620863          	beq	x4,x22,1ab4 <I_blt_cg_cp_rs2_b15+0x1c>
    1aa8:	5d4082ef          	jal	x5,a07c <failedtest_x5_x4>
    1aac:	00001a98          	.word	0x00001a98
    1ab0:	0000d3bc          	.word	0x0000d3bc
    1ab4:	00498993          	addi	x19,x19,4

# Testcase cp_rs2 (Test source rs2 = x16)
  RVTEST_TESTDATA_LOAD_INT(x30, x9) # load rs1: x9 = 0x53e3de05
    1ab8:	000f2483          	lw	x9,0(x30)
    1abc:	004f0f13          	addi	x30,x30,4
  RVTEST_TESTDATA_LOAD_INT(x30, x16) # load rs2: x16 = 0x5d16f529
    1ac0:	000f2803          	lw	x16,0(x30)
    1ac4:	004f0f13          	addi	x30,x30,4
  RVTEST_TESTDATA_LOAD_INT(x30, x3) # load branch taken value: x3 = 0x285123dc
    1ac8:	000f2183          	lw	x3,0(x30)
    1acc:	004f0f13          	addi	x30,x30,4

00001ad0 <I_blt_cg_cp_rs2_b16>:
I_blt_cg_cp_rs2_b16:
  blt x9, x16, 1f # perform operation
    1ad0:	0104c463          	blt	x9,x16,1ad8 <I_blt_cg_cp_rs2_b16+0x8>
  LI(x3, -1) # branch not taken, set temp_reg to 0
    1ad4:	fff00193          	addi	x3,x0,-1
1:
  # Check if x3 contains the expected result. x19 is the signature ptr, x5 is the link ptr, x4 is a temp reg.
  RVTEST_SIGUPD(x19, x5, x4, x3, I_blt_cg_cp_rs2_b16, I_blt_cg_cp_rs2_b16_str)
    1ad8:	0009a203          	lw	x4,0(x19)
    1adc:	00320863          	beq	x4,x3,1aec <I_blt_cg_cp_rs2_b16+0x1c>
    1ae0:	59c082ef          	jal	x5,a07c <failedtest_x5_x4>
    1ae4:	00001ad0          	.word	0x00001ad0
    1ae8:	0000d3eb          	.word	0x0000d3eb
    1aec:	00498993          	addi	x19,x19,4

# Testcase cp_rs2 (Test source rs2 = x17)
  RVTEST_TESTDATA_LOAD_INT(x30, x16) # load rs1: x16 = 0xc3f176cd
    1af0:	000f2803          	lw	x16,0(x30)
    1af4:	004f0f13          	addi	x30,x30,4
  RVTEST_TESTDATA_LOAD_INT(x30, x17) # load rs2: x17 = 0x5366f223
    1af8:	000f2883          	lw	x17,0(x30)
    1afc:	004f0f13          	addi	x30,x30,4
  RVTEST_TESTDATA_LOAD_INT(x30, x15) # load branch taken value: x15 = 0xf5854ba4
    1b00:	000f2783          	lw	x15,0(x30)
    1b04:	004f0f13          	addi	x30,x30,4

00001b08 <I_blt_cg_cp_rs2_b17>:
I_blt_cg_cp_rs2_b17:
  blt x16, x17, 1f # perform operation
    1b08:	01184463          	blt	x16,x17,1b10 <I_blt_cg_cp_rs2_b17+0x8>
  LI(x15, -1) # branch not taken, set temp_reg to 0
    1b0c:	fff00793          	addi	x15,x0,-1
1:
  # Check if x15 contains the expected result. x19 is the signature ptr, x5 is the link ptr, x4 is a temp reg.
  RVTEST_SIGUPD(x19, x5, x4, x15, I_blt_cg_cp_rs2_b17, I_blt_cg_cp_rs2_b17_str)
    1b10:	0009a203          	lw	x4,0(x19)
    1b14:	00f20863          	beq	x4,x15,1b24 <I_blt_cg_cp_rs2_b17+0x1c>
    1b18:	564082ef          	jal	x5,a07c <failedtest_x5_x4>
    1b1c:	00001b08          	.word	0x00001b08
    1b20:	0000d41a          	.word	0x0000d41a
    1b24:	00498993          	addi	x19,x19,4

# Testcase cp_rs2 (Test source rs2 = x18)
  RVTEST_TESTDATA_LOAD_INT(x30, x15) # load rs1: x15 = 0x40f40072
    1b28:	000f2783          	lw	x15,0(x30)
    1b2c:	004f0f13          	addi	x30,x30,4
  RVTEST_TESTDATA_LOAD_INT(x30, x18) # load rs2: x18 = 0x1ad49b7d
    1b30:	000f2903          	lw	x18,0(x30)
    1b34:	004f0f13          	addi	x30,x30,4
  RVTEST_TESTDATA_LOAD_INT(x30, x26) # load branch taken value: x26 = 0x998d2427
    1b38:	000f2d03          	lw	x26,0(x30)
    1b3c:	004f0f13          	addi	x30,x30,4

00001b40 <I_blt_cg_cp_rs2_b18>:
I_blt_cg_cp_rs2_b18:
  blt x15, x18, 1f # perform operation
    1b40:	0127c463          	blt	x15,x18,1b48 <I_blt_cg_cp_rs2_b18+0x8>
  LI(x26, -1) # branch not taken, set temp_reg to 0
    1b44:	fff00d13          	addi	x26,x0,-1
1:
  # Check if x26 contains the expected result. x19 is the signature ptr, x5 is the link ptr, x4 is a temp reg.
  RVTEST_SIGUPD(x19, x5, x4, x26, I_blt_cg_cp_rs2_b18, I_blt_cg_cp_rs2_b18_str)
    1b48:	0009a203          	lw	x4,0(x19)
    1b4c:	01a20863          	beq	x4,x26,1b5c <I_blt_cg_cp_rs2_b18+0x1c>
    1b50:	52c082ef          	jal	x5,a07c <failedtest_x5_x4>
    1b54:	00001b40          	.word	0x00001b40
    1b58:	0000d449          	.word	0x0000d449
    1b5c:	00498993          	addi	x19,x19,4

  mv x17, x19 # switch signature pointer register to avoid conflict with test
    1b60:	00098893          	addi	x17,x19,0
# Testcase cp_rs2 (Test source rs2 = x19)
  RVTEST_TESTDATA_LOAD_INT(x30, x1) # load rs1: x1 = 0x9eb0e53f
    1b64:	000f2083          	lw	x1,0(x30)
    1b68:	004f0f13          	addi	x30,x30,4
  RVTEST_TESTDATA_LOAD_INT(x30, x19) # load rs2: x19 = 0x64e76ec0
    1b6c:	000f2983          	lw	x19,0(x30)
    1b70:	004f0f13          	addi	x30,x30,4
  RVTEST_TESTDATA_LOAD_INT(x30, x15) # load branch taken value: x15 = 0x6edbd0f2
    1b74:	000f2783          	lw	x15,0(x30)
    1b78:	004f0f13          	addi	x30,x30,4

00001b7c <I_blt_cg_cp_rs2_b19>:
I_blt_cg_cp_rs2_b19:
  blt x1, x19, 1f # perform operation
    1b7c:	0130c463          	blt	x1,x19,1b84 <I_blt_cg_cp_rs2_b19+0x8>
  LI(x15, -1) # branch not taken, set temp_reg to 0
    1b80:	fff00793          	addi	x15,x0,-1
1:
  # Check if x15 contains the expected result. x17 is the signature ptr, x5 is the link ptr, x4 is a temp reg.
  RVTEST_SIGUPD(x17, x5, x4, x15, I_blt_cg_cp_rs2_b19, I_blt_cg_cp_rs2_b19_str)
    1b84:	0008a203          	lw	x4,0(x17)
    1b88:	00f20863          	beq	x4,x15,1b98 <I_blt_cg_cp_rs2_b19+0x1c>
    1b8c:	4f0082ef          	jal	x5,a07c <failedtest_x5_x4>
    1b90:	00001b7c          	.word	0x00001b7c
    1b94:	0000d478          	.word	0x0000d478
    1b98:	00488893          	addi	x17,x17,4

# Testcase cp_rs2 (Test source rs2 = x20)
  RVTEST_TESTDATA_LOAD_INT(x30, x9) # load rs1: x9 = 0xd6773d04
    1b9c:	000f2483          	lw	x9,0(x30)
    1ba0:	004f0f13          	addi	x30,x30,4
  RVTEST_TESTDATA_LOAD_INT(x30, x20) # load rs2: x20 = 0x3df93efa
    1ba4:	000f2a03          	lw	x20,0(x30)
    1ba8:	004f0f13          	addi	x30,x30,4
  RVTEST_TESTDATA_LOAD_INT(x30, x18) # load branch taken value: x18 = 0xc2bbefe7
    1bac:	000f2903          	lw	x18,0(x30)
    1bb0:	004f0f13          	addi	x30,x30,4

00001bb4 <I_blt_cg_cp_rs2_b20>:
I_blt_cg_cp_rs2_b20:
  blt x9, x20, 1f # perform operation
    1bb4:	0144c463          	blt	x9,x20,1bbc <I_blt_cg_cp_rs2_b20+0x8>
  LI(x18, -1) # branch not taken, set temp_reg to 0
    1bb8:	fff00913          	addi	x18,x0,-1
1:
  # Check if x18 contains the expected result. x17 is the signature ptr, x5 is the link ptr, x4 is a temp reg.
  RVTEST_SIGUPD(x17, x5, x4, x18, I_blt_cg_cp_rs2_b20, I_blt_cg_cp_rs2_b20_str)
    1bbc:	0008a203          	lw	x4,0(x17)
    1bc0:	01220863          	beq	x4,x18,1bd0 <I_blt_cg_cp_rs2_b20+0x1c>
    1bc4:	4b8082ef          	jal	x5,a07c <failedtest_x5_x4>
    1bc8:	00001bb4          	.word	0x00001bb4
    1bcc:	0000d4a7          	.word	0x0000d4a7
    1bd0:	00488893          	addi	x17,x17,4

# Testcase cp_rs2 (Test source rs2 = x21)
  RVTEST_TESTDATA_LOAD_INT(x30, x27) # load rs1: x27 = 0x2138104c
    1bd4:	000f2d83          	lw	x27,0(x30)
    1bd8:	004f0f13          	addi	x30,x30,4
  RVTEST_TESTDATA_LOAD_INT(x30, x21) # load rs2: x21 = 0xd923eeab
    1bdc:	000f2a83          	lw	x21,0(x30)
    1be0:	004f0f13          	addi	x30,x30,4
  RVTEST_TESTDATA_LOAD_INT(x30, x10) # load branch taken value: x10 = 0xf017552d
    1be4:	000f2503          	lw	x10,0(x30)
    1be8:	004f0f13          	addi	x30,x30,4

00001bec <I_blt_cg_cp_rs2_b21>:
I_blt_cg_cp_rs2_b21:
  blt x27, x21, 1f # perform operation
    1bec:	015dc463          	blt	x27,x21,1bf4 <I_blt_cg_cp_rs2_b21+0x8>
  LI(x10, -1) # branch not taken, set temp_reg to 0
    1bf0:	fff00513          	addi	x10,x0,-1
1:
  # Check if x10 contains the expected result. x17 is the signature ptr, x5 is the link ptr, x4 is a temp reg.
  RVTEST_SIGUPD(x17, x5, x4, x10, I_blt_cg_cp_rs2_b21, I_blt_cg_cp_rs2_b21_str)
    1bf4:	0008a203          	lw	x4,0(x17)
    1bf8:	00a20863          	beq	x4,x10,1c08 <I_blt_cg_cp_rs2_b21+0x1c>
    1bfc:	480082ef          	jal	x5,a07c <failedtest_x5_x4>
    1c00:	00001bec          	.word	0x00001bec
    1c04:	0000d4d6          	.word	0x0000d4d6
    1c08:	00488893          	addi	x17,x17,4

# Testcase cp_rs2 (Test source rs2 = x22)
  RVTEST_TESTDATA_LOAD_INT(x30, x8) # load rs1: x8 = 0x09a1ffba
    1c0c:	000f2403          	lw	x8,0(x30)
    1c10:	004f0f13          	addi	x30,x30,4
  RVTEST_TESTDATA_LOAD_INT(x30, x22) # load rs2: x22 = 0x57ce63ab
    1c14:	000f2b03          	lw	x22,0(x30)
    1c18:	004f0f13          	addi	x30,x30,4
  RVTEST_TESTDATA_LOAD_INT(x30, x23) # load branch taken value: x23 = 0xf63fc35a
    1c1c:	000f2b83          	lw	x23,0(x30)
    1c20:	004f0f13          	addi	x30,x30,4

00001c24 <I_blt_cg_cp_rs2_b22>:
I_blt_cg_cp_rs2_b22:
  blt x8, x22, 1f # perform operation
    1c24:	01644463          	blt	x8,x22,1c2c <I_blt_cg_cp_rs2_b22+0x8>
  LI(x23, -1) # branch not taken, set temp_reg to 0
    1c28:	fff00b93          	addi	x23,x0,-1
1:
  # Check if x23 contains the expected result. x17 is the signature ptr, x5 is the link ptr, x4 is a temp reg.
  RVTEST_SIGUPD(x17, x5, x4, x23, I_blt_cg_cp_rs2_b22, I_blt_cg_cp_rs2_b22_str)
    1c2c:	0008a203          	lw	x4,0(x17)
    1c30:	01720863          	beq	x4,x23,1c40 <I_blt_cg_cp_rs2_b22+0x1c>
    1c34:	448082ef          	jal	x5,a07c <failedtest_x5_x4>
    1c38:	00001c24          	.word	0x00001c24
    1c3c:	0000d505          	.word	0x0000d505
    1c40:	00488893          	addi	x17,x17,4

# Testcase cp_rs2 (Test source rs2 = x23)
  RVTEST_TESTDATA_LOAD_INT(x30, x20) # load rs1: x20 = 0x0fb5c3cd
    1c44:	000f2a03          	lw	x20,0(x30)
    1c48:	004f0f13          	addi	x30,x30,4
  RVTEST_TESTDATA_LOAD_INT(x30, x23) # load rs2: x23 = 0xf3e0b22e
    1c4c:	000f2b83          	lw	x23,0(x30)
    1c50:	004f0f13          	addi	x30,x30,4
  RVTEST_TESTDATA_LOAD_INT(x30, x16) # load branch taken value: x16 = 0xc5c0844f
    1c54:	000f2803          	lw	x16,0(x30)
    1c58:	004f0f13          	addi	x30,x30,4

00001c5c <I_blt_cg_cp_rs2_b23>:
I_blt_cg_cp_rs2_b23:
  blt x20, x23, 1f # perform operation
    1c5c:	017a4463          	blt	x20,x23,1c64 <I_blt_cg_cp_rs2_b23+0x8>
  LI(x16, -1) # branch not taken, set temp_reg to 0
    1c60:	fff00813          	addi	x16,x0,-1
1:
  # Check if x16 contains the expected result. x17 is the signature ptr, x5 is the link ptr, x4 is a temp reg.
  RVTEST_SIGUPD(x17, x5, x4, x16, I_blt_cg_cp_rs2_b23, I_blt_cg_cp_rs2_b23_str)
    1c64:	0008a203          	lw	x4,0(x17)
    1c68:	01020863          	beq	x4,x16,1c78 <I_blt_cg_cp_rs2_b23+0x1c>
    1c6c:	410082ef          	jal	x5,a07c <failedtest_x5_x4>
    1c70:	00001c5c          	.word	0x00001c5c
    1c74:	0000d534          	.word	0x0000d534
    1c78:	00488893          	addi	x17,x17,4

# Testcase cp_rs2 (Test source rs2 = x24)
  RVTEST_TESTDATA_LOAD_INT(x30, x0) # load rs1: x0 = 0xe60a8bf0
    1c7c:	000f2003          	lw	x0,0(x30)
    1c80:	004f0f13          	addi	x30,x30,4
  RVTEST_TESTDATA_LOAD_INT(x30, x24) # load rs2: x24 = 0x7892074c
    1c84:	000f2c03          	lw	x24,0(x30)
    1c88:	004f0f13          	addi	x30,x30,4
  RVTEST_TESTDATA_LOAD_INT(x30, x16) # load branch taken value: x16 = 0xc18aede4
    1c8c:	000f2803          	lw	x16,0(x30)
    1c90:	004f0f13          	addi	x30,x30,4

00001c94 <I_blt_cg_cp_rs2_b24>:
I_blt_cg_cp_rs2_b24:
  blt x0, x24, 1f # perform operation
    1c94:	01804463          	blt	x0,x24,1c9c <I_blt_cg_cp_rs2_b24+0x8>
  LI(x16, -1) # branch not taken, set temp_reg to 0
    1c98:	fff00813          	addi	x16,x0,-1
1:
  # Check if x16 contains the expected result. x17 is the signature ptr, x5 is the link ptr, x4 is a temp reg.
  RVTEST_SIGUPD(x17, x5, x4, x16, I_blt_cg_cp_rs2_b24, I_blt_cg_cp_rs2_b24_str)
    1c9c:	0008a203          	lw	x4,0(x17)
    1ca0:	01020863          	beq	x4,x16,1cb0 <I_blt_cg_cp_rs2_b24+0x1c>
    1ca4:	3d8082ef          	jal	x5,a07c <failedtest_x5_x4>
    1ca8:	00001c94          	.word	0x00001c94
    1cac:	0000d563          	.word	0x0000d563
    1cb0:	00488893          	addi	x17,x17,4

# Testcase cp_rs2 (Test source rs2 = x25)
  RVTEST_TESTDATA_LOAD_INT(x30, x7) # load rs1: x7 = 0x7f428fc1
    1cb4:	000f2383          	lw	x7,0(x30)
    1cb8:	004f0f13          	addi	x30,x30,4
  RVTEST_TESTDATA_LOAD_INT(x30, x25) # load rs2: x25 = 0x9e869085
    1cbc:	000f2c83          	lw	x25,0(x30)
    1cc0:	004f0f13          	addi	x30,x30,4
  RVTEST_TESTDATA_LOAD_INT(x30, x20) # load branch taken value: x20 = 0x9da9f4de
    1cc4:	000f2a03          	lw	x20,0(x30)
    1cc8:	004f0f13          	addi	x30,x30,4

00001ccc <I_blt_cg_cp_rs2_b25>:
I_blt_cg_cp_rs2_b25:
  blt x7, x25, 1f # perform operation
    1ccc:	0193c463          	blt	x7,x25,1cd4 <I_blt_cg_cp_rs2_b25+0x8>
  LI(x20, -1) # branch not taken, set temp_reg to 0
    1cd0:	fff00a13          	addi	x20,x0,-1
1:
  # Check if x20 contains the expected result. x17 is the signature ptr, x5 is the link ptr, x4 is a temp reg.
  RVTEST_SIGUPD(x17, x5, x4, x20, I_blt_cg_cp_rs2_b25, I_blt_cg_cp_rs2_b25_str)
    1cd4:	0008a203          	lw	x4,0(x17)
    1cd8:	01420863          	beq	x4,x20,1ce8 <I_blt_cg_cp_rs2_b25+0x1c>
    1cdc:	3a0082ef          	jal	x5,a07c <failedtest_x5_x4>
    1ce0:	00001ccc          	.word	0x00001ccc
    1ce4:	0000d592          	.word	0x0000d592
    1ce8:	00488893          	addi	x17,x17,4

# Testcase cp_rs2 (Test source rs2 = x26)
  RVTEST_TESTDATA_LOAD_INT(x30, x31) # load rs1: x31 = 0xc419bef6
    1cec:	000f2f83          	lw	x31,0(x30)
    1cf0:	004f0f13          	addi	x30,x30,4
  RVTEST_TESTDATA_LOAD_INT(x30, x26) # load rs2: x26 = 0x1a0d3c6e
    1cf4:	000f2d03          	lw	x26,0(x30)
    1cf8:	004f0f13          	addi	x30,x30,4
  RVTEST_TESTDATA_LOAD_INT(x30, x1) # load branch taken value: x1 = 0x39918ad4
    1cfc:	000f2083          	lw	x1,0(x30)
    1d00:	004f0f13          	addi	x30,x30,4

00001d04 <I_blt_cg_cp_rs2_b26>:
I_blt_cg_cp_rs2_b26:
  blt x31, x26, 1f # perform operation
    1d04:	01afc463          	blt	x31,x26,1d0c <I_blt_cg_cp_rs2_b26+0x8>
  LI(x1, -1) # branch not taken, set temp_reg to 0
    1d08:	fff00093          	addi	x1,x0,-1
1:
  # Check if x1 contains the expected result. x17 is the signature ptr, x5 is the link ptr, x4 is a temp reg.
  RVTEST_SIGUPD(x17, x5, x4, x1, I_blt_cg_cp_rs2_b26, I_blt_cg_cp_rs2_b26_str)
    1d0c:	0008a203          	lw	x4,0(x17)
    1d10:	00120863          	beq	x4,x1,1d20 <I_blt_cg_cp_rs2_b26+0x1c>
    1d14:	368082ef          	jal	x5,a07c <failedtest_x5_x4>
    1d18:	00001d04          	.word	0x00001d04
    1d1c:	0000d5c1          	.word	0x0000d5c1
    1d20:	00488893          	addi	x17,x17,4

# Testcase cp_rs2 (Test source rs2 = x27)
  RVTEST_TESTDATA_LOAD_INT(x30, x18) # load rs1: x18 = 0xb79d08de
    1d24:	000f2903          	lw	x18,0(x30)
    1d28:	004f0f13          	addi	x30,x30,4
  RVTEST_TESTDATA_LOAD_INT(x30, x27) # load rs2: x27 = 0xa0d15fff
    1d2c:	000f2d83          	lw	x27,0(x30)
    1d30:	004f0f13          	addi	x30,x30,4
  RVTEST_TESTDATA_LOAD_INT(x30, x23) # load branch taken value: x23 = 0xe0020806
    1d34:	000f2b83          	lw	x23,0(x30)
    1d38:	004f0f13          	addi	x30,x30,4

00001d3c <I_blt_cg_cp_rs2_b27>:
I_blt_cg_cp_rs2_b27:
  blt x18, x27, 1f # perform operation
    1d3c:	01b94463          	blt	x18,x27,1d44 <I_blt_cg_cp_rs2_b27+0x8>
  LI(x23, -1) # branch not taken, set temp_reg to 0
    1d40:	fff00b93          	addi	x23,x0,-1
1:
  # Check if x23 contains the expected result. x17 is the signature ptr, x5 is the link ptr, x4 is a temp reg.
  RVTEST_SIGUPD(x17, x5, x4, x23, I_blt_cg_cp_rs2_b27, I_blt_cg_cp_rs2_b27_str)
    1d44:	0008a203          	lw	x4,0(x17)
    1d48:	01720863          	beq	x4,x23,1d58 <I_blt_cg_cp_rs2_b27+0x1c>
    1d4c:	330082ef          	jal	x5,a07c <failedtest_x5_x4>
    1d50:	00001d3c          	.word	0x00001d3c
    1d54:	0000d5f0          	.word	0x0000d5f0
    1d58:	00488893          	addi	x17,x17,4

# Testcase cp_rs2 (Test source rs2 = x28)
  RVTEST_TESTDATA_LOAD_INT(x30, x0) # load rs1: x0 = 0xdf074cb8
    1d5c:	000f2003          	lw	x0,0(x30)
    1d60:	004f0f13          	addi	x30,x30,4
  RVTEST_TESTDATA_LOAD_INT(x30, x28) # load rs2: x28 = 0x07566db6
    1d64:	000f2e03          	lw	x28,0(x30)
    1d68:	004f0f13          	addi	x30,x30,4
  RVTEST_TESTDATA_LOAD_INT(x30, x1) # load branch taken value: x1 = 0xe0155d41
    1d6c:	000f2083          	lw	x1,0(x30)
    1d70:	004f0f13          	addi	x30,x30,4

00001d74 <I_blt_cg_cp_rs2_b28>:
I_blt_cg_cp_rs2_b28:
  blt x0, x28, 1f # perform operation
    1d74:	01c04463          	blt	x0,x28,1d7c <I_blt_cg_cp_rs2_b28+0x8>
  LI(x1, -1) # branch not taken, set temp_reg to 0
    1d78:	fff00093          	addi	x1,x0,-1
1:
  # Check if x1 contains the expected result. x17 is the signature ptr, x5 is the link ptr, x4 is a temp reg.
  RVTEST_SIGUPD(x17, x5, x4, x1, I_blt_cg_cp_rs2_b28, I_blt_cg_cp_rs2_b28_str)
    1d7c:	0008a203          	lw	x4,0(x17)
    1d80:	00120863          	beq	x4,x1,1d90 <I_blt_cg_cp_rs2_b28+0x1c>
    1d84:	2f8082ef          	jal	x5,a07c <failedtest_x5_x4>
    1d88:	00001d74          	.word	0x00001d74
    1d8c:	0000d61f          	.word	0x0000d61f
    1d90:	00488893          	addi	x17,x17,4

# Testcase cp_rs2 (Test source rs2 = x29)
  RVTEST_TESTDATA_LOAD_INT(x30, x31) # load rs1: x31 = 0x80d66e1a
    1d94:	000f2f83          	lw	x31,0(x30)
    1d98:	004f0f13          	addi	x30,x30,4
  RVTEST_TESTDATA_LOAD_INT(x30, x29) # load rs2: x29 = 0x7bb87431
    1d9c:	000f2e83          	lw	x29,0(x30)
    1da0:	004f0f13          	addi	x30,x30,4
  RVTEST_TESTDATA_LOAD_INT(x30, x24) # load branch taken value: x24 = 0xa04a3922
    1da4:	000f2c03          	lw	x24,0(x30)
    1da8:	004f0f13          	addi	x30,x30,4

00001dac <I_blt_cg_cp_rs2_b29>:
I_blt_cg_cp_rs2_b29:
  blt x31, x29, 1f # perform operation
    1dac:	01dfc463          	blt	x31,x29,1db4 <I_blt_cg_cp_rs2_b29+0x8>
  LI(x24, -1) # branch not taken, set temp_reg to 0
    1db0:	fff00c13          	addi	x24,x0,-1
1:
  # Check if x24 contains the expected result. x17 is the signature ptr, x5 is the link ptr, x4 is a temp reg.
  RVTEST_SIGUPD(x17, x5, x4, x24, I_blt_cg_cp_rs2_b29, I_blt_cg_cp_rs2_b29_str)
    1db4:	0008a203          	lw	x4,0(x17)
    1db8:	01820863          	beq	x4,x24,1dc8 <I_blt_cg_cp_rs2_b29+0x1c>
    1dbc:	2c0082ef          	jal	x5,a07c <failedtest_x5_x4>
    1dc0:	00001dac          	.word	0x00001dac
    1dc4:	0000d64e          	.word	0x0000d64e
    1dc8:	00488893          	addi	x17,x17,4

  mv x23, x30 # switch data pointer register to avoid conflict with test
    1dcc:	000f0b93          	addi	x23,x30,0
# Testcase cp_rs2 (Test source rs2 = x30)
  RVTEST_TESTDATA_LOAD_INT(x23, x31) # load rs1: x31 = 0x669a120e
    1dd0:	000baf83          	lw	x31,0(x23)
    1dd4:	004b8b93          	addi	x23,x23,4
  RVTEST_TESTDATA_LOAD_INT(x23, x30) # load rs2: x30 = 0x4ee46885
    1dd8:	000baf03          	lw	x30,0(x23)
    1ddc:	004b8b93          	addi	x23,x23,4
  RVTEST_TESTDATA_LOAD_INT(x23, x8) # load branch taken value: x8 = 0x61af7fdb
    1de0:	000ba403          	lw	x8,0(x23)
    1de4:	004b8b93          	addi	x23,x23,4

00001de8 <I_blt_cg_cp_rs2_b30>:
I_blt_cg_cp_rs2_b30:
  blt x31, x30, 1f # perform operation
    1de8:	01efc463          	blt	x31,x30,1df0 <I_blt_cg_cp_rs2_b30+0x8>
  LI(x8, -1) # branch not taken, set temp_reg to 0
    1dec:	fff00413          	addi	x8,x0,-1
1:
  # Check if x8 contains the expected result. x17 is the signature ptr, x5 is the link ptr, x4 is a temp reg.
  RVTEST_SIGUPD(x17, x5, x4, x8, I_blt_cg_cp_rs2_b30, I_blt_cg_cp_rs2_b30_str)
    1df0:	0008a203          	lw	x4,0(x17)
    1df4:	00820863          	beq	x4,x8,1e04 <I_blt_cg_cp_rs2_b30+0x1c>
    1df8:	284082ef          	jal	x5,a07c <failedtest_x5_x4>
    1dfc:	00001de8          	.word	0x00001de8
    1e00:	0000d67d          	.word	0x0000d67d
    1e04:	00488893          	addi	x17,x17,4

# Testcase cp_rs2 (Test source rs2 = x31)
  RVTEST_TESTDATA_LOAD_INT(x23, x29) # load rs1: x29 = 0x53667c99
    1e08:	000bae83          	lw	x29,0(x23)
    1e0c:	004b8b93          	addi	x23,x23,4
  RVTEST_TESTDATA_LOAD_INT(x23, x31) # load rs2: x31 = 0xb41dac66
    1e10:	000baf83          	lw	x31,0(x23)
    1e14:	004b8b93          	addi	x23,x23,4
  RVTEST_TESTDATA_LOAD_INT(x23, x6) # load branch taken value: x6 = 0x37d0b736
    1e18:	000ba303          	lw	x6,0(x23)
    1e1c:	004b8b93          	addi	x23,x23,4

00001e20 <I_blt_cg_cp_rs2_b31>:
I_blt_cg_cp_rs2_b31:
  blt x29, x31, 1f # perform operation
    1e20:	01fec463          	blt	x29,x31,1e28 <I_blt_cg_cp_rs2_b31+0x8>
  LI(x6, -1) # branch not taken, set temp_reg to 0
    1e24:	fff00313          	addi	x6,x0,-1
1:
  # Check if x6 contains the expected result. x17 is the signature ptr, x5 is the link ptr, x4 is a temp reg.
  RVTEST_SIGUPD(x17, x5, x4, x6, I_blt_cg_cp_rs2_b31, I_blt_cg_cp_rs2_b31_str)
    1e28:	0008a203          	lw	x4,0(x17)
    1e2c:	00620863          	beq	x4,x6,1e3c <I_blt_cg_cp_rs2_b31+0x1c>
    1e30:	24c082ef          	jal	x5,a07c <failedtest_x5_x4>
    1e34:	00001e20          	.word	0x00001e20
    1e38:	0000d6ac          	.word	0x0000d6ac
    1e3c:	00488893          	addi	x17,x17,4
/////////////////////////////////
// cp_rs1_edges
/////////////////////////////////

# Testcase cp_rs1_edges (Test source rs1 value = 0x00000000)
  RVTEST_TESTDATA_LOAD_INT(x23, x24) # load rs1: x24 = 0x00000000
    1e40:	000bac03          	lw	x24,0(x23)
    1e44:	004b8b93          	addi	x23,x23,4
  RVTEST_TESTDATA_LOAD_INT(x23, x31) # load rs2: x31 = 0x1069c08a
    1e48:	000baf83          	lw	x31,0(x23)
    1e4c:	004b8b93          	addi	x23,x23,4
  RVTEST_TESTDATA_LOAD_INT(x23, x21) # load branch taken value: x21 = 0x03b14533
    1e50:	000baa83          	lw	x21,0(x23)
    1e54:	004b8b93          	addi	x23,x23,4

00001e58 <I_blt_cg_cp_rs1_edges_0x0>:
I_blt_cg_cp_rs1_edges_0x0:
  blt x24, x31, 1f # perform operation
    1e58:	01fc4463          	blt	x24,x31,1e60 <I_blt_cg_cp_rs1_edges_0x0+0x8>
  LI(x21, -1) # branch not taken, set temp_reg to 0
    1e5c:	fff00a93          	addi	x21,x0,-1
1:
  # Check if x21 contains the expected result. x17 is the signature ptr, x5 is the link ptr, x4 is a temp reg.
  RVTEST_SIGUPD(x17, x5, x4, x21, I_blt_cg_cp_rs1_edges_0x0, I_blt_cg_cp_rs1_edges_0x0_str)
    1e60:	0008a203          	lw	x4,0(x17)
    1e64:	01520863          	beq	x4,x21,1e74 <I_blt_cg_cp_rs1_edges_0x0+0x1c>
    1e68:	214082ef          	jal	x5,a07c <failedtest_x5_x4>
    1e6c:	00001e58          	.word	0x00001e58
    1e70:	0000d6db          	.word	0x0000d6db
    1e74:	00488893          	addi	x17,x17,4

# Testcase cp_rs1_edges (Test source rs1 value = 0x00000001)
  RVTEST_TESTDATA_LOAD_INT(x23, x31) # load rs1: x31 = 0x00000001
    1e78:	000baf83          	lw	x31,0(x23)
    1e7c:	004b8b93          	addi	x23,x23,4
  RVTEST_TESTDATA_LOAD_INT(x23, x29) # load rs2: x29 = 0x99d821e7
    1e80:	000bae83          	lw	x29,0(x23)
    1e84:	004b8b93          	addi	x23,x23,4
  RVTEST_TESTDATA_LOAD_INT(x23, x19) # load branch taken value: x19 = 0x1cd171ba
    1e88:	000ba983          	lw	x19,0(x23)
    1e8c:	004b8b93          	addi	x23,x23,4

00001e90 <I_blt_cg_cp_rs1_edges_0x1>:
I_blt_cg_cp_rs1_edges_0x1:
  blt x31, x29, 1f # perform operation
    1e90:	01dfc463          	blt	x31,x29,1e98 <I_blt_cg_cp_rs1_edges_0x1+0x8>
  LI(x19, -1) # branch not taken, set temp_reg to 0
    1e94:	fff00993          	addi	x19,x0,-1
1:
  # Check if x19 contains the expected result. x17 is the signature ptr, x5 is the link ptr, x4 is a temp reg.
  RVTEST_SIGUPD(x17, x5, x4, x19, I_blt_cg_cp_rs1_edges_0x1, I_blt_cg_cp_rs1_edges_0x1_str)
    1e98:	0008a203          	lw	x4,0(x17)
    1e9c:	01320863          	beq	x4,x19,1eac <I_blt_cg_cp_rs1_edges_0x1+0x1c>
    1ea0:	1dc082ef          	jal	x5,a07c <failedtest_x5_x4>
    1ea4:	00001e90          	.word	0x00001e90
    1ea8:	0000d710          	.word	0x0000d710
    1eac:	00488893          	addi	x17,x17,4

# Testcase cp_rs1_edges (Test source rs1 value = 0x00000002)
  RVTEST_TESTDATA_LOAD_INT(x23, x11) # load rs1: x11 = 0x00000002
    1eb0:	000ba583          	lw	x11,0(x23)
    1eb4:	004b8b93          	addi	x23,x23,4
  RVTEST_TESTDATA_LOAD_INT(x23, x28) # load rs2: x28 = 0x1f318616
    1eb8:	000bae03          	lw	x28,0(x23)
    1ebc:	004b8b93          	addi	x23,x23,4
  RVTEST_TESTDATA_LOAD_INT(x23, x31) # load branch taken value: x31 = 0xbd26f27c
    1ec0:	000baf83          	lw	x31,0(x23)
    1ec4:	004b8b93          	addi	x23,x23,4

00001ec8 <I_blt_cg_cp_rs1_edges_0x2>:
I_blt_cg_cp_rs1_edges_0x2:
  blt x11, x28, 1f # perform operation
    1ec8:	01c5c463          	blt	x11,x28,1ed0 <I_blt_cg_cp_rs1_edges_0x2+0x8>
  LI(x31, -1) # branch not taken, set temp_reg to 0
    1ecc:	fff00f93          	addi	x31,x0,-1
1:
  # Check if x31 contains the expected result. x17 is the signature ptr, x5 is the link ptr, x4 is a temp reg.
  RVTEST_SIGUPD(x17, x5, x4, x31, I_blt_cg_cp_rs1_edges_0x2, I_blt_cg_cp_rs1_edges_0x2_str)
    1ed0:	0008a203          	lw	x4,0(x17)
    1ed4:	01f20863          	beq	x4,x31,1ee4 <I_blt_cg_cp_rs1_edges_0x2+0x1c>
    1ed8:	1a4082ef          	jal	x5,a07c <failedtest_x5_x4>
    1edc:	00001ec8          	.word	0x00001ec8
    1ee0:	0000d745          	.word	0x0000d745
    1ee4:	00488893          	addi	x17,x17,4

# Testcase cp_rs1_edges (Test source rs1 value = 0x80000000)
  RVTEST_TESTDATA_LOAD_INT(x23, x8) # load rs1: x8 = 0x80000000
    1ee8:	000ba403          	lw	x8,0(x23)
    1eec:	004b8b93          	addi	x23,x23,4
  RVTEST_TESTDATA_LOAD_INT(x23, x29) # load rs2: x29 = 0x99c3589e
    1ef0:	000bae83          	lw	x29,0(x23)
    1ef4:	004b8b93          	addi	x23,x23,4
  RVTEST_TESTDATA_LOAD_INT(x23, x1) # load branch taken value: x1 = 0xbf94c9ba
    1ef8:	000ba083          	lw	x1,0(x23)
    1efc:	004b8b93          	addi	x23,x23,4

00001f00 <I_blt_cg_cp_rs1_edges_0x80000000>:
I_blt_cg_cp_rs1_edges_0x80000000:
  blt x8, x29, 1f # perform operation
    1f00:	01d44463          	blt	x8,x29,1f08 <I_blt_cg_cp_rs1_edges_0x80000000+0x8>
  LI(x1, -1) # branch not taken, set temp_reg to 0
    1f04:	fff00093          	addi	x1,x0,-1
1:
  # Check if x1 contains the expected result. x17 is the signature ptr, x5 is the link ptr, x4 is a temp reg.
  RVTEST_SIGUPD(x17, x5, x4, x1, I_blt_cg_cp_rs1_edges_0x80000000, I_blt_cg_cp_rs1_edges_0x80000000_str)
    1f08:	0008a203          	lw	x4,0(x17)
    1f0c:	00120863          	beq	x4,x1,1f1c <I_blt_cg_cp_rs1_edges_0x80000000+0x1c>
    1f10:	16c082ef          	jal	x5,a07c <failedtest_x5_x4>
    1f14:	00001f00          	.word	0x00001f00
    1f18:	0000d77a          	.word	0x0000d77a
    1f1c:	00488893          	addi	x17,x17,4

# Testcase cp_rs1_edges (Test source rs1 value = 0x80000001)
  RVTEST_TESTDATA_LOAD_INT(x23, x7) # load rs1: x7 = 0x80000001
    1f20:	000ba383          	lw	x7,0(x23)
    1f24:	004b8b93          	addi	x23,x23,4
  RVTEST_TESTDATA_LOAD_INT(x23, x21) # load rs2: x21 = 0xe0893bf3
    1f28:	000baa83          	lw	x21,0(x23)
    1f2c:	004b8b93          	addi	x23,x23,4
  RVTEST_TESTDATA_LOAD_INT(x23, x22) # load branch taken value: x22 = 0x78ab23e0
    1f30:	000bab03          	lw	x22,0(x23)
    1f34:	004b8b93          	addi	x23,x23,4

00001f38 <I_blt_cg_cp_rs1_edges_0x80000001>:
I_blt_cg_cp_rs1_edges_0x80000001:
  blt x7, x21, 1f # perform operation
    1f38:	0153c463          	blt	x7,x21,1f40 <I_blt_cg_cp_rs1_edges_0x80000001+0x8>
  LI(x22, -1) # branch not taken, set temp_reg to 0
    1f3c:	fff00b13          	addi	x22,x0,-1
1:
  # Check if x22 contains the expected result. x17 is the signature ptr, x5 is the link ptr, x4 is a temp reg.
  RVTEST_SIGUPD(x17, x5, x4, x22, I_blt_cg_cp_rs1_edges_0x80000001, I_blt_cg_cp_rs1_edges_0x80000001_str)
    1f40:	0008a203          	lw	x4,0(x17)
    1f44:	01620863          	beq	x4,x22,1f54 <I_blt_cg_cp_rs1_edges_0x80000001+0x1c>
    1f48:	134082ef          	jal	x5,a07c <failedtest_x5_x4>
    1f4c:	00001f38          	.word	0x00001f38
    1f50:	0000d7b6          	.word	0x0000d7b6
    1f54:	00488893          	addi	x17,x17,4

# Testcase cp_rs1_edges (Test source rs1 value = 0x7fffffff)
  RVTEST_TESTDATA_LOAD_INT(x23, x3) # load rs1: x3 = 0x7fffffff
    1f58:	000ba183          	lw	x3,0(x23)
    1f5c:	004b8b93          	addi	x23,x23,4
  RVTEST_TESTDATA_LOAD_INT(x23, x14) # load rs2: x14 = 0xf901d647
    1f60:	000ba703          	lw	x14,0(x23)
    1f64:	004b8b93          	addi	x23,x23,4
  RVTEST_TESTDATA_LOAD_INT(x23, x28) # load branch taken value: x28 = 0x40b39b91
    1f68:	000bae03          	lw	x28,0(x23)
    1f6c:	004b8b93          	addi	x23,x23,4

00001f70 <I_blt_cg_cp_rs1_edges_0x7fffffff>:
I_blt_cg_cp_rs1_edges_0x7fffffff:
  blt x3, x14, 1f # perform operation
    1f70:	00e1c463          	blt	x3,x14,1f78 <I_blt_cg_cp_rs1_edges_0x7fffffff+0x8>
  LI(x28, -1) # branch not taken, set temp_reg to 0
    1f74:	fff00e13          	addi	x28,x0,-1
1:
  # Check if x28 contains the expected result. x17 is the signature ptr, x5 is the link ptr, x4 is a temp reg.
  RVTEST_SIGUPD(x17, x5, x4, x28, I_blt_cg_cp_rs1_edges_0x7fffffff, I_blt_cg_cp_rs1_edges_0x7fffffff_str)
    1f78:	0008a203          	lw	x4,0(x17)
    1f7c:	01c20863          	beq	x4,x28,1f8c <I_blt_cg_cp_rs1_edges_0x7fffffff+0x1c>
    1f80:	0fc082ef          	jal	x5,a07c <failedtest_x5_x4>
    1f84:	00001f70          	.word	0x00001f70
    1f88:	0000d7f2          	.word	0x0000d7f2
    1f8c:	00488893          	addi	x17,x17,4

# Testcase cp_rs1_edges (Test source rs1 value = 0x7ffffffe)
  RVTEST_TESTDATA_LOAD_INT(x23, x28) # load rs1: x28 = 0x7ffffffe
    1f90:	000bae03          	lw	x28,0(x23)
    1f94:	004b8b93          	addi	x23,x23,4
  RVTEST_TESTDATA_LOAD_INT(x23, x6) # load rs2: x6 = 0xffd0b163
    1f98:	000ba303          	lw	x6,0(x23)
    1f9c:	004b8b93          	addi	x23,x23,4
  RVTEST_TESTDATA_LOAD_INT(x23, x22) # load branch taken value: x22 = 0xedd86f66
    1fa0:	000bab03          	lw	x22,0(x23)
    1fa4:	004b8b93          	addi	x23,x23,4

00001fa8 <I_blt_cg_cp_rs1_edges_0x7ffffffe>:
I_blt_cg_cp_rs1_edges_0x7ffffffe:
  blt x28, x6, 1f # perform operation
    1fa8:	006e4463          	blt	x28,x6,1fb0 <I_blt_cg_cp_rs1_edges_0x7ffffffe+0x8>
  LI(x22, -1) # branch not taken, set temp_reg to 0
    1fac:	fff00b13          	addi	x22,x0,-1
1:
  # Check if x22 contains the expected result. x17 is the signature ptr, x5 is the link ptr, x4 is a temp reg.
  RVTEST_SIGUPD(x17, x5, x4, x22, I_blt_cg_cp_rs1_edges_0x7ffffffe, I_blt_cg_cp_rs1_edges_0x7ffffffe_str)
    1fb0:	0008a203          	lw	x4,0(x17)
    1fb4:	01620863          	beq	x4,x22,1fc4 <I_blt_cg_cp_rs1_edges_0x7ffffffe+0x1c>
    1fb8:	0c4082ef          	jal	x5,a07c <failedtest_x5_x4>
    1fbc:	00001fa8          	.word	0x00001fa8
    1fc0:	0000d82e          	.word	0x0000d82e
    1fc4:	00488893          	addi	x17,x17,4

# Testcase cp_rs1_edges (Test source rs1 value = 0xffffffff)
  RVTEST_TESTDATA_LOAD_INT(x23, x27) # load rs1: x27 = 0xffffffff
    1fc8:	000bad83          	lw	x27,0(x23)
    1fcc:	004b8b93          	addi	x23,x23,4
  RVTEST_TESTDATA_LOAD_INT(x23, x10) # load rs2: x10 = 0xc2320b1c
    1fd0:	000ba503          	lw	x10,0(x23)
    1fd4:	004b8b93          	addi	x23,x23,4
  RVTEST_TESTDATA_LOAD_INT(x23, x16) # load branch taken value: x16 = 0x094c8896
    1fd8:	000ba803          	lw	x16,0(x23)
    1fdc:	004b8b93          	addi	x23,x23,4

00001fe0 <I_blt_cg_cp_rs1_edges_0xffffffff>:
I_blt_cg_cp_rs1_edges_0xffffffff:
  blt x27, x10, 1f # perform operation
    1fe0:	00adc463          	blt	x27,x10,1fe8 <I_blt_cg_cp_rs1_edges_0xffffffff+0x8>
  LI(x16, -1) # branch not taken, set temp_reg to 0
    1fe4:	fff00813          	addi	x16,x0,-1
1:
  # Check if x16 contains the expected result. x17 is the signature ptr, x5 is the link ptr, x4 is a temp reg.
  RVTEST_SIGUPD(x17, x5, x4, x16, I_blt_cg_cp_rs1_edges_0xffffffff, I_blt_cg_cp_rs1_edges_0xffffffff_str)
    1fe8:	0008a203          	lw	x4,0(x17)
    1fec:	01020863          	beq	x4,x16,1ffc <I_blt_cg_cp_rs1_edges_0xffffffff+0x1c>
    1ff0:	08c082ef          	jal	x5,a07c <failedtest_x5_x4>
    1ff4:	00001fe0          	.word	0x00001fe0
    1ff8:	0000d86a          	.word	0x0000d86a
    1ffc:	00488893          	addi	x17,x17,4

# Testcase cp_rs1_edges (Test source rs1 value = 0xfffffffe)
  RVTEST_TESTDATA_LOAD_INT(x23, x2) # load rs1: x2 = 0xfffffffe
    2000:	000ba103          	lw	x2,0(x23)
    2004:	004b8b93          	addi	x23,x23,4
  RVTEST_TESTDATA_LOAD_INT(x23, x8) # load rs2: x8 = 0x44131467
    2008:	000ba403          	lw	x8,0(x23)
    200c:	004b8b93          	addi	x23,x23,4
  RVTEST_TESTDATA_LOAD_INT(x23, x3) # load branch taken value: x3 = 0x5ebcbf5a
    2010:	000ba183          	lw	x3,0(x23)
    2014:	004b8b93          	addi	x23,x23,4

00002018 <I_blt_cg_cp_rs1_edges_0xfffffffe>:
I_blt_cg_cp_rs1_edges_0xfffffffe:
  blt x2, x8, 1f # perform operation
    2018:	00814463          	blt	x2,x8,2020 <I_blt_cg_cp_rs1_edges_0xfffffffe+0x8>
  LI(x3, -1) # branch not taken, set temp_reg to 0
    201c:	fff00193          	addi	x3,x0,-1
1:
  # Check if x3 contains the expected result. x17 is the signature ptr, x5 is the link ptr, x4 is a temp reg.
  RVTEST_SIGUPD(x17, x5, x4, x3, I_blt_cg_cp_rs1_edges_0xfffffffe, I_blt_cg_cp_rs1_edges_0xfffffffe_str)
    2020:	0008a203          	lw	x4,0(x17)
    2024:	00320863          	beq	x4,x3,2034 <I_blt_cg_cp_rs1_edges_0xfffffffe+0x1c>
    2028:	054082ef          	jal	x5,a07c <failedtest_x5_x4>
    202c:	00002018          	.word	0x00002018
    2030:	0000d8a6          	.word	0x0000d8a6
    2034:	00488893          	addi	x17,x17,4

# Testcase cp_rs1_edges (Test source rs1 value = 0x5bbc8872)
  RVTEST_TESTDATA_LOAD_INT(x23, x12) # load rs1: x12 = 0x5bbc8872
    2038:	000ba603          	lw	x12,0(x23)
    203c:	004b8b93          	addi	x23,x23,4
  RVTEST_TESTDATA_LOAD_INT(x23, x29) # load rs2: x29 = 0xc13d6b4d
    2040:	000bae83          	lw	x29,0(x23)
    2044:	004b8b93          	addi	x23,x23,4
  RVTEST_TESTDATA_LOAD_INT(x23, x22) # load branch taken value: x22 = 0x8c0d71d3
    2048:	000bab03          	lw	x22,0(x23)
    204c:	004b8b93          	addi	x23,x23,4

00002050 <I_blt_cg_cp_rs1_edges_0x5bbc8872>:
I_blt_cg_cp_rs1_edges_0x5bbc8872:
  blt x12, x29, 1f # perform operation
    2050:	01d64463          	blt	x12,x29,2058 <I_blt_cg_cp_rs1_edges_0x5bbc8872+0x8>
  LI(x22, -1) # branch not taken, set temp_reg to 0
    2054:	fff00b13          	addi	x22,x0,-1
1:
  # Check if x22 contains the expected result. x17 is the signature ptr, x5 is the link ptr, x4 is a temp reg.
  RVTEST_SIGUPD(x17, x5, x4, x22, I_blt_cg_cp_rs1_edges_0x5bbc8872, I_blt_cg_cp_rs1_edges_0x5bbc8872_str)
    2058:	0008a203          	lw	x4,0(x17)
    205c:	01620863          	beq	x4,x22,206c <I_blt_cg_cp_rs1_edges_0x5bbc8872+0x1c>
    2060:	01c082ef          	jal	x5,a07c <failedtest_x5_x4>
    2064:	00002050          	.word	0x00002050
    2068:	0000d8e2          	.word	0x0000d8e2
    206c:	00488893          	addi	x17,x17,4

# Testcase cp_rs1_edges (Test source rs1 value = 0xaaaaaaaa)
  RVTEST_TESTDATA_LOAD_INT(x23, x30) # load rs1: x30 = 0xaaaaaaaa
    2070:	000baf03          	lw	x30,0(x23)
    2074:	004b8b93          	addi	x23,x23,4
  RVTEST_TESTDATA_LOAD_INT(x23, x1) # load rs2: x1 = 0x7a348bd0
    2078:	000ba083          	lw	x1,0(x23)
    207c:	004b8b93          	addi	x23,x23,4
  RVTEST_TESTDATA_LOAD_INT(x23, x8) # load branch taken value: x8 = 0x0654c455
    2080:	000ba403          	lw	x8,0(x23)
    2084:	004b8b93          	addi	x23,x23,4

00002088 <I_blt_cg_cp_rs1_edges_0xaaaaaaaa>:
I_blt_cg_cp_rs1_edges_0xaaaaaaaa:
  blt x30, x1, 1f # perform operation
    2088:	001f4463          	blt	x30,x1,2090 <I_blt_cg_cp_rs1_edges_0xaaaaaaaa+0x8>
  LI(x8, -1) # branch not taken, set temp_reg to 0
    208c:	fff00413          	addi	x8,x0,-1
1:
  # Check if x8 contains the expected result. x17 is the signature ptr, x5 is the link ptr, x4 is a temp reg.
  RVTEST_SIGUPD(x17, x5, x4, x8, I_blt_cg_cp_rs1_edges_0xaaaaaaaa, I_blt_cg_cp_rs1_edges_0xaaaaaaaa_str)
    2090:	0008a203          	lw	x4,0(x17)
    2094:	00820863          	beq	x4,x8,20a4 <I_blt_cg_cp_rs1_edges_0xaaaaaaaa+0x1c>
    2098:	7e5072ef          	jal	x5,a07c <failedtest_x5_x4>
    209c:	00002088          	.word	0x00002088
    20a0:	0000d91e          	.word	0x0000d91e
    20a4:	00488893          	addi	x17,x17,4

# Testcase cp_rs1_edges (Test source rs1 value = 0x55555555)
  RVTEST_TESTDATA_LOAD_INT(x23, x19) # load rs1: x19 = 0x55555555
    20a8:	000ba983          	lw	x19,0(x23)
    20ac:	004b8b93          	addi	x23,x23,4
  RVTEST_TESTDATA_LOAD_INT(x23, x24) # load rs2: x24 = 0x24845216
    20b0:	000bac03          	lw	x24,0(x23)
    20b4:	004b8b93          	addi	x23,x23,4
  RVTEST_TESTDATA_LOAD_INT(x23, x31) # load branch taken value: x31 = 0x4cf9cbfa
    20b8:	000baf83          	lw	x31,0(x23)
    20bc:	004b8b93          	addi	x23,x23,4

000020c0 <I_blt_cg_cp_rs1_edges_0x55555555>:
I_blt_cg_cp_rs1_edges_0x55555555:
  blt x19, x24, 1f # perform operation
    20c0:	0189c463          	blt	x19,x24,20c8 <I_blt_cg_cp_rs1_edges_0x55555555+0x8>
  LI(x31, -1) # branch not taken, set temp_reg to 0
    20c4:	fff00f93          	addi	x31,x0,-1
1:
  # Check if x31 contains the expected result. x17 is the signature ptr, x5 is the link ptr, x4 is a temp reg.
  RVTEST_SIGUPD(x17, x5, x4, x31, I_blt_cg_cp_rs1_edges_0x55555555, I_blt_cg_cp_rs1_edges_0x55555555_str)
    20c8:	0008a203          	lw	x4,0(x17)
    20cc:	01f20863          	beq	x4,x31,20dc <I_blt_cg_cp_rs1_edges_0x55555555+0x1c>
    20d0:	7ad072ef          	jal	x5,a07c <failedtest_x5_x4>
    20d4:	000020c0          	.word	0x000020c0
    20d8:	0000d95a          	.word	0x0000d95a
    20dc:	00488893          	addi	x17,x17,4
/////////////////////////////////
// cp_rs2_edges
/////////////////////////////////

# Testcase cp_rs2_edges (Test source rs2 value = 0x00000000)
  RVTEST_TESTDATA_LOAD_INT(x23, x30) # load rs1: x30 = 0x0133c4cf
    20e0:	000baf03          	lw	x30,0(x23)
    20e4:	004b8b93          	addi	x23,x23,4
  RVTEST_TESTDATA_LOAD_INT(x23, x27) # load rs2: x27 = 0x00000000
    20e8:	000bad83          	lw	x27,0(x23)
    20ec:	004b8b93          	addi	x23,x23,4
  RVTEST_TESTDATA_LOAD_INT(x23, x8) # load branch taken value: x8 = 0xe817c7a3
    20f0:	000ba403          	lw	x8,0(x23)
    20f4:	004b8b93          	addi	x23,x23,4

000020f8 <I_blt_cg_cp_rs2_edges_0x0>:
I_blt_cg_cp_rs2_edges_0x0:
  blt x30, x27, 1f # perform operation
    20f8:	01bf4463          	blt	x30,x27,2100 <I_blt_cg_cp_rs2_edges_0x0+0x8>
  LI(x8, -1) # branch not taken, set temp_reg to 0
    20fc:	fff00413          	addi	x8,x0,-1
1:
  # Check if x8 contains the expected result. x17 is the signature ptr, x5 is the link ptr, x4 is a temp reg.
  RVTEST_SIGUPD(x17, x5, x4, x8, I_blt_cg_cp_rs2_edges_0x0, I_blt_cg_cp_rs2_edges_0x0_str)
    2100:	0008a203          	lw	x4,0(x17)
    2104:	00820863          	beq	x4,x8,2114 <I_blt_cg_cp_rs2_edges_0x0+0x1c>
    2108:	775072ef          	jal	x5,a07c <failedtest_x5_x4>
    210c:	000020f8          	.word	0x000020f8
    2110:	0000d996          	.word	0x0000d996
    2114:	00488893          	addi	x17,x17,4

# Testcase cp_rs2_edges (Test source rs2 value = 0x00000001)
  RVTEST_TESTDATA_LOAD_INT(x23, x26) # load rs1: x26 = 0xac9197fa
    2118:	000bad03          	lw	x26,0(x23)
    211c:	004b8b93          	addi	x23,x23,4
  RVTEST_TESTDATA_LOAD_INT(x23, x31) # load rs2: x31 = 0x00000001
    2120:	000baf83          	lw	x31,0(x23)
    2124:	004b8b93          	addi	x23,x23,4
  RVTEST_TESTDATA_LOAD_INT(x23, x1) # load branch taken value: x1 = 0x844db90d
    2128:	000ba083          	lw	x1,0(x23)
    212c:	004b8b93          	addi	x23,x23,4

00002130 <I_blt_cg_cp_rs2_edges_0x1>:
I_blt_cg_cp_rs2_edges_0x1:
  blt x26, x31, 1f # perform operation
    2130:	01fd4463          	blt	x26,x31,2138 <I_blt_cg_cp_rs2_edges_0x1+0x8>
  LI(x1, -1) # branch not taken, set temp_reg to 0
    2134:	fff00093          	addi	x1,x0,-1
1:
  # Check if x1 contains the expected result. x17 is the signature ptr, x5 is the link ptr, x4 is a temp reg.
  RVTEST_SIGUPD(x17, x5, x4, x1, I_blt_cg_cp_rs2_edges_0x1, I_blt_cg_cp_rs2_edges_0x1_str)
    2138:	0008a203          	lw	x4,0(x17)
    213c:	00120863          	beq	x4,x1,214c <I_blt_cg_cp_rs2_edges_0x1+0x1c>
    2140:	73d072ef          	jal	x5,a07c <failedtest_x5_x4>
    2144:	00002130          	.word	0x00002130
    2148:	0000d9cb          	.word	0x0000d9cb
    214c:	00488893          	addi	x17,x17,4

# Testcase cp_rs2_edges (Test source rs2 value = 0x00000002)
  RVTEST_TESTDATA_LOAD_INT(x23, x18) # load rs1: x18 = 0xcc615d11
    2150:	000ba903          	lw	x18,0(x23)
    2154:	004b8b93          	addi	x23,x23,4
  RVTEST_TESTDATA_LOAD_INT(x23, x15) # load rs2: x15 = 0x00000002
    2158:	000ba783          	lw	x15,0(x23)
    215c:	004b8b93          	addi	x23,x23,4
  RVTEST_TESTDATA_LOAD_INT(x23, x21) # load branch taken value: x21 = 0xda721035
    2160:	000baa83          	lw	x21,0(x23)
    2164:	004b8b93          	addi	x23,x23,4

00002168 <I_blt_cg_cp_rs2_edges_0x2>:
I_blt_cg_cp_rs2_edges_0x2:
  blt x18, x15, 1f # perform operation
    2168:	00f94463          	blt	x18,x15,2170 <I_blt_cg_cp_rs2_edges_0x2+0x8>
  LI(x21, -1) # branch not taken, set temp_reg to 0
    216c:	fff00a93          	addi	x21,x0,-1
1:
  # Check if x21 contains the expected result. x17 is the signature ptr, x5 is the link ptr, x4 is a temp reg.
  RVTEST_SIGUPD(x17, x5, x4, x21, I_blt_cg_cp_rs2_edges_0x2, I_blt_cg_cp_rs2_edges_0x2_str)
    2170:	0008a203          	lw	x4,0(x17)
    2174:	01520863          	beq	x4,x21,2184 <I_blt_cg_cp_rs2_edges_0x2+0x1c>
    2178:	705072ef          	jal	x5,a07c <failedtest_x5_x4>
    217c:	00002168          	.word	0x00002168
    2180:	0000da00          	.word	0x0000da00
    2184:	00488893          	addi	x17,x17,4

# Testcase cp_rs2_edges (Test source rs2 value = 0x80000000)
  RVTEST_TESTDATA_LOAD_INT(x23, x7) # load rs1: x7 = 0x4e7d92c8
    2188:	000ba383          	lw	x7,0(x23)
    218c:	004b8b93          	addi	x23,x23,4
  RVTEST_TESTDATA_LOAD_INT(x23, x31) # load rs2: x31 = 0x80000000
    2190:	000baf83          	lw	x31,0(x23)
    2194:	004b8b93          	addi	x23,x23,4
  RVTEST_TESTDATA_LOAD_INT(x23, x3) # load branch taken value: x3 = 0x1199de09
    2198:	000ba183          	lw	x3,0(x23)
    219c:	004b8b93          	addi	x23,x23,4

000021a0 <I_blt_cg_cp_rs2_edges_0x80000000>:
I_blt_cg_cp_rs2_edges_0x80000000:
  blt x7, x31, 1f # perform operation
    21a0:	01f3c463          	blt	x7,x31,21a8 <I_blt_cg_cp_rs2_edges_0x80000000+0x8>
  LI(x3, -1) # branch not taken, set temp_reg to 0
    21a4:	fff00193          	addi	x3,x0,-1
1:
  # Check if x3 contains the expected result. x17 is the signature ptr, x5 is the link ptr, x4 is a temp reg.
  RVTEST_SIGUPD(x17, x5, x4, x3, I_blt_cg_cp_rs2_edges_0x80000000, I_blt_cg_cp_rs2_edges_0x80000000_str)
    21a8:	0008a203          	lw	x4,0(x17)
    21ac:	00320863          	beq	x4,x3,21bc <I_blt_cg_cp_rs2_edges_0x80000000+0x1c>
    21b0:	6cd072ef          	jal	x5,a07c <failedtest_x5_x4>
    21b4:	000021a0          	.word	0x000021a0
    21b8:	0000da35          	.word	0x0000da35
    21bc:	00488893          	addi	x17,x17,4

# Testcase cp_rs2_edges (Test source rs2 value = 0x80000001)
  RVTEST_TESTDATA_LOAD_INT(x23, x1) # load rs1: x1 = 0x6627c7eb
    21c0:	000ba083          	lw	x1,0(x23)
    21c4:	004b8b93          	addi	x23,x23,4
  RVTEST_TESTDATA_LOAD_INT(x23, x27) # load rs2: x27 = 0x80000001
    21c8:	000bad83          	lw	x27,0(x23)
    21cc:	004b8b93          	addi	x23,x23,4
  RVTEST_TESTDATA_LOAD_INT(x23, x18) # load branch taken value: x18 = 0x015af38c
    21d0:	000ba903          	lw	x18,0(x23)
    21d4:	004b8b93          	addi	x23,x23,4

000021d8 <I_blt_cg_cp_rs2_edges_0x80000001>:
I_blt_cg_cp_rs2_edges_0x80000001:
  blt x1, x27, 1f # perform operation
    21d8:	01b0c463          	blt	x1,x27,21e0 <I_blt_cg_cp_rs2_edges_0x80000001+0x8>
  LI(x18, -1) # branch not taken, set temp_reg to 0
    21dc:	fff00913          	addi	x18,x0,-1
1:
  # Check if x18 contains the expected result. x17 is the signature ptr, x5 is the link ptr, x4 is a temp reg.
  RVTEST_SIGUPD(x17, x5, x4, x18, I_blt_cg_cp_rs2_edges_0x80000001, I_blt_cg_cp_rs2_edges_0x80000001_str)
    21e0:	0008a203          	lw	x4,0(x17)
    21e4:	01220863          	beq	x4,x18,21f4 <I_blt_cg_cp_rs2_edges_0x80000001+0x1c>
    21e8:	695072ef          	jal	x5,a07c <failedtest_x5_x4>
    21ec:	000021d8          	.word	0x000021d8
    21f0:	0000da71          	.word	0x0000da71
    21f4:	00488893          	addi	x17,x17,4

# Testcase cp_rs2_edges (Test source rs2 value = 0x7fffffff)
  RVTEST_TESTDATA_LOAD_INT(x23, x9) # load rs1: x9 = 0xeb79d1a6
    21f8:	000ba483          	lw	x9,0(x23)
    21fc:	004b8b93          	addi	x23,x23,4
  RVTEST_TESTDATA_LOAD_INT(x23, x16) # load rs2: x16 = 0x7fffffff
    2200:	000ba803          	lw	x16,0(x23)
    2204:	004b8b93          	addi	x23,x23,4
  RVTEST_TESTDATA_LOAD_INT(x23, x25) # load branch taken value: x25 = 0x7c82f7c0
    2208:	000bac83          	lw	x25,0(x23)
    220c:	004b8b93          	addi	x23,x23,4

00002210 <I_blt_cg_cp_rs2_edges_0x7fffffff>:
I_blt_cg_cp_rs2_edges_0x7fffffff:
  blt x9, x16, 1f # perform operation
    2210:	0104c463          	blt	x9,x16,2218 <I_blt_cg_cp_rs2_edges_0x7fffffff+0x8>
  LI(x25, -1) # branch not taken, set temp_reg to 0
    2214:	fff00c93          	addi	x25,x0,-1
1:
  # Check if x25 contains the expected result. x17 is the signature ptr, x5 is the link ptr, x4 is a temp reg.
  RVTEST_SIGUPD(x17, x5, x4, x25, I_blt_cg_cp_rs2_edges_0x7fffffff, I_blt_cg_cp_rs2_edges_0x7fffffff_str)
    2218:	0008a203          	lw	x4,0(x17)
    221c:	01920863          	beq	x4,x25,222c <I_blt_cg_cp_rs2_edges_0x7fffffff+0x1c>
    2220:	65d072ef          	jal	x5,a07c <failedtest_x5_x4>
    2224:	00002210          	.word	0x00002210
    2228:	0000daad          	.word	0x0000daad
    222c:	00488893          	addi	x17,x17,4

# Testcase cp_rs2_edges (Test source rs2 value = 0x7ffffffe)
  RVTEST_TESTDATA_LOAD_INT(x23, x27) # load rs1: x27 = 0x09da42c8
    2230:	000bad83          	lw	x27,0(x23)
    2234:	004b8b93          	addi	x23,x23,4
  RVTEST_TESTDATA_LOAD_INT(x23, x9) # load rs2: x9 = 0x7ffffffe
    2238:	000ba483          	lw	x9,0(x23)
    223c:	004b8b93          	addi	x23,x23,4
  RVTEST_TESTDATA_LOAD_INT(x23, x24) # load branch taken value: x24 = 0xfd94208d
    2240:	000bac03          	lw	x24,0(x23)
    2244:	004b8b93          	addi	x23,x23,4

00002248 <I_blt_cg_cp_rs2_edges_0x7ffffffe>:
I_blt_cg_cp_rs2_edges_0x7ffffffe:
  blt x27, x9, 1f # perform operation
    2248:	009dc463          	blt	x27,x9,2250 <I_blt_cg_cp_rs2_edges_0x7ffffffe+0x8>
  LI(x24, -1) # branch not taken, set temp_reg to 0
    224c:	fff00c13          	addi	x24,x0,-1
1:
  # Check if x24 contains the expected result. x17 is the signature ptr, x5 is the link ptr, x4 is a temp reg.
  RVTEST_SIGUPD(x17, x5, x4, x24, I_blt_cg_cp_rs2_edges_0x7ffffffe, I_blt_cg_cp_rs2_edges_0x7ffffffe_str)
    2250:	0008a203          	lw	x4,0(x17)
    2254:	01820863          	beq	x4,x24,2264 <I_blt_cg_cp_rs2_edges_0x7ffffffe+0x1c>
    2258:	625072ef          	jal	x5,a07c <failedtest_x5_x4>
    225c:	00002248          	.word	0x00002248
    2260:	0000dae9          	.word	0x0000dae9
    2264:	00488893          	addi	x17,x17,4

# Testcase cp_rs2_edges (Test source rs2 value = 0xffffffff)
  RVTEST_TESTDATA_LOAD_INT(x23, x25) # load rs1: x25 = 0x8dccbeed
    2268:	000bac83          	lw	x25,0(x23)
    226c:	004b8b93          	addi	x23,x23,4
  RVTEST_TESTDATA_LOAD_INT(x23, x10) # load rs2: x10 = 0xffffffff
    2270:	000ba503          	lw	x10,0(x23)
    2274:	004b8b93          	addi	x23,x23,4
  RVTEST_TESTDATA_LOAD_INT(x23, x28) # load branch taken value: x28 = 0x0fd29696
    2278:	000bae03          	lw	x28,0(x23)
    227c:	004b8b93          	addi	x23,x23,4

00002280 <I_blt_cg_cp_rs2_edges_0xffffffff>:
I_blt_cg_cp_rs2_edges_0xffffffff:
  blt x25, x10, 1f # perform operation
    2280:	00acc463          	blt	x25,x10,2288 <I_blt_cg_cp_rs2_edges_0xffffffff+0x8>
  LI(x28, -1) # branch not taken, set temp_reg to 0
    2284:	fff00e13          	addi	x28,x0,-1
1:
  # Check if x28 contains the expected result. x17 is the signature ptr, x5 is the link ptr, x4 is a temp reg.
  RVTEST_SIGUPD(x17, x5, x4, x28, I_blt_cg_cp_rs2_edges_0xffffffff, I_blt_cg_cp_rs2_edges_0xffffffff_str)
    2288:	0008a203          	lw	x4,0(x17)
    228c:	01c20863          	beq	x4,x28,229c <I_blt_cg_cp_rs2_edges_0xffffffff+0x1c>
    2290:	5ed072ef          	jal	x5,a07c <failedtest_x5_x4>
    2294:	00002280          	.word	0x00002280
    2298:	0000db25          	.word	0x0000db25
    229c:	00488893          	addi	x17,x17,4

# Testcase cp_rs2_edges (Test source rs2 value = 0xfffffffe)
  RVTEST_TESTDATA_LOAD_INT(x23, x13) # load rs1: x13 = 0xe8d20bf4
    22a0:	000ba683          	lw	x13,0(x23)
    22a4:	004b8b93          	addi	x23,x23,4
  RVTEST_TESTDATA_LOAD_INT(x23, x12) # load rs2: x12 = 0xfffffffe
    22a8:	000ba603          	lw	x12,0(x23)
    22ac:	004b8b93          	addi	x23,x23,4
  RVTEST_TESTDATA_LOAD_INT(x23, x22) # load branch taken value: x22 = 0xf47969ba
    22b0:	000bab03          	lw	x22,0(x23)
    22b4:	004b8b93          	addi	x23,x23,4

000022b8 <I_blt_cg_cp_rs2_edges_0xfffffffe>:
I_blt_cg_cp_rs2_edges_0xfffffffe:
  blt x13, x12, 1f # perform operation
    22b8:	00c6c463          	blt	x13,x12,22c0 <I_blt_cg_cp_rs2_edges_0xfffffffe+0x8>
  LI(x22, -1) # branch not taken, set temp_reg to 0
    22bc:	fff00b13          	addi	x22,x0,-1
1:
  # Check if x22 contains the expected result. x17 is the signature ptr, x5 is the link ptr, x4 is a temp reg.
  RVTEST_SIGUPD(x17, x5, x4, x22, I_blt_cg_cp_rs2_edges_0xfffffffe, I_blt_cg_cp_rs2_edges_0xfffffffe_str)
    22c0:	0008a203          	lw	x4,0(x17)
    22c4:	01620863          	beq	x4,x22,22d4 <I_blt_cg_cp_rs2_edges_0xfffffffe+0x1c>
    22c8:	5b5072ef          	jal	x5,a07c <failedtest_x5_x4>
    22cc:	000022b8          	.word	0x000022b8
    22d0:	0000db61          	.word	0x0000db61
    22d4:	00488893          	addi	x17,x17,4

# Testcase cp_rs2_edges (Test source rs2 value = 0x5bbc8872)
  RVTEST_TESTDATA_LOAD_INT(x23, x15) # load rs1: x15 = 0x27a481e3
    22d8:	000ba783          	lw	x15,0(x23)
    22dc:	004b8b93          	addi	x23,x23,4
  RVTEST_TESTDATA_LOAD_INT(x23, x30) # load rs2: x30 = 0x5bbc8872
    22e0:	000baf03          	lw	x30,0(x23)
    22e4:	004b8b93          	addi	x23,x23,4
  RVTEST_TESTDATA_LOAD_INT(x23, x22) # load branch taken value: x22 = 0x47d5c31b
    22e8:	000bab03          	lw	x22,0(x23)
    22ec:	004b8b93          	addi	x23,x23,4

000022f0 <I_blt_cg_cp_rs2_edges_0x5bbc8872>:
I_blt_cg_cp_rs2_edges_0x5bbc8872:
  blt x15, x30, 1f # perform operation
    22f0:	01e7c463          	blt	x15,x30,22f8 <I_blt_cg_cp_rs2_edges_0x5bbc8872+0x8>
  LI(x22, -1) # branch not taken, set temp_reg to 0
    22f4:	fff00b13          	addi	x22,x0,-1
1:
  # Check if x22 contains the expected result. x17 is the signature ptr, x5 is the link ptr, x4 is a temp reg.
  RVTEST_SIGUPD(x17, x5, x4, x22, I_blt_cg_cp_rs2_edges_0x5bbc8872, I_blt_cg_cp_rs2_edges_0x5bbc8872_str)
    22f8:	0008a203          	lw	x4,0(x17)
    22fc:	01620863          	beq	x4,x22,230c <I_blt_cg_cp_rs2_edges_0x5bbc8872+0x1c>
    2300:	57d072ef          	jal	x5,a07c <failedtest_x5_x4>
    2304:	000022f0          	.word	0x000022f0
    2308:	0000db9d          	.word	0x0000db9d
    230c:	00488893          	addi	x17,x17,4

# Testcase cp_rs2_edges (Test source rs2 value = 0xaaaaaaaa)
  RVTEST_TESTDATA_LOAD_INT(x23, x11) # load rs1: x11 = 0x251eb580
    2310:	000ba583          	lw	x11,0(x23)
    2314:	004b8b93          	addi	x23,x23,4
  RVTEST_TESTDATA_LOAD_INT(x23, x6) # load rs2: x6 = 0xaaaaaaaa
    2318:	000ba303          	lw	x6,0(x23)
    231c:	004b8b93          	addi	x23,x23,4
  RVTEST_TESTDATA_LOAD_INT(x23, x3) # load branch taken value: x3 = 0x6f83077f
    2320:	000ba183          	lw	x3,0(x23)
    2324:	004b8b93          	addi	x23,x23,4

00002328 <I_blt_cg_cp_rs2_edges_0xaaaaaaaa>:
I_blt_cg_cp_rs2_edges_0xaaaaaaaa:
  blt x11, x6, 1f # perform operation
    2328:	0065c463          	blt	x11,x6,2330 <I_blt_cg_cp_rs2_edges_0xaaaaaaaa+0x8>
  LI(x3, -1) # branch not taken, set temp_reg to 0
    232c:	fff00193          	addi	x3,x0,-1
1:
  # Check if x3 contains the expected result. x17 is the signature ptr, x5 is the link ptr, x4 is a temp reg.
  RVTEST_SIGUPD(x17, x5, x4, x3, I_blt_cg_cp_rs2_edges_0xaaaaaaaa, I_blt_cg_cp_rs2_edges_0xaaaaaaaa_str)
    2330:	0008a203          	lw	x4,0(x17)
    2334:	00320863          	beq	x4,x3,2344 <I_blt_cg_cp_rs2_edges_0xaaaaaaaa+0x1c>
    2338:	545072ef          	jal	x5,a07c <failedtest_x5_x4>
    233c:	00002328          	.word	0x00002328
    2340:	0000dbd9          	.word	0x0000dbd9
    2344:	00488893          	addi	x17,x17,4

# Testcase cp_rs2_edges (Test source rs2 value = 0x55555555)
  RVTEST_TESTDATA_LOAD_INT(x23, x12) # load rs1: x12 = 0xb6b95cc3
    2348:	000ba603          	lw	x12,0(x23)
    234c:	004b8b93          	addi	x23,x23,4
  RVTEST_TESTDATA_LOAD_INT(x23, x22) # load rs2: x22 = 0x55555555
    2350:	000bab03          	lw	x22,0(x23)
    2354:	004b8b93          	addi	x23,x23,4
  RVTEST_TESTDATA_LOAD_INT(x23, x10) # load branch taken value: x10 = 0x4d518ec6
    2358:	000ba503          	lw	x10,0(x23)
    235c:	004b8b93          	addi	x23,x23,4

00002360 <I_blt_cg_cp_rs2_edges_0x55555555>:
I_blt_cg_cp_rs2_edges_0x55555555:
  blt x12, x22, 1f # perform operation
    2360:	01664463          	blt	x12,x22,2368 <I_blt_cg_cp_rs2_edges_0x55555555+0x8>
  LI(x10, -1) # branch not taken, set temp_reg to 0
    2364:	fff00513          	addi	x10,x0,-1
1:
  # Check if x10 contains the expected result. x17 is the signature ptr, x5 is the link ptr, x4 is a temp reg.
  RVTEST_SIGUPD(x17, x5, x4, x10, I_blt_cg_cp_rs2_edges_0x55555555, I_blt_cg_cp_rs2_edges_0x55555555_str)
    2368:	0008a203          	lw	x4,0(x17)
    236c:	00a20863          	beq	x4,x10,237c <I_blt_cg_cp_rs2_edges_0x55555555+0x1c>
    2370:	50d072ef          	jal	x5,a07c <failedtest_x5_x4>
    2374:	00002360          	.word	0x00002360
    2378:	0000dc15          	.word	0x0000dc15
    237c:	00488893          	addi	x17,x17,4
/////////////////////////////////
// cr_rs1_rs2_edges_offset
/////////////////////////////////

# cr_rs1_rs2_edges_offset (Test source rs1 = 0x00000000 rs2 = 0x00000000)
  RVTEST_TESTDATA_LOAD_INT(x23, x30) # load rs1: x30 = 0x00000000
    2380:	000baf03          	lw	x30,0(x23)
    2384:	004b8b93          	addi	x23,x23,4
  RVTEST_TESTDATA_LOAD_INT(x23, x22) # load rs2: x22 = 0x00000000
    2388:	000bab03          	lw	x22,0(x23)
    238c:	004b8b93          	addi	x23,x23,4

00002390 <I_blt_cg_cr_rs1_rs2_edges_offset_rs1val_0x0_rs2val_0x0>:
0: # destination for backwards branch that is never taken
I_blt_cg_cr_rs1_rs2_edges_offset_rs1val_0x0_rs2val_0x0:
  blt x30, x22, 3f # forward branch, if taken
    2390:	056f4263          	blt	x30,x22,23d4 <I_blt_cg_cr_rs1_rs2_edges_offset_rs1val_0x0_rs2val_0x0+0x44>
1: # goes here if not taken
  blt x30, x22, 0b # backward branch, never taken
    2394:	ff6f4ee3          	blt	x30,x22,2390 <I_blt_cg_cr_rs1_rs2_edges_offset_rs1val_0x0_rs2val_0x0>
  # Check if x0 contains the expected result. x17 is the signature ptr, x5 is the link ptr, x4 is a temp reg.
  RVTEST_SIGUPD(x17, x5, x4, x0, I_blt_cg_cr_rs1_rs2_edges_offset_rs1val_0x0_rs2val_0x0, I_blt_cg_cr_rs1_rs2_edges_offset_rs1val_0x0_rs2val_0x0_str)
    2398:	0008a203          	lw	x4,0(x17)
    239c:	00020863          	beq	x4,x0,23ac <I_blt_cg_cr_rs1_rs2_edges_offset_rs1val_0x0_rs2val_0x0+0x1c>
    23a0:	4dd072ef          	jal	x5,a07c <failedtest_x5_x4>
    23a4:	00002390          	.word	0x00002390
    23a8:	0000dc51          	.word	0x0000dc51
    23ac:	00488893          	addi	x17,x17,4
  j 4f # done with test
    23b0:	0280006f          	jal	x0,23d8 <I_blt_cg_cr_rs1_rs2_edges_offset_rs1val_0x0_rs2val_0x0+0x48>
2: # goes here during backward branch if taken
  LI(x30, 1)
    23b4:	00100f13          	addi	x30,x0,1
  # Check if x30 contains the expected result. x17 is the signature ptr, x5 is the link ptr, x4 is a temp reg.
  RVTEST_SIGUPD(x17, x5, x4, x30, I_blt_cg_cr_rs1_rs2_edges_offset_rs1val_0x0_rs2val_0x0, I_blt_cg_cr_rs1_rs2_edges_offset_rs1val_0x0_rs2val_0x0_str) # signature 1 for taken
    23b8:	0008a203          	lw	x4,0(x17)
    23bc:	01e20863          	beq	x4,x30,23cc <I_blt_cg_cr_rs1_rs2_edges_offset_rs1val_0x0_rs2val_0x0+0x3c>
    23c0:	4bd072ef          	jal	x5,a07c <failedtest_x5_x4>
    23c4:	00002390          	.word	0x00002390
    23c8:	0000dc51          	.word	0x0000dc51
    23cc:	00488893          	addi	x17,x17,4
  j 4f # done with test
    23d0:	0080006f          	jal	x0,23d8 <I_blt_cg_cr_rs1_rs2_edges_offset_rs1val_0x0_rs2val_0x0+0x48>
3: # goes here during forward branch if taken
  blt x30, x22, 2b # backward branch, definitely taken
    23d4:	ff6f40e3          	blt	x30,x22,23b4 <I_blt_cg_cr_rs1_rs2_edges_offset_rs1val_0x0_rs2val_0x0+0x24>
4: # done with test

# cr_rs1_rs2_edges_offset (Test source rs1 = 0x00000000 rs2 = 0x00000001)
  RVTEST_TESTDATA_LOAD_INT(x23, x7) # load rs1: x7 = 0x00000000
    23d8:	000ba383          	lw	x7,0(x23)
    23dc:	004b8b93          	addi	x23,x23,4
  RVTEST_TESTDATA_LOAD_INT(x23, x19) # load rs2: x19 = 0x00000001
    23e0:	000ba983          	lw	x19,0(x23)
    23e4:	004b8b93          	addi	x23,x23,4

000023e8 <I_blt_cg_cr_rs1_rs2_edges_offset_rs1val_0x0_rs2val_0x1>:
0: # destination for backwards branch that is never taken
I_blt_cg_cr_rs1_rs2_edges_offset_rs1val_0x0_rs2val_0x1:
  blt x7, x19, 3f # forward branch, if taken
    23e8:	0533c263          	blt	x7,x19,242c <I_blt_cg_cr_rs1_rs2_edges_offset_rs1val_0x0_rs2val_0x1+0x44>
1: # goes here if not taken
  blt x7, x19, 0b # backward branch, never taken
    23ec:	ff33cee3          	blt	x7,x19,23e8 <I_blt_cg_cr_rs1_rs2_edges_offset_rs1val_0x0_rs2val_0x1>
  # Check if x0 contains the expected result. x17 is the signature ptr, x5 is the link ptr, x4 is a temp reg.
  RVTEST_SIGUPD(x17, x5, x4, x0, I_blt_cg_cr_rs1_rs2_edges_offset_rs1val_0x0_rs2val_0x1, I_blt_cg_cr_rs1_rs2_edges_offset_rs1val_0x0_rs2val_0x1_str)
    23f0:	0008a203          	lw	x4,0(x17)
    23f4:	00020863          	beq	x4,x0,2404 <I_blt_cg_cr_rs1_rs2_edges_offset_rs1val_0x0_rs2val_0x1+0x1c>
    23f8:	485072ef          	jal	x5,a07c <failedtest_x5_x4>
    23fc:	000023e8          	.word	0x000023e8
    2400:	0000dca4          	.word	0x0000dca4
    2404:	00488893          	addi	x17,x17,4
  j 4f # done with test
    2408:	0280006f          	jal	x0,2430 <I_blt_cg_cr_rs1_rs2_edges_offset_rs1val_0x0_rs2val_0x1+0x48>
2: # goes here during backward branch if taken
  LI(x7, 1)
    240c:	00100393          	addi	x7,x0,1
  # Check if x7 contains the expected result. x17 is the signature ptr, x5 is the link ptr, x4 is a temp reg.
  RVTEST_SIGUPD(x17, x5, x4, x7, I_blt_cg_cr_rs1_rs2_edges_offset_rs1val_0x0_rs2val_0x1, I_blt_cg_cr_rs1_rs2_edges_offset_rs1val_0x0_rs2val_0x1_str) # signature 1 for taken
    2410:	0008a203          	lw	x4,0(x17)
    2414:	00720863          	beq	x4,x7,2424 <I_blt_cg_cr_rs1_rs2_edges_offset_rs1val_0x0_rs2val_0x1+0x3c>
    2418:	465072ef          	jal	x5,a07c <failedtest_x5_x4>
    241c:	000023e8          	.word	0x000023e8
    2420:	0000dca4          	.word	0x0000dca4
    2424:	00488893          	addi	x17,x17,4
  j 4f # done with test
    2428:	0080006f          	jal	x0,2430 <I_blt_cg_cr_rs1_rs2_edges_offset_rs1val_0x0_rs2val_0x1+0x48>
3: # goes here during forward branch if taken
  blt x7, x19, 2b # backward branch, definitely taken
    242c:	ff33c0e3          	blt	x7,x19,240c <I_blt_cg_cr_rs1_rs2_edges_offset_rs1val_0x0_rs2val_0x1+0x24>
4: # done with test

# cr_rs1_rs2_edges_offset (Test source rs1 = 0x00000000 rs2 = 0x00000002)
  RVTEST_TESTDATA_LOAD_INT(x23, x2) # load rs1: x2 = 0x00000000
    2430:	000ba103          	lw	x2,0(x23)
    2434:	004b8b93          	addi	x23,x23,4
  RVTEST_TESTDATA_LOAD_INT(x23, x7) # load rs2: x7 = 0x00000002
    2438:	000ba383          	lw	x7,0(x23)
    243c:	004b8b93          	addi	x23,x23,4

00002440 <I_blt_cg_cr_rs1_rs2_edges_offset_rs1val_0x0_rs2val_0x2>:
0: # destination for backwards branch that is never taken
I_blt_cg_cr_rs1_rs2_edges_offset_rs1val_0x0_rs2val_0x2:
  blt x2, x7, 3f # forward branch, if taken
    2440:	04714263          	blt	x2,x7,2484 <I_blt_cg_cr_rs1_rs2_edges_offset_rs1val_0x0_rs2val_0x2+0x44>
1: # goes here if not taken
  blt x2, x7, 0b # backward branch, never taken
    2444:	fe714ee3          	blt	x2,x7,2440 <I_blt_cg_cr_rs1_rs2_edges_offset_rs1val_0x0_rs2val_0x2>
  # Check if x0 contains the expected result. x17 is the signature ptr, x5 is the link ptr, x4 is a temp reg.
  RVTEST_SIGUPD(x17, x5, x4, x0, I_blt_cg_cr_rs1_rs2_edges_offset_rs1val_0x0_rs2val_0x2, I_blt_cg_cr_rs1_rs2_edges_offset_rs1val_0x0_rs2val_0x2_str)
    2448:	0008a203          	lw	x4,0(x17)
    244c:	00020863          	beq	x4,x0,245c <I_blt_cg_cr_rs1_rs2_edges_offset_rs1val_0x0_rs2val_0x2+0x1c>
    2450:	42d072ef          	jal	x5,a07c <failedtest_x5_x4>
    2454:	00002440          	.word	0x00002440
    2458:	0000dcf7          	.word	0x0000dcf7
    245c:	00488893          	addi	x17,x17,4
  j 4f # done with test
    2460:	0280006f          	jal	x0,2488 <I_blt_cg_cr_rs1_rs2_edges_offset_rs1val_0x0_rs2val_0x2+0x48>
2: # goes here during backward branch if taken
  LI(x2, 1)
    2464:	00100113          	addi	x2,x0,1
  # Check if x2 contains the expected result. x17 is the signature ptr, x5 is the link ptr, x4 is a temp reg.
  RVTEST_SIGUPD(x17, x5, x4, x2, I_blt_cg_cr_rs1_rs2_edges_offset_rs1val_0x0_rs2val_0x2, I_blt_cg_cr_rs1_rs2_edges_offset_rs1val_0x0_rs2val_0x2_str) # signature 1 for taken
    2468:	0008a203          	lw	x4,0(x17)
    246c:	00220863          	beq	x4,x2,247c <I_blt_cg_cr_rs1_rs2_edges_offset_rs1val_0x0_rs2val_0x2+0x3c>
    2470:	40d072ef          	jal	x5,a07c <failedtest_x5_x4>
    2474:	00002440          	.word	0x00002440
    2478:	0000dcf7          	.word	0x0000dcf7
    247c:	00488893          	addi	x17,x17,4
  j 4f # done with test
    2480:	0080006f          	jal	x0,2488 <I_blt_cg_cr_rs1_rs2_edges_offset_rs1val_0x0_rs2val_0x2+0x48>
3: # goes here during forward branch if taken
  blt x2, x7, 2b # backward branch, definitely taken
    2484:	fe7140e3          	blt	x2,x7,2464 <I_blt_cg_cr_rs1_rs2_edges_offset_rs1val_0x0_rs2val_0x2+0x24>
4: # done with test

# cr_rs1_rs2_edges_offset (Test source rs1 = 0x00000000 rs2 = 0x80000000)
  RVTEST_TESTDATA_LOAD_INT(x23, x16) # load rs1: x16 = 0x00000000
    2488:	000ba803          	lw	x16,0(x23)
    248c:	004b8b93          	addi	x23,x23,4
  RVTEST_TESTDATA_LOAD_INT(x23, x1) # load rs2: x1 = 0x80000000
    2490:	000ba083          	lw	x1,0(x23)
    2494:	004b8b93          	addi	x23,x23,4

00002498 <I_blt_cg_cr_rs1_rs2_edges_offset_rs1val_0x0_rs2val_0x80000000>:
0: # destination for backwards branch that is never taken
I_blt_cg_cr_rs1_rs2_edges_offset_rs1val_0x0_rs2val_0x80000000:
  blt x16, x1, 3f # forward branch, if taken
    2498:	04184263          	blt	x16,x1,24dc <I_blt_cg_cr_rs1_rs2_edges_offset_rs1val_0x0_rs2val_0x80000000+0x44>
1: # goes here if not taken
  blt x16, x1, 0b # backward branch, never taken
    249c:	fe184ee3          	blt	x16,x1,2498 <I_blt_cg_cr_rs1_rs2_edges_offset_rs1val_0x0_rs2val_0x80000000>
  # Check if x0 contains the expected result. x17 is the signature ptr, x5 is the link ptr, x4 is a temp reg.
  RVTEST_SIGUPD(x17, x5, x4, x0, I_blt_cg_cr_rs1_rs2_edges_offset_rs1val_0x0_rs2val_0x80000000, I_blt_cg_cr_rs1_rs2_edges_offset_rs1val_0x0_rs2val_0x80000000_str)
    24a0:	0008a203          	lw	x4,0(x17)
    24a4:	00020863          	beq	x4,x0,24b4 <I_blt_cg_cr_rs1_rs2_edges_offset_rs1val_0x0_rs2val_0x80000000+0x1c>
    24a8:	3d5072ef          	jal	x5,a07c <failedtest_x5_x4>
    24ac:	00002498          	.word	0x00002498
    24b0:	0000dd4a          	.word	0x0000dd4a
    24b4:	00488893          	addi	x17,x17,4
  j 4f # done with test
    24b8:	0280006f          	jal	x0,24e0 <I_blt_cg_cr_rs1_rs2_edges_offset_rs1val_0x0_rs2val_0x80000000+0x48>
2: # goes here during backward branch if taken
  LI(x16, 1)
    24bc:	00100813          	addi	x16,x0,1
  # Check if x16 contains the expected result. x17 is the signature ptr, x5 is the link ptr, x4 is a temp reg.
  RVTEST_SIGUPD(x17, x5, x4, x16, I_blt_cg_cr_rs1_rs2_edges_offset_rs1val_0x0_rs2val_0x80000000, I_blt_cg_cr_rs1_rs2_edges_offset_rs1val_0x0_rs2val_0x80000000_str) # signature 1 for taken
    24c0:	0008a203          	lw	x4,0(x17)
    24c4:	01020863          	beq	x4,x16,24d4 <I_blt_cg_cr_rs1_rs2_edges_offset_rs1val_0x0_rs2val_0x80000000+0x3c>
    24c8:	3b5072ef          	jal	x5,a07c <failedtest_x5_x4>
    24cc:	00002498          	.word	0x00002498
    24d0:	0000dd4a          	.word	0x0000dd4a
    24d4:	00488893          	addi	x17,x17,4
  j 4f # done with test
    24d8:	0080006f          	jal	x0,24e0 <I_blt_cg_cr_rs1_rs2_edges_offset_rs1val_0x0_rs2val_0x80000000+0x48>
3: # goes here during forward branch if taken
  blt x16, x1, 2b # backward branch, definitely taken
    24dc:	fe1840e3          	blt	x16,x1,24bc <I_blt_cg_cr_rs1_rs2_edges_offset_rs1val_0x0_rs2val_0x80000000+0x24>
4: # done with test

# cr_rs1_rs2_edges_offset (Test source rs1 = 0x00000000 rs2 = 0x80000001)
  RVTEST_TESTDATA_LOAD_INT(x23, x28) # load rs1: x28 = 0x00000000
    24e0:	000bae03          	lw	x28,0(x23)
    24e4:	004b8b93          	addi	x23,x23,4
  RVTEST_TESTDATA_LOAD_INT(x23, x14) # load rs2: x14 = 0x80000001
    24e8:	000ba703          	lw	x14,0(x23)
    24ec:	004b8b93          	addi	x23,x23,4

000024f0 <I_blt_cg_cr_rs1_rs2_edges_offset_rs1val_0x0_rs2val_0x80000001>:
0: # destination for backwards branch that is never taken
I_blt_cg_cr_rs1_rs2_edges_offset_rs1val_0x0_rs2val_0x80000001:
  blt x28, x14, 3f # forward branch, if taken
    24f0:	04ee4263          	blt	x28,x14,2534 <I_blt_cg_cr_rs1_rs2_edges_offset_rs1val_0x0_rs2val_0x80000001+0x44>
1: # goes here if not taken
  blt x28, x14, 0b # backward branch, never taken
    24f4:	feee4ee3          	blt	x28,x14,24f0 <I_blt_cg_cr_rs1_rs2_edges_offset_rs1val_0x0_rs2val_0x80000001>
  # Check if x0 contains the expected result. x17 is the signature ptr, x5 is the link ptr, x4 is a temp reg.
  RVTEST_SIGUPD(x17, x5, x4, x0, I_blt_cg_cr_rs1_rs2_edges_offset_rs1val_0x0_rs2val_0x80000001, I_blt_cg_cr_rs1_rs2_edges_offset_rs1val_0x0_rs2val_0x80000001_str)
    24f8:	0008a203          	lw	x4,0(x17)
    24fc:	00020863          	beq	x4,x0,250c <I_blt_cg_cr_rs1_rs2_edges_offset_rs1val_0x0_rs2val_0x80000001+0x1c>
    2500:	37d072ef          	jal	x5,a07c <failedtest_x5_x4>
    2504:	000024f0          	.word	0x000024f0
    2508:	0000dda4          	.word	0x0000dda4
    250c:	00488893          	addi	x17,x17,4
  j 4f # done with test
    2510:	0280006f          	jal	x0,2538 <I_blt_cg_cr_rs1_rs2_edges_offset_rs1val_0x0_rs2val_0x80000001+0x48>
2: # goes here during backward branch if taken
  LI(x28, 1)
    2514:	00100e13          	addi	x28,x0,1
  # Check if x28 contains the expected result. x17 is the signature ptr, x5 is the link ptr, x4 is a temp reg.
  RVTEST_SIGUPD(x17, x5, x4, x28, I_blt_cg_cr_rs1_rs2_edges_offset_rs1val_0x0_rs2val_0x80000001, I_blt_cg_cr_rs1_rs2_edges_offset_rs1val_0x0_rs2val_0x80000001_str) # signature 1 for taken
    2518:	0008a203          	lw	x4,0(x17)
    251c:	01c20863          	beq	x4,x28,252c <I_blt_cg_cr_rs1_rs2_edges_offset_rs1val_0x0_rs2val_0x80000001+0x3c>
    2520:	35d072ef          	jal	x5,a07c <failedtest_x5_x4>
    2524:	000024f0          	.word	0x000024f0
    2528:	0000dda4          	.word	0x0000dda4
    252c:	00488893          	addi	x17,x17,4
  j 4f # done with test
    2530:	0080006f          	jal	x0,2538 <I_blt_cg_cr_rs1_rs2_edges_offset_rs1val_0x0_rs2val_0x80000001+0x48>
3: # goes here during forward branch if taken
  blt x28, x14, 2b # backward branch, definitely taken
    2534:	feee40e3          	blt	x28,x14,2514 <I_blt_cg_cr_rs1_rs2_edges_offset_rs1val_0x0_rs2val_0x80000001+0x24>
4: # done with test

# cr_rs1_rs2_edges_offset (Test source rs1 = 0x00000000 rs2 = 0x7fffffff)
  RVTEST_TESTDATA_LOAD_INT(x23, x6) # load rs1: x6 = 0x00000000
    2538:	000ba303          	lw	x6,0(x23)
    253c:	004b8b93          	addi	x23,x23,4
  RVTEST_TESTDATA_LOAD_INT(x23, x30) # load rs2: x30 = 0x7fffffff
    2540:	000baf03          	lw	x30,0(x23)
    2544:	004b8b93          	addi	x23,x23,4

00002548 <I_blt_cg_cr_rs1_rs2_edges_offset_rs1val_0x0_rs2val_0x7fffffff>:
0: # destination for backwards branch that is never taken
I_blt_cg_cr_rs1_rs2_edges_offset_rs1val_0x0_rs2val_0x7fffffff:
  blt x6, x30, 3f # forward branch, if taken
    2548:	05e34263          	blt	x6,x30,258c <I_blt_cg_cr_rs1_rs2_edges_offset_rs1val_0x0_rs2val_0x7fffffff+0x44>
1: # goes here if not taken
  blt x6, x30, 0b # backward branch, never taken
    254c:	ffe34ee3          	blt	x6,x30,2548 <I_blt_cg_cr_rs1_rs2_edges_offset_rs1val_0x0_rs2val_0x7fffffff>
  # Check if x0 contains the expected result. x17 is the signature ptr, x5 is the link ptr, x4 is a temp reg.
  RVTEST_SIGUPD(x17, x5, x4, x0, I_blt_cg_cr_rs1_rs2_edges_offset_rs1val_0x0_rs2val_0x7fffffff, I_blt_cg_cr_rs1_rs2_edges_offset_rs1val_0x0_rs2val_0x7fffffff_str)
    2550:	0008a203          	lw	x4,0(x17)
    2554:	00020863          	beq	x4,x0,2564 <I_blt_cg_cr_rs1_rs2_edges_offset_rs1val_0x0_rs2val_0x7fffffff+0x1c>
    2558:	325072ef          	jal	x5,a07c <failedtest_x5_x4>
    255c:	00002548          	.word	0x00002548
    2560:	0000ddfe          	.word	0x0000ddfe
    2564:	00488893          	addi	x17,x17,4
  j 4f # done with test
    2568:	0280006f          	jal	x0,2590 <I_blt_cg_cr_rs1_rs2_edges_offset_rs1val_0x0_rs2val_0x7fffffff+0x48>
2: # goes here during backward branch if taken
  LI(x6, 1)
    256c:	00100313          	addi	x6,x0,1
  # Check if x6 contains the expected result. x17 is the signature ptr, x5 is the link ptr, x4 is a temp reg.
  RVTEST_SIGUPD(x17, x5, x4, x6, I_blt_cg_cr_rs1_rs2_edges_offset_rs1val_0x0_rs2val_0x7fffffff, I_blt_cg_cr_rs1_rs2_edges_offset_rs1val_0x0_rs2val_0x7fffffff_str) # signature 1 for taken
    2570:	0008a203          	lw	x4,0(x17)
    2574:	00620863          	beq	x4,x6,2584 <I_blt_cg_cr_rs1_rs2_edges_offset_rs1val_0x0_rs2val_0x7fffffff+0x3c>
    2578:	305072ef          	jal	x5,a07c <failedtest_x5_x4>
    257c:	00002548          	.word	0x00002548
    2580:	0000ddfe          	.word	0x0000ddfe
    2584:	00488893          	addi	x17,x17,4
  j 4f # done with test
    2588:	0080006f          	jal	x0,2590 <I_blt_cg_cr_rs1_rs2_edges_offset_rs1val_0x0_rs2val_0x7fffffff+0x48>
3: # goes here during forward branch if taken
  blt x6, x30, 2b # backward branch, definitely taken
    258c:	ffe340e3          	blt	x6,x30,256c <I_blt_cg_cr_rs1_rs2_edges_offset_rs1val_0x0_rs2val_0x7fffffff+0x24>
4: # done with test

# cr_rs1_rs2_edges_offset (Test source rs1 = 0x00000000 rs2 = 0x7ffffffe)
  RVTEST_TESTDATA_LOAD_INT(x23, x21) # load rs1: x21 = 0x00000000
    2590:	000baa83          	lw	x21,0(x23)
    2594:	004b8b93          	addi	x23,x23,4
  RVTEST_TESTDATA_LOAD_INT(x23, x31) # load rs2: x31 = 0x7ffffffe
    2598:	000baf83          	lw	x31,0(x23)
    259c:	004b8b93          	addi	x23,x23,4

000025a0 <I_blt_cg_cr_rs1_rs2_edges_offset_rs1val_0x0_rs2val_0x7ffffffe>:
0: # destination for backwards branch that is never taken
I_blt_cg_cr_rs1_rs2_edges_offset_rs1val_0x0_rs2val_0x7ffffffe:
  blt x21, x31, 3f # forward branch, if taken
    25a0:	05fac263          	blt	x21,x31,25e4 <I_blt_cg_cr_rs1_rs2_edges_offset_rs1val_0x0_rs2val_0x7ffffffe+0x44>
1: # goes here if not taken
  blt x21, x31, 0b # backward branch, never taken
    25a4:	fffacee3          	blt	x21,x31,25a0 <I_blt_cg_cr_rs1_rs2_edges_offset_rs1val_0x0_rs2val_0x7ffffffe>
  # Check if x0 contains the expected result. x17 is the signature ptr, x5 is the link ptr, x4 is a temp reg.
  RVTEST_SIGUPD(x17, x5, x4, x0, I_blt_cg_cr_rs1_rs2_edges_offset_rs1val_0x0_rs2val_0x7ffffffe, I_blt_cg_cr_rs1_rs2_edges_offset_rs1val_0x0_rs2val_0x7ffffffe_str)
    25a8:	0008a203          	lw	x4,0(x17)
    25ac:	00020863          	beq	x4,x0,25bc <I_blt_cg_cr_rs1_rs2_edges_offset_rs1val_0x0_rs2val_0x7ffffffe+0x1c>
    25b0:	2cd072ef          	jal	x5,a07c <failedtest_x5_x4>
    25b4:	000025a0          	.word	0x000025a0
    25b8:	0000de58          	.word	0x0000de58
    25bc:	00488893          	addi	x17,x17,4
  j 4f # done with test
    25c0:	0280006f          	jal	x0,25e8 <I_blt_cg_cr_rs1_rs2_edges_offset_rs1val_0x0_rs2val_0x7ffffffe+0x48>
2: # goes here during backward branch if taken
  LI(x21, 1)
    25c4:	00100a93          	addi	x21,x0,1
  # Check if x21 contains the expected result. x17 is the signature ptr, x5 is the link ptr, x4 is a temp reg.
  RVTEST_SIGUPD(x17, x5, x4, x21, I_blt_cg_cr_rs1_rs2_edges_offset_rs1val_0x0_rs2val_0x7ffffffe, I_blt_cg_cr_rs1_rs2_edges_offset_rs1val_0x0_rs2val_0x7ffffffe_str) # signature 1 for taken
    25c8:	0008a203          	lw	x4,0(x17)
    25cc:	01520863          	beq	x4,x21,25dc <I_blt_cg_cr_rs1_rs2_edges_offset_rs1val_0x0_rs2val_0x7ffffffe+0x3c>
    25d0:	2ad072ef          	jal	x5,a07c <failedtest_x5_x4>
    25d4:	000025a0          	.word	0x000025a0
    25d8:	0000de58          	.word	0x0000de58
    25dc:	00488893          	addi	x17,x17,4
  j 4f # done with test
    25e0:	0080006f          	jal	x0,25e8 <I_blt_cg_cr_rs1_rs2_edges_offset_rs1val_0x0_rs2val_0x7ffffffe+0x48>
3: # goes here during forward branch if taken
  blt x21, x31, 2b # backward branch, definitely taken
    25e4:	fffac0e3          	blt	x21,x31,25c4 <I_blt_cg_cr_rs1_rs2_edges_offset_rs1val_0x0_rs2val_0x7ffffffe+0x24>
4: # done with test

# cr_rs1_rs2_edges_offset (Test source rs1 = 0x00000000 rs2 = 0xffffffff)
  RVTEST_TESTDATA_LOAD_INT(x23, x6) # load rs1: x6 = 0x00000000
    25e8:	000ba303          	lw	x6,0(x23)
    25ec:	004b8b93          	addi	x23,x23,4
  RVTEST_TESTDATA_LOAD_INT(x23, x9) # load rs2: x9 = 0xffffffff
    25f0:	000ba483          	lw	x9,0(x23)
    25f4:	004b8b93          	addi	x23,x23,4

000025f8 <I_blt_cg_cr_rs1_rs2_edges_offset_rs1val_0x0_rs2val_0xffffffff>:
0: # destination for backwards branch that is never taken
I_blt_cg_cr_rs1_rs2_edges_offset_rs1val_0x0_rs2val_0xffffffff:
  blt x6, x9, 3f # forward branch, if taken
    25f8:	04934263          	blt	x6,x9,263c <I_blt_cg_cr_rs1_rs2_edges_offset_rs1val_0x0_rs2val_0xffffffff+0x44>
1: # goes here if not taken
  blt x6, x9, 0b # backward branch, never taken
    25fc:	fe934ee3          	blt	x6,x9,25f8 <I_blt_cg_cr_rs1_rs2_edges_offset_rs1val_0x0_rs2val_0xffffffff>
  # Check if x0 contains the expected result. x17 is the signature ptr, x5 is the link ptr, x4 is a temp reg.
  RVTEST_SIGUPD(x17, x5, x4, x0, I_blt_cg_cr_rs1_rs2_edges_offset_rs1val_0x0_rs2val_0xffffffff, I_blt_cg_cr_rs1_rs2_edges_offset_rs1val_0x0_rs2val_0xffffffff_str)
    2600:	0008a203          	lw	x4,0(x17)
    2604:	00020863          	beq	x4,x0,2614 <I_blt_cg_cr_rs1_rs2_edges_offset_rs1val_0x0_rs2val_0xffffffff+0x1c>
    2608:	275072ef          	jal	x5,a07c <failedtest_x5_x4>
    260c:	000025f8          	.word	0x000025f8
    2610:	0000deb2          	.word	0x0000deb2
    2614:	00488893          	addi	x17,x17,4
  j 4f # done with test
    2618:	0280006f          	jal	x0,2640 <I_blt_cg_cr_rs1_rs2_edges_offset_rs1val_0x0_rs2val_0xffffffff+0x48>
2: # goes here during backward branch if taken
  LI(x6, 1)
    261c:	00100313          	addi	x6,x0,1
  # Check if x6 contains the expected result. x17 is the signature ptr, x5 is the link ptr, x4 is a temp reg.
  RVTEST_SIGUPD(x17, x5, x4, x6, I_blt_cg_cr_rs1_rs2_edges_offset_rs1val_0x0_rs2val_0xffffffff, I_blt_cg_cr_rs1_rs2_edges_offset_rs1val_0x0_rs2val_0xffffffff_str) # signature 1 for taken
    2620:	0008a203          	lw	x4,0(x17)
    2624:	00620863          	beq	x4,x6,2634 <I_blt_cg_cr_rs1_rs2_edges_offset_rs1val_0x0_rs2val_0xffffffff+0x3c>
    2628:	255072ef          	jal	x5,a07c <failedtest_x5_x4>
    262c:	000025f8          	.word	0x000025f8
    2630:	0000deb2          	.word	0x0000deb2
    2634:	00488893          	addi	x17,x17,4
  j 4f # done with test
    2638:	0080006f          	jal	x0,2640 <I_blt_cg_cr_rs1_rs2_edges_offset_rs1val_0x0_rs2val_0xffffffff+0x48>
3: # goes here during forward branch if taken
  blt x6, x9, 2b # backward branch, definitely taken
    263c:	fe9340e3          	blt	x6,x9,261c <I_blt_cg_cr_rs1_rs2_edges_offset_rs1val_0x0_rs2val_0xffffffff+0x24>
4: # done with test

# cr_rs1_rs2_edges_offset (Test source rs1 = 0x00000000 rs2 = 0xfffffffe)
  RVTEST_TESTDATA_LOAD_INT(x23, x9) # load rs1: x9 = 0x00000000
    2640:	000ba483          	lw	x9,0(x23)
    2644:	004b8b93          	addi	x23,x23,4
  RVTEST_TESTDATA_LOAD_INT(x23, x27) # load rs2: x27 = 0xfffffffe
    2648:	000bad83          	lw	x27,0(x23)
    264c:	004b8b93          	addi	x23,x23,4

00002650 <I_blt_cg_cr_rs1_rs2_edges_offset_rs1val_0x0_rs2val_0xfffffffe>:
0: # destination for backwards branch that is never taken
I_blt_cg_cr_rs1_rs2_edges_offset_rs1val_0x0_rs2val_0xfffffffe:
  blt x9, x27, 3f # forward branch, if taken
    2650:	05b4c263          	blt	x9,x27,2694 <I_blt_cg_cr_rs1_rs2_edges_offset_rs1val_0x0_rs2val_0xfffffffe+0x44>
1: # goes here if not taken
  blt x9, x27, 0b # backward branch, never taken
    2654:	ffb4cee3          	blt	x9,x27,2650 <I_blt_cg_cr_rs1_rs2_edges_offset_rs1val_0x0_rs2val_0xfffffffe>
  # Check if x0 contains the expected result. x17 is the signature ptr, x5 is the link ptr, x4 is a temp reg.
  RVTEST_SIGUPD(x17, x5, x4, x0, I_blt_cg_cr_rs1_rs2_edges_offset_rs1val_0x0_rs2val_0xfffffffe, I_blt_cg_cr_rs1_rs2_edges_offset_rs1val_0x0_rs2val_0xfffffffe_str)
    2658:	0008a203          	lw	x4,0(x17)
    265c:	00020863          	beq	x4,x0,266c <I_blt_cg_cr_rs1_rs2_edges_offset_rs1val_0x0_rs2val_0xfffffffe+0x1c>
    2660:	21d072ef          	jal	x5,a07c <failedtest_x5_x4>
    2664:	00002650          	.word	0x00002650
    2668:	0000df0c          	.word	0x0000df0c
    266c:	00488893          	addi	x17,x17,4
  j 4f # done with test
    2670:	0280006f          	jal	x0,2698 <I_blt_cg_cr_rs1_rs2_edges_offset_rs1val_0x0_rs2val_0xfffffffe+0x48>
2: # goes here during backward branch if taken
  LI(x9, 1)
    2674:	00100493          	addi	x9,x0,1
  # Check if x9 contains the expected result. x17 is the signature ptr, x5 is the link ptr, x4 is a temp reg.
  RVTEST_SIGUPD(x17, x5, x4, x9, I_blt_cg_cr_rs1_rs2_edges_offset_rs1val_0x0_rs2val_0xfffffffe, I_blt_cg_cr_rs1_rs2_edges_offset_rs1val_0x0_rs2val_0xfffffffe_str) # signature 1 for taken
    2678:	0008a203          	lw	x4,0(x17)
    267c:	00920863          	beq	x4,x9,268c <I_blt_cg_cr_rs1_rs2_edges_offset_rs1val_0x0_rs2val_0xfffffffe+0x3c>
    2680:	1fd072ef          	jal	x5,a07c <failedtest_x5_x4>
    2684:	00002650          	.word	0x00002650
    2688:	0000df0c          	.word	0x0000df0c
    268c:	00488893          	addi	x17,x17,4
  j 4f # done with test
    2690:	0080006f          	jal	x0,2698 <I_blt_cg_cr_rs1_rs2_edges_offset_rs1val_0x0_rs2val_0xfffffffe+0x48>
3: # goes here during forward branch if taken
  blt x9, x27, 2b # backward branch, definitely taken
    2694:	ffb4c0e3          	blt	x9,x27,2674 <I_blt_cg_cr_rs1_rs2_edges_offset_rs1val_0x0_rs2val_0xfffffffe+0x24>
4: # done with test

# cr_rs1_rs2_edges_offset (Test source rs1 = 0x00000000 rs2 = 0x5bbc8872)
  RVTEST_TESTDATA_LOAD_INT(x23, x6) # load rs1: x6 = 0x00000000
    2698:	000ba303          	lw	x6,0(x23)
    269c:	004b8b93          	addi	x23,x23,4
  RVTEST_TESTDATA_LOAD_INT(x23, x25) # load rs2: x25 = 0x5bbc8872
    26a0:	000bac83          	lw	x25,0(x23)
    26a4:	004b8b93          	addi	x23,x23,4

000026a8 <I_blt_cg_cr_rs1_rs2_edges_offset_rs1val_0x0_rs2val_0x5bbc8872>:
0: # destination for backwards branch that is never taken
I_blt_cg_cr_rs1_rs2_edges_offset_rs1val_0x0_rs2val_0x5bbc8872:
  blt x6, x25, 3f # forward branch, if taken
    26a8:	05934263          	blt	x6,x25,26ec <I_blt_cg_cr_rs1_rs2_edges_offset_rs1val_0x0_rs2val_0x5bbc8872+0x44>
1: # goes here if not taken
  blt x6, x25, 0b # backward branch, never taken
    26ac:	ff934ee3          	blt	x6,x25,26a8 <I_blt_cg_cr_rs1_rs2_edges_offset_rs1val_0x0_rs2val_0x5bbc8872>
  # Check if x0 contains the expected result. x17 is the signature ptr, x5 is the link ptr, x4 is a temp reg.
  RVTEST_SIGUPD(x17, x5, x4, x0, I_blt_cg_cr_rs1_rs2_edges_offset_rs1val_0x0_rs2val_0x5bbc8872, I_blt_cg_cr_rs1_rs2_edges_offset_rs1val_0x0_rs2val_0x5bbc8872_str)
    26b0:	0008a203          	lw	x4,0(x17)
    26b4:	00020863          	beq	x4,x0,26c4 <I_blt_cg_cr_rs1_rs2_edges_offset_rs1val_0x0_rs2val_0x5bbc8872+0x1c>
    26b8:	1c5072ef          	jal	x5,a07c <failedtest_x5_x4>
    26bc:	000026a8          	.word	0x000026a8
    26c0:	0000df66          	.word	0x0000df66
    26c4:	00488893          	addi	x17,x17,4
  j 4f # done with test
    26c8:	0280006f          	jal	x0,26f0 <I_blt_cg_cr_rs1_rs2_edges_offset_rs1val_0x0_rs2val_0x5bbc8872+0x48>
2: # goes here during backward branch if taken
  LI(x6, 1)
    26cc:	00100313          	addi	x6,x0,1
  # Check if x6 contains the expected result. x17 is the signature ptr, x5 is the link ptr, x4 is a temp reg.
  RVTEST_SIGUPD(x17, x5, x4, x6, I_blt_cg_cr_rs1_rs2_edges_offset_rs1val_0x0_rs2val_0x5bbc8872, I_blt_cg_cr_rs1_rs2_edges_offset_rs1val_0x0_rs2val_0x5bbc8872_str) # signature 1 for taken
    26d0:	0008a203          	lw	x4,0(x17)
    26d4:	00620863          	beq	x4,x6,26e4 <I_blt_cg_cr_rs1_rs2_edges_offset_rs1val_0x0_rs2val_0x5bbc8872+0x3c>
    26d8:	1a5072ef          	jal	x5,a07c <failedtest_x5_x4>
    26dc:	000026a8          	.word	0x000026a8
    26e0:	0000df66          	.word	0x0000df66
    26e4:	00488893          	addi	x17,x17,4
  j 4f # done with test
    26e8:	0080006f          	jal	x0,26f0 <I_blt_cg_cr_rs1_rs2_edges_offset_rs1val_0x0_rs2val_0x5bbc8872+0x48>
3: # goes here during forward branch if taken
  blt x6, x25, 2b # backward branch, definitely taken
    26ec:	ff9340e3          	blt	x6,x25,26cc <I_blt_cg_cr_rs1_rs2_edges_offset_rs1val_0x0_rs2val_0x5bbc8872+0x24>
4: # done with test

# cr_rs1_rs2_edges_offset (Test source rs1 = 0x00000000 rs2 = 0xaaaaaaaa)
  RVTEST_TESTDATA_LOAD_INT(x23, x24) # load rs1: x24 = 0x00000000
    26f0:	000bac03          	lw	x24,0(x23)
    26f4:	004b8b93          	addi	x23,x23,4
  RVTEST_TESTDATA_LOAD_INT(x23, x31) # load rs2: x31 = 0xaaaaaaaa
    26f8:	000baf83          	lw	x31,0(x23)
    26fc:	004b8b93          	addi	x23,x23,4

00002700 <I_blt_cg_cr_rs1_rs2_edges_offset_rs1val_0x0_rs2val_0xaaaaaaaa>:
0: # destination for backwards branch that is never taken
I_blt_cg_cr_rs1_rs2_edges_offset_rs1val_0x0_rs2val_0xaaaaaaaa:
  blt x24, x31, 3f # forward branch, if taken
    2700:	05fc4263          	blt	x24,x31,2744 <I_blt_cg_cr_rs1_rs2_edges_offset_rs1val_0x0_rs2val_0xaaaaaaaa+0x44>
1: # goes here if not taken
  blt x24, x31, 0b # backward branch, never taken
    2704:	fffc4ee3          	blt	x24,x31,2700 <I_blt_cg_cr_rs1_rs2_edges_offset_rs1val_0x0_rs2val_0xaaaaaaaa>
  # Check if x0 contains the expected result. x17 is the signature ptr, x5 is the link ptr, x4 is a temp reg.
  RVTEST_SIGUPD(x17, x5, x4, x0, I_blt_cg_cr_rs1_rs2_edges_offset_rs1val_0x0_rs2val_0xaaaaaaaa, I_blt_cg_cr_rs1_rs2_edges_offset_rs1val_0x0_rs2val_0xaaaaaaaa_str)
    2708:	0008a203          	lw	x4,0(x17)
    270c:	00020863          	beq	x4,x0,271c <I_blt_cg_cr_rs1_rs2_edges_offset_rs1val_0x0_rs2val_0xaaaaaaaa+0x1c>
    2710:	16d072ef          	jal	x5,a07c <failedtest_x5_x4>
    2714:	00002700          	.word	0x00002700
    2718:	0000dfc0          	.word	0x0000dfc0
    271c:	00488893          	addi	x17,x17,4
  j 4f # done with test
    2720:	0280006f          	jal	x0,2748 <I_blt_cg_cr_rs1_rs2_edges_offset_rs1val_0x0_rs2val_0xaaaaaaaa+0x48>
2: # goes here during backward branch if taken
  LI(x24, 1)
    2724:	00100c13          	addi	x24,x0,1
  # Check if x24 contains the expected result. x17 is the signature ptr, x5 is the link ptr, x4 is a temp reg.
  RVTEST_SIGUPD(x17, x5, x4, x24, I_blt_cg_cr_rs1_rs2_edges_offset_rs1val_0x0_rs2val_0xaaaaaaaa, I_blt_cg_cr_rs1_rs2_edges_offset_rs1val_0x0_rs2val_0xaaaaaaaa_str) # signature 1 for taken
    2728:	0008a203          	lw	x4,0(x17)
    272c:	01820863          	beq	x4,x24,273c <I_blt_cg_cr_rs1_rs2_edges_offset_rs1val_0x0_rs2val_0xaaaaaaaa+0x3c>
    2730:	14d072ef          	jal	x5,a07c <failedtest_x5_x4>
    2734:	00002700          	.word	0x00002700
    2738:	0000dfc0          	.word	0x0000dfc0
    273c:	00488893          	addi	x17,x17,4
  j 4f # done with test
    2740:	0080006f          	jal	x0,2748 <I_blt_cg_cr_rs1_rs2_edges_offset_rs1val_0x0_rs2val_0xaaaaaaaa+0x48>
3: # goes here during forward branch if taken
  blt x24, x31, 2b # backward branch, definitely taken
    2744:	fffc40e3          	blt	x24,x31,2724 <I_blt_cg_cr_rs1_rs2_edges_offset_rs1val_0x0_rs2val_0xaaaaaaaa+0x24>
4: # done with test

# cr_rs1_rs2_edges_offset (Test source rs1 = 0x00000000 rs2 = 0x55555555)
  RVTEST_TESTDATA_LOAD_INT(x23, x16) # load rs1: x16 = 0x00000000
    2748:	000ba803          	lw	x16,0(x23)
    274c:	004b8b93          	addi	x23,x23,4
  RVTEST_TESTDATA_LOAD_INT(x23, x20) # load rs2: x20 = 0x55555555
    2750:	000baa03          	lw	x20,0(x23)
    2754:	004b8b93          	addi	x23,x23,4

00002758 <I_blt_cg_cr_rs1_rs2_edges_offset_rs1val_0x0_rs2val_0x55555555>:
0: # destination for backwards branch that is never taken
I_blt_cg_cr_rs1_rs2_edges_offset_rs1val_0x0_rs2val_0x55555555:
  blt x16, x20, 3f # forward branch, if taken
    2758:	05484263          	blt	x16,x20,279c <I_blt_cg_cr_rs1_rs2_edges_offset_rs1val_0x0_rs2val_0x55555555+0x44>
1: # goes here if not taken
  blt x16, x20, 0b # backward branch, never taken
    275c:	ff484ee3          	blt	x16,x20,2758 <I_blt_cg_cr_rs1_rs2_edges_offset_rs1val_0x0_rs2val_0x55555555>
  # Check if x0 contains the expected result. x17 is the signature ptr, x5 is the link ptr, x4 is a temp reg.
  RVTEST_SIGUPD(x17, x5, x4, x0, I_blt_cg_cr_rs1_rs2_edges_offset_rs1val_0x0_rs2val_0x55555555, I_blt_cg_cr_rs1_rs2_edges_offset_rs1val_0x0_rs2val_0x55555555_str)
    2760:	0008a203          	lw	x4,0(x17)
    2764:	00020863          	beq	x4,x0,2774 <I_blt_cg_cr_rs1_rs2_edges_offset_rs1val_0x0_rs2val_0x55555555+0x1c>
    2768:	115072ef          	jal	x5,a07c <failedtest_x5_x4>
    276c:	00002758          	.word	0x00002758
    2770:	0000e01a          	.word	0x0000e01a
    2774:	00488893          	addi	x17,x17,4
  j 4f # done with test
    2778:	0280006f          	jal	x0,27a0 <I_blt_cg_cr_rs1_rs2_edges_offset_rs1val_0x0_rs2val_0x55555555+0x48>
2: # goes here during backward branch if taken
  LI(x16, 1)
    277c:	00100813          	addi	x16,x0,1
  # Check if x16 contains the expected result. x17 is the signature ptr, x5 is the link ptr, x4 is a temp reg.
  RVTEST_SIGUPD(x17, x5, x4, x16, I_blt_cg_cr_rs1_rs2_edges_offset_rs1val_0x0_rs2val_0x55555555, I_blt_cg_cr_rs1_rs2_edges_offset_rs1val_0x0_rs2val_0x55555555_str) # signature 1 for taken
    2780:	0008a203          	lw	x4,0(x17)
    2784:	01020863          	beq	x4,x16,2794 <I_blt_cg_cr_rs1_rs2_edges_offset_rs1val_0x0_rs2val_0x55555555+0x3c>
    2788:	0f5072ef          	jal	x5,a07c <failedtest_x5_x4>
    278c:	00002758          	.word	0x00002758
    2790:	0000e01a          	.word	0x0000e01a
    2794:	00488893          	addi	x17,x17,4
  j 4f # done with test
    2798:	0080006f          	jal	x0,27a0 <I_blt_cg_cr_rs1_rs2_edges_offset_rs1val_0x0_rs2val_0x55555555+0x48>
3: # goes here during forward branch if taken
  blt x16, x20, 2b # backward branch, definitely taken
    279c:	ff4840e3          	blt	x16,x20,277c <I_blt_cg_cr_rs1_rs2_edges_offset_rs1val_0x0_rs2val_0x55555555+0x24>
4: # done with test

# cr_rs1_rs2_edges_offset (Test source rs1 = 0x00000001 rs2 = 0x00000000)
  RVTEST_TESTDATA_LOAD_INT(x23, x24) # load rs1: x24 = 0x00000001
    27a0:	000bac03          	lw	x24,0(x23)
    27a4:	004b8b93          	addi	x23,x23,4
  RVTEST_TESTDATA_LOAD_INT(x23, x15) # load rs2: x15 = 0x00000000
    27a8:	000ba783          	lw	x15,0(x23)
    27ac:	004b8b93          	addi	x23,x23,4

000027b0 <I_blt_cg_cr_rs1_rs2_edges_offset_rs1val_0x1_rs2val_0x0>:
0: # destination for backwards branch that is never taken
I_blt_cg_cr_rs1_rs2_edges_offset_rs1val_0x1_rs2val_0x0:
  blt x24, x15, 3f # forward branch, if taken
    27b0:	04fc4263          	blt	x24,x15,27f4 <I_blt_cg_cr_rs1_rs2_edges_offset_rs1val_0x1_rs2val_0x0+0x44>
1: # goes here if not taken
  blt x24, x15, 0b # backward branch, never taken
    27b4:	fefc4ee3          	blt	x24,x15,27b0 <I_blt_cg_cr_rs1_rs2_edges_offset_rs1val_0x1_rs2val_0x0>
  # Check if x0 contains the expected result. x17 is the signature ptr, x5 is the link ptr, x4 is a temp reg.
  RVTEST_SIGUPD(x17, x5, x4, x0, I_blt_cg_cr_rs1_rs2_edges_offset_rs1val_0x1_rs2val_0x0, I_blt_cg_cr_rs1_rs2_edges_offset_rs1val_0x1_rs2val_0x0_str)
    27b8:	0008a203          	lw	x4,0(x17)
    27bc:	00020863          	beq	x4,x0,27cc <I_blt_cg_cr_rs1_rs2_edges_offset_rs1val_0x1_rs2val_0x0+0x1c>
    27c0:	0bd072ef          	jal	x5,a07c <failedtest_x5_x4>
    27c4:	000027b0          	.word	0x000027b0
    27c8:	0000e075          	.word	0x0000e075
    27cc:	00488893          	addi	x17,x17,4
  j 4f # done with test
    27d0:	0280006f          	jal	x0,27f8 <I_blt_cg_cr_rs1_rs2_edges_offset_rs1val_0x1_rs2val_0x0+0x48>
2: # goes here during backward branch if taken
  LI(x24, 1)
    27d4:	00100c13          	addi	x24,x0,1
  # Check if x24 contains the expected result. x17 is the signature ptr, x5 is the link ptr, x4 is a temp reg.
  RVTEST_SIGUPD(x17, x5, x4, x24, I_blt_cg_cr_rs1_rs2_edges_offset_rs1val_0x1_rs2val_0x0, I_blt_cg_cr_rs1_rs2_edges_offset_rs1val_0x1_rs2val_0x0_str) # signature 1 for taken
    27d8:	0008a203          	lw	x4,0(x17)
    27dc:	01820863          	beq	x4,x24,27ec <I_blt_cg_cr_rs1_rs2_edges_offset_rs1val_0x1_rs2val_0x0+0x3c>
    27e0:	09d072ef          	jal	x5,a07c <failedtest_x5_x4>
    27e4:	000027b0          	.word	0x000027b0
    27e8:	0000e075          	.word	0x0000e075
    27ec:	00488893          	addi	x17,x17,4
  j 4f # done with test
    27f0:	0080006f          	jal	x0,27f8 <I_blt_cg_cr_rs1_rs2_edges_offset_rs1val_0x1_rs2val_0x0+0x48>
3: # goes here during forward branch if taken
  blt x24, x15, 2b # backward branch, definitely taken
    27f4:	fefc40e3          	blt	x24,x15,27d4 <I_blt_cg_cr_rs1_rs2_edges_offset_rs1val_0x1_rs2val_0x0+0x24>
4: # done with test

# cr_rs1_rs2_edges_offset (Test source rs1 = 0x00000001 rs2 = 0x00000001)
  RVTEST_TESTDATA_LOAD_INT(x23, x18) # load rs1: x18 = 0x00000001
    27f8:	000ba903          	lw	x18,0(x23)
    27fc:	004b8b93          	addi	x23,x23,4
  RVTEST_TESTDATA_LOAD_INT(x23, x3) # load rs2: x3 = 0x00000001
    2800:	000ba183          	lw	x3,0(x23)
    2804:	004b8b93          	addi	x23,x23,4

00002808 <I_blt_cg_cr_rs1_rs2_edges_offset_rs1val_0x1_rs2val_0x1>:
0: # destination for backwards branch that is never taken
I_blt_cg_cr_rs1_rs2_edges_offset_rs1val_0x1_rs2val_0x1:
  blt x18, x3, 3f # forward branch, if taken
    2808:	04394263          	blt	x18,x3,284c <I_blt_cg_cr_rs1_rs2_edges_offset_rs1val_0x1_rs2val_0x1+0x44>
1: # goes here if not taken
  blt x18, x3, 0b # backward branch, never taken
    280c:	fe394ee3          	blt	x18,x3,2808 <I_blt_cg_cr_rs1_rs2_edges_offset_rs1val_0x1_rs2val_0x1>
  # Check if x0 contains the expected result. x17 is the signature ptr, x5 is the link ptr, x4 is a temp reg.
  RVTEST_SIGUPD(x17, x5, x4, x0, I_blt_cg_cr_rs1_rs2_edges_offset_rs1val_0x1_rs2val_0x1, I_blt_cg_cr_rs1_rs2_edges_offset_rs1val_0x1_rs2val_0x1_str)
    2810:	0008a203          	lw	x4,0(x17)
    2814:	00020863          	beq	x4,x0,2824 <I_blt_cg_cr_rs1_rs2_edges_offset_rs1val_0x1_rs2val_0x1+0x1c>
    2818:	065072ef          	jal	x5,a07c <failedtest_x5_x4>
    281c:	00002808          	.word	0x00002808
    2820:	0000e0c9          	.word	0x0000e0c9
    2824:	00488893          	addi	x17,x17,4
  j 4f # done with test
    2828:	0280006f          	jal	x0,2850 <I_blt_cg_cr_rs1_rs2_edges_offset_rs1val_0x1_rs2val_0x1+0x48>
2: # goes here during backward branch if taken
  LI(x18, 1)
    282c:	00100913          	addi	x18,x0,1
  # Check if x18 contains the expected result. x17 is the signature ptr, x5 is the link ptr, x4 is a temp reg.
  RVTEST_SIGUPD(x17, x5, x4, x18, I_blt_cg_cr_rs1_rs2_edges_offset_rs1val_0x1_rs2val_0x1, I_blt_cg_cr_rs1_rs2_edges_offset_rs1val_0x1_rs2val_0x1_str) # signature 1 for taken
    2830:	0008a203          	lw	x4,0(x17)
    2834:	01220863          	beq	x4,x18,2844 <I_blt_cg_cr_rs1_rs2_edges_offset_rs1val_0x1_rs2val_0x1+0x3c>
    2838:	045072ef          	jal	x5,a07c <failedtest_x5_x4>
    283c:	00002808          	.word	0x00002808
    2840:	0000e0c9          	.word	0x0000e0c9
    2844:	00488893          	addi	x17,x17,4
  j 4f # done with test
    2848:	0080006f          	jal	x0,2850 <I_blt_cg_cr_rs1_rs2_edges_offset_rs1val_0x1_rs2val_0x1+0x48>
3: # goes here during forward branch if taken
  blt x18, x3, 2b # backward branch, definitely taken
    284c:	fe3940e3          	blt	x18,x3,282c <I_blt_cg_cr_rs1_rs2_edges_offset_rs1val_0x1_rs2val_0x1+0x24>
4: # done with test

# cr_rs1_rs2_edges_offset (Test source rs1 = 0x00000001 rs2 = 0x00000002)
  RVTEST_TESTDATA_LOAD_INT(x23, x15) # load rs1: x15 = 0x00000001
    2850:	000ba783          	lw	x15,0(x23)
    2854:	004b8b93          	addi	x23,x23,4
  RVTEST_TESTDATA_LOAD_INT(x23, x8) # load rs2: x8 = 0x00000002
    2858:	000ba403          	lw	x8,0(x23)
    285c:	004b8b93          	addi	x23,x23,4

00002860 <I_blt_cg_cr_rs1_rs2_edges_offset_rs1val_0x1_rs2val_0x2>:
0: # destination for backwards branch that is never taken
I_blt_cg_cr_rs1_rs2_edges_offset_rs1val_0x1_rs2val_0x2:
  blt x15, x8, 3f # forward branch, if taken
    2860:	0487c263          	blt	x15,x8,28a4 <I_blt_cg_cr_rs1_rs2_edges_offset_rs1val_0x1_rs2val_0x2+0x44>
1: # goes here if not taken
  blt x15, x8, 0b # backward branch, never taken
    2864:	fe87cee3          	blt	x15,x8,2860 <I_blt_cg_cr_rs1_rs2_edges_offset_rs1val_0x1_rs2val_0x2>
  # Check if x0 contains the expected result. x17 is the signature ptr, x5 is the link ptr, x4 is a temp reg.
  RVTEST_SIGUPD(x17, x5, x4, x0, I_blt_cg_cr_rs1_rs2_edges_offset_rs1val_0x1_rs2val_0x2, I_blt_cg_cr_rs1_rs2_edges_offset_rs1val_0x1_rs2val_0x2_str)
    2868:	0008a203          	lw	x4,0(x17)
    286c:	00020863          	beq	x4,x0,287c <I_blt_cg_cr_rs1_rs2_edges_offset_rs1val_0x1_rs2val_0x2+0x1c>
    2870:	00d072ef          	jal	x5,a07c <failedtest_x5_x4>
    2874:	00002860          	.word	0x00002860
    2878:	0000e11d          	.word	0x0000e11d
    287c:	00488893          	addi	x17,x17,4
  j 4f # done with test
    2880:	0280006f          	jal	x0,28a8 <I_blt_cg_cr_rs1_rs2_edges_offset_rs1val_0x1_rs2val_0x2+0x48>
2: # goes here during backward branch if taken
  LI(x15, 1)
    2884:	00100793          	addi	x15,x0,1
  # Check if x15 contains the expected result. x17 is the signature ptr, x5 is the link ptr, x4 is a temp reg.
  RVTEST_SIGUPD(x17, x5, x4, x15, I_blt_cg_cr_rs1_rs2_edges_offset_rs1val_0x1_rs2val_0x2, I_blt_cg_cr_rs1_rs2_edges_offset_rs1val_0x1_rs2val_0x2_str) # signature 1 for taken
    2888:	0008a203          	lw	x4,0(x17)
    288c:	00f20863          	beq	x4,x15,289c <I_blt_cg_cr_rs1_rs2_edges_offset_rs1val_0x1_rs2val_0x2+0x3c>
    2890:	7ec072ef          	jal	x5,a07c <failedtest_x5_x4>
    2894:	00002860          	.word	0x00002860
    2898:	0000e11d          	.word	0x0000e11d
    289c:	00488893          	addi	x17,x17,4
  j 4f # done with test
    28a0:	0080006f          	jal	x0,28a8 <I_blt_cg_cr_rs1_rs2_edges_offset_rs1val_0x1_rs2val_0x2+0x48>
3: # goes here during forward branch if taken
  blt x15, x8, 2b # backward branch, definitely taken
    28a4:	fe87c0e3          	blt	x15,x8,2884 <I_blt_cg_cr_rs1_rs2_edges_offset_rs1val_0x1_rs2val_0x2+0x24>
4: # done with test

# cr_rs1_rs2_edges_offset (Test source rs1 = 0x00000001 rs2 = 0x80000000)
  RVTEST_TESTDATA_LOAD_INT(x23, x18) # load rs1: x18 = 0x00000001
    28a8:	000ba903          	lw	x18,0(x23)
    28ac:	004b8b93          	addi	x23,x23,4
  RVTEST_TESTDATA_LOAD_INT(x23, x31) # load rs2: x31 = 0x80000000
    28b0:	000baf83          	lw	x31,0(x23)
    28b4:	004b8b93          	addi	x23,x23,4

000028b8 <I_blt_cg_cr_rs1_rs2_edges_offset_rs1val_0x1_rs2val_0x80000000>:
0: # destination for backwards branch that is never taken
I_blt_cg_cr_rs1_rs2_edges_offset_rs1val_0x1_rs2val_0x80000000:
  blt x18, x31, 3f # forward branch, if taken
    28b8:	05f94263          	blt	x18,x31,28fc <I_blt_cg_cr_rs1_rs2_edges_offset_rs1val_0x1_rs2val_0x80000000+0x44>
1: # goes here if not taken
  blt x18, x31, 0b # backward branch, never taken
    28bc:	fff94ee3          	blt	x18,x31,28b8 <I_blt_cg_cr_rs1_rs2_edges_offset_rs1val_0x1_rs2val_0x80000000>
  # Check if x0 contains the expected result. x17 is the signature ptr, x5 is the link ptr, x4 is a temp reg.
  RVTEST_SIGUPD(x17, x5, x4, x0, I_blt_cg_cr_rs1_rs2_edges_offset_rs1val_0x1_rs2val_0x80000000, I_blt_cg_cr_rs1_rs2_edges_offset_rs1val_0x1_rs2val_0x80000000_str)
    28c0:	0008a203          	lw	x4,0(x17)
    28c4:	00020863          	beq	x4,x0,28d4 <I_blt_cg_cr_rs1_rs2_edges_offset_rs1val_0x1_rs2val_0x80000000+0x1c>
    28c8:	7b4072ef          	jal	x5,a07c <failedtest_x5_x4>
    28cc:	000028b8          	.word	0x000028b8
    28d0:	0000e171          	.word	0x0000e171
    28d4:	00488893          	addi	x17,x17,4
  j 4f # done with test
    28d8:	0280006f          	jal	x0,2900 <I_blt_cg_cr_rs1_rs2_edges_offset_rs1val_0x1_rs2val_0x80000000+0x48>
2: # goes here during backward branch if taken
  LI(x18, 1)
    28dc:	00100913          	addi	x18,x0,1
  # Check if x18 contains the expected result. x17 is the signature ptr, x5 is the link ptr, x4 is a temp reg.
  RVTEST_SIGUPD(x17, x5, x4, x18, I_blt_cg_cr_rs1_rs2_edges_offset_rs1val_0x1_rs2val_0x80000000, I_blt_cg_cr_rs1_rs2_edges_offset_rs1val_0x1_rs2val_0x80000000_str) # signature 1 for taken
    28e0:	0008a203          	lw	x4,0(x17)
    28e4:	01220863          	beq	x4,x18,28f4 <I_blt_cg_cr_rs1_rs2_edges_offset_rs1val_0x1_rs2val_0x80000000+0x3c>
    28e8:	794072ef          	jal	x5,a07c <failedtest_x5_x4>
    28ec:	000028b8          	.word	0x000028b8
    28f0:	0000e171          	.word	0x0000e171
    28f4:	00488893          	addi	x17,x17,4
  j 4f # done with test
    28f8:	0080006f          	jal	x0,2900 <I_blt_cg_cr_rs1_rs2_edges_offset_rs1val_0x1_rs2val_0x80000000+0x48>
3: # goes here during forward branch if taken
  blt x18, x31, 2b # backward branch, definitely taken
    28fc:	fff940e3          	blt	x18,x31,28dc <I_blt_cg_cr_rs1_rs2_edges_offset_rs1val_0x1_rs2val_0x80000000+0x24>
4: # done with test

# cr_rs1_rs2_edges_offset (Test source rs1 = 0x00000001 rs2 = 0x80000001)
  RVTEST_TESTDATA_LOAD_INT(x23, x6) # load rs1: x6 = 0x00000001
    2900:	000ba303          	lw	x6,0(x23)
    2904:	004b8b93          	addi	x23,x23,4
  RVTEST_TESTDATA_LOAD_INT(x23, x18) # load rs2: x18 = 0x80000001
    2908:	000ba903          	lw	x18,0(x23)
    290c:	004b8b93          	addi	x23,x23,4

00002910 <I_blt_cg_cr_rs1_rs2_edges_offset_rs1val_0x1_rs2val_0x80000001>:
0: # destination for backwards branch that is never taken
I_blt_cg_cr_rs1_rs2_edges_offset_rs1val_0x1_rs2val_0x80000001:
  blt x6, x18, 3f # forward branch, if taken
    2910:	05234263          	blt	x6,x18,2954 <I_blt_cg_cr_rs1_rs2_edges_offset_rs1val_0x1_rs2val_0x80000001+0x44>
1: # goes here if not taken
  blt x6, x18, 0b # backward branch, never taken
    2914:	ff234ee3          	blt	x6,x18,2910 <I_blt_cg_cr_rs1_rs2_edges_offset_rs1val_0x1_rs2val_0x80000001>
  # Check if x0 contains the expected result. x17 is the signature ptr, x5 is the link ptr, x4 is a temp reg.
  RVTEST_SIGUPD(x17, x5, x4, x0, I_blt_cg_cr_rs1_rs2_edges_offset_rs1val_0x1_rs2val_0x80000001, I_blt_cg_cr_rs1_rs2_edges_offset_rs1val_0x1_rs2val_0x80000001_str)
    2918:	0008a203          	lw	x4,0(x17)
    291c:	00020863          	beq	x4,x0,292c <I_blt_cg_cr_rs1_rs2_edges_offset_rs1val_0x1_rs2val_0x80000001+0x1c>
    2920:	75c072ef          	jal	x5,a07c <failedtest_x5_x4>
    2924:	00002910          	.word	0x00002910
    2928:	0000e1cc          	.word	0x0000e1cc
    292c:	00488893          	addi	x17,x17,4
  j 4f # done with test
    2930:	0280006f          	jal	x0,2958 <I_blt_cg_cr_rs1_rs2_edges_offset_rs1val_0x1_rs2val_0x80000001+0x48>
2: # goes here during backward branch if taken
  LI(x6, 1)
    2934:	00100313          	addi	x6,x0,1
  # Check if x6 contains the expected result. x17 is the signature ptr, x5 is the link ptr, x4 is a temp reg.
  RVTEST_SIGUPD(x17, x5, x4, x6, I_blt_cg_cr_rs1_rs2_edges_offset_rs1val_0x1_rs2val_0x80000001, I_blt_cg_cr_rs1_rs2_edges_offset_rs1val_0x1_rs2val_0x80000001_str) # signature 1 for taken
    2938:	0008a203          	lw	x4,0(x17)
    293c:	00620863          	beq	x4,x6,294c <I_blt_cg_cr_rs1_rs2_edges_offset_rs1val_0x1_rs2val_0x80000001+0x3c>
    2940:	73c072ef          	jal	x5,a07c <failedtest_x5_x4>
    2944:	00002910          	.word	0x00002910
    2948:	0000e1cc          	.word	0x0000e1cc
    294c:	00488893          	addi	x17,x17,4
  j 4f # done with test
    2950:	0080006f          	jal	x0,2958 <I_blt_cg_cr_rs1_rs2_edges_offset_rs1val_0x1_rs2val_0x80000001+0x48>
3: # goes here during forward branch if taken
  blt x6, x18, 2b # backward branch, definitely taken
    2954:	ff2340e3          	blt	x6,x18,2934 <I_blt_cg_cr_rs1_rs2_edges_offset_rs1val_0x1_rs2val_0x80000001+0x24>
4: # done with test

# cr_rs1_rs2_edges_offset (Test source rs1 = 0x00000001 rs2 = 0x7fffffff)
  RVTEST_TESTDATA_LOAD_INT(x23, x30) # load rs1: x30 = 0x00000001
    2958:	000baf03          	lw	x30,0(x23)
    295c:	004b8b93          	addi	x23,x23,4
  RVTEST_TESTDATA_LOAD_INT(x23, x10) # load rs2: x10 = 0x7fffffff
    2960:	000ba503          	lw	x10,0(x23)
    2964:	004b8b93          	addi	x23,x23,4

00002968 <I_blt_cg_cr_rs1_rs2_edges_offset_rs1val_0x1_rs2val_0x7fffffff>:
0: # destination for backwards branch that is never taken
I_blt_cg_cr_rs1_rs2_edges_offset_rs1val_0x1_rs2val_0x7fffffff:
  blt x30, x10, 3f # forward branch, if taken
    2968:	04af4263          	blt	x30,x10,29ac <I_blt_cg_cr_rs1_rs2_edges_offset_rs1val_0x1_rs2val_0x7fffffff+0x44>
1: # goes here if not taken
  blt x30, x10, 0b # backward branch, never taken
    296c:	feaf4ee3          	blt	x30,x10,2968 <I_blt_cg_cr_rs1_rs2_edges_offset_rs1val_0x1_rs2val_0x7fffffff>
  # Check if x0 contains the expected result. x17 is the signature ptr, x5 is the link ptr, x4 is a temp reg.
  RVTEST_SIGUPD(x17, x5, x4, x0, I_blt_cg_cr_rs1_rs2_edges_offset_rs1val_0x1_rs2val_0x7fffffff, I_blt_cg_cr_rs1_rs2_edges_offset_rs1val_0x1_rs2val_0x7fffffff_str)
    2970:	0008a203          	lw	x4,0(x17)
    2974:	00020863          	beq	x4,x0,2984 <I_blt_cg_cr_rs1_rs2_edges_offset_rs1val_0x1_rs2val_0x7fffffff+0x1c>
    2978:	704072ef          	jal	x5,a07c <failedtest_x5_x4>
    297c:	00002968          	.word	0x00002968
    2980:	0000e227          	.word	0x0000e227
    2984:	00488893          	addi	x17,x17,4
  j 4f # done with test
    2988:	0280006f          	jal	x0,29b0 <I_blt_cg_cr_rs1_rs2_edges_offset_rs1val_0x1_rs2val_0x7fffffff+0x48>
2: # goes here during backward branch if taken
  LI(x30, 1)
    298c:	00100f13          	addi	x30,x0,1
  # Check if x30 contains the expected result. x17 is the signature ptr, x5 is the link ptr, x4 is a temp reg.
  RVTEST_SIGUPD(x17, x5, x4, x30, I_blt_cg_cr_rs1_rs2_edges_offset_rs1val_0x1_rs2val_0x7fffffff, I_blt_cg_cr_rs1_rs2_edges_offset_rs1val_0x1_rs2val_0x7fffffff_str) # signature 1 for taken
    2990:	0008a203          	lw	x4,0(x17)
    2994:	01e20863          	beq	x4,x30,29a4 <I_blt_cg_cr_rs1_rs2_edges_offset_rs1val_0x1_rs2val_0x7fffffff+0x3c>
    2998:	6e4072ef          	jal	x5,a07c <failedtest_x5_x4>
    299c:	00002968          	.word	0x00002968
    29a0:	0000e227          	.word	0x0000e227
    29a4:	00488893          	addi	x17,x17,4
  j 4f # done with test
    29a8:	0080006f          	jal	x0,29b0 <I_blt_cg_cr_rs1_rs2_edges_offset_rs1val_0x1_rs2val_0x7fffffff+0x48>
3: # goes here during forward branch if taken
  blt x30, x10, 2b # backward branch, definitely taken
    29ac:	feaf40e3          	blt	x30,x10,298c <I_blt_cg_cr_rs1_rs2_edges_offset_rs1val_0x1_rs2val_0x7fffffff+0x24>
4: # done with test

# cr_rs1_rs2_edges_offset (Test source rs1 = 0x00000001 rs2 = 0x7ffffffe)
  RVTEST_TESTDATA_LOAD_INT(x23, x2) # load rs1: x2 = 0x00000001
    29b0:	000ba103          	lw	x2,0(x23)
    29b4:	004b8b93          	addi	x23,x23,4
  RVTEST_TESTDATA_LOAD_INT(x23, x8) # load rs2: x8 = 0x7ffffffe
    29b8:	000ba403          	lw	x8,0(x23)
    29bc:	004b8b93          	addi	x23,x23,4

000029c0 <I_blt_cg_cr_rs1_rs2_edges_offset_rs1val_0x1_rs2val_0x7ffffffe>:
0: # destination for backwards branch that is never taken
I_blt_cg_cr_rs1_rs2_edges_offset_rs1val_0x1_rs2val_0x7ffffffe:
  blt x2, x8, 3f # forward branch, if taken
    29c0:	04814263          	blt	x2,x8,2a04 <I_blt_cg_cr_rs1_rs2_edges_offset_rs1val_0x1_rs2val_0x7ffffffe+0x44>
1: # goes here if not taken
  blt x2, x8, 0b # backward branch, never taken
    29c4:	fe814ee3          	blt	x2,x8,29c0 <I_blt_cg_cr_rs1_rs2_edges_offset_rs1val_0x1_rs2val_0x7ffffffe>
  # Check if x0 contains the expected result. x17 is the signature ptr, x5 is the link ptr, x4 is a temp reg.
  RVTEST_SIGUPD(x17, x5, x4, x0, I_blt_cg_cr_rs1_rs2_edges_offset_rs1val_0x1_rs2val_0x7ffffffe, I_blt_cg_cr_rs1_rs2_edges_offset_rs1val_0x1_rs2val_0x7ffffffe_str)
    29c8:	0008a203          	lw	x4,0(x17)
    29cc:	00020863          	beq	x4,x0,29dc <I_blt_cg_cr_rs1_rs2_edges_offset_rs1val_0x1_rs2val_0x7ffffffe+0x1c>
    29d0:	6ac072ef          	jal	x5,a07c <failedtest_x5_x4>
    29d4:	000029c0          	.word	0x000029c0
    29d8:	0000e282          	.word	0x0000e282
    29dc:	00488893          	addi	x17,x17,4
  j 4f # done with test
    29e0:	0280006f          	jal	x0,2a08 <I_blt_cg_cr_rs1_rs2_edges_offset_rs1val_0x1_rs2val_0x7ffffffe+0x48>
2: # goes here during backward branch if taken
  LI(x2, 1)
    29e4:	00100113          	addi	x2,x0,1
  # Check if x2 contains the expected result. x17 is the signature ptr, x5 is the link ptr, x4 is a temp reg.
  RVTEST_SIGUPD(x17, x5, x4, x2, I_blt_cg_cr_rs1_rs2_edges_offset_rs1val_0x1_rs2val_0x7ffffffe, I_blt_cg_cr_rs1_rs2_edges_offset_rs1val_0x1_rs2val_0x7ffffffe_str) # signature 1 for taken
    29e8:	0008a203          	lw	x4,0(x17)
    29ec:	00220863          	beq	x4,x2,29fc <I_blt_cg_cr_rs1_rs2_edges_offset_rs1val_0x1_rs2val_0x7ffffffe+0x3c>
    29f0:	68c072ef          	jal	x5,a07c <failedtest_x5_x4>
    29f4:	000029c0          	.word	0x000029c0
    29f8:	0000e282          	.word	0x0000e282
    29fc:	00488893          	addi	x17,x17,4
  j 4f # done with test
    2a00:	0080006f          	jal	x0,2a08 <I_blt_cg_cr_rs1_rs2_edges_offset_rs1val_0x1_rs2val_0x7ffffffe+0x48>
3: # goes here during forward branch if taken
  blt x2, x8, 2b # backward branch, definitely taken
    2a04:	fe8140e3          	blt	x2,x8,29e4 <I_blt_cg_cr_rs1_rs2_edges_offset_rs1val_0x1_rs2val_0x7ffffffe+0x24>
4: # done with test

# cr_rs1_rs2_edges_offset (Test source rs1 = 0x00000001 rs2 = 0xffffffff)
  RVTEST_TESTDATA_LOAD_INT(x23, x6) # load rs1: x6 = 0x00000001
    2a08:	000ba303          	lw	x6,0(x23)
    2a0c:	004b8b93          	addi	x23,x23,4
  RVTEST_TESTDATA_LOAD_INT(x23, x29) # load rs2: x29 = 0xffffffff
    2a10:	000bae83          	lw	x29,0(x23)
    2a14:	004b8b93          	addi	x23,x23,4

00002a18 <I_blt_cg_cr_rs1_rs2_edges_offset_rs1val_0x1_rs2val_0xffffffff>:
0: # destination for backwards branch that is never taken
I_blt_cg_cr_rs1_rs2_edges_offset_rs1val_0x1_rs2val_0xffffffff:
  blt x6, x29, 3f # forward branch, if taken
    2a18:	05d34263          	blt	x6,x29,2a5c <I_blt_cg_cr_rs1_rs2_edges_offset_rs1val_0x1_rs2val_0xffffffff+0x44>
1: # goes here if not taken
  blt x6, x29, 0b # backward branch, never taken
    2a1c:	ffd34ee3          	blt	x6,x29,2a18 <I_blt_cg_cr_rs1_rs2_edges_offset_rs1val_0x1_rs2val_0xffffffff>
  # Check if x0 contains the expected result. x17 is the signature ptr, x5 is the link ptr, x4 is a temp reg.
  RVTEST_SIGUPD(x17, x5, x4, x0, I_blt_cg_cr_rs1_rs2_edges_offset_rs1val_0x1_rs2val_0xffffffff, I_blt_cg_cr_rs1_rs2_edges_offset_rs1val_0x1_rs2val_0xffffffff_str)
    2a20:	0008a203          	lw	x4,0(x17)
    2a24:	00020863          	beq	x4,x0,2a34 <I_blt_cg_cr_rs1_rs2_edges_offset_rs1val_0x1_rs2val_0xffffffff+0x1c>
    2a28:	654072ef          	jal	x5,a07c <failedtest_x5_x4>
    2a2c:	00002a18          	.word	0x00002a18
    2a30:	0000e2dd          	.word	0x0000e2dd
    2a34:	00488893          	addi	x17,x17,4
  j 4f # done with test
    2a38:	0280006f          	jal	x0,2a60 <I_blt_cg_cr_rs1_rs2_edges_offset_rs1val_0x1_rs2val_0xffffffff+0x48>
2: # goes here during backward branch if taken
  LI(x6, 1)
    2a3c:	00100313          	addi	x6,x0,1
  # Check if x6 contains the expected result. x17 is the signature ptr, x5 is the link ptr, x4 is a temp reg.
  RVTEST_SIGUPD(x17, x5, x4, x6, I_blt_cg_cr_rs1_rs2_edges_offset_rs1val_0x1_rs2val_0xffffffff, I_blt_cg_cr_rs1_rs2_edges_offset_rs1val_0x1_rs2val_0xffffffff_str) # signature 1 for taken
    2a40:	0008a203          	lw	x4,0(x17)
    2a44:	00620863          	beq	x4,x6,2a54 <I_blt_cg_cr_rs1_rs2_edges_offset_rs1val_0x1_rs2val_0xffffffff+0x3c>
    2a48:	634072ef          	jal	x5,a07c <failedtest_x5_x4>
    2a4c:	00002a18          	.word	0x00002a18
    2a50:	0000e2dd          	.word	0x0000e2dd
    2a54:	00488893          	addi	x17,x17,4
  j 4f # done with test
    2a58:	0080006f          	jal	x0,2a60 <I_blt_cg_cr_rs1_rs2_edges_offset_rs1val_0x1_rs2val_0xffffffff+0x48>
3: # goes here during forward branch if taken
  blt x6, x29, 2b # backward branch, definitely taken
    2a5c:	ffd340e3          	blt	x6,x29,2a3c <I_blt_cg_cr_rs1_rs2_edges_offset_rs1val_0x1_rs2val_0xffffffff+0x24>
4: # done with test

# cr_rs1_rs2_edges_offset (Test source rs1 = 0x00000001 rs2 = 0xfffffffe)
  RVTEST_TESTDATA_LOAD_INT(x23, x16) # load rs1: x16 = 0x00000001
    2a60:	000ba803          	lw	x16,0(x23)
    2a64:	004b8b93          	addi	x23,x23,4
  RVTEST_TESTDATA_LOAD_INT(x23, x21) # load rs2: x21 = 0xfffffffe
    2a68:	000baa83          	lw	x21,0(x23)
    2a6c:	004b8b93          	addi	x23,x23,4

00002a70 <I_blt_cg_cr_rs1_rs2_edges_offset_rs1val_0x1_rs2val_0xfffffffe>:
0: # destination for backwards branch that is never taken
I_blt_cg_cr_rs1_rs2_edges_offset_rs1val_0x1_rs2val_0xfffffffe:
  blt x16, x21, 3f # forward branch, if taken
    2a70:	05584263          	blt	x16,x21,2ab4 <I_blt_cg_cr_rs1_rs2_edges_offset_rs1val_0x1_rs2val_0xfffffffe+0x44>
1: # goes here if not taken
  blt x16, x21, 0b # backward branch, never taken
    2a74:	ff584ee3          	blt	x16,x21,2a70 <I_blt_cg_cr_rs1_rs2_edges_offset_rs1val_0x1_rs2val_0xfffffffe>
  # Check if x0 contains the expected result. x17 is the signature ptr, x5 is the link ptr, x4 is a temp reg.
  RVTEST_SIGUPD(x17, x5, x4, x0, I_blt_cg_cr_rs1_rs2_edges_offset_rs1val_0x1_rs2val_0xfffffffe, I_blt_cg_cr_rs1_rs2_edges_offset_rs1val_0x1_rs2val_0xfffffffe_str)
    2a78:	0008a203          	lw	x4,0(x17)
    2a7c:	00020863          	beq	x4,x0,2a8c <I_blt_cg_cr_rs1_rs2_edges_offset_rs1val_0x1_rs2val_0xfffffffe+0x1c>
    2a80:	5fc072ef          	jal	x5,a07c <failedtest_x5_x4>
    2a84:	00002a70          	.word	0x00002a70
    2a88:	0000e338          	.word	0x0000e338
    2a8c:	00488893          	addi	x17,x17,4
  j 4f # done with test
    2a90:	0280006f          	jal	x0,2ab8 <I_blt_cg_cr_rs1_rs2_edges_offset_rs1val_0x1_rs2val_0xfffffffe+0x48>
2: # goes here during backward branch if taken
  LI(x16, 1)
    2a94:	00100813          	addi	x16,x0,1
  # Check if x16 contains the expected result. x17 is the signature ptr, x5 is the link ptr, x4 is a temp reg.
  RVTEST_SIGUPD(x17, x5, x4, x16, I_blt_cg_cr_rs1_rs2_edges_offset_rs1val_0x1_rs2val_0xfffffffe, I_blt_cg_cr_rs1_rs2_edges_offset_rs1val_0x1_rs2val_0xfffffffe_str) # signature 1 for taken
    2a98:	0008a203          	lw	x4,0(x17)
    2a9c:	01020863          	beq	x4,x16,2aac <I_blt_cg_cr_rs1_rs2_edges_offset_rs1val_0x1_rs2val_0xfffffffe+0x3c>
    2aa0:	5dc072ef          	jal	x5,a07c <failedtest_x5_x4>
    2aa4:	00002a70          	.word	0x00002a70
    2aa8:	0000e338          	.word	0x0000e338
    2aac:	00488893          	addi	x17,x17,4
  j 4f # done with test
    2ab0:	0080006f          	jal	x0,2ab8 <I_blt_cg_cr_rs1_rs2_edges_offset_rs1val_0x1_rs2val_0xfffffffe+0x48>
3: # goes here during forward branch if taken
  blt x16, x21, 2b # backward branch, definitely taken
    2ab4:	ff5840e3          	blt	x16,x21,2a94 <I_blt_cg_cr_rs1_rs2_edges_offset_rs1val_0x1_rs2val_0xfffffffe+0x24>
4: # done with test

# cr_rs1_rs2_edges_offset (Test source rs1 = 0x00000001 rs2 = 0x5bbc8872)
  RVTEST_TESTDATA_LOAD_INT(x23, x27) # load rs1: x27 = 0x00000001
    2ab8:	000bad83          	lw	x27,0(x23)
    2abc:	004b8b93          	addi	x23,x23,4
  RVTEST_TESTDATA_LOAD_INT(x23, x28) # load rs2: x28 = 0x5bbc8872
    2ac0:	000bae03          	lw	x28,0(x23)
    2ac4:	004b8b93          	addi	x23,x23,4

00002ac8 <I_blt_cg_cr_rs1_rs2_edges_offset_rs1val_0x1_rs2val_0x5bbc8872>:
0: # destination for backwards branch that is never taken
I_blt_cg_cr_rs1_rs2_edges_offset_rs1val_0x1_rs2val_0x5bbc8872:
  blt x27, x28, 3f # forward branch, if taken
    2ac8:	05cdc263          	blt	x27,x28,2b0c <I_blt_cg_cr_rs1_rs2_edges_offset_rs1val_0x1_rs2val_0x5bbc8872+0x44>
1: # goes here if not taken
  blt x27, x28, 0b # backward branch, never taken
    2acc:	ffcdcee3          	blt	x27,x28,2ac8 <I_blt_cg_cr_rs1_rs2_edges_offset_rs1val_0x1_rs2val_0x5bbc8872>
  # Check if x0 contains the expected result. x17 is the signature ptr, x5 is the link ptr, x4 is a temp reg.
  RVTEST_SIGUPD(x17, x5, x4, x0, I_blt_cg_cr_rs1_rs2_edges_offset_rs1val_0x1_rs2val_0x5bbc8872, I_blt_cg_cr_rs1_rs2_edges_offset_rs1val_0x1_rs2val_0x5bbc8872_str)
    2ad0:	0008a203          	lw	x4,0(x17)
    2ad4:	00020863          	beq	x4,x0,2ae4 <I_blt_cg_cr_rs1_rs2_edges_offset_rs1val_0x1_rs2val_0x5bbc8872+0x1c>
    2ad8:	5a4072ef          	jal	x5,a07c <failedtest_x5_x4>
    2adc:	00002ac8          	.word	0x00002ac8
    2ae0:	0000e393          	.word	0x0000e393
    2ae4:	00488893          	addi	x17,x17,4
  j 4f # done with test
    2ae8:	0280006f          	jal	x0,2b10 <I_blt_cg_cr_rs1_rs2_edges_offset_rs1val_0x1_rs2val_0x5bbc8872+0x48>
2: # goes here during backward branch if taken
  LI(x27, 1)
    2aec:	00100d93          	addi	x27,x0,1
  # Check if x27 contains the expected result. x17 is the signature ptr, x5 is the link ptr, x4 is a temp reg.
  RVTEST_SIGUPD(x17, x5, x4, x27, I_blt_cg_cr_rs1_rs2_edges_offset_rs1val_0x1_rs2val_0x5bbc8872, I_blt_cg_cr_rs1_rs2_edges_offset_rs1val_0x1_rs2val_0x5bbc8872_str) # signature 1 for taken
    2af0:	0008a203          	lw	x4,0(x17)
    2af4:	01b20863          	beq	x4,x27,2b04 <I_blt_cg_cr_rs1_rs2_edges_offset_rs1val_0x1_rs2val_0x5bbc8872+0x3c>
    2af8:	584072ef          	jal	x5,a07c <failedtest_x5_x4>
    2afc:	00002ac8          	.word	0x00002ac8
    2b00:	0000e393          	.word	0x0000e393
    2b04:	00488893          	addi	x17,x17,4
  j 4f # done with test
    2b08:	0080006f          	jal	x0,2b10 <I_blt_cg_cr_rs1_rs2_edges_offset_rs1val_0x1_rs2val_0x5bbc8872+0x48>
3: # goes here during forward branch if taken
  blt x27, x28, 2b # backward branch, definitely taken
    2b0c:	ffcdc0e3          	blt	x27,x28,2aec <I_blt_cg_cr_rs1_rs2_edges_offset_rs1val_0x1_rs2val_0x5bbc8872+0x24>
4: # done with test

# cr_rs1_rs2_edges_offset (Test source rs1 = 0x00000001 rs2 = 0xaaaaaaaa)
  RVTEST_TESTDATA_LOAD_INT(x23, x1) # load rs1: x1 = 0x00000001
    2b10:	000ba083          	lw	x1,0(x23)
    2b14:	004b8b93          	addi	x23,x23,4
  RVTEST_TESTDATA_LOAD_INT(x23, x7) # load rs2: x7 = 0xaaaaaaaa
    2b18:	000ba383          	lw	x7,0(x23)
    2b1c:	004b8b93          	addi	x23,x23,4

00002b20 <I_blt_cg_cr_rs1_rs2_edges_offset_rs1val_0x1_rs2val_0xaaaaaaaa>:
0: # destination for backwards branch that is never taken
I_blt_cg_cr_rs1_rs2_edges_offset_rs1val_0x1_rs2val_0xaaaaaaaa:
  blt x1, x7, 3f # forward branch, if taken
    2b20:	0470c263          	blt	x1,x7,2b64 <I_blt_cg_cr_rs1_rs2_edges_offset_rs1val_0x1_rs2val_0xaaaaaaaa+0x44>
1: # goes here if not taken
  blt x1, x7, 0b # backward branch, never taken
    2b24:	fe70cee3          	blt	x1,x7,2b20 <I_blt_cg_cr_rs1_rs2_edges_offset_rs1val_0x1_rs2val_0xaaaaaaaa>
  # Check if x0 contains the expected result. x17 is the signature ptr, x5 is the link ptr, x4 is a temp reg.
  RVTEST_SIGUPD(x17, x5, x4, x0, I_blt_cg_cr_rs1_rs2_edges_offset_rs1val_0x1_rs2val_0xaaaaaaaa, I_blt_cg_cr_rs1_rs2_edges_offset_rs1val_0x1_rs2val_0xaaaaaaaa_str)
    2b28:	0008a203          	lw	x4,0(x17)
    2b2c:	00020863          	beq	x4,x0,2b3c <I_blt_cg_cr_rs1_rs2_edges_offset_rs1val_0x1_rs2val_0xaaaaaaaa+0x1c>
    2b30:	54c072ef          	jal	x5,a07c <failedtest_x5_x4>
    2b34:	00002b20          	.word	0x00002b20
    2b38:	0000e3ee          	.word	0x0000e3ee
    2b3c:	00488893          	addi	x17,x17,4
  j 4f # done with test
    2b40:	0280006f          	jal	x0,2b68 <I_blt_cg_cr_rs1_rs2_edges_offset_rs1val_0x1_rs2val_0xaaaaaaaa+0x48>
2: # goes here during backward branch if taken
  LI(x1, 1)
    2b44:	00100093          	addi	x1,x0,1
  # Check if x1 contains the expected result. x17 is the signature ptr, x5 is the link ptr, x4 is a temp reg.
  RVTEST_SIGUPD(x17, x5, x4, x1, I_blt_cg_cr_rs1_rs2_edges_offset_rs1val_0x1_rs2val_0xaaaaaaaa, I_blt_cg_cr_rs1_rs2_edges_offset_rs1val_0x1_rs2val_0xaaaaaaaa_str) # signature 1 for taken
    2b48:	0008a203          	lw	x4,0(x17)
    2b4c:	00120863          	beq	x4,x1,2b5c <I_blt_cg_cr_rs1_rs2_edges_offset_rs1val_0x1_rs2val_0xaaaaaaaa+0x3c>
    2b50:	52c072ef          	jal	x5,a07c <failedtest_x5_x4>
    2b54:	00002b20          	.word	0x00002b20
    2b58:	0000e3ee          	.word	0x0000e3ee
    2b5c:	00488893          	addi	x17,x17,4
  j 4f # done with test
    2b60:	0080006f          	jal	x0,2b68 <I_blt_cg_cr_rs1_rs2_edges_offset_rs1val_0x1_rs2val_0xaaaaaaaa+0x48>
3: # goes here during forward branch if taken
  blt x1, x7, 2b # backward branch, definitely taken
    2b64:	fe70c0e3          	blt	x1,x7,2b44 <I_blt_cg_cr_rs1_rs2_edges_offset_rs1val_0x1_rs2val_0xaaaaaaaa+0x24>
4: # done with test

# cr_rs1_rs2_edges_offset (Test source rs1 = 0x00000001 rs2 = 0x55555555)
  RVTEST_TESTDATA_LOAD_INT(x23, x11) # load rs1: x11 = 0x00000001
    2b68:	000ba583          	lw	x11,0(x23)
    2b6c:	004b8b93          	addi	x23,x23,4
  RVTEST_TESTDATA_LOAD_INT(x23, x12) # load rs2: x12 = 0x55555555
    2b70:	000ba603          	lw	x12,0(x23)
    2b74:	004b8b93          	addi	x23,x23,4

00002b78 <I_blt_cg_cr_rs1_rs2_edges_offset_rs1val_0x1_rs2val_0x55555555>:
0: # destination for backwards branch that is never taken
I_blt_cg_cr_rs1_rs2_edges_offset_rs1val_0x1_rs2val_0x55555555:
  blt x11, x12, 3f # forward branch, if taken
    2b78:	04c5c263          	blt	x11,x12,2bbc <I_blt_cg_cr_rs1_rs2_edges_offset_rs1val_0x1_rs2val_0x55555555+0x44>
1: # goes here if not taken
  blt x11, x12, 0b # backward branch, never taken
    2b7c:	fec5cee3          	blt	x11,x12,2b78 <I_blt_cg_cr_rs1_rs2_edges_offset_rs1val_0x1_rs2val_0x55555555>
  # Check if x0 contains the expected result. x17 is the signature ptr, x5 is the link ptr, x4 is a temp reg.
  RVTEST_SIGUPD(x17, x5, x4, x0, I_blt_cg_cr_rs1_rs2_edges_offset_rs1val_0x1_rs2val_0x55555555, I_blt_cg_cr_rs1_rs2_edges_offset_rs1val_0x1_rs2val_0x55555555_str)
    2b80:	0008a203          	lw	x4,0(x17)
    2b84:	00020863          	beq	x4,x0,2b94 <I_blt_cg_cr_rs1_rs2_edges_offset_rs1val_0x1_rs2val_0x55555555+0x1c>
    2b88:	4f4072ef          	jal	x5,a07c <failedtest_x5_x4>
    2b8c:	00002b78          	.word	0x00002b78
    2b90:	0000e449          	.word	0x0000e449
    2b94:	00488893          	addi	x17,x17,4
  j 4f # done with test
    2b98:	0280006f          	jal	x0,2bc0 <I_blt_cg_cr_rs1_rs2_edges_offset_rs1val_0x1_rs2val_0x55555555+0x48>
2: # goes here during backward branch if taken
  LI(x11, 1)
    2b9c:	00100593          	addi	x11,x0,1
  # Check if x11 contains the expected result. x17 is the signature ptr, x5 is the link ptr, x4 is a temp reg.
  RVTEST_SIGUPD(x17, x5, x4, x11, I_blt_cg_cr_rs1_rs2_edges_offset_rs1val_0x1_rs2val_0x55555555, I_blt_cg_cr_rs1_rs2_edges_offset_rs1val_0x1_rs2val_0x55555555_str) # signature 1 for taken
    2ba0:	0008a203          	lw	x4,0(x17)
    2ba4:	00b20863          	beq	x4,x11,2bb4 <I_blt_cg_cr_rs1_rs2_edges_offset_rs1val_0x1_rs2val_0x55555555+0x3c>
    2ba8:	4d4072ef          	jal	x5,a07c <failedtest_x5_x4>
    2bac:	00002b78          	.word	0x00002b78
    2bb0:	0000e449          	.word	0x0000e449
    2bb4:	00488893          	addi	x17,x17,4
  j 4f # done with test
    2bb8:	0080006f          	jal	x0,2bc0 <I_blt_cg_cr_rs1_rs2_edges_offset_rs1val_0x1_rs2val_0x55555555+0x48>
3: # goes here during forward branch if taken
  blt x11, x12, 2b # backward branch, definitely taken
    2bbc:	fec5c0e3          	blt	x11,x12,2b9c <I_blt_cg_cr_rs1_rs2_edges_offset_rs1val_0x1_rs2val_0x55555555+0x24>
4: # done with test

# cr_rs1_rs2_edges_offset (Test source rs1 = 0x00000002 rs2 = 0x00000000)
  RVTEST_TESTDATA_LOAD_INT(x23, x22) # load rs1: x22 = 0x00000002
    2bc0:	000bab03          	lw	x22,0(x23)
    2bc4:	004b8b93          	addi	x23,x23,4
  RVTEST_TESTDATA_LOAD_INT(x23, x29) # load rs2: x29 = 0x00000000
    2bc8:	000bae83          	lw	x29,0(x23)
    2bcc:	004b8b93          	addi	x23,x23,4

00002bd0 <I_blt_cg_cr_rs1_rs2_edges_offset_rs1val_0x2_rs2val_0x0>:
0: # destination for backwards branch that is never taken
I_blt_cg_cr_rs1_rs2_edges_offset_rs1val_0x2_rs2val_0x0:
  blt x22, x29, 3f # forward branch, if taken
    2bd0:	05db4263          	blt	x22,x29,2c14 <I_blt_cg_cr_rs1_rs2_edges_offset_rs1val_0x2_rs2val_0x0+0x44>
1: # goes here if not taken
  blt x22, x29, 0b # backward branch, never taken
    2bd4:	ffdb4ee3          	blt	x22,x29,2bd0 <I_blt_cg_cr_rs1_rs2_edges_offset_rs1val_0x2_rs2val_0x0>
  # Check if x0 contains the expected result. x17 is the signature ptr, x5 is the link ptr, x4 is a temp reg.
  RVTEST_SIGUPD(x17, x5, x4, x0, I_blt_cg_cr_rs1_rs2_edges_offset_rs1val_0x2_rs2val_0x0, I_blt_cg_cr_rs1_rs2_edges_offset_rs1val_0x2_rs2val_0x0_str)
    2bd8:	0008a203          	lw	x4,0(x17)
    2bdc:	00020863          	beq	x4,x0,2bec <I_blt_cg_cr_rs1_rs2_edges_offset_rs1val_0x2_rs2val_0x0+0x1c>
    2be0:	49c072ef          	jal	x5,a07c <failedtest_x5_x4>
    2be4:	00002bd0          	.word	0x00002bd0
    2be8:	0000e4a4          	.word	0x0000e4a4
    2bec:	00488893          	addi	x17,x17,4
  j 4f # done with test
    2bf0:	0280006f          	jal	x0,2c18 <I_blt_cg_cr_rs1_rs2_edges_offset_rs1val_0x2_rs2val_0x0+0x48>
2: # goes here during backward branch if taken
  LI(x22, 1)
    2bf4:	00100b13          	addi	x22,x0,1
  # Check if x22 contains the expected result. x17 is the signature ptr, x5 is the link ptr, x4 is a temp reg.
  RVTEST_SIGUPD(x17, x5, x4, x22, I_blt_cg_cr_rs1_rs2_edges_offset_rs1val_0x2_rs2val_0x0, I_blt_cg_cr_rs1_rs2_edges_offset_rs1val_0x2_rs2val_0x0_str) # signature 1 for taken
    2bf8:	0008a203          	lw	x4,0(x17)
    2bfc:	01620863          	beq	x4,x22,2c0c <I_blt_cg_cr_rs1_rs2_edges_offset_rs1val_0x2_rs2val_0x0+0x3c>
    2c00:	47c072ef          	jal	x5,a07c <failedtest_x5_x4>
    2c04:	00002bd0          	.word	0x00002bd0
    2c08:	0000e4a4          	.word	0x0000e4a4
    2c0c:	00488893          	addi	x17,x17,4
  j 4f # done with test
    2c10:	0080006f          	jal	x0,2c18 <I_blt_cg_cr_rs1_rs2_edges_offset_rs1val_0x2_rs2val_0x0+0x48>
3: # goes here during forward branch if taken
  blt x22, x29, 2b # backward branch, definitely taken
    2c14:	ffdb40e3          	blt	x22,x29,2bf4 <I_blt_cg_cr_rs1_rs2_edges_offset_rs1val_0x2_rs2val_0x0+0x24>
4: # done with test

# cr_rs1_rs2_edges_offset (Test source rs1 = 0x00000002 rs2 = 0x00000001)
  RVTEST_TESTDATA_LOAD_INT(x23, x9) # load rs1: x9 = 0x00000002
    2c18:	000ba483          	lw	x9,0(x23)
    2c1c:	004b8b93          	addi	x23,x23,4
  RVTEST_TESTDATA_LOAD_INT(x23, x11) # load rs2: x11 = 0x00000001
    2c20:	000ba583          	lw	x11,0(x23)
    2c24:	004b8b93          	addi	x23,x23,4

00002c28 <I_blt_cg_cr_rs1_rs2_edges_offset_rs1val_0x2_rs2val_0x1>:
0: # destination for backwards branch that is never taken
I_blt_cg_cr_rs1_rs2_edges_offset_rs1val_0x2_rs2val_0x1:
  blt x9, x11, 3f # forward branch, if taken
    2c28:	04b4c263          	blt	x9,x11,2c6c <I_blt_cg_cr_rs1_rs2_edges_offset_rs1val_0x2_rs2val_0x1+0x44>
1: # goes here if not taken
  blt x9, x11, 0b # backward branch, never taken
    2c2c:	feb4cee3          	blt	x9,x11,2c28 <I_blt_cg_cr_rs1_rs2_edges_offset_rs1val_0x2_rs2val_0x1>
  # Check if x0 contains the expected result. x17 is the signature ptr, x5 is the link ptr, x4 is a temp reg.
  RVTEST_SIGUPD(x17, x5, x4, x0, I_blt_cg_cr_rs1_rs2_edges_offset_rs1val_0x2_rs2val_0x1, I_blt_cg_cr_rs1_rs2_edges_offset_rs1val_0x2_rs2val_0x1_str)
    2c30:	0008a203          	lw	x4,0(x17)
    2c34:	00020863          	beq	x4,x0,2c44 <I_blt_cg_cr_rs1_rs2_edges_offset_rs1val_0x2_rs2val_0x1+0x1c>
    2c38:	444072ef          	jal	x5,a07c <failedtest_x5_x4>
    2c3c:	00002c28          	.word	0x00002c28
    2c40:	0000e4f8          	.word	0x0000e4f8
    2c44:	00488893          	addi	x17,x17,4
  j 4f # done with test
    2c48:	0280006f          	jal	x0,2c70 <I_blt_cg_cr_rs1_rs2_edges_offset_rs1val_0x2_rs2val_0x1+0x48>
2: # goes here during backward branch if taken
  LI(x9, 1)
    2c4c:	00100493          	addi	x9,x0,1
  # Check if x9 contains the expected result. x17 is the signature ptr, x5 is the link ptr, x4 is a temp reg.
  RVTEST_SIGUPD(x17, x5, x4, x9, I_blt_cg_cr_rs1_rs2_edges_offset_rs1val_0x2_rs2val_0x1, I_blt_cg_cr_rs1_rs2_edges_offset_rs1val_0x2_rs2val_0x1_str) # signature 1 for taken
    2c50:	0008a203          	lw	x4,0(x17)
    2c54:	00920863          	beq	x4,x9,2c64 <I_blt_cg_cr_rs1_rs2_edges_offset_rs1val_0x2_rs2val_0x1+0x3c>
    2c58:	424072ef          	jal	x5,a07c <failedtest_x5_x4>
    2c5c:	00002c28          	.word	0x00002c28
    2c60:	0000e4f8          	.word	0x0000e4f8
    2c64:	00488893          	addi	x17,x17,4
  j 4f # done with test
    2c68:	0080006f          	jal	x0,2c70 <I_blt_cg_cr_rs1_rs2_edges_offset_rs1val_0x2_rs2val_0x1+0x48>
3: # goes here during forward branch if taken
  blt x9, x11, 2b # backward branch, definitely taken
    2c6c:	feb4c0e3          	blt	x9,x11,2c4c <I_blt_cg_cr_rs1_rs2_edges_offset_rs1val_0x2_rs2val_0x1+0x24>
4: # done with test

# cr_rs1_rs2_edges_offset (Test source rs1 = 0x00000002 rs2 = 0x00000002)
  RVTEST_TESTDATA_LOAD_INT(x23, x11) # load rs1: x11 = 0x00000002
