
/home/dev/github/clones/riscv-arch-test/work/rv32i-core/elfs/rv32i/I/I-blt-00.elf:     file format elf32-littleriscv
/home/dev/github/clones/riscv-arch-test/work/rv32i-core/elfs/rv32i/I/I-blt-00.elf
architecture: riscv:rv32, flags 0x00000112:
EXEC_P, HAS_SYMS, D_PAGED
start address 0x00000000

Program Header:
0x70000003 off    0x00024240 vaddr 0x00000000 paddr 0x00000000 align 2**0
         filesz 0x00000033 memsz 0x00000000 flags r--
    LOAD off    0x00001000 vaddr 0x00000000 paddr 0x00000000 align 2**12
         filesz 0x0000c000 memsz 0x0000c000 flags r-x
    LOAD off    0x0000d000 vaddr 0x0000c000 paddr 0x0000c000 align 2**12
         filesz 0x00017240 memsz 0x00017240 flags rwx

Sections:
Idx Name          Size      VMA       LMA       File off  Algn
  0 .text.init    00000040  00000000  00000000  00001000  2**5
                  CONTENTS, ALLOC, LOAD, READONLY, CODE
  1 .text.rvtest  0000b000  00001000  00001000  00002000  2**12
                  CONTENTS, ALLOC, LOAD, READONLY, CODE
  2 .data         00016640  0000c000  0000c000  0000d000  2**8
                  CONTENTS, ALLOC, LOAD, DATA
  3 .text.rvmodel 00000240  00023000  00023000  00024000  2**5
                  CONTENTS, ALLOC, LOAD, READONLY, CODE
  4 .riscv.attributes 00000033  00000000  00000000  00024240  2**0
                  CONTENTS, READONLY
  5 .debug_line   000034b0  00000000  00000000  00024273  2**0
                  CONTENTS, READONLY, DEBUGGING, OCTETS
  6 .debug_line_str 00000069  00000000  00000000  00027723  2**0
                  CONTENTS, READONLY, DEBUGGING, OCTETS
  7 .debug_info   00000023  00000000  00000000  0002778c  2**0
                  CONTENTS, READONLY, DEBUGGING, OCTETS
  8 .debug_abbrev 00000012  00000000  00000000  000277af  2**0
                  CONTENTS, READONLY, DEBUGGING, OCTETS
  9 .debug_aranges 00000028  00000000  00000000  000277c8  2**3
                  CONTENTS, READONLY, DEBUGGING, OCTETS
 10 .debug_str    00000075  00000000  00000000  000277f0  2**0
                  CONTENTS, READONLY, DEBUGGING, OCTETS
 11 .debug_rnglists 0000001b  00000000  00000000  00027865  2**0
                  CONTENTS, READONLY, DEBUGGING, OCTETS
SYMBOL TABLE:
00000000 l    d  .text.init	00000000 .text.init
00001000 l    d  .text.rvtest	00000000 .text.rvtest
0000c000 l    d  .data	00000000 .data
00023000 l    d  .text.rvmodel	00000000 .text.rvmodel
00000000 l    d  .riscv.attributes	00000000 .riscv.attributes
00000000 l    d  .debug_line	00000000 .debug_line
00000000 l    d  .debug_line_str	00000000 .debug_line_str
00000000 l    d  .debug_info	00000000 .debug_info
00000000 l    d  .debug_abbrev	00000000 .debug_abbrev
00000000 l    d  .debug_aranges	00000000 .debug_aranges
00000000 l    d  .debug_str	00000000 .debug_str
00000000 l    d  .debug_rnglists	00000000 .debug_rnglists
00000000 l    df *ABS*	00000000 ccMM6xOO.o
00000003 l       *ABS*	00000000 MMODE_SIG
00000001 l       *ABS*	00000000 SMODE_SIG
00000001 l       *ABS*	00000000 HMODE_SIG
00000002 l       *ABS*	00000000 VMODE_SIG
00023000 l       .text.rvmodel	00000000 rvmodel_boot
00001018 l       .text.rvtest	00000000 I_blt_cg_cp_rs1_b0
6f5ca309 l       *ABS*	00000000 immx
6f5ca309 l       *ABS*	00000000 absimm
00000000 l       *ABS*	00000000 cry
00000309 l       *ABS*	00000000 imm12
0000a07c l       .text.rvtest	00000000 failedtest_x5_x4
0000cb38 l       .data	00000000 I_blt_cg_cp_rs1_b0_str
00001050 l       .text.rvtest	00000000 I_blt_cg_cp_rs1_b1
0000cb65 l       .data	00000000 I_blt_cg_cp_rs1_b1_str
0000108c l       .text.rvtest	00000000 I_blt_cg_cp_rs1_b2
0000cb92 l       .data	00000000 I_blt_cg_cp_rs1_b2_str
000010c8 l       .text.rvtest	00000000 I_blt_cg_cp_rs1_b3
0000cbbf l       .data	00000000 I_blt_cg_cp_rs1_b3_str
00001108 l       .text.rvtest	00000000 I_blt_cg_cp_rs1_b4
0000a0bc l       .text.rvtest	00000000 failedtest_x14_x13
0000cbec l       .data	00000000 I_blt_cg_cp_rs1_b4_str
00001140 l       .text.rvtest	00000000 I_blt_cg_cp_rs1_b5
0000cc19 l       .data	00000000 I_blt_cg_cp_rs1_b5_str
00001178 l       .text.rvtest	00000000 I_blt_cg_cp_rs1_b6
0000cc46 l       .data	00000000 I_blt_cg_cp_rs1_b6_str
000011b0 l       .text.rvtest	00000000 I_blt_cg_cp_rs1_b7
0000cc73 l       .data	00000000 I_blt_cg_cp_rs1_b7_str
000011e8 l       .text.rvtest	00000000 I_blt_cg_cp_rs1_b8
0000cca0 l       .data	00000000 I_blt_cg_cp_rs1_b8_str
00001220 l       .text.rvtest	00000000 I_blt_cg_cp_rs1_b9
0000cccd l       .data	00000000 I_blt_cg_cp_rs1_b9_str
00001258 l       .text.rvtest	00000000 I_blt_cg_cp_rs1_b10
0000ccfb l       .data	00000000 I_blt_cg_cp_rs1_b10_str
00001290 l       .text.rvtest	00000000 I_blt_cg_cp_rs1_b11
0000cd2a l       .data	00000000 I_blt_cg_cp_rs1_b11_str
000012c8 l       .text.rvtest	00000000 I_blt_cg_cp_rs1_b12
0000cd59 l       .data	00000000 I_blt_cg_cp_rs1_b12_str
00001308 l       .text.rvtest	00000000 I_blt_cg_cp_rs1_b13
0000cd88 l       .data	00000000 I_blt_cg_cp_rs1_b13_str
00001340 l       .text.rvtest	00000000 I_blt_cg_cp_rs1_b14
0000cdb7 l       .data	00000000 I_blt_cg_cp_rs1_b14_str
00001378 l       .text.rvtest	00000000 I_blt_cg_cp_rs1_b15
0000cde6 l       .data	00000000 I_blt_cg_cp_rs1_b15_str
000013b0 l       .text.rvtest	00000000 I_blt_cg_cp_rs1_b16
0000ce15 l       .data	00000000 I_blt_cg_cp_rs1_b16_str
000013e8 l       .text.rvtest	00000000 I_blt_cg_cp_rs1_b17
0000ce44 l       .data	00000000 I_blt_cg_cp_rs1_b17_str
00001424 l       .text.rvtest	00000000 I_blt_cg_cp_rs1_b18
0000ce73 l       .data	00000000 I_blt_cg_cp_rs1_b18_str
0000145c l       .text.rvtest	00000000 I_blt_cg_cp_rs1_b19
0000cea2 l       .data	00000000 I_blt_cg_cp_rs1_b19_str
00001494 l       .text.rvtest	00000000 I_blt_cg_cp_rs1_b20
0000ced1 l       .data	00000000 I_blt_cg_cp_rs1_b20_str
000014cc l       .text.rvtest	00000000 I_blt_cg_cp_rs1_b21
0000cf00 l       .data	00000000 I_blt_cg_cp_rs1_b21_str
00001504 l       .text.rvtest	00000000 I_blt_cg_cp_rs1_b22
0000cf2f l       .data	00000000 I_blt_cg_cp_rs1_b22_str
0000153c l       .text.rvtest	00000000 I_blt_cg_cp_rs1_b23
0000cf5e l       .data	00000000 I_blt_cg_cp_rs1_b23_str
00001578 l       .text.rvtest	00000000 I_blt_cg_cp_rs1_b24
0000cf8d l       .data	00000000 I_blt_cg_cp_rs1_b24_str
000015b0 l       .text.rvtest	00000000 I_blt_cg_cp_rs1_b25
0000cfbc l       .data	00000000 I_blt_cg_cp_rs1_b25_str
000015e8 l       .text.rvtest	00000000 I_blt_cg_cp_rs1_b26
0000cfeb l       .data	00000000 I_blt_cg_cp_rs1_b26_str
00001620 l       .text.rvtest	00000000 I_blt_cg_cp_rs1_b27
0000d01a l       .data	00000000 I_blt_cg_cp_rs1_b27_str
00001658 l       .text.rvtest	00000000 I_blt_cg_cp_rs1_b28
0000d049 l       .data	00000000 I_blt_cg_cp_rs1_b28_str
00001690 l       .text.rvtest	00000000 I_blt_cg_cp_rs1_b29
0000d078 l       .data	00000000 I_blt_cg_cp_rs1_b29_str
000016c8 l       .text.rvtest	00000000 I_blt_cg_cp_rs1_b30
0000d0a7 l       .data	00000000 I_blt_cg_cp_rs1_b30_str
00001700 l       .text.rvtest	00000000 I_blt_cg_cp_rs1_b31
0000d0d6 l       .data	00000000 I_blt_cg_cp_rs1_b31_str
00001738 l       .text.rvtest	00000000 I_blt_cg_cp_rs2_b0
0000d105 l       .data	00000000 I_blt_cg_cp_rs2_b0_str
00001770 l       .text.rvtest	00000000 I_blt_cg_cp_rs2_b1
0000d133 l       .data	00000000 I_blt_cg_cp_rs2_b1_str
000017ac l       .text.rvtest	00000000 I_blt_cg_cp_rs2_b2
0000d161 l       .data	00000000 I_blt_cg_cp_rs2_b2_str
000017e4 l       .text.rvtest	00000000 I_blt_cg_cp_rs2_b3
0000d18f l       .data	00000000 I_blt_cg_cp_rs2_b3_str
00001824 l       .text.rvtest	00000000 I_blt_cg_cp_rs2_b4
0000d1bd l       .data	00000000 I_blt_cg_cp_rs2_b4_str
0000185c l       .text.rvtest	00000000 I_blt_cg_cp_rs2_b5
0000d1eb l       .data	00000000 I_blt_cg_cp_rs2_b5_str
00001894 l       .text.rvtest	00000000 I_blt_cg_cp_rs2_b6
0000d219 l       .data	00000000 I_blt_cg_cp_rs2_b6_str
000018cc l       .text.rvtest	00000000 I_blt_cg_cp_rs2_b7
0000d247 l       .data	00000000 I_blt_cg_cp_rs2_b7_str
00001904 l       .text.rvtest	00000000 I_blt_cg_cp_rs2_b8
0000d275 l       .data	00000000 I_blt_cg_cp_rs2_b8_str
0000193c l       .text.rvtest	00000000 I_blt_cg_cp_rs2_b9
0000d2a3 l       .data	00000000 I_blt_cg_cp_rs2_b9_str
00001974 l       .text.rvtest	00000000 I_blt_cg_cp_rs2_b10
0000d2d1 l       .data	00000000 I_blt_cg_cp_rs2_b10_str
000019ac l       .text.rvtest	00000000 I_blt_cg_cp_rs2_b11
0000d300 l       .data	00000000 I_blt_cg_cp_rs2_b11_str
000019e8 l       .text.rvtest	00000000 I_blt_cg_cp_rs2_b12
0000d32f l       .data	00000000 I_blt_cg_cp_rs2_b12_str
00001a28 l       .text.rvtest	00000000 I_blt_cg_cp_rs2_b13
0000d35e l       .data	00000000 I_blt_cg_cp_rs2_b13_str
00001a60 l       .text.rvtest	00000000 I_blt_cg_cp_rs2_b14
0000d38d l       .data	00000000 I_blt_cg_cp_rs2_b14_str
00001a98 l       .text.rvtest	00000000 I_blt_cg_cp_rs2_b15
0000d3bc l       .data	00000000 I_blt_cg_cp_rs2_b15_str
00001ad0 l       .text.rvtest	00000000 I_blt_cg_cp_rs2_b16
0000d3eb l       .data	00000000 I_blt_cg_cp_rs2_b16_str
00001b08 l       .text.rvtest	00000000 I_blt_cg_cp_rs2_b17
0000d41a l       .data	00000000 I_blt_cg_cp_rs2_b17_str
00001b40 l       .text.rvtest	00000000 I_blt_cg_cp_rs2_b18
0000d449 l       .data	00000000 I_blt_cg_cp_rs2_b18_str
00001b7c l       .text.rvtest	00000000 I_blt_cg_cp_rs2_b19
0000d478 l       .data	00000000 I_blt_cg_cp_rs2_b19_str
00001bb4 l       .text.rvtest	00000000 I_blt_cg_cp_rs2_b20
0000d4a7 l       .data	00000000 I_blt_cg_cp_rs2_b20_str
00001bec l       .text.rvtest	00000000 I_blt_cg_cp_rs2_b21
0000d4d6 l       .data	00000000 I_blt_cg_cp_rs2_b21_str
00001c24 l       .text.rvtest	00000000 I_blt_cg_cp_rs2_b22
0000d505 l       .data	00000000 I_blt_cg_cp_rs2_b22_str
00001c5c l       .text.rvtest	00000000 I_blt_cg_cp_rs2_b23
0000d534 l       .data	00000000 I_blt_cg_cp_rs2_b23_str
00001c94 l       .text.rvtest	00000000 I_blt_cg_cp_rs2_b24
0000d563 l       .data	00000000 I_blt_cg_cp_rs2_b24_str
00001ccc l       .text.rvtest	00000000 I_blt_cg_cp_rs2_b25
0000d592 l       .data	00000000 I_blt_cg_cp_rs2_b25_str
00001d04 l       .text.rvtest	00000000 I_blt_cg_cp_rs2_b26
0000d5c1 l       .data	00000000 I_blt_cg_cp_rs2_b26_str
00001d3c l       .text.rvtest	00000000 I_blt_cg_cp_rs2_b27
0000d5f0 l       .data	00000000 I_blt_cg_cp_rs2_b27_str
00001d74 l       .text.rvtest	00000000 I_blt_cg_cp_rs2_b28
0000d61f l       .data	00000000 I_blt_cg_cp_rs2_b28_str
00001dac l       .text.rvtest	00000000 I_blt_cg_cp_rs2_b29
0000d64e l       .data	00000000 I_blt_cg_cp_rs2_b29_str
00001de8 l       .text.rvtest	00000000 I_blt_cg_cp_rs2_b30
0000d67d l       .data	00000000 I_blt_cg_cp_rs2_b30_str
00001e20 l       .text.rvtest	00000000 I_blt_cg_cp_rs2_b31
0000d6ac l       .data	00000000 I_blt_cg_cp_rs2_b31_str
00001e58 l       .text.rvtest	00000000 I_blt_cg_cp_rs1_edges_0x0
0000d6db l       .data	00000000 I_blt_cg_cp_rs1_edges_0x0_str
00001e90 l       .text.rvtest	00000000 I_blt_cg_cp_rs1_edges_0x1
0000d710 l       .data	00000000 I_blt_cg_cp_rs1_edges_0x1_str
00001ec8 l       .text.rvtest	00000000 I_blt_cg_cp_rs1_edges_0x2
0000d745 l       .data	00000000 I_blt_cg_cp_rs1_edges_0x2_str
00001f00 l       .text.rvtest	00000000 I_blt_cg_cp_rs1_edges_0x80000000
0000d77a l       .data	00000000 I_blt_cg_cp_rs1_edges_0x80000000_str
00001f38 l       .text.rvtest	00000000 I_blt_cg_cp_rs1_edges_0x80000001
0000d7b6 l       .data	00000000 I_blt_cg_cp_rs1_edges_0x80000001_str
00001f70 l       .text.rvtest	00000000 I_blt_cg_cp_rs1_edges_0x7fffffff
0000d7f2 l       .data	00000000 I_blt_cg_cp_rs1_edges_0x7fffffff_str
00001fa8 l       .text.rvtest	00000000 I_blt_cg_cp_rs1_edges_0x7ffffffe
0000d82e l       .data	00000000 I_blt_cg_cp_rs1_edges_0x7ffffffe_str
00001fe0 l       .text.rvtest	00000000 I_blt_cg_cp_rs1_edges_0xffffffff
0000d86a l       .data	00000000 I_blt_cg_cp_rs1_edges_0xffffffff_str
00002018 l       .text.rvtest	00000000 I_blt_cg_cp_rs1_edges_0xfffffffe
0000d8a6 l       .data	00000000 I_blt_cg_cp_rs1_edges_0xfffffffe_str
00002050 l       .text.rvtest	00000000 I_blt_cg_cp_rs1_edges_0x5bbc8872
0000d8e2 l       .data	00000000 I_blt_cg_cp_rs1_edges_0x5bbc8872_str
00002088 l       .text.rvtest	00000000 I_blt_cg_cp_rs1_edges_0xaaaaaaaa
0000d91e l       .data	00000000 I_blt_cg_cp_rs1_edges_0xaaaaaaaa_str
000020c0 l       .text.rvtest	00000000 I_blt_cg_cp_rs1_edges_0x55555555
0000d95a l       .data	00000000 I_blt_cg_cp_rs1_edges_0x55555555_str
000020f8 l       .text.rvtest	00000000 I_blt_cg_cp_rs2_edges_0x0
0000d996 l       .data	00000000 I_blt_cg_cp_rs2_edges_0x0_str
00002130 l       .text.rvtest	00000000 I_blt_cg_cp_rs2_edges_0x1
0000d9cb l       .data	00000000 I_blt_cg_cp_rs2_edges_0x1_str
00002168 l       .text.rvtest	00000000 I_blt_cg_cp_rs2_edges_0x2
0000da00 l       .data	00000000 I_blt_cg_cp_rs2_edges_0x2_str
000021a0 l       .text.rvtest	00000000 I_blt_cg_cp_rs2_edges_0x80000000
0000da35 l       .data	00000000 I_blt_cg_cp_rs2_edges_0x80000000_str
000021d8 l       .text.rvtest	00000000 I_blt_cg_cp_rs2_edges_0x80000001
0000da71 l       .data	00000000 I_blt_cg_cp_rs2_edges_0x80000001_str
00002210 l       .text.rvtest	00000000 I_blt_cg_cp_rs2_edges_0x7fffffff
0000daad l       .data	00000000 I_blt_cg_cp_rs2_edges_0x7fffffff_str
00002248 l       .text.rvtest	00000000 I_blt_cg_cp_rs2_edges_0x7ffffffe
0000dae9 l       .data	00000000 I_blt_cg_cp_rs2_edges_0x7ffffffe_str
00002280 l       .text.rvtest	00000000 I_blt_cg_cp_rs2_edges_0xffffffff
0000db25 l       .data	00000000 I_blt_cg_cp_rs2_edges_0xffffffff_str
000022b8 l       .text.rvtest	00000000 I_blt_cg_cp_rs2_edges_0xfffffffe
0000db61 l       .data	00000000 I_blt_cg_cp_rs2_edges_0xfffffffe_str
000022f0 l       .text.rvtest	00000000 I_blt_cg_cp_rs2_edges_0x5bbc8872
0000db9d l       .data	00000000 I_blt_cg_cp_rs2_edges_0x5bbc8872_str
00002328 l       .text.rvtest	00000000 I_blt_cg_cp_rs2_edges_0xaaaaaaaa
0000dbd9 l       .data	00000000 I_blt_cg_cp_rs2_edges_0xaaaaaaaa_str
00002360 l       .text.rvtest	00000000 I_blt_cg_cp_rs2_edges_0x55555555
0000dc15 l       .data	00000000 I_blt_cg_cp_rs2_edges_0x55555555_str
00002390 l       .text.rvtest	00000000 I_blt_cg_cr_rs1_rs2_edges_offset_rs1val_0x0_rs2val_0x0
0000dc51 l       .data	00000000 I_blt_cg_cr_rs1_rs2_edges_offset_rs1val_0x0_rs2val_0x0_str
000023e8 l       .text.rvtest	00000000 I_blt_cg_cr_rs1_rs2_edges_offset_rs1val_0x0_rs2val_0x1
0000dca4 l       .data	00000000 I_blt_cg_cr_rs1_rs2_edges_offset_rs1val_0x0_rs2val_0x1_str
00002440 l       .text.rvtest	00000000 I_blt_cg_cr_rs1_rs2_edges_offset_rs1val_0x0_rs2val_0x2
0000dcf7 l       .data	00000000 I_blt_cg_cr_rs1_rs2_edges_offset_rs1val_0x0_rs2val_0x2_str
00002498 l       .text.rvtest	00000000 I_blt_cg_cr_rs1_rs2_edges_offset_rs1val_0x0_rs2val_0x80000000
0000dd4a l       .data	00000000 I_blt_cg_cr_rs1_rs2_edges_offset_rs1val_0x0_rs2val_0x80000000_str
000024f0 l       .text.rvtest	00000000 I_blt_cg_cr_rs1_rs2_edges_offset_rs1val_0x0_rs2val_0x80000001
0000dda4 l       .data	00000000 I_blt_cg_cr_rs1_rs2_edges_offset_rs1val_0x0_rs2val_0x80000001_str
00002548 l       .text.rvtest	00000000 I_blt_cg_cr_rs1_rs2_edges_offset_rs1val_0x0_rs2val_0x7fffffff
0000ddfe l       .data	00000000 I_blt_cg_cr_rs1_rs2_edges_offset_rs1val_0x0_rs2val_0x7fffffff_str
000025a0 l       .text.rvtest	00000000 I_blt_cg_cr_rs1_rs2_edges_offset_rs1val_0x0_rs2val_0x7ffffffe
0000de58 l       .data	00000000 I_blt_cg_cr_rs1_rs2_edges_offset_rs1val_0x0_rs2val_0x7ffffffe_str
000025f8 l       .text.rvtest	00000000 I_blt_cg_cr_rs1_rs2_edges_offset_rs1val_0x0_rs2val_0xffffffff
0000deb2 l       .data	00000000 I_blt_cg_cr_rs1_rs2_edges_offset_rs1val_0x0_rs2val_0xffffffff_str
00002650 l       .text.rvtest	00000000 I_blt_cg_cr_rs1_rs2_edges_offset_rs1val_0x0_rs2val_0xfffffffe
0000df0c l       .data	00000000 I_blt_cg_cr_rs1_rs2_edges_offset_rs1val_0x0_rs2val_0xfffffffe_str
000026a8 l       .text.rvtest	00000000 I_blt_cg_cr_rs1_rs2_edges_offset_rs1val_0x0_rs2val_0x5bbc8872
0000df66 l       .data	00000000 I_blt_cg_cr_rs1_rs2_edges_offset_rs1val_0x0_rs2val_0x5bbc8872_str
00002700 l       .text.rvtest	00000000 I_blt_cg_cr_rs1_rs2_edges_offset_rs1val_0x0_rs2val_0xaaaaaaaa
0000dfc0 l       .data	00000000 I_blt_cg_cr_rs1_rs2_edges_offset_rs1val_0x0_rs2val_0xaaaaaaaa_str
00002758 l       .text.rvtest	00000000 I_blt_cg_cr_rs1_rs2_edges_offset_rs1val_0x0_rs2val_0x55555555
0000e01a l       .data	00000000 I_blt_cg_cr_rs1_rs2_edges_offset_rs1val_0x0_rs2val_0x55555555_str
000027b0 l       .text.rvtest	00000000 I_blt_cg_cr_rs1_rs2_edges_offset_rs1val_0x1_rs2val_0x0
0000e075 l       .data	00000000 I_blt_cg_cr_rs1_rs2_edges_offset_rs1val_0x1_rs2val_0x0_str
00002808 l       .text.rvtest	00000000 I_blt_cg_cr_rs1_rs2_edges_offset_rs1val_0x1_rs2val_0x1
0000e0c9 l       .data	00000000 I_blt_cg_cr_rs1_rs2_edges_offset_rs1val_0x1_rs2val_0x1_str
00002860 l       .text.rvtest	00000000 I_blt_cg_cr_rs1_rs2_edges_offset_rs1val_0x1_rs2val_0x2
0000e11d l       .data	00000000 I_blt_cg_cr_rs1_rs2_edges_offset_rs1val_0x1_rs2val_0x2_str
000028b8 l       .text.rvtest	00000000 I_blt_cg_cr_rs1_rs2_edges_offset_rs1val_0x1_rs2val_0x80000000
0000e171 l       .data	00000000 I_blt_cg_cr_rs1_rs2_edges_offset_rs1val_0x1_rs2val_0x80000000_str
00002910 l       .text.rvtest	00000000 I_blt_cg_cr_rs1_rs2_edges_offset_rs1val_0x1_rs2val_0x80000001
0000e1cc l       .data	00000000 I_blt_cg_cr_rs1_rs2_edges_offset_rs1val_0x1_rs2val_0x80000001_str
00002968 l       .text.rvtest	00000000 I_blt_cg_cr_rs1_rs2_edges_offset_rs1val_0x1_rs2val_0x7fffffff
0000e227 l       .data	00000000 I_blt_cg_cr_rs1_rs2_edges_offset_rs1val_0x1_rs2val_0x7fffffff_str
000029c0 l       .text.rvtest	00000000 I_blt_cg_cr_rs1_rs2_edges_offset_rs1val_0x1_rs2val_0x7ffffffe
0000e282 l       .data	00000000 I_blt_cg_cr_rs1_rs2_edges_offset_rs1val_0x1_rs2val_0x7ffffffe_str
00002a18 l       .text.rvtest	00000000 I_blt_cg_cr_rs1_rs2_edges_offset_rs1val_0x1_rs2val_0xffffffff
0000e2dd l       .data	00000000 I_blt_cg_cr_rs1_rs2_edges_offset_rs1val_0x1_rs2val_0xffffffff_str
00002a70 l       .text.rvtest	00000000 I_blt_cg_cr_rs1_rs2_edges_offset_rs1val_0x1_rs2val_0xfffffffe
0000e338 l       .data	00000000 I_blt_cg_cr_rs1_rs2_edges_offset_rs1val_0x1_rs2val_0xfffffffe_str
00002ac8 l       .text.rvtest	00000000 I_blt_cg_cr_rs1_rs2_edges_offset_rs1val_0x1_rs2val_0x5bbc8872
0000e393 l       .data	00000000 I_blt_cg_cr_rs1_rs2_edges_offset_rs1val_0x1_rs2val_0x5bbc8872_str
00002b20 l       .text.rvtest	00000000 I_blt_cg_cr_rs1_rs2_edges_offset_rs1val_0x1_rs2val_0xaaaaaaaa
0000e3ee l       .data	00000000 I_blt_cg_cr_rs1_rs2_edges_offset_rs1val_0x1_rs2val_0xaaaaaaaa_str
00002b78 l       .text.rvtest	00000000 I_blt_cg_cr_rs1_rs2_edges_offset_rs1val_0x1_rs2val_0x55555555
0000e449 l       .data	00000000 I_blt_cg_cr_rs1_rs2_edges_offset_rs1val_0x1_rs2val_0x55555555_str
00002bd0 l       .text.rvtest	00000000 I_blt_cg_cr_rs1_rs2_edges_offset_rs1val_0x2_rs2val_0x0
0000e4a4 l       .data	00000000 I_blt_cg_cr_rs1_rs2_edges_offset_rs1val_0x2_rs2val_0x0_str
00002c28 l       .text.rvtest	00000000 I_blt_cg_cr_rs1_rs2_edges_offset_rs1val_0x2_rs2val_0x1
0000e4f8 l       .data	00000000 I_blt_cg_cr_rs1_rs2_edges_offset_rs1val_0x2_rs2val_0x1_str
00002c80 l       .text.rvtest	00000000 I_blt_cg_cr_rs1_rs2_edges_offset_rs1val_0x2_rs2val_0x2
0000e54c l       .data	00000000 I_blt_cg_cr_rs1_rs2_edges_offset_rs1val_0x2_rs2val_0x2_str
00002cd8 l       .text.rvtest	00000000 I_blt_cg_cr_rs1_rs2_edges_offset_rs1val_0x2_rs2val_0x80000000
0000e5a0 l       .data	00000000 I_blt_cg_cr_rs1_rs2_edges_offset_rs1val_0x2_rs2val_0x80000000_str
00002d30 l       .text.rvtest	00000000 I_blt_cg_cr_rs1_rs2_edges_offset_rs1val_0x2_rs2val_0x80000001
0000e5fb l       .data	00000000 I_blt_cg_cr_rs1_rs2_edges_offset_rs1val_0x2_rs2val_0x80000001_str
00002d88 l       .text.rvtest	00000000 I_blt_cg_cr_rs1_rs2_edges_offset_rs1val_0x2_rs2val_0x7fffffff
0000e656 l       .data	00000000 I_blt_cg_cr_rs1_rs2_edges_offset_rs1val_0x2_rs2val_0x7fffffff_str
00002de0 l       .text.rvtest	00000000 I_blt_cg_cr_rs1_rs2_edges_offset_rs1val_0x2_rs2val_0x7ffffffe
0000e6b1 l       .data	00000000 I_blt_cg_cr_rs1_rs2_edges_offset_rs1val_0x2_rs2val_0x7ffffffe_str
00002e38 l       .text.rvtest	00000000 I_blt_cg_cr_rs1_rs2_edges_offset_rs1val_0x2_rs2val_0xffffffff
0000e70c l       .data	00000000 I_blt_cg_cr_rs1_rs2_edges_offset_rs1val_0x2_rs2val_0xffffffff_str
00002e90 l       .text.rvtest	00000000 I_blt_cg_cr_rs1_rs2_edges_offset_rs1val_0x2_rs2val_0xfffffffe
0000e767 l       .data	00000000 I_blt_cg_cr_rs1_rs2_edges_offset_rs1val_0x2_rs2val_0xfffffffe_str
00002ee8 l       .text.rvtest	00000000 I_blt_cg_cr_rs1_rs2_edges_offset_rs1val_0x2_rs2val_0x5bbc8872
0000e7c2 l       .data	00000000 I_blt_cg_cr_rs1_rs2_edges_offset_rs1val_0x2_rs2val_0x5bbc8872_str
00002f40 l       .text.rvtest	00000000 I_blt_cg_cr_rs1_rs2_edges_offset_rs1val_0x2_rs2val_0xaaaaaaaa
0000e81d l       .data	00000000 I_blt_cg_cr_rs1_rs2_edges_offset_rs1val_0x2_rs2val_0xaaaaaaaa_str
00002f98 l       .text.rvtest	00000000 I_blt_cg_cr_rs1_rs2_edges_offset_rs1val_0x2_rs2val_0x55555555
0000e878 l       .data	00000000 I_blt_cg_cr_rs1_rs2_edges_offset_rs1val_0x2_rs2val_0x55555555_str
00002ff0 l       .text.rvtest	00000000 I_blt_cg_cr_rs1_rs2_edges_offset_rs1val_0x80000000_rs2val_0x0
0000e8d3 l       .data	00000000 I_blt_cg_cr_rs1_rs2_edges_offset_rs1val_0x80000000_rs2val_0x0_str
00003048 l       .text.rvtest	00000000 I_blt_cg_cr_rs1_rs2_edges_offset_rs1val_0x80000000_rs2val_0x1
0000e92e l       .data	00000000 I_blt_cg_cr_rs1_rs2_edges_offset_rs1val_0x80000000_rs2val_0x1_str
000030a0 l       .text.rvtest	00000000 I_blt_cg_cr_rs1_rs2_edges_offset_rs1val_0x80000000_rs2val_0x2
0000e989 l       .data	00000000 I_blt_cg_cr_rs1_rs2_edges_offset_rs1val_0x80000000_rs2val_0x2_str
000030f8 l       .text.rvtest	00000000 I_blt_cg_cr_rs1_rs2_edges_offset_rs1val_0x80000000_rs2val_0x80000000
0000e9e4 l       .data	00000000 I_blt_cg_cr_rs1_rs2_edges_offset_rs1val_0x80000000_rs2val_0x80000000_str
00003150 l       .text.rvtest	00000000 I_blt_cg_cr_rs1_rs2_edges_offset_rs1val_0x80000000_rs2val_0x80000001
0000ea46 l       .data	00000000 I_blt_cg_cr_rs1_rs2_edges_offset_rs1val_0x80000000_rs2val_0x80000001_str
000031a8 l       .text.rvtest	00000000 I_blt_cg_cr_rs1_rs2_edges_offset_rs1val_0x80000000_rs2val_0x7fffffff
0000eaa8 l       .data	00000000 I_blt_cg_cr_rs1_rs2_edges_offset_rs1val_0x80000000_rs2val_0x7fffffff_str
00003200 l       .text.rvtest	00000000 I_blt_cg_cr_rs1_rs2_edges_offset_rs1val_0x80000000_rs2val_0x7ffffffe
0000eb0a l       .data	00000000 I_blt_cg_cr_rs1_rs2_edges_offset_rs1val_0x80000000_rs2val_0x7ffffffe_str
00003258 l       .text.rvtest	00000000 I_blt_cg_cr_rs1_rs2_edges_offset_rs1val_0x80000000_rs2val_0xffffffff
0000eb6c l       .data	00000000 I_blt_cg_cr_rs1_rs2_edges_offset_rs1val_0x80000000_rs2val_0xffffffff_str
000032b0 l       .text.rvtest	00000000 I_blt_cg_cr_rs1_rs2_edges_offset_rs1val_0x80000000_rs2val_0xfffffffe
0000ebce l       .data	00000000 I_blt_cg_cr_rs1_rs2_edges_offset_rs1val_0x80000000_rs2val_0xfffffffe_str
00003308 l       .text.rvtest	00000000 I_blt_cg_cr_rs1_rs2_edges_offset_rs1val_0x80000000_rs2val_0x5bbc8872
0000ec30 l       .data	00000000 I_blt_cg_cr_rs1_rs2_edges_offset_rs1val_0x80000000_rs2val_0x5bbc8872_str
00003360 l       .text.rvtest	00000000 I_blt_cg_cr_rs1_rs2_edges_offset_rs1val_0x80000000_rs2val_0xaaaaaaaa
0000ec92 l       .data	00000000 I_blt_cg_cr_rs1_rs2_edges_offset_rs1val_0x80000000_rs2val_0xaaaaaaaa_str
000033b8 l       .text.rvtest	00000000 I_blt_cg_cr_rs1_rs2_edges_offset_rs1val_0x80000000_rs2val_0x55555555
0000ecf4 l       .data	00000000 I_blt_cg_cr_rs1_rs2_edges_offset_rs1val_0x80000000_rs2val_0x55555555_str
00003410 l       .text.rvtest	00000000 I_blt_cg_cr_rs1_rs2_edges_offset_rs1val_0x80000001_rs2val_0x0
0000ed56 l       .data	00000000 I_blt_cg_cr_rs1_rs2_edges_offset_rs1val_0x80000001_rs2val_0x0_str
00003468 l       .text.rvtest	00000000 I_blt_cg_cr_rs1_rs2_edges_offset_rs1val_0x80000001_rs2val_0x1
0000edb1 l       .data	00000000 I_blt_cg_cr_rs1_rs2_edges_offset_rs1val_0x80000001_rs2val_0x1_str
000034c0 l       .text.rvtest	00000000 I_blt_cg_cr_rs1_rs2_edges_offset_rs1val_0x80000001_rs2val_0x2
0000ee0c l       .data	00000000 I_blt_cg_cr_rs1_rs2_edges_offset_rs1val_0x80000001_rs2val_0x2_str
00003518 l       .text.rvtest	00000000 I_blt_cg_cr_rs1_rs2_edges_offset_rs1val_0x80000001_rs2val_0x80000000
0000ee67 l       .data	00000000 I_blt_cg_cr_rs1_rs2_edges_offset_rs1val_0x80000001_rs2val_0x80000000_str
00003570 l       .text.rvtest	00000000 I_blt_cg_cr_rs1_rs2_edges_offset_rs1val_0x80000001_rs2val_0x80000001
0000eec9 l       .data	00000000 I_blt_cg_cr_rs1_rs2_edges_offset_rs1val_0x80000001_rs2val_0x80000001_str
000035c8 l       .text.rvtest	00000000 I_blt_cg_cr_rs1_rs2_edges_offset_rs1val_0x80000001_rs2val_0x7fffffff
0000ef2b l       .data	00000000 I_blt_cg_cr_rs1_rs2_edges_offset_rs1val_0x80000001_rs2val_0x7fffffff_str
00003620 l       .text.rvtest	00000000 I_blt_cg_cr_rs1_rs2_edges_offset_rs1val_0x80000001_rs2val_0x7ffffffe
0000ef8d l       .data	00000000 I_blt_cg_cr_rs1_rs2_edges_offset_rs1val_0x80000001_rs2val_0x7ffffffe_str
00003678 l       .text.rvtest	00000000 I_blt_cg_cr_rs1_rs2_edges_offset_rs1val_0x80000001_rs2val_0xffffffff
0000efef l       .data	00000000 I_blt_cg_cr_rs1_rs2_edges_offset_rs1val_0x80000001_rs2val_0xffffffff_str
000036d0 l       .text.rvtest	00000000 I_blt_cg_cr_rs1_rs2_edges_offset_rs1val_0x80000001_rs2val_0xfffffffe
0000f051 l       .data	00000000 I_blt_cg_cr_rs1_rs2_edges_offset_rs1val_0x80000001_rs2val_0xfffffffe_str
00003728 l       .text.rvtest	00000000 I_blt_cg_cr_rs1_rs2_edges_offset_rs1val_0x80000001_rs2val_0x5bbc8872
0000f0b3 l       .data	00000000 I_blt_cg_cr_rs1_rs2_edges_offset_rs1val_0x80000001_rs2val_0x5bbc8872_str
00003780 l       .text.rvtest	00000000 I_blt_cg_cr_rs1_rs2_edges_offset_rs1val_0x80000001_rs2val_0xaaaaaaaa
0000f115 l       .data	00000000 I_blt_cg_cr_rs1_rs2_edges_offset_rs1val_0x80000001_rs2val_0xaaaaaaaa_str
000037d8 l       .text.rvtest	00000000 I_blt_cg_cr_rs1_rs2_edges_offset_rs1val_0x80000001_rs2val_0x55555555
0000f177 l       .data	00000000 I_blt_cg_cr_rs1_rs2_edges_offset_rs1val_0x80000001_rs2val_0x55555555_str
00003830 l       .text.rvtest	00000000 I_blt_cg_cr_rs1_rs2_edges_offset_rs1val_0x7fffffff_rs2val_0x0
0000f1d9 l       .data	00000000 I_blt_cg_cr_rs1_rs2_edges_offset_rs1val_0x7fffffff_rs2val_0x0_str
00003888 l       .text.rvtest	00000000 I_blt_cg_cr_rs1_rs2_edges_offset_rs1val_0x7fffffff_rs2val_0x1
0000f234 l       .data	00000000 I_blt_cg_cr_rs1_rs2_edges_offset_rs1val_0x7fffffff_rs2val_0x1_str
000038e0 l       .text.rvtest	00000000 I_blt_cg_cr_rs1_rs2_edges_offset_rs1val_0x7fffffff_rs2val_0x2
0000f28f l       .data	00000000 I_blt_cg_cr_rs1_rs2_edges_offset_rs1val_0x7fffffff_rs2val_0x2_str
00003938 l       .text.rvtest	00000000 I_blt_cg_cr_rs1_rs2_edges_offset_rs1val_0x7fffffff_rs2val_0x80000000
0000f2ea l       .data	00000000 I_blt_cg_cr_rs1_rs2_edges_offset_rs1val_0x7fffffff_rs2val_0x80000000_str
00003990 l       .text.rvtest	00000000 I_blt_cg_cr_rs1_rs2_edges_offset_rs1val_0x7fffffff_rs2val_0x80000001
0000f34c l       .data	00000000 I_blt_cg_cr_rs1_rs2_edges_offset_rs1val_0x7fffffff_rs2val_0x80000001_str
000039e8 l       .text.rvtest	00000000 I_blt_cg_cr_rs1_rs2_edges_offset_rs1val_0x7fffffff_rs2val_0x7fffffff
0000f3ae l       .data	00000000 I_blt_cg_cr_rs1_rs2_edges_offset_rs1val_0x7fffffff_rs2val_0x7fffffff_str
00003a40 l       .text.rvtest	00000000 I_blt_cg_cr_rs1_rs2_edges_offset_rs1val_0x7fffffff_rs2val_0x7ffffffe
0000f410 l       .data	00000000 I_blt_cg_cr_rs1_rs2_edges_offset_rs1val_0x7fffffff_rs2val_0x7ffffffe_str
00003a98 l       .text.rvtest	00000000 I_blt_cg_cr_rs1_rs2_edges_offset_rs1val_0x7fffffff_rs2val_0xffffffff
0000f472 l       .data	00000000 I_blt_cg_cr_rs1_rs2_edges_offset_rs1val_0x7fffffff_rs2val_0xffffffff_str
00003af0 l       .text.rvtest	00000000 I_blt_cg_cr_rs1_rs2_edges_offset_rs1val_0x7fffffff_rs2val_0xfffffffe
0000f4d4 l       .data	00000000 I_blt_cg_cr_rs1_rs2_edges_offset_rs1val_0x7fffffff_rs2val_0xfffffffe_str
00003b48 l       .text.rvtest	00000000 I_blt_cg_cr_rs1_rs2_edges_offset_rs1val_0x7fffffff_rs2val_0x5bbc8872
0000f536 l       .data	00000000 I_blt_cg_cr_rs1_rs2_edges_offset_rs1val_0x7fffffff_rs2val_0x5bbc8872_str
00003ba0 l       .text.rvtest	00000000 I_blt_cg_cr_rs1_rs2_edges_offset_rs1val_0x7fffffff_rs2val_0xaaaaaaaa
0000f598 l       .data	00000000 I_blt_cg_cr_rs1_rs2_edges_offset_rs1val_0x7fffffff_rs2val_0xaaaaaaaa_str
00003bf8 l       .text.rvtest	00000000 I_blt_cg_cr_rs1_rs2_edges_offset_rs1val_0x7fffffff_rs2val_0x55555555
0000f5fa l       .data	00000000 I_blt_cg_cr_rs1_rs2_edges_offset_rs1val_0x7fffffff_rs2val_0x55555555_str
00003c50 l       .text.rvtest	00000000 I_blt_cg_cr_rs1_rs2_edges_offset_rs1val_0x7ffffffe_rs2val_0x0
0000f65c l       .data	00000000 I_blt_cg_cr_rs1_rs2_edges_offset_rs1val_0x7ffffffe_rs2val_0x0_str
00003ca8 l       .text.rvtest	00000000 I_blt_cg_cr_rs1_rs2_edges_offset_rs1val_0x7ffffffe_rs2val_0x1
0000f6b7 l       .data	00000000 I_blt_cg_cr_rs1_rs2_edges_offset_rs1val_0x7ffffffe_rs2val_0x1_str
00003d00 l       .text.rvtest	00000000 I_blt_cg_cr_rs1_rs2_edges_offset_rs1val_0x7ffffffe_rs2val_0x2
0000f712 l       .data	00000000 I_blt_cg_cr_rs1_rs2_edges_offset_rs1val_0x7ffffffe_rs2val_0x2_str
00003d58 l       .text.rvtest	00000000 I_blt_cg_cr_rs1_rs2_edges_offset_rs1val_0x7ffffffe_rs2val_0x80000000
0000f76d l       .data	00000000 I_blt_cg_cr_rs1_rs2_edges_offset_rs1val_0x7ffffffe_rs2val_0x80000000_str
00003db0 l       .text.rvtest	00000000 I_blt_cg_cr_rs1_rs2_edges_offset_rs1val_0x7ffffffe_rs2val_0x80000001
0000f7cf l       .data	00000000 I_blt_cg_cr_rs1_rs2_edges_offset_rs1val_0x7ffffffe_rs2val_0x80000001_str
00003e08 l       .text.rvtest	00000000 I_blt_cg_cr_rs1_rs2_edges_offset_rs1val_0x7ffffffe_rs2val_0x7fffffff
0000f831 l       .data	00000000 I_blt_cg_cr_rs1_rs2_edges_offset_rs1val_0x7ffffffe_rs2val_0x7fffffff_str
00003e60 l       .text.rvtest	00000000 I_blt_cg_cr_rs1_rs2_edges_offset_rs1val_0x7ffffffe_rs2val_0x7ffffffe
0000f893 l       .data	00000000 I_blt_cg_cr_rs1_rs2_edges_offset_rs1val_0x7ffffffe_rs2val_0x7ffffffe_str
00003eb8 l       .text.rvtest	00000000 I_blt_cg_cr_rs1_rs2_edges_offset_rs1val_0x7ffffffe_rs2val_0xffffffff
0000f8f5 l       .data	00000000 I_blt_cg_cr_rs1_rs2_edges_offset_rs1val_0x7ffffffe_rs2val_0xffffffff_str
00003f10 l       .text.rvtest	00000000 I_blt_cg_cr_rs1_rs2_edges_offset_rs1val_0x7ffffffe_rs2val_0xfffffffe
0000f957 l       .data	00000000 I_blt_cg_cr_rs1_rs2_edges_offset_rs1val_0x7ffffffe_rs2val_0xfffffffe_str
00003f68 l       .text.rvtest	00000000 I_blt_cg_cr_rs1_rs2_edges_offset_rs1val_0x7ffffffe_rs2val_0x5bbc8872
0000f9b9 l       .data	00000000 I_blt_cg_cr_rs1_rs2_edges_offset_rs1val_0x7ffffffe_rs2val_0x5bbc8872_str
00003fc0 l       .text.rvtest	00000000 I_blt_cg_cr_rs1_rs2_edges_offset_rs1val_0x7ffffffe_rs2val_0xaaaaaaaa
0000fa1b l       .data	00000000 I_blt_cg_cr_rs1_rs2_edges_offset_rs1val_0x7ffffffe_rs2val_0xaaaaaaaa_str
00004018 l       .text.rvtest	00000000 I_blt_cg_cr_rs1_rs2_edges_offset_rs1val_0x7ffffffe_rs2val_0x55555555
0000fa7d l       .data	00000000 I_blt_cg_cr_rs1_rs2_edges_offset_rs1val_0x7ffffffe_rs2val_0x55555555_str
00004070 l       .text.rvtest	00000000 I_blt_cg_cr_rs1_rs2_edges_offset_rs1val_0xffffffff_rs2val_0x0
0000fadf l       .data	00000000 I_blt_cg_cr_rs1_rs2_edges_offset_rs1val_0xffffffff_rs2val_0x0_str
000040c8 l       .text.rvtest	00000000 I_blt_cg_cr_rs1_rs2_edges_offset_rs1val_0xffffffff_rs2val_0x1
0000fb3a l       .data	00000000 I_blt_cg_cr_rs1_rs2_edges_offset_rs1val_0xffffffff_rs2val_0x1_str
00004120 l       .text.rvtest	00000000 I_blt_cg_cr_rs1_rs2_edges_offset_rs1val_0xffffffff_rs2val_0x2
0000fb95 l       .data	00000000 I_blt_cg_cr_rs1_rs2_edges_offset_rs1val_0xffffffff_rs2val_0x2_str
00004178 l       .text.rvtest	00000000 I_blt_cg_cr_rs1_rs2_edges_offset_rs1val_0xffffffff_rs2val_0x80000000
0000fbf0 l       .data	00000000 I_blt_cg_cr_rs1_rs2_edges_offset_rs1val_0xffffffff_rs2val_0x80000000_str
000041d0 l       .text.rvtest	00000000 I_blt_cg_cr_rs1_rs2_edges_offset_rs1val_0xffffffff_rs2val_0x80000001
0000fc52 l       .data	00000000 I_blt_cg_cr_rs1_rs2_edges_offset_rs1val_0xffffffff_rs2val_0x80000001_str
00004228 l       .text.rvtest	00000000 I_blt_cg_cr_rs1_rs2_edges_offset_rs1val_0xffffffff_rs2val_0x7fffffff
0000fcb4 l       .data	00000000 I_blt_cg_cr_rs1_rs2_edges_offset_rs1val_0xffffffff_rs2val_0x7fffffff_str
00004280 l       .text.rvtest	00000000 I_blt_cg_cr_rs1_rs2_edges_offset_rs1val_0xffffffff_rs2val_0x7ffffffe
0000fd16 l       .data	00000000 I_blt_cg_cr_rs1_rs2_edges_offset_rs1val_0xffffffff_rs2val_0x7ffffffe_str
000042d8 l       .text.rvtest	00000000 I_blt_cg_cr_rs1_rs2_edges_offset_rs1val_0xffffffff_rs2val_0xffffffff
0000fd78 l       .data	00000000 I_blt_cg_cr_rs1_rs2_edges_offset_rs1val_0xffffffff_rs2val_0xffffffff_str
00004330 l       .text.rvtest	00000000 I_blt_cg_cr_rs1_rs2_edges_offset_rs1val_0xffffffff_rs2val_0xfffffffe
0000fdda l       .data	00000000 I_blt_cg_cr_rs1_rs2_edges_offset_rs1val_0xffffffff_rs2val_0xfffffffe_str
00004388 l       .text.rvtest	00000000 I_blt_cg_cr_rs1_rs2_edges_offset_rs1val_0xffffffff_rs2val_0x5bbc8872
0000fe3c l       .data	00000000 I_blt_cg_cr_rs1_rs2_edges_offset_rs1val_0xffffffff_rs2val_0x5bbc8872_str
000043e0 l       .text.rvtest	00000000 I_blt_cg_cr_rs1_rs2_edges_offset_rs1val_0xffffffff_rs2val_0xaaaaaaaa
0000fe9e l       .data	00000000 I_blt_cg_cr_rs1_rs2_edges_offset_rs1val_0xffffffff_rs2val_0xaaaaaaaa_str
00004438 l       .text.rvtest	00000000 I_blt_cg_cr_rs1_rs2_edges_offset_rs1val_0xffffffff_rs2val_0x55555555
0000ff00 l       .data	00000000 I_blt_cg_cr_rs1_rs2_edges_offset_rs1val_0xffffffff_rs2val_0x55555555_str
00004490 l       .text.rvtest	00000000 I_blt_cg_cr_rs1_rs2_edges_offset_rs1val_0xfffffffe_rs2val_0x0
0000ff62 l       .data	00000000 I_blt_cg_cr_rs1_rs2_edges_offset_rs1val_0xfffffffe_rs2val_0x0_str
000044e8 l       .text.rvtest	00000000 I_blt_cg_cr_rs1_rs2_edges_offset_rs1val_0xfffffffe_rs2val_0x1
0000ffbd l       .data	00000000 I_blt_cg_cr_rs1_rs2_edges_offset_rs1val_0xfffffffe_rs2val_0x1_str
00004540 l       .text.rvtest	00000000 I_blt_cg_cr_rs1_rs2_edges_offset_rs1val_0xfffffffe_rs2val_0x2
00010018 l       .data	00000000 I_blt_cg_cr_rs1_rs2_edges_offset_rs1val_0xfffffffe_rs2val_0x2_str
00004598 l       .text.rvtest	00000000 I_blt_cg_cr_rs1_rs2_edges_offset_rs1val_0xfffffffe_rs2val_0x80000000
00010073 l       .data	00000000 I_blt_cg_cr_rs1_rs2_edges_offset_rs1val_0xfffffffe_rs2val_0x80000000_str
000045f0 l       .text.rvtest	00000000 I_blt_cg_cr_rs1_rs2_edges_offset_rs1val_0xfffffffe_rs2val_0x80000001
000100d5 l       .data	00000000 I_blt_cg_cr_rs1_rs2_edges_offset_rs1val_0xfffffffe_rs2val_0x80000001_str
00004648 l       .text.rvtest	00000000 I_blt_cg_cr_rs1_rs2_edges_offset_rs1val_0xfffffffe_rs2val_0x7fffffff
00010137 l       .data	00000000 I_blt_cg_cr_rs1_rs2_edges_offset_rs1val_0xfffffffe_rs2val_0x7fffffff_str
000046a0 l       .text.rvtest	00000000 I_blt_cg_cr_rs1_rs2_edges_offset_rs1val_0xfffffffe_rs2val_0x7ffffffe
00010199 l       .data	00000000 I_blt_cg_cr_rs1_rs2_edges_offset_rs1val_0xfffffffe_rs2val_0x7ffffffe_str
000046f8 l       .text.rvtest	00000000 I_blt_cg_cr_rs1_rs2_edges_offset_rs1val_0xfffffffe_rs2val_0xffffffff
000101fb l       .data	00000000 I_blt_cg_cr_rs1_rs2_edges_offset_rs1val_0xfffffffe_rs2val_0xffffffff_str
00004750 l       .text.rvtest	00000000 I_blt_cg_cr_rs1_rs2_edges_offset_rs1val_0xfffffffe_rs2val_0xfffffffe
0001025d l       .data	00000000 I_blt_cg_cr_rs1_rs2_edges_offset_rs1val_0xfffffffe_rs2val_0xfffffffe_str
000047a8 l       .text.rvtest	00000000 I_blt_cg_cr_rs1_rs2_edges_offset_rs1val_0xfffffffe_rs2val_0x5bbc8872
000102bf l       .data	00000000 I_blt_cg_cr_rs1_rs2_edges_offset_rs1val_0xfffffffe_rs2val_0x5bbc8872_str
00004800 l       .text.rvtest	00000000 I_blt_cg_cr_rs1_rs2_edges_offset_rs1val_0xfffffffe_rs2val_0xaaaaaaaa
00010321 l       .data	00000000 I_blt_cg_cr_rs1_rs2_edges_offset_rs1val_0xfffffffe_rs2val_0xaaaaaaaa_str
00004858 l       .text.rvtest	00000000 I_blt_cg_cr_rs1_rs2_edges_offset_rs1val_0xfffffffe_rs2val_0x55555555
00010383 l       .data	00000000 I_blt_cg_cr_rs1_rs2_edges_offset_rs1val_0xfffffffe_rs2val_0x55555555_str
000048b0 l       .text.rvtest	00000000 I_blt_cg_cr_rs1_rs2_edges_offset_rs1val_0x5bbc8872_rs2val_0x0
000103e5 l       .data	00000000 I_blt_cg_cr_rs1_rs2_edges_offset_rs1val_0x5bbc8872_rs2val_0x0_str
00004908 l       .text.rvtest	00000000 I_blt_cg_cr_rs1_rs2_edges_offset_rs1val_0x5bbc8872_rs2val_0x1
00010440 l       .data	00000000 I_blt_cg_cr_rs1_rs2_edges_offset_rs1val_0x5bbc8872_rs2val_0x1_str
00004960 l       .text.rvtest	00000000 I_blt_cg_cr_rs1_rs2_edges_offset_rs1val_0x5bbc8872_rs2val_0x2
0001049b l       .data	00000000 I_blt_cg_cr_rs1_rs2_edges_offset_rs1val_0x5bbc8872_rs2val_0x2_str
000049b8 l       .text.rvtest	00000000 I_blt_cg_cr_rs1_rs2_edges_offset_rs1val_0x5bbc8872_rs2val_0x80000000
000104f6 l       .data	00000000 I_blt_cg_cr_rs1_rs2_edges_offset_rs1val_0x5bbc8872_rs2val_0x80000000_str
00004a10 l       .text.rvtest	00000000 I_blt_cg_cr_rs1_rs2_edges_offset_rs1val_0x5bbc8872_rs2val_0x80000001
00010558 l       .data	00000000 I_blt_cg_cr_rs1_rs2_edges_offset_rs1val_0x5bbc8872_rs2val_0x80000001_str
00004a68 l       .text.rvtest	00000000 I_blt_cg_cr_rs1_rs2_edges_offset_rs1val_0x5bbc8872_rs2val_0x7fffffff
000105ba l       .data	00000000 I_blt_cg_cr_rs1_rs2_edges_offset_rs1val_0x5bbc8872_rs2val_0x7fffffff_str
00004ac0 l       .text.rvtest	00000000 I_blt_cg_cr_rs1_rs2_edges_offset_rs1val_0x5bbc8872_rs2val_0x7ffffffe
0001061c l       .data	00000000 I_blt_cg_cr_rs1_rs2_edges_offset_rs1val_0x5bbc8872_rs2val_0x7ffffffe_str
00004b18 l       .text.rvtest	00000000 I_blt_cg_cr_rs1_rs2_edges_offset_rs1val_0x5bbc8872_rs2val_0xffffffff
0001067e l       .data	00000000 I_blt_cg_cr_rs1_rs2_edges_offset_rs1val_0x5bbc8872_rs2val_0xffffffff_str
00004b70 l       .text.rvtest	00000000 I_blt_cg_cr_rs1_rs2_edges_offset_rs1val_0x5bbc8872_rs2val_0xfffffffe
000106e0 l       .data	00000000 I_blt_cg_cr_rs1_rs2_edges_offset_rs1val_0x5bbc8872_rs2val_0xfffffffe_str
00004bc8 l       .text.rvtest	00000000 I_blt_cg_cr_rs1_rs2_edges_offset_rs1val_0x5bbc8872_rs2val_0x5bbc8872
00010742 l       .data	00000000 I_blt_cg_cr_rs1_rs2_edges_offset_rs1val_0x5bbc8872_rs2val_0x5bbc8872_str
00004c20 l       .text.rvtest	00000000 I_blt_cg_cr_rs1_rs2_edges_offset_rs1val_0x5bbc8872_rs2val_0xaaaaaaaa
000107a4 l       .data	00000000 I_blt_cg_cr_rs1_rs2_edges_offset_rs1val_0x5bbc8872_rs2val_0xaaaaaaaa_str
00004c78 l       .text.rvtest	00000000 I_blt_cg_cr_rs1_rs2_edges_offset_rs1val_0x5bbc8872_rs2val_0x55555555
00010806 l       .data	00000000 I_blt_cg_cr_rs1_rs2_edges_offset_rs1val_0x5bbc8872_rs2val_0x55555555_str
00004cd0 l       .text.rvtest	00000000 I_blt_cg_cr_rs1_rs2_edges_offset_rs1val_0xaaaaaaaa_rs2val_0x0
00010868 l       .data	00000000 I_blt_cg_cr_rs1_rs2_edges_offset_rs1val_0xaaaaaaaa_rs2val_0x0_str
00004d28 l       .text.rvtest	00000000 I_blt_cg_cr_rs1_rs2_edges_offset_rs1val_0xaaaaaaaa_rs2val_0x1
000108c3 l       .data	00000000 I_blt_cg_cr_rs1_rs2_edges_offset_rs1val_0xaaaaaaaa_rs2val_0x1_str
00004d80 l       .text.rvtest	00000000 I_blt_cg_cr_rs1_rs2_edges_offset_rs1val_0xaaaaaaaa_rs2val_0x2
0001091e l       .data	00000000 I_blt_cg_cr_rs1_rs2_edges_offset_rs1val_0xaaaaaaaa_rs2val_0x2_str
00004dd8 l       .text.rvtest	00000000 I_blt_cg_cr_rs1_rs2_edges_offset_rs1val_0xaaaaaaaa_rs2val_0x80000000
00010979 l       .data	00000000 I_blt_cg_cr_rs1_rs2_edges_offset_rs1val_0xaaaaaaaa_rs2val_0x80000000_str
00004e30 l       .text.rvtest	00000000 I_blt_cg_cr_rs1_rs2_edges_offset_rs1val_0xaaaaaaaa_rs2val_0x80000001
000109db l       .data	00000000 I_blt_cg_cr_rs1_rs2_edges_offset_rs1val_0xaaaaaaaa_rs2val_0x80000001_str
00004e88 l       .text.rvtest	00000000 I_blt_cg_cr_rs1_rs2_edges_offset_rs1val_0xaaaaaaaa_rs2val_0x7fffffff
00010a3d l       .data	00000000 I_blt_cg_cr_rs1_rs2_edges_offset_rs1val_0xaaaaaaaa_rs2val_0x7fffffff_str
00004ee0 l       .text.rvtest	00000000 I_blt_cg_cr_rs1_rs2_edges_offset_rs1val_0xaaaaaaaa_rs2val_0x7ffffffe
00010a9f l       .data	00000000 I_blt_cg_cr_rs1_rs2_edges_offset_rs1val_0xaaaaaaaa_rs2val_0x7ffffffe_str
00004f38 l       .text.rvtest	00000000 I_blt_cg_cr_rs1_rs2_edges_offset_rs1val_0xaaaaaaaa_rs2val_0xffffffff
00010b01 l       .data	00000000 I_blt_cg_cr_rs1_rs2_edges_offset_rs1val_0xaaaaaaaa_rs2val_0xffffffff_str
00004f90 l       .text.rvtest	00000000 I_blt_cg_cr_rs1_rs2_edges_offset_rs1val_0xaaaaaaaa_rs2val_0xfffffffe
00010b63 l       .data	00000000 I_blt_cg_cr_rs1_rs2_edges_offset_rs1val_0xaaaaaaaa_rs2val_0xfffffffe_str
00004fe8 l       .text.rvtest	00000000 I_blt_cg_cr_rs1_rs2_edges_offset_rs1val_0xaaaaaaaa_rs2val_0x5bbc8872
00010bc5 l       .data	00000000 I_blt_cg_cr_rs1_rs2_edges_offset_rs1val_0xaaaaaaaa_rs2val_0x5bbc8872_str
00005040 l       .text.rvtest	00000000 I_blt_cg_cr_rs1_rs2_edges_offset_rs1val_0xaaaaaaaa_rs2val_0xaaaaaaaa
00010c27 l       .data	00000000 I_blt_cg_cr_rs1_rs2_edges_offset_rs1val_0xaaaaaaaa_rs2val_0xaaaaaaaa_str
00005098 l       .text.rvtest	00000000 I_blt_cg_cr_rs1_rs2_edges_offset_rs1val_0xaaaaaaaa_rs2val_0x55555555
00010c89 l       .data	00000000 I_blt_cg_cr_rs1_rs2_edges_offset_rs1val_0xaaaaaaaa_rs2val_0x55555555_str
000050f0 l       .text.rvtest	00000000 I_blt_cg_cr_rs1_rs2_edges_offset_rs1val_0x55555555_rs2val_0x0
00010ceb l       .data	00000000 I_blt_cg_cr_rs1_rs2_edges_offset_rs1val_0x55555555_rs2val_0x0_str
00005148 l       .text.rvtest	00000000 I_blt_cg_cr_rs1_rs2_edges_offset_rs1val_0x55555555_rs2val_0x1
00010d46 l       .data	00000000 I_blt_cg_cr_rs1_rs2_edges_offset_rs1val_0x55555555_rs2val_0x1_str
000051a0 l       .text.rvtest	00000000 I_blt_cg_cr_rs1_rs2_edges_offset_rs1val_0x55555555_rs2val_0x2
00010da1 l       .data	00000000 I_blt_cg_cr_rs1_rs2_edges_offset_rs1val_0x55555555_rs2val_0x2_str
000051f8 l       .text.rvtest	00000000 I_blt_cg_cr_rs1_rs2_edges_offset_rs1val_0x55555555_rs2val_0x80000000
00010dfc l       .data	00000000 I_blt_cg_cr_rs1_rs2_edges_offset_rs1val_0x55555555_rs2val_0x80000000_str
00005250 l       .text.rvtest	00000000 I_blt_cg_cr_rs1_rs2_edges_offset_rs1val_0x55555555_rs2val_0x80000001
00010e5e l       .data	00000000 I_blt_cg_cr_rs1_rs2_edges_offset_rs1val_0x55555555_rs2val_0x80000001_str
000052a8 l       .text.rvtest	00000000 I_blt_cg_cr_rs1_rs2_edges_offset_rs1val_0x55555555_rs2val_0x7fffffff
00010ec0 l       .data	00000000 I_blt_cg_cr_rs1_rs2_edges_offset_rs1val_0x55555555_rs2val_0x7fffffff_str
00005300 l       .text.rvtest	00000000 I_blt_cg_cr_rs1_rs2_edges_offset_rs1val_0x55555555_rs2val_0x7ffffffe
00010f22 l       .data	00000000 I_blt_cg_cr_rs1_rs2_edges_offset_rs1val_0x55555555_rs2val_0x7ffffffe_str
00005358 l       .text.rvtest	00000000 I_blt_cg_cr_rs1_rs2_edges_offset_rs1val_0x55555555_rs2val_0xffffffff
00010f84 l       .data	00000000 I_blt_cg_cr_rs1_rs2_edges_offset_rs1val_0x55555555_rs2val_0xffffffff_str
000053b0 l       .text.rvtest	00000000 I_blt_cg_cr_rs1_rs2_edges_offset_rs1val_0x55555555_rs2val_0xfffffffe
00010fe6 l       .data	00000000 I_blt_cg_cr_rs1_rs2_edges_offset_rs1val_0x55555555_rs2val_0xfffffffe_str
00005408 l       .text.rvtest	00000000 I_blt_cg_cr_rs1_rs2_edges_offset_rs1val_0x55555555_rs2val_0x5bbc8872
00011048 l       .data	00000000 I_blt_cg_cr_rs1_rs2_edges_offset_rs1val_0x55555555_rs2val_0x5bbc8872_str
00005460 l       .text.rvtest	00000000 I_blt_cg_cr_rs1_rs2_edges_offset_rs1val_0x55555555_rs2val_0xaaaaaaaa
000110aa l       .data	00000000 I_blt_cg_cr_rs1_rs2_edges_offset_rs1val_0x55555555_rs2val_0xaaaaaaaa_str
000054b8 l       .text.rvtest	00000000 I_blt_cg_cr_rs1_rs2_edges_offset_rs1val_0x55555555_rs2val_0x55555555
0001110c l       .data	00000000 I_blt_cg_cr_rs1_rs2_edges_offset_rs1val_0x55555555_rs2val_0x55555555_str
00005518 l       .text.rvtest	00000000 I_blt_cg_cmp_rs1_rs2_b0
0001116e l       .data	00000000 I_blt_cg_cmp_rs1_rs2_b0_str
00005550 l       .text.rvtest	00000000 I_blt_cg_cmp_rs1_rs2_b1
000111a2 l       .data	00000000 I_blt_cg_cmp_rs1_rs2_b1_str
00005588 l       .text.rvtest	00000000 I_blt_cg_cmp_rs1_rs2_b2
000111d6 l       .data	00000000 I_blt_cg_cmp_rs1_rs2_b2_str
000055c0 l       .text.rvtest	00000000 I_blt_cg_cmp_rs1_rs2_b3
0001120a l       .data	00000000 I_blt_cg_cmp_rs1_rs2_b3_str
00005600 l       .text.rvtest	00000000 I_blt_cg_cmp_rs1_rs2_b4
0000a094 l       .text.rvtest	00000000 failedtest_x8_x7
0001123e l       .data	00000000 I_blt_cg_cmp_rs1_rs2_b4_str
00005638 l       .text.rvtest	00000000 I_blt_cg_cmp_rs1_rs2_b5
00011272 l       .data	00000000 I_blt_cg_cmp_rs1_rs2_b5_str
00005670 l       .text.rvtest	00000000 I_blt_cg_cmp_rs1_rs2_b6
000112a6 l       .data	00000000 I_blt_cg_cmp_rs1_rs2_b6_str
000056b0 l       .text.rvtest	00000000 I_blt_cg_cmp_rs1_rs2_b7
000112da l       .data	00000000 I_blt_cg_cmp_rs1_rs2_b7_str
000056e8 l       .text.rvtest	00000000 I_blt_cg_cmp_rs1_rs2_b8
0001130e l       .data	00000000 I_blt_cg_cmp_rs1_rs2_b8_str
00005720 l       .text.rvtest	00000000 I_blt_cg_cmp_rs1_rs2_b9
00011342 l       .data	00000000 I_blt_cg_cmp_rs1_rs2_b9_str
00005758 l       .text.rvtest	00000000 I_blt_cg_cmp_rs1_rs2_b10
00011376 l       .data	00000000 I_blt_cg_cmp_rs1_rs2_b10_str
00005790 l       .text.rvtest	00000000 I_blt_cg_cmp_rs1_rs2_b11
000113ab l       .data	00000000 I_blt_cg_cmp_rs1_rs2_b11_str
000057c8 l       .text.rvtest	00000000 I_blt_cg_cmp_rs1_rs2_b12
000113e0 l       .data	00000000 I_blt_cg_cmp_rs1_rs2_b12_str
00005800 l       .text.rvtest	00000000 I_blt_cg_cmp_rs1_rs2_b13
00011415 l       .data	00000000 I_blt_cg_cmp_rs1_rs2_b13_str
00005838 l       .text.rvtest	00000000 I_blt_cg_cmp_rs1_rs2_b14
0001144a l       .data	00000000 I_blt_cg_cmp_rs1_rs2_b14_str
00005870 l       .text.rvtest	00000000 I_blt_cg_cmp_rs1_rs2_b15
0001147f l       .data	00000000 I_blt_cg_cmp_rs1_rs2_b15_str
000058a8 l       .text.rvtest	00000000 I_blt_cg_cmp_rs1_rs2_b16
000114b4 l       .data	00000000 I_blt_cg_cmp_rs1_rs2_b16_str
000058e4 l       .text.rvtest	00000000 I_blt_cg_cmp_rs1_rs2_b17
000114e9 l       .data	00000000 I_blt_cg_cmp_rs1_rs2_b17_str
0000591c l       .text.rvtest	00000000 I_blt_cg_cmp_rs1_rs2_b18
0001151e l       .data	00000000 I_blt_cg_cmp_rs1_rs2_b18_str
00005954 l       .text.rvtest	00000000 I_blt_cg_cmp_rs1_rs2_b19
00011553 l       .data	00000000 I_blt_cg_cmp_rs1_rs2_b19_str
0000598c l       .text.rvtest	00000000 I_blt_cg_cmp_rs1_rs2_b20
00011588 l       .data	00000000 I_blt_cg_cmp_rs1_rs2_b20_str
000059c4 l       .text.rvtest	00000000 I_blt_cg_cmp_rs1_rs2_b21
000115bd l       .data	00000000 I_blt_cg_cmp_rs1_rs2_b21_str
00005a00 l       .text.rvtest	00000000 I_blt_cg_cmp_rs1_rs2_b22
000115f2 l       .data	00000000 I_blt_cg_cmp_rs1_rs2_b22_str
00005a3c l       .text.rvtest	00000000 I_blt_cg_cmp_rs1_rs2_b23
00011627 l       .data	00000000 I_blt_cg_cmp_rs1_rs2_b23_str
00005a74 l       .text.rvtest	00000000 I_blt_cg_cmp_rs1_rs2_b24
0001165c l       .data	00000000 I_blt_cg_cmp_rs1_rs2_b24_str
00005aac l       .text.rvtest	00000000 I_blt_cg_cmp_rs1_rs2_b25
00011691 l       .data	00000000 I_blt_cg_cmp_rs1_rs2_b25_str
00005ae8 l       .text.rvtest	00000000 I_blt_cg_cmp_rs1_rs2_b26
000116c6 l       .data	00000000 I_blt_cg_cmp_rs1_rs2_b26_str
00005b20 l       .text.rvtest	00000000 I_blt_cg_cmp_rs1_rs2_b27
000116fb l       .data	00000000 I_blt_cg_cmp_rs1_rs2_b27_str
00005b58 l       .text.rvtest	00000000 I_blt_cg_cmp_rs1_rs2_b28
00011730 l       .data	00000000 I_blt_cg_cmp_rs1_rs2_b28_str
00005b90 l       .text.rvtest	00000000 I_blt_cg_cmp_rs1_rs2_b29
00011765 l       .data	00000000 I_blt_cg_cmp_rs1_rs2_b29_str
00005bc8 l       .text.rvtest	00000000 I_blt_cg_cmp_rs1_rs2_b30
0001179a l       .data	00000000 I_blt_cg_cmp_rs1_rs2_b30_str
00005c00 l       .text.rvtest	00000000 I_blt_cg_cmp_rs1_rs2_b31
000117cf l       .data	00000000 I_blt_cg_cmp_rs1_rs2_b31_str
00005c3c l       .text.rvtest	00000000 I_blt_cg_cp_offset_neg
00011804 l       .data	00000000 I_blt_cg_cp_offset_neg_str
00005c6c l       .text.rvtest	00000000 I_blt_cg_cp_imm_edges_branch_all
00011837 l       .data	00000000 I_blt_cg_cp_imm_edges_branch_all_str
0000a02c l       .text.rvtest	00000000 exit_cleanup
00011ee4 l       .data	00000000 successstr
00023204 l       .text.rvmodel	00000000 rvmodel_io_write_str
00023208 l       .text.rvmodel	00000000 rvmodel_halt_pass
0000a070 l       .text.rvtest	00000000 abort_test
00011880 l       .data	00000000 begin_failure_scratch
0000a140 l       .text.rvtest	00000000 failedtest_saveregs
0000a0e4 l       .text.rvtest	00000000 failedtest_trap_x7_x9
000119f0 l       .data	00000000 saved_mcause
000119f8 l       .data	00000000 saved_mtval
00011a00 l       .data	00000000 saved_mstatus
0000a1b0 l       .text.rvtest	00000000 failedtest_saveresults
00011880 l       .data	00000000 failure_type
0000a22c l       .text.rvtest	00000000 failedtest_saveresults_trap
0000a1c0 l       .text.rvtest	00000000 failedtest_saveresults_int
0000a600 l       .text.rvtest	00000000 failedtest_saveresults_common
000119d8 l       .data	00000000 trap_diag_fail_str_ptr
000120aa l       .data	00000000 trap_sig_offset_mismatch
0000a4e0 l       .text.rvtest	00000000 trap_diag_offset_mismatch
000119b0 l       .data	00000000 trap_diag_subtype
0001210e l       .data	00000000 sv_Mvect_str
0000a560 l       .text.rvtest	00000000 trap_diag_field_identified
00012210 l       .data	00000000 sv_Mcause_str
0001230b l       .data	00000000 sv_Mepc_str
000123fe l       .data	00000000 sv_Mtval_str
00012571 l       .data	00000000 sv_Mip_str
000124f5 l       .data	00000000 sv_Mtval2_str
00012533 l       .data	00000000 sv_Mtinst_str
0001214e l       .data	00000000 sv_Svect_str
0001224e l       .data	00000000 sv_Scause_str
00012347 l       .data	00000000 sv_Sepc_str
0001243b l       .data	00000000 sv_Stval_str
000125ac l       .data	00000000 sv_Sip_str
0001218e l       .data	00000000 sv_Hvect_str
0001228c l       .data	00000000 sv_Hcause_str
00012383 l       .data	00000000 sv_Hepc_str
00012478 l       .data	00000000 sv_Htval_str
000125e7 l       .data	00000000 sv_Hip_str
000121cf l       .data	00000000 sv_Vvect_str
000122cb l       .data	00000000 sv_Vcause_str
000123c0 l       .data	00000000 sv_Vepc_str
000124b6 l       .data	00000000 sv_Vtval_str
00012623 l       .data	00000000 sv_Vip_str
00012660 l       .data	00000000 Mclr_Mext_int_str
000126af l       .data	00000000 Mclr_Sext_int_str
000127aa l       .data	00000000 Sclr_Sext_int_str
000128a6 l       .data	00000000 Hclr_Sext_int_str
0000a5f0 l       .text.rvtest	00000000 trap_diag_generic_report
000119c8 l       .data	00000000 trap_diag_actual_offset
000119d0 l       .data	00000000 trap_diag_expected_offset
000119b4 l       .data	00000000 trap_diag_mode
000119b8 l       .data	00000000 trap_diag_actual_value
000119c0 l       .data	00000000 trap_diag_expected_value
0000a630 l       .text.rvtest	00000000 failedtest_report
0000a630 l       .text.rvtest	00000000 print_failstr
00011f1a l       .data	00000000 failstr
0000a668 l       .text.rvtest	00000000 print_testnamestr
00011fad l       .data	00000000 testnamestr
0000a6a8 l       .text.rvtest	00000000 print_failure_test_name_str
000119a0 l       .data	00000000 failure_string_ptr
0000a6b8 l       .text.rvtest	00000000 print_newline_str
00011fbf l       .data	00000000 newlinestr
0000aaec l       .text.rvtest	00000000 failedtest_report_trap_detailed
00011fc1 l       .data	00000000 inststr
00011980 l       .data	00000000 failing_instruction
0000ba38 l       .text.rvtest	00000000 failedtest_hex_to_str
00011a08 l       .data	00000000 ascii_buffer
00011fd5 l       .data	00000000 addrstr
00011988 l       .data	00000000 failing_addr
00012a52 l       .data	00000000 regstr
0000a898 l       .text.rvtest	00000000 failedtest_report_not_intreg
00011984 l       .data	00000000 failing_reg
0000bab4 l       .text.rvtest	00000000 failedtest_dec_to_str
0000a974 l       .text.rvtest	00000000 failedtest_report_print_regstr
0000a8ec l       .text.rvtest	00000000 failedtest_report_fpreg
0000a938 l       .text.rvtest	00000000 failedtest_report_vecreg
00012ab2 l       .data	00000000 fflagsstr
0000a9a8 l       .text.rvtest	00000000 failedtest_report_after_reg
00012a63 l       .data	00000000 badvalstr
0000aa0c l       .text.rvtest	00000000 failedtest_report_badval_not_fp
00011990 l       .data	00000000 failing_value
0000aa1c l       .text.rvtest	00000000 failedtest_report_badval_done
00012a7a l       .data	00000000 expvalstr
0000aaac l       .text.rvtest	00000000 failedtest_report_expval_not_fp
00011998 l       .data	00000000 expected_value
0000aabc l       .text.rvtest	00000000 failedtest_report_expval_done
0000b7e4 l       .text.rvtest	00000000 failedtest_report_end
00012ade l       .data	00000000 trap_diag_header_str
00012b0a l       .data	00000000 trap_diag_origstr_label
0000abc0 l       .text.rvtest	00000000 trap_report_offset_mismatch
0000b670 l       .text.rvtest	00000000 trap_report_generic
0000af34 l       .text.rvtest	00000000 trap_report_field_mismatch
00012b1a l       .data	00000000 trap_diag_count_mismatch_str
00012b7b l       .data	00000000 trap_diag_expected_offset_str
00012ba2 l       .data	00000000 trap_diag_actual_offset_str
0000ae14 l       .text.rvtest	00000000 trap_report_missing_traps
0000acfc l       .text.rvtest	00000000 trap_report_extra_traps
00012bc9 l       .data	00000000 trap_diag_extra_traps_str
00012c4e l       .data	00000000 trap_diag_extra_bytes_str
00012c79 l       .data	00000000 trap_diag_extra_hint_str
0000b830 l       .text.rvtest	00000000 failedtest_print_csr_context
00012c03 l       .data	00000000 trap_diag_missing_traps_str
00012d61 l       .data	00000000 trap_diag_missing_hint_str
00012e48 l       .data	00000000 trap_diag_handler_mode_str
0000afc4 l       .text.rvtest	00000000 trap_mode_m
0000b004 l       .text.rvtest	00000000 trap_mode_s
0000b044 l       .text.rvtest	00000000 trap_mode_h
0000b084 l       .text.rvtest	00000000 trap_mode_v
00012e84 l       .data	00000000 trap_diag_mode_unknown_str
0000b0c0 l       .text.rvtest	00000000 trap_mode_print
00012e62 l       .data	00000000 trap_diag_mode_m_str
00012e6a l       .data	00000000 trap_diag_mode_s_str
00012e72 l       .data	00000000 trap_diag_mode_hs_str
00012e7b l       .data	00000000 trap_diag_mode_vs_str
00012e8d l       .data	00000000 trap_diag_field_str
0000b184 l       .text.rvtest	00000000 trap_field_vect
0000b1c4 l       .text.rvtest	00000000 trap_field_cause
0000b204 l       .text.rvtest	00000000 trap_field_epc
0000b244 l       .text.rvtest	00000000 trap_field_tval
0000b284 l       .text.rvtest	00000000 trap_field_ip
0000b2c4 l       .text.rvtest	00000000 trap_field_tval2
0000b304 l       .text.rvtest	00000000 trap_field_tinst
0000b344 l       .text.rvtest	00000000 trap_field_intid
00012fe4 l       .data	00000000 trap_diag_field_unknown_str
0000b380 l       .text.rvtest	00000000 trap_field_print
00012ea7 l       .data	00000000 trap_diag_field_vect_str
00012ed8 l       .data	00000000 trap_diag_field_cause_str
00012ef8 l       .data	00000000 trap_diag_field_epc_str
00012f16 l       .data	00000000 trap_diag_field_tval_str
00012f35 l       .data	00000000 trap_diag_field_ip_str
00012f5d l       .data	00000000 trap_diag_field_tval2_str
00012f89 l       .data	00000000 trap_diag_field_tinst_str
00012fb5 l       .data	00000000 trap_diag_field_intid_str
00012ff3 l       .data	00000000 trap_diag_expected_str
0001300a l       .data	00000000 trap_diag_actual_str
0000b51c l       .text.rvtest	00000000 trap_field_not_cause
00013021 l       .data	00000000 trap_diag_expected_cause_name_str
0000b754 l       .text.rvtest	00000000 trap_cause_to_str
00013038 l       .data	00000000 trap_diag_actual_cause_name_str
0000b51c l       .text.rvtest	00000000 trap_field_not_epc
000130ae l       .data	00000000 trap_diag_hint_vect_str
00013184 l       .data	00000000 trap_diag_hint_cause_str
00013277 l       .data	00000000 trap_diag_hint_epc_str
00013372 l       .data	00000000 trap_diag_hint_tval_str
00013459 l       .data	00000000 trap_diag_hint_ip_str
00013066 l       .data	00000000 trap_diag_generic_str
000119e8 l       .data	00000000 saved_mepc
00012049 l       .data	00000000 xepcinstrstr
0000b778 l       .text.rvtest	00000000 trap_cause_interrupt
0000b758 l       .text.rvtest	00000000 trap_cause_exception
0000b7a4 l       .text.rvtest	00000000 trap_cause_unknown
00011a30 l       .data	00000000 trap_excpt_name_tbl
00011a90 l       .data	00000000 trap_int_name_tbl
00011ece l       .data	00000000 trap_cause_unknown_str
00012a91 l       .data	00000000 endstr
0000b828 l       .text.rvtest	00000000 failedtest_terminate
00023214 l       .text.rvmodel	00000000 rvmodel_halt_fail
000119e0 l       .data	00000000 csr_context_ret_addr
0001206a l       .data	00000000 mepcstr
0001207a l       .data	00000000 mcausestr
0001208a l       .data	00000000 mtvalstr
0001209a l       .data	00000000 mstatusstr
0000ba78 l       .text.rvtest	00000000 failedtest_hex_to_str_loop
0000ba94 l       .text.rvtest	00000000 failedtest_hex_to_str_digit
0000ba98 l       .text.rvtest	00000000 failedtest_hex_to_str_write
00023000 l       .text.rvmodel	00000000 rvtest_boot_to_mmode
00023000 l       .text.rvmodel	00000000 rvtest_init_regs
00013540 l       .data	00000000 signature_base
000231a0 l       .text.rvmodel	00000000 canary_check
00012aba l       .data	00000000 canary_mismatch
0000c000 l       .data	00000000 scratch
00011a30 l       .data	00000000 end_failure_scratch
00011ad0 l       .data	00000000 trap_excpt_name_0
00011af0 l       .data	00000000 trap_excpt_name_1
00011b0a l       .data	00000000 trap_excpt_name_2
00011b1f l       .data	00000000 trap_excpt_name_3
00011b2b l       .data	00000000 trap_excpt_name_4
00011b44 l       .data	00000000 trap_excpt_name_5
00011b57 l       .data	00000000 trap_excpt_name_6
00011b75 l       .data	00000000 trap_excpt_name_7
00011b8d l       .data	00000000 trap_excpt_name_8
00011bab l       .data	00000000 trap_excpt_name_9
00011bc9 l       .data	00000000 trap_excpt_name_10
00011be8 l       .data	00000000 trap_excpt_name_11
00011c06 l       .data	00000000 trap_excpt_name_12
00011c1e l       .data	00000000 trap_excpt_name_13
00011c2f l       .data	00000000 trap_excpt_name_14
00011c3e l       .data	00000000 trap_excpt_name_15
00011c54 l       .data	00000000 trap_excpt_name_16
00011c61 l       .data	00000000 trap_excpt_name_17
00011c70 l       .data	00000000 trap_excpt_name_18
00011c80 l       .data	00000000 trap_excpt_name_19
00011c90 l       .data	00000000 trap_excpt_name_20
00011cae l       .data	00000000 trap_excpt_name_21
00011cc5 l       .data	00000000 trap_excpt_name_22
00011cda l       .data	00000000 trap_excpt_name_23
00011cf6 l       .data	00000000 trap_int_name_0
00011d0e l       .data	00000000 trap_int_name_1
00011d2d l       .data	00000000 trap_int_name_2
00011d54 l       .data	00000000 trap_int_name_3
00011d70 l       .data	00000000 trap_int_name_4
00011d88 l       .data	00000000 trap_int_name_5
00011da4 l       .data	00000000 trap_int_name_6
00011dc8 l       .data	00000000 trap_int_name_7
00011de1 l       .data	00000000 trap_int_name_8
00011df9 l       .data	00000000 trap_int_name_9
00011e18 l       .data	00000000 trap_int_name_10
00011e3f l       .data	00000000 trap_int_name_11
00011e5b l       .data	00000000 trap_int_name_12
00011e80 l       .data	00000000 trap_int_name_13
00011e9c l       .data	00000000 trap_int_name_14
00011eb5 l       .data	00000000 trap_int_name_15
00011f6f l       .data	00000000 abortstr
00012016 l       .data	00000000 xepcstr
00012701 l       .data	00000000 Mclr_Vext_int_str
0001275b l       .data	00000000 Sclr_Mext_int_str
000127fc l       .data	00000000 Sclr_Vext_int_str
00012856 l       .data	00000000 Hclr_Mext_int_str
000128f9 l       .data	00000000 Hclr_Vext_int_str
00012954 l       .data	00000000 Vclr_Mext_int_str
000129a4 l       .data	00000000 Vclr_Sext_int_str
000129f7 l       .data	00000000 Vclr_Vext_int_str
0001304f l       .data	00000000 trap_diag_curr_xepc_str
00013bd8 l       .data	00000000 trap_sigptr
00022640 g       .data	00000000 end_signature
00022640 g       .data	00000000 rvtest_sig_end
00000000 g       .text.init	00000000 rvtest_entry_point
00013540 g       .data	00000000 begin_signature
0000a02c g       .text.rvtest	00000000 rvtest_code_end
00001000 g       .text.rvtest	00000000 rvtest_code_begin
00013540 g       .data	00000000 rvtest_sig_begin
0000c110 g       .data	00000000 rvtest_data_begin
0001353e g       .data	00000000 rvtest_data_end
0000a02c g       .text.rvtest	00000000 cleanup_epilogs
00024000 g       .text.rvmodel	00000000 _end



Disassembly of section .text.init:

00000000 <rvtest_entry_point>:

// Include framework macros
#include "riscv_arch_test.h"

// Set up test environment and declare main entry point
RVTEST_BEGIN
   0:	00023097          	auipc	x1,0x23
   4:	00008093          	addi	x1,x1,0 # 23000 <rvmodel_boot>
   8:	00000013          	addi	x0,x0,0
   c:	00000013          	addi	x0,x0,0
  10:	00000013          	addi	x0,x0,0
  14:	00000013          	addi	x0,x0,0
  18:	00000013          	addi	x0,x0,0
  1c:	00000013          	addi	x0,x0,0
  20:	000080e7          	jalr	x1,0(x1)
  24:	00000013          	addi	x0,x0,0
  28:	00000013          	addi	x0,x0,0
  2c:	00000013          	addi	x0,x0,0
  30:	00000013          	addi	x0,x0,0
  34:	00000013          	addi	x0,x0,0
  38:	00000013          	addi	x0,x0,0
  3c:	00000013          	addi	x0,x0,0

Disassembly of section .text.rvtest:

00001000 <rvtest_code_begin>:
/////////////////////////////////
// cp_rs1
/////////////////////////////////

# Testcase cp_rs1 (Test source rs1 = x0)
  RVTEST_TESTDATA_LOAD_INT(x3, x0) # load rs1: x0 = 0xd3c03a0b
    1000:	0001a003          	lw	x0,0(x3)
    1004:	00418193          	addi	x3,x3,4
  RVTEST_TESTDATA_LOAD_INT(x3, x26) # load rs2: x26 = 0x00245547
    1008:	0001ad03          	lw	x26,0(x3)
    100c:	00418193          	addi	x3,x3,4
  RVTEST_TESTDATA_LOAD_INT(x3, x30) # load branch taken value: x30 = 0x3539cb13
    1010:	0001af03          	lw	x30,0(x3)
    1014:	00418193          	addi	x3,x3,4

00001018 <I_blt_cg_cp_rs1_b0>:
I_blt_cg_cp_rs1_b0:
  blt x0, x26, 1f # perform operation
    1018:	01a04463          	blt	x0,x26,1020 <I_blt_cg_cp_rs1_b0+0x8>
  LI(x30, -1) # branch not taken, set temp_reg to 0
    101c:	fff00f13          	addi	x30,x0,-1
1:
  # Check if x30 contains the expected result. x2 is the signature ptr, x5 is the link ptr, x4 is a temp reg.
  RVTEST_SIGUPD(x2, x5, x4, x30, I_blt_cg_cp_rs1_b0, I_blt_cg_cp_rs1_b0_str)
    1020:	00012203          	lw	x4,0(x2)
    1024:	01e20863          	beq	x4,x30,1034 <I_blt_cg_cp_rs1_b0+0x1c>
    1028:	054092ef          	jal	x5,a07c <failedtest_x5_x4>
    102c:	00001018          	.word	0x00001018
    1030:	0000cb38          	.word	0x0000cb38
    1034:	00410113          	addi	x2,x2,4

# Testcase cp_rs1 (Test source rs1 = x1)
  RVTEST_TESTDATA_LOAD_INT(x3, x1) # load rs1: x1 = 0xcca4889d
    1038:	0001a083          	lw	x1,0(x3)
    103c:	00418193          	addi	x3,x3,4
  RVTEST_TESTDATA_LOAD_INT(x3, x10) # load rs2: x10 = 0xd73c0e04
    1040:	0001a503          	lw	x10,0(x3)
    1044:	00418193          	addi	x3,x3,4
  RVTEST_TESTDATA_LOAD_INT(x3, x28) # load branch taken value: x28 = 0x47ad4a46
    1048:	0001ae03          	lw	x28,0(x3)
    104c:	00418193          	addi	x3,x3,4

00001050 <I_blt_cg_cp_rs1_b1>:
I_blt_cg_cp_rs1_b1:
  blt x1, x10, 1f # perform operation
    1050:	00a0c463          	blt	x1,x10,1058 <I_blt_cg_cp_rs1_b1+0x8>
  LI(x28, -1) # branch not taken, set temp_reg to 0
    1054:	fff00e13          	addi	x28,x0,-1
1:
  # Check if x28 contains the expected result. x2 is the signature ptr, x5 is the link ptr, x4 is a temp reg.
  RVTEST_SIGUPD(x2, x5, x4, x28, I_blt_cg_cp_rs1_b1, I_blt_cg_cp_rs1_b1_str)
    1058:	00012203          	lw	x4,0(x2)
    105c:	01c20863          	beq	x4,x28,106c <I_blt_cg_cp_rs1_b1+0x1c>
    1060:	01c092ef          	jal	x5,a07c <failedtest_x5_x4>
    1064:	00001050          	.word	0x00001050
    1068:	0000cb65          	.word	0x0000cb65
    106c:	00410113          	addi	x2,x2,4

  mv x24, x2 # switch signature pointer register to avoid conflict with test
    1070:	00010c13          	addi	x24,x2,0
# Testcase cp_rs1 (Test source rs1 = x2)
  RVTEST_TESTDATA_LOAD_INT(x3, x2) # load rs1: x2 = 0x958e8ae5
    1074:	0001a103          	lw	x2,0(x3)
    1078:	00418193          	addi	x3,x3,4
  RVTEST_TESTDATA_LOAD_INT(x3, x23) # load rs2: x23 = 0x8f56eb80
    107c:	0001ab83          	lw	x23,0(x3)
    1080:	00418193          	addi	x3,x3,4
  RVTEST_TESTDATA_LOAD_INT(x3, x30) # load branch taken value: x30 = 0xf70cc50c
    1084:	0001af03          	lw	x30,0(x3)
    1088:	00418193          	addi	x3,x3,4

0000108c <I_blt_cg_cp_rs1_b2>:
I_blt_cg_cp_rs1_b2:
  blt x2, x23, 1f # perform operation
    108c:	01714463          	blt	x2,x23,1094 <I_blt_cg_cp_rs1_b2+0x8>
  LI(x30, -1) # branch not taken, set temp_reg to 0
    1090:	fff00f13          	addi	x30,x0,-1
1:
  # Check if x30 contains the expected result. x24 is the signature ptr, x5 is the link ptr, x4 is a temp reg.
  RVTEST_SIGUPD(x24, x5, x4, x30, I_blt_cg_cp_rs1_b2, I_blt_cg_cp_rs1_b2_str)
    1094:	000c2203          	lw	x4,0(x24)
    1098:	01e20863          	beq	x4,x30,10a8 <I_blt_cg_cp_rs1_b2+0x1c>
    109c:	7e1082ef          	jal	x5,a07c <failedtest_x5_x4>
    10a0:	0000108c          	.word	0x0000108c
    10a4:	0000cb92          	.word	0x0000cb92
    10a8:	004c0c13          	addi	x24,x24,4

  mv x18, x3 # switch data pointer register to avoid conflict with test
    10ac:	00018913          	addi	x18,x3,0
# Testcase cp_rs1 (Test source rs1 = x3)
  RVTEST_TESTDATA_LOAD_INT(x18, x3) # load rs1: x3 = 0x1e29e519
    10b0:	00092183          	lw	x3,0(x18)
    10b4:	00490913          	addi	x18,x18,4
  RVTEST_TESTDATA_LOAD_INT(x18, x26) # load rs2: x26 = 0x0293cecf
    10b8:	00092d03          	lw	x26,0(x18)
    10bc:	00490913          	addi	x18,x18,4
  RVTEST_TESTDATA_LOAD_INT(x18, x7) # load branch taken value: x7 = 0x4338087b
    10c0:	00092383          	lw	x7,0(x18)
    10c4:	00490913          	addi	x18,x18,4

000010c8 <I_blt_cg_cp_rs1_b3>:
I_blt_cg_cp_rs1_b3:
  blt x3, x26, 1f # perform operation
    10c8:	01a1c463          	blt	x3,x26,10d0 <I_blt_cg_cp_rs1_b3+0x8>
  LI(x7, -1) # branch not taken, set temp_reg to 0
    10cc:	fff00393          	addi	x7,x0,-1
1:
  # Check if x7 contains the expected result. x24 is the signature ptr, x5 is the link ptr, x4 is a temp reg.
  RVTEST_SIGUPD(x24, x5, x4, x7, I_blt_cg_cp_rs1_b3, I_blt_cg_cp_rs1_b3_str)
    10d0:	000c2203          	lw	x4,0(x24)
    10d4:	00720863          	beq	x4,x7,10e4 <I_blt_cg_cp_rs1_b3+0x1c>
    10d8:	7a5082ef          	jal	x5,a07c <failedtest_x5_x4>
    10dc:	000010c8          	.word	0x000010c8
    10e0:	0000cbbf          	.word	0x0000cbbf
    10e4:	004c0c13          	addi	x24,x24,4

  mv x13, x4 # switch temp register to avoid conflict with test
    10e8:	00020693          	addi	x13,x4,0 # 0 <rvtest_entry_point>
  mv x14, x5 # switch link pointer register to avoid conflict with test
    10ec:	00028713          	addi	x14,x5,0
# Testcase cp_rs1 (Test source rs1 = x4)
  RVTEST_TESTDATA_LOAD_INT(x18, x4) # load rs1: x4 = 0x90cf597e
    10f0:	00092203          	lw	x4,0(x18)
    10f4:	00490913          	addi	x18,x18,4
  RVTEST_TESTDATA_LOAD_INT(x18, x22) # load rs2: x22 = 0x740b9c27
    10f8:	00092b03          	lw	x22,0(x18)
    10fc:	00490913          	addi	x18,x18,4
  RVTEST_TESTDATA_LOAD_INT(x18, x10) # load branch taken value: x10 = 0x184af098
    1100:	00092503          	lw	x10,0(x18)
    1104:	00490913          	addi	x18,x18,4

00001108 <I_blt_cg_cp_rs1_b4>:
I_blt_cg_cp_rs1_b4:
  blt x4, x22, 1f # perform operation
    1108:	01624463          	blt	x4,x22,1110 <I_blt_cg_cp_rs1_b4+0x8>
  LI(x10, -1) # branch not taken, set temp_reg to 0
    110c:	fff00513          	addi	x10,x0,-1
1:
  # Check if x10 contains the expected result. x24 is the signature ptr, x14 is the link ptr, x13 is a temp reg.
  RVTEST_SIGUPD(x24, x14, x13, x10, I_blt_cg_cp_rs1_b4, I_blt_cg_cp_rs1_b4_str)
    1110:	000c2683          	lw	x13,0(x24)
    1114:	00a68863          	beq	x13,x10,1124 <I_blt_cg_cp_rs1_b4+0x1c>
    1118:	7a50876f          	jal	x14,a0bc <failedtest_x14_x13>
    111c:	00001108          	.word	0x00001108
    1120:	0000cbec          	.word	0x0000cbec
    1124:	004c0c13          	addi	x24,x24,4

# Testcase cp_rs1 (Test source rs1 = x5)
  RVTEST_TESTDATA_LOAD_INT(x18, x5) # load rs1: x5 = 0x94ab3787
    1128:	00092283          	lw	x5,0(x18)
    112c:	00490913          	addi	x18,x18,4
  RVTEST_TESTDATA_LOAD_INT(x18, x15) # load rs2: x15 = 0x042d2d9c
    1130:	00092783          	lw	x15,0(x18)
    1134:	00490913          	addi	x18,x18,4
  RVTEST_TESTDATA_LOAD_INT(x18, x26) # load branch taken value: x26 = 0x0623c01e
    1138:	00092d03          	lw	x26,0(x18)
    113c:	00490913          	addi	x18,x18,4

00001140 <I_blt_cg_cp_rs1_b5>:
I_blt_cg_cp_rs1_b5:
  blt x5, x15, 1f # perform operation
    1140:	00f2c463          	blt	x5,x15,1148 <I_blt_cg_cp_rs1_b5+0x8>
  LI(x26, -1) # branch not taken, set temp_reg to 0
    1144:	fff00d13          	addi	x26,x0,-1
1:
  # Check if x26 contains the expected result. x24 is the signature ptr, x14 is the link ptr, x13 is a temp reg.
  RVTEST_SIGUPD(x24, x14, x13, x26, I_blt_cg_cp_rs1_b5, I_blt_cg_cp_rs1_b5_str)
    1148:	000c2683          	lw	x13,0(x24)
    114c:	01a68863          	beq	x13,x26,115c <I_blt_cg_cp_rs1_b5+0x1c>
    1150:	76d0876f          	jal	x14,a0bc <failedtest_x14_x13>
    1154:	00001140          	.word	0x00001140
    1158:	0000cc19          	.word	0x0000cc19
    115c:	004c0c13          	addi	x24,x24,4

# Testcase cp_rs1 (Test source rs1 = x6)
  RVTEST_TESTDATA_LOAD_INT(x18, x6) # load rs1: x6 = 0x361a8dc8
    1160:	00092303          	lw	x6,0(x18)
    1164:	00490913          	addi	x18,x18,4
  RVTEST_TESTDATA_LOAD_INT(x18, x9) # load rs2: x9 = 0x2fd35e65
    1168:	00092483          	lw	x9,0(x18)
    116c:	00490913          	addi	x18,x18,4
  RVTEST_TESTDATA_LOAD_INT(x18, x28) # load branch taken value: x28 = 0x58d37957
    1170:	00092e03          	lw	x28,0(x18)
    1174:	00490913          	addi	x18,x18,4

00001178 <I_blt_cg_cp_rs1_b6>:
I_blt_cg_cp_rs1_b6:
  blt x6, x9, 1f # perform operation
    1178:	00934463          	blt	x6,x9,1180 <I_blt_cg_cp_rs1_b6+0x8>
  LI(x28, -1) # branch not taken, set temp_reg to 0
    117c:	fff00e13          	addi	x28,x0,-1
1:
  # Check if x28 contains the expected result. x24 is the signature ptr, x14 is the link ptr, x13 is a temp reg.
  RVTEST_SIGUPD(x24, x14, x13, x28, I_blt_cg_cp_rs1_b6, I_blt_cg_cp_rs1_b6_str)
    1180:	000c2683          	lw	x13,0(x24)
    1184:	01c68863          	beq	x13,x28,1194 <I_blt_cg_cp_rs1_b6+0x1c>
    1188:	7350876f          	jal	x14,a0bc <failedtest_x14_x13>
    118c:	00001178          	.word	0x00001178
    1190:	0000cc46          	.word	0x0000cc46
    1194:	004c0c13          	addi	x24,x24,4

# Testcase cp_rs1 (Test source rs1 = x7)
  RVTEST_TESTDATA_LOAD_INT(x18, x7) # load rs1: x7 = 0xc2d08b8a
    1198:	00092383          	lw	x7,0(x18)
    119c:	00490913          	addi	x18,x18,4
  RVTEST_TESTDATA_LOAD_INT(x18, x27) # load rs2: x27 = 0x26d065bc
    11a0:	00092d83          	lw	x27,0(x18)
    11a4:	00490913          	addi	x18,x18,4
  RVTEST_TESTDATA_LOAD_INT(x18, x9) # load branch taken value: x9 = 0x5c7d6b5b
    11a8:	00092483          	lw	x9,0(x18)
    11ac:	00490913          	addi	x18,x18,4

000011b0 <I_blt_cg_cp_rs1_b7>:
I_blt_cg_cp_rs1_b7:
  blt x7, x27, 1f # perform operation
    11b0:	01b3c463          	blt	x7,x27,11b8 <I_blt_cg_cp_rs1_b7+0x8>
  LI(x9, -1) # branch not taken, set temp_reg to 0
    11b4:	fff00493          	addi	x9,x0,-1
1:
  # Check if x9 contains the expected result. x24 is the signature ptr, x14 is the link ptr, x13 is a temp reg.
  RVTEST_SIGUPD(x24, x14, x13, x9, I_blt_cg_cp_rs1_b7, I_blt_cg_cp_rs1_b7_str)
    11b8:	000c2683          	lw	x13,0(x24)
    11bc:	00968863          	beq	x13,x9,11cc <I_blt_cg_cp_rs1_b7+0x1c>
    11c0:	6fd0876f          	jal	x14,a0bc <failedtest_x14_x13>
    11c4:	000011b0          	.word	0x000011b0
    11c8:	0000cc73          	.word	0x0000cc73
    11cc:	004c0c13          	addi	x24,x24,4

# Testcase cp_rs1 (Test source rs1 = x8)
  RVTEST_TESTDATA_LOAD_INT(x18, x8) # load rs1: x8 = 0xf1cdd022
    11d0:	00092403          	lw	x8,0(x18)
    11d4:	00490913          	addi	x18,x18,4
  RVTEST_TESTDATA_LOAD_INT(x18, x31) # load rs2: x31 = 0xe3a0b408
    11d8:	00092f83          	lw	x31,0(x18)
    11dc:	00490913          	addi	x18,x18,4
  RVTEST_TESTDATA_LOAD_INT(x18, x7) # load branch taken value: x7 = 0x45d4a4b2
    11e0:	00092383          	lw	x7,0(x18)
    11e4:	00490913          	addi	x18,x18,4

000011e8 <I_blt_cg_cp_rs1_b8>:
I_blt_cg_cp_rs1_b8:
  blt x8, x31, 1f # perform operation
    11e8:	01f44463          	blt	x8,x31,11f0 <I_blt_cg_cp_rs1_b8+0x8>
  LI(x7, -1) # branch not taken, set temp_reg to 0
    11ec:	fff00393          	addi	x7,x0,-1
1:
  # Check if x7 contains the expected result. x24 is the signature ptr, x14 is the link ptr, x13 is a temp reg.
  RVTEST_SIGUPD(x24, x14, x13, x7, I_blt_cg_cp_rs1_b8, I_blt_cg_cp_rs1_b8_str)
    11f0:	000c2683          	lw	x13,0(x24)
    11f4:	00768863          	beq	x13,x7,1204 <I_blt_cg_cp_rs1_b8+0x1c>
    11f8:	6c50876f          	jal	x14,a0bc <failedtest_x14_x13>
    11fc:	000011e8          	.word	0x000011e8
    1200:	0000cca0          	.word	0x0000cca0
    1204:	004c0c13          	addi	x24,x24,4

# Testcase cp_rs1 (Test source rs1 = x9)
  RVTEST_TESTDATA_LOAD_INT(x18, x9) # load rs1: x9 = 0xb9cc9b83
    1208:	00092483          	lw	x9,0(x18)
    120c:	00490913          	addi	x18,x18,4
  RVTEST_TESTDATA_LOAD_INT(x18, x7) # load rs2: x7 = 0x16273bc8
    1210:	00092383          	lw	x7,0(x18)
    1214:	00490913          	addi	x18,x18,4
  RVTEST_TESTDATA_LOAD_INT(x18, x4) # load branch taken value: x4 = 0xf0bb46c5
    1218:	00092203          	lw	x4,0(x18)
    121c:	00490913          	addi	x18,x18,4

00001220 <I_blt_cg_cp_rs1_b9>:
I_blt_cg_cp_rs1_b9:
  blt x9, x7, 1f # perform operation
    1220:	0074c463          	blt	x9,x7,1228 <I_blt_cg_cp_rs1_b9+0x8>
  LI(x4, -1) # branch not taken, set temp_reg to 0
    1224:	fff00213          	addi	x4,x0,-1
1:
  # Check if x4 contains the expected result. x24 is the signature ptr, x14 is the link ptr, x13 is a temp reg.
  RVTEST_SIGUPD(x24, x14, x13, x4, I_blt_cg_cp_rs1_b9, I_blt_cg_cp_rs1_b9_str)
    1228:	000c2683          	lw	x13,0(x24)
    122c:	00468863          	beq	x13,x4,123c <I_blt_cg_cp_rs1_b9+0x1c>
    1230:	68d0876f          	jal	x14,a0bc <failedtest_x14_x13>
    1234:	00001220          	.word	0x00001220
    1238:	0000cccd          	.word	0x0000cccd
    123c:	004c0c13          	addi	x24,x24,4

# Testcase cp_rs1 (Test source rs1 = x10)
  RVTEST_TESTDATA_LOAD_INT(x18, x10) # load rs1: x10 = 0x1257579d
    1240:	00092503          	lw	x10,0(x18)
    1244:	00490913          	addi	x18,x18,4
  RVTEST_TESTDATA_LOAD_INT(x18, x11) # load rs2: x11 = 0x4c78b2c7
    1248:	00092583          	lw	x11,0(x18)
    124c:	00490913          	addi	x18,x18,4
  RVTEST_TESTDATA_LOAD_INT(x18, x15) # load branch taken value: x15 = 0x5d0ef56c
    1250:	00092783          	lw	x15,0(x18)
    1254:	00490913          	addi	x18,x18,4

00001258 <I_blt_cg_cp_rs1_b10>:
I_blt_cg_cp_rs1_b10:
  blt x10, x11, 1f # perform operation
    1258:	00b54463          	blt	x10,x11,1260 <I_blt_cg_cp_rs1_b10+0x8>
  LI(x15, -1) # branch not taken, set temp_reg to 0
    125c:	fff00793          	addi	x15,x0,-1
1:
  # Check if x15 contains the expected result. x24 is the signature ptr, x14 is the link ptr, x13 is a temp reg.
  RVTEST_SIGUPD(x24, x14, x13, x15, I_blt_cg_cp_rs1_b10, I_blt_cg_cp_rs1_b10_str)
    1260:	000c2683          	lw	x13,0(x24)
    1264:	00f68863          	beq	x13,x15,1274 <I_blt_cg_cp_rs1_b10+0x1c>
    1268:	6550876f          	jal	x14,a0bc <failedtest_x14_x13>
    126c:	00001258          	.word	0x00001258
    1270:	0000ccfb          	.word	0x0000ccfb
    1274:	004c0c13          	addi	x24,x24,4

# Testcase cp_rs1 (Test source rs1 = x11)
  RVTEST_TESTDATA_LOAD_INT(x18, x11) # load rs1: x11 = 0x5f72bb1c
    1278:	00092583          	lw	x11,0(x18)
    127c:	00490913          	addi	x18,x18,4
  RVTEST_TESTDATA_LOAD_INT(x18, x2) # load rs2: x2 = 0xa214e307
    1280:	00092103          	lw	x2,0(x18)
    1284:	00490913          	addi	x18,x18,4
  RVTEST_TESTDATA_LOAD_INT(x18, x23) # load branch taken value: x23 = 0x1ad57a06
    1288:	00092b83          	lw	x23,0(x18)
    128c:	00490913          	addi	x18,x18,4

00001290 <I_blt_cg_cp_rs1_b11>:
I_blt_cg_cp_rs1_b11:
  blt x11, x2, 1f # perform operation
    1290:	0025c463          	blt	x11,x2,1298 <I_blt_cg_cp_rs1_b11+0x8>
  LI(x23, -1) # branch not taken, set temp_reg to 0
    1294:	fff00b93          	addi	x23,x0,-1
1:
  # Check if x23 contains the expected result. x24 is the signature ptr, x14 is the link ptr, x13 is a temp reg.
  RVTEST_SIGUPD(x24, x14, x13, x23, I_blt_cg_cp_rs1_b11, I_blt_cg_cp_rs1_b11_str)
    1298:	000c2683          	lw	x13,0(x24)
    129c:	01768863          	beq	x13,x23,12ac <I_blt_cg_cp_rs1_b11+0x1c>
    12a0:	61d0876f          	jal	x14,a0bc <failedtest_x14_x13>
    12a4:	00001290          	.word	0x00001290
    12a8:	0000cd2a          	.word	0x0000cd2a
    12ac:	004c0c13          	addi	x24,x24,4

# Testcase cp_rs1 (Test source rs1 = x12)
  RVTEST_TESTDATA_LOAD_INT(x18, x12) # load rs1: x12 = 0x9629d4f8
    12b0:	00092603          	lw	x12,0(x18)
    12b4:	00490913          	addi	x18,x18,4
  RVTEST_TESTDATA_LOAD_INT(x18, x20) # load rs2: x20 = 0xb2a34e85
    12b8:	00092a03          	lw	x20,0(x18)
    12bc:	00490913          	addi	x18,x18,4
  RVTEST_TESTDATA_LOAD_INT(x18, x30) # load branch taken value: x30 = 0x0df9f354
    12c0:	00092f03          	lw	x30,0(x18)
    12c4:	00490913          	addi	x18,x18,4

000012c8 <I_blt_cg_cp_rs1_b12>:
I_blt_cg_cp_rs1_b12:
  blt x12, x20, 1f # perform operation
    12c8:	01464463          	blt	x12,x20,12d0 <I_blt_cg_cp_rs1_b12+0x8>
  LI(x30, -1) # branch not taken, set temp_reg to 0
    12cc:	fff00f13          	addi	x30,x0,-1
1:
  # Check if x30 contains the expected result. x24 is the signature ptr, x14 is the link ptr, x13 is a temp reg.
  RVTEST_SIGUPD(x24, x14, x13, x30, I_blt_cg_cp_rs1_b12, I_blt_cg_cp_rs1_b12_str)
    12d0:	000c2683          	lw	x13,0(x24)
    12d4:	01e68863          	beq	x13,x30,12e4 <I_blt_cg_cp_rs1_b12+0x1c>
    12d8:	5e50876f          	jal	x14,a0bc <failedtest_x14_x13>
    12dc:	000012c8          	.word	0x000012c8
    12e0:	0000cd59          	.word	0x0000cd59
    12e4:	004c0c13          	addi	x24,x24,4

  mv x4, x13 # switch temp register to avoid conflict with test
    12e8:	00068213          	addi	x4,x13,0
  mv x5, x14 # switch link pointer register to avoid conflict with test
    12ec:	00070293          	addi	x5,x14,0
# Testcase cp_rs1 (Test source rs1 = x13)
  RVTEST_TESTDATA_LOAD_INT(x18, x13) # load rs1: x13 = 0x1b47c1aa
    12f0:	00092683          	lw	x13,0(x18)
    12f4:	00490913          	addi	x18,x18,4
  RVTEST_TESTDATA_LOAD_INT(x18, x26) # load rs2: x26 = 0x0106b234
    12f8:	00092d03          	lw	x26,0(x18)
    12fc:	00490913          	addi	x18,x18,4
  RVTEST_TESTDATA_LOAD_INT(x18, x28) # load branch taken value: x28 = 0x932075e8
    1300:	00092e03          	lw	x28,0(x18)
    1304:	00490913          	addi	x18,x18,4

00001308 <I_blt_cg_cp_rs1_b13>:
I_blt_cg_cp_rs1_b13:
  blt x13, x26, 1f # perform operation
    1308:	01a6c463          	blt	x13,x26,1310 <I_blt_cg_cp_rs1_b13+0x8>
  LI(x28, -1) # branch not taken, set temp_reg to 0
    130c:	fff00e13          	addi	x28,x0,-1
1:
  # Check if x28 contains the expected result. x24 is the signature ptr, x5 is the link ptr, x4 is a temp reg.
  RVTEST_SIGUPD(x24, x5, x4, x28, I_blt_cg_cp_rs1_b13, I_blt_cg_cp_rs1_b13_str)
    1310:	000c2203          	lw	x4,0(x24)
    1314:	01c20863          	beq	x4,x28,1324 <I_blt_cg_cp_rs1_b13+0x1c>
    1318:	565082ef          	jal	x5,a07c <failedtest_x5_x4>
    131c:	00001308          	.word	0x00001308
    1320:	0000cd88          	.word	0x0000cd88
    1324:	004c0c13          	addi	x24,x24,4

# Testcase cp_rs1 (Test source rs1 = x14)
  RVTEST_TESTDATA_LOAD_INT(x18, x14) # load rs1: x14 = 0x7b2d4e35
    1328:	00092703          	lw	x14,0(x18)
    132c:	00490913          	addi	x18,x18,4
  RVTEST_TESTDATA_LOAD_INT(x18, x3) # load rs2: x3 = 0xcd075539
    1330:	00092183          	lw	x3,0(x18)
    1334:	00490913          	addi	x18,x18,4
  RVTEST_TESTDATA_LOAD_INT(x18, x21) # load branch taken value: x21 = 0x535da38e
    1338:	00092a83          	lw	x21,0(x18)
    133c:	00490913          	addi	x18,x18,4

00001340 <I_blt_cg_cp_rs1_b14>:
I_blt_cg_cp_rs1_b14:
  blt x14, x3, 1f # perform operation
    1340:	00374463          	blt	x14,x3,1348 <I_blt_cg_cp_rs1_b14+0x8>
  LI(x21, -1) # branch not taken, set temp_reg to 0
    1344:	fff00a93          	addi	x21,x0,-1
1:
  # Check if x21 contains the expected result. x24 is the signature ptr, x5 is the link ptr, x4 is a temp reg.
  RVTEST_SIGUPD(x24, x5, x4, x21, I_blt_cg_cp_rs1_b14, I_blt_cg_cp_rs1_b14_str)
    1348:	000c2203          	lw	x4,0(x24)
    134c:	01520863          	beq	x4,x21,135c <I_blt_cg_cp_rs1_b14+0x1c>
    1350:	52d082ef          	jal	x5,a07c <failedtest_x5_x4>
    1354:	00001340          	.word	0x00001340
    1358:	0000cdb7          	.word	0x0000cdb7
    135c:	004c0c13          	addi	x24,x24,4

# Testcase cp_rs1 (Test source rs1 = x15)
  RVTEST_TESTDATA_LOAD_INT(x18, x15) # load rs1: x15 = 0x13bbde60
    1360:	00092783          	lw	x15,0(x18)
    1364:	00490913          	addi	x18,x18,4
  RVTEST_TESTDATA_LOAD_INT(x18, x27) # load rs2: x27 = 0x139de929
    1368:	00092d83          	lw	x27,0(x18)
    136c:	00490913          	addi	x18,x18,4
  RVTEST_TESTDATA_LOAD_INT(x18, x14) # load branch taken value: x14 = 0x9bbc980e
    1370:	00092703          	lw	x14,0(x18)
    1374:	00490913          	addi	x18,x18,4

00001378 <I_blt_cg_cp_rs1_b15>:
I_blt_cg_cp_rs1_b15:
  blt x15, x27, 1f # perform operation
    1378:	01b7c463          	blt	x15,x27,1380 <I_blt_cg_cp_rs1_b15+0x8>
  LI(x14, -1) # branch not taken, set temp_reg to 0
    137c:	fff00713          	addi	x14,x0,-1
1:
  # Check if x14 contains the expected result. x24 is the signature ptr, x5 is the link ptr, x4 is a temp reg.
  RVTEST_SIGUPD(x24, x5, x4, x14, I_blt_cg_cp_rs1_b15, I_blt_cg_cp_rs1_b15_str)
    1380:	000c2203          	lw	x4,0(x24)
    1384:	00e20863          	beq	x4,x14,1394 <I_blt_cg_cp_rs1_b15+0x1c>
    1388:	4f5082ef          	jal	x5,a07c <failedtest_x5_x4>
    138c:	00001378          	.word	0x00001378
    1390:	0000cde6          	.word	0x0000cde6
    1394:	004c0c13          	addi	x24,x24,4

# Testcase cp_rs1 (Test source rs1 = x16)
  RVTEST_TESTDATA_LOAD_INT(x18, x16) # load rs1: x16 = 0x6300f08b
    1398:	00092803          	lw	x16,0(x18)
    139c:	00490913          	addi	x18,x18,4
  RVTEST_TESTDATA_LOAD_INT(x18, x23) # load rs2: x23 = 0x592cf24a
    13a0:	00092b83          	lw	x23,0(x18)
    13a4:	00490913          	addi	x18,x18,4
  RVTEST_TESTDATA_LOAD_INT(x18, x17) # load branch taken value: x17 = 0x0c952272
    13a8:	00092883          	lw	x17,0(x18)
    13ac:	00490913          	addi	x18,x18,4

000013b0 <I_blt_cg_cp_rs1_b16>:
I_blt_cg_cp_rs1_b16:
  blt x16, x23, 1f # perform operation
    13b0:	01784463          	blt	x16,x23,13b8 <I_blt_cg_cp_rs1_b16+0x8>
  LI(x17, -1) # branch not taken, set temp_reg to 0
    13b4:	fff00893          	addi	x17,x0,-1
1:
  # Check if x17 contains the expected result. x24 is the signature ptr, x5 is the link ptr, x4 is a temp reg.
  RVTEST_SIGUPD(x24, x5, x4, x17, I_blt_cg_cp_rs1_b16, I_blt_cg_cp_rs1_b16_str)
    13b8:	000c2203          	lw	x4,0(x24)
    13bc:	01120863          	beq	x4,x17,13cc <I_blt_cg_cp_rs1_b16+0x1c>
    13c0:	4bd082ef          	jal	x5,a07c <failedtest_x5_x4>
    13c4:	000013b0          	.word	0x000013b0
    13c8:	0000ce15          	.word	0x0000ce15
    13cc:	004c0c13          	addi	x24,x24,4

# Testcase cp_rs1 (Test source rs1 = x17)
  RVTEST_TESTDATA_LOAD_INT(x18, x17) # load rs1: x17 = 0xda14706c
    13d0:	00092883          	lw	x17,0(x18)
    13d4:	00490913          	addi	x18,x18,4
  RVTEST_TESTDATA_LOAD_INT(x18, x23) # load rs2: x23 = 0x2a250464
    13d8:	00092b83          	lw	x23,0(x18)
    13dc:	00490913          	addi	x18,x18,4
  RVTEST_TESTDATA_LOAD_INT(x18, x10) # load branch taken value: x10 = 0x82263646
    13e0:	00092503          	lw	x10,0(x18)
    13e4:	00490913          	addi	x18,x18,4

000013e8 <I_blt_cg_cp_rs1_b17>:
I_blt_cg_cp_rs1_b17:
  blt x17, x23, 1f # perform operation
    13e8:	0178c463          	blt	x17,x23,13f0 <I_blt_cg_cp_rs1_b17+0x8>
  LI(x10, -1) # branch not taken, set temp_reg to 0
    13ec:	fff00513          	addi	x10,x0,-1
1:
  # Check if x10 contains the expected result. x24 is the signature ptr, x5 is the link ptr, x4 is a temp reg.
  RVTEST_SIGUPD(x24, x5, x4, x10, I_blt_cg_cp_rs1_b17, I_blt_cg_cp_rs1_b17_str)
    13f0:	000c2203          	lw	x4,0(x24)
    13f4:	00a20863          	beq	x4,x10,1404 <I_blt_cg_cp_rs1_b17+0x1c>
    13f8:	485082ef          	jal	x5,a07c <failedtest_x5_x4>
    13fc:	000013e8          	.word	0x000013e8
    1400:	0000ce44          	.word	0x0000ce44
    1404:	004c0c13          	addi	x24,x24,4

  mv x2, x18 # switch data pointer register to avoid conflict with test
    1408:	00090113          	addi	x2,x18,0
# Testcase cp_rs1 (Test source rs1 = x18)
  RVTEST_TESTDATA_LOAD_INT(x2, x18) # load rs1: x18 = 0xf42439ee
    140c:	00012903          	lw	x18,0(x2)
    1410:	00410113          	addi	x2,x2,4
  RVTEST_TESTDATA_LOAD_INT(x2, x10) # load rs2: x10 = 0xc3759660
    1414:	00012503          	lw	x10,0(x2)
    1418:	00410113          	addi	x2,x2,4
  RVTEST_TESTDATA_LOAD_INT(x2, x23) # load branch taken value: x23 = 0xc7de4b62
    141c:	00012b83          	lw	x23,0(x2)
    1420:	00410113          	addi	x2,x2,4

00001424 <I_blt_cg_cp_rs1_b18>:
I_blt_cg_cp_rs1_b18:
  blt x18, x10, 1f # perform operation
    1424:	00a94463          	blt	x18,x10,142c <I_blt_cg_cp_rs1_b18+0x8>
  LI(x23, -1) # branch not taken, set temp_reg to 0
    1428:	fff00b93          	addi	x23,x0,-1
1:
  # Check if x23 contains the expected result. x24 is the signature ptr, x5 is the link ptr, x4 is a temp reg.
  RVTEST_SIGUPD(x24, x5, x4, x23, I_blt_cg_cp_rs1_b18, I_blt_cg_cp_rs1_b18_str)
    142c:	000c2203          	lw	x4,0(x24)
    1430:	01720863          	beq	x4,x23,1440 <I_blt_cg_cp_rs1_b18+0x1c>
    1434:	449082ef          	jal	x5,a07c <failedtest_x5_x4>
    1438:	00001424          	.word	0x00001424
    143c:	0000ce73          	.word	0x0000ce73
    1440:	004c0c13          	addi	x24,x24,4

# Testcase cp_rs1 (Test source rs1 = x19)
  RVTEST_TESTDATA_LOAD_INT(x2, x19) # load rs1: x19 = 0xe4322dd1
    1444:	00012983          	lw	x19,0(x2)
    1448:	00410113          	addi	x2,x2,4
  RVTEST_TESTDATA_LOAD_INT(x2, x9) # load rs2: x9 = 0x526f7184
    144c:	00012483          	lw	x9,0(x2)
    1450:	00410113          	addi	x2,x2,4
  RVTEST_TESTDATA_LOAD_INT(x2, x17) # load branch taken value: x17 = 0x56c8f391
    1454:	00012883          	lw	x17,0(x2)
    1458:	00410113          	addi	x2,x2,4

0000145c <I_blt_cg_cp_rs1_b19>:
I_blt_cg_cp_rs1_b19:
  blt x19, x9, 1f # perform operation
    145c:	0099c463          	blt	x19,x9,1464 <I_blt_cg_cp_rs1_b19+0x8>
  LI(x17, -1) # branch not taken, set temp_reg to 0
    1460:	fff00893          	addi	x17,x0,-1
1:
  # Check if x17 contains the expected result. x24 is the signature ptr, x5 is the link ptr, x4 is a temp reg.
  RVTEST_SIGUPD(x24, x5, x4, x17, I_blt_cg_cp_rs1_b19, I_blt_cg_cp_rs1_b19_str)
    1464:	000c2203          	lw	x4,0(x24)
    1468:	01120863          	beq	x4,x17,1478 <I_blt_cg_cp_rs1_b19+0x1c>
    146c:	411082ef          	jal	x5,a07c <failedtest_x5_x4>
    1470:	0000145c          	.word	0x0000145c
    1474:	0000cea2          	.word	0x0000cea2
    1478:	004c0c13          	addi	x24,x24,4

# Testcase cp_rs1 (Test source rs1 = x20)
  RVTEST_TESTDATA_LOAD_INT(x2, x20) # load rs1: x20 = 0xa3988674
    147c:	00012a03          	lw	x20,0(x2)
    1480:	00410113          	addi	x2,x2,4
  RVTEST_TESTDATA_LOAD_INT(x2, x6) # load rs2: x6 = 0x0b2a87ad
    1484:	00012303          	lw	x6,0(x2)
    1488:	00410113          	addi	x2,x2,4
  RVTEST_TESTDATA_LOAD_INT(x2, x26) # load branch taken value: x26 = 0x5058817a
    148c:	00012d03          	lw	x26,0(x2)
    1490:	00410113          	addi	x2,x2,4

00001494 <I_blt_cg_cp_rs1_b20>:
I_blt_cg_cp_rs1_b20:
  blt x20, x6, 1f # perform operation
    1494:	006a4463          	blt	x20,x6,149c <I_blt_cg_cp_rs1_b20+0x8>
  LI(x26, -1) # branch not taken, set temp_reg to 0
    1498:	fff00d13          	addi	x26,x0,-1
1:
  # Check if x26 contains the expected result. x24 is the signature ptr, x5 is the link ptr, x4 is a temp reg.
  RVTEST_SIGUPD(x24, x5, x4, x26, I_blt_cg_cp_rs1_b20, I_blt_cg_cp_rs1_b20_str)
    149c:	000c2203          	lw	x4,0(x24)
    14a0:	01a20863          	beq	x4,x26,14b0 <I_blt_cg_cp_rs1_b20+0x1c>
    14a4:	3d9082ef          	jal	x5,a07c <failedtest_x5_x4>
    14a8:	00001494          	.word	0x00001494
    14ac:	0000ced1          	.word	0x0000ced1
    14b0:	004c0c13          	addi	x24,x24,4

# Testcase cp_rs1 (Test source rs1 = x21)
  RVTEST_TESTDATA_LOAD_INT(x2, x21) # load rs1: x21 = 0x9a5a2b93
    14b4:	00012a83          	lw	x21,0(x2)
    14b8:	00410113          	addi	x2,x2,4
  RVTEST_TESTDATA_LOAD_INT(x2, x18) # load rs2: x18 = 0x3d87657c
    14bc:	00012903          	lw	x18,0(x2)
    14c0:	00410113          	addi	x2,x2,4
  RVTEST_TESTDATA_LOAD_INT(x2, x14) # load branch taken value: x14 = 0x67189e9f
    14c4:	00012703          	lw	x14,0(x2)
    14c8:	00410113          	addi	x2,x2,4

000014cc <I_blt_cg_cp_rs1_b21>:
I_blt_cg_cp_rs1_b21:
  blt x21, x18, 1f # perform operation
    14cc:	012ac463          	blt	x21,x18,14d4 <I_blt_cg_cp_rs1_b21+0x8>
  LI(x14, -1) # branch not taken, set temp_reg to 0
    14d0:	fff00713          	addi	x14,x0,-1
1:
  # Check if x14 contains the expected result. x24 is the signature ptr, x5 is the link ptr, x4 is a temp reg.
  RVTEST_SIGUPD(x24, x5, x4, x14, I_blt_cg_cp_rs1_b21, I_blt_cg_cp_rs1_b21_str)
    14d4:	000c2203          	lw	x4,0(x24)
    14d8:	00e20863          	beq	x4,x14,14e8 <I_blt_cg_cp_rs1_b21+0x1c>
    14dc:	3a1082ef          	jal	x5,a07c <failedtest_x5_x4>
    14e0:	000014cc          	.word	0x000014cc
    14e4:	0000cf00          	.word	0x0000cf00
    14e8:	004c0c13          	addi	x24,x24,4

# Testcase cp_rs1 (Test source rs1 = x22)
  RVTEST_TESTDATA_LOAD_INT(x2, x22) # load rs1: x22 = 0xdc9f5178
    14ec:	00012b03          	lw	x22,0(x2)
    14f0:	00410113          	addi	x2,x2,4
  RVTEST_TESTDATA_LOAD_INT(x2, x16) # load rs2: x16 = 0x0ee869cd
    14f4:	00012803          	lw	x16,0(x2)
    14f8:	00410113          	addi	x2,x2,4
  RVTEST_TESTDATA_LOAD_INT(x2, x9) # load branch taken value: x9 = 0x62c975ed
    14fc:	00012483          	lw	x9,0(x2)
    1500:	00410113          	addi	x2,x2,4

00001504 <I_blt_cg_cp_rs1_b22>:
I_blt_cg_cp_rs1_b22:
  blt x22, x16, 1f # perform operation
    1504:	010b4463          	blt	x22,x16,150c <I_blt_cg_cp_rs1_b22+0x8>
  LI(x9, -1) # branch not taken, set temp_reg to 0
    1508:	fff00493          	addi	x9,x0,-1
1:
  # Check if x9 contains the expected result. x24 is the signature ptr, x5 is the link ptr, x4 is a temp reg.
  RVTEST_SIGUPD(x24, x5, x4, x9, I_blt_cg_cp_rs1_b22, I_blt_cg_cp_rs1_b22_str)
    150c:	000c2203          	lw	x4,0(x24)
    1510:	00920863          	beq	x4,x9,1520 <I_blt_cg_cp_rs1_b22+0x1c>
    1514:	369082ef          	jal	x5,a07c <failedtest_x5_x4>
    1518:	00001504          	.word	0x00001504
    151c:	0000cf2f          	.word	0x0000cf2f
    1520:	004c0c13          	addi	x24,x24,4

# Testcase cp_rs1 (Test source rs1 = x23)
  RVTEST_TESTDATA_LOAD_INT(x2, x23) # load rs1: x23 = 0x05fe8bc0
    1524:	00012b83          	lw	x23,0(x2)
    1528:	00410113          	addi	x2,x2,4
  RVTEST_TESTDATA_LOAD_INT(x2, x26) # load rs2: x26 = 0x8339e5a4
    152c:	00012d03          	lw	x26,0(x2)
    1530:	00410113          	addi	x2,x2,4
  RVTEST_TESTDATA_LOAD_INT(x2, x10) # load branch taken value: x10 = 0x2f80b249
    1534:	00012503          	lw	x10,0(x2)
    1538:	00410113          	addi	x2,x2,4

0000153c <I_blt_cg_cp_rs1_b23>:
I_blt_cg_cp_rs1_b23:
  blt x23, x26, 1f # perform operation
    153c:	01abc463          	blt	x23,x26,1544 <I_blt_cg_cp_rs1_b23+0x8>
  LI(x10, -1) # branch not taken, set temp_reg to 0
    1540:	fff00513          	addi	x10,x0,-1
1:
  # Check if x10 contains the expected result. x24 is the signature ptr, x5 is the link ptr, x4 is a temp reg.
  RVTEST_SIGUPD(x24, x5, x4, x10, I_blt_cg_cp_rs1_b23, I_blt_cg_cp_rs1_b23_str)
    1544:	000c2203          	lw	x4,0(x24)
    1548:	00a20863          	beq	x4,x10,1558 <I_blt_cg_cp_rs1_b23+0x1c>
    154c:	331082ef          	jal	x5,a07c <failedtest_x5_x4>
    1550:	0000153c          	.word	0x0000153c
    1554:	0000cf5e          	.word	0x0000cf5e
    1558:	004c0c13          	addi	x24,x24,4

  mv x19, x24 # switch signature pointer register to avoid conflict with test
    155c:	000c0993          	addi	x19,x24,0
# Testcase cp_rs1 (Test source rs1 = x24)
  RVTEST_TESTDATA_LOAD_INT(x2, x24) # load rs1: x24 = 0x863c6bd4
    1560:	00012c03          	lw	x24,0(x2)
    1564:	00410113          	addi	x2,x2,4
  RVTEST_TESTDATA_LOAD_INT(x2, x16) # load rs2: x16 = 0x54fd4739
    1568:	00012803          	lw	x16,0(x2)
    156c:	00410113          	addi	x2,x2,4
  RVTEST_TESTDATA_LOAD_INT(x2, x25) # load branch taken value: x25 = 0x3997d795
    1570:	00012c83          	lw	x25,0(x2)
    1574:	00410113          	addi	x2,x2,4

00001578 <I_blt_cg_cp_rs1_b24>:
I_blt_cg_cp_rs1_b24:
  blt x24, x16, 1f # perform operation
    1578:	010c4463          	blt	x24,x16,1580 <I_blt_cg_cp_rs1_b24+0x8>
  LI(x25, -1) # branch not taken, set temp_reg to 0
    157c:	fff00c93          	addi	x25,x0,-1
1:
  # Check if x25 contains the expected result. x19 is the signature ptr, x5 is the link ptr, x4 is a temp reg.
  RVTEST_SIGUPD(x19, x5, x4, x25, I_blt_cg_cp_rs1_b24, I_blt_cg_cp_rs1_b24_str)
    1580:	0009a203          	lw	x4,0(x19)
    1584:	01920863          	beq	x4,x25,1594 <I_blt_cg_cp_rs1_b24+0x1c>
    1588:	2f5082ef          	jal	x5,a07c <failedtest_x5_x4>
    158c:	00001578          	.word	0x00001578
    1590:	0000cf8d          	.word	0x0000cf8d
    1594:	00498993          	addi	x19,x19,4

# Testcase cp_rs1 (Test source rs1 = x25)
  RVTEST_TESTDATA_LOAD_INT(x2, x25) # load rs1: x25 = 0xa254109b
    1598:	00012c83          	lw	x25,0(x2)
    159c:	00410113          	addi	x2,x2,4
  RVTEST_TESTDATA_LOAD_INT(x2, x24) # load rs2: x24 = 0x90072082
    15a0:	00012c03          	lw	x24,0(x2)
    15a4:	00410113          	addi	x2,x2,4
  RVTEST_TESTDATA_LOAD_INT(x2, x23) # load branch taken value: x23 = 0xff52dee2
    15a8:	00012b83          	lw	x23,0(x2)
    15ac:	00410113          	addi	x2,x2,4

000015b0 <I_blt_cg_cp_rs1_b25>:
I_blt_cg_cp_rs1_b25:
  blt x25, x24, 1f # perform operation
    15b0:	018cc463          	blt	x25,x24,15b8 <I_blt_cg_cp_rs1_b25+0x8>
  LI(x23, -1) # branch not taken, set temp_reg to 0
    15b4:	fff00b93          	addi	x23,x0,-1
1:
  # Check if x23 contains the expected result. x19 is the signature ptr, x5 is the link ptr, x4 is a temp reg.
  RVTEST_SIGUPD(x19, x5, x4, x23, I_blt_cg_cp_rs1_b25, I_blt_cg_cp_rs1_b25_str)
    15b8:	0009a203          	lw	x4,0(x19)
    15bc:	01720863          	beq	x4,x23,15cc <I_blt_cg_cp_rs1_b25+0x1c>
    15c0:	2bd082ef          	jal	x5,a07c <failedtest_x5_x4>
    15c4:	000015b0          	.word	0x000015b0
    15c8:	0000cfbc          	.word	0x0000cfbc
    15cc:	00498993          	addi	x19,x19,4

# Testcase cp_rs1 (Test source rs1 = x26)
  RVTEST_TESTDATA_LOAD_INT(x2, x26) # load rs1: x26 = 0x1d882cab
    15d0:	00012d03          	lw	x26,0(x2)
    15d4:	00410113          	addi	x2,x2,4
  RVTEST_TESTDATA_LOAD_INT(x2, x16) # load rs2: x16 = 0x676aa1d7
    15d8:	00012803          	lw	x16,0(x2)
    15dc:	00410113          	addi	x2,x2,4
  RVTEST_TESTDATA_LOAD_INT(x2, x1) # load branch taken value: x1 = 0x5da281cf
    15e0:	00012083          	lw	x1,0(x2)
    15e4:	00410113          	addi	x2,x2,4

000015e8 <I_blt_cg_cp_rs1_b26>:
I_blt_cg_cp_rs1_b26:
  blt x26, x16, 1f # perform operation
    15e8:	010d4463          	blt	x26,x16,15f0 <I_blt_cg_cp_rs1_b26+0x8>
  LI(x1, -1) # branch not taken, set temp_reg to 0
    15ec:	fff00093          	addi	x1,x0,-1
1:
  # Check if x1 contains the expected result. x19 is the signature ptr, x5 is the link ptr, x4 is a temp reg.
  RVTEST_SIGUPD(x19, x5, x4, x1, I_blt_cg_cp_rs1_b26, I_blt_cg_cp_rs1_b26_str)
    15f0:	0009a203          	lw	x4,0(x19)
    15f4:	00120863          	beq	x4,x1,1604 <I_blt_cg_cp_rs1_b26+0x1c>
    15f8:	285082ef          	jal	x5,a07c <failedtest_x5_x4>
    15fc:	000015e8          	.word	0x000015e8
    1600:	0000cfeb          	.word	0x0000cfeb
    1604:	00498993          	addi	x19,x19,4

# Testcase cp_rs1 (Test source rs1 = x27)
  RVTEST_TESTDATA_LOAD_INT(x2, x27) # load rs1: x27 = 0x2d22b112
    1608:	00012d83          	lw	x27,0(x2)
    160c:	00410113          	addi	x2,x2,4
  RVTEST_TESTDATA_LOAD_INT(x2, x20) # load rs2: x20 = 0x3e3094c7
    1610:	00012a03          	lw	x20,0(x2)
    1614:	00410113          	addi	x2,x2,4
  RVTEST_TESTDATA_LOAD_INT(x2, x18) # load branch taken value: x18 = 0x19ba1f82
    1618:	00012903          	lw	x18,0(x2)
    161c:	00410113          	addi	x2,x2,4

00001620 <I_blt_cg_cp_rs1_b27>:
I_blt_cg_cp_rs1_b27:
  blt x27, x20, 1f # perform operation
    1620:	014dc463          	blt	x27,x20,1628 <I_blt_cg_cp_rs1_b27+0x8>
  LI(x18, -1) # branch not taken, set temp_reg to 0
    1624:	fff00913          	addi	x18,x0,-1
1:
  # Check if x18 contains the expected result. x19 is the signature ptr, x5 is the link ptr, x4 is a temp reg.
  RVTEST_SIGUPD(x19, x5, x4, x18, I_blt_cg_cp_rs1_b27, I_blt_cg_cp_rs1_b27_str)
    1628:	0009a203          	lw	x4,0(x19)
    162c:	01220863          	beq	x4,x18,163c <I_blt_cg_cp_rs1_b27+0x1c>
    1630:	24d082ef          	jal	x5,a07c <failedtest_x5_x4>
    1634:	00001620          	.word	0x00001620
    1638:	0000d01a          	.word	0x0000d01a
    163c:	00498993          	addi	x19,x19,4

# Testcase cp_rs1 (Test source rs1 = x28)
  RVTEST_TESTDATA_LOAD_INT(x2, x28) # load rs1: x28 = 0xb767ebfe
    1640:	00012e03          	lw	x28,0(x2)
    1644:	00410113          	addi	x2,x2,4
  RVTEST_TESTDATA_LOAD_INT(x2, x7) # load rs2: x7 = 0xb7a6171a
    1648:	00012383          	lw	x7,0(x2)
    164c:	00410113          	addi	x2,x2,4
  RVTEST_TESTDATA_LOAD_INT(x2, x1) # load branch taken value: x1 = 0x548ba7e5
    1650:	00012083          	lw	x1,0(x2)
    1654:	00410113          	addi	x2,x2,4

00001658 <I_blt_cg_cp_rs1_b28>:
I_blt_cg_cp_rs1_b28:
  blt x28, x7, 1f # perform operation
    1658:	007e4463          	blt	x28,x7,1660 <I_blt_cg_cp_rs1_b28+0x8>
  LI(x1, -1) # branch not taken, set temp_reg to 0
    165c:	fff00093          	addi	x1,x0,-1
1:
  # Check if x1 contains the expected result. x19 is the signature ptr, x5 is the link ptr, x4 is a temp reg.
  RVTEST_SIGUPD(x19, x5, x4, x1, I_blt_cg_cp_rs1_b28, I_blt_cg_cp_rs1_b28_str)
    1660:	0009a203          	lw	x4,0(x19)
    1664:	00120863          	beq	x4,x1,1674 <I_blt_cg_cp_rs1_b28+0x1c>
    1668:	215082ef          	jal	x5,a07c <failedtest_x5_x4>
    166c:	00001658          	.word	0x00001658
    1670:	0000d049          	.word	0x0000d049
    1674:	00498993          	addi	x19,x19,4

# Testcase cp_rs1 (Test source rs1 = x29)
  RVTEST_TESTDATA_LOAD_INT(x2, x29) # load rs1: x29 = 0x6073bbc3
    1678:	00012e83          	lw	x29,0(x2)
    167c:	00410113          	addi	x2,x2,4
  RVTEST_TESTDATA_LOAD_INT(x2, x30) # load rs2: x30 = 0x4a9b8b25
    1680:	00012f03          	lw	x30,0(x2)
    1684:	00410113          	addi	x2,x2,4
  RVTEST_TESTDATA_LOAD_INT(x2, x22) # load branch taken value: x22 = 0x2f341c40
    1688:	00012b03          	lw	x22,0(x2)
    168c:	00410113          	addi	x2,x2,4

00001690 <I_blt_cg_cp_rs1_b29>:
I_blt_cg_cp_rs1_b29:
  blt x29, x30, 1f # perform operation
    1690:	01eec463          	blt	x29,x30,1698 <I_blt_cg_cp_rs1_b29+0x8>
  LI(x22, -1) # branch not taken, set temp_reg to 0
    1694:	fff00b13          	addi	x22,x0,-1
1:
  # Check if x22 contains the expected result. x19 is the signature ptr, x5 is the link ptr, x4 is a temp reg.
  RVTEST_SIGUPD(x19, x5, x4, x22, I_blt_cg_cp_rs1_b29, I_blt_cg_cp_rs1_b29_str)
    1698:	0009a203          	lw	x4,0(x19)
    169c:	01620863          	beq	x4,x22,16ac <I_blt_cg_cp_rs1_b29+0x1c>
    16a0:	1dd082ef          	jal	x5,a07c <failedtest_x5_x4>
    16a4:	00001690          	.word	0x00001690
    16a8:	0000d078          	.word	0x0000d078
    16ac:	00498993          	addi	x19,x19,4

# Testcase cp_rs1 (Test source rs1 = x30)
  RVTEST_TESTDATA_LOAD_INT(x2, x30) # load rs1: x30 = 0x7b533cbd
    16b0:	00012f03          	lw	x30,0(x2)
    16b4:	00410113          	addi	x2,x2,4
  RVTEST_TESTDATA_LOAD_INT(x2, x10) # load rs2: x10 = 0xae14c79d
    16b8:	00012503          	lw	x10,0(x2)
    16bc:	00410113          	addi	x2,x2,4
  RVTEST_TESTDATA_LOAD_INT(x2, x9) # load branch taken value: x9 = 0x0af43a6c
    16c0:	00012483          	lw	x9,0(x2)
    16c4:	00410113          	addi	x2,x2,4

000016c8 <I_blt_cg_cp_rs1_b30>:
I_blt_cg_cp_rs1_b30:
  blt x30, x10, 1f # perform operation
    16c8:	00af4463          	blt	x30,x10,16d0 <I_blt_cg_cp_rs1_b30+0x8>
  LI(x9, -1) # branch not taken, set temp_reg to 0
    16cc:	fff00493          	addi	x9,x0,-1
1:
  # Check if x9 contains the expected result. x19 is the signature ptr, x5 is the link ptr, x4 is a temp reg.
  RVTEST_SIGUPD(x19, x5, x4, x9, I_blt_cg_cp_rs1_b30, I_blt_cg_cp_rs1_b30_str)
    16d0:	0009a203          	lw	x4,0(x19)
    16d4:	00920863          	beq	x4,x9,16e4 <I_blt_cg_cp_rs1_b30+0x1c>
    16d8:	1a5082ef          	jal	x5,a07c <failedtest_x5_x4>
    16dc:	000016c8          	.word	0x000016c8
    16e0:	0000d0a7          	.word	0x0000d0a7
    16e4:	00498993          	addi	x19,x19,4

# Testcase cp_rs1 (Test source rs1 = x31)
  RVTEST_TESTDATA_LOAD_INT(x2, x31) # load rs1: x31 = 0x01c4ee78
    16e8:	00012f83          	lw	x31,0(x2)
    16ec:	00410113          	addi	x2,x2,4
  RVTEST_TESTDATA_LOAD_INT(x2, x1) # load rs2: x1 = 0xecb95c6e
    16f0:	00012083          	lw	x1,0(x2)
    16f4:	00410113          	addi	x2,x2,4
  RVTEST_TESTDATA_LOAD_INT(x2, x14) # load branch taken value: x14 = 0x49b8c698
    16f8:	00012703          	lw	x14,0(x2)
    16fc:	00410113          	addi	x2,x2,4

00001700 <I_blt_cg_cp_rs1_b31>:
I_blt_cg_cp_rs1_b31:
  blt x31, x1, 1f # perform operation
    1700:	001fc463          	blt	x31,x1,1708 <I_blt_cg_cp_rs1_b31+0x8>
  LI(x14, -1) # branch not taken, set temp_reg to 0
    1704:	fff00713          	addi	x14,x0,-1
1:
  # Check if x14 contains the expected result. x19 is the signature ptr, x5 is the link ptr, x4 is a temp reg.
  RVTEST_SIGUPD(x19, x5, x4, x14, I_blt_cg_cp_rs1_b31, I_blt_cg_cp_rs1_b31_str)
    1708:	0009a203          	lw	x4,0(x19)
    170c:	00e20863          	beq	x4,x14,171c <I_blt_cg_cp_rs1_b31+0x1c>
    1710:	16d082ef          	jal	x5,a07c <failedtest_x5_x4>
    1714:	00001700          	.word	0x00001700
    1718:	0000d0d6          	.word	0x0000d0d6
    171c:	00498993          	addi	x19,x19,4
/////////////////////////////////
// cp_rs2
/////////////////////////////////

# Testcase cp_rs2 (Test source rs2 = x0)
  RVTEST_TESTDATA_LOAD_INT(x2, x10) # load rs1: x10 = 0xd1c96e0f
    1720:	00012503          	lw	x10,0(x2)
    1724:	00410113          	addi	x2,x2,4
  RVTEST_TESTDATA_LOAD_INT(x2, x0) # load rs2: x0 = 0xde7f9c0e
    1728:	00012003          	lw	x0,0(x2)
    172c:	00410113          	addi	x2,x2,4
  RVTEST_TESTDATA_LOAD_INT(x2, x23) # load branch taken value: x23 = 0xb3c883d0
    1730:	00012b83          	lw	x23,0(x2)
    1734:	00410113          	addi	x2,x2,4

00001738 <I_blt_cg_cp_rs2_b0>:
I_blt_cg_cp_rs2_b0:
  blt x10, x0, 1f # perform operation
    1738:	00054463          	blt	x10,x0,1740 <I_blt_cg_cp_rs2_b0+0x8>
  LI(x23, -1) # branch not taken, set temp_reg to 0
    173c:	fff00b93          	addi	x23,x0,-1
1:
  # Check if x23 contains the expected result. x19 is the signature ptr, x5 is the link ptr, x4 is a temp reg.
  RVTEST_SIGUPD(x19, x5, x4, x23, I_blt_cg_cp_rs2_b0, I_blt_cg_cp_rs2_b0_str)
    1740:	0009a203          	lw	x4,0(x19)
    1744:	01720863          	beq	x4,x23,1754 <I_blt_cg_cp_rs2_b0+0x1c>
    1748:	135082ef          	jal	x5,a07c <failedtest_x5_x4>
    174c:	00001738          	.word	0x00001738
    1750:	0000d105          	.word	0x0000d105
    1754:	00498993          	addi	x19,x19,4

# Testcase cp_rs2 (Test source rs2 = x1)
  RVTEST_TESTDATA_LOAD_INT(x2, x9) # load rs1: x9 = 0x44fe664a
    1758:	00012483          	lw	x9,0(x2)
    175c:	00410113          	addi	x2,x2,4
  RVTEST_TESTDATA_LOAD_INT(x2, x1) # load rs2: x1 = 0xd30255b5
    1760:	00012083          	lw	x1,0(x2)
    1764:	00410113          	addi	x2,x2,4
  RVTEST_TESTDATA_LOAD_INT(x2, x17) # load branch taken value: x17 = 0xe57be130
    1768:	00012883          	lw	x17,0(x2)
    176c:	00410113          	addi	x2,x2,4

00001770 <I_blt_cg_cp_rs2_b1>:
I_blt_cg_cp_rs2_b1:
  blt x9, x1, 1f # perform operation
    1770:	0014c463          	blt	x9,x1,1778 <I_blt_cg_cp_rs2_b1+0x8>
  LI(x17, -1) # branch not taken, set temp_reg to 0
    1774:	fff00893          	addi	x17,x0,-1
1:
  # Check if x17 contains the expected result. x19 is the signature ptr, x5 is the link ptr, x4 is a temp reg.
  RVTEST_SIGUPD(x19, x5, x4, x17, I_blt_cg_cp_rs2_b1, I_blt_cg_cp_rs2_b1_str)
    1778:	0009a203          	lw	x4,0(x19)
    177c:	01120863          	beq	x4,x17,178c <I_blt_cg_cp_rs2_b1+0x1c>
    1780:	0fd082ef          	jal	x5,a07c <failedtest_x5_x4>
    1784:	00001770          	.word	0x00001770
    1788:	0000d133          	.word	0x0000d133
    178c:	00498993          	addi	x19,x19,4

  mv x12, x2 # switch data pointer register to avoid conflict with test
    1790:	00010613          	addi	x12,x2,0
# Testcase cp_rs2 (Test source rs2 = x2)
  RVTEST_TESTDATA_LOAD_INT(x12, x15) # load rs1: x15 = 0x531e2421
    1794:	00062783          	lw	x15,0(x12)
    1798:	00460613          	addi	x12,x12,4
  RVTEST_TESTDATA_LOAD_INT(x12, x2) # load rs2: x2 = 0xa8f7cc44
    179c:	00062103          	lw	x2,0(x12)
    17a0:	00460613          	addi	x12,x12,4
  RVTEST_TESTDATA_LOAD_INT(x12, x14) # load branch taken value: x14 = 0xd60ad3dc
    17a4:	00062703          	lw	x14,0(x12)
    17a8:	00460613          	addi	x12,x12,4

000017ac <I_blt_cg_cp_rs2_b2>:
I_blt_cg_cp_rs2_b2:
  blt x15, x2, 1f # perform operation
    17ac:	0027c463          	blt	x15,x2,17b4 <I_blt_cg_cp_rs2_b2+0x8>
  LI(x14, -1) # branch not taken, set temp_reg to 0
    17b0:	fff00713          	addi	x14,x0,-1
1:
  # Check if x14 contains the expected result. x19 is the signature ptr, x5 is the link ptr, x4 is a temp reg.
  RVTEST_SIGUPD(x19, x5, x4, x14, I_blt_cg_cp_rs2_b2, I_blt_cg_cp_rs2_b2_str)
    17b4:	0009a203          	lw	x4,0(x19)
    17b8:	00e20863          	beq	x4,x14,17c8 <I_blt_cg_cp_rs2_b2+0x1c>
    17bc:	0c1082ef          	jal	x5,a07c <failedtest_x5_x4>
    17c0:	000017ac          	.word	0x000017ac
    17c4:	0000d161          	.word	0x0000d161
    17c8:	00498993          	addi	x19,x19,4

# Testcase cp_rs2 (Test source rs2 = x3)
  RVTEST_TESTDATA_LOAD_INT(x12, x6) # load rs1: x6 = 0xe57939de
    17cc:	00062303          	lw	x6,0(x12)
    17d0:	00460613          	addi	x12,x12,4
  RVTEST_TESTDATA_LOAD_INT(x12, x3) # load rs2: x3 = 0x26577a97
    17d4:	00062183          	lw	x3,0(x12)
    17d8:	00460613          	addi	x12,x12,4
  RVTEST_TESTDATA_LOAD_INT(x12, x29) # load branch taken value: x29 = 0x81837f49
    17dc:	00062e83          	lw	x29,0(x12)
    17e0:	00460613          	addi	x12,x12,4

000017e4 <I_blt_cg_cp_rs2_b3>:
I_blt_cg_cp_rs2_b3:
  blt x6, x3, 1f # perform operation
    17e4:	00334463          	blt	x6,x3,17ec <I_blt_cg_cp_rs2_b3+0x8>
  LI(x29, -1) # branch not taken, set temp_reg to 0
    17e8:	fff00e93          	addi	x29,x0,-1
1:
  # Check if x29 contains the expected result. x19 is the signature ptr, x5 is the link ptr, x4 is a temp reg.
  RVTEST_SIGUPD(x19, x5, x4, x29, I_blt_cg_cp_rs2_b3, I_blt_cg_cp_rs2_b3_str)
    17ec:	0009a203          	lw	x4,0(x19)
    17f0:	01d20863          	beq	x4,x29,1800 <I_blt_cg_cp_rs2_b3+0x1c>
    17f4:	089082ef          	jal	x5,a07c <failedtest_x5_x4>
    17f8:	000017e4          	.word	0x000017e4
    17fc:	0000d18f          	.word	0x0000d18f
    1800:	00498993          	addi	x19,x19,4

  mv x13, x4 # switch temp register to avoid conflict with test
    1804:	00020693          	addi	x13,x4,0 # 0 <rvtest_entry_point>
  mv x14, x5 # switch link pointer register to avoid conflict with test
    1808:	00028713          	addi	x14,x5,0
# Testcase cp_rs2 (Test source rs2 = x4)
  RVTEST_TESTDATA_LOAD_INT(x12, x21) # load rs1: x21 = 0xd716dee8
    180c:	00062a83          	lw	x21,0(x12)
    1810:	00460613          	addi	x12,x12,4
  RVTEST_TESTDATA_LOAD_INT(x12, x4) # load rs2: x4 = 0x14e2b288
    1814:	00062203          	lw	x4,0(x12)
    1818:	00460613          	addi	x12,x12,4
  RVTEST_TESTDATA_LOAD_INT(x12, x6) # load branch taken value: x6 = 0x9879d504
    181c:	00062303          	lw	x6,0(x12)
    1820:	00460613          	addi	x12,x12,4

00001824 <I_blt_cg_cp_rs2_b4>:
I_blt_cg_cp_rs2_b4:
  blt x21, x4, 1f # perform operation
    1824:	004ac463          	blt	x21,x4,182c <I_blt_cg_cp_rs2_b4+0x8>
  LI(x6, -1) # branch not taken, set temp_reg to 0
    1828:	fff00313          	addi	x6,x0,-1
1:
  # Check if x6 contains the expected result. x19 is the signature ptr, x14 is the link ptr, x13 is a temp reg.
  RVTEST_SIGUPD(x19, x14, x13, x6, I_blt_cg_cp_rs2_b4, I_blt_cg_cp_rs2_b4_str)
    182c:	0009a683          	lw	x13,0(x19)
    1830:	00668863          	beq	x13,x6,1840 <I_blt_cg_cp_rs2_b4+0x1c>
    1834:	0890876f          	jal	x14,a0bc <failedtest_x14_x13>
    1838:	00001824          	.word	0x00001824
    183c:	0000d1bd          	.word	0x0000d1bd
    1840:	00498993          	addi	x19,x19,4

# Testcase cp_rs2 (Test source rs2 = x5)
  RVTEST_TESTDATA_LOAD_INT(x12, x16) # load rs1: x16 = 0x33899615
    1844:	00062803          	lw	x16,0(x12)
    1848:	00460613          	addi	x12,x12,4
  RVTEST_TESTDATA_LOAD_INT(x12, x5) # load rs2: x5 = 0x3710204d
    184c:	00062283          	lw	x5,0(x12)
    1850:	00460613          	addi	x12,x12,4
  RVTEST_TESTDATA_LOAD_INT(x12, x30) # load branch taken value: x30 = 0x7f428c24
    1854:	00062f03          	lw	x30,0(x12)
    1858:	00460613          	addi	x12,x12,4

0000185c <I_blt_cg_cp_rs2_b5>:
I_blt_cg_cp_rs2_b5:
  blt x16, x5, 1f # perform operation
    185c:	00584463          	blt	x16,x5,1864 <I_blt_cg_cp_rs2_b5+0x8>
  LI(x30, -1) # branch not taken, set temp_reg to 0
    1860:	fff00f13          	addi	x30,x0,-1
1:
  # Check if x30 contains the expected result. x19 is the signature ptr, x14 is the link ptr, x13 is a temp reg.
  RVTEST_SIGUPD(x19, x14, x13, x30, I_blt_cg_cp_rs2_b5, I_blt_cg_cp_rs2_b5_str)
    1864:	0009a683          	lw	x13,0(x19)
    1868:	01e68863          	beq	x13,x30,1878 <I_blt_cg_cp_rs2_b5+0x1c>
    186c:	0510876f          	jal	x14,a0bc <failedtest_x14_x13>
    1870:	0000185c          	.word	0x0000185c
    1874:	0000d1eb          	.word	0x0000d1eb
    1878:	00498993          	addi	x19,x19,4

# Testcase cp_rs2 (Test source rs2 = x6)
  RVTEST_TESTDATA_LOAD_INT(x12, x3) # load rs1: x3 = 0xb24037ed
    187c:	00062183          	lw	x3,0(x12)
    1880:	00460613          	addi	x12,x12,4
  RVTEST_TESTDATA_LOAD_INT(x12, x6) # load rs2: x6 = 0x12303a8b
    1884:	00062303          	lw	x6,0(x12)
    1888:	00460613          	addi	x12,x12,4
  RVTEST_TESTDATA_LOAD_INT(x12, x1) # load branch taken value: x1 = 0xc7b5cb1e
    188c:	00062083          	lw	x1,0(x12)
    1890:	00460613          	addi	x12,x12,4

00001894 <I_blt_cg_cp_rs2_b6>:
I_blt_cg_cp_rs2_b6:
  blt x3, x6, 1f # perform operation
    1894:	0061c463          	blt	x3,x6,189c <I_blt_cg_cp_rs2_b6+0x8>
  LI(x1, -1) # branch not taken, set temp_reg to 0
    1898:	fff00093          	addi	x1,x0,-1
1:
  # Check if x1 contains the expected result. x19 is the signature ptr, x14 is the link ptr, x13 is a temp reg.
  RVTEST_SIGUPD(x19, x14, x13, x1, I_blt_cg_cp_rs2_b6, I_blt_cg_cp_rs2_b6_str)
    189c:	0009a683          	lw	x13,0(x19)
    18a0:	00168863          	beq	x13,x1,18b0 <I_blt_cg_cp_rs2_b6+0x1c>
    18a4:	0190876f          	jal	x14,a0bc <failedtest_x14_x13>
    18a8:	00001894          	.word	0x00001894
    18ac:	0000d219          	.word	0x0000d219
    18b0:	00498993          	addi	x19,x19,4

# Testcase cp_rs2 (Test source rs2 = x7)
  RVTEST_TESTDATA_LOAD_INT(x12, x10) # load rs1: x10 = 0xbbaca9dd
    18b4:	00062503          	lw	x10,0(x12)
    18b8:	00460613          	addi	x12,x12,4
  RVTEST_TESTDATA_LOAD_INT(x12, x7) # load rs2: x7 = 0xd6e5b8c9
    18bc:	00062383          	lw	x7,0(x12)
    18c0:	00460613          	addi	x12,x12,4
  RVTEST_TESTDATA_LOAD_INT(x12, x9) # load branch taken value: x9 = 0x175b535f
    18c4:	00062483          	lw	x9,0(x12)
    18c8:	00460613          	addi	x12,x12,4

000018cc <I_blt_cg_cp_rs2_b7>:
I_blt_cg_cp_rs2_b7:
  blt x10, x7, 1f # perform operation
    18cc:	00754463          	blt	x10,x7,18d4 <I_blt_cg_cp_rs2_b7+0x8>
  LI(x9, -1) # branch not taken, set temp_reg to 0
    18d0:	fff00493          	addi	x9,x0,-1
1:
  # Check if x9 contains the expected result. x19 is the signature ptr, x14 is the link ptr, x13 is a temp reg.
  RVTEST_SIGUPD(x19, x14, x13, x9, I_blt_cg_cp_rs2_b7, I_blt_cg_cp_rs2_b7_str)
    18d4:	0009a683          	lw	x13,0(x19)
    18d8:	00968863          	beq	x13,x9,18e8 <I_blt_cg_cp_rs2_b7+0x1c>
    18dc:	7e00876f          	jal	x14,a0bc <failedtest_x14_x13>
    18e0:	000018cc          	.word	0x000018cc
    18e4:	0000d247          	.word	0x0000d247
    18e8:	00498993          	addi	x19,x19,4

# Testcase cp_rs2 (Test source rs2 = x8)
  RVTEST_TESTDATA_LOAD_INT(x12, x29) # load rs1: x29 = 0xa1b2cfed
    18ec:	00062e83          	lw	x29,0(x12)
    18f0:	00460613          	addi	x12,x12,4
  RVTEST_TESTDATA_LOAD_INT(x12, x8) # load rs2: x8 = 0x36a125a2
    18f4:	00062403          	lw	x8,0(x12)
    18f8:	00460613          	addi	x12,x12,4
  RVTEST_TESTDATA_LOAD_INT(x12, x15) # load branch taken value: x15 = 0xd8b96312
    18fc:	00062783          	lw	x15,0(x12)
    1900:	00460613          	addi	x12,x12,4

00001904 <I_blt_cg_cp_rs2_b8>:
I_blt_cg_cp_rs2_b8:
  blt x29, x8, 1f # perform operation
    1904:	008ec463          	blt	x29,x8,190c <I_blt_cg_cp_rs2_b8+0x8>
  LI(x15, -1) # branch not taken, set temp_reg to 0
    1908:	fff00793          	addi	x15,x0,-1
1:
  # Check if x15 contains the expected result. x19 is the signature ptr, x14 is the link ptr, x13 is a temp reg.
  RVTEST_SIGUPD(x19, x14, x13, x15, I_blt_cg_cp_rs2_b8, I_blt_cg_cp_rs2_b8_str)
    190c:	0009a683          	lw	x13,0(x19)
    1910:	00f68863          	beq	x13,x15,1920 <I_blt_cg_cp_rs2_b8+0x1c>
    1914:	7a80876f          	jal	x14,a0bc <failedtest_x14_x13>
    1918:	00001904          	.word	0x00001904
    191c:	0000d275          	.word	0x0000d275
    1920:	00498993          	addi	x19,x19,4

# Testcase cp_rs2 (Test source rs2 = x9)
  RVTEST_TESTDATA_LOAD_INT(x12, x11) # load rs1: x11 = 0x76c329bf
    1924:	00062583          	lw	x11,0(x12)
    1928:	00460613          	addi	x12,x12,4
  RVTEST_TESTDATA_LOAD_INT(x12, x9) # load rs2: x9 = 0x5c0e05d2
    192c:	00062483          	lw	x9,0(x12)
    1930:	00460613          	addi	x12,x12,4
  RVTEST_TESTDATA_LOAD_INT(x12, x5) # load branch taken value: x5 = 0x5b96d828
    1934:	00062283          	lw	x5,0(x12)
    1938:	00460613          	addi	x12,x12,4

0000193c <I_blt_cg_cp_rs2_b9>:
I_blt_cg_cp_rs2_b9:
  blt x11, x9, 1f # perform operation
    193c:	0095c463          	blt	x11,x9,1944 <I_blt_cg_cp_rs2_b9+0x8>
  LI(x5, -1) # branch not taken, set temp_reg to 0
    1940:	fff00293          	addi	x5,x0,-1
1:
  # Check if x5 contains the expected result. x19 is the signature ptr, x14 is the link ptr, x13 is a temp reg.
  RVTEST_SIGUPD(x19, x14, x13, x5, I_blt_cg_cp_rs2_b9, I_blt_cg_cp_rs2_b9_str)
    1944:	0009a683          	lw	x13,0(x19)
    1948:	00568863          	beq	x13,x5,1958 <I_blt_cg_cp_rs2_b9+0x1c>
    194c:	7700876f          	jal	x14,a0bc <failedtest_x14_x13>
    1950:	0000193c          	.word	0x0000193c
    1954:	0000d2a3          	.word	0x0000d2a3
    1958:	00498993          	addi	x19,x19,4

# Testcase cp_rs2 (Test source rs2 = x10)
  RVTEST_TESTDATA_LOAD_INT(x12, x7) # load rs1: x7 = 0xc92c2c14
    195c:	00062383          	lw	x7,0(x12)
    1960:	00460613          	addi	x12,x12,4
  RVTEST_TESTDATA_LOAD_INT(x12, x10) # load rs2: x10 = 0x47642a88
    1964:	00062503          	lw	x10,0(x12)
    1968:	00460613          	addi	x12,x12,4
  RVTEST_TESTDATA_LOAD_INT(x12, x31) # load branch taken value: x31 = 0xc6186efc
    196c:	00062f83          	lw	x31,0(x12)
    1970:	00460613          	addi	x12,x12,4

00001974 <I_blt_cg_cp_rs2_b10>:
I_blt_cg_cp_rs2_b10:
  blt x7, x10, 1f # perform operation
    1974:	00a3c463          	blt	x7,x10,197c <I_blt_cg_cp_rs2_b10+0x8>
  LI(x31, -1) # branch not taken, set temp_reg to 0
    1978:	fff00f93          	addi	x31,x0,-1
1:
  # Check if x31 contains the expected result. x19 is the signature ptr, x14 is the link ptr, x13 is a temp reg.
  RVTEST_SIGUPD(x19, x14, x13, x31, I_blt_cg_cp_rs2_b10, I_blt_cg_cp_rs2_b10_str)
    197c:	0009a683          	lw	x13,0(x19)
    1980:	01f68863          	beq	x13,x31,1990 <I_blt_cg_cp_rs2_b10+0x1c>
    1984:	7380876f          	jal	x14,a0bc <failedtest_x14_x13>
    1988:	00001974          	.word	0x00001974
    198c:	0000d2d1          	.word	0x0000d2d1
    1990:	00498993          	addi	x19,x19,4

# Testcase cp_rs2 (Test source rs2 = x11)
  RVTEST_TESTDATA_LOAD_INT(x12, x30) # load rs1: x30 = 0xaa49875f
    1994:	00062f03          	lw	x30,0(x12)
    1998:	00460613          	addi	x12,x12,4
  RVTEST_TESTDATA_LOAD_INT(x12, x11) # load rs2: x11 = 0xaed0c339
    199c:	00062583          	lw	x11,0(x12)
    19a0:	00460613          	addi	x12,x12,4
  RVTEST_TESTDATA_LOAD_INT(x12, x16) # load branch taken value: x16 = 0x126bfe74
    19a4:	00062803          	lw	x16,0(x12)
    19a8:	00460613          	addi	x12,x12,4

000019ac <I_blt_cg_cp_rs2_b11>:
I_blt_cg_cp_rs2_b11:
  blt x30, x11, 1f # perform operation
    19ac:	00bf4463          	blt	x30,x11,19b4 <I_blt_cg_cp_rs2_b11+0x8>
  LI(x16, -1) # branch not taken, set temp_reg to 0
    19b0:	fff00813          	addi	x16,x0,-1
1:
  # Check if x16 contains the expected result. x19 is the signature ptr, x14 is the link ptr, x13 is a temp reg.
  RVTEST_SIGUPD(x19, x14, x13, x16, I_blt_cg_cp_rs2_b11, I_blt_cg_cp_rs2_b11_str)
    19b4:	0009a683          	lw	x13,0(x19)
    19b8:	01068863          	beq	x13,x16,19c8 <I_blt_cg_cp_rs2_b11+0x1c>
    19bc:	7000876f          	jal	x14,a0bc <failedtest_x14_x13>
    19c0:	000019ac          	.word	0x000019ac
    19c4:	0000d300          	.word	0x0000d300
    19c8:	00498993          	addi	x19,x19,4

  mv x30, x12 # switch data pointer register to avoid conflict with test
    19cc:	00060f13          	addi	x30,x12,0
# Testcase cp_rs2 (Test source rs2 = x12)
  RVTEST_TESTDATA_LOAD_INT(x30, x28) # load rs1: x28 = 0x684dbf96
    19d0:	000f2e03          	lw	x28,0(x30)
    19d4:	004f0f13          	addi	x30,x30,4
  RVTEST_TESTDATA_LOAD_INT(x30, x12) # load rs2: x12 = 0x855fd0c1
    19d8:	000f2603          	lw	x12,0(x30)
    19dc:	004f0f13          	addi	x30,x30,4
  RVTEST_TESTDATA_LOAD_INT(x30, x4) # load branch taken value: x4 = 0x6bf4b36c
    19e0:	000f2203          	lw	x4,0(x30)
    19e4:	004f0f13          	addi	x30,x30,4

000019e8 <I_blt_cg_cp_rs2_b12>:
I_blt_cg_cp_rs2_b12:
  blt x28, x12, 1f # perform operation
    19e8:	00ce4463          	blt	x28,x12,19f0 <I_blt_cg_cp_rs2_b12+0x8>
  LI(x4, -1) # branch not taken, set temp_reg to 0
    19ec:	fff00213          	addi	x4,x0,-1
1:
  # Check if x4 contains the expected result. x19 is the signature ptr, x14 is the link ptr, x13 is a temp reg.
  RVTEST_SIGUPD(x19, x14, x13, x4, I_blt_cg_cp_rs2_b12, I_blt_cg_cp_rs2_b12_str)
    19f0:	0009a683          	lw	x13,0(x19)
    19f4:	00468863          	beq	x13,x4,1a04 <I_blt_cg_cp_rs2_b12+0x1c>
    19f8:	6c40876f          	jal	x14,a0bc <failedtest_x14_x13>
    19fc:	000019e8          	.word	0x000019e8
    1a00:	0000d32f          	.word	0x0000d32f
    1a04:	00498993          	addi	x19,x19,4

  mv x4, x13 # switch temp register to avoid conflict with test
    1a08:	00068213          	addi	x4,x13,0
  mv x5, x14 # switch link pointer register to avoid conflict with test
    1a0c:	00070293          	addi	x5,x14,0
# Testcase cp_rs2 (Test source rs2 = x13)
  RVTEST_TESTDATA_LOAD_INT(x30, x21) # load rs1: x21 = 0xfb4c6f79
    1a10:	000f2a83          	lw	x21,0(x30)
    1a14:	004f0f13          	addi	x30,x30,4
  RVTEST_TESTDATA_LOAD_INT(x30, x13) # load rs2: x13 = 0xe3572452
    1a18:	000f2683          	lw	x13,0(x30)
    1a1c:	004f0f13          	addi	x30,x30,4
  RVTEST_TESTDATA_LOAD_INT(x30, x11) # load branch taken value: x11 = 0x954b983c
    1a20:	000f2583          	lw	x11,0(x30)
    1a24:	004f0f13          	addi	x30,x30,4

00001a28 <I_blt_cg_cp_rs2_b13>:
I_blt_cg_cp_rs2_b13:
  blt x21, x13, 1f # perform operation
    1a28:	00dac463          	blt	x21,x13,1a30 <I_blt_cg_cp_rs2_b13+0x8>
  LI(x11, -1) # branch not taken, set temp_reg to 0
    1a2c:	fff00593          	addi	x11,x0,-1
1:
  # Check if x11 contains the expected result. x19 is the signature ptr, x5 is the link ptr, x4 is a temp reg.
  RVTEST_SIGUPD(x19, x5, x4, x11, I_blt_cg_cp_rs2_b13, I_blt_cg_cp_rs2_b13_str)
    1a30:	0009a203          	lw	x4,0(x19)
    1a34:	00b20863          	beq	x4,x11,1a44 <I_blt_cg_cp_rs2_b13+0x1c>
    1a38:	644082ef          	jal	x5,a07c <failedtest_x5_x4>
    1a3c:	00001a28          	.word	0x00001a28
    1a40:	0000d35e          	.word	0x0000d35e
    1a44:	00498993          	addi	x19,x19,4

# Testcase cp_rs2 (Test source rs2 = x14)
  RVTEST_TESTDATA_LOAD_INT(x30, x18) # load rs1: x18 = 0x6562960b
    1a48:	000f2903          	lw	x18,0(x30)
    1a4c:	004f0f13          	addi	x30,x30,4
  RVTEST_TESTDATA_LOAD_INT(x30, x14) # load rs2: x14 = 0x7a5996a8
    1a50:	000f2703          	lw	x14,0(x30)
    1a54:	004f0f13          	addi	x30,x30,4
  RVTEST_TESTDATA_LOAD_INT(x30, x11) # load branch taken value: x11 = 0xe6bc5200
    1a58:	000f2583          	lw	x11,0(x30)
    1a5c:	004f0f13          	addi	x30,x30,4

00001a60 <I_blt_cg_cp_rs2_b14>:
I_blt_cg_cp_rs2_b14:
  blt x18, x14, 1f # perform operation
    1a60:	00e94463          	blt	x18,x14,1a68 <I_blt_cg_cp_rs2_b14+0x8>
  LI(x11, -1) # branch not taken, set temp_reg to 0
    1a64:	fff00593          	addi	x11,x0,-1
1:
  # Check if x11 contains the expected result. x19 is the signature ptr, x5 is the link ptr, x4 is a temp reg.
  RVTEST_SIGUPD(x19, x5, x4, x11, I_blt_cg_cp_rs2_b14, I_blt_cg_cp_rs2_b14_str)
    1a68:	0009a203          	lw	x4,0(x19)
    1a6c:	00b20863          	beq	x4,x11,1a7c <I_blt_cg_cp_rs2_b14+0x1c>
    1a70:	60c082ef          	jal	x5,a07c <failedtest_x5_x4>
    1a74:	00001a60          	.word	0x00001a60
    1a78:	0000d38d          	.word	0x0000d38d
    1a7c:	00498993          	addi	x19,x19,4

# Testcase cp_rs2 (Test source rs2 = x15)
  RVTEST_TESTDATA_LOAD_INT(x30, x7) # load rs1: x7 = 0x75e8df82
    1a80:	000f2383          	lw	x7,0(x30)
    1a84:	004f0f13          	addi	x30,x30,4
  RVTEST_TESTDATA_LOAD_INT(x30, x15) # load rs2: x15 = 0xa2d4e9e4
    1a88:	000f2783          	lw	x15,0(x30)
    1a8c:	004f0f13          	addi	x30,x30,4
  RVTEST_TESTDATA_LOAD_INT(x30, x22) # load branch taken value: x22 = 0xeea23dd7
    1a90:	000f2b03          	lw	x22,0(x30)
    1a94:	004f0f13          	addi	x30,x30,4

00001a98 <I_blt_cg_cp_rs2_b15>:
I_blt_cg_cp_rs2_b15:
  blt x7, x15, 1f # perform operation
    1a98:	00f3c463          	blt	x7,x15,1aa0 <I_blt_cg_cp_rs2_b15+0x8>
  LI(x22, -1) # branch not taken, set temp_reg to 0
    1a9c:	fff00b13          	addi	x22,x0,-1
1:
  # Check if x22 contains the expected result. x19 is the signature ptr, x5 is the link ptr, x4 is a temp reg.
  RVTEST_SIGUPD(x19, x5, x4, x22, I_blt_cg_cp_rs2_b15, I_blt_cg_cp_rs2_b15_str)
    1aa0:	0009a203          	lw	x4,0(x19)
    1aa4:	01620863          	beq	x4,x22,1ab4 <I_blt_cg_cp_rs2_b15+0x1c>
    1aa8:	5d4082ef          	jal	x5,a07c <failedtest_x5_x4>
    1aac:	00001a98          	.word	0x00001a98
    1ab0:	0000d3bc          	.word	0x0000d3bc
    1ab4:	00498993          	addi	x19,x19,4

# Testcase cp_rs2 (Test source rs2 = x16)
  RVTEST_TESTDATA_LOAD_INT(x30, x9) # load rs1: x9 = 0x53e3de05
    1ab8:	000f2483          	lw	x9,0(x30)
    1abc:	004f0f13          	addi	x30,x30,4
  RVTEST_TESTDATA_LOAD_INT(x30, x16) # load rs2: x16 = 0x5d16f529
    1ac0:	000f2803          	lw	x16,0(x30)
    1ac4:	004f0f13          	addi	x30,x30,4
  RVTEST_TESTDATA_LOAD_INT(x30, x3) # load branch taken value: x3 = 0x285123dc
    1ac8:	000f2183          	lw	x3,0(x30)
    1acc:	004f0f13          	addi	x30,x30,4

00001ad0 <I_blt_cg_cp_rs2_b16>:
I_blt_cg_cp_rs2_b16:
  blt x9, x16, 1f # perform operation
    1ad0:	0104c463          	blt	x9,x16,1ad8 <I_blt_cg_cp_rs2_b16+0x8>
  LI(x3, -1) # branch not taken, set temp_reg to 0
    1ad4:	fff00193          	addi	x3,x0,-1
1:
  # Check if x3 contains the expected result. x19 is the signature ptr, x5 is the link ptr, x4 is a temp reg.
  RVTEST_SIGUPD(x19, x5, x4, x3, I_blt_cg_cp_rs2_b16, I_blt_cg_cp_rs2_b16_str)
    1ad8:	0009a203          	lw	x4,0(x19)
    1adc:	00320863          	beq	x4,x3,1aec <I_blt_cg_cp_rs2_b16+0x1c>
    1ae0:	59c082ef          	jal	x5,a07c <failedtest_x5_x4>
    1ae4:	00001ad0          	.word	0x00001ad0
    1ae8:	0000d3eb          	.word	0x0000d3eb
    1aec:	00498993          	addi	x19,x19,4

# Testcase cp_rs2 (Test source rs2 = x17)
  RVTEST_TESTDATA_LOAD_INT(x30, x16) # load rs1: x16 = 0xc3f176cd
    1af0:	000f2803          	lw	x16,0(x30)
    1af4:	004f0f13          	addi	x30,x30,4
  RVTEST_TESTDATA_LOAD_INT(x30, x17) # load rs2: x17 = 0x5366f223
    1af8:	000f2883          	lw	x17,0(x30)
    1afc:	004f0f13          	addi	x30,x30,4
  RVTEST_TESTDATA_LOAD_INT(x30, x15) # load branch taken value: x15 = 0xf5854ba4
    1b00:	000f2783          	lw	x15,0(x30)
    1b04:	004f0f13          	addi	x30,x30,4

00001b08 <I_blt_cg_cp_rs2_b17>:
I_blt_cg_cp_rs2_b17:
  blt x16, x17, 1f # perform operation
    1b08:	01184463          	blt	x16,x17,1b10 <I_blt_cg_cp_rs2_b17+0x8>
  LI(x15, -1) # branch not taken, set temp_reg to 0
    1b0c:	fff00793          	addi	x15,x0,-1
1:
  # Check if x15 contains the expected result. x19 is the signature ptr, x5 is the link ptr, x4 is a temp reg.
  RVTEST_SIGUPD(x19, x5, x4, x15, I_blt_cg_cp_rs2_b17, I_blt_cg_cp_rs2_b17_str)
    1b10:	0009a203          	lw	x4,0(x19)
    1b14:	00f20863          	beq	x4,x15,1b24 <I_blt_cg_cp_rs2_b17+0x1c>
    1b18:	564082ef          	jal	x5,a07c <failedtest_x5_x4>
    1b1c:	00001b08          	.word	0x00001b08
    1b20:	0000d41a          	.word	0x0000d41a
    1b24:	00498993          	addi	x19,x19,4

# Testcase cp_rs2 (Test source rs2 = x18)
  RVTEST_TESTDATA_LOAD_INT(x30, x15) # load rs1: x15 = 0x40f40072
    1b28:	000f2783          	lw	x15,0(x30)
    1b2c:	004f0f13          	addi	x30,x30,4
  RVTEST_TESTDATA_LOAD_INT(x30, x18) # load rs2: x18 = 0x1ad49b7d
    1b30:	000f2903          	lw	x18,0(x30)
    1b34:	004f0f13          	addi	x30,x30,4
  RVTEST_TESTDATA_LOAD_INT(x30, x26) # load branch taken value: x26 = 0x998d2427
    1b38:	000f2d03          	lw	x26,0(x30)
    1b3c:	004f0f13          	addi	x30,x30,4

00001b40 <I_blt_cg_cp_rs2_b18>:
I_blt_cg_cp_rs2_b18:
  blt x15, x18, 1f # perform operation
    1b40:	0127c463          	blt	x15,x18,1b48 <I_blt_cg_cp_rs2_b18+0x8>
  LI(x26, -1) # branch not taken, set temp_reg to 0
    1b44:	fff00d13          	addi	x26,x0,-1
1:
  # Check if x26 contains the expected result. x19 is the signature ptr, x5 is the link ptr, x4 is a temp reg.
  RVTEST_SIGUPD(x19, x5, x4, x26, I_blt_cg_cp_rs2_b18, I_blt_cg_cp_rs2_b18_str)
    1b48:	0009a203          	lw	x4,0(x19)
    1b4c:	01a20863          	beq	x4,x26,1b5c <I_blt_cg_cp_rs2_b18+0x1c>
    1b50:	52c082ef          	jal	x5,a07c <failedtest_x5_x4>
    1b54:	00001b40          	.word	0x00001b40
    1b58:	0000d449          	.word	0x0000d449
    1b5c:	00498993          	addi	x19,x19,4

  mv x17, x19 # switch signature pointer register to avoid conflict with test
    1b60:	00098893          	addi	x17,x19,0
# Testcase cp_rs2 (Test source rs2 = x19)
  RVTEST_TESTDATA_LOAD_INT(x30, x1) # load rs1: x1 = 0x9eb0e53f
    1b64:	000f2083          	lw	x1,0(x30)
    1b68:	004f0f13          	addi	x30,x30,4
  RVTEST_TESTDATA_LOAD_INT(x30, x19) # load rs2: x19 = 0x64e76ec0
    1b6c:	000f2983          	lw	x19,0(x30)
    1b70:	004f0f13          	addi	x30,x30,4
  RVTEST_TESTDATA_LOAD_INT(x30, x15) # load branch taken value: x15 = 0x6edbd0f2
    1b74:	000f2783          	lw	x15,0(x30)
    1b78:	004f0f13          	addi	x30,x30,4

00001b7c <I_blt_cg_cp_rs2_b19>:
I_blt_cg_cp_rs2_b19:
  blt x1, x19, 1f # perform operation
    1b7c:	0130c463          	blt	x1,x19,1b84 <I_blt_cg_cp_rs2_b19+0x8>
  LI(x15, -1) # branch not taken, set temp_reg to 0
    1b80:	fff00793          	addi	x15,x0,-1
1:
  # Check if x15 contains the expected result. x17 is the signature ptr, x5 is the link ptr, x4 is a temp reg.
  RVTEST_SIGUPD(x17, x5, x4, x15, I_blt_cg_cp_rs2_b19, I_blt_cg_cp_rs2_b19_str)
    1b84:	0008a203          	lw	x4,0(x17)
    1b88:	00f20863          	beq	x4,x15,1b98 <I_blt_cg_cp_rs2_b19+0x1c>
    1b8c:	4f0082ef          	jal	x5,a07c <failedtest_x5_x4>
    1b90:	00001b7c          	.word	0x00001b7c
    1b94:	0000d478          	.word	0x0000d478
    1b98:	00488893          	addi	x17,x17,4

# Testcase cp_rs2 (Test source rs2 = x20)
  RVTEST_TESTDATA_LOAD_INT(x30, x9) # load rs1: x9 = 0xd6773d04
    1b9c:	000f2483          	lw	x9,0(x30)
    1ba0:	004f0f13          	addi	x30,x30,4
  RVTEST_TESTDATA_LOAD_INT(x30, x20) # load rs2: x20 = 0x3df93efa
    1ba4:	000f2a03          	lw	x20,0(x30)
    1ba8:	004f0f13          	addi	x30,x30,4
  RVTEST_TESTDATA_LOAD_INT(x30, x18) # load branch taken value: x18 = 0xc2bbefe7
    1bac:	000f2903          	lw	x18,0(x30)
    1bb0:	004f0f13          	addi	x30,x30,4

00001bb4 <I_blt_cg_cp_rs2_b20>:
I_blt_cg_cp_rs2_b20:
  blt x9, x20, 1f # perform operation
    1bb4:	0144c463          	blt	x9,x20,1bbc <I_blt_cg_cp_rs2_b20+0x8>
  LI(x18, -1) # branch not taken, set temp_reg to 0
    1bb8:	fff00913          	addi	x18,x0,-1
1:
  # Check if x18 contains the expected result. x17 is the signature ptr, x5 is the link ptr, x4 is a temp reg.
  RVTEST_SIGUPD(x17, x5, x4, x18, I_blt_cg_cp_rs2_b20, I_blt_cg_cp_rs2_b20_str)
    1bbc:	0008a203          	lw	x4,0(x17)
    1bc0:	01220863          	beq	x4,x18,1bd0 <I_blt_cg_cp_rs2_b20+0x1c>
    1bc4:	4b8082ef          	jal	x5,a07c <failedtest_x5_x4>
    1bc8:	00001bb4          	.word	0x00001bb4
    1bcc:	0000d4a7          	.word	0x0000d4a7
    1bd0:	00488893          	addi	x17,x17,4

# Testcase cp_rs2 (Test source rs2 = x21)
  RVTEST_TESTDATA_LOAD_INT(x30, x27) # load rs1: x27 = 0x2138104c
    1bd4:	000f2d83          	lw	x27,0(x30)
    1bd8:	004f0f13          	addi	x30,x30,4
  RVTEST_TESTDATA_LOAD_INT(x30, x21) # load rs2: x21 = 0xd923eeab
    1bdc:	000f2a83          	lw	x21,0(x30)
    1be0:	004f0f13          	addi	x30,x30,4
  RVTEST_TESTDATA_LOAD_INT(x30, x10) # load branch taken value: x10 = 0xf017552d
    1be4:	000f2503          	lw	x10,0(x30)
    1be8:	004f0f13          	addi	x30,x30,4

00001bec <I_blt_cg_cp_rs2_b21>:
I_blt_cg_cp_rs2_b21:
  blt x27, x21, 1f # perform operation
    1bec:	015dc463          	blt	x27,x21,1bf4 <I_blt_cg_cp_rs2_b21+0x8>
  LI(x10, -1) # branch not taken, set temp_reg to 0
    1bf0:	fff00513          	addi	x10,x0,-1
1:
  # Check if x10 contains the expected result. x17 is the signature ptr, x5 is the link ptr, x4 is a temp reg.
  RVTEST_SIGUPD(x17, x5, x4, x10, I_blt_cg_cp_rs2_b21, I_blt_cg_cp_rs2_b21_str)
    1bf4:	0008a203          	lw	x4,0(x17)
    1bf8:	00a20863          	beq	x4,x10,1c08 <I_blt_cg_cp_rs2_b21+0x1c>
    1bfc:	480082ef          	jal	x5,a07c <failedtest_x5_x4>
    1c00:	00001bec          	.word	0x00001bec
    1c04:	0000d4d6          	.word	0x0000d4d6
    1c08:	00488893          	addi	x17,x17,4

# Testcase cp_rs2 (Test source rs2 = x22)
  RVTEST_TESTDATA_LOAD_INT(x30, x8) # load rs1: x8 = 0x09a1ffba
    1c0c:	000f2403          	lw	x8,0(x30)
    1c10:	004f0f13          	addi	x30,x30,4
  RVTEST_TESTDATA_LOAD_INT(x30, x22) # load rs2: x22 = 0x57ce63ab
    1c14:	000f2b03          	lw	x22,0(x30)
    1c18:	004f0f13          	addi	x30,x30,4
  RVTEST_TESTDATA_LOAD_INT(x30, x23) # load branch taken value: x23 = 0xf63fc35a
    1c1c:	000f2b83          	lw	x23,0(x30)
    1c20:	004f0f13          	addi	x30,x30,4

00001c24 <I_blt_cg_cp_rs2_b22>:
I_blt_cg_cp_rs2_b22:
  blt x8, x22, 1f # perform operation
    1c24:	01644463          	blt	x8,x22,1c2c <I_blt_cg_cp_rs2_b22+0x8>
  LI(x23, -1) # branch not taken, set temp_reg to 0
    1c28:	fff00b93          	addi	x23,x0,-1
1:
  # Check if x23 contains the expected result. x17 is the signature ptr, x5 is the link ptr, x4 is a temp reg.
  RVTEST_SIGUPD(x17, x5, x4, x23, I_blt_cg_cp_rs2_b22, I_blt_cg_cp_rs2_b22_str)
    1c2c:	0008a203          	lw	x4,0(x17)
    1c30:	01720863          	beq	x4,x23,1c40 <I_blt_cg_cp_rs2_b22+0x1c>
    1c34:	448082ef          	jal	x5,a07c <failedtest_x5_x4>
    1c38:	00001c24          	.word	0x00001c24
    1c3c:	0000d505          	.word	0x0000d505
    1c40:	00488893          	addi	x17,x17,4

# Testcase cp_rs2 (Test source rs2 = x23)
  RVTEST_TESTDATA_LOAD_INT(x30, x20) # load rs1: x20 = 0x0fb5c3cd
    1c44:	000f2a03          	lw	x20,0(x30)
    1c48:	004f0f13          	addi	x30,x30,4
  RVTEST_TESTDATA_LOAD_INT(x30, x23) # load rs2: x23 = 0xf3e0b22e
    1c4c:	000f2b83          	lw	x23,0(x30)
    1c50:	004f0f13          	addi	x30,x30,4
  RVTEST_TESTDATA_LOAD_INT(x30, x16) # load branch taken value: x16 = 0xc5c0844f
    1c54:	000f2803          	lw	x16,0(x30)
    1c58:	004f0f13          	addi	x30,x30,4

00001c5c <I_blt_cg_cp_rs2_b23>:
I_blt_cg_cp_rs2_b23:
  blt x20, x23, 1f # perform operation
    1c5c:	017a4463          	blt	x20,x23,1c64 <I_blt_cg_cp_rs2_b23+0x8>
  LI(x16, -1) # branch not taken, set temp_reg to 0
    1c60:	fff00813          	addi	x16,x0,-1
1:
  # Check if x16 contains the expected result. x17 is the signature ptr, x5 is the link ptr, x4 is a temp reg.
  RVTEST_SIGUPD(x17, x5, x4, x16, I_blt_cg_cp_rs2_b23, I_blt_cg_cp_rs2_b23_str)
    1c64:	0008a203          	lw	x4,0(x17)
    1c68:	01020863          	beq	x4,x16,1c78 <I_blt_cg_cp_rs2_b23+0x1c>
    1c6c:	410082ef          	jal	x5,a07c <failedtest_x5_x4>
    1c70:	00001c5c          	.word	0x00001c5c
    1c74:	0000d534          	.word	0x0000d534
    1c78:	00488893          	addi	x17,x17,4

# Testcase cp_rs2 (Test source rs2 = x24)
  RVTEST_TESTDATA_LOAD_INT(x30, x0) # load rs1: x0 = 0xe60a8bf0
    1c7c:	000f2003          	lw	x0,0(x30)
    1c80:	004f0f13          	addi	x30,x30,4
  RVTEST_TESTDATA_LOAD_INT(x30, x24) # load rs2: x24 = 0x7892074c
    1c84:	000f2c03          	lw	x24,0(x30)
    1c88:	004f0f13          	addi	x30,x30,4
  RVTEST_TESTDATA_LOAD_INT(x30, x16) # load branch taken value: x16 = 0xc18aede4
    1c8c:	000f2803          	lw	x16,0(x30)
    1c90:	004f0f13          	addi	x30,x30,4

00001c94 <I_blt_cg_cp_rs2_b24>:
I_blt_cg_cp_rs2_b24:
  blt x0, x24, 1f # perform operation
    1c94:	01804463          	blt	x0,x24,1c9c <I_blt_cg_cp_rs2_b24+0x8>
  LI(x16, -1) # branch not taken, set temp_reg to 0
    1c98:	fff00813          	addi	x16,x0,-1
1:
  # Check if x16 contains the expected result. x17 is the signature ptr, x5 is the link ptr, x4 is a temp reg.
  RVTEST_SIGUPD(x17, x5, x4, x16, I_blt_cg_cp_rs2_b24, I_blt_cg_cp_rs2_b24_str)
    1c9c:	0008a203          	lw	x4,0(x17)
    1ca0:	01020863          	beq	x4,x16,1cb0 <I_blt_cg_cp_rs2_b24+0x1c>
    1ca4:	3d8082ef          	jal	x5,a07c <failedtest_x5_x4>
    1ca8:	00001c94          	.word	0x00001c94
    1cac:	0000d563          	.word	0x0000d563
    1cb0:	00488893          	addi	x17,x17,4

# Testcase cp_rs2 (Test source rs2 = x25)
  RVTEST_TESTDATA_LOAD_INT(x30, x7) # load rs1: x7 = 0x7f428fc1
    1cb4:	000f2383          	lw	x7,0(x30)
    1cb8:	004f0f13          	addi	x30,x30,4
  RVTEST_TESTDATA_LOAD_INT(x30, x25) # load rs2: x25 = 0x9e869085
    1cbc:	000f2c83          	lw	x25,0(x30)
    1cc0:	004f0f13          	addi	x30,x30,4
  RVTEST_TESTDATA_LOAD_INT(x30, x20) # load branch taken value: x20 = 0x9da9f4de
    1cc4:	000f2a03          	lw	x20,0(x30)
    1cc8:	004f0f13          	addi	x30,x30,4

00001ccc <I_blt_cg_cp_rs2_b25>:
I_blt_cg_cp_rs2_b25:
  blt x7, x25, 1f # perform operation
    1ccc:	0193c463          	blt	x7,x25,1cd4 <I_blt_cg_cp_rs2_b25+0x8>
  LI(x20, -1) # branch not taken, set temp_reg to 0
    1cd0:	fff00a13          	addi	x20,x0,-1
1:
  # Check if x20 contains the expected result. x17 is the signature ptr, x5 is the link ptr, x4 is a temp reg.
  RVTEST_SIGUPD(x17, x5, x4, x20, I_blt_cg_cp_rs2_b25, I_blt_cg_cp_rs2_b25_str)
    1cd4:	0008a203          	lw	x4,0(x17)
    1cd8:	01420863          	beq	x4,x20,1ce8 <I_blt_cg_cp_rs2_b25+0x1c>
    1cdc:	3a0082ef          	jal	x5,a07c <failedtest_x5_x4>
    1ce0:	00001ccc          	.word	0x00001ccc
    1ce4:	0000d592          	.word	0x0000d592
    1ce8:	00488893          	addi	x17,x17,4

# Testcase cp_rs2 (Test source rs2 = x26)
  RVTEST_TESTDATA_LOAD_INT(x30, x31) # load rs1: x31 = 0xc419bef6
    1cec:	000f2f83          	lw	x31,0(x30)
    1cf0:	004f0f13          	addi	x30,x30,4
  RVTEST_TESTDATA_LOAD_INT(x30, x26) # load rs2: x26 = 0x1a0d3c6e
    1cf4:	000f2d03          	lw	x26,0(x30)
    1cf8:	004f0f13          	addi	x30,x30,4
  RVTEST_TESTDATA_LOAD_INT(x30, x1) # load branch taken value: x1 = 0x39918ad4
    1cfc:	000f2083          	lw	x1,0(x30)
    1d00:	004f0f13          	addi	x30,x30,4

00001d04 <I_blt_cg_cp_rs2_b26>:
I_blt_cg_cp_rs2_b26:
  blt x31, x26, 1f # perform operation
    1d04:	01afc463          	blt	x31,x26,1d0c <I_blt_cg_cp_rs2_b26+0x8>
  LI(x1, -1) # branch not taken, set temp_reg to 0
    1d08:	fff00093          	addi	x1,x0,-1
1:
  # Check if x1 contains the expected result. x17 is the signature ptr, x5 is the link ptr, x4 is a temp reg.
  RVTEST_SIGUPD(x17, x5, x4, x1, I_blt_cg_cp_rs2_b26, I_blt_cg_cp_rs2_b26_str)
    1d0c:	0008a203          	lw	x4,0(x17)
    1d10:	00120863          	beq	x4,x1,1d20 <I_blt_cg_cp_rs2_b26+0x1c>
    1d14:	368082ef          	jal	x5,a07c <failedtest_x5_x4>
    1d18:	00001d04          	.word	0x00001d04
    1d1c:	0000d5c1          	.word	0x0000d5c1
    1d20:	00488893          	addi	x17,x17,4

# Testcase cp_rs2 (Test source rs2 = x27)
  RVTEST_TESTDATA_LOAD_INT(x30, x18) # load rs1: x18 = 0xb79d08de
    1d24:	000f2903          	lw	x18,0(x30)
    1d28:	004f0f13          	addi	x30,x30,4
  RVTEST_TESTDATA_LOAD_INT(x30, x27) # load rs2: x27 = 0xa0d15fff
    1d2c:	000f2d83          	lw	x27,0(x30)
    1d30:	004f0f13          	addi	x30,x30,4
  RVTEST_TESTDATA_LOAD_INT(x30, x23) # load branch taken value: x23 = 0xe0020806
    1d34:	000f2b83          	lw	x23,0(x30)
    1d38:	004f0f13          	addi	x30,x30,4

00001d3c <I_blt_cg_cp_rs2_b27>:
I_blt_cg_cp_rs2_b27:
  blt x18, x27, 1f # perform operation
    1d3c:	01b94463          	blt	x18,x27,1d44 <I_blt_cg_cp_rs2_b27+0x8>
  LI(x23, -1) # branch not taken, set temp_reg to 0
    1d40:	fff00b93          	addi	x23,x0,-1
1:
  # Check if x23 contains the expected result. x17 is the signature ptr, x5 is the link ptr, x4 is a temp reg.
  RVTEST_SIGUPD(x17, x5, x4, x23, I_blt_cg_cp_rs2_b27, I_blt_cg_cp_rs2_b27_str)
    1d44:	0008a203          	lw	x4,0(x17)
    1d48:	01720863          	beq	x4,x23,1d58 <I_blt_cg_cp_rs2_b27+0x1c>
    1d4c:	330082ef          	jal	x5,a07c <failedtest_x5_x4>
    1d50:	00001d3c          	.word	0x00001d3c
    1d54:	0000d5f0          	.word	0x0000d5f0
    1d58:	00488893          	addi	x17,x17,4

# Testcase cp_rs2 (Test source rs2 = x28)
  RVTEST_TESTDATA_LOAD_INT(x30, x0) # load rs1: x0 = 0xdf074cb8
    1d5c:	000f2003          	lw	x0,0(x30)
    1d60:	004f0f13          	addi	x30,x30,4
  RVTEST_TESTDATA_LOAD_INT(x30, x28) # load rs2: x28 = 0x07566db6
    1d64:	000f2e03          	lw	x28,0(x30)
    1d68:	004f0f13          	addi	x30,x30,4
  RVTEST_TESTDATA_LOAD_INT(x30, x1) # load branch taken value: x1 = 0xe0155d41
    1d6c:	000f2083          	lw	x1,0(x30)
    1d70:	004f0f13          	addi	x30,x30,4

00001d74 <I_blt_cg_cp_rs2_b28>:
I_blt_cg_cp_rs2_b28:
  blt x0, x28, 1f # perform operation
    1d74:	01c04463          	blt	x0,x28,1d7c <I_blt_cg_cp_rs2_b28+0x8>
  LI(x1, -1) # branch not taken, set temp_reg to 0
    1d78:	fff00093          	addi	x1,x0,-1
1:
  # Check if x1 contains the expected result. x17 is the signature ptr, x5 is the link ptr, x4 is a temp reg.
  RVTEST_SIGUPD(x17, x5, x4, x1, I_blt_cg_cp_rs2_b28, I_blt_cg_cp_rs2_b28_str)
    1d7c:	0008a203          	lw	x4,0(x17)
    1d80:	00120863          	beq	x4,x1,1d90 <I_blt_cg_cp_rs2_b28+0x1c>
    1d84:	2f8082ef          	jal	x5,a07c <failedtest_x5_x4>
    1d88:	00001d74          	.word	0x00001d74
    1d8c:	0000d61f          	.word	0x0000d61f
    1d90:	00488893          	addi	x17,x17,4

# Testcase cp_rs2 (Test source rs2 = x29)
  RVTEST_TESTDATA_LOAD_INT(x30, x31) # load rs1: x31 = 0x80d66e1a
    1d94:	000f2f83          	lw	x31,0(x30)
    1d98:	004f0f13          	addi	x30,x30,4
  RVTEST_TESTDATA_LOAD_INT(x30, x29) # load rs2: x29 = 0x7bb87431
    1d9c:	000f2e83          	lw	x29,0(x30)
    1da0:	004f0f13          	addi	x30,x30,4
  RVTEST_TESTDATA_LOAD_INT(x30, x24) # load branch taken value: x24 = 0xa04a3922
    1da4:	000f2c03          	lw	x24,0(x30)
    1da8:	004f0f13          	addi	x30,x30,4

00001dac <I_blt_cg_cp_rs2_b29>:
I_blt_cg_cp_rs2_b29:
  blt x31, x29, 1f # perform operation
    1dac:	01dfc463          	blt	x31,x29,1db4 <I_blt_cg_cp_rs2_b29+0x8>
  LI(x24, -1) # branch not taken, set temp_reg to 0
    1db0:	fff00c13          	addi	x24,x0,-1
1:
  # Check if x24 contains the expected result. x17 is the signature ptr, x5 is the link ptr, x4 is a temp reg.
  RVTEST_SIGUPD(x17, x5, x4, x24, I_blt_cg_cp_rs2_b29, I_blt_cg_cp_rs2_b29_str)
    1db4:	0008a203          	lw	x4,0(x17)
    1db8:	01820863          	beq	x4,x24,1dc8 <I_blt_cg_cp_rs2_b29+0x1c>
    1dbc:	2c0082ef          	jal	x5,a07c <failedtest_x5_x4>
    1dc0:	00001dac          	.word	0x00001dac
    1dc4:	0000d64e          	.word	0x0000d64e
    1dc8:	00488893          	addi	x17,x17,4

  mv x23, x30 # switch data pointer register to avoid conflict with test
    1dcc:	000f0b93          	addi	x23,x30,0
# Testcase cp_rs2 (Test source rs2 = x30)
  RVTEST_TESTDATA_LOAD_INT(x23, x31) # load rs1: x31 = 0x669a120e
    1dd0:	000baf83          	lw	x31,0(x23)
    1dd4:	004b8b93          	addi	x23,x23,4
  RVTEST_TESTDATA_LOAD_INT(x23, x30) # load rs2: x30 = 0x4ee46885
    1dd8:	000baf03          	lw	x30,0(x23)
    1ddc:	004b8b93          	addi	x23,x23,4
  RVTEST_TESTDATA_LOAD_INT(x23, x8) # load branch taken value: x8 = 0x61af7fdb
    1de0:	000ba403          	lw	x8,0(x23)
    1de4:	004b8b93          	addi	x23,x23,4

00001de8 <I_blt_cg_cp_rs2_b30>:
I_blt_cg_cp_rs2_b30:
  blt x31, x30, 1f # perform operation
    1de8:	01efc463          	blt	x31,x30,1df0 <I_blt_cg_cp_rs2_b30+0x8>
  LI(x8, -1) # branch not taken, set temp_reg to 0
    1dec:	fff00413          	addi	x8,x0,-1
1:
  # Check if x8 contains the expected result. x17 is the signature ptr, x5 is the link ptr, x4 is a temp reg.
  RVTEST_SIGUPD(x17, x5, x4, x8, I_blt_cg_cp_rs2_b30, I_blt_cg_cp_rs2_b30_str)
    1df0:	0008a203          	lw	x4,0(x17)
    1df4:	00820863          	beq	x4,x8,1e04 <I_blt_cg_cp_rs2_b30+0x1c>
    1df8:	284082ef          	jal	x5,a07c <failedtest_x5_x4>
    1dfc:	00001de8          	.word	0x00001de8
    1e00:	0000d67d          	.word	0x0000d67d
    1e04:	00488893          	addi	x17,x17,4

# Testcase cp_rs2 (Test source rs2 = x31)
  RVTEST_TESTDATA_LOAD_INT(x23, x29) # load rs1: x29 = 0x53667c99
    1e08:	000bae83          	lw	x29,0(x23)
    1e0c:	004b8b93          	addi	x23,x23,4
  RVTEST_TESTDATA_LOAD_INT(x23, x31) # load rs2: x31 = 0xb41dac66
    1e10:	000baf83          	lw	x31,0(x23)
    1e14:	004b8b93          	addi	x23,x23,4
  RVTEST_TESTDATA_LOAD_INT(x23, x6) # load branch taken value: x6 = 0x37d0b736
    1e18:	000ba303          	lw	x6,0(x23)
    1e1c:	004b8b93          	addi	x23,x23,4

00001e20 <I_blt_cg_cp_rs2_b31>:
I_blt_cg_cp_rs2_b31:
  blt x29, x31, 1f # perform operation
    1e20:	01fec463          	blt	x29,x31,1e28 <I_blt_cg_cp_rs2_b31+0x8>
  LI(x6, -1) # branch not taken, set temp_reg to 0
    1e24:	fff00313          	addi	x6,x0,-1
1:
  # Check if x6 contains the expected result. x17 is the signature ptr, x5 is the link ptr, x4 is a temp reg.
  RVTEST_SIGUPD(x17, x5, x4, x6, I_blt_cg_cp_rs2_b31, I_blt_cg_cp_rs2_b31_str)
    1e28:	0008a203          	lw	x4,0(x17)
    1e2c:	00620863          	beq	x4,x6,1e3c <I_blt_cg_cp_rs2_b31+0x1c>
    1e30:	24c082ef          	jal	x5,a07c <failedtest_x5_x4>
    1e34:	00001e20          	.word	0x00001e20
    1e38:	0000d6ac          	.word	0x0000d6ac
    1e3c:	00488893          	addi	x17,x17,4
/////////////////////////////////
// cp_rs1_edges
/////////////////////////////////

# Testcase cp_rs1_edges (Test source rs1 value = 0x00000000)
  RVTEST_TESTDATA_LOAD_INT(x23, x24) # load rs1: x24 = 0x00000000
    1e40:	000bac03          	lw	x24,0(x23)
    1e44:	004b8b93          	addi	x23,x23,4
  RVTEST_TESTDATA_LOAD_INT(x23, x31) # load rs2: x31 = 0x1069c08a
    1e48:	000baf83          	lw	x31,0(x23)
    1e4c:	004b8b93          	addi	x23,x23,4
  RVTEST_TESTDATA_LOAD_INT(x23, x21) # load branch taken value: x21 = 0x03b14533
    1e50:	000baa83          	lw	x21,0(x23)
    1e54:	004b8b93          	addi	x23,x23,4

00001e58 <I_blt_cg_cp_rs1_edges_0x0>:
I_blt_cg_cp_rs1_edges_0x0:
  blt x24, x31, 1f # perform operation
    1e58:	01fc4463          	blt	x24,x31,1e60 <I_blt_cg_cp_rs1_edges_0x0+0x8>
  LI(x21, -1) # branch not taken, set temp_reg to 0
    1e5c:	fff00a93          	addi	x21,x0,-1
1:
  # Check if x21 contains the expected result. x17 is the signature ptr, x5 is the link ptr, x4 is a temp reg.
  RVTEST_SIGUPD(x17, x5, x4, x21, I_blt_cg_cp_rs1_edges_0x0, I_blt_cg_cp_rs1_edges_0x0_str)
    1e60:	0008a203          	lw	x4,0(x17)
    1e64:	01520863          	beq	x4,x21,1e74 <I_blt_cg_cp_rs1_edges_0x0+0x1c>
    1e68:	214082ef          	jal	x5,a07c <failedtest_x5_x4>
    1e6c:	00001e58          	.word	0x00001e58
    1e70:	0000d6db          	.word	0x0000d6db
    1e74:	00488893          	addi	x17,x17,4

# Testcase cp_rs1_edges (Test source rs1 value = 0x00000001)
  RVTEST_TESTDATA_LOAD_INT(x23, x31) # load rs1: x31 = 0x00000001
    1e78:	000baf83          	lw	x31,0(x23)
    1e7c:	004b8b93          	addi	x23,x23,4
  RVTEST_TESTDATA_LOAD_INT(x23, x29) # load rs2: x29 = 0x99d821e7
    1e80:	000bae83          	lw	x29,0(x23)
    1e84:	004b8b93          	addi	x23,x23,4
  RVTEST_TESTDATA_LOAD_INT(x23, x19) # load branch taken value: x19 = 0x1cd171ba
    1e88:	000ba983          	lw	x19,0(x23)
    1e8c:	004b8b93          	addi	x23,x23,4

00001e90 <I_blt_cg_cp_rs1_edges_0x1>:
I_blt_cg_cp_rs1_edges_0x1:
  blt x31, x29, 1f # perform operation
    1e90:	01dfc463          	blt	x31,x29,1e98 <I_blt_cg_cp_rs1_edges_0x1+0x8>
  LI(x19, -1) # branch not taken, set temp_reg to 0
    1e94:	fff00993          	addi	x19,x0,-1
1:
  # Check if x19 contains the expected result. x17 is the signature ptr, x5 is the link ptr, x4 is a temp reg.
  RVTEST_SIGUPD(x17, x5, x4, x19, I_blt_cg_cp_rs1_edges_0x1, I_blt_cg_cp_rs1_edges_0x1_str)
    1e98:	0008a203          	lw	x4,0(x17)
    1e9c:	01320863          	beq	x4,x19,1eac <I_blt_cg_cp_rs1_edges_0x1+0x1c>
    1ea0:	1dc082ef          	jal	x5,a07c <failedtest_x5_x4>
    1ea4:	00001e90          	.word	0x00001e90
    1ea8:	0000d710          	.word	0x0000d710
    1eac:	00488893          	addi	x17,x17,4

# Testcase cp_rs1_edges (Test source rs1 value = 0x00000002)
  RVTEST_TESTDATA_LOAD_INT(x23, x11) # load rs1: x11 = 0x00000002
    1eb0:	000ba583          	lw	x11,0(x23)
    1eb4:	004b8b93          	addi	x23,x23,4
  RVTEST_TESTDATA_LOAD_INT(x23, x28) # load rs2: x28 = 0x1f318616
    1eb8:	000bae03          	lw	x28,0(x23)
    1ebc:	004b8b93          	addi	x23,x23,4
  RVTEST_TESTDATA_LOAD_INT(x23, x31) # load branch taken value: x31 = 0xbd26f27c
    1ec0:	000baf83          	lw	x31,0(x23)
    1ec4:	004b8b93          	addi	x23,x23,4

00001ec8 <I_blt_cg_cp_rs1_edges_0x2>:
I_blt_cg_cp_rs1_edges_0x2:
  blt x11, x28, 1f # perform operation
    1ec8:	01c5c463          	blt	x11,x28,1ed0 <I_blt_cg_cp_rs1_edges_0x2+0x8>
  LI(x31, -1) # branch not taken, set temp_reg to 0
    1ecc:	fff00f93          	addi	x31,x0,-1
1:
  # Check if x31 contains the expected result. x17 is the signature ptr, x5 is the link ptr, x4 is a temp reg.
  RVTEST_SIGUPD(x17, x5, x4, x31, I_blt_cg_cp_rs1_edges_0x2, I_blt_cg_cp_rs1_edges_0x2_str)
    1ed0:	0008a203          	lw	x4,0(x17)
    1ed4:	01f20863          	beq	x4,x31,1ee4 <I_blt_cg_cp_rs1_edges_0x2+0x1c>
    1ed8:	1a4082ef          	jal	x5,a07c <failedtest_x5_x4>
    1edc:	00001ec8          	.word	0x00001ec8
    1ee0:	0000d745          	.word	0x0000d745
    1ee4:	00488893          	addi	x17,x17,4

# Testcase cp_rs1_edges (Test source rs1 value = 0x80000000)
  RVTEST_TESTDATA_LOAD_INT(x23, x8) # load rs1: x8 = 0x80000000
    1ee8:	000ba403          	lw	x8,0(x23)
    1eec:	004b8b93          	addi	x23,x23,4
  RVTEST_TESTDATA_LOAD_INT(x23, x29) # load rs2: x29 = 0x99c3589e
    1ef0:	000bae83          	lw	x29,0(x23)
    1ef4:	004b8b93          	addi	x23,x23,4
  RVTEST_TESTDATA_LOAD_INT(x23, x1) # load branch taken value: x1 = 0xbf94c9ba
    1ef8:	000ba083          	lw	x1,0(x23)
    1efc:	004b8b93          	addi	x23,x23,4

00001f00 <I_blt_cg_cp_rs1_edges_0x80000000>:
I_blt_cg_cp_rs1_edges_0x80000000:
  blt x8, x29, 1f # perform operation
    1f00:	01d44463          	blt	x8,x29,1f08 <I_blt_cg_cp_rs1_edges_0x80000000+0x8>
  LI(x1, -1) # branch not taken, set temp_reg to 0
    1f04:	fff00093          	addi	x1,x0,-1
1:
  # Check if x1 contains the expected result. x17 is the signature ptr, x5 is the link ptr, x4 is a temp reg.
  RVTEST_SIGUPD(x17, x5, x4, x1, I_blt_cg_cp_rs1_edges_0x80000000, I_blt_cg_cp_rs1_edges_0x80000000_str)
    1f08:	0008a203          	lw	x4,0(x17)
    1f0c:	00120863          	beq	x4,x1,1f1c <I_blt_cg_cp_rs1_edges_0x80000000+0x1c>
    1f10:	16c082ef          	jal	x5,a07c <failedtest_x5_x4>
    1f14:	00001f00          	.word	0x00001f00
    1f18:	0000d77a          	.word	0x0000d77a
    1f1c:	00488893          	addi	x17,x17,4

# Testcase cp_rs1_edges (Test source rs1 value = 0x80000001)
  RVTEST_TESTDATA_LOAD_INT(x23, x7) # load rs1: x7 = 0x80000001
    1f20:	000ba383          	lw	x7,0(x23)
    1f24:	004b8b93          	addi	x23,x23,4
  RVTEST_TESTDATA_LOAD_INT(x23, x21) # load rs2: x21 = 0xe0893bf3
    1f28:	000baa83          	lw	x21,0(x23)
    1f2c:	004b8b93          	addi	x23,x23,4
  RVTEST_TESTDATA_LOAD_INT(x23, x22) # load branch taken value: x22 = 0x78ab23e0
    1f30:	000bab03          	lw	x22,0(x23)
    1f34:	004b8b93          	addi	x23,x23,4

00001f38 <I_blt_cg_cp_rs1_edges_0x80000001>:
I_blt_cg_cp_rs1_edges_0x80000001:
  blt x7, x21, 1f # perform operation
    1f38:	0153c463          	blt	x7,x21,1f40 <I_blt_cg_cp_rs1_edges_0x80000001+0x8>
  LI(x22, -1) # branch not taken, set temp_reg to 0
    1f3c:	fff00b13          	addi	x22,x0,-1
1:
  # Check if x22 contains the expected result. x17 is the signature ptr, x5 is the link ptr, x4 is a temp reg.
  RVTEST_SIGUPD(x17, x5, x4, x22, I_blt_cg_cp_rs1_edges_0x80000001, I_blt_cg_cp_rs1_edges_0x80000001_str)
    1f40:	0008a203          	lw	x4,0(x17)
    1f44:	01620863          	beq	x4,x22,1f54 <I_blt_cg_cp_rs1_edges_0x80000001+0x1c>
    1f48:	134082ef          	jal	x5,a07c <failedtest_x5_x4>
    1f4c:	00001f38          	.word	0x00001f38
    1f50:	0000d7b6          	.word	0x0000d7b6
    1f54:	00488893          	addi	x17,x17,4

# Testcase cp_rs1_edges (Test source rs1 value = 0x7fffffff)
  RVTEST_TESTDATA_LOAD_INT(x23, x3) # load rs1: x3 = 0x7fffffff
    1f58:	000ba183          	lw	x3,0(x23)
    1f5c:	004b8b93          	addi	x23,x23,4
  RVTEST_TESTDATA_LOAD_INT(x23, x14) # load rs2: x14 = 0xf901d647
    1f60:	000ba703          	lw	x14,0(x23)
    1f64:	004b8b93          	addi	x23,x23,4
  RVTEST_TESTDATA_LOAD_INT(x23, x28) # load branch taken value: x28 = 0x40b39b91
    1f68:	000bae03          	lw	x28,0(x23)
    1f6c:	004b8b93          	addi	x23,x23,4

00001f70 <I_blt_cg_cp_rs1_edges_0x7fffffff>:
I_blt_cg_cp_rs1_edges_0x7fffffff:
  blt x3, x14, 1f # perform operation
    1f70:	00e1c463          	blt	x3,x14,1f78 <I_blt_cg_cp_rs1_edges_0x7fffffff+0x8>
  LI(x28, -1) # branch not taken, set temp_reg to 0
    1f74:	fff00e13          	addi	x28,x0,-1
1:
  # Check if x28 contains the expected result. x17 is the signature ptr, x5 is the link ptr, x4 is a temp reg.
  RVTEST_SIGUPD(x17, x5, x4, x28, I_blt_cg_cp_rs1_edges_0x7fffffff, I_blt_cg_cp_rs1_edges_0x7fffffff_str)
    1f78:	0008a203          	lw	x4,0(x17)
    1f7c:	01c20863          	beq	x4,x28,1f8c <I_blt_cg_cp_rs1_edges_0x7fffffff+0x1c>
    1f80:	0fc082ef          	jal	x5,a07c <failedtest_x5_x4>
    1f84:	00001f70          	.word	0x00001f70
    1f88:	0000d7f2          	.word	0x0000d7f2
    1f8c:	00488893          	addi	x17,x17,4

# Testcase cp_rs1_edges (Test source rs1 value = 0x7ffffffe)
  RVTEST_TESTDATA_LOAD_INT(x23, x28) # load rs1: x28 = 0x7ffffffe
    1f90:	000bae03          	lw	x28,0(x23)
    1f94:	004b8b93          	addi	x23,x23,4
  RVTEST_TESTDATA_LOAD_INT(x23, x6) # load rs2: x6 = 0xffd0b163
    1f98:	000ba303          	lw	x6,0(x23)
    1f9c:	004b8b93          	addi	x23,x23,4
  RVTEST_TESTDATA_LOAD_INT(x23, x22) # load branch taken value: x22 = 0xedd86f66
    1fa0:	000bab03          	lw	x22,0(x23)
    1fa4:	004b8b93          	addi	x23,x23,4

00001fa8 <I_blt_cg_cp_rs1_edges_0x7ffffffe>:
I_blt_cg_cp_rs1_edges_0x7ffffffe:
  blt x28, x6, 1f # perform operation
    1fa8:	006e4463          	blt	x28,x6,1fb0 <I_blt_cg_cp_rs1_edges_0x7ffffffe+0x8>
  LI(x22, -1) # branch not taken, set temp_reg to 0
    1fac:	fff00b13          	addi	x22,x0,-1
1:
  # Check if x22 contains the expected result. x17 is the signature ptr, x5 is the link ptr, x4 is a temp reg.
  RVTEST_SIGUPD(x17, x5, x4, x22, I_blt_cg_cp_rs1_edges_0x7ffffffe, I_blt_cg_cp_rs1_edges_0x7ffffffe_str)
    1fb0:	0008a203          	lw	x4,0(x17)
    1fb4:	01620863          	beq	x4,x22,1fc4 <I_blt_cg_cp_rs1_edges_0x7ffffffe+0x1c>
    1fb8:	0c4082ef          	jal	x5,a07c <failedtest_x5_x4>
    1fbc:	00001fa8          	.word	0x00001fa8
    1fc0:	0000d82e          	.word	0x0000d82e
    1fc4:	00488893          	addi	x17,x17,4

# Testcase cp_rs1_edges (Test source rs1 value = 0xffffffff)
  RVTEST_TESTDATA_LOAD_INT(x23, x27) # load rs1: x27 = 0xffffffff
    1fc8:	000bad83          	lw	x27,0(x23)
    1fcc:	004b8b93          	addi	x23,x23,4
  RVTEST_TESTDATA_LOAD_INT(x23, x10) # load rs2: x10 = 0xc2320b1c
    1fd0:	000ba503          	lw	x10,0(x23)
    1fd4:	004b8b93          	addi	x23,x23,4
  RVTEST_TESTDATA_LOAD_INT(x23, x16) # load branch taken value: x16 = 0x094c8896
    1fd8:	000ba803          	lw	x16,0(x23)
    1fdc:	004b8b93          	addi	x23,x23,4

00001fe0 <I_blt_cg_cp_rs1_edges_0xffffffff>:
I_blt_cg_cp_rs1_edges_0xffffffff:
  blt x27, x10, 1f # perform operation
    1fe0:	00adc463          	blt	x27,x10,1fe8 <I_blt_cg_cp_rs1_edges_0xffffffff+0x8>
  LI(x16, -1) # branch not taken, set temp_reg to 0
    1fe4:	fff00813          	addi	x16,x0,-1
1:
  # Check if x16 contains the expected result. x17 is the signature ptr, x5 is the link ptr, x4 is a temp reg.
  RVTEST_SIGUPD(x17, x5, x4, x16, I_blt_cg_cp_rs1_edges_0xffffffff, I_blt_cg_cp_rs1_edges_0xffffffff_str)
    1fe8:	0008a203          	lw	x4,0(x17)
    1fec:	01020863          	beq	x4,x16,1ffc <I_blt_cg_cp_rs1_edges_0xffffffff+0x1c>
    1ff0:	08c082ef          	jal	x5,a07c <failedtest_x5_x4>
    1ff4:	00001fe0          	.word	0x00001fe0
    1ff8:	0000d86a          	.word	0x0000d86a
    1ffc:	00488893          	addi	x17,x17,4

# Testcase cp_rs1_edges (Test source rs1 value = 0xfffffffe)
  RVTEST_TESTDATA_LOAD_INT(x23, x2) # load rs1: x2 = 0xfffffffe
    2000:	000ba103          	lw	x2,0(x23)
    2004:	004b8b93          	addi	x23,x23,4
  RVTEST_TESTDATA_LOAD_INT(x23, x8) # load rs2: x8 = 0x44131467
    2008:	000ba403          	lw	x8,0(x23)
    200c:	004b8b93          	addi	x23,x23,4
  RVTEST_TESTDATA_LOAD_INT(x23, x3) # load branch taken value: x3 = 0x5ebcbf5a
    2010:	000ba183          	lw	x3,0(x23)
    2014:	004b8b93          	addi	x23,x23,4

00002018 <I_blt_cg_cp_rs1_edges_0xfffffffe>:
I_blt_cg_cp_rs1_edges_0xfffffffe:
  blt x2, x8, 1f # perform operation
    2018:	00814463          	blt	x2,x8,2020 <I_blt_cg_cp_rs1_edges_0xfffffffe+0x8>
  LI(x3, -1) # branch not taken, set temp_reg to 0
    201c:	fff00193          	addi	x3,x0,-1
1:
  # Check if x3 contains the expected result. x17 is the signature ptr, x5 is the link ptr, x4 is a temp reg.
  RVTEST_SIGUPD(x17, x5, x4, x3, I_blt_cg_cp_rs1_edges_0xfffffffe, I_blt_cg_cp_rs1_edges_0xfffffffe_str)
    2020:	0008a203          	lw	x4,0(x17)
    2024:	00320863          	beq	x4,x3,2034 <I_blt_cg_cp_rs1_edges_0xfffffffe+0x1c>
    2028:	054082ef          	jal	x5,a07c <failedtest_x5_x4>
    202c:	00002018          	.word	0x00002018
    2030:	0000d8a6          	.word	0x0000d8a6
    2034:	00488893          	addi	x17,x17,4

# Testcase cp_rs1_edges (Test source rs1 value = 0x5bbc8872)
  RVTEST_TESTDATA_LOAD_INT(x23, x12) # load rs1: x12 = 0x5bbc8872
    2038:	000ba603          	lw	x12,0(x23)
    203c:	004b8b93          	addi	x23,x23,4
  RVTEST_TESTDATA_LOAD_INT(x23, x29) # load rs2: x29 = 0xc13d6b4d
    2040:	000bae83          	lw	x29,0(x23)
    2044:	004b8b93          	addi	x23,x23,4
  RVTEST_TESTDATA_LOAD_INT(x23, x22) # load branch taken value: x22 = 0x8c0d71d3
    2048:	000bab03          	lw	x22,0(x23)
    204c:	004b8b93          	addi	x23,x23,4

00002050 <I_blt_cg_cp_rs1_edges_0x5bbc8872>:
I_blt_cg_cp_rs1_edges_0x5bbc8872:
  blt x12, x29, 1f # perform operation
    2050:	01d64463          	blt	x12,x29,2058 <I_blt_cg_cp_rs1_edges_0x5bbc8872+0x8>
  LI(x22, -1) # branch not taken, set temp_reg to 0
    2054:	fff00b13          	addi	x22,x0,-1
1:
  # Check if x22 contains the expected result. x17 is the signature ptr, x5 is the link ptr, x4 is a temp reg.
  RVTEST_SIGUPD(x17, x5, x4, x22, I_blt_cg_cp_rs1_edges_0x5bbc8872, I_blt_cg_cp_rs1_edges_0x5bbc8872_str)
    2058:	0008a203          	lw	x4,0(x17)
    205c:	01620863          	beq	x4,x22,206c <I_blt_cg_cp_rs1_edges_0x5bbc8872+0x1c>
    2060:	01c082ef          	jal	x5,a07c <failedtest_x5_x4>
    2064:	00002050          	.word	0x00002050
    2068:	0000d8e2          	.word	0x0000d8e2
    206c:	00488893          	addi	x17,x17,4

# Testcase cp_rs1_edges (Test source rs1 value = 0xaaaaaaaa)
  RVTEST_TESTDATA_LOAD_INT(x23, x30) # load rs1: x30 = 0xaaaaaaaa
    2070:	000baf03          	lw	x30,0(x23)
    2074:	004b8b93          	addi	x23,x23,4
  RVTEST_TESTDATA_LOAD_INT(x23, x1) # load rs2: x1 = 0x7a348bd0
    2078:	000ba083          	lw	x1,0(x23)
    207c:	004b8b93          	addi	x23,x23,4
  RVTEST_TESTDATA_LOAD_INT(x23, x8) # load branch taken value: x8 = 0x0654c455
    2080:	000ba403          	lw	x8,0(x23)
    2084:	004b8b93          	addi	x23,x23,4

00002088 <I_blt_cg_cp_rs1_edges_0xaaaaaaaa>:
I_blt_cg_cp_rs1_edges_0xaaaaaaaa:
  blt x30, x1, 1f # perform operation
    2088:	001f4463          	blt	x30,x1,2090 <I_blt_cg_cp_rs1_edges_0xaaaaaaaa+0x8>
  LI(x8, -1) # branch not taken, set temp_reg to 0
    208c:	fff00413          	addi	x8,x0,-1
1:
  # Check if x8 contains the expected result. x17 is the signature ptr, x5 is the link ptr, x4 is a temp reg.
  RVTEST_SIGUPD(x17, x5, x4, x8, I_blt_cg_cp_rs1_edges_0xaaaaaaaa, I_blt_cg_cp_rs1_edges_0xaaaaaaaa_str)
    2090:	0008a203          	lw	x4,0(x17)
    2094:	00820863          	beq	x4,x8,20a4 <I_blt_cg_cp_rs1_edges_0xaaaaaaaa+0x1c>
    2098:	7e5072ef          	jal	x5,a07c <failedtest_x5_x4>
    209c:	00002088          	.word	0x00002088
    20a0:	0000d91e          	.word	0x0000d91e
    20a4:	00488893          	addi	x17,x17,4

# Testcase cp_rs1_edges (Test source rs1 value = 0x55555555)
  RVTEST_TESTDATA_LOAD_INT(x23, x19) # load rs1: x19 = 0x55555555
    20a8:	000ba983          	lw	x19,0(x23)
    20ac:	004b8b93          	addi	x23,x23,4
  RVTEST_TESTDATA_LOAD_INT(x23, x24) # load rs2: x24 = 0x24845216
    20b0:	000bac03          	lw	x24,0(x23)
    20b4:	004b8b93          	addi	x23,x23,4
  RVTEST_TESTDATA_LOAD_INT(x23, x31) # load branch taken value: x31 = 0x4cf9cbfa
    20b8:	000baf83          	lw	x31,0(x23)
    20bc:	004b8b93          	addi	x23,x23,4

000020c0 <I_blt_cg_cp_rs1_edges_0x55555555>:
I_blt_cg_cp_rs1_edges_0x55555555:
  blt x19, x24, 1f # perform operation
    20c0:	0189c463          	blt	x19,x24,20c8 <I_blt_cg_cp_rs1_edges_0x55555555+0x8>
  LI(x31, -1) # branch not taken, set temp_reg to 0
    20c4:	fff00f93          	addi	x31,x0,-1
1:
  # Check if x31 contains the expected result. x17 is the signature ptr, x5 is the link ptr, x4 is a temp reg.
  RVTEST_SIGUPD(x17, x5, x4, x31, I_blt_cg_cp_rs1_edges_0x55555555, I_blt_cg_cp_rs1_edges_0x55555555_str)
    20c8:	0008a203          	lw	x4,0(x17)
    20cc:	01f20863          	beq	x4,x31,20dc <I_blt_cg_cp_rs1_edges_0x55555555+0x1c>
    20d0:	7ad072ef          	jal	x5,a07c <failedtest_x5_x4>
    20d4:	000020c0          	.word	0x000020c0
    20d8:	0000d95a          	.word	0x0000d95a
    20dc:	00488893          	addi	x17,x17,4
/////////////////////////////////
// cp_rs2_edges
/////////////////////////////////

# Testcase cp_rs2_edges (Test source rs2 value = 0x00000000)
  RVTEST_TESTDATA_LOAD_INT(x23, x30) # load rs1: x30 = 0x0133c4cf
    20e0:	000baf03          	lw	x30,0(x23)
    20e4:	004b8b93          	addi	x23,x23,4
  RVTEST_TESTDATA_LOAD_INT(x23, x27) # load rs2: x27 = 0x00000000
    20e8:	000bad83          	lw	x27,0(x23)
    20ec:	004b8b93          	addi	x23,x23,4
  RVTEST_TESTDATA_LOAD_INT(x23, x8) # load branch taken value: x8 = 0xe817c7a3
    20f0:	000ba403          	lw	x8,0(x23)
    20f4:	004b8b93          	addi	x23,x23,4

000020f8 <I_blt_cg_cp_rs2_edges_0x0>:
I_blt_cg_cp_rs2_edges_0x0:
  blt x30, x27, 1f # perform operation
    20f8:	01bf4463          	blt	x30,x27,2100 <I_blt_cg_cp_rs2_edges_0x0+0x8>
  LI(x8, -1) # branch not taken, set temp_reg to 0
    20fc:	fff00413          	addi	x8,x0,-1
1:
  # Check if x8 contains the expected result. x17 is the signature ptr, x5 is the link ptr, x4 is a temp reg.
  RVTEST_SIGUPD(x17, x5, x4, x8, I_blt_cg_cp_rs2_edges_0x0, I_blt_cg_cp_rs2_edges_0x0_str)
    2100:	0008a203          	lw	x4,0(x17)
    2104:	00820863          	beq	x4,x8,2114 <I_blt_cg_cp_rs2_edges_0x0+0x1c>
    2108:	775072ef          	jal	x5,a07c <failedtest_x5_x4>
    210c:	000020f8          	.word	0x000020f8
    2110:	0000d996          	.word	0x0000d996
    2114:	00488893          	addi	x17,x17,4

# Testcase cp_rs2_edges (Test source rs2 value = 0x00000001)
  RVTEST_TESTDATA_LOAD_INT(x23, x26) # load rs1: x26 = 0xac9197fa
    2118:	000bad03          	lw	x26,0(x23)
    211c:	004b8b93          	addi	x23,x23,4
  RVTEST_TESTDATA_LOAD_INT(x23, x31) # load rs2: x31 = 0x00000001
    2120:	000baf83          	lw	x31,0(x23)
    2124:	004b8b93          	addi	x23,x23,4
  RVTEST_TESTDATA_LOAD_INT(x23, x1) # load branch taken value: x1 = 0x844db90d
    2128:	000ba083          	lw	x1,0(x23)
    212c:	004b8b93          	addi	x23,x23,4

00002130 <I_blt_cg_cp_rs2_edges_0x1>:
I_blt_cg_cp_rs2_edges_0x1:
  blt x26, x31, 1f # perform operation
    2130:	01fd4463          	blt	x26,x31,2138 <I_blt_cg_cp_rs2_edges_0x1+0x8>
  LI(x1, -1) # branch not taken, set temp_reg to 0
    2134:	fff00093          	addi	x1,x0,-1
1:
  # Check if x1 contains the expected result. x17 is the signature ptr, x5 is the link ptr, x4 is a temp reg.
  RVTEST_SIGUPD(x17, x5, x4, x1, I_blt_cg_cp_rs2_edges_0x1, I_blt_cg_cp_rs2_edges_0x1_str)
    2138:	0008a203          	lw	x4,0(x17)
    213c:	00120863          	beq	x4,x1,214c <I_blt_cg_cp_rs2_edges_0x1+0x1c>
    2140:	73d072ef          	jal	x5,a07c <failedtest_x5_x4>
    2144:	00002130          	.word	0x00002130
    2148:	0000d9cb          	.word	0x0000d9cb
    214c:	00488893          	addi	x17,x17,4

# Testcase cp_rs2_edges (Test source rs2 value = 0x00000002)
  RVTEST_TESTDATA_LOAD_INT(x23, x18) # load rs1: x18 = 0xcc615d11
    2150:	000ba903          	lw	x18,0(x23)
    2154:	004b8b93          	addi	x23,x23,4
  RVTEST_TESTDATA_LOAD_INT(x23, x15) # load rs2: x15 = 0x00000002
    2158:	000ba783          	lw	x15,0(x23)
    215c:	004b8b93          	addi	x23,x23,4
  RVTEST_TESTDATA_LOAD_INT(x23, x21) # load branch taken value: x21 = 0xda721035
    2160:	000baa83          	lw	x21,0(x23)
    2164:	004b8b93          	addi	x23,x23,4

00002168 <I_blt_cg_cp_rs2_edges_0x2>:
I_blt_cg_cp_rs2_edges_0x2:
  blt x18, x15, 1f # perform operation
    2168:	00f94463          	blt	x18,x15,2170 <I_blt_cg_cp_rs2_edges_0x2+0x8>
  LI(x21, -1) # branch not taken, set temp_reg to 0
    216c:	fff00a93          	addi	x21,x0,-1
1:
  # Check if x21 contains the expected result. x17 is the signature ptr, x5 is the link ptr, x4 is a temp reg.
  RVTEST_SIGUPD(x17, x5, x4, x21, I_blt_cg_cp_rs2_edges_0x2, I_blt_cg_cp_rs2_edges_0x2_str)
    2170:	0008a203          	lw	x4,0(x17)
    2174:	01520863          	beq	x4,x21,2184 <I_blt_cg_cp_rs2_edges_0x2+0x1c>
    2178:	705072ef          	jal	x5,a07c <failedtest_x5_x4>
    217c:	00002168          	.word	0x00002168
    2180:	0000da00          	.word	0x0000da00
    2184:	00488893          	addi	x17,x17,4

# Testcase cp_rs2_edges (Test source rs2 value = 0x80000000)
  RVTEST_TESTDATA_LOAD_INT(x23, x7) # load rs1: x7 = 0x4e7d92c8
    2188:	000ba383          	lw	x7,0(x23)
    218c:	004b8b93          	addi	x23,x23,4
  RVTEST_TESTDATA_LOAD_INT(x23, x31) # load rs2: x31 = 0x80000000
    2190:	000baf83          	lw	x31,0(x23)
    2194:	004b8b93          	addi	x23,x23,4
  RVTEST_TESTDATA_LOAD_INT(x23, x3) # load branch taken value: x3 = 0x1199de09
    2198:	000ba183          	lw	x3,0(x23)
    219c:	004b8b93          	addi	x23,x23,4

000021a0 <I_blt_cg_cp_rs2_edges_0x80000000>:
I_blt_cg_cp_rs2_edges_0x80000000:
  blt x7, x31, 1f # perform operation
    21a0:	01f3c463          	blt	x7,x31,21a8 <I_blt_cg_cp_rs2_edges_0x80000000+0x8>
  LI(x3, -1) # branch not taken, set temp_reg to 0
    21a4:	fff00193          	addi	x3,x0,-1
1:
  # Check if x3 contains the expected result. x17 is the signature ptr, x5 is the link ptr, x4 is a temp reg.
  RVTEST_SIGUPD(x17, x5, x4, x3, I_blt_cg_cp_rs2_edges_0x80000000, I_blt_cg_cp_rs2_edges_0x80000000_str)
    21a8:	0008a203          	lw	x4,0(x17)
    21ac:	00320863          	beq	x4,x3,21bc <I_blt_cg_cp_rs2_edges_0x80000000+0x1c>
    21b0:	6cd072ef          	jal	x5,a07c <failedtest_x5_x4>
    21b4:	000021a0          	.word	0x000021a0
    21b8:	0000da35          	.word	0x0000da35
    21bc:	00488893          	addi	x17,x17,4

# Testcase cp_rs2_edges (Test source rs2 value = 0x80000001)
  RVTEST_TESTDATA_LOAD_INT(x23, x1) # load rs1: x1 = 0x6627c7eb
    21c0:	000ba083          	lw	x1,0(x23)
    21c4:	004b8b93          	addi	x23,x23,4
  RVTEST_TESTDATA_LOAD_INT(x23, x27) # load rs2: x27 = 0x80000001
    21c8:	000bad83          	lw	x27,0(x23)
    21cc:	004b8b93          	addi	x23,x23,4
  RVTEST_TESTDATA_LOAD_INT(x23, x18) # load branch taken value: x18 = 0x015af38c
    21d0:	000ba903          	lw	x18,0(x23)
    21d4:	004b8b93          	addi	x23,x23,4

000021d8 <I_blt_cg_cp_rs2_edges_0x80000001>:
I_blt_cg_cp_rs2_edges_0x80000001:
  blt x1, x27, 1f # perform operation
    21d8:	01b0c463          	blt	x1,x27,21e0 <I_blt_cg_cp_rs2_edges_0x80000001+0x8>
  LI(x18, -1) # branch not taken, set temp_reg to 0
    21dc:	fff00913          	addi	x18,x0,-1
1:
  # Check if x18 contains the expected result. x17 is the signature ptr, x5 is the link ptr, x4 is a temp reg.
  RVTEST_SIGUPD(x17, x5, x4, x18, I_blt_cg_cp_rs2_edges_0x80000001, I_blt_cg_cp_rs2_edges_0x80000001_str)
    21e0:	0008a203          	lw	x4,0(x17)
    21e4:	01220863          	beq	x4,x18,21f4 <I_blt_cg_cp_rs2_edges_0x80000001+0x1c>
    21e8:	695072ef          	jal	x5,a07c <failedtest_x5_x4>
    21ec:	000021d8          	.word	0x000021d8
    21f0:	0000da71          	.word	0x0000da71
    21f4:	00488893          	addi	x17,x17,4

# Testcase cp_rs2_edges (Test source rs2 value = 0x7fffffff)
  RVTEST_TESTDATA_LOAD_INT(x23, x9) # load rs1: x9 = 0xeb79d1a6
    21f8:	000ba483          	lw	x9,0(x23)
    21fc:	004b8b93          	addi	x23,x23,4
  RVTEST_TESTDATA_LOAD_INT(x23, x16) # load rs2: x16 = 0x7fffffff
    2200:	000ba803          	lw	x16,0(x23)
    2204:	004b8b93          	addi	x23,x23,4
  RVTEST_TESTDATA_LOAD_INT(x23, x25) # load branch taken value: x25 = 0x7c82f7c0
    2208:	000bac83          	lw	x25,0(x23)
    220c:	004b8b93          	addi	x23,x23,4

00002210 <I_blt_cg_cp_rs2_edges_0x7fffffff>:
I_blt_cg_cp_rs2_edges_0x7fffffff:
  blt x9, x16, 1f # perform operation
    2210:	0104c463          	blt	x9,x16,2218 <I_blt_cg_cp_rs2_edges_0x7fffffff+0x8>
  LI(x25, -1) # branch not taken, set temp_reg to 0
    2214:	fff00c93          	addi	x25,x0,-1
1:
  # Check if x25 contains the expected result. x17 is the signature ptr, x5 is the link ptr, x4 is a temp reg.
  RVTEST_SIGUPD(x17, x5, x4, x25, I_blt_cg_cp_rs2_edges_0x7fffffff, I_blt_cg_cp_rs2_edges_0x7fffffff_str)
    2218:	0008a203          	lw	x4,0(x17)
    221c:	01920863          	beq	x4,x25,222c <I_blt_cg_cp_rs2_edges_0x7fffffff+0x1c>
    2220:	65d072ef          	jal	x5,a07c <failedtest_x5_x4>
    2224:	00002210          	.word	0x00002210
    2228:	0000daad          	.word	0x0000daad
    222c:	00488893          	addi	x17,x17,4

# Testcase cp_rs2_edges (Test source rs2 value = 0x7ffffffe)
  RVTEST_TESTDATA_LOAD_INT(x23, x27) # load rs1: x27 = 0x09da42c8
    2230:	000bad83          	lw	x27,0(x23)
    2234:	004b8b93          	addi	x23,x23,4
  RVTEST_TESTDATA_LOAD_INT(x23, x9) # load rs2: x9 = 0x7ffffffe
    2238:	000ba483          	lw	x9,0(x23)
    223c:	004b8b93          	addi	x23,x23,4
  RVTEST_TESTDATA_LOAD_INT(x23, x24) # load branch taken value: x24 = 0xfd94208d
    2240:	000bac03          	lw	x24,0(x23)
    2244:	004b8b93          	addi	x23,x23,4

00002248 <I_blt_cg_cp_rs2_edges_0x7ffffffe>:
I_blt_cg_cp_rs2_edges_0x7ffffffe:
  blt x27, x9, 1f # perform operation
    2248:	009dc463          	blt	x27,x9,2250 <I_blt_cg_cp_rs2_edges_0x7ffffffe+0x8>
  LI(x24, -1) # branch not taken, set temp_reg to 0
    224c:	fff00c13          	addi	x24,x0,-1
1:
  # Check if x24 contains the expected result. x17 is the signature ptr, x5 is the link ptr, x4 is a temp reg.
  RVTEST_SIGUPD(x17, x5, x4, x24, I_blt_cg_cp_rs2_edges_0x7ffffffe, I_blt_cg_cp_rs2_edges_0x7ffffffe_str)
    2250:	0008a203          	lw	x4,0(x17)
    2254:	01820863          	beq	x4,x24,2264 <I_blt_cg_cp_rs2_edges_0x7ffffffe+0x1c>
    2258:	625072ef          	jal	x5,a07c <failedtest_x5_x4>
    225c:	00002248          	.word	0x00002248
    2260:	0000dae9          	.word	0x0000dae9
    2264:	00488893          	addi	x17,x17,4

# Testcase cp_rs2_edges (Test source rs2 value = 0xffffffff)
  RVTEST_TESTDATA_LOAD_INT(x23, x25) # load rs1: x25 = 0x8dccbeed
    2268:	000bac83          	lw	x25,0(x23)
    226c:	004b8b93          	addi	x23,x23,4
  RVTEST_TESTDATA_LOAD_INT(x23, x10) # load rs2: x10 = 0xffffffff
    2270:	000ba503          	lw	x10,0(x23)
    2274:	004b8b93          	addi	x23,x23,4
  RVTEST_TESTDATA_LOAD_INT(x23, x28) # load branch taken value: x28 = 0x0fd29696
    2278:	000bae03          	lw	x28,0(x23)
    227c:	004b8b93          	addi	x23,x23,4

00002280 <I_blt_cg_cp_rs2_edges_0xffffffff>:
I_blt_cg_cp_rs2_edges_0xffffffff:
  blt x25, x10, 1f # perform operation
    2280:	00acc463          	blt	x25,x10,2288 <I_blt_cg_cp_rs2_edges_0xffffffff+0x8>
  LI(x28, -1) # branch not taken, set temp_reg to 0
    2284:	fff00e13          	addi	x28,x0,-1
1:
  # Check if x28 contains the expected result. x17 is the signature ptr, x5 is the link ptr, x4 is a temp reg.
  RVTEST_SIGUPD(x17, x5, x4, x28, I_blt_cg_cp_rs2_edges_0xffffffff, I_blt_cg_cp_rs2_edges_0xffffffff_str)
    2288:	0008a203          	lw	x4,0(x17)
    228c:	01c20863          	beq	x4,x28,229c <I_blt_cg_cp_rs2_edges_0xffffffff+0x1c>
    2290:	5ed072ef          	jal	x5,a07c <failedtest_x5_x4>
    2294:	00002280          	.word	0x00002280
    2298:	0000db25          	.word	0x0000db25
    229c:	00488893          	addi	x17,x17,4

# Testcase cp_rs2_edges (Test source rs2 value = 0xfffffffe)
  RVTEST_TESTDATA_LOAD_INT(x23, x13) # load rs1: x13 = 0xe8d20bf4
    22a0:	000ba683          	lw	x13,0(x23)
    22a4:	004b8b93          	addi	x23,x23,4
  RVTEST_TESTDATA_LOAD_INT(x23, x12) # load rs2: x12 = 0xfffffffe
    22a8:	000ba603          	lw	x12,0(x23)
    22ac:	004b8b93          	addi	x23,x23,4
  RVTEST_TESTDATA_LOAD_INT(x23, x22) # load branch taken value: x22 = 0xf47969ba
    22b0:	000bab03          	lw	x22,0(x23)
    22b4:	004b8b93          	addi	x23,x23,4

000022b8 <I_blt_cg_cp_rs2_edges_0xfffffffe>:
I_blt_cg_cp_rs2_edges_0xfffffffe:
  blt x13, x12, 1f # perform operation
    22b8:	00c6c463          	blt	x13,x12,22c0 <I_blt_cg_cp_rs2_edges_0xfffffffe+0x8>
  LI(x22, -1) # branch not taken, set temp_reg to 0
    22bc:	fff00b13          	addi	x22,x0,-1
1:
  # Check if x22 contains the expected result. x17 is the signature ptr, x5 is the link ptr, x4 is a temp reg.
  RVTEST_SIGUPD(x17, x5, x4, x22, I_blt_cg_cp_rs2_edges_0xfffffffe, I_blt_cg_cp_rs2_edges_0xfffffffe_str)
    22c0:	0008a203          	lw	x4,0(x17)
    22c4:	01620863          	beq	x4,x22,22d4 <I_blt_cg_cp_rs2_edges_0xfffffffe+0x1c>
    22c8:	5b5072ef          	jal	x5,a07c <failedtest_x5_x4>
    22cc:	000022b8          	.word	0x000022b8
    22d0:	0000db61          	.word	0x0000db61
    22d4:	00488893          	addi	x17,x17,4

# Testcase cp_rs2_edges (Test source rs2 value = 0x5bbc8872)
  RVTEST_TESTDATA_LOAD_INT(x23, x15) # load rs1: x15 = 0x27a481e3
    22d8:	000ba783          	lw	x15,0(x23)
    22dc:	004b8b93          	addi	x23,x23,4
  RVTEST_TESTDATA_LOAD_INT(x23, x30) # load rs2: x30 = 0x5bbc8872
    22e0:	000baf03          	lw	x30,0(x23)
    22e4:	004b8b93          	addi	x23,x23,4
  RVTEST_TESTDATA_LOAD_INT(x23, x22) # load branch taken value: x22 = 0x47d5c31b
    22e8:	000bab03          	lw	x22,0(x23)
    22ec:	004b8b93          	addi	x23,x23,4

000022f0 <I_blt_cg_cp_rs2_edges_0x5bbc8872>:
I_blt_cg_cp_rs2_edges_0x5bbc8872:
  blt x15, x30, 1f # perform operation
    22f0:	01e7c463          	blt	x15,x30,22f8 <I_blt_cg_cp_rs2_edges_0x5bbc8872+0x8>
  LI(x22, -1) # branch not taken, set temp_reg to 0
    22f4:	fff00b13          	addi	x22,x0,-1
1:
  # Check if x22 contains the expected result. x17 is the signature ptr, x5 is the link ptr, x4 is a temp reg.
  RVTEST_SIGUPD(x17, x5, x4, x22, I_blt_cg_cp_rs2_edges_0x5bbc8872, I_blt_cg_cp_rs2_edges_0x5bbc8872_str)
    22f8:	0008a203          	lw	x4,0(x17)
    22fc:	01620863          	beq	x4,x22,230c <I_blt_cg_cp_rs2_edges_0x5bbc8872+0x1c>
    2300:	57d072ef          	jal	x5,a07c <failedtest_x5_x4>
    2304:	000022f0          	.word	0x000022f0
    2308:	0000db9d          	.word	0x0000db9d
    230c:	00488893          	addi	x17,x17,4

# Testcase cp_rs2_edges (Test source rs2 value = 0xaaaaaaaa)
  RVTEST_TESTDATA_LOAD_INT(x23, x11) # load rs1: x11 = 0x251eb580
    2310:	000ba583          	lw	x11,0(x23)
    2314:	004b8b93          	addi	x23,x23,4
  RVTEST_TESTDATA_LOAD_INT(x23, x6) # load rs2: x6 = 0xaaaaaaaa
    2318:	000ba303          	lw	x6,0(x23)
    231c:	004b8b93          	addi	x23,x23,4
  RVTEST_TESTDATA_LOAD_INT(x23, x3) # load branch taken value: x3 = 0x6f83077f
    2320:	000ba183          	lw	x3,0(x23)
    2324:	004b8b93          	addi	x23,x23,4

00002328 <I_blt_cg_cp_rs2_edges_0xaaaaaaaa>:
I_blt_cg_cp_rs2_edges_0xaaaaaaaa:
  blt x11, x6, 1f # perform operation
    2328:	0065c463          	blt	x11,x6,2330 <I_blt_cg_cp_rs2_edges_0xaaaaaaaa+0x8>
  LI(x3, -1) # branch not taken, set temp_reg to 0
    232c:	fff00193          	addi	x3,x0,-1
1:
  # Check if x3 contains the expected result. x17 is the signature ptr, x5 is the link ptr, x4 is a temp reg.
  RVTEST_SIGUPD(x17, x5, x4, x3, I_blt_cg_cp_rs2_edges_0xaaaaaaaa, I_blt_cg_cp_rs2_edges_0xaaaaaaaa_str)
    2330:	0008a203          	lw	x4,0(x17)
    2334:	00320863          	beq	x4,x3,2344 <I_blt_cg_cp_rs2_edges_0xaaaaaaaa+0x1c>
    2338:	545072ef          	jal	x5,a07c <failedtest_x5_x4>
    233c:	00002328          	.word	0x00002328
    2340:	0000dbd9          	.word	0x0000dbd9
    2344:	00488893          	addi	x17,x17,4

# Testcase cp_rs2_edges (Test source rs2 value = 0x55555555)
  RVTEST_TESTDATA_LOAD_INT(x23, x12) # load rs1: x12 = 0xb6b95cc3
    2348:	000ba603          	lw	x12,0(x23)
    234c:	004b8b93          	addi	x23,x23,4
  RVTEST_TESTDATA_LOAD_INT(x23, x22) # load rs2: x22 = 0x55555555
    2350:	000bab03          	lw	x22,0(x23)
    2354:	004b8b93          	addi	x23,x23,4
  RVTEST_TESTDATA_LOAD_INT(x23, x10) # load branch taken value: x10 = 0x4d518ec6
    2358:	000ba503          	lw	x10,0(x23)
    235c:	004b8b93          	addi	x23,x23,4

00002360 <I_blt_cg_cp_rs2_edges_0x55555555>:
I_blt_cg_cp_rs2_edges_0x55555555:
  blt x12, x22, 1f # perform operation
    2360:	01664463          	blt	x12,x22,2368 <I_blt_cg_cp_rs2_edges_0x55555555+0x8>
  LI(x10, -1) # branch not taken, set temp_reg to 0
    2364:	fff00513          	addi	x10,x0,-1
1:
  # Check if x10 contains the expected result. x17 is the signature ptr, x5 is the link ptr, x4 is a temp reg.
  RVTEST_SIGUPD(x17, x5, x4, x10, I_blt_cg_cp_rs2_edges_0x55555555, I_blt_cg_cp_rs2_edges_0x55555555_str)
    2368:	0008a203          	lw	x4,0(x17)
    236c:	00a20863          	beq	x4,x10,237c <I_blt_cg_cp_rs2_edges_0x55555555+0x1c>
    2370:	50d072ef          	jal	x5,a07c <failedtest_x5_x4>
    2374:	00002360          	.word	0x00002360
    2378:	0000dc15          	.word	0x0000dc15
    237c:	00488893          	addi	x17,x17,4
/////////////////////////////////
// cr_rs1_rs2_edges_offset
/////////////////////////////////

# cr_rs1_rs2_edges_offset (Test source rs1 = 0x00000000 rs2 = 0x00000000)
  RVTEST_TESTDATA_LOAD_INT(x23, x30) # load rs1: x30 = 0x00000000
    2380:	000baf03          	lw	x30,0(x23)
    2384:	004b8b93          	addi	x23,x23,4
  RVTEST_TESTDATA_LOAD_INT(x23, x22) # load rs2: x22 = 0x00000000
    2388:	000bab03          	lw	x22,0(x23)
    238c:	004b8b93          	addi	x23,x23,4

00002390 <I_blt_cg_cr_rs1_rs2_edges_offset_rs1val_0x0_rs2val_0x0>:
0: # destination for backwards branch that is never taken
I_blt_cg_cr_rs1_rs2_edges_offset_rs1val_0x0_rs2val_0x0:
  blt x30, x22, 3f # forward branch, if taken
    2390:	056f4263          	blt	x30,x22,23d4 <I_blt_cg_cr_rs1_rs2_edges_offset_rs1val_0x0_rs2val_0x0+0x44>
1: # goes here if not taken
  blt x30, x22, 0b # backward branch, never taken
    2394:	ff6f4ee3          	blt	x30,x22,2390 <I_blt_cg_cr_rs1_rs2_edges_offset_rs1val_0x0_rs2val_0x0>
  # Check if x0 contains the expected result. x17 is the signature ptr, x5 is the link ptr, x4 is a temp reg.
  RVTEST_SIGUPD(x17, x5, x4, x0, I_blt_cg_cr_rs1_rs2_edges_offset_rs1val_0x0_rs2val_0x0, I_blt_cg_cr_rs1_rs2_edges_offset_rs1val_0x0_rs2val_0x0_str)
    2398:	0008a203          	lw	x4,0(x17)
    239c:	00020863          	beq	x4,x0,23ac <I_blt_cg_cr_rs1_rs2_edges_offset_rs1val_0x0_rs2val_0x0+0x1c>
    23a0:	4dd072ef          	jal	x5,a07c <failedtest_x5_x4>
    23a4:	00002390          	.word	0x00002390
    23a8:	0000dc51          	.word	0x0000dc51
    23ac:	00488893          	addi	x17,x17,4
  j 4f # done with test
    23b0:	0280006f          	jal	x0,23d8 <I_blt_cg_cr_rs1_rs2_edges_offset_rs1val_0x0_rs2val_0x0+0x48>
2: # goes here during backward branch if taken
  LI(x30, 1)
    23b4:	00100f13          	addi	x30,x0,1
  # Check if x30 contains the expected result. x17 is the signature ptr, x5 is the link ptr, x4 is a temp reg.
  RVTEST_SIGUPD(x17, x5, x4, x30, I_blt_cg_cr_rs1_rs2_edges_offset_rs1val_0x0_rs2val_0x0, I_blt_cg_cr_rs1_rs2_edges_offset_rs1val_0x0_rs2val_0x0_str) # signature 1 for taken
    23b8:	0008a203          	lw	x4,0(x17)
    23bc:	01e20863          	beq	x4,x30,23cc <I_blt_cg_cr_rs1_rs2_edges_offset_rs1val_0x0_rs2val_0x0+0x3c>
    23c0:	4bd072ef          	jal	x5,a07c <failedtest_x5_x4>
    23c4:	00002390          	.word	0x00002390
    23c8:	0000dc51          	.word	0x0000dc51
    23cc:	00488893          	addi	x17,x17,4
  j 4f # done with test
    23d0:	0080006f          	jal	x0,23d8 <I_blt_cg_cr_rs1_rs2_edges_offset_rs1val_0x0_rs2val_0x0+0x48>
3: # goes here during forward branch if taken
  blt x30, x22, 2b # backward branch, definitely taken
    23d4:	ff6f40e3          	blt	x30,x22,23b4 <I_blt_cg_cr_rs1_rs2_edges_offset_rs1val_0x0_rs2val_0x0+0x24>
4: # done with test

# cr_rs1_rs2_edges_offset (Test source rs1 = 0x00000000 rs2 = 0x00000001)
  RVTEST_TESTDATA_LOAD_INT(x23, x7) # load rs1: x7 = 0x00000000
    23d8:	000ba383          	lw	x7,0(x23)
    23dc:	004b8b93          	addi	x23,x23,4
  RVTEST_TESTDATA_LOAD_INT(x23, x19) # load rs2: x19 = 0x00000001
    23e0:	000ba983          	lw	x19,0(x23)
    23e4:	004b8b93          	addi	x23,x23,4

000023e8 <I_blt_cg_cr_rs1_rs2_edges_offset_rs1val_0x0_rs2val_0x1>:
0: # destination for backwards branch that is never taken
I_blt_cg_cr_rs1_rs2_edges_offset_rs1val_0x0_rs2val_0x1:
  blt x7, x19, 3f # forward branch, if taken
    23e8:	0533c263          	blt	x7,x19,242c <I_blt_cg_cr_rs1_rs2_edges_offset_rs1val_0x0_rs2val_0x1+0x44>
1: # goes here if not taken
  blt x7, x19, 0b # backward branch, never taken
    23ec:	ff33cee3          	blt	x7,x19,23e8 <I_blt_cg_cr_rs1_rs2_edges_offset_rs1val_0x0_rs2val_0x1>
  # Check if x0 contains the expected result. x17 is the signature ptr, x5 is the link ptr, x4 is a temp reg.
  RVTEST_SIGUPD(x17, x5, x4, x0, I_blt_cg_cr_rs1_rs2_edges_offset_rs1val_0x0_rs2val_0x1, I_blt_cg_cr_rs1_rs2_edges_offset_rs1val_0x0_rs2val_0x1_str)
    23f0:	0008a203          	lw	x4,0(x17)
    23f4:	00020863          	beq	x4,x0,2404 <I_blt_cg_cr_rs1_rs2_edges_offset_rs1val_0x0_rs2val_0x1+0x1c>
    23f8:	485072ef          	jal	x5,a07c <failedtest_x5_x4>
    23fc:	000023e8          	.word	0x000023e8
    2400:	0000dca4          	.word	0x0000dca4
    2404:	00488893          	addi	x17,x17,4
  j 4f # done with test
    2408:	0280006f          	jal	x0,2430 <I_blt_cg_cr_rs1_rs2_edges_offset_rs1val_0x0_rs2val_0x1+0x48>
2: # goes here during backward branch if taken
  LI(x7, 1)
    240c:	00100393          	addi	x7,x0,1
  # Check if x7 contains the expected result. x17 is the signature ptr, x5 is the link ptr, x4 is a temp reg.
  RVTEST_SIGUPD(x17, x5, x4, x7, I_blt_cg_cr_rs1_rs2_edges_offset_rs1val_0x0_rs2val_0x1, I_blt_cg_cr_rs1_rs2_edges_offset_rs1val_0x0_rs2val_0x1_str) # signature 1 for taken
    2410:	0008a203          	lw	x4,0(x17)
    2414:	00720863          	beq	x4,x7,2424 <I_blt_cg_cr_rs1_rs2_edges_offset_rs1val_0x0_rs2val_0x1+0x3c>
    2418:	465072ef          	jal	x5,a07c <failedtest_x5_x4>
    241c:	000023e8          	.word	0x000023e8
    2420:	0000dca4          	.word	0x0000dca4
    2424:	00488893          	addi	x17,x17,4
  j 4f # done with test
    2428:	0080006f          	jal	x0,2430 <I_blt_cg_cr_rs1_rs2_edges_offset_rs1val_0x0_rs2val_0x1+0x48>
3: # goes here during forward branch if taken
  blt x7, x19, 2b # backward branch, definitely taken
    242c:	ff33c0e3          	blt	x7,x19,240c <I_blt_cg_cr_rs1_rs2_edges_offset_rs1val_0x0_rs2val_0x1+0x24>
4: # done with test

# cr_rs1_rs2_edges_offset (Test source rs1 = 0x00000000 rs2 = 0x00000002)
  RVTEST_TESTDATA_LOAD_INT(x23, x2) # load rs1: x2 = 0x00000000
    2430:	000ba103          	lw	x2,0(x23)
    2434:	004b8b93          	addi	x23,x23,4
  RVTEST_TESTDATA_LOAD_INT(x23, x7) # load rs2: x7 = 0x00000002
    2438:	000ba383          	lw	x7,0(x23)
    243c:	004b8b93          	addi	x23,x23,4

00002440 <I_blt_cg_cr_rs1_rs2_edges_offset_rs1val_0x0_rs2val_0x2>:
0: # destination for backwards branch that is never taken
I_blt_cg_cr_rs1_rs2_edges_offset_rs1val_0x0_rs2val_0x2:
  blt x2, x7, 3f # forward branch, if taken
    2440:	04714263          	blt	x2,x7,2484 <I_blt_cg_cr_rs1_rs2_edges_offset_rs1val_0x0_rs2val_0x2+0x44>
1: # goes here if not taken
  blt x2, x7, 0b # backward branch, never taken
    2444:	fe714ee3          	blt	x2,x7,2440 <I_blt_cg_cr_rs1_rs2_edges_offset_rs1val_0x0_rs2val_0x2>
  # Check if x0 contains the expected result. x17 is the signature ptr, x5 is the link ptr, x4 is a temp reg.
  RVTEST_SIGUPD(x17, x5, x4, x0, I_blt_cg_cr_rs1_rs2_edges_offset_rs1val_0x0_rs2val_0x2, I_blt_cg_cr_rs1_rs2_edges_offset_rs1val_0x0_rs2val_0x2_str)
    2448:	0008a203          	lw	x4,0(x17)
    244c:	00020863          	beq	x4,x0,245c <I_blt_cg_cr_rs1_rs2_edges_offset_rs1val_0x0_rs2val_0x2+0x1c>
    2450:	42d072ef          	jal	x5,a07c <failedtest_x5_x4>
    2454:	00002440          	.word	0x00002440
    2458:	0000dcf7          	.word	0x0000dcf7
    245c:	00488893          	addi	x17,x17,4
  j 4f # done with test
    2460:	0280006f          	jal	x0,2488 <I_blt_cg_cr_rs1_rs2_edges_offset_rs1val_0x0_rs2val_0x2+0x48>
2: # goes here during backward branch if taken
  LI(x2, 1)
    2464:	00100113          	addi	x2,x0,1
  # Check if x2 contains the expected result. x17 is the signature ptr, x5 is the link ptr, x4 is a temp reg.
  RVTEST_SIGUPD(x17, x5, x4, x2, I_blt_cg_cr_rs1_rs2_edges_offset_rs1val_0x0_rs2val_0x2, I_blt_cg_cr_rs1_rs2_edges_offset_rs1val_0x0_rs2val_0x2_str) # signature 1 for taken
    2468:	0008a203          	lw	x4,0(x17)
    246c:	00220863          	beq	x4,x2,247c <I_blt_cg_cr_rs1_rs2_edges_offset_rs1val_0x0_rs2val_0x2+0x3c>
    2470:	40d072ef          	jal	x5,a07c <failedtest_x5_x4>
    2474:	00002440          	.word	0x00002440
    2478:	0000dcf7          	.word	0x0000dcf7
    247c:	00488893          	addi	x17,x17,4
  j 4f # done with test
    2480:	0080006f          	jal	x0,2488 <I_blt_cg_cr_rs1_rs2_edges_offset_rs1val_0x0_rs2val_0x2+0x48>
3: # goes here during forward branch if taken
  blt x2, x7, 2b # backward branch, definitely taken
    2484:	fe7140e3          	blt	x2,x7,2464 <I_blt_cg_cr_rs1_rs2_edges_offset_rs1val_0x0_rs2val_0x2+0x24>
4: # done with test

# cr_rs1_rs2_edges_offset (Test source rs1 = 0x00000000 rs2 = 0x80000000)
  RVTEST_TESTDATA_LOAD_INT(x23, x16) # load rs1: x16 = 0x00000000
    2488:	000ba803          	lw	x16,0(x23)
    248c:	004b8b93          	addi	x23,x23,4
  RVTEST_TESTDATA_LOAD_INT(x23, x1) # load rs2: x1 = 0x80000000
    2490:	000ba083          	lw	x1,0(x23)
    2494:	004b8b93          	addi	x23,x23,4

00002498 <I_blt_cg_cr_rs1_rs2_edges_offset_rs1val_0x0_rs2val_0x80000000>:
0: # destination for backwards branch that is never taken
I_blt_cg_cr_rs1_rs2_edges_offset_rs1val_0x0_rs2val_0x80000000:
  blt x16, x1, 3f # forward branch, if taken
    2498:	04184263          	blt	x16,x1,24dc <I_blt_cg_cr_rs1_rs2_edges_offset_rs1val_0x0_rs2val_0x80000000+0x44>
1: # goes here if not taken
  blt x16, x1, 0b # backward branch, never taken
    249c:	fe184ee3          	blt	x16,x1,2498 <I_blt_cg_cr_rs1_rs2_edges_offset_rs1val_0x0_rs2val_0x80000000>
  # Check if x0 contains the expected result. x17 is the signature ptr, x5 is the link ptr, x4 is a temp reg.
  RVTEST_SIGUPD(x17, x5, x4, x0, I_blt_cg_cr_rs1_rs2_edges_offset_rs1val_0x0_rs2val_0x80000000, I_blt_cg_cr_rs1_rs2_edges_offset_rs1val_0x0_rs2val_0x80000000_str)
    24a0:	0008a203          	lw	x4,0(x17)
    24a4:	00020863          	beq	x4,x0,24b4 <I_blt_cg_cr_rs1_rs2_edges_offset_rs1val_0x0_rs2val_0x80000000+0x1c>
    24a8:	3d5072ef          	jal	x5,a07c <failedtest_x5_x4>
    24ac:	00002498          	.word	0x00002498
    24b0:	0000dd4a          	.word	0x0000dd4a
    24b4:	00488893          	addi	x17,x17,4
  j 4f # done with test
    24b8:	0280006f          	jal	x0,24e0 <I_blt_cg_cr_rs1_rs2_edges_offset_rs1val_0x0_rs2val_0x80000000+0x48>
2: # goes here during backward branch if taken
  LI(x16, 1)
    24bc:	00100813          	addi	x16,x0,1
  # Check if x16 contains the expected result. x17 is the signature ptr, x5 is the link ptr, x4 is a temp reg.
  RVTEST_SIGUPD(x17, x5, x4, x16, I_blt_cg_cr_rs1_rs2_edges_offset_rs1val_0x0_rs2val_0x80000000, I_blt_cg_cr_rs1_rs2_edges_offset_rs1val_0x0_rs2val_0x80000000_str) # signature 1 for taken
    24c0:	0008a203          	lw	x4,0(x17)
    24c4:	01020863          	beq	x4,x16,24d4 <I_blt_cg_cr_rs1_rs2_edges_offset_rs1val_0x0_rs2val_0x80000000+0x3c>
    24c8:	3b5072ef          	jal	x5,a07c <failedtest_x5_x4>
    24cc:	00002498          	.word	0x00002498
    24d0:	0000dd4a          	.word	0x0000dd4a
    24d4:	00488893          	addi	x17,x17,4
  j 4f # done with test
    24d8:	0080006f          	jal	x0,24e0 <I_blt_cg_cr_rs1_rs2_edges_offset_rs1val_0x0_rs2val_0x80000000+0x48>
3: # goes here during forward branch if taken
  blt x16, x1, 2b # backward branch, definitely taken
    24dc:	fe1840e3          	blt	x16,x1,24bc <I_blt_cg_cr_rs1_rs2_edges_offset_rs1val_0x0_rs2val_0x80000000+0x24>
4: # done with test

# cr_rs1_rs2_edges_offset (Test source rs1 = 0x00000000 rs2 = 0x80000001)
  RVTEST_TESTDATA_LOAD_INT(x23, x28) # load rs1: x28 = 0x00000000
    24e0:	000bae03          	lw	x28,0(x23)
    24e4:	004b8b93          	addi	x23,x23,4
  RVTEST_TESTDATA_LOAD_INT(x23, x14) # load rs2: x14 = 0x80000001
    24e8:	000ba703          	lw	x14,0(x23)
    24ec:	004b8b93          	addi	x23,x23,4

000024f0 <I_blt_cg_cr_rs1_rs2_edges_offset_rs1val_0x0_rs2val_0x80000001>:
0: # destination for backwards branch that is never taken
I_blt_cg_cr_rs1_rs2_edges_offset_rs1val_0x0_rs2val_0x80000001:
  blt x28, x14, 3f # forward branch, if taken
    24f0:	04ee4263          	blt	x28,x14,2534 <I_blt_cg_cr_rs1_rs2_edges_offset_rs1val_0x0_rs2val_0x80000001+0x44>
1: # goes here if not taken
  blt x28, x14, 0b # backward branch, never taken
    24f4:	feee4ee3          	blt	x28,x14,24f0 <I_blt_cg_cr_rs1_rs2_edges_offset_rs1val_0x0_rs2val_0x80000001>
  # Check if x0 contains the expected result. x17 is the signature ptr, x5 is the link ptr, x4 is a temp reg.
  RVTEST_SIGUPD(x17, x5, x4, x0, I_blt_cg_cr_rs1_rs2_edges_offset_rs1val_0x0_rs2val_0x80000001, I_blt_cg_cr_rs1_rs2_edges_offset_rs1val_0x0_rs2val_0x80000001_str)
    24f8:	0008a203          	lw	x4,0(x17)
    24fc:	00020863          	beq	x4,x0,250c <I_blt_cg_cr_rs1_rs2_edges_offset_rs1val_0x0_rs2val_0x80000001+0x1c>
    2500:	37d072ef          	jal	x5,a07c <failedtest_x5_x4>
    2504:	000024f0          	.word	0x000024f0
    2508:	0000dda4          	.word	0x0000dda4
    250c:	00488893          	addi	x17,x17,4
  j 4f # done with test
    2510:	0280006f          	jal	x0,2538 <I_blt_cg_cr_rs1_rs2_edges_offset_rs1val_0x0_rs2val_0x80000001+0x48>
2: # goes here during backward branch if taken
  LI(x28, 1)
    2514:	00100e13          	addi	x28,x0,1
  # Check if x28 contains the expected result. x17 is the signature ptr, x5 is the link ptr, x4 is a temp reg.
  RVTEST_SIGUPD(x17, x5, x4, x28, I_blt_cg_cr_rs1_rs2_edges_offset_rs1val_0x0_rs2val_0x80000001, I_blt_cg_cr_rs1_rs2_edges_offset_rs1val_0x0_rs2val_0x80000001_str) # signature 1 for taken
    2518:	0008a203          	lw	x4,0(x17)
    251c:	01c20863          	beq	x4,x28,252c <I_blt_cg_cr_rs1_rs2_edges_offset_rs1val_0x0_rs2val_0x80000001+0x3c>
    2520:	35d072ef          	jal	x5,a07c <failedtest_x5_x4>
    2524:	000024f0          	.word	0x000024f0
    2528:	0000dda4          	.word	0x0000dda4
    252c:	00488893          	addi	x17,x17,4
  j 4f # done with test
    2530:	0080006f          	jal	x0,2538 <I_blt_cg_cr_rs1_rs2_edges_offset_rs1val_0x0_rs2val_0x80000001+0x48>
3: # goes here during forward branch if taken
  blt x28, x14, 2b # backward branch, definitely taken
    2534:	feee40e3          	blt	x28,x14,2514 <I_blt_cg_cr_rs1_rs2_edges_offset_rs1val_0x0_rs2val_0x80000001+0x24>
4: # done with test

# cr_rs1_rs2_edges_offset (Test source rs1 = 0x00000000 rs2 = 0x7fffffff)
  RVTEST_TESTDATA_LOAD_INT(x23, x6) # load rs1: x6 = 0x00000000
    2538:	000ba303          	lw	x6,0(x23)
    253c:	004b8b93          	addi	x23,x23,4
  RVTEST_TESTDATA_LOAD_INT(x23, x30) # load rs2: x30 = 0x7fffffff
    2540:	000baf03          	lw	x30,0(x23)
    2544:	004b8b93          	addi	x23,x23,4

00002548 <I_blt_cg_cr_rs1_rs2_edges_offset_rs1val_0x0_rs2val_0x7fffffff>:
0: # destination for backwards branch that is never taken
I_blt_cg_cr_rs1_rs2_edges_offset_rs1val_0x0_rs2val_0x7fffffff:
  blt x6, x30, 3f # forward branch, if taken
    2548:	05e34263          	blt	x6,x30,258c <I_blt_cg_cr_rs1_rs2_edges_offset_rs1val_0x0_rs2val_0x7fffffff+0x44>
1: # goes here if not taken
  blt x6, x30, 0b # backward branch, never taken
    254c:	ffe34ee3          	blt	x6,x30,2548 <I_blt_cg_cr_rs1_rs2_edges_offset_rs1val_0x0_rs2val_0x7fffffff>
  # Check if x0 contains the expected result. x17 is the signature ptr, x5 is the link ptr, x4 is a temp reg.
  RVTEST_SIGUPD(x17, x5, x4, x0, I_blt_cg_cr_rs1_rs2_edges_offset_rs1val_0x0_rs2val_0x7fffffff, I_blt_cg_cr_rs1_rs2_edges_offset_rs1val_0x0_rs2val_0x7fffffff_str)
    2550:	0008a203          	lw	x4,0(x17)
    2554:	00020863          	beq	x4,x0,2564 <I_blt_cg_cr_rs1_rs2_edges_offset_rs1val_0x0_rs2val_0x7fffffff+0x1c>
    2558:	325072ef          	jal	x5,a07c <failedtest_x5_x4>
    255c:	00002548          	.word	0x00002548
    2560:	0000ddfe          	.word	0x0000ddfe
    2564:	00488893          	addi	x17,x17,4
  j 4f # done with test
    2568:	0280006f          	jal	x0,2590 <I_blt_cg_cr_rs1_rs2_edges_offset_rs1val_0x0_rs2val_0x7fffffff+0x48>
2: # goes here during backward branch if taken
  LI(x6, 1)
    256c:	00100313          	addi	x6,x0,1
  # Check if x6 contains the expected result. x17 is the signature ptr, x5 is the link ptr, x4 is a temp reg.
  RVTEST_SIGUPD(x17, x5, x4, x6, I_blt_cg_cr_rs1_rs2_edges_offset_rs1val_0x0_rs2val_0x7fffffff, I_blt_cg_cr_rs1_rs2_edges_offset_rs1val_0x0_rs2val_0x7fffffff_str) # signature 1 for taken
    2570:	0008a203          	lw	x4,0(x17)
    2574:	00620863          	beq	x4,x6,2584 <I_blt_cg_cr_rs1_rs2_edges_offset_rs1val_0x0_rs2val_0x7fffffff+0x3c>
    2578:	305072ef          	jal	x5,a07c <failedtest_x5_x4>
    257c:	00002548          	.word	0x00002548
    2580:	0000ddfe          	.word	0x0000ddfe
    2584:	00488893          	addi	x17,x17,4
  j 4f # done with test
    2588:	0080006f          	jal	x0,2590 <I_blt_cg_cr_rs1_rs2_edges_offset_rs1val_0x0_rs2val_0x7fffffff+0x48>
3: # goes here during forward branch if taken
  blt x6, x30, 2b # backward branch, definitely taken
    258c:	ffe340e3          	blt	x6,x30,256c <I_blt_cg_cr_rs1_rs2_edges_offset_rs1val_0x0_rs2val_0x7fffffff+0x24>
4: # done with test

# cr_rs1_rs2_edges_offset (Test source rs1 = 0x00000000 rs2 = 0x7ffffffe)
  RVTEST_TESTDATA_LOAD_INT(x23, x21) # load rs1: x21 = 0x00000000
    2590:	000baa83          	lw	x21,0(x23)
    2594:	004b8b93          	addi	x23,x23,4
  RVTEST_TESTDATA_LOAD_INT(x23, x31) # load rs2: x31 = 0x7ffffffe
    2598:	000baf83          	lw	x31,0(x23)
    259c:	004b8b93          	addi	x23,x23,4

000025a0 <I_blt_cg_cr_rs1_rs2_edges_offset_rs1val_0x0_rs2val_0x7ffffffe>:
0: # destination for backwards branch that is never taken
I_blt_cg_cr_rs1_rs2_edges_offset_rs1val_0x0_rs2val_0x7ffffffe:
  blt x21, x31, 3f # forward branch, if taken
    25a0:	05fac263          	blt	x21,x31,25e4 <I_blt_cg_cr_rs1_rs2_edges_offset_rs1val_0x0_rs2val_0x7ffffffe+0x44>
1: # goes here if not taken
  blt x21, x31, 0b # backward branch, never taken
    25a4:	fffacee3          	blt	x21,x31,25a0 <I_blt_cg_cr_rs1_rs2_edges_offset_rs1val_0x0_rs2val_0x7ffffffe>
  # Check if x0 contains the expected result. x17 is the signature ptr, x5 is the link ptr, x4 is a temp reg.
  RVTEST_SIGUPD(x17, x5, x4, x0, I_blt_cg_cr_rs1_rs2_edges_offset_rs1val_0x0_rs2val_0x7ffffffe, I_blt_cg_cr_rs1_rs2_edges_offset_rs1val_0x0_rs2val_0x7ffffffe_str)
    25a8:	0008a203          	lw	x4,0(x17)
    25ac:	00020863          	beq	x4,x0,25bc <I_blt_cg_cr_rs1_rs2_edges_offset_rs1val_0x0_rs2val_0x7ffffffe+0x1c>
    25b0:	2cd072ef          	jal	x5,a07c <failedtest_x5_x4>
    25b4:	000025a0          	.word	0x000025a0
    25b8:	0000de58          	.word	0x0000de58
    25bc:	00488893          	addi	x17,x17,4
  j 4f # done with test
    25c0:	0280006f          	jal	x0,25e8 <I_blt_cg_cr_rs1_rs2_edges_offset_rs1val_0x0_rs2val_0x7ffffffe+0x48>
2: # goes here during backward branch if taken
  LI(x21, 1)
    25c4:	00100a93          	addi	x21,x0,1
  # Check if x21 contains the expected result. x17 is the signature ptr, x5 is the link ptr, x4 is a temp reg.
  RVTEST_SIGUPD(x17, x5, x4, x21, I_blt_cg_cr_rs1_rs2_edges_offset_rs1val_0x0_rs2val_0x7ffffffe, I_blt_cg_cr_rs1_rs2_edges_offset_rs1val_0x0_rs2val_0x7ffffffe_str) # signature 1 for taken
    25c8:	0008a203          	lw	x4,0(x17)
    25cc:	01520863          	beq	x4,x21,25dc <I_blt_cg_cr_rs1_rs2_edges_offset_rs1val_0x0_rs2val_0x7ffffffe+0x3c>
    25d0:	2ad072ef          	jal	x5,a07c <failedtest_x5_x4>
    25d4:	000025a0          	.word	0x000025a0
    25d8:	0000de58          	.word	0x0000de58
    25dc:	00488893          	addi	x17,x17,4
  j 4f # done with test
    25e0:	0080006f          	jal	x0,25e8 <I_blt_cg_cr_rs1_rs2_edges_offset_rs1val_0x0_rs2val_0x7ffffffe+0x48>
3: # goes here during forward branch if taken
  blt x21, x31, 2b # backward branch, definitely taken
    25e4:	fffac0e3          	blt	x21,x31,25c4 <I_blt_cg_cr_rs1_rs2_edges_offset_rs1val_0x0_rs2val_0x7ffffffe+0x24>
4: # done with test

# cr_rs1_rs2_edges_offset (Test source rs1 = 0x00000000 rs2 = 0xffffffff)
  RVTEST_TESTDATA_LOAD_INT(x23, x6) # load rs1: x6 = 0x00000000
    25e8:	000ba303          	lw	x6,0(x23)
    25ec:	004b8b93          	addi	x23,x23,4
  RVTEST_TESTDATA_LOAD_INT(x23, x9) # load rs2: x9 = 0xffffffff
    25f0:	000ba483          	lw	x9,0(x23)
    25f4:	004b8b93          	addi	x23,x23,4

000025f8 <I_blt_cg_cr_rs1_rs2_edges_offset_rs1val_0x0_rs2val_0xffffffff>:
0: # destination for backwards branch that is never taken
I_blt_cg_cr_rs1_rs2_edges_offset_rs1val_0x0_rs2val_0xffffffff:
  blt x6, x9, 3f # forward branch, if taken
    25f8:	04934263          	blt	x6,x9,263c <I_blt_cg_cr_rs1_rs2_edges_offset_rs1val_0x0_rs2val_0xffffffff+0x44>
1: # goes here if not taken
  blt x6, x9, 0b # backward branch, never taken
    25fc:	fe934ee3          	blt	x6,x9,25f8 <I_blt_cg_cr_rs1_rs2_edges_offset_rs1val_0x0_rs2val_0xffffffff>
  # Check if x0 contains the expected result. x17 is the signature ptr, x5 is the link ptr, x4 is a temp reg.
  RVTEST_SIGUPD(x17, x5, x4, x0, I_blt_cg_cr_rs1_rs2_edges_offset_rs1val_0x0_rs2val_0xffffffff, I_blt_cg_cr_rs1_rs2_edges_offset_rs1val_0x0_rs2val_0xffffffff_str)
    2600:	0008a203          	lw	x4,0(x17)
    2604:	00020863          	beq	x4,x0,2614 <I_blt_cg_cr_rs1_rs2_edges_offset_rs1val_0x0_rs2val_0xffffffff+0x1c>
    2608:	275072ef          	jal	x5,a07c <failedtest_x5_x4>
    260c:	000025f8          	.word	0x000025f8
    2610:	0000deb2          	.word	0x0000deb2
    2614:	00488893          	addi	x17,x17,4
  j 4f # done with test
    2618:	0280006f          	jal	x0,2640 <I_blt_cg_cr_rs1_rs2_edges_offset_rs1val_0x0_rs2val_0xffffffff+0x48>
2: # goes here during backward branch if taken
  LI(x6, 1)
    261c:	00100313          	addi	x6,x0,1
  # Check if x6 contains the expected result. x17 is the signature ptr, x5 is the link ptr, x4 is a temp reg.
  RVTEST_SIGUPD(x17, x5, x4, x6, I_blt_cg_cr_rs1_rs2_edges_offset_rs1val_0x0_rs2val_0xffffffff, I_blt_cg_cr_rs1_rs2_edges_offset_rs1val_0x0_rs2val_0xffffffff_str) # signature 1 for taken
    2620:	0008a203          	lw	x4,0(x17)
    2624:	00620863          	beq	x4,x6,2634 <I_blt_cg_cr_rs1_rs2_edges_offset_rs1val_0x0_rs2val_0xffffffff+0x3c>
    2628:	255072ef          	jal	x5,a07c <failedtest_x5_x4>
    262c:	000025f8          	.word	0x000025f8
    2630:	0000deb2          	.word	0x0000deb2
    2634:	00488893          	addi	x17,x17,4
  j 4f # done with test
    2638:	0080006f          	jal	x0,2640 <I_blt_cg_cr_rs1_rs2_edges_offset_rs1val_0x0_rs2val_0xffffffff+0x48>
3: # goes here during forward branch if taken
  blt x6, x9, 2b # backward branch, definitely taken
    263c:	fe9340e3          	blt	x6,x9,261c <I_blt_cg_cr_rs1_rs2_edges_offset_rs1val_0x0_rs2val_0xffffffff+0x24>
4: # done with test

# cr_rs1_rs2_edges_offset (Test source rs1 = 0x00000000 rs2 = 0xfffffffe)
  RVTEST_TESTDATA_LOAD_INT(x23, x9) # load rs1: x9 = 0x00000000
    2640:	000ba483          	lw	x9,0(x23)
    2644:	004b8b93          	addi	x23,x23,4
  RVTEST_TESTDATA_LOAD_INT(x23, x27) # load rs2: x27 = 0xfffffffe
    2648:	000bad83          	lw	x27,0(x23)
    264c:	004b8b93          	addi	x23,x23,4

00002650 <I_blt_cg_cr_rs1_rs2_edges_offset_rs1val_0x0_rs2val_0xfffffffe>:
0: # destination for backwards branch that is never taken
I_blt_cg_cr_rs1_rs2_edges_offset_rs1val_0x0_rs2val_0xfffffffe:
  blt x9, x27, 3f # forward branch, if taken
    2650:	05b4c263          	blt	x9,x27,2694 <I_blt_cg_cr_rs1_rs2_edges_offset_rs1val_0x0_rs2val_0xfffffffe+0x44>
1: # goes here if not taken
  blt x9, x27, 0b # backward branch, never taken
    2654:	ffb4cee3          	blt	x9,x27,2650 <I_blt_cg_cr_rs1_rs2_edges_offset_rs1val_0x0_rs2val_0xfffffffe>
  # Check if x0 contains the expected result. x17 is the signature ptr, x5 is the link ptr, x4 is a temp reg.
  RVTEST_SIGUPD(x17, x5, x4, x0, I_blt_cg_cr_rs1_rs2_edges_offset_rs1val_0x0_rs2val_0xfffffffe, I_blt_cg_cr_rs1_rs2_edges_offset_rs1val_0x0_rs2val_0xfffffffe_str)
    2658:	0008a203          	lw	x4,0(x17)
    265c:	00020863          	beq	x4,x0,266c <I_blt_cg_cr_rs1_rs2_edges_offset_rs1val_0x0_rs2val_0xfffffffe+0x1c>
    2660:	21d072ef          	jal	x5,a07c <failedtest_x5_x4>
    2664:	00002650          	.word	0x00002650
    2668:	0000df0c          	.word	0x0000df0c
    266c:	00488893          	addi	x17,x17,4
  j 4f # done with test
    2670:	0280006f          	jal	x0,2698 <I_blt_cg_cr_rs1_rs2_edges_offset_rs1val_0x0_rs2val_0xfffffffe+0x48>
2: # goes here during backward branch if taken
  LI(x9, 1)
    2674:	00100493          	addi	x9,x0,1
  # Check if x9 contains the expected result. x17 is the signature ptr, x5 is the link ptr, x4 is a temp reg.
  RVTEST_SIGUPD(x17, x5, x4, x9, I_blt_cg_cr_rs1_rs2_edges_offset_rs1val_0x0_rs2val_0xfffffffe, I_blt_cg_cr_rs1_rs2_edges_offset_rs1val_0x0_rs2val_0xfffffffe_str) # signature 1 for taken
    2678:	0008a203          	lw	x4,0(x17)
    267c:	00920863          	beq	x4,x9,268c <I_blt_cg_cr_rs1_rs2_edges_offset_rs1val_0x0_rs2val_0xfffffffe+0x3c>
    2680:	1fd072ef          	jal	x5,a07c <failedtest_x5_x4>
    2684:	00002650          	.word	0x00002650
    2688:	0000df0c          	.word	0x0000df0c
    268c:	00488893          	addi	x17,x17,4
  j 4f # done with test
    2690:	0080006f          	jal	x0,2698 <I_blt_cg_cr_rs1_rs2_edges_offset_rs1val_0x0_rs2val_0xfffffffe+0x48>
3: # goes here during forward branch if taken
  blt x9, x27, 2b # backward branch, definitely taken
    2694:	ffb4c0e3          	blt	x9,x27,2674 <I_blt_cg_cr_rs1_rs2_edges_offset_rs1val_0x0_rs2val_0xfffffffe+0x24>
4: # done with test

# cr_rs1_rs2_edges_offset (Test source rs1 = 0x00000000 rs2 = 0x5bbc8872)
  RVTEST_TESTDATA_LOAD_INT(x23, x6) # load rs1: x6 = 0x00000000
    2698:	000ba303          	lw	x6,0(x23)
    269c:	004b8b93          	addi	x23,x23,4
  RVTEST_TESTDATA_LOAD_INT(x23, x25) # load rs2: x25 = 0x5bbc8872
    26a0:	000bac83          	lw	x25,0(x23)
    26a4:	004b8b93          	addi	x23,x23,4

000026a8 <I_blt_cg_cr_rs1_rs2_edges_offset_rs1val_0x0_rs2val_0x5bbc8872>:
0: # destination for backwards branch that is never taken
I_blt_cg_cr_rs1_rs2_edges_offset_rs1val_0x0_rs2val_0x5bbc8872:
  blt x6, x25, 3f # forward branch, if taken
    26a8:	05934263          	blt	x6,x25,26ec <I_blt_cg_cr_rs1_rs2_edges_offset_rs1val_0x0_rs2val_0x5bbc8872+0x44>
1: # goes here if not taken
  blt x6, x25, 0b # backward branch, never taken
    26ac:	ff934ee3          	blt	x6,x25,26a8 <I_blt_cg_cr_rs1_rs2_edges_offset_rs1val_0x0_rs2val_0x5bbc8872>
  # Check if x0 contains the expected result. x17 is the signature ptr, x5 is the link ptr, x4 is a temp reg.
  RVTEST_SIGUPD(x17, x5, x4, x0, I_blt_cg_cr_rs1_rs2_edges_offset_rs1val_0x0_rs2val_0x5bbc8872, I_blt_cg_cr_rs1_rs2_edges_offset_rs1val_0x0_rs2val_0x5bbc8872_str)
    26b0:	0008a203          	lw	x4,0(x17)
    26b4:	00020863          	beq	x4,x0,26c4 <I_blt_cg_cr_rs1_rs2_edges_offset_rs1val_0x0_rs2val_0x5bbc8872+0x1c>
    26b8:	1c5072ef          	jal	x5,a07c <failedtest_x5_x4>
    26bc:	000026a8          	.word	0x000026a8
    26c0:	0000df66          	.word	0x0000df66
    26c4:	00488893          	addi	x17,x17,4
  j 4f # done with test
    26c8:	0280006f          	jal	x0,26f0 <I_blt_cg_cr_rs1_rs2_edges_offset_rs1val_0x0_rs2val_0x5bbc8872+0x48>
2: # goes here during backward branch if taken
  LI(x6, 1)
    26cc:	00100313          	addi	x6,x0,1
  # Check if x6 contains the expected result. x17 is the signature ptr, x5 is the link ptr, x4 is a temp reg.
  RVTEST_SIGUPD(x17, x5, x4, x6, I_blt_cg_cr_rs1_rs2_edges_offset_rs1val_0x0_rs2val_0x5bbc8872, I_blt_cg_cr_rs1_rs2_edges_offset_rs1val_0x0_rs2val_0x5bbc8872_str) # signature 1 for taken
    26d0:	0008a203          	lw	x4,0(x17)
    26d4:	00620863          	beq	x4,x6,26e4 <I_blt_cg_cr_rs1_rs2_edges_offset_rs1val_0x0_rs2val_0x5bbc8872+0x3c>
    26d8:	1a5072ef          	jal	x5,a07c <failedtest_x5_x4>
    26dc:	000026a8          	.word	0x000026a8
    26e0:	0000df66          	.word	0x0000df66
    26e4:	00488893          	addi	x17,x17,4
  j 4f # done with test
    26e8:	0080006f          	jal	x0,26f0 <I_blt_cg_cr_rs1_rs2_edges_offset_rs1val_0x0_rs2val_0x5bbc8872+0x48>
3: # goes here during forward branch if taken
  blt x6, x25, 2b # backward branch, definitely taken
    26ec:	ff9340e3          	blt	x6,x25,26cc <I_blt_cg_cr_rs1_rs2_edges_offset_rs1val_0x0_rs2val_0x5bbc8872+0x24>
4: # done with test

# cr_rs1_rs2_edges_offset (Test source rs1 = 0x00000000 rs2 = 0xaaaaaaaa)
  RVTEST_TESTDATA_LOAD_INT(x23, x24) # load rs1: x24 = 0x00000000
    26f0:	000bac03          	lw	x24,0(x23)
    26f4:	004b8b93          	addi	x23,x23,4
  RVTEST_TESTDATA_LOAD_INT(x23, x31) # load rs2: x31 = 0xaaaaaaaa
    26f8:	000baf83          	lw	x31,0(x23)
    26fc:	004b8b93          	addi	x23,x23,4

00002700 <I_blt_cg_cr_rs1_rs2_edges_offset_rs1val_0x0_rs2val_0xaaaaaaaa>:
0: # destination for backwards branch that is never taken
I_blt_cg_cr_rs1_rs2_edges_offset_rs1val_0x0_rs2val_0xaaaaaaaa:
  blt x24, x31, 3f # forward branch, if taken
    2700:	05fc4263          	blt	x24,x31,2744 <I_blt_cg_cr_rs1_rs2_edges_offset_rs1val_0x0_rs2val_0xaaaaaaaa+0x44>
1: # goes here if not taken
  blt x24, x31, 0b # backward branch, never taken
    2704:	fffc4ee3          	blt	x24,x31,2700 <I_blt_cg_cr_rs1_rs2_edges_offset_rs1val_0x0_rs2val_0xaaaaaaaa>
  # Check if x0 contains the expected result. x17 is the signature ptr, x5 is the link ptr, x4 is a temp reg.
  RVTEST_SIGUPD(x17, x5, x4, x0, I_blt_cg_cr_rs1_rs2_edges_offset_rs1val_0x0_rs2val_0xaaaaaaaa, I_blt_cg_cr_rs1_rs2_edges_offset_rs1val_0x0_rs2val_0xaaaaaaaa_str)
    2708:	0008a203          	lw	x4,0(x17)
    270c:	00020863          	beq	x4,x0,271c <I_blt_cg_cr_rs1_rs2_edges_offset_rs1val_0x0_rs2val_0xaaaaaaaa+0x1c>
    2710:	16d072ef          	jal	x5,a07c <failedtest_x5_x4>
    2714:	00002700          	.word	0x00002700
    2718:	0000dfc0          	.word	0x0000dfc0
    271c:	00488893          	addi	x17,x17,4
  j 4f # done with test
    2720:	0280006f          	jal	x0,2748 <I_blt_cg_cr_rs1_rs2_edges_offset_rs1val_0x0_rs2val_0xaaaaaaaa+0x48>
2: # goes here during backward branch if taken
  LI(x24, 1)
    2724:	00100c13          	addi	x24,x0,1
  # Check if x24 contains the expected result. x17 is the signature ptr, x5 is the link ptr, x4 is a temp reg.
  RVTEST_SIGUPD(x17, x5, x4, x24, I_blt_cg_cr_rs1_rs2_edges_offset_rs1val_0x0_rs2val_0xaaaaaaaa, I_blt_cg_cr_rs1_rs2_edges_offset_rs1val_0x0_rs2val_0xaaaaaaaa_str) # signature 1 for taken
    2728:	0008a203          	lw	x4,0(x17)
    272c:	01820863          	beq	x4,x24,273c <I_blt_cg_cr_rs1_rs2_edges_offset_rs1val_0x0_rs2val_0xaaaaaaaa+0x3c>
    2730:	14d072ef          	jal	x5,a07c <failedtest_x5_x4>
    2734:	00002700          	.word	0x00002700
    2738:	0000dfc0          	.word	0x0000dfc0
    273c:	00488893          	addi	x17,x17,4
  j 4f # done with test
    2740:	0080006f          	jal	x0,2748 <I_blt_cg_cr_rs1_rs2_edges_offset_rs1val_0x0_rs2val_0xaaaaaaaa+0x48>
3: # goes here during forward branch if taken
  blt x24, x31, 2b # backward branch, definitely taken
    2744:	fffc40e3          	blt	x24,x31,2724 <I_blt_cg_cr_rs1_rs2_edges_offset_rs1val_0x0_rs2val_0xaaaaaaaa+0x24>
4: # done with test

# cr_rs1_rs2_edges_offset (Test source rs1 = 0x00000000 rs2 = 0x55555555)
  RVTEST_TESTDATA_LOAD_INT(x23, x16) # load rs1: x16 = 0x00000000
    2748:	000ba803          	lw	x16,0(x23)
    274c:	004b8b93          	addi	x23,x23,4
  RVTEST_TESTDATA_LOAD_INT(x23, x20) # load rs2: x20 = 0x55555555
    2750:	000baa03          	lw	x20,0(x23)
    2754:	004b8b93          	addi	x23,x23,4

00002758 <I_blt_cg_cr_rs1_rs2_edges_offset_rs1val_0x0_rs2val_0x55555555>:
0: # destination for backwards branch that is never taken
I_blt_cg_cr_rs1_rs2_edges_offset_rs1val_0x0_rs2val_0x55555555:
  blt x16, x20, 3f # forward branch, if taken
    2758:	05484263          	blt	x16,x20,279c <I_blt_cg_cr_rs1_rs2_edges_offset_rs1val_0x0_rs2val_0x55555555+0x44>
1: # goes here if not taken
  blt x16, x20, 0b # backward branch, never taken
    275c:	ff484ee3          	blt	x16,x20,2758 <I_blt_cg_cr_rs1_rs2_edges_offset_rs1val_0x0_rs2val_0x55555555>
  # Check if x0 contains the expected result. x17 is the signature ptr, x5 is the link ptr, x4 is a temp reg.
  RVTEST_SIGUPD(x17, x5, x4, x0, I_blt_cg_cr_rs1_rs2_edges_offset_rs1val_0x0_rs2val_0x55555555, I_blt_cg_cr_rs1_rs2_edges_offset_rs1val_0x0_rs2val_0x55555555_str)
    2760:	0008a203          	lw	x4,0(x17)
    2764:	00020863          	beq	x4,x0,2774 <I_blt_cg_cr_rs1_rs2_edges_offset_rs1val_0x0_rs2val_0x55555555+0x1c>
    2768:	115072ef          	jal	x5,a07c <failedtest_x5_x4>
    276c:	00002758          	.word	0x00002758
    2770:	0000e01a          	.word	0x0000e01a
    2774:	00488893          	addi	x17,x17,4
  j 4f # done with test
    2778:	0280006f          	jal	x0,27a0 <I_blt_cg_cr_rs1_rs2_edges_offset_rs1val_0x0_rs2val_0x55555555+0x48>
2: # goes here during backward branch if taken
  LI(x16, 1)
    277c:	00100813          	addi	x16,x0,1
  # Check if x16 contains the expected result. x17 is the signature ptr, x5 is the link ptr, x4 is a temp reg.
  RVTEST_SIGUPD(x17, x5, x4, x16, I_blt_cg_cr_rs1_rs2_edges_offset_rs1val_0x0_rs2val_0x55555555, I_blt_cg_cr_rs1_rs2_edges_offset_rs1val_0x0_rs2val_0x55555555_str) # signature 1 for taken
    2780:	0008a203          	lw	x4,0(x17)
    2784:	01020863          	beq	x4,x16,2794 <I_blt_cg_cr_rs1_rs2_edges_offset_rs1val_0x0_rs2val_0x55555555+0x3c>
    2788:	0f5072ef          	jal	x5,a07c <failedtest_x5_x4>
    278c:	00002758          	.word	0x00002758
    2790:	0000e01a          	.word	0x0000e01a
    2794:	00488893          	addi	x17,x17,4
  j 4f # done with test
    2798:	0080006f          	jal	x0,27a0 <I_blt_cg_cr_rs1_rs2_edges_offset_rs1val_0x0_rs2val_0x55555555+0x48>
3: # goes here during forward branch if taken
  blt x16, x20, 2b # backward branch, definitely taken
    279c:	ff4840e3          	blt	x16,x20,277c <I_blt_cg_cr_rs1_rs2_edges_offset_rs1val_0x0_rs2val_0x55555555+0x24>
4: # done with test

# cr_rs1_rs2_edges_offset (Test source rs1 = 0x00000001 rs2 = 0x00000000)
  RVTEST_TESTDATA_LOAD_INT(x23, x24) # load rs1: x24 = 0x00000001
    27a0:	000bac03          	lw	x24,0(x23)
    27a4:	004b8b93          	addi	x23,x23,4
  RVTEST_TESTDATA_LOAD_INT(x23, x15) # load rs2: x15 = 0x00000000
    27a8:	000ba783          	lw	x15,0(x23)
    27ac:	004b8b93          	addi	x23,x23,4

000027b0 <I_blt_cg_cr_rs1_rs2_edges_offset_rs1val_0x1_rs2val_0x0>:
0: # destination for backwards branch that is never taken
I_blt_cg_cr_rs1_rs2_edges_offset_rs1val_0x1_rs2val_0x0:
  blt x24, x15, 3f # forward branch, if taken
    27b0:	04fc4263          	blt	x24,x15,27f4 <I_blt_cg_cr_rs1_rs2_edges_offset_rs1val_0x1_rs2val_0x0+0x44>
1: # goes here if not taken
  blt x24, x15, 0b # backward branch, never taken
    27b4:	fefc4ee3          	blt	x24,x15,27b0 <I_blt_cg_cr_rs1_rs2_edges_offset_rs1val_0x1_rs2val_0x0>
  # Check if x0 contains the expected result. x17 is the signature ptr, x5 is the link ptr, x4 is a temp reg.
  RVTEST_SIGUPD(x17, x5, x4, x0, I_blt_cg_cr_rs1_rs2_edges_offset_rs1val_0x1_rs2val_0x0, I_blt_cg_cr_rs1_rs2_edges_offset_rs1val_0x1_rs2val_0x0_str)
    27b8:	0008a203          	lw	x4,0(x17)
    27bc:	00020863          	beq	x4,x0,27cc <I_blt_cg_cr_rs1_rs2_edges_offset_rs1val_0x1_rs2val_0x0+0x1c>
    27c0:	0bd072ef          	jal	x5,a07c <failedtest_x5_x4>
    27c4:	000027b0          	.word	0x000027b0
    27c8:	0000e075          	.word	0x0000e075
    27cc:	00488893          	addi	x17,x17,4
  j 4f # done with test
    27d0:	0280006f          	jal	x0,27f8 <I_blt_cg_cr_rs1_rs2_edges_offset_rs1val_0x1_rs2val_0x0+0x48>
2: # goes here during backward branch if taken
  LI(x24, 1)
    27d4:	00100c13          	addi	x24,x0,1
  # Check if x24 contains the expected result. x17 is the signature ptr, x5 is the link ptr, x4 is a temp reg.
  RVTEST_SIGUPD(x17, x5, x4, x24, I_blt_cg_cr_rs1_rs2_edges_offset_rs1val_0x1_rs2val_0x0, I_blt_cg_cr_rs1_rs2_edges_offset_rs1val_0x1_rs2val_0x0_str) # signature 1 for taken
    27d8:	0008a203          	lw	x4,0(x17)
    27dc:	01820863          	beq	x4,x24,27ec <I_blt_cg_cr_rs1_rs2_edges_offset_rs1val_0x1_rs2val_0x0+0x3c>
    27e0:	09d072ef          	jal	x5,a07c <failedtest_x5_x4>
    27e4:	000027b0          	.word	0x000027b0
    27e8:	0000e075          	.word	0x0000e075
    27ec:	00488893          	addi	x17,x17,4
  j 4f # done with test
    27f0:	0080006f          	jal	x0,27f8 <I_blt_cg_cr_rs1_rs2_edges_offset_rs1val_0x1_rs2val_0x0+0x48>
3: # goes here during forward branch if taken
  blt x24, x15, 2b # backward branch, definitely taken
    27f4:	fefc40e3          	blt	x24,x15,27d4 <I_blt_cg_cr_rs1_rs2_edges_offset_rs1val_0x1_rs2val_0x0+0x24>
4: # done with test

# cr_rs1_rs2_edges_offset (Test source rs1 = 0x00000001 rs2 = 0x00000001)
  RVTEST_TESTDATA_LOAD_INT(x23, x18) # load rs1: x18 = 0x00000001
    27f8:	000ba903          	lw	x18,0(x23)
    27fc:	004b8b93          	addi	x23,x23,4
  RVTEST_TESTDATA_LOAD_INT(x23, x3) # load rs2: x3 = 0x00000001
    2800:	000ba183          	lw	x3,0(x23)
    2804:	004b8b93          	addi	x23,x23,4

00002808 <I_blt_cg_cr_rs1_rs2_edges_offset_rs1val_0x1_rs2val_0x1>:
0: # destination for backwards branch that is never taken
I_blt_cg_cr_rs1_rs2_edges_offset_rs1val_0x1_rs2val_0x1:
  blt x18, x3, 3f # forward branch, if taken
    2808:	04394263          	blt	x18,x3,284c <I_blt_cg_cr_rs1_rs2_edges_offset_rs1val_0x1_rs2val_0x1+0x44>
1: # goes here if not taken
  blt x18, x3, 0b # backward branch, never taken
    280c:	fe394ee3          	blt	x18,x3,2808 <I_blt_cg_cr_rs1_rs2_edges_offset_rs1val_0x1_rs2val_0x1>
  # Check if x0 contains the expected result. x17 is the signature ptr, x5 is the link ptr, x4 is a temp reg.
  RVTEST_SIGUPD(x17, x5, x4, x0, I_blt_cg_cr_rs1_rs2_edges_offset_rs1val_0x1_rs2val_0x1, I_blt_cg_cr_rs1_rs2_edges_offset_rs1val_0x1_rs2val_0x1_str)
    2810:	0008a203          	lw	x4,0(x17)
    2814:	00020863          	beq	x4,x0,2824 <I_blt_cg_cr_rs1_rs2_edges_offset_rs1val_0x1_rs2val_0x1+0x1c>
    2818:	065072ef          	jal	x5,a07c <failedtest_x5_x4>
    281c:	00002808          	.word	0x00002808
    2820:	0000e0c9          	.word	0x0000e0c9
    2824:	00488893          	addi	x17,x17,4
  j 4f # done with test
    2828:	0280006f          	jal	x0,2850 <I_blt_cg_cr_rs1_rs2_edges_offset_rs1val_0x1_rs2val_0x1+0x48>
2: # goes here during backward branch if taken
  LI(x18, 1)
    282c:	00100913          	addi	x18,x0,1
  # Check if x18 contains the expected result. x17 is the signature ptr, x5 is the link ptr, x4 is a temp reg.
  RVTEST_SIGUPD(x17, x5, x4, x18, I_blt_cg_cr_rs1_rs2_edges_offset_rs1val_0x1_rs2val_0x1, I_blt_cg_cr_rs1_rs2_edges_offset_rs1val_0x1_rs2val_0x1_str) # signature 1 for taken
    2830:	0008a203          	lw	x4,0(x17)
    2834:	01220863          	beq	x4,x18,2844 <I_blt_cg_cr_rs1_rs2_edges_offset_rs1val_0x1_rs2val_0x1+0x3c>
    2838:	045072ef          	jal	x5,a07c <failedtest_x5_x4>
    283c:	00002808          	.word	0x00002808
    2840:	0000e0c9          	.word	0x0000e0c9
    2844:	00488893          	addi	x17,x17,4
  j 4f # done with test
    2848:	0080006f          	jal	x0,2850 <I_blt_cg_cr_rs1_rs2_edges_offset_rs1val_0x1_rs2val_0x1+0x48>
3: # goes here during forward branch if taken
  blt x18, x3, 2b # backward branch, definitely taken
    284c:	fe3940e3          	blt	x18,x3,282c <I_blt_cg_cr_rs1_rs2_edges_offset_rs1val_0x1_rs2val_0x1+0x24>
4: # done with test

# cr_rs1_rs2_edges_offset (Test source rs1 = 0x00000001 rs2 = 0x00000002)
  RVTEST_TESTDATA_LOAD_INT(x23, x15) # load rs1: x15 = 0x00000001
    2850:	000ba783          	lw	x15,0(x23)
    2854:	004b8b93          	addi	x23,x23,4
  RVTEST_TESTDATA_LOAD_INT(x23, x8) # load rs2: x8 = 0x00000002
    2858:	000ba403          	lw	x8,0(x23)
    285c:	004b8b93          	addi	x23,x23,4

00002860 <I_blt_cg_cr_rs1_rs2_edges_offset_rs1val_0x1_rs2val_0x2>:
0: # destination for backwards branch that is never taken
I_blt_cg_cr_rs1_rs2_edges_offset_rs1val_0x1_rs2val_0x2:
  blt x15, x8, 3f # forward branch, if taken
    2860:	0487c263          	blt	x15,x8,28a4 <I_blt_cg_cr_rs1_rs2_edges_offset_rs1val_0x1_rs2val_0x2+0x44>
1: # goes here if not taken
  blt x15, x8, 0b # backward branch, never taken
    2864:	fe87cee3          	blt	x15,x8,2860 <I_blt_cg_cr_rs1_rs2_edges_offset_rs1val_0x1_rs2val_0x2>
  # Check if x0 contains the expected result. x17 is the signature ptr, x5 is the link ptr, x4 is a temp reg.
  RVTEST_SIGUPD(x17, x5, x4, x0, I_blt_cg_cr_rs1_rs2_edges_offset_rs1val_0x1_rs2val_0x2, I_blt_cg_cr_rs1_rs2_edges_offset_rs1val_0x1_rs2val_0x2_str)
    2868:	0008a203          	lw	x4,0(x17)
    286c:	00020863          	beq	x4,x0,287c <I_blt_cg_cr_rs1_rs2_edges_offset_rs1val_0x1_rs2val_0x2+0x1c>
    2870:	00d072ef          	jal	x5,a07c <failedtest_x5_x4>
    2874:	00002860          	.word	0x00002860
    2878:	0000e11d          	.word	0x0000e11d
    287c:	00488893          	addi	x17,x17,4
  j 4f # done with test
    2880:	0280006f          	jal	x0,28a8 <I_blt_cg_cr_rs1_rs2_edges_offset_rs1val_0x1_rs2val_0x2+0x48>
2: # goes here during backward branch if taken
  LI(x15, 1)
    2884:	00100793          	addi	x15,x0,1
  # Check if x15 contains the expected result. x17 is the signature ptr, x5 is the link ptr, x4 is a temp reg.
  RVTEST_SIGUPD(x17, x5, x4, x15, I_blt_cg_cr_rs1_rs2_edges_offset_rs1val_0x1_rs2val_0x2, I_blt_cg_cr_rs1_rs2_edges_offset_rs1val_0x1_rs2val_0x2_str) # signature 1 for taken
    2888:	0008a203          	lw	x4,0(x17)
    288c:	00f20863          	beq	x4,x15,289c <I_blt_cg_cr_rs1_rs2_edges_offset_rs1val_0x1_rs2val_0x2+0x3c>
    2890:	7ec072ef          	jal	x5,a07c <failedtest_x5_x4>
    2894:	00002860          	.word	0x00002860
    2898:	0000e11d          	.word	0x0000e11d
    289c:	00488893          	addi	x17,x17,4
  j 4f # done with test
    28a0:	0080006f          	jal	x0,28a8 <I_blt_cg_cr_rs1_rs2_edges_offset_rs1val_0x1_rs2val_0x2+0x48>
3: # goes here during forward branch if taken
  blt x15, x8, 2b # backward branch, definitely taken
    28a4:	fe87c0e3          	blt	x15,x8,2884 <I_blt_cg_cr_rs1_rs2_edges_offset_rs1val_0x1_rs2val_0x2+0x24>
4: # done with test

# cr_rs1_rs2_edges_offset (Test source rs1 = 0x00000001 rs2 = 0x80000000)
  RVTEST_TESTDATA_LOAD_INT(x23, x18) # load rs1: x18 = 0x00000001
    28a8:	000ba903          	lw	x18,0(x23)
    28ac:	004b8b93          	addi	x23,x23,4
  RVTEST_TESTDATA_LOAD_INT(x23, x31) # load rs2: x31 = 0x80000000
    28b0:	000baf83          	lw	x31,0(x23)
    28b4:	004b8b93          	addi	x23,x23,4

000028b8 <I_blt_cg_cr_rs1_rs2_edges_offset_rs1val_0x1_rs2val_0x80000000>:
0: # destination for backwards branch that is never taken
I_blt_cg_cr_rs1_rs2_edges_offset_rs1val_0x1_rs2val_0x80000000:
  blt x18, x31, 3f # forward branch, if taken
    28b8:	05f94263          	blt	x18,x31,28fc <I_blt_cg_cr_rs1_rs2_edges_offset_rs1val_0x1_rs2val_0x80000000+0x44>
1: # goes here if not taken
  blt x18, x31, 0b # backward branch, never taken
    28bc:	fff94ee3          	blt	x18,x31,28b8 <I_blt_cg_cr_rs1_rs2_edges_offset_rs1val_0x1_rs2val_0x80000000>
  # Check if x0 contains the expected result. x17 is the signature ptr, x5 is the link ptr, x4 is a temp reg.
  RVTEST_SIGUPD(x17, x5, x4, x0, I_blt_cg_cr_rs1_rs2_edges_offset_rs1val_0x1_rs2val_0x80000000, I_blt_cg_cr_rs1_rs2_edges_offset_rs1val_0x1_rs2val_0x80000000_str)
    28c0:	0008a203          	lw	x4,0(x17)
    28c4:	00020863          	beq	x4,x0,28d4 <I_blt_cg_cr_rs1_rs2_edges_offset_rs1val_0x1_rs2val_0x80000000+0x1c>
    28c8:	7b4072ef          	jal	x5,a07c <failedtest_x5_x4>
    28cc:	000028b8          	.word	0x000028b8
    28d0:	0000e171          	.word	0x0000e171
    28d4:	00488893          	addi	x17,x17,4
  j 4f # done with test
    28d8:	0280006f          	jal	x0,2900 <I_blt_cg_cr_rs1_rs2_edges_offset_rs1val_0x1_rs2val_0x80000000+0x48>
2: # goes here during backward branch if taken
  LI(x18, 1)
    28dc:	00100913          	addi	x18,x0,1
  # Check if x18 contains the expected result. x17 is the signature ptr, x5 is the link ptr, x4 is a temp reg.
  RVTEST_SIGUPD(x17, x5, x4, x18, I_blt_cg_cr_rs1_rs2_edges_offset_rs1val_0x1_rs2val_0x80000000, I_blt_cg_cr_rs1_rs2_edges_offset_rs1val_0x1_rs2val_0x80000000_str) # signature 1 for taken
    28e0:	0008a203          	lw	x4,0(x17)
    28e4:	01220863          	beq	x4,x18,28f4 <I_blt_cg_cr_rs1_rs2_edges_offset_rs1val_0x1_rs2val_0x80000000+0x3c>
    28e8:	794072ef          	jal	x5,a07c <failedtest_x5_x4>
    28ec:	000028b8          	.word	0x000028b8
    28f0:	0000e171          	.word	0x0000e171
    28f4:	00488893          	addi	x17,x17,4
  j 4f # done with test
    28f8:	0080006f          	jal	x0,2900 <I_blt_cg_cr_rs1_rs2_edges_offset_rs1val_0x1_rs2val_0x80000000+0x48>
3: # goes here during forward branch if taken
  blt x18, x31, 2b # backward branch, definitely taken
    28fc:	fff940e3          	blt	x18,x31,28dc <I_blt_cg_cr_rs1_rs2_edges_offset_rs1val_0x1_rs2val_0x80000000+0x24>
4: # done with test

# cr_rs1_rs2_edges_offset (Test source rs1 = 0x00000001 rs2 = 0x80000001)
  RVTEST_TESTDATA_LOAD_INT(x23, x6) # load rs1: x6 = 0x00000001
    2900:	000ba303          	lw	x6,0(x23)
    2904:	004b8b93          	addi	x23,x23,4
  RVTEST_TESTDATA_LOAD_INT(x23, x18) # load rs2: x18 = 0x80000001
    2908:	000ba903          	lw	x18,0(x23)
    290c:	004b8b93          	addi	x23,x23,4

00002910 <I_blt_cg_cr_rs1_rs2_edges_offset_rs1val_0x1_rs2val_0x80000001>:
0: # destination for backwards branch that is never taken
I_blt_cg_cr_rs1_rs2_edges_offset_rs1val_0x1_rs2val_0x80000001:
  blt x6, x18, 3f # forward branch, if taken
    2910:	05234263          	blt	x6,x18,2954 <I_blt_cg_cr_rs1_rs2_edges_offset_rs1val_0x1_rs2val_0x80000001+0x44>
1: # goes here if not taken
  blt x6, x18, 0b # backward branch, never taken
    2914:	ff234ee3          	blt	x6,x18,2910 <I_blt_cg_cr_rs1_rs2_edges_offset_rs1val_0x1_rs2val_0x80000001>
  # Check if x0 contains the expected result. x17 is the signature ptr, x5 is the link ptr, x4 is a temp reg.
  RVTEST_SIGUPD(x17, x5, x4, x0, I_blt_cg_cr_rs1_rs2_edges_offset_rs1val_0x1_rs2val_0x80000001, I_blt_cg_cr_rs1_rs2_edges_offset_rs1val_0x1_rs2val_0x80000001_str)
    2918:	0008a203          	lw	x4,0(x17)
    291c:	00020863          	beq	x4,x0,292c <I_blt_cg_cr_rs1_rs2_edges_offset_rs1val_0x1_rs2val_0x80000001+0x1c>
    2920:	75c072ef          	jal	x5,a07c <failedtest_x5_x4>
    2924:	00002910          	.word	0x00002910
    2928:	0000e1cc          	.word	0x0000e1cc
    292c:	00488893          	addi	x17,x17,4
  j 4f # done with test
    2930:	0280006f          	jal	x0,2958 <I_blt_cg_cr_rs1_rs2_edges_offset_rs1val_0x1_rs2val_0x80000001+0x48>
2: # goes here during backward branch if taken
  LI(x6, 1)
    2934:	00100313          	addi	x6,x0,1
  # Check if x6 contains the expected result. x17 is the signature ptr, x5 is the link ptr, x4 is a temp reg.
  RVTEST_SIGUPD(x17, x5, x4, x6, I_blt_cg_cr_rs1_rs2_edges_offset_rs1val_0x1_rs2val_0x80000001, I_blt_cg_cr_rs1_rs2_edges_offset_rs1val_0x1_rs2val_0x80000001_str) # signature 1 for taken
    2938:	0008a203          	lw	x4,0(x17)
    293c:	00620863          	beq	x4,x6,294c <I_blt_cg_cr_rs1_rs2_edges_offset_rs1val_0x1_rs2val_0x80000001+0x3c>
    2940:	73c072ef          	jal	x5,a07c <failedtest_x5_x4>
    2944:	00002910          	.word	0x00002910
    2948:	0000e1cc          	.word	0x0000e1cc
    294c:	00488893          	addi	x17,x17,4
  j 4f # done with test
    2950:	0080006f          	jal	x0,2958 <I_blt_cg_cr_rs1_rs2_edges_offset_rs1val_0x1_rs2val_0x80000001+0x48>
3: # goes here during forward branch if taken
  blt x6, x18, 2b # backward branch, definitely taken
    2954:	ff2340e3          	blt	x6,x18,2934 <I_blt_cg_cr_rs1_rs2_edges_offset_rs1val_0x1_rs2val_0x80000001+0x24>
4: # done with test

# cr_rs1_rs2_edges_offset (Test source rs1 = 0x00000001 rs2 = 0x7fffffff)
  RVTEST_TESTDATA_LOAD_INT(x23, x30) # load rs1: x30 = 0x00000001
    2958:	000baf03          	lw	x30,0(x23)
    295c:	004b8b93          	addi	x23,x23,4
  RVTEST_TESTDATA_LOAD_INT(x23, x10) # load rs2: x10 = 0x7fffffff
    2960:	000ba503          	lw	x10,0(x23)
    2964:	004b8b93          	addi	x23,x23,4

00002968 <I_blt_cg_cr_rs1_rs2_edges_offset_rs1val_0x1_rs2val_0x7fffffff>:
0: # destination for backwards branch that is never taken
I_blt_cg_cr_rs1_rs2_edges_offset_rs1val_0x1_rs2val_0x7fffffff:
  blt x30, x10, 3f # forward branch, if taken
    2968:	04af4263          	blt	x30,x10,29ac <I_blt_cg_cr_rs1_rs2_edges_offset_rs1val_0x1_rs2val_0x7fffffff+0x44>
1: # goes here if not taken
  blt x30, x10, 0b # backward branch, never taken
    296c:	feaf4ee3          	blt	x30,x10,2968 <I_blt_cg_cr_rs1_rs2_edges_offset_rs1val_0x1_rs2val_0x7fffffff>
  # Check if x0 contains the expected result. x17 is the signature ptr, x5 is the link ptr, x4 is a temp reg.
  RVTEST_SIGUPD(x17, x5, x4, x0, I_blt_cg_cr_rs1_rs2_edges_offset_rs1val_0x1_rs2val_0x7fffffff, I_blt_cg_cr_rs1_rs2_edges_offset_rs1val_0x1_rs2val_0x7fffffff_str)
    2970:	0008a203          	lw	x4,0(x17)
    2974:	00020863          	beq	x4,x0,2984 <I_blt_cg_cr_rs1_rs2_edges_offset_rs1val_0x1_rs2val_0x7fffffff+0x1c>
    2978:	704072ef          	jal	x5,a07c <failedtest_x5_x4>
    297c:	00002968          	.word	0x00002968
    2980:	0000e227          	.word	0x0000e227
    2984:	00488893          	addi	x17,x17,4
  j 4f # done with test
    2988:	0280006f          	jal	x0,29b0 <I_blt_cg_cr_rs1_rs2_edges_offset_rs1val_0x1_rs2val_0x7fffffff+0x48>
2: # goes here during backward branch if taken
  LI(x30, 1)
    298c:	00100f13          	addi	x30,x0,1
  # Check if x30 contains the expected result. x17 is the signature ptr, x5 is the link ptr, x4 is a temp reg.
  RVTEST_SIGUPD(x17, x5, x4, x30, I_blt_cg_cr_rs1_rs2_edges_offset_rs1val_0x1_rs2val_0x7fffffff, I_blt_cg_cr_rs1_rs2_edges_offset_rs1val_0x1_rs2val_0x7fffffff_str) # signature 1 for taken
    2990:	0008a203          	lw	x4,0(x17)
    2994:	01e20863          	beq	x4,x30,29a4 <I_blt_cg_cr_rs1_rs2_edges_offset_rs1val_0x1_rs2val_0x7fffffff+0x3c>
    2998:	6e4072ef          	jal	x5,a07c <failedtest_x5_x4>
    299c:	00002968          	.word	0x00002968
    29a0:	0000e227          	.word	0x0000e227
    29a4:	00488893          	addi	x17,x17,4
  j 4f # done with test
    29a8:	0080006f          	jal	x0,29b0 <I_blt_cg_cr_rs1_rs2_edges_offset_rs1val_0x1_rs2val_0x7fffffff+0x48>
3: # goes here during forward branch if taken
  blt x30, x10, 2b # backward branch, definitely taken
    29ac:	feaf40e3          	blt	x30,x10,298c <I_blt_cg_cr_rs1_rs2_edges_offset_rs1val_0x1_rs2val_0x7fffffff+0x24>
4: # done with test

# cr_rs1_rs2_edges_offset (Test source rs1 = 0x00000001 rs2 = 0x7ffffffe)
  RVTEST_TESTDATA_LOAD_INT(x23, x2) # load rs1: x2 = 0x00000001
    29b0:	000ba103          	lw	x2,0(x23)
    29b4:	004b8b93          	addi	x23,x23,4
  RVTEST_TESTDATA_LOAD_INT(x23, x8) # load rs2: x8 = 0x7ffffffe
    29b8:	000ba403          	lw	x8,0(x23)
    29bc:	004b8b93          	addi	x23,x23,4

000029c0 <I_blt_cg_cr_rs1_rs2_edges_offset_rs1val_0x1_rs2val_0x7ffffffe>:
0: # destination for backwards branch that is never taken
I_blt_cg_cr_rs1_rs2_edges_offset_rs1val_0x1_rs2val_0x7ffffffe:
  blt x2, x8, 3f # forward branch, if taken
    29c0:	04814263          	blt	x2,x8,2a04 <I_blt_cg_cr_rs1_rs2_edges_offset_rs1val_0x1_rs2val_0x7ffffffe+0x44>
1: # goes here if not taken
  blt x2, x8, 0b # backward branch, never taken
    29c4:	fe814ee3          	blt	x2,x8,29c0 <I_blt_cg_cr_rs1_rs2_edges_offset_rs1val_0x1_rs2val_0x7ffffffe>
  # Check if x0 contains the expected result. x17 is the signature ptr, x5 is the link ptr, x4 is a temp reg.
  RVTEST_SIGUPD(x17, x5, x4, x0, I_blt_cg_cr_rs1_rs2_edges_offset_rs1val_0x1_rs2val_0x7ffffffe, I_blt_cg_cr_rs1_rs2_edges_offset_rs1val_0x1_rs2val_0x7ffffffe_str)
    29c8:	0008a203          	lw	x4,0(x17)
    29cc:	00020863          	beq	x4,x0,29dc <I_blt_cg_cr_rs1_rs2_edges_offset_rs1val_0x1_rs2val_0x7ffffffe+0x1c>
    29d0:	6ac072ef          	jal	x5,a07c <failedtest_x5_x4>
    29d4:	000029c0          	.word	0x000029c0
    29d8:	0000e282          	.word	0x0000e282
    29dc:	00488893          	addi	x17,x17,4
  j 4f # done with test
    29e0:	0280006f          	jal	x0,2a08 <I_blt_cg_cr_rs1_rs2_edges_offset_rs1val_0x1_rs2val_0x7ffffffe+0x48>
2: # goes here during backward branch if taken
  LI(x2, 1)
    29e4:	00100113          	addi	x2,x0,1
  # Check if x2 contains the expected result. x17 is the signature ptr, x5 is the link ptr, x4 is a temp reg.
  RVTEST_SIGUPD(x17, x5, x4, x2, I_blt_cg_cr_rs1_rs2_edges_offset_rs1val_0x1_rs2val_0x7ffffffe, I_blt_cg_cr_rs1_rs2_edges_offset_rs1val_0x1_rs2val_0x7ffffffe_str) # signature 1 for taken
    29e8:	0008a203          	lw	x4,0(x17)
    29ec:	00220863          	beq	x4,x2,29fc <I_blt_cg_cr_rs1_rs2_edges_offset_rs1val_0x1_rs2val_0x7ffffffe+0x3c>
    29f0:	68c072ef          	jal	x5,a07c <failedtest_x5_x4>
    29f4:	000029c0          	.word	0x000029c0
    29f8:	0000e282          	.word	0x0000e282
    29fc:	00488893          	addi	x17,x17,4
  j 4f # done with test
    2a00:	0080006f          	jal	x0,2a08 <I_blt_cg_cr_rs1_rs2_edges_offset_rs1val_0x1_rs2val_0x7ffffffe+0x48>
3: # goes here during forward branch if taken
  blt x2, x8, 2b # backward branch, definitely taken
    2a04:	fe8140e3          	blt	x2,x8,29e4 <I_blt_cg_cr_rs1_rs2_edges_offset_rs1val_0x1_rs2val_0x7ffffffe+0x24>
4: # done with test

# cr_rs1_rs2_edges_offset (Test source rs1 = 0x00000001 rs2 = 0xffffffff)
  RVTEST_TESTDATA_LOAD_INT(x23, x6) # load rs1: x6 = 0x00000001
    2a08:	000ba303          	lw	x6,0(x23)
    2a0c:	004b8b93          	addi	x23,x23,4
  RVTEST_TESTDATA_LOAD_INT(x23, x29) # load rs2: x29 = 0xffffffff
    2a10:	000bae83          	lw	x29,0(x23)
    2a14:	004b8b93          	addi	x23,x23,4

00002a18 <I_blt_cg_cr_rs1_rs2_edges_offset_rs1val_0x1_rs2val_0xffffffff>:
0: # destination for backwards branch that is never taken
I_blt_cg_cr_rs1_rs2_edges_offset_rs1val_0x1_rs2val_0xffffffff:
  blt x6, x29, 3f # forward branch, if taken
    2a18:	05d34263          	blt	x6,x29,2a5c <I_blt_cg_cr_rs1_rs2_edges_offset_rs1val_0x1_rs2val_0xffffffff+0x44>
1: # goes here if not taken
  blt x6, x29, 0b # backward branch, never taken
    2a1c:	ffd34ee3          	blt	x6,x29,2a18 <I_blt_cg_cr_rs1_rs2_edges_offset_rs1val_0x1_rs2val_0xffffffff>
  # Check if x0 contains the expected result. x17 is the signature ptr, x5 is the link ptr, x4 is a temp reg.
  RVTEST_SIGUPD(x17, x5, x4, x0, I_blt_cg_cr_rs1_rs2_edges_offset_rs1val_0x1_rs2val_0xffffffff, I_blt_cg_cr_rs1_rs2_edges_offset_rs1val_0x1_rs2val_0xffffffff_str)
    2a20:	0008a203          	lw	x4,0(x17)
    2a24:	00020863          	beq	x4,x0,2a34 <I_blt_cg_cr_rs1_rs2_edges_offset_rs1val_0x1_rs2val_0xffffffff+0x1c>
    2a28:	654072ef          	jal	x5,a07c <failedtest_x5_x4>
    2a2c:	00002a18          	.word	0x00002a18
    2a30:	0000e2dd          	.word	0x0000e2dd
    2a34:	00488893          	addi	x17,x17,4
  j 4f # done with test
    2a38:	0280006f          	jal	x0,2a60 <I_blt_cg_cr_rs1_rs2_edges_offset_rs1val_0x1_rs2val_0xffffffff+0x48>
2: # goes here during backward branch if taken
  LI(x6, 1)
    2a3c:	00100313          	addi	x6,x0,1
  # Check if x6 contains the expected result. x17 is the signature ptr, x5 is the link ptr, x4 is a temp reg.
  RVTEST_SIGUPD(x17, x5, x4, x6, I_blt_cg_cr_rs1_rs2_edges_offset_rs1val_0x1_rs2val_0xffffffff, I_blt_cg_cr_rs1_rs2_edges_offset_rs1val_0x1_rs2val_0xffffffff_str) # signature 1 for taken
    2a40:	0008a203          	lw	x4,0(x17)
    2a44:	00620863          	beq	x4,x6,2a54 <I_blt_cg_cr_rs1_rs2_edges_offset_rs1val_0x1_rs2val_0xffffffff+0x3c>
    2a48:	634072ef          	jal	x5,a07c <failedtest_x5_x4>
    2a4c:	00002a18          	.word	0x00002a18
    2a50:	0000e2dd          	.word	0x0000e2dd
    2a54:	00488893          	addi	x17,x17,4
  j 4f # done with test
    2a58:	0080006f          	jal	x0,2a60 <I_blt_cg_cr_rs1_rs2_edges_offset_rs1val_0x1_rs2val_0xffffffff+0x48>
3: # goes here during forward branch if taken
  blt x6, x29, 2b # backward branch, definitely taken
    2a5c:	ffd340e3          	blt	x6,x29,2a3c <I_blt_cg_cr_rs1_rs2_edges_offset_rs1val_0x1_rs2val_0xffffffff+0x24>
4: # done with test

# cr_rs1_rs2_edges_offset (Test source rs1 = 0x00000001 rs2 = 0xfffffffe)
  RVTEST_TESTDATA_LOAD_INT(x23, x16) # load rs1: x16 = 0x00000001
    2a60:	000ba803          	lw	x16,0(x23)
    2a64:	004b8b93          	addi	x23,x23,4
  RVTEST_TESTDATA_LOAD_INT(x23, x21) # load rs2: x21 = 0xfffffffe
    2a68:	000baa83          	lw	x21,0(x23)
    2a6c:	004b8b93          	addi	x23,x23,4

00002a70 <I_blt_cg_cr_rs1_rs2_edges_offset_rs1val_0x1_rs2val_0xfffffffe>:
0: # destination for backwards branch that is never taken
I_blt_cg_cr_rs1_rs2_edges_offset_rs1val_0x1_rs2val_0xfffffffe:
  blt x16, x21, 3f # forward branch, if taken
    2a70:	05584263          	blt	x16,x21,2ab4 <I_blt_cg_cr_rs1_rs2_edges_offset_rs1val_0x1_rs2val_0xfffffffe+0x44>
1: # goes here if not taken
  blt x16, x21, 0b # backward branch, never taken
    2a74:	ff584ee3          	blt	x16,x21,2a70 <I_blt_cg_cr_rs1_rs2_edges_offset_rs1val_0x1_rs2val_0xfffffffe>
  # Check if x0 contains the expected result. x17 is the signature ptr, x5 is the link ptr, x4 is a temp reg.
  RVTEST_SIGUPD(x17, x5, x4, x0, I_blt_cg_cr_rs1_rs2_edges_offset_rs1val_0x1_rs2val_0xfffffffe, I_blt_cg_cr_rs1_rs2_edges_offset_rs1val_0x1_rs2val_0xfffffffe_str)
    2a78:	0008a203          	lw	x4,0(x17)
    2a7c:	00020863          	beq	x4,x0,2a8c <I_blt_cg_cr_rs1_rs2_edges_offset_rs1val_0x1_rs2val_0xfffffffe+0x1c>
    2a80:	5fc072ef          	jal	x5,a07c <failedtest_x5_x4>
    2a84:	00002a70          	.word	0x00002a70
    2a88:	0000e338          	.word	0x0000e338
    2a8c:	00488893          	addi	x17,x17,4
  j 4f # done with test
    2a90:	0280006f          	jal	x0,2ab8 <I_blt_cg_cr_rs1_rs2_edges_offset_rs1val_0x1_rs2val_0xfffffffe+0x48>
2: # goes here during backward branch if taken
  LI(x16, 1)
    2a94:	00100813          	addi	x16,x0,1
  # Check if x16 contains the expected result. x17 is the signature ptr, x5 is the link ptr, x4 is a temp reg.
  RVTEST_SIGUPD(x17, x5, x4, x16, I_blt_cg_cr_rs1_rs2_edges_offset_rs1val_0x1_rs2val_0xfffffffe, I_blt_cg_cr_rs1_rs2_edges_offset_rs1val_0x1_rs2val_0xfffffffe_str) # signature 1 for taken
    2a98:	0008a203          	lw	x4,0(x17)
    2a9c:	01020863          	beq	x4,x16,2aac <I_blt_cg_cr_rs1_rs2_edges_offset_rs1val_0x1_rs2val_0xfffffffe+0x3c>
    2aa0:	5dc072ef          	jal	x5,a07c <failedtest_x5_x4>
    2aa4:	00002a70          	.word	0x00002a70
    2aa8:	0000e338          	.word	0x0000e338
    2aac:	00488893          	addi	x17,x17,4
  j 4f # done with test
    2ab0:	0080006f          	jal	x0,2ab8 <I_blt_cg_cr_rs1_rs2_edges_offset_rs1val_0x1_rs2val_0xfffffffe+0x48>
3: # goes here during forward branch if taken
  blt x16, x21, 2b # backward branch, definitely taken
    2ab4:	ff5840e3          	blt	x16,x21,2a94 <I_blt_cg_cr_rs1_rs2_edges_offset_rs1val_0x1_rs2val_0xfffffffe+0x24>
4: # done with test

# cr_rs1_rs2_edges_offset (Test source rs1 = 0x00000001 rs2 = 0x5bbc8872)
  RVTEST_TESTDATA_LOAD_INT(x23, x27) # load rs1: x27 = 0x00000001
    2ab8:	000bad83          	lw	x27,0(x23)
    2abc:	004b8b93          	addi	x23,x23,4
  RVTEST_TESTDATA_LOAD_INT(x23, x28) # load rs2: x28 = 0x5bbc8872
    2ac0:	000bae03          	lw	x28,0(x23)
    2ac4:	004b8b93          	addi	x23,x23,4

00002ac8 <I_blt_cg_cr_rs1_rs2_edges_offset_rs1val_0x1_rs2val_0x5bbc8872>:
0: # destination for backwards branch that is never taken
I_blt_cg_cr_rs1_rs2_edges_offset_rs1val_0x1_rs2val_0x5bbc8872:
  blt x27, x28, 3f # forward branch, if taken
    2ac8:	05cdc263          	blt	x27,x28,2b0c <I_blt_cg_cr_rs1_rs2_edges_offset_rs1val_0x1_rs2val_0x5bbc8872+0x44>
1: # goes here if not taken
  blt x27, x28, 0b # backward branch, never taken
    2acc:	ffcdcee3          	blt	x27,x28,2ac8 <I_blt_cg_cr_rs1_rs2_edges_offset_rs1val_0x1_rs2val_0x5bbc8872>
  # Check if x0 contains the expected result. x17 is the signature ptr, x5 is the link ptr, x4 is a temp reg.
  RVTEST_SIGUPD(x17, x5, x4, x0, I_blt_cg_cr_rs1_rs2_edges_offset_rs1val_0x1_rs2val_0x5bbc8872, I_blt_cg_cr_rs1_rs2_edges_offset_rs1val_0x1_rs2val_0x5bbc8872_str)
    2ad0:	0008a203          	lw	x4,0(x17)
    2ad4:	00020863          	beq	x4,x0,2ae4 <I_blt_cg_cr_rs1_rs2_edges_offset_rs1val_0x1_rs2val_0x5bbc8872+0x1c>
    2ad8:	5a4072ef          	jal	x5,a07c <failedtest_x5_x4>
    2adc:	00002ac8          	.word	0x00002ac8
    2ae0:	0000e393          	.word	0x0000e393
    2ae4:	00488893          	addi	x17,x17,4
  j 4f # done with test
    2ae8:	0280006f          	jal	x0,2b10 <I_blt_cg_cr_rs1_rs2_edges_offset_rs1val_0x1_rs2val_0x5bbc8872+0x48>
2: # goes here during backward branch if taken
  LI(x27, 1)
    2aec:	00100d93          	addi	x27,x0,1
  # Check if x27 contains the expected result. x17 is the signature ptr, x5 is the link ptr, x4 is a temp reg.
  RVTEST_SIGUPD(x17, x5, x4, x27, I_blt_cg_cr_rs1_rs2_edges_offset_rs1val_0x1_rs2val_0x5bbc8872, I_blt_cg_cr_rs1_rs2_edges_offset_rs1val_0x1_rs2val_0x5bbc8872_str) # signature 1 for taken
    2af0:	0008a203          	lw	x4,0(x17)
    2af4:	01b20863          	beq	x4,x27,2b04 <I_blt_cg_cr_rs1_rs2_edges_offset_rs1val_0x1_rs2val_0x5bbc8872+0x3c>
    2af8:	584072ef          	jal	x5,a07c <failedtest_x5_x4>
    2afc:	00002ac8          	.word	0x00002ac8
    2b00:	0000e393          	.word	0x0000e393
    2b04:	00488893          	addi	x17,x17,4
  j 4f # done with test
    2b08:	0080006f          	jal	x0,2b10 <I_blt_cg_cr_rs1_rs2_edges_offset_rs1val_0x1_rs2val_0x5bbc8872+0x48>
3: # goes here during forward branch if taken
  blt x27, x28, 2b # backward branch, definitely taken
    2b0c:	ffcdc0e3          	blt	x27,x28,2aec <I_blt_cg_cr_rs1_rs2_edges_offset_rs1val_0x1_rs2val_0x5bbc8872+0x24>
4: # done with test

# cr_rs1_rs2_edges_offset (Test source rs1 = 0x00000001 rs2 = 0xaaaaaaaa)
  RVTEST_TESTDATA_LOAD_INT(x23, x1) # load rs1: x1 = 0x00000001
    2b10:	000ba083          	lw	x1,0(x23)
    2b14:	004b8b93          	addi	x23,x23,4
  RVTEST_TESTDATA_LOAD_INT(x23, x7) # load rs2: x7 = 0xaaaaaaaa
    2b18:	000ba383          	lw	x7,0(x23)
    2b1c:	004b8b93          	addi	x23,x23,4

00002b20 <I_blt_cg_cr_rs1_rs2_edges_offset_rs1val_0x1_rs2val_0xaaaaaaaa>:
0: # destination for backwards branch that is never taken
I_blt_cg_cr_rs1_rs2_edges_offset_rs1val_0x1_rs2val_0xaaaaaaaa:
  blt x1, x7, 3f # forward branch, if taken
    2b20:	0470c263          	blt	x1,x7,2b64 <I_blt_cg_cr_rs1_rs2_edges_offset_rs1val_0x1_rs2val_0xaaaaaaaa+0x44>
1: # goes here if not taken
  blt x1, x7, 0b # backward branch, never taken
    2b24:	fe70cee3          	blt	x1,x7,2b20 <I_blt_cg_cr_rs1_rs2_edges_offset_rs1val_0x1_rs2val_0xaaaaaaaa>
  # Check if x0 contains the expected result. x17 is the signature ptr, x5 is the link ptr, x4 is a temp reg.
  RVTEST_SIGUPD(x17, x5, x4, x0, I_blt_cg_cr_rs1_rs2_edges_offset_rs1val_0x1_rs2val_0xaaaaaaaa, I_blt_cg_cr_rs1_rs2_edges_offset_rs1val_0x1_rs2val_0xaaaaaaaa_str)
    2b28:	0008a203          	lw	x4,0(x17)
    2b2c:	00020863          	beq	x4,x0,2b3c <I_blt_cg_cr_rs1_rs2_edges_offset_rs1val_0x1_rs2val_0xaaaaaaaa+0x1c>
    2b30:	54c072ef          	jal	x5,a07c <failedtest_x5_x4>
    2b34:	00002b20          	.word	0x00002b20
    2b38:	0000e3ee          	.word	0x0000e3ee
    2b3c:	00488893          	addi	x17,x17,4
  j 4f # done with test
    2b40:	0280006f          	jal	x0,2b68 <I_blt_cg_cr_rs1_rs2_edges_offset_rs1val_0x1_rs2val_0xaaaaaaaa+0x48>
2: # goes here during backward branch if taken
  LI(x1, 1)
    2b44:	00100093          	addi	x1,x0,1
  # Check if x1 contains the expected result. x17 is the signature ptr, x5 is the link ptr, x4 is a temp reg.
  RVTEST_SIGUPD(x17, x5, x4, x1, I_blt_cg_cr_rs1_rs2_edges_offset_rs1val_0x1_rs2val_0xaaaaaaaa, I_blt_cg_cr_rs1_rs2_edges_offset_rs1val_0x1_rs2val_0xaaaaaaaa_str) # signature 1 for taken
    2b48:	0008a203          	lw	x4,0(x17)
    2b4c:	00120863          	beq	x4,x1,2b5c <I_blt_cg_cr_rs1_rs2_edges_offset_rs1val_0x1_rs2val_0xaaaaaaaa+0x3c>
    2b50:	52c072ef          	jal	x5,a07c <failedtest_x5_x4>
    2b54:	00002b20          	.word	0x00002b20
    2b58:	0000e3ee          	.word	0x0000e3ee
    2b5c:	00488893          	addi	x17,x17,4
  j 4f # done with test
    2b60:	0080006f          	jal	x0,2b68 <I_blt_cg_cr_rs1_rs2_edges_offset_rs1val_0x1_rs2val_0xaaaaaaaa+0x48>
3: # goes here during forward branch if taken
  blt x1, x7, 2b # backward branch, definitely taken
    2b64:	fe70c0e3          	blt	x1,x7,2b44 <I_blt_cg_cr_rs1_rs2_edges_offset_rs1val_0x1_rs2val_0xaaaaaaaa+0x24>
4: # done with test

# cr_rs1_rs2_edges_offset (Test source rs1 = 0x00000001 rs2 = 0x55555555)
  RVTEST_TESTDATA_LOAD_INT(x23, x11) # load rs1: x11 = 0x00000001
    2b68:	000ba583          	lw	x11,0(x23)
    2b6c:	004b8b93          	addi	x23,x23,4
  RVTEST_TESTDATA_LOAD_INT(x23, x12) # load rs2: x12 = 0x55555555
    2b70:	000ba603          	lw	x12,0(x23)
    2b74:	004b8b93          	addi	x23,x23,4

00002b78 <I_blt_cg_cr_rs1_rs2_edges_offset_rs1val_0x1_rs2val_0x55555555>:
0: # destination for backwards branch that is never taken
I_blt_cg_cr_rs1_rs2_edges_offset_rs1val_0x1_rs2val_0x55555555:
  blt x11, x12, 3f # forward branch, if taken
    2b78:	04c5c263          	blt	x11,x12,2bbc <I_blt_cg_cr_rs1_rs2_edges_offset_rs1val_0x1_rs2val_0x55555555+0x44>
1: # goes here if not taken
  blt x11, x12, 0b # backward branch, never taken
    2b7c:	fec5cee3          	blt	x11,x12,2b78 <I_blt_cg_cr_rs1_rs2_edges_offset_rs1val_0x1_rs2val_0x55555555>
  # Check if x0 contains the expected result. x17 is the signature ptr, x5 is the link ptr, x4 is a temp reg.
  RVTEST_SIGUPD(x17, x5, x4, x0, I_blt_cg_cr_rs1_rs2_edges_offset_rs1val_0x1_rs2val_0x55555555, I_blt_cg_cr_rs1_rs2_edges_offset_rs1val_0x1_rs2val_0x55555555_str)
    2b80:	0008a203          	lw	x4,0(x17)
    2b84:	00020863          	beq	x4,x0,2b94 <I_blt_cg_cr_rs1_rs2_edges_offset_rs1val_0x1_rs2val_0x55555555+0x1c>
    2b88:	4f4072ef          	jal	x5,a07c <failedtest_x5_x4>
    2b8c:	00002b78          	.word	0x00002b78
    2b90:	0000e449          	.word	0x0000e449
    2b94:	00488893          	addi	x17,x17,4
  j 4f # done with test
    2b98:	0280006f          	jal	x0,2bc0 <I_blt_cg_cr_rs1_rs2_edges_offset_rs1val_0x1_rs2val_0x55555555+0x48>
2: # goes here during backward branch if taken
  LI(x11, 1)
    2b9c:	00100593          	addi	x11,x0,1
  # Check if x11 contains the expected result. x17 is the signature ptr, x5 is the link ptr, x4 is a temp reg.
  RVTEST_SIGUPD(x17, x5, x4, x11, I_blt_cg_cr_rs1_rs2_edges_offset_rs1val_0x1_rs2val_0x55555555, I_blt_cg_cr_rs1_rs2_edges_offset_rs1val_0x1_rs2val_0x55555555_str) # signature 1 for taken
    2ba0:	0008a203          	lw	x4,0(x17)
    2ba4:	00b20863          	beq	x4,x11,2bb4 <I_blt_cg_cr_rs1_rs2_edges_offset_rs1val_0x1_rs2val_0x55555555+0x3c>
    2ba8:	4d4072ef          	jal	x5,a07c <failedtest_x5_x4>
    2bac:	00002b78          	.word	0x00002b78
    2bb0:	0000e449          	.word	0x0000e449
    2bb4:	00488893          	addi	x17,x17,4
  j 4f # done with test
    2bb8:	0080006f          	jal	x0,2bc0 <I_blt_cg_cr_rs1_rs2_edges_offset_rs1val_0x1_rs2val_0x55555555+0x48>
3: # goes here during forward branch if taken
  blt x11, x12, 2b # backward branch, definitely taken
    2bbc:	fec5c0e3          	blt	x11,x12,2b9c <I_blt_cg_cr_rs1_rs2_edges_offset_rs1val_0x1_rs2val_0x55555555+0x24>
4: # done with test

# cr_rs1_rs2_edges_offset (Test source rs1 = 0x00000002 rs2 = 0x00000000)
  RVTEST_TESTDATA_LOAD_INT(x23, x22) # load rs1: x22 = 0x00000002
    2bc0:	000bab03          	lw	x22,0(x23)
    2bc4:	004b8b93          	addi	x23,x23,4
  RVTEST_TESTDATA_LOAD_INT(x23, x29) # load rs2: x29 = 0x00000000
    2bc8:	000bae83          	lw	x29,0(x23)
    2bcc:	004b8b93          	addi	x23,x23,4

00002bd0 <I_blt_cg_cr_rs1_rs2_edges_offset_rs1val_0x2_rs2val_0x0>:
0: # destination for backwards branch that is never taken
I_blt_cg_cr_rs1_rs2_edges_offset_rs1val_0x2_rs2val_0x0:
  blt x22, x29, 3f # forward branch, if taken
    2bd0:	05db4263          	blt	x22,x29,2c14 <I_blt_cg_cr_rs1_rs2_edges_offset_rs1val_0x2_rs2val_0x0+0x44>
1: # goes here if not taken
  blt x22, x29, 0b # backward branch, never taken
    2bd4:	ffdb4ee3          	blt	x22,x29,2bd0 <I_blt_cg_cr_rs1_rs2_edges_offset_rs1val_0x2_rs2val_0x0>
  # Check if x0 contains the expected result. x17 is the signature ptr, x5 is the link ptr, x4 is a temp reg.
  RVTEST_SIGUPD(x17, x5, x4, x0, I_blt_cg_cr_rs1_rs2_edges_offset_rs1val_0x2_rs2val_0x0, I_blt_cg_cr_rs1_rs2_edges_offset_rs1val_0x2_rs2val_0x0_str)
    2bd8:	0008a203          	lw	x4,0(x17)
    2bdc:	00020863          	beq	x4,x0,2bec <I_blt_cg_cr_rs1_rs2_edges_offset_rs1val_0x2_rs2val_0x0+0x1c>
    2be0:	49c072ef          	jal	x5,a07c <failedtest_x5_x4>
    2be4:	00002bd0          	.word	0x00002bd0
    2be8:	0000e4a4          	.word	0x0000e4a4
    2bec:	00488893          	addi	x17,x17,4
  j 4f # done with test
    2bf0:	0280006f          	jal	x0,2c18 <I_blt_cg_cr_rs1_rs2_edges_offset_rs1val_0x2_rs2val_0x0+0x48>
2: # goes here during backward branch if taken
  LI(x22, 1)
    2bf4:	00100b13          	addi	x22,x0,1
  # Check if x22 contains the expected result. x17 is the signature ptr, x5 is the link ptr, x4 is a temp reg.
  RVTEST_SIGUPD(x17, x5, x4, x22, I_blt_cg_cr_rs1_rs2_edges_offset_rs1val_0x2_rs2val_0x0, I_blt_cg_cr_rs1_rs2_edges_offset_rs1val_0x2_rs2val_0x0_str) # signature 1 for taken
    2bf8:	0008a203          	lw	x4,0(x17)
    2bfc:	01620863          	beq	x4,x22,2c0c <I_blt_cg_cr_rs1_rs2_edges_offset_rs1val_0x2_rs2val_0x0+0x3c>
    2c00:	47c072ef          	jal	x5,a07c <failedtest_x5_x4>
    2c04:	00002bd0          	.word	0x00002bd0
    2c08:	0000e4a4          	.word	0x0000e4a4
    2c0c:	00488893          	addi	x17,x17,4
  j 4f # done with test
    2c10:	0080006f          	jal	x0,2c18 <I_blt_cg_cr_rs1_rs2_edges_offset_rs1val_0x2_rs2val_0x0+0x48>
3: # goes here during forward branch if taken
  blt x22, x29, 2b # backward branch, definitely taken
    2c14:	ffdb40e3          	blt	x22,x29,2bf4 <I_blt_cg_cr_rs1_rs2_edges_offset_rs1val_0x2_rs2val_0x0+0x24>
4: # done with test

# cr_rs1_rs2_edges_offset (Test source rs1 = 0x00000002 rs2 = 0x00000001)
  RVTEST_TESTDATA_LOAD_INT(x23, x9) # load rs1: x9 = 0x00000002
    2c18:	000ba483          	lw	x9,0(x23)
    2c1c:	004b8b93          	addi	x23,x23,4
  RVTEST_TESTDATA_LOAD_INT(x23, x11) # load rs2: x11 = 0x00000001
    2c20:	000ba583          	lw	x11,0(x23)
    2c24:	004b8b93          	addi	x23,x23,4

00002c28 <I_blt_cg_cr_rs1_rs2_edges_offset_rs1val_0x2_rs2val_0x1>:
0: # destination for backwards branch that is never taken
I_blt_cg_cr_rs1_rs2_edges_offset_rs1val_0x2_rs2val_0x1:
  blt x9, x11, 3f # forward branch, if taken
    2c28:	04b4c263          	blt	x9,x11,2c6c <I_blt_cg_cr_rs1_rs2_edges_offset_rs1val_0x2_rs2val_0x1+0x44>
1: # goes here if not taken
  blt x9, x11, 0b # backward branch, never taken
    2c2c:	feb4cee3          	blt	x9,x11,2c28 <I_blt_cg_cr_rs1_rs2_edges_offset_rs1val_0x2_rs2val_0x1>
  # Check if x0 contains the expected result. x17 is the signature ptr, x5 is the link ptr, x4 is a temp reg.
  RVTEST_SIGUPD(x17, x5, x4, x0, I_blt_cg_cr_rs1_rs2_edges_offset_rs1val_0x2_rs2val_0x1, I_blt_cg_cr_rs1_rs2_edges_offset_rs1val_0x2_rs2val_0x1_str)
    2c30:	0008a203          	lw	x4,0(x17)
    2c34:	00020863          	beq	x4,x0,2c44 <I_blt_cg_cr_rs1_rs2_edges_offset_rs1val_0x2_rs2val_0x1+0x1c>
    2c38:	444072ef          	jal	x5,a07c <failedtest_x5_x4>
    2c3c:	00002c28          	.word	0x00002c28
    2c40:	0000e4f8          	.word	0x0000e4f8
    2c44:	00488893          	addi	x17,x17,4
  j 4f # done with test
    2c48:	0280006f          	jal	x0,2c70 <I_blt_cg_cr_rs1_rs2_edges_offset_rs1val_0x2_rs2val_0x1+0x48>
2: # goes here during backward branch if taken
  LI(x9, 1)
    2c4c:	00100493          	addi	x9,x0,1
  # Check if x9 contains the expected result. x17 is the signature ptr, x5 is the link ptr, x4 is a temp reg.
  RVTEST_SIGUPD(x17, x5, x4, x9, I_blt_cg_cr_rs1_rs2_edges_offset_rs1val_0x2_rs2val_0x1, I_blt_cg_cr_rs1_rs2_edges_offset_rs1val_0x2_rs2val_0x1_str) # signature 1 for taken
    2c50:	0008a203          	lw	x4,0(x17)
    2c54:	00920863          	beq	x4,x9,2c64 <I_blt_cg_cr_rs1_rs2_edges_offset_rs1val_0x2_rs2val_0x1+0x3c>
    2c58:	424072ef          	jal	x5,a07c <failedtest_x5_x4>
    2c5c:	00002c28          	.word	0x00002c28
    2c60:	0000e4f8          	.word	0x0000e4f8
    2c64:	00488893          	addi	x17,x17,4
  j 4f # done with test
    2c68:	0080006f          	jal	x0,2c70 <I_blt_cg_cr_rs1_rs2_edges_offset_rs1val_0x2_rs2val_0x1+0x48>
3: # goes here during forward branch if taken
  blt x9, x11, 2b # backward branch, definitely taken
    2c6c:	feb4c0e3          	blt	x9,x11,2c4c <I_blt_cg_cr_rs1_rs2_edges_offset_rs1val_0x2_rs2val_0x1+0x24>
4: # done with test

# cr_rs1_rs2_edges_offset (Test source rs1 = 0x00000002 rs2 = 0x00000002)
  RVTEST_TESTDATA_LOAD_INT(x23, x11) # load rs1: x11 = 0x00000002
    2c70:	000ba583          	lw	x11,0(x23)
    2c74:	004b8b93          	addi	x23,x23,4
  RVTEST_TESTDATA_LOAD_INT(x23, x26) # load rs2: x26 = 0x00000002
    2c78:	000bad03          	lw	x26,0(x23)
    2c7c:	004b8b93          	addi	x23,x23,4

00002c80 <I_blt_cg_cr_rs1_rs2_edges_offset_rs1val_0x2_rs2val_0x2>:
0: # destination for backwards branch that is never taken
I_blt_cg_cr_rs1_rs2_edges_offset_rs1val_0x2_rs2val_0x2:
  blt x11, x26, 3f # forward branch, if taken
    2c80:	05a5c263          	blt	x11,x26,2cc4 <I_blt_cg_cr_rs1_rs2_edges_offset_rs1val_0x2_rs2val_0x2+0x44>
1: # goes here if not taken
  blt x11, x26, 0b # backward branch, never taken
    2c84:	ffa5cee3          	blt	x11,x26,2c80 <I_blt_cg_cr_rs1_rs2_edges_offset_rs1val_0x2_rs2val_0x2>
  # Check if x0 contains the expected result. x17 is the signature ptr, x5 is the link ptr, x4 is a temp reg.
  RVTEST_SIGUPD(x17, x5, x4, x0, I_blt_cg_cr_rs1_rs2_edges_offset_rs1val_0x2_rs2val_0x2, I_blt_cg_cr_rs1_rs2_edges_offset_rs1val_0x2_rs2val_0x2_str)
    2c88:	0008a203          	lw	x4,0(x17)
    2c8c:	00020863          	beq	x4,x0,2c9c <I_blt_cg_cr_rs1_rs2_edges_offset_rs1val_0x2_rs2val_0x2+0x1c>
    2c90:	3ec072ef          	jal	x5,a07c <failedtest_x5_x4>
    2c94:	00002c80          	.word	0x00002c80
    2c98:	0000e54c          	.word	0x0000e54c
    2c9c:	00488893          	addi	x17,x17,4
  j 4f # done with test
    2ca0:	0280006f          	jal	x0,2cc8 <I_blt_cg_cr_rs1_rs2_edges_offset_rs1val_0x2_rs2val_0x2+0x48>
2: # goes here during backward branch if taken
  LI(x11, 1)
    2ca4:	00100593          	addi	x11,x0,1
  # Check if x11 contains the expected result. x17 is the signature ptr, x5 is the link ptr, x4 is a temp reg.
  RVTEST_SIGUPD(x17, x5, x4, x11, I_blt_cg_cr_rs1_rs2_edges_offset_rs1val_0x2_rs2val_0x2, I_blt_cg_cr_rs1_rs2_edges_offset_rs1val_0x2_rs2val_0x2_str) # signature 1 for taken
    2ca8:	0008a203          	lw	x4,0(x17)
    2cac:	00b20863          	beq	x4,x11,2cbc <I_blt_cg_cr_rs1_rs2_edges_offset_rs1val_0x2_rs2val_0x2+0x3c>
    2cb0:	3cc072ef          	jal	x5,a07c <failedtest_x5_x4>
    2cb4:	00002c80          	.word	0x00002c80
    2cb8:	0000e54c          	.word	0x0000e54c
    2cbc:	00488893          	addi	x17,x17,4
  j 4f # done with test
    2cc0:	0080006f          	jal	x0,2cc8 <I_blt_cg_cr_rs1_rs2_edges_offset_rs1val_0x2_rs2val_0x2+0x48>
3: # goes here during forward branch if taken
  blt x11, x26, 2b # backward branch, definitely taken
    2cc4:	ffa5c0e3          	blt	x11,x26,2ca4 <I_blt_cg_cr_rs1_rs2_edges_offset_rs1val_0x2_rs2val_0x2+0x24>
4: # done with test

# cr_rs1_rs2_edges_offset (Test source rs1 = 0x00000002 rs2 = 0x80000000)
  RVTEST_TESTDATA_LOAD_INT(x23, x31) # load rs1: x31 = 0x00000002
    2cc8:	000baf83          	lw	x31,0(x23)
    2ccc:	004b8b93          	addi	x23,x23,4
  RVTEST_TESTDATA_LOAD_INT(x23, x18) # load rs2: x18 = 0x80000000
    2cd0:	000ba903          	lw	x18,0(x23)
    2cd4:	004b8b93          	addi	x23,x23,4

00002cd8 <I_blt_cg_cr_rs1_rs2_edges_offset_rs1val_0x2_rs2val_0x80000000>:
0: # destination for backwards branch that is never taken
I_blt_cg_cr_rs1_rs2_edges_offset_rs1val_0x2_rs2val_0x80000000:
  blt x31, x18, 3f # forward branch, if taken
    2cd8:	052fc263          	blt	x31,x18,2d1c <I_blt_cg_cr_rs1_rs2_edges_offset_rs1val_0x2_rs2val_0x80000000+0x44>
1: # goes here if not taken
  blt x31, x18, 0b # backward branch, never taken
    2cdc:	ff2fcee3          	blt	x31,x18,2cd8 <I_blt_cg_cr_rs1_rs2_edges_offset_rs1val_0x2_rs2val_0x80000000>
  # Check if x0 contains the expected result. x17 is the signature ptr, x5 is the link ptr, x4 is a temp reg.
  RVTEST_SIGUPD(x17, x5, x4, x0, I_blt_cg_cr_rs1_rs2_edges_offset_rs1val_0x2_rs2val_0x80000000, I_blt_cg_cr_rs1_rs2_edges_offset_rs1val_0x2_rs2val_0x80000000_str)
    2ce0:	0008a203          	lw	x4,0(x17)
    2ce4:	00020863          	beq	x4,x0,2cf4 <I_blt_cg_cr_rs1_rs2_edges_offset_rs1val_0x2_rs2val_0x80000000+0x1c>
    2ce8:	394072ef          	jal	x5,a07c <failedtest_x5_x4>
    2cec:	00002cd8          	.word	0x00002cd8
    2cf0:	0000e5a0          	.word	0x0000e5a0
    2cf4:	00488893          	addi	x17,x17,4
  j 4f # done with test
    2cf8:	0280006f          	jal	x0,2d20 <I_blt_cg_cr_rs1_rs2_edges_offset_rs1val_0x2_rs2val_0x80000000+0x48>
2: # goes here during backward branch if taken
  LI(x31, 1)
    2cfc:	00100f93          	addi	x31,x0,1
  # Check if x31 contains the expected result. x17 is the signature ptr, x5 is the link ptr, x4 is a temp reg.
  RVTEST_SIGUPD(x17, x5, x4, x31, I_blt_cg_cr_rs1_rs2_edges_offset_rs1val_0x2_rs2val_0x80000000, I_blt_cg_cr_rs1_rs2_edges_offset_rs1val_0x2_rs2val_0x80000000_str) # signature 1 for taken
    2d00:	0008a203          	lw	x4,0(x17)
    2d04:	01f20863          	beq	x4,x31,2d14 <I_blt_cg_cr_rs1_rs2_edges_offset_rs1val_0x2_rs2val_0x80000000+0x3c>
    2d08:	374072ef          	jal	x5,a07c <failedtest_x5_x4>
    2d0c:	00002cd8          	.word	0x00002cd8
    2d10:	0000e5a0          	.word	0x0000e5a0
    2d14:	00488893          	addi	x17,x17,4
  j 4f # done with test
    2d18:	0080006f          	jal	x0,2d20 <I_blt_cg_cr_rs1_rs2_edges_offset_rs1val_0x2_rs2val_0x80000000+0x48>
3: # goes here during forward branch if taken
  blt x31, x18, 2b # backward branch, definitely taken
    2d1c:	ff2fc0e3          	blt	x31,x18,2cfc <I_blt_cg_cr_rs1_rs2_edges_offset_rs1val_0x2_rs2val_0x80000000+0x24>
4: # done with test

# cr_rs1_rs2_edges_offset (Test source rs1 = 0x00000002 rs2 = 0x80000001)
  RVTEST_TESTDATA_LOAD_INT(x23, x31) # load rs1: x31 = 0x00000002
    2d20:	000baf83          	lw	x31,0(x23)
    2d24:	004b8b93          	addi	x23,x23,4
  RVTEST_TESTDATA_LOAD_INT(x23, x22) # load rs2: x22 = 0x80000001
    2d28:	000bab03          	lw	x22,0(x23)
    2d2c:	004b8b93          	addi	x23,x23,4

00002d30 <I_blt_cg_cr_rs1_rs2_edges_offset_rs1val_0x2_rs2val_0x80000001>:
0: # destination for backwards branch that is never taken
I_blt_cg_cr_rs1_rs2_edges_offset_rs1val_0x2_rs2val_0x80000001:
  blt x31, x22, 3f # forward branch, if taken
    2d30:	056fc263          	blt	x31,x22,2d74 <I_blt_cg_cr_rs1_rs2_edges_offset_rs1val_0x2_rs2val_0x80000001+0x44>
1: # goes here if not taken
  blt x31, x22, 0b # backward branch, never taken
    2d34:	ff6fcee3          	blt	x31,x22,2d30 <I_blt_cg_cr_rs1_rs2_edges_offset_rs1val_0x2_rs2val_0x80000001>
  # Check if x0 contains the expected result. x17 is the signature ptr, x5 is the link ptr, x4 is a temp reg.
  RVTEST_SIGUPD(x17, x5, x4, x0, I_blt_cg_cr_rs1_rs2_edges_offset_rs1val_0x2_rs2val_0x80000001, I_blt_cg_cr_rs1_rs2_edges_offset_rs1val_0x2_rs2val_0x80000001_str)
    2d38:	0008a203          	lw	x4,0(x17)
    2d3c:	00020863          	beq	x4,x0,2d4c <I_blt_cg_cr_rs1_rs2_edges_offset_rs1val_0x2_rs2val_0x80000001+0x1c>
    2d40:	33c072ef          	jal	x5,a07c <failedtest_x5_x4>
    2d44:	00002d30          	.word	0x00002d30
    2d48:	0000e5fb          	.word	0x0000e5fb
    2d4c:	00488893          	addi	x17,x17,4
  j 4f # done with test
    2d50:	0280006f          	jal	x0,2d78 <I_blt_cg_cr_rs1_rs2_edges_offset_rs1val_0x2_rs2val_0x80000001+0x48>
2: # goes here during backward branch if taken
  LI(x31, 1)
    2d54:	00100f93          	addi	x31,x0,1
  # Check if x31 contains the expected result. x17 is the signature ptr, x5 is the link ptr, x4 is a temp reg.
  RVTEST_SIGUPD(x17, x5, x4, x31, I_blt_cg_cr_rs1_rs2_edges_offset_rs1val_0x2_rs2val_0x80000001, I_blt_cg_cr_rs1_rs2_edges_offset_rs1val_0x2_rs2val_0x80000001_str) # signature 1 for taken
    2d58:	0008a203          	lw	x4,0(x17)
    2d5c:	01f20863          	beq	x4,x31,2d6c <I_blt_cg_cr_rs1_rs2_edges_offset_rs1val_0x2_rs2val_0x80000001+0x3c>
    2d60:	31c072ef          	jal	x5,a07c <failedtest_x5_x4>
    2d64:	00002d30          	.word	0x00002d30
    2d68:	0000e5fb          	.word	0x0000e5fb
    2d6c:	00488893          	addi	x17,x17,4
  j 4f # done with test
    2d70:	0080006f          	jal	x0,2d78 <I_blt_cg_cr_rs1_rs2_edges_offset_rs1val_0x2_rs2val_0x80000001+0x48>
3: # goes here during forward branch if taken
  blt x31, x22, 2b # backward branch, definitely taken
    2d74:	ff6fc0e3          	blt	x31,x22,2d54 <I_blt_cg_cr_rs1_rs2_edges_offset_rs1val_0x2_rs2val_0x80000001+0x24>
4: # done with test

# cr_rs1_rs2_edges_offset (Test source rs1 = 0x00000002 rs2 = 0x7fffffff)
  RVTEST_TESTDATA_LOAD_INT(x23, x24) # load rs1: x24 = 0x00000002
    2d78:	000bac03          	lw	x24,0(x23)
    2d7c:	004b8b93          	addi	x23,x23,4
  RVTEST_TESTDATA_LOAD_INT(x23, x22) # load rs2: x22 = 0x7fffffff
    2d80:	000bab03          	lw	x22,0(x23)
    2d84:	004b8b93          	addi	x23,x23,4

00002d88 <I_blt_cg_cr_rs1_rs2_edges_offset_rs1val_0x2_rs2val_0x7fffffff>:
0: # destination for backwards branch that is never taken
I_blt_cg_cr_rs1_rs2_edges_offset_rs1val_0x2_rs2val_0x7fffffff:
  blt x24, x22, 3f # forward branch, if taken
    2d88:	056c4263          	blt	x24,x22,2dcc <I_blt_cg_cr_rs1_rs2_edges_offset_rs1val_0x2_rs2val_0x7fffffff+0x44>
1: # goes here if not taken
  blt x24, x22, 0b # backward branch, never taken
    2d8c:	ff6c4ee3          	blt	x24,x22,2d88 <I_blt_cg_cr_rs1_rs2_edges_offset_rs1val_0x2_rs2val_0x7fffffff>
  # Check if x0 contains the expected result. x17 is the signature ptr, x5 is the link ptr, x4 is a temp reg.
  RVTEST_SIGUPD(x17, x5, x4, x0, I_blt_cg_cr_rs1_rs2_edges_offset_rs1val_0x2_rs2val_0x7fffffff, I_blt_cg_cr_rs1_rs2_edges_offset_rs1val_0x2_rs2val_0x7fffffff_str)
    2d90:	0008a203          	lw	x4,0(x17)
    2d94:	00020863          	beq	x4,x0,2da4 <I_blt_cg_cr_rs1_rs2_edges_offset_rs1val_0x2_rs2val_0x7fffffff+0x1c>
    2d98:	2e4072ef          	jal	x5,a07c <failedtest_x5_x4>
    2d9c:	00002d88          	.word	0x00002d88
    2da0:	0000e656          	.word	0x0000e656
    2da4:	00488893          	addi	x17,x17,4
  j 4f # done with test
    2da8:	0280006f          	jal	x0,2dd0 <I_blt_cg_cr_rs1_rs2_edges_offset_rs1val_0x2_rs2val_0x7fffffff+0x48>
2: # goes here during backward branch if taken
  LI(x24, 1)
    2dac:	00100c13          	addi	x24,x0,1
  # Check if x24 contains the expected result. x17 is the signature ptr, x5 is the link ptr, x4 is a temp reg.
  RVTEST_SIGUPD(x17, x5, x4, x24, I_blt_cg_cr_rs1_rs2_edges_offset_rs1val_0x2_rs2val_0x7fffffff, I_blt_cg_cr_rs1_rs2_edges_offset_rs1val_0x2_rs2val_0x7fffffff_str) # signature 1 for taken
    2db0:	0008a203          	lw	x4,0(x17)
    2db4:	01820863          	beq	x4,x24,2dc4 <I_blt_cg_cr_rs1_rs2_edges_offset_rs1val_0x2_rs2val_0x7fffffff+0x3c>
    2db8:	2c4072ef          	jal	x5,a07c <failedtest_x5_x4>
    2dbc:	00002d88          	.word	0x00002d88
    2dc0:	0000e656          	.word	0x0000e656
    2dc4:	00488893          	addi	x17,x17,4
  j 4f # done with test
    2dc8:	0080006f          	jal	x0,2dd0 <I_blt_cg_cr_rs1_rs2_edges_offset_rs1val_0x2_rs2val_0x7fffffff+0x48>
3: # goes here during forward branch if taken
  blt x24, x22, 2b # backward branch, definitely taken
    2dcc:	ff6c40e3          	blt	x24,x22,2dac <I_blt_cg_cr_rs1_rs2_edges_offset_rs1val_0x2_rs2val_0x7fffffff+0x24>
4: # done with test

# cr_rs1_rs2_edges_offset (Test source rs1 = 0x00000002 rs2 = 0x7ffffffe)
  RVTEST_TESTDATA_LOAD_INT(x23, x1) # load rs1: x1 = 0x00000002
    2dd0:	000ba083          	lw	x1,0(x23)
    2dd4:	004b8b93          	addi	x23,x23,4
  RVTEST_TESTDATA_LOAD_INT(x23, x31) # load rs2: x31 = 0x7ffffffe
    2dd8:	000baf83          	lw	x31,0(x23)
    2ddc:	004b8b93          	addi	x23,x23,4

00002de0 <I_blt_cg_cr_rs1_rs2_edges_offset_rs1val_0x2_rs2val_0x7ffffffe>:
0: # destination for backwards branch that is never taken
I_blt_cg_cr_rs1_rs2_edges_offset_rs1val_0x2_rs2val_0x7ffffffe:
  blt x1, x31, 3f # forward branch, if taken
    2de0:	05f0c263          	blt	x1,x31,2e24 <I_blt_cg_cr_rs1_rs2_edges_offset_rs1val_0x2_rs2val_0x7ffffffe+0x44>
1: # goes here if not taken
  blt x1, x31, 0b # backward branch, never taken
    2de4:	fff0cee3          	blt	x1,x31,2de0 <I_blt_cg_cr_rs1_rs2_edges_offset_rs1val_0x2_rs2val_0x7ffffffe>
  # Check if x0 contains the expected result. x17 is the signature ptr, x5 is the link ptr, x4 is a temp reg.
  RVTEST_SIGUPD(x17, x5, x4, x0, I_blt_cg_cr_rs1_rs2_edges_offset_rs1val_0x2_rs2val_0x7ffffffe, I_blt_cg_cr_rs1_rs2_edges_offset_rs1val_0x2_rs2val_0x7ffffffe_str)
    2de8:	0008a203          	lw	x4,0(x17)
    2dec:	00020863          	beq	x4,x0,2dfc <I_blt_cg_cr_rs1_rs2_edges_offset_rs1val_0x2_rs2val_0x7ffffffe+0x1c>
    2df0:	28c072ef          	jal	x5,a07c <failedtest_x5_x4>
    2df4:	00002de0          	.word	0x00002de0
    2df8:	0000e6b1          	.word	0x0000e6b1
    2dfc:	00488893          	addi	x17,x17,4
  j 4f # done with test
    2e00:	0280006f          	jal	x0,2e28 <I_blt_cg_cr_rs1_rs2_edges_offset_rs1val_0x2_rs2val_0x7ffffffe+0x48>
2: # goes here during backward branch if taken
  LI(x1, 1)
    2e04:	00100093          	addi	x1,x0,1
  # Check if x1 contains the expected result. x17 is the signature ptr, x5 is the link ptr, x4 is a temp reg.
  RVTEST_SIGUPD(x17, x5, x4, x1, I_blt_cg_cr_rs1_rs2_edges_offset_rs1val_0x2_rs2val_0x7ffffffe, I_blt_cg_cr_rs1_rs2_edges_offset_rs1val_0x2_rs2val_0x7ffffffe_str) # signature 1 for taken
    2e08:	0008a203          	lw	x4,0(x17)
    2e0c:	00120863          	beq	x4,x1,2e1c <I_blt_cg_cr_rs1_rs2_edges_offset_rs1val_0x2_rs2val_0x7ffffffe+0x3c>
    2e10:	26c072ef          	jal	x5,a07c <failedtest_x5_x4>
    2e14:	00002de0          	.word	0x00002de0
    2e18:	0000e6b1          	.word	0x0000e6b1
    2e1c:	00488893          	addi	x17,x17,4
  j 4f # done with test
    2e20:	0080006f          	jal	x0,2e28 <I_blt_cg_cr_rs1_rs2_edges_offset_rs1val_0x2_rs2val_0x7ffffffe+0x48>
3: # goes here during forward branch if taken
  blt x1, x31, 2b # backward branch, definitely taken
    2e24:	fff0c0e3          	blt	x1,x31,2e04 <I_blt_cg_cr_rs1_rs2_edges_offset_rs1val_0x2_rs2val_0x7ffffffe+0x24>
4: # done with test

# cr_rs1_rs2_edges_offset (Test source rs1 = 0x00000002 rs2 = 0xffffffff)
  RVTEST_TESTDATA_LOAD_INT(x23, x30) # load rs1: x30 = 0x00000002
    2e28:	000baf03          	lw	x30,0(x23)
    2e2c:	004b8b93          	addi	x23,x23,4
  RVTEST_TESTDATA_LOAD_INT(x23, x11) # load rs2: x11 = 0xffffffff
    2e30:	000ba583          	lw	x11,0(x23)
    2e34:	004b8b93          	addi	x23,x23,4

00002e38 <I_blt_cg_cr_rs1_rs2_edges_offset_rs1val_0x2_rs2val_0xffffffff>:
0: # destination for backwards branch that is never taken
I_blt_cg_cr_rs1_rs2_edges_offset_rs1val_0x2_rs2val_0xffffffff:
  blt x30, x11, 3f # forward branch, if taken
    2e38:	04bf4263          	blt	x30,x11,2e7c <I_blt_cg_cr_rs1_rs2_edges_offset_rs1val_0x2_rs2val_0xffffffff+0x44>
1: # goes here if not taken
  blt x30, x11, 0b # backward branch, never taken
    2e3c:	febf4ee3          	blt	x30,x11,2e38 <I_blt_cg_cr_rs1_rs2_edges_offset_rs1val_0x2_rs2val_0xffffffff>
  # Check if x0 contains the expected result. x17 is the signature ptr, x5 is the link ptr, x4 is a temp reg.
  RVTEST_SIGUPD(x17, x5, x4, x0, I_blt_cg_cr_rs1_rs2_edges_offset_rs1val_0x2_rs2val_0xffffffff, I_blt_cg_cr_rs1_rs2_edges_offset_rs1val_0x2_rs2val_0xffffffff_str)
    2e40:	0008a203          	lw	x4,0(x17)
    2e44:	00020863          	beq	x4,x0,2e54 <I_blt_cg_cr_rs1_rs2_edges_offset_rs1val_0x2_rs2val_0xffffffff+0x1c>
    2e48:	234072ef          	jal	x5,a07c <failedtest_x5_x4>
    2e4c:	00002e38          	.word	0x00002e38
    2e50:	0000e70c          	.word	0x0000e70c
    2e54:	00488893          	addi	x17,x17,4
  j 4f # done with test
    2e58:	0280006f          	jal	x0,2e80 <I_blt_cg_cr_rs1_rs2_edges_offset_rs1val_0x2_rs2val_0xffffffff+0x48>
2: # goes here during backward branch if taken
  LI(x30, 1)
    2e5c:	00100f13          	addi	x30,x0,1
  # Check if x30 contains the expected result. x17 is the signature ptr, x5 is the link ptr, x4 is a temp reg.
  RVTEST_SIGUPD(x17, x5, x4, x30, I_blt_cg_cr_rs1_rs2_edges_offset_rs1val_0x2_rs2val_0xffffffff, I_blt_cg_cr_rs1_rs2_edges_offset_rs1val_0x2_rs2val_0xffffffff_str) # signature 1 for taken
    2e60:	0008a203          	lw	x4,0(x17)
    2e64:	01e20863          	beq	x4,x30,2e74 <I_blt_cg_cr_rs1_rs2_edges_offset_rs1val_0x2_rs2val_0xffffffff+0x3c>
    2e68:	214072ef          	jal	x5,a07c <failedtest_x5_x4>
    2e6c:	00002e38          	.word	0x00002e38
    2e70:	0000e70c          	.word	0x0000e70c
    2e74:	00488893          	addi	x17,x17,4
  j 4f # done with test
    2e78:	0080006f          	jal	x0,2e80 <I_blt_cg_cr_rs1_rs2_edges_offset_rs1val_0x2_rs2val_0xffffffff+0x48>
3: # goes here during forward branch if taken
  blt x30, x11, 2b # backward branch, definitely taken
    2e7c:	febf40e3          	blt	x30,x11,2e5c <I_blt_cg_cr_rs1_rs2_edges_offset_rs1val_0x2_rs2val_0xffffffff+0x24>
4: # done with test

# cr_rs1_rs2_edges_offset (Test source rs1 = 0x00000002 rs2 = 0xfffffffe)
  RVTEST_TESTDATA_LOAD_INT(x23, x13) # load rs1: x13 = 0x00000002
    2e80:	000ba683          	lw	x13,0(x23)
    2e84:	004b8b93          	addi	x23,x23,4
  RVTEST_TESTDATA_LOAD_INT(x23, x7) # load rs2: x7 = 0xfffffffe
    2e88:	000ba383          	lw	x7,0(x23)
    2e8c:	004b8b93          	addi	x23,x23,4

00002e90 <I_blt_cg_cr_rs1_rs2_edges_offset_rs1val_0x2_rs2val_0xfffffffe>:
0: # destination for backwards branch that is never taken
I_blt_cg_cr_rs1_rs2_edges_offset_rs1val_0x2_rs2val_0xfffffffe:
  blt x13, x7, 3f # forward branch, if taken
    2e90:	0476c263          	blt	x13,x7,2ed4 <I_blt_cg_cr_rs1_rs2_edges_offset_rs1val_0x2_rs2val_0xfffffffe+0x44>
1: # goes here if not taken
  blt x13, x7, 0b # backward branch, never taken
    2e94:	fe76cee3          	blt	x13,x7,2e90 <I_blt_cg_cr_rs1_rs2_edges_offset_rs1val_0x2_rs2val_0xfffffffe>
  # Check if x0 contains the expected result. x17 is the signature ptr, x5 is the link ptr, x4 is a temp reg.
  RVTEST_SIGUPD(x17, x5, x4, x0, I_blt_cg_cr_rs1_rs2_edges_offset_rs1val_0x2_rs2val_0xfffffffe, I_blt_cg_cr_rs1_rs2_edges_offset_rs1val_0x2_rs2val_0xfffffffe_str)
    2e98:	0008a203          	lw	x4,0(x17)
    2e9c:	00020863          	beq	x4,x0,2eac <I_blt_cg_cr_rs1_rs2_edges_offset_rs1val_0x2_rs2val_0xfffffffe+0x1c>
    2ea0:	1dc072ef          	jal	x5,a07c <failedtest_x5_x4>
    2ea4:	00002e90          	.word	0x00002e90
    2ea8:	0000e767          	.word	0x0000e767
    2eac:	00488893          	addi	x17,x17,4
  j 4f # done with test
    2eb0:	0280006f          	jal	x0,2ed8 <I_blt_cg_cr_rs1_rs2_edges_offset_rs1val_0x2_rs2val_0xfffffffe+0x48>
2: # goes here during backward branch if taken
  LI(x13, 1)
    2eb4:	00100693          	addi	x13,x0,1
  # Check if x13 contains the expected result. x17 is the signature ptr, x5 is the link ptr, x4 is a temp reg.
  RVTEST_SIGUPD(x17, x5, x4, x13, I_blt_cg_cr_rs1_rs2_edges_offset_rs1val_0x2_rs2val_0xfffffffe, I_blt_cg_cr_rs1_rs2_edges_offset_rs1val_0x2_rs2val_0xfffffffe_str) # signature 1 for taken
    2eb8:	0008a203          	lw	x4,0(x17)
    2ebc:	00d20863          	beq	x4,x13,2ecc <I_blt_cg_cr_rs1_rs2_edges_offset_rs1val_0x2_rs2val_0xfffffffe+0x3c>
    2ec0:	1bc072ef          	jal	x5,a07c <failedtest_x5_x4>
    2ec4:	00002e90          	.word	0x00002e90
    2ec8:	0000e767          	.word	0x0000e767
    2ecc:	00488893          	addi	x17,x17,4
  j 4f # done with test
    2ed0:	0080006f          	jal	x0,2ed8 <I_blt_cg_cr_rs1_rs2_edges_offset_rs1val_0x2_rs2val_0xfffffffe+0x48>
3: # goes here during forward branch if taken
  blt x13, x7, 2b # backward branch, definitely taken
    2ed4:	fe76c0e3          	blt	x13,x7,2eb4 <I_blt_cg_cr_rs1_rs2_edges_offset_rs1val_0x2_rs2val_0xfffffffe+0x24>
4: # done with test

# cr_rs1_rs2_edges_offset (Test source rs1 = 0x00000002 rs2 = 0x5bbc8872)
  RVTEST_TESTDATA_LOAD_INT(x23, x13) # load rs1: x13 = 0x00000002
    2ed8:	000ba683          	lw	x13,0(x23)
    2edc:	004b8b93          	addi	x23,x23,4
  RVTEST_TESTDATA_LOAD_INT(x23, x31) # load rs2: x31 = 0x5bbc8872
    2ee0:	000baf83          	lw	x31,0(x23)
    2ee4:	004b8b93          	addi	x23,x23,4

00002ee8 <I_blt_cg_cr_rs1_rs2_edges_offset_rs1val_0x2_rs2val_0x5bbc8872>:
0: # destination for backwards branch that is never taken
I_blt_cg_cr_rs1_rs2_edges_offset_rs1val_0x2_rs2val_0x5bbc8872:
  blt x13, x31, 3f # forward branch, if taken
    2ee8:	05f6c263          	blt	x13,x31,2f2c <I_blt_cg_cr_rs1_rs2_edges_offset_rs1val_0x2_rs2val_0x5bbc8872+0x44>
1: # goes here if not taken
  blt x13, x31, 0b # backward branch, never taken
    2eec:	fff6cee3          	blt	x13,x31,2ee8 <I_blt_cg_cr_rs1_rs2_edges_offset_rs1val_0x2_rs2val_0x5bbc8872>
  # Check if x0 contains the expected result. x17 is the signature ptr, x5 is the link ptr, x4 is a temp reg.
  RVTEST_SIGUPD(x17, x5, x4, x0, I_blt_cg_cr_rs1_rs2_edges_offset_rs1val_0x2_rs2val_0x5bbc8872, I_blt_cg_cr_rs1_rs2_edges_offset_rs1val_0x2_rs2val_0x5bbc8872_str)
    2ef0:	0008a203          	lw	x4,0(x17)
    2ef4:	00020863          	beq	x4,x0,2f04 <I_blt_cg_cr_rs1_rs2_edges_offset_rs1val_0x2_rs2val_0x5bbc8872+0x1c>
    2ef8:	184072ef          	jal	x5,a07c <failedtest_x5_x4>
    2efc:	00002ee8          	.word	0x00002ee8
    2f00:	0000e7c2          	.word	0x0000e7c2
    2f04:	00488893          	addi	x17,x17,4
  j 4f # done with test
    2f08:	0280006f          	jal	x0,2f30 <I_blt_cg_cr_rs1_rs2_edges_offset_rs1val_0x2_rs2val_0x5bbc8872+0x48>
2: # goes here during backward branch if taken
  LI(x13, 1)
    2f0c:	00100693          	addi	x13,x0,1
  # Check if x13 contains the expected result. x17 is the signature ptr, x5 is the link ptr, x4 is a temp reg.
  RVTEST_SIGUPD(x17, x5, x4, x13, I_blt_cg_cr_rs1_rs2_edges_offset_rs1val_0x2_rs2val_0x5bbc8872, I_blt_cg_cr_rs1_rs2_edges_offset_rs1val_0x2_rs2val_0x5bbc8872_str) # signature 1 for taken
    2f10:	0008a203          	lw	x4,0(x17)
    2f14:	00d20863          	beq	x4,x13,2f24 <I_blt_cg_cr_rs1_rs2_edges_offset_rs1val_0x2_rs2val_0x5bbc8872+0x3c>
    2f18:	164072ef          	jal	x5,a07c <failedtest_x5_x4>
    2f1c:	00002ee8          	.word	0x00002ee8
    2f20:	0000e7c2          	.word	0x0000e7c2
    2f24:	00488893          	addi	x17,x17,4
  j 4f # done with test
    2f28:	0080006f          	jal	x0,2f30 <I_blt_cg_cr_rs1_rs2_edges_offset_rs1val_0x2_rs2val_0x5bbc8872+0x48>
3: # goes here during forward branch if taken
  blt x13, x31, 2b # backward branch, definitely taken
    2f2c:	fff6c0e3          	blt	x13,x31,2f0c <I_blt_cg_cr_rs1_rs2_edges_offset_rs1val_0x2_rs2val_0x5bbc8872+0x24>
4: # done with test

# cr_rs1_rs2_edges_offset (Test source rs1 = 0x00000002 rs2 = 0xaaaaaaaa)
  RVTEST_TESTDATA_LOAD_INT(x23, x2) # load rs1: x2 = 0x00000002
    2f30:	000ba103          	lw	x2,0(x23)
    2f34:	004b8b93          	addi	x23,x23,4
  RVTEST_TESTDATA_LOAD_INT(x23, x22) # load rs2: x22 = 0xaaaaaaaa
    2f38:	000bab03          	lw	x22,0(x23)
    2f3c:	004b8b93          	addi	x23,x23,4

00002f40 <I_blt_cg_cr_rs1_rs2_edges_offset_rs1val_0x2_rs2val_0xaaaaaaaa>:
0: # destination for backwards branch that is never taken
I_blt_cg_cr_rs1_rs2_edges_offset_rs1val_0x2_rs2val_0xaaaaaaaa:
  blt x2, x22, 3f # forward branch, if taken
    2f40:	05614263          	blt	x2,x22,2f84 <I_blt_cg_cr_rs1_rs2_edges_offset_rs1val_0x2_rs2val_0xaaaaaaaa+0x44>
1: # goes here if not taken
  blt x2, x22, 0b # backward branch, never taken
    2f44:	ff614ee3          	blt	x2,x22,2f40 <I_blt_cg_cr_rs1_rs2_edges_offset_rs1val_0x2_rs2val_0xaaaaaaaa>
  # Check if x0 contains the expected result. x17 is the signature ptr, x5 is the link ptr, x4 is a temp reg.
  RVTEST_SIGUPD(x17, x5, x4, x0, I_blt_cg_cr_rs1_rs2_edges_offset_rs1val_0x2_rs2val_0xaaaaaaaa, I_blt_cg_cr_rs1_rs2_edges_offset_rs1val_0x2_rs2val_0xaaaaaaaa_str)
    2f48:	0008a203          	lw	x4,0(x17)
    2f4c:	00020863          	beq	x4,x0,2f5c <I_blt_cg_cr_rs1_rs2_edges_offset_rs1val_0x2_rs2val_0xaaaaaaaa+0x1c>
    2f50:	12c072ef          	jal	x5,a07c <failedtest_x5_x4>
    2f54:	00002f40          	.word	0x00002f40
    2f58:	0000e81d          	.word	0x0000e81d
    2f5c:	00488893          	addi	x17,x17,4
  j 4f # done with test
    2f60:	0280006f          	jal	x0,2f88 <I_blt_cg_cr_rs1_rs2_edges_offset_rs1val_0x2_rs2val_0xaaaaaaaa+0x48>
2: # goes here during backward branch if taken
  LI(x2, 1)
    2f64:	00100113          	addi	x2,x0,1
  # Check if x2 contains the expected result. x17 is the signature ptr, x5 is the link ptr, x4 is a temp reg.
  RVTEST_SIGUPD(x17, x5, x4, x2, I_blt_cg_cr_rs1_rs2_edges_offset_rs1val_0x2_rs2val_0xaaaaaaaa, I_blt_cg_cr_rs1_rs2_edges_offset_rs1val_0x2_rs2val_0xaaaaaaaa_str) # signature 1 for taken
    2f68:	0008a203          	lw	x4,0(x17)
    2f6c:	00220863          	beq	x4,x2,2f7c <I_blt_cg_cr_rs1_rs2_edges_offset_rs1val_0x2_rs2val_0xaaaaaaaa+0x3c>
    2f70:	10c072ef          	jal	x5,a07c <failedtest_x5_x4>
    2f74:	00002f40          	.word	0x00002f40
    2f78:	0000e81d          	.word	0x0000e81d
    2f7c:	00488893          	addi	x17,x17,4
  j 4f # done with test
    2f80:	0080006f          	jal	x0,2f88 <I_blt_cg_cr_rs1_rs2_edges_offset_rs1val_0x2_rs2val_0xaaaaaaaa+0x48>
3: # goes here during forward branch if taken
  blt x2, x22, 2b # backward branch, definitely taken
    2f84:	ff6140e3          	blt	x2,x22,2f64 <I_blt_cg_cr_rs1_rs2_edges_offset_rs1val_0x2_rs2val_0xaaaaaaaa+0x24>
4: # done with test

# cr_rs1_rs2_edges_offset (Test source rs1 = 0x00000002 rs2 = 0x55555555)
  RVTEST_TESTDATA_LOAD_INT(x23, x6) # load rs1: x6 = 0x00000002
    2f88:	000ba303          	lw	x6,0(x23)
    2f8c:	004b8b93          	addi	x23,x23,4
  RVTEST_TESTDATA_LOAD_INT(x23, x26) # load rs2: x26 = 0x55555555
    2f90:	000bad03          	lw	x26,0(x23)
    2f94:	004b8b93          	addi	x23,x23,4

00002f98 <I_blt_cg_cr_rs1_rs2_edges_offset_rs1val_0x2_rs2val_0x55555555>:
0: # destination for backwards branch that is never taken
I_blt_cg_cr_rs1_rs2_edges_offset_rs1val_0x2_rs2val_0x55555555:
  blt x6, x26, 3f # forward branch, if taken
    2f98:	05a34263          	blt	x6,x26,2fdc <I_blt_cg_cr_rs1_rs2_edges_offset_rs1val_0x2_rs2val_0x55555555+0x44>
1: # goes here if not taken
  blt x6, x26, 0b # backward branch, never taken
    2f9c:	ffa34ee3          	blt	x6,x26,2f98 <I_blt_cg_cr_rs1_rs2_edges_offset_rs1val_0x2_rs2val_0x55555555>
  # Check if x0 contains the expected result. x17 is the signature ptr, x5 is the link ptr, x4 is a temp reg.
  RVTEST_SIGUPD(x17, x5, x4, x0, I_blt_cg_cr_rs1_rs2_edges_offset_rs1val_0x2_rs2val_0x55555555, I_blt_cg_cr_rs1_rs2_edges_offset_rs1val_0x2_rs2val_0x55555555_str)
    2fa0:	0008a203          	lw	x4,0(x17)
    2fa4:	00020863          	beq	x4,x0,2fb4 <I_blt_cg_cr_rs1_rs2_edges_offset_rs1val_0x2_rs2val_0x55555555+0x1c>
    2fa8:	0d4072ef          	jal	x5,a07c <failedtest_x5_x4>
    2fac:	00002f98          	.word	0x00002f98
    2fb0:	0000e878          	.word	0x0000e878
    2fb4:	00488893          	addi	x17,x17,4
  j 4f # done with test
    2fb8:	0280006f          	jal	x0,2fe0 <I_blt_cg_cr_rs1_rs2_edges_offset_rs1val_0x2_rs2val_0x55555555+0x48>
2: # goes here during backward branch if taken
  LI(x6, 1)
    2fbc:	00100313          	addi	x6,x0,1
  # Check if x6 contains the expected result. x17 is the signature ptr, x5 is the link ptr, x4 is a temp reg.
  RVTEST_SIGUPD(x17, x5, x4, x6, I_blt_cg_cr_rs1_rs2_edges_offset_rs1val_0x2_rs2val_0x55555555, I_blt_cg_cr_rs1_rs2_edges_offset_rs1val_0x2_rs2val_0x55555555_str) # signature 1 for taken
    2fc0:	0008a203          	lw	x4,0(x17)
    2fc4:	00620863          	beq	x4,x6,2fd4 <I_blt_cg_cr_rs1_rs2_edges_offset_rs1val_0x2_rs2val_0x55555555+0x3c>
    2fc8:	0b4072ef          	jal	x5,a07c <failedtest_x5_x4>
    2fcc:	00002f98          	.word	0x00002f98
    2fd0:	0000e878          	.word	0x0000e878
    2fd4:	00488893          	addi	x17,x17,4
  j 4f # done with test
    2fd8:	0080006f          	jal	x0,2fe0 <I_blt_cg_cr_rs1_rs2_edges_offset_rs1val_0x2_rs2val_0x55555555+0x48>
3: # goes here during forward branch if taken
  blt x6, x26, 2b # backward branch, definitely taken
    2fdc:	ffa340e3          	blt	x6,x26,2fbc <I_blt_cg_cr_rs1_rs2_edges_offset_rs1val_0x2_rs2val_0x55555555+0x24>
4: # done with test

# cr_rs1_rs2_edges_offset (Test source rs1 = 0x80000000 rs2 = 0x00000000)
  RVTEST_TESTDATA_LOAD_INT(x23, x7) # load rs1: x7 = 0x80000000
    2fe0:	000ba383          	lw	x7,0(x23)
    2fe4:	004b8b93          	addi	x23,x23,4
  RVTEST_TESTDATA_LOAD_INT(x23, x18) # load rs2: x18 = 0x00000000
    2fe8:	000ba903          	lw	x18,0(x23)
    2fec:	004b8b93          	addi	x23,x23,4

00002ff0 <I_blt_cg_cr_rs1_rs2_edges_offset_rs1val_0x80000000_rs2val_0x0>:
0: # destination for backwards branch that is never taken
I_blt_cg_cr_rs1_rs2_edges_offset_rs1val_0x80000000_rs2val_0x0:
  blt x7, x18, 3f # forward branch, if taken
    2ff0:	0523c263          	blt	x7,x18,3034 <I_blt_cg_cr_rs1_rs2_edges_offset_rs1val_0x80000000_rs2val_0x0+0x44>
1: # goes here if not taken
  blt x7, x18, 0b # backward branch, never taken
    2ff4:	ff23cee3          	blt	x7,x18,2ff0 <I_blt_cg_cr_rs1_rs2_edges_offset_rs1val_0x80000000_rs2val_0x0>
  # Check if x0 contains the expected result. x17 is the signature ptr, x5 is the link ptr, x4 is a temp reg.
  RVTEST_SIGUPD(x17, x5, x4, x0, I_blt_cg_cr_rs1_rs2_edges_offset_rs1val_0x80000000_rs2val_0x0, I_blt_cg_cr_rs1_rs2_edges_offset_rs1val_0x80000000_rs2val_0x0_str)
    2ff8:	0008a203          	lw	x4,0(x17)
    2ffc:	00020863          	beq	x4,x0,300c <I_blt_cg_cr_rs1_rs2_edges_offset_rs1val_0x80000000_rs2val_0x0+0x1c>
    3000:	07c072ef          	jal	x5,a07c <failedtest_x5_x4>
    3004:	00002ff0          	.word	0x00002ff0
    3008:	0000e8d3          	.word	0x0000e8d3
    300c:	00488893          	addi	x17,x17,4
  j 4f # done with test
    3010:	0280006f          	jal	x0,3038 <I_blt_cg_cr_rs1_rs2_edges_offset_rs1val_0x80000000_rs2val_0x0+0x48>
2: # goes here during backward branch if taken
  LI(x7, 1)
    3014:	00100393          	addi	x7,x0,1
  # Check if x7 contains the expected result. x17 is the signature ptr, x5 is the link ptr, x4 is a temp reg.
  RVTEST_SIGUPD(x17, x5, x4, x7, I_blt_cg_cr_rs1_rs2_edges_offset_rs1val_0x80000000_rs2val_0x0, I_blt_cg_cr_rs1_rs2_edges_offset_rs1val_0x80000000_rs2val_0x0_str) # signature 1 for taken
    3018:	0008a203          	lw	x4,0(x17)
    301c:	00720863          	beq	x4,x7,302c <I_blt_cg_cr_rs1_rs2_edges_offset_rs1val_0x80000000_rs2val_0x0+0x3c>
    3020:	05c072ef          	jal	x5,a07c <failedtest_x5_x4>
    3024:	00002ff0          	.word	0x00002ff0
    3028:	0000e8d3          	.word	0x0000e8d3
    302c:	00488893          	addi	x17,x17,4
  j 4f # done with test
    3030:	0080006f          	jal	x0,3038 <I_blt_cg_cr_rs1_rs2_edges_offset_rs1val_0x80000000_rs2val_0x0+0x48>
3: # goes here during forward branch if taken
  blt x7, x18, 2b # backward branch, definitely taken
    3034:	ff23c0e3          	blt	x7,x18,3014 <I_blt_cg_cr_rs1_rs2_edges_offset_rs1val_0x80000000_rs2val_0x0+0x24>
4: # done with test

# cr_rs1_rs2_edges_offset (Test source rs1 = 0x80000000 rs2 = 0x00000001)
  RVTEST_TESTDATA_LOAD_INT(x23, x8) # load rs1: x8 = 0x80000000
    3038:	000ba403          	lw	x8,0(x23)
    303c:	004b8b93          	addi	x23,x23,4
  RVTEST_TESTDATA_LOAD_INT(x23, x14) # load rs2: x14 = 0x00000001
    3040:	000ba703          	lw	x14,0(x23)
    3044:	004b8b93          	addi	x23,x23,4

00003048 <I_blt_cg_cr_rs1_rs2_edges_offset_rs1val_0x80000000_rs2val_0x1>:
0: # destination for backwards branch that is never taken
I_blt_cg_cr_rs1_rs2_edges_offset_rs1val_0x80000000_rs2val_0x1:
  blt x8, x14, 3f # forward branch, if taken
    3048:	04e44263          	blt	x8,x14,308c <I_blt_cg_cr_rs1_rs2_edges_offset_rs1val_0x80000000_rs2val_0x1+0x44>
1: # goes here if not taken
  blt x8, x14, 0b # backward branch, never taken
    304c:	fee44ee3          	blt	x8,x14,3048 <I_blt_cg_cr_rs1_rs2_edges_offset_rs1val_0x80000000_rs2val_0x1>
  # Check if x0 contains the expected result. x17 is the signature ptr, x5 is the link ptr, x4 is a temp reg.
  RVTEST_SIGUPD(x17, x5, x4, x0, I_blt_cg_cr_rs1_rs2_edges_offset_rs1val_0x80000000_rs2val_0x1, I_blt_cg_cr_rs1_rs2_edges_offset_rs1val_0x80000000_rs2val_0x1_str)
    3050:	0008a203          	lw	x4,0(x17)
    3054:	00020863          	beq	x4,x0,3064 <I_blt_cg_cr_rs1_rs2_edges_offset_rs1val_0x80000000_rs2val_0x1+0x1c>
    3058:	024072ef          	jal	x5,a07c <failedtest_x5_x4>
    305c:	00003048          	.word	0x00003048
    3060:	0000e92e          	.word	0x0000e92e
    3064:	00488893          	addi	x17,x17,4
  j 4f # done with test
    3068:	0280006f          	jal	x0,3090 <I_blt_cg_cr_rs1_rs2_edges_offset_rs1val_0x80000000_rs2val_0x1+0x48>
2: # goes here during backward branch if taken
  LI(x8, 1)
    306c:	00100413          	addi	x8,x0,1
  # Check if x8 contains the expected result. x17 is the signature ptr, x5 is the link ptr, x4 is a temp reg.
  RVTEST_SIGUPD(x17, x5, x4, x8, I_blt_cg_cr_rs1_rs2_edges_offset_rs1val_0x80000000_rs2val_0x1, I_blt_cg_cr_rs1_rs2_edges_offset_rs1val_0x80000000_rs2val_0x1_str) # signature 1 for taken
    3070:	0008a203          	lw	x4,0(x17)
    3074:	00820863          	beq	x4,x8,3084 <I_blt_cg_cr_rs1_rs2_edges_offset_rs1val_0x80000000_rs2val_0x1+0x3c>
    3078:	004072ef          	jal	x5,a07c <failedtest_x5_x4>
    307c:	00003048          	.word	0x00003048
    3080:	0000e92e          	.word	0x0000e92e
    3084:	00488893          	addi	x17,x17,4
  j 4f # done with test
    3088:	0080006f          	jal	x0,3090 <I_blt_cg_cr_rs1_rs2_edges_offset_rs1val_0x80000000_rs2val_0x1+0x48>
3: # goes here during forward branch if taken
  blt x8, x14, 2b # backward branch, definitely taken
    308c:	fee440e3          	blt	x8,x14,306c <I_blt_cg_cr_rs1_rs2_edges_offset_rs1val_0x80000000_rs2val_0x1+0x24>
4: # done with test

# cr_rs1_rs2_edges_offset (Test source rs1 = 0x80000000 rs2 = 0x00000002)
  RVTEST_TESTDATA_LOAD_INT(x23, x3) # load rs1: x3 = 0x80000000
    3090:	000ba183          	lw	x3,0(x23)
    3094:	004b8b93          	addi	x23,x23,4
  RVTEST_TESTDATA_LOAD_INT(x23, x9) # load rs2: x9 = 0x00000002
    3098:	000ba483          	lw	x9,0(x23)
    309c:	004b8b93          	addi	x23,x23,4

000030a0 <I_blt_cg_cr_rs1_rs2_edges_offset_rs1val_0x80000000_rs2val_0x2>:
0: # destination for backwards branch that is never taken
I_blt_cg_cr_rs1_rs2_edges_offset_rs1val_0x80000000_rs2val_0x2:
  blt x3, x9, 3f # forward branch, if taken
    30a0:	0491c263          	blt	x3,x9,30e4 <I_blt_cg_cr_rs1_rs2_edges_offset_rs1val_0x80000000_rs2val_0x2+0x44>
1: # goes here if not taken
  blt x3, x9, 0b # backward branch, never taken
    30a4:	fe91cee3          	blt	x3,x9,30a0 <I_blt_cg_cr_rs1_rs2_edges_offset_rs1val_0x80000000_rs2val_0x2>
  # Check if x0 contains the expected result. x17 is the signature ptr, x5 is the link ptr, x4 is a temp reg.
  RVTEST_SIGUPD(x17, x5, x4, x0, I_blt_cg_cr_rs1_rs2_edges_offset_rs1val_0x80000000_rs2val_0x2, I_blt_cg_cr_rs1_rs2_edges_offset_rs1val_0x80000000_rs2val_0x2_str)
    30a8:	0008a203          	lw	x4,0(x17)
    30ac:	00020863          	beq	x4,x0,30bc <I_blt_cg_cr_rs1_rs2_edges_offset_rs1val_0x80000000_rs2val_0x2+0x1c>
    30b0:	7cd062ef          	jal	x5,a07c <failedtest_x5_x4>
    30b4:	000030a0          	.word	0x000030a0
    30b8:	0000e989          	.word	0x0000e989
    30bc:	00488893          	addi	x17,x17,4
  j 4f # done with test
    30c0:	0280006f          	jal	x0,30e8 <I_blt_cg_cr_rs1_rs2_edges_offset_rs1val_0x80000000_rs2val_0x2+0x48>
2: # goes here during backward branch if taken
  LI(x3, 1)
    30c4:	00100193          	addi	x3,x0,1
  # Check if x3 contains the expected result. x17 is the signature ptr, x5 is the link ptr, x4 is a temp reg.
  RVTEST_SIGUPD(x17, x5, x4, x3, I_blt_cg_cr_rs1_rs2_edges_offset_rs1val_0x80000000_rs2val_0x2, I_blt_cg_cr_rs1_rs2_edges_offset_rs1val_0x80000000_rs2val_0x2_str) # signature 1 for taken
    30c8:	0008a203          	lw	x4,0(x17)
    30cc:	00320863          	beq	x4,x3,30dc <I_blt_cg_cr_rs1_rs2_edges_offset_rs1val_0x80000000_rs2val_0x2+0x3c>
    30d0:	7ad062ef          	jal	x5,a07c <failedtest_x5_x4>
    30d4:	000030a0          	.word	0x000030a0
    30d8:	0000e989          	.word	0x0000e989
    30dc:	00488893          	addi	x17,x17,4
  j 4f # done with test
    30e0:	0080006f          	jal	x0,30e8 <I_blt_cg_cr_rs1_rs2_edges_offset_rs1val_0x80000000_rs2val_0x2+0x48>
3: # goes here during forward branch if taken
  blt x3, x9, 2b # backward branch, definitely taken
    30e4:	fe91c0e3          	blt	x3,x9,30c4 <I_blt_cg_cr_rs1_rs2_edges_offset_rs1val_0x80000000_rs2val_0x2+0x24>
4: # done with test

# cr_rs1_rs2_edges_offset (Test source rs1 = 0x80000000 rs2 = 0x80000000)
  RVTEST_TESTDATA_LOAD_INT(x23, x16) # load rs1: x16 = 0x80000000
    30e8:	000ba803          	lw	x16,0(x23)
    30ec:	004b8b93          	addi	x23,x23,4
  RVTEST_TESTDATA_LOAD_INT(x23, x7) # load rs2: x7 = 0x80000000
    30f0:	000ba383          	lw	x7,0(x23)
    30f4:	004b8b93          	addi	x23,x23,4

000030f8 <I_blt_cg_cr_rs1_rs2_edges_offset_rs1val_0x80000000_rs2val_0x80000000>:
0: # destination for backwards branch that is never taken
I_blt_cg_cr_rs1_rs2_edges_offset_rs1val_0x80000000_rs2val_0x80000000:
  blt x16, x7, 3f # forward branch, if taken
    30f8:	04784263          	blt	x16,x7,313c <I_blt_cg_cr_rs1_rs2_edges_offset_rs1val_0x80000000_rs2val_0x80000000+0x44>
1: # goes here if not taken
  blt x16, x7, 0b # backward branch, never taken
    30fc:	fe784ee3          	blt	x16,x7,30f8 <I_blt_cg_cr_rs1_rs2_edges_offset_rs1val_0x80000000_rs2val_0x80000000>
  # Check if x0 contains the expected result. x17 is the signature ptr, x5 is the link ptr, x4 is a temp reg.
  RVTEST_SIGUPD(x17, x5, x4, x0, I_blt_cg_cr_rs1_rs2_edges_offset_rs1val_0x80000000_rs2val_0x80000000, I_blt_cg_cr_rs1_rs2_edges_offset_rs1val_0x80000000_rs2val_0x80000000_str)
    3100:	0008a203          	lw	x4,0(x17)
    3104:	00020863          	beq	x4,x0,3114 <I_blt_cg_cr_rs1_rs2_edges_offset_rs1val_0x80000000_rs2val_0x80000000+0x1c>
    3108:	775062ef          	jal	x5,a07c <failedtest_x5_x4>
    310c:	000030f8          	.word	0x000030f8
    3110:	0000e9e4          	.word	0x0000e9e4
    3114:	00488893          	addi	x17,x17,4
  j 4f # done with test
    3118:	0280006f          	jal	x0,3140 <I_blt_cg_cr_rs1_rs2_edges_offset_rs1val_0x80000000_rs2val_0x80000000+0x48>
2: # goes here during backward branch if taken
  LI(x16, 1)
    311c:	00100813          	addi	x16,x0,1
  # Check if x16 contains the expected result. x17 is the signature ptr, x5 is the link ptr, x4 is a temp reg.
  RVTEST_SIGUPD(x17, x5, x4, x16, I_blt_cg_cr_rs1_rs2_edges_offset_rs1val_0x80000000_rs2val_0x80000000, I_blt_cg_cr_rs1_rs2_edges_offset_rs1val_0x80000000_rs2val_0x80000000_str) # signature 1 for taken
    3120:	0008a203          	lw	x4,0(x17)
    3124:	01020863          	beq	x4,x16,3134 <I_blt_cg_cr_rs1_rs2_edges_offset_rs1val_0x80000000_rs2val_0x80000000+0x3c>
    3128:	755062ef          	jal	x5,a07c <failedtest_x5_x4>
    312c:	000030f8          	.word	0x000030f8
    3130:	0000e9e4          	.word	0x0000e9e4
    3134:	00488893          	addi	x17,x17,4
  j 4f # done with test
    3138:	0080006f          	jal	x0,3140 <I_blt_cg_cr_rs1_rs2_edges_offset_rs1val_0x80000000_rs2val_0x80000000+0x48>
3: # goes here during forward branch if taken
  blt x16, x7, 2b # backward branch, definitely taken
    313c:	fe7840e3          	blt	x16,x7,311c <I_blt_cg_cr_rs1_rs2_edges_offset_rs1val_0x80000000_rs2val_0x80000000+0x24>
4: # done with test

# cr_rs1_rs2_edges_offset (Test source rs1 = 0x80000000 rs2 = 0x80000001)
  RVTEST_TESTDATA_LOAD_INT(x23, x31) # load rs1: x31 = 0x80000000
    3140:	000baf83          	lw	x31,0(x23)
    3144:	004b8b93          	addi	x23,x23,4
  RVTEST_TESTDATA_LOAD_INT(x23, x26) # load rs2: x26 = 0x80000001
    3148:	000bad03          	lw	x26,0(x23)
    314c:	004b8b93          	addi	x23,x23,4

00003150 <I_blt_cg_cr_rs1_rs2_edges_offset_rs1val_0x80000000_rs2val_0x80000001>:
0: # destination for backwards branch that is never taken
I_blt_cg_cr_rs1_rs2_edges_offset_rs1val_0x80000000_rs2val_0x80000001:
  blt x31, x26, 3f # forward branch, if taken
    3150:	05afc263          	blt	x31,x26,3194 <I_blt_cg_cr_rs1_rs2_edges_offset_rs1val_0x80000000_rs2val_0x80000001+0x44>
1: # goes here if not taken
  blt x31, x26, 0b # backward branch, never taken
    3154:	ffafcee3          	blt	x31,x26,3150 <I_blt_cg_cr_rs1_rs2_edges_offset_rs1val_0x80000000_rs2val_0x80000001>
  # Check if x0 contains the expected result. x17 is the signature ptr, x5 is the link ptr, x4 is a temp reg.
  RVTEST_SIGUPD(x17, x5, x4, x0, I_blt_cg_cr_rs1_rs2_edges_offset_rs1val_0x80000000_rs2val_0x80000001, I_blt_cg_cr_rs1_rs2_edges_offset_rs1val_0x80000000_rs2val_0x80000001_str)
    3158:	0008a203          	lw	x4,0(x17)
    315c:	00020863          	beq	x4,x0,316c <I_blt_cg_cr_rs1_rs2_edges_offset_rs1val_0x80000000_rs2val_0x80000001+0x1c>
    3160:	71d062ef          	jal	x5,a07c <failedtest_x5_x4>
    3164:	00003150          	.word	0x00003150
    3168:	0000ea46          	.word	0x0000ea46
    316c:	00488893          	addi	x17,x17,4
  j 4f # done with test
    3170:	0280006f          	jal	x0,3198 <I_blt_cg_cr_rs1_rs2_edges_offset_rs1val_0x80000000_rs2val_0x80000001+0x48>
2: # goes here during backward branch if taken
  LI(x31, 1)
    3174:	00100f93          	addi	x31,x0,1
  # Check if x31 contains the expected result. x17 is the signature ptr, x5 is the link ptr, x4 is a temp reg.
  RVTEST_SIGUPD(x17, x5, x4, x31, I_blt_cg_cr_rs1_rs2_edges_offset_rs1val_0x80000000_rs2val_0x80000001, I_blt_cg_cr_rs1_rs2_edges_offset_rs1val_0x80000000_rs2val_0x80000001_str) # signature 1 for taken
    3178:	0008a203          	lw	x4,0(x17)
    317c:	01f20863          	beq	x4,x31,318c <I_blt_cg_cr_rs1_rs2_edges_offset_rs1val_0x80000000_rs2val_0x80000001+0x3c>
    3180:	6fd062ef          	jal	x5,a07c <failedtest_x5_x4>
    3184:	00003150          	.word	0x00003150
    3188:	0000ea46          	.word	0x0000ea46
    318c:	00488893          	addi	x17,x17,4
  j 4f # done with test
    3190:	0080006f          	jal	x0,3198 <I_blt_cg_cr_rs1_rs2_edges_offset_rs1val_0x80000000_rs2val_0x80000001+0x48>
3: # goes here during forward branch if taken
  blt x31, x26, 2b # backward branch, definitely taken
    3194:	ffafc0e3          	blt	x31,x26,3174 <I_blt_cg_cr_rs1_rs2_edges_offset_rs1val_0x80000000_rs2val_0x80000001+0x24>
4: # done with test

# cr_rs1_rs2_edges_offset (Test source rs1 = 0x80000000 rs2 = 0x7fffffff)
  RVTEST_TESTDATA_LOAD_INT(x23, x29) # load rs1: x29 = 0x80000000
    3198:	000bae83          	lw	x29,0(x23)
    319c:	004b8b93          	addi	x23,x23,4
  RVTEST_TESTDATA_LOAD_INT(x23, x7) # load rs2: x7 = 0x7fffffff
    31a0:	000ba383          	lw	x7,0(x23)
    31a4:	004b8b93          	addi	x23,x23,4

000031a8 <I_blt_cg_cr_rs1_rs2_edges_offset_rs1val_0x80000000_rs2val_0x7fffffff>:
0: # destination for backwards branch that is never taken
I_blt_cg_cr_rs1_rs2_edges_offset_rs1val_0x80000000_rs2val_0x7fffffff:
  blt x29, x7, 3f # forward branch, if taken
    31a8:	047ec263          	blt	x29,x7,31ec <I_blt_cg_cr_rs1_rs2_edges_offset_rs1val_0x80000000_rs2val_0x7fffffff+0x44>
1: # goes here if not taken
  blt x29, x7, 0b # backward branch, never taken
    31ac:	fe7ecee3          	blt	x29,x7,31a8 <I_blt_cg_cr_rs1_rs2_edges_offset_rs1val_0x80000000_rs2val_0x7fffffff>
  # Check if x0 contains the expected result. x17 is the signature ptr, x5 is the link ptr, x4 is a temp reg.
  RVTEST_SIGUPD(x17, x5, x4, x0, I_blt_cg_cr_rs1_rs2_edges_offset_rs1val_0x80000000_rs2val_0x7fffffff, I_blt_cg_cr_rs1_rs2_edges_offset_rs1val_0x80000000_rs2val_0x7fffffff_str)
    31b0:	0008a203          	lw	x4,0(x17)
    31b4:	00020863          	beq	x4,x0,31c4 <I_blt_cg_cr_rs1_rs2_edges_offset_rs1val_0x80000000_rs2val_0x7fffffff+0x1c>
    31b8:	6c5062ef          	jal	x5,a07c <failedtest_x5_x4>
    31bc:	000031a8          	.word	0x000031a8
    31c0:	0000eaa8          	.word	0x0000eaa8
    31c4:	00488893          	addi	x17,x17,4
  j 4f # done with test
    31c8:	0280006f          	jal	x0,31f0 <I_blt_cg_cr_rs1_rs2_edges_offset_rs1val_0x80000000_rs2val_0x7fffffff+0x48>
2: # goes here during backward branch if taken
  LI(x29, 1)
    31cc:	00100e93          	addi	x29,x0,1
  # Check if x29 contains the expected result. x17 is the signature ptr, x5 is the link ptr, x4 is a temp reg.
  RVTEST_SIGUPD(x17, x5, x4, x29, I_blt_cg_cr_rs1_rs2_edges_offset_rs1val_0x80000000_rs2val_0x7fffffff, I_blt_cg_cr_rs1_rs2_edges_offset_rs1val_0x80000000_rs2val_0x7fffffff_str) # signature 1 for taken
    31d0:	0008a203          	lw	x4,0(x17)
    31d4:	01d20863          	beq	x4,x29,31e4 <I_blt_cg_cr_rs1_rs2_edges_offset_rs1val_0x80000000_rs2val_0x7fffffff+0x3c>
    31d8:	6a5062ef          	jal	x5,a07c <failedtest_x5_x4>
    31dc:	000031a8          	.word	0x000031a8
    31e0:	0000eaa8          	.word	0x0000eaa8
    31e4:	00488893          	addi	x17,x17,4
  j 4f # done with test
    31e8:	0080006f          	jal	x0,31f0 <I_blt_cg_cr_rs1_rs2_edges_offset_rs1val_0x80000000_rs2val_0x7fffffff+0x48>
3: # goes here during forward branch if taken
  blt x29, x7, 2b # backward branch, definitely taken
    31ec:	fe7ec0e3          	blt	x29,x7,31cc <I_blt_cg_cr_rs1_rs2_edges_offset_rs1val_0x80000000_rs2val_0x7fffffff+0x24>
4: # done with test

# cr_rs1_rs2_edges_offset (Test source rs1 = 0x80000000 rs2 = 0x7ffffffe)
  RVTEST_TESTDATA_LOAD_INT(x23, x7) # load rs1: x7 = 0x80000000
    31f0:	000ba383          	lw	x7,0(x23)
    31f4:	004b8b93          	addi	x23,x23,4
  RVTEST_TESTDATA_LOAD_INT(x23, x29) # load rs2: x29 = 0x7ffffffe
    31f8:	000bae83          	lw	x29,0(x23)
    31fc:	004b8b93          	addi	x23,x23,4

00003200 <I_blt_cg_cr_rs1_rs2_edges_offset_rs1val_0x80000000_rs2val_0x7ffffffe>:
0: # destination for backwards branch that is never taken
I_blt_cg_cr_rs1_rs2_edges_offset_rs1val_0x80000000_rs2val_0x7ffffffe:
  blt x7, x29, 3f # forward branch, if taken
    3200:	05d3c263          	blt	x7,x29,3244 <I_blt_cg_cr_rs1_rs2_edges_offset_rs1val_0x80000000_rs2val_0x7ffffffe+0x44>
1: # goes here if not taken
  blt x7, x29, 0b # backward branch, never taken
    3204:	ffd3cee3          	blt	x7,x29,3200 <I_blt_cg_cr_rs1_rs2_edges_offset_rs1val_0x80000000_rs2val_0x7ffffffe>
  # Check if x0 contains the expected result. x17 is the signature ptr, x5 is the link ptr, x4 is a temp reg.
  RVTEST_SIGUPD(x17, x5, x4, x0, I_blt_cg_cr_rs1_rs2_edges_offset_rs1val_0x80000000_rs2val_0x7ffffffe, I_blt_cg_cr_rs1_rs2_edges_offset_rs1val_0x80000000_rs2val_0x7ffffffe_str)
    3208:	0008a203          	lw	x4,0(x17)
    320c:	00020863          	beq	x4,x0,321c <I_blt_cg_cr_rs1_rs2_edges_offset_rs1val_0x80000000_rs2val_0x7ffffffe+0x1c>
    3210:	66d062ef          	jal	x5,a07c <failedtest_x5_x4>
    3214:	00003200          	.word	0x00003200
    3218:	0000eb0a          	.word	0x0000eb0a
    321c:	00488893          	addi	x17,x17,4
  j 4f # done with test
    3220:	0280006f          	jal	x0,3248 <I_blt_cg_cr_rs1_rs2_edges_offset_rs1val_0x80000000_rs2val_0x7ffffffe+0x48>
2: # goes here during backward branch if taken
  LI(x7, 1)
    3224:	00100393          	addi	x7,x0,1
  # Check if x7 contains the expected result. x17 is the signature ptr, x5 is the link ptr, x4 is a temp reg.
  RVTEST_SIGUPD(x17, x5, x4, x7, I_blt_cg_cr_rs1_rs2_edges_offset_rs1val_0x80000000_rs2val_0x7ffffffe, I_blt_cg_cr_rs1_rs2_edges_offset_rs1val_0x80000000_rs2val_0x7ffffffe_str) # signature 1 for taken
    3228:	0008a203          	lw	x4,0(x17)
    322c:	00720863          	beq	x4,x7,323c <I_blt_cg_cr_rs1_rs2_edges_offset_rs1val_0x80000000_rs2val_0x7ffffffe+0x3c>
    3230:	64d062ef          	jal	x5,a07c <failedtest_x5_x4>
    3234:	00003200          	.word	0x00003200
    3238:	0000eb0a          	.word	0x0000eb0a
    323c:	00488893          	addi	x17,x17,4
  j 4f # done with test
    3240:	0080006f          	jal	x0,3248 <I_blt_cg_cr_rs1_rs2_edges_offset_rs1val_0x80000000_rs2val_0x7ffffffe+0x48>
3: # goes here during forward branch if taken
  blt x7, x29, 2b # backward branch, definitely taken
    3244:	ffd3c0e3          	blt	x7,x29,3224 <I_blt_cg_cr_rs1_rs2_edges_offset_rs1val_0x80000000_rs2val_0x7ffffffe+0x24>
4: # done with test

# cr_rs1_rs2_edges_offset (Test source rs1 = 0x80000000 rs2 = 0xffffffff)
  RVTEST_TESTDATA_LOAD_INT(x23, x13) # load rs1: x13 = 0x80000000
    3248:	000ba683          	lw	x13,0(x23)
    324c:	004b8b93          	addi	x23,x23,4
  RVTEST_TESTDATA_LOAD_INT(x23, x19) # load rs2: x19 = 0xffffffff
    3250:	000ba983          	lw	x19,0(x23)
    3254:	004b8b93          	addi	x23,x23,4

00003258 <I_blt_cg_cr_rs1_rs2_edges_offset_rs1val_0x80000000_rs2val_0xffffffff>:
0: # destination for backwards branch that is never taken
I_blt_cg_cr_rs1_rs2_edges_offset_rs1val_0x80000000_rs2val_0xffffffff:
  blt x13, x19, 3f # forward branch, if taken
    3258:	0536c263          	blt	x13,x19,329c <I_blt_cg_cr_rs1_rs2_edges_offset_rs1val_0x80000000_rs2val_0xffffffff+0x44>
1: # goes here if not taken
  blt x13, x19, 0b # backward branch, never taken
    325c:	ff36cee3          	blt	x13,x19,3258 <I_blt_cg_cr_rs1_rs2_edges_offset_rs1val_0x80000000_rs2val_0xffffffff>
  # Check if x0 contains the expected result. x17 is the signature ptr, x5 is the link ptr, x4 is a temp reg.
  RVTEST_SIGUPD(x17, x5, x4, x0, I_blt_cg_cr_rs1_rs2_edges_offset_rs1val_0x80000000_rs2val_0xffffffff, I_blt_cg_cr_rs1_rs2_edges_offset_rs1val_0x80000000_rs2val_0xffffffff_str)
    3260:	0008a203          	lw	x4,0(x17)
    3264:	00020863          	beq	x4,x0,3274 <I_blt_cg_cr_rs1_rs2_edges_offset_rs1val_0x80000000_rs2val_0xffffffff+0x1c>
    3268:	615062ef          	jal	x5,a07c <failedtest_x5_x4>
    326c:	00003258          	.word	0x00003258
    3270:	0000eb6c          	.word	0x0000eb6c
    3274:	00488893          	addi	x17,x17,4
  j 4f # done with test
    3278:	0280006f          	jal	x0,32a0 <I_blt_cg_cr_rs1_rs2_edges_offset_rs1val_0x80000000_rs2val_0xffffffff+0x48>
2: # goes here during backward branch if taken
  LI(x13, 1)
    327c:	00100693          	addi	x13,x0,1
  # Check if x13 contains the expected result. x17 is the signature ptr, x5 is the link ptr, x4 is a temp reg.
  RVTEST_SIGUPD(x17, x5, x4, x13, I_blt_cg_cr_rs1_rs2_edges_offset_rs1val_0x80000000_rs2val_0xffffffff, I_blt_cg_cr_rs1_rs2_edges_offset_rs1val_0x80000000_rs2val_0xffffffff_str) # signature 1 for taken
    3280:	0008a203          	lw	x4,0(x17)
    3284:	00d20863          	beq	x4,x13,3294 <I_blt_cg_cr_rs1_rs2_edges_offset_rs1val_0x80000000_rs2val_0xffffffff+0x3c>
    3288:	5f5062ef          	jal	x5,a07c <failedtest_x5_x4>
    328c:	00003258          	.word	0x00003258
    3290:	0000eb6c          	.word	0x0000eb6c
    3294:	00488893          	addi	x17,x17,4
  j 4f # done with test
    3298:	0080006f          	jal	x0,32a0 <I_blt_cg_cr_rs1_rs2_edges_offset_rs1val_0x80000000_rs2val_0xffffffff+0x48>
3: # goes here during forward branch if taken
  blt x13, x19, 2b # backward branch, definitely taken
    329c:	ff36c0e3          	blt	x13,x19,327c <I_blt_cg_cr_rs1_rs2_edges_offset_rs1val_0x80000000_rs2val_0xffffffff+0x24>
4: # done with test

# cr_rs1_rs2_edges_offset (Test source rs1 = 0x80000000 rs2 = 0xfffffffe)
  RVTEST_TESTDATA_LOAD_INT(x23, x9) # load rs1: x9 = 0x80000000
    32a0:	000ba483          	lw	x9,0(x23)
    32a4:	004b8b93          	addi	x23,x23,4
  RVTEST_TESTDATA_LOAD_INT(x23, x13) # load rs2: x13 = 0xfffffffe
    32a8:	000ba683          	lw	x13,0(x23)
    32ac:	004b8b93          	addi	x23,x23,4

000032b0 <I_blt_cg_cr_rs1_rs2_edges_offset_rs1val_0x80000000_rs2val_0xfffffffe>:
0: # destination for backwards branch that is never taken
I_blt_cg_cr_rs1_rs2_edges_offset_rs1val_0x80000000_rs2val_0xfffffffe:
  blt x9, x13, 3f # forward branch, if taken
    32b0:	04d4c263          	blt	x9,x13,32f4 <I_blt_cg_cr_rs1_rs2_edges_offset_rs1val_0x80000000_rs2val_0xfffffffe+0x44>
1: # goes here if not taken
  blt x9, x13, 0b # backward branch, never taken
    32b4:	fed4cee3          	blt	x9,x13,32b0 <I_blt_cg_cr_rs1_rs2_edges_offset_rs1val_0x80000000_rs2val_0xfffffffe>
  # Check if x0 contains the expected result. x17 is the signature ptr, x5 is the link ptr, x4 is a temp reg.
  RVTEST_SIGUPD(x17, x5, x4, x0, I_blt_cg_cr_rs1_rs2_edges_offset_rs1val_0x80000000_rs2val_0xfffffffe, I_blt_cg_cr_rs1_rs2_edges_offset_rs1val_0x80000000_rs2val_0xfffffffe_str)
    32b8:	0008a203          	lw	x4,0(x17)
    32bc:	00020863          	beq	x4,x0,32cc <I_blt_cg_cr_rs1_rs2_edges_offset_rs1val_0x80000000_rs2val_0xfffffffe+0x1c>
    32c0:	5bd062ef          	jal	x5,a07c <failedtest_x5_x4>
    32c4:	000032b0          	.word	0x000032b0
    32c8:	0000ebce          	.word	0x0000ebce
    32cc:	00488893          	addi	x17,x17,4
  j 4f # done with test
    32d0:	0280006f          	jal	x0,32f8 <I_blt_cg_cr_rs1_rs2_edges_offset_rs1val_0x80000000_rs2val_0xfffffffe+0x48>
2: # goes here during backward branch if taken
  LI(x9, 1)
    32d4:	00100493          	addi	x9,x0,1
  # Check if x9 contains the expected result. x17 is the signature ptr, x5 is the link ptr, x4 is a temp reg.
  RVTEST_SIGUPD(x17, x5, x4, x9, I_blt_cg_cr_rs1_rs2_edges_offset_rs1val_0x80000000_rs2val_0xfffffffe, I_blt_cg_cr_rs1_rs2_edges_offset_rs1val_0x80000000_rs2val_0xfffffffe_str) # signature 1 for taken
    32d8:	0008a203          	lw	x4,0(x17)
    32dc:	00920863          	beq	x4,x9,32ec <I_blt_cg_cr_rs1_rs2_edges_offset_rs1val_0x80000000_rs2val_0xfffffffe+0x3c>
    32e0:	59d062ef          	jal	x5,a07c <failedtest_x5_x4>
    32e4:	000032b0          	.word	0x000032b0
    32e8:	0000ebce          	.word	0x0000ebce
    32ec:	00488893          	addi	x17,x17,4
  j 4f # done with test
    32f0:	0080006f          	jal	x0,32f8 <I_blt_cg_cr_rs1_rs2_edges_offset_rs1val_0x80000000_rs2val_0xfffffffe+0x48>
3: # goes here during forward branch if taken
  blt x9, x13, 2b # backward branch, definitely taken
    32f4:	fed4c0e3          	blt	x9,x13,32d4 <I_blt_cg_cr_rs1_rs2_edges_offset_rs1val_0x80000000_rs2val_0xfffffffe+0x24>
4: # done with test

# cr_rs1_rs2_edges_offset (Test source rs1 = 0x80000000 rs2 = 0x5bbc8872)
  RVTEST_TESTDATA_LOAD_INT(x23, x25) # load rs1: x25 = 0x80000000
    32f8:	000bac83          	lw	x25,0(x23)
    32fc:	004b8b93          	addi	x23,x23,4
  RVTEST_TESTDATA_LOAD_INT(x23, x29) # load rs2: x29 = 0x5bbc8872
    3300:	000bae83          	lw	x29,0(x23)
    3304:	004b8b93          	addi	x23,x23,4

00003308 <I_blt_cg_cr_rs1_rs2_edges_offset_rs1val_0x80000000_rs2val_0x5bbc8872>:
0: # destination for backwards branch that is never taken
I_blt_cg_cr_rs1_rs2_edges_offset_rs1val_0x80000000_rs2val_0x5bbc8872:
  blt x25, x29, 3f # forward branch, if taken
    3308:	05dcc263          	blt	x25,x29,334c <I_blt_cg_cr_rs1_rs2_edges_offset_rs1val_0x80000000_rs2val_0x5bbc8872+0x44>
1: # goes here if not taken
  blt x25, x29, 0b # backward branch, never taken
    330c:	ffdccee3          	blt	x25,x29,3308 <I_blt_cg_cr_rs1_rs2_edges_offset_rs1val_0x80000000_rs2val_0x5bbc8872>
  # Check if x0 contains the expected result. x17 is the signature ptr, x5 is the link ptr, x4 is a temp reg.
  RVTEST_SIGUPD(x17, x5, x4, x0, I_blt_cg_cr_rs1_rs2_edges_offset_rs1val_0x80000000_rs2val_0x5bbc8872, I_blt_cg_cr_rs1_rs2_edges_offset_rs1val_0x80000000_rs2val_0x5bbc8872_str)
    3310:	0008a203          	lw	x4,0(x17)
    3314:	00020863          	beq	x4,x0,3324 <I_blt_cg_cr_rs1_rs2_edges_offset_rs1val_0x80000000_rs2val_0x5bbc8872+0x1c>
    3318:	565062ef          	jal	x5,a07c <failedtest_x5_x4>
    331c:	00003308          	.word	0x00003308
    3320:	0000ec30          	.word	0x0000ec30
    3324:	00488893          	addi	x17,x17,4
  j 4f # done with test
    3328:	0280006f          	jal	x0,3350 <I_blt_cg_cr_rs1_rs2_edges_offset_rs1val_0x80000000_rs2val_0x5bbc8872+0x48>
2: # goes here during backward branch if taken
  LI(x25, 1)
    332c:	00100c93          	addi	x25,x0,1
  # Check if x25 contains the expected result. x17 is the signature ptr, x5 is the link ptr, x4 is a temp reg.
  RVTEST_SIGUPD(x17, x5, x4, x25, I_blt_cg_cr_rs1_rs2_edges_offset_rs1val_0x80000000_rs2val_0x5bbc8872, I_blt_cg_cr_rs1_rs2_edges_offset_rs1val_0x80000000_rs2val_0x5bbc8872_str) # signature 1 for taken
    3330:	0008a203          	lw	x4,0(x17)
    3334:	01920863          	beq	x4,x25,3344 <I_blt_cg_cr_rs1_rs2_edges_offset_rs1val_0x80000000_rs2val_0x5bbc8872+0x3c>
    3338:	545062ef          	jal	x5,a07c <failedtest_x5_x4>
    333c:	00003308          	.word	0x00003308
    3340:	0000ec30          	.word	0x0000ec30
    3344:	00488893          	addi	x17,x17,4
  j 4f # done with test
    3348:	0080006f          	jal	x0,3350 <I_blt_cg_cr_rs1_rs2_edges_offset_rs1val_0x80000000_rs2val_0x5bbc8872+0x48>
3: # goes here during forward branch if taken
  blt x25, x29, 2b # backward branch, definitely taken
    334c:	ffdcc0e3          	blt	x25,x29,332c <I_blt_cg_cr_rs1_rs2_edges_offset_rs1val_0x80000000_rs2val_0x5bbc8872+0x24>
4: # done with test

# cr_rs1_rs2_edges_offset (Test source rs1 = 0x80000000 rs2 = 0xaaaaaaaa)
  RVTEST_TESTDATA_LOAD_INT(x23, x15) # load rs1: x15 = 0x80000000
    3350:	000ba783          	lw	x15,0(x23)
    3354:	004b8b93          	addi	x23,x23,4
  RVTEST_TESTDATA_LOAD_INT(x23, x11) # load rs2: x11 = 0xaaaaaaaa
    3358:	000ba583          	lw	x11,0(x23)
    335c:	004b8b93          	addi	x23,x23,4

00003360 <I_blt_cg_cr_rs1_rs2_edges_offset_rs1val_0x80000000_rs2val_0xaaaaaaaa>:
0: # destination for backwards branch that is never taken
I_blt_cg_cr_rs1_rs2_edges_offset_rs1val_0x80000000_rs2val_0xaaaaaaaa:
  blt x15, x11, 3f # forward branch, if taken
    3360:	04b7c263          	blt	x15,x11,33a4 <I_blt_cg_cr_rs1_rs2_edges_offset_rs1val_0x80000000_rs2val_0xaaaaaaaa+0x44>
1: # goes here if not taken
  blt x15, x11, 0b # backward branch, never taken
    3364:	feb7cee3          	blt	x15,x11,3360 <I_blt_cg_cr_rs1_rs2_edges_offset_rs1val_0x80000000_rs2val_0xaaaaaaaa>
  # Check if x0 contains the expected result. x17 is the signature ptr, x5 is the link ptr, x4 is a temp reg.
  RVTEST_SIGUPD(x17, x5, x4, x0, I_blt_cg_cr_rs1_rs2_edges_offset_rs1val_0x80000000_rs2val_0xaaaaaaaa, I_blt_cg_cr_rs1_rs2_edges_offset_rs1val_0x80000000_rs2val_0xaaaaaaaa_str)
    3368:	0008a203          	lw	x4,0(x17)
    336c:	00020863          	beq	x4,x0,337c <I_blt_cg_cr_rs1_rs2_edges_offset_rs1val_0x80000000_rs2val_0xaaaaaaaa+0x1c>
    3370:	50d062ef          	jal	x5,a07c <failedtest_x5_x4>
    3374:	00003360          	.word	0x00003360
    3378:	0000ec92          	.word	0x0000ec92
    337c:	00488893          	addi	x17,x17,4
  j 4f # done with test
    3380:	0280006f          	jal	x0,33a8 <I_blt_cg_cr_rs1_rs2_edges_offset_rs1val_0x80000000_rs2val_0xaaaaaaaa+0x48>
2: # goes here during backward branch if taken
  LI(x15, 1)
    3384:	00100793          	addi	x15,x0,1
  # Check if x15 contains the expected result. x17 is the signature ptr, x5 is the link ptr, x4 is a temp reg.
  RVTEST_SIGUPD(x17, x5, x4, x15, I_blt_cg_cr_rs1_rs2_edges_offset_rs1val_0x80000000_rs2val_0xaaaaaaaa, I_blt_cg_cr_rs1_rs2_edges_offset_rs1val_0x80000000_rs2val_0xaaaaaaaa_str) # signature 1 for taken
    3388:	0008a203          	lw	x4,0(x17)
    338c:	00f20863          	beq	x4,x15,339c <I_blt_cg_cr_rs1_rs2_edges_offset_rs1val_0x80000000_rs2val_0xaaaaaaaa+0x3c>
    3390:	4ed062ef          	jal	x5,a07c <failedtest_x5_x4>
    3394:	00003360          	.word	0x00003360
    3398:	0000ec92          	.word	0x0000ec92
    339c:	00488893          	addi	x17,x17,4
  j 4f # done with test
    33a0:	0080006f          	jal	x0,33a8 <I_blt_cg_cr_rs1_rs2_edges_offset_rs1val_0x80000000_rs2val_0xaaaaaaaa+0x48>
3: # goes here during forward branch if taken
  blt x15, x11, 2b # backward branch, definitely taken
    33a4:	feb7c0e3          	blt	x15,x11,3384 <I_blt_cg_cr_rs1_rs2_edges_offset_rs1val_0x80000000_rs2val_0xaaaaaaaa+0x24>
4: # done with test

# cr_rs1_rs2_edges_offset (Test source rs1 = 0x80000000 rs2 = 0x55555555)
  RVTEST_TESTDATA_LOAD_INT(x23, x10) # load rs1: x10 = 0x80000000
    33a8:	000ba503          	lw	x10,0(x23)
    33ac:	004b8b93          	addi	x23,x23,4
  RVTEST_TESTDATA_LOAD_INT(x23, x7) # load rs2: x7 = 0x55555555
    33b0:	000ba383          	lw	x7,0(x23)
    33b4:	004b8b93          	addi	x23,x23,4

000033b8 <I_blt_cg_cr_rs1_rs2_edges_offset_rs1val_0x80000000_rs2val_0x55555555>:
0: # destination for backwards branch that is never taken
I_blt_cg_cr_rs1_rs2_edges_offset_rs1val_0x80000000_rs2val_0x55555555:
  blt x10, x7, 3f # forward branch, if taken
    33b8:	04754263          	blt	x10,x7,33fc <I_blt_cg_cr_rs1_rs2_edges_offset_rs1val_0x80000000_rs2val_0x55555555+0x44>
1: # goes here if not taken
  blt x10, x7, 0b # backward branch, never taken
    33bc:	fe754ee3          	blt	x10,x7,33b8 <I_blt_cg_cr_rs1_rs2_edges_offset_rs1val_0x80000000_rs2val_0x55555555>
  # Check if x0 contains the expected result. x17 is the signature ptr, x5 is the link ptr, x4 is a temp reg.
  RVTEST_SIGUPD(x17, x5, x4, x0, I_blt_cg_cr_rs1_rs2_edges_offset_rs1val_0x80000000_rs2val_0x55555555, I_blt_cg_cr_rs1_rs2_edges_offset_rs1val_0x80000000_rs2val_0x55555555_str)
    33c0:	0008a203          	lw	x4,0(x17)
    33c4:	00020863          	beq	x4,x0,33d4 <I_blt_cg_cr_rs1_rs2_edges_offset_rs1val_0x80000000_rs2val_0x55555555+0x1c>
    33c8:	4b5062ef          	jal	x5,a07c <failedtest_x5_x4>
    33cc:	000033b8          	.word	0x000033b8
    33d0:	0000ecf4          	.word	0x0000ecf4
    33d4:	00488893          	addi	x17,x17,4
  j 4f # done with test
    33d8:	0280006f          	jal	x0,3400 <I_blt_cg_cr_rs1_rs2_edges_offset_rs1val_0x80000000_rs2val_0x55555555+0x48>
2: # goes here during backward branch if taken
  LI(x10, 1)
    33dc:	00100513          	addi	x10,x0,1
  # Check if x10 contains the expected result. x17 is the signature ptr, x5 is the link ptr, x4 is a temp reg.
  RVTEST_SIGUPD(x17, x5, x4, x10, I_blt_cg_cr_rs1_rs2_edges_offset_rs1val_0x80000000_rs2val_0x55555555, I_blt_cg_cr_rs1_rs2_edges_offset_rs1val_0x80000000_rs2val_0x55555555_str) # signature 1 for taken
    33e0:	0008a203          	lw	x4,0(x17)
    33e4:	00a20863          	beq	x4,x10,33f4 <I_blt_cg_cr_rs1_rs2_edges_offset_rs1val_0x80000000_rs2val_0x55555555+0x3c>
    33e8:	495062ef          	jal	x5,a07c <failedtest_x5_x4>
    33ec:	000033b8          	.word	0x000033b8
    33f0:	0000ecf4          	.word	0x0000ecf4
    33f4:	00488893          	addi	x17,x17,4
  j 4f # done with test
    33f8:	0080006f          	jal	x0,3400 <I_blt_cg_cr_rs1_rs2_edges_offset_rs1val_0x80000000_rs2val_0x55555555+0x48>
3: # goes here during forward branch if taken
  blt x10, x7, 2b # backward branch, definitely taken
    33fc:	fe7540e3          	blt	x10,x7,33dc <I_blt_cg_cr_rs1_rs2_edges_offset_rs1val_0x80000000_rs2val_0x55555555+0x24>
4: # done with test

# cr_rs1_rs2_edges_offset (Test source rs1 = 0x80000001 rs2 = 0x00000000)
  RVTEST_TESTDATA_LOAD_INT(x23, x2) # load rs1: x2 = 0x80000001
    3400:	000ba103          	lw	x2,0(x23)
    3404:	004b8b93          	addi	x23,x23,4
  RVTEST_TESTDATA_LOAD_INT(x23, x18) # load rs2: x18 = 0x00000000
    3408:	000ba903          	lw	x18,0(x23)
    340c:	004b8b93          	addi	x23,x23,4

00003410 <I_blt_cg_cr_rs1_rs2_edges_offset_rs1val_0x80000001_rs2val_0x0>:
0: # destination for backwards branch that is never taken
I_blt_cg_cr_rs1_rs2_edges_offset_rs1val_0x80000001_rs2val_0x0:
  blt x2, x18, 3f # forward branch, if taken
    3410:	05214263          	blt	x2,x18,3454 <I_blt_cg_cr_rs1_rs2_edges_offset_rs1val_0x80000001_rs2val_0x0+0x44>
1: # goes here if not taken
  blt x2, x18, 0b # backward branch, never taken
    3414:	ff214ee3          	blt	x2,x18,3410 <I_blt_cg_cr_rs1_rs2_edges_offset_rs1val_0x80000001_rs2val_0x0>
  # Check if x0 contains the expected result. x17 is the signature ptr, x5 is the link ptr, x4 is a temp reg.
  RVTEST_SIGUPD(x17, x5, x4, x0, I_blt_cg_cr_rs1_rs2_edges_offset_rs1val_0x80000001_rs2val_0x0, I_blt_cg_cr_rs1_rs2_edges_offset_rs1val_0x80000001_rs2val_0x0_str)
    3418:	0008a203          	lw	x4,0(x17)
    341c:	00020863          	beq	x4,x0,342c <I_blt_cg_cr_rs1_rs2_edges_offset_rs1val_0x80000001_rs2val_0x0+0x1c>
    3420:	45d062ef          	jal	x5,a07c <failedtest_x5_x4>
    3424:	00003410          	.word	0x00003410
    3428:	0000ed56          	.word	0x0000ed56
    342c:	00488893          	addi	x17,x17,4
  j 4f # done with test
    3430:	0280006f          	jal	x0,3458 <I_blt_cg_cr_rs1_rs2_edges_offset_rs1val_0x80000001_rs2val_0x0+0x48>
2: # goes here during backward branch if taken
  LI(x2, 1)
    3434:	00100113          	addi	x2,x0,1
  # Check if x2 contains the expected result. x17 is the signature ptr, x5 is the link ptr, x4 is a temp reg.
  RVTEST_SIGUPD(x17, x5, x4, x2, I_blt_cg_cr_rs1_rs2_edges_offset_rs1val_0x80000001_rs2val_0x0, I_blt_cg_cr_rs1_rs2_edges_offset_rs1val_0x80000001_rs2val_0x0_str) # signature 1 for taken
    3438:	0008a203          	lw	x4,0(x17)
    343c:	00220863          	beq	x4,x2,344c <I_blt_cg_cr_rs1_rs2_edges_offset_rs1val_0x80000001_rs2val_0x0+0x3c>
    3440:	43d062ef          	jal	x5,a07c <failedtest_x5_x4>
    3444:	00003410          	.word	0x00003410
    3448:	0000ed56          	.word	0x0000ed56
    344c:	00488893          	addi	x17,x17,4
  j 4f # done with test
    3450:	0080006f          	jal	x0,3458 <I_blt_cg_cr_rs1_rs2_edges_offset_rs1val_0x80000001_rs2val_0x0+0x48>
3: # goes here during forward branch if taken
  blt x2, x18, 2b # backward branch, definitely taken
    3454:	ff2140e3          	blt	x2,x18,3434 <I_blt_cg_cr_rs1_rs2_edges_offset_rs1val_0x80000001_rs2val_0x0+0x24>
4: # done with test

# cr_rs1_rs2_edges_offset (Test source rs1 = 0x80000001 rs2 = 0x00000001)
  RVTEST_TESTDATA_LOAD_INT(x23, x1) # load rs1: x1 = 0x80000001
    3458:	000ba083          	lw	x1,0(x23)
    345c:	004b8b93          	addi	x23,x23,4
  RVTEST_TESTDATA_LOAD_INT(x23, x28) # load rs2: x28 = 0x00000001
    3460:	000bae03          	lw	x28,0(x23)
    3464:	004b8b93          	addi	x23,x23,4

00003468 <I_blt_cg_cr_rs1_rs2_edges_offset_rs1val_0x80000001_rs2val_0x1>:
0: # destination for backwards branch that is never taken
I_blt_cg_cr_rs1_rs2_edges_offset_rs1val_0x80000001_rs2val_0x1:
  blt x1, x28, 3f # forward branch, if taken
    3468:	05c0c263          	blt	x1,x28,34ac <I_blt_cg_cr_rs1_rs2_edges_offset_rs1val_0x80000001_rs2val_0x1+0x44>
1: # goes here if not taken
  blt x1, x28, 0b # backward branch, never taken
    346c:	ffc0cee3          	blt	x1,x28,3468 <I_blt_cg_cr_rs1_rs2_edges_offset_rs1val_0x80000001_rs2val_0x1>
  # Check if x0 contains the expected result. x17 is the signature ptr, x5 is the link ptr, x4 is a temp reg.
  RVTEST_SIGUPD(x17, x5, x4, x0, I_blt_cg_cr_rs1_rs2_edges_offset_rs1val_0x80000001_rs2val_0x1, I_blt_cg_cr_rs1_rs2_edges_offset_rs1val_0x80000001_rs2val_0x1_str)
    3470:	0008a203          	lw	x4,0(x17)
    3474:	00020863          	beq	x4,x0,3484 <I_blt_cg_cr_rs1_rs2_edges_offset_rs1val_0x80000001_rs2val_0x1+0x1c>
    3478:	405062ef          	jal	x5,a07c <failedtest_x5_x4>
    347c:	00003468          	.word	0x00003468
    3480:	0000edb1          	.word	0x0000edb1
    3484:	00488893          	addi	x17,x17,4
  j 4f # done with test
    3488:	0280006f          	jal	x0,34b0 <I_blt_cg_cr_rs1_rs2_edges_offset_rs1val_0x80000001_rs2val_0x1+0x48>
2: # goes here during backward branch if taken
  LI(x1, 1)
    348c:	00100093          	addi	x1,x0,1
  # Check if x1 contains the expected result. x17 is the signature ptr, x5 is the link ptr, x4 is a temp reg.
  RVTEST_SIGUPD(x17, x5, x4, x1, I_blt_cg_cr_rs1_rs2_edges_offset_rs1val_0x80000001_rs2val_0x1, I_blt_cg_cr_rs1_rs2_edges_offset_rs1val_0x80000001_rs2val_0x1_str) # signature 1 for taken
    3490:	0008a203          	lw	x4,0(x17)
    3494:	00120863          	beq	x4,x1,34a4 <I_blt_cg_cr_rs1_rs2_edges_offset_rs1val_0x80000001_rs2val_0x1+0x3c>
    3498:	3e5062ef          	jal	x5,a07c <failedtest_x5_x4>
    349c:	00003468          	.word	0x00003468
    34a0:	0000edb1          	.word	0x0000edb1
    34a4:	00488893          	addi	x17,x17,4
  j 4f # done with test
    34a8:	0080006f          	jal	x0,34b0 <I_blt_cg_cr_rs1_rs2_edges_offset_rs1val_0x80000001_rs2val_0x1+0x48>
3: # goes here during forward branch if taken
  blt x1, x28, 2b # backward branch, definitely taken
    34ac:	ffc0c0e3          	blt	x1,x28,348c <I_blt_cg_cr_rs1_rs2_edges_offset_rs1val_0x80000001_rs2val_0x1+0x24>
4: # done with test

# cr_rs1_rs2_edges_offset (Test source rs1 = 0x80000001 rs2 = 0x00000002)
  RVTEST_TESTDATA_LOAD_INT(x23, x26) # load rs1: x26 = 0x80000001
    34b0:	000bad03          	lw	x26,0(x23)
    34b4:	004b8b93          	addi	x23,x23,4
  RVTEST_TESTDATA_LOAD_INT(x23, x8) # load rs2: x8 = 0x00000002
    34b8:	000ba403          	lw	x8,0(x23)
    34bc:	004b8b93          	addi	x23,x23,4

000034c0 <I_blt_cg_cr_rs1_rs2_edges_offset_rs1val_0x80000001_rs2val_0x2>:
0: # destination for backwards branch that is never taken
I_blt_cg_cr_rs1_rs2_edges_offset_rs1val_0x80000001_rs2val_0x2:
  blt x26, x8, 3f # forward branch, if taken
    34c0:	048d4263          	blt	x26,x8,3504 <I_blt_cg_cr_rs1_rs2_edges_offset_rs1val_0x80000001_rs2val_0x2+0x44>
1: # goes here if not taken
  blt x26, x8, 0b # backward branch, never taken
    34c4:	fe8d4ee3          	blt	x26,x8,34c0 <I_blt_cg_cr_rs1_rs2_edges_offset_rs1val_0x80000001_rs2val_0x2>
  # Check if x0 contains the expected result. x17 is the signature ptr, x5 is the link ptr, x4 is a temp reg.
  RVTEST_SIGUPD(x17, x5, x4, x0, I_blt_cg_cr_rs1_rs2_edges_offset_rs1val_0x80000001_rs2val_0x2, I_blt_cg_cr_rs1_rs2_edges_offset_rs1val_0x80000001_rs2val_0x2_str)
    34c8:	0008a203          	lw	x4,0(x17)
    34cc:	00020863          	beq	x4,x0,34dc <I_blt_cg_cr_rs1_rs2_edges_offset_rs1val_0x80000001_rs2val_0x2+0x1c>
    34d0:	3ad062ef          	jal	x5,a07c <failedtest_x5_x4>
    34d4:	000034c0          	.word	0x000034c0
    34d8:	0000ee0c          	.word	0x0000ee0c
    34dc:	00488893          	addi	x17,x17,4
  j 4f # done with test
    34e0:	0280006f          	jal	x0,3508 <I_blt_cg_cr_rs1_rs2_edges_offset_rs1val_0x80000001_rs2val_0x2+0x48>
2: # goes here during backward branch if taken
  LI(x26, 1)
    34e4:	00100d13          	addi	x26,x0,1
  # Check if x26 contains the expected result. x17 is the signature ptr, x5 is the link ptr, x4 is a temp reg.
  RVTEST_SIGUPD(x17, x5, x4, x26, I_blt_cg_cr_rs1_rs2_edges_offset_rs1val_0x80000001_rs2val_0x2, I_blt_cg_cr_rs1_rs2_edges_offset_rs1val_0x80000001_rs2val_0x2_str) # signature 1 for taken
    34e8:	0008a203          	lw	x4,0(x17)
    34ec:	01a20863          	beq	x4,x26,34fc <I_blt_cg_cr_rs1_rs2_edges_offset_rs1val_0x80000001_rs2val_0x2+0x3c>
    34f0:	38d062ef          	jal	x5,a07c <failedtest_x5_x4>
    34f4:	000034c0          	.word	0x000034c0
    34f8:	0000ee0c          	.word	0x0000ee0c
    34fc:	00488893          	addi	x17,x17,4
  j 4f # done with test
    3500:	0080006f          	jal	x0,3508 <I_blt_cg_cr_rs1_rs2_edges_offset_rs1val_0x80000001_rs2val_0x2+0x48>
3: # goes here during forward branch if taken
  blt x26, x8, 2b # backward branch, definitely taken
    3504:	fe8d40e3          	blt	x26,x8,34e4 <I_blt_cg_cr_rs1_rs2_edges_offset_rs1val_0x80000001_rs2val_0x2+0x24>
4: # done with test

# cr_rs1_rs2_edges_offset (Test source rs1 = 0x80000001 rs2 = 0x80000000)
  RVTEST_TESTDATA_LOAD_INT(x23, x16) # load rs1: x16 = 0x80000001
    3508:	000ba803          	lw	x16,0(x23)
    350c:	004b8b93          	addi	x23,x23,4
  RVTEST_TESTDATA_LOAD_INT(x23, x9) # load rs2: x9 = 0x80000000
    3510:	000ba483          	lw	x9,0(x23)
    3514:	004b8b93          	addi	x23,x23,4

00003518 <I_blt_cg_cr_rs1_rs2_edges_offset_rs1val_0x80000001_rs2val_0x80000000>:
0: # destination for backwards branch that is never taken
I_blt_cg_cr_rs1_rs2_edges_offset_rs1val_0x80000001_rs2val_0x80000000:
  blt x16, x9, 3f # forward branch, if taken
    3518:	04984263          	blt	x16,x9,355c <I_blt_cg_cr_rs1_rs2_edges_offset_rs1val_0x80000001_rs2val_0x80000000+0x44>
1: # goes here if not taken
  blt x16, x9, 0b # backward branch, never taken
    351c:	fe984ee3          	blt	x16,x9,3518 <I_blt_cg_cr_rs1_rs2_edges_offset_rs1val_0x80000001_rs2val_0x80000000>
  # Check if x0 contains the expected result. x17 is the signature ptr, x5 is the link ptr, x4 is a temp reg.
  RVTEST_SIGUPD(x17, x5, x4, x0, I_blt_cg_cr_rs1_rs2_edges_offset_rs1val_0x80000001_rs2val_0x80000000, I_blt_cg_cr_rs1_rs2_edges_offset_rs1val_0x80000001_rs2val_0x80000000_str)
    3520:	0008a203          	lw	x4,0(x17)
    3524:	00020863          	beq	x4,x0,3534 <I_blt_cg_cr_rs1_rs2_edges_offset_rs1val_0x80000001_rs2val_0x80000000+0x1c>
    3528:	355062ef          	jal	x5,a07c <failedtest_x5_x4>
    352c:	00003518          	.word	0x00003518
    3530:	0000ee67          	.word	0x0000ee67
    3534:	00488893          	addi	x17,x17,4
  j 4f # done with test
    3538:	0280006f          	jal	x0,3560 <I_blt_cg_cr_rs1_rs2_edges_offset_rs1val_0x80000001_rs2val_0x80000000+0x48>
2: # goes here during backward branch if taken
  LI(x16, 1)
    353c:	00100813          	addi	x16,x0,1
  # Check if x16 contains the expected result. x17 is the signature ptr, x5 is the link ptr, x4 is a temp reg.
  RVTEST_SIGUPD(x17, x5, x4, x16, I_blt_cg_cr_rs1_rs2_edges_offset_rs1val_0x80000001_rs2val_0x80000000, I_blt_cg_cr_rs1_rs2_edges_offset_rs1val_0x80000001_rs2val_0x80000000_str) # signature 1 for taken
    3540:	0008a203          	lw	x4,0(x17)
    3544:	01020863          	beq	x4,x16,3554 <I_blt_cg_cr_rs1_rs2_edges_offset_rs1val_0x80000001_rs2val_0x80000000+0x3c>
    3548:	335062ef          	jal	x5,a07c <failedtest_x5_x4>
    354c:	00003518          	.word	0x00003518
    3550:	0000ee67          	.word	0x0000ee67
    3554:	00488893          	addi	x17,x17,4
  j 4f # done with test
    3558:	0080006f          	jal	x0,3560 <I_blt_cg_cr_rs1_rs2_edges_offset_rs1val_0x80000001_rs2val_0x80000000+0x48>
3: # goes here during forward branch if taken
  blt x16, x9, 2b # backward branch, definitely taken
    355c:	fe9840e3          	blt	x16,x9,353c <I_blt_cg_cr_rs1_rs2_edges_offset_rs1val_0x80000001_rs2val_0x80000000+0x24>
4: # done with test

# cr_rs1_rs2_edges_offset (Test source rs1 = 0x80000001 rs2 = 0x80000001)
  RVTEST_TESTDATA_LOAD_INT(x23, x10) # load rs1: x10 = 0x80000001
    3560:	000ba503          	lw	x10,0(x23)
    3564:	004b8b93          	addi	x23,x23,4
  RVTEST_TESTDATA_LOAD_INT(x23, x16) # load rs2: x16 = 0x80000001
    3568:	000ba803          	lw	x16,0(x23)
    356c:	004b8b93          	addi	x23,x23,4

00003570 <I_blt_cg_cr_rs1_rs2_edges_offset_rs1val_0x80000001_rs2val_0x80000001>:
0: # destination for backwards branch that is never taken
I_blt_cg_cr_rs1_rs2_edges_offset_rs1val_0x80000001_rs2val_0x80000001:
  blt x10, x16, 3f # forward branch, if taken
    3570:	05054263          	blt	x10,x16,35b4 <I_blt_cg_cr_rs1_rs2_edges_offset_rs1val_0x80000001_rs2val_0x80000001+0x44>
1: # goes here if not taken
  blt x10, x16, 0b # backward branch, never taken
    3574:	ff054ee3          	blt	x10,x16,3570 <I_blt_cg_cr_rs1_rs2_edges_offset_rs1val_0x80000001_rs2val_0x80000001>
  # Check if x0 contains the expected result. x17 is the signature ptr, x5 is the link ptr, x4 is a temp reg.
  RVTEST_SIGUPD(x17, x5, x4, x0, I_blt_cg_cr_rs1_rs2_edges_offset_rs1val_0x80000001_rs2val_0x80000001, I_blt_cg_cr_rs1_rs2_edges_offset_rs1val_0x80000001_rs2val_0x80000001_str)
    3578:	0008a203          	lw	x4,0(x17)
    357c:	00020863          	beq	x4,x0,358c <I_blt_cg_cr_rs1_rs2_edges_offset_rs1val_0x80000001_rs2val_0x80000001+0x1c>
    3580:	2fd062ef          	jal	x5,a07c <failedtest_x5_x4>
    3584:	00003570          	.word	0x00003570
    3588:	0000eec9          	.word	0x0000eec9
    358c:	00488893          	addi	x17,x17,4
  j 4f # done with test
    3590:	0280006f          	jal	x0,35b8 <I_blt_cg_cr_rs1_rs2_edges_offset_rs1val_0x80000001_rs2val_0x80000001+0x48>
2: # goes here during backward branch if taken
  LI(x10, 1)
    3594:	00100513          	addi	x10,x0,1
  # Check if x10 contains the expected result. x17 is the signature ptr, x5 is the link ptr, x4 is a temp reg.
  RVTEST_SIGUPD(x17, x5, x4, x10, I_blt_cg_cr_rs1_rs2_edges_offset_rs1val_0x80000001_rs2val_0x80000001, I_blt_cg_cr_rs1_rs2_edges_offset_rs1val_0x80000001_rs2val_0x80000001_str) # signature 1 for taken
    3598:	0008a203          	lw	x4,0(x17)
    359c:	00a20863          	beq	x4,x10,35ac <I_blt_cg_cr_rs1_rs2_edges_offset_rs1val_0x80000001_rs2val_0x80000001+0x3c>
    35a0:	2dd062ef          	jal	x5,a07c <failedtest_x5_x4>
    35a4:	00003570          	.word	0x00003570
    35a8:	0000eec9          	.word	0x0000eec9
    35ac:	00488893          	addi	x17,x17,4
  j 4f # done with test
    35b0:	0080006f          	jal	x0,35b8 <I_blt_cg_cr_rs1_rs2_edges_offset_rs1val_0x80000001_rs2val_0x80000001+0x48>
3: # goes here during forward branch if taken
  blt x10, x16, 2b # backward branch, definitely taken
    35b4:	ff0540e3          	blt	x10,x16,3594 <I_blt_cg_cr_rs1_rs2_edges_offset_rs1val_0x80000001_rs2val_0x80000001+0x24>
4: # done with test

# cr_rs1_rs2_edges_offset (Test source rs1 = 0x80000001 rs2 = 0x7fffffff)
  RVTEST_TESTDATA_LOAD_INT(x23, x9) # load rs1: x9 = 0x80000001
    35b8:	000ba483          	lw	x9,0(x23)
    35bc:	004b8b93          	addi	x23,x23,4
  RVTEST_TESTDATA_LOAD_INT(x23, x15) # load rs2: x15 = 0x7fffffff
    35c0:	000ba783          	lw	x15,0(x23)
    35c4:	004b8b93          	addi	x23,x23,4

000035c8 <I_blt_cg_cr_rs1_rs2_edges_offset_rs1val_0x80000001_rs2val_0x7fffffff>:
0: # destination for backwards branch that is never taken
I_blt_cg_cr_rs1_rs2_edges_offset_rs1val_0x80000001_rs2val_0x7fffffff:
  blt x9, x15, 3f # forward branch, if taken
    35c8:	04f4c263          	blt	x9,x15,360c <I_blt_cg_cr_rs1_rs2_edges_offset_rs1val_0x80000001_rs2val_0x7fffffff+0x44>
1: # goes here if not taken
  blt x9, x15, 0b # backward branch, never taken
    35cc:	fef4cee3          	blt	x9,x15,35c8 <I_blt_cg_cr_rs1_rs2_edges_offset_rs1val_0x80000001_rs2val_0x7fffffff>
  # Check if x0 contains the expected result. x17 is the signature ptr, x5 is the link ptr, x4 is a temp reg.
  RVTEST_SIGUPD(x17, x5, x4, x0, I_blt_cg_cr_rs1_rs2_edges_offset_rs1val_0x80000001_rs2val_0x7fffffff, I_blt_cg_cr_rs1_rs2_edges_offset_rs1val_0x80000001_rs2val_0x7fffffff_str)
    35d0:	0008a203          	lw	x4,0(x17)
    35d4:	00020863          	beq	x4,x0,35e4 <I_blt_cg_cr_rs1_rs2_edges_offset_rs1val_0x80000001_rs2val_0x7fffffff+0x1c>
    35d8:	2a5062ef          	jal	x5,a07c <failedtest_x5_x4>
    35dc:	000035c8          	.word	0x000035c8
    35e0:	0000ef2b          	.word	0x0000ef2b
    35e4:	00488893          	addi	x17,x17,4
  j 4f # done with test
    35e8:	0280006f          	jal	x0,3610 <I_blt_cg_cr_rs1_rs2_edges_offset_rs1val_0x80000001_rs2val_0x7fffffff+0x48>
2: # goes here during backward branch if taken
  LI(x9, 1)
    35ec:	00100493          	addi	x9,x0,1
  # Check if x9 contains the expected result. x17 is the signature ptr, x5 is the link ptr, x4 is a temp reg.
  RVTEST_SIGUPD(x17, x5, x4, x9, I_blt_cg_cr_rs1_rs2_edges_offset_rs1val_0x80000001_rs2val_0x7fffffff, I_blt_cg_cr_rs1_rs2_edges_offset_rs1val_0x80000001_rs2val_0x7fffffff_str) # signature 1 for taken
    35f0:	0008a203          	lw	x4,0(x17)
    35f4:	00920863          	beq	x4,x9,3604 <I_blt_cg_cr_rs1_rs2_edges_offset_rs1val_0x80000001_rs2val_0x7fffffff+0x3c>
    35f8:	285062ef          	jal	x5,a07c <failedtest_x5_x4>
    35fc:	000035c8          	.word	0x000035c8
    3600:	0000ef2b          	.word	0x0000ef2b
    3604:	00488893          	addi	x17,x17,4
  j 4f # done with test
    3608:	0080006f          	jal	x0,3610 <I_blt_cg_cr_rs1_rs2_edges_offset_rs1val_0x80000001_rs2val_0x7fffffff+0x48>
3: # goes here during forward branch if taken
  blt x9, x15, 2b # backward branch, definitely taken
    360c:	fef4c0e3          	blt	x9,x15,35ec <I_blt_cg_cr_rs1_rs2_edges_offset_rs1val_0x80000001_rs2val_0x7fffffff+0x24>
4: # done with test

# cr_rs1_rs2_edges_offset (Test source rs1 = 0x80000001 rs2 = 0x7ffffffe)
  RVTEST_TESTDATA_LOAD_INT(x23, x7) # load rs1: x7 = 0x80000001
    3610:	000ba383          	lw	x7,0(x23)
    3614:	004b8b93          	addi	x23,x23,4
  RVTEST_TESTDATA_LOAD_INT(x23, x1) # load rs2: x1 = 0x7ffffffe
    3618:	000ba083          	lw	x1,0(x23)
    361c:	004b8b93          	addi	x23,x23,4

00003620 <I_blt_cg_cr_rs1_rs2_edges_offset_rs1val_0x80000001_rs2val_0x7ffffffe>:
0: # destination for backwards branch that is never taken
I_blt_cg_cr_rs1_rs2_edges_offset_rs1val_0x80000001_rs2val_0x7ffffffe:
  blt x7, x1, 3f # forward branch, if taken
    3620:	0413c263          	blt	x7,x1,3664 <I_blt_cg_cr_rs1_rs2_edges_offset_rs1val_0x80000001_rs2val_0x7ffffffe+0x44>
1: # goes here if not taken
  blt x7, x1, 0b # backward branch, never taken
    3624:	fe13cee3          	blt	x7,x1,3620 <I_blt_cg_cr_rs1_rs2_edges_offset_rs1val_0x80000001_rs2val_0x7ffffffe>
  # Check if x0 contains the expected result. x17 is the signature ptr, x5 is the link ptr, x4 is a temp reg.
  RVTEST_SIGUPD(x17, x5, x4, x0, I_blt_cg_cr_rs1_rs2_edges_offset_rs1val_0x80000001_rs2val_0x7ffffffe, I_blt_cg_cr_rs1_rs2_edges_offset_rs1val_0x80000001_rs2val_0x7ffffffe_str)
    3628:	0008a203          	lw	x4,0(x17)
    362c:	00020863          	beq	x4,x0,363c <I_blt_cg_cr_rs1_rs2_edges_offset_rs1val_0x80000001_rs2val_0x7ffffffe+0x1c>
    3630:	24d062ef          	jal	x5,a07c <failedtest_x5_x4>
    3634:	00003620          	.word	0x00003620
    3638:	0000ef8d          	.word	0x0000ef8d
    363c:	00488893          	addi	x17,x17,4
  j 4f # done with test
    3640:	0280006f          	jal	x0,3668 <I_blt_cg_cr_rs1_rs2_edges_offset_rs1val_0x80000001_rs2val_0x7ffffffe+0x48>
2: # goes here during backward branch if taken
  LI(x7, 1)
    3644:	00100393          	addi	x7,x0,1
  # Check if x7 contains the expected result. x17 is the signature ptr, x5 is the link ptr, x4 is a temp reg.
  RVTEST_SIGUPD(x17, x5, x4, x7, I_blt_cg_cr_rs1_rs2_edges_offset_rs1val_0x80000001_rs2val_0x7ffffffe, I_blt_cg_cr_rs1_rs2_edges_offset_rs1val_0x80000001_rs2val_0x7ffffffe_str) # signature 1 for taken
    3648:	0008a203          	lw	x4,0(x17)
    364c:	00720863          	beq	x4,x7,365c <I_blt_cg_cr_rs1_rs2_edges_offset_rs1val_0x80000001_rs2val_0x7ffffffe+0x3c>
    3650:	22d062ef          	jal	x5,a07c <failedtest_x5_x4>
    3654:	00003620          	.word	0x00003620
    3658:	0000ef8d          	.word	0x0000ef8d
    365c:	00488893          	addi	x17,x17,4
  j 4f # done with test
    3660:	0080006f          	jal	x0,3668 <I_blt_cg_cr_rs1_rs2_edges_offset_rs1val_0x80000001_rs2val_0x7ffffffe+0x48>
3: # goes here during forward branch if taken
  blt x7, x1, 2b # backward branch, definitely taken
    3664:	fe13c0e3          	blt	x7,x1,3644 <I_blt_cg_cr_rs1_rs2_edges_offset_rs1val_0x80000001_rs2val_0x7ffffffe+0x24>
4: # done with test

# cr_rs1_rs2_edges_offset (Test source rs1 = 0x80000001 rs2 = 0xffffffff)
  RVTEST_TESTDATA_LOAD_INT(x23, x16) # load rs1: x16 = 0x80000001
    3668:	000ba803          	lw	x16,0(x23)
    366c:	004b8b93          	addi	x23,x23,4
  RVTEST_TESTDATA_LOAD_INT(x23, x11) # load rs2: x11 = 0xffffffff
    3670:	000ba583          	lw	x11,0(x23)
    3674:	004b8b93          	addi	x23,x23,4

00003678 <I_blt_cg_cr_rs1_rs2_edges_offset_rs1val_0x80000001_rs2val_0xffffffff>:
0: # destination for backwards branch that is never taken
I_blt_cg_cr_rs1_rs2_edges_offset_rs1val_0x80000001_rs2val_0xffffffff:
  blt x16, x11, 3f # forward branch, if taken
    3678:	04b84263          	blt	x16,x11,36bc <I_blt_cg_cr_rs1_rs2_edges_offset_rs1val_0x80000001_rs2val_0xffffffff+0x44>
1: # goes here if not taken
  blt x16, x11, 0b # backward branch, never taken
    367c:	feb84ee3          	blt	x16,x11,3678 <I_blt_cg_cr_rs1_rs2_edges_offset_rs1val_0x80000001_rs2val_0xffffffff>
  # Check if x0 contains the expected result. x17 is the signature ptr, x5 is the link ptr, x4 is a temp reg.
  RVTEST_SIGUPD(x17, x5, x4, x0, I_blt_cg_cr_rs1_rs2_edges_offset_rs1val_0x80000001_rs2val_0xffffffff, I_blt_cg_cr_rs1_rs2_edges_offset_rs1val_0x80000001_rs2val_0xffffffff_str)
    3680:	0008a203          	lw	x4,0(x17)
    3684:	00020863          	beq	x4,x0,3694 <I_blt_cg_cr_rs1_rs2_edges_offset_rs1val_0x80000001_rs2val_0xffffffff+0x1c>
    3688:	1f5062ef          	jal	x5,a07c <failedtest_x5_x4>
    368c:	00003678          	.word	0x00003678
    3690:	0000efef          	.word	0x0000efef
    3694:	00488893          	addi	x17,x17,4
  j 4f # done with test
    3698:	0280006f          	jal	x0,36c0 <I_blt_cg_cr_rs1_rs2_edges_offset_rs1val_0x80000001_rs2val_0xffffffff+0x48>
2: # goes here during backward branch if taken
  LI(x16, 1)
    369c:	00100813          	addi	x16,x0,1
  # Check if x16 contains the expected result. x17 is the signature ptr, x5 is the link ptr, x4 is a temp reg.
  RVTEST_SIGUPD(x17, x5, x4, x16, I_blt_cg_cr_rs1_rs2_edges_offset_rs1val_0x80000001_rs2val_0xffffffff, I_blt_cg_cr_rs1_rs2_edges_offset_rs1val_0x80000001_rs2val_0xffffffff_str) # signature 1 for taken
    36a0:	0008a203          	lw	x4,0(x17)
    36a4:	01020863          	beq	x4,x16,36b4 <I_blt_cg_cr_rs1_rs2_edges_offset_rs1val_0x80000001_rs2val_0xffffffff+0x3c>
    36a8:	1d5062ef          	jal	x5,a07c <failedtest_x5_x4>
    36ac:	00003678          	.word	0x00003678
    36b0:	0000efef          	.word	0x0000efef
    36b4:	00488893          	addi	x17,x17,4
  j 4f # done with test
    36b8:	0080006f          	jal	x0,36c0 <I_blt_cg_cr_rs1_rs2_edges_offset_rs1val_0x80000001_rs2val_0xffffffff+0x48>
3: # goes here during forward branch if taken
  blt x16, x11, 2b # backward branch, definitely taken
    36bc:	feb840e3          	blt	x16,x11,369c <I_blt_cg_cr_rs1_rs2_edges_offset_rs1val_0x80000001_rs2val_0xffffffff+0x24>
4: # done with test

# cr_rs1_rs2_edges_offset (Test source rs1 = 0x80000001 rs2 = 0xfffffffe)
  RVTEST_TESTDATA_LOAD_INT(x23, x1) # load rs1: x1 = 0x80000001
    36c0:	000ba083          	lw	x1,0(x23)
    36c4:	004b8b93          	addi	x23,x23,4
  RVTEST_TESTDATA_LOAD_INT(x23, x24) # load rs2: x24 = 0xfffffffe
    36c8:	000bac03          	lw	x24,0(x23)
    36cc:	004b8b93          	addi	x23,x23,4

000036d0 <I_blt_cg_cr_rs1_rs2_edges_offset_rs1val_0x80000001_rs2val_0xfffffffe>:
0: # destination for backwards branch that is never taken
I_blt_cg_cr_rs1_rs2_edges_offset_rs1val_0x80000001_rs2val_0xfffffffe:
  blt x1, x24, 3f # forward branch, if taken
    36d0:	0580c263          	blt	x1,x24,3714 <I_blt_cg_cr_rs1_rs2_edges_offset_rs1val_0x80000001_rs2val_0xfffffffe+0x44>
1: # goes here if not taken
  blt x1, x24, 0b # backward branch, never taken
    36d4:	ff80cee3          	blt	x1,x24,36d0 <I_blt_cg_cr_rs1_rs2_edges_offset_rs1val_0x80000001_rs2val_0xfffffffe>
  # Check if x0 contains the expected result. x17 is the signature ptr, x5 is the link ptr, x4 is a temp reg.
  RVTEST_SIGUPD(x17, x5, x4, x0, I_blt_cg_cr_rs1_rs2_edges_offset_rs1val_0x80000001_rs2val_0xfffffffe, I_blt_cg_cr_rs1_rs2_edges_offset_rs1val_0x80000001_rs2val_0xfffffffe_str)
    36d8:	0008a203          	lw	x4,0(x17)
    36dc:	00020863          	beq	x4,x0,36ec <I_blt_cg_cr_rs1_rs2_edges_offset_rs1val_0x80000001_rs2val_0xfffffffe+0x1c>
    36e0:	19d062ef          	jal	x5,a07c <failedtest_x5_x4>
    36e4:	000036d0          	.word	0x000036d0
    36e8:	0000f051          	.word	0x0000f051
    36ec:	00488893          	addi	x17,x17,4
  j 4f # done with test
    36f0:	0280006f          	jal	x0,3718 <I_blt_cg_cr_rs1_rs2_edges_offset_rs1val_0x80000001_rs2val_0xfffffffe+0x48>
2: # goes here during backward branch if taken
  LI(x1, 1)
    36f4:	00100093          	addi	x1,x0,1
  # Check if x1 contains the expected result. x17 is the signature ptr, x5 is the link ptr, x4 is a temp reg.
  RVTEST_SIGUPD(x17, x5, x4, x1, I_blt_cg_cr_rs1_rs2_edges_offset_rs1val_0x80000001_rs2val_0xfffffffe, I_blt_cg_cr_rs1_rs2_edges_offset_rs1val_0x80000001_rs2val_0xfffffffe_str) # signature 1 for taken
    36f8:	0008a203          	lw	x4,0(x17)
    36fc:	00120863          	beq	x4,x1,370c <I_blt_cg_cr_rs1_rs2_edges_offset_rs1val_0x80000001_rs2val_0xfffffffe+0x3c>
    3700:	17d062ef          	jal	x5,a07c <failedtest_x5_x4>
    3704:	000036d0          	.word	0x000036d0
    3708:	0000f051          	.word	0x0000f051
    370c:	00488893          	addi	x17,x17,4
  j 4f # done with test
    3710:	0080006f          	jal	x0,3718 <I_blt_cg_cr_rs1_rs2_edges_offset_rs1val_0x80000001_rs2val_0xfffffffe+0x48>
3: # goes here during forward branch if taken
  blt x1, x24, 2b # backward branch, definitely taken
    3714:	ff80c0e3          	blt	x1,x24,36f4 <I_blt_cg_cr_rs1_rs2_edges_offset_rs1val_0x80000001_rs2val_0xfffffffe+0x24>
4: # done with test

# cr_rs1_rs2_edges_offset (Test source rs1 = 0x80000001 rs2 = 0x5bbc8872)
  RVTEST_TESTDATA_LOAD_INT(x23, x1) # load rs1: x1 = 0x80000001
    3718:	000ba083          	lw	x1,0(x23)
    371c:	004b8b93          	addi	x23,x23,4
  RVTEST_TESTDATA_LOAD_INT(x23, x18) # load rs2: x18 = 0x5bbc8872
    3720:	000ba903          	lw	x18,0(x23)
    3724:	004b8b93          	addi	x23,x23,4

00003728 <I_blt_cg_cr_rs1_rs2_edges_offset_rs1val_0x80000001_rs2val_0x5bbc8872>:
0: # destination for backwards branch that is never taken
I_blt_cg_cr_rs1_rs2_edges_offset_rs1val_0x80000001_rs2val_0x5bbc8872:
  blt x1, x18, 3f # forward branch, if taken
    3728:	0520c263          	blt	x1,x18,376c <I_blt_cg_cr_rs1_rs2_edges_offset_rs1val_0x80000001_rs2val_0x5bbc8872+0x44>
1: # goes here if not taken
  blt x1, x18, 0b # backward branch, never taken
    372c:	ff20cee3          	blt	x1,x18,3728 <I_blt_cg_cr_rs1_rs2_edges_offset_rs1val_0x80000001_rs2val_0x5bbc8872>
  # Check if x0 contains the expected result. x17 is the signature ptr, x5 is the link ptr, x4 is a temp reg.
  RVTEST_SIGUPD(x17, x5, x4, x0, I_blt_cg_cr_rs1_rs2_edges_offset_rs1val_0x80000001_rs2val_0x5bbc8872, I_blt_cg_cr_rs1_rs2_edges_offset_rs1val_0x80000001_rs2val_0x5bbc8872_str)
    3730:	0008a203          	lw	x4,0(x17)
    3734:	00020863          	beq	x4,x0,3744 <I_blt_cg_cr_rs1_rs2_edges_offset_rs1val_0x80000001_rs2val_0x5bbc8872+0x1c>
    3738:	145062ef          	jal	x5,a07c <failedtest_x5_x4>
    373c:	00003728          	.word	0x00003728
    3740:	0000f0b3          	.word	0x0000f0b3
    3744:	00488893          	addi	x17,x17,4
  j 4f # done with test
    3748:	0280006f          	jal	x0,3770 <I_blt_cg_cr_rs1_rs2_edges_offset_rs1val_0x80000001_rs2val_0x5bbc8872+0x48>
2: # goes here during backward branch if taken
  LI(x1, 1)
    374c:	00100093          	addi	x1,x0,1
  # Check if x1 contains the expected result. x17 is the signature ptr, x5 is the link ptr, x4 is a temp reg.
  RVTEST_SIGUPD(x17, x5, x4, x1, I_blt_cg_cr_rs1_rs2_edges_offset_rs1val_0x80000001_rs2val_0x5bbc8872, I_blt_cg_cr_rs1_rs2_edges_offset_rs1val_0x80000001_rs2val_0x5bbc8872_str) # signature 1 for taken
    3750:	0008a203          	lw	x4,0(x17)
    3754:	00120863          	beq	x4,x1,3764 <I_blt_cg_cr_rs1_rs2_edges_offset_rs1val_0x80000001_rs2val_0x5bbc8872+0x3c>
    3758:	125062ef          	jal	x5,a07c <failedtest_x5_x4>
    375c:	00003728          	.word	0x00003728
    3760:	0000f0b3          	.word	0x0000f0b3
    3764:	00488893          	addi	x17,x17,4
  j 4f # done with test
    3768:	0080006f          	jal	x0,3770 <I_blt_cg_cr_rs1_rs2_edges_offset_rs1val_0x80000001_rs2val_0x5bbc8872+0x48>
3: # goes here during forward branch if taken
  blt x1, x18, 2b # backward branch, definitely taken
    376c:	ff20c0e3          	blt	x1,x18,374c <I_blt_cg_cr_rs1_rs2_edges_offset_rs1val_0x80000001_rs2val_0x5bbc8872+0x24>
4: # done with test

# cr_rs1_rs2_edges_offset (Test source rs1 = 0x80000001 rs2 = 0xaaaaaaaa)
  RVTEST_TESTDATA_LOAD_INT(x23, x10) # load rs1: x10 = 0x80000001
    3770:	000ba503          	lw	x10,0(x23)
    3774:	004b8b93          	addi	x23,x23,4
  RVTEST_TESTDATA_LOAD_INT(x23, x2) # load rs2: x2 = 0xaaaaaaaa
    3778:	000ba103          	lw	x2,0(x23)
    377c:	004b8b93          	addi	x23,x23,4

00003780 <I_blt_cg_cr_rs1_rs2_edges_offset_rs1val_0x80000001_rs2val_0xaaaaaaaa>:
0: # destination for backwards branch that is never taken
I_blt_cg_cr_rs1_rs2_edges_offset_rs1val_0x80000001_rs2val_0xaaaaaaaa:
  blt x10, x2, 3f # forward branch, if taken
    3780:	04254263          	blt	x10,x2,37c4 <I_blt_cg_cr_rs1_rs2_edges_offset_rs1val_0x80000001_rs2val_0xaaaaaaaa+0x44>
1: # goes here if not taken
  blt x10, x2, 0b # backward branch, never taken
    3784:	fe254ee3          	blt	x10,x2,3780 <I_blt_cg_cr_rs1_rs2_edges_offset_rs1val_0x80000001_rs2val_0xaaaaaaaa>
  # Check if x0 contains the expected result. x17 is the signature ptr, x5 is the link ptr, x4 is a temp reg.
  RVTEST_SIGUPD(x17, x5, x4, x0, I_blt_cg_cr_rs1_rs2_edges_offset_rs1val_0x80000001_rs2val_0xaaaaaaaa, I_blt_cg_cr_rs1_rs2_edges_offset_rs1val_0x80000001_rs2val_0xaaaaaaaa_str)
    3788:	0008a203          	lw	x4,0(x17)
    378c:	00020863          	beq	x4,x0,379c <I_blt_cg_cr_rs1_rs2_edges_offset_rs1val_0x80000001_rs2val_0xaaaaaaaa+0x1c>
    3790:	0ed062ef          	jal	x5,a07c <failedtest_x5_x4>
    3794:	00003780          	.word	0x00003780
    3798:	0000f115          	.word	0x0000f115
    379c:	00488893          	addi	x17,x17,4
  j 4f # done with test
    37a0:	0280006f          	jal	x0,37c8 <I_blt_cg_cr_rs1_rs2_edges_offset_rs1val_0x80000001_rs2val_0xaaaaaaaa+0x48>
2: # goes here during backward branch if taken
  LI(x10, 1)
    37a4:	00100513          	addi	x10,x0,1
  # Check if x10 contains the expected result. x17 is the signature ptr, x5 is the link ptr, x4 is a temp reg.
  RVTEST_SIGUPD(x17, x5, x4, x10, I_blt_cg_cr_rs1_rs2_edges_offset_rs1val_0x80000001_rs2val_0xaaaaaaaa, I_blt_cg_cr_rs1_rs2_edges_offset_rs1val_0x80000001_rs2val_0xaaaaaaaa_str) # signature 1 for taken
    37a8:	0008a203          	lw	x4,0(x17)
    37ac:	00a20863          	beq	x4,x10,37bc <I_blt_cg_cr_rs1_rs2_edges_offset_rs1val_0x80000001_rs2val_0xaaaaaaaa+0x3c>
    37b0:	0cd062ef          	jal	x5,a07c <failedtest_x5_x4>
    37b4:	00003780          	.word	0x00003780
    37b8:	0000f115          	.word	0x0000f115
    37bc:	00488893          	addi	x17,x17,4
  j 4f # done with test
    37c0:	0080006f          	jal	x0,37c8 <I_blt_cg_cr_rs1_rs2_edges_offset_rs1val_0x80000001_rs2val_0xaaaaaaaa+0x48>
3: # goes here during forward branch if taken
  blt x10, x2, 2b # backward branch, definitely taken
    37c4:	fe2540e3          	blt	x10,x2,37a4 <I_blt_cg_cr_rs1_rs2_edges_offset_rs1val_0x80000001_rs2val_0xaaaaaaaa+0x24>
4: # done with test

# cr_rs1_rs2_edges_offset (Test source rs1 = 0x80000001 rs2 = 0x55555555)
  RVTEST_TESTDATA_LOAD_INT(x23, x12) # load rs1: x12 = 0x80000001
    37c8:	000ba603          	lw	x12,0(x23)
    37cc:	004b8b93          	addi	x23,x23,4
  RVTEST_TESTDATA_LOAD_INT(x23, x6) # load rs2: x6 = 0x55555555
    37d0:	000ba303          	lw	x6,0(x23)
    37d4:	004b8b93          	addi	x23,x23,4

000037d8 <I_blt_cg_cr_rs1_rs2_edges_offset_rs1val_0x80000001_rs2val_0x55555555>:
0: # destination for backwards branch that is never taken
I_blt_cg_cr_rs1_rs2_edges_offset_rs1val_0x80000001_rs2val_0x55555555:
  blt x12, x6, 3f # forward branch, if taken
    37d8:	04664263          	blt	x12,x6,381c <I_blt_cg_cr_rs1_rs2_edges_offset_rs1val_0x80000001_rs2val_0x55555555+0x44>
1: # goes here if not taken
  blt x12, x6, 0b # backward branch, never taken
    37dc:	fe664ee3          	blt	x12,x6,37d8 <I_blt_cg_cr_rs1_rs2_edges_offset_rs1val_0x80000001_rs2val_0x55555555>
  # Check if x0 contains the expected result. x17 is the signature ptr, x5 is the link ptr, x4 is a temp reg.
  RVTEST_SIGUPD(x17, x5, x4, x0, I_blt_cg_cr_rs1_rs2_edges_offset_rs1val_0x80000001_rs2val_0x55555555, I_blt_cg_cr_rs1_rs2_edges_offset_rs1val_0x80000001_rs2val_0x55555555_str)
    37e0:	0008a203          	lw	x4,0(x17)
    37e4:	00020863          	beq	x4,x0,37f4 <I_blt_cg_cr_rs1_rs2_edges_offset_rs1val_0x80000001_rs2val_0x55555555+0x1c>
    37e8:	095062ef          	jal	x5,a07c <failedtest_x5_x4>
    37ec:	000037d8          	.word	0x000037d8
    37f0:	0000f177          	.word	0x0000f177
    37f4:	00488893          	addi	x17,x17,4
  j 4f # done with test
    37f8:	0280006f          	jal	x0,3820 <I_blt_cg_cr_rs1_rs2_edges_offset_rs1val_0x80000001_rs2val_0x55555555+0x48>
2: # goes here during backward branch if taken
  LI(x12, 1)
    37fc:	00100613          	addi	x12,x0,1
  # Check if x12 contains the expected result. x17 is the signature ptr, x5 is the link ptr, x4 is a temp reg.
  RVTEST_SIGUPD(x17, x5, x4, x12, I_blt_cg_cr_rs1_rs2_edges_offset_rs1val_0x80000001_rs2val_0x55555555, I_blt_cg_cr_rs1_rs2_edges_offset_rs1val_0x80000001_rs2val_0x55555555_str) # signature 1 for taken
    3800:	0008a203          	lw	x4,0(x17)
    3804:	00c20863          	beq	x4,x12,3814 <I_blt_cg_cr_rs1_rs2_edges_offset_rs1val_0x80000001_rs2val_0x55555555+0x3c>
    3808:	075062ef          	jal	x5,a07c <failedtest_x5_x4>
    380c:	000037d8          	.word	0x000037d8
    3810:	0000f177          	.word	0x0000f177
    3814:	00488893          	addi	x17,x17,4
  j 4f # done with test
    3818:	0080006f          	jal	x0,3820 <I_blt_cg_cr_rs1_rs2_edges_offset_rs1val_0x80000001_rs2val_0x55555555+0x48>
3: # goes here during forward branch if taken
  blt x12, x6, 2b # backward branch, definitely taken
    381c:	fe6640e3          	blt	x12,x6,37fc <I_blt_cg_cr_rs1_rs2_edges_offset_rs1val_0x80000001_rs2val_0x55555555+0x24>
4: # done with test

# cr_rs1_rs2_edges_offset (Test source rs1 = 0x7fffffff rs2 = 0x00000000)
  RVTEST_TESTDATA_LOAD_INT(x23, x18) # load rs1: x18 = 0x7fffffff
    3820:	000ba903          	lw	x18,0(x23)
    3824:	004b8b93          	addi	x23,x23,4
  RVTEST_TESTDATA_LOAD_INT(x23, x10) # load rs2: x10 = 0x00000000
    3828:	000ba503          	lw	x10,0(x23)
    382c:	004b8b93          	addi	x23,x23,4

00003830 <I_blt_cg_cr_rs1_rs2_edges_offset_rs1val_0x7fffffff_rs2val_0x0>:
0: # destination for backwards branch that is never taken
I_blt_cg_cr_rs1_rs2_edges_offset_rs1val_0x7fffffff_rs2val_0x0:
  blt x18, x10, 3f # forward branch, if taken
    3830:	04a94263          	blt	x18,x10,3874 <I_blt_cg_cr_rs1_rs2_edges_offset_rs1val_0x7fffffff_rs2val_0x0+0x44>
1: # goes here if not taken
  blt x18, x10, 0b # backward branch, never taken
    3834:	fea94ee3          	blt	x18,x10,3830 <I_blt_cg_cr_rs1_rs2_edges_offset_rs1val_0x7fffffff_rs2val_0x0>
  # Check if x0 contains the expected result. x17 is the signature ptr, x5 is the link ptr, x4 is a temp reg.
  RVTEST_SIGUPD(x17, x5, x4, x0, I_blt_cg_cr_rs1_rs2_edges_offset_rs1val_0x7fffffff_rs2val_0x0, I_blt_cg_cr_rs1_rs2_edges_offset_rs1val_0x7fffffff_rs2val_0x0_str)
    3838:	0008a203          	lw	x4,0(x17)
    383c:	00020863          	beq	x4,x0,384c <I_blt_cg_cr_rs1_rs2_edges_offset_rs1val_0x7fffffff_rs2val_0x0+0x1c>
    3840:	03d062ef          	jal	x5,a07c <failedtest_x5_x4>
    3844:	00003830          	.word	0x00003830
    3848:	0000f1d9          	.word	0x0000f1d9
    384c:	00488893          	addi	x17,x17,4
  j 4f # done with test
    3850:	0280006f          	jal	x0,3878 <I_blt_cg_cr_rs1_rs2_edges_offset_rs1val_0x7fffffff_rs2val_0x0+0x48>
2: # goes here during backward branch if taken
  LI(x18, 1)
    3854:	00100913          	addi	x18,x0,1
  # Check if x18 contains the expected result. x17 is the signature ptr, x5 is the link ptr, x4 is a temp reg.
  RVTEST_SIGUPD(x17, x5, x4, x18, I_blt_cg_cr_rs1_rs2_edges_offset_rs1val_0x7fffffff_rs2val_0x0, I_blt_cg_cr_rs1_rs2_edges_offset_rs1val_0x7fffffff_rs2val_0x0_str) # signature 1 for taken
    3858:	0008a203          	lw	x4,0(x17)
    385c:	01220863          	beq	x4,x18,386c <I_blt_cg_cr_rs1_rs2_edges_offset_rs1val_0x7fffffff_rs2val_0x0+0x3c>
    3860:	01d062ef          	jal	x5,a07c <failedtest_x5_x4>
    3864:	00003830          	.word	0x00003830
    3868:	0000f1d9          	.word	0x0000f1d9
    386c:	00488893          	addi	x17,x17,4
  j 4f # done with test
    3870:	0080006f          	jal	x0,3878 <I_blt_cg_cr_rs1_rs2_edges_offset_rs1val_0x7fffffff_rs2val_0x0+0x48>
3: # goes here during forward branch if taken
  blt x18, x10, 2b # backward branch, definitely taken
    3874:	fea940e3          	blt	x18,x10,3854 <I_blt_cg_cr_rs1_rs2_edges_offset_rs1val_0x7fffffff_rs2val_0x0+0x24>
4: # done with test

# cr_rs1_rs2_edges_offset (Test source rs1 = 0x7fffffff rs2 = 0x00000001)
  RVTEST_TESTDATA_LOAD_INT(x23, x21) # load rs1: x21 = 0x7fffffff
    3878:	000baa83          	lw	x21,0(x23)
    387c:	004b8b93          	addi	x23,x23,4
  RVTEST_TESTDATA_LOAD_INT(x23, x29) # load rs2: x29 = 0x00000001
    3880:	000bae83          	lw	x29,0(x23)
    3884:	004b8b93          	addi	x23,x23,4

00003888 <I_blt_cg_cr_rs1_rs2_edges_offset_rs1val_0x7fffffff_rs2val_0x1>:
0: # destination for backwards branch that is never taken
I_blt_cg_cr_rs1_rs2_edges_offset_rs1val_0x7fffffff_rs2val_0x1:
  blt x21, x29, 3f # forward branch, if taken
    3888:	05dac263          	blt	x21,x29,38cc <I_blt_cg_cr_rs1_rs2_edges_offset_rs1val_0x7fffffff_rs2val_0x1+0x44>
1: # goes here if not taken
  blt x21, x29, 0b # backward branch, never taken
    388c:	ffdacee3          	blt	x21,x29,3888 <I_blt_cg_cr_rs1_rs2_edges_offset_rs1val_0x7fffffff_rs2val_0x1>
  # Check if x0 contains the expected result. x17 is the signature ptr, x5 is the link ptr, x4 is a temp reg.
  RVTEST_SIGUPD(x17, x5, x4, x0, I_blt_cg_cr_rs1_rs2_edges_offset_rs1val_0x7fffffff_rs2val_0x1, I_blt_cg_cr_rs1_rs2_edges_offset_rs1val_0x7fffffff_rs2val_0x1_str)
    3890:	0008a203          	lw	x4,0(x17)
    3894:	00020863          	beq	x4,x0,38a4 <I_blt_cg_cr_rs1_rs2_edges_offset_rs1val_0x7fffffff_rs2val_0x1+0x1c>
    3898:	7e4062ef          	jal	x5,a07c <failedtest_x5_x4>
    389c:	00003888          	.word	0x00003888
    38a0:	0000f234          	.word	0x0000f234
    38a4:	00488893          	addi	x17,x17,4
  j 4f # done with test
    38a8:	0280006f          	jal	x0,38d0 <I_blt_cg_cr_rs1_rs2_edges_offset_rs1val_0x7fffffff_rs2val_0x1+0x48>
2: # goes here during backward branch if taken
  LI(x21, 1)
    38ac:	00100a93          	addi	x21,x0,1
  # Check if x21 contains the expected result. x17 is the signature ptr, x5 is the link ptr, x4 is a temp reg.
  RVTEST_SIGUPD(x17, x5, x4, x21, I_blt_cg_cr_rs1_rs2_edges_offset_rs1val_0x7fffffff_rs2val_0x1, I_blt_cg_cr_rs1_rs2_edges_offset_rs1val_0x7fffffff_rs2val_0x1_str) # signature 1 for taken
    38b0:	0008a203          	lw	x4,0(x17)
    38b4:	01520863          	beq	x4,x21,38c4 <I_blt_cg_cr_rs1_rs2_edges_offset_rs1val_0x7fffffff_rs2val_0x1+0x3c>
    38b8:	7c4062ef          	jal	x5,a07c <failedtest_x5_x4>
    38bc:	00003888          	.word	0x00003888
    38c0:	0000f234          	.word	0x0000f234
    38c4:	00488893          	addi	x17,x17,4
  j 4f # done with test
    38c8:	0080006f          	jal	x0,38d0 <I_blt_cg_cr_rs1_rs2_edges_offset_rs1val_0x7fffffff_rs2val_0x1+0x48>
3: # goes here during forward branch if taken
  blt x21, x29, 2b # backward branch, definitely taken
    38cc:	ffdac0e3          	blt	x21,x29,38ac <I_blt_cg_cr_rs1_rs2_edges_offset_rs1val_0x7fffffff_rs2val_0x1+0x24>
4: # done with test

# cr_rs1_rs2_edges_offset (Test source rs1 = 0x7fffffff rs2 = 0x00000002)
  RVTEST_TESTDATA_LOAD_INT(x23, x27) # load rs1: x27 = 0x7fffffff
    38d0:	000bad83          	lw	x27,0(x23)
    38d4:	004b8b93          	addi	x23,x23,4
  RVTEST_TESTDATA_LOAD_INT(x23, x18) # load rs2: x18 = 0x00000002
    38d8:	000ba903          	lw	x18,0(x23)
    38dc:	004b8b93          	addi	x23,x23,4

000038e0 <I_blt_cg_cr_rs1_rs2_edges_offset_rs1val_0x7fffffff_rs2val_0x2>:
0: # destination for backwards branch that is never taken
I_blt_cg_cr_rs1_rs2_edges_offset_rs1val_0x7fffffff_rs2val_0x2:
  blt x27, x18, 3f # forward branch, if taken
    38e0:	052dc263          	blt	x27,x18,3924 <I_blt_cg_cr_rs1_rs2_edges_offset_rs1val_0x7fffffff_rs2val_0x2+0x44>
1: # goes here if not taken
  blt x27, x18, 0b # backward branch, never taken
    38e4:	ff2dcee3          	blt	x27,x18,38e0 <I_blt_cg_cr_rs1_rs2_edges_offset_rs1val_0x7fffffff_rs2val_0x2>
  # Check if x0 contains the expected result. x17 is the signature ptr, x5 is the link ptr, x4 is a temp reg.
  RVTEST_SIGUPD(x17, x5, x4, x0, I_blt_cg_cr_rs1_rs2_edges_offset_rs1val_0x7fffffff_rs2val_0x2, I_blt_cg_cr_rs1_rs2_edges_offset_rs1val_0x7fffffff_rs2val_0x2_str)
    38e8:	0008a203          	lw	x4,0(x17)
    38ec:	00020863          	beq	x4,x0,38fc <I_blt_cg_cr_rs1_rs2_edges_offset_rs1val_0x7fffffff_rs2val_0x2+0x1c>
    38f0:	78c062ef          	jal	x5,a07c <failedtest_x5_x4>
    38f4:	000038e0          	.word	0x000038e0
    38f8:	0000f28f          	.word	0x0000f28f
    38fc:	00488893          	addi	x17,x17,4
  j 4f # done with test
    3900:	0280006f          	jal	x0,3928 <I_blt_cg_cr_rs1_rs2_edges_offset_rs1val_0x7fffffff_rs2val_0x2+0x48>
2: # goes here during backward branch if taken
  LI(x27, 1)
    3904:	00100d93          	addi	x27,x0,1
  # Check if x27 contains the expected result. x17 is the signature ptr, x5 is the link ptr, x4 is a temp reg.
  RVTEST_SIGUPD(x17, x5, x4, x27, I_blt_cg_cr_rs1_rs2_edges_offset_rs1val_0x7fffffff_rs2val_0x2, I_blt_cg_cr_rs1_rs2_edges_offset_rs1val_0x7fffffff_rs2val_0x2_str) # signature 1 for taken
    3908:	0008a203          	lw	x4,0(x17)
    390c:	01b20863          	beq	x4,x27,391c <I_blt_cg_cr_rs1_rs2_edges_offset_rs1val_0x7fffffff_rs2val_0x2+0x3c>
    3910:	76c062ef          	jal	x5,a07c <failedtest_x5_x4>
    3914:	000038e0          	.word	0x000038e0
    3918:	0000f28f          	.word	0x0000f28f
    391c:	00488893          	addi	x17,x17,4
  j 4f # done with test
    3920:	0080006f          	jal	x0,3928 <I_blt_cg_cr_rs1_rs2_edges_offset_rs1val_0x7fffffff_rs2val_0x2+0x48>
3: # goes here during forward branch if taken
  blt x27, x18, 2b # backward branch, definitely taken
    3924:	ff2dc0e3          	blt	x27,x18,3904 <I_blt_cg_cr_rs1_rs2_edges_offset_rs1val_0x7fffffff_rs2val_0x2+0x24>
4: # done with test

# cr_rs1_rs2_edges_offset (Test source rs1 = 0x7fffffff rs2 = 0x80000000)
  RVTEST_TESTDATA_LOAD_INT(x23, x25) # load rs1: x25 = 0x7fffffff
    3928:	000bac83          	lw	x25,0(x23)
    392c:	004b8b93          	addi	x23,x23,4
  RVTEST_TESTDATA_LOAD_INT(x23, x24) # load rs2: x24 = 0x80000000
    3930:	000bac03          	lw	x24,0(x23)
    3934:	004b8b93          	addi	x23,x23,4

00003938 <I_blt_cg_cr_rs1_rs2_edges_offset_rs1val_0x7fffffff_rs2val_0x80000000>:
0: # destination for backwards branch that is never taken
I_blt_cg_cr_rs1_rs2_edges_offset_rs1val_0x7fffffff_rs2val_0x80000000:
  blt x25, x24, 3f # forward branch, if taken
    3938:	058cc263          	blt	x25,x24,397c <I_blt_cg_cr_rs1_rs2_edges_offset_rs1val_0x7fffffff_rs2val_0x80000000+0x44>
1: # goes here if not taken
  blt x25, x24, 0b # backward branch, never taken
    393c:	ff8ccee3          	blt	x25,x24,3938 <I_blt_cg_cr_rs1_rs2_edges_offset_rs1val_0x7fffffff_rs2val_0x80000000>
  # Check if x0 contains the expected result. x17 is the signature ptr, x5 is the link ptr, x4 is a temp reg.
  RVTEST_SIGUPD(x17, x5, x4, x0, I_blt_cg_cr_rs1_rs2_edges_offset_rs1val_0x7fffffff_rs2val_0x80000000, I_blt_cg_cr_rs1_rs2_edges_offset_rs1val_0x7fffffff_rs2val_0x80000000_str)
    3940:	0008a203          	lw	x4,0(x17)
    3944:	00020863          	beq	x4,x0,3954 <I_blt_cg_cr_rs1_rs2_edges_offset_rs1val_0x7fffffff_rs2val_0x80000000+0x1c>
    3948:	734062ef          	jal	x5,a07c <failedtest_x5_x4>
    394c:	00003938          	.word	0x00003938
    3950:	0000f2ea          	.word	0x0000f2ea
    3954:	00488893          	addi	x17,x17,4
  j 4f # done with test
    3958:	0280006f          	jal	x0,3980 <I_blt_cg_cr_rs1_rs2_edges_offset_rs1val_0x7fffffff_rs2val_0x80000000+0x48>
2: # goes here during backward branch if taken
  LI(x25, 1)
    395c:	00100c93          	addi	x25,x0,1
  # Check if x25 contains the expected result. x17 is the signature ptr, x5 is the link ptr, x4 is a temp reg.
  RVTEST_SIGUPD(x17, x5, x4, x25, I_blt_cg_cr_rs1_rs2_edges_offset_rs1val_0x7fffffff_rs2val_0x80000000, I_blt_cg_cr_rs1_rs2_edges_offset_rs1val_0x7fffffff_rs2val_0x80000000_str) # signature 1 for taken
    3960:	0008a203          	lw	x4,0(x17)
    3964:	01920863          	beq	x4,x25,3974 <I_blt_cg_cr_rs1_rs2_edges_offset_rs1val_0x7fffffff_rs2val_0x80000000+0x3c>
    3968:	714062ef          	jal	x5,a07c <failedtest_x5_x4>
    396c:	00003938          	.word	0x00003938
    3970:	0000f2ea          	.word	0x0000f2ea
    3974:	00488893          	addi	x17,x17,4
  j 4f # done with test
    3978:	0080006f          	jal	x0,3980 <I_blt_cg_cr_rs1_rs2_edges_offset_rs1val_0x7fffffff_rs2val_0x80000000+0x48>
3: # goes here during forward branch if taken
  blt x25, x24, 2b # backward branch, definitely taken
    397c:	ff8cc0e3          	blt	x25,x24,395c <I_blt_cg_cr_rs1_rs2_edges_offset_rs1val_0x7fffffff_rs2val_0x80000000+0x24>
4: # done with test

# cr_rs1_rs2_edges_offset (Test source rs1 = 0x7fffffff rs2 = 0x80000001)
  RVTEST_TESTDATA_LOAD_INT(x23, x8) # load rs1: x8 = 0x7fffffff
    3980:	000ba403          	lw	x8,0(x23)
    3984:	004b8b93          	addi	x23,x23,4
  RVTEST_TESTDATA_LOAD_INT(x23, x9) # load rs2: x9 = 0x80000001
    3988:	000ba483          	lw	x9,0(x23)
    398c:	004b8b93          	addi	x23,x23,4

00003990 <I_blt_cg_cr_rs1_rs2_edges_offset_rs1val_0x7fffffff_rs2val_0x80000001>:
0: # destination for backwards branch that is never taken
I_blt_cg_cr_rs1_rs2_edges_offset_rs1val_0x7fffffff_rs2val_0x80000001:
  blt x8, x9, 3f # forward branch, if taken
    3990:	04944263          	blt	x8,x9,39d4 <I_blt_cg_cr_rs1_rs2_edges_offset_rs1val_0x7fffffff_rs2val_0x80000001+0x44>
1: # goes here if not taken
  blt x8, x9, 0b # backward branch, never taken
    3994:	fe944ee3          	blt	x8,x9,3990 <I_blt_cg_cr_rs1_rs2_edges_offset_rs1val_0x7fffffff_rs2val_0x80000001>
  # Check if x0 contains the expected result. x17 is the signature ptr, x5 is the link ptr, x4 is a temp reg.
  RVTEST_SIGUPD(x17, x5, x4, x0, I_blt_cg_cr_rs1_rs2_edges_offset_rs1val_0x7fffffff_rs2val_0x80000001, I_blt_cg_cr_rs1_rs2_edges_offset_rs1val_0x7fffffff_rs2val_0x80000001_str)
    3998:	0008a203          	lw	x4,0(x17)
    399c:	00020863          	beq	x4,x0,39ac <I_blt_cg_cr_rs1_rs2_edges_offset_rs1val_0x7fffffff_rs2val_0x80000001+0x1c>
    39a0:	6dc062ef          	jal	x5,a07c <failedtest_x5_x4>
    39a4:	00003990          	.word	0x00003990
    39a8:	0000f34c          	.word	0x0000f34c
    39ac:	00488893          	addi	x17,x17,4
  j 4f # done with test
    39b0:	0280006f          	jal	x0,39d8 <I_blt_cg_cr_rs1_rs2_edges_offset_rs1val_0x7fffffff_rs2val_0x80000001+0x48>
2: # goes here during backward branch if taken
  LI(x8, 1)
    39b4:	00100413          	addi	x8,x0,1
  # Check if x8 contains the expected result. x17 is the signature ptr, x5 is the link ptr, x4 is a temp reg.
  RVTEST_SIGUPD(x17, x5, x4, x8, I_blt_cg_cr_rs1_rs2_edges_offset_rs1val_0x7fffffff_rs2val_0x80000001, I_blt_cg_cr_rs1_rs2_edges_offset_rs1val_0x7fffffff_rs2val_0x80000001_str) # signature 1 for taken
    39b8:	0008a203          	lw	x4,0(x17)
    39bc:	00820863          	beq	x4,x8,39cc <I_blt_cg_cr_rs1_rs2_edges_offset_rs1val_0x7fffffff_rs2val_0x80000001+0x3c>
    39c0:	6bc062ef          	jal	x5,a07c <failedtest_x5_x4>
    39c4:	00003990          	.word	0x00003990
    39c8:	0000f34c          	.word	0x0000f34c
    39cc:	00488893          	addi	x17,x17,4
  j 4f # done with test
    39d0:	0080006f          	jal	x0,39d8 <I_blt_cg_cr_rs1_rs2_edges_offset_rs1val_0x7fffffff_rs2val_0x80000001+0x48>
3: # goes here during forward branch if taken
  blt x8, x9, 2b # backward branch, definitely taken
    39d4:	fe9440e3          	blt	x8,x9,39b4 <I_blt_cg_cr_rs1_rs2_edges_offset_rs1val_0x7fffffff_rs2val_0x80000001+0x24>
4: # done with test

# cr_rs1_rs2_edges_offset (Test source rs1 = 0x7fffffff rs2 = 0x7fffffff)
  RVTEST_TESTDATA_LOAD_INT(x23, x11) # load rs1: x11 = 0x7fffffff
    39d8:	000ba583          	lw	x11,0(x23)
    39dc:	004b8b93          	addi	x23,x23,4
  RVTEST_TESTDATA_LOAD_INT(x23, x24) # load rs2: x24 = 0x7fffffff
    39e0:	000bac03          	lw	x24,0(x23)
    39e4:	004b8b93          	addi	x23,x23,4

000039e8 <I_blt_cg_cr_rs1_rs2_edges_offset_rs1val_0x7fffffff_rs2val_0x7fffffff>:
0: # destination for backwards branch that is never taken
I_blt_cg_cr_rs1_rs2_edges_offset_rs1val_0x7fffffff_rs2val_0x7fffffff:
  blt x11, x24, 3f # forward branch, if taken
    39e8:	0585c263          	blt	x11,x24,3a2c <I_blt_cg_cr_rs1_rs2_edges_offset_rs1val_0x7fffffff_rs2val_0x7fffffff+0x44>
1: # goes here if not taken
  blt x11, x24, 0b # backward branch, never taken
    39ec:	ff85cee3          	blt	x11,x24,39e8 <I_blt_cg_cr_rs1_rs2_edges_offset_rs1val_0x7fffffff_rs2val_0x7fffffff>
  # Check if x0 contains the expected result. x17 is the signature ptr, x5 is the link ptr, x4 is a temp reg.
  RVTEST_SIGUPD(x17, x5, x4, x0, I_blt_cg_cr_rs1_rs2_edges_offset_rs1val_0x7fffffff_rs2val_0x7fffffff, I_blt_cg_cr_rs1_rs2_edges_offset_rs1val_0x7fffffff_rs2val_0x7fffffff_str)
    39f0:	0008a203          	lw	x4,0(x17)
    39f4:	00020863          	beq	x4,x0,3a04 <I_blt_cg_cr_rs1_rs2_edges_offset_rs1val_0x7fffffff_rs2val_0x7fffffff+0x1c>
    39f8:	684062ef          	jal	x5,a07c <failedtest_x5_x4>
    39fc:	000039e8          	.word	0x000039e8
    3a00:	0000f3ae          	.word	0x0000f3ae
    3a04:	00488893          	addi	x17,x17,4
  j 4f # done with test
    3a08:	0280006f          	jal	x0,3a30 <I_blt_cg_cr_rs1_rs2_edges_offset_rs1val_0x7fffffff_rs2val_0x7fffffff+0x48>
2: # goes here during backward branch if taken
  LI(x11, 1)
    3a0c:	00100593          	addi	x11,x0,1
  # Check if x11 contains the expected result. x17 is the signature ptr, x5 is the link ptr, x4 is a temp reg.
  RVTEST_SIGUPD(x17, x5, x4, x11, I_blt_cg_cr_rs1_rs2_edges_offset_rs1val_0x7fffffff_rs2val_0x7fffffff, I_blt_cg_cr_rs1_rs2_edges_offset_rs1val_0x7fffffff_rs2val_0x7fffffff_str) # signature 1 for taken
    3a10:	0008a203          	lw	x4,0(x17)
    3a14:	00b20863          	beq	x4,x11,3a24 <I_blt_cg_cr_rs1_rs2_edges_offset_rs1val_0x7fffffff_rs2val_0x7fffffff+0x3c>
    3a18:	664062ef          	jal	x5,a07c <failedtest_x5_x4>
    3a1c:	000039e8          	.word	0x000039e8
    3a20:	0000f3ae          	.word	0x0000f3ae
    3a24:	00488893          	addi	x17,x17,4
  j 4f # done with test
    3a28:	0080006f          	jal	x0,3a30 <I_blt_cg_cr_rs1_rs2_edges_offset_rs1val_0x7fffffff_rs2val_0x7fffffff+0x48>
3: # goes here during forward branch if taken
  blt x11, x24, 2b # backward branch, definitely taken
    3a2c:	ff85c0e3          	blt	x11,x24,3a0c <I_blt_cg_cr_rs1_rs2_edges_offset_rs1val_0x7fffffff_rs2val_0x7fffffff+0x24>
4: # done with test

# cr_rs1_rs2_edges_offset (Test source rs1 = 0x7fffffff rs2 = 0x7ffffffe)
  RVTEST_TESTDATA_LOAD_INT(x23, x31) # load rs1: x31 = 0x7fffffff
    3a30:	000baf83          	lw	x31,0(x23)
    3a34:	004b8b93          	addi	x23,x23,4
  RVTEST_TESTDATA_LOAD_INT(x23, x7) # load rs2: x7 = 0x7ffffffe
    3a38:	000ba383          	lw	x7,0(x23)
    3a3c:	004b8b93          	addi	x23,x23,4

00003a40 <I_blt_cg_cr_rs1_rs2_edges_offset_rs1val_0x7fffffff_rs2val_0x7ffffffe>:
0: # destination for backwards branch that is never taken
I_blt_cg_cr_rs1_rs2_edges_offset_rs1val_0x7fffffff_rs2val_0x7ffffffe:
  blt x31, x7, 3f # forward branch, if taken
    3a40:	047fc263          	blt	x31,x7,3a84 <I_blt_cg_cr_rs1_rs2_edges_offset_rs1val_0x7fffffff_rs2val_0x7ffffffe+0x44>
1: # goes here if not taken
  blt x31, x7, 0b # backward branch, never taken
    3a44:	fe7fcee3          	blt	x31,x7,3a40 <I_blt_cg_cr_rs1_rs2_edges_offset_rs1val_0x7fffffff_rs2val_0x7ffffffe>
  # Check if x0 contains the expected result. x17 is the signature ptr, x5 is the link ptr, x4 is a temp reg.
  RVTEST_SIGUPD(x17, x5, x4, x0, I_blt_cg_cr_rs1_rs2_edges_offset_rs1val_0x7fffffff_rs2val_0x7ffffffe, I_blt_cg_cr_rs1_rs2_edges_offset_rs1val_0x7fffffff_rs2val_0x7ffffffe_str)
    3a48:	0008a203          	lw	x4,0(x17)
    3a4c:	00020863          	beq	x4,x0,3a5c <I_blt_cg_cr_rs1_rs2_edges_offset_rs1val_0x7fffffff_rs2val_0x7ffffffe+0x1c>
    3a50:	62c062ef          	jal	x5,a07c <failedtest_x5_x4>
    3a54:	00003a40          	.word	0x00003a40
    3a58:	0000f410          	.word	0x0000f410
    3a5c:	00488893          	addi	x17,x17,4
  j 4f # done with test
    3a60:	0280006f          	jal	x0,3a88 <I_blt_cg_cr_rs1_rs2_edges_offset_rs1val_0x7fffffff_rs2val_0x7ffffffe+0x48>
2: # goes here during backward branch if taken
  LI(x31, 1)
    3a64:	00100f93          	addi	x31,x0,1
  # Check if x31 contains the expected result. x17 is the signature ptr, x5 is the link ptr, x4 is a temp reg.
  RVTEST_SIGUPD(x17, x5, x4, x31, I_blt_cg_cr_rs1_rs2_edges_offset_rs1val_0x7fffffff_rs2val_0x7ffffffe, I_blt_cg_cr_rs1_rs2_edges_offset_rs1val_0x7fffffff_rs2val_0x7ffffffe_str) # signature 1 for taken
    3a68:	0008a203          	lw	x4,0(x17)
    3a6c:	01f20863          	beq	x4,x31,3a7c <I_blt_cg_cr_rs1_rs2_edges_offset_rs1val_0x7fffffff_rs2val_0x7ffffffe+0x3c>
    3a70:	60c062ef          	jal	x5,a07c <failedtest_x5_x4>
    3a74:	00003a40          	.word	0x00003a40
    3a78:	0000f410          	.word	0x0000f410
    3a7c:	00488893          	addi	x17,x17,4
  j 4f # done with test
    3a80:	0080006f          	jal	x0,3a88 <I_blt_cg_cr_rs1_rs2_edges_offset_rs1val_0x7fffffff_rs2val_0x7ffffffe+0x48>
3: # goes here during forward branch if taken
  blt x31, x7, 2b # backward branch, definitely taken
    3a84:	fe7fc0e3          	blt	x31,x7,3a64 <I_blt_cg_cr_rs1_rs2_edges_offset_rs1val_0x7fffffff_rs2val_0x7ffffffe+0x24>
4: # done with test

# cr_rs1_rs2_edges_offset (Test source rs1 = 0x7fffffff rs2 = 0xffffffff)
  RVTEST_TESTDATA_LOAD_INT(x23, x8) # load rs1: x8 = 0x7fffffff
    3a88:	000ba403          	lw	x8,0(x23)
    3a8c:	004b8b93          	addi	x23,x23,4
  RVTEST_TESTDATA_LOAD_INT(x23, x11) # load rs2: x11 = 0xffffffff
    3a90:	000ba583          	lw	x11,0(x23)
    3a94:	004b8b93          	addi	x23,x23,4

00003a98 <I_blt_cg_cr_rs1_rs2_edges_offset_rs1val_0x7fffffff_rs2val_0xffffffff>:
0: # destination for backwards branch that is never taken
I_blt_cg_cr_rs1_rs2_edges_offset_rs1val_0x7fffffff_rs2val_0xffffffff:
  blt x8, x11, 3f # forward branch, if taken
    3a98:	04b44263          	blt	x8,x11,3adc <I_blt_cg_cr_rs1_rs2_edges_offset_rs1val_0x7fffffff_rs2val_0xffffffff+0x44>
1: # goes here if not taken
  blt x8, x11, 0b # backward branch, never taken
    3a9c:	feb44ee3          	blt	x8,x11,3a98 <I_blt_cg_cr_rs1_rs2_edges_offset_rs1val_0x7fffffff_rs2val_0xffffffff>
  # Check if x0 contains the expected result. x17 is the signature ptr, x5 is the link ptr, x4 is a temp reg.
  RVTEST_SIGUPD(x17, x5, x4, x0, I_blt_cg_cr_rs1_rs2_edges_offset_rs1val_0x7fffffff_rs2val_0xffffffff, I_blt_cg_cr_rs1_rs2_edges_offset_rs1val_0x7fffffff_rs2val_0xffffffff_str)
    3aa0:	0008a203          	lw	x4,0(x17)
    3aa4:	00020863          	beq	x4,x0,3ab4 <I_blt_cg_cr_rs1_rs2_edges_offset_rs1val_0x7fffffff_rs2val_0xffffffff+0x1c>
    3aa8:	5d4062ef          	jal	x5,a07c <failedtest_x5_x4>
    3aac:	00003a98          	.word	0x00003a98
    3ab0:	0000f472          	.word	0x0000f472
    3ab4:	00488893          	addi	x17,x17,4
  j 4f # done with test
    3ab8:	0280006f          	jal	x0,3ae0 <I_blt_cg_cr_rs1_rs2_edges_offset_rs1val_0x7fffffff_rs2val_0xffffffff+0x48>
2: # goes here during backward branch if taken
  LI(x8, 1)
    3abc:	00100413          	addi	x8,x0,1
  # Check if x8 contains the expected result. x17 is the signature ptr, x5 is the link ptr, x4 is a temp reg.
  RVTEST_SIGUPD(x17, x5, x4, x8, I_blt_cg_cr_rs1_rs2_edges_offset_rs1val_0x7fffffff_rs2val_0xffffffff, I_blt_cg_cr_rs1_rs2_edges_offset_rs1val_0x7fffffff_rs2val_0xffffffff_str) # signature 1 for taken
    3ac0:	0008a203          	lw	x4,0(x17)
    3ac4:	00820863          	beq	x4,x8,3ad4 <I_blt_cg_cr_rs1_rs2_edges_offset_rs1val_0x7fffffff_rs2val_0xffffffff+0x3c>
    3ac8:	5b4062ef          	jal	x5,a07c <failedtest_x5_x4>
    3acc:	00003a98          	.word	0x00003a98
    3ad0:	0000f472          	.word	0x0000f472
    3ad4:	00488893          	addi	x17,x17,4
  j 4f # done with test
    3ad8:	0080006f          	jal	x0,3ae0 <I_blt_cg_cr_rs1_rs2_edges_offset_rs1val_0x7fffffff_rs2val_0xffffffff+0x48>
3: # goes here during forward branch if taken
  blt x8, x11, 2b # backward branch, definitely taken
    3adc:	feb440e3          	blt	x8,x11,3abc <I_blt_cg_cr_rs1_rs2_edges_offset_rs1val_0x7fffffff_rs2val_0xffffffff+0x24>
4: # done with test

# cr_rs1_rs2_edges_offset (Test source rs1 = 0x7fffffff rs2 = 0xfffffffe)
  RVTEST_TESTDATA_LOAD_INT(x23, x22) # load rs1: x22 = 0x7fffffff
    3ae0:	000bab03          	lw	x22,0(x23)
    3ae4:	004b8b93          	addi	x23,x23,4
  RVTEST_TESTDATA_LOAD_INT(x23, x15) # load rs2: x15 = 0xfffffffe
    3ae8:	000ba783          	lw	x15,0(x23)
    3aec:	004b8b93          	addi	x23,x23,4

00003af0 <I_blt_cg_cr_rs1_rs2_edges_offset_rs1val_0x7fffffff_rs2val_0xfffffffe>:
0: # destination for backwards branch that is never taken
I_blt_cg_cr_rs1_rs2_edges_offset_rs1val_0x7fffffff_rs2val_0xfffffffe:
  blt x22, x15, 3f # forward branch, if taken
    3af0:	04fb4263          	blt	x22,x15,3b34 <I_blt_cg_cr_rs1_rs2_edges_offset_rs1val_0x7fffffff_rs2val_0xfffffffe+0x44>
1: # goes here if not taken
  blt x22, x15, 0b # backward branch, never taken
    3af4:	fefb4ee3          	blt	x22,x15,3af0 <I_blt_cg_cr_rs1_rs2_edges_offset_rs1val_0x7fffffff_rs2val_0xfffffffe>
  # Check if x0 contains the expected result. x17 is the signature ptr, x5 is the link ptr, x4 is a temp reg.
  RVTEST_SIGUPD(x17, x5, x4, x0, I_blt_cg_cr_rs1_rs2_edges_offset_rs1val_0x7fffffff_rs2val_0xfffffffe, I_blt_cg_cr_rs1_rs2_edges_offset_rs1val_0x7fffffff_rs2val_0xfffffffe_str)
    3af8:	0008a203          	lw	x4,0(x17)
    3afc:	00020863          	beq	x4,x0,3b0c <I_blt_cg_cr_rs1_rs2_edges_offset_rs1val_0x7fffffff_rs2val_0xfffffffe+0x1c>
    3b00:	57c062ef          	jal	x5,a07c <failedtest_x5_x4>
    3b04:	00003af0          	.word	0x00003af0
    3b08:	0000f4d4          	.word	0x0000f4d4
    3b0c:	00488893          	addi	x17,x17,4
  j 4f # done with test
    3b10:	0280006f          	jal	x0,3b38 <I_blt_cg_cr_rs1_rs2_edges_offset_rs1val_0x7fffffff_rs2val_0xfffffffe+0x48>
2: # goes here during backward branch if taken
  LI(x22, 1)
    3b14:	00100b13          	addi	x22,x0,1
  # Check if x22 contains the expected result. x17 is the signature ptr, x5 is the link ptr, x4 is a temp reg.
  RVTEST_SIGUPD(x17, x5, x4, x22, I_blt_cg_cr_rs1_rs2_edges_offset_rs1val_0x7fffffff_rs2val_0xfffffffe, I_blt_cg_cr_rs1_rs2_edges_offset_rs1val_0x7fffffff_rs2val_0xfffffffe_str) # signature 1 for taken
    3b18:	0008a203          	lw	x4,0(x17)
    3b1c:	01620863          	beq	x4,x22,3b2c <I_blt_cg_cr_rs1_rs2_edges_offset_rs1val_0x7fffffff_rs2val_0xfffffffe+0x3c>
    3b20:	55c062ef          	jal	x5,a07c <failedtest_x5_x4>
    3b24:	00003af0          	.word	0x00003af0
    3b28:	0000f4d4          	.word	0x0000f4d4
    3b2c:	00488893          	addi	x17,x17,4
  j 4f # done with test
    3b30:	0080006f          	jal	x0,3b38 <I_blt_cg_cr_rs1_rs2_edges_offset_rs1val_0x7fffffff_rs2val_0xfffffffe+0x48>
3: # goes here during forward branch if taken
  blt x22, x15, 2b # backward branch, definitely taken
    3b34:	fefb40e3          	blt	x22,x15,3b14 <I_blt_cg_cr_rs1_rs2_edges_offset_rs1val_0x7fffffff_rs2val_0xfffffffe+0x24>
4: # done with test

# cr_rs1_rs2_edges_offset (Test source rs1 = 0x7fffffff rs2 = 0x5bbc8872)
  RVTEST_TESTDATA_LOAD_INT(x23, x9) # load rs1: x9 = 0x7fffffff
    3b38:	000ba483          	lw	x9,0(x23)
    3b3c:	004b8b93          	addi	x23,x23,4
  RVTEST_TESTDATA_LOAD_INT(x23, x1) # load rs2: x1 = 0x5bbc8872
    3b40:	000ba083          	lw	x1,0(x23)
    3b44:	004b8b93          	addi	x23,x23,4

00003b48 <I_blt_cg_cr_rs1_rs2_edges_offset_rs1val_0x7fffffff_rs2val_0x5bbc8872>:
0: # destination for backwards branch that is never taken
I_blt_cg_cr_rs1_rs2_edges_offset_rs1val_0x7fffffff_rs2val_0x5bbc8872:
  blt x9, x1, 3f # forward branch, if taken
    3b48:	0414c263          	blt	x9,x1,3b8c <I_blt_cg_cr_rs1_rs2_edges_offset_rs1val_0x7fffffff_rs2val_0x5bbc8872+0x44>
1: # goes here if not taken
  blt x9, x1, 0b # backward branch, never taken
    3b4c:	fe14cee3          	blt	x9,x1,3b48 <I_blt_cg_cr_rs1_rs2_edges_offset_rs1val_0x7fffffff_rs2val_0x5bbc8872>
  # Check if x0 contains the expected result. x17 is the signature ptr, x5 is the link ptr, x4 is a temp reg.
  RVTEST_SIGUPD(x17, x5, x4, x0, I_blt_cg_cr_rs1_rs2_edges_offset_rs1val_0x7fffffff_rs2val_0x5bbc8872, I_blt_cg_cr_rs1_rs2_edges_offset_rs1val_0x7fffffff_rs2val_0x5bbc8872_str)
    3b50:	0008a203          	lw	x4,0(x17)
    3b54:	00020863          	beq	x4,x0,3b64 <I_blt_cg_cr_rs1_rs2_edges_offset_rs1val_0x7fffffff_rs2val_0x5bbc8872+0x1c>
    3b58:	524062ef          	jal	x5,a07c <failedtest_x5_x4>
    3b5c:	00003b48          	.word	0x00003b48
    3b60:	0000f536          	.word	0x0000f536
    3b64:	00488893          	addi	x17,x17,4
  j 4f # done with test
    3b68:	0280006f          	jal	x0,3b90 <I_blt_cg_cr_rs1_rs2_edges_offset_rs1val_0x7fffffff_rs2val_0x5bbc8872+0x48>
2: # goes here during backward branch if taken
  LI(x9, 1)
    3b6c:	00100493          	addi	x9,x0,1
  # Check if x9 contains the expected result. x17 is the signature ptr, x5 is the link ptr, x4 is a temp reg.
  RVTEST_SIGUPD(x17, x5, x4, x9, I_blt_cg_cr_rs1_rs2_edges_offset_rs1val_0x7fffffff_rs2val_0x5bbc8872, I_blt_cg_cr_rs1_rs2_edges_offset_rs1val_0x7fffffff_rs2val_0x5bbc8872_str) # signature 1 for taken
    3b70:	0008a203          	lw	x4,0(x17)
    3b74:	00920863          	beq	x4,x9,3b84 <I_blt_cg_cr_rs1_rs2_edges_offset_rs1val_0x7fffffff_rs2val_0x5bbc8872+0x3c>
    3b78:	504062ef          	jal	x5,a07c <failedtest_x5_x4>
    3b7c:	00003b48          	.word	0x00003b48
    3b80:	0000f536          	.word	0x0000f536
    3b84:	00488893          	addi	x17,x17,4
  j 4f # done with test
    3b88:	0080006f          	jal	x0,3b90 <I_blt_cg_cr_rs1_rs2_edges_offset_rs1val_0x7fffffff_rs2val_0x5bbc8872+0x48>
3: # goes here during forward branch if taken
  blt x9, x1, 2b # backward branch, definitely taken
    3b8c:	fe14c0e3          	blt	x9,x1,3b6c <I_blt_cg_cr_rs1_rs2_edges_offset_rs1val_0x7fffffff_rs2val_0x5bbc8872+0x24>
4: # done with test

# cr_rs1_rs2_edges_offset (Test source rs1 = 0x7fffffff rs2 = 0xaaaaaaaa)
  RVTEST_TESTDATA_LOAD_INT(x23, x30) # load rs1: x30 = 0x7fffffff
    3b90:	000baf03          	lw	x30,0(x23)
    3b94:	004b8b93          	addi	x23,x23,4
  RVTEST_TESTDATA_LOAD_INT(x23, x25) # load rs2: x25 = 0xaaaaaaaa
    3b98:	000bac83          	lw	x25,0(x23)
    3b9c:	004b8b93          	addi	x23,x23,4

00003ba0 <I_blt_cg_cr_rs1_rs2_edges_offset_rs1val_0x7fffffff_rs2val_0xaaaaaaaa>:
0: # destination for backwards branch that is never taken
I_blt_cg_cr_rs1_rs2_edges_offset_rs1val_0x7fffffff_rs2val_0xaaaaaaaa:
  blt x30, x25, 3f # forward branch, if taken
    3ba0:	059f4263          	blt	x30,x25,3be4 <I_blt_cg_cr_rs1_rs2_edges_offset_rs1val_0x7fffffff_rs2val_0xaaaaaaaa+0x44>
1: # goes here if not taken
  blt x30, x25, 0b # backward branch, never taken
    3ba4:	ff9f4ee3          	blt	x30,x25,3ba0 <I_blt_cg_cr_rs1_rs2_edges_offset_rs1val_0x7fffffff_rs2val_0xaaaaaaaa>
  # Check if x0 contains the expected result. x17 is the signature ptr, x5 is the link ptr, x4 is a temp reg.
  RVTEST_SIGUPD(x17, x5, x4, x0, I_blt_cg_cr_rs1_rs2_edges_offset_rs1val_0x7fffffff_rs2val_0xaaaaaaaa, I_blt_cg_cr_rs1_rs2_edges_offset_rs1val_0x7fffffff_rs2val_0xaaaaaaaa_str)
    3ba8:	0008a203          	lw	x4,0(x17)
    3bac:	00020863          	beq	x4,x0,3bbc <I_blt_cg_cr_rs1_rs2_edges_offset_rs1val_0x7fffffff_rs2val_0xaaaaaaaa+0x1c>
    3bb0:	4cc062ef          	jal	x5,a07c <failedtest_x5_x4>
    3bb4:	00003ba0          	.word	0x00003ba0
    3bb8:	0000f598          	.word	0x0000f598
    3bbc:	00488893          	addi	x17,x17,4
  j 4f # done with test
    3bc0:	0280006f          	jal	x0,3be8 <I_blt_cg_cr_rs1_rs2_edges_offset_rs1val_0x7fffffff_rs2val_0xaaaaaaaa+0x48>
2: # goes here during backward branch if taken
  LI(x30, 1)
    3bc4:	00100f13          	addi	x30,x0,1
  # Check if x30 contains the expected result. x17 is the signature ptr, x5 is the link ptr, x4 is a temp reg.
  RVTEST_SIGUPD(x17, x5, x4, x30, I_blt_cg_cr_rs1_rs2_edges_offset_rs1val_0x7fffffff_rs2val_0xaaaaaaaa, I_blt_cg_cr_rs1_rs2_edges_offset_rs1val_0x7fffffff_rs2val_0xaaaaaaaa_str) # signature 1 for taken
    3bc8:	0008a203          	lw	x4,0(x17)
    3bcc:	01e20863          	beq	x4,x30,3bdc <I_blt_cg_cr_rs1_rs2_edges_offset_rs1val_0x7fffffff_rs2val_0xaaaaaaaa+0x3c>
    3bd0:	4ac062ef          	jal	x5,a07c <failedtest_x5_x4>
    3bd4:	00003ba0          	.word	0x00003ba0
    3bd8:	0000f598          	.word	0x0000f598
    3bdc:	00488893          	addi	x17,x17,4
  j 4f # done with test
    3be0:	0080006f          	jal	x0,3be8 <I_blt_cg_cr_rs1_rs2_edges_offset_rs1val_0x7fffffff_rs2val_0xaaaaaaaa+0x48>
3: # goes here during forward branch if taken
  blt x30, x25, 2b # backward branch, definitely taken
    3be4:	ff9f40e3          	blt	x30,x25,3bc4 <I_blt_cg_cr_rs1_rs2_edges_offset_rs1val_0x7fffffff_rs2val_0xaaaaaaaa+0x24>
4: # done with test

# cr_rs1_rs2_edges_offset (Test source rs1 = 0x7fffffff rs2 = 0x55555555)
  RVTEST_TESTDATA_LOAD_INT(x23, x10) # load rs1: x10 = 0x7fffffff
    3be8:	000ba503          	lw	x10,0(x23)
    3bec:	004b8b93          	addi	x23,x23,4
  RVTEST_TESTDATA_LOAD_INT(x23, x26) # load rs2: x26 = 0x55555555
    3bf0:	000bad03          	lw	x26,0(x23)
    3bf4:	004b8b93          	addi	x23,x23,4

00003bf8 <I_blt_cg_cr_rs1_rs2_edges_offset_rs1val_0x7fffffff_rs2val_0x55555555>:
0: # destination for backwards branch that is never taken
I_blt_cg_cr_rs1_rs2_edges_offset_rs1val_0x7fffffff_rs2val_0x55555555:
  blt x10, x26, 3f # forward branch, if taken
    3bf8:	05a54263          	blt	x10,x26,3c3c <I_blt_cg_cr_rs1_rs2_edges_offset_rs1val_0x7fffffff_rs2val_0x55555555+0x44>
1: # goes here if not taken
  blt x10, x26, 0b # backward branch, never taken
    3bfc:	ffa54ee3          	blt	x10,x26,3bf8 <I_blt_cg_cr_rs1_rs2_edges_offset_rs1val_0x7fffffff_rs2val_0x55555555>
  # Check if x0 contains the expected result. x17 is the signature ptr, x5 is the link ptr, x4 is a temp reg.
  RVTEST_SIGUPD(x17, x5, x4, x0, I_blt_cg_cr_rs1_rs2_edges_offset_rs1val_0x7fffffff_rs2val_0x55555555, I_blt_cg_cr_rs1_rs2_edges_offset_rs1val_0x7fffffff_rs2val_0x55555555_str)
    3c00:	0008a203          	lw	x4,0(x17)
    3c04:	00020863          	beq	x4,x0,3c14 <I_blt_cg_cr_rs1_rs2_edges_offset_rs1val_0x7fffffff_rs2val_0x55555555+0x1c>
    3c08:	474062ef          	jal	x5,a07c <failedtest_x5_x4>
    3c0c:	00003bf8          	.word	0x00003bf8
    3c10:	0000f5fa          	.word	0x0000f5fa
    3c14:	00488893          	addi	x17,x17,4
  j 4f # done with test
    3c18:	0280006f          	jal	x0,3c40 <I_blt_cg_cr_rs1_rs2_edges_offset_rs1val_0x7fffffff_rs2val_0x55555555+0x48>
2: # goes here during backward branch if taken
  LI(x10, 1)
    3c1c:	00100513          	addi	x10,x0,1
  # Check if x10 contains the expected result. x17 is the signature ptr, x5 is the link ptr, x4 is a temp reg.
  RVTEST_SIGUPD(x17, x5, x4, x10, I_blt_cg_cr_rs1_rs2_edges_offset_rs1val_0x7fffffff_rs2val_0x55555555, I_blt_cg_cr_rs1_rs2_edges_offset_rs1val_0x7fffffff_rs2val_0x55555555_str) # signature 1 for taken
    3c20:	0008a203          	lw	x4,0(x17)
    3c24:	00a20863          	beq	x4,x10,3c34 <I_blt_cg_cr_rs1_rs2_edges_offset_rs1val_0x7fffffff_rs2val_0x55555555+0x3c>
    3c28:	454062ef          	jal	x5,a07c <failedtest_x5_x4>
    3c2c:	00003bf8          	.word	0x00003bf8
    3c30:	0000f5fa          	.word	0x0000f5fa
    3c34:	00488893          	addi	x17,x17,4
  j 4f # done with test
    3c38:	0080006f          	jal	x0,3c40 <I_blt_cg_cr_rs1_rs2_edges_offset_rs1val_0x7fffffff_rs2val_0x55555555+0x48>
3: # goes here during forward branch if taken
  blt x10, x26, 2b # backward branch, definitely taken
    3c3c:	ffa540e3          	blt	x10,x26,3c1c <I_blt_cg_cr_rs1_rs2_edges_offset_rs1val_0x7fffffff_rs2val_0x55555555+0x24>
4: # done with test

# cr_rs1_rs2_edges_offset (Test source rs1 = 0x7ffffffe rs2 = 0x00000000)
  RVTEST_TESTDATA_LOAD_INT(x23, x30) # load rs1: x30 = 0x7ffffffe
    3c40:	000baf03          	lw	x30,0(x23)
    3c44:	004b8b93          	addi	x23,x23,4
  RVTEST_TESTDATA_LOAD_INT(x23, x18) # load rs2: x18 = 0x00000000
    3c48:	000ba903          	lw	x18,0(x23)
    3c4c:	004b8b93          	addi	x23,x23,4

00003c50 <I_blt_cg_cr_rs1_rs2_edges_offset_rs1val_0x7ffffffe_rs2val_0x0>:
0: # destination for backwards branch that is never taken
I_blt_cg_cr_rs1_rs2_edges_offset_rs1val_0x7ffffffe_rs2val_0x0:
  blt x30, x18, 3f # forward branch, if taken
    3c50:	052f4263          	blt	x30,x18,3c94 <I_blt_cg_cr_rs1_rs2_edges_offset_rs1val_0x7ffffffe_rs2val_0x0+0x44>
1: # goes here if not taken
  blt x30, x18, 0b # backward branch, never taken
    3c54:	ff2f4ee3          	blt	x30,x18,3c50 <I_blt_cg_cr_rs1_rs2_edges_offset_rs1val_0x7ffffffe_rs2val_0x0>
  # Check if x0 contains the expected result. x17 is the signature ptr, x5 is the link ptr, x4 is a temp reg.
  RVTEST_SIGUPD(x17, x5, x4, x0, I_blt_cg_cr_rs1_rs2_edges_offset_rs1val_0x7ffffffe_rs2val_0x0, I_blt_cg_cr_rs1_rs2_edges_offset_rs1val_0x7ffffffe_rs2val_0x0_str)
    3c58:	0008a203          	lw	x4,0(x17)
    3c5c:	00020863          	beq	x4,x0,3c6c <I_blt_cg_cr_rs1_rs2_edges_offset_rs1val_0x7ffffffe_rs2val_0x0+0x1c>
    3c60:	41c062ef          	jal	x5,a07c <failedtest_x5_x4>
    3c64:	00003c50          	.word	0x00003c50
    3c68:	0000f65c          	.word	0x0000f65c
    3c6c:	00488893          	addi	x17,x17,4
  j 4f # done with test
    3c70:	0280006f          	jal	x0,3c98 <I_blt_cg_cr_rs1_rs2_edges_offset_rs1val_0x7ffffffe_rs2val_0x0+0x48>
2: # goes here during backward branch if taken
  LI(x30, 1)
    3c74:	00100f13          	addi	x30,x0,1
  # Check if x30 contains the expected result. x17 is the signature ptr, x5 is the link ptr, x4 is a temp reg.
  RVTEST_SIGUPD(x17, x5, x4, x30, I_blt_cg_cr_rs1_rs2_edges_offset_rs1val_0x7ffffffe_rs2val_0x0, I_blt_cg_cr_rs1_rs2_edges_offset_rs1val_0x7ffffffe_rs2val_0x0_str) # signature 1 for taken
    3c78:	0008a203          	lw	x4,0(x17)
    3c7c:	01e20863          	beq	x4,x30,3c8c <I_blt_cg_cr_rs1_rs2_edges_offset_rs1val_0x7ffffffe_rs2val_0x0+0x3c>
    3c80:	3fc062ef          	jal	x5,a07c <failedtest_x5_x4>
    3c84:	00003c50          	.word	0x00003c50
    3c88:	0000f65c          	.word	0x0000f65c
    3c8c:	00488893          	addi	x17,x17,4
  j 4f # done with test
    3c90:	0080006f          	jal	x0,3c98 <I_blt_cg_cr_rs1_rs2_edges_offset_rs1val_0x7ffffffe_rs2val_0x0+0x48>
3: # goes here during forward branch if taken
  blt x30, x18, 2b # backward branch, definitely taken
    3c94:	ff2f40e3          	blt	x30,x18,3c74 <I_blt_cg_cr_rs1_rs2_edges_offset_rs1val_0x7ffffffe_rs2val_0x0+0x24>
4: # done with test

# cr_rs1_rs2_edges_offset (Test source rs1 = 0x7ffffffe rs2 = 0x00000001)
  RVTEST_TESTDATA_LOAD_INT(x23, x9) # load rs1: x9 = 0x7ffffffe
    3c98:	000ba483          	lw	x9,0(x23)
    3c9c:	004b8b93          	addi	x23,x23,4
  RVTEST_TESTDATA_LOAD_INT(x23, x28) # load rs2: x28 = 0x00000001
    3ca0:	000bae03          	lw	x28,0(x23)
    3ca4:	004b8b93          	addi	x23,x23,4

00003ca8 <I_blt_cg_cr_rs1_rs2_edges_offset_rs1val_0x7ffffffe_rs2val_0x1>:
0: # destination for backwards branch that is never taken
I_blt_cg_cr_rs1_rs2_edges_offset_rs1val_0x7ffffffe_rs2val_0x1:
  blt x9, x28, 3f # forward branch, if taken
    3ca8:	05c4c263          	blt	x9,x28,3cec <I_blt_cg_cr_rs1_rs2_edges_offset_rs1val_0x7ffffffe_rs2val_0x1+0x44>
1: # goes here if not taken
  blt x9, x28, 0b # backward branch, never taken
    3cac:	ffc4cee3          	blt	x9,x28,3ca8 <I_blt_cg_cr_rs1_rs2_edges_offset_rs1val_0x7ffffffe_rs2val_0x1>
  # Check if x0 contains the expected result. x17 is the signature ptr, x5 is the link ptr, x4 is a temp reg.
  RVTEST_SIGUPD(x17, x5, x4, x0, I_blt_cg_cr_rs1_rs2_edges_offset_rs1val_0x7ffffffe_rs2val_0x1, I_blt_cg_cr_rs1_rs2_edges_offset_rs1val_0x7ffffffe_rs2val_0x1_str)
    3cb0:	0008a203          	lw	x4,0(x17)
    3cb4:	00020863          	beq	x4,x0,3cc4 <I_blt_cg_cr_rs1_rs2_edges_offset_rs1val_0x7ffffffe_rs2val_0x1+0x1c>
    3cb8:	3c4062ef          	jal	x5,a07c <failedtest_x5_x4>
    3cbc:	00003ca8          	.word	0x00003ca8
    3cc0:	0000f6b7          	.word	0x0000f6b7
    3cc4:	00488893          	addi	x17,x17,4
  j 4f # done with test
    3cc8:	0280006f          	jal	x0,3cf0 <I_blt_cg_cr_rs1_rs2_edges_offset_rs1val_0x7ffffffe_rs2val_0x1+0x48>
2: # goes here during backward branch if taken
  LI(x9, 1)
    3ccc:	00100493          	addi	x9,x0,1
  # Check if x9 contains the expected result. x17 is the signature ptr, x5 is the link ptr, x4 is a temp reg.
  RVTEST_SIGUPD(x17, x5, x4, x9, I_blt_cg_cr_rs1_rs2_edges_offset_rs1val_0x7ffffffe_rs2val_0x1, I_blt_cg_cr_rs1_rs2_edges_offset_rs1val_0x7ffffffe_rs2val_0x1_str) # signature 1 for taken
    3cd0:	0008a203          	lw	x4,0(x17)
    3cd4:	00920863          	beq	x4,x9,3ce4 <I_blt_cg_cr_rs1_rs2_edges_offset_rs1val_0x7ffffffe_rs2val_0x1+0x3c>
    3cd8:	3a4062ef          	jal	x5,a07c <failedtest_x5_x4>
    3cdc:	00003ca8          	.word	0x00003ca8
    3ce0:	0000f6b7          	.word	0x0000f6b7
    3ce4:	00488893          	addi	x17,x17,4
  j 4f # done with test
    3ce8:	0080006f          	jal	x0,3cf0 <I_blt_cg_cr_rs1_rs2_edges_offset_rs1val_0x7ffffffe_rs2val_0x1+0x48>
3: # goes here during forward branch if taken
  blt x9, x28, 2b # backward branch, definitely taken
    3cec:	ffc4c0e3          	blt	x9,x28,3ccc <I_blt_cg_cr_rs1_rs2_edges_offset_rs1val_0x7ffffffe_rs2val_0x1+0x24>
4: # done with test

# cr_rs1_rs2_edges_offset (Test source rs1 = 0x7ffffffe rs2 = 0x00000002)
  RVTEST_TESTDATA_LOAD_INT(x23, x22) # load rs1: x22 = 0x7ffffffe
    3cf0:	000bab03          	lw	x22,0(x23)
    3cf4:	004b8b93          	addi	x23,x23,4
  RVTEST_TESTDATA_LOAD_INT(x23, x31) # load rs2: x31 = 0x00000002
    3cf8:	000baf83          	lw	x31,0(x23)
    3cfc:	004b8b93          	addi	x23,x23,4

00003d00 <I_blt_cg_cr_rs1_rs2_edges_offset_rs1val_0x7ffffffe_rs2val_0x2>:
0: # destination for backwards branch that is never taken
I_blt_cg_cr_rs1_rs2_edges_offset_rs1val_0x7ffffffe_rs2val_0x2:
  blt x22, x31, 3f # forward branch, if taken
    3d00:	05fb4263          	blt	x22,x31,3d44 <I_blt_cg_cr_rs1_rs2_edges_offset_rs1val_0x7ffffffe_rs2val_0x2+0x44>
1: # goes here if not taken
  blt x22, x31, 0b # backward branch, never taken
    3d04:	fffb4ee3          	blt	x22,x31,3d00 <I_blt_cg_cr_rs1_rs2_edges_offset_rs1val_0x7ffffffe_rs2val_0x2>
  # Check if x0 contains the expected result. x17 is the signature ptr, x5 is the link ptr, x4 is a temp reg.
  RVTEST_SIGUPD(x17, x5, x4, x0, I_blt_cg_cr_rs1_rs2_edges_offset_rs1val_0x7ffffffe_rs2val_0x2, I_blt_cg_cr_rs1_rs2_edges_offset_rs1val_0x7ffffffe_rs2val_0x2_str)
    3d08:	0008a203          	lw	x4,0(x17)
    3d0c:	00020863          	beq	x4,x0,3d1c <I_blt_cg_cr_rs1_rs2_edges_offset_rs1val_0x7ffffffe_rs2val_0x2+0x1c>
    3d10:	36c062ef          	jal	x5,a07c <failedtest_x5_x4>
    3d14:	00003d00          	.word	0x00003d00
    3d18:	0000f712          	.word	0x0000f712
    3d1c:	00488893          	addi	x17,x17,4
  j 4f # done with test
    3d20:	0280006f          	jal	x0,3d48 <I_blt_cg_cr_rs1_rs2_edges_offset_rs1val_0x7ffffffe_rs2val_0x2+0x48>
2: # goes here during backward branch if taken
  LI(x22, 1)
    3d24:	00100b13          	addi	x22,x0,1
  # Check if x22 contains the expected result. x17 is the signature ptr, x5 is the link ptr, x4 is a temp reg.
  RVTEST_SIGUPD(x17, x5, x4, x22, I_blt_cg_cr_rs1_rs2_edges_offset_rs1val_0x7ffffffe_rs2val_0x2, I_blt_cg_cr_rs1_rs2_edges_offset_rs1val_0x7ffffffe_rs2val_0x2_str) # signature 1 for taken
    3d28:	0008a203          	lw	x4,0(x17)
    3d2c:	01620863          	beq	x4,x22,3d3c <I_blt_cg_cr_rs1_rs2_edges_offset_rs1val_0x7ffffffe_rs2val_0x2+0x3c>
    3d30:	34c062ef          	jal	x5,a07c <failedtest_x5_x4>
    3d34:	00003d00          	.word	0x00003d00
    3d38:	0000f712          	.word	0x0000f712
    3d3c:	00488893          	addi	x17,x17,4
  j 4f # done with test
    3d40:	0080006f          	jal	x0,3d48 <I_blt_cg_cr_rs1_rs2_edges_offset_rs1val_0x7ffffffe_rs2val_0x2+0x48>
3: # goes here during forward branch if taken
  blt x22, x31, 2b # backward branch, definitely taken
    3d44:	fffb40e3          	blt	x22,x31,3d24 <I_blt_cg_cr_rs1_rs2_edges_offset_rs1val_0x7ffffffe_rs2val_0x2+0x24>
4: # done with test

# cr_rs1_rs2_edges_offset (Test source rs1 = 0x7ffffffe rs2 = 0x80000000)
  RVTEST_TESTDATA_LOAD_INT(x23, x27) # load rs1: x27 = 0x7ffffffe
    3d48:	000bad83          	lw	x27,0(x23)
    3d4c:	004b8b93          	addi	x23,x23,4
  RVTEST_TESTDATA_LOAD_INT(x23, x3) # load rs2: x3 = 0x80000000
    3d50:	000ba183          	lw	x3,0(x23)
    3d54:	004b8b93          	addi	x23,x23,4

00003d58 <I_blt_cg_cr_rs1_rs2_edges_offset_rs1val_0x7ffffffe_rs2val_0x80000000>:
0: # destination for backwards branch that is never taken
I_blt_cg_cr_rs1_rs2_edges_offset_rs1val_0x7ffffffe_rs2val_0x80000000:
  blt x27, x3, 3f # forward branch, if taken
    3d58:	043dc263          	blt	x27,x3,3d9c <I_blt_cg_cr_rs1_rs2_edges_offset_rs1val_0x7ffffffe_rs2val_0x80000000+0x44>
1: # goes here if not taken
  blt x27, x3, 0b # backward branch, never taken
    3d5c:	fe3dcee3          	blt	x27,x3,3d58 <I_blt_cg_cr_rs1_rs2_edges_offset_rs1val_0x7ffffffe_rs2val_0x80000000>
  # Check if x0 contains the expected result. x17 is the signature ptr, x5 is the link ptr, x4 is a temp reg.
  RVTEST_SIGUPD(x17, x5, x4, x0, I_blt_cg_cr_rs1_rs2_edges_offset_rs1val_0x7ffffffe_rs2val_0x80000000, I_blt_cg_cr_rs1_rs2_edges_offset_rs1val_0x7ffffffe_rs2val_0x80000000_str)
    3d60:	0008a203          	lw	x4,0(x17)
    3d64:	00020863          	beq	x4,x0,3d74 <I_blt_cg_cr_rs1_rs2_edges_offset_rs1val_0x7ffffffe_rs2val_0x80000000+0x1c>
    3d68:	314062ef          	jal	x5,a07c <failedtest_x5_x4>
    3d6c:	00003d58          	.word	0x00003d58
    3d70:	0000f76d          	.word	0x0000f76d
    3d74:	00488893          	addi	x17,x17,4
  j 4f # done with test
    3d78:	0280006f          	jal	x0,3da0 <I_blt_cg_cr_rs1_rs2_edges_offset_rs1val_0x7ffffffe_rs2val_0x80000000+0x48>
2: # goes here during backward branch if taken
  LI(x27, 1)
    3d7c:	00100d93          	addi	x27,x0,1
  # Check if x27 contains the expected result. x17 is the signature ptr, x5 is the link ptr, x4 is a temp reg.
  RVTEST_SIGUPD(x17, x5, x4, x27, I_blt_cg_cr_rs1_rs2_edges_offset_rs1val_0x7ffffffe_rs2val_0x80000000, I_blt_cg_cr_rs1_rs2_edges_offset_rs1val_0x7ffffffe_rs2val_0x80000000_str) # signature 1 for taken
    3d80:	0008a203          	lw	x4,0(x17)
    3d84:	01b20863          	beq	x4,x27,3d94 <I_blt_cg_cr_rs1_rs2_edges_offset_rs1val_0x7ffffffe_rs2val_0x80000000+0x3c>
    3d88:	2f4062ef          	jal	x5,a07c <failedtest_x5_x4>
    3d8c:	00003d58          	.word	0x00003d58
    3d90:	0000f76d          	.word	0x0000f76d
    3d94:	00488893          	addi	x17,x17,4
  j 4f # done with test
    3d98:	0080006f          	jal	x0,3da0 <I_blt_cg_cr_rs1_rs2_edges_offset_rs1val_0x7ffffffe_rs2val_0x80000000+0x48>
3: # goes here during forward branch if taken
  blt x27, x3, 2b # backward branch, definitely taken
    3d9c:	fe3dc0e3          	blt	x27,x3,3d7c <I_blt_cg_cr_rs1_rs2_edges_offset_rs1val_0x7ffffffe_rs2val_0x80000000+0x24>
4: # done with test

# cr_rs1_rs2_edges_offset (Test source rs1 = 0x7ffffffe rs2 = 0x80000001)
  RVTEST_TESTDATA_LOAD_INT(x23, x20) # load rs1: x20 = 0x7ffffffe
    3da0:	000baa03          	lw	x20,0(x23)
    3da4:	004b8b93          	addi	x23,x23,4
  RVTEST_TESTDATA_LOAD_INT(x23, x28) # load rs2: x28 = 0x80000001
    3da8:	000bae03          	lw	x28,0(x23)
    3dac:	004b8b93          	addi	x23,x23,4

00003db0 <I_blt_cg_cr_rs1_rs2_edges_offset_rs1val_0x7ffffffe_rs2val_0x80000001>:
0: # destination for backwards branch that is never taken
I_blt_cg_cr_rs1_rs2_edges_offset_rs1val_0x7ffffffe_rs2val_0x80000001:
  blt x20, x28, 3f # forward branch, if taken
    3db0:	05ca4263          	blt	x20,x28,3df4 <I_blt_cg_cr_rs1_rs2_edges_offset_rs1val_0x7ffffffe_rs2val_0x80000001+0x44>
1: # goes here if not taken
  blt x20, x28, 0b # backward branch, never taken
    3db4:	ffca4ee3          	blt	x20,x28,3db0 <I_blt_cg_cr_rs1_rs2_edges_offset_rs1val_0x7ffffffe_rs2val_0x80000001>
  # Check if x0 contains the expected result. x17 is the signature ptr, x5 is the link ptr, x4 is a temp reg.
  RVTEST_SIGUPD(x17, x5, x4, x0, I_blt_cg_cr_rs1_rs2_edges_offset_rs1val_0x7ffffffe_rs2val_0x80000001, I_blt_cg_cr_rs1_rs2_edges_offset_rs1val_0x7ffffffe_rs2val_0x80000001_str)
    3db8:	0008a203          	lw	x4,0(x17)
    3dbc:	00020863          	beq	x4,x0,3dcc <I_blt_cg_cr_rs1_rs2_edges_offset_rs1val_0x7ffffffe_rs2val_0x80000001+0x1c>
    3dc0:	2bc062ef          	jal	x5,a07c <failedtest_x5_x4>
    3dc4:	00003db0          	.word	0x00003db0
    3dc8:	0000f7cf          	.word	0x0000f7cf
    3dcc:	00488893          	addi	x17,x17,4
  j 4f # done with test
    3dd0:	0280006f          	jal	x0,3df8 <I_blt_cg_cr_rs1_rs2_edges_offset_rs1val_0x7ffffffe_rs2val_0x80000001+0x48>
2: # goes here during backward branch if taken
  LI(x20, 1)
    3dd4:	00100a13          	addi	x20,x0,1
  # Check if x20 contains the expected result. x17 is the signature ptr, x5 is the link ptr, x4 is a temp reg.
  RVTEST_SIGUPD(x17, x5, x4, x20, I_blt_cg_cr_rs1_rs2_edges_offset_rs1val_0x7ffffffe_rs2val_0x80000001, I_blt_cg_cr_rs1_rs2_edges_offset_rs1val_0x7ffffffe_rs2val_0x80000001_str) # signature 1 for taken
    3dd8:	0008a203          	lw	x4,0(x17)
    3ddc:	01420863          	beq	x4,x20,3dec <I_blt_cg_cr_rs1_rs2_edges_offset_rs1val_0x7ffffffe_rs2val_0x80000001+0x3c>
    3de0:	29c062ef          	jal	x5,a07c <failedtest_x5_x4>
    3de4:	00003db0          	.word	0x00003db0
    3de8:	0000f7cf          	.word	0x0000f7cf
    3dec:	00488893          	addi	x17,x17,4
  j 4f # done with test
    3df0:	0080006f          	jal	x0,3df8 <I_blt_cg_cr_rs1_rs2_edges_offset_rs1val_0x7ffffffe_rs2val_0x80000001+0x48>
3: # goes here during forward branch if taken
  blt x20, x28, 2b # backward branch, definitely taken
    3df4:	ffca40e3          	blt	x20,x28,3dd4 <I_blt_cg_cr_rs1_rs2_edges_offset_rs1val_0x7ffffffe_rs2val_0x80000001+0x24>
4: # done with test

# cr_rs1_rs2_edges_offset (Test source rs1 = 0x7ffffffe rs2 = 0x7fffffff)
  RVTEST_TESTDATA_LOAD_INT(x23, x22) # load rs1: x22 = 0x7ffffffe
    3df8:	000bab03          	lw	x22,0(x23)
    3dfc:	004b8b93          	addi	x23,x23,4
  RVTEST_TESTDATA_LOAD_INT(x23, x1) # load rs2: x1 = 0x7fffffff
    3e00:	000ba083          	lw	x1,0(x23)
    3e04:	004b8b93          	addi	x23,x23,4

00003e08 <I_blt_cg_cr_rs1_rs2_edges_offset_rs1val_0x7ffffffe_rs2val_0x7fffffff>:
0: # destination for backwards branch that is never taken
I_blt_cg_cr_rs1_rs2_edges_offset_rs1val_0x7ffffffe_rs2val_0x7fffffff:
  blt x22, x1, 3f # forward branch, if taken
    3e08:	041b4263          	blt	x22,x1,3e4c <I_blt_cg_cr_rs1_rs2_edges_offset_rs1val_0x7ffffffe_rs2val_0x7fffffff+0x44>
1: # goes here if not taken
  blt x22, x1, 0b # backward branch, never taken
    3e0c:	fe1b4ee3          	blt	x22,x1,3e08 <I_blt_cg_cr_rs1_rs2_edges_offset_rs1val_0x7ffffffe_rs2val_0x7fffffff>
  # Check if x0 contains the expected result. x17 is the signature ptr, x5 is the link ptr, x4 is a temp reg.
  RVTEST_SIGUPD(x17, x5, x4, x0, I_blt_cg_cr_rs1_rs2_edges_offset_rs1val_0x7ffffffe_rs2val_0x7fffffff, I_blt_cg_cr_rs1_rs2_edges_offset_rs1val_0x7ffffffe_rs2val_0x7fffffff_str)
    3e10:	0008a203          	lw	x4,0(x17)
    3e14:	00020863          	beq	x4,x0,3e24 <I_blt_cg_cr_rs1_rs2_edges_offset_rs1val_0x7ffffffe_rs2val_0x7fffffff+0x1c>
    3e18:	264062ef          	jal	x5,a07c <failedtest_x5_x4>
    3e1c:	00003e08          	.word	0x00003e08
    3e20:	0000f831          	.word	0x0000f831
    3e24:	00488893          	addi	x17,x17,4
  j 4f # done with test
    3e28:	0280006f          	jal	x0,3e50 <I_blt_cg_cr_rs1_rs2_edges_offset_rs1val_0x7ffffffe_rs2val_0x7fffffff+0x48>
2: # goes here during backward branch if taken
  LI(x22, 1)
    3e2c:	00100b13          	addi	x22,x0,1
  # Check if x22 contains the expected result. x17 is the signature ptr, x5 is the link ptr, x4 is a temp reg.
  RVTEST_SIGUPD(x17, x5, x4, x22, I_blt_cg_cr_rs1_rs2_edges_offset_rs1val_0x7ffffffe_rs2val_0x7fffffff, I_blt_cg_cr_rs1_rs2_edges_offset_rs1val_0x7ffffffe_rs2val_0x7fffffff_str) # signature 1 for taken
    3e30:	0008a203          	lw	x4,0(x17)
    3e34:	01620863          	beq	x4,x22,3e44 <I_blt_cg_cr_rs1_rs2_edges_offset_rs1val_0x7ffffffe_rs2val_0x7fffffff+0x3c>
    3e38:	244062ef          	jal	x5,a07c <failedtest_x5_x4>
    3e3c:	00003e08          	.word	0x00003e08
    3e40:	0000f831          	.word	0x0000f831
    3e44:	00488893          	addi	x17,x17,4
  j 4f # done with test
    3e48:	0080006f          	jal	x0,3e50 <I_blt_cg_cr_rs1_rs2_edges_offset_rs1val_0x7ffffffe_rs2val_0x7fffffff+0x48>
3: # goes here during forward branch if taken
  blt x22, x1, 2b # backward branch, definitely taken
    3e4c:	fe1b40e3          	blt	x22,x1,3e2c <I_blt_cg_cr_rs1_rs2_edges_offset_rs1val_0x7ffffffe_rs2val_0x7fffffff+0x24>
4: # done with test

# cr_rs1_rs2_edges_offset (Test source rs1 = 0x7ffffffe rs2 = 0x7ffffffe)
  RVTEST_TESTDATA_LOAD_INT(x23, x3) # load rs1: x3 = 0x7ffffffe
    3e50:	000ba183          	lw	x3,0(x23)
    3e54:	004b8b93          	addi	x23,x23,4
  RVTEST_TESTDATA_LOAD_INT(x23, x20) # load rs2: x20 = 0x7ffffffe
    3e58:	000baa03          	lw	x20,0(x23)
    3e5c:	004b8b93          	addi	x23,x23,4

00003e60 <I_blt_cg_cr_rs1_rs2_edges_offset_rs1val_0x7ffffffe_rs2val_0x7ffffffe>:
0: # destination for backwards branch that is never taken
I_blt_cg_cr_rs1_rs2_edges_offset_rs1val_0x7ffffffe_rs2val_0x7ffffffe:
  blt x3, x20, 3f # forward branch, if taken
    3e60:	0541c263          	blt	x3,x20,3ea4 <I_blt_cg_cr_rs1_rs2_edges_offset_rs1val_0x7ffffffe_rs2val_0x7ffffffe+0x44>
1: # goes here if not taken
  blt x3, x20, 0b # backward branch, never taken
    3e64:	ff41cee3          	blt	x3,x20,3e60 <I_blt_cg_cr_rs1_rs2_edges_offset_rs1val_0x7ffffffe_rs2val_0x7ffffffe>
  # Check if x0 contains the expected result. x17 is the signature ptr, x5 is the link ptr, x4 is a temp reg.
  RVTEST_SIGUPD(x17, x5, x4, x0, I_blt_cg_cr_rs1_rs2_edges_offset_rs1val_0x7ffffffe_rs2val_0x7ffffffe, I_blt_cg_cr_rs1_rs2_edges_offset_rs1val_0x7ffffffe_rs2val_0x7ffffffe_str)
    3e68:	0008a203          	lw	x4,0(x17)
    3e6c:	00020863          	beq	x4,x0,3e7c <I_blt_cg_cr_rs1_rs2_edges_offset_rs1val_0x7ffffffe_rs2val_0x7ffffffe+0x1c>
    3e70:	20c062ef          	jal	x5,a07c <failedtest_x5_x4>
    3e74:	00003e60          	.word	0x00003e60
    3e78:	0000f893          	.word	0x0000f893
    3e7c:	00488893          	addi	x17,x17,4
  j 4f # done with test
    3e80:	0280006f          	jal	x0,3ea8 <I_blt_cg_cr_rs1_rs2_edges_offset_rs1val_0x7ffffffe_rs2val_0x7ffffffe+0x48>
2: # goes here during backward branch if taken
  LI(x3, 1)
    3e84:	00100193          	addi	x3,x0,1
  # Check if x3 contains the expected result. x17 is the signature ptr, x5 is the link ptr, x4 is a temp reg.
  RVTEST_SIGUPD(x17, x5, x4, x3, I_blt_cg_cr_rs1_rs2_edges_offset_rs1val_0x7ffffffe_rs2val_0x7ffffffe, I_blt_cg_cr_rs1_rs2_edges_offset_rs1val_0x7ffffffe_rs2val_0x7ffffffe_str) # signature 1 for taken
    3e88:	0008a203          	lw	x4,0(x17)
    3e8c:	00320863          	beq	x4,x3,3e9c <I_blt_cg_cr_rs1_rs2_edges_offset_rs1val_0x7ffffffe_rs2val_0x7ffffffe+0x3c>
    3e90:	1ec062ef          	jal	x5,a07c <failedtest_x5_x4>
    3e94:	00003e60          	.word	0x00003e60
    3e98:	0000f893          	.word	0x0000f893
    3e9c:	00488893          	addi	x17,x17,4
  j 4f # done with test
    3ea0:	0080006f          	jal	x0,3ea8 <I_blt_cg_cr_rs1_rs2_edges_offset_rs1val_0x7ffffffe_rs2val_0x7ffffffe+0x48>
3: # goes here during forward branch if taken
  blt x3, x20, 2b # backward branch, definitely taken
    3ea4:	ff41c0e3          	blt	x3,x20,3e84 <I_blt_cg_cr_rs1_rs2_edges_offset_rs1val_0x7ffffffe_rs2val_0x7ffffffe+0x24>
4: # done with test

# cr_rs1_rs2_edges_offset (Test source rs1 = 0x7ffffffe rs2 = 0xffffffff)
  RVTEST_TESTDATA_LOAD_INT(x23, x2) # load rs1: x2 = 0x7ffffffe
    3ea8:	000ba103          	lw	x2,0(x23)
    3eac:	004b8b93          	addi	x23,x23,4
  RVTEST_TESTDATA_LOAD_INT(x23, x8) # load rs2: x8 = 0xffffffff
    3eb0:	000ba403          	lw	x8,0(x23)
    3eb4:	004b8b93          	addi	x23,x23,4

00003eb8 <I_blt_cg_cr_rs1_rs2_edges_offset_rs1val_0x7ffffffe_rs2val_0xffffffff>:
0: # destination for backwards branch that is never taken
I_blt_cg_cr_rs1_rs2_edges_offset_rs1val_0x7ffffffe_rs2val_0xffffffff:
  blt x2, x8, 3f # forward branch, if taken
    3eb8:	04814263          	blt	x2,x8,3efc <I_blt_cg_cr_rs1_rs2_edges_offset_rs1val_0x7ffffffe_rs2val_0xffffffff+0x44>
1: # goes here if not taken
  blt x2, x8, 0b # backward branch, never taken
    3ebc:	fe814ee3          	blt	x2,x8,3eb8 <I_blt_cg_cr_rs1_rs2_edges_offset_rs1val_0x7ffffffe_rs2val_0xffffffff>
  # Check if x0 contains the expected result. x17 is the signature ptr, x5 is the link ptr, x4 is a temp reg.
  RVTEST_SIGUPD(x17, x5, x4, x0, I_blt_cg_cr_rs1_rs2_edges_offset_rs1val_0x7ffffffe_rs2val_0xffffffff, I_blt_cg_cr_rs1_rs2_edges_offset_rs1val_0x7ffffffe_rs2val_0xffffffff_str)
    3ec0:	0008a203          	lw	x4,0(x17)
    3ec4:	00020863          	beq	x4,x0,3ed4 <I_blt_cg_cr_rs1_rs2_edges_offset_rs1val_0x7ffffffe_rs2val_0xffffffff+0x1c>
    3ec8:	1b4062ef          	jal	x5,a07c <failedtest_x5_x4>
    3ecc:	00003eb8          	.word	0x00003eb8
    3ed0:	0000f8f5          	.word	0x0000f8f5
    3ed4:	00488893          	addi	x17,x17,4
  j 4f # done with test
    3ed8:	0280006f          	jal	x0,3f00 <I_blt_cg_cr_rs1_rs2_edges_offset_rs1val_0x7ffffffe_rs2val_0xffffffff+0x48>
2: # goes here during backward branch if taken
  LI(x2, 1)
    3edc:	00100113          	addi	x2,x0,1
  # Check if x2 contains the expected result. x17 is the signature ptr, x5 is the link ptr, x4 is a temp reg.
  RVTEST_SIGUPD(x17, x5, x4, x2, I_blt_cg_cr_rs1_rs2_edges_offset_rs1val_0x7ffffffe_rs2val_0xffffffff, I_blt_cg_cr_rs1_rs2_edges_offset_rs1val_0x7ffffffe_rs2val_0xffffffff_str) # signature 1 for taken
    3ee0:	0008a203          	lw	x4,0(x17)
    3ee4:	00220863          	beq	x4,x2,3ef4 <I_blt_cg_cr_rs1_rs2_edges_offset_rs1val_0x7ffffffe_rs2val_0xffffffff+0x3c>
    3ee8:	194062ef          	jal	x5,a07c <failedtest_x5_x4>
    3eec:	00003eb8          	.word	0x00003eb8
    3ef0:	0000f8f5          	.word	0x0000f8f5
    3ef4:	00488893          	addi	x17,x17,4
  j 4f # done with test
    3ef8:	0080006f          	jal	x0,3f00 <I_blt_cg_cr_rs1_rs2_edges_offset_rs1val_0x7ffffffe_rs2val_0xffffffff+0x48>
3: # goes here during forward branch if taken
  blt x2, x8, 2b # backward branch, definitely taken
    3efc:	fe8140e3          	blt	x2,x8,3edc <I_blt_cg_cr_rs1_rs2_edges_offset_rs1val_0x7ffffffe_rs2val_0xffffffff+0x24>
4: # done with test

# cr_rs1_rs2_edges_offset (Test source rs1 = 0x7ffffffe rs2 = 0xfffffffe)
  RVTEST_TESTDATA_LOAD_INT(x23, x11) # load rs1: x11 = 0x7ffffffe
    3f00:	000ba583          	lw	x11,0(x23)
    3f04:	004b8b93          	addi	x23,x23,4
  RVTEST_TESTDATA_LOAD_INT(x23, x20) # load rs2: x20 = 0xfffffffe
    3f08:	000baa03          	lw	x20,0(x23)
    3f0c:	004b8b93          	addi	x23,x23,4

00003f10 <I_blt_cg_cr_rs1_rs2_edges_offset_rs1val_0x7ffffffe_rs2val_0xfffffffe>:
0: # destination for backwards branch that is never taken
I_blt_cg_cr_rs1_rs2_edges_offset_rs1val_0x7ffffffe_rs2val_0xfffffffe:
  blt x11, x20, 3f # forward branch, if taken
    3f10:	0545c263          	blt	x11,x20,3f54 <I_blt_cg_cr_rs1_rs2_edges_offset_rs1val_0x7ffffffe_rs2val_0xfffffffe+0x44>
1: # goes here if not taken
  blt x11, x20, 0b # backward branch, never taken
    3f14:	ff45cee3          	blt	x11,x20,3f10 <I_blt_cg_cr_rs1_rs2_edges_offset_rs1val_0x7ffffffe_rs2val_0xfffffffe>
  # Check if x0 contains the expected result. x17 is the signature ptr, x5 is the link ptr, x4 is a temp reg.
  RVTEST_SIGUPD(x17, x5, x4, x0, I_blt_cg_cr_rs1_rs2_edges_offset_rs1val_0x7ffffffe_rs2val_0xfffffffe, I_blt_cg_cr_rs1_rs2_edges_offset_rs1val_0x7ffffffe_rs2val_0xfffffffe_str)
    3f18:	0008a203          	lw	x4,0(x17)
    3f1c:	00020863          	beq	x4,x0,3f2c <I_blt_cg_cr_rs1_rs2_edges_offset_rs1val_0x7ffffffe_rs2val_0xfffffffe+0x1c>
    3f20:	15c062ef          	jal	x5,a07c <failedtest_x5_x4>
    3f24:	00003f10          	.word	0x00003f10
    3f28:	0000f957          	.word	0x0000f957
    3f2c:	00488893          	addi	x17,x17,4
  j 4f # done with test
    3f30:	0280006f          	jal	x0,3f58 <I_blt_cg_cr_rs1_rs2_edges_offset_rs1val_0x7ffffffe_rs2val_0xfffffffe+0x48>
2: # goes here during backward branch if taken
  LI(x11, 1)
    3f34:	00100593          	addi	x11,x0,1
  # Check if x11 contains the expected result. x17 is the signature ptr, x5 is the link ptr, x4 is a temp reg.
  RVTEST_SIGUPD(x17, x5, x4, x11, I_blt_cg_cr_rs1_rs2_edges_offset_rs1val_0x7ffffffe_rs2val_0xfffffffe, I_blt_cg_cr_rs1_rs2_edges_offset_rs1val_0x7ffffffe_rs2val_0xfffffffe_str) # signature 1 for taken
    3f38:	0008a203          	lw	x4,0(x17)
    3f3c:	00b20863          	beq	x4,x11,3f4c <I_blt_cg_cr_rs1_rs2_edges_offset_rs1val_0x7ffffffe_rs2val_0xfffffffe+0x3c>
    3f40:	13c062ef          	jal	x5,a07c <failedtest_x5_x4>
    3f44:	00003f10          	.word	0x00003f10
    3f48:	0000f957          	.word	0x0000f957
    3f4c:	00488893          	addi	x17,x17,4
  j 4f # done with test
    3f50:	0080006f          	jal	x0,3f58 <I_blt_cg_cr_rs1_rs2_edges_offset_rs1val_0x7ffffffe_rs2val_0xfffffffe+0x48>
3: # goes here during forward branch if taken
  blt x11, x20, 2b # backward branch, definitely taken
    3f54:	ff45c0e3          	blt	x11,x20,3f34 <I_blt_cg_cr_rs1_rs2_edges_offset_rs1val_0x7ffffffe_rs2val_0xfffffffe+0x24>
4: # done with test

# cr_rs1_rs2_edges_offset (Test source rs1 = 0x7ffffffe rs2 = 0x5bbc8872)
  RVTEST_TESTDATA_LOAD_INT(x23, x19) # load rs1: x19 = 0x7ffffffe
    3f58:	000ba983          	lw	x19,0(x23)
    3f5c:	004b8b93          	addi	x23,x23,4
  RVTEST_TESTDATA_LOAD_INT(x23, x26) # load rs2: x26 = 0x5bbc8872
    3f60:	000bad03          	lw	x26,0(x23)
    3f64:	004b8b93          	addi	x23,x23,4

00003f68 <I_blt_cg_cr_rs1_rs2_edges_offset_rs1val_0x7ffffffe_rs2val_0x5bbc8872>:
0: # destination for backwards branch that is never taken
I_blt_cg_cr_rs1_rs2_edges_offset_rs1val_0x7ffffffe_rs2val_0x5bbc8872:
  blt x19, x26, 3f # forward branch, if taken
    3f68:	05a9c263          	blt	x19,x26,3fac <I_blt_cg_cr_rs1_rs2_edges_offset_rs1val_0x7ffffffe_rs2val_0x5bbc8872+0x44>
1: # goes here if not taken
  blt x19, x26, 0b # backward branch, never taken
    3f6c:	ffa9cee3          	blt	x19,x26,3f68 <I_blt_cg_cr_rs1_rs2_edges_offset_rs1val_0x7ffffffe_rs2val_0x5bbc8872>
  # Check if x0 contains the expected result. x17 is the signature ptr, x5 is the link ptr, x4 is a temp reg.
  RVTEST_SIGUPD(x17, x5, x4, x0, I_blt_cg_cr_rs1_rs2_edges_offset_rs1val_0x7ffffffe_rs2val_0x5bbc8872, I_blt_cg_cr_rs1_rs2_edges_offset_rs1val_0x7ffffffe_rs2val_0x5bbc8872_str)
    3f70:	0008a203          	lw	x4,0(x17)
    3f74:	00020863          	beq	x4,x0,3f84 <I_blt_cg_cr_rs1_rs2_edges_offset_rs1val_0x7ffffffe_rs2val_0x5bbc8872+0x1c>
    3f78:	104062ef          	jal	x5,a07c <failedtest_x5_x4>
    3f7c:	00003f68          	.word	0x00003f68
    3f80:	0000f9b9          	.word	0x0000f9b9
    3f84:	00488893          	addi	x17,x17,4
  j 4f # done with test
    3f88:	0280006f          	jal	x0,3fb0 <I_blt_cg_cr_rs1_rs2_edges_offset_rs1val_0x7ffffffe_rs2val_0x5bbc8872+0x48>
2: # goes here during backward branch if taken
  LI(x19, 1)
    3f8c:	00100993          	addi	x19,x0,1
  # Check if x19 contains the expected result. x17 is the signature ptr, x5 is the link ptr, x4 is a temp reg.
  RVTEST_SIGUPD(x17, x5, x4, x19, I_blt_cg_cr_rs1_rs2_edges_offset_rs1val_0x7ffffffe_rs2val_0x5bbc8872, I_blt_cg_cr_rs1_rs2_edges_offset_rs1val_0x7ffffffe_rs2val_0x5bbc8872_str) # signature 1 for taken
    3f90:	0008a203          	lw	x4,0(x17)
    3f94:	01320863          	beq	x4,x19,3fa4 <I_blt_cg_cr_rs1_rs2_edges_offset_rs1val_0x7ffffffe_rs2val_0x5bbc8872+0x3c>
    3f98:	0e4062ef          	jal	x5,a07c <failedtest_x5_x4>
    3f9c:	00003f68          	.word	0x00003f68
    3fa0:	0000f9b9          	.word	0x0000f9b9
    3fa4:	00488893          	addi	x17,x17,4
  j 4f # done with test
    3fa8:	0080006f          	jal	x0,3fb0 <I_blt_cg_cr_rs1_rs2_edges_offset_rs1val_0x7ffffffe_rs2val_0x5bbc8872+0x48>
3: # goes here during forward branch if taken
  blt x19, x26, 2b # backward branch, definitely taken
    3fac:	ffa9c0e3          	blt	x19,x26,3f8c <I_blt_cg_cr_rs1_rs2_edges_offset_rs1val_0x7ffffffe_rs2val_0x5bbc8872+0x24>
4: # done with test

# cr_rs1_rs2_edges_offset (Test source rs1 = 0x7ffffffe rs2 = 0xaaaaaaaa)
  RVTEST_TESTDATA_LOAD_INT(x23, x22) # load rs1: x22 = 0x7ffffffe
    3fb0:	000bab03          	lw	x22,0(x23)
    3fb4:	004b8b93          	addi	x23,x23,4
  RVTEST_TESTDATA_LOAD_INT(x23, x24) # load rs2: x24 = 0xaaaaaaaa
    3fb8:	000bac03          	lw	x24,0(x23)
    3fbc:	004b8b93          	addi	x23,x23,4

00003fc0 <I_blt_cg_cr_rs1_rs2_edges_offset_rs1val_0x7ffffffe_rs2val_0xaaaaaaaa>:
0: # destination for backwards branch that is never taken
I_blt_cg_cr_rs1_rs2_edges_offset_rs1val_0x7ffffffe_rs2val_0xaaaaaaaa:
  blt x22, x24, 3f # forward branch, if taken
    3fc0:	058b4263          	blt	x22,x24,4004 <I_blt_cg_cr_rs1_rs2_edges_offset_rs1val_0x7ffffffe_rs2val_0xaaaaaaaa+0x44>
1: # goes here if not taken
  blt x22, x24, 0b # backward branch, never taken
    3fc4:	ff8b4ee3          	blt	x22,x24,3fc0 <I_blt_cg_cr_rs1_rs2_edges_offset_rs1val_0x7ffffffe_rs2val_0xaaaaaaaa>
  # Check if x0 contains the expected result. x17 is the signature ptr, x5 is the link ptr, x4 is a temp reg.
  RVTEST_SIGUPD(x17, x5, x4, x0, I_blt_cg_cr_rs1_rs2_edges_offset_rs1val_0x7ffffffe_rs2val_0xaaaaaaaa, I_blt_cg_cr_rs1_rs2_edges_offset_rs1val_0x7ffffffe_rs2val_0xaaaaaaaa_str)
    3fc8:	0008a203          	lw	x4,0(x17)
    3fcc:	00020863          	beq	x4,x0,3fdc <I_blt_cg_cr_rs1_rs2_edges_offset_rs1val_0x7ffffffe_rs2val_0xaaaaaaaa+0x1c>
    3fd0:	0ac062ef          	jal	x5,a07c <failedtest_x5_x4>
    3fd4:	00003fc0          	.word	0x00003fc0
    3fd8:	0000fa1b          	.word	0x0000fa1b
    3fdc:	00488893          	addi	x17,x17,4
  j 4f # done with test
    3fe0:	0280006f          	jal	x0,4008 <I_blt_cg_cr_rs1_rs2_edges_offset_rs1val_0x7ffffffe_rs2val_0xaaaaaaaa+0x48>
2: # goes here during backward branch if taken
  LI(x22, 1)
    3fe4:	00100b13          	addi	x22,x0,1
  # Check if x22 contains the expected result. x17 is the signature ptr, x5 is the link ptr, x4 is a temp reg.
  RVTEST_SIGUPD(x17, x5, x4, x22, I_blt_cg_cr_rs1_rs2_edges_offset_rs1val_0x7ffffffe_rs2val_0xaaaaaaaa, I_blt_cg_cr_rs1_rs2_edges_offset_rs1val_0x7ffffffe_rs2val_0xaaaaaaaa_str) # signature 1 for taken
    3fe8:	0008a203          	lw	x4,0(x17)
    3fec:	01620863          	beq	x4,x22,3ffc <I_blt_cg_cr_rs1_rs2_edges_offset_rs1val_0x7ffffffe_rs2val_0xaaaaaaaa+0x3c>
    3ff0:	08c062ef          	jal	x5,a07c <failedtest_x5_x4>
    3ff4:	00003fc0          	.word	0x00003fc0
    3ff8:	0000fa1b          	.word	0x0000fa1b
    3ffc:	00488893          	addi	x17,x17,4
  j 4f # done with test
    4000:	0080006f          	jal	x0,4008 <I_blt_cg_cr_rs1_rs2_edges_offset_rs1val_0x7ffffffe_rs2val_0xaaaaaaaa+0x48>
3: # goes here during forward branch if taken
  blt x22, x24, 2b # backward branch, definitely taken
    4004:	ff8b40e3          	blt	x22,x24,3fe4 <I_blt_cg_cr_rs1_rs2_edges_offset_rs1val_0x7ffffffe_rs2val_0xaaaaaaaa+0x24>
4: # done with test

# cr_rs1_rs2_edges_offset (Test source rs1 = 0x7ffffffe rs2 = 0x55555555)
  RVTEST_TESTDATA_LOAD_INT(x23, x12) # load rs1: x12 = 0x7ffffffe
    4008:	000ba603          	lw	x12,0(x23)
    400c:	004b8b93          	addi	x23,x23,4
  RVTEST_TESTDATA_LOAD_INT(x23, x24) # load rs2: x24 = 0x55555555
    4010:	000bac03          	lw	x24,0(x23)
    4014:	004b8b93          	addi	x23,x23,4

00004018 <I_blt_cg_cr_rs1_rs2_edges_offset_rs1val_0x7ffffffe_rs2val_0x55555555>:
0: # destination for backwards branch that is never taken
I_blt_cg_cr_rs1_rs2_edges_offset_rs1val_0x7ffffffe_rs2val_0x55555555:
  blt x12, x24, 3f # forward branch, if taken
    4018:	05864263          	blt	x12,x24,405c <I_blt_cg_cr_rs1_rs2_edges_offset_rs1val_0x7ffffffe_rs2val_0x55555555+0x44>
1: # goes here if not taken
  blt x12, x24, 0b # backward branch, never taken
    401c:	ff864ee3          	blt	x12,x24,4018 <I_blt_cg_cr_rs1_rs2_edges_offset_rs1val_0x7ffffffe_rs2val_0x55555555>
  # Check if x0 contains the expected result. x17 is the signature ptr, x5 is the link ptr, x4 is a temp reg.
  RVTEST_SIGUPD(x17, x5, x4, x0, I_blt_cg_cr_rs1_rs2_edges_offset_rs1val_0x7ffffffe_rs2val_0x55555555, I_blt_cg_cr_rs1_rs2_edges_offset_rs1val_0x7ffffffe_rs2val_0x55555555_str)
    4020:	0008a203          	lw	x4,0(x17)
    4024:	00020863          	beq	x4,x0,4034 <I_blt_cg_cr_rs1_rs2_edges_offset_rs1val_0x7ffffffe_rs2val_0x55555555+0x1c>
    4028:	054062ef          	jal	x5,a07c <failedtest_x5_x4>
    402c:	00004018          	.word	0x00004018
    4030:	0000fa7d          	.word	0x0000fa7d
    4034:	00488893          	addi	x17,x17,4
  j 4f # done with test
    4038:	0280006f          	jal	x0,4060 <I_blt_cg_cr_rs1_rs2_edges_offset_rs1val_0x7ffffffe_rs2val_0x55555555+0x48>
2: # goes here during backward branch if taken
  LI(x12, 1)
    403c:	00100613          	addi	x12,x0,1
  # Check if x12 contains the expected result. x17 is the signature ptr, x5 is the link ptr, x4 is a temp reg.
  RVTEST_SIGUPD(x17, x5, x4, x12, I_blt_cg_cr_rs1_rs2_edges_offset_rs1val_0x7ffffffe_rs2val_0x55555555, I_blt_cg_cr_rs1_rs2_edges_offset_rs1val_0x7ffffffe_rs2val_0x55555555_str) # signature 1 for taken
    4040:	0008a203          	lw	x4,0(x17)
    4044:	00c20863          	beq	x4,x12,4054 <I_blt_cg_cr_rs1_rs2_edges_offset_rs1val_0x7ffffffe_rs2val_0x55555555+0x3c>
    4048:	034062ef          	jal	x5,a07c <failedtest_x5_x4>
    404c:	00004018          	.word	0x00004018
    4050:	0000fa7d          	.word	0x0000fa7d
    4054:	00488893          	addi	x17,x17,4
  j 4f # done with test
    4058:	0080006f          	jal	x0,4060 <I_blt_cg_cr_rs1_rs2_edges_offset_rs1val_0x7ffffffe_rs2val_0x55555555+0x48>
3: # goes here during forward branch if taken
  blt x12, x24, 2b # backward branch, definitely taken
    405c:	ff8640e3          	blt	x12,x24,403c <I_blt_cg_cr_rs1_rs2_edges_offset_rs1val_0x7ffffffe_rs2val_0x55555555+0x24>
4: # done with test

# cr_rs1_rs2_edges_offset (Test source rs1 = 0xffffffff rs2 = 0x00000000)
  RVTEST_TESTDATA_LOAD_INT(x23, x10) # load rs1: x10 = 0xffffffff
    4060:	000ba503          	lw	x10,0(x23)
    4064:	004b8b93          	addi	x23,x23,4
  RVTEST_TESTDATA_LOAD_INT(x23, x13) # load rs2: x13 = 0x00000000
    4068:	000ba683          	lw	x13,0(x23)
    406c:	004b8b93          	addi	x23,x23,4

00004070 <I_blt_cg_cr_rs1_rs2_edges_offset_rs1val_0xffffffff_rs2val_0x0>:
0: # destination for backwards branch that is never taken
I_blt_cg_cr_rs1_rs2_edges_offset_rs1val_0xffffffff_rs2val_0x0:
  blt x10, x13, 3f # forward branch, if taken
    4070:	04d54263          	blt	x10,x13,40b4 <I_blt_cg_cr_rs1_rs2_edges_offset_rs1val_0xffffffff_rs2val_0x0+0x44>
1: # goes here if not taken
  blt x10, x13, 0b # backward branch, never taken
    4074:	fed54ee3          	blt	x10,x13,4070 <I_blt_cg_cr_rs1_rs2_edges_offset_rs1val_0xffffffff_rs2val_0x0>
  # Check if x0 contains the expected result. x17 is the signature ptr, x5 is the link ptr, x4 is a temp reg.
  RVTEST_SIGUPD(x17, x5, x4, x0, I_blt_cg_cr_rs1_rs2_edges_offset_rs1val_0xffffffff_rs2val_0x0, I_blt_cg_cr_rs1_rs2_edges_offset_rs1val_0xffffffff_rs2val_0x0_str)
    4078:	0008a203          	lw	x4,0(x17)
    407c:	00020863          	beq	x4,x0,408c <I_blt_cg_cr_rs1_rs2_edges_offset_rs1val_0xffffffff_rs2val_0x0+0x1c>
    4080:	7fd052ef          	jal	x5,a07c <failedtest_x5_x4>
    4084:	00004070          	.word	0x00004070
    4088:	0000fadf          	.word	0x0000fadf
    408c:	00488893          	addi	x17,x17,4
  j 4f # done with test
    4090:	0280006f          	jal	x0,40b8 <I_blt_cg_cr_rs1_rs2_edges_offset_rs1val_0xffffffff_rs2val_0x0+0x48>
2: # goes here during backward branch if taken
  LI(x10, 1)
    4094:	00100513          	addi	x10,x0,1
  # Check if x10 contains the expected result. x17 is the signature ptr, x5 is the link ptr, x4 is a temp reg.
  RVTEST_SIGUPD(x17, x5, x4, x10, I_blt_cg_cr_rs1_rs2_edges_offset_rs1val_0xffffffff_rs2val_0x0, I_blt_cg_cr_rs1_rs2_edges_offset_rs1val_0xffffffff_rs2val_0x0_str) # signature 1 for taken
    4098:	0008a203          	lw	x4,0(x17)
    409c:	00a20863          	beq	x4,x10,40ac <I_blt_cg_cr_rs1_rs2_edges_offset_rs1val_0xffffffff_rs2val_0x0+0x3c>
    40a0:	7dd052ef          	jal	x5,a07c <failedtest_x5_x4>
    40a4:	00004070          	.word	0x00004070
    40a8:	0000fadf          	.word	0x0000fadf
    40ac:	00488893          	addi	x17,x17,4
  j 4f # done with test
    40b0:	0080006f          	jal	x0,40b8 <I_blt_cg_cr_rs1_rs2_edges_offset_rs1val_0xffffffff_rs2val_0x0+0x48>
3: # goes here during forward branch if taken
  blt x10, x13, 2b # backward branch, definitely taken
    40b4:	fed540e3          	blt	x10,x13,4094 <I_blt_cg_cr_rs1_rs2_edges_offset_rs1val_0xffffffff_rs2val_0x0+0x24>
4: # done with test

# cr_rs1_rs2_edges_offset (Test source rs1 = 0xffffffff rs2 = 0x00000001)
  RVTEST_TESTDATA_LOAD_INT(x23, x12) # load rs1: x12 = 0xffffffff
    40b8:	000ba603          	lw	x12,0(x23)
    40bc:	004b8b93          	addi	x23,x23,4
  RVTEST_TESTDATA_LOAD_INT(x23, x25) # load rs2: x25 = 0x00000001
    40c0:	000bac83          	lw	x25,0(x23)
    40c4:	004b8b93          	addi	x23,x23,4

000040c8 <I_blt_cg_cr_rs1_rs2_edges_offset_rs1val_0xffffffff_rs2val_0x1>:
0: # destination for backwards branch that is never taken
I_blt_cg_cr_rs1_rs2_edges_offset_rs1val_0xffffffff_rs2val_0x1:
  blt x12, x25, 3f # forward branch, if taken
    40c8:	05964263          	blt	x12,x25,410c <I_blt_cg_cr_rs1_rs2_edges_offset_rs1val_0xffffffff_rs2val_0x1+0x44>
1: # goes here if not taken
  blt x12, x25, 0b # backward branch, never taken
    40cc:	ff964ee3          	blt	x12,x25,40c8 <I_blt_cg_cr_rs1_rs2_edges_offset_rs1val_0xffffffff_rs2val_0x1>
  # Check if x0 contains the expected result. x17 is the signature ptr, x5 is the link ptr, x4 is a temp reg.
  RVTEST_SIGUPD(x17, x5, x4, x0, I_blt_cg_cr_rs1_rs2_edges_offset_rs1val_0xffffffff_rs2val_0x1, I_blt_cg_cr_rs1_rs2_edges_offset_rs1val_0xffffffff_rs2val_0x1_str)
    40d0:	0008a203          	lw	x4,0(x17)
    40d4:	00020863          	beq	x4,x0,40e4 <I_blt_cg_cr_rs1_rs2_edges_offset_rs1val_0xffffffff_rs2val_0x1+0x1c>
    40d8:	7a5052ef          	jal	x5,a07c <failedtest_x5_x4>
    40dc:	000040c8          	.word	0x000040c8
    40e0:	0000fb3a          	.word	0x0000fb3a
    40e4:	00488893          	addi	x17,x17,4
  j 4f # done with test
    40e8:	0280006f          	jal	x0,4110 <I_blt_cg_cr_rs1_rs2_edges_offset_rs1val_0xffffffff_rs2val_0x1+0x48>
2: # goes here during backward branch if taken
  LI(x12, 1)
    40ec:	00100613          	addi	x12,x0,1
  # Check if x12 contains the expected result. x17 is the signature ptr, x5 is the link ptr, x4 is a temp reg.
  RVTEST_SIGUPD(x17, x5, x4, x12, I_blt_cg_cr_rs1_rs2_edges_offset_rs1val_0xffffffff_rs2val_0x1, I_blt_cg_cr_rs1_rs2_edges_offset_rs1val_0xffffffff_rs2val_0x1_str) # signature 1 for taken
    40f0:	0008a203          	lw	x4,0(x17)
    40f4:	00c20863          	beq	x4,x12,4104 <I_blt_cg_cr_rs1_rs2_edges_offset_rs1val_0xffffffff_rs2val_0x1+0x3c>
    40f8:	785052ef          	jal	x5,a07c <failedtest_x5_x4>
    40fc:	000040c8          	.word	0x000040c8
    4100:	0000fb3a          	.word	0x0000fb3a
    4104:	00488893          	addi	x17,x17,4
  j 4f # done with test
    4108:	0080006f          	jal	x0,4110 <I_blt_cg_cr_rs1_rs2_edges_offset_rs1val_0xffffffff_rs2val_0x1+0x48>
3: # goes here during forward branch if taken
  blt x12, x25, 2b # backward branch, definitely taken
    410c:	ff9640e3          	blt	x12,x25,40ec <I_blt_cg_cr_rs1_rs2_edges_offset_rs1val_0xffffffff_rs2val_0x1+0x24>
4: # done with test

# cr_rs1_rs2_edges_offset (Test source rs1 = 0xffffffff rs2 = 0x00000002)
  RVTEST_TESTDATA_LOAD_INT(x23, x18) # load rs1: x18 = 0xffffffff
    4110:	000ba903          	lw	x18,0(x23)
    4114:	004b8b93          	addi	x23,x23,4
  RVTEST_TESTDATA_LOAD_INT(x23, x6) # load rs2: x6 = 0x00000002
    4118:	000ba303          	lw	x6,0(x23)
    411c:	004b8b93          	addi	x23,x23,4

00004120 <I_blt_cg_cr_rs1_rs2_edges_offset_rs1val_0xffffffff_rs2val_0x2>:
0: # destination for backwards branch that is never taken
I_blt_cg_cr_rs1_rs2_edges_offset_rs1val_0xffffffff_rs2val_0x2:
  blt x18, x6, 3f # forward branch, if taken
    4120:	04694263          	blt	x18,x6,4164 <I_blt_cg_cr_rs1_rs2_edges_offset_rs1val_0xffffffff_rs2val_0x2+0x44>
1: # goes here if not taken
  blt x18, x6, 0b # backward branch, never taken
    4124:	fe694ee3          	blt	x18,x6,4120 <I_blt_cg_cr_rs1_rs2_edges_offset_rs1val_0xffffffff_rs2val_0x2>
  # Check if x0 contains the expected result. x17 is the signature ptr, x5 is the link ptr, x4 is a temp reg.
  RVTEST_SIGUPD(x17, x5, x4, x0, I_blt_cg_cr_rs1_rs2_edges_offset_rs1val_0xffffffff_rs2val_0x2, I_blt_cg_cr_rs1_rs2_edges_offset_rs1val_0xffffffff_rs2val_0x2_str)
    4128:	0008a203          	lw	x4,0(x17)
    412c:	00020863          	beq	x4,x0,413c <I_blt_cg_cr_rs1_rs2_edges_offset_rs1val_0xffffffff_rs2val_0x2+0x1c>
    4130:	74d052ef          	jal	x5,a07c <failedtest_x5_x4>
    4134:	00004120          	.word	0x00004120
    4138:	0000fb95          	.word	0x0000fb95
    413c:	00488893          	addi	x17,x17,4
  j 4f # done with test
    4140:	0280006f          	jal	x0,4168 <I_blt_cg_cr_rs1_rs2_edges_offset_rs1val_0xffffffff_rs2val_0x2+0x48>
2: # goes here during backward branch if taken
  LI(x18, 1)
    4144:	00100913          	addi	x18,x0,1
  # Check if x18 contains the expected result. x17 is the signature ptr, x5 is the link ptr, x4 is a temp reg.
  RVTEST_SIGUPD(x17, x5, x4, x18, I_blt_cg_cr_rs1_rs2_edges_offset_rs1val_0xffffffff_rs2val_0x2, I_blt_cg_cr_rs1_rs2_edges_offset_rs1val_0xffffffff_rs2val_0x2_str) # signature 1 for taken
    4148:	0008a203          	lw	x4,0(x17)
    414c:	01220863          	beq	x4,x18,415c <I_blt_cg_cr_rs1_rs2_edges_offset_rs1val_0xffffffff_rs2val_0x2+0x3c>
    4150:	72d052ef          	jal	x5,a07c <failedtest_x5_x4>
    4154:	00004120          	.word	0x00004120
    4158:	0000fb95          	.word	0x0000fb95
    415c:	00488893          	addi	x17,x17,4
  j 4f # done with test
    4160:	0080006f          	jal	x0,4168 <I_blt_cg_cr_rs1_rs2_edges_offset_rs1val_0xffffffff_rs2val_0x2+0x48>
3: # goes here during forward branch if taken
  blt x18, x6, 2b # backward branch, definitely taken
    4164:	fe6940e3          	blt	x18,x6,4144 <I_blt_cg_cr_rs1_rs2_edges_offset_rs1val_0xffffffff_rs2val_0x2+0x24>
4: # done with test

# cr_rs1_rs2_edges_offset (Test source rs1 = 0xffffffff rs2 = 0x80000000)
  RVTEST_TESTDATA_LOAD_INT(x23, x19) # load rs1: x19 = 0xffffffff
    4168:	000ba983          	lw	x19,0(x23)
    416c:	004b8b93          	addi	x23,x23,4
  RVTEST_TESTDATA_LOAD_INT(x23, x20) # load rs2: x20 = 0x80000000
    4170:	000baa03          	lw	x20,0(x23)
    4174:	004b8b93          	addi	x23,x23,4

00004178 <I_blt_cg_cr_rs1_rs2_edges_offset_rs1val_0xffffffff_rs2val_0x80000000>:
0: # destination for backwards branch that is never taken
I_blt_cg_cr_rs1_rs2_edges_offset_rs1val_0xffffffff_rs2val_0x80000000:
  blt x19, x20, 3f # forward branch, if taken
    4178:	0549c263          	blt	x19,x20,41bc <I_blt_cg_cr_rs1_rs2_edges_offset_rs1val_0xffffffff_rs2val_0x80000000+0x44>
1: # goes here if not taken
  blt x19, x20, 0b # backward branch, never taken
    417c:	ff49cee3          	blt	x19,x20,4178 <I_blt_cg_cr_rs1_rs2_edges_offset_rs1val_0xffffffff_rs2val_0x80000000>
  # Check if x0 contains the expected result. x17 is the signature ptr, x5 is the link ptr, x4 is a temp reg.
  RVTEST_SIGUPD(x17, x5, x4, x0, I_blt_cg_cr_rs1_rs2_edges_offset_rs1val_0xffffffff_rs2val_0x80000000, I_blt_cg_cr_rs1_rs2_edges_offset_rs1val_0xffffffff_rs2val_0x80000000_str)
    4180:	0008a203          	lw	x4,0(x17)
    4184:	00020863          	beq	x4,x0,4194 <I_blt_cg_cr_rs1_rs2_edges_offset_rs1val_0xffffffff_rs2val_0x80000000+0x1c>
    4188:	6f5052ef          	jal	x5,a07c <failedtest_x5_x4>
    418c:	00004178          	.word	0x00004178
    4190:	0000fbf0          	.word	0x0000fbf0
    4194:	00488893          	addi	x17,x17,4
  j 4f # done with test
    4198:	0280006f          	jal	x0,41c0 <I_blt_cg_cr_rs1_rs2_edges_offset_rs1val_0xffffffff_rs2val_0x80000000+0x48>
2: # goes here during backward branch if taken
  LI(x19, 1)
    419c:	00100993          	addi	x19,x0,1
  # Check if x19 contains the expected result. x17 is the signature ptr, x5 is the link ptr, x4 is a temp reg.
  RVTEST_SIGUPD(x17, x5, x4, x19, I_blt_cg_cr_rs1_rs2_edges_offset_rs1val_0xffffffff_rs2val_0x80000000, I_blt_cg_cr_rs1_rs2_edges_offset_rs1val_0xffffffff_rs2val_0x80000000_str) # signature 1 for taken
    41a0:	0008a203          	lw	x4,0(x17)
    41a4:	01320863          	beq	x4,x19,41b4 <I_blt_cg_cr_rs1_rs2_edges_offset_rs1val_0xffffffff_rs2val_0x80000000+0x3c>
    41a8:	6d5052ef          	jal	x5,a07c <failedtest_x5_x4>
    41ac:	00004178          	.word	0x00004178
    41b0:	0000fbf0          	.word	0x0000fbf0
    41b4:	00488893          	addi	x17,x17,4
  j 4f # done with test
    41b8:	0080006f          	jal	x0,41c0 <I_blt_cg_cr_rs1_rs2_edges_offset_rs1val_0xffffffff_rs2val_0x80000000+0x48>
3: # goes here during forward branch if taken
  blt x19, x20, 2b # backward branch, definitely taken
    41bc:	ff49c0e3          	blt	x19,x20,419c <I_blt_cg_cr_rs1_rs2_edges_offset_rs1val_0xffffffff_rs2val_0x80000000+0x24>
4: # done with test

# cr_rs1_rs2_edges_offset (Test source rs1 = 0xffffffff rs2 = 0x80000001)
  RVTEST_TESTDATA_LOAD_INT(x23, x19) # load rs1: x19 = 0xffffffff
    41c0:	000ba983          	lw	x19,0(x23)
    41c4:	004b8b93          	addi	x23,x23,4
  RVTEST_TESTDATA_LOAD_INT(x23, x28) # load rs2: x28 = 0x80000001
    41c8:	000bae03          	lw	x28,0(x23)
    41cc:	004b8b93          	addi	x23,x23,4

000041d0 <I_blt_cg_cr_rs1_rs2_edges_offset_rs1val_0xffffffff_rs2val_0x80000001>:
0: # destination for backwards branch that is never taken
I_blt_cg_cr_rs1_rs2_edges_offset_rs1val_0xffffffff_rs2val_0x80000001:
  blt x19, x28, 3f # forward branch, if taken
    41d0:	05c9c263          	blt	x19,x28,4214 <I_blt_cg_cr_rs1_rs2_edges_offset_rs1val_0xffffffff_rs2val_0x80000001+0x44>
1: # goes here if not taken
  blt x19, x28, 0b # backward branch, never taken
    41d4:	ffc9cee3          	blt	x19,x28,41d0 <I_blt_cg_cr_rs1_rs2_edges_offset_rs1val_0xffffffff_rs2val_0x80000001>
  # Check if x0 contains the expected result. x17 is the signature ptr, x5 is the link ptr, x4 is a temp reg.
  RVTEST_SIGUPD(x17, x5, x4, x0, I_blt_cg_cr_rs1_rs2_edges_offset_rs1val_0xffffffff_rs2val_0x80000001, I_blt_cg_cr_rs1_rs2_edges_offset_rs1val_0xffffffff_rs2val_0x80000001_str)
    41d8:	0008a203          	lw	x4,0(x17)
    41dc:	00020863          	beq	x4,x0,41ec <I_blt_cg_cr_rs1_rs2_edges_offset_rs1val_0xffffffff_rs2val_0x80000001+0x1c>
    41e0:	69d052ef          	jal	x5,a07c <failedtest_x5_x4>
    41e4:	000041d0          	.word	0x000041d0
    41e8:	0000fc52          	.word	0x0000fc52
    41ec:	00488893          	addi	x17,x17,4
  j 4f # done with test
    41f0:	0280006f          	jal	x0,4218 <I_blt_cg_cr_rs1_rs2_edges_offset_rs1val_0xffffffff_rs2val_0x80000001+0x48>
2: # goes here during backward branch if taken
  LI(x19, 1)
    41f4:	00100993          	addi	x19,x0,1
  # Check if x19 contains the expected result. x17 is the signature ptr, x5 is the link ptr, x4 is a temp reg.
  RVTEST_SIGUPD(x17, x5, x4, x19, I_blt_cg_cr_rs1_rs2_edges_offset_rs1val_0xffffffff_rs2val_0x80000001, I_blt_cg_cr_rs1_rs2_edges_offset_rs1val_0xffffffff_rs2val_0x80000001_str) # signature 1 for taken
    41f8:	0008a203          	lw	x4,0(x17)
    41fc:	01320863          	beq	x4,x19,420c <I_blt_cg_cr_rs1_rs2_edges_offset_rs1val_0xffffffff_rs2val_0x80000001+0x3c>
    4200:	67d052ef          	jal	x5,a07c <failedtest_x5_x4>
    4204:	000041d0          	.word	0x000041d0
    4208:	0000fc52          	.word	0x0000fc52
    420c:	00488893          	addi	x17,x17,4
  j 4f # done with test
    4210:	0080006f          	jal	x0,4218 <I_blt_cg_cr_rs1_rs2_edges_offset_rs1val_0xffffffff_rs2val_0x80000001+0x48>
3: # goes here during forward branch if taken
  blt x19, x28, 2b # backward branch, definitely taken
    4214:	ffc9c0e3          	blt	x19,x28,41f4 <I_blt_cg_cr_rs1_rs2_edges_offset_rs1val_0xffffffff_rs2val_0x80000001+0x24>
4: # done with test

# cr_rs1_rs2_edges_offset (Test source rs1 = 0xffffffff rs2 = 0x7fffffff)
  RVTEST_TESTDATA_LOAD_INT(x23, x16) # load rs1: x16 = 0xffffffff
    4218:	000ba803          	lw	x16,0(x23)
    421c:	004b8b93          	addi	x23,x23,4
  RVTEST_TESTDATA_LOAD_INT(x23, x12) # load rs2: x12 = 0x7fffffff
    4220:	000ba603          	lw	x12,0(x23)
    4224:	004b8b93          	addi	x23,x23,4

00004228 <I_blt_cg_cr_rs1_rs2_edges_offset_rs1val_0xffffffff_rs2val_0x7fffffff>:
0: # destination for backwards branch that is never taken
I_blt_cg_cr_rs1_rs2_edges_offset_rs1val_0xffffffff_rs2val_0x7fffffff:
  blt x16, x12, 3f # forward branch, if taken
    4228:	04c84263          	blt	x16,x12,426c <I_blt_cg_cr_rs1_rs2_edges_offset_rs1val_0xffffffff_rs2val_0x7fffffff+0x44>
1: # goes here if not taken
  blt x16, x12, 0b # backward branch, never taken
    422c:	fec84ee3          	blt	x16,x12,4228 <I_blt_cg_cr_rs1_rs2_edges_offset_rs1val_0xffffffff_rs2val_0x7fffffff>
  # Check if x0 contains the expected result. x17 is the signature ptr, x5 is the link ptr, x4 is a temp reg.
  RVTEST_SIGUPD(x17, x5, x4, x0, I_blt_cg_cr_rs1_rs2_edges_offset_rs1val_0xffffffff_rs2val_0x7fffffff, I_blt_cg_cr_rs1_rs2_edges_offset_rs1val_0xffffffff_rs2val_0x7fffffff_str)
    4230:	0008a203          	lw	x4,0(x17)
    4234:	00020863          	beq	x4,x0,4244 <I_blt_cg_cr_rs1_rs2_edges_offset_rs1val_0xffffffff_rs2val_0x7fffffff+0x1c>
    4238:	645052ef          	jal	x5,a07c <failedtest_x5_x4>
    423c:	00004228          	.word	0x00004228
    4240:	0000fcb4          	.word	0x0000fcb4
    4244:	00488893          	addi	x17,x17,4
  j 4f # done with test
    4248:	0280006f          	jal	x0,4270 <I_blt_cg_cr_rs1_rs2_edges_offset_rs1val_0xffffffff_rs2val_0x7fffffff+0x48>
2: # goes here during backward branch if taken
  LI(x16, 1)
    424c:	00100813          	addi	x16,x0,1
  # Check if x16 contains the expected result. x17 is the signature ptr, x5 is the link ptr, x4 is a temp reg.
  RVTEST_SIGUPD(x17, x5, x4, x16, I_blt_cg_cr_rs1_rs2_edges_offset_rs1val_0xffffffff_rs2val_0x7fffffff, I_blt_cg_cr_rs1_rs2_edges_offset_rs1val_0xffffffff_rs2val_0x7fffffff_str) # signature 1 for taken
    4250:	0008a203          	lw	x4,0(x17)
    4254:	01020863          	beq	x4,x16,4264 <I_blt_cg_cr_rs1_rs2_edges_offset_rs1val_0xffffffff_rs2val_0x7fffffff+0x3c>
    4258:	625052ef          	jal	x5,a07c <failedtest_x5_x4>
    425c:	00004228          	.word	0x00004228
    4260:	0000fcb4          	.word	0x0000fcb4
    4264:	00488893          	addi	x17,x17,4
  j 4f # done with test
    4268:	0080006f          	jal	x0,4270 <I_blt_cg_cr_rs1_rs2_edges_offset_rs1val_0xffffffff_rs2val_0x7fffffff+0x48>
3: # goes here during forward branch if taken
  blt x16, x12, 2b # backward branch, definitely taken
    426c:	fec840e3          	blt	x16,x12,424c <I_blt_cg_cr_rs1_rs2_edges_offset_rs1val_0xffffffff_rs2val_0x7fffffff+0x24>
4: # done with test

# cr_rs1_rs2_edges_offset (Test source rs1 = 0xffffffff rs2 = 0x7ffffffe)
  RVTEST_TESTDATA_LOAD_INT(x23, x20) # load rs1: x20 = 0xffffffff
    4270:	000baa03          	lw	x20,0(x23)
    4274:	004b8b93          	addi	x23,x23,4
  RVTEST_TESTDATA_LOAD_INT(x23, x28) # load rs2: x28 = 0x7ffffffe
    4278:	000bae03          	lw	x28,0(x23)
    427c:	004b8b93          	addi	x23,x23,4

00004280 <I_blt_cg_cr_rs1_rs2_edges_offset_rs1val_0xffffffff_rs2val_0x7ffffffe>:
0: # destination for backwards branch that is never taken
I_blt_cg_cr_rs1_rs2_edges_offset_rs1val_0xffffffff_rs2val_0x7ffffffe:
  blt x20, x28, 3f # forward branch, if taken
    4280:	05ca4263          	blt	x20,x28,42c4 <I_blt_cg_cr_rs1_rs2_edges_offset_rs1val_0xffffffff_rs2val_0x7ffffffe+0x44>
1: # goes here if not taken
  blt x20, x28, 0b # backward branch, never taken
    4284:	ffca4ee3          	blt	x20,x28,4280 <I_blt_cg_cr_rs1_rs2_edges_offset_rs1val_0xffffffff_rs2val_0x7ffffffe>
  # Check if x0 contains the expected result. x17 is the signature ptr, x5 is the link ptr, x4 is a temp reg.
  RVTEST_SIGUPD(x17, x5, x4, x0, I_blt_cg_cr_rs1_rs2_edges_offset_rs1val_0xffffffff_rs2val_0x7ffffffe, I_blt_cg_cr_rs1_rs2_edges_offset_rs1val_0xffffffff_rs2val_0x7ffffffe_str)
    4288:	0008a203          	lw	x4,0(x17)
    428c:	00020863          	beq	x4,x0,429c <I_blt_cg_cr_rs1_rs2_edges_offset_rs1val_0xffffffff_rs2val_0x7ffffffe+0x1c>
    4290:	5ed052ef          	jal	x5,a07c <failedtest_x5_x4>
    4294:	00004280          	.word	0x00004280
    4298:	0000fd16          	.word	0x0000fd16
    429c:	00488893          	addi	x17,x17,4
  j 4f # done with test
    42a0:	0280006f          	jal	x0,42c8 <I_blt_cg_cr_rs1_rs2_edges_offset_rs1val_0xffffffff_rs2val_0x7ffffffe+0x48>
2: # goes here during backward branch if taken
  LI(x20, 1)
    42a4:	00100a13          	addi	x20,x0,1
  # Check if x20 contains the expected result. x17 is the signature ptr, x5 is the link ptr, x4 is a temp reg.
  RVTEST_SIGUPD(x17, x5, x4, x20, I_blt_cg_cr_rs1_rs2_edges_offset_rs1val_0xffffffff_rs2val_0x7ffffffe, I_blt_cg_cr_rs1_rs2_edges_offset_rs1val_0xffffffff_rs2val_0x7ffffffe_str) # signature 1 for taken
    42a8:	0008a203          	lw	x4,0(x17)
    42ac:	01420863          	beq	x4,x20,42bc <I_blt_cg_cr_rs1_rs2_edges_offset_rs1val_0xffffffff_rs2val_0x7ffffffe+0x3c>
    42b0:	5cd052ef          	jal	x5,a07c <failedtest_x5_x4>
    42b4:	00004280          	.word	0x00004280
    42b8:	0000fd16          	.word	0x0000fd16
    42bc:	00488893          	addi	x17,x17,4
  j 4f # done with test
    42c0:	0080006f          	jal	x0,42c8 <I_blt_cg_cr_rs1_rs2_edges_offset_rs1val_0xffffffff_rs2val_0x7ffffffe+0x48>
3: # goes here during forward branch if taken
  blt x20, x28, 2b # backward branch, definitely taken
    42c4:	ffca40e3          	blt	x20,x28,42a4 <I_blt_cg_cr_rs1_rs2_edges_offset_rs1val_0xffffffff_rs2val_0x7ffffffe+0x24>
4: # done with test

# cr_rs1_rs2_edges_offset (Test source rs1 = 0xffffffff rs2 = 0xffffffff)
  RVTEST_TESTDATA_LOAD_INT(x23, x12) # load rs1: x12 = 0xffffffff
    42c8:	000ba603          	lw	x12,0(x23)
    42cc:	004b8b93          	addi	x23,x23,4
  RVTEST_TESTDATA_LOAD_INT(x23, x27) # load rs2: x27 = 0xffffffff
    42d0:	000bad83          	lw	x27,0(x23)
    42d4:	004b8b93          	addi	x23,x23,4

000042d8 <I_blt_cg_cr_rs1_rs2_edges_offset_rs1val_0xffffffff_rs2val_0xffffffff>:
0: # destination for backwards branch that is never taken
I_blt_cg_cr_rs1_rs2_edges_offset_rs1val_0xffffffff_rs2val_0xffffffff:
  blt x12, x27, 3f # forward branch, if taken
    42d8:	05b64263          	blt	x12,x27,431c <I_blt_cg_cr_rs1_rs2_edges_offset_rs1val_0xffffffff_rs2val_0xffffffff+0x44>
1: # goes here if not taken
  blt x12, x27, 0b # backward branch, never taken
    42dc:	ffb64ee3          	blt	x12,x27,42d8 <I_blt_cg_cr_rs1_rs2_edges_offset_rs1val_0xffffffff_rs2val_0xffffffff>
  # Check if x0 contains the expected result. x17 is the signature ptr, x5 is the link ptr, x4 is a temp reg.
  RVTEST_SIGUPD(x17, x5, x4, x0, I_blt_cg_cr_rs1_rs2_edges_offset_rs1val_0xffffffff_rs2val_0xffffffff, I_blt_cg_cr_rs1_rs2_edges_offset_rs1val_0xffffffff_rs2val_0xffffffff_str)
    42e0:	0008a203          	lw	x4,0(x17)
    42e4:	00020863          	beq	x4,x0,42f4 <I_blt_cg_cr_rs1_rs2_edges_offset_rs1val_0xffffffff_rs2val_0xffffffff+0x1c>
    42e8:	595052ef          	jal	x5,a07c <failedtest_x5_x4>
    42ec:	000042d8          	.word	0x000042d8
    42f0:	0000fd78          	.word	0x0000fd78
    42f4:	00488893          	addi	x17,x17,4
  j 4f # done with test
    42f8:	0280006f          	jal	x0,4320 <I_blt_cg_cr_rs1_rs2_edges_offset_rs1val_0xffffffff_rs2val_0xffffffff+0x48>
2: # goes here during backward branch if taken
  LI(x12, 1)
    42fc:	00100613          	addi	x12,x0,1
  # Check if x12 contains the expected result. x17 is the signature ptr, x5 is the link ptr, x4 is a temp reg.
  RVTEST_SIGUPD(x17, x5, x4, x12, I_blt_cg_cr_rs1_rs2_edges_offset_rs1val_0xffffffff_rs2val_0xffffffff, I_blt_cg_cr_rs1_rs2_edges_offset_rs1val_0xffffffff_rs2val_0xffffffff_str) # signature 1 for taken
    4300:	0008a203          	lw	x4,0(x17)
    4304:	00c20863          	beq	x4,x12,4314 <I_blt_cg_cr_rs1_rs2_edges_offset_rs1val_0xffffffff_rs2val_0xffffffff+0x3c>
    4308:	575052ef          	jal	x5,a07c <failedtest_x5_x4>
    430c:	000042d8          	.word	0x000042d8
    4310:	0000fd78          	.word	0x0000fd78
    4314:	00488893          	addi	x17,x17,4
  j 4f # done with test
    4318:	0080006f          	jal	x0,4320 <I_blt_cg_cr_rs1_rs2_edges_offset_rs1val_0xffffffff_rs2val_0xffffffff+0x48>
3: # goes here during forward branch if taken
  blt x12, x27, 2b # backward branch, definitely taken
    431c:	ffb640e3          	blt	x12,x27,42fc <I_blt_cg_cr_rs1_rs2_edges_offset_rs1val_0xffffffff_rs2val_0xffffffff+0x24>
4: # done with test

# cr_rs1_rs2_edges_offset (Test source rs1 = 0xffffffff rs2 = 0xfffffffe)
  RVTEST_TESTDATA_LOAD_INT(x23, x25) # load rs1: x25 = 0xffffffff
    4320:	000bac83          	lw	x25,0(x23)
    4324:	004b8b93          	addi	x23,x23,4
  RVTEST_TESTDATA_LOAD_INT(x23, x12) # load rs2: x12 = 0xfffffffe
    4328:	000ba603          	lw	x12,0(x23)
    432c:	004b8b93          	addi	x23,x23,4

00004330 <I_blt_cg_cr_rs1_rs2_edges_offset_rs1val_0xffffffff_rs2val_0xfffffffe>:
0: # destination for backwards branch that is never taken
I_blt_cg_cr_rs1_rs2_edges_offset_rs1val_0xffffffff_rs2val_0xfffffffe:
  blt x25, x12, 3f # forward branch, if taken
    4330:	04ccc263          	blt	x25,x12,4374 <I_blt_cg_cr_rs1_rs2_edges_offset_rs1val_0xffffffff_rs2val_0xfffffffe+0x44>
1: # goes here if not taken
  blt x25, x12, 0b # backward branch, never taken
    4334:	fecccee3          	blt	x25,x12,4330 <I_blt_cg_cr_rs1_rs2_edges_offset_rs1val_0xffffffff_rs2val_0xfffffffe>
  # Check if x0 contains the expected result. x17 is the signature ptr, x5 is the link ptr, x4 is a temp reg.
  RVTEST_SIGUPD(x17, x5, x4, x0, I_blt_cg_cr_rs1_rs2_edges_offset_rs1val_0xffffffff_rs2val_0xfffffffe, I_blt_cg_cr_rs1_rs2_edges_offset_rs1val_0xffffffff_rs2val_0xfffffffe_str)
    4338:	0008a203          	lw	x4,0(x17)
    433c:	00020863          	beq	x4,x0,434c <I_blt_cg_cr_rs1_rs2_edges_offset_rs1val_0xffffffff_rs2val_0xfffffffe+0x1c>
    4340:	53d052ef          	jal	x5,a07c <failedtest_x5_x4>
    4344:	00004330          	.word	0x00004330
    4348:	0000fdda          	.word	0x0000fdda
    434c:	00488893          	addi	x17,x17,4
  j 4f # done with test
    4350:	0280006f          	jal	x0,4378 <I_blt_cg_cr_rs1_rs2_edges_offset_rs1val_0xffffffff_rs2val_0xfffffffe+0x48>
2: # goes here during backward branch if taken
  LI(x25, 1)
    4354:	00100c93          	addi	x25,x0,1
  # Check if x25 contains the expected result. x17 is the signature ptr, x5 is the link ptr, x4 is a temp reg.
  RVTEST_SIGUPD(x17, x5, x4, x25, I_blt_cg_cr_rs1_rs2_edges_offset_rs1val_0xffffffff_rs2val_0xfffffffe, I_blt_cg_cr_rs1_rs2_edges_offset_rs1val_0xffffffff_rs2val_0xfffffffe_str) # signature 1 for taken
    4358:	0008a203          	lw	x4,0(x17)
    435c:	01920863          	beq	x4,x25,436c <I_blt_cg_cr_rs1_rs2_edges_offset_rs1val_0xffffffff_rs2val_0xfffffffe+0x3c>
    4360:	51d052ef          	jal	x5,a07c <failedtest_x5_x4>
    4364:	00004330          	.word	0x00004330
    4368:	0000fdda          	.word	0x0000fdda
    436c:	00488893          	addi	x17,x17,4
  j 4f # done with test
    4370:	0080006f          	jal	x0,4378 <I_blt_cg_cr_rs1_rs2_edges_offset_rs1val_0xffffffff_rs2val_0xfffffffe+0x48>
3: # goes here during forward branch if taken
  blt x25, x12, 2b # backward branch, definitely taken
    4374:	feccc0e3          	blt	x25,x12,4354 <I_blt_cg_cr_rs1_rs2_edges_offset_rs1val_0xffffffff_rs2val_0xfffffffe+0x24>
4: # done with test

# cr_rs1_rs2_edges_offset (Test source rs1 = 0xffffffff rs2 = 0x5bbc8872)
  RVTEST_TESTDATA_LOAD_INT(x23, x6) # load rs1: x6 = 0xffffffff
    4378:	000ba303          	lw	x6,0(x23)
    437c:	004b8b93          	addi	x23,x23,4
  RVTEST_TESTDATA_LOAD_INT(x23, x8) # load rs2: x8 = 0x5bbc8872
    4380:	000ba403          	lw	x8,0(x23)
    4384:	004b8b93          	addi	x23,x23,4

00004388 <I_blt_cg_cr_rs1_rs2_edges_offset_rs1val_0xffffffff_rs2val_0x5bbc8872>:
0: # destination for backwards branch that is never taken
I_blt_cg_cr_rs1_rs2_edges_offset_rs1val_0xffffffff_rs2val_0x5bbc8872:
  blt x6, x8, 3f # forward branch, if taken
    4388:	04834263          	blt	x6,x8,43cc <I_blt_cg_cr_rs1_rs2_edges_offset_rs1val_0xffffffff_rs2val_0x5bbc8872+0x44>
1: # goes here if not taken
  blt x6, x8, 0b # backward branch, never taken
    438c:	fe834ee3          	blt	x6,x8,4388 <I_blt_cg_cr_rs1_rs2_edges_offset_rs1val_0xffffffff_rs2val_0x5bbc8872>
  # Check if x0 contains the expected result. x17 is the signature ptr, x5 is the link ptr, x4 is a temp reg.
  RVTEST_SIGUPD(x17, x5, x4, x0, I_blt_cg_cr_rs1_rs2_edges_offset_rs1val_0xffffffff_rs2val_0x5bbc8872, I_blt_cg_cr_rs1_rs2_edges_offset_rs1val_0xffffffff_rs2val_0x5bbc8872_str)
    4390:	0008a203          	lw	x4,0(x17)
    4394:	00020863          	beq	x4,x0,43a4 <I_blt_cg_cr_rs1_rs2_edges_offset_rs1val_0xffffffff_rs2val_0x5bbc8872+0x1c>
    4398:	4e5052ef          	jal	x5,a07c <failedtest_x5_x4>
    439c:	00004388          	.word	0x00004388
    43a0:	0000fe3c          	.word	0x0000fe3c
    43a4:	00488893          	addi	x17,x17,4
  j 4f # done with test
    43a8:	0280006f          	jal	x0,43d0 <I_blt_cg_cr_rs1_rs2_edges_offset_rs1val_0xffffffff_rs2val_0x5bbc8872+0x48>
2: # goes here during backward branch if taken
  LI(x6, 1)
    43ac:	00100313          	addi	x6,x0,1
  # Check if x6 contains the expected result. x17 is the signature ptr, x5 is the link ptr, x4 is a temp reg.
  RVTEST_SIGUPD(x17, x5, x4, x6, I_blt_cg_cr_rs1_rs2_edges_offset_rs1val_0xffffffff_rs2val_0x5bbc8872, I_blt_cg_cr_rs1_rs2_edges_offset_rs1val_0xffffffff_rs2val_0x5bbc8872_str) # signature 1 for taken
    43b0:	0008a203          	lw	x4,0(x17)
    43b4:	00620863          	beq	x4,x6,43c4 <I_blt_cg_cr_rs1_rs2_edges_offset_rs1val_0xffffffff_rs2val_0x5bbc8872+0x3c>
    43b8:	4c5052ef          	jal	x5,a07c <failedtest_x5_x4>
    43bc:	00004388          	.word	0x00004388
    43c0:	0000fe3c          	.word	0x0000fe3c
    43c4:	00488893          	addi	x17,x17,4
  j 4f # done with test
    43c8:	0080006f          	jal	x0,43d0 <I_blt_cg_cr_rs1_rs2_edges_offset_rs1val_0xffffffff_rs2val_0x5bbc8872+0x48>
3: # goes here during forward branch if taken
  blt x6, x8, 2b # backward branch, definitely taken
    43cc:	fe8340e3          	blt	x6,x8,43ac <I_blt_cg_cr_rs1_rs2_edges_offset_rs1val_0xffffffff_rs2val_0x5bbc8872+0x24>
4: # done with test

# cr_rs1_rs2_edges_offset (Test source rs1 = 0xffffffff rs2 = 0xaaaaaaaa)
  RVTEST_TESTDATA_LOAD_INT(x23, x28) # load rs1: x28 = 0xffffffff
    43d0:	000bae03          	lw	x28,0(x23)
    43d4:	004b8b93          	addi	x23,x23,4
  RVTEST_TESTDATA_LOAD_INT(x23, x2) # load rs2: x2 = 0xaaaaaaaa
    43d8:	000ba103          	lw	x2,0(x23)
    43dc:	004b8b93          	addi	x23,x23,4

000043e0 <I_blt_cg_cr_rs1_rs2_edges_offset_rs1val_0xffffffff_rs2val_0xaaaaaaaa>:
0: # destination for backwards branch that is never taken
I_blt_cg_cr_rs1_rs2_edges_offset_rs1val_0xffffffff_rs2val_0xaaaaaaaa:
  blt x28, x2, 3f # forward branch, if taken
    43e0:	042e4263          	blt	x28,x2,4424 <I_blt_cg_cr_rs1_rs2_edges_offset_rs1val_0xffffffff_rs2val_0xaaaaaaaa+0x44>
1: # goes here if not taken
  blt x28, x2, 0b # backward branch, never taken
    43e4:	fe2e4ee3          	blt	x28,x2,43e0 <I_blt_cg_cr_rs1_rs2_edges_offset_rs1val_0xffffffff_rs2val_0xaaaaaaaa>
  # Check if x0 contains the expected result. x17 is the signature ptr, x5 is the link ptr, x4 is a temp reg.
  RVTEST_SIGUPD(x17, x5, x4, x0, I_blt_cg_cr_rs1_rs2_edges_offset_rs1val_0xffffffff_rs2val_0xaaaaaaaa, I_blt_cg_cr_rs1_rs2_edges_offset_rs1val_0xffffffff_rs2val_0xaaaaaaaa_str)
    43e8:	0008a203          	lw	x4,0(x17)
    43ec:	00020863          	beq	x4,x0,43fc <I_blt_cg_cr_rs1_rs2_edges_offset_rs1val_0xffffffff_rs2val_0xaaaaaaaa+0x1c>
    43f0:	48d052ef          	jal	x5,a07c <failedtest_x5_x4>
    43f4:	000043e0          	.word	0x000043e0
    43f8:	0000fe9e          	.word	0x0000fe9e
    43fc:	00488893          	addi	x17,x17,4
  j 4f # done with test
    4400:	0280006f          	jal	x0,4428 <I_blt_cg_cr_rs1_rs2_edges_offset_rs1val_0xffffffff_rs2val_0xaaaaaaaa+0x48>
2: # goes here during backward branch if taken
  LI(x28, 1)
    4404:	00100e13          	addi	x28,x0,1
  # Check if x28 contains the expected result. x17 is the signature ptr, x5 is the link ptr, x4 is a temp reg.
  RVTEST_SIGUPD(x17, x5, x4, x28, I_blt_cg_cr_rs1_rs2_edges_offset_rs1val_0xffffffff_rs2val_0xaaaaaaaa, I_blt_cg_cr_rs1_rs2_edges_offset_rs1val_0xffffffff_rs2val_0xaaaaaaaa_str) # signature 1 for taken
    4408:	0008a203          	lw	x4,0(x17)
    440c:	01c20863          	beq	x4,x28,441c <I_blt_cg_cr_rs1_rs2_edges_offset_rs1val_0xffffffff_rs2val_0xaaaaaaaa+0x3c>
    4410:	46d052ef          	jal	x5,a07c <failedtest_x5_x4>
    4414:	000043e0          	.word	0x000043e0
    4418:	0000fe9e          	.word	0x0000fe9e
    441c:	00488893          	addi	x17,x17,4
  j 4f # done with test
    4420:	0080006f          	jal	x0,4428 <I_blt_cg_cr_rs1_rs2_edges_offset_rs1val_0xffffffff_rs2val_0xaaaaaaaa+0x48>
3: # goes here during forward branch if taken
  blt x28, x2, 2b # backward branch, definitely taken
    4424:	fe2e40e3          	blt	x28,x2,4404 <I_blt_cg_cr_rs1_rs2_edges_offset_rs1val_0xffffffff_rs2val_0xaaaaaaaa+0x24>
4: # done with test

# cr_rs1_rs2_edges_offset (Test source rs1 = 0xffffffff rs2 = 0x55555555)
  RVTEST_TESTDATA_LOAD_INT(x23, x30) # load rs1: x30 = 0xffffffff
    4428:	000baf03          	lw	x30,0(x23)
    442c:	004b8b93          	addi	x23,x23,4
  RVTEST_TESTDATA_LOAD_INT(x23, x28) # load rs2: x28 = 0x55555555
    4430:	000bae03          	lw	x28,0(x23)
    4434:	004b8b93          	addi	x23,x23,4

00004438 <I_blt_cg_cr_rs1_rs2_edges_offset_rs1val_0xffffffff_rs2val_0x55555555>:
0: # destination for backwards branch that is never taken
I_blt_cg_cr_rs1_rs2_edges_offset_rs1val_0xffffffff_rs2val_0x55555555:
  blt x30, x28, 3f # forward branch, if taken
    4438:	05cf4263          	blt	x30,x28,447c <I_blt_cg_cr_rs1_rs2_edges_offset_rs1val_0xffffffff_rs2val_0x55555555+0x44>
1: # goes here if not taken
  blt x30, x28, 0b # backward branch, never taken
    443c:	ffcf4ee3          	blt	x30,x28,4438 <I_blt_cg_cr_rs1_rs2_edges_offset_rs1val_0xffffffff_rs2val_0x55555555>
  # Check if x0 contains the expected result. x17 is the signature ptr, x5 is the link ptr, x4 is a temp reg.
  RVTEST_SIGUPD(x17, x5, x4, x0, I_blt_cg_cr_rs1_rs2_edges_offset_rs1val_0xffffffff_rs2val_0x55555555, I_blt_cg_cr_rs1_rs2_edges_offset_rs1val_0xffffffff_rs2val_0x55555555_str)
    4440:	0008a203          	lw	x4,0(x17)
    4444:	00020863          	beq	x4,x0,4454 <I_blt_cg_cr_rs1_rs2_edges_offset_rs1val_0xffffffff_rs2val_0x55555555+0x1c>
    4448:	435052ef          	jal	x5,a07c <failedtest_x5_x4>
    444c:	00004438          	.word	0x00004438
    4450:	0000ff00          	.word	0x0000ff00
    4454:	00488893          	addi	x17,x17,4
  j 4f # done with test
    4458:	0280006f          	jal	x0,4480 <I_blt_cg_cr_rs1_rs2_edges_offset_rs1val_0xffffffff_rs2val_0x55555555+0x48>
2: # goes here during backward branch if taken
  LI(x30, 1)
    445c:	00100f13          	addi	x30,x0,1
  # Check if x30 contains the expected result. x17 is the signature ptr, x5 is the link ptr, x4 is a temp reg.
  RVTEST_SIGUPD(x17, x5, x4, x30, I_blt_cg_cr_rs1_rs2_edges_offset_rs1val_0xffffffff_rs2val_0x55555555, I_blt_cg_cr_rs1_rs2_edges_offset_rs1val_0xffffffff_rs2val_0x55555555_str) # signature 1 for taken
    4460:	0008a203          	lw	x4,0(x17)
    4464:	01e20863          	beq	x4,x30,4474 <I_blt_cg_cr_rs1_rs2_edges_offset_rs1val_0xffffffff_rs2val_0x55555555+0x3c>
    4468:	415052ef          	jal	x5,a07c <failedtest_x5_x4>
    446c:	00004438          	.word	0x00004438
    4470:	0000ff00          	.word	0x0000ff00
    4474:	00488893          	addi	x17,x17,4
  j 4f # done with test
    4478:	0080006f          	jal	x0,4480 <I_blt_cg_cr_rs1_rs2_edges_offset_rs1val_0xffffffff_rs2val_0x55555555+0x48>
3: # goes here during forward branch if taken
  blt x30, x28, 2b # backward branch, definitely taken
    447c:	ffcf40e3          	blt	x30,x28,445c <I_blt_cg_cr_rs1_rs2_edges_offset_rs1val_0xffffffff_rs2val_0x55555555+0x24>
4: # done with test

# cr_rs1_rs2_edges_offset (Test source rs1 = 0xfffffffe rs2 = 0x00000000)
  RVTEST_TESTDATA_LOAD_INT(x23, x7) # load rs1: x7 = 0xfffffffe
    4480:	000ba383          	lw	x7,0(x23)
    4484:	004b8b93          	addi	x23,x23,4
  RVTEST_TESTDATA_LOAD_INT(x23, x24) # load rs2: x24 = 0x00000000
    4488:	000bac03          	lw	x24,0(x23)
    448c:	004b8b93          	addi	x23,x23,4

00004490 <I_blt_cg_cr_rs1_rs2_edges_offset_rs1val_0xfffffffe_rs2val_0x0>:
0: # destination for backwards branch that is never taken
I_blt_cg_cr_rs1_rs2_edges_offset_rs1val_0xfffffffe_rs2val_0x0:
  blt x7, x24, 3f # forward branch, if taken
    4490:	0583c263          	blt	x7,x24,44d4 <I_blt_cg_cr_rs1_rs2_edges_offset_rs1val_0xfffffffe_rs2val_0x0+0x44>
1: # goes here if not taken
  blt x7, x24, 0b # backward branch, never taken
    4494:	ff83cee3          	blt	x7,x24,4490 <I_blt_cg_cr_rs1_rs2_edges_offset_rs1val_0xfffffffe_rs2val_0x0>
  # Check if x0 contains the expected result. x17 is the signature ptr, x5 is the link ptr, x4 is a temp reg.
  RVTEST_SIGUPD(x17, x5, x4, x0, I_blt_cg_cr_rs1_rs2_edges_offset_rs1val_0xfffffffe_rs2val_0x0, I_blt_cg_cr_rs1_rs2_edges_offset_rs1val_0xfffffffe_rs2val_0x0_str)
    4498:	0008a203          	lw	x4,0(x17)
    449c:	00020863          	beq	x4,x0,44ac <I_blt_cg_cr_rs1_rs2_edges_offset_rs1val_0xfffffffe_rs2val_0x0+0x1c>
    44a0:	3dd052ef          	jal	x5,a07c <failedtest_x5_x4>
    44a4:	00004490          	.word	0x00004490
    44a8:	0000ff62          	.word	0x0000ff62
    44ac:	00488893          	addi	x17,x17,4
  j 4f # done with test
    44b0:	0280006f          	jal	x0,44d8 <I_blt_cg_cr_rs1_rs2_edges_offset_rs1val_0xfffffffe_rs2val_0x0+0x48>
2: # goes here during backward branch if taken
  LI(x7, 1)
    44b4:	00100393          	addi	x7,x0,1
  # Check if x7 contains the expected result. x17 is the signature ptr, x5 is the link ptr, x4 is a temp reg.
  RVTEST_SIGUPD(x17, x5, x4, x7, I_blt_cg_cr_rs1_rs2_edges_offset_rs1val_0xfffffffe_rs2val_0x0, I_blt_cg_cr_rs1_rs2_edges_offset_rs1val_0xfffffffe_rs2val_0x0_str) # signature 1 for taken
    44b8:	0008a203          	lw	x4,0(x17)
    44bc:	00720863          	beq	x4,x7,44cc <I_blt_cg_cr_rs1_rs2_edges_offset_rs1val_0xfffffffe_rs2val_0x0+0x3c>
    44c0:	3bd052ef          	jal	x5,a07c <failedtest_x5_x4>
    44c4:	00004490          	.word	0x00004490
    44c8:	0000ff62          	.word	0x0000ff62
    44cc:	00488893          	addi	x17,x17,4
  j 4f # done with test
    44d0:	0080006f          	jal	x0,44d8 <I_blt_cg_cr_rs1_rs2_edges_offset_rs1val_0xfffffffe_rs2val_0x0+0x48>
3: # goes here during forward branch if taken
  blt x7, x24, 2b # backward branch, definitely taken
    44d4:	ff83c0e3          	blt	x7,x24,44b4 <I_blt_cg_cr_rs1_rs2_edges_offset_rs1val_0xfffffffe_rs2val_0x0+0x24>
4: # done with test

# cr_rs1_rs2_edges_offset (Test source rs1 = 0xfffffffe rs2 = 0x00000001)
  RVTEST_TESTDATA_LOAD_INT(x23, x26) # load rs1: x26 = 0xfffffffe
    44d8:	000bad03          	lw	x26,0(x23)
    44dc:	004b8b93          	addi	x23,x23,4
  RVTEST_TESTDATA_LOAD_INT(x23, x7) # load rs2: x7 = 0x00000001
    44e0:	000ba383          	lw	x7,0(x23)
    44e4:	004b8b93          	addi	x23,x23,4

000044e8 <I_blt_cg_cr_rs1_rs2_edges_offset_rs1val_0xfffffffe_rs2val_0x1>:
0: # destination for backwards branch that is never taken
I_blt_cg_cr_rs1_rs2_edges_offset_rs1val_0xfffffffe_rs2val_0x1:
  blt x26, x7, 3f # forward branch, if taken
    44e8:	047d4263          	blt	x26,x7,452c <I_blt_cg_cr_rs1_rs2_edges_offset_rs1val_0xfffffffe_rs2val_0x1+0x44>
1: # goes here if not taken
  blt x26, x7, 0b # backward branch, never taken
    44ec:	fe7d4ee3          	blt	x26,x7,44e8 <I_blt_cg_cr_rs1_rs2_edges_offset_rs1val_0xfffffffe_rs2val_0x1>
  # Check if x0 contains the expected result. x17 is the signature ptr, x5 is the link ptr, x4 is a temp reg.
  RVTEST_SIGUPD(x17, x5, x4, x0, I_blt_cg_cr_rs1_rs2_edges_offset_rs1val_0xfffffffe_rs2val_0x1, I_blt_cg_cr_rs1_rs2_edges_offset_rs1val_0xfffffffe_rs2val_0x1_str)
    44f0:	0008a203          	lw	x4,0(x17)
    44f4:	00020863          	beq	x4,x0,4504 <I_blt_cg_cr_rs1_rs2_edges_offset_rs1val_0xfffffffe_rs2val_0x1+0x1c>
    44f8:	385052ef          	jal	x5,a07c <failedtest_x5_x4>
    44fc:	000044e8          	.word	0x000044e8
    4500:	0000ffbd          	.word	0x0000ffbd
    4504:	00488893          	addi	x17,x17,4
  j 4f # done with test
    4508:	0280006f          	jal	x0,4530 <I_blt_cg_cr_rs1_rs2_edges_offset_rs1val_0xfffffffe_rs2val_0x1+0x48>
2: # goes here during backward branch if taken
  LI(x26, 1)
    450c:	00100d13          	addi	x26,x0,1
  # Check if x26 contains the expected result. x17 is the signature ptr, x5 is the link ptr, x4 is a temp reg.
  RVTEST_SIGUPD(x17, x5, x4, x26, I_blt_cg_cr_rs1_rs2_edges_offset_rs1val_0xfffffffe_rs2val_0x1, I_blt_cg_cr_rs1_rs2_edges_offset_rs1val_0xfffffffe_rs2val_0x1_str) # signature 1 for taken
    4510:	0008a203          	lw	x4,0(x17)
    4514:	01a20863          	beq	x4,x26,4524 <I_blt_cg_cr_rs1_rs2_edges_offset_rs1val_0xfffffffe_rs2val_0x1+0x3c>
    4518:	365052ef          	jal	x5,a07c <failedtest_x5_x4>
    451c:	000044e8          	.word	0x000044e8
    4520:	0000ffbd          	.word	0x0000ffbd
    4524:	00488893          	addi	x17,x17,4
  j 4f # done with test
    4528:	0080006f          	jal	x0,4530 <I_blt_cg_cr_rs1_rs2_edges_offset_rs1val_0xfffffffe_rs2val_0x1+0x48>
3: # goes here during forward branch if taken
  blt x26, x7, 2b # backward branch, definitely taken
    452c:	fe7d40e3          	blt	x26,x7,450c <I_blt_cg_cr_rs1_rs2_edges_offset_rs1val_0xfffffffe_rs2val_0x1+0x24>
4: # done with test

# cr_rs1_rs2_edges_offset (Test source rs1 = 0xfffffffe rs2 = 0x00000002)
  RVTEST_TESTDATA_LOAD_INT(x23, x8) # load rs1: x8 = 0xfffffffe
    4530:	000ba403          	lw	x8,0(x23)
    4534:	004b8b93          	addi	x23,x23,4
  RVTEST_TESTDATA_LOAD_INT(x23, x16) # load rs2: x16 = 0x00000002
    4538:	000ba803          	lw	x16,0(x23)
    453c:	004b8b93          	addi	x23,x23,4

00004540 <I_blt_cg_cr_rs1_rs2_edges_offset_rs1val_0xfffffffe_rs2val_0x2>:
0: # destination for backwards branch that is never taken
I_blt_cg_cr_rs1_rs2_edges_offset_rs1val_0xfffffffe_rs2val_0x2:
  blt x8, x16, 3f # forward branch, if taken
    4540:	05044263          	blt	x8,x16,4584 <I_blt_cg_cr_rs1_rs2_edges_offset_rs1val_0xfffffffe_rs2val_0x2+0x44>
1: # goes here if not taken
  blt x8, x16, 0b # backward branch, never taken
    4544:	ff044ee3          	blt	x8,x16,4540 <I_blt_cg_cr_rs1_rs2_edges_offset_rs1val_0xfffffffe_rs2val_0x2>
  # Check if x0 contains the expected result. x17 is the signature ptr, x5 is the link ptr, x4 is a temp reg.
  RVTEST_SIGUPD(x17, x5, x4, x0, I_blt_cg_cr_rs1_rs2_edges_offset_rs1val_0xfffffffe_rs2val_0x2, I_blt_cg_cr_rs1_rs2_edges_offset_rs1val_0xfffffffe_rs2val_0x2_str)
    4548:	0008a203          	lw	x4,0(x17)
    454c:	00020863          	beq	x4,x0,455c <I_blt_cg_cr_rs1_rs2_edges_offset_rs1val_0xfffffffe_rs2val_0x2+0x1c>
    4550:	32d052ef          	jal	x5,a07c <failedtest_x5_x4>
    4554:	00004540          	.word	0x00004540
    4558:	00010018          	.word	0x00010018
    455c:	00488893          	addi	x17,x17,4
  j 4f # done with test
    4560:	0280006f          	jal	x0,4588 <I_blt_cg_cr_rs1_rs2_edges_offset_rs1val_0xfffffffe_rs2val_0x2+0x48>
2: # goes here during backward branch if taken
  LI(x8, 1)
    4564:	00100413          	addi	x8,x0,1
  # Check if x8 contains the expected result. x17 is the signature ptr, x5 is the link ptr, x4 is a temp reg.
  RVTEST_SIGUPD(x17, x5, x4, x8, I_blt_cg_cr_rs1_rs2_edges_offset_rs1val_0xfffffffe_rs2val_0x2, I_blt_cg_cr_rs1_rs2_edges_offset_rs1val_0xfffffffe_rs2val_0x2_str) # signature 1 for taken
    4568:	0008a203          	lw	x4,0(x17)
    456c:	00820863          	beq	x4,x8,457c <I_blt_cg_cr_rs1_rs2_edges_offset_rs1val_0xfffffffe_rs2val_0x2+0x3c>
    4570:	30d052ef          	jal	x5,a07c <failedtest_x5_x4>
    4574:	00004540          	.word	0x00004540
    4578:	00010018          	.word	0x00010018
    457c:	00488893          	addi	x17,x17,4
  j 4f # done with test
    4580:	0080006f          	jal	x0,4588 <I_blt_cg_cr_rs1_rs2_edges_offset_rs1val_0xfffffffe_rs2val_0x2+0x48>
3: # goes here during forward branch if taken
  blt x8, x16, 2b # backward branch, definitely taken
    4584:	ff0440e3          	blt	x8,x16,4564 <I_blt_cg_cr_rs1_rs2_edges_offset_rs1val_0xfffffffe_rs2val_0x2+0x24>
4: # done with test

# cr_rs1_rs2_edges_offset (Test source rs1 = 0xfffffffe rs2 = 0x80000000)
  RVTEST_TESTDATA_LOAD_INT(x23, x16) # load rs1: x16 = 0xfffffffe
    4588:	000ba803          	lw	x16,0(x23)
    458c:	004b8b93          	addi	x23,x23,4
  RVTEST_TESTDATA_LOAD_INT(x23, x27) # load rs2: x27 = 0x80000000
    4590:	000bad83          	lw	x27,0(x23)
    4594:	004b8b93          	addi	x23,x23,4

00004598 <I_blt_cg_cr_rs1_rs2_edges_offset_rs1val_0xfffffffe_rs2val_0x80000000>:
0: # destination for backwards branch that is never taken
I_blt_cg_cr_rs1_rs2_edges_offset_rs1val_0xfffffffe_rs2val_0x80000000:
  blt x16, x27, 3f # forward branch, if taken
    4598:	05b84263          	blt	x16,x27,45dc <I_blt_cg_cr_rs1_rs2_edges_offset_rs1val_0xfffffffe_rs2val_0x80000000+0x44>
1: # goes here if not taken
  blt x16, x27, 0b # backward branch, never taken
    459c:	ffb84ee3          	blt	x16,x27,4598 <I_blt_cg_cr_rs1_rs2_edges_offset_rs1val_0xfffffffe_rs2val_0x80000000>
  # Check if x0 contains the expected result. x17 is the signature ptr, x5 is the link ptr, x4 is a temp reg.
  RVTEST_SIGUPD(x17, x5, x4, x0, I_blt_cg_cr_rs1_rs2_edges_offset_rs1val_0xfffffffe_rs2val_0x80000000, I_blt_cg_cr_rs1_rs2_edges_offset_rs1val_0xfffffffe_rs2val_0x80000000_str)
    45a0:	0008a203          	lw	x4,0(x17)
    45a4:	00020863          	beq	x4,x0,45b4 <I_blt_cg_cr_rs1_rs2_edges_offset_rs1val_0xfffffffe_rs2val_0x80000000+0x1c>
    45a8:	2d5052ef          	jal	x5,a07c <failedtest_x5_x4>
    45ac:	00004598          	.word	0x00004598
    45b0:	00010073          	.word	0x00010073
    45b4:	00488893          	addi	x17,x17,4
  j 4f # done with test
    45b8:	0280006f          	jal	x0,45e0 <I_blt_cg_cr_rs1_rs2_edges_offset_rs1val_0xfffffffe_rs2val_0x80000000+0x48>
2: # goes here during backward branch if taken
  LI(x16, 1)
    45bc:	00100813          	addi	x16,x0,1
  # Check if x16 contains the expected result. x17 is the signature ptr, x5 is the link ptr, x4 is a temp reg.
  RVTEST_SIGUPD(x17, x5, x4, x16, I_blt_cg_cr_rs1_rs2_edges_offset_rs1val_0xfffffffe_rs2val_0x80000000, I_blt_cg_cr_rs1_rs2_edges_offset_rs1val_0xfffffffe_rs2val_0x80000000_str) # signature 1 for taken
    45c0:	0008a203          	lw	x4,0(x17)
    45c4:	01020863          	beq	x4,x16,45d4 <I_blt_cg_cr_rs1_rs2_edges_offset_rs1val_0xfffffffe_rs2val_0x80000000+0x3c>
    45c8:	2b5052ef          	jal	x5,a07c <failedtest_x5_x4>
    45cc:	00004598          	.word	0x00004598
    45d0:	00010073          	.word	0x00010073
    45d4:	00488893          	addi	x17,x17,4
  j 4f # done with test
    45d8:	0080006f          	jal	x0,45e0 <I_blt_cg_cr_rs1_rs2_edges_offset_rs1val_0xfffffffe_rs2val_0x80000000+0x48>
3: # goes here during forward branch if taken
  blt x16, x27, 2b # backward branch, definitely taken
    45dc:	ffb840e3          	blt	x16,x27,45bc <I_blt_cg_cr_rs1_rs2_edges_offset_rs1val_0xfffffffe_rs2val_0x80000000+0x24>
4: # done with test

# cr_rs1_rs2_edges_offset (Test source rs1 = 0xfffffffe rs2 = 0x80000001)
  RVTEST_TESTDATA_LOAD_INT(x23, x24) # load rs1: x24 = 0xfffffffe
    45e0:	000bac03          	lw	x24,0(x23)
    45e4:	004b8b93          	addi	x23,x23,4
  RVTEST_TESTDATA_LOAD_INT(x23, x6) # load rs2: x6 = 0x80000001
    45e8:	000ba303          	lw	x6,0(x23)
    45ec:	004b8b93          	addi	x23,x23,4

000045f0 <I_blt_cg_cr_rs1_rs2_edges_offset_rs1val_0xfffffffe_rs2val_0x80000001>:
0: # destination for backwards branch that is never taken
I_blt_cg_cr_rs1_rs2_edges_offset_rs1val_0xfffffffe_rs2val_0x80000001:
  blt x24, x6, 3f # forward branch, if taken
    45f0:	046c4263          	blt	x24,x6,4634 <I_blt_cg_cr_rs1_rs2_edges_offset_rs1val_0xfffffffe_rs2val_0x80000001+0x44>
1: # goes here if not taken
  blt x24, x6, 0b # backward branch, never taken
    45f4:	fe6c4ee3          	blt	x24,x6,45f0 <I_blt_cg_cr_rs1_rs2_edges_offset_rs1val_0xfffffffe_rs2val_0x80000001>
  # Check if x0 contains the expected result. x17 is the signature ptr, x5 is the link ptr, x4 is a temp reg.
  RVTEST_SIGUPD(x17, x5, x4, x0, I_blt_cg_cr_rs1_rs2_edges_offset_rs1val_0xfffffffe_rs2val_0x80000001, I_blt_cg_cr_rs1_rs2_edges_offset_rs1val_0xfffffffe_rs2val_0x80000001_str)
    45f8:	0008a203          	lw	x4,0(x17)
    45fc:	00020863          	beq	x4,x0,460c <I_blt_cg_cr_rs1_rs2_edges_offset_rs1val_0xfffffffe_rs2val_0x80000001+0x1c>
    4600:	27d052ef          	jal	x5,a07c <failedtest_x5_x4>
    4604:	000045f0          	.word	0x000045f0
    4608:	000100d5          	.word	0x000100d5
    460c:	00488893          	addi	x17,x17,4
  j 4f # done with test
    4610:	0280006f          	jal	x0,4638 <I_blt_cg_cr_rs1_rs2_edges_offset_rs1val_0xfffffffe_rs2val_0x80000001+0x48>
2: # goes here during backward branch if taken
  LI(x24, 1)
    4614:	00100c13          	addi	x24,x0,1
  # Check if x24 contains the expected result. x17 is the signature ptr, x5 is the link ptr, x4 is a temp reg.
  RVTEST_SIGUPD(x17, x5, x4, x24, I_blt_cg_cr_rs1_rs2_edges_offset_rs1val_0xfffffffe_rs2val_0x80000001, I_blt_cg_cr_rs1_rs2_edges_offset_rs1val_0xfffffffe_rs2val_0x80000001_str) # signature 1 for taken
    4618:	0008a203          	lw	x4,0(x17)
    461c:	01820863          	beq	x4,x24,462c <I_blt_cg_cr_rs1_rs2_edges_offset_rs1val_0xfffffffe_rs2val_0x80000001+0x3c>
    4620:	25d052ef          	jal	x5,a07c <failedtest_x5_x4>
    4624:	000045f0          	.word	0x000045f0
    4628:	000100d5          	.word	0x000100d5
    462c:	00488893          	addi	x17,x17,4
  j 4f # done with test
    4630:	0080006f          	jal	x0,4638 <I_blt_cg_cr_rs1_rs2_edges_offset_rs1val_0xfffffffe_rs2val_0x80000001+0x48>
3: # goes here during forward branch if taken
  blt x24, x6, 2b # backward branch, definitely taken
    4634:	fe6c40e3          	blt	x24,x6,4614 <I_blt_cg_cr_rs1_rs2_edges_offset_rs1val_0xfffffffe_rs2val_0x80000001+0x24>
4: # done with test

# cr_rs1_rs2_edges_offset (Test source rs1 = 0xfffffffe rs2 = 0x7fffffff)
  RVTEST_TESTDATA_LOAD_INT(x23, x28) # load rs1: x28 = 0xfffffffe
    4638:	000bae03          	lw	x28,0(x23)
    463c:	004b8b93          	addi	x23,x23,4
  RVTEST_TESTDATA_LOAD_INT(x23, x11) # load rs2: x11 = 0x7fffffff
    4640:	000ba583          	lw	x11,0(x23)
    4644:	004b8b93          	addi	x23,x23,4

00004648 <I_blt_cg_cr_rs1_rs2_edges_offset_rs1val_0xfffffffe_rs2val_0x7fffffff>:
0: # destination for backwards branch that is never taken
I_blt_cg_cr_rs1_rs2_edges_offset_rs1val_0xfffffffe_rs2val_0x7fffffff:
  blt x28, x11, 3f # forward branch, if taken
    4648:	04be4263          	blt	x28,x11,468c <I_blt_cg_cr_rs1_rs2_edges_offset_rs1val_0xfffffffe_rs2val_0x7fffffff+0x44>
1: # goes here if not taken
  blt x28, x11, 0b # backward branch, never taken
    464c:	febe4ee3          	blt	x28,x11,4648 <I_blt_cg_cr_rs1_rs2_edges_offset_rs1val_0xfffffffe_rs2val_0x7fffffff>
  # Check if x0 contains the expected result. x17 is the signature ptr, x5 is the link ptr, x4 is a temp reg.
  RVTEST_SIGUPD(x17, x5, x4, x0, I_blt_cg_cr_rs1_rs2_edges_offset_rs1val_0xfffffffe_rs2val_0x7fffffff, I_blt_cg_cr_rs1_rs2_edges_offset_rs1val_0xfffffffe_rs2val_0x7fffffff_str)
    4650:	0008a203          	lw	x4,0(x17)
    4654:	00020863          	beq	x4,x0,4664 <I_blt_cg_cr_rs1_rs2_edges_offset_rs1val_0xfffffffe_rs2val_0x7fffffff+0x1c>
    4658:	225052ef          	jal	x5,a07c <failedtest_x5_x4>
    465c:	00004648          	.word	0x00004648
    4660:	00010137          	.word	0x00010137
    4664:	00488893          	addi	x17,x17,4
  j 4f # done with test
    4668:	0280006f          	jal	x0,4690 <I_blt_cg_cr_rs1_rs2_edges_offset_rs1val_0xfffffffe_rs2val_0x7fffffff+0x48>
2: # goes here during backward branch if taken
  LI(x28, 1)
    466c:	00100e13          	addi	x28,x0,1
  # Check if x28 contains the expected result. x17 is the signature ptr, x5 is the link ptr, x4 is a temp reg.
  RVTEST_SIGUPD(x17, x5, x4, x28, I_blt_cg_cr_rs1_rs2_edges_offset_rs1val_0xfffffffe_rs2val_0x7fffffff, I_blt_cg_cr_rs1_rs2_edges_offset_rs1val_0xfffffffe_rs2val_0x7fffffff_str) # signature 1 for taken
    4670:	0008a203          	lw	x4,0(x17)
    4674:	01c20863          	beq	x4,x28,4684 <I_blt_cg_cr_rs1_rs2_edges_offset_rs1val_0xfffffffe_rs2val_0x7fffffff+0x3c>
    4678:	205052ef          	jal	x5,a07c <failedtest_x5_x4>
    467c:	00004648          	.word	0x00004648
    4680:	00010137          	.word	0x00010137
    4684:	00488893          	addi	x17,x17,4
  j 4f # done with test
    4688:	0080006f          	jal	x0,4690 <I_blt_cg_cr_rs1_rs2_edges_offset_rs1val_0xfffffffe_rs2val_0x7fffffff+0x48>
3: # goes here during forward branch if taken
  blt x28, x11, 2b # backward branch, definitely taken
    468c:	febe40e3          	blt	x28,x11,466c <I_blt_cg_cr_rs1_rs2_edges_offset_rs1val_0xfffffffe_rs2val_0x7fffffff+0x24>
4: # done with test

# cr_rs1_rs2_edges_offset (Test source rs1 = 0xfffffffe rs2 = 0x7ffffffe)
  RVTEST_TESTDATA_LOAD_INT(x23, x9) # load rs1: x9 = 0xfffffffe
    4690:	000ba483          	lw	x9,0(x23)
    4694:	004b8b93          	addi	x23,x23,4
  RVTEST_TESTDATA_LOAD_INT(x23, x20) # load rs2: x20 = 0x7ffffffe
    4698:	000baa03          	lw	x20,0(x23)
    469c:	004b8b93          	addi	x23,x23,4

000046a0 <I_blt_cg_cr_rs1_rs2_edges_offset_rs1val_0xfffffffe_rs2val_0x7ffffffe>:
0: # destination for backwards branch that is never taken
I_blt_cg_cr_rs1_rs2_edges_offset_rs1val_0xfffffffe_rs2val_0x7ffffffe:
  blt x9, x20, 3f # forward branch, if taken
    46a0:	0544c263          	blt	x9,x20,46e4 <I_blt_cg_cr_rs1_rs2_edges_offset_rs1val_0xfffffffe_rs2val_0x7ffffffe+0x44>
1: # goes here if not taken
  blt x9, x20, 0b # backward branch, never taken
    46a4:	ff44cee3          	blt	x9,x20,46a0 <I_blt_cg_cr_rs1_rs2_edges_offset_rs1val_0xfffffffe_rs2val_0x7ffffffe>
  # Check if x0 contains the expected result. x17 is the signature ptr, x5 is the link ptr, x4 is a temp reg.
  RVTEST_SIGUPD(x17, x5, x4, x0, I_blt_cg_cr_rs1_rs2_edges_offset_rs1val_0xfffffffe_rs2val_0x7ffffffe, I_blt_cg_cr_rs1_rs2_edges_offset_rs1val_0xfffffffe_rs2val_0x7ffffffe_str)
    46a8:	0008a203          	lw	x4,0(x17)
    46ac:	00020863          	beq	x4,x0,46bc <I_blt_cg_cr_rs1_rs2_edges_offset_rs1val_0xfffffffe_rs2val_0x7ffffffe+0x1c>
    46b0:	1cd052ef          	jal	x5,a07c <failedtest_x5_x4>
    46b4:	000046a0          	.word	0x000046a0
    46b8:	00010199          	.word	0x00010199
    46bc:	00488893          	addi	x17,x17,4
  j 4f # done with test
    46c0:	0280006f          	jal	x0,46e8 <I_blt_cg_cr_rs1_rs2_edges_offset_rs1val_0xfffffffe_rs2val_0x7ffffffe+0x48>
2: # goes here during backward branch if taken
  LI(x9, 1)
    46c4:	00100493          	addi	x9,x0,1
  # Check if x9 contains the expected result. x17 is the signature ptr, x5 is the link ptr, x4 is a temp reg.
  RVTEST_SIGUPD(x17, x5, x4, x9, I_blt_cg_cr_rs1_rs2_edges_offset_rs1val_0xfffffffe_rs2val_0x7ffffffe, I_blt_cg_cr_rs1_rs2_edges_offset_rs1val_0xfffffffe_rs2val_0x7ffffffe_str) # signature 1 for taken
    46c8:	0008a203          	lw	x4,0(x17)
    46cc:	00920863          	beq	x4,x9,46dc <I_blt_cg_cr_rs1_rs2_edges_offset_rs1val_0xfffffffe_rs2val_0x7ffffffe+0x3c>
    46d0:	1ad052ef          	jal	x5,a07c <failedtest_x5_x4>
    46d4:	000046a0          	.word	0x000046a0
    46d8:	00010199          	.word	0x00010199
    46dc:	00488893          	addi	x17,x17,4
  j 4f # done with test
    46e0:	0080006f          	jal	x0,46e8 <I_blt_cg_cr_rs1_rs2_edges_offset_rs1val_0xfffffffe_rs2val_0x7ffffffe+0x48>
3: # goes here during forward branch if taken
  blt x9, x20, 2b # backward branch, definitely taken
    46e4:	ff44c0e3          	blt	x9,x20,46c4 <I_blt_cg_cr_rs1_rs2_edges_offset_rs1val_0xfffffffe_rs2val_0x7ffffffe+0x24>
4: # done with test

# cr_rs1_rs2_edges_offset (Test source rs1 = 0xfffffffe rs2 = 0xffffffff)
  RVTEST_TESTDATA_LOAD_INT(x23, x19) # load rs1: x19 = 0xfffffffe
    46e8:	000ba983          	lw	x19,0(x23)
    46ec:	004b8b93          	addi	x23,x23,4
  RVTEST_TESTDATA_LOAD_INT(x23, x18) # load rs2: x18 = 0xffffffff
    46f0:	000ba903          	lw	x18,0(x23)
    46f4:	004b8b93          	addi	x23,x23,4

000046f8 <I_blt_cg_cr_rs1_rs2_edges_offset_rs1val_0xfffffffe_rs2val_0xffffffff>:
0: # destination for backwards branch that is never taken
I_blt_cg_cr_rs1_rs2_edges_offset_rs1val_0xfffffffe_rs2val_0xffffffff:
  blt x19, x18, 3f # forward branch, if taken
    46f8:	0529c263          	blt	x19,x18,473c <I_blt_cg_cr_rs1_rs2_edges_offset_rs1val_0xfffffffe_rs2val_0xffffffff+0x44>
1: # goes here if not taken
  blt x19, x18, 0b # backward branch, never taken
    46fc:	ff29cee3          	blt	x19,x18,46f8 <I_blt_cg_cr_rs1_rs2_edges_offset_rs1val_0xfffffffe_rs2val_0xffffffff>
  # Check if x0 contains the expected result. x17 is the signature ptr, x5 is the link ptr, x4 is a temp reg.
  RVTEST_SIGUPD(x17, x5, x4, x0, I_blt_cg_cr_rs1_rs2_edges_offset_rs1val_0xfffffffe_rs2val_0xffffffff, I_blt_cg_cr_rs1_rs2_edges_offset_rs1val_0xfffffffe_rs2val_0xffffffff_str)
    4700:	0008a203          	lw	x4,0(x17)
    4704:	00020863          	beq	x4,x0,4714 <I_blt_cg_cr_rs1_rs2_edges_offset_rs1val_0xfffffffe_rs2val_0xffffffff+0x1c>
    4708:	175052ef          	jal	x5,a07c <failedtest_x5_x4>
    470c:	000046f8          	.word	0x000046f8
    4710:	000101fb          	.word	0x000101fb
    4714:	00488893          	addi	x17,x17,4
  j 4f # done with test
    4718:	0280006f          	jal	x0,4740 <I_blt_cg_cr_rs1_rs2_edges_offset_rs1val_0xfffffffe_rs2val_0xffffffff+0x48>
2: # goes here during backward branch if taken
  LI(x19, 1)
    471c:	00100993          	addi	x19,x0,1
  # Check if x19 contains the expected result. x17 is the signature ptr, x5 is the link ptr, x4 is a temp reg.
  RVTEST_SIGUPD(x17, x5, x4, x19, I_blt_cg_cr_rs1_rs2_edges_offset_rs1val_0xfffffffe_rs2val_0xffffffff, I_blt_cg_cr_rs1_rs2_edges_offset_rs1val_0xfffffffe_rs2val_0xffffffff_str) # signature 1 for taken
    4720:	0008a203          	lw	x4,0(x17)
    4724:	01320863          	beq	x4,x19,4734 <I_blt_cg_cr_rs1_rs2_edges_offset_rs1val_0xfffffffe_rs2val_0xffffffff+0x3c>
    4728:	155052ef          	jal	x5,a07c <failedtest_x5_x4>
    472c:	000046f8          	.word	0x000046f8
    4730:	000101fb          	.word	0x000101fb
    4734:	00488893          	addi	x17,x17,4
  j 4f # done with test
    4738:	0080006f          	jal	x0,4740 <I_blt_cg_cr_rs1_rs2_edges_offset_rs1val_0xfffffffe_rs2val_0xffffffff+0x48>
3: # goes here during forward branch if taken
  blt x19, x18, 2b # backward branch, definitely taken
    473c:	ff29c0e3          	blt	x19,x18,471c <I_blt_cg_cr_rs1_rs2_edges_offset_rs1val_0xfffffffe_rs2val_0xffffffff+0x24>
4: # done with test

# cr_rs1_rs2_edges_offset (Test source rs1 = 0xfffffffe rs2 = 0xfffffffe)
  RVTEST_TESTDATA_LOAD_INT(x23, x9) # load rs1: x9 = 0xfffffffe
    4740:	000ba483          	lw	x9,0(x23)
    4744:	004b8b93          	addi	x23,x23,4
  RVTEST_TESTDATA_LOAD_INT(x23, x31) # load rs2: x31 = 0xfffffffe
    4748:	000baf83          	lw	x31,0(x23)
    474c:	004b8b93          	addi	x23,x23,4

00004750 <I_blt_cg_cr_rs1_rs2_edges_offset_rs1val_0xfffffffe_rs2val_0xfffffffe>:
0: # destination for backwards branch that is never taken
I_blt_cg_cr_rs1_rs2_edges_offset_rs1val_0xfffffffe_rs2val_0xfffffffe:
  blt x9, x31, 3f # forward branch, if taken
    4750:	05f4c263          	blt	x9,x31,4794 <I_blt_cg_cr_rs1_rs2_edges_offset_rs1val_0xfffffffe_rs2val_0xfffffffe+0x44>
1: # goes here if not taken
  blt x9, x31, 0b # backward branch, never taken
    4754:	fff4cee3          	blt	x9,x31,4750 <I_blt_cg_cr_rs1_rs2_edges_offset_rs1val_0xfffffffe_rs2val_0xfffffffe>
  # Check if x0 contains the expected result. x17 is the signature ptr, x5 is the link ptr, x4 is a temp reg.
  RVTEST_SIGUPD(x17, x5, x4, x0, I_blt_cg_cr_rs1_rs2_edges_offset_rs1val_0xfffffffe_rs2val_0xfffffffe, I_blt_cg_cr_rs1_rs2_edges_offset_rs1val_0xfffffffe_rs2val_0xfffffffe_str)
    4758:	0008a203          	lw	x4,0(x17)
    475c:	00020863          	beq	x4,x0,476c <I_blt_cg_cr_rs1_rs2_edges_offset_rs1val_0xfffffffe_rs2val_0xfffffffe+0x1c>
    4760:	11d052ef          	jal	x5,a07c <failedtest_x5_x4>
    4764:	00004750          	.word	0x00004750
    4768:	0001025d          	.word	0x0001025d
    476c:	00488893          	addi	x17,x17,4
  j 4f # done with test
    4770:	0280006f          	jal	x0,4798 <I_blt_cg_cr_rs1_rs2_edges_offset_rs1val_0xfffffffe_rs2val_0xfffffffe+0x48>
2: # goes here during backward branch if taken
  LI(x9, 1)
    4774:	00100493          	addi	x9,x0,1
  # Check if x9 contains the expected result. x17 is the signature ptr, x5 is the link ptr, x4 is a temp reg.
  RVTEST_SIGUPD(x17, x5, x4, x9, I_blt_cg_cr_rs1_rs2_edges_offset_rs1val_0xfffffffe_rs2val_0xfffffffe, I_blt_cg_cr_rs1_rs2_edges_offset_rs1val_0xfffffffe_rs2val_0xfffffffe_str) # signature 1 for taken
    4778:	0008a203          	lw	x4,0(x17)
    477c:	00920863          	beq	x4,x9,478c <I_blt_cg_cr_rs1_rs2_edges_offset_rs1val_0xfffffffe_rs2val_0xfffffffe+0x3c>
    4780:	0fd052ef          	jal	x5,a07c <failedtest_x5_x4>
    4784:	00004750          	.word	0x00004750
    4788:	0001025d          	.word	0x0001025d
    478c:	00488893          	addi	x17,x17,4
  j 4f # done with test
    4790:	0080006f          	jal	x0,4798 <I_blt_cg_cr_rs1_rs2_edges_offset_rs1val_0xfffffffe_rs2val_0xfffffffe+0x48>
3: # goes here during forward branch if taken
  blt x9, x31, 2b # backward branch, definitely taken
    4794:	fff4c0e3          	blt	x9,x31,4774 <I_blt_cg_cr_rs1_rs2_edges_offset_rs1val_0xfffffffe_rs2val_0xfffffffe+0x24>
4: # done with test

# cr_rs1_rs2_edges_offset (Test source rs1 = 0xfffffffe rs2 = 0x5bbc8872)
  RVTEST_TESTDATA_LOAD_INT(x23, x2) # load rs1: x2 = 0xfffffffe
    4798:	000ba103          	lw	x2,0(x23)
    479c:	004b8b93          	addi	x23,x23,4
  RVTEST_TESTDATA_LOAD_INT(x23, x31) # load rs2: x31 = 0x5bbc8872
    47a0:	000baf83          	lw	x31,0(x23)
    47a4:	004b8b93          	addi	x23,x23,4

000047a8 <I_blt_cg_cr_rs1_rs2_edges_offset_rs1val_0xfffffffe_rs2val_0x5bbc8872>:
0: # destination for backwards branch that is never taken
I_blt_cg_cr_rs1_rs2_edges_offset_rs1val_0xfffffffe_rs2val_0x5bbc8872:
  blt x2, x31, 3f # forward branch, if taken
    47a8:	05f14263          	blt	x2,x31,47ec <I_blt_cg_cr_rs1_rs2_edges_offset_rs1val_0xfffffffe_rs2val_0x5bbc8872+0x44>
1: # goes here if not taken
  blt x2, x31, 0b # backward branch, never taken
    47ac:	fff14ee3          	blt	x2,x31,47a8 <I_blt_cg_cr_rs1_rs2_edges_offset_rs1val_0xfffffffe_rs2val_0x5bbc8872>
  # Check if x0 contains the expected result. x17 is the signature ptr, x5 is the link ptr, x4 is a temp reg.
  RVTEST_SIGUPD(x17, x5, x4, x0, I_blt_cg_cr_rs1_rs2_edges_offset_rs1val_0xfffffffe_rs2val_0x5bbc8872, I_blt_cg_cr_rs1_rs2_edges_offset_rs1val_0xfffffffe_rs2val_0x5bbc8872_str)
    47b0:	0008a203          	lw	x4,0(x17)
    47b4:	00020863          	beq	x4,x0,47c4 <I_blt_cg_cr_rs1_rs2_edges_offset_rs1val_0xfffffffe_rs2val_0x5bbc8872+0x1c>
    47b8:	0c5052ef          	jal	x5,a07c <failedtest_x5_x4>
    47bc:	000047a8          	.word	0x000047a8
    47c0:	000102bf          	.word	0x000102bf
    47c4:	00488893          	addi	x17,x17,4
  j 4f # done with test
    47c8:	0280006f          	jal	x0,47f0 <I_blt_cg_cr_rs1_rs2_edges_offset_rs1val_0xfffffffe_rs2val_0x5bbc8872+0x48>
2: # goes here during backward branch if taken
  LI(x2, 1)
    47cc:	00100113          	addi	x2,x0,1
  # Check if x2 contains the expected result. x17 is the signature ptr, x5 is the link ptr, x4 is a temp reg.
  RVTEST_SIGUPD(x17, x5, x4, x2, I_blt_cg_cr_rs1_rs2_edges_offset_rs1val_0xfffffffe_rs2val_0x5bbc8872, I_blt_cg_cr_rs1_rs2_edges_offset_rs1val_0xfffffffe_rs2val_0x5bbc8872_str) # signature 1 for taken
    47d0:	0008a203          	lw	x4,0(x17)
    47d4:	00220863          	beq	x4,x2,47e4 <I_blt_cg_cr_rs1_rs2_edges_offset_rs1val_0xfffffffe_rs2val_0x5bbc8872+0x3c>
    47d8:	0a5052ef          	jal	x5,a07c <failedtest_x5_x4>
    47dc:	000047a8          	.word	0x000047a8
    47e0:	000102bf          	.word	0x000102bf
    47e4:	00488893          	addi	x17,x17,4
  j 4f # done with test
    47e8:	0080006f          	jal	x0,47f0 <I_blt_cg_cr_rs1_rs2_edges_offset_rs1val_0xfffffffe_rs2val_0x5bbc8872+0x48>
3: # goes here during forward branch if taken
  blt x2, x31, 2b # backward branch, definitely taken
    47ec:	fff140e3          	blt	x2,x31,47cc <I_blt_cg_cr_rs1_rs2_edges_offset_rs1val_0xfffffffe_rs2val_0x5bbc8872+0x24>
4: # done with test

# cr_rs1_rs2_edges_offset (Test source rs1 = 0xfffffffe rs2 = 0xaaaaaaaa)
  RVTEST_TESTDATA_LOAD_INT(x23, x28) # load rs1: x28 = 0xfffffffe
    47f0:	000bae03          	lw	x28,0(x23)
    47f4:	004b8b93          	addi	x23,x23,4
  RVTEST_TESTDATA_LOAD_INT(x23, x7) # load rs2: x7 = 0xaaaaaaaa
    47f8:	000ba383          	lw	x7,0(x23)
    47fc:	004b8b93          	addi	x23,x23,4

00004800 <I_blt_cg_cr_rs1_rs2_edges_offset_rs1val_0xfffffffe_rs2val_0xaaaaaaaa>:
0: # destination for backwards branch that is never taken
I_blt_cg_cr_rs1_rs2_edges_offset_rs1val_0xfffffffe_rs2val_0xaaaaaaaa:
  blt x28, x7, 3f # forward branch, if taken
    4800:	047e4263          	blt	x28,x7,4844 <I_blt_cg_cr_rs1_rs2_edges_offset_rs1val_0xfffffffe_rs2val_0xaaaaaaaa+0x44>
1: # goes here if not taken
  blt x28, x7, 0b # backward branch, never taken
    4804:	fe7e4ee3          	blt	x28,x7,4800 <I_blt_cg_cr_rs1_rs2_edges_offset_rs1val_0xfffffffe_rs2val_0xaaaaaaaa>
  # Check if x0 contains the expected result. x17 is the signature ptr, x5 is the link ptr, x4 is a temp reg.
  RVTEST_SIGUPD(x17, x5, x4, x0, I_blt_cg_cr_rs1_rs2_edges_offset_rs1val_0xfffffffe_rs2val_0xaaaaaaaa, I_blt_cg_cr_rs1_rs2_edges_offset_rs1val_0xfffffffe_rs2val_0xaaaaaaaa_str)
    4808:	0008a203          	lw	x4,0(x17)
    480c:	00020863          	beq	x4,x0,481c <I_blt_cg_cr_rs1_rs2_edges_offset_rs1val_0xfffffffe_rs2val_0xaaaaaaaa+0x1c>
    4810:	06d052ef          	jal	x5,a07c <failedtest_x5_x4>
    4814:	00004800          	.word	0x00004800
    4818:	00010321          	.word	0x00010321
    481c:	00488893          	addi	x17,x17,4
  j 4f # done with test
    4820:	0280006f          	jal	x0,4848 <I_blt_cg_cr_rs1_rs2_edges_offset_rs1val_0xfffffffe_rs2val_0xaaaaaaaa+0x48>
2: # goes here during backward branch if taken
  LI(x28, 1)
    4824:	00100e13          	addi	x28,x0,1
  # Check if x28 contains the expected result. x17 is the signature ptr, x5 is the link ptr, x4 is a temp reg.
  RVTEST_SIGUPD(x17, x5, x4, x28, I_blt_cg_cr_rs1_rs2_edges_offset_rs1val_0xfffffffe_rs2val_0xaaaaaaaa, I_blt_cg_cr_rs1_rs2_edges_offset_rs1val_0xfffffffe_rs2val_0xaaaaaaaa_str) # signature 1 for taken
    4828:	0008a203          	lw	x4,0(x17)
    482c:	01c20863          	beq	x4,x28,483c <I_blt_cg_cr_rs1_rs2_edges_offset_rs1val_0xfffffffe_rs2val_0xaaaaaaaa+0x3c>
    4830:	04d052ef          	jal	x5,a07c <failedtest_x5_x4>
    4834:	00004800          	.word	0x00004800
    4838:	00010321          	.word	0x00010321
    483c:	00488893          	addi	x17,x17,4
  j 4f # done with test
    4840:	0080006f          	jal	x0,4848 <I_blt_cg_cr_rs1_rs2_edges_offset_rs1val_0xfffffffe_rs2val_0xaaaaaaaa+0x48>
3: # goes here during forward branch if taken
  blt x28, x7, 2b # backward branch, definitely taken
    4844:	fe7e40e3          	blt	x28,x7,4824 <I_blt_cg_cr_rs1_rs2_edges_offset_rs1val_0xfffffffe_rs2val_0xaaaaaaaa+0x24>
4: # done with test

# cr_rs1_rs2_edges_offset (Test source rs1 = 0xfffffffe rs2 = 0x55555555)
  RVTEST_TESTDATA_LOAD_INT(x23, x10) # load rs1: x10 = 0xfffffffe
    4848:	000ba503          	lw	x10,0(x23)
    484c:	004b8b93          	addi	x23,x23,4
  RVTEST_TESTDATA_LOAD_INT(x23, x30) # load rs2: x30 = 0x55555555
    4850:	000baf03          	lw	x30,0(x23)
    4854:	004b8b93          	addi	x23,x23,4

00004858 <I_blt_cg_cr_rs1_rs2_edges_offset_rs1val_0xfffffffe_rs2val_0x55555555>:
0: # destination for backwards branch that is never taken
I_blt_cg_cr_rs1_rs2_edges_offset_rs1val_0xfffffffe_rs2val_0x55555555:
  blt x10, x30, 3f # forward branch, if taken
    4858:	05e54263          	blt	x10,x30,489c <I_blt_cg_cr_rs1_rs2_edges_offset_rs1val_0xfffffffe_rs2val_0x55555555+0x44>
1: # goes here if not taken
  blt x10, x30, 0b # backward branch, never taken
    485c:	ffe54ee3          	blt	x10,x30,4858 <I_blt_cg_cr_rs1_rs2_edges_offset_rs1val_0xfffffffe_rs2val_0x55555555>
  # Check if x0 contains the expected result. x17 is the signature ptr, x5 is the link ptr, x4 is a temp reg.
  RVTEST_SIGUPD(x17, x5, x4, x0, I_blt_cg_cr_rs1_rs2_edges_offset_rs1val_0xfffffffe_rs2val_0x55555555, I_blt_cg_cr_rs1_rs2_edges_offset_rs1val_0xfffffffe_rs2val_0x55555555_str)
    4860:	0008a203          	lw	x4,0(x17)
    4864:	00020863          	beq	x4,x0,4874 <I_blt_cg_cr_rs1_rs2_edges_offset_rs1val_0xfffffffe_rs2val_0x55555555+0x1c>
    4868:	015052ef          	jal	x5,a07c <failedtest_x5_x4>
    486c:	00004858          	.word	0x00004858
    4870:	00010383          	.word	0x00010383
    4874:	00488893          	addi	x17,x17,4
  j 4f # done with test
    4878:	0280006f          	jal	x0,48a0 <I_blt_cg_cr_rs1_rs2_edges_offset_rs1val_0xfffffffe_rs2val_0x55555555+0x48>
2: # goes here during backward branch if taken
  LI(x10, 1)
    487c:	00100513          	addi	x10,x0,1
  # Check if x10 contains the expected result. x17 is the signature ptr, x5 is the link ptr, x4 is a temp reg.
  RVTEST_SIGUPD(x17, x5, x4, x10, I_blt_cg_cr_rs1_rs2_edges_offset_rs1val_0xfffffffe_rs2val_0x55555555, I_blt_cg_cr_rs1_rs2_edges_offset_rs1val_0xfffffffe_rs2val_0x55555555_str) # signature 1 for taken
    4880:	0008a203          	lw	x4,0(x17)
    4884:	00a20863          	beq	x4,x10,4894 <I_blt_cg_cr_rs1_rs2_edges_offset_rs1val_0xfffffffe_rs2val_0x55555555+0x3c>
    4888:	7f4052ef          	jal	x5,a07c <failedtest_x5_x4>
    488c:	00004858          	.word	0x00004858
    4890:	00010383          	.word	0x00010383
    4894:	00488893          	addi	x17,x17,4
  j 4f # done with test
    4898:	0080006f          	jal	x0,48a0 <I_blt_cg_cr_rs1_rs2_edges_offset_rs1val_0xfffffffe_rs2val_0x55555555+0x48>
3: # goes here during forward branch if taken
  blt x10, x30, 2b # backward branch, definitely taken
    489c:	ffe540e3          	blt	x10,x30,487c <I_blt_cg_cr_rs1_rs2_edges_offset_rs1val_0xfffffffe_rs2val_0x55555555+0x24>
4: # done with test

# cr_rs1_rs2_edges_offset (Test source rs1 = 0x5bbc8872 rs2 = 0x00000000)
  RVTEST_TESTDATA_LOAD_INT(x23, x15) # load rs1: x15 = 0x5bbc8872
    48a0:	000ba783          	lw	x15,0(x23)
    48a4:	004b8b93          	addi	x23,x23,4
  RVTEST_TESTDATA_LOAD_INT(x23, x31) # load rs2: x31 = 0x00000000
    48a8:	000baf83          	lw	x31,0(x23)
    48ac:	004b8b93          	addi	x23,x23,4

000048b0 <I_blt_cg_cr_rs1_rs2_edges_offset_rs1val_0x5bbc8872_rs2val_0x0>:
0: # destination for backwards branch that is never taken
I_blt_cg_cr_rs1_rs2_edges_offset_rs1val_0x5bbc8872_rs2val_0x0:
  blt x15, x31, 3f # forward branch, if taken
    48b0:	05f7c263          	blt	x15,x31,48f4 <I_blt_cg_cr_rs1_rs2_edges_offset_rs1val_0x5bbc8872_rs2val_0x0+0x44>
1: # goes here if not taken
  blt x15, x31, 0b # backward branch, never taken
    48b4:	fff7cee3          	blt	x15,x31,48b0 <I_blt_cg_cr_rs1_rs2_edges_offset_rs1val_0x5bbc8872_rs2val_0x0>
  # Check if x0 contains the expected result. x17 is the signature ptr, x5 is the link ptr, x4 is a temp reg.
  RVTEST_SIGUPD(x17, x5, x4, x0, I_blt_cg_cr_rs1_rs2_edges_offset_rs1val_0x5bbc8872_rs2val_0x0, I_blt_cg_cr_rs1_rs2_edges_offset_rs1val_0x5bbc8872_rs2val_0x0_str)
    48b8:	0008a203          	lw	x4,0(x17)
    48bc:	00020863          	beq	x4,x0,48cc <I_blt_cg_cr_rs1_rs2_edges_offset_rs1val_0x5bbc8872_rs2val_0x0+0x1c>
    48c0:	7bc052ef          	jal	x5,a07c <failedtest_x5_x4>
    48c4:	000048b0          	.word	0x000048b0
    48c8:	000103e5          	.word	0x000103e5
    48cc:	00488893          	addi	x17,x17,4
  j 4f # done with test
    48d0:	0280006f          	jal	x0,48f8 <I_blt_cg_cr_rs1_rs2_edges_offset_rs1val_0x5bbc8872_rs2val_0x0+0x48>
2: # goes here during backward branch if taken
  LI(x15, 1)
    48d4:	00100793          	addi	x15,x0,1
  # Check if x15 contains the expected result. x17 is the signature ptr, x5 is the link ptr, x4 is a temp reg.
  RVTEST_SIGUPD(x17, x5, x4, x15, I_blt_cg_cr_rs1_rs2_edges_offset_rs1val_0x5bbc8872_rs2val_0x0, I_blt_cg_cr_rs1_rs2_edges_offset_rs1val_0x5bbc8872_rs2val_0x0_str) # signature 1 for taken
    48d8:	0008a203          	lw	x4,0(x17)
    48dc:	00f20863          	beq	x4,x15,48ec <I_blt_cg_cr_rs1_rs2_edges_offset_rs1val_0x5bbc8872_rs2val_0x0+0x3c>
    48e0:	79c052ef          	jal	x5,a07c <failedtest_x5_x4>
    48e4:	000048b0          	.word	0x000048b0
    48e8:	000103e5          	.word	0x000103e5
    48ec:	00488893          	addi	x17,x17,4
  j 4f # done with test
    48f0:	0080006f          	jal	x0,48f8 <I_blt_cg_cr_rs1_rs2_edges_offset_rs1val_0x5bbc8872_rs2val_0x0+0x48>
3: # goes here during forward branch if taken
  blt x15, x31, 2b # backward branch, definitely taken
    48f4:	fff7c0e3          	blt	x15,x31,48d4 <I_blt_cg_cr_rs1_rs2_edges_offset_rs1val_0x5bbc8872_rs2val_0x0+0x24>
4: # done with test

# cr_rs1_rs2_edges_offset (Test source rs1 = 0x5bbc8872 rs2 = 0x00000001)
  RVTEST_TESTDATA_LOAD_INT(x23, x10) # load rs1: x10 = 0x5bbc8872
    48f8:	000ba503          	lw	x10,0(x23)
    48fc:	004b8b93          	addi	x23,x23,4
  RVTEST_TESTDATA_LOAD_INT(x23, x8) # load rs2: x8 = 0x00000001
    4900:	000ba403          	lw	x8,0(x23)
    4904:	004b8b93          	addi	x23,x23,4

00004908 <I_blt_cg_cr_rs1_rs2_edges_offset_rs1val_0x5bbc8872_rs2val_0x1>:
0: # destination for backwards branch that is never taken
I_blt_cg_cr_rs1_rs2_edges_offset_rs1val_0x5bbc8872_rs2val_0x1:
  blt x10, x8, 3f # forward branch, if taken
    4908:	04854263          	blt	x10,x8,494c <I_blt_cg_cr_rs1_rs2_edges_offset_rs1val_0x5bbc8872_rs2val_0x1+0x44>
1: # goes here if not taken
  blt x10, x8, 0b # backward branch, never taken
    490c:	fe854ee3          	blt	x10,x8,4908 <I_blt_cg_cr_rs1_rs2_edges_offset_rs1val_0x5bbc8872_rs2val_0x1>
  # Check if x0 contains the expected result. x17 is the signature ptr, x5 is the link ptr, x4 is a temp reg.
  RVTEST_SIGUPD(x17, x5, x4, x0, I_blt_cg_cr_rs1_rs2_edges_offset_rs1val_0x5bbc8872_rs2val_0x1, I_blt_cg_cr_rs1_rs2_edges_offset_rs1val_0x5bbc8872_rs2val_0x1_str)
    4910:	0008a203          	lw	x4,0(x17)
    4914:	00020863          	beq	x4,x0,4924 <I_blt_cg_cr_rs1_rs2_edges_offset_rs1val_0x5bbc8872_rs2val_0x1+0x1c>
    4918:	764052ef          	jal	x5,a07c <failedtest_x5_x4>
    491c:	00004908          	.word	0x00004908
    4920:	00010440          	.word	0x00010440
    4924:	00488893          	addi	x17,x17,4
  j 4f # done with test
    4928:	0280006f          	jal	x0,4950 <I_blt_cg_cr_rs1_rs2_edges_offset_rs1val_0x5bbc8872_rs2val_0x1+0x48>
2: # goes here during backward branch if taken
  LI(x10, 1)
    492c:	00100513          	addi	x10,x0,1
  # Check if x10 contains the expected result. x17 is the signature ptr, x5 is the link ptr, x4 is a temp reg.
  RVTEST_SIGUPD(x17, x5, x4, x10, I_blt_cg_cr_rs1_rs2_edges_offset_rs1val_0x5bbc8872_rs2val_0x1, I_blt_cg_cr_rs1_rs2_edges_offset_rs1val_0x5bbc8872_rs2val_0x1_str) # signature 1 for taken
    4930:	0008a203          	lw	x4,0(x17)
    4934:	00a20863          	beq	x4,x10,4944 <I_blt_cg_cr_rs1_rs2_edges_offset_rs1val_0x5bbc8872_rs2val_0x1+0x3c>
    4938:	744052ef          	jal	x5,a07c <failedtest_x5_x4>
    493c:	00004908          	.word	0x00004908
    4940:	00010440          	.word	0x00010440
    4944:	00488893          	addi	x17,x17,4
  j 4f # done with test
    4948:	0080006f          	jal	x0,4950 <I_blt_cg_cr_rs1_rs2_edges_offset_rs1val_0x5bbc8872_rs2val_0x1+0x48>
3: # goes here during forward branch if taken
  blt x10, x8, 2b # backward branch, definitely taken
    494c:	fe8540e3          	blt	x10,x8,492c <I_blt_cg_cr_rs1_rs2_edges_offset_rs1val_0x5bbc8872_rs2val_0x1+0x24>
4: # done with test

# cr_rs1_rs2_edges_offset (Test source rs1 = 0x5bbc8872 rs2 = 0x00000002)
  RVTEST_TESTDATA_LOAD_INT(x23, x19) # load rs1: x19 = 0x5bbc8872
    4950:	000ba983          	lw	x19,0(x23)
    4954:	004b8b93          	addi	x23,x23,4
  RVTEST_TESTDATA_LOAD_INT(x23, x21) # load rs2: x21 = 0x00000002
    4958:	000baa83          	lw	x21,0(x23)
    495c:	004b8b93          	addi	x23,x23,4

00004960 <I_blt_cg_cr_rs1_rs2_edges_offset_rs1val_0x5bbc8872_rs2val_0x2>:
0: # destination for backwards branch that is never taken
I_blt_cg_cr_rs1_rs2_edges_offset_rs1val_0x5bbc8872_rs2val_0x2:
  blt x19, x21, 3f # forward branch, if taken
    4960:	0559c263          	blt	x19,x21,49a4 <I_blt_cg_cr_rs1_rs2_edges_offset_rs1val_0x5bbc8872_rs2val_0x2+0x44>
1: # goes here if not taken
  blt x19, x21, 0b # backward branch, never taken
    4964:	ff59cee3          	blt	x19,x21,4960 <I_blt_cg_cr_rs1_rs2_edges_offset_rs1val_0x5bbc8872_rs2val_0x2>
  # Check if x0 contains the expected result. x17 is the signature ptr, x5 is the link ptr, x4 is a temp reg.
  RVTEST_SIGUPD(x17, x5, x4, x0, I_blt_cg_cr_rs1_rs2_edges_offset_rs1val_0x5bbc8872_rs2val_0x2, I_blt_cg_cr_rs1_rs2_edges_offset_rs1val_0x5bbc8872_rs2val_0x2_str)
    4968:	0008a203          	lw	x4,0(x17)
    496c:	00020863          	beq	x4,x0,497c <I_blt_cg_cr_rs1_rs2_edges_offset_rs1val_0x5bbc8872_rs2val_0x2+0x1c>
    4970:	70c052ef          	jal	x5,a07c <failedtest_x5_x4>
    4974:	00004960          	.word	0x00004960
    4978:	0001049b          	.word	0x0001049b
    497c:	00488893          	addi	x17,x17,4
  j 4f # done with test
    4980:	0280006f          	jal	x0,49a8 <I_blt_cg_cr_rs1_rs2_edges_offset_rs1val_0x5bbc8872_rs2val_0x2+0x48>
2: # goes here during backward branch if taken
  LI(x19, 1)
    4984:	00100993          	addi	x19,x0,1
  # Check if x19 contains the expected result. x17 is the signature ptr, x5 is the link ptr, x4 is a temp reg.
  RVTEST_SIGUPD(x17, x5, x4, x19, I_blt_cg_cr_rs1_rs2_edges_offset_rs1val_0x5bbc8872_rs2val_0x2, I_blt_cg_cr_rs1_rs2_edges_offset_rs1val_0x5bbc8872_rs2val_0x2_str) # signature 1 for taken
    4988:	0008a203          	lw	x4,0(x17)
    498c:	01320863          	beq	x4,x19,499c <I_blt_cg_cr_rs1_rs2_edges_offset_rs1val_0x5bbc8872_rs2val_0x2+0x3c>
    4990:	6ec052ef          	jal	x5,a07c <failedtest_x5_x4>
    4994:	00004960          	.word	0x00004960
    4998:	0001049b          	.word	0x0001049b
    499c:	00488893          	addi	x17,x17,4
  j 4f # done with test
    49a0:	0080006f          	jal	x0,49a8 <I_blt_cg_cr_rs1_rs2_edges_offset_rs1val_0x5bbc8872_rs2val_0x2+0x48>
3: # goes here during forward branch if taken
  blt x19, x21, 2b # backward branch, definitely taken
    49a4:	ff59c0e3          	blt	x19,x21,4984 <I_blt_cg_cr_rs1_rs2_edges_offset_rs1val_0x5bbc8872_rs2val_0x2+0x24>
4: # done with test

# cr_rs1_rs2_edges_offset (Test source rs1 = 0x5bbc8872 rs2 = 0x80000000)
  RVTEST_TESTDATA_LOAD_INT(x23, x28) # load rs1: x28 = 0x5bbc8872
    49a8:	000bae03          	lw	x28,0(x23)
    49ac:	004b8b93          	addi	x23,x23,4
  RVTEST_TESTDATA_LOAD_INT(x23, x15) # load rs2: x15 = 0x80000000
    49b0:	000ba783          	lw	x15,0(x23)
    49b4:	004b8b93          	addi	x23,x23,4

000049b8 <I_blt_cg_cr_rs1_rs2_edges_offset_rs1val_0x5bbc8872_rs2val_0x80000000>:
0: # destination for backwards branch that is never taken
I_blt_cg_cr_rs1_rs2_edges_offset_rs1val_0x5bbc8872_rs2val_0x80000000:
  blt x28, x15, 3f # forward branch, if taken
    49b8:	04fe4263          	blt	x28,x15,49fc <I_blt_cg_cr_rs1_rs2_edges_offset_rs1val_0x5bbc8872_rs2val_0x80000000+0x44>
1: # goes here if not taken
  blt x28, x15, 0b # backward branch, never taken
    49bc:	fefe4ee3          	blt	x28,x15,49b8 <I_blt_cg_cr_rs1_rs2_edges_offset_rs1val_0x5bbc8872_rs2val_0x80000000>
  # Check if x0 contains the expected result. x17 is the signature ptr, x5 is the link ptr, x4 is a temp reg.
  RVTEST_SIGUPD(x17, x5, x4, x0, I_blt_cg_cr_rs1_rs2_edges_offset_rs1val_0x5bbc8872_rs2val_0x80000000, I_blt_cg_cr_rs1_rs2_edges_offset_rs1val_0x5bbc8872_rs2val_0x80000000_str)
    49c0:	0008a203          	lw	x4,0(x17)
    49c4:	00020863          	beq	x4,x0,49d4 <I_blt_cg_cr_rs1_rs2_edges_offset_rs1val_0x5bbc8872_rs2val_0x80000000+0x1c>
    49c8:	6b4052ef          	jal	x5,a07c <failedtest_x5_x4>
    49cc:	000049b8          	.word	0x000049b8
    49d0:	000104f6          	.word	0x000104f6
    49d4:	00488893          	addi	x17,x17,4
  j 4f # done with test
    49d8:	0280006f          	jal	x0,4a00 <I_blt_cg_cr_rs1_rs2_edges_offset_rs1val_0x5bbc8872_rs2val_0x80000000+0x48>
2: # goes here during backward branch if taken
  LI(x28, 1)
    49dc:	00100e13          	addi	x28,x0,1
  # Check if x28 contains the expected result. x17 is the signature ptr, x5 is the link ptr, x4 is a temp reg.
  RVTEST_SIGUPD(x17, x5, x4, x28, I_blt_cg_cr_rs1_rs2_edges_offset_rs1val_0x5bbc8872_rs2val_0x80000000, I_blt_cg_cr_rs1_rs2_edges_offset_rs1val_0x5bbc8872_rs2val_0x80000000_str) # signature 1 for taken
    49e0:	0008a203          	lw	x4,0(x17)
    49e4:	01c20863          	beq	x4,x28,49f4 <I_blt_cg_cr_rs1_rs2_edges_offset_rs1val_0x5bbc8872_rs2val_0x80000000+0x3c>
    49e8:	694052ef          	jal	x5,a07c <failedtest_x5_x4>
    49ec:	000049b8          	.word	0x000049b8
    49f0:	000104f6          	.word	0x000104f6
    49f4:	00488893          	addi	x17,x17,4
  j 4f # done with test
    49f8:	0080006f          	jal	x0,4a00 <I_blt_cg_cr_rs1_rs2_edges_offset_rs1val_0x5bbc8872_rs2val_0x80000000+0x48>
3: # goes here during forward branch if taken
  blt x28, x15, 2b # backward branch, definitely taken
    49fc:	fefe40e3          	blt	x28,x15,49dc <I_blt_cg_cr_rs1_rs2_edges_offset_rs1val_0x5bbc8872_rs2val_0x80000000+0x24>
4: # done with test

# cr_rs1_rs2_edges_offset (Test source rs1 = 0x5bbc8872 rs2 = 0x80000001)
  RVTEST_TESTDATA_LOAD_INT(x23, x22) # load rs1: x22 = 0x5bbc8872
    4a00:	000bab03          	lw	x22,0(x23)
    4a04:	004b8b93          	addi	x23,x23,4
  RVTEST_TESTDATA_LOAD_INT(x23, x7) # load rs2: x7 = 0x80000001
    4a08:	000ba383          	lw	x7,0(x23)
    4a0c:	004b8b93          	addi	x23,x23,4

00004a10 <I_blt_cg_cr_rs1_rs2_edges_offset_rs1val_0x5bbc8872_rs2val_0x80000001>:
0: # destination for backwards branch that is never taken
I_blt_cg_cr_rs1_rs2_edges_offset_rs1val_0x5bbc8872_rs2val_0x80000001:
  blt x22, x7, 3f # forward branch, if taken
    4a10:	047b4263          	blt	x22,x7,4a54 <I_blt_cg_cr_rs1_rs2_edges_offset_rs1val_0x5bbc8872_rs2val_0x80000001+0x44>
1: # goes here if not taken
  blt x22, x7, 0b # backward branch, never taken
    4a14:	fe7b4ee3          	blt	x22,x7,4a10 <I_blt_cg_cr_rs1_rs2_edges_offset_rs1val_0x5bbc8872_rs2val_0x80000001>
  # Check if x0 contains the expected result. x17 is the signature ptr, x5 is the link ptr, x4 is a temp reg.
  RVTEST_SIGUPD(x17, x5, x4, x0, I_blt_cg_cr_rs1_rs2_edges_offset_rs1val_0x5bbc8872_rs2val_0x80000001, I_blt_cg_cr_rs1_rs2_edges_offset_rs1val_0x5bbc8872_rs2val_0x80000001_str)
    4a18:	0008a203          	lw	x4,0(x17)
    4a1c:	00020863          	beq	x4,x0,4a2c <I_blt_cg_cr_rs1_rs2_edges_offset_rs1val_0x5bbc8872_rs2val_0x80000001+0x1c>
    4a20:	65c052ef          	jal	x5,a07c <failedtest_x5_x4>
    4a24:	00004a10          	.word	0x00004a10
    4a28:	00010558          	.word	0x00010558
    4a2c:	00488893          	addi	x17,x17,4
  j 4f # done with test
    4a30:	0280006f          	jal	x0,4a58 <I_blt_cg_cr_rs1_rs2_edges_offset_rs1val_0x5bbc8872_rs2val_0x80000001+0x48>
2: # goes here during backward branch if taken
  LI(x22, 1)
    4a34:	00100b13          	addi	x22,x0,1
  # Check if x22 contains the expected result. x17 is the signature ptr, x5 is the link ptr, x4 is a temp reg.
  RVTEST_SIGUPD(x17, x5, x4, x22, I_blt_cg_cr_rs1_rs2_edges_offset_rs1val_0x5bbc8872_rs2val_0x80000001, I_blt_cg_cr_rs1_rs2_edges_offset_rs1val_0x5bbc8872_rs2val_0x80000001_str) # signature 1 for taken
    4a38:	0008a203          	lw	x4,0(x17)
    4a3c:	01620863          	beq	x4,x22,4a4c <I_blt_cg_cr_rs1_rs2_edges_offset_rs1val_0x5bbc8872_rs2val_0x80000001+0x3c>
    4a40:	63c052ef          	jal	x5,a07c <failedtest_x5_x4>
    4a44:	00004a10          	.word	0x00004a10
    4a48:	00010558          	.word	0x00010558
    4a4c:	00488893          	addi	x17,x17,4
  j 4f # done with test
    4a50:	0080006f          	jal	x0,4a58 <I_blt_cg_cr_rs1_rs2_edges_offset_rs1val_0x5bbc8872_rs2val_0x80000001+0x48>
3: # goes here during forward branch if taken
  blt x22, x7, 2b # backward branch, definitely taken
    4a54:	fe7b40e3          	blt	x22,x7,4a34 <I_blt_cg_cr_rs1_rs2_edges_offset_rs1val_0x5bbc8872_rs2val_0x80000001+0x24>
4: # done with test

# cr_rs1_rs2_edges_offset (Test source rs1 = 0x5bbc8872 rs2 = 0x7fffffff)
  RVTEST_TESTDATA_LOAD_INT(x23, x14) # load rs1: x14 = 0x5bbc8872
    4a58:	000ba703          	lw	x14,0(x23)
    4a5c:	004b8b93          	addi	x23,x23,4
  RVTEST_TESTDATA_LOAD_INT(x23, x16) # load rs2: x16 = 0x7fffffff
    4a60:	000ba803          	lw	x16,0(x23)
    4a64:	004b8b93          	addi	x23,x23,4

00004a68 <I_blt_cg_cr_rs1_rs2_edges_offset_rs1val_0x5bbc8872_rs2val_0x7fffffff>:
0: # destination for backwards branch that is never taken
I_blt_cg_cr_rs1_rs2_edges_offset_rs1val_0x5bbc8872_rs2val_0x7fffffff:
  blt x14, x16, 3f # forward branch, if taken
    4a68:	05074263          	blt	x14,x16,4aac <I_blt_cg_cr_rs1_rs2_edges_offset_rs1val_0x5bbc8872_rs2val_0x7fffffff+0x44>
1: # goes here if not taken
  blt x14, x16, 0b # backward branch, never taken
    4a6c:	ff074ee3          	blt	x14,x16,4a68 <I_blt_cg_cr_rs1_rs2_edges_offset_rs1val_0x5bbc8872_rs2val_0x7fffffff>
  # Check if x0 contains the expected result. x17 is the signature ptr, x5 is the link ptr, x4 is a temp reg.
  RVTEST_SIGUPD(x17, x5, x4, x0, I_blt_cg_cr_rs1_rs2_edges_offset_rs1val_0x5bbc8872_rs2val_0x7fffffff, I_blt_cg_cr_rs1_rs2_edges_offset_rs1val_0x5bbc8872_rs2val_0x7fffffff_str)
    4a70:	0008a203          	lw	x4,0(x17)
    4a74:	00020863          	beq	x4,x0,4a84 <I_blt_cg_cr_rs1_rs2_edges_offset_rs1val_0x5bbc8872_rs2val_0x7fffffff+0x1c>
    4a78:	604052ef          	jal	x5,a07c <failedtest_x5_x4>
    4a7c:	00004a68          	.word	0x00004a68
    4a80:	000105ba          	.word	0x000105ba
    4a84:	00488893          	addi	x17,x17,4
  j 4f # done with test
    4a88:	0280006f          	jal	x0,4ab0 <I_blt_cg_cr_rs1_rs2_edges_offset_rs1val_0x5bbc8872_rs2val_0x7fffffff+0x48>
2: # goes here during backward branch if taken
  LI(x14, 1)
    4a8c:	00100713          	addi	x14,x0,1
  # Check if x14 contains the expected result. x17 is the signature ptr, x5 is the link ptr, x4 is a temp reg.
  RVTEST_SIGUPD(x17, x5, x4, x14, I_blt_cg_cr_rs1_rs2_edges_offset_rs1val_0x5bbc8872_rs2val_0x7fffffff, I_blt_cg_cr_rs1_rs2_edges_offset_rs1val_0x5bbc8872_rs2val_0x7fffffff_str) # signature 1 for taken
    4a90:	0008a203          	lw	x4,0(x17)
    4a94:	00e20863          	beq	x4,x14,4aa4 <I_blt_cg_cr_rs1_rs2_edges_offset_rs1val_0x5bbc8872_rs2val_0x7fffffff+0x3c>
    4a98:	5e4052ef          	jal	x5,a07c <failedtest_x5_x4>
    4a9c:	00004a68          	.word	0x00004a68
    4aa0:	000105ba          	.word	0x000105ba
    4aa4:	00488893          	addi	x17,x17,4
  j 4f # done with test
    4aa8:	0080006f          	jal	x0,4ab0 <I_blt_cg_cr_rs1_rs2_edges_offset_rs1val_0x5bbc8872_rs2val_0x7fffffff+0x48>
3: # goes here during forward branch if taken
  blt x14, x16, 2b # backward branch, definitely taken
    4aac:	ff0740e3          	blt	x14,x16,4a8c <I_blt_cg_cr_rs1_rs2_edges_offset_rs1val_0x5bbc8872_rs2val_0x7fffffff+0x24>
4: # done with test

# cr_rs1_rs2_edges_offset (Test source rs1 = 0x5bbc8872 rs2 = 0x7ffffffe)
  RVTEST_TESTDATA_LOAD_INT(x23, x16) # load rs1: x16 = 0x5bbc8872
    4ab0:	000ba803          	lw	x16,0(x23)
    4ab4:	004b8b93          	addi	x23,x23,4
  RVTEST_TESTDATA_LOAD_INT(x23, x25) # load rs2: x25 = 0x7ffffffe
    4ab8:	000bac83          	lw	x25,0(x23)
    4abc:	004b8b93          	addi	x23,x23,4

00004ac0 <I_blt_cg_cr_rs1_rs2_edges_offset_rs1val_0x5bbc8872_rs2val_0x7ffffffe>:
0: # destination for backwards branch that is never taken
I_blt_cg_cr_rs1_rs2_edges_offset_rs1val_0x5bbc8872_rs2val_0x7ffffffe:
  blt x16, x25, 3f # forward branch, if taken
    4ac0:	05984263          	blt	x16,x25,4b04 <I_blt_cg_cr_rs1_rs2_edges_offset_rs1val_0x5bbc8872_rs2val_0x7ffffffe+0x44>
1: # goes here if not taken
  blt x16, x25, 0b # backward branch, never taken
    4ac4:	ff984ee3          	blt	x16,x25,4ac0 <I_blt_cg_cr_rs1_rs2_edges_offset_rs1val_0x5bbc8872_rs2val_0x7ffffffe>
  # Check if x0 contains the expected result. x17 is the signature ptr, x5 is the link ptr, x4 is a temp reg.
  RVTEST_SIGUPD(x17, x5, x4, x0, I_blt_cg_cr_rs1_rs2_edges_offset_rs1val_0x5bbc8872_rs2val_0x7ffffffe, I_blt_cg_cr_rs1_rs2_edges_offset_rs1val_0x5bbc8872_rs2val_0x7ffffffe_str)
    4ac8:	0008a203          	lw	x4,0(x17)
    4acc:	00020863          	beq	x4,x0,4adc <I_blt_cg_cr_rs1_rs2_edges_offset_rs1val_0x5bbc8872_rs2val_0x7ffffffe+0x1c>
    4ad0:	5ac052ef          	jal	x5,a07c <failedtest_x5_x4>
    4ad4:	00004ac0          	.word	0x00004ac0
    4ad8:	0001061c          	.word	0x0001061c
    4adc:	00488893          	addi	x17,x17,4
  j 4f # done with test
    4ae0:	0280006f          	jal	x0,4b08 <I_blt_cg_cr_rs1_rs2_edges_offset_rs1val_0x5bbc8872_rs2val_0x7ffffffe+0x48>
2: # goes here during backward branch if taken
  LI(x16, 1)
    4ae4:	00100813          	addi	x16,x0,1
  # Check if x16 contains the expected result. x17 is the signature ptr, x5 is the link ptr, x4 is a temp reg.
  RVTEST_SIGUPD(x17, x5, x4, x16, I_blt_cg_cr_rs1_rs2_edges_offset_rs1val_0x5bbc8872_rs2val_0x7ffffffe, I_blt_cg_cr_rs1_rs2_edges_offset_rs1val_0x5bbc8872_rs2val_0x7ffffffe_str) # signature 1 for taken
    4ae8:	0008a203          	lw	x4,0(x17)
    4aec:	01020863          	beq	x4,x16,4afc <I_blt_cg_cr_rs1_rs2_edges_offset_rs1val_0x5bbc8872_rs2val_0x7ffffffe+0x3c>
    4af0:	58c052ef          	jal	x5,a07c <failedtest_x5_x4>
    4af4:	00004ac0          	.word	0x00004ac0
    4af8:	0001061c          	.word	0x0001061c
    4afc:	00488893          	addi	x17,x17,4
  j 4f # done with test
    4b00:	0080006f          	jal	x0,4b08 <I_blt_cg_cr_rs1_rs2_edges_offset_rs1val_0x5bbc8872_rs2val_0x7ffffffe+0x48>
3: # goes here during forward branch if taken
  blt x16, x25, 2b # backward branch, definitely taken
    4b04:	ff9840e3          	blt	x16,x25,4ae4 <I_blt_cg_cr_rs1_rs2_edges_offset_rs1val_0x5bbc8872_rs2val_0x7ffffffe+0x24>
4: # done with test

# cr_rs1_rs2_edges_offset (Test source rs1 = 0x5bbc8872 rs2 = 0xffffffff)
  RVTEST_TESTDATA_LOAD_INT(x23, x30) # load rs1: x30 = 0x5bbc8872
    4b08:	000baf03          	lw	x30,0(x23)
    4b0c:	004b8b93          	addi	x23,x23,4
  RVTEST_TESTDATA_LOAD_INT(x23, x28) # load rs2: x28 = 0xffffffff
    4b10:	000bae03          	lw	x28,0(x23)
    4b14:	004b8b93          	addi	x23,x23,4

00004b18 <I_blt_cg_cr_rs1_rs2_edges_offset_rs1val_0x5bbc8872_rs2val_0xffffffff>:
0: # destination for backwards branch that is never taken
I_blt_cg_cr_rs1_rs2_edges_offset_rs1val_0x5bbc8872_rs2val_0xffffffff:
  blt x30, x28, 3f # forward branch, if taken
    4b18:	05cf4263          	blt	x30,x28,4b5c <I_blt_cg_cr_rs1_rs2_edges_offset_rs1val_0x5bbc8872_rs2val_0xffffffff+0x44>
1: # goes here if not taken
  blt x30, x28, 0b # backward branch, never taken
    4b1c:	ffcf4ee3          	blt	x30,x28,4b18 <I_blt_cg_cr_rs1_rs2_edges_offset_rs1val_0x5bbc8872_rs2val_0xffffffff>
  # Check if x0 contains the expected result. x17 is the signature ptr, x5 is the link ptr, x4 is a temp reg.
  RVTEST_SIGUPD(x17, x5, x4, x0, I_blt_cg_cr_rs1_rs2_edges_offset_rs1val_0x5bbc8872_rs2val_0xffffffff, I_blt_cg_cr_rs1_rs2_edges_offset_rs1val_0x5bbc8872_rs2val_0xffffffff_str)
    4b20:	0008a203          	lw	x4,0(x17)
    4b24:	00020863          	beq	x4,x0,4b34 <I_blt_cg_cr_rs1_rs2_edges_offset_rs1val_0x5bbc8872_rs2val_0xffffffff+0x1c>
    4b28:	554052ef          	jal	x5,a07c <failedtest_x5_x4>
    4b2c:	00004b18          	.word	0x00004b18
    4b30:	0001067e          	.word	0x0001067e
    4b34:	00488893          	addi	x17,x17,4
  j 4f # done with test
    4b38:	0280006f          	jal	x0,4b60 <I_blt_cg_cr_rs1_rs2_edges_offset_rs1val_0x5bbc8872_rs2val_0xffffffff+0x48>
2: # goes here during backward branch if taken
  LI(x30, 1)
    4b3c:	00100f13          	addi	x30,x0,1
  # Check if x30 contains the expected result. x17 is the signature ptr, x5 is the link ptr, x4 is a temp reg.
  RVTEST_SIGUPD(x17, x5, x4, x30, I_blt_cg_cr_rs1_rs2_edges_offset_rs1val_0x5bbc8872_rs2val_0xffffffff, I_blt_cg_cr_rs1_rs2_edges_offset_rs1val_0x5bbc8872_rs2val_0xffffffff_str) # signature 1 for taken
    4b40:	0008a203          	lw	x4,0(x17)
    4b44:	01e20863          	beq	x4,x30,4b54 <I_blt_cg_cr_rs1_rs2_edges_offset_rs1val_0x5bbc8872_rs2val_0xffffffff+0x3c>
    4b48:	534052ef          	jal	x5,a07c <failedtest_x5_x4>
    4b4c:	00004b18          	.word	0x00004b18
    4b50:	0001067e          	.word	0x0001067e
    4b54:	00488893          	addi	x17,x17,4
  j 4f # done with test
    4b58:	0080006f          	jal	x0,4b60 <I_blt_cg_cr_rs1_rs2_edges_offset_rs1val_0x5bbc8872_rs2val_0xffffffff+0x48>
3: # goes here during forward branch if taken
  blt x30, x28, 2b # backward branch, definitely taken
    4b5c:	ffcf40e3          	blt	x30,x28,4b3c <I_blt_cg_cr_rs1_rs2_edges_offset_rs1val_0x5bbc8872_rs2val_0xffffffff+0x24>
4: # done with test

# cr_rs1_rs2_edges_offset (Test source rs1 = 0x5bbc8872 rs2 = 0xfffffffe)
  RVTEST_TESTDATA_LOAD_INT(x23, x14) # load rs1: x14 = 0x5bbc8872
    4b60:	000ba703          	lw	x14,0(x23)
    4b64:	004b8b93          	addi	x23,x23,4
  RVTEST_TESTDATA_LOAD_INT(x23, x25) # load rs2: x25 = 0xfffffffe
    4b68:	000bac83          	lw	x25,0(x23)
    4b6c:	004b8b93          	addi	x23,x23,4

00004b70 <I_blt_cg_cr_rs1_rs2_edges_offset_rs1val_0x5bbc8872_rs2val_0xfffffffe>:
0: # destination for backwards branch that is never taken
I_blt_cg_cr_rs1_rs2_edges_offset_rs1val_0x5bbc8872_rs2val_0xfffffffe:
  blt x14, x25, 3f # forward branch, if taken
    4b70:	05974263          	blt	x14,x25,4bb4 <I_blt_cg_cr_rs1_rs2_edges_offset_rs1val_0x5bbc8872_rs2val_0xfffffffe+0x44>
1: # goes here if not taken
  blt x14, x25, 0b # backward branch, never taken
    4b74:	ff974ee3          	blt	x14,x25,4b70 <I_blt_cg_cr_rs1_rs2_edges_offset_rs1val_0x5bbc8872_rs2val_0xfffffffe>
  # Check if x0 contains the expected result. x17 is the signature ptr, x5 is the link ptr, x4 is a temp reg.
  RVTEST_SIGUPD(x17, x5, x4, x0, I_blt_cg_cr_rs1_rs2_edges_offset_rs1val_0x5bbc8872_rs2val_0xfffffffe, I_blt_cg_cr_rs1_rs2_edges_offset_rs1val_0x5bbc8872_rs2val_0xfffffffe_str)
    4b78:	0008a203          	lw	x4,0(x17)
    4b7c:	00020863          	beq	x4,x0,4b8c <I_blt_cg_cr_rs1_rs2_edges_offset_rs1val_0x5bbc8872_rs2val_0xfffffffe+0x1c>
    4b80:	4fc052ef          	jal	x5,a07c <failedtest_x5_x4>
    4b84:	00004b70          	.word	0x00004b70
    4b88:	000106e0          	.word	0x000106e0
    4b8c:	00488893          	addi	x17,x17,4
  j 4f # done with test
    4b90:	0280006f          	jal	x0,4bb8 <I_blt_cg_cr_rs1_rs2_edges_offset_rs1val_0x5bbc8872_rs2val_0xfffffffe+0x48>
2: # goes here during backward branch if taken
  LI(x14, 1)
    4b94:	00100713          	addi	x14,x0,1
  # Check if x14 contains the expected result. x17 is the signature ptr, x5 is the link ptr, x4 is a temp reg.
  RVTEST_SIGUPD(x17, x5, x4, x14, I_blt_cg_cr_rs1_rs2_edges_offset_rs1val_0x5bbc8872_rs2val_0xfffffffe, I_blt_cg_cr_rs1_rs2_edges_offset_rs1val_0x5bbc8872_rs2val_0xfffffffe_str) # signature 1 for taken
    4b98:	0008a203          	lw	x4,0(x17)
    4b9c:	00e20863          	beq	x4,x14,4bac <I_blt_cg_cr_rs1_rs2_edges_offset_rs1val_0x5bbc8872_rs2val_0xfffffffe+0x3c>
    4ba0:	4dc052ef          	jal	x5,a07c <failedtest_x5_x4>
    4ba4:	00004b70          	.word	0x00004b70
    4ba8:	000106e0          	.word	0x000106e0
    4bac:	00488893          	addi	x17,x17,4
  j 4f # done with test
    4bb0:	0080006f          	jal	x0,4bb8 <I_blt_cg_cr_rs1_rs2_edges_offset_rs1val_0x5bbc8872_rs2val_0xfffffffe+0x48>
3: # goes here during forward branch if taken
  blt x14, x25, 2b # backward branch, definitely taken
    4bb4:	ff9740e3          	blt	x14,x25,4b94 <I_blt_cg_cr_rs1_rs2_edges_offset_rs1val_0x5bbc8872_rs2val_0xfffffffe+0x24>
4: # done with test

# cr_rs1_rs2_edges_offset (Test source rs1 = 0x5bbc8872 rs2 = 0x5bbc8872)
  RVTEST_TESTDATA_LOAD_INT(x23, x25) # load rs1: x25 = 0x5bbc8872
    4bb8:	000bac83          	lw	x25,0(x23)
    4bbc:	004b8b93          	addi	x23,x23,4
  RVTEST_TESTDATA_LOAD_INT(x23, x11) # load rs2: x11 = 0x5bbc8872
    4bc0:	000ba583          	lw	x11,0(x23)
    4bc4:	004b8b93          	addi	x23,x23,4

00004bc8 <I_blt_cg_cr_rs1_rs2_edges_offset_rs1val_0x5bbc8872_rs2val_0x5bbc8872>:
0: # destination for backwards branch that is never taken
I_blt_cg_cr_rs1_rs2_edges_offset_rs1val_0x5bbc8872_rs2val_0x5bbc8872:
  blt x25, x11, 3f # forward branch, if taken
    4bc8:	04bcc263          	blt	x25,x11,4c0c <I_blt_cg_cr_rs1_rs2_edges_offset_rs1val_0x5bbc8872_rs2val_0x5bbc8872+0x44>
1: # goes here if not taken
  blt x25, x11, 0b # backward branch, never taken
    4bcc:	febccee3          	blt	x25,x11,4bc8 <I_blt_cg_cr_rs1_rs2_edges_offset_rs1val_0x5bbc8872_rs2val_0x5bbc8872>
  # Check if x0 contains the expected result. x17 is the signature ptr, x5 is the link ptr, x4 is a temp reg.
  RVTEST_SIGUPD(x17, x5, x4, x0, I_blt_cg_cr_rs1_rs2_edges_offset_rs1val_0x5bbc8872_rs2val_0x5bbc8872, I_blt_cg_cr_rs1_rs2_edges_offset_rs1val_0x5bbc8872_rs2val_0x5bbc8872_str)
    4bd0:	0008a203          	lw	x4,0(x17)
    4bd4:	00020863          	beq	x4,x0,4be4 <I_blt_cg_cr_rs1_rs2_edges_offset_rs1val_0x5bbc8872_rs2val_0x5bbc8872+0x1c>
    4bd8:	4a4052ef          	jal	x5,a07c <failedtest_x5_x4>
    4bdc:	00004bc8          	.word	0x00004bc8
    4be0:	00010742          	.word	0x00010742
    4be4:	00488893          	addi	x17,x17,4
  j 4f # done with test
    4be8:	0280006f          	jal	x0,4c10 <I_blt_cg_cr_rs1_rs2_edges_offset_rs1val_0x5bbc8872_rs2val_0x5bbc8872+0x48>
2: # goes here during backward branch if taken
  LI(x25, 1)
    4bec:	00100c93          	addi	x25,x0,1
  # Check if x25 contains the expected result. x17 is the signature ptr, x5 is the link ptr, x4 is a temp reg.
  RVTEST_SIGUPD(x17, x5, x4, x25, I_blt_cg_cr_rs1_rs2_edges_offset_rs1val_0x5bbc8872_rs2val_0x5bbc8872, I_blt_cg_cr_rs1_rs2_edges_offset_rs1val_0x5bbc8872_rs2val_0x5bbc8872_str) # signature 1 for taken
    4bf0:	0008a203          	lw	x4,0(x17)
    4bf4:	01920863          	beq	x4,x25,4c04 <I_blt_cg_cr_rs1_rs2_edges_offset_rs1val_0x5bbc8872_rs2val_0x5bbc8872+0x3c>
    4bf8:	484052ef          	jal	x5,a07c <failedtest_x5_x4>
    4bfc:	00004bc8          	.word	0x00004bc8
    4c00:	00010742          	.word	0x00010742
    4c04:	00488893          	addi	x17,x17,4
  j 4f # done with test
    4c08:	0080006f          	jal	x0,4c10 <I_blt_cg_cr_rs1_rs2_edges_offset_rs1val_0x5bbc8872_rs2val_0x5bbc8872+0x48>
3: # goes here during forward branch if taken
  blt x25, x11, 2b # backward branch, definitely taken
    4c0c:	febcc0e3          	blt	x25,x11,4bec <I_blt_cg_cr_rs1_rs2_edges_offset_rs1val_0x5bbc8872_rs2val_0x5bbc8872+0x24>
4: # done with test

# cr_rs1_rs2_edges_offset (Test source rs1 = 0x5bbc8872 rs2 = 0xaaaaaaaa)
  RVTEST_TESTDATA_LOAD_INT(x23, x3) # load rs1: x3 = 0x5bbc8872
    4c10:	000ba183          	lw	x3,0(x23)
    4c14:	004b8b93          	addi	x23,x23,4
  RVTEST_TESTDATA_LOAD_INT(x23, x2) # load rs2: x2 = 0xaaaaaaaa
    4c18:	000ba103          	lw	x2,0(x23)
    4c1c:	004b8b93          	addi	x23,x23,4

00004c20 <I_blt_cg_cr_rs1_rs2_edges_offset_rs1val_0x5bbc8872_rs2val_0xaaaaaaaa>:
0: # destination for backwards branch that is never taken
I_blt_cg_cr_rs1_rs2_edges_offset_rs1val_0x5bbc8872_rs2val_0xaaaaaaaa:
  blt x3, x2, 3f # forward branch, if taken
    4c20:	0421c263          	blt	x3,x2,4c64 <I_blt_cg_cr_rs1_rs2_edges_offset_rs1val_0x5bbc8872_rs2val_0xaaaaaaaa+0x44>
1: # goes here if not taken
  blt x3, x2, 0b # backward branch, never taken
    4c24:	fe21cee3          	blt	x3,x2,4c20 <I_blt_cg_cr_rs1_rs2_edges_offset_rs1val_0x5bbc8872_rs2val_0xaaaaaaaa>
  # Check if x0 contains the expected result. x17 is the signature ptr, x5 is the link ptr, x4 is a temp reg.
  RVTEST_SIGUPD(x17, x5, x4, x0, I_blt_cg_cr_rs1_rs2_edges_offset_rs1val_0x5bbc8872_rs2val_0xaaaaaaaa, I_blt_cg_cr_rs1_rs2_edges_offset_rs1val_0x5bbc8872_rs2val_0xaaaaaaaa_str)
    4c28:	0008a203          	lw	x4,0(x17)
    4c2c:	00020863          	beq	x4,x0,4c3c <I_blt_cg_cr_rs1_rs2_edges_offset_rs1val_0x5bbc8872_rs2val_0xaaaaaaaa+0x1c>
    4c30:	44c052ef          	jal	x5,a07c <failedtest_x5_x4>
    4c34:	00004c20          	.word	0x00004c20
    4c38:	000107a4          	.word	0x000107a4
    4c3c:	00488893          	addi	x17,x17,4
  j 4f # done with test
    4c40:	0280006f          	jal	x0,4c68 <I_blt_cg_cr_rs1_rs2_edges_offset_rs1val_0x5bbc8872_rs2val_0xaaaaaaaa+0x48>
2: # goes here during backward branch if taken
  LI(x3, 1)
    4c44:	00100193          	addi	x3,x0,1
  # Check if x3 contains the expected result. x17 is the signature ptr, x5 is the link ptr, x4 is a temp reg.
  RVTEST_SIGUPD(x17, x5, x4, x3, I_blt_cg_cr_rs1_rs2_edges_offset_rs1val_0x5bbc8872_rs2val_0xaaaaaaaa, I_blt_cg_cr_rs1_rs2_edges_offset_rs1val_0x5bbc8872_rs2val_0xaaaaaaaa_str) # signature 1 for taken
    4c48:	0008a203          	lw	x4,0(x17)
    4c4c:	00320863          	beq	x4,x3,4c5c <I_blt_cg_cr_rs1_rs2_edges_offset_rs1val_0x5bbc8872_rs2val_0xaaaaaaaa+0x3c>
    4c50:	42c052ef          	jal	x5,a07c <failedtest_x5_x4>
    4c54:	00004c20          	.word	0x00004c20
    4c58:	000107a4          	.word	0x000107a4
    4c5c:	00488893          	addi	x17,x17,4
  j 4f # done with test
    4c60:	0080006f          	jal	x0,4c68 <I_blt_cg_cr_rs1_rs2_edges_offset_rs1val_0x5bbc8872_rs2val_0xaaaaaaaa+0x48>
3: # goes here during forward branch if taken
  blt x3, x2, 2b # backward branch, definitely taken
    4c64:	fe21c0e3          	blt	x3,x2,4c44 <I_blt_cg_cr_rs1_rs2_edges_offset_rs1val_0x5bbc8872_rs2val_0xaaaaaaaa+0x24>
4: # done with test

# cr_rs1_rs2_edges_offset (Test source rs1 = 0x5bbc8872 rs2 = 0x55555555)
  RVTEST_TESTDATA_LOAD_INT(x23, x24) # load rs1: x24 = 0x5bbc8872
    4c68:	000bac03          	lw	x24,0(x23)
    4c6c:	004b8b93          	addi	x23,x23,4
  RVTEST_TESTDATA_LOAD_INT(x23, x6) # load rs2: x6 = 0x55555555
    4c70:	000ba303          	lw	x6,0(x23)
    4c74:	004b8b93          	addi	x23,x23,4

00004c78 <I_blt_cg_cr_rs1_rs2_edges_offset_rs1val_0x5bbc8872_rs2val_0x55555555>:
0: # destination for backwards branch that is never taken
I_blt_cg_cr_rs1_rs2_edges_offset_rs1val_0x5bbc8872_rs2val_0x55555555:
  blt x24, x6, 3f # forward branch, if taken
    4c78:	046c4263          	blt	x24,x6,4cbc <I_blt_cg_cr_rs1_rs2_edges_offset_rs1val_0x5bbc8872_rs2val_0x55555555+0x44>
1: # goes here if not taken
  blt x24, x6, 0b # backward branch, never taken
    4c7c:	fe6c4ee3          	blt	x24,x6,4c78 <I_blt_cg_cr_rs1_rs2_edges_offset_rs1val_0x5bbc8872_rs2val_0x55555555>
  # Check if x0 contains the expected result. x17 is the signature ptr, x5 is the link ptr, x4 is a temp reg.
  RVTEST_SIGUPD(x17, x5, x4, x0, I_blt_cg_cr_rs1_rs2_edges_offset_rs1val_0x5bbc8872_rs2val_0x55555555, I_blt_cg_cr_rs1_rs2_edges_offset_rs1val_0x5bbc8872_rs2val_0x55555555_str)
    4c80:	0008a203          	lw	x4,0(x17)
    4c84:	00020863          	beq	x4,x0,4c94 <I_blt_cg_cr_rs1_rs2_edges_offset_rs1val_0x5bbc8872_rs2val_0x55555555+0x1c>
    4c88:	3f4052ef          	jal	x5,a07c <failedtest_x5_x4>
    4c8c:	00004c78          	.word	0x00004c78
    4c90:	00010806          	.word	0x00010806
    4c94:	00488893          	addi	x17,x17,4
  j 4f # done with test
    4c98:	0280006f          	jal	x0,4cc0 <I_blt_cg_cr_rs1_rs2_edges_offset_rs1val_0x5bbc8872_rs2val_0x55555555+0x48>
2: # goes here during backward branch if taken
  LI(x24, 1)
    4c9c:	00100c13          	addi	x24,x0,1
  # Check if x24 contains the expected result. x17 is the signature ptr, x5 is the link ptr, x4 is a temp reg.
  RVTEST_SIGUPD(x17, x5, x4, x24, I_blt_cg_cr_rs1_rs2_edges_offset_rs1val_0x5bbc8872_rs2val_0x55555555, I_blt_cg_cr_rs1_rs2_edges_offset_rs1val_0x5bbc8872_rs2val_0x55555555_str) # signature 1 for taken
    4ca0:	0008a203          	lw	x4,0(x17)
    4ca4:	01820863          	beq	x4,x24,4cb4 <I_blt_cg_cr_rs1_rs2_edges_offset_rs1val_0x5bbc8872_rs2val_0x55555555+0x3c>
    4ca8:	3d4052ef          	jal	x5,a07c <failedtest_x5_x4>
    4cac:	00004c78          	.word	0x00004c78
    4cb0:	00010806          	.word	0x00010806
    4cb4:	00488893          	addi	x17,x17,4
  j 4f # done with test
    4cb8:	0080006f          	jal	x0,4cc0 <I_blt_cg_cr_rs1_rs2_edges_offset_rs1val_0x5bbc8872_rs2val_0x55555555+0x48>
3: # goes here during forward branch if taken
  blt x24, x6, 2b # backward branch, definitely taken
    4cbc:	fe6c40e3          	blt	x24,x6,4c9c <I_blt_cg_cr_rs1_rs2_edges_offset_rs1val_0x5bbc8872_rs2val_0x55555555+0x24>
4: # done with test

# cr_rs1_rs2_edges_offset (Test source rs1 = 0xaaaaaaaa rs2 = 0x00000000)
  RVTEST_TESTDATA_LOAD_INT(x23, x3) # load rs1: x3 = 0xaaaaaaaa
    4cc0:	000ba183          	lw	x3,0(x23)
    4cc4:	004b8b93          	addi	x23,x23,4
  RVTEST_TESTDATA_LOAD_INT(x23, x27) # load rs2: x27 = 0x00000000
    4cc8:	000bad83          	lw	x27,0(x23)
    4ccc:	004b8b93          	addi	x23,x23,4

00004cd0 <I_blt_cg_cr_rs1_rs2_edges_offset_rs1val_0xaaaaaaaa_rs2val_0x0>:
0: # destination for backwards branch that is never taken
I_blt_cg_cr_rs1_rs2_edges_offset_rs1val_0xaaaaaaaa_rs2val_0x0:
  blt x3, x27, 3f # forward branch, if taken
    4cd0:	05b1c263          	blt	x3,x27,4d14 <I_blt_cg_cr_rs1_rs2_edges_offset_rs1val_0xaaaaaaaa_rs2val_0x0+0x44>
1: # goes here if not taken
  blt x3, x27, 0b # backward branch, never taken
    4cd4:	ffb1cee3          	blt	x3,x27,4cd0 <I_blt_cg_cr_rs1_rs2_edges_offset_rs1val_0xaaaaaaaa_rs2val_0x0>
  # Check if x0 contains the expected result. x17 is the signature ptr, x5 is the link ptr, x4 is a temp reg.
  RVTEST_SIGUPD(x17, x5, x4, x0, I_blt_cg_cr_rs1_rs2_edges_offset_rs1val_0xaaaaaaaa_rs2val_0x0, I_blt_cg_cr_rs1_rs2_edges_offset_rs1val_0xaaaaaaaa_rs2val_0x0_str)
    4cd8:	0008a203          	lw	x4,0(x17)
    4cdc:	00020863          	beq	x4,x0,4cec <I_blt_cg_cr_rs1_rs2_edges_offset_rs1val_0xaaaaaaaa_rs2val_0x0+0x1c>
    4ce0:	39c052ef          	jal	x5,a07c <failedtest_x5_x4>
    4ce4:	00004cd0          	.word	0x00004cd0
    4ce8:	00010868          	.word	0x00010868
    4cec:	00488893          	addi	x17,x17,4
  j 4f # done with test
    4cf0:	0280006f          	jal	x0,4d18 <I_blt_cg_cr_rs1_rs2_edges_offset_rs1val_0xaaaaaaaa_rs2val_0x0+0x48>
2: # goes here during backward branch if taken
  LI(x3, 1)
    4cf4:	00100193          	addi	x3,x0,1
  # Check if x3 contains the expected result. x17 is the signature ptr, x5 is the link ptr, x4 is a temp reg.
  RVTEST_SIGUPD(x17, x5, x4, x3, I_blt_cg_cr_rs1_rs2_edges_offset_rs1val_0xaaaaaaaa_rs2val_0x0, I_blt_cg_cr_rs1_rs2_edges_offset_rs1val_0xaaaaaaaa_rs2val_0x0_str) # signature 1 for taken
    4cf8:	0008a203          	lw	x4,0(x17)
    4cfc:	00320863          	beq	x4,x3,4d0c <I_blt_cg_cr_rs1_rs2_edges_offset_rs1val_0xaaaaaaaa_rs2val_0x0+0x3c>
    4d00:	37c052ef          	jal	x5,a07c <failedtest_x5_x4>
    4d04:	00004cd0          	.word	0x00004cd0
    4d08:	00010868          	.word	0x00010868
    4d0c:	00488893          	addi	x17,x17,4
  j 4f # done with test
    4d10:	0080006f          	jal	x0,4d18 <I_blt_cg_cr_rs1_rs2_edges_offset_rs1val_0xaaaaaaaa_rs2val_0x0+0x48>
3: # goes here during forward branch if taken
  blt x3, x27, 2b # backward branch, definitely taken
    4d14:	ffb1c0e3          	blt	x3,x27,4cf4 <I_blt_cg_cr_rs1_rs2_edges_offset_rs1val_0xaaaaaaaa_rs2val_0x0+0x24>
4: # done with test

# cr_rs1_rs2_edges_offset (Test source rs1 = 0xaaaaaaaa rs2 = 0x00000001)
  RVTEST_TESTDATA_LOAD_INT(x23, x11) # load rs1: x11 = 0xaaaaaaaa
    4d18:	000ba583          	lw	x11,0(x23)
    4d1c:	004b8b93          	addi	x23,x23,4
  RVTEST_TESTDATA_LOAD_INT(x23, x14) # load rs2: x14 = 0x00000001
    4d20:	000ba703          	lw	x14,0(x23)
    4d24:	004b8b93          	addi	x23,x23,4

00004d28 <I_blt_cg_cr_rs1_rs2_edges_offset_rs1val_0xaaaaaaaa_rs2val_0x1>:
0: # destination for backwards branch that is never taken
I_blt_cg_cr_rs1_rs2_edges_offset_rs1val_0xaaaaaaaa_rs2val_0x1:
  blt x11, x14, 3f # forward branch, if taken
    4d28:	04e5c263          	blt	x11,x14,4d6c <I_blt_cg_cr_rs1_rs2_edges_offset_rs1val_0xaaaaaaaa_rs2val_0x1+0x44>
1: # goes here if not taken
  blt x11, x14, 0b # backward branch, never taken
    4d2c:	fee5cee3          	blt	x11,x14,4d28 <I_blt_cg_cr_rs1_rs2_edges_offset_rs1val_0xaaaaaaaa_rs2val_0x1>
  # Check if x0 contains the expected result. x17 is the signature ptr, x5 is the link ptr, x4 is a temp reg.
  RVTEST_SIGUPD(x17, x5, x4, x0, I_blt_cg_cr_rs1_rs2_edges_offset_rs1val_0xaaaaaaaa_rs2val_0x1, I_blt_cg_cr_rs1_rs2_edges_offset_rs1val_0xaaaaaaaa_rs2val_0x1_str)
    4d30:	0008a203          	lw	x4,0(x17)
    4d34:	00020863          	beq	x4,x0,4d44 <I_blt_cg_cr_rs1_rs2_edges_offset_rs1val_0xaaaaaaaa_rs2val_0x1+0x1c>
    4d38:	344052ef          	jal	x5,a07c <failedtest_x5_x4>
    4d3c:	00004d28          	.word	0x00004d28
    4d40:	000108c3          	.word	0x000108c3
    4d44:	00488893          	addi	x17,x17,4
  j 4f # done with test
    4d48:	0280006f          	jal	x0,4d70 <I_blt_cg_cr_rs1_rs2_edges_offset_rs1val_0xaaaaaaaa_rs2val_0x1+0x48>
2: # goes here during backward branch if taken
  LI(x11, 1)
    4d4c:	00100593          	addi	x11,x0,1
  # Check if x11 contains the expected result. x17 is the signature ptr, x5 is the link ptr, x4 is a temp reg.
  RVTEST_SIGUPD(x17, x5, x4, x11, I_blt_cg_cr_rs1_rs2_edges_offset_rs1val_0xaaaaaaaa_rs2val_0x1, I_blt_cg_cr_rs1_rs2_edges_offset_rs1val_0xaaaaaaaa_rs2val_0x1_str) # signature 1 for taken
    4d50:	0008a203          	lw	x4,0(x17)
    4d54:	00b20863          	beq	x4,x11,4d64 <I_blt_cg_cr_rs1_rs2_edges_offset_rs1val_0xaaaaaaaa_rs2val_0x1+0x3c>
    4d58:	324052ef          	jal	x5,a07c <failedtest_x5_x4>
    4d5c:	00004d28          	.word	0x00004d28
    4d60:	000108c3          	.word	0x000108c3
    4d64:	00488893          	addi	x17,x17,4
  j 4f # done with test
    4d68:	0080006f          	jal	x0,4d70 <I_blt_cg_cr_rs1_rs2_edges_offset_rs1val_0xaaaaaaaa_rs2val_0x1+0x48>
3: # goes here during forward branch if taken
  blt x11, x14, 2b # backward branch, definitely taken
    4d6c:	fee5c0e3          	blt	x11,x14,4d4c <I_blt_cg_cr_rs1_rs2_edges_offset_rs1val_0xaaaaaaaa_rs2val_0x1+0x24>
4: # done with test

# cr_rs1_rs2_edges_offset (Test source rs1 = 0xaaaaaaaa rs2 = 0x00000002)
  RVTEST_TESTDATA_LOAD_INT(x23, x8) # load rs1: x8 = 0xaaaaaaaa
    4d70:	000ba403          	lw	x8,0(x23)
    4d74:	004b8b93          	addi	x23,x23,4
  RVTEST_TESTDATA_LOAD_INT(x23, x27) # load rs2: x27 = 0x00000002
    4d78:	000bad83          	lw	x27,0(x23)
    4d7c:	004b8b93          	addi	x23,x23,4

00004d80 <I_blt_cg_cr_rs1_rs2_edges_offset_rs1val_0xaaaaaaaa_rs2val_0x2>:
0: # destination for backwards branch that is never taken
I_blt_cg_cr_rs1_rs2_edges_offset_rs1val_0xaaaaaaaa_rs2val_0x2:
  blt x8, x27, 3f # forward branch, if taken
    4d80:	05b44263          	blt	x8,x27,4dc4 <I_blt_cg_cr_rs1_rs2_edges_offset_rs1val_0xaaaaaaaa_rs2val_0x2+0x44>
1: # goes here if not taken
  blt x8, x27, 0b # backward branch, never taken
    4d84:	ffb44ee3          	blt	x8,x27,4d80 <I_blt_cg_cr_rs1_rs2_edges_offset_rs1val_0xaaaaaaaa_rs2val_0x2>
  # Check if x0 contains the expected result. x17 is the signature ptr, x5 is the link ptr, x4 is a temp reg.
  RVTEST_SIGUPD(x17, x5, x4, x0, I_blt_cg_cr_rs1_rs2_edges_offset_rs1val_0xaaaaaaaa_rs2val_0x2, I_blt_cg_cr_rs1_rs2_edges_offset_rs1val_0xaaaaaaaa_rs2val_0x2_str)
    4d88:	0008a203          	lw	x4,0(x17)
    4d8c:	00020863          	beq	x4,x0,4d9c <I_blt_cg_cr_rs1_rs2_edges_offset_rs1val_0xaaaaaaaa_rs2val_0x2+0x1c>
    4d90:	2ec052ef          	jal	x5,a07c <failedtest_x5_x4>
    4d94:	00004d80          	.word	0x00004d80
    4d98:	0001091e          	.word	0x0001091e
    4d9c:	00488893          	addi	x17,x17,4
  j 4f # done with test
    4da0:	0280006f          	jal	x0,4dc8 <I_blt_cg_cr_rs1_rs2_edges_offset_rs1val_0xaaaaaaaa_rs2val_0x2+0x48>
2: # goes here during backward branch if taken
  LI(x8, 1)
    4da4:	00100413          	addi	x8,x0,1
  # Check if x8 contains the expected result. x17 is the signature ptr, x5 is the link ptr, x4 is a temp reg.
  RVTEST_SIGUPD(x17, x5, x4, x8, I_blt_cg_cr_rs1_rs2_edges_offset_rs1val_0xaaaaaaaa_rs2val_0x2, I_blt_cg_cr_rs1_rs2_edges_offset_rs1val_0xaaaaaaaa_rs2val_0x2_str) # signature 1 for taken
    4da8:	0008a203          	lw	x4,0(x17)
    4dac:	00820863          	beq	x4,x8,4dbc <I_blt_cg_cr_rs1_rs2_edges_offset_rs1val_0xaaaaaaaa_rs2val_0x2+0x3c>
    4db0:	2cc052ef          	jal	x5,a07c <failedtest_x5_x4>
    4db4:	00004d80          	.word	0x00004d80
    4db8:	0001091e          	.word	0x0001091e
    4dbc:	00488893          	addi	x17,x17,4
  j 4f # done with test
    4dc0:	0080006f          	jal	x0,4dc8 <I_blt_cg_cr_rs1_rs2_edges_offset_rs1val_0xaaaaaaaa_rs2val_0x2+0x48>
3: # goes here during forward branch if taken
  blt x8, x27, 2b # backward branch, definitely taken
    4dc4:	ffb440e3          	blt	x8,x27,4da4 <I_blt_cg_cr_rs1_rs2_edges_offset_rs1val_0xaaaaaaaa_rs2val_0x2+0x24>
4: # done with test

# cr_rs1_rs2_edges_offset (Test source rs1 = 0xaaaaaaaa rs2 = 0x80000000)
  RVTEST_TESTDATA_LOAD_INT(x23, x25) # load rs1: x25 = 0xaaaaaaaa
    4dc8:	000bac83          	lw	x25,0(x23)
    4dcc:	004b8b93          	addi	x23,x23,4
  RVTEST_TESTDATA_LOAD_INT(x23, x3) # load rs2: x3 = 0x80000000
    4dd0:	000ba183          	lw	x3,0(x23)
    4dd4:	004b8b93          	addi	x23,x23,4

00004dd8 <I_blt_cg_cr_rs1_rs2_edges_offset_rs1val_0xaaaaaaaa_rs2val_0x80000000>:
0: # destination for backwards branch that is never taken
I_blt_cg_cr_rs1_rs2_edges_offset_rs1val_0xaaaaaaaa_rs2val_0x80000000:
  blt x25, x3, 3f # forward branch, if taken
    4dd8:	043cc263          	blt	x25,x3,4e1c <I_blt_cg_cr_rs1_rs2_edges_offset_rs1val_0xaaaaaaaa_rs2val_0x80000000+0x44>
1: # goes here if not taken
  blt x25, x3, 0b # backward branch, never taken
    4ddc:	fe3ccee3          	blt	x25,x3,4dd8 <I_blt_cg_cr_rs1_rs2_edges_offset_rs1val_0xaaaaaaaa_rs2val_0x80000000>
  # Check if x0 contains the expected result. x17 is the signature ptr, x5 is the link ptr, x4 is a temp reg.
  RVTEST_SIGUPD(x17, x5, x4, x0, I_blt_cg_cr_rs1_rs2_edges_offset_rs1val_0xaaaaaaaa_rs2val_0x80000000, I_blt_cg_cr_rs1_rs2_edges_offset_rs1val_0xaaaaaaaa_rs2val_0x80000000_str)
    4de0:	0008a203          	lw	x4,0(x17)
    4de4:	00020863          	beq	x4,x0,4df4 <I_blt_cg_cr_rs1_rs2_edges_offset_rs1val_0xaaaaaaaa_rs2val_0x80000000+0x1c>
    4de8:	294052ef          	jal	x5,a07c <failedtest_x5_x4>
    4dec:	00004dd8          	.word	0x00004dd8
    4df0:	00010979          	.word	0x00010979
    4df4:	00488893          	addi	x17,x17,4
  j 4f # done with test
    4df8:	0280006f          	jal	x0,4e20 <I_blt_cg_cr_rs1_rs2_edges_offset_rs1val_0xaaaaaaaa_rs2val_0x80000000+0x48>
2: # goes here during backward branch if taken
  LI(x25, 1)
    4dfc:	00100c93          	addi	x25,x0,1
  # Check if x25 contains the expected result. x17 is the signature ptr, x5 is the link ptr, x4 is a temp reg.
  RVTEST_SIGUPD(x17, x5, x4, x25, I_blt_cg_cr_rs1_rs2_edges_offset_rs1val_0xaaaaaaaa_rs2val_0x80000000, I_blt_cg_cr_rs1_rs2_edges_offset_rs1val_0xaaaaaaaa_rs2val_0x80000000_str) # signature 1 for taken
    4e00:	0008a203          	lw	x4,0(x17)
    4e04:	01920863          	beq	x4,x25,4e14 <I_blt_cg_cr_rs1_rs2_edges_offset_rs1val_0xaaaaaaaa_rs2val_0x80000000+0x3c>
    4e08:	274052ef          	jal	x5,a07c <failedtest_x5_x4>
    4e0c:	00004dd8          	.word	0x00004dd8
    4e10:	00010979          	.word	0x00010979
    4e14:	00488893          	addi	x17,x17,4
  j 4f # done with test
    4e18:	0080006f          	jal	x0,4e20 <I_blt_cg_cr_rs1_rs2_edges_offset_rs1val_0xaaaaaaaa_rs2val_0x80000000+0x48>
3: # goes here during forward branch if taken
  blt x25, x3, 2b # backward branch, definitely taken
    4e1c:	fe3cc0e3          	blt	x25,x3,4dfc <I_blt_cg_cr_rs1_rs2_edges_offset_rs1val_0xaaaaaaaa_rs2val_0x80000000+0x24>
4: # done with test

# cr_rs1_rs2_edges_offset (Test source rs1 = 0xaaaaaaaa rs2 = 0x80000001)
  RVTEST_TESTDATA_LOAD_INT(x23, x15) # load rs1: x15 = 0xaaaaaaaa
    4e20:	000ba783          	lw	x15,0(x23)
    4e24:	004b8b93          	addi	x23,x23,4
  RVTEST_TESTDATA_LOAD_INT(x23, x28) # load rs2: x28 = 0x80000001
    4e28:	000bae03          	lw	x28,0(x23)
    4e2c:	004b8b93          	addi	x23,x23,4

00004e30 <I_blt_cg_cr_rs1_rs2_edges_offset_rs1val_0xaaaaaaaa_rs2val_0x80000001>:
0: # destination for backwards branch that is never taken
I_blt_cg_cr_rs1_rs2_edges_offset_rs1val_0xaaaaaaaa_rs2val_0x80000001:
  blt x15, x28, 3f # forward branch, if taken
    4e30:	05c7c263          	blt	x15,x28,4e74 <I_blt_cg_cr_rs1_rs2_edges_offset_rs1val_0xaaaaaaaa_rs2val_0x80000001+0x44>
1: # goes here if not taken
  blt x15, x28, 0b # backward branch, never taken
    4e34:	ffc7cee3          	blt	x15,x28,4e30 <I_blt_cg_cr_rs1_rs2_edges_offset_rs1val_0xaaaaaaaa_rs2val_0x80000001>
  # Check if x0 contains the expected result. x17 is the signature ptr, x5 is the link ptr, x4 is a temp reg.
  RVTEST_SIGUPD(x17, x5, x4, x0, I_blt_cg_cr_rs1_rs2_edges_offset_rs1val_0xaaaaaaaa_rs2val_0x80000001, I_blt_cg_cr_rs1_rs2_edges_offset_rs1val_0xaaaaaaaa_rs2val_0x80000001_str)
    4e38:	0008a203          	lw	x4,0(x17)
    4e3c:	00020863          	beq	x4,x0,4e4c <I_blt_cg_cr_rs1_rs2_edges_offset_rs1val_0xaaaaaaaa_rs2val_0x80000001+0x1c>
    4e40:	23c052ef          	jal	x5,a07c <failedtest_x5_x4>
    4e44:	00004e30          	.word	0x00004e30
    4e48:	000109db          	.word	0x000109db
    4e4c:	00488893          	addi	x17,x17,4
  j 4f # done with test
    4e50:	0280006f          	jal	x0,4e78 <I_blt_cg_cr_rs1_rs2_edges_offset_rs1val_0xaaaaaaaa_rs2val_0x80000001+0x48>
2: # goes here during backward branch if taken
  LI(x15, 1)
    4e54:	00100793          	addi	x15,x0,1
  # Check if x15 contains the expected result. x17 is the signature ptr, x5 is the link ptr, x4 is a temp reg.
  RVTEST_SIGUPD(x17, x5, x4, x15, I_blt_cg_cr_rs1_rs2_edges_offset_rs1val_0xaaaaaaaa_rs2val_0x80000001, I_blt_cg_cr_rs1_rs2_edges_offset_rs1val_0xaaaaaaaa_rs2val_0x80000001_str) # signature 1 for taken
    4e58:	0008a203          	lw	x4,0(x17)
    4e5c:	00f20863          	beq	x4,x15,4e6c <I_blt_cg_cr_rs1_rs2_edges_offset_rs1val_0xaaaaaaaa_rs2val_0x80000001+0x3c>
    4e60:	21c052ef          	jal	x5,a07c <failedtest_x5_x4>
    4e64:	00004e30          	.word	0x00004e30
    4e68:	000109db          	.word	0x000109db
    4e6c:	00488893          	addi	x17,x17,4
  j 4f # done with test
    4e70:	0080006f          	jal	x0,4e78 <I_blt_cg_cr_rs1_rs2_edges_offset_rs1val_0xaaaaaaaa_rs2val_0x80000001+0x48>
3: # goes here during forward branch if taken
  blt x15, x28, 2b # backward branch, definitely taken
    4e74:	ffc7c0e3          	blt	x15,x28,4e54 <I_blt_cg_cr_rs1_rs2_edges_offset_rs1val_0xaaaaaaaa_rs2val_0x80000001+0x24>
4: # done with test

# cr_rs1_rs2_edges_offset (Test source rs1 = 0xaaaaaaaa rs2 = 0x7fffffff)
  RVTEST_TESTDATA_LOAD_INT(x23, x10) # load rs1: x10 = 0xaaaaaaaa
    4e78:	000ba503          	lw	x10,0(x23)
    4e7c:	004b8b93          	addi	x23,x23,4
  RVTEST_TESTDATA_LOAD_INT(x23, x28) # load rs2: x28 = 0x7fffffff
    4e80:	000bae03          	lw	x28,0(x23)
    4e84:	004b8b93          	addi	x23,x23,4

00004e88 <I_blt_cg_cr_rs1_rs2_edges_offset_rs1val_0xaaaaaaaa_rs2val_0x7fffffff>:
0: # destination for backwards branch that is never taken
I_blt_cg_cr_rs1_rs2_edges_offset_rs1val_0xaaaaaaaa_rs2val_0x7fffffff:
  blt x10, x28, 3f # forward branch, if taken
    4e88:	05c54263          	blt	x10,x28,4ecc <I_blt_cg_cr_rs1_rs2_edges_offset_rs1val_0xaaaaaaaa_rs2val_0x7fffffff+0x44>
1: # goes here if not taken
  blt x10, x28, 0b # backward branch, never taken
    4e8c:	ffc54ee3          	blt	x10,x28,4e88 <I_blt_cg_cr_rs1_rs2_edges_offset_rs1val_0xaaaaaaaa_rs2val_0x7fffffff>
  # Check if x0 contains the expected result. x17 is the signature ptr, x5 is the link ptr, x4 is a temp reg.
  RVTEST_SIGUPD(x17, x5, x4, x0, I_blt_cg_cr_rs1_rs2_edges_offset_rs1val_0xaaaaaaaa_rs2val_0x7fffffff, I_blt_cg_cr_rs1_rs2_edges_offset_rs1val_0xaaaaaaaa_rs2val_0x7fffffff_str)
    4e90:	0008a203          	lw	x4,0(x17)
    4e94:	00020863          	beq	x4,x0,4ea4 <I_blt_cg_cr_rs1_rs2_edges_offset_rs1val_0xaaaaaaaa_rs2val_0x7fffffff+0x1c>
    4e98:	1e4052ef          	jal	x5,a07c <failedtest_x5_x4>
    4e9c:	00004e88          	.word	0x00004e88
    4ea0:	00010a3d          	.word	0x00010a3d
    4ea4:	00488893          	addi	x17,x17,4
  j 4f # done with test
    4ea8:	0280006f          	jal	x0,4ed0 <I_blt_cg_cr_rs1_rs2_edges_offset_rs1val_0xaaaaaaaa_rs2val_0x7fffffff+0x48>
2: # goes here during backward branch if taken
  LI(x10, 1)
    4eac:	00100513          	addi	x10,x0,1
  # Check if x10 contains the expected result. x17 is the signature ptr, x5 is the link ptr, x4 is a temp reg.
  RVTEST_SIGUPD(x17, x5, x4, x10, I_blt_cg_cr_rs1_rs2_edges_offset_rs1val_0xaaaaaaaa_rs2val_0x7fffffff, I_blt_cg_cr_rs1_rs2_edges_offset_rs1val_0xaaaaaaaa_rs2val_0x7fffffff_str) # signature 1 for taken
    4eb0:	0008a203          	lw	x4,0(x17)
    4eb4:	00a20863          	beq	x4,x10,4ec4 <I_blt_cg_cr_rs1_rs2_edges_offset_rs1val_0xaaaaaaaa_rs2val_0x7fffffff+0x3c>
    4eb8:	1c4052ef          	jal	x5,a07c <failedtest_x5_x4>
    4ebc:	00004e88          	.word	0x00004e88
    4ec0:	00010a3d          	.word	0x00010a3d
    4ec4:	00488893          	addi	x17,x17,4
  j 4f # done with test
    4ec8:	0080006f          	jal	x0,4ed0 <I_blt_cg_cr_rs1_rs2_edges_offset_rs1val_0xaaaaaaaa_rs2val_0x7fffffff+0x48>
3: # goes here during forward branch if taken
  blt x10, x28, 2b # backward branch, definitely taken
    4ecc:	ffc540e3          	blt	x10,x28,4eac <I_blt_cg_cr_rs1_rs2_edges_offset_rs1val_0xaaaaaaaa_rs2val_0x7fffffff+0x24>
4: # done with test

# cr_rs1_rs2_edges_offset (Test source rs1 = 0xaaaaaaaa rs2 = 0x7ffffffe)
  RVTEST_TESTDATA_LOAD_INT(x23, x11) # load rs1: x11 = 0xaaaaaaaa
    4ed0:	000ba583          	lw	x11,0(x23)
    4ed4:	004b8b93          	addi	x23,x23,4
  RVTEST_TESTDATA_LOAD_INT(x23, x13) # load rs2: x13 = 0x7ffffffe
    4ed8:	000ba683          	lw	x13,0(x23)
    4edc:	004b8b93          	addi	x23,x23,4

00004ee0 <I_blt_cg_cr_rs1_rs2_edges_offset_rs1val_0xaaaaaaaa_rs2val_0x7ffffffe>:
0: # destination for backwards branch that is never taken
I_blt_cg_cr_rs1_rs2_edges_offset_rs1val_0xaaaaaaaa_rs2val_0x7ffffffe:
  blt x11, x13, 3f # forward branch, if taken
    4ee0:	04d5c263          	blt	x11,x13,4f24 <I_blt_cg_cr_rs1_rs2_edges_offset_rs1val_0xaaaaaaaa_rs2val_0x7ffffffe+0x44>
1: # goes here if not taken
  blt x11, x13, 0b # backward branch, never taken
    4ee4:	fed5cee3          	blt	x11,x13,4ee0 <I_blt_cg_cr_rs1_rs2_edges_offset_rs1val_0xaaaaaaaa_rs2val_0x7ffffffe>
  # Check if x0 contains the expected result. x17 is the signature ptr, x5 is the link ptr, x4 is a temp reg.
  RVTEST_SIGUPD(x17, x5, x4, x0, I_blt_cg_cr_rs1_rs2_edges_offset_rs1val_0xaaaaaaaa_rs2val_0x7ffffffe, I_blt_cg_cr_rs1_rs2_edges_offset_rs1val_0xaaaaaaaa_rs2val_0x7ffffffe_str)
    4ee8:	0008a203          	lw	x4,0(x17)
    4eec:	00020863          	beq	x4,x0,4efc <I_blt_cg_cr_rs1_rs2_edges_offset_rs1val_0xaaaaaaaa_rs2val_0x7ffffffe+0x1c>
    4ef0:	18c052ef          	jal	x5,a07c <failedtest_x5_x4>
    4ef4:	00004ee0          	.word	0x00004ee0
    4ef8:	00010a9f          	.word	0x00010a9f
    4efc:	00488893          	addi	x17,x17,4
  j 4f # done with test
    4f00:	0280006f          	jal	x0,4f28 <I_blt_cg_cr_rs1_rs2_edges_offset_rs1val_0xaaaaaaaa_rs2val_0x7ffffffe+0x48>
2: # goes here during backward branch if taken
  LI(x11, 1)
    4f04:	00100593          	addi	x11,x0,1
  # Check if x11 contains the expected result. x17 is the signature ptr, x5 is the link ptr, x4 is a temp reg.
  RVTEST_SIGUPD(x17, x5, x4, x11, I_blt_cg_cr_rs1_rs2_edges_offset_rs1val_0xaaaaaaaa_rs2val_0x7ffffffe, I_blt_cg_cr_rs1_rs2_edges_offset_rs1val_0xaaaaaaaa_rs2val_0x7ffffffe_str) # signature 1 for taken
    4f08:	0008a203          	lw	x4,0(x17)
    4f0c:	00b20863          	beq	x4,x11,4f1c <I_blt_cg_cr_rs1_rs2_edges_offset_rs1val_0xaaaaaaaa_rs2val_0x7ffffffe+0x3c>
    4f10:	16c052ef          	jal	x5,a07c <failedtest_x5_x4>
    4f14:	00004ee0          	.word	0x00004ee0
    4f18:	00010a9f          	.word	0x00010a9f
    4f1c:	00488893          	addi	x17,x17,4
  j 4f # done with test
    4f20:	0080006f          	jal	x0,4f28 <I_blt_cg_cr_rs1_rs2_edges_offset_rs1val_0xaaaaaaaa_rs2val_0x7ffffffe+0x48>
3: # goes here during forward branch if taken
  blt x11, x13, 2b # backward branch, definitely taken
    4f24:	fed5c0e3          	blt	x11,x13,4f04 <I_blt_cg_cr_rs1_rs2_edges_offset_rs1val_0xaaaaaaaa_rs2val_0x7ffffffe+0x24>
4: # done with test

# cr_rs1_rs2_edges_offset (Test source rs1 = 0xaaaaaaaa rs2 = 0xffffffff)
  RVTEST_TESTDATA_LOAD_INT(x23, x3) # load rs1: x3 = 0xaaaaaaaa
    4f28:	000ba183          	lw	x3,0(x23)
    4f2c:	004b8b93          	addi	x23,x23,4
  RVTEST_TESTDATA_LOAD_INT(x23, x11) # load rs2: x11 = 0xffffffff
    4f30:	000ba583          	lw	x11,0(x23)
    4f34:	004b8b93          	addi	x23,x23,4

00004f38 <I_blt_cg_cr_rs1_rs2_edges_offset_rs1val_0xaaaaaaaa_rs2val_0xffffffff>:
0: # destination for backwards branch that is never taken
I_blt_cg_cr_rs1_rs2_edges_offset_rs1val_0xaaaaaaaa_rs2val_0xffffffff:
  blt x3, x11, 3f # forward branch, if taken
    4f38:	04b1c263          	blt	x3,x11,4f7c <I_blt_cg_cr_rs1_rs2_edges_offset_rs1val_0xaaaaaaaa_rs2val_0xffffffff+0x44>
1: # goes here if not taken
  blt x3, x11, 0b # backward branch, never taken
    4f3c:	feb1cee3          	blt	x3,x11,4f38 <I_blt_cg_cr_rs1_rs2_edges_offset_rs1val_0xaaaaaaaa_rs2val_0xffffffff>
  # Check if x0 contains the expected result. x17 is the signature ptr, x5 is the link ptr, x4 is a temp reg.
  RVTEST_SIGUPD(x17, x5, x4, x0, I_blt_cg_cr_rs1_rs2_edges_offset_rs1val_0xaaaaaaaa_rs2val_0xffffffff, I_blt_cg_cr_rs1_rs2_edges_offset_rs1val_0xaaaaaaaa_rs2val_0xffffffff_str)
    4f40:	0008a203          	lw	x4,0(x17)
    4f44:	00020863          	beq	x4,x0,4f54 <I_blt_cg_cr_rs1_rs2_edges_offset_rs1val_0xaaaaaaaa_rs2val_0xffffffff+0x1c>
    4f48:	134052ef          	jal	x5,a07c <failedtest_x5_x4>
    4f4c:	00004f38          	.word	0x00004f38
    4f50:	00010b01          	.word	0x00010b01
    4f54:	00488893          	addi	x17,x17,4
  j 4f # done with test
    4f58:	0280006f          	jal	x0,4f80 <I_blt_cg_cr_rs1_rs2_edges_offset_rs1val_0xaaaaaaaa_rs2val_0xffffffff+0x48>
2: # goes here during backward branch if taken
  LI(x3, 1)
    4f5c:	00100193          	addi	x3,x0,1
  # Check if x3 contains the expected result. x17 is the signature ptr, x5 is the link ptr, x4 is a temp reg.
  RVTEST_SIGUPD(x17, x5, x4, x3, I_blt_cg_cr_rs1_rs2_edges_offset_rs1val_0xaaaaaaaa_rs2val_0xffffffff, I_blt_cg_cr_rs1_rs2_edges_offset_rs1val_0xaaaaaaaa_rs2val_0xffffffff_str) # signature 1 for taken
    4f60:	0008a203          	lw	x4,0(x17)
    4f64:	00320863          	beq	x4,x3,4f74 <I_blt_cg_cr_rs1_rs2_edges_offset_rs1val_0xaaaaaaaa_rs2val_0xffffffff+0x3c>
    4f68:	114052ef          	jal	x5,a07c <failedtest_x5_x4>
    4f6c:	00004f38          	.word	0x00004f38
    4f70:	00010b01          	.word	0x00010b01
    4f74:	00488893          	addi	x17,x17,4
  j 4f # done with test
    4f78:	0080006f          	jal	x0,4f80 <I_blt_cg_cr_rs1_rs2_edges_offset_rs1val_0xaaaaaaaa_rs2val_0xffffffff+0x48>
3: # goes here during forward branch if taken
  blt x3, x11, 2b # backward branch, definitely taken
    4f7c:	feb1c0e3          	blt	x3,x11,4f5c <I_blt_cg_cr_rs1_rs2_edges_offset_rs1val_0xaaaaaaaa_rs2val_0xffffffff+0x24>
4: # done with test

# cr_rs1_rs2_edges_offset (Test source rs1 = 0xaaaaaaaa rs2 = 0xfffffffe)
  RVTEST_TESTDATA_LOAD_INT(x23, x1) # load rs1: x1 = 0xaaaaaaaa
    4f80:	000ba083          	lw	x1,0(x23)
    4f84:	004b8b93          	addi	x23,x23,4
  RVTEST_TESTDATA_LOAD_INT(x23, x20) # load rs2: x20 = 0xfffffffe
    4f88:	000baa03          	lw	x20,0(x23)
    4f8c:	004b8b93          	addi	x23,x23,4

00004f90 <I_blt_cg_cr_rs1_rs2_edges_offset_rs1val_0xaaaaaaaa_rs2val_0xfffffffe>:
0: # destination for backwards branch that is never taken
I_blt_cg_cr_rs1_rs2_edges_offset_rs1val_0xaaaaaaaa_rs2val_0xfffffffe:
  blt x1, x20, 3f # forward branch, if taken
    4f90:	0540c263          	blt	x1,x20,4fd4 <I_blt_cg_cr_rs1_rs2_edges_offset_rs1val_0xaaaaaaaa_rs2val_0xfffffffe+0x44>
1: # goes here if not taken
  blt x1, x20, 0b # backward branch, never taken
    4f94:	ff40cee3          	blt	x1,x20,4f90 <I_blt_cg_cr_rs1_rs2_edges_offset_rs1val_0xaaaaaaaa_rs2val_0xfffffffe>
  # Check if x0 contains the expected result. x17 is the signature ptr, x5 is the link ptr, x4 is a temp reg.
  RVTEST_SIGUPD(x17, x5, x4, x0, I_blt_cg_cr_rs1_rs2_edges_offset_rs1val_0xaaaaaaaa_rs2val_0xfffffffe, I_blt_cg_cr_rs1_rs2_edges_offset_rs1val_0xaaaaaaaa_rs2val_0xfffffffe_str)
    4f98:	0008a203          	lw	x4,0(x17)
    4f9c:	00020863          	beq	x4,x0,4fac <I_blt_cg_cr_rs1_rs2_edges_offset_rs1val_0xaaaaaaaa_rs2val_0xfffffffe+0x1c>
    4fa0:	0dc052ef          	jal	x5,a07c <failedtest_x5_x4>
    4fa4:	00004f90          	.word	0x00004f90
    4fa8:	00010b63          	.word	0x00010b63
    4fac:	00488893          	addi	x17,x17,4
  j 4f # done with test
    4fb0:	0280006f          	jal	x0,4fd8 <I_blt_cg_cr_rs1_rs2_edges_offset_rs1val_0xaaaaaaaa_rs2val_0xfffffffe+0x48>
2: # goes here during backward branch if taken
  LI(x1, 1)
    4fb4:	00100093          	addi	x1,x0,1
  # Check if x1 contains the expected result. x17 is the signature ptr, x5 is the link ptr, x4 is a temp reg.
  RVTEST_SIGUPD(x17, x5, x4, x1, I_blt_cg_cr_rs1_rs2_edges_offset_rs1val_0xaaaaaaaa_rs2val_0xfffffffe, I_blt_cg_cr_rs1_rs2_edges_offset_rs1val_0xaaaaaaaa_rs2val_0xfffffffe_str) # signature 1 for taken
    4fb8:	0008a203          	lw	x4,0(x17)
    4fbc:	00120863          	beq	x4,x1,4fcc <I_blt_cg_cr_rs1_rs2_edges_offset_rs1val_0xaaaaaaaa_rs2val_0xfffffffe+0x3c>
    4fc0:	0bc052ef          	jal	x5,a07c <failedtest_x5_x4>
    4fc4:	00004f90          	.word	0x00004f90
    4fc8:	00010b63          	.word	0x00010b63
    4fcc:	00488893          	addi	x17,x17,4
  j 4f # done with test
    4fd0:	0080006f          	jal	x0,4fd8 <I_blt_cg_cr_rs1_rs2_edges_offset_rs1val_0xaaaaaaaa_rs2val_0xfffffffe+0x48>
3: # goes here during forward branch if taken
  blt x1, x20, 2b # backward branch, definitely taken
    4fd4:	ff40c0e3          	blt	x1,x20,4fb4 <I_blt_cg_cr_rs1_rs2_edges_offset_rs1val_0xaaaaaaaa_rs2val_0xfffffffe+0x24>
4: # done with test

# cr_rs1_rs2_edges_offset (Test source rs1 = 0xaaaaaaaa rs2 = 0x5bbc8872)
  RVTEST_TESTDATA_LOAD_INT(x23, x13) # load rs1: x13 = 0xaaaaaaaa
    4fd8:	000ba683          	lw	x13,0(x23)
    4fdc:	004b8b93          	addi	x23,x23,4
  RVTEST_TESTDATA_LOAD_INT(x23, x22) # load rs2: x22 = 0x5bbc8872
    4fe0:	000bab03          	lw	x22,0(x23)
    4fe4:	004b8b93          	addi	x23,x23,4

00004fe8 <I_blt_cg_cr_rs1_rs2_edges_offset_rs1val_0xaaaaaaaa_rs2val_0x5bbc8872>:
0: # destination for backwards branch that is never taken
I_blt_cg_cr_rs1_rs2_edges_offset_rs1val_0xaaaaaaaa_rs2val_0x5bbc8872:
  blt x13, x22, 3f # forward branch, if taken
    4fe8:	0566c263          	blt	x13,x22,502c <I_blt_cg_cr_rs1_rs2_edges_offset_rs1val_0xaaaaaaaa_rs2val_0x5bbc8872+0x44>
1: # goes here if not taken
  blt x13, x22, 0b # backward branch, never taken
    4fec:	ff66cee3          	blt	x13,x22,4fe8 <I_blt_cg_cr_rs1_rs2_edges_offset_rs1val_0xaaaaaaaa_rs2val_0x5bbc8872>
  # Check if x0 contains the expected result. x17 is the signature ptr, x5 is the link ptr, x4 is a temp reg.
  RVTEST_SIGUPD(x17, x5, x4, x0, I_blt_cg_cr_rs1_rs2_edges_offset_rs1val_0xaaaaaaaa_rs2val_0x5bbc8872, I_blt_cg_cr_rs1_rs2_edges_offset_rs1val_0xaaaaaaaa_rs2val_0x5bbc8872_str)
    4ff0:	0008a203          	lw	x4,0(x17)
    4ff4:	00020863          	beq	x4,x0,5004 <I_blt_cg_cr_rs1_rs2_edges_offset_rs1val_0xaaaaaaaa_rs2val_0x5bbc8872+0x1c>
    4ff8:	084052ef          	jal	x5,a07c <failedtest_x5_x4>
    4ffc:	00004fe8          	.word	0x00004fe8
    5000:	00010bc5          	.word	0x00010bc5
    5004:	00488893          	addi	x17,x17,4
  j 4f # done with test
    5008:	0280006f          	jal	x0,5030 <I_blt_cg_cr_rs1_rs2_edges_offset_rs1val_0xaaaaaaaa_rs2val_0x5bbc8872+0x48>
2: # goes here during backward branch if taken
  LI(x13, 1)
    500c:	00100693          	addi	x13,x0,1
  # Check if x13 contains the expected result. x17 is the signature ptr, x5 is the link ptr, x4 is a temp reg.
  RVTEST_SIGUPD(x17, x5, x4, x13, I_blt_cg_cr_rs1_rs2_edges_offset_rs1val_0xaaaaaaaa_rs2val_0x5bbc8872, I_blt_cg_cr_rs1_rs2_edges_offset_rs1val_0xaaaaaaaa_rs2val_0x5bbc8872_str) # signature 1 for taken
    5010:	0008a203          	lw	x4,0(x17)
    5014:	00d20863          	beq	x4,x13,5024 <I_blt_cg_cr_rs1_rs2_edges_offset_rs1val_0xaaaaaaaa_rs2val_0x5bbc8872+0x3c>
    5018:	064052ef          	jal	x5,a07c <failedtest_x5_x4>
    501c:	00004fe8          	.word	0x00004fe8
    5020:	00010bc5          	.word	0x00010bc5
    5024:	00488893          	addi	x17,x17,4
  j 4f # done with test
    5028:	0080006f          	jal	x0,5030 <I_blt_cg_cr_rs1_rs2_edges_offset_rs1val_0xaaaaaaaa_rs2val_0x5bbc8872+0x48>
3: # goes here during forward branch if taken
  blt x13, x22, 2b # backward branch, definitely taken
    502c:	ff66c0e3          	blt	x13,x22,500c <I_blt_cg_cr_rs1_rs2_edges_offset_rs1val_0xaaaaaaaa_rs2val_0x5bbc8872+0x24>
4: # done with test

# cr_rs1_rs2_edges_offset (Test source rs1 = 0xaaaaaaaa rs2 = 0xaaaaaaaa)
  RVTEST_TESTDATA_LOAD_INT(x23, x22) # load rs1: x22 = 0xaaaaaaaa
    5030:	000bab03          	lw	x22,0(x23)
    5034:	004b8b93          	addi	x23,x23,4
  RVTEST_TESTDATA_LOAD_INT(x23, x27) # load rs2: x27 = 0xaaaaaaaa
    5038:	000bad83          	lw	x27,0(x23)
    503c:	004b8b93          	addi	x23,x23,4

00005040 <I_blt_cg_cr_rs1_rs2_edges_offset_rs1val_0xaaaaaaaa_rs2val_0xaaaaaaaa>:
0: # destination for backwards branch that is never taken
I_blt_cg_cr_rs1_rs2_edges_offset_rs1val_0xaaaaaaaa_rs2val_0xaaaaaaaa:
  blt x22, x27, 3f # forward branch, if taken
    5040:	05bb4263          	blt	x22,x27,5084 <I_blt_cg_cr_rs1_rs2_edges_offset_rs1val_0xaaaaaaaa_rs2val_0xaaaaaaaa+0x44>
1: # goes here if not taken
  blt x22, x27, 0b # backward branch, never taken
    5044:	ffbb4ee3          	blt	x22,x27,5040 <I_blt_cg_cr_rs1_rs2_edges_offset_rs1val_0xaaaaaaaa_rs2val_0xaaaaaaaa>
  # Check if x0 contains the expected result. x17 is the signature ptr, x5 is the link ptr, x4 is a temp reg.
  RVTEST_SIGUPD(x17, x5, x4, x0, I_blt_cg_cr_rs1_rs2_edges_offset_rs1val_0xaaaaaaaa_rs2val_0xaaaaaaaa, I_blt_cg_cr_rs1_rs2_edges_offset_rs1val_0xaaaaaaaa_rs2val_0xaaaaaaaa_str)
    5048:	0008a203          	lw	x4,0(x17)
    504c:	00020863          	beq	x4,x0,505c <I_blt_cg_cr_rs1_rs2_edges_offset_rs1val_0xaaaaaaaa_rs2val_0xaaaaaaaa+0x1c>
    5050:	02c052ef          	jal	x5,a07c <failedtest_x5_x4>
    5054:	00005040          	.word	0x00005040
    5058:	00010c27          	.word	0x00010c27
    505c:	00488893          	addi	x17,x17,4
  j 4f # done with test
    5060:	0280006f          	jal	x0,5088 <I_blt_cg_cr_rs1_rs2_edges_offset_rs1val_0xaaaaaaaa_rs2val_0xaaaaaaaa+0x48>
2: # goes here during backward branch if taken
  LI(x22, 1)
    5064:	00100b13          	addi	x22,x0,1
  # Check if x22 contains the expected result. x17 is the signature ptr, x5 is the link ptr, x4 is a temp reg.
  RVTEST_SIGUPD(x17, x5, x4, x22, I_blt_cg_cr_rs1_rs2_edges_offset_rs1val_0xaaaaaaaa_rs2val_0xaaaaaaaa, I_blt_cg_cr_rs1_rs2_edges_offset_rs1val_0xaaaaaaaa_rs2val_0xaaaaaaaa_str) # signature 1 for taken
    5068:	0008a203          	lw	x4,0(x17)
    506c:	01620863          	beq	x4,x22,507c <I_blt_cg_cr_rs1_rs2_edges_offset_rs1val_0xaaaaaaaa_rs2val_0xaaaaaaaa+0x3c>
    5070:	00c052ef          	jal	x5,a07c <failedtest_x5_x4>
    5074:	00005040          	.word	0x00005040
    5078:	00010c27          	.word	0x00010c27
    507c:	00488893          	addi	x17,x17,4
  j 4f # done with test
    5080:	0080006f          	jal	x0,5088 <I_blt_cg_cr_rs1_rs2_edges_offset_rs1val_0xaaaaaaaa_rs2val_0xaaaaaaaa+0x48>
3: # goes here during forward branch if taken
  blt x22, x27, 2b # backward branch, definitely taken
    5084:	ffbb40e3          	blt	x22,x27,5064 <I_blt_cg_cr_rs1_rs2_edges_offset_rs1val_0xaaaaaaaa_rs2val_0xaaaaaaaa+0x24>
4: # done with test

# cr_rs1_rs2_edges_offset (Test source rs1 = 0xaaaaaaaa rs2 = 0x55555555)
  RVTEST_TESTDATA_LOAD_INT(x23, x2) # load rs1: x2 = 0xaaaaaaaa
    5088:	000ba103          	lw	x2,0(x23)
    508c:	004b8b93          	addi	x23,x23,4
  RVTEST_TESTDATA_LOAD_INT(x23, x14) # load rs2: x14 = 0x55555555
    5090:	000ba703          	lw	x14,0(x23)
    5094:	004b8b93          	addi	x23,x23,4

00005098 <I_blt_cg_cr_rs1_rs2_edges_offset_rs1val_0xaaaaaaaa_rs2val_0x55555555>:
0: # destination for backwards branch that is never taken
I_blt_cg_cr_rs1_rs2_edges_offset_rs1val_0xaaaaaaaa_rs2val_0x55555555:
  blt x2, x14, 3f # forward branch, if taken
    5098:	04e14263          	blt	x2,x14,50dc <I_blt_cg_cr_rs1_rs2_edges_offset_rs1val_0xaaaaaaaa_rs2val_0x55555555+0x44>
1: # goes here if not taken
  blt x2, x14, 0b # backward branch, never taken
    509c:	fee14ee3          	blt	x2,x14,5098 <I_blt_cg_cr_rs1_rs2_edges_offset_rs1val_0xaaaaaaaa_rs2val_0x55555555>
  # Check if x0 contains the expected result. x17 is the signature ptr, x5 is the link ptr, x4 is a temp reg.
  RVTEST_SIGUPD(x17, x5, x4, x0, I_blt_cg_cr_rs1_rs2_edges_offset_rs1val_0xaaaaaaaa_rs2val_0x55555555, I_blt_cg_cr_rs1_rs2_edges_offset_rs1val_0xaaaaaaaa_rs2val_0x55555555_str)
    50a0:	0008a203          	lw	x4,0(x17)
    50a4:	00020863          	beq	x4,x0,50b4 <I_blt_cg_cr_rs1_rs2_edges_offset_rs1val_0xaaaaaaaa_rs2val_0x55555555+0x1c>
    50a8:	7d5042ef          	jal	x5,a07c <failedtest_x5_x4>
    50ac:	00005098          	.word	0x00005098
    50b0:	00010c89          	.word	0x00010c89
    50b4:	00488893          	addi	x17,x17,4
  j 4f # done with test
    50b8:	0280006f          	jal	x0,50e0 <I_blt_cg_cr_rs1_rs2_edges_offset_rs1val_0xaaaaaaaa_rs2val_0x55555555+0x48>
2: # goes here during backward branch if taken
  LI(x2, 1)
    50bc:	00100113          	addi	x2,x0,1
  # Check if x2 contains the expected result. x17 is the signature ptr, x5 is the link ptr, x4 is a temp reg.
  RVTEST_SIGUPD(x17, x5, x4, x2, I_blt_cg_cr_rs1_rs2_edges_offset_rs1val_0xaaaaaaaa_rs2val_0x55555555, I_blt_cg_cr_rs1_rs2_edges_offset_rs1val_0xaaaaaaaa_rs2val_0x55555555_str) # signature 1 for taken
    50c0:	0008a203          	lw	x4,0(x17)
    50c4:	00220863          	beq	x4,x2,50d4 <I_blt_cg_cr_rs1_rs2_edges_offset_rs1val_0xaaaaaaaa_rs2val_0x55555555+0x3c>
    50c8:	7b5042ef          	jal	x5,a07c <failedtest_x5_x4>
    50cc:	00005098          	.word	0x00005098
    50d0:	00010c89          	.word	0x00010c89
    50d4:	00488893          	addi	x17,x17,4
  j 4f # done with test
    50d8:	0080006f          	jal	x0,50e0 <I_blt_cg_cr_rs1_rs2_edges_offset_rs1val_0xaaaaaaaa_rs2val_0x55555555+0x48>
3: # goes here during forward branch if taken
  blt x2, x14, 2b # backward branch, definitely taken
    50dc:	fee140e3          	blt	x2,x14,50bc <I_blt_cg_cr_rs1_rs2_edges_offset_rs1val_0xaaaaaaaa_rs2val_0x55555555+0x24>
4: # done with test

# cr_rs1_rs2_edges_offset (Test source rs1 = 0x55555555 rs2 = 0x00000000)
  RVTEST_TESTDATA_LOAD_INT(x23, x16) # load rs1: x16 = 0x55555555
    50e0:	000ba803          	lw	x16,0(x23)
    50e4:	004b8b93          	addi	x23,x23,4
  RVTEST_TESTDATA_LOAD_INT(x23, x10) # load rs2: x10 = 0x00000000
    50e8:	000ba503          	lw	x10,0(x23)
    50ec:	004b8b93          	addi	x23,x23,4

000050f0 <I_blt_cg_cr_rs1_rs2_edges_offset_rs1val_0x55555555_rs2val_0x0>:
0: # destination for backwards branch that is never taken
I_blt_cg_cr_rs1_rs2_edges_offset_rs1val_0x55555555_rs2val_0x0:
  blt x16, x10, 3f # forward branch, if taken
    50f0:	04a84263          	blt	x16,x10,5134 <I_blt_cg_cr_rs1_rs2_edges_offset_rs1val_0x55555555_rs2val_0x0+0x44>
1: # goes here if not taken
  blt x16, x10, 0b # backward branch, never taken
    50f4:	fea84ee3          	blt	x16,x10,50f0 <I_blt_cg_cr_rs1_rs2_edges_offset_rs1val_0x55555555_rs2val_0x0>
  # Check if x0 contains the expected result. x17 is the signature ptr, x5 is the link ptr, x4 is a temp reg.
  RVTEST_SIGUPD(x17, x5, x4, x0, I_blt_cg_cr_rs1_rs2_edges_offset_rs1val_0x55555555_rs2val_0x0, I_blt_cg_cr_rs1_rs2_edges_offset_rs1val_0x55555555_rs2val_0x0_str)
    50f8:	0008a203          	lw	x4,0(x17)
    50fc:	00020863          	beq	x4,x0,510c <I_blt_cg_cr_rs1_rs2_edges_offset_rs1val_0x55555555_rs2val_0x0+0x1c>
    5100:	77d042ef          	jal	x5,a07c <failedtest_x5_x4>
    5104:	000050f0          	.word	0x000050f0
    5108:	00010ceb          	.word	0x00010ceb
    510c:	00488893          	addi	x17,x17,4
  j 4f # done with test
    5110:	0280006f          	jal	x0,5138 <I_blt_cg_cr_rs1_rs2_edges_offset_rs1val_0x55555555_rs2val_0x0+0x48>
2: # goes here during backward branch if taken
  LI(x16, 1)
    5114:	00100813          	addi	x16,x0,1
  # Check if x16 contains the expected result. x17 is the signature ptr, x5 is the link ptr, x4 is a temp reg.
  RVTEST_SIGUPD(x17, x5, x4, x16, I_blt_cg_cr_rs1_rs2_edges_offset_rs1val_0x55555555_rs2val_0x0, I_blt_cg_cr_rs1_rs2_edges_offset_rs1val_0x55555555_rs2val_0x0_str) # signature 1 for taken
    5118:	0008a203          	lw	x4,0(x17)
    511c:	01020863          	beq	x4,x16,512c <I_blt_cg_cr_rs1_rs2_edges_offset_rs1val_0x55555555_rs2val_0x0+0x3c>
    5120:	75d042ef          	jal	x5,a07c <failedtest_x5_x4>
    5124:	000050f0          	.word	0x000050f0
    5128:	00010ceb          	.word	0x00010ceb
    512c:	00488893          	addi	x17,x17,4
  j 4f # done with test
    5130:	0080006f          	jal	x0,5138 <I_blt_cg_cr_rs1_rs2_edges_offset_rs1val_0x55555555_rs2val_0x0+0x48>
3: # goes here during forward branch if taken
  blt x16, x10, 2b # backward branch, definitely taken
    5134:	fea840e3          	blt	x16,x10,5114 <I_blt_cg_cr_rs1_rs2_edges_offset_rs1val_0x55555555_rs2val_0x0+0x24>
4: # done with test

# cr_rs1_rs2_edges_offset (Test source rs1 = 0x55555555 rs2 = 0x00000001)
  RVTEST_TESTDATA_LOAD_INT(x23, x25) # load rs1: x25 = 0x55555555
    5138:	000bac83          	lw	x25,0(x23)
    513c:	004b8b93          	addi	x23,x23,4
  RVTEST_TESTDATA_LOAD_INT(x23, x26) # load rs2: x26 = 0x00000001
    5140:	000bad03          	lw	x26,0(x23)
    5144:	004b8b93          	addi	x23,x23,4

00005148 <I_blt_cg_cr_rs1_rs2_edges_offset_rs1val_0x55555555_rs2val_0x1>:
0: # destination for backwards branch that is never taken
I_blt_cg_cr_rs1_rs2_edges_offset_rs1val_0x55555555_rs2val_0x1:
  blt x25, x26, 3f # forward branch, if taken
    5148:	05acc263          	blt	x25,x26,518c <I_blt_cg_cr_rs1_rs2_edges_offset_rs1val_0x55555555_rs2val_0x1+0x44>
1: # goes here if not taken
  blt x25, x26, 0b # backward branch, never taken
    514c:	ffaccee3          	blt	x25,x26,5148 <I_blt_cg_cr_rs1_rs2_edges_offset_rs1val_0x55555555_rs2val_0x1>
  # Check if x0 contains the expected result. x17 is the signature ptr, x5 is the link ptr, x4 is a temp reg.
  RVTEST_SIGUPD(x17, x5, x4, x0, I_blt_cg_cr_rs1_rs2_edges_offset_rs1val_0x55555555_rs2val_0x1, I_blt_cg_cr_rs1_rs2_edges_offset_rs1val_0x55555555_rs2val_0x1_str)
    5150:	0008a203          	lw	x4,0(x17)
    5154:	00020863          	beq	x4,x0,5164 <I_blt_cg_cr_rs1_rs2_edges_offset_rs1val_0x55555555_rs2val_0x1+0x1c>
    5158:	725042ef          	jal	x5,a07c <failedtest_x5_x4>
    515c:	00005148          	.word	0x00005148
    5160:	00010d46          	.word	0x00010d46
    5164:	00488893          	addi	x17,x17,4
  j 4f # done with test
    5168:	0280006f          	jal	x0,5190 <I_blt_cg_cr_rs1_rs2_edges_offset_rs1val_0x55555555_rs2val_0x1+0x48>
2: # goes here during backward branch if taken
  LI(x25, 1)
    516c:	00100c93          	addi	x25,x0,1
  # Check if x25 contains the expected result. x17 is the signature ptr, x5 is the link ptr, x4 is a temp reg.
  RVTEST_SIGUPD(x17, x5, x4, x25, I_blt_cg_cr_rs1_rs2_edges_offset_rs1val_0x55555555_rs2val_0x1, I_blt_cg_cr_rs1_rs2_edges_offset_rs1val_0x55555555_rs2val_0x1_str) # signature 1 for taken
    5170:	0008a203          	lw	x4,0(x17)
    5174:	01920863          	beq	x4,x25,5184 <I_blt_cg_cr_rs1_rs2_edges_offset_rs1val_0x55555555_rs2val_0x1+0x3c>
    5178:	705042ef          	jal	x5,a07c <failedtest_x5_x4>
    517c:	00005148          	.word	0x00005148
    5180:	00010d46          	.word	0x00010d46
    5184:	00488893          	addi	x17,x17,4
  j 4f # done with test
    5188:	0080006f          	jal	x0,5190 <I_blt_cg_cr_rs1_rs2_edges_offset_rs1val_0x55555555_rs2val_0x1+0x48>
3: # goes here during forward branch if taken
  blt x25, x26, 2b # backward branch, definitely taken
    518c:	ffacc0e3          	blt	x25,x26,516c <I_blt_cg_cr_rs1_rs2_edges_offset_rs1val_0x55555555_rs2val_0x1+0x24>
4: # done with test

# cr_rs1_rs2_edges_offset (Test source rs1 = 0x55555555 rs2 = 0x00000002)
  RVTEST_TESTDATA_LOAD_INT(x23, x9) # load rs1: x9 = 0x55555555
    5190:	000ba483          	lw	x9,0(x23)
    5194:	004b8b93          	addi	x23,x23,4
  RVTEST_TESTDATA_LOAD_INT(x23, x16) # load rs2: x16 = 0x00000002
    5198:	000ba803          	lw	x16,0(x23)
    519c:	004b8b93          	addi	x23,x23,4

000051a0 <I_blt_cg_cr_rs1_rs2_edges_offset_rs1val_0x55555555_rs2val_0x2>:
0: # destination for backwards branch that is never taken
I_blt_cg_cr_rs1_rs2_edges_offset_rs1val_0x55555555_rs2val_0x2:
  blt x9, x16, 3f # forward branch, if taken
    51a0:	0504c263          	blt	x9,x16,51e4 <I_blt_cg_cr_rs1_rs2_edges_offset_rs1val_0x55555555_rs2val_0x2+0x44>
1: # goes here if not taken
  blt x9, x16, 0b # backward branch, never taken
    51a4:	ff04cee3          	blt	x9,x16,51a0 <I_blt_cg_cr_rs1_rs2_edges_offset_rs1val_0x55555555_rs2val_0x2>
  # Check if x0 contains the expected result. x17 is the signature ptr, x5 is the link ptr, x4 is a temp reg.
  RVTEST_SIGUPD(x17, x5, x4, x0, I_blt_cg_cr_rs1_rs2_edges_offset_rs1val_0x55555555_rs2val_0x2, I_blt_cg_cr_rs1_rs2_edges_offset_rs1val_0x55555555_rs2val_0x2_str)
    51a8:	0008a203          	lw	x4,0(x17)
    51ac:	00020863          	beq	x4,x0,51bc <I_blt_cg_cr_rs1_rs2_edges_offset_rs1val_0x55555555_rs2val_0x2+0x1c>
    51b0:	6cd042ef          	jal	x5,a07c <failedtest_x5_x4>
    51b4:	000051a0          	.word	0x000051a0
    51b8:	00010da1          	.word	0x00010da1
    51bc:	00488893          	addi	x17,x17,4
  j 4f # done with test
    51c0:	0280006f          	jal	x0,51e8 <I_blt_cg_cr_rs1_rs2_edges_offset_rs1val_0x55555555_rs2val_0x2+0x48>
2: # goes here during backward branch if taken
  LI(x9, 1)
    51c4:	00100493          	addi	x9,x0,1
  # Check if x9 contains the expected result. x17 is the signature ptr, x5 is the link ptr, x4 is a temp reg.
  RVTEST_SIGUPD(x17, x5, x4, x9, I_blt_cg_cr_rs1_rs2_edges_offset_rs1val_0x55555555_rs2val_0x2, I_blt_cg_cr_rs1_rs2_edges_offset_rs1val_0x55555555_rs2val_0x2_str) # signature 1 for taken
    51c8:	0008a203          	lw	x4,0(x17)
    51cc:	00920863          	beq	x4,x9,51dc <I_blt_cg_cr_rs1_rs2_edges_offset_rs1val_0x55555555_rs2val_0x2+0x3c>
    51d0:	6ad042ef          	jal	x5,a07c <failedtest_x5_x4>
    51d4:	000051a0          	.word	0x000051a0
    51d8:	00010da1          	.word	0x00010da1
    51dc:	00488893          	addi	x17,x17,4
  j 4f # done with test
    51e0:	0080006f          	jal	x0,51e8 <I_blt_cg_cr_rs1_rs2_edges_offset_rs1val_0x55555555_rs2val_0x2+0x48>
3: # goes here during forward branch if taken
  blt x9, x16, 2b # backward branch, definitely taken
    51e4:	ff04c0e3          	blt	x9,x16,51c4 <I_blt_cg_cr_rs1_rs2_edges_offset_rs1val_0x55555555_rs2val_0x2+0x24>
4: # done with test

# cr_rs1_rs2_edges_offset (Test source rs1 = 0x55555555 rs2 = 0x80000000)
  RVTEST_TESTDATA_LOAD_INT(x23, x31) # load rs1: x31 = 0x55555555
    51e8:	000baf83          	lw	x31,0(x23)
    51ec:	004b8b93          	addi	x23,x23,4
  RVTEST_TESTDATA_LOAD_INT(x23, x12) # load rs2: x12 = 0x80000000
    51f0:	000ba603          	lw	x12,0(x23)
    51f4:	004b8b93          	addi	x23,x23,4

000051f8 <I_blt_cg_cr_rs1_rs2_edges_offset_rs1val_0x55555555_rs2val_0x80000000>:
0: # destination for backwards branch that is never taken
I_blt_cg_cr_rs1_rs2_edges_offset_rs1val_0x55555555_rs2val_0x80000000:
  blt x31, x12, 3f # forward branch, if taken
    51f8:	04cfc263          	blt	x31,x12,523c <I_blt_cg_cr_rs1_rs2_edges_offset_rs1val_0x55555555_rs2val_0x80000000+0x44>
1: # goes here if not taken
  blt x31, x12, 0b # backward branch, never taken
    51fc:	fecfcee3          	blt	x31,x12,51f8 <I_blt_cg_cr_rs1_rs2_edges_offset_rs1val_0x55555555_rs2val_0x80000000>
  # Check if x0 contains the expected result. x17 is the signature ptr, x5 is the link ptr, x4 is a temp reg.
  RVTEST_SIGUPD(x17, x5, x4, x0, I_blt_cg_cr_rs1_rs2_edges_offset_rs1val_0x55555555_rs2val_0x80000000, I_blt_cg_cr_rs1_rs2_edges_offset_rs1val_0x55555555_rs2val_0x80000000_str)
    5200:	0008a203          	lw	x4,0(x17)
    5204:	00020863          	beq	x4,x0,5214 <I_blt_cg_cr_rs1_rs2_edges_offset_rs1val_0x55555555_rs2val_0x80000000+0x1c>
    5208:	675042ef          	jal	x5,a07c <failedtest_x5_x4>
    520c:	000051f8          	.word	0x000051f8
    5210:	00010dfc          	.word	0x00010dfc
    5214:	00488893          	addi	x17,x17,4
  j 4f # done with test
    5218:	0280006f          	jal	x0,5240 <I_blt_cg_cr_rs1_rs2_edges_offset_rs1val_0x55555555_rs2val_0x80000000+0x48>
2: # goes here during backward branch if taken
  LI(x31, 1)
    521c:	00100f93          	addi	x31,x0,1
  # Check if x31 contains the expected result. x17 is the signature ptr, x5 is the link ptr, x4 is a temp reg.
  RVTEST_SIGUPD(x17, x5, x4, x31, I_blt_cg_cr_rs1_rs2_edges_offset_rs1val_0x55555555_rs2val_0x80000000, I_blt_cg_cr_rs1_rs2_edges_offset_rs1val_0x55555555_rs2val_0x80000000_str) # signature 1 for taken
    5220:	0008a203          	lw	x4,0(x17)
    5224:	01f20863          	beq	x4,x31,5234 <I_blt_cg_cr_rs1_rs2_edges_offset_rs1val_0x55555555_rs2val_0x80000000+0x3c>
    5228:	655042ef          	jal	x5,a07c <failedtest_x5_x4>
    522c:	000051f8          	.word	0x000051f8
    5230:	00010dfc          	.word	0x00010dfc
    5234:	00488893          	addi	x17,x17,4
  j 4f # done with test
    5238:	0080006f          	jal	x0,5240 <I_blt_cg_cr_rs1_rs2_edges_offset_rs1val_0x55555555_rs2val_0x80000000+0x48>
3: # goes here during forward branch if taken
  blt x31, x12, 2b # backward branch, definitely taken
    523c:	fecfc0e3          	blt	x31,x12,521c <I_blt_cg_cr_rs1_rs2_edges_offset_rs1val_0x55555555_rs2val_0x80000000+0x24>
4: # done with test

# cr_rs1_rs2_edges_offset (Test source rs1 = 0x55555555 rs2 = 0x80000001)
  RVTEST_TESTDATA_LOAD_INT(x23, x6) # load rs1: x6 = 0x55555555
    5240:	000ba303          	lw	x6,0(x23)
    5244:	004b8b93          	addi	x23,x23,4
  RVTEST_TESTDATA_LOAD_INT(x23, x9) # load rs2: x9 = 0x80000001
    5248:	000ba483          	lw	x9,0(x23)
    524c:	004b8b93          	addi	x23,x23,4

00005250 <I_blt_cg_cr_rs1_rs2_edges_offset_rs1val_0x55555555_rs2val_0x80000001>:
0: # destination for backwards branch that is never taken
I_blt_cg_cr_rs1_rs2_edges_offset_rs1val_0x55555555_rs2val_0x80000001:
  blt x6, x9, 3f # forward branch, if taken
    5250:	04934263          	blt	x6,x9,5294 <I_blt_cg_cr_rs1_rs2_edges_offset_rs1val_0x55555555_rs2val_0x80000001+0x44>
1: # goes here if not taken
  blt x6, x9, 0b # backward branch, never taken
    5254:	fe934ee3          	blt	x6,x9,5250 <I_blt_cg_cr_rs1_rs2_edges_offset_rs1val_0x55555555_rs2val_0x80000001>
  # Check if x0 contains the expected result. x17 is the signature ptr, x5 is the link ptr, x4 is a temp reg.
  RVTEST_SIGUPD(x17, x5, x4, x0, I_blt_cg_cr_rs1_rs2_edges_offset_rs1val_0x55555555_rs2val_0x80000001, I_blt_cg_cr_rs1_rs2_edges_offset_rs1val_0x55555555_rs2val_0x80000001_str)
    5258:	0008a203          	lw	x4,0(x17)
    525c:	00020863          	beq	x4,x0,526c <I_blt_cg_cr_rs1_rs2_edges_offset_rs1val_0x55555555_rs2val_0x80000001+0x1c>
    5260:	61d042ef          	jal	x5,a07c <failedtest_x5_x4>
    5264:	00005250          	.word	0x00005250
    5268:	00010e5e          	.word	0x00010e5e
    526c:	00488893          	addi	x17,x17,4
  j 4f # done with test
    5270:	0280006f          	jal	x0,5298 <I_blt_cg_cr_rs1_rs2_edges_offset_rs1val_0x55555555_rs2val_0x80000001+0x48>
2: # goes here during backward branch if taken
  LI(x6, 1)
    5274:	00100313          	addi	x6,x0,1
  # Check if x6 contains the expected result. x17 is the signature ptr, x5 is the link ptr, x4 is a temp reg.
  RVTEST_SIGUPD(x17, x5, x4, x6, I_blt_cg_cr_rs1_rs2_edges_offset_rs1val_0x55555555_rs2val_0x80000001, I_blt_cg_cr_rs1_rs2_edges_offset_rs1val_0x55555555_rs2val_0x80000001_str) # signature 1 for taken
    5278:	0008a203          	lw	x4,0(x17)
    527c:	00620863          	beq	x4,x6,528c <I_blt_cg_cr_rs1_rs2_edges_offset_rs1val_0x55555555_rs2val_0x80000001+0x3c>
    5280:	5fd042ef          	jal	x5,a07c <failedtest_x5_x4>
    5284:	00005250          	.word	0x00005250
    5288:	00010e5e          	.word	0x00010e5e
    528c:	00488893          	addi	x17,x17,4
  j 4f # done with test
    5290:	0080006f          	jal	x0,5298 <I_blt_cg_cr_rs1_rs2_edges_offset_rs1val_0x55555555_rs2val_0x80000001+0x48>
3: # goes here during forward branch if taken
  blt x6, x9, 2b # backward branch, definitely taken
    5294:	fe9340e3          	blt	x6,x9,5274 <I_blt_cg_cr_rs1_rs2_edges_offset_rs1val_0x55555555_rs2val_0x80000001+0x24>
4: # done with test

# cr_rs1_rs2_edges_offset (Test source rs1 = 0x55555555 rs2 = 0x7fffffff)
  RVTEST_TESTDATA_LOAD_INT(x23, x25) # load rs1: x25 = 0x55555555
    5298:	000bac83          	lw	x25,0(x23)
    529c:	004b8b93          	addi	x23,x23,4
  RVTEST_TESTDATA_LOAD_INT(x23, x20) # load rs2: x20 = 0x7fffffff
    52a0:	000baa03          	lw	x20,0(x23)
    52a4:	004b8b93          	addi	x23,x23,4

000052a8 <I_blt_cg_cr_rs1_rs2_edges_offset_rs1val_0x55555555_rs2val_0x7fffffff>:
0: # destination for backwards branch that is never taken
I_blt_cg_cr_rs1_rs2_edges_offset_rs1val_0x55555555_rs2val_0x7fffffff:
  blt x25, x20, 3f # forward branch, if taken
    52a8:	054cc263          	blt	x25,x20,52ec <I_blt_cg_cr_rs1_rs2_edges_offset_rs1val_0x55555555_rs2val_0x7fffffff+0x44>
1: # goes here if not taken
  blt x25, x20, 0b # backward branch, never taken
    52ac:	ff4ccee3          	blt	x25,x20,52a8 <I_blt_cg_cr_rs1_rs2_edges_offset_rs1val_0x55555555_rs2val_0x7fffffff>
  # Check if x0 contains the expected result. x17 is the signature ptr, x5 is the link ptr, x4 is a temp reg.
  RVTEST_SIGUPD(x17, x5, x4, x0, I_blt_cg_cr_rs1_rs2_edges_offset_rs1val_0x55555555_rs2val_0x7fffffff, I_blt_cg_cr_rs1_rs2_edges_offset_rs1val_0x55555555_rs2val_0x7fffffff_str)
    52b0:	0008a203          	lw	x4,0(x17)
    52b4:	00020863          	beq	x4,x0,52c4 <I_blt_cg_cr_rs1_rs2_edges_offset_rs1val_0x55555555_rs2val_0x7fffffff+0x1c>
    52b8:	5c5042ef          	jal	x5,a07c <failedtest_x5_x4>
    52bc:	000052a8          	.word	0x000052a8
    52c0:	00010ec0          	.word	0x00010ec0
    52c4:	00488893          	addi	x17,x17,4
  j 4f # done with test
    52c8:	0280006f          	jal	x0,52f0 <I_blt_cg_cr_rs1_rs2_edges_offset_rs1val_0x55555555_rs2val_0x7fffffff+0x48>
2: # goes here during backward branch if taken
  LI(x25, 1)
    52cc:	00100c93          	addi	x25,x0,1
  # Check if x25 contains the expected result. x17 is the signature ptr, x5 is the link ptr, x4 is a temp reg.
  RVTEST_SIGUPD(x17, x5, x4, x25, I_blt_cg_cr_rs1_rs2_edges_offset_rs1val_0x55555555_rs2val_0x7fffffff, I_blt_cg_cr_rs1_rs2_edges_offset_rs1val_0x55555555_rs2val_0x7fffffff_str) # signature 1 for taken
    52d0:	0008a203          	lw	x4,0(x17)
    52d4:	01920863          	beq	x4,x25,52e4 <I_blt_cg_cr_rs1_rs2_edges_offset_rs1val_0x55555555_rs2val_0x7fffffff+0x3c>
    52d8:	5a5042ef          	jal	x5,a07c <failedtest_x5_x4>
    52dc:	000052a8          	.word	0x000052a8
    52e0:	00010ec0          	.word	0x00010ec0
    52e4:	00488893          	addi	x17,x17,4
  j 4f # done with test
    52e8:	0080006f          	jal	x0,52f0 <I_blt_cg_cr_rs1_rs2_edges_offset_rs1val_0x55555555_rs2val_0x7fffffff+0x48>
3: # goes here during forward branch if taken
  blt x25, x20, 2b # backward branch, definitely taken
    52ec:	ff4cc0e3          	blt	x25,x20,52cc <I_blt_cg_cr_rs1_rs2_edges_offset_rs1val_0x55555555_rs2val_0x7fffffff+0x24>
4: # done with test

# cr_rs1_rs2_edges_offset (Test source rs1 = 0x55555555 rs2 = 0x7ffffffe)
  RVTEST_TESTDATA_LOAD_INT(x23, x27) # load rs1: x27 = 0x55555555
    52f0:	000bad83          	lw	x27,0(x23)
    52f4:	004b8b93          	addi	x23,x23,4
  RVTEST_TESTDATA_LOAD_INT(x23, x20) # load rs2: x20 = 0x7ffffffe
    52f8:	000baa03          	lw	x20,0(x23)
    52fc:	004b8b93          	addi	x23,x23,4

00005300 <I_blt_cg_cr_rs1_rs2_edges_offset_rs1val_0x55555555_rs2val_0x7ffffffe>:
0: # destination for backwards branch that is never taken
I_blt_cg_cr_rs1_rs2_edges_offset_rs1val_0x55555555_rs2val_0x7ffffffe:
  blt x27, x20, 3f # forward branch, if taken
    5300:	054dc263          	blt	x27,x20,5344 <I_blt_cg_cr_rs1_rs2_edges_offset_rs1val_0x55555555_rs2val_0x7ffffffe+0x44>
1: # goes here if not taken
  blt x27, x20, 0b # backward branch, never taken
    5304:	ff4dcee3          	blt	x27,x20,5300 <I_blt_cg_cr_rs1_rs2_edges_offset_rs1val_0x55555555_rs2val_0x7ffffffe>
  # Check if x0 contains the expected result. x17 is the signature ptr, x5 is the link ptr, x4 is a temp reg.
  RVTEST_SIGUPD(x17, x5, x4, x0, I_blt_cg_cr_rs1_rs2_edges_offset_rs1val_0x55555555_rs2val_0x7ffffffe, I_blt_cg_cr_rs1_rs2_edges_offset_rs1val_0x55555555_rs2val_0x7ffffffe_str)
    5308:	0008a203          	lw	x4,0(x17)
    530c:	00020863          	beq	x4,x0,531c <I_blt_cg_cr_rs1_rs2_edges_offset_rs1val_0x55555555_rs2val_0x7ffffffe+0x1c>
    5310:	56d042ef          	jal	x5,a07c <failedtest_x5_x4>
    5314:	00005300          	.word	0x00005300
    5318:	00010f22          	.word	0x00010f22
    531c:	00488893          	addi	x17,x17,4
  j 4f # done with test
    5320:	0280006f          	jal	x0,5348 <I_blt_cg_cr_rs1_rs2_edges_offset_rs1val_0x55555555_rs2val_0x7ffffffe+0x48>
2: # goes here during backward branch if taken
  LI(x27, 1)
    5324:	00100d93          	addi	x27,x0,1
  # Check if x27 contains the expected result. x17 is the signature ptr, x5 is the link ptr, x4 is a temp reg.
  RVTEST_SIGUPD(x17, x5, x4, x27, I_blt_cg_cr_rs1_rs2_edges_offset_rs1val_0x55555555_rs2val_0x7ffffffe, I_blt_cg_cr_rs1_rs2_edges_offset_rs1val_0x55555555_rs2val_0x7ffffffe_str) # signature 1 for taken
    5328:	0008a203          	lw	x4,0(x17)
    532c:	01b20863          	beq	x4,x27,533c <I_blt_cg_cr_rs1_rs2_edges_offset_rs1val_0x55555555_rs2val_0x7ffffffe+0x3c>
    5330:	54d042ef          	jal	x5,a07c <failedtest_x5_x4>
    5334:	00005300          	.word	0x00005300
    5338:	00010f22          	.word	0x00010f22
    533c:	00488893          	addi	x17,x17,4
  j 4f # done with test
    5340:	0080006f          	jal	x0,5348 <I_blt_cg_cr_rs1_rs2_edges_offset_rs1val_0x55555555_rs2val_0x7ffffffe+0x48>
3: # goes here during forward branch if taken
  blt x27, x20, 2b # backward branch, definitely taken
    5344:	ff4dc0e3          	blt	x27,x20,5324 <I_blt_cg_cr_rs1_rs2_edges_offset_rs1val_0x55555555_rs2val_0x7ffffffe+0x24>
4: # done with test

# cr_rs1_rs2_edges_offset (Test source rs1 = 0x55555555 rs2 = 0xffffffff)
  RVTEST_TESTDATA_LOAD_INT(x23, x21) # load rs1: x21 = 0x55555555
    5348:	000baa83          	lw	x21,0(x23)
    534c:	004b8b93          	addi	x23,x23,4
  RVTEST_TESTDATA_LOAD_INT(x23, x31) # load rs2: x31 = 0xffffffff
    5350:	000baf83          	lw	x31,0(x23)
    5354:	004b8b93          	addi	x23,x23,4

00005358 <I_blt_cg_cr_rs1_rs2_edges_offset_rs1val_0x55555555_rs2val_0xffffffff>:
0: # destination for backwards branch that is never taken
I_blt_cg_cr_rs1_rs2_edges_offset_rs1val_0x55555555_rs2val_0xffffffff:
  blt x21, x31, 3f # forward branch, if taken
    5358:	05fac263          	blt	x21,x31,539c <I_blt_cg_cr_rs1_rs2_edges_offset_rs1val_0x55555555_rs2val_0xffffffff+0x44>
1: # goes here if not taken
  blt x21, x31, 0b # backward branch, never taken
    535c:	fffacee3          	blt	x21,x31,5358 <I_blt_cg_cr_rs1_rs2_edges_offset_rs1val_0x55555555_rs2val_0xffffffff>
  # Check if x0 contains the expected result. x17 is the signature ptr, x5 is the link ptr, x4 is a temp reg.
  RVTEST_SIGUPD(x17, x5, x4, x0, I_blt_cg_cr_rs1_rs2_edges_offset_rs1val_0x55555555_rs2val_0xffffffff, I_blt_cg_cr_rs1_rs2_edges_offset_rs1val_0x55555555_rs2val_0xffffffff_str)
    5360:	0008a203          	lw	x4,0(x17)
    5364:	00020863          	beq	x4,x0,5374 <I_blt_cg_cr_rs1_rs2_edges_offset_rs1val_0x55555555_rs2val_0xffffffff+0x1c>
    5368:	515042ef          	jal	x5,a07c <failedtest_x5_x4>
    536c:	00005358          	.word	0x00005358
    5370:	00010f84          	.word	0x00010f84
    5374:	00488893          	addi	x17,x17,4
  j 4f # done with test
    5378:	0280006f          	jal	x0,53a0 <I_blt_cg_cr_rs1_rs2_edges_offset_rs1val_0x55555555_rs2val_0xffffffff+0x48>
2: # goes here during backward branch if taken
  LI(x21, 1)
    537c:	00100a93          	addi	x21,x0,1
  # Check if x21 contains the expected result. x17 is the signature ptr, x5 is the link ptr, x4 is a temp reg.
  RVTEST_SIGUPD(x17, x5, x4, x21, I_blt_cg_cr_rs1_rs2_edges_offset_rs1val_0x55555555_rs2val_0xffffffff, I_blt_cg_cr_rs1_rs2_edges_offset_rs1val_0x55555555_rs2val_0xffffffff_str) # signature 1 for taken
    5380:	0008a203          	lw	x4,0(x17)
    5384:	01520863          	beq	x4,x21,5394 <I_blt_cg_cr_rs1_rs2_edges_offset_rs1val_0x55555555_rs2val_0xffffffff+0x3c>
    5388:	4f5042ef          	jal	x5,a07c <failedtest_x5_x4>
    538c:	00005358          	.word	0x00005358
    5390:	00010f84          	.word	0x00010f84
    5394:	00488893          	addi	x17,x17,4
  j 4f # done with test
    5398:	0080006f          	jal	x0,53a0 <I_blt_cg_cr_rs1_rs2_edges_offset_rs1val_0x55555555_rs2val_0xffffffff+0x48>
3: # goes here during forward branch if taken
  blt x21, x31, 2b # backward branch, definitely taken
    539c:	fffac0e3          	blt	x21,x31,537c <I_blt_cg_cr_rs1_rs2_edges_offset_rs1val_0x55555555_rs2val_0xffffffff+0x24>
4: # done with test

# cr_rs1_rs2_edges_offset (Test source rs1 = 0x55555555 rs2 = 0xfffffffe)
  RVTEST_TESTDATA_LOAD_INT(x23, x30) # load rs1: x30 = 0x55555555
    53a0:	000baf03          	lw	x30,0(x23)
    53a4:	004b8b93          	addi	x23,x23,4
  RVTEST_TESTDATA_LOAD_INT(x23, x15) # load rs2: x15 = 0xfffffffe
    53a8:	000ba783          	lw	x15,0(x23)
    53ac:	004b8b93          	addi	x23,x23,4

000053b0 <I_blt_cg_cr_rs1_rs2_edges_offset_rs1val_0x55555555_rs2val_0xfffffffe>:
0: # destination for backwards branch that is never taken
I_blt_cg_cr_rs1_rs2_edges_offset_rs1val_0x55555555_rs2val_0xfffffffe:
  blt x30, x15, 3f # forward branch, if taken
    53b0:	04ff4263          	blt	x30,x15,53f4 <I_blt_cg_cr_rs1_rs2_edges_offset_rs1val_0x55555555_rs2val_0xfffffffe+0x44>
1: # goes here if not taken
  blt x30, x15, 0b # backward branch, never taken
    53b4:	feff4ee3          	blt	x30,x15,53b0 <I_blt_cg_cr_rs1_rs2_edges_offset_rs1val_0x55555555_rs2val_0xfffffffe>
  # Check if x0 contains the expected result. x17 is the signature ptr, x5 is the link ptr, x4 is a temp reg.
  RVTEST_SIGUPD(x17, x5, x4, x0, I_blt_cg_cr_rs1_rs2_edges_offset_rs1val_0x55555555_rs2val_0xfffffffe, I_blt_cg_cr_rs1_rs2_edges_offset_rs1val_0x55555555_rs2val_0xfffffffe_str)
    53b8:	0008a203          	lw	x4,0(x17)
    53bc:	00020863          	beq	x4,x0,53cc <I_blt_cg_cr_rs1_rs2_edges_offset_rs1val_0x55555555_rs2val_0xfffffffe+0x1c>
    53c0:	4bd042ef          	jal	x5,a07c <failedtest_x5_x4>
    53c4:	000053b0          	.word	0x000053b0
    53c8:	00010fe6          	.word	0x00010fe6
    53cc:	00488893          	addi	x17,x17,4
  j 4f # done with test
    53d0:	0280006f          	jal	x0,53f8 <I_blt_cg_cr_rs1_rs2_edges_offset_rs1val_0x55555555_rs2val_0xfffffffe+0x48>
2: # goes here during backward branch if taken
  LI(x30, 1)
    53d4:	00100f13          	addi	x30,x0,1
  # Check if x30 contains the expected result. x17 is the signature ptr, x5 is the link ptr, x4 is a temp reg.
  RVTEST_SIGUPD(x17, x5, x4, x30, I_blt_cg_cr_rs1_rs2_edges_offset_rs1val_0x55555555_rs2val_0xfffffffe, I_blt_cg_cr_rs1_rs2_edges_offset_rs1val_0x55555555_rs2val_0xfffffffe_str) # signature 1 for taken
    53d8:	0008a203          	lw	x4,0(x17)
    53dc:	01e20863          	beq	x4,x30,53ec <I_blt_cg_cr_rs1_rs2_edges_offset_rs1val_0x55555555_rs2val_0xfffffffe+0x3c>
    53e0:	49d042ef          	jal	x5,a07c <failedtest_x5_x4>
    53e4:	000053b0          	.word	0x000053b0
    53e8:	00010fe6          	.word	0x00010fe6
    53ec:	00488893          	addi	x17,x17,4
  j 4f # done with test
    53f0:	0080006f          	jal	x0,53f8 <I_blt_cg_cr_rs1_rs2_edges_offset_rs1val_0x55555555_rs2val_0xfffffffe+0x48>
3: # goes here during forward branch if taken
  blt x30, x15, 2b # backward branch, definitely taken
    53f4:	feff40e3          	blt	x30,x15,53d4 <I_blt_cg_cr_rs1_rs2_edges_offset_rs1val_0x55555555_rs2val_0xfffffffe+0x24>
4: # done with test

# cr_rs1_rs2_edges_offset (Test source rs1 = 0x55555555 rs2 = 0x5bbc8872)
  RVTEST_TESTDATA_LOAD_INT(x23, x11) # load rs1: x11 = 0x55555555
    53f8:	000ba583          	lw	x11,0(x23)
    53fc:	004b8b93          	addi	x23,x23,4
  RVTEST_TESTDATA_LOAD_INT(x23, x26) # load rs2: x26 = 0x5bbc8872
    5400:	000bad03          	lw	x26,0(x23)
    5404:	004b8b93          	addi	x23,x23,4

00005408 <I_blt_cg_cr_rs1_rs2_edges_offset_rs1val_0x55555555_rs2val_0x5bbc8872>:
0: # destination for backwards branch that is never taken
I_blt_cg_cr_rs1_rs2_edges_offset_rs1val_0x55555555_rs2val_0x5bbc8872:
  blt x11, x26, 3f # forward branch, if taken
    5408:	05a5c263          	blt	x11,x26,544c <I_blt_cg_cr_rs1_rs2_edges_offset_rs1val_0x55555555_rs2val_0x5bbc8872+0x44>
1: # goes here if not taken
  blt x11, x26, 0b # backward branch, never taken
    540c:	ffa5cee3          	blt	x11,x26,5408 <I_blt_cg_cr_rs1_rs2_edges_offset_rs1val_0x55555555_rs2val_0x5bbc8872>
  # Check if x0 contains the expected result. x17 is the signature ptr, x5 is the link ptr, x4 is a temp reg.
  RVTEST_SIGUPD(x17, x5, x4, x0, I_blt_cg_cr_rs1_rs2_edges_offset_rs1val_0x55555555_rs2val_0x5bbc8872, I_blt_cg_cr_rs1_rs2_edges_offset_rs1val_0x55555555_rs2val_0x5bbc8872_str)
    5410:	0008a203          	lw	x4,0(x17)
    5414:	00020863          	beq	x4,x0,5424 <I_blt_cg_cr_rs1_rs2_edges_offset_rs1val_0x55555555_rs2val_0x5bbc8872+0x1c>
    5418:	465042ef          	jal	x5,a07c <failedtest_x5_x4>
    541c:	00005408          	.word	0x00005408
    5420:	00011048          	.word	0x00011048
    5424:	00488893          	addi	x17,x17,4
  j 4f # done with test
    5428:	0280006f          	jal	x0,5450 <I_blt_cg_cr_rs1_rs2_edges_offset_rs1val_0x55555555_rs2val_0x5bbc8872+0x48>
2: # goes here during backward branch if taken
  LI(x11, 1)
    542c:	00100593          	addi	x11,x0,1
  # Check if x11 contains the expected result. x17 is the signature ptr, x5 is the link ptr, x4 is a temp reg.
  RVTEST_SIGUPD(x17, x5, x4, x11, I_blt_cg_cr_rs1_rs2_edges_offset_rs1val_0x55555555_rs2val_0x5bbc8872, I_blt_cg_cr_rs1_rs2_edges_offset_rs1val_0x55555555_rs2val_0x5bbc8872_str) # signature 1 for taken
    5430:	0008a203          	lw	x4,0(x17)
    5434:	00b20863          	beq	x4,x11,5444 <I_blt_cg_cr_rs1_rs2_edges_offset_rs1val_0x55555555_rs2val_0x5bbc8872+0x3c>
    5438:	445042ef          	jal	x5,a07c <failedtest_x5_x4>
    543c:	00005408          	.word	0x00005408
    5440:	00011048          	.word	0x00011048
    5444:	00488893          	addi	x17,x17,4
  j 4f # done with test
    5448:	0080006f          	jal	x0,5450 <I_blt_cg_cr_rs1_rs2_edges_offset_rs1val_0x55555555_rs2val_0x5bbc8872+0x48>
3: # goes here during forward branch if taken
  blt x11, x26, 2b # backward branch, definitely taken
    544c:	ffa5c0e3          	blt	x11,x26,542c <I_blt_cg_cr_rs1_rs2_edges_offset_rs1val_0x55555555_rs2val_0x5bbc8872+0x24>
4: # done with test

# cr_rs1_rs2_edges_offset (Test source rs1 = 0x55555555 rs2 = 0xaaaaaaaa)
  RVTEST_TESTDATA_LOAD_INT(x23, x31) # load rs1: x31 = 0x55555555
    5450:	000baf83          	lw	x31,0(x23)
    5454:	004b8b93          	addi	x23,x23,4
  RVTEST_TESTDATA_LOAD_INT(x23, x25) # load rs2: x25 = 0xaaaaaaaa
    5458:	000bac83          	lw	x25,0(x23)
    545c:	004b8b93          	addi	x23,x23,4

00005460 <I_blt_cg_cr_rs1_rs2_edges_offset_rs1val_0x55555555_rs2val_0xaaaaaaaa>:
0: # destination for backwards branch that is never taken
I_blt_cg_cr_rs1_rs2_edges_offset_rs1val_0x55555555_rs2val_0xaaaaaaaa:
  blt x31, x25, 3f # forward branch, if taken
    5460:	059fc263          	blt	x31,x25,54a4 <I_blt_cg_cr_rs1_rs2_edges_offset_rs1val_0x55555555_rs2val_0xaaaaaaaa+0x44>
1: # goes here if not taken
  blt x31, x25, 0b # backward branch, never taken
    5464:	ff9fcee3          	blt	x31,x25,5460 <I_blt_cg_cr_rs1_rs2_edges_offset_rs1val_0x55555555_rs2val_0xaaaaaaaa>
  # Check if x0 contains the expected result. x17 is the signature ptr, x5 is the link ptr, x4 is a temp reg.
  RVTEST_SIGUPD(x17, x5, x4, x0, I_blt_cg_cr_rs1_rs2_edges_offset_rs1val_0x55555555_rs2val_0xaaaaaaaa, I_blt_cg_cr_rs1_rs2_edges_offset_rs1val_0x55555555_rs2val_0xaaaaaaaa_str)
    5468:	0008a203          	lw	x4,0(x17)
    546c:	00020863          	beq	x4,x0,547c <I_blt_cg_cr_rs1_rs2_edges_offset_rs1val_0x55555555_rs2val_0xaaaaaaaa+0x1c>
    5470:	40d042ef          	jal	x5,a07c <failedtest_x5_x4>
    5474:	00005460          	.word	0x00005460
    5478:	000110aa          	.word	0x000110aa
    547c:	00488893          	addi	x17,x17,4
  j 4f # done with test
    5480:	0280006f          	jal	x0,54a8 <I_blt_cg_cr_rs1_rs2_edges_offset_rs1val_0x55555555_rs2val_0xaaaaaaaa+0x48>
2: # goes here during backward branch if taken
  LI(x31, 1)
    5484:	00100f93          	addi	x31,x0,1
  # Check if x31 contains the expected result. x17 is the signature ptr, x5 is the link ptr, x4 is a temp reg.
  RVTEST_SIGUPD(x17, x5, x4, x31, I_blt_cg_cr_rs1_rs2_edges_offset_rs1val_0x55555555_rs2val_0xaaaaaaaa, I_blt_cg_cr_rs1_rs2_edges_offset_rs1val_0x55555555_rs2val_0xaaaaaaaa_str) # signature 1 for taken
    5488:	0008a203          	lw	x4,0(x17)
    548c:	01f20863          	beq	x4,x31,549c <I_blt_cg_cr_rs1_rs2_edges_offset_rs1val_0x55555555_rs2val_0xaaaaaaaa+0x3c>
    5490:	3ed042ef          	jal	x5,a07c <failedtest_x5_x4>
    5494:	00005460          	.word	0x00005460
    5498:	000110aa          	.word	0x000110aa
    549c:	00488893          	addi	x17,x17,4
  j 4f # done with test
    54a0:	0080006f          	jal	x0,54a8 <I_blt_cg_cr_rs1_rs2_edges_offset_rs1val_0x55555555_rs2val_0xaaaaaaaa+0x48>
3: # goes here during forward branch if taken
  blt x31, x25, 2b # backward branch, definitely taken
    54a4:	ff9fc0e3          	blt	x31,x25,5484 <I_blt_cg_cr_rs1_rs2_edges_offset_rs1val_0x55555555_rs2val_0xaaaaaaaa+0x24>
4: # done with test

# cr_rs1_rs2_edges_offset (Test source rs1 = 0x55555555 rs2 = 0x55555555)
  RVTEST_TESTDATA_LOAD_INT(x23, x13) # load rs1: x13 = 0x55555555
    54a8:	000ba683          	lw	x13,0(x23)
    54ac:	004b8b93          	addi	x23,x23,4
  RVTEST_TESTDATA_LOAD_INT(x23, x1) # load rs2: x1 = 0x55555555
    54b0:	000ba083          	lw	x1,0(x23)
    54b4:	004b8b93          	addi	x23,x23,4

000054b8 <I_blt_cg_cr_rs1_rs2_edges_offset_rs1val_0x55555555_rs2val_0x55555555>:
0: # destination for backwards branch that is never taken
I_blt_cg_cr_rs1_rs2_edges_offset_rs1val_0x55555555_rs2val_0x55555555:
  blt x13, x1, 3f # forward branch, if taken
    54b8:	0416c263          	blt	x13,x1,54fc <I_blt_cg_cr_rs1_rs2_edges_offset_rs1val_0x55555555_rs2val_0x55555555+0x44>
1: # goes here if not taken
  blt x13, x1, 0b # backward branch, never taken
    54bc:	fe16cee3          	blt	x13,x1,54b8 <I_blt_cg_cr_rs1_rs2_edges_offset_rs1val_0x55555555_rs2val_0x55555555>
  # Check if x0 contains the expected result. x17 is the signature ptr, x5 is the link ptr, x4 is a temp reg.
  RVTEST_SIGUPD(x17, x5, x4, x0, I_blt_cg_cr_rs1_rs2_edges_offset_rs1val_0x55555555_rs2val_0x55555555, I_blt_cg_cr_rs1_rs2_edges_offset_rs1val_0x55555555_rs2val_0x55555555_str)
    54c0:	0008a203          	lw	x4,0(x17)
    54c4:	00020863          	beq	x4,x0,54d4 <I_blt_cg_cr_rs1_rs2_edges_offset_rs1val_0x55555555_rs2val_0x55555555+0x1c>
    54c8:	3b5042ef          	jal	x5,a07c <failedtest_x5_x4>
    54cc:	000054b8          	.word	0x000054b8
    54d0:	0001110c          	.word	0x0001110c
    54d4:	00488893          	addi	x17,x17,4
  j 4f # done with test
    54d8:	0280006f          	jal	x0,5500 <I_blt_cg_cr_rs1_rs2_edges_offset_rs1val_0x55555555_rs2val_0x55555555+0x48>
2: # goes here during backward branch if taken
  LI(x13, 1)
    54dc:	00100693          	addi	x13,x0,1
  # Check if x13 contains the expected result. x17 is the signature ptr, x5 is the link ptr, x4 is a temp reg.
  RVTEST_SIGUPD(x17, x5, x4, x13, I_blt_cg_cr_rs1_rs2_edges_offset_rs1val_0x55555555_rs2val_0x55555555, I_blt_cg_cr_rs1_rs2_edges_offset_rs1val_0x55555555_rs2val_0x55555555_str) # signature 1 for taken
    54e0:	0008a203          	lw	x4,0(x17)
    54e4:	00d20863          	beq	x4,x13,54f4 <I_blt_cg_cr_rs1_rs2_edges_offset_rs1val_0x55555555_rs2val_0x55555555+0x3c>
    54e8:	395042ef          	jal	x5,a07c <failedtest_x5_x4>
    54ec:	000054b8          	.word	0x000054b8
    54f0:	0001110c          	.word	0x0001110c
    54f4:	00488893          	addi	x17,x17,4
  j 4f # done with test
    54f8:	0080006f          	jal	x0,5500 <I_blt_cg_cr_rs1_rs2_edges_offset_rs1val_0x55555555_rs2val_0x55555555+0x48>
3: # goes here during forward branch if taken
  blt x13, x1, 2b # backward branch, definitely taken
    54fc:	fe16c0e3          	blt	x13,x1,54dc <I_blt_cg_cr_rs1_rs2_edges_offset_rs1val_0x55555555_rs2val_0x55555555+0x24>
/////////////////////////////////
// cmp_rs1_rs2
/////////////////////////////////

# Testcase cmp_rs1_rs2 (Test rs1 = rs2 = x0)
  RVTEST_TESTDATA_LOAD_INT(x23, x0) # load rs1: x0 = 0x2ad98d38
    5500:	000ba003          	lw	x0,0(x23)
    5504:	004b8b93          	addi	x23,x23,4
  RVTEST_TESTDATA_LOAD_INT(x23, x0) # load rs2: x0 = 0x6a66570f
    5508:	000ba003          	lw	x0,0(x23)
    550c:	004b8b93          	addi	x23,x23,4
  RVTEST_TESTDATA_LOAD_INT(x23, x10) # load branch taken value: x10 = 0x162f9f7a
    5510:	000ba503          	lw	x10,0(x23)
    5514:	004b8b93          	addi	x23,x23,4

00005518 <I_blt_cg_cmp_rs1_rs2_b0>:
I_blt_cg_cmp_rs1_rs2_b0:
  blt x0, x0, 1f # perform operation
    5518:	00004463          	blt	x0,x0,5520 <I_blt_cg_cmp_rs1_rs2_b0+0x8>
  LI(x10, -1) # branch not taken, set temp_reg to 0
    551c:	fff00513          	addi	x10,x0,-1
1:
  # Check if x10 contains the expected result. x17 is the signature ptr, x5 is the link ptr, x4 is a temp reg.
  RVTEST_SIGUPD(x17, x5, x4, x10, I_blt_cg_cmp_rs1_rs2_b0, I_blt_cg_cmp_rs1_rs2_b0_str)
    5520:	0008a203          	lw	x4,0(x17)
    5524:	00a20863          	beq	x4,x10,5534 <I_blt_cg_cmp_rs1_rs2_b0+0x1c>
    5528:	355042ef          	jal	x5,a07c <failedtest_x5_x4>
    552c:	00005518          	.word	0x00005518
    5530:	0001116e          	.word	0x0001116e
    5534:	00488893          	addi	x17,x17,4

# Testcase cmp_rs1_rs2 (Test rs1 = rs2 = x1)
  RVTEST_TESTDATA_LOAD_INT(x23, x1) # load rs1: x1 = 0xd5b96424
    5538:	000ba083          	lw	x1,0(x23)
    553c:	004b8b93          	addi	x23,x23,4
  RVTEST_TESTDATA_LOAD_INT(x23, x1) # load rs2: x1 = 0xa85bd6cf
    5540:	000ba083          	lw	x1,0(x23)
    5544:	004b8b93          	addi	x23,x23,4
  RVTEST_TESTDATA_LOAD_INT(x23, x16) # load branch taken value: x16 = 0xc24752a7
    5548:	000ba803          	lw	x16,0(x23)
    554c:	004b8b93          	addi	x23,x23,4

00005550 <I_blt_cg_cmp_rs1_rs2_b1>:
I_blt_cg_cmp_rs1_rs2_b1:
  blt x1, x1, 1f # perform operation
    5550:	0010c463          	blt	x1,x1,5558 <I_blt_cg_cmp_rs1_rs2_b1+0x8>
  LI(x16, -1) # branch not taken, set temp_reg to 0
    5554:	fff00813          	addi	x16,x0,-1
1:
  # Check if x16 contains the expected result. x17 is the signature ptr, x5 is the link ptr, x4 is a temp reg.
  RVTEST_SIGUPD(x17, x5, x4, x16, I_blt_cg_cmp_rs1_rs2_b1, I_blt_cg_cmp_rs1_rs2_b1_str)
    5558:	0008a203          	lw	x4,0(x17)
    555c:	01020863          	beq	x4,x16,556c <I_blt_cg_cmp_rs1_rs2_b1+0x1c>
    5560:	31d042ef          	jal	x5,a07c <failedtest_x5_x4>
    5564:	00005550          	.word	0x00005550
    5568:	000111a2          	.word	0x000111a2
    556c:	00488893          	addi	x17,x17,4

# Testcase cmp_rs1_rs2 (Test rs1 = rs2 = x2)
  RVTEST_TESTDATA_LOAD_INT(x23, x2) # load rs1: x2 = 0xe1b41b99
    5570:	000ba103          	lw	x2,0(x23)
    5574:	004b8b93          	addi	x23,x23,4
  RVTEST_TESTDATA_LOAD_INT(x23, x2) # load rs2: x2 = 0x692f70e4
    5578:	000ba103          	lw	x2,0(x23)
    557c:	004b8b93          	addi	x23,x23,4
  RVTEST_TESTDATA_LOAD_INT(x23, x18) # load branch taken value: x18 = 0xc40df229
    5580:	000ba903          	lw	x18,0(x23)
    5584:	004b8b93          	addi	x23,x23,4

00005588 <I_blt_cg_cmp_rs1_rs2_b2>:
I_blt_cg_cmp_rs1_rs2_b2:
  blt x2, x2, 1f # perform operation
    5588:	00214463          	blt	x2,x2,5590 <I_blt_cg_cmp_rs1_rs2_b2+0x8>
  LI(x18, -1) # branch not taken, set temp_reg to 0
    558c:	fff00913          	addi	x18,x0,-1
1:
  # Check if x18 contains the expected result. x17 is the signature ptr, x5 is the link ptr, x4 is a temp reg.
  RVTEST_SIGUPD(x17, x5, x4, x18, I_blt_cg_cmp_rs1_rs2_b2, I_blt_cg_cmp_rs1_rs2_b2_str)
    5590:	0008a203          	lw	x4,0(x17)
    5594:	01220863          	beq	x4,x18,55a4 <I_blt_cg_cmp_rs1_rs2_b2+0x1c>
    5598:	2e5042ef          	jal	x5,a07c <failedtest_x5_x4>
    559c:	00005588          	.word	0x00005588
    55a0:	000111d6          	.word	0x000111d6
    55a4:	00488893          	addi	x17,x17,4

# Testcase cmp_rs1_rs2 (Test rs1 = rs2 = x3)
  RVTEST_TESTDATA_LOAD_INT(x23, x3) # load rs1: x3 = 0x827ac4c4
    55a8:	000ba183          	lw	x3,0(x23)
    55ac:	004b8b93          	addi	x23,x23,4
  RVTEST_TESTDATA_LOAD_INT(x23, x3) # load rs2: x3 = 0xa8040ee8
    55b0:	000ba183          	lw	x3,0(x23)
    55b4:	004b8b93          	addi	x23,x23,4
  RVTEST_TESTDATA_LOAD_INT(x23, x31) # load branch taken value: x31 = 0x2af2ae75
    55b8:	000baf83          	lw	x31,0(x23)
    55bc:	004b8b93          	addi	x23,x23,4

000055c0 <I_blt_cg_cmp_rs1_rs2_b3>:
I_blt_cg_cmp_rs1_rs2_b3:
  blt x3, x3, 1f # perform operation
    55c0:	0031c463          	blt	x3,x3,55c8 <I_blt_cg_cmp_rs1_rs2_b3+0x8>
  LI(x31, -1) # branch not taken, set temp_reg to 0
    55c4:	fff00f93          	addi	x31,x0,-1
1:
  # Check if x31 contains the expected result. x17 is the signature ptr, x5 is the link ptr, x4 is a temp reg.
  RVTEST_SIGUPD(x17, x5, x4, x31, I_blt_cg_cmp_rs1_rs2_b3, I_blt_cg_cmp_rs1_rs2_b3_str)
    55c8:	0008a203          	lw	x4,0(x17)
    55cc:	01f20863          	beq	x4,x31,55dc <I_blt_cg_cmp_rs1_rs2_b3+0x1c>
    55d0:	2ad042ef          	jal	x5,a07c <failedtest_x5_x4>
    55d4:	000055c0          	.word	0x000055c0
    55d8:	0001120a          	.word	0x0001120a
    55dc:	00488893          	addi	x17,x17,4

  mv x7, x4 # switch temp register to avoid conflict with test
    55e0:	00020393          	addi	x7,x4,0 # 0 <rvtest_entry_point>
  mv x8, x5 # switch link pointer register to avoid conflict with test
    55e4:	00028413          	addi	x8,x5,0
# Testcase cmp_rs1_rs2 (Test rs1 = rs2 = x4)
  RVTEST_TESTDATA_LOAD_INT(x23, x4) # load rs1: x4 = 0xfaa31c08
    55e8:	000ba203          	lw	x4,0(x23)
    55ec:	004b8b93          	addi	x23,x23,4
  RVTEST_TESTDATA_LOAD_INT(x23, x4) # load rs2: x4 = 0x4d402189
    55f0:	000ba203          	lw	x4,0(x23)
    55f4:	004b8b93          	addi	x23,x23,4
  RVTEST_TESTDATA_LOAD_INT(x23, x29) # load branch taken value: x29 = 0x0c88960d
    55f8:	000bae83          	lw	x29,0(x23)
    55fc:	004b8b93          	addi	x23,x23,4

00005600 <I_blt_cg_cmp_rs1_rs2_b4>:
I_blt_cg_cmp_rs1_rs2_b4:
  blt x4, x4, 1f # perform operation
    5600:	00424463          	blt	x4,x4,5608 <I_blt_cg_cmp_rs1_rs2_b4+0x8>
  LI(x29, -1) # branch not taken, set temp_reg to 0
    5604:	fff00e93          	addi	x29,x0,-1
1:
  # Check if x29 contains the expected result. x17 is the signature ptr, x8 is the link ptr, x7 is a temp reg.
  RVTEST_SIGUPD(x17, x8, x7, x29, I_blt_cg_cmp_rs1_rs2_b4, I_blt_cg_cmp_rs1_rs2_b4_str)
    5608:	0008a383          	lw	x7,0(x17)
    560c:	01d38863          	beq	x7,x29,561c <I_blt_cg_cmp_rs1_rs2_b4+0x1c>
    5610:	2850446f          	jal	x8,a094 <failedtest_x8_x7>
    5614:	00005600          	.word	0x00005600
    5618:	0001123e          	.word	0x0001123e
    561c:	00488893          	addi	x17,x17,4

# Testcase cmp_rs1_rs2 (Test rs1 = rs2 = x5)
  RVTEST_TESTDATA_LOAD_INT(x23, x5) # load rs1: x5 = 0x9f7d1380
    5620:	000ba283          	lw	x5,0(x23)
    5624:	004b8b93          	addi	x23,x23,4
  RVTEST_TESTDATA_LOAD_INT(x23, x5) # load rs2: x5 = 0xdfd5dc39
    5628:	000ba283          	lw	x5,0(x23)
    562c:	004b8b93          	addi	x23,x23,4
  RVTEST_TESTDATA_LOAD_INT(x23, x11) # load branch taken value: x11 = 0x2b396fa0
    5630:	000ba583          	lw	x11,0(x23)
    5634:	004b8b93          	addi	x23,x23,4

00005638 <I_blt_cg_cmp_rs1_rs2_b5>:
I_blt_cg_cmp_rs1_rs2_b5:
  blt x5, x5, 1f # perform operation
    5638:	0052c463          	blt	x5,x5,5640 <I_blt_cg_cmp_rs1_rs2_b5+0x8>
  LI(x11, -1) # branch not taken, set temp_reg to 0
    563c:	fff00593          	addi	x11,x0,-1
1:
  # Check if x11 contains the expected result. x17 is the signature ptr, x8 is the link ptr, x7 is a temp reg.
  RVTEST_SIGUPD(x17, x8, x7, x11, I_blt_cg_cmp_rs1_rs2_b5, I_blt_cg_cmp_rs1_rs2_b5_str)
    5640:	0008a383          	lw	x7,0(x17)
    5644:	00b38863          	beq	x7,x11,5654 <I_blt_cg_cmp_rs1_rs2_b5+0x1c>
    5648:	24d0446f          	jal	x8,a094 <failedtest_x8_x7>
    564c:	00005638          	.word	0x00005638
    5650:	00011272          	.word	0x00011272
    5654:	00488893          	addi	x17,x17,4

# Testcase cmp_rs1_rs2 (Test rs1 = rs2 = x6)
  RVTEST_TESTDATA_LOAD_INT(x23, x6) # load rs1: x6 = 0x6b4015fc
    5658:	000ba303          	lw	x6,0(x23)
    565c:	004b8b93          	addi	x23,x23,4
  RVTEST_TESTDATA_LOAD_INT(x23, x6) # load rs2: x6 = 0xe7589e58
    5660:	000ba303          	lw	x6,0(x23)
    5664:	004b8b93          	addi	x23,x23,4
  RVTEST_TESTDATA_LOAD_INT(x23, x18) # load branch taken value: x18 = 0xa5861f53
    5668:	000ba903          	lw	x18,0(x23)
    566c:	004b8b93          	addi	x23,x23,4

00005670 <I_blt_cg_cmp_rs1_rs2_b6>:
I_blt_cg_cmp_rs1_rs2_b6:
  blt x6, x6, 1f # perform operation
    5670:	00634463          	blt	x6,x6,5678 <I_blt_cg_cmp_rs1_rs2_b6+0x8>
  LI(x18, -1) # branch not taken, set temp_reg to 0
    5674:	fff00913          	addi	x18,x0,-1
1:
  # Check if x18 contains the expected result. x17 is the signature ptr, x8 is the link ptr, x7 is a temp reg.
  RVTEST_SIGUPD(x17, x8, x7, x18, I_blt_cg_cmp_rs1_rs2_b6, I_blt_cg_cmp_rs1_rs2_b6_str)
    5678:	0008a383          	lw	x7,0(x17)
    567c:	01238863          	beq	x7,x18,568c <I_blt_cg_cmp_rs1_rs2_b6+0x1c>
    5680:	2150446f          	jal	x8,a094 <failedtest_x8_x7>
    5684:	00005670          	.word	0x00005670
    5688:	000112a6          	.word	0x000112a6
    568c:	00488893          	addi	x17,x17,4

  mv x4, x7 # switch temp register to avoid conflict with test
    5690:	00038213          	addi	x4,x7,0
  mv x5, x8 # switch link pointer register to avoid conflict with test
    5694:	00040293          	addi	x5,x8,0
# Testcase cmp_rs1_rs2 (Test rs1 = rs2 = x7)
  RVTEST_TESTDATA_LOAD_INT(x23, x7) # load rs1: x7 = 0x22105d46
    5698:	000ba383          	lw	x7,0(x23)
    569c:	004b8b93          	addi	x23,x23,4
  RVTEST_TESTDATA_LOAD_INT(x23, x7) # load rs2: x7 = 0x590d44ba
    56a0:	000ba383          	lw	x7,0(x23)
    56a4:	004b8b93          	addi	x23,x23,4
  RVTEST_TESTDATA_LOAD_INT(x23, x8) # load branch taken value: x8 = 0x9a13d018
    56a8:	000ba403          	lw	x8,0(x23)
    56ac:	004b8b93          	addi	x23,x23,4

000056b0 <I_blt_cg_cmp_rs1_rs2_b7>:
I_blt_cg_cmp_rs1_rs2_b7:
  blt x7, x7, 1f # perform operation
    56b0:	0073c463          	blt	x7,x7,56b8 <I_blt_cg_cmp_rs1_rs2_b7+0x8>
  LI(x8, -1) # branch not taken, set temp_reg to 0
    56b4:	fff00413          	addi	x8,x0,-1
1:
  # Check if x8 contains the expected result. x17 is the signature ptr, x5 is the link ptr, x4 is a temp reg.
  RVTEST_SIGUPD(x17, x5, x4, x8, I_blt_cg_cmp_rs1_rs2_b7, I_blt_cg_cmp_rs1_rs2_b7_str)
    56b8:	0008a203          	lw	x4,0(x17)
    56bc:	00820863          	beq	x4,x8,56cc <I_blt_cg_cmp_rs1_rs2_b7+0x1c>
    56c0:	1bd042ef          	jal	x5,a07c <failedtest_x5_x4>
    56c4:	000056b0          	.word	0x000056b0
    56c8:	000112da          	.word	0x000112da
    56cc:	00488893          	addi	x17,x17,4

# Testcase cmp_rs1_rs2 (Test rs1 = rs2 = x8)
  RVTEST_TESTDATA_LOAD_INT(x23, x8) # load rs1: x8 = 0x978f553b
    56d0:	000ba403          	lw	x8,0(x23)
    56d4:	004b8b93          	addi	x23,x23,4
  RVTEST_TESTDATA_LOAD_INT(x23, x8) # load rs2: x8 = 0xee65395a
    56d8:	000ba403          	lw	x8,0(x23)
    56dc:	004b8b93          	addi	x23,x23,4
  RVTEST_TESTDATA_LOAD_INT(x23, x27) # load branch taken value: x27 = 0x00dd419a
    56e0:	000bad83          	lw	x27,0(x23)
    56e4:	004b8b93          	addi	x23,x23,4

000056e8 <I_blt_cg_cmp_rs1_rs2_b8>:
I_blt_cg_cmp_rs1_rs2_b8:
  blt x8, x8, 1f # perform operation
    56e8:	00844463          	blt	x8,x8,56f0 <I_blt_cg_cmp_rs1_rs2_b8+0x8>
  LI(x27, -1) # branch not taken, set temp_reg to 0
    56ec:	fff00d93          	addi	x27,x0,-1
1:
  # Check if x27 contains the expected result. x17 is the signature ptr, x5 is the link ptr, x4 is a temp reg.
  RVTEST_SIGUPD(x17, x5, x4, x27, I_blt_cg_cmp_rs1_rs2_b8, I_blt_cg_cmp_rs1_rs2_b8_str)
    56f0:	0008a203          	lw	x4,0(x17)
    56f4:	01b20863          	beq	x4,x27,5704 <I_blt_cg_cmp_rs1_rs2_b8+0x1c>
    56f8:	185042ef          	jal	x5,a07c <failedtest_x5_x4>
    56fc:	000056e8          	.word	0x000056e8
    5700:	0001130e          	.word	0x0001130e
    5704:	00488893          	addi	x17,x17,4

# Testcase cmp_rs1_rs2 (Test rs1 = rs2 = x9)
  RVTEST_TESTDATA_LOAD_INT(x23, x9) # load rs1: x9 = 0xa66f62a3
    5708:	000ba483          	lw	x9,0(x23)
    570c:	004b8b93          	addi	x23,x23,4
  RVTEST_TESTDATA_LOAD_INT(x23, x9) # load rs2: x9 = 0xf3ebfa4b
    5710:	000ba483          	lw	x9,0(x23)
    5714:	004b8b93          	addi	x23,x23,4
  RVTEST_TESTDATA_LOAD_INT(x23, x22) # load branch taken value: x22 = 0x2161e66b
    5718:	000bab03          	lw	x22,0(x23)
    571c:	004b8b93          	addi	x23,x23,4

00005720 <I_blt_cg_cmp_rs1_rs2_b9>:
I_blt_cg_cmp_rs1_rs2_b9:
  blt x9, x9, 1f # perform operation
    5720:	0094c463          	blt	x9,x9,5728 <I_blt_cg_cmp_rs1_rs2_b9+0x8>
  LI(x22, -1) # branch not taken, set temp_reg to 0
    5724:	fff00b13          	addi	x22,x0,-1
1:
  # Check if x22 contains the expected result. x17 is the signature ptr, x5 is the link ptr, x4 is a temp reg.
  RVTEST_SIGUPD(x17, x5, x4, x22, I_blt_cg_cmp_rs1_rs2_b9, I_blt_cg_cmp_rs1_rs2_b9_str)
    5728:	0008a203          	lw	x4,0(x17)
    572c:	01620863          	beq	x4,x22,573c <I_blt_cg_cmp_rs1_rs2_b9+0x1c>
    5730:	14d042ef          	jal	x5,a07c <failedtest_x5_x4>
    5734:	00005720          	.word	0x00005720
    5738:	00011342          	.word	0x00011342
    573c:	00488893          	addi	x17,x17,4

# Testcase cmp_rs1_rs2 (Test rs1 = rs2 = x10)
  RVTEST_TESTDATA_LOAD_INT(x23, x10) # load rs1: x10 = 0x029c36dc
    5740:	000ba503          	lw	x10,0(x23)
    5744:	004b8b93          	addi	x23,x23,4
  RVTEST_TESTDATA_LOAD_INT(x23, x10) # load rs2: x10 = 0x2c9f6688
    5748:	000ba503          	lw	x10,0(x23)
    574c:	004b8b93          	addi	x23,x23,4
  RVTEST_TESTDATA_LOAD_INT(x23, x25) # load branch taken value: x25 = 0xb2377bc8
    5750:	000bac83          	lw	x25,0(x23)
    5754:	004b8b93          	addi	x23,x23,4

00005758 <I_blt_cg_cmp_rs1_rs2_b10>:
I_blt_cg_cmp_rs1_rs2_b10:
  blt x10, x10, 1f # perform operation
    5758:	00a54463          	blt	x10,x10,5760 <I_blt_cg_cmp_rs1_rs2_b10+0x8>
  LI(x25, -1) # branch not taken, set temp_reg to 0
    575c:	fff00c93          	addi	x25,x0,-1
1:
  # Check if x25 contains the expected result. x17 is the signature ptr, x5 is the link ptr, x4 is a temp reg.
  RVTEST_SIGUPD(x17, x5, x4, x25, I_blt_cg_cmp_rs1_rs2_b10, I_blt_cg_cmp_rs1_rs2_b10_str)
    5760:	0008a203          	lw	x4,0(x17)
    5764:	01920863          	beq	x4,x25,5774 <I_blt_cg_cmp_rs1_rs2_b10+0x1c>
    5768:	115042ef          	jal	x5,a07c <failedtest_x5_x4>
    576c:	00005758          	.word	0x00005758
    5770:	00011376          	.word	0x00011376
    5774:	00488893          	addi	x17,x17,4

# Testcase cmp_rs1_rs2 (Test rs1 = rs2 = x11)
  RVTEST_TESTDATA_LOAD_INT(x23, x11) # load rs1: x11 = 0x2d9c4b12
    5778:	000ba583          	lw	x11,0(x23)
    577c:	004b8b93          	addi	x23,x23,4
  RVTEST_TESTDATA_LOAD_INT(x23, x11) # load rs2: x11 = 0x99760802
    5780:	000ba583          	lw	x11,0(x23)
    5784:	004b8b93          	addi	x23,x23,4
  RVTEST_TESTDATA_LOAD_INT(x23, x25) # load branch taken value: x25 = 0x495d6d45
    5788:	000bac83          	lw	x25,0(x23)
    578c:	004b8b93          	addi	x23,x23,4

00005790 <I_blt_cg_cmp_rs1_rs2_b11>:
I_blt_cg_cmp_rs1_rs2_b11:
  blt x11, x11, 1f # perform operation
    5790:	00b5c463          	blt	x11,x11,5798 <I_blt_cg_cmp_rs1_rs2_b11+0x8>
  LI(x25, -1) # branch not taken, set temp_reg to 0
    5794:	fff00c93          	addi	x25,x0,-1
1:
  # Check if x25 contains the expected result. x17 is the signature ptr, x5 is the link ptr, x4 is a temp reg.
  RVTEST_SIGUPD(x17, x5, x4, x25, I_blt_cg_cmp_rs1_rs2_b11, I_blt_cg_cmp_rs1_rs2_b11_str)
    5798:	0008a203          	lw	x4,0(x17)
    579c:	01920863          	beq	x4,x25,57ac <I_blt_cg_cmp_rs1_rs2_b11+0x1c>
    57a0:	0dd042ef          	jal	x5,a07c <failedtest_x5_x4>
    57a4:	00005790          	.word	0x00005790
    57a8:	000113ab          	.word	0x000113ab
    57ac:	00488893          	addi	x17,x17,4

# Testcase cmp_rs1_rs2 (Test rs1 = rs2 = x12)
  RVTEST_TESTDATA_LOAD_INT(x23, x12) # load rs1: x12 = 0xfc77635f
    57b0:	000ba603          	lw	x12,0(x23)
    57b4:	004b8b93          	addi	x23,x23,4
  RVTEST_TESTDATA_LOAD_INT(x23, x12) # load rs2: x12 = 0x67374f42
    57b8:	000ba603          	lw	x12,0(x23)
    57bc:	004b8b93          	addi	x23,x23,4
  RVTEST_TESTDATA_LOAD_INT(x23, x25) # load branch taken value: x25 = 0x381ba32f
    57c0:	000bac83          	lw	x25,0(x23)
    57c4:	004b8b93          	addi	x23,x23,4

000057c8 <I_blt_cg_cmp_rs1_rs2_b12>:
I_blt_cg_cmp_rs1_rs2_b12:
  blt x12, x12, 1f # perform operation
    57c8:	00c64463          	blt	x12,x12,57d0 <I_blt_cg_cmp_rs1_rs2_b12+0x8>
  LI(x25, -1) # branch not taken, set temp_reg to 0
    57cc:	fff00c93          	addi	x25,x0,-1
1:
  # Check if x25 contains the expected result. x17 is the signature ptr, x5 is the link ptr, x4 is a temp reg.
  RVTEST_SIGUPD(x17, x5, x4, x25, I_blt_cg_cmp_rs1_rs2_b12, I_blt_cg_cmp_rs1_rs2_b12_str)
    57d0:	0008a203          	lw	x4,0(x17)
    57d4:	01920863          	beq	x4,x25,57e4 <I_blt_cg_cmp_rs1_rs2_b12+0x1c>
    57d8:	0a5042ef          	jal	x5,a07c <failedtest_x5_x4>
    57dc:	000057c8          	.word	0x000057c8
    57e0:	000113e0          	.word	0x000113e0
    57e4:	00488893          	addi	x17,x17,4

# Testcase cmp_rs1_rs2 (Test rs1 = rs2 = x13)
  RVTEST_TESTDATA_LOAD_INT(x23, x13) # load rs1: x13 = 0x901b93ed
    57e8:	000ba683          	lw	x13,0(x23)
    57ec:	004b8b93          	addi	x23,x23,4
  RVTEST_TESTDATA_LOAD_INT(x23, x13) # load rs2: x13 = 0x045aa09e
    57f0:	000ba683          	lw	x13,0(x23)
    57f4:	004b8b93          	addi	x23,x23,4
  RVTEST_TESTDATA_LOAD_INT(x23, x9) # load branch taken value: x9 = 0xdcc6c5d4
    57f8:	000ba483          	lw	x9,0(x23)
    57fc:	004b8b93          	addi	x23,x23,4

00005800 <I_blt_cg_cmp_rs1_rs2_b13>:
I_blt_cg_cmp_rs1_rs2_b13:
  blt x13, x13, 1f # perform operation
    5800:	00d6c463          	blt	x13,x13,5808 <I_blt_cg_cmp_rs1_rs2_b13+0x8>
  LI(x9, -1) # branch not taken, set temp_reg to 0
    5804:	fff00493          	addi	x9,x0,-1
1:
  # Check if x9 contains the expected result. x17 is the signature ptr, x5 is the link ptr, x4 is a temp reg.
  RVTEST_SIGUPD(x17, x5, x4, x9, I_blt_cg_cmp_rs1_rs2_b13, I_blt_cg_cmp_rs1_rs2_b13_str)
    5808:	0008a203          	lw	x4,0(x17)
    580c:	00920863          	beq	x4,x9,581c <I_blt_cg_cmp_rs1_rs2_b13+0x1c>
    5810:	06d042ef          	jal	x5,a07c <failedtest_x5_x4>
    5814:	00005800          	.word	0x00005800
    5818:	00011415          	.word	0x00011415
    581c:	00488893          	addi	x17,x17,4

# Testcase cmp_rs1_rs2 (Test rs1 = rs2 = x14)
  RVTEST_TESTDATA_LOAD_INT(x23, x14) # load rs1: x14 = 0x8c591008
    5820:	000ba703          	lw	x14,0(x23)
    5824:	004b8b93          	addi	x23,x23,4
  RVTEST_TESTDATA_LOAD_INT(x23, x14) # load rs2: x14 = 0xd797ae56
    5828:	000ba703          	lw	x14,0(x23)
    582c:	004b8b93          	addi	x23,x23,4
  RVTEST_TESTDATA_LOAD_INT(x23, x13) # load branch taken value: x13 = 0x5d205ffa
    5830:	000ba683          	lw	x13,0(x23)
    5834:	004b8b93          	addi	x23,x23,4

00005838 <I_blt_cg_cmp_rs1_rs2_b14>:
I_blt_cg_cmp_rs1_rs2_b14:
  blt x14, x14, 1f # perform operation
    5838:	00e74463          	blt	x14,x14,5840 <I_blt_cg_cmp_rs1_rs2_b14+0x8>
  LI(x13, -1) # branch not taken, set temp_reg to 0
    583c:	fff00693          	addi	x13,x0,-1
1:
  # Check if x13 contains the expected result. x17 is the signature ptr, x5 is the link ptr, x4 is a temp reg.
  RVTEST_SIGUPD(x17, x5, x4, x13, I_blt_cg_cmp_rs1_rs2_b14, I_blt_cg_cmp_rs1_rs2_b14_str)
    5840:	0008a203          	lw	x4,0(x17)
    5844:	00d20863          	beq	x4,x13,5854 <I_blt_cg_cmp_rs1_rs2_b14+0x1c>
    5848:	035042ef          	jal	x5,a07c <failedtest_x5_x4>
    584c:	00005838          	.word	0x00005838
    5850:	0001144a          	.word	0x0001144a
    5854:	00488893          	addi	x17,x17,4

# Testcase cmp_rs1_rs2 (Test rs1 = rs2 = x15)
  RVTEST_TESTDATA_LOAD_INT(x23, x15) # load rs1: x15 = 0xc83a10ce
    5858:	000ba783          	lw	x15,0(x23)
    585c:	004b8b93          	addi	x23,x23,4
  RVTEST_TESTDATA_LOAD_INT(x23, x15) # load rs2: x15 = 0x9581e037
    5860:	000ba783          	lw	x15,0(x23)
    5864:	004b8b93          	addi	x23,x23,4
  RVTEST_TESTDATA_LOAD_INT(x23, x24) # load branch taken value: x24 = 0xfeb38c11
    5868:	000bac03          	lw	x24,0(x23)
    586c:	004b8b93          	addi	x23,x23,4

00005870 <I_blt_cg_cmp_rs1_rs2_b15>:
I_blt_cg_cmp_rs1_rs2_b15:
  blt x15, x15, 1f # perform operation
    5870:	00f7c463          	blt	x15,x15,5878 <I_blt_cg_cmp_rs1_rs2_b15+0x8>
  LI(x24, -1) # branch not taken, set temp_reg to 0
    5874:	fff00c13          	addi	x24,x0,-1
1:
  # Check if x24 contains the expected result. x17 is the signature ptr, x5 is the link ptr, x4 is a temp reg.
  RVTEST_SIGUPD(x17, x5, x4, x24, I_blt_cg_cmp_rs1_rs2_b15, I_blt_cg_cmp_rs1_rs2_b15_str)
    5878:	0008a203          	lw	x4,0(x17)
    587c:	01820863          	beq	x4,x24,588c <I_blt_cg_cmp_rs1_rs2_b15+0x1c>
    5880:	7fc042ef          	jal	x5,a07c <failedtest_x5_x4>
    5884:	00005870          	.word	0x00005870
    5888:	0001147f          	.word	0x0001147f
    588c:	00488893          	addi	x17,x17,4

# Testcase cmp_rs1_rs2 (Test rs1 = rs2 = x16)
  RVTEST_TESTDATA_LOAD_INT(x23, x16) # load rs1: x16 = 0x617ee87b
    5890:	000ba803          	lw	x16,0(x23)
    5894:	004b8b93          	addi	x23,x23,4
  RVTEST_TESTDATA_LOAD_INT(x23, x16) # load rs2: x16 = 0xce898671
    5898:	000ba803          	lw	x16,0(x23)
    589c:	004b8b93          	addi	x23,x23,4
  RVTEST_TESTDATA_LOAD_INT(x23, x19) # load branch taken value: x19 = 0x1f6fbc5f
    58a0:	000ba983          	lw	x19,0(x23)
    58a4:	004b8b93          	addi	x23,x23,4

000058a8 <I_blt_cg_cmp_rs1_rs2_b16>:
I_blt_cg_cmp_rs1_rs2_b16:
  blt x16, x16, 1f # perform operation
    58a8:	01084463          	blt	x16,x16,58b0 <I_blt_cg_cmp_rs1_rs2_b16+0x8>
  LI(x19, -1) # branch not taken, set temp_reg to 0
    58ac:	fff00993          	addi	x19,x0,-1
1:
  # Check if x19 contains the expected result. x17 is the signature ptr, x5 is the link ptr, x4 is a temp reg.
  RVTEST_SIGUPD(x17, x5, x4, x19, I_blt_cg_cmp_rs1_rs2_b16, I_blt_cg_cmp_rs1_rs2_b16_str)
    58b0:	0008a203          	lw	x4,0(x17)
    58b4:	01320863          	beq	x4,x19,58c4 <I_blt_cg_cmp_rs1_rs2_b16+0x1c>
    58b8:	7c4042ef          	jal	x5,a07c <failedtest_x5_x4>
    58bc:	000058a8          	.word	0x000058a8
    58c0:	000114b4          	.word	0x000114b4
    58c4:	00488893          	addi	x17,x17,4

  mv x22, x17 # switch signature pointer register to avoid conflict with test
    58c8:	00088b13          	addi	x22,x17,0
# Testcase cmp_rs1_rs2 (Test rs1 = rs2 = x17)
  RVTEST_TESTDATA_LOAD_INT(x23, x17) # load rs1: x17 = 0x5b59e438
    58cc:	000ba883          	lw	x17,0(x23)
    58d0:	004b8b93          	addi	x23,x23,4
  RVTEST_TESTDATA_LOAD_INT(x23, x17) # load rs2: x17 = 0x4bf96b89
    58d4:	000ba883          	lw	x17,0(x23)
    58d8:	004b8b93          	addi	x23,x23,4
  RVTEST_TESTDATA_LOAD_INT(x23, x26) # load branch taken value: x26 = 0x50e792cb
    58dc:	000bad03          	lw	x26,0(x23)
    58e0:	004b8b93          	addi	x23,x23,4

000058e4 <I_blt_cg_cmp_rs1_rs2_b17>:
I_blt_cg_cmp_rs1_rs2_b17:
  blt x17, x17, 1f # perform operation
    58e4:	0118c463          	blt	x17,x17,58ec <I_blt_cg_cmp_rs1_rs2_b17+0x8>
  LI(x26, -1) # branch not taken, set temp_reg to 0
    58e8:	fff00d13          	addi	x26,x0,-1
1:
  # Check if x26 contains the expected result. x22 is the signature ptr, x5 is the link ptr, x4 is a temp reg.
  RVTEST_SIGUPD(x22, x5, x4, x26, I_blt_cg_cmp_rs1_rs2_b17, I_blt_cg_cmp_rs1_rs2_b17_str)
    58ec:	000b2203          	lw	x4,0(x22)
    58f0:	01a20863          	beq	x4,x26,5900 <I_blt_cg_cmp_rs1_rs2_b17+0x1c>
    58f4:	788042ef          	jal	x5,a07c <failedtest_x5_x4>
    58f8:	000058e4          	.word	0x000058e4
    58fc:	000114e9          	.word	0x000114e9
    5900:	004b0b13          	addi	x22,x22,4

# Testcase cmp_rs1_rs2 (Test rs1 = rs2 = x18)
  RVTEST_TESTDATA_LOAD_INT(x23, x18) # load rs1: x18 = 0x1c72740e
    5904:	000ba903          	lw	x18,0(x23)
    5908:	004b8b93          	addi	x23,x23,4
  RVTEST_TESTDATA_LOAD_INT(x23, x18) # load rs2: x18 = 0xaddce462
    590c:	000ba903          	lw	x18,0(x23)
    5910:	004b8b93          	addi	x23,x23,4
  RVTEST_TESTDATA_LOAD_INT(x23, x24) # load branch taken value: x24 = 0xccfed63f
    5914:	000bac03          	lw	x24,0(x23)
    5918:	004b8b93          	addi	x23,x23,4

0000591c <I_blt_cg_cmp_rs1_rs2_b18>:
I_blt_cg_cmp_rs1_rs2_b18:
  blt x18, x18, 1f # perform operation
    591c:	01294463          	blt	x18,x18,5924 <I_blt_cg_cmp_rs1_rs2_b18+0x8>
  LI(x24, -1) # branch not taken, set temp_reg to 0
    5920:	fff00c13          	addi	x24,x0,-1
1:
  # Check if x24 contains the expected result. x22 is the signature ptr, x5 is the link ptr, x4 is a temp reg.
  RVTEST_SIGUPD(x22, x5, x4, x24, I_blt_cg_cmp_rs1_rs2_b18, I_blt_cg_cmp_rs1_rs2_b18_str)
    5924:	000b2203          	lw	x4,0(x22)
    5928:	01820863          	beq	x4,x24,5938 <I_blt_cg_cmp_rs1_rs2_b18+0x1c>
    592c:	750042ef          	jal	x5,a07c <failedtest_x5_x4>
    5930:	0000591c          	.word	0x0000591c
    5934:	0001151e          	.word	0x0001151e
    5938:	004b0b13          	addi	x22,x22,4

# Testcase cmp_rs1_rs2 (Test rs1 = rs2 = x19)
  RVTEST_TESTDATA_LOAD_INT(x23, x19) # load rs1: x19 = 0x629f08f6
    593c:	000ba983          	lw	x19,0(x23)
    5940:	004b8b93          	addi	x23,x23,4
  RVTEST_TESTDATA_LOAD_INT(x23, x19) # load rs2: x19 = 0x6dd5bad2
    5944:	000ba983          	lw	x19,0(x23)
    5948:	004b8b93          	addi	x23,x23,4
  RVTEST_TESTDATA_LOAD_INT(x23, x24) # load branch taken value: x24 = 0x464013da
    594c:	000bac03          	lw	x24,0(x23)
    5950:	004b8b93          	addi	x23,x23,4

00005954 <I_blt_cg_cmp_rs1_rs2_b19>:
I_blt_cg_cmp_rs1_rs2_b19:
  blt x19, x19, 1f # perform operation
    5954:	0139c463          	blt	x19,x19,595c <I_blt_cg_cmp_rs1_rs2_b19+0x8>
  LI(x24, -1) # branch not taken, set temp_reg to 0
    5958:	fff00c13          	addi	x24,x0,-1
1:
  # Check if x24 contains the expected result. x22 is the signature ptr, x5 is the link ptr, x4 is a temp reg.
  RVTEST_SIGUPD(x22, x5, x4, x24, I_blt_cg_cmp_rs1_rs2_b19, I_blt_cg_cmp_rs1_rs2_b19_str)
    595c:	000b2203          	lw	x4,0(x22)
    5960:	01820863          	beq	x4,x24,5970 <I_blt_cg_cmp_rs1_rs2_b19+0x1c>
    5964:	718042ef          	jal	x5,a07c <failedtest_x5_x4>
    5968:	00005954          	.word	0x00005954
    596c:	00011553          	.word	0x00011553
    5970:	004b0b13          	addi	x22,x22,4

# Testcase cmp_rs1_rs2 (Test rs1 = rs2 = x20)
  RVTEST_TESTDATA_LOAD_INT(x23, x20) # load rs1: x20 = 0x244b3257
    5974:	000baa03          	lw	x20,0(x23)
    5978:	004b8b93          	addi	x23,x23,4
  RVTEST_TESTDATA_LOAD_INT(x23, x20) # load rs2: x20 = 0x600cdfad
    597c:	000baa03          	lw	x20,0(x23)
    5980:	004b8b93          	addi	x23,x23,4
  RVTEST_TESTDATA_LOAD_INT(x23, x11) # load branch taken value: x11 = 0x21466992
    5984:	000ba583          	lw	x11,0(x23)
    5988:	004b8b93          	addi	x23,x23,4

0000598c <I_blt_cg_cmp_rs1_rs2_b20>:
I_blt_cg_cmp_rs1_rs2_b20:
  blt x20, x20, 1f # perform operation
    598c:	014a4463          	blt	x20,x20,5994 <I_blt_cg_cmp_rs1_rs2_b20+0x8>
  LI(x11, -1) # branch not taken, set temp_reg to 0
    5990:	fff00593          	addi	x11,x0,-1
1:
  # Check if x11 contains the expected result. x22 is the signature ptr, x5 is the link ptr, x4 is a temp reg.
  RVTEST_SIGUPD(x22, x5, x4, x11, I_blt_cg_cmp_rs1_rs2_b20, I_blt_cg_cmp_rs1_rs2_b20_str)
    5994:	000b2203          	lw	x4,0(x22)
    5998:	00b20863          	beq	x4,x11,59a8 <I_blt_cg_cmp_rs1_rs2_b20+0x1c>
    599c:	6e0042ef          	jal	x5,a07c <failedtest_x5_x4>
    59a0:	0000598c          	.word	0x0000598c
    59a4:	00011588          	.word	0x00011588
    59a8:	004b0b13          	addi	x22,x22,4

# Testcase cmp_rs1_rs2 (Test rs1 = rs2 = x21)
  RVTEST_TESTDATA_LOAD_INT(x23, x21) # load rs1: x21 = 0xa9033729
    59ac:	000baa83          	lw	x21,0(x23)
    59b0:	004b8b93          	addi	x23,x23,4
  RVTEST_TESTDATA_LOAD_INT(x23, x21) # load rs2: x21 = 0xe4b6b89e
    59b4:	000baa83          	lw	x21,0(x23)
    59b8:	004b8b93          	addi	x23,x23,4
  RVTEST_TESTDATA_LOAD_INT(x23, x31) # load branch taken value: x31 = 0x7e060d39
    59bc:	000baf83          	lw	x31,0(x23)
    59c0:	004b8b93          	addi	x23,x23,4

000059c4 <I_blt_cg_cmp_rs1_rs2_b21>:
I_blt_cg_cmp_rs1_rs2_b21:
  blt x21, x21, 1f # perform operation
    59c4:	015ac463          	blt	x21,x21,59cc <I_blt_cg_cmp_rs1_rs2_b21+0x8>
  LI(x31, -1) # branch not taken, set temp_reg to 0
    59c8:	fff00f93          	addi	x31,x0,-1
1:
  # Check if x31 contains the expected result. x22 is the signature ptr, x5 is the link ptr, x4 is a temp reg.
  RVTEST_SIGUPD(x22, x5, x4, x31, I_blt_cg_cmp_rs1_rs2_b21, I_blt_cg_cmp_rs1_rs2_b21_str)
    59cc:	000b2203          	lw	x4,0(x22)
    59d0:	01f20863          	beq	x4,x31,59e0 <I_blt_cg_cmp_rs1_rs2_b21+0x1c>
    59d4:	6a8042ef          	jal	x5,a07c <failedtest_x5_x4>
    59d8:	000059c4          	.word	0x000059c4
    59dc:	000115bd          	.word	0x000115bd
    59e0:	004b0b13          	addi	x22,x22,4

  mv x26, x22 # switch signature pointer register to avoid conflict with test
    59e4:	000b0d13          	addi	x26,x22,0
# Testcase cmp_rs1_rs2 (Test rs1 = rs2 = x22)
  RVTEST_TESTDATA_LOAD_INT(x23, x22) # load rs1: x22 = 0xe5d78ea5
    59e8:	000bab03          	lw	x22,0(x23)
    59ec:	004b8b93          	addi	x23,x23,4
  RVTEST_TESTDATA_LOAD_INT(x23, x22) # load rs2: x22 = 0x58785eb3
    59f0:	000bab03          	lw	x22,0(x23)
    59f4:	004b8b93          	addi	x23,x23,4
  RVTEST_TESTDATA_LOAD_INT(x23, x12) # load branch taken value: x12 = 0xf9e17dc1
    59f8:	000ba603          	lw	x12,0(x23)
    59fc:	004b8b93          	addi	x23,x23,4

00005a00 <I_blt_cg_cmp_rs1_rs2_b22>:
I_blt_cg_cmp_rs1_rs2_b22:
  blt x22, x22, 1f # perform operation
    5a00:	016b4463          	blt	x22,x22,5a08 <I_blt_cg_cmp_rs1_rs2_b22+0x8>
  LI(x12, -1) # branch not taken, set temp_reg to 0
    5a04:	fff00613          	addi	x12,x0,-1
1:
  # Check if x12 contains the expected result. x26 is the signature ptr, x5 is the link ptr, x4 is a temp reg.
  RVTEST_SIGUPD(x26, x5, x4, x12, I_blt_cg_cmp_rs1_rs2_b22, I_blt_cg_cmp_rs1_rs2_b22_str)
    5a08:	000d2203          	lw	x4,0(x26)
    5a0c:	00c20863          	beq	x4,x12,5a1c <I_blt_cg_cmp_rs1_rs2_b22+0x1c>
    5a10:	66c042ef          	jal	x5,a07c <failedtest_x5_x4>
    5a14:	00005a00          	.word	0x00005a00
    5a18:	000115f2          	.word	0x000115f2
    5a1c:	004d0d13          	addi	x26,x26,4

  mv x19, x23 # switch data pointer register to avoid conflict with test
    5a20:	000b8993          	addi	x19,x23,0
# Testcase cmp_rs1_rs2 (Test rs1 = rs2 = x23)
  RVTEST_TESTDATA_LOAD_INT(x19, x23) # load rs1: x23 = 0xa7f6951a
    5a24:	0009ab83          	lw	x23,0(x19)
    5a28:	00498993          	addi	x19,x19,4
  RVTEST_TESTDATA_LOAD_INT(x19, x23) # load rs2: x23 = 0x1fa34c49
    5a2c:	0009ab83          	lw	x23,0(x19)
    5a30:	00498993          	addi	x19,x19,4
  RVTEST_TESTDATA_LOAD_INT(x19, x6) # load branch taken value: x6 = 0xb289027a
    5a34:	0009a303          	lw	x6,0(x19)
    5a38:	00498993          	addi	x19,x19,4

00005a3c <I_blt_cg_cmp_rs1_rs2_b23>:
I_blt_cg_cmp_rs1_rs2_b23:
  blt x23, x23, 1f # perform operation
    5a3c:	017bc463          	blt	x23,x23,5a44 <I_blt_cg_cmp_rs1_rs2_b23+0x8>
  LI(x6, -1) # branch not taken, set temp_reg to 0
    5a40:	fff00313          	addi	x6,x0,-1
1:
  # Check if x6 contains the expected result. x26 is the signature ptr, x5 is the link ptr, x4 is a temp reg.
  RVTEST_SIGUPD(x26, x5, x4, x6, I_blt_cg_cmp_rs1_rs2_b23, I_blt_cg_cmp_rs1_rs2_b23_str)
    5a44:	000d2203          	lw	x4,0(x26)
    5a48:	00620863          	beq	x4,x6,5a58 <I_blt_cg_cmp_rs1_rs2_b23+0x1c>
    5a4c:	630042ef          	jal	x5,a07c <failedtest_x5_x4>
    5a50:	00005a3c          	.word	0x00005a3c
    5a54:	00011627          	.word	0x00011627
    5a58:	004d0d13          	addi	x26,x26,4

# Testcase cmp_rs1_rs2 (Test rs1 = rs2 = x24)
  RVTEST_TESTDATA_LOAD_INT(x19, x24) # load rs1: x24 = 0x18cb7dfe
    5a5c:	0009ac03          	lw	x24,0(x19)
    5a60:	00498993          	addi	x19,x19,4
  RVTEST_TESTDATA_LOAD_INT(x19, x24) # load rs2: x24 = 0x2d98647b
    5a64:	0009ac03          	lw	x24,0(x19)
    5a68:	00498993          	addi	x19,x19,4
  RVTEST_TESTDATA_LOAD_INT(x19, x9) # load branch taken value: x9 = 0x85eb6571
    5a6c:	0009a483          	lw	x9,0(x19)
    5a70:	00498993          	addi	x19,x19,4

00005a74 <I_blt_cg_cmp_rs1_rs2_b24>:
I_blt_cg_cmp_rs1_rs2_b24:
  blt x24, x24, 1f # perform operation
    5a74:	018c4463          	blt	x24,x24,5a7c <I_blt_cg_cmp_rs1_rs2_b24+0x8>
  LI(x9, -1) # branch not taken, set temp_reg to 0
    5a78:	fff00493          	addi	x9,x0,-1
1:
  # Check if x9 contains the expected result. x26 is the signature ptr, x5 is the link ptr, x4 is a temp reg.
  RVTEST_SIGUPD(x26, x5, x4, x9, I_blt_cg_cmp_rs1_rs2_b24, I_blt_cg_cmp_rs1_rs2_b24_str)
    5a7c:	000d2203          	lw	x4,0(x26)
    5a80:	00920863          	beq	x4,x9,5a90 <I_blt_cg_cmp_rs1_rs2_b24+0x1c>
    5a84:	5f8042ef          	jal	x5,a07c <failedtest_x5_x4>
    5a88:	00005a74          	.word	0x00005a74
    5a8c:	0001165c          	.word	0x0001165c
    5a90:	004d0d13          	addi	x26,x26,4

# Testcase cmp_rs1_rs2 (Test rs1 = rs2 = x25)
  RVTEST_TESTDATA_LOAD_INT(x19, x25) # load rs1: x25 = 0x2652576a
    5a94:	0009ac83          	lw	x25,0(x19)
    5a98:	00498993          	addi	x19,x19,4
  RVTEST_TESTDATA_LOAD_INT(x19, x25) # load rs2: x25 = 0xd9bd9e6d
    5a9c:	0009ac83          	lw	x25,0(x19)
    5aa0:	00498993          	addi	x19,x19,4
  RVTEST_TESTDATA_LOAD_INT(x19, x23) # load branch taken value: x23 = 0x95921ffb
    5aa4:	0009ab83          	lw	x23,0(x19)
    5aa8:	00498993          	addi	x19,x19,4

00005aac <I_blt_cg_cmp_rs1_rs2_b25>:
I_blt_cg_cmp_rs1_rs2_b25:
  blt x25, x25, 1f # perform operation
    5aac:	019cc463          	blt	x25,x25,5ab4 <I_blt_cg_cmp_rs1_rs2_b25+0x8>
  LI(x23, -1) # branch not taken, set temp_reg to 0
    5ab0:	fff00b93          	addi	x23,x0,-1
1:
  # Check if x23 contains the expected result. x26 is the signature ptr, x5 is the link ptr, x4 is a temp reg.
  RVTEST_SIGUPD(x26, x5, x4, x23, I_blt_cg_cmp_rs1_rs2_b25, I_blt_cg_cmp_rs1_rs2_b25_str)
    5ab4:	000d2203          	lw	x4,0(x26)
    5ab8:	01720863          	beq	x4,x23,5ac8 <I_blt_cg_cmp_rs1_rs2_b25+0x1c>
    5abc:	5c0042ef          	jal	x5,a07c <failedtest_x5_x4>
    5ac0:	00005aac          	.word	0x00005aac
    5ac4:	00011691          	.word	0x00011691
    5ac8:	004d0d13          	addi	x26,x26,4

  mv x6, x26 # switch signature pointer register to avoid conflict with test
    5acc:	000d0313          	addi	x6,x26,0
# Testcase cmp_rs1_rs2 (Test rs1 = rs2 = x26)
  RVTEST_TESTDATA_LOAD_INT(x19, x26) # load rs1: x26 = 0xb073ab88
    5ad0:	0009ad03          	lw	x26,0(x19)
    5ad4:	00498993          	addi	x19,x19,4
  RVTEST_TESTDATA_LOAD_INT(x19, x26) # load rs2: x26 = 0x5f6c49a4
    5ad8:	0009ad03          	lw	x26,0(x19)
    5adc:	00498993          	addi	x19,x19,4
  RVTEST_TESTDATA_LOAD_INT(x19, x21) # load branch taken value: x21 = 0x34078f96
    5ae0:	0009aa83          	lw	x21,0(x19)
    5ae4:	00498993          	addi	x19,x19,4

00005ae8 <I_blt_cg_cmp_rs1_rs2_b26>:
I_blt_cg_cmp_rs1_rs2_b26:
  blt x26, x26, 1f # perform operation
    5ae8:	01ad4463          	blt	x26,x26,5af0 <I_blt_cg_cmp_rs1_rs2_b26+0x8>
  LI(x21, -1) # branch not taken, set temp_reg to 0
    5aec:	fff00a93          	addi	x21,x0,-1
1:
  # Check if x21 contains the expected result. x6 is the signature ptr, x5 is the link ptr, x4 is a temp reg.
  RVTEST_SIGUPD(x6, x5, x4, x21, I_blt_cg_cmp_rs1_rs2_b26, I_blt_cg_cmp_rs1_rs2_b26_str)
    5af0:	00032203          	lw	x4,0(x6)
    5af4:	01520863          	beq	x4,x21,5b04 <I_blt_cg_cmp_rs1_rs2_b26+0x1c>
    5af8:	584042ef          	jal	x5,a07c <failedtest_x5_x4>
    5afc:	00005ae8          	.word	0x00005ae8
    5b00:	000116c6          	.word	0x000116c6
    5b04:	00430313          	addi	x6,x6,4

# Testcase cmp_rs1_rs2 (Test rs1 = rs2 = x27)
  RVTEST_TESTDATA_LOAD_INT(x19, x27) # load rs1: x27 = 0x6434e69a
    5b08:	0009ad83          	lw	x27,0(x19)
    5b0c:	00498993          	addi	x19,x19,4
  RVTEST_TESTDATA_LOAD_INT(x19, x27) # load rs2: x27 = 0xe5b90090
    5b10:	0009ad83          	lw	x27,0(x19)
    5b14:	00498993          	addi	x19,x19,4
  RVTEST_TESTDATA_LOAD_INT(x19, x17) # load branch taken value: x17 = 0x4d5705c2
    5b18:	0009a883          	lw	x17,0(x19)
    5b1c:	00498993          	addi	x19,x19,4

00005b20 <I_blt_cg_cmp_rs1_rs2_b27>:
I_blt_cg_cmp_rs1_rs2_b27:
  blt x27, x27, 1f # perform operation
    5b20:	01bdc463          	blt	x27,x27,5b28 <I_blt_cg_cmp_rs1_rs2_b27+0x8>
  LI(x17, -1) # branch not taken, set temp_reg to 0
    5b24:	fff00893          	addi	x17,x0,-1
1:
  # Check if x17 contains the expected result. x6 is the signature ptr, x5 is the link ptr, x4 is a temp reg.
  RVTEST_SIGUPD(x6, x5, x4, x17, I_blt_cg_cmp_rs1_rs2_b27, I_blt_cg_cmp_rs1_rs2_b27_str)
    5b28:	00032203          	lw	x4,0(x6)
    5b2c:	01120863          	beq	x4,x17,5b3c <I_blt_cg_cmp_rs1_rs2_b27+0x1c>
    5b30:	54c042ef          	jal	x5,a07c <failedtest_x5_x4>
    5b34:	00005b20          	.word	0x00005b20
    5b38:	000116fb          	.word	0x000116fb
    5b3c:	00430313          	addi	x6,x6,4

# Testcase cmp_rs1_rs2 (Test rs1 = rs2 = x28)
  RVTEST_TESTDATA_LOAD_INT(x19, x28) # load rs1: x28 = 0xfcd1bf39
    5b40:	0009ae03          	lw	x28,0(x19)
    5b44:	00498993          	addi	x19,x19,4
  RVTEST_TESTDATA_LOAD_INT(x19, x28) # load rs2: x28 = 0x23d749bb
    5b48:	0009ae03          	lw	x28,0(x19)
    5b4c:	00498993          	addi	x19,x19,4
  RVTEST_TESTDATA_LOAD_INT(x19, x13) # load branch taken value: x13 = 0x8c606f18
    5b50:	0009a683          	lw	x13,0(x19)
    5b54:	00498993          	addi	x19,x19,4

00005b58 <I_blt_cg_cmp_rs1_rs2_b28>:
I_blt_cg_cmp_rs1_rs2_b28:
  blt x28, x28, 1f # perform operation
    5b58:	01ce4463          	blt	x28,x28,5b60 <I_blt_cg_cmp_rs1_rs2_b28+0x8>
  LI(x13, -1) # branch not taken, set temp_reg to 0
    5b5c:	fff00693          	addi	x13,x0,-1
1:
  # Check if x13 contains the expected result. x6 is the signature ptr, x5 is the link ptr, x4 is a temp reg.
  RVTEST_SIGUPD(x6, x5, x4, x13, I_blt_cg_cmp_rs1_rs2_b28, I_blt_cg_cmp_rs1_rs2_b28_str)
    5b60:	00032203          	lw	x4,0(x6)
    5b64:	00d20863          	beq	x4,x13,5b74 <I_blt_cg_cmp_rs1_rs2_b28+0x1c>
    5b68:	514042ef          	jal	x5,a07c <failedtest_x5_x4>
    5b6c:	00005b58          	.word	0x00005b58
    5b70:	00011730          	.word	0x00011730
    5b74:	00430313          	addi	x6,x6,4

# Testcase cmp_rs1_rs2 (Test rs1 = rs2 = x29)
  RVTEST_TESTDATA_LOAD_INT(x19, x29) # load rs1: x29 = 0x9d9afb9c
    5b78:	0009ae83          	lw	x29,0(x19)
    5b7c:	00498993          	addi	x19,x19,4
  RVTEST_TESTDATA_LOAD_INT(x19, x29) # load rs2: x29 = 0x6d2838d4
    5b80:	0009ae83          	lw	x29,0(x19)
    5b84:	00498993          	addi	x19,x19,4
  RVTEST_TESTDATA_LOAD_INT(x19, x3) # load branch taken value: x3 = 0x275ad0d9
    5b88:	0009a183          	lw	x3,0(x19)
    5b8c:	00498993          	addi	x19,x19,4

00005b90 <I_blt_cg_cmp_rs1_rs2_b29>:
I_blt_cg_cmp_rs1_rs2_b29:
  blt x29, x29, 1f # perform operation
    5b90:	01dec463          	blt	x29,x29,5b98 <I_blt_cg_cmp_rs1_rs2_b29+0x8>
  LI(x3, -1) # branch not taken, set temp_reg to 0
    5b94:	fff00193          	addi	x3,x0,-1
1:
  # Check if x3 contains the expected result. x6 is the signature ptr, x5 is the link ptr, x4 is a temp reg.
  RVTEST_SIGUPD(x6, x5, x4, x3, I_blt_cg_cmp_rs1_rs2_b29, I_blt_cg_cmp_rs1_rs2_b29_str)
    5b98:	00032203          	lw	x4,0(x6)
    5b9c:	00320863          	beq	x4,x3,5bac <I_blt_cg_cmp_rs1_rs2_b29+0x1c>
    5ba0:	4dc042ef          	jal	x5,a07c <failedtest_x5_x4>
    5ba4:	00005b90          	.word	0x00005b90
    5ba8:	00011765          	.word	0x00011765
    5bac:	00430313          	addi	x6,x6,4

# Testcase cmp_rs1_rs2 (Test rs1 = rs2 = x30)
  RVTEST_TESTDATA_LOAD_INT(x19, x30) # load rs1: x30 = 0x33b542c2
    5bb0:	0009af03          	lw	x30,0(x19)
    5bb4:	00498993          	addi	x19,x19,4
  RVTEST_TESTDATA_LOAD_INT(x19, x30) # load rs2: x30 = 0xd546c6e4
    5bb8:	0009af03          	lw	x30,0(x19)
    5bbc:	00498993          	addi	x19,x19,4
  RVTEST_TESTDATA_LOAD_INT(x19, x20) # load branch taken value: x20 = 0xc5193a86
    5bc0:	0009aa03          	lw	x20,0(x19)
    5bc4:	00498993          	addi	x19,x19,4

00005bc8 <I_blt_cg_cmp_rs1_rs2_b30>:
I_blt_cg_cmp_rs1_rs2_b30:
  blt x30, x30, 1f # perform operation
    5bc8:	01ef4463          	blt	x30,x30,5bd0 <I_blt_cg_cmp_rs1_rs2_b30+0x8>
  LI(x20, -1) # branch not taken, set temp_reg to 0
    5bcc:	fff00a13          	addi	x20,x0,-1
1:
  # Check if x20 contains the expected result. x6 is the signature ptr, x5 is the link ptr, x4 is a temp reg.
  RVTEST_SIGUPD(x6, x5, x4, x20, I_blt_cg_cmp_rs1_rs2_b30, I_blt_cg_cmp_rs1_rs2_b30_str)
    5bd0:	00032203          	lw	x4,0(x6)
    5bd4:	01420863          	beq	x4,x20,5be4 <I_blt_cg_cmp_rs1_rs2_b30+0x1c>
    5bd8:	4a4042ef          	jal	x5,a07c <failedtest_x5_x4>
    5bdc:	00005bc8          	.word	0x00005bc8
    5be0:	0001179a          	.word	0x0001179a
    5be4:	00430313          	addi	x6,x6,4

# Testcase cmp_rs1_rs2 (Test rs1 = rs2 = x31)
  RVTEST_TESTDATA_LOAD_INT(x19, x31) # load rs1: x31 = 0x8a505f66
    5be8:	0009af83          	lw	x31,0(x19)
    5bec:	00498993          	addi	x19,x19,4
  RVTEST_TESTDATA_LOAD_INT(x19, x31) # load rs2: x31 = 0x81eada48
    5bf0:	0009af83          	lw	x31,0(x19)
    5bf4:	00498993          	addi	x19,x19,4
  RVTEST_TESTDATA_LOAD_INT(x19, x1) # load branch taken value: x1 = 0x3b52bce0
    5bf8:	0009a083          	lw	x1,0(x19)
    5bfc:	00498993          	addi	x19,x19,4

00005c00 <I_blt_cg_cmp_rs1_rs2_b31>:
I_blt_cg_cmp_rs1_rs2_b31:
  blt x31, x31, 1f # perform operation
    5c00:	01ffc463          	blt	x31,x31,5c08 <I_blt_cg_cmp_rs1_rs2_b31+0x8>
  LI(x1, -1) # branch not taken, set temp_reg to 0
    5c04:	fff00093          	addi	x1,x0,-1
1:
  # Check if x1 contains the expected result. x6 is the signature ptr, x5 is the link ptr, x4 is a temp reg.
  RVTEST_SIGUPD(x6, x5, x4, x1, I_blt_cg_cmp_rs1_rs2_b31, I_blt_cg_cmp_rs1_rs2_b31_str)
    5c08:	00032203          	lw	x4,0(x6)
    5c0c:	00120863          	beq	x4,x1,5c1c <I_blt_cg_cmp_rs1_rs2_b31+0x1c>
    5c10:	46c042ef          	jal	x5,a07c <failedtest_x5_x4>
    5c14:	00005c00          	.word	0x00005c00
    5c18:	000117cf          	.word	0x000117cf
    5c1c:	00430313          	addi	x6,x6,4
/////////////////////////////////
// cp_offset
/////////////////////////////////

# Testcase cp_offset negative bin (positive bin is covered by other coverpoints)
  LI(x24, 1)
    5c20:	00100c13          	addi	x24,x0,1
  LI(x23, 2) # setup for taken branch
    5c24:	00200b93          	addi	x23,x0,2
  RVTEST_TESTDATA_LOAD_INT(x19, x22) # load branch check value: x22 = 0xe2837add
    5c28:	0009ab03          	lw	x22,0(x19)
    5c2c:	00498993          	addi	x19,x19,4
  j 2f # jump past backward branch target
    5c30:	00c0006f          	jal	x0,5c3c <I_blt_cg_cp_offset_neg>
1: addi x22, x22, 4 # backward branch target, increment check value
    5c34:	004b0b13          	addi	x22,x22,4
  j 3f # jump past backward branch
    5c38:	00c0006f          	jal	x0,5c44 <I_blt_cg_cp_offset_neg+0x8>

00005c3c <I_blt_cg_cp_offset_neg>:
I_blt_cg_cp_offset_neg:
2: blt x24, x23, 1b # backward branch
    5c3c:	ff7c4ce3          	blt	x24,x23,5c34 <I_blt_cg_cmp_rs1_rs2_b31+0x34>
  addi x22, x22, -2 # branch not taken, decrement check value
    5c40:	ffeb0b13          	addi	x22,x22,-2
3:  # done with sequence
  # Check if x22 contains the expected result. x6 is the signature ptr, x5 is the link ptr, x4 is a temp reg.
  RVTEST_SIGUPD(x6, x5, x4, x22, I_blt_cg_cp_offset_neg, I_blt_cg_cp_offset_neg_str)
    5c44:	00032203          	lw	x4,0(x6)
    5c48:	01620863          	beq	x4,x22,5c58 <I_blt_cg_cp_offset_neg+0x1c>
    5c4c:	430042ef          	jal	x5,a07c <failedtest_x5_x4>
    5c50:	00005c3c          	.word	0x00005c3c
    5c54:	00011804          	.word	0x00011804
    5c58:	00430313          	addi	x6,x6,4

/////////////////////////////////
// cp_imm_edges_branch
/////////////////////////////////

  RVTEST_TESTDATA_LOAD_INT(x19, x27) # load branch check value: x27 = 0x00001000
    5c5c:	0009ad83          	lw	x27,0(x19)
    5c60:	00498993          	addi	x19,x19,4
  LI(x2, 1)
    5c64:	00100113          	addi	x2,x0,1
  LI(x21, 2) # setup for taken branch
    5c68:	00200a93          	addi	x21,x0,2

00005c6c <I_blt_cg_cp_imm_edges_branch_all>:

I_blt_cg_cp_imm_edges_branch_all:

# branch forward by 4
  blt x2, x21, 1f
    5c6c:	01514263          	blt	x2,x21,5c70 <I_blt_cg_cp_imm_edges_branch_all+0x4>
  # offset too small to modify counter for checking
1:
  nop
    5c70:	00000013          	addi	x0,x0,0

# branch forward by 8
  blt x2, x21, 2f
    5c74:	01514463          	blt	x2,x21,5c7c <I_blt_cg_cp_imm_edges_branch_all+0x10>
  addi x27, x27, -2 # shouldn't happen
    5c78:	ffed8d93          	addi	x27,x27,-2
2:
  addi x27, x27, 4 # should happen
    5c7c:	004d8d93          	addi	x27,x27,4

# branch forward by 16
  blt x2, x21, 3f
    5c80:	01514863          	blt	x2,x21,5c90 <I_blt_cg_cp_imm_edges_branch_all+0x24>
  addi x27, x27, -8 # shouldn't happen
    5c84:	ff8d8d93          	addi	x27,x27,-8
  j 19f # shouldn't happen
    5c88:	3840406f          	jal	x0,a00c <I_blt_cg_cp_imm_edges_branch_all+0x43a0>
  nop # use up 4 bytes
    5c8c:	00000013          	addi	x0,x0,0
3:
  addi x27, x27, 16 # should happen
    5c90:	010d8d93          	addi	x27,x27,16
    5c94:	00000013          	addi	x0,x0,0
    5c98:	00000013          	addi	x0,x0,0
    5c9c:	00000013          	addi	x0,x0,0
    5ca0:	00000013          	addi	x0,x0,0
    5ca4:	00000013          	addi	x0,x0,0
    5ca8:	00000013          	addi	x0,x0,0
    5cac:	00000013          	addi	x0,x0,0
    5cb0:	00000013          	addi	x0,x0,0
    5cb4:	00000013          	addi	x0,x0,0
    5cb8:	00000013          	addi	x0,x0,0
    5cbc:	00000013          	addi	x0,x0,0
    5cc0:	00000013          	addi	x0,x0,0
    5cc4:	00000013          	addi	x0,x0,0
    5cc8:	00000013          	addi	x0,x0,0
    5ccc:	00000013          	addi	x0,x0,0
    5cd0:	00000013          	addi	x0,x0,0
    5cd4:	00000013          	addi	x0,x0,0
    5cd8:	00000013          	addi	x0,x0,0
    5cdc:	00000013          	addi	x0,x0,0
    5ce0:	00000013          	addi	x0,x0,0
    5ce4:	00000013          	addi	x0,x0,0
    5ce8:	00000013          	addi	x0,x0,0
    5cec:	00000013          	addi	x0,x0,0
    5cf0:	00000013          	addi	x0,x0,0
    5cf4:	00000013          	addi	x0,x0,0
    5cf8:	00000013          	addi	x0,x0,0
    5cfc:	00000013          	addi	x0,x0,0
    5d00:	00000013          	addi	x0,x0,0
    5d04:	00000013          	addi	x0,x0,0
    5d08:	00000013          	addi	x0,x0,0
    5d0c:	00000013          	addi	x0,x0,0
    5d10:	00000013          	addi	x0,x0,0
    5d14:	00000013          	addi	x0,x0,0
    5d18:	00000013          	addi	x0,x0,0
    5d1c:	00000013          	addi	x0,x0,0
    5d20:	00000013          	addi	x0,x0,0
    5d24:	00000013          	addi	x0,x0,0
    5d28:	00000013          	addi	x0,x0,0
    5d2c:	00000013          	addi	x0,x0,0
    5d30:	00000013          	addi	x0,x0,0
    5d34:	00000013          	addi	x0,x0,0
    5d38:	00000013          	addi	x0,x0,0
    5d3c:	00000013          	addi	x0,x0,0
    5d40:	00000013          	addi	x0,x0,0
    5d44:	00000013          	addi	x0,x0,0
    5d48:	00000013          	addi	x0,x0,0
    5d4c:	00000013          	addi	x0,x0,0
    5d50:	00000013          	addi	x0,x0,0
    5d54:	00000013          	addi	x0,x0,0
    5d58:	00000013          	addi	x0,x0,0
    5d5c:	00000013          	addi	x0,x0,0
    5d60:	00000013          	addi	x0,x0,0
    5d64:	00000013          	addi	x0,x0,0
    5d68:	00000013          	addi	x0,x0,0
    5d6c:	00000013          	addi	x0,x0,0
    5d70:	00000013          	addi	x0,x0,0
    5d74:	00000013          	addi	x0,x0,0
    5d78:	00000013          	addi	x0,x0,0
    5d7c:	00000013          	addi	x0,x0,0
    5d80:	00000013          	addi	x0,x0,0
    5d84:	00000013          	addi	x0,x0,0
    5d88:	00000013          	addi	x0,x0,0
    5d8c:	00000013          	addi	x0,x0,0
    5d90:	00000013          	addi	x0,x0,0
    5d94:	00000013          	addi	x0,x0,0
    5d98:	00000013          	addi	x0,x0,0
    5d9c:	00000013          	addi	x0,x0,0
    5da0:	00000013          	addi	x0,x0,0
    5da4:	00000013          	addi	x0,x0,0
    5da8:	00000013          	addi	x0,x0,0
    5dac:	00000013          	addi	x0,x0,0
    5db0:	00000013          	addi	x0,x0,0
    5db4:	00000013          	addi	x0,x0,0
    5db8:	00000013          	addi	x0,x0,0
    5dbc:	00000013          	addi	x0,x0,0
    5dc0:	00000013          	addi	x0,x0,0
    5dc4:	00000013          	addi	x0,x0,0
    5dc8:	00000013          	addi	x0,x0,0
    5dcc:	00000013          	addi	x0,x0,0
    5dd0:	00000013          	addi	x0,x0,0
    5dd4:	00000013          	addi	x0,x0,0
    5dd8:	00000013          	addi	x0,x0,0
    5ddc:	00000013          	addi	x0,x0,0
    5de0:	00000013          	addi	x0,x0,0
    5de4:	00000013          	addi	x0,x0,0
    5de8:	00000013          	addi	x0,x0,0
    5dec:	00000013          	addi	x0,x0,0
    5df0:	00000013          	addi	x0,x0,0
    5df4:	00000013          	addi	x0,x0,0
    5df8:	00000013          	addi	x0,x0,0
    5dfc:	00000013          	addi	x0,x0,0
    5e00:	00000013          	addi	x0,x0,0
    5e04:	00000013          	addi	x0,x0,0
    5e08:	00000013          	addi	x0,x0,0
    5e0c:	00000013          	addi	x0,x0,0
    5e10:	00000013          	addi	x0,x0,0
    5e14:	00000013          	addi	x0,x0,0
    5e18:	00000013          	addi	x0,x0,0
    5e1c:	00000013          	addi	x0,x0,0
    5e20:	00000013          	addi	x0,x0,0
    5e24:	00000013          	addi	x0,x0,0
    5e28:	00000013          	addi	x0,x0,0
    5e2c:	00000013          	addi	x0,x0,0
    5e30:	00000013          	addi	x0,x0,0
    5e34:	00000013          	addi	x0,x0,0
    5e38:	00000013          	addi	x0,x0,0
    5e3c:	00000013          	addi	x0,x0,0
    5e40:	00000013          	addi	x0,x0,0
    5e44:	00000013          	addi	x0,x0,0
    5e48:	00000013          	addi	x0,x0,0
    5e4c:	00000013          	addi	x0,x0,0
    5e50:	00000013          	addi	x0,x0,0
    5e54:	00000013          	addi	x0,x0,0
    5e58:	00000013          	addi	x0,x0,0
    5e5c:	00000013          	addi	x0,x0,0
    5e60:	00000013          	addi	x0,x0,0
    5e64:	00000013          	addi	x0,x0,0
    5e68:	00000013          	addi	x0,x0,0
    5e6c:	00000013          	addi	x0,x0,0
    5e70:	00000013          	addi	x0,x0,0
    5e74:	00000013          	addi	x0,x0,0
    5e78:	00000013          	addi	x0,x0,0
    5e7c:	00000013          	addi	x0,x0,0
    5e80:	00000013          	addi	x0,x0,0
    5e84:	00000013          	addi	x0,x0,0
    5e88:	00000013          	addi	x0,x0,0
    5e8c:	00000013          	addi	x0,x0,0
    5e90:	00000013          	addi	x0,x0,0
    5e94:	00000013          	addi	x0,x0,0
    5e98:	00000013          	addi	x0,x0,0
    5e9c:	00000013          	addi	x0,x0,0
    5ea0:	00000013          	addi	x0,x0,0
    5ea4:	00000013          	addi	x0,x0,0
    5ea8:	00000013          	addi	x0,x0,0
    5eac:	00000013          	addi	x0,x0,0
    5eb0:	00000013          	addi	x0,x0,0
    5eb4:	00000013          	addi	x0,x0,0
    5eb8:	00000013          	addi	x0,x0,0
    5ebc:	00000013          	addi	x0,x0,0
    5ec0:	00000013          	addi	x0,x0,0
    5ec4:	00000013          	addi	x0,x0,0
    5ec8:	00000013          	addi	x0,x0,0
    5ecc:	00000013          	addi	x0,x0,0
    5ed0:	00000013          	addi	x0,x0,0
    5ed4:	00000013          	addi	x0,x0,0
    5ed8:	00000013          	addi	x0,x0,0
    5edc:	00000013          	addi	x0,x0,0
    5ee0:	00000013          	addi	x0,x0,0
    5ee4:	00000013          	addi	x0,x0,0
    5ee8:	00000013          	addi	x0,x0,0
    5eec:	00000013          	addi	x0,x0,0
    5ef0:	00000013          	addi	x0,x0,0
    5ef4:	00000013          	addi	x0,x0,0
    5ef8:	00000013          	addi	x0,x0,0
    5efc:	00000013          	addi	x0,x0,0
    5f00:	00000013          	addi	x0,x0,0
    5f04:	00000013          	addi	x0,x0,0
    5f08:	00000013          	addi	x0,x0,0
    5f0c:	00000013          	addi	x0,x0,0
    5f10:	00000013          	addi	x0,x0,0
    5f14:	00000013          	addi	x0,x0,0
    5f18:	00000013          	addi	x0,x0,0
    5f1c:	00000013          	addi	x0,x0,0
    5f20:	00000013          	addi	x0,x0,0
    5f24:	00000013          	addi	x0,x0,0
    5f28:	00000013          	addi	x0,x0,0
    5f2c:	00000013          	addi	x0,x0,0
    5f30:	00000013          	addi	x0,x0,0
    5f34:	00000013          	addi	x0,x0,0
    5f38:	00000013          	addi	x0,x0,0
    5f3c:	00000013          	addi	x0,x0,0
    5f40:	00000013          	addi	x0,x0,0
    5f44:	00000013          	addi	x0,x0,0
    5f48:	00000013          	addi	x0,x0,0
    5f4c:	00000013          	addi	x0,x0,0
    5f50:	00000013          	addi	x0,x0,0
    5f54:	00000013          	addi	x0,x0,0
    5f58:	00000013          	addi	x0,x0,0
    5f5c:	00000013          	addi	x0,x0,0
    5f60:	00000013          	addi	x0,x0,0
    5f64:	00000013          	addi	x0,x0,0
    5f68:	00000013          	addi	x0,x0,0
    5f6c:	00000013          	addi	x0,x0,0
    5f70:	00000013          	addi	x0,x0,0
    5f74:	00000013          	addi	x0,x0,0
    5f78:	00000013          	addi	x0,x0,0
    5f7c:	00000013          	addi	x0,x0,0
    5f80:	00000013          	addi	x0,x0,0
    5f84:	00000013          	addi	x0,x0,0
    5f88:	00000013          	addi	x0,x0,0
    5f8c:	00000013          	addi	x0,x0,0
    5f90:	00000013          	addi	x0,x0,0
    5f94:	00000013          	addi	x0,x0,0
    5f98:	00000013          	addi	x0,x0,0
    5f9c:	00000013          	addi	x0,x0,0
    5fa0:	00000013          	addi	x0,x0,0
    5fa4:	00000013          	addi	x0,x0,0
    5fa8:	00000013          	addi	x0,x0,0
    5fac:	00000013          	addi	x0,x0,0
    5fb0:	00000013          	addi	x0,x0,0
    5fb4:	00000013          	addi	x0,x0,0
    5fb8:	00000013          	addi	x0,x0,0
    5fbc:	00000013          	addi	x0,x0,0
    5fc0:	00000013          	addi	x0,x0,0
    5fc4:	00000013          	addi	x0,x0,0
    5fc8:	00000013          	addi	x0,x0,0
    5fcc:	00000013          	addi	x0,x0,0
    5fd0:	00000013          	addi	x0,x0,0
    5fd4:	00000013          	addi	x0,x0,0
    5fd8:	00000013          	addi	x0,x0,0
    5fdc:	00000013          	addi	x0,x0,0
    5fe0:	00000013          	addi	x0,x0,0
    5fe4:	00000013          	addi	x0,x0,0
    5fe8:	00000013          	addi	x0,x0,0
    5fec:	00000013          	addi	x0,x0,0
    5ff0:	00000013          	addi	x0,x0,0
    5ff4:	00000013          	addi	x0,x0,0
    5ff8:	00000013          	addi	x0,x0,0
    5ffc:	00000013          	addi	x0,x0,0

# branch forward by 2048
  .p2align 11 # align to 2048 bytes
  blt x2, x21, 4f
    6000:	015140e3          	blt	x2,x21,6800 <I_blt_cg_cp_imm_edges_branch_all+0xb94>
  addi x27, x27, -32 # shouldn't happen
    6004:	fe0d8d93          	addi	x27,x27,-32
  j 19f # shouldn't happen
    6008:	0040406f          	jal	x0,a00c <I_blt_cg_cp_imm_edges_branch_all+0x43a0>
    600c:	00000013          	addi	x0,x0,0
    6010:	00000013          	addi	x0,x0,0
    6014:	00000013          	addi	x0,x0,0
    6018:	00000013          	addi	x0,x0,0
    601c:	00000013          	addi	x0,x0,0
    6020:	00000013          	addi	x0,x0,0
    6024:	00000013          	addi	x0,x0,0
    6028:	00000013          	addi	x0,x0,0
    602c:	00000013          	addi	x0,x0,0
    6030:	00000013          	addi	x0,x0,0
    6034:	00000013          	addi	x0,x0,0
    6038:	00000013          	addi	x0,x0,0
    603c:	00000013          	addi	x0,x0,0
    6040:	00000013          	addi	x0,x0,0
    6044:	00000013          	addi	x0,x0,0
    6048:	00000013          	addi	x0,x0,0
    604c:	00000013          	addi	x0,x0,0
    6050:	00000013          	addi	x0,x0,0
    6054:	00000013          	addi	x0,x0,0
    6058:	00000013          	addi	x0,x0,0
    605c:	00000013          	addi	x0,x0,0
    6060:	00000013          	addi	x0,x0,0
    6064:	00000013          	addi	x0,x0,0
    6068:	00000013          	addi	x0,x0,0
    606c:	00000013          	addi	x0,x0,0
    6070:	00000013          	addi	x0,x0,0
    6074:	00000013          	addi	x0,x0,0
    6078:	00000013          	addi	x0,x0,0
    607c:	00000013          	addi	x0,x0,0
    6080:	00000013          	addi	x0,x0,0
    6084:	00000013          	addi	x0,x0,0
    6088:	00000013          	addi	x0,x0,0
    608c:	00000013          	addi	x0,x0,0
    6090:	00000013          	addi	x0,x0,0
    6094:	00000013          	addi	x0,x0,0
    6098:	00000013          	addi	x0,x0,0
    609c:	00000013          	addi	x0,x0,0
    60a0:	00000013          	addi	x0,x0,0
    60a4:	00000013          	addi	x0,x0,0
    60a8:	00000013          	addi	x0,x0,0
    60ac:	00000013          	addi	x0,x0,0
    60b0:	00000013          	addi	x0,x0,0
    60b4:	00000013          	addi	x0,x0,0
    60b8:	00000013          	addi	x0,x0,0
    60bc:	00000013          	addi	x0,x0,0
    60c0:	00000013          	addi	x0,x0,0
    60c4:	00000013          	addi	x0,x0,0
    60c8:	00000013          	addi	x0,x0,0
    60cc:	00000013          	addi	x0,x0,0
    60d0:	00000013          	addi	x0,x0,0
    60d4:	00000013          	addi	x0,x0,0
    60d8:	00000013          	addi	x0,x0,0
    60dc:	00000013          	addi	x0,x0,0
    60e0:	00000013          	addi	x0,x0,0
    60e4:	00000013          	addi	x0,x0,0
    60e8:	00000013          	addi	x0,x0,0
    60ec:	00000013          	addi	x0,x0,0
    60f0:	00000013          	addi	x0,x0,0
    60f4:	00000013          	addi	x0,x0,0
    60f8:	00000013          	addi	x0,x0,0
    60fc:	00000013          	addi	x0,x0,0
    6100:	00000013          	addi	x0,x0,0
    6104:	00000013          	addi	x0,x0,0
    6108:	00000013          	addi	x0,x0,0
    610c:	00000013          	addi	x0,x0,0
    6110:	00000013          	addi	x0,x0,0
    6114:	00000013          	addi	x0,x0,0
    6118:	00000013          	addi	x0,x0,0
    611c:	00000013          	addi	x0,x0,0
    6120:	00000013          	addi	x0,x0,0
    6124:	00000013          	addi	x0,x0,0
    6128:	00000013          	addi	x0,x0,0
    612c:	00000013          	addi	x0,x0,0
    6130:	00000013          	addi	x0,x0,0
    6134:	00000013          	addi	x0,x0,0
    6138:	00000013          	addi	x0,x0,0
    613c:	00000013          	addi	x0,x0,0
    6140:	00000013          	addi	x0,x0,0
    6144:	00000013          	addi	x0,x0,0
    6148:	00000013          	addi	x0,x0,0
    614c:	00000013          	addi	x0,x0,0
    6150:	00000013          	addi	x0,x0,0
    6154:	00000013          	addi	x0,x0,0
    6158:	00000013          	addi	x0,x0,0
    615c:	00000013          	addi	x0,x0,0
    6160:	00000013          	addi	x0,x0,0
    6164:	00000013          	addi	x0,x0,0
    6168:	00000013          	addi	x0,x0,0
    616c:	00000013          	addi	x0,x0,0
    6170:	00000013          	addi	x0,x0,0
    6174:	00000013          	addi	x0,x0,0
    6178:	00000013          	addi	x0,x0,0
    617c:	00000013          	addi	x0,x0,0
    6180:	00000013          	addi	x0,x0,0
    6184:	00000013          	addi	x0,x0,0
    6188:	00000013          	addi	x0,x0,0
    618c:	00000013          	addi	x0,x0,0
    6190:	00000013          	addi	x0,x0,0
    6194:	00000013          	addi	x0,x0,0
    6198:	00000013          	addi	x0,x0,0
    619c:	00000013          	addi	x0,x0,0
    61a0:	00000013          	addi	x0,x0,0
    61a4:	00000013          	addi	x0,x0,0
    61a8:	00000013          	addi	x0,x0,0
    61ac:	00000013          	addi	x0,x0,0
    61b0:	00000013          	addi	x0,x0,0
    61b4:	00000013          	addi	x0,x0,0
    61b8:	00000013          	addi	x0,x0,0
    61bc:	00000013          	addi	x0,x0,0
    61c0:	00000013          	addi	x0,x0,0
    61c4:	00000013          	addi	x0,x0,0
    61c8:	00000013          	addi	x0,x0,0
    61cc:	00000013          	addi	x0,x0,0
    61d0:	00000013          	addi	x0,x0,0
    61d4:	00000013          	addi	x0,x0,0
    61d8:	00000013          	addi	x0,x0,0
    61dc:	00000013          	addi	x0,x0,0
    61e0:	00000013          	addi	x0,x0,0
    61e4:	00000013          	addi	x0,x0,0
    61e8:	00000013          	addi	x0,x0,0
    61ec:	00000013          	addi	x0,x0,0
    61f0:	00000013          	addi	x0,x0,0
    61f4:	00000013          	addi	x0,x0,0
    61f8:	00000013          	addi	x0,x0,0
    61fc:	00000013          	addi	x0,x0,0
    6200:	00000013          	addi	x0,x0,0
    6204:	00000013          	addi	x0,x0,0
    6208:	00000013          	addi	x0,x0,0
    620c:	00000013          	addi	x0,x0,0
    6210:	00000013          	addi	x0,x0,0
    6214:	00000013          	addi	x0,x0,0
    6218:	00000013          	addi	x0,x0,0
    621c:	00000013          	addi	x0,x0,0
    6220:	00000013          	addi	x0,x0,0
    6224:	00000013          	addi	x0,x0,0
    6228:	00000013          	addi	x0,x0,0
    622c:	00000013          	addi	x0,x0,0
    6230:	00000013          	addi	x0,x0,0
    6234:	00000013          	addi	x0,x0,0
    6238:	00000013          	addi	x0,x0,0
    623c:	00000013          	addi	x0,x0,0
    6240:	00000013          	addi	x0,x0,0
    6244:	00000013          	addi	x0,x0,0
    6248:	00000013          	addi	x0,x0,0
    624c:	00000013          	addi	x0,x0,0
    6250:	00000013          	addi	x0,x0,0
    6254:	00000013          	addi	x0,x0,0
    6258:	00000013          	addi	x0,x0,0
    625c:	00000013          	addi	x0,x0,0
    6260:	00000013          	addi	x0,x0,0
    6264:	00000013          	addi	x0,x0,0
    6268:	00000013          	addi	x0,x0,0
    626c:	00000013          	addi	x0,x0,0
    6270:	00000013          	addi	x0,x0,0
    6274:	00000013          	addi	x0,x0,0
    6278:	00000013          	addi	x0,x0,0
    627c:	00000013          	addi	x0,x0,0
    6280:	00000013          	addi	x0,x0,0
    6284:	00000013          	addi	x0,x0,0
    6288:	00000013          	addi	x0,x0,0
    628c:	00000013          	addi	x0,x0,0
    6290:	00000013          	addi	x0,x0,0
    6294:	00000013          	addi	x0,x0,0
    6298:	00000013          	addi	x0,x0,0
    629c:	00000013          	addi	x0,x0,0
    62a0:	00000013          	addi	x0,x0,0
    62a4:	00000013          	addi	x0,x0,0
    62a8:	00000013          	addi	x0,x0,0
    62ac:	00000013          	addi	x0,x0,0
    62b0:	00000013          	addi	x0,x0,0
    62b4:	00000013          	addi	x0,x0,0
    62b8:	00000013          	addi	x0,x0,0
    62bc:	00000013          	addi	x0,x0,0
    62c0:	00000013          	addi	x0,x0,0
    62c4:	00000013          	addi	x0,x0,0
    62c8:	00000013          	addi	x0,x0,0
    62cc:	00000013          	addi	x0,x0,0
    62d0:	00000013          	addi	x0,x0,0
    62d4:	00000013          	addi	x0,x0,0
    62d8:	00000013          	addi	x0,x0,0
    62dc:	00000013          	addi	x0,x0,0
    62e0:	00000013          	addi	x0,x0,0
    62e4:	00000013          	addi	x0,x0,0
    62e8:	00000013          	addi	x0,x0,0
    62ec:	00000013          	addi	x0,x0,0
    62f0:	00000013          	addi	x0,x0,0
    62f4:	00000013          	addi	x0,x0,0
    62f8:	00000013          	addi	x0,x0,0
    62fc:	00000013          	addi	x0,x0,0
    6300:	00000013          	addi	x0,x0,0
    6304:	00000013          	addi	x0,x0,0
    6308:	00000013          	addi	x0,x0,0
    630c:	00000013          	addi	x0,x0,0
    6310:	00000013          	addi	x0,x0,0
    6314:	00000013          	addi	x0,x0,0
    6318:	00000013          	addi	x0,x0,0
    631c:	00000013          	addi	x0,x0,0
    6320:	00000013          	addi	x0,x0,0
    6324:	00000013          	addi	x0,x0,0
    6328:	00000013          	addi	x0,x0,0
    632c:	00000013          	addi	x0,x0,0
    6330:	00000013          	addi	x0,x0,0
    6334:	00000013          	addi	x0,x0,0
    6338:	00000013          	addi	x0,x0,0
    633c:	00000013          	addi	x0,x0,0
    6340:	00000013          	addi	x0,x0,0
    6344:	00000013          	addi	x0,x0,0
    6348:	00000013          	addi	x0,x0,0
    634c:	00000013          	addi	x0,x0,0
    6350:	00000013          	addi	x0,x0,0
    6354:	00000013          	addi	x0,x0,0
    6358:	00000013          	addi	x0,x0,0
    635c:	00000013          	addi	x0,x0,0
    6360:	00000013          	addi	x0,x0,0
    6364:	00000013          	addi	x0,x0,0
    6368:	00000013          	addi	x0,x0,0
    636c:	00000013          	addi	x0,x0,0
    6370:	00000013          	addi	x0,x0,0
    6374:	00000013          	addi	x0,x0,0
    6378:	00000013          	addi	x0,x0,0
    637c:	00000013          	addi	x0,x0,0
    6380:	00000013          	addi	x0,x0,0
    6384:	00000013          	addi	x0,x0,0
    6388:	00000013          	addi	x0,x0,0
    638c:	00000013          	addi	x0,x0,0
    6390:	00000013          	addi	x0,x0,0
    6394:	00000013          	addi	x0,x0,0
    6398:	00000013          	addi	x0,x0,0
    639c:	00000013          	addi	x0,x0,0
    63a0:	00000013          	addi	x0,x0,0
    63a4:	00000013          	addi	x0,x0,0
    63a8:	00000013          	addi	x0,x0,0
    63ac:	00000013          	addi	x0,x0,0
    63b0:	00000013          	addi	x0,x0,0
    63b4:	00000013          	addi	x0,x0,0
    63b8:	00000013          	addi	x0,x0,0
    63bc:	00000013          	addi	x0,x0,0
    63c0:	00000013          	addi	x0,x0,0
    63c4:	00000013          	addi	x0,x0,0
    63c8:	00000013          	addi	x0,x0,0
    63cc:	00000013          	addi	x0,x0,0
    63d0:	00000013          	addi	x0,x0,0
    63d4:	00000013          	addi	x0,x0,0
    63d8:	00000013          	addi	x0,x0,0
    63dc:	00000013          	addi	x0,x0,0
    63e0:	00000013          	addi	x0,x0,0
    63e4:	00000013          	addi	x0,x0,0
    63e8:	00000013          	addi	x0,x0,0
    63ec:	00000013          	addi	x0,x0,0
    63f0:	00000013          	addi	x0,x0,0
    63f4:	00000013          	addi	x0,x0,0
    63f8:	00000013          	addi	x0,x0,0
    63fc:	00000013          	addi	x0,x0,0
    6400:	00000013          	addi	x0,x0,0
    6404:	00000013          	addi	x0,x0,0
    6408:	00000013          	addi	x0,x0,0
    640c:	00000013          	addi	x0,x0,0
    6410:	00000013          	addi	x0,x0,0
    6414:	00000013          	addi	x0,x0,0
    6418:	00000013          	addi	x0,x0,0
    641c:	00000013          	addi	x0,x0,0
    6420:	00000013          	addi	x0,x0,0
    6424:	00000013          	addi	x0,x0,0
    6428:	00000013          	addi	x0,x0,0
    642c:	00000013          	addi	x0,x0,0
    6430:	00000013          	addi	x0,x0,0
    6434:	00000013          	addi	x0,x0,0
    6438:	00000013          	addi	x0,x0,0
    643c:	00000013          	addi	x0,x0,0
    6440:	00000013          	addi	x0,x0,0
    6444:	00000013          	addi	x0,x0,0
    6448:	00000013          	addi	x0,x0,0
    644c:	00000013          	addi	x0,x0,0
    6450:	00000013          	addi	x0,x0,0
    6454:	00000013          	addi	x0,x0,0
    6458:	00000013          	addi	x0,x0,0
    645c:	00000013          	addi	x0,x0,0
    6460:	00000013          	addi	x0,x0,0
    6464:	00000013          	addi	x0,x0,0
    6468:	00000013          	addi	x0,x0,0
    646c:	00000013          	addi	x0,x0,0
    6470:	00000013          	addi	x0,x0,0
    6474:	00000013          	addi	x0,x0,0
    6478:	00000013          	addi	x0,x0,0
    647c:	00000013          	addi	x0,x0,0
    6480:	00000013          	addi	x0,x0,0
    6484:	00000013          	addi	x0,x0,0
    6488:	00000013          	addi	x0,x0,0
    648c:	00000013          	addi	x0,x0,0
    6490:	00000013          	addi	x0,x0,0
    6494:	00000013          	addi	x0,x0,0
    6498:	00000013          	addi	x0,x0,0
    649c:	00000013          	addi	x0,x0,0
    64a0:	00000013          	addi	x0,x0,0
    64a4:	00000013          	addi	x0,x0,0
    64a8:	00000013          	addi	x0,x0,0
    64ac:	00000013          	addi	x0,x0,0
    64b0:	00000013          	addi	x0,x0,0
    64b4:	00000013          	addi	x0,x0,0
    64b8:	00000013          	addi	x0,x0,0
    64bc:	00000013          	addi	x0,x0,0
    64c0:	00000013          	addi	x0,x0,0
    64c4:	00000013          	addi	x0,x0,0
    64c8:	00000013          	addi	x0,x0,0
    64cc:	00000013          	addi	x0,x0,0
    64d0:	00000013          	addi	x0,x0,0
    64d4:	00000013          	addi	x0,x0,0
    64d8:	00000013          	addi	x0,x0,0
    64dc:	00000013          	addi	x0,x0,0
    64e0:	00000013          	addi	x0,x0,0
    64e4:	00000013          	addi	x0,x0,0
    64e8:	00000013          	addi	x0,x0,0
    64ec:	00000013          	addi	x0,x0,0
    64f0:	00000013          	addi	x0,x0,0
    64f4:	00000013          	addi	x0,x0,0
    64f8:	00000013          	addi	x0,x0,0
    64fc:	00000013          	addi	x0,x0,0
    6500:	00000013          	addi	x0,x0,0
    6504:	00000013          	addi	x0,x0,0
    6508:	00000013          	addi	x0,x0,0
    650c:	00000013          	addi	x0,x0,0
    6510:	00000013          	addi	x0,x0,0
    6514:	00000013          	addi	x0,x0,0
    6518:	00000013          	addi	x0,x0,0
    651c:	00000013          	addi	x0,x0,0
    6520:	00000013          	addi	x0,x0,0
    6524:	00000013          	addi	x0,x0,0
    6528:	00000013          	addi	x0,x0,0
    652c:	00000013          	addi	x0,x0,0
    6530:	00000013          	addi	x0,x0,0
    6534:	00000013          	addi	x0,x0,0
    6538:	00000013          	addi	x0,x0,0
    653c:	00000013          	addi	x0,x0,0
    6540:	00000013          	addi	x0,x0,0
    6544:	00000013          	addi	x0,x0,0
    6548:	00000013          	addi	x0,x0,0
    654c:	00000013          	addi	x0,x0,0
    6550:	00000013          	addi	x0,x0,0
    6554:	00000013          	addi	x0,x0,0
    6558:	00000013          	addi	x0,x0,0
    655c:	00000013          	addi	x0,x0,0
    6560:	00000013          	addi	x0,x0,0
    6564:	00000013          	addi	x0,x0,0
    6568:	00000013          	addi	x0,x0,0
    656c:	00000013          	addi	x0,x0,0
    6570:	00000013          	addi	x0,x0,0
    6574:	00000013          	addi	x0,x0,0
    6578:	00000013          	addi	x0,x0,0
    657c:	00000013          	addi	x0,x0,0
    6580:	00000013          	addi	x0,x0,0
    6584:	00000013          	addi	x0,x0,0
    6588:	00000013          	addi	x0,x0,0
    658c:	00000013          	addi	x0,x0,0
    6590:	00000013          	addi	x0,x0,0
    6594:	00000013          	addi	x0,x0,0
    6598:	00000013          	addi	x0,x0,0
    659c:	00000013          	addi	x0,x0,0
    65a0:	00000013          	addi	x0,x0,0
    65a4:	00000013          	addi	x0,x0,0
    65a8:	00000013          	addi	x0,x0,0
    65ac:	00000013          	addi	x0,x0,0
    65b0:	00000013          	addi	x0,x0,0
    65b4:	00000013          	addi	x0,x0,0
    65b8:	00000013          	addi	x0,x0,0
    65bc:	00000013          	addi	x0,x0,0
    65c0:	00000013          	addi	x0,x0,0
    65c4:	00000013          	addi	x0,x0,0
    65c8:	00000013          	addi	x0,x0,0
    65cc:	00000013          	addi	x0,x0,0
    65d0:	00000013          	addi	x0,x0,0
    65d4:	00000013          	addi	x0,x0,0
    65d8:	00000013          	addi	x0,x0,0
    65dc:	00000013          	addi	x0,x0,0
    65e0:	00000013          	addi	x0,x0,0
    65e4:	00000013          	addi	x0,x0,0
    65e8:	00000013          	addi	x0,x0,0
    65ec:	00000013          	addi	x0,x0,0
    65f0:	00000013          	addi	x0,x0,0
    65f4:	00000013          	addi	x0,x0,0
    65f8:	00000013          	addi	x0,x0,0
    65fc:	00000013          	addi	x0,x0,0
    6600:	00000013          	addi	x0,x0,0
    6604:	00000013          	addi	x0,x0,0
    6608:	00000013          	addi	x0,x0,0
    660c:	00000013          	addi	x0,x0,0
    6610:	00000013          	addi	x0,x0,0
    6614:	00000013          	addi	x0,x0,0
    6618:	00000013          	addi	x0,x0,0
    661c:	00000013          	addi	x0,x0,0
    6620:	00000013          	addi	x0,x0,0
    6624:	00000013          	addi	x0,x0,0
    6628:	00000013          	addi	x0,x0,0
    662c:	00000013          	addi	x0,x0,0
    6630:	00000013          	addi	x0,x0,0
    6634:	00000013          	addi	x0,x0,0
    6638:	00000013          	addi	x0,x0,0
    663c:	00000013          	addi	x0,x0,0
    6640:	00000013          	addi	x0,x0,0
    6644:	00000013          	addi	x0,x0,0
    6648:	00000013          	addi	x0,x0,0
    664c:	00000013          	addi	x0,x0,0
    6650:	00000013          	addi	x0,x0,0
    6654:	00000013          	addi	x0,x0,0
    6658:	00000013          	addi	x0,x0,0
    665c:	00000013          	addi	x0,x0,0
    6660:	00000013          	addi	x0,x0,0
    6664:	00000013          	addi	x0,x0,0
    6668:	00000013          	addi	x0,x0,0
    666c:	00000013          	addi	x0,x0,0
    6670:	00000013          	addi	x0,x0,0
    6674:	00000013          	addi	x0,x0,0
    6678:	00000013          	addi	x0,x0,0
    667c:	00000013          	addi	x0,x0,0
    6680:	00000013          	addi	x0,x0,0
    6684:	00000013          	addi	x0,x0,0
    6688:	00000013          	addi	x0,x0,0
    668c:	00000013          	addi	x0,x0,0
    6690:	00000013          	addi	x0,x0,0
    6694:	00000013          	addi	x0,x0,0
    6698:	00000013          	addi	x0,x0,0
    669c:	00000013          	addi	x0,x0,0
    66a0:	00000013          	addi	x0,x0,0
    66a4:	00000013          	addi	x0,x0,0
    66a8:	00000013          	addi	x0,x0,0
    66ac:	00000013          	addi	x0,x0,0
    66b0:	00000013          	addi	x0,x0,0
    66b4:	00000013          	addi	x0,x0,0
    66b8:	00000013          	addi	x0,x0,0
    66bc:	00000013          	addi	x0,x0,0
    66c0:	00000013          	addi	x0,x0,0
    66c4:	00000013          	addi	x0,x0,0
    66c8:	00000013          	addi	x0,x0,0
    66cc:	00000013          	addi	x0,x0,0
    66d0:	00000013          	addi	x0,x0,0
    66d4:	00000013          	addi	x0,x0,0
    66d8:	00000013          	addi	x0,x0,0
    66dc:	00000013          	addi	x0,x0,0
    66e0:	00000013          	addi	x0,x0,0
    66e4:	00000013          	addi	x0,x0,0
    66e8:	00000013          	addi	x0,x0,0
    66ec:	00000013          	addi	x0,x0,0
    66f0:	00000013          	addi	x0,x0,0
    66f4:	00000013          	addi	x0,x0,0
    66f8:	00000013          	addi	x0,x0,0
    66fc:	00000013          	addi	x0,x0,0
    6700:	00000013          	addi	x0,x0,0
    6704:	00000013          	addi	x0,x0,0
    6708:	00000013          	addi	x0,x0,0
    670c:	00000013          	addi	x0,x0,0
    6710:	00000013          	addi	x0,x0,0
    6714:	00000013          	addi	x0,x0,0
    6718:	00000013          	addi	x0,x0,0
    671c:	00000013          	addi	x0,x0,0
    6720:	00000013          	addi	x0,x0,0
    6724:	00000013          	addi	x0,x0,0
    6728:	00000013          	addi	x0,x0,0
    672c:	00000013          	addi	x0,x0,0
    6730:	00000013          	addi	x0,x0,0
    6734:	00000013          	addi	x0,x0,0
    6738:	00000013          	addi	x0,x0,0
    673c:	00000013          	addi	x0,x0,0
    6740:	00000013          	addi	x0,x0,0
    6744:	00000013          	addi	x0,x0,0
    6748:	00000013          	addi	x0,x0,0
    674c:	00000013          	addi	x0,x0,0
    6750:	00000013          	addi	x0,x0,0
    6754:	00000013          	addi	x0,x0,0
    6758:	00000013          	addi	x0,x0,0
    675c:	00000013          	addi	x0,x0,0
    6760:	00000013          	addi	x0,x0,0
    6764:	00000013          	addi	x0,x0,0
    6768:	00000013          	addi	x0,x0,0
    676c:	00000013          	addi	x0,x0,0
    6770:	00000013          	addi	x0,x0,0
    6774:	00000013          	addi	x0,x0,0
    6778:	00000013          	addi	x0,x0,0
    677c:	00000013          	addi	x0,x0,0
    6780:	00000013          	addi	x0,x0,0
    6784:	00000013          	addi	x0,x0,0
    6788:	00000013          	addi	x0,x0,0
    678c:	00000013          	addi	x0,x0,0
    6790:	00000013          	addi	x0,x0,0
    6794:	00000013          	addi	x0,x0,0
    6798:	00000013          	addi	x0,x0,0
    679c:	00000013          	addi	x0,x0,0
    67a0:	00000013          	addi	x0,x0,0
    67a4:	00000013          	addi	x0,x0,0
    67a8:	00000013          	addi	x0,x0,0
    67ac:	00000013          	addi	x0,x0,0
    67b0:	00000013          	addi	x0,x0,0
    67b4:	00000013          	addi	x0,x0,0
    67b8:	00000013          	addi	x0,x0,0
    67bc:	00000013          	addi	x0,x0,0
    67c0:	00000013          	addi	x0,x0,0
    67c4:	00000013          	addi	x0,x0,0
    67c8:	00000013          	addi	x0,x0,0
    67cc:	00000013          	addi	x0,x0,0
    67d0:	00000013          	addi	x0,x0,0
    67d4:	00000013          	addi	x0,x0,0
    67d8:	00000013          	addi	x0,x0,0
    67dc:	00000013          	addi	x0,x0,0
    67e0:	00000013          	addi	x0,x0,0
    67e4:	00000013          	addi	x0,x0,0
    67e8:	00000013          	addi	x0,x0,0
    67ec:	00000013          	addi	x0,x0,0
    67f0:	00000013          	addi	x0,x0,0
    67f4:	00000013          	addi	x0,x0,0
    67f8:	00000013          	addi	x0,x0,0
    67fc:	00000013          	addi	x0,x0,0
  .p2align 11 # align to 2048 bytes
4:
  addi x27, x27, 64 # should happen
    6800:	040d8d93          	addi	x27,x27,64
    6804:	00000013          	addi	x0,x0,0
    6808:	00000013          	addi	x0,x0,0
    680c:	00000013          	addi	x0,x0,0
    6810:	00000013          	addi	x0,x0,0
    6814:	00000013          	addi	x0,x0,0
    6818:	00000013          	addi	x0,x0,0
    681c:	00000013          	addi	x0,x0,0
    6820:	00000013          	addi	x0,x0,0
    6824:	00000013          	addi	x0,x0,0
    6828:	00000013          	addi	x0,x0,0
    682c:	00000013          	addi	x0,x0,0
    6830:	00000013          	addi	x0,x0,0
    6834:	00000013          	addi	x0,x0,0
    6838:	00000013          	addi	x0,x0,0
    683c:	00000013          	addi	x0,x0,0
    6840:	00000013          	addi	x0,x0,0
    6844:	00000013          	addi	x0,x0,0
    6848:	00000013          	addi	x0,x0,0
    684c:	00000013          	addi	x0,x0,0
    6850:	00000013          	addi	x0,x0,0
    6854:	00000013          	addi	x0,x0,0
    6858:	00000013          	addi	x0,x0,0
    685c:	00000013          	addi	x0,x0,0
    6860:	00000013          	addi	x0,x0,0
    6864:	00000013          	addi	x0,x0,0
    6868:	00000013          	addi	x0,x0,0
    686c:	00000013          	addi	x0,x0,0
    6870:	00000013          	addi	x0,x0,0
    6874:	00000013          	addi	x0,x0,0
    6878:	00000013          	addi	x0,x0,0
    687c:	00000013          	addi	x0,x0,0
    6880:	00000013          	addi	x0,x0,0
    6884:	00000013          	addi	x0,x0,0
    6888:	00000013          	addi	x0,x0,0
    688c:	00000013          	addi	x0,x0,0
    6890:	00000013          	addi	x0,x0,0
    6894:	00000013          	addi	x0,x0,0
    6898:	00000013          	addi	x0,x0,0
    689c:	00000013          	addi	x0,x0,0
    68a0:	00000013          	addi	x0,x0,0
    68a4:	00000013          	addi	x0,x0,0
    68a8:	00000013          	addi	x0,x0,0
    68ac:	00000013          	addi	x0,x0,0
    68b0:	00000013          	addi	x0,x0,0
    68b4:	00000013          	addi	x0,x0,0
    68b8:	00000013          	addi	x0,x0,0
    68bc:	00000013          	addi	x0,x0,0
    68c0:	00000013          	addi	x0,x0,0
    68c4:	00000013          	addi	x0,x0,0
    68c8:	00000013          	addi	x0,x0,0
    68cc:	00000013          	addi	x0,x0,0
    68d0:	00000013          	addi	x0,x0,0
    68d4:	00000013          	addi	x0,x0,0
    68d8:	00000013          	addi	x0,x0,0
    68dc:	00000013          	addi	x0,x0,0
    68e0:	00000013          	addi	x0,x0,0
    68e4:	00000013          	addi	x0,x0,0
    68e8:	00000013          	addi	x0,x0,0
    68ec:	00000013          	addi	x0,x0,0
    68f0:	00000013          	addi	x0,x0,0
    68f4:	00000013          	addi	x0,x0,0
    68f8:	00000013          	addi	x0,x0,0
    68fc:	00000013          	addi	x0,x0,0
    6900:	00000013          	addi	x0,x0,0
    6904:	00000013          	addi	x0,x0,0
    6908:	00000013          	addi	x0,x0,0
    690c:	00000013          	addi	x0,x0,0
    6910:	00000013          	addi	x0,x0,0
    6914:	00000013          	addi	x0,x0,0
    6918:	00000013          	addi	x0,x0,0
    691c:	00000013          	addi	x0,x0,0
    6920:	00000013          	addi	x0,x0,0
    6924:	00000013          	addi	x0,x0,0
    6928:	00000013          	addi	x0,x0,0
    692c:	00000013          	addi	x0,x0,0
    6930:	00000013          	addi	x0,x0,0
    6934:	00000013          	addi	x0,x0,0
    6938:	00000013          	addi	x0,x0,0
    693c:	00000013          	addi	x0,x0,0
    6940:	00000013          	addi	x0,x0,0
    6944:	00000013          	addi	x0,x0,0
    6948:	00000013          	addi	x0,x0,0
    694c:	00000013          	addi	x0,x0,0
    6950:	00000013          	addi	x0,x0,0
    6954:	00000013          	addi	x0,x0,0
    6958:	00000013          	addi	x0,x0,0
    695c:	00000013          	addi	x0,x0,0
    6960:	00000013          	addi	x0,x0,0
    6964:	00000013          	addi	x0,x0,0
    6968:	00000013          	addi	x0,x0,0
    696c:	00000013          	addi	x0,x0,0
    6970:	00000013          	addi	x0,x0,0
    6974:	00000013          	addi	x0,x0,0
    6978:	00000013          	addi	x0,x0,0
    697c:	00000013          	addi	x0,x0,0
    6980:	00000013          	addi	x0,x0,0
    6984:	00000013          	addi	x0,x0,0
    6988:	00000013          	addi	x0,x0,0
    698c:	00000013          	addi	x0,x0,0
    6990:	00000013          	addi	x0,x0,0
    6994:	00000013          	addi	x0,x0,0
    6998:	00000013          	addi	x0,x0,0
    699c:	00000013          	addi	x0,x0,0
    69a0:	00000013          	addi	x0,x0,0
    69a4:	00000013          	addi	x0,x0,0
    69a8:	00000013          	addi	x0,x0,0
    69ac:	00000013          	addi	x0,x0,0
    69b0:	00000013          	addi	x0,x0,0
    69b4:	00000013          	addi	x0,x0,0
    69b8:	00000013          	addi	x0,x0,0
    69bc:	00000013          	addi	x0,x0,0
    69c0:	00000013          	addi	x0,x0,0
    69c4:	00000013          	addi	x0,x0,0
    69c8:	00000013          	addi	x0,x0,0
    69cc:	00000013          	addi	x0,x0,0
    69d0:	00000013          	addi	x0,x0,0
    69d4:	00000013          	addi	x0,x0,0
    69d8:	00000013          	addi	x0,x0,0
    69dc:	00000013          	addi	x0,x0,0
    69e0:	00000013          	addi	x0,x0,0
    69e4:	00000013          	addi	x0,x0,0
    69e8:	00000013          	addi	x0,x0,0
    69ec:	00000013          	addi	x0,x0,0
    69f0:	00000013          	addi	x0,x0,0
    69f4:	00000013          	addi	x0,x0,0
    69f8:	00000013          	addi	x0,x0,0
    69fc:	00000013          	addi	x0,x0,0
    6a00:	00000013          	addi	x0,x0,0
    6a04:	00000013          	addi	x0,x0,0
    6a08:	00000013          	addi	x0,x0,0
    6a0c:	00000013          	addi	x0,x0,0
    6a10:	00000013          	addi	x0,x0,0
    6a14:	00000013          	addi	x0,x0,0
    6a18:	00000013          	addi	x0,x0,0
    6a1c:	00000013          	addi	x0,x0,0
    6a20:	00000013          	addi	x0,x0,0
    6a24:	00000013          	addi	x0,x0,0
    6a28:	00000013          	addi	x0,x0,0
    6a2c:	00000013          	addi	x0,x0,0
    6a30:	00000013          	addi	x0,x0,0
    6a34:	00000013          	addi	x0,x0,0
    6a38:	00000013          	addi	x0,x0,0
    6a3c:	00000013          	addi	x0,x0,0
    6a40:	00000013          	addi	x0,x0,0
    6a44:	00000013          	addi	x0,x0,0
    6a48:	00000013          	addi	x0,x0,0
    6a4c:	00000013          	addi	x0,x0,0
    6a50:	00000013          	addi	x0,x0,0
    6a54:	00000013          	addi	x0,x0,0
    6a58:	00000013          	addi	x0,x0,0
    6a5c:	00000013          	addi	x0,x0,0
    6a60:	00000013          	addi	x0,x0,0
    6a64:	00000013          	addi	x0,x0,0
    6a68:	00000013          	addi	x0,x0,0
    6a6c:	00000013          	addi	x0,x0,0
    6a70:	00000013          	addi	x0,x0,0
    6a74:	00000013          	addi	x0,x0,0
    6a78:	00000013          	addi	x0,x0,0
    6a7c:	00000013          	addi	x0,x0,0
    6a80:	00000013          	addi	x0,x0,0
    6a84:	00000013          	addi	x0,x0,0
    6a88:	00000013          	addi	x0,x0,0
    6a8c:	00000013          	addi	x0,x0,0
    6a90:	00000013          	addi	x0,x0,0
    6a94:	00000013          	addi	x0,x0,0
    6a98:	00000013          	addi	x0,x0,0
    6a9c:	00000013          	addi	x0,x0,0
    6aa0:	00000013          	addi	x0,x0,0
    6aa4:	00000013          	addi	x0,x0,0
    6aa8:	00000013          	addi	x0,x0,0
    6aac:	00000013          	addi	x0,x0,0
    6ab0:	00000013          	addi	x0,x0,0
    6ab4:	00000013          	addi	x0,x0,0
    6ab8:	00000013          	addi	x0,x0,0
    6abc:	00000013          	addi	x0,x0,0
    6ac0:	00000013          	addi	x0,x0,0
    6ac4:	00000013          	addi	x0,x0,0
    6ac8:	00000013          	addi	x0,x0,0
    6acc:	00000013          	addi	x0,x0,0
    6ad0:	00000013          	addi	x0,x0,0
    6ad4:	00000013          	addi	x0,x0,0
    6ad8:	00000013          	addi	x0,x0,0
    6adc:	00000013          	addi	x0,x0,0
    6ae0:	00000013          	addi	x0,x0,0
    6ae4:	00000013          	addi	x0,x0,0
    6ae8:	00000013          	addi	x0,x0,0
    6aec:	00000013          	addi	x0,x0,0
    6af0:	00000013          	addi	x0,x0,0
    6af4:	00000013          	addi	x0,x0,0
    6af8:	00000013          	addi	x0,x0,0
    6afc:	00000013          	addi	x0,x0,0
    6b00:	00000013          	addi	x0,x0,0
    6b04:	00000013          	addi	x0,x0,0
    6b08:	00000013          	addi	x0,x0,0
    6b0c:	00000013          	addi	x0,x0,0
    6b10:	00000013          	addi	x0,x0,0
    6b14:	00000013          	addi	x0,x0,0
    6b18:	00000013          	addi	x0,x0,0
    6b1c:	00000013          	addi	x0,x0,0
    6b20:	00000013          	addi	x0,x0,0
    6b24:	00000013          	addi	x0,x0,0
    6b28:	00000013          	addi	x0,x0,0
    6b2c:	00000013          	addi	x0,x0,0
    6b30:	00000013          	addi	x0,x0,0
    6b34:	00000013          	addi	x0,x0,0
    6b38:	00000013          	addi	x0,x0,0
    6b3c:	00000013          	addi	x0,x0,0
    6b40:	00000013          	addi	x0,x0,0
    6b44:	00000013          	addi	x0,x0,0
    6b48:	00000013          	addi	x0,x0,0
    6b4c:	00000013          	addi	x0,x0,0
    6b50:	00000013          	addi	x0,x0,0
    6b54:	00000013          	addi	x0,x0,0
    6b58:	00000013          	addi	x0,x0,0
    6b5c:	00000013          	addi	x0,x0,0
    6b60:	00000013          	addi	x0,x0,0
    6b64:	00000013          	addi	x0,x0,0
    6b68:	00000013          	addi	x0,x0,0
    6b6c:	00000013          	addi	x0,x0,0
    6b70:	00000013          	addi	x0,x0,0
    6b74:	00000013          	addi	x0,x0,0
    6b78:	00000013          	addi	x0,x0,0
    6b7c:	00000013          	addi	x0,x0,0
    6b80:	00000013          	addi	x0,x0,0
    6b84:	00000013          	addi	x0,x0,0
    6b88:	00000013          	addi	x0,x0,0
    6b8c:	00000013          	addi	x0,x0,0
    6b90:	00000013          	addi	x0,x0,0
    6b94:	00000013          	addi	x0,x0,0
    6b98:	00000013          	addi	x0,x0,0
    6b9c:	00000013          	addi	x0,x0,0
    6ba0:	00000013          	addi	x0,x0,0
    6ba4:	00000013          	addi	x0,x0,0
    6ba8:	00000013          	addi	x0,x0,0
    6bac:	00000013          	addi	x0,x0,0
    6bb0:	00000013          	addi	x0,x0,0
    6bb4:	00000013          	addi	x0,x0,0
    6bb8:	00000013          	addi	x0,x0,0
    6bbc:	00000013          	addi	x0,x0,0
    6bc0:	00000013          	addi	x0,x0,0
    6bc4:	00000013          	addi	x0,x0,0
    6bc8:	00000013          	addi	x0,x0,0
    6bcc:	00000013          	addi	x0,x0,0
    6bd0:	00000013          	addi	x0,x0,0
    6bd4:	00000013          	addi	x0,x0,0
    6bd8:	00000013          	addi	x0,x0,0
    6bdc:	00000013          	addi	x0,x0,0
    6be0:	00000013          	addi	x0,x0,0
    6be4:	00000013          	addi	x0,x0,0
    6be8:	00000013          	addi	x0,x0,0
    6bec:	00000013          	addi	x0,x0,0
    6bf0:	00000013          	addi	x0,x0,0
    6bf4:	00000013          	addi	x0,x0,0
    6bf8:	00000013          	addi	x0,x0,0
    6bfc:	00000013          	addi	x0,x0,0
    6c00:	00000013          	addi	x0,x0,0
    6c04:	00000013          	addi	x0,x0,0
    6c08:	00000013          	addi	x0,x0,0
    6c0c:	00000013          	addi	x0,x0,0
    6c10:	00000013          	addi	x0,x0,0
    6c14:	00000013          	addi	x0,x0,0
    6c18:	00000013          	addi	x0,x0,0
    6c1c:	00000013          	addi	x0,x0,0
    6c20:	00000013          	addi	x0,x0,0
    6c24:	00000013          	addi	x0,x0,0
    6c28:	00000013          	addi	x0,x0,0
    6c2c:	00000013          	addi	x0,x0,0
    6c30:	00000013          	addi	x0,x0,0
    6c34:	00000013          	addi	x0,x0,0
    6c38:	00000013          	addi	x0,x0,0
    6c3c:	00000013          	addi	x0,x0,0
    6c40:	00000013          	addi	x0,x0,0
    6c44:	00000013          	addi	x0,x0,0
    6c48:	00000013          	addi	x0,x0,0
    6c4c:	00000013          	addi	x0,x0,0
    6c50:	00000013          	addi	x0,x0,0
    6c54:	00000013          	addi	x0,x0,0
    6c58:	00000013          	addi	x0,x0,0
    6c5c:	00000013          	addi	x0,x0,0
    6c60:	00000013          	addi	x0,x0,0
    6c64:	00000013          	addi	x0,x0,0
    6c68:	00000013          	addi	x0,x0,0
    6c6c:	00000013          	addi	x0,x0,0
    6c70:	00000013          	addi	x0,x0,0
    6c74:	00000013          	addi	x0,x0,0
    6c78:	00000013          	addi	x0,x0,0
    6c7c:	00000013          	addi	x0,x0,0
    6c80:	00000013          	addi	x0,x0,0
    6c84:	00000013          	addi	x0,x0,0
    6c88:	00000013          	addi	x0,x0,0
    6c8c:	00000013          	addi	x0,x0,0
    6c90:	00000013          	addi	x0,x0,0
    6c94:	00000013          	addi	x0,x0,0
    6c98:	00000013          	addi	x0,x0,0
    6c9c:	00000013          	addi	x0,x0,0
    6ca0:	00000013          	addi	x0,x0,0
    6ca4:	00000013          	addi	x0,x0,0
    6ca8:	00000013          	addi	x0,x0,0
    6cac:	00000013          	addi	x0,x0,0
    6cb0:	00000013          	addi	x0,x0,0
    6cb4:	00000013          	addi	x0,x0,0
    6cb8:	00000013          	addi	x0,x0,0
    6cbc:	00000013          	addi	x0,x0,0
    6cc0:	00000013          	addi	x0,x0,0
    6cc4:	00000013          	addi	x0,x0,0
    6cc8:	00000013          	addi	x0,x0,0
    6ccc:	00000013          	addi	x0,x0,0
    6cd0:	00000013          	addi	x0,x0,0
    6cd4:	00000013          	addi	x0,x0,0
    6cd8:	00000013          	addi	x0,x0,0
    6cdc:	00000013          	addi	x0,x0,0
    6ce0:	00000013          	addi	x0,x0,0
    6ce4:	00000013          	addi	x0,x0,0
    6ce8:	00000013          	addi	x0,x0,0
    6cec:	00000013          	addi	x0,x0,0
    6cf0:	00000013          	addi	x0,x0,0
    6cf4:	00000013          	addi	x0,x0,0
    6cf8:	00000013          	addi	x0,x0,0
    6cfc:	00000013          	addi	x0,x0,0
    6d00:	00000013          	addi	x0,x0,0
    6d04:	00000013          	addi	x0,x0,0
    6d08:	00000013          	addi	x0,x0,0
    6d0c:	00000013          	addi	x0,x0,0
    6d10:	00000013          	addi	x0,x0,0
    6d14:	00000013          	addi	x0,x0,0
    6d18:	00000013          	addi	x0,x0,0
    6d1c:	00000013          	addi	x0,x0,0
    6d20:	00000013          	addi	x0,x0,0
    6d24:	00000013          	addi	x0,x0,0
    6d28:	00000013          	addi	x0,x0,0
    6d2c:	00000013          	addi	x0,x0,0
    6d30:	00000013          	addi	x0,x0,0
    6d34:	00000013          	addi	x0,x0,0
    6d38:	00000013          	addi	x0,x0,0
    6d3c:	00000013          	addi	x0,x0,0
    6d40:	00000013          	addi	x0,x0,0
    6d44:	00000013          	addi	x0,x0,0
    6d48:	00000013          	addi	x0,x0,0
    6d4c:	00000013          	addi	x0,x0,0
    6d50:	00000013          	addi	x0,x0,0
    6d54:	00000013          	addi	x0,x0,0
    6d58:	00000013          	addi	x0,x0,0
    6d5c:	00000013          	addi	x0,x0,0
    6d60:	00000013          	addi	x0,x0,0
    6d64:	00000013          	addi	x0,x0,0
    6d68:	00000013          	addi	x0,x0,0
    6d6c:	00000013          	addi	x0,x0,0
    6d70:	00000013          	addi	x0,x0,0
    6d74:	00000013          	addi	x0,x0,0
    6d78:	00000013          	addi	x0,x0,0
    6d7c:	00000013          	addi	x0,x0,0
    6d80:	00000013          	addi	x0,x0,0
    6d84:	00000013          	addi	x0,x0,0
    6d88:	00000013          	addi	x0,x0,0
    6d8c:	00000013          	addi	x0,x0,0
    6d90:	00000013          	addi	x0,x0,0
    6d94:	00000013          	addi	x0,x0,0
    6d98:	00000013          	addi	x0,x0,0
    6d9c:	00000013          	addi	x0,x0,0
    6da0:	00000013          	addi	x0,x0,0
    6da4:	00000013          	addi	x0,x0,0
    6da8:	00000013          	addi	x0,x0,0
    6dac:	00000013          	addi	x0,x0,0
    6db0:	00000013          	addi	x0,x0,0
    6db4:	00000013          	addi	x0,x0,0
    6db8:	00000013          	addi	x0,x0,0
    6dbc:	00000013          	addi	x0,x0,0
    6dc0:	00000013          	addi	x0,x0,0
    6dc4:	00000013          	addi	x0,x0,0
    6dc8:	00000013          	addi	x0,x0,0
    6dcc:	00000013          	addi	x0,x0,0
    6dd0:	00000013          	addi	x0,x0,0
    6dd4:	00000013          	addi	x0,x0,0
    6dd8:	00000013          	addi	x0,x0,0
    6ddc:	00000013          	addi	x0,x0,0
    6de0:	00000013          	addi	x0,x0,0
    6de4:	00000013          	addi	x0,x0,0
    6de8:	00000013          	addi	x0,x0,0
    6dec:	00000013          	addi	x0,x0,0
    6df0:	00000013          	addi	x0,x0,0
    6df4:	00000013          	addi	x0,x0,0
    6df8:	00000013          	addi	x0,x0,0
    6dfc:	00000013          	addi	x0,x0,0
    6e00:	00000013          	addi	x0,x0,0
    6e04:	00000013          	addi	x0,x0,0
    6e08:	00000013          	addi	x0,x0,0
    6e0c:	00000013          	addi	x0,x0,0
    6e10:	00000013          	addi	x0,x0,0
    6e14:	00000013          	addi	x0,x0,0
    6e18:	00000013          	addi	x0,x0,0
    6e1c:	00000013          	addi	x0,x0,0
    6e20:	00000013          	addi	x0,x0,0
    6e24:	00000013          	addi	x0,x0,0
    6e28:	00000013          	addi	x0,x0,0
    6e2c:	00000013          	addi	x0,x0,0
    6e30:	00000013          	addi	x0,x0,0
    6e34:	00000013          	addi	x0,x0,0
    6e38:	00000013          	addi	x0,x0,0
    6e3c:	00000013          	addi	x0,x0,0
    6e40:	00000013          	addi	x0,x0,0
    6e44:	00000013          	addi	x0,x0,0
    6e48:	00000013          	addi	x0,x0,0
    6e4c:	00000013          	addi	x0,x0,0
    6e50:	00000013          	addi	x0,x0,0
    6e54:	00000013          	addi	x0,x0,0
    6e58:	00000013          	addi	x0,x0,0
    6e5c:	00000013          	addi	x0,x0,0
    6e60:	00000013          	addi	x0,x0,0
    6e64:	00000013          	addi	x0,x0,0
    6e68:	00000013          	addi	x0,x0,0
    6e6c:	00000013          	addi	x0,x0,0
    6e70:	00000013          	addi	x0,x0,0
    6e74:	00000013          	addi	x0,x0,0
    6e78:	00000013          	addi	x0,x0,0
    6e7c:	00000013          	addi	x0,x0,0
    6e80:	00000013          	addi	x0,x0,0
    6e84:	00000013          	addi	x0,x0,0
    6e88:	00000013          	addi	x0,x0,0
    6e8c:	00000013          	addi	x0,x0,0
    6e90:	00000013          	addi	x0,x0,0
    6e94:	00000013          	addi	x0,x0,0
    6e98:	00000013          	addi	x0,x0,0
    6e9c:	00000013          	addi	x0,x0,0
    6ea0:	00000013          	addi	x0,x0,0
    6ea4:	00000013          	addi	x0,x0,0
    6ea8:	00000013          	addi	x0,x0,0
    6eac:	00000013          	addi	x0,x0,0
    6eb0:	00000013          	addi	x0,x0,0
    6eb4:	00000013          	addi	x0,x0,0
    6eb8:	00000013          	addi	x0,x0,0
    6ebc:	00000013          	addi	x0,x0,0
    6ec0:	00000013          	addi	x0,x0,0
    6ec4:	00000013          	addi	x0,x0,0
    6ec8:	00000013          	addi	x0,x0,0
    6ecc:	00000013          	addi	x0,x0,0
    6ed0:	00000013          	addi	x0,x0,0
    6ed4:	00000013          	addi	x0,x0,0
    6ed8:	00000013          	addi	x0,x0,0
    6edc:	00000013          	addi	x0,x0,0
    6ee0:	00000013          	addi	x0,x0,0
    6ee4:	00000013          	addi	x0,x0,0
    6ee8:	00000013          	addi	x0,x0,0
    6eec:	00000013          	addi	x0,x0,0
    6ef0:	00000013          	addi	x0,x0,0
    6ef4:	00000013          	addi	x0,x0,0
    6ef8:	00000013          	addi	x0,x0,0
    6efc:	00000013          	addi	x0,x0,0
    6f00:	00000013          	addi	x0,x0,0
    6f04:	00000013          	addi	x0,x0,0
    6f08:	00000013          	addi	x0,x0,0
    6f0c:	00000013          	addi	x0,x0,0
    6f10:	00000013          	addi	x0,x0,0
    6f14:	00000013          	addi	x0,x0,0
    6f18:	00000013          	addi	x0,x0,0
    6f1c:	00000013          	addi	x0,x0,0
    6f20:	00000013          	addi	x0,x0,0
    6f24:	00000013          	addi	x0,x0,0
    6f28:	00000013          	addi	x0,x0,0
    6f2c:	00000013          	addi	x0,x0,0
    6f30:	00000013          	addi	x0,x0,0
    6f34:	00000013          	addi	x0,x0,0
    6f38:	00000013          	addi	x0,x0,0
    6f3c:	00000013          	addi	x0,x0,0
    6f40:	00000013          	addi	x0,x0,0
    6f44:	00000013          	addi	x0,x0,0
    6f48:	00000013          	addi	x0,x0,0
    6f4c:	00000013          	addi	x0,x0,0
    6f50:	00000013          	addi	x0,x0,0
    6f54:	00000013          	addi	x0,x0,0
    6f58:	00000013          	addi	x0,x0,0
    6f5c:	00000013          	addi	x0,x0,0
    6f60:	00000013          	addi	x0,x0,0
    6f64:	00000013          	addi	x0,x0,0
    6f68:	00000013          	addi	x0,x0,0
    6f6c:	00000013          	addi	x0,x0,0
    6f70:	00000013          	addi	x0,x0,0
    6f74:	00000013          	addi	x0,x0,0
    6f78:	00000013          	addi	x0,x0,0
    6f7c:	00000013          	addi	x0,x0,0
    6f80:	00000013          	addi	x0,x0,0
    6f84:	00000013          	addi	x0,x0,0
    6f88:	00000013          	addi	x0,x0,0
    6f8c:	00000013          	addi	x0,x0,0
    6f90:	00000013          	addi	x0,x0,0
    6f94:	00000013          	addi	x0,x0,0
    6f98:	00000013          	addi	x0,x0,0
    6f9c:	00000013          	addi	x0,x0,0
    6fa0:	00000013          	addi	x0,x0,0
    6fa4:	00000013          	addi	x0,x0,0
    6fa8:	00000013          	addi	x0,x0,0
    6fac:	00000013          	addi	x0,x0,0
    6fb0:	00000013          	addi	x0,x0,0
    6fb4:	00000013          	addi	x0,x0,0
    6fb8:	00000013          	addi	x0,x0,0
    6fbc:	00000013          	addi	x0,x0,0
    6fc0:	00000013          	addi	x0,x0,0
    6fc4:	00000013          	addi	x0,x0,0
    6fc8:	00000013          	addi	x0,x0,0
    6fcc:	00000013          	addi	x0,x0,0
    6fd0:	00000013          	addi	x0,x0,0
    6fd4:	00000013          	addi	x0,x0,0
    6fd8:	00000013          	addi	x0,x0,0
    6fdc:	00000013          	addi	x0,x0,0
    6fe0:	00000013          	addi	x0,x0,0
    6fe4:	00000013          	addi	x0,x0,0
    6fe8:	00000013          	addi	x0,x0,0
    6fec:	00000013          	addi	x0,x0,0
    6ff0:	00000013          	addi	x0,x0,0
    6ff4:	00000013          	addi	x0,x0,0
    6ff8:	00000013          	addi	x0,x0,0
    6ffc:	00000013          	addi	x0,x0,0

# branch forward by 4092
  .p2align 12 # align to 4096 bytes
  nop # use up 4 bytes
    7000:	00000013          	addi	x0,x0,0
  blt x2, x21, 5f
    7004:	7f514ee3          	blt	x2,x21,8000 <I_blt_cg_cp_imm_edges_branch_all+0x2394>
  addi x27, x27, -128 # shouldn't happen
    7008:	f80d8d93          	addi	x27,x27,-128
  j 19f # shouldn't happen
    700c:	0000306f          	jal	x0,a00c <I_blt_cg_cp_imm_edges_branch_all+0x43a0>
    7010:	00000013          	addi	x0,x0,0
    7014:	00000013          	addi	x0,x0,0
    7018:	00000013          	addi	x0,x0,0
    701c:	00000013          	addi	x0,x0,0
    7020:	00000013          	addi	x0,x0,0
    7024:	00000013          	addi	x0,x0,0
    7028:	00000013          	addi	x0,x0,0
    702c:	00000013          	addi	x0,x0,0
    7030:	00000013          	addi	x0,x0,0
    7034:	00000013          	addi	x0,x0,0
    7038:	00000013          	addi	x0,x0,0
    703c:	00000013          	addi	x0,x0,0
    7040:	00000013          	addi	x0,x0,0
    7044:	00000013          	addi	x0,x0,0
    7048:	00000013          	addi	x0,x0,0
    704c:	00000013          	addi	x0,x0,0
    7050:	00000013          	addi	x0,x0,0
    7054:	00000013          	addi	x0,x0,0
    7058:	00000013          	addi	x0,x0,0
    705c:	00000013          	addi	x0,x0,0
    7060:	00000013          	addi	x0,x0,0
    7064:	00000013          	addi	x0,x0,0
    7068:	00000013          	addi	x0,x0,0
    706c:	00000013          	addi	x0,x0,0
    7070:	00000013          	addi	x0,x0,0
    7074:	00000013          	addi	x0,x0,0
    7078:	00000013          	addi	x0,x0,0
    707c:	00000013          	addi	x0,x0,0
    7080:	00000013          	addi	x0,x0,0
    7084:	00000013          	addi	x0,x0,0
    7088:	00000013          	addi	x0,x0,0
    708c:	00000013          	addi	x0,x0,0
    7090:	00000013          	addi	x0,x0,0
    7094:	00000013          	addi	x0,x0,0
    7098:	00000013          	addi	x0,x0,0
    709c:	00000013          	addi	x0,x0,0
    70a0:	00000013          	addi	x0,x0,0
    70a4:	00000013          	addi	x0,x0,0
    70a8:	00000013          	addi	x0,x0,0
    70ac:	00000013          	addi	x0,x0,0
    70b0:	00000013          	addi	x0,x0,0
    70b4:	00000013          	addi	x0,x0,0
    70b8:	00000013          	addi	x0,x0,0
    70bc:	00000013          	addi	x0,x0,0
    70c0:	00000013          	addi	x0,x0,0
    70c4:	00000013          	addi	x0,x0,0
    70c8:	00000013          	addi	x0,x0,0
    70cc:	00000013          	addi	x0,x0,0
    70d0:	00000013          	addi	x0,x0,0
    70d4:	00000013          	addi	x0,x0,0
    70d8:	00000013          	addi	x0,x0,0
    70dc:	00000013          	addi	x0,x0,0
    70e0:	00000013          	addi	x0,x0,0
    70e4:	00000013          	addi	x0,x0,0
    70e8:	00000013          	addi	x0,x0,0
    70ec:	00000013          	addi	x0,x0,0
    70f0:	00000013          	addi	x0,x0,0
    70f4:	00000013          	addi	x0,x0,0
    70f8:	00000013          	addi	x0,x0,0
    70fc:	00000013          	addi	x0,x0,0
    7100:	00000013          	addi	x0,x0,0
    7104:	00000013          	addi	x0,x0,0
    7108:	00000013          	addi	x0,x0,0
    710c:	00000013          	addi	x0,x0,0
    7110:	00000013          	addi	x0,x0,0
    7114:	00000013          	addi	x0,x0,0
    7118:	00000013          	addi	x0,x0,0
    711c:	00000013          	addi	x0,x0,0
    7120:	00000013          	addi	x0,x0,0
    7124:	00000013          	addi	x0,x0,0
    7128:	00000013          	addi	x0,x0,0
    712c:	00000013          	addi	x0,x0,0
    7130:	00000013          	addi	x0,x0,0
    7134:	00000013          	addi	x0,x0,0
    7138:	00000013          	addi	x0,x0,0
    713c:	00000013          	addi	x0,x0,0
    7140:	00000013          	addi	x0,x0,0
    7144:	00000013          	addi	x0,x0,0
    7148:	00000013          	addi	x0,x0,0
    714c:	00000013          	addi	x0,x0,0
    7150:	00000013          	addi	x0,x0,0
    7154:	00000013          	addi	x0,x0,0
    7158:	00000013          	addi	x0,x0,0
    715c:	00000013          	addi	x0,x0,0
    7160:	00000013          	addi	x0,x0,0
    7164:	00000013          	addi	x0,x0,0
    7168:	00000013          	addi	x0,x0,0
    716c:	00000013          	addi	x0,x0,0
    7170:	00000013          	addi	x0,x0,0
    7174:	00000013          	addi	x0,x0,0
    7178:	00000013          	addi	x0,x0,0
    717c:	00000013          	addi	x0,x0,0
    7180:	00000013          	addi	x0,x0,0
    7184:	00000013          	addi	x0,x0,0
    7188:	00000013          	addi	x0,x0,0
    718c:	00000013          	addi	x0,x0,0
    7190:	00000013          	addi	x0,x0,0
    7194:	00000013          	addi	x0,x0,0
    7198:	00000013          	addi	x0,x0,0
    719c:	00000013          	addi	x0,x0,0
    71a0:	00000013          	addi	x0,x0,0
    71a4:	00000013          	addi	x0,x0,0
    71a8:	00000013          	addi	x0,x0,0
    71ac:	00000013          	addi	x0,x0,0
    71b0:	00000013          	addi	x0,x0,0
    71b4:	00000013          	addi	x0,x0,0
    71b8:	00000013          	addi	x0,x0,0
    71bc:	00000013          	addi	x0,x0,0
    71c0:	00000013          	addi	x0,x0,0
    71c4:	00000013          	addi	x0,x0,0
    71c8:	00000013          	addi	x0,x0,0
    71cc:	00000013          	addi	x0,x0,0
    71d0:	00000013          	addi	x0,x0,0
    71d4:	00000013          	addi	x0,x0,0
    71d8:	00000013          	addi	x0,x0,0
    71dc:	00000013          	addi	x0,x0,0
    71e0:	00000013          	addi	x0,x0,0
    71e4:	00000013          	addi	x0,x0,0
    71e8:	00000013          	addi	x0,x0,0
    71ec:	00000013          	addi	x0,x0,0
    71f0:	00000013          	addi	x0,x0,0
    71f4:	00000013          	addi	x0,x0,0
    71f8:	00000013          	addi	x0,x0,0
    71fc:	00000013          	addi	x0,x0,0
    7200:	00000013          	addi	x0,x0,0
    7204:	00000013          	addi	x0,x0,0
    7208:	00000013          	addi	x0,x0,0
    720c:	00000013          	addi	x0,x0,0
    7210:	00000013          	addi	x0,x0,0
    7214:	00000013          	addi	x0,x0,0
    7218:	00000013          	addi	x0,x0,0
    721c:	00000013          	addi	x0,x0,0
    7220:	00000013          	addi	x0,x0,0
    7224:	00000013          	addi	x0,x0,0
    7228:	00000013          	addi	x0,x0,0
    722c:	00000013          	addi	x0,x0,0
    7230:	00000013          	addi	x0,x0,0
    7234:	00000013          	addi	x0,x0,0
    7238:	00000013          	addi	x0,x0,0
    723c:	00000013          	addi	x0,x0,0
    7240:	00000013          	addi	x0,x0,0
    7244:	00000013          	addi	x0,x0,0
    7248:	00000013          	addi	x0,x0,0
    724c:	00000013          	addi	x0,x0,0
    7250:	00000013          	addi	x0,x0,0
    7254:	00000013          	addi	x0,x0,0
    7258:	00000013          	addi	x0,x0,0
    725c:	00000013          	addi	x0,x0,0
    7260:	00000013          	addi	x0,x0,0
    7264:	00000013          	addi	x0,x0,0
    7268:	00000013          	addi	x0,x0,0
    726c:	00000013          	addi	x0,x0,0
    7270:	00000013          	addi	x0,x0,0
    7274:	00000013          	addi	x0,x0,0
    7278:	00000013          	addi	x0,x0,0
    727c:	00000013          	addi	x0,x0,0
    7280:	00000013          	addi	x0,x0,0
    7284:	00000013          	addi	x0,x0,0
    7288:	00000013          	addi	x0,x0,0
    728c:	00000013          	addi	x0,x0,0
    7290:	00000013          	addi	x0,x0,0
    7294:	00000013          	addi	x0,x0,0
    7298:	00000013          	addi	x0,x0,0
    729c:	00000013          	addi	x0,x0,0
    72a0:	00000013          	addi	x0,x0,0
    72a4:	00000013          	addi	x0,x0,0
    72a8:	00000013          	addi	x0,x0,0
    72ac:	00000013          	addi	x0,x0,0
    72b0:	00000013          	addi	x0,x0,0
    72b4:	00000013          	addi	x0,x0,0
    72b8:	00000013          	addi	x0,x0,0
    72bc:	00000013          	addi	x0,x0,0
    72c0:	00000013          	addi	x0,x0,0
    72c4:	00000013          	addi	x0,x0,0
    72c8:	00000013          	addi	x0,x0,0
    72cc:	00000013          	addi	x0,x0,0
    72d0:	00000013          	addi	x0,x0,0
    72d4:	00000013          	addi	x0,x0,0
    72d8:	00000013          	addi	x0,x0,0
    72dc:	00000013          	addi	x0,x0,0
    72e0:	00000013          	addi	x0,x0,0
    72e4:	00000013          	addi	x0,x0,0
    72e8:	00000013          	addi	x0,x0,0
    72ec:	00000013          	addi	x0,x0,0
    72f0:	00000013          	addi	x0,x0,0
    72f4:	00000013          	addi	x0,x0,0
    72f8:	00000013          	addi	x0,x0,0
    72fc:	00000013          	addi	x0,x0,0
    7300:	00000013          	addi	x0,x0,0
    7304:	00000013          	addi	x0,x0,0
    7308:	00000013          	addi	x0,x0,0
    730c:	00000013          	addi	x0,x0,0
    7310:	00000013          	addi	x0,x0,0
    7314:	00000013          	addi	x0,x0,0
    7318:	00000013          	addi	x0,x0,0
    731c:	00000013          	addi	x0,x0,0
    7320:	00000013          	addi	x0,x0,0
    7324:	00000013          	addi	x0,x0,0
    7328:	00000013          	addi	x0,x0,0
    732c:	00000013          	addi	x0,x0,0
    7330:	00000013          	addi	x0,x0,0
    7334:	00000013          	addi	x0,x0,0
    7338:	00000013          	addi	x0,x0,0
    733c:	00000013          	addi	x0,x0,0
    7340:	00000013          	addi	x0,x0,0
    7344:	00000013          	addi	x0,x0,0
    7348:	00000013          	addi	x0,x0,0
    734c:	00000013          	addi	x0,x0,0
    7350:	00000013          	addi	x0,x0,0
    7354:	00000013          	addi	x0,x0,0
    7358:	00000013          	addi	x0,x0,0
    735c:	00000013          	addi	x0,x0,0
    7360:	00000013          	addi	x0,x0,0
    7364:	00000013          	addi	x0,x0,0
    7368:	00000013          	addi	x0,x0,0
    736c:	00000013          	addi	x0,x0,0
    7370:	00000013          	addi	x0,x0,0
    7374:	00000013          	addi	x0,x0,0
    7378:	00000013          	addi	x0,x0,0
    737c:	00000013          	addi	x0,x0,0
    7380:	00000013          	addi	x0,x0,0
    7384:	00000013          	addi	x0,x0,0
    7388:	00000013          	addi	x0,x0,0
    738c:	00000013          	addi	x0,x0,0
    7390:	00000013          	addi	x0,x0,0
    7394:	00000013          	addi	x0,x0,0
    7398:	00000013          	addi	x0,x0,0
    739c:	00000013          	addi	x0,x0,0
    73a0:	00000013          	addi	x0,x0,0
    73a4:	00000013          	addi	x0,x0,0
    73a8:	00000013          	addi	x0,x0,0
    73ac:	00000013          	addi	x0,x0,0
    73b0:	00000013          	addi	x0,x0,0
    73b4:	00000013          	addi	x0,x0,0
    73b8:	00000013          	addi	x0,x0,0
    73bc:	00000013          	addi	x0,x0,0
    73c0:	00000013          	addi	x0,x0,0
    73c4:	00000013          	addi	x0,x0,0
    73c8:	00000013          	addi	x0,x0,0
    73cc:	00000013          	addi	x0,x0,0
    73d0:	00000013          	addi	x0,x0,0
    73d4:	00000013          	addi	x0,x0,0
    73d8:	00000013          	addi	x0,x0,0
    73dc:	00000013          	addi	x0,x0,0
    73e0:	00000013          	addi	x0,x0,0
    73e4:	00000013          	addi	x0,x0,0
    73e8:	00000013          	addi	x0,x0,0
    73ec:	00000013          	addi	x0,x0,0
    73f0:	00000013          	addi	x0,x0,0
    73f4:	00000013          	addi	x0,x0,0
    73f8:	00000013          	addi	x0,x0,0
    73fc:	00000013          	addi	x0,x0,0
    7400:	00000013          	addi	x0,x0,0
    7404:	00000013          	addi	x0,x0,0
    7408:	00000013          	addi	x0,x0,0
    740c:	00000013          	addi	x0,x0,0
    7410:	00000013          	addi	x0,x0,0
    7414:	00000013          	addi	x0,x0,0
    7418:	00000013          	addi	x0,x0,0
    741c:	00000013          	addi	x0,x0,0
    7420:	00000013          	addi	x0,x0,0
    7424:	00000013          	addi	x0,x0,0
    7428:	00000013          	addi	x0,x0,0
    742c:	00000013          	addi	x0,x0,0
    7430:	00000013          	addi	x0,x0,0
    7434:	00000013          	addi	x0,x0,0
    7438:	00000013          	addi	x0,x0,0
    743c:	00000013          	addi	x0,x0,0
    7440:	00000013          	addi	x0,x0,0
    7444:	00000013          	addi	x0,x0,0
    7448:	00000013          	addi	x0,x0,0
    744c:	00000013          	addi	x0,x0,0
    7450:	00000013          	addi	x0,x0,0
    7454:	00000013          	addi	x0,x0,0
    7458:	00000013          	addi	x0,x0,0
    745c:	00000013          	addi	x0,x0,0
    7460:	00000013          	addi	x0,x0,0
    7464:	00000013          	addi	x0,x0,0
    7468:	00000013          	addi	x0,x0,0
    746c:	00000013          	addi	x0,x0,0
    7470:	00000013          	addi	x0,x0,0
    7474:	00000013          	addi	x0,x0,0
    7478:	00000013          	addi	x0,x0,0
    747c:	00000013          	addi	x0,x0,0
    7480:	00000013          	addi	x0,x0,0
    7484:	00000013          	addi	x0,x0,0
    7488:	00000013          	addi	x0,x0,0
    748c:	00000013          	addi	x0,x0,0
    7490:	00000013          	addi	x0,x0,0
    7494:	00000013          	addi	x0,x0,0
    7498:	00000013          	addi	x0,x0,0
    749c:	00000013          	addi	x0,x0,0
    74a0:	00000013          	addi	x0,x0,0
    74a4:	00000013          	addi	x0,x0,0
    74a8:	00000013          	addi	x0,x0,0
    74ac:	00000013          	addi	x0,x0,0
    74b0:	00000013          	addi	x0,x0,0
    74b4:	00000013          	addi	x0,x0,0
    74b8:	00000013          	addi	x0,x0,0
    74bc:	00000013          	addi	x0,x0,0
    74c0:	00000013          	addi	x0,x0,0
    74c4:	00000013          	addi	x0,x0,0
    74c8:	00000013          	addi	x0,x0,0
    74cc:	00000013          	addi	x0,x0,0
    74d0:	00000013          	addi	x0,x0,0
    74d4:	00000013          	addi	x0,x0,0
    74d8:	00000013          	addi	x0,x0,0
    74dc:	00000013          	addi	x0,x0,0
    74e0:	00000013          	addi	x0,x0,0
    74e4:	00000013          	addi	x0,x0,0
    74e8:	00000013          	addi	x0,x0,0
    74ec:	00000013          	addi	x0,x0,0
    74f0:	00000013          	addi	x0,x0,0
    74f4:	00000013          	addi	x0,x0,0
    74f8:	00000013          	addi	x0,x0,0
    74fc:	00000013          	addi	x0,x0,0
    7500:	00000013          	addi	x0,x0,0
    7504:	00000013          	addi	x0,x0,0
    7508:	00000013          	addi	x0,x0,0
    750c:	00000013          	addi	x0,x0,0
    7510:	00000013          	addi	x0,x0,0
    7514:	00000013          	addi	x0,x0,0
    7518:	00000013          	addi	x0,x0,0
    751c:	00000013          	addi	x0,x0,0
    7520:	00000013          	addi	x0,x0,0
    7524:	00000013          	addi	x0,x0,0
    7528:	00000013          	addi	x0,x0,0
    752c:	00000013          	addi	x0,x0,0
    7530:	00000013          	addi	x0,x0,0
    7534:	00000013          	addi	x0,x0,0
    7538:	00000013          	addi	x0,x0,0
    753c:	00000013          	addi	x0,x0,0
    7540:	00000013          	addi	x0,x0,0
    7544:	00000013          	addi	x0,x0,0
    7548:	00000013          	addi	x0,x0,0
    754c:	00000013          	addi	x0,x0,0
    7550:	00000013          	addi	x0,x0,0
    7554:	00000013          	addi	x0,x0,0
    7558:	00000013          	addi	x0,x0,0
    755c:	00000013          	addi	x0,x0,0
    7560:	00000013          	addi	x0,x0,0
    7564:	00000013          	addi	x0,x0,0
    7568:	00000013          	addi	x0,x0,0
    756c:	00000013          	addi	x0,x0,0
    7570:	00000013          	addi	x0,x0,0
    7574:	00000013          	addi	x0,x0,0
    7578:	00000013          	addi	x0,x0,0
    757c:	00000013          	addi	x0,x0,0
    7580:	00000013          	addi	x0,x0,0
    7584:	00000013          	addi	x0,x0,0
    7588:	00000013          	addi	x0,x0,0
    758c:	00000013          	addi	x0,x0,0
    7590:	00000013          	addi	x0,x0,0
    7594:	00000013          	addi	x0,x0,0
    7598:	00000013          	addi	x0,x0,0
    759c:	00000013          	addi	x0,x0,0
    75a0:	00000013          	addi	x0,x0,0
    75a4:	00000013          	addi	x0,x0,0
    75a8:	00000013          	addi	x0,x0,0
    75ac:	00000013          	addi	x0,x0,0
    75b0:	00000013          	addi	x0,x0,0
    75b4:	00000013          	addi	x0,x0,0
    75b8:	00000013          	addi	x0,x0,0
    75bc:	00000013          	addi	x0,x0,0
    75c0:	00000013          	addi	x0,x0,0
    75c4:	00000013          	addi	x0,x0,0
    75c8:	00000013          	addi	x0,x0,0
    75cc:	00000013          	addi	x0,x0,0
    75d0:	00000013          	addi	x0,x0,0
    75d4:	00000013          	addi	x0,x0,0
    75d8:	00000013          	addi	x0,x0,0
    75dc:	00000013          	addi	x0,x0,0
    75e0:	00000013          	addi	x0,x0,0
    75e4:	00000013          	addi	x0,x0,0
    75e8:	00000013          	addi	x0,x0,0
    75ec:	00000013          	addi	x0,x0,0
    75f0:	00000013          	addi	x0,x0,0
    75f4:	00000013          	addi	x0,x0,0
    75f8:	00000013          	addi	x0,x0,0
    75fc:	00000013          	addi	x0,x0,0
    7600:	00000013          	addi	x0,x0,0
    7604:	00000013          	addi	x0,x0,0
    7608:	00000013          	addi	x0,x0,0
    760c:	00000013          	addi	x0,x0,0
    7610:	00000013          	addi	x0,x0,0
    7614:	00000013          	addi	x0,x0,0
    7618:	00000013          	addi	x0,x0,0
    761c:	00000013          	addi	x0,x0,0
    7620:	00000013          	addi	x0,x0,0
    7624:	00000013          	addi	x0,x0,0
    7628:	00000013          	addi	x0,x0,0
    762c:	00000013          	addi	x0,x0,0
    7630:	00000013          	addi	x0,x0,0
    7634:	00000013          	addi	x0,x0,0
    7638:	00000013          	addi	x0,x0,0
    763c:	00000013          	addi	x0,x0,0
    7640:	00000013          	addi	x0,x0,0
    7644:	00000013          	addi	x0,x0,0
    7648:	00000013          	addi	x0,x0,0
    764c:	00000013          	addi	x0,x0,0
    7650:	00000013          	addi	x0,x0,0
    7654:	00000013          	addi	x0,x0,0
    7658:	00000013          	addi	x0,x0,0
    765c:	00000013          	addi	x0,x0,0
    7660:	00000013          	addi	x0,x0,0
    7664:	00000013          	addi	x0,x0,0
    7668:	00000013          	addi	x0,x0,0
    766c:	00000013          	addi	x0,x0,0
    7670:	00000013          	addi	x0,x0,0
    7674:	00000013          	addi	x0,x0,0
    7678:	00000013          	addi	x0,x0,0
    767c:	00000013          	addi	x0,x0,0
    7680:	00000013          	addi	x0,x0,0
    7684:	00000013          	addi	x0,x0,0
    7688:	00000013          	addi	x0,x0,0
    768c:	00000013          	addi	x0,x0,0
    7690:	00000013          	addi	x0,x0,0
    7694:	00000013          	addi	x0,x0,0
    7698:	00000013          	addi	x0,x0,0
    769c:	00000013          	addi	x0,x0,0
    76a0:	00000013          	addi	x0,x0,0
    76a4:	00000013          	addi	x0,x0,0
    76a8:	00000013          	addi	x0,x0,0
    76ac:	00000013          	addi	x0,x0,0
    76b0:	00000013          	addi	x0,x0,0
    76b4:	00000013          	addi	x0,x0,0
    76b8:	00000013          	addi	x0,x0,0
    76bc:	00000013          	addi	x0,x0,0
    76c0:	00000013          	addi	x0,x0,0
    76c4:	00000013          	addi	x0,x0,0
    76c8:	00000013          	addi	x0,x0,0
    76cc:	00000013          	addi	x0,x0,0
    76d0:	00000013          	addi	x0,x0,0
    76d4:	00000013          	addi	x0,x0,0
    76d8:	00000013          	addi	x0,x0,0
    76dc:	00000013          	addi	x0,x0,0
    76e0:	00000013          	addi	x0,x0,0
    76e4:	00000013          	addi	x0,x0,0
    76e8:	00000013          	addi	x0,x0,0
    76ec:	00000013          	addi	x0,x0,0
    76f0:	00000013          	addi	x0,x0,0
    76f4:	00000013          	addi	x0,x0,0
    76f8:	00000013          	addi	x0,x0,0
    76fc:	00000013          	addi	x0,x0,0
    7700:	00000013          	addi	x0,x0,0
    7704:	00000013          	addi	x0,x0,0
    7708:	00000013          	addi	x0,x0,0
    770c:	00000013          	addi	x0,x0,0
    7710:	00000013          	addi	x0,x0,0
    7714:	00000013          	addi	x0,x0,0
    7718:	00000013          	addi	x0,x0,0
    771c:	00000013          	addi	x0,x0,0
    7720:	00000013          	addi	x0,x0,0
    7724:	00000013          	addi	x0,x0,0
    7728:	00000013          	addi	x0,x0,0
    772c:	00000013          	addi	x0,x0,0
    7730:	00000013          	addi	x0,x0,0
    7734:	00000013          	addi	x0,x0,0
    7738:	00000013          	addi	x0,x0,0
    773c:	00000013          	addi	x0,x0,0
    7740:	00000013          	addi	x0,x0,0
    7744:	00000013          	addi	x0,x0,0
    7748:	00000013          	addi	x0,x0,0
    774c:	00000013          	addi	x0,x0,0
    7750:	00000013          	addi	x0,x0,0
    7754:	00000013          	addi	x0,x0,0
    7758:	00000013          	addi	x0,x0,0
    775c:	00000013          	addi	x0,x0,0
    7760:	00000013          	addi	x0,x0,0
    7764:	00000013          	addi	x0,x0,0
    7768:	00000013          	addi	x0,x0,0
    776c:	00000013          	addi	x0,x0,0
    7770:	00000013          	addi	x0,x0,0
    7774:	00000013          	addi	x0,x0,0
    7778:	00000013          	addi	x0,x0,0
    777c:	00000013          	addi	x0,x0,0
    7780:	00000013          	addi	x0,x0,0
    7784:	00000013          	addi	x0,x0,0
    7788:	00000013          	addi	x0,x0,0
    778c:	00000013          	addi	x0,x0,0
    7790:	00000013          	addi	x0,x0,0
    7794:	00000013          	addi	x0,x0,0
    7798:	00000013          	addi	x0,x0,0
    779c:	00000013          	addi	x0,x0,0
    77a0:	00000013          	addi	x0,x0,0
    77a4:	00000013          	addi	x0,x0,0
    77a8:	00000013          	addi	x0,x0,0
    77ac:	00000013          	addi	x0,x0,0
    77b0:	00000013          	addi	x0,x0,0
    77b4:	00000013          	addi	x0,x0,0
    77b8:	00000013          	addi	x0,x0,0
    77bc:	00000013          	addi	x0,x0,0
    77c0:	00000013          	addi	x0,x0,0
    77c4:	00000013          	addi	x0,x0,0
    77c8:	00000013          	addi	x0,x0,0
    77cc:	00000013          	addi	x0,x0,0
    77d0:	00000013          	addi	x0,x0,0
    77d4:	00000013          	addi	x0,x0,0
    77d8:	00000013          	addi	x0,x0,0
    77dc:	00000013          	addi	x0,x0,0
    77e0:	00000013          	addi	x0,x0,0
    77e4:	00000013          	addi	x0,x0,0
    77e8:	00000013          	addi	x0,x0,0
    77ec:	00000013          	addi	x0,x0,0
    77f0:	00000013          	addi	x0,x0,0
    77f4:	00000013          	addi	x0,x0,0
    77f8:	00000013          	addi	x0,x0,0
    77fc:	00000013          	addi	x0,x0,0
    7800:	00000013          	addi	x0,x0,0
    7804:	00000013          	addi	x0,x0,0
    7808:	00000013          	addi	x0,x0,0
    780c:	00000013          	addi	x0,x0,0
    7810:	00000013          	addi	x0,x0,0
    7814:	00000013          	addi	x0,x0,0
    7818:	00000013          	addi	x0,x0,0
    781c:	00000013          	addi	x0,x0,0
    7820:	00000013          	addi	x0,x0,0
    7824:	00000013          	addi	x0,x0,0
    7828:	00000013          	addi	x0,x0,0
    782c:	00000013          	addi	x0,x0,0
    7830:	00000013          	addi	x0,x0,0
    7834:	00000013          	addi	x0,x0,0
    7838:	00000013          	addi	x0,x0,0
    783c:	00000013          	addi	x0,x0,0
    7840:	00000013          	addi	x0,x0,0
    7844:	00000013          	addi	x0,x0,0
    7848:	00000013          	addi	x0,x0,0
    784c:	00000013          	addi	x0,x0,0
    7850:	00000013          	addi	x0,x0,0
    7854:	00000013          	addi	x0,x0,0
    7858:	00000013          	addi	x0,x0,0
    785c:	00000013          	addi	x0,x0,0
    7860:	00000013          	addi	x0,x0,0
    7864:	00000013          	addi	x0,x0,0
    7868:	00000013          	addi	x0,x0,0
    786c:	00000013          	addi	x0,x0,0
    7870:	00000013          	addi	x0,x0,0
    7874:	00000013          	addi	x0,x0,0
    7878:	00000013          	addi	x0,x0,0
    787c:	00000013          	addi	x0,x0,0
    7880:	00000013          	addi	x0,x0,0
    7884:	00000013          	addi	x0,x0,0
    7888:	00000013          	addi	x0,x0,0
    788c:	00000013          	addi	x0,x0,0
    7890:	00000013          	addi	x0,x0,0
    7894:	00000013          	addi	x0,x0,0
    7898:	00000013          	addi	x0,x0,0
    789c:	00000013          	addi	x0,x0,0
    78a0:	00000013          	addi	x0,x0,0
    78a4:	00000013          	addi	x0,x0,0
    78a8:	00000013          	addi	x0,x0,0
    78ac:	00000013          	addi	x0,x0,0
    78b0:	00000013          	addi	x0,x0,0
    78b4:	00000013          	addi	x0,x0,0
    78b8:	00000013          	addi	x0,x0,0
    78bc:	00000013          	addi	x0,x0,0
    78c0:	00000013          	addi	x0,x0,0
    78c4:	00000013          	addi	x0,x0,0
    78c8:	00000013          	addi	x0,x0,0
    78cc:	00000013          	addi	x0,x0,0
    78d0:	00000013          	addi	x0,x0,0
    78d4:	00000013          	addi	x0,x0,0
    78d8:	00000013          	addi	x0,x0,0
    78dc:	00000013          	addi	x0,x0,0
    78e0:	00000013          	addi	x0,x0,0
    78e4:	00000013          	addi	x0,x0,0
    78e8:	00000013          	addi	x0,x0,0
    78ec:	00000013          	addi	x0,x0,0
    78f0:	00000013          	addi	x0,x0,0
    78f4:	00000013          	addi	x0,x0,0
    78f8:	00000013          	addi	x0,x0,0
    78fc:	00000013          	addi	x0,x0,0
    7900:	00000013          	addi	x0,x0,0
    7904:	00000013          	addi	x0,x0,0
    7908:	00000013          	addi	x0,x0,0
    790c:	00000013          	addi	x0,x0,0
    7910:	00000013          	addi	x0,x0,0
    7914:	00000013          	addi	x0,x0,0
    7918:	00000013          	addi	x0,x0,0
    791c:	00000013          	addi	x0,x0,0
    7920:	00000013          	addi	x0,x0,0
    7924:	00000013          	addi	x0,x0,0
    7928:	00000013          	addi	x0,x0,0
    792c:	00000013          	addi	x0,x0,0
    7930:	00000013          	addi	x0,x0,0
    7934:	00000013          	addi	x0,x0,0
    7938:	00000013          	addi	x0,x0,0
    793c:	00000013          	addi	x0,x0,0
    7940:	00000013          	addi	x0,x0,0
    7944:	00000013          	addi	x0,x0,0
    7948:	00000013          	addi	x0,x0,0
    794c:	00000013          	addi	x0,x0,0
    7950:	00000013          	addi	x0,x0,0
    7954:	00000013          	addi	x0,x0,0
    7958:	00000013          	addi	x0,x0,0
    795c:	00000013          	addi	x0,x0,0
    7960:	00000013          	addi	x0,x0,0
    7964:	00000013          	addi	x0,x0,0
    7968:	00000013          	addi	x0,x0,0
    796c:	00000013          	addi	x0,x0,0
    7970:	00000013          	addi	x0,x0,0
    7974:	00000013          	addi	x0,x0,0
    7978:	00000013          	addi	x0,x0,0
    797c:	00000013          	addi	x0,x0,0
    7980:	00000013          	addi	x0,x0,0
    7984:	00000013          	addi	x0,x0,0
    7988:	00000013          	addi	x0,x0,0
    798c:	00000013          	addi	x0,x0,0
    7990:	00000013          	addi	x0,x0,0
    7994:	00000013          	addi	x0,x0,0
    7998:	00000013          	addi	x0,x0,0
    799c:	00000013          	addi	x0,x0,0
    79a0:	00000013          	addi	x0,x0,0
    79a4:	00000013          	addi	x0,x0,0
    79a8:	00000013          	addi	x0,x0,0
    79ac:	00000013          	addi	x0,x0,0
    79b0:	00000013          	addi	x0,x0,0
    79b4:	00000013          	addi	x0,x0,0
    79b8:	00000013          	addi	x0,x0,0
    79bc:	00000013          	addi	x0,x0,0
    79c0:	00000013          	addi	x0,x0,0
    79c4:	00000013          	addi	x0,x0,0
    79c8:	00000013          	addi	x0,x0,0
    79cc:	00000013          	addi	x0,x0,0
    79d0:	00000013          	addi	x0,x0,0
    79d4:	00000013          	addi	x0,x0,0
    79d8:	00000013          	addi	x0,x0,0
    79dc:	00000013          	addi	x0,x0,0
    79e0:	00000013          	addi	x0,x0,0
    79e4:	00000013          	addi	x0,x0,0
    79e8:	00000013          	addi	x0,x0,0
    79ec:	00000013          	addi	x0,x0,0
    79f0:	00000013          	addi	x0,x0,0
    79f4:	00000013          	addi	x0,x0,0
    79f8:	00000013          	addi	x0,x0,0
    79fc:	00000013          	addi	x0,x0,0
    7a00:	00000013          	addi	x0,x0,0
    7a04:	00000013          	addi	x0,x0,0
    7a08:	00000013          	addi	x0,x0,0
    7a0c:	00000013          	addi	x0,x0,0
    7a10:	00000013          	addi	x0,x0,0
    7a14:	00000013          	addi	x0,x0,0
    7a18:	00000013          	addi	x0,x0,0
    7a1c:	00000013          	addi	x0,x0,0
    7a20:	00000013          	addi	x0,x0,0
    7a24:	00000013          	addi	x0,x0,0
    7a28:	00000013          	addi	x0,x0,0
    7a2c:	00000013          	addi	x0,x0,0
    7a30:	00000013          	addi	x0,x0,0
    7a34:	00000013          	addi	x0,x0,0
    7a38:	00000013          	addi	x0,x0,0
    7a3c:	00000013          	addi	x0,x0,0
    7a40:	00000013          	addi	x0,x0,0
    7a44:	00000013          	addi	x0,x0,0
    7a48:	00000013          	addi	x0,x0,0
    7a4c:	00000013          	addi	x0,x0,0
    7a50:	00000013          	addi	x0,x0,0
    7a54:	00000013          	addi	x0,x0,0
    7a58:	00000013          	addi	x0,x0,0
    7a5c:	00000013          	addi	x0,x0,0
    7a60:	00000013          	addi	x0,x0,0
    7a64:	00000013          	addi	x0,x0,0
    7a68:	00000013          	addi	x0,x0,0
    7a6c:	00000013          	addi	x0,x0,0
    7a70:	00000013          	addi	x0,x0,0
    7a74:	00000013          	addi	x0,x0,0
    7a78:	00000013          	addi	x0,x0,0
    7a7c:	00000013          	addi	x0,x0,0
    7a80:	00000013          	addi	x0,x0,0
    7a84:	00000013          	addi	x0,x0,0
    7a88:	00000013          	addi	x0,x0,0
    7a8c:	00000013          	addi	x0,x0,0
    7a90:	00000013          	addi	x0,x0,0
    7a94:	00000013          	addi	x0,x0,0
    7a98:	00000013          	addi	x0,x0,0
    7a9c:	00000013          	addi	x0,x0,0
    7aa0:	00000013          	addi	x0,x0,0
    7aa4:	00000013          	addi	x0,x0,0
    7aa8:	00000013          	addi	x0,x0,0
    7aac:	00000013          	addi	x0,x0,0
    7ab0:	00000013          	addi	x0,x0,0
    7ab4:	00000013          	addi	x0,x0,0
    7ab8:	00000013          	addi	x0,x0,0
    7abc:	00000013          	addi	x0,x0,0
    7ac0:	00000013          	addi	x0,x0,0
    7ac4:	00000013          	addi	x0,x0,0
    7ac8:	00000013          	addi	x0,x0,0
    7acc:	00000013          	addi	x0,x0,0
    7ad0:	00000013          	addi	x0,x0,0
    7ad4:	00000013          	addi	x0,x0,0
    7ad8:	00000013          	addi	x0,x0,0
    7adc:	00000013          	addi	x0,x0,0
    7ae0:	00000013          	addi	x0,x0,0
    7ae4:	00000013          	addi	x0,x0,0
    7ae8:	00000013          	addi	x0,x0,0
    7aec:	00000013          	addi	x0,x0,0
    7af0:	00000013          	addi	x0,x0,0
    7af4:	00000013          	addi	x0,x0,0
    7af8:	00000013          	addi	x0,x0,0
    7afc:	00000013          	addi	x0,x0,0
    7b00:	00000013          	addi	x0,x0,0
    7b04:	00000013          	addi	x0,x0,0
    7b08:	00000013          	addi	x0,x0,0
    7b0c:	00000013          	addi	x0,x0,0
    7b10:	00000013          	addi	x0,x0,0
    7b14:	00000013          	addi	x0,x0,0
    7b18:	00000013          	addi	x0,x0,0
    7b1c:	00000013          	addi	x0,x0,0
    7b20:	00000013          	addi	x0,x0,0
    7b24:	00000013          	addi	x0,x0,0
    7b28:	00000013          	addi	x0,x0,0
    7b2c:	00000013          	addi	x0,x0,0
    7b30:	00000013          	addi	x0,x0,0
    7b34:	00000013          	addi	x0,x0,0
    7b38:	00000013          	addi	x0,x0,0
    7b3c:	00000013          	addi	x0,x0,0
    7b40:	00000013          	addi	x0,x0,0
    7b44:	00000013          	addi	x0,x0,0
    7b48:	00000013          	addi	x0,x0,0
    7b4c:	00000013          	addi	x0,x0,0
    7b50:	00000013          	addi	x0,x0,0
    7b54:	00000013          	addi	x0,x0,0
    7b58:	00000013          	addi	x0,x0,0
    7b5c:	00000013          	addi	x0,x0,0
    7b60:	00000013          	addi	x0,x0,0
    7b64:	00000013          	addi	x0,x0,0
    7b68:	00000013          	addi	x0,x0,0
    7b6c:	00000013          	addi	x0,x0,0
    7b70:	00000013          	addi	x0,x0,0
    7b74:	00000013          	addi	x0,x0,0
    7b78:	00000013          	addi	x0,x0,0
    7b7c:	00000013          	addi	x0,x0,0
    7b80:	00000013          	addi	x0,x0,0
    7b84:	00000013          	addi	x0,x0,0
    7b88:	00000013          	addi	x0,x0,0
    7b8c:	00000013          	addi	x0,x0,0
    7b90:	00000013          	addi	x0,x0,0
    7b94:	00000013          	addi	x0,x0,0
    7b98:	00000013          	addi	x0,x0,0
    7b9c:	00000013          	addi	x0,x0,0
    7ba0:	00000013          	addi	x0,x0,0
    7ba4:	00000013          	addi	x0,x0,0
    7ba8:	00000013          	addi	x0,x0,0
    7bac:	00000013          	addi	x0,x0,0
    7bb0:	00000013          	addi	x0,x0,0
    7bb4:	00000013          	addi	x0,x0,0
    7bb8:	00000013          	addi	x0,x0,0
    7bbc:	00000013          	addi	x0,x0,0
    7bc0:	00000013          	addi	x0,x0,0
    7bc4:	00000013          	addi	x0,x0,0
    7bc8:	00000013          	addi	x0,x0,0
    7bcc:	00000013          	addi	x0,x0,0
    7bd0:	00000013          	addi	x0,x0,0
    7bd4:	00000013          	addi	x0,x0,0
    7bd8:	00000013          	addi	x0,x0,0
    7bdc:	00000013          	addi	x0,x0,0
    7be0:	00000013          	addi	x0,x0,0
    7be4:	00000013          	addi	x0,x0,0
    7be8:	00000013          	addi	x0,x0,0
    7bec:	00000013          	addi	x0,x0,0
    7bf0:	00000013          	addi	x0,x0,0
    7bf4:	00000013          	addi	x0,x0,0
    7bf8:	00000013          	addi	x0,x0,0
    7bfc:	00000013          	addi	x0,x0,0
    7c00:	00000013          	addi	x0,x0,0
    7c04:	00000013          	addi	x0,x0,0
    7c08:	00000013          	addi	x0,x0,0
    7c0c:	00000013          	addi	x0,x0,0
    7c10:	00000013          	addi	x0,x0,0
    7c14:	00000013          	addi	x0,x0,0
    7c18:	00000013          	addi	x0,x0,0
    7c1c:	00000013          	addi	x0,x0,0
    7c20:	00000013          	addi	x0,x0,0
    7c24:	00000013          	addi	x0,x0,0
    7c28:	00000013          	addi	x0,x0,0
    7c2c:	00000013          	addi	x0,x0,0
    7c30:	00000013          	addi	x0,x0,0
    7c34:	00000013          	addi	x0,x0,0
    7c38:	00000013          	addi	x0,x0,0
    7c3c:	00000013          	addi	x0,x0,0
    7c40:	00000013          	addi	x0,x0,0
    7c44:	00000013          	addi	x0,x0,0
    7c48:	00000013          	addi	x0,x0,0
    7c4c:	00000013          	addi	x0,x0,0
    7c50:	00000013          	addi	x0,x0,0
    7c54:	00000013          	addi	x0,x0,0
    7c58:	00000013          	addi	x0,x0,0
    7c5c:	00000013          	addi	x0,x0,0
    7c60:	00000013          	addi	x0,x0,0
    7c64:	00000013          	addi	x0,x0,0
    7c68:	00000013          	addi	x0,x0,0
    7c6c:	00000013          	addi	x0,x0,0
    7c70:	00000013          	addi	x0,x0,0
    7c74:	00000013          	addi	x0,x0,0
    7c78:	00000013          	addi	x0,x0,0
    7c7c:	00000013          	addi	x0,x0,0
    7c80:	00000013          	addi	x0,x0,0
    7c84:	00000013          	addi	x0,x0,0
    7c88:	00000013          	addi	x0,x0,0
    7c8c:	00000013          	addi	x0,x0,0
    7c90:	00000013          	addi	x0,x0,0
    7c94:	00000013          	addi	x0,x0,0
    7c98:	00000013          	addi	x0,x0,0
    7c9c:	00000013          	addi	x0,x0,0
    7ca0:	00000013          	addi	x0,x0,0
    7ca4:	00000013          	addi	x0,x0,0
    7ca8:	00000013          	addi	x0,x0,0
    7cac:	00000013          	addi	x0,x0,0
    7cb0:	00000013          	addi	x0,x0,0
    7cb4:	00000013          	addi	x0,x0,0
    7cb8:	00000013          	addi	x0,x0,0
    7cbc:	00000013          	addi	x0,x0,0
    7cc0:	00000013          	addi	x0,x0,0
    7cc4:	00000013          	addi	x0,x0,0
    7cc8:	00000013          	addi	x0,x0,0
    7ccc:	00000013          	addi	x0,x0,0
    7cd0:	00000013          	addi	x0,x0,0
    7cd4:	00000013          	addi	x0,x0,0
    7cd8:	00000013          	addi	x0,x0,0
    7cdc:	00000013          	addi	x0,x0,0
    7ce0:	00000013          	addi	x0,x0,0
    7ce4:	00000013          	addi	x0,x0,0
    7ce8:	00000013          	addi	x0,x0,0
    7cec:	00000013          	addi	x0,x0,0
    7cf0:	00000013          	addi	x0,x0,0
    7cf4:	00000013          	addi	x0,x0,0
    7cf8:	00000013          	addi	x0,x0,0
    7cfc:	00000013          	addi	x0,x0,0
    7d00:	00000013          	addi	x0,x0,0
    7d04:	00000013          	addi	x0,x0,0
    7d08:	00000013          	addi	x0,x0,0
    7d0c:	00000013          	addi	x0,x0,0
    7d10:	00000013          	addi	x0,x0,0
    7d14:	00000013          	addi	x0,x0,0
    7d18:	00000013          	addi	x0,x0,0
    7d1c:	00000013          	addi	x0,x0,0
    7d20:	00000013          	addi	x0,x0,0
    7d24:	00000013          	addi	x0,x0,0
    7d28:	00000013          	addi	x0,x0,0
    7d2c:	00000013          	addi	x0,x0,0
    7d30:	00000013          	addi	x0,x0,0
    7d34:	00000013          	addi	x0,x0,0
    7d38:	00000013          	addi	x0,x0,0
    7d3c:	00000013          	addi	x0,x0,0
    7d40:	00000013          	addi	x0,x0,0
    7d44:	00000013          	addi	x0,x0,0
    7d48:	00000013          	addi	x0,x0,0
    7d4c:	00000013          	addi	x0,x0,0
    7d50:	00000013          	addi	x0,x0,0
    7d54:	00000013          	addi	x0,x0,0
    7d58:	00000013          	addi	x0,x0,0
    7d5c:	00000013          	addi	x0,x0,0
    7d60:	00000013          	addi	x0,x0,0
    7d64:	00000013          	addi	x0,x0,0
    7d68:	00000013          	addi	x0,x0,0
    7d6c:	00000013          	addi	x0,x0,0
    7d70:	00000013          	addi	x0,x0,0
    7d74:	00000013          	addi	x0,x0,0
    7d78:	00000013          	addi	x0,x0,0
    7d7c:	00000013          	addi	x0,x0,0
    7d80:	00000013          	addi	x0,x0,0
    7d84:	00000013          	addi	x0,x0,0
    7d88:	00000013          	addi	x0,x0,0
    7d8c:	00000013          	addi	x0,x0,0
    7d90:	00000013          	addi	x0,x0,0
    7d94:	00000013          	addi	x0,x0,0
    7d98:	00000013          	addi	x0,x0,0
    7d9c:	00000013          	addi	x0,x0,0
    7da0:	00000013          	addi	x0,x0,0
    7da4:	00000013          	addi	x0,x0,0
    7da8:	00000013          	addi	x0,x0,0
    7dac:	00000013          	addi	x0,x0,0
    7db0:	00000013          	addi	x0,x0,0
    7db4:	00000013          	addi	x0,x0,0
    7db8:	00000013          	addi	x0,x0,0
    7dbc:	00000013          	addi	x0,x0,0
    7dc0:	00000013          	addi	x0,x0,0
    7dc4:	00000013          	addi	x0,x0,0
    7dc8:	00000013          	addi	x0,x0,0
    7dcc:	00000013          	addi	x0,x0,0
    7dd0:	00000013          	addi	x0,x0,0
    7dd4:	00000013          	addi	x0,x0,0
    7dd8:	00000013          	addi	x0,x0,0
    7ddc:	00000013          	addi	x0,x0,0
    7de0:	00000013          	addi	x0,x0,0
    7de4:	00000013          	addi	x0,x0,0
    7de8:	00000013          	addi	x0,x0,0
    7dec:	00000013          	addi	x0,x0,0
    7df0:	00000013          	addi	x0,x0,0
    7df4:	00000013          	addi	x0,x0,0
    7df8:	00000013          	addi	x0,x0,0
    7dfc:	00000013          	addi	x0,x0,0
    7e00:	00000013          	addi	x0,x0,0
    7e04:	00000013          	addi	x0,x0,0
    7e08:	00000013          	addi	x0,x0,0
    7e0c:	00000013          	addi	x0,x0,0
    7e10:	00000013          	addi	x0,x0,0
    7e14:	00000013          	addi	x0,x0,0
    7e18:	00000013          	addi	x0,x0,0
    7e1c:	00000013          	addi	x0,x0,0
    7e20:	00000013          	addi	x0,x0,0
    7e24:	00000013          	addi	x0,x0,0
    7e28:	00000013          	addi	x0,x0,0
    7e2c:	00000013          	addi	x0,x0,0
    7e30:	00000013          	addi	x0,x0,0
    7e34:	00000013          	addi	x0,x0,0
    7e38:	00000013          	addi	x0,x0,0
    7e3c:	00000013          	addi	x0,x0,0
    7e40:	00000013          	addi	x0,x0,0
    7e44:	00000013          	addi	x0,x0,0
    7e48:	00000013          	addi	x0,x0,0
    7e4c:	00000013          	addi	x0,x0,0
    7e50:	00000013          	addi	x0,x0,0
    7e54:	00000013          	addi	x0,x0,0
    7e58:	00000013          	addi	x0,x0,0
    7e5c:	00000013          	addi	x0,x0,0
    7e60:	00000013          	addi	x0,x0,0
    7e64:	00000013          	addi	x0,x0,0
    7e68:	00000013          	addi	x0,x0,0
    7e6c:	00000013          	addi	x0,x0,0
    7e70:	00000013          	addi	x0,x0,0
    7e74:	00000013          	addi	x0,x0,0
    7e78:	00000013          	addi	x0,x0,0
    7e7c:	00000013          	addi	x0,x0,0
    7e80:	00000013          	addi	x0,x0,0
    7e84:	00000013          	addi	x0,x0,0
    7e88:	00000013          	addi	x0,x0,0
    7e8c:	00000013          	addi	x0,x0,0
    7e90:	00000013          	addi	x0,x0,0
    7e94:	00000013          	addi	x0,x0,0
    7e98:	00000013          	addi	x0,x0,0
    7e9c:	00000013          	addi	x0,x0,0
    7ea0:	00000013          	addi	x0,x0,0
    7ea4:	00000013          	addi	x0,x0,0
    7ea8:	00000013          	addi	x0,x0,0
    7eac:	00000013          	addi	x0,x0,0
    7eb0:	00000013          	addi	x0,x0,0
    7eb4:	00000013          	addi	x0,x0,0
    7eb8:	00000013          	addi	x0,x0,0
    7ebc:	00000013          	addi	x0,x0,0
    7ec0:	00000013          	addi	x0,x0,0
    7ec4:	00000013          	addi	x0,x0,0
    7ec8:	00000013          	addi	x0,x0,0
    7ecc:	00000013          	addi	x0,x0,0
    7ed0:	00000013          	addi	x0,x0,0
    7ed4:	00000013          	addi	x0,x0,0
    7ed8:	00000013          	addi	x0,x0,0
    7edc:	00000013          	addi	x0,x0,0
    7ee0:	00000013          	addi	x0,x0,0
    7ee4:	00000013          	addi	x0,x0,0
    7ee8:	00000013          	addi	x0,x0,0
    7eec:	00000013          	addi	x0,x0,0
    7ef0:	00000013          	addi	x0,x0,0
    7ef4:	00000013          	addi	x0,x0,0
    7ef8:	00000013          	addi	x0,x0,0
    7efc:	00000013          	addi	x0,x0,0
    7f00:	00000013          	addi	x0,x0,0
    7f04:	00000013          	addi	x0,x0,0
    7f08:	00000013          	addi	x0,x0,0
    7f0c:	00000013          	addi	x0,x0,0
    7f10:	00000013          	addi	x0,x0,0
    7f14:	00000013          	addi	x0,x0,0
    7f18:	00000013          	addi	x0,x0,0
    7f1c:	00000013          	addi	x0,x0,0
    7f20:	00000013          	addi	x0,x0,0
    7f24:	00000013          	addi	x0,x0,0
    7f28:	00000013          	addi	x0,x0,0
    7f2c:	00000013          	addi	x0,x0,0
    7f30:	00000013          	addi	x0,x0,0
    7f34:	00000013          	addi	x0,x0,0
    7f38:	00000013          	addi	x0,x0,0
    7f3c:	00000013          	addi	x0,x0,0
    7f40:	00000013          	addi	x0,x0,0
    7f44:	00000013          	addi	x0,x0,0
    7f48:	00000013          	addi	x0,x0,0
    7f4c:	00000013          	addi	x0,x0,0
    7f50:	00000013          	addi	x0,x0,0
    7f54:	00000013          	addi	x0,x0,0
    7f58:	00000013          	addi	x0,x0,0
    7f5c:	00000013          	addi	x0,x0,0
    7f60:	00000013          	addi	x0,x0,0
    7f64:	00000013          	addi	x0,x0,0
    7f68:	00000013          	addi	x0,x0,0
    7f6c:	00000013          	addi	x0,x0,0
    7f70:	00000013          	addi	x0,x0,0
    7f74:	00000013          	addi	x0,x0,0
    7f78:	00000013          	addi	x0,x0,0
    7f7c:	00000013          	addi	x0,x0,0
    7f80:	00000013          	addi	x0,x0,0
    7f84:	00000013          	addi	x0,x0,0
    7f88:	00000013          	addi	x0,x0,0
    7f8c:	00000013          	addi	x0,x0,0
    7f90:	00000013          	addi	x0,x0,0
    7f94:	00000013          	addi	x0,x0,0
    7f98:	00000013          	addi	x0,x0,0
    7f9c:	00000013          	addi	x0,x0,0
    7fa0:	00000013          	addi	x0,x0,0
    7fa4:	00000013          	addi	x0,x0,0
    7fa8:	00000013          	addi	x0,x0,0
    7fac:	00000013          	addi	x0,x0,0
    7fb0:	00000013          	addi	x0,x0,0
    7fb4:	00000013          	addi	x0,x0,0
    7fb8:	00000013          	addi	x0,x0,0
    7fbc:	00000013          	addi	x0,x0,0
    7fc0:	00000013          	addi	x0,x0,0
    7fc4:	00000013          	addi	x0,x0,0
    7fc8:	00000013          	addi	x0,x0,0
    7fcc:	00000013          	addi	x0,x0,0
    7fd0:	00000013          	addi	x0,x0,0
    7fd4:	00000013          	addi	x0,x0,0
    7fd8:	00000013          	addi	x0,x0,0
    7fdc:	00000013          	addi	x0,x0,0
    7fe0:	00000013          	addi	x0,x0,0
    7fe4:	00000013          	addi	x0,x0,0
    7fe8:	00000013          	addi	x0,x0,0
    7fec:	00000013          	addi	x0,x0,0
    7ff0:	00000013          	addi	x0,x0,0
    7ff4:	00000013          	addi	x0,x0,0
    7ff8:	00000013          	addi	x0,x0,0
    7ffc:	00000013          	addi	x0,x0,0
  .p2align 12 # align to 4096 bytes
5:
  addi x27, x27, 256 # should happen
    8000:	100d8d93          	addi	x27,x27,256

# backward branch by -4
  j 7f # jump around to test backward branch
    8004:	0080006f          	jal	x0,800c <I_blt_cg_cp_imm_edges_branch_all+0x23a0>
6:
  j 9f # backward branch succeeded
    8008:	0180006f          	jal	x0,8020 <I_blt_cg_cp_imm_edges_branch_all+0x23b4>
  # offset too small to modify counter for checking
7:
  blt x2, x21, 6b
    800c:	ff514ee3          	blt	x2,x21,8008 <I_blt_cg_cp_imm_edges_branch_all+0x239c>
  addi x27, x27, -512 # shouldn't happen
    8010:	e00d8d93          	addi	x27,x27,-512
  j 19f # shouldn't happen
    8014:	7f90106f          	jal	x0,a00c <I_blt_cg_cp_imm_edges_branch_all+0x43a0>

# backward branch by -8
8:
  addi x27, x27, 1024 # should happen
    8018:	400d8d93          	addi	x27,x27,1024
  j 11f # backward branch succeeded
    801c:	7e50106f          	jal	x0,a000 <I_blt_cg_cp_imm_edges_branch_all+0x4394>
9:
  blt x2, x21, 8b
    8020:	ff514ce3          	blt	x2,x21,8018 <I_blt_cg_cp_imm_edges_branch_all+0x23ac>
  addi x27, x27, -2048 # shouldn't happen
    8024:	800d8d93          	addi	x27,x27,-2048
  j 19f # shouldn't happen
    8028:	7e50106f          	jal	x0,a00c <I_blt_cg_cp_imm_edges_branch_all+0x43a0>
    802c:	00000013          	addi	x0,x0,0
    8030:	00000013          	addi	x0,x0,0
    8034:	00000013          	addi	x0,x0,0
    8038:	00000013          	addi	x0,x0,0
    803c:	00000013          	addi	x0,x0,0
    8040:	00000013          	addi	x0,x0,0
    8044:	00000013          	addi	x0,x0,0
    8048:	00000013          	addi	x0,x0,0
    804c:	00000013          	addi	x0,x0,0
    8050:	00000013          	addi	x0,x0,0
    8054:	00000013          	addi	x0,x0,0
    8058:	00000013          	addi	x0,x0,0
    805c:	00000013          	addi	x0,x0,0
    8060:	00000013          	addi	x0,x0,0
    8064:	00000013          	addi	x0,x0,0
    8068:	00000013          	addi	x0,x0,0
    806c:	00000013          	addi	x0,x0,0
    8070:	00000013          	addi	x0,x0,0
    8074:	00000013          	addi	x0,x0,0
    8078:	00000013          	addi	x0,x0,0
    807c:	00000013          	addi	x0,x0,0
    8080:	00000013          	addi	x0,x0,0
    8084:	00000013          	addi	x0,x0,0
    8088:	00000013          	addi	x0,x0,0
    808c:	00000013          	addi	x0,x0,0
    8090:	00000013          	addi	x0,x0,0
    8094:	00000013          	addi	x0,x0,0
    8098:	00000013          	addi	x0,x0,0
    809c:	00000013          	addi	x0,x0,0
    80a0:	00000013          	addi	x0,x0,0
    80a4:	00000013          	addi	x0,x0,0
    80a8:	00000013          	addi	x0,x0,0
    80ac:	00000013          	addi	x0,x0,0
    80b0:	00000013          	addi	x0,x0,0
    80b4:	00000013          	addi	x0,x0,0
    80b8:	00000013          	addi	x0,x0,0
    80bc:	00000013          	addi	x0,x0,0
    80c0:	00000013          	addi	x0,x0,0
    80c4:	00000013          	addi	x0,x0,0
    80c8:	00000013          	addi	x0,x0,0
    80cc:	00000013          	addi	x0,x0,0
    80d0:	00000013          	addi	x0,x0,0
    80d4:	00000013          	addi	x0,x0,0
    80d8:	00000013          	addi	x0,x0,0
    80dc:	00000013          	addi	x0,x0,0
    80e0:	00000013          	addi	x0,x0,0
    80e4:	00000013          	addi	x0,x0,0
    80e8:	00000013          	addi	x0,x0,0
    80ec:	00000013          	addi	x0,x0,0
    80f0:	00000013          	addi	x0,x0,0
    80f4:	00000013          	addi	x0,x0,0
    80f8:	00000013          	addi	x0,x0,0
    80fc:	00000013          	addi	x0,x0,0
    8100:	00000013          	addi	x0,x0,0
    8104:	00000013          	addi	x0,x0,0
    8108:	00000013          	addi	x0,x0,0
    810c:	00000013          	addi	x0,x0,0
    8110:	00000013          	addi	x0,x0,0
    8114:	00000013          	addi	x0,x0,0
    8118:	00000013          	addi	x0,x0,0
    811c:	00000013          	addi	x0,x0,0
    8120:	00000013          	addi	x0,x0,0
    8124:	00000013          	addi	x0,x0,0
    8128:	00000013          	addi	x0,x0,0
    812c:	00000013          	addi	x0,x0,0
    8130:	00000013          	addi	x0,x0,0
    8134:	00000013          	addi	x0,x0,0
    8138:	00000013          	addi	x0,x0,0
    813c:	00000013          	addi	x0,x0,0
    8140:	00000013          	addi	x0,x0,0
    8144:	00000013          	addi	x0,x0,0
    8148:	00000013          	addi	x0,x0,0
    814c:	00000013          	addi	x0,x0,0
    8150:	00000013          	addi	x0,x0,0
    8154:	00000013          	addi	x0,x0,0
    8158:	00000013          	addi	x0,x0,0
    815c:	00000013          	addi	x0,x0,0
    8160:	00000013          	addi	x0,x0,0
    8164:	00000013          	addi	x0,x0,0
    8168:	00000013          	addi	x0,x0,0
    816c:	00000013          	addi	x0,x0,0
    8170:	00000013          	addi	x0,x0,0
    8174:	00000013          	addi	x0,x0,0
    8178:	00000013          	addi	x0,x0,0
    817c:	00000013          	addi	x0,x0,0
    8180:	00000013          	addi	x0,x0,0
    8184:	00000013          	addi	x0,x0,0
    8188:	00000013          	addi	x0,x0,0
    818c:	00000013          	addi	x0,x0,0
    8190:	00000013          	addi	x0,x0,0
    8194:	00000013          	addi	x0,x0,0
    8198:	00000013          	addi	x0,x0,0
    819c:	00000013          	addi	x0,x0,0
    81a0:	00000013          	addi	x0,x0,0
    81a4:	00000013          	addi	x0,x0,0
    81a8:	00000013          	addi	x0,x0,0
    81ac:	00000013          	addi	x0,x0,0
    81b0:	00000013          	addi	x0,x0,0
    81b4:	00000013          	addi	x0,x0,0
    81b8:	00000013          	addi	x0,x0,0
    81bc:	00000013          	addi	x0,x0,0
    81c0:	00000013          	addi	x0,x0,0
    81c4:	00000013          	addi	x0,x0,0
    81c8:	00000013          	addi	x0,x0,0
    81cc:	00000013          	addi	x0,x0,0
    81d0:	00000013          	addi	x0,x0,0
    81d4:	00000013          	addi	x0,x0,0
    81d8:	00000013          	addi	x0,x0,0
    81dc:	00000013          	addi	x0,x0,0
    81e0:	00000013          	addi	x0,x0,0
    81e4:	00000013          	addi	x0,x0,0
    81e8:	00000013          	addi	x0,x0,0
    81ec:	00000013          	addi	x0,x0,0
    81f0:	00000013          	addi	x0,x0,0
    81f4:	00000013          	addi	x0,x0,0
    81f8:	00000013          	addi	x0,x0,0
    81fc:	00000013          	addi	x0,x0,0
    8200:	00000013          	addi	x0,x0,0
    8204:	00000013          	addi	x0,x0,0
    8208:	00000013          	addi	x0,x0,0
    820c:	00000013          	addi	x0,x0,0
    8210:	00000013          	addi	x0,x0,0
    8214:	00000013          	addi	x0,x0,0
    8218:	00000013          	addi	x0,x0,0
    821c:	00000013          	addi	x0,x0,0
    8220:	00000013          	addi	x0,x0,0
    8224:	00000013          	addi	x0,x0,0
    8228:	00000013          	addi	x0,x0,0
    822c:	00000013          	addi	x0,x0,0
    8230:	00000013          	addi	x0,x0,0
    8234:	00000013          	addi	x0,x0,0
    8238:	00000013          	addi	x0,x0,0
    823c:	00000013          	addi	x0,x0,0
    8240:	00000013          	addi	x0,x0,0
    8244:	00000013          	addi	x0,x0,0
    8248:	00000013          	addi	x0,x0,0
    824c:	00000013          	addi	x0,x0,0
    8250:	00000013          	addi	x0,x0,0
    8254:	00000013          	addi	x0,x0,0
    8258:	00000013          	addi	x0,x0,0
    825c:	00000013          	addi	x0,x0,0
    8260:	00000013          	addi	x0,x0,0
    8264:	00000013          	addi	x0,x0,0
    8268:	00000013          	addi	x0,x0,0
    826c:	00000013          	addi	x0,x0,0
    8270:	00000013          	addi	x0,x0,0
    8274:	00000013          	addi	x0,x0,0
    8278:	00000013          	addi	x0,x0,0
    827c:	00000013          	addi	x0,x0,0
    8280:	00000013          	addi	x0,x0,0
    8284:	00000013          	addi	x0,x0,0
    8288:	00000013          	addi	x0,x0,0
    828c:	00000013          	addi	x0,x0,0
    8290:	00000013          	addi	x0,x0,0
    8294:	00000013          	addi	x0,x0,0
    8298:	00000013          	addi	x0,x0,0
    829c:	00000013          	addi	x0,x0,0
    82a0:	00000013          	addi	x0,x0,0
    82a4:	00000013          	addi	x0,x0,0
    82a8:	00000013          	addi	x0,x0,0
    82ac:	00000013          	addi	x0,x0,0
    82b0:	00000013          	addi	x0,x0,0
    82b4:	00000013          	addi	x0,x0,0
    82b8:	00000013          	addi	x0,x0,0
    82bc:	00000013          	addi	x0,x0,0
    82c0:	00000013          	addi	x0,x0,0
    82c4:	00000013          	addi	x0,x0,0
    82c8:	00000013          	addi	x0,x0,0
    82cc:	00000013          	addi	x0,x0,0
    82d0:	00000013          	addi	x0,x0,0
    82d4:	00000013          	addi	x0,x0,0
    82d8:	00000013          	addi	x0,x0,0
    82dc:	00000013          	addi	x0,x0,0
    82e0:	00000013          	addi	x0,x0,0
    82e4:	00000013          	addi	x0,x0,0
    82e8:	00000013          	addi	x0,x0,0
    82ec:	00000013          	addi	x0,x0,0
    82f0:	00000013          	addi	x0,x0,0
    82f4:	00000013          	addi	x0,x0,0
    82f8:	00000013          	addi	x0,x0,0
    82fc:	00000013          	addi	x0,x0,0
    8300:	00000013          	addi	x0,x0,0
    8304:	00000013          	addi	x0,x0,0
    8308:	00000013          	addi	x0,x0,0
    830c:	00000013          	addi	x0,x0,0
    8310:	00000013          	addi	x0,x0,0
    8314:	00000013          	addi	x0,x0,0
    8318:	00000013          	addi	x0,x0,0
    831c:	00000013          	addi	x0,x0,0
    8320:	00000013          	addi	x0,x0,0
    8324:	00000013          	addi	x0,x0,0
    8328:	00000013          	addi	x0,x0,0
    832c:	00000013          	addi	x0,x0,0
    8330:	00000013          	addi	x0,x0,0
    8334:	00000013          	addi	x0,x0,0
    8338:	00000013          	addi	x0,x0,0
    833c:	00000013          	addi	x0,x0,0
    8340:	00000013          	addi	x0,x0,0
    8344:	00000013          	addi	x0,x0,0
    8348:	00000013          	addi	x0,x0,0
    834c:	00000013          	addi	x0,x0,0
    8350:	00000013          	addi	x0,x0,0
    8354:	00000013          	addi	x0,x0,0
    8358:	00000013          	addi	x0,x0,0
    835c:	00000013          	addi	x0,x0,0
    8360:	00000013          	addi	x0,x0,0
    8364:	00000013          	addi	x0,x0,0
    8368:	00000013          	addi	x0,x0,0
    836c:	00000013          	addi	x0,x0,0
    8370:	00000013          	addi	x0,x0,0
    8374:	00000013          	addi	x0,x0,0
    8378:	00000013          	addi	x0,x0,0
    837c:	00000013          	addi	x0,x0,0
    8380:	00000013          	addi	x0,x0,0
    8384:	00000013          	addi	x0,x0,0
    8388:	00000013          	addi	x0,x0,0
    838c:	00000013          	addi	x0,x0,0
    8390:	00000013          	addi	x0,x0,0
    8394:	00000013          	addi	x0,x0,0
    8398:	00000013          	addi	x0,x0,0
    839c:	00000013          	addi	x0,x0,0
    83a0:	00000013          	addi	x0,x0,0
    83a4:	00000013          	addi	x0,x0,0
    83a8:	00000013          	addi	x0,x0,0
    83ac:	00000013          	addi	x0,x0,0
    83b0:	00000013          	addi	x0,x0,0
    83b4:	00000013          	addi	x0,x0,0
    83b8:	00000013          	addi	x0,x0,0
    83bc:	00000013          	addi	x0,x0,0
    83c0:	00000013          	addi	x0,x0,0
    83c4:	00000013          	addi	x0,x0,0
    83c8:	00000013          	addi	x0,x0,0
    83cc:	00000013          	addi	x0,x0,0
    83d0:	00000013          	addi	x0,x0,0
    83d4:	00000013          	addi	x0,x0,0
    83d8:	00000013          	addi	x0,x0,0
    83dc:	00000013          	addi	x0,x0,0
    83e0:	00000013          	addi	x0,x0,0
    83e4:	00000013          	addi	x0,x0,0
    83e8:	00000013          	addi	x0,x0,0
    83ec:	00000013          	addi	x0,x0,0
    83f0:	00000013          	addi	x0,x0,0
    83f4:	00000013          	addi	x0,x0,0
    83f8:	00000013          	addi	x0,x0,0
    83fc:	00000013          	addi	x0,x0,0
    8400:	00000013          	addi	x0,x0,0
    8404:	00000013          	addi	x0,x0,0
    8408:	00000013          	addi	x0,x0,0
    840c:	00000013          	addi	x0,x0,0
    8410:	00000013          	addi	x0,x0,0
    8414:	00000013          	addi	x0,x0,0
    8418:	00000013          	addi	x0,x0,0
    841c:	00000013          	addi	x0,x0,0
    8420:	00000013          	addi	x0,x0,0
    8424:	00000013          	addi	x0,x0,0
    8428:	00000013          	addi	x0,x0,0
    842c:	00000013          	addi	x0,x0,0
    8430:	00000013          	addi	x0,x0,0
    8434:	00000013          	addi	x0,x0,0
    8438:	00000013          	addi	x0,x0,0
    843c:	00000013          	addi	x0,x0,0
    8440:	00000013          	addi	x0,x0,0
    8444:	00000013          	addi	x0,x0,0
    8448:	00000013          	addi	x0,x0,0
    844c:	00000013          	addi	x0,x0,0
    8450:	00000013          	addi	x0,x0,0
    8454:	00000013          	addi	x0,x0,0
    8458:	00000013          	addi	x0,x0,0
    845c:	00000013          	addi	x0,x0,0
    8460:	00000013          	addi	x0,x0,0
    8464:	00000013          	addi	x0,x0,0
    8468:	00000013          	addi	x0,x0,0
    846c:	00000013          	addi	x0,x0,0
    8470:	00000013          	addi	x0,x0,0
    8474:	00000013          	addi	x0,x0,0
    8478:	00000013          	addi	x0,x0,0
    847c:	00000013          	addi	x0,x0,0
    8480:	00000013          	addi	x0,x0,0
    8484:	00000013          	addi	x0,x0,0
    8488:	00000013          	addi	x0,x0,0
    848c:	00000013          	addi	x0,x0,0
    8490:	00000013          	addi	x0,x0,0
    8494:	00000013          	addi	x0,x0,0
    8498:	00000013          	addi	x0,x0,0
    849c:	00000013          	addi	x0,x0,0
    84a0:	00000013          	addi	x0,x0,0
    84a4:	00000013          	addi	x0,x0,0
    84a8:	00000013          	addi	x0,x0,0
    84ac:	00000013          	addi	x0,x0,0
    84b0:	00000013          	addi	x0,x0,0
    84b4:	00000013          	addi	x0,x0,0
    84b8:	00000013          	addi	x0,x0,0
    84bc:	00000013          	addi	x0,x0,0
    84c0:	00000013          	addi	x0,x0,0
    84c4:	00000013          	addi	x0,x0,0
    84c8:	00000013          	addi	x0,x0,0
    84cc:	00000013          	addi	x0,x0,0
    84d0:	00000013          	addi	x0,x0,0
    84d4:	00000013          	addi	x0,x0,0
    84d8:	00000013          	addi	x0,x0,0
    84dc:	00000013          	addi	x0,x0,0
    84e0:	00000013          	addi	x0,x0,0
    84e4:	00000013          	addi	x0,x0,0
    84e8:	00000013          	addi	x0,x0,0
    84ec:	00000013          	addi	x0,x0,0
    84f0:	00000013          	addi	x0,x0,0
    84f4:	00000013          	addi	x0,x0,0
    84f8:	00000013          	addi	x0,x0,0
    84fc:	00000013          	addi	x0,x0,0
    8500:	00000013          	addi	x0,x0,0
    8504:	00000013          	addi	x0,x0,0
    8508:	00000013          	addi	x0,x0,0
    850c:	00000013          	addi	x0,x0,0
    8510:	00000013          	addi	x0,x0,0
    8514:	00000013          	addi	x0,x0,0
    8518:	00000013          	addi	x0,x0,0
    851c:	00000013          	addi	x0,x0,0
    8520:	00000013          	addi	x0,x0,0
    8524:	00000013          	addi	x0,x0,0
    8528:	00000013          	addi	x0,x0,0
    852c:	00000013          	addi	x0,x0,0
    8530:	00000013          	addi	x0,x0,0
    8534:	00000013          	addi	x0,x0,0
    8538:	00000013          	addi	x0,x0,0
    853c:	00000013          	addi	x0,x0,0
    8540:	00000013          	addi	x0,x0,0
    8544:	00000013          	addi	x0,x0,0
    8548:	00000013          	addi	x0,x0,0
    854c:	00000013          	addi	x0,x0,0
    8550:	00000013          	addi	x0,x0,0
    8554:	00000013          	addi	x0,x0,0
    8558:	00000013          	addi	x0,x0,0
    855c:	00000013          	addi	x0,x0,0
    8560:	00000013          	addi	x0,x0,0
    8564:	00000013          	addi	x0,x0,0
    8568:	00000013          	addi	x0,x0,0
    856c:	00000013          	addi	x0,x0,0
    8570:	00000013          	addi	x0,x0,0
    8574:	00000013          	addi	x0,x0,0
    8578:	00000013          	addi	x0,x0,0
    857c:	00000013          	addi	x0,x0,0
    8580:	00000013          	addi	x0,x0,0
    8584:	00000013          	addi	x0,x0,0
    8588:	00000013          	addi	x0,x0,0
    858c:	00000013          	addi	x0,x0,0
    8590:	00000013          	addi	x0,x0,0
    8594:	00000013          	addi	x0,x0,0
    8598:	00000013          	addi	x0,x0,0
    859c:	00000013          	addi	x0,x0,0
    85a0:	00000013          	addi	x0,x0,0
    85a4:	00000013          	addi	x0,x0,0
    85a8:	00000013          	addi	x0,x0,0
    85ac:	00000013          	addi	x0,x0,0
    85b0:	00000013          	addi	x0,x0,0
    85b4:	00000013          	addi	x0,x0,0
    85b8:	00000013          	addi	x0,x0,0
    85bc:	00000013          	addi	x0,x0,0
    85c0:	00000013          	addi	x0,x0,0
    85c4:	00000013          	addi	x0,x0,0
    85c8:	00000013          	addi	x0,x0,0
    85cc:	00000013          	addi	x0,x0,0
    85d0:	00000013          	addi	x0,x0,0
    85d4:	00000013          	addi	x0,x0,0
    85d8:	00000013          	addi	x0,x0,0
    85dc:	00000013          	addi	x0,x0,0
    85e0:	00000013          	addi	x0,x0,0
    85e4:	00000013          	addi	x0,x0,0
    85e8:	00000013          	addi	x0,x0,0
    85ec:	00000013          	addi	x0,x0,0
    85f0:	00000013          	addi	x0,x0,0
    85f4:	00000013          	addi	x0,x0,0
    85f8:	00000013          	addi	x0,x0,0
    85fc:	00000013          	addi	x0,x0,0
    8600:	00000013          	addi	x0,x0,0
    8604:	00000013          	addi	x0,x0,0
    8608:	00000013          	addi	x0,x0,0
    860c:	00000013          	addi	x0,x0,0
    8610:	00000013          	addi	x0,x0,0
    8614:	00000013          	addi	x0,x0,0
    8618:	00000013          	addi	x0,x0,0
    861c:	00000013          	addi	x0,x0,0
    8620:	00000013          	addi	x0,x0,0
    8624:	00000013          	addi	x0,x0,0
    8628:	00000013          	addi	x0,x0,0
    862c:	00000013          	addi	x0,x0,0
    8630:	00000013          	addi	x0,x0,0
    8634:	00000013          	addi	x0,x0,0
    8638:	00000013          	addi	x0,x0,0
    863c:	00000013          	addi	x0,x0,0
    8640:	00000013          	addi	x0,x0,0
    8644:	00000013          	addi	x0,x0,0
    8648:	00000013          	addi	x0,x0,0
    864c:	00000013          	addi	x0,x0,0
    8650:	00000013          	addi	x0,x0,0
    8654:	00000013          	addi	x0,x0,0
    8658:	00000013          	addi	x0,x0,0
    865c:	00000013          	addi	x0,x0,0
    8660:	00000013          	addi	x0,x0,0
    8664:	00000013          	addi	x0,x0,0
    8668:	00000013          	addi	x0,x0,0
    866c:	00000013          	addi	x0,x0,0
    8670:	00000013          	addi	x0,x0,0
    8674:	00000013          	addi	x0,x0,0
    8678:	00000013          	addi	x0,x0,0
    867c:	00000013          	addi	x0,x0,0
    8680:	00000013          	addi	x0,x0,0
    8684:	00000013          	addi	x0,x0,0
    8688:	00000013          	addi	x0,x0,0
    868c:	00000013          	addi	x0,x0,0
    8690:	00000013          	addi	x0,x0,0
    8694:	00000013          	addi	x0,x0,0
    8698:	00000013          	addi	x0,x0,0
    869c:	00000013          	addi	x0,x0,0
    86a0:	00000013          	addi	x0,x0,0
    86a4:	00000013          	addi	x0,x0,0
    86a8:	00000013          	addi	x0,x0,0
    86ac:	00000013          	addi	x0,x0,0
    86b0:	00000013          	addi	x0,x0,0
    86b4:	00000013          	addi	x0,x0,0
    86b8:	00000013          	addi	x0,x0,0
    86bc:	00000013          	addi	x0,x0,0
    86c0:	00000013          	addi	x0,x0,0
    86c4:	00000013          	addi	x0,x0,0
    86c8:	00000013          	addi	x0,x0,0
    86cc:	00000013          	addi	x0,x0,0
    86d0:	00000013          	addi	x0,x0,0
    86d4:	00000013          	addi	x0,x0,0
    86d8:	00000013          	addi	x0,x0,0
    86dc:	00000013          	addi	x0,x0,0
    86e0:	00000013          	addi	x0,x0,0
    86e4:	00000013          	addi	x0,x0,0
    86e8:	00000013          	addi	x0,x0,0
    86ec:	00000013          	addi	x0,x0,0
    86f0:	00000013          	addi	x0,x0,0
    86f4:	00000013          	addi	x0,x0,0
    86f8:	00000013          	addi	x0,x0,0
    86fc:	00000013          	addi	x0,x0,0
    8700:	00000013          	addi	x0,x0,0
    8704:	00000013          	addi	x0,x0,0
    8708:	00000013          	addi	x0,x0,0
    870c:	00000013          	addi	x0,x0,0
    8710:	00000013          	addi	x0,x0,0
    8714:	00000013          	addi	x0,x0,0
    8718:	00000013          	addi	x0,x0,0
    871c:	00000013          	addi	x0,x0,0
    8720:	00000013          	addi	x0,x0,0
    8724:	00000013          	addi	x0,x0,0
    8728:	00000013          	addi	x0,x0,0
    872c:	00000013          	addi	x0,x0,0
    8730:	00000013          	addi	x0,x0,0
    8734:	00000013          	addi	x0,x0,0
    8738:	00000013          	addi	x0,x0,0
    873c:	00000013          	addi	x0,x0,0
    8740:	00000013          	addi	x0,x0,0
    8744:	00000013          	addi	x0,x0,0
    8748:	00000013          	addi	x0,x0,0
    874c:	00000013          	addi	x0,x0,0
    8750:	00000013          	addi	x0,x0,0
    8754:	00000013          	addi	x0,x0,0
    8758:	00000013          	addi	x0,x0,0
    875c:	00000013          	addi	x0,x0,0
    8760:	00000013          	addi	x0,x0,0
    8764:	00000013          	addi	x0,x0,0
    8768:	00000013          	addi	x0,x0,0
    876c:	00000013          	addi	x0,x0,0
    8770:	00000013          	addi	x0,x0,0
    8774:	00000013          	addi	x0,x0,0
    8778:	00000013          	addi	x0,x0,0
    877c:	00000013          	addi	x0,x0,0
    8780:	00000013          	addi	x0,x0,0
    8784:	00000013          	addi	x0,x0,0
    8788:	00000013          	addi	x0,x0,0
    878c:	00000013          	addi	x0,x0,0
    8790:	00000013          	addi	x0,x0,0
    8794:	00000013          	addi	x0,x0,0
    8798:	00000013          	addi	x0,x0,0
    879c:	00000013          	addi	x0,x0,0
    87a0:	00000013          	addi	x0,x0,0
    87a4:	00000013          	addi	x0,x0,0
    87a8:	00000013          	addi	x0,x0,0
    87ac:	00000013          	addi	x0,x0,0
    87b0:	00000013          	addi	x0,x0,0
    87b4:	00000013          	addi	x0,x0,0
    87b8:	00000013          	addi	x0,x0,0
    87bc:	00000013          	addi	x0,x0,0
    87c0:	00000013          	addi	x0,x0,0
    87c4:	00000013          	addi	x0,x0,0
    87c8:	00000013          	addi	x0,x0,0
    87cc:	00000013          	addi	x0,x0,0
    87d0:	00000013          	addi	x0,x0,0
    87d4:	00000013          	addi	x0,x0,0
    87d8:	00000013          	addi	x0,x0,0
    87dc:	00000013          	addi	x0,x0,0
    87e0:	00000013          	addi	x0,x0,0
    87e4:	00000013          	addi	x0,x0,0
    87e8:	00000013          	addi	x0,x0,0
    87ec:	00000013          	addi	x0,x0,0
    87f0:	00000013          	addi	x0,x0,0
    87f4:	00000013          	addi	x0,x0,0
    87f8:	00000013          	addi	x0,x0,0
    87fc:	00000013          	addi	x0,x0,0
    8800:	00000013          	addi	x0,x0,0
    8804:	00000013          	addi	x0,x0,0
    8808:	00000013          	addi	x0,x0,0
    880c:	00000013          	addi	x0,x0,0
    8810:	00000013          	addi	x0,x0,0
    8814:	00000013          	addi	x0,x0,0
    8818:	00000013          	addi	x0,x0,0
    881c:	00000013          	addi	x0,x0,0
    8820:	00000013          	addi	x0,x0,0
    8824:	00000013          	addi	x0,x0,0
    8828:	00000013          	addi	x0,x0,0
    882c:	00000013          	addi	x0,x0,0
    8830:	00000013          	addi	x0,x0,0
    8834:	00000013          	addi	x0,x0,0
    8838:	00000013          	addi	x0,x0,0
    883c:	00000013          	addi	x0,x0,0
    8840:	00000013          	addi	x0,x0,0
    8844:	00000013          	addi	x0,x0,0
    8848:	00000013          	addi	x0,x0,0
    884c:	00000013          	addi	x0,x0,0
    8850:	00000013          	addi	x0,x0,0
    8854:	00000013          	addi	x0,x0,0
    8858:	00000013          	addi	x0,x0,0
    885c:	00000013          	addi	x0,x0,0
    8860:	00000013          	addi	x0,x0,0
    8864:	00000013          	addi	x0,x0,0
    8868:	00000013          	addi	x0,x0,0
    886c:	00000013          	addi	x0,x0,0
    8870:	00000013          	addi	x0,x0,0
    8874:	00000013          	addi	x0,x0,0
    8878:	00000013          	addi	x0,x0,0
    887c:	00000013          	addi	x0,x0,0
    8880:	00000013          	addi	x0,x0,0
    8884:	00000013          	addi	x0,x0,0
    8888:	00000013          	addi	x0,x0,0
    888c:	00000013          	addi	x0,x0,0
    8890:	00000013          	addi	x0,x0,0
    8894:	00000013          	addi	x0,x0,0
    8898:	00000013          	addi	x0,x0,0
    889c:	00000013          	addi	x0,x0,0
    88a0:	00000013          	addi	x0,x0,0
    88a4:	00000013          	addi	x0,x0,0
    88a8:	00000013          	addi	x0,x0,0
    88ac:	00000013          	addi	x0,x0,0
    88b0:	00000013          	addi	x0,x0,0
    88b4:	00000013          	addi	x0,x0,0
    88b8:	00000013          	addi	x0,x0,0
    88bc:	00000013          	addi	x0,x0,0
    88c0:	00000013          	addi	x0,x0,0
    88c4:	00000013          	addi	x0,x0,0
    88c8:	00000013          	addi	x0,x0,0
    88cc:	00000013          	addi	x0,x0,0
    88d0:	00000013          	addi	x0,x0,0
    88d4:	00000013          	addi	x0,x0,0
    88d8:	00000013          	addi	x0,x0,0
    88dc:	00000013          	addi	x0,x0,0
    88e0:	00000013          	addi	x0,x0,0
    88e4:	00000013          	addi	x0,x0,0
    88e8:	00000013          	addi	x0,x0,0
    88ec:	00000013          	addi	x0,x0,0
    88f0:	00000013          	addi	x0,x0,0
    88f4:	00000013          	addi	x0,x0,0
    88f8:	00000013          	addi	x0,x0,0
    88fc:	00000013          	addi	x0,x0,0
    8900:	00000013          	addi	x0,x0,0
    8904:	00000013          	addi	x0,x0,0
    8908:	00000013          	addi	x0,x0,0
    890c:	00000013          	addi	x0,x0,0
    8910:	00000013          	addi	x0,x0,0
    8914:	00000013          	addi	x0,x0,0
    8918:	00000013          	addi	x0,x0,0
    891c:	00000013          	addi	x0,x0,0
    8920:	00000013          	addi	x0,x0,0
    8924:	00000013          	addi	x0,x0,0
    8928:	00000013          	addi	x0,x0,0
    892c:	00000013          	addi	x0,x0,0
    8930:	00000013          	addi	x0,x0,0
    8934:	00000013          	addi	x0,x0,0
    8938:	00000013          	addi	x0,x0,0
    893c:	00000013          	addi	x0,x0,0
    8940:	00000013          	addi	x0,x0,0
    8944:	00000013          	addi	x0,x0,0
    8948:	00000013          	addi	x0,x0,0
    894c:	00000013          	addi	x0,x0,0
    8950:	00000013          	addi	x0,x0,0
    8954:	00000013          	addi	x0,x0,0
    8958:	00000013          	addi	x0,x0,0
    895c:	00000013          	addi	x0,x0,0
    8960:	00000013          	addi	x0,x0,0
    8964:	00000013          	addi	x0,x0,0
    8968:	00000013          	addi	x0,x0,0
    896c:	00000013          	addi	x0,x0,0
    8970:	00000013          	addi	x0,x0,0
    8974:	00000013          	addi	x0,x0,0
    8978:	00000013          	addi	x0,x0,0
    897c:	00000013          	addi	x0,x0,0
    8980:	00000013          	addi	x0,x0,0
    8984:	00000013          	addi	x0,x0,0
    8988:	00000013          	addi	x0,x0,0
    898c:	00000013          	addi	x0,x0,0
    8990:	00000013          	addi	x0,x0,0
    8994:	00000013          	addi	x0,x0,0
    8998:	00000013          	addi	x0,x0,0
    899c:	00000013          	addi	x0,x0,0
    89a0:	00000013          	addi	x0,x0,0
    89a4:	00000013          	addi	x0,x0,0
    89a8:	00000013          	addi	x0,x0,0
    89ac:	00000013          	addi	x0,x0,0
    89b0:	00000013          	addi	x0,x0,0
    89b4:	00000013          	addi	x0,x0,0
    89b8:	00000013          	addi	x0,x0,0
    89bc:	00000013          	addi	x0,x0,0
    89c0:	00000013          	addi	x0,x0,0
    89c4:	00000013          	addi	x0,x0,0
    89c8:	00000013          	addi	x0,x0,0
    89cc:	00000013          	addi	x0,x0,0
    89d0:	00000013          	addi	x0,x0,0
    89d4:	00000013          	addi	x0,x0,0
    89d8:	00000013          	addi	x0,x0,0
    89dc:	00000013          	addi	x0,x0,0
    89e0:	00000013          	addi	x0,x0,0
    89e4:	00000013          	addi	x0,x0,0
    89e8:	00000013          	addi	x0,x0,0
    89ec:	00000013          	addi	x0,x0,0
    89f0:	00000013          	addi	x0,x0,0
    89f4:	00000013          	addi	x0,x0,0
    89f8:	00000013          	addi	x0,x0,0
    89fc:	00000013          	addi	x0,x0,0
    8a00:	00000013          	addi	x0,x0,0
    8a04:	00000013          	addi	x0,x0,0
    8a08:	00000013          	addi	x0,x0,0
    8a0c:	00000013          	addi	x0,x0,0
    8a10:	00000013          	addi	x0,x0,0
    8a14:	00000013          	addi	x0,x0,0
    8a18:	00000013          	addi	x0,x0,0
    8a1c:	00000013          	addi	x0,x0,0
    8a20:	00000013          	addi	x0,x0,0
    8a24:	00000013          	addi	x0,x0,0
    8a28:	00000013          	addi	x0,x0,0
    8a2c:	00000013          	addi	x0,x0,0
    8a30:	00000013          	addi	x0,x0,0
    8a34:	00000013          	addi	x0,x0,0
    8a38:	00000013          	addi	x0,x0,0
    8a3c:	00000013          	addi	x0,x0,0
    8a40:	00000013          	addi	x0,x0,0
    8a44:	00000013          	addi	x0,x0,0
    8a48:	00000013          	addi	x0,x0,0
    8a4c:	00000013          	addi	x0,x0,0
    8a50:	00000013          	addi	x0,x0,0
    8a54:	00000013          	addi	x0,x0,0
    8a58:	00000013          	addi	x0,x0,0
    8a5c:	00000013          	addi	x0,x0,0
    8a60:	00000013          	addi	x0,x0,0
    8a64:	00000013          	addi	x0,x0,0
    8a68:	00000013          	addi	x0,x0,0
    8a6c:	00000013          	addi	x0,x0,0
    8a70:	00000013          	addi	x0,x0,0
    8a74:	00000013          	addi	x0,x0,0
    8a78:	00000013          	addi	x0,x0,0
    8a7c:	00000013          	addi	x0,x0,0
    8a80:	00000013          	addi	x0,x0,0
    8a84:	00000013          	addi	x0,x0,0
    8a88:	00000013          	addi	x0,x0,0
    8a8c:	00000013          	addi	x0,x0,0
    8a90:	00000013          	addi	x0,x0,0
    8a94:	00000013          	addi	x0,x0,0
    8a98:	00000013          	addi	x0,x0,0
    8a9c:	00000013          	addi	x0,x0,0
    8aa0:	00000013          	addi	x0,x0,0
    8aa4:	00000013          	addi	x0,x0,0
    8aa8:	00000013          	addi	x0,x0,0
    8aac:	00000013          	addi	x0,x0,0
    8ab0:	00000013          	addi	x0,x0,0
    8ab4:	00000013          	addi	x0,x0,0
    8ab8:	00000013          	addi	x0,x0,0
    8abc:	00000013          	addi	x0,x0,0
    8ac0:	00000013          	addi	x0,x0,0
    8ac4:	00000013          	addi	x0,x0,0
    8ac8:	00000013          	addi	x0,x0,0
    8acc:	00000013          	addi	x0,x0,0
    8ad0:	00000013          	addi	x0,x0,0
    8ad4:	00000013          	addi	x0,x0,0
    8ad8:	00000013          	addi	x0,x0,0
    8adc:	00000013          	addi	x0,x0,0
    8ae0:	00000013          	addi	x0,x0,0
    8ae4:	00000013          	addi	x0,x0,0
    8ae8:	00000013          	addi	x0,x0,0
    8aec:	00000013          	addi	x0,x0,0
    8af0:	00000013          	addi	x0,x0,0
    8af4:	00000013          	addi	x0,x0,0
    8af8:	00000013          	addi	x0,x0,0
    8afc:	00000013          	addi	x0,x0,0
    8b00:	00000013          	addi	x0,x0,0
    8b04:	00000013          	addi	x0,x0,0
    8b08:	00000013          	addi	x0,x0,0
    8b0c:	00000013          	addi	x0,x0,0
    8b10:	00000013          	addi	x0,x0,0
    8b14:	00000013          	addi	x0,x0,0
    8b18:	00000013          	addi	x0,x0,0
    8b1c:	00000013          	addi	x0,x0,0
    8b20:	00000013          	addi	x0,x0,0
    8b24:	00000013          	addi	x0,x0,0
    8b28:	00000013          	addi	x0,x0,0
    8b2c:	00000013          	addi	x0,x0,0
    8b30:	00000013          	addi	x0,x0,0
    8b34:	00000013          	addi	x0,x0,0
    8b38:	00000013          	addi	x0,x0,0
    8b3c:	00000013          	addi	x0,x0,0
    8b40:	00000013          	addi	x0,x0,0
    8b44:	00000013          	addi	x0,x0,0
    8b48:	00000013          	addi	x0,x0,0
    8b4c:	00000013          	addi	x0,x0,0
    8b50:	00000013          	addi	x0,x0,0
    8b54:	00000013          	addi	x0,x0,0
    8b58:	00000013          	addi	x0,x0,0
    8b5c:	00000013          	addi	x0,x0,0
    8b60:	00000013          	addi	x0,x0,0
    8b64:	00000013          	addi	x0,x0,0
    8b68:	00000013          	addi	x0,x0,0
    8b6c:	00000013          	addi	x0,x0,0
    8b70:	00000013          	addi	x0,x0,0
    8b74:	00000013          	addi	x0,x0,0
    8b78:	00000013          	addi	x0,x0,0
    8b7c:	00000013          	addi	x0,x0,0
    8b80:	00000013          	addi	x0,x0,0
    8b84:	00000013          	addi	x0,x0,0
    8b88:	00000013          	addi	x0,x0,0
    8b8c:	00000013          	addi	x0,x0,0
    8b90:	00000013          	addi	x0,x0,0
    8b94:	00000013          	addi	x0,x0,0
    8b98:	00000013          	addi	x0,x0,0
    8b9c:	00000013          	addi	x0,x0,0
    8ba0:	00000013          	addi	x0,x0,0
    8ba4:	00000013          	addi	x0,x0,0
    8ba8:	00000013          	addi	x0,x0,0
    8bac:	00000013          	addi	x0,x0,0
    8bb0:	00000013          	addi	x0,x0,0
    8bb4:	00000013          	addi	x0,x0,0
    8bb8:	00000013          	addi	x0,x0,0
    8bbc:	00000013          	addi	x0,x0,0
    8bc0:	00000013          	addi	x0,x0,0
    8bc4:	00000013          	addi	x0,x0,0
    8bc8:	00000013          	addi	x0,x0,0
    8bcc:	00000013          	addi	x0,x0,0
    8bd0:	00000013          	addi	x0,x0,0
    8bd4:	00000013          	addi	x0,x0,0
    8bd8:	00000013          	addi	x0,x0,0
    8bdc:	00000013          	addi	x0,x0,0
    8be0:	00000013          	addi	x0,x0,0
    8be4:	00000013          	addi	x0,x0,0
    8be8:	00000013          	addi	x0,x0,0
    8bec:	00000013          	addi	x0,x0,0
    8bf0:	00000013          	addi	x0,x0,0
    8bf4:	00000013          	addi	x0,x0,0
    8bf8:	00000013          	addi	x0,x0,0
    8bfc:	00000013          	addi	x0,x0,0
    8c00:	00000013          	addi	x0,x0,0
    8c04:	00000013          	addi	x0,x0,0
    8c08:	00000013          	addi	x0,x0,0
    8c0c:	00000013          	addi	x0,x0,0
    8c10:	00000013          	addi	x0,x0,0
    8c14:	00000013          	addi	x0,x0,0
    8c18:	00000013          	addi	x0,x0,0
    8c1c:	00000013          	addi	x0,x0,0
    8c20:	00000013          	addi	x0,x0,0
    8c24:	00000013          	addi	x0,x0,0
    8c28:	00000013          	addi	x0,x0,0
    8c2c:	00000013          	addi	x0,x0,0
    8c30:	00000013          	addi	x0,x0,0
    8c34:	00000013          	addi	x0,x0,0
    8c38:	00000013          	addi	x0,x0,0
    8c3c:	00000013          	addi	x0,x0,0
    8c40:	00000013          	addi	x0,x0,0
    8c44:	00000013          	addi	x0,x0,0
    8c48:	00000013          	addi	x0,x0,0
    8c4c:	00000013          	addi	x0,x0,0
    8c50:	00000013          	addi	x0,x0,0
    8c54:	00000013          	addi	x0,x0,0
    8c58:	00000013          	addi	x0,x0,0
    8c5c:	00000013          	addi	x0,x0,0
    8c60:	00000013          	addi	x0,x0,0
    8c64:	00000013          	addi	x0,x0,0
    8c68:	00000013          	addi	x0,x0,0
    8c6c:	00000013          	addi	x0,x0,0
    8c70:	00000013          	addi	x0,x0,0
    8c74:	00000013          	addi	x0,x0,0
    8c78:	00000013          	addi	x0,x0,0
    8c7c:	00000013          	addi	x0,x0,0
    8c80:	00000013          	addi	x0,x0,0
    8c84:	00000013          	addi	x0,x0,0
    8c88:	00000013          	addi	x0,x0,0
    8c8c:	00000013          	addi	x0,x0,0
    8c90:	00000013          	addi	x0,x0,0
    8c94:	00000013          	addi	x0,x0,0
    8c98:	00000013          	addi	x0,x0,0
    8c9c:	00000013          	addi	x0,x0,0
    8ca0:	00000013          	addi	x0,x0,0
    8ca4:	00000013          	addi	x0,x0,0
    8ca8:	00000013          	addi	x0,x0,0
    8cac:	00000013          	addi	x0,x0,0
    8cb0:	00000013          	addi	x0,x0,0
    8cb4:	00000013          	addi	x0,x0,0
    8cb8:	00000013          	addi	x0,x0,0
    8cbc:	00000013          	addi	x0,x0,0
    8cc0:	00000013          	addi	x0,x0,0
    8cc4:	00000013          	addi	x0,x0,0
    8cc8:	00000013          	addi	x0,x0,0
    8ccc:	00000013          	addi	x0,x0,0
    8cd0:	00000013          	addi	x0,x0,0
    8cd4:	00000013          	addi	x0,x0,0
    8cd8:	00000013          	addi	x0,x0,0
    8cdc:	00000013          	addi	x0,x0,0
    8ce0:	00000013          	addi	x0,x0,0
    8ce4:	00000013          	addi	x0,x0,0
    8ce8:	00000013          	addi	x0,x0,0
    8cec:	00000013          	addi	x0,x0,0
    8cf0:	00000013          	addi	x0,x0,0
    8cf4:	00000013          	addi	x0,x0,0
    8cf8:	00000013          	addi	x0,x0,0
    8cfc:	00000013          	addi	x0,x0,0
    8d00:	00000013          	addi	x0,x0,0
    8d04:	00000013          	addi	x0,x0,0
    8d08:	00000013          	addi	x0,x0,0
    8d0c:	00000013          	addi	x0,x0,0
    8d10:	00000013          	addi	x0,x0,0
    8d14:	00000013          	addi	x0,x0,0
    8d18:	00000013          	addi	x0,x0,0
    8d1c:	00000013          	addi	x0,x0,0
    8d20:	00000013          	addi	x0,x0,0
    8d24:	00000013          	addi	x0,x0,0
    8d28:	00000013          	addi	x0,x0,0
    8d2c:	00000013          	addi	x0,x0,0
    8d30:	00000013          	addi	x0,x0,0
    8d34:	00000013          	addi	x0,x0,0
    8d38:	00000013          	addi	x0,x0,0
    8d3c:	00000013          	addi	x0,x0,0
    8d40:	00000013          	addi	x0,x0,0
    8d44:	00000013          	addi	x0,x0,0
    8d48:	00000013          	addi	x0,x0,0
    8d4c:	00000013          	addi	x0,x0,0
    8d50:	00000013          	addi	x0,x0,0
    8d54:	00000013          	addi	x0,x0,0
    8d58:	00000013          	addi	x0,x0,0
    8d5c:	00000013          	addi	x0,x0,0
    8d60:	00000013          	addi	x0,x0,0
    8d64:	00000013          	addi	x0,x0,0
    8d68:	00000013          	addi	x0,x0,0
    8d6c:	00000013          	addi	x0,x0,0
    8d70:	00000013          	addi	x0,x0,0
    8d74:	00000013          	addi	x0,x0,0
    8d78:	00000013          	addi	x0,x0,0
    8d7c:	00000013          	addi	x0,x0,0
    8d80:	00000013          	addi	x0,x0,0
    8d84:	00000013          	addi	x0,x0,0
    8d88:	00000013          	addi	x0,x0,0
    8d8c:	00000013          	addi	x0,x0,0
    8d90:	00000013          	addi	x0,x0,0
    8d94:	00000013          	addi	x0,x0,0
    8d98:	00000013          	addi	x0,x0,0
    8d9c:	00000013          	addi	x0,x0,0
    8da0:	00000013          	addi	x0,x0,0
    8da4:	00000013          	addi	x0,x0,0
    8da8:	00000013          	addi	x0,x0,0
    8dac:	00000013          	addi	x0,x0,0
    8db0:	00000013          	addi	x0,x0,0
    8db4:	00000013          	addi	x0,x0,0
    8db8:	00000013          	addi	x0,x0,0
    8dbc:	00000013          	addi	x0,x0,0
    8dc0:	00000013          	addi	x0,x0,0
    8dc4:	00000013          	addi	x0,x0,0
    8dc8:	00000013          	addi	x0,x0,0
    8dcc:	00000013          	addi	x0,x0,0
    8dd0:	00000013          	addi	x0,x0,0
    8dd4:	00000013          	addi	x0,x0,0
    8dd8:	00000013          	addi	x0,x0,0
    8ddc:	00000013          	addi	x0,x0,0
    8de0:	00000013          	addi	x0,x0,0
    8de4:	00000013          	addi	x0,x0,0
    8de8:	00000013          	addi	x0,x0,0
    8dec:	00000013          	addi	x0,x0,0
    8df0:	00000013          	addi	x0,x0,0
    8df4:	00000013          	addi	x0,x0,0
    8df8:	00000013          	addi	x0,x0,0
    8dfc:	00000013          	addi	x0,x0,0
    8e00:	00000013          	addi	x0,x0,0
    8e04:	00000013          	addi	x0,x0,0
    8e08:	00000013          	addi	x0,x0,0
    8e0c:	00000013          	addi	x0,x0,0
    8e10:	00000013          	addi	x0,x0,0
    8e14:	00000013          	addi	x0,x0,0
    8e18:	00000013          	addi	x0,x0,0
    8e1c:	00000013          	addi	x0,x0,0
    8e20:	00000013          	addi	x0,x0,0
    8e24:	00000013          	addi	x0,x0,0
    8e28:	00000013          	addi	x0,x0,0
    8e2c:	00000013          	addi	x0,x0,0
    8e30:	00000013          	addi	x0,x0,0
    8e34:	00000013          	addi	x0,x0,0
    8e38:	00000013          	addi	x0,x0,0
    8e3c:	00000013          	addi	x0,x0,0
    8e40:	00000013          	addi	x0,x0,0
    8e44:	00000013          	addi	x0,x0,0
    8e48:	00000013          	addi	x0,x0,0
    8e4c:	00000013          	addi	x0,x0,0
    8e50:	00000013          	addi	x0,x0,0
    8e54:	00000013          	addi	x0,x0,0
    8e58:	00000013          	addi	x0,x0,0
    8e5c:	00000013          	addi	x0,x0,0
    8e60:	00000013          	addi	x0,x0,0
    8e64:	00000013          	addi	x0,x0,0
    8e68:	00000013          	addi	x0,x0,0
    8e6c:	00000013          	addi	x0,x0,0
    8e70:	00000013          	addi	x0,x0,0
    8e74:	00000013          	addi	x0,x0,0
    8e78:	00000013          	addi	x0,x0,0
    8e7c:	00000013          	addi	x0,x0,0
    8e80:	00000013          	addi	x0,x0,0
    8e84:	00000013          	addi	x0,x0,0
    8e88:	00000013          	addi	x0,x0,0
    8e8c:	00000013          	addi	x0,x0,0
    8e90:	00000013          	addi	x0,x0,0
    8e94:	00000013          	addi	x0,x0,0
    8e98:	00000013          	addi	x0,x0,0
    8e9c:	00000013          	addi	x0,x0,0
    8ea0:	00000013          	addi	x0,x0,0
    8ea4:	00000013          	addi	x0,x0,0
    8ea8:	00000013          	addi	x0,x0,0
    8eac:	00000013          	addi	x0,x0,0
    8eb0:	00000013          	addi	x0,x0,0
    8eb4:	00000013          	addi	x0,x0,0
    8eb8:	00000013          	addi	x0,x0,0
    8ebc:	00000013          	addi	x0,x0,0
    8ec0:	00000013          	addi	x0,x0,0
    8ec4:	00000013          	addi	x0,x0,0
    8ec8:	00000013          	addi	x0,x0,0
    8ecc:	00000013          	addi	x0,x0,0
    8ed0:	00000013          	addi	x0,x0,0
    8ed4:	00000013          	addi	x0,x0,0
    8ed8:	00000013          	addi	x0,x0,0
    8edc:	00000013          	addi	x0,x0,0
    8ee0:	00000013          	addi	x0,x0,0
    8ee4:	00000013          	addi	x0,x0,0
    8ee8:	00000013          	addi	x0,x0,0
    8eec:	00000013          	addi	x0,x0,0
    8ef0:	00000013          	addi	x0,x0,0
    8ef4:	00000013          	addi	x0,x0,0
    8ef8:	00000013          	addi	x0,x0,0
    8efc:	00000013          	addi	x0,x0,0
    8f00:	00000013          	addi	x0,x0,0
    8f04:	00000013          	addi	x0,x0,0
    8f08:	00000013          	addi	x0,x0,0
    8f0c:	00000013          	addi	x0,x0,0
    8f10:	00000013          	addi	x0,x0,0
    8f14:	00000013          	addi	x0,x0,0
    8f18:	00000013          	addi	x0,x0,0
    8f1c:	00000013          	addi	x0,x0,0
    8f20:	00000013          	addi	x0,x0,0
    8f24:	00000013          	addi	x0,x0,0
    8f28:	00000013          	addi	x0,x0,0
    8f2c:	00000013          	addi	x0,x0,0
    8f30:	00000013          	addi	x0,x0,0
    8f34:	00000013          	addi	x0,x0,0
    8f38:	00000013          	addi	x0,x0,0
    8f3c:	00000013          	addi	x0,x0,0
    8f40:	00000013          	addi	x0,x0,0
    8f44:	00000013          	addi	x0,x0,0
    8f48:	00000013          	addi	x0,x0,0
    8f4c:	00000013          	addi	x0,x0,0
    8f50:	00000013          	addi	x0,x0,0
    8f54:	00000013          	addi	x0,x0,0
    8f58:	00000013          	addi	x0,x0,0
    8f5c:	00000013          	addi	x0,x0,0
    8f60:	00000013          	addi	x0,x0,0
    8f64:	00000013          	addi	x0,x0,0
    8f68:	00000013          	addi	x0,x0,0
    8f6c:	00000013          	addi	x0,x0,0
    8f70:	00000013          	addi	x0,x0,0
    8f74:	00000013          	addi	x0,x0,0
    8f78:	00000013          	addi	x0,x0,0
    8f7c:	00000013          	addi	x0,x0,0
    8f80:	00000013          	addi	x0,x0,0
    8f84:	00000013          	addi	x0,x0,0
    8f88:	00000013          	addi	x0,x0,0
    8f8c:	00000013          	addi	x0,x0,0
    8f90:	00000013          	addi	x0,x0,0
    8f94:	00000013          	addi	x0,x0,0
    8f98:	00000013          	addi	x0,x0,0
    8f9c:	00000013          	addi	x0,x0,0
    8fa0:	00000013          	addi	x0,x0,0
    8fa4:	00000013          	addi	x0,x0,0
    8fa8:	00000013          	addi	x0,x0,0
    8fac:	00000013          	addi	x0,x0,0
    8fb0:	00000013          	addi	x0,x0,0
    8fb4:	00000013          	addi	x0,x0,0
    8fb8:	00000013          	addi	x0,x0,0
    8fbc:	00000013          	addi	x0,x0,0
    8fc0:	00000013          	addi	x0,x0,0
    8fc4:	00000013          	addi	x0,x0,0
    8fc8:	00000013          	addi	x0,x0,0
    8fcc:	00000013          	addi	x0,x0,0
    8fd0:	00000013          	addi	x0,x0,0
    8fd4:	00000013          	addi	x0,x0,0
    8fd8:	00000013          	addi	x0,x0,0
    8fdc:	00000013          	addi	x0,x0,0
    8fe0:	00000013          	addi	x0,x0,0
    8fe4:	00000013          	addi	x0,x0,0
    8fe8:	00000013          	addi	x0,x0,0
    8fec:	00000013          	addi	x0,x0,0
    8ff0:	00000013          	addi	x0,x0,0
    8ff4:	00000013          	addi	x0,x0,0
    8ff8:	00000013          	addi	x0,x0,0
    8ffc:	00000013          	addi	x0,x0,0

# backward branch by 4096
  .p2align 12 # align to 4096 bytes
10:
  addi x27, x27, 1 # should happen
    9000:	001d8d93          	addi	x27,x27,1
  j 20f # backward branch succeeded
    9004:	00c0106f          	jal	x0,a010 <I_blt_cg_cp_imm_edges_branch_all+0x43a4>
    9008:	00000013          	addi	x0,x0,0
    900c:	00000013          	addi	x0,x0,0
    9010:	00000013          	addi	x0,x0,0
    9014:	00000013          	addi	x0,x0,0
    9018:	00000013          	addi	x0,x0,0
    901c:	00000013          	addi	x0,x0,0
    9020:	00000013          	addi	x0,x0,0
    9024:	00000013          	addi	x0,x0,0
    9028:	00000013          	addi	x0,x0,0
    902c:	00000013          	addi	x0,x0,0
    9030:	00000013          	addi	x0,x0,0
    9034:	00000013          	addi	x0,x0,0
    9038:	00000013          	addi	x0,x0,0
    903c:	00000013          	addi	x0,x0,0
    9040:	00000013          	addi	x0,x0,0
    9044:	00000013          	addi	x0,x0,0
    9048:	00000013          	addi	x0,x0,0
    904c:	00000013          	addi	x0,x0,0
    9050:	00000013          	addi	x0,x0,0
    9054:	00000013          	addi	x0,x0,0
    9058:	00000013          	addi	x0,x0,0
    905c:	00000013          	addi	x0,x0,0
    9060:	00000013          	addi	x0,x0,0
    9064:	00000013          	addi	x0,x0,0
    9068:	00000013          	addi	x0,x0,0
    906c:	00000013          	addi	x0,x0,0
    9070:	00000013          	addi	x0,x0,0
    9074:	00000013          	addi	x0,x0,0
    9078:	00000013          	addi	x0,x0,0
    907c:	00000013          	addi	x0,x0,0
    9080:	00000013          	addi	x0,x0,0
    9084:	00000013          	addi	x0,x0,0
    9088:	00000013          	addi	x0,x0,0
    908c:	00000013          	addi	x0,x0,0
    9090:	00000013          	addi	x0,x0,0
    9094:	00000013          	addi	x0,x0,0
    9098:	00000013          	addi	x0,x0,0
    909c:	00000013          	addi	x0,x0,0
    90a0:	00000013          	addi	x0,x0,0
    90a4:	00000013          	addi	x0,x0,0
    90a8:	00000013          	addi	x0,x0,0
    90ac:	00000013          	addi	x0,x0,0
    90b0:	00000013          	addi	x0,x0,0
    90b4:	00000013          	addi	x0,x0,0
    90b8:	00000013          	addi	x0,x0,0
    90bc:	00000013          	addi	x0,x0,0
    90c0:	00000013          	addi	x0,x0,0
    90c4:	00000013          	addi	x0,x0,0
    90c8:	00000013          	addi	x0,x0,0
    90cc:	00000013          	addi	x0,x0,0
    90d0:	00000013          	addi	x0,x0,0
    90d4:	00000013          	addi	x0,x0,0
    90d8:	00000013          	addi	x0,x0,0
    90dc:	00000013          	addi	x0,x0,0
    90e0:	00000013          	addi	x0,x0,0
    90e4:	00000013          	addi	x0,x0,0
    90e8:	00000013          	addi	x0,x0,0
    90ec:	00000013          	addi	x0,x0,0
    90f0:	00000013          	addi	x0,x0,0
    90f4:	00000013          	addi	x0,x0,0
    90f8:	00000013          	addi	x0,x0,0
    90fc:	00000013          	addi	x0,x0,0
    9100:	00000013          	addi	x0,x0,0
    9104:	00000013          	addi	x0,x0,0
    9108:	00000013          	addi	x0,x0,0
    910c:	00000013          	addi	x0,x0,0
    9110:	00000013          	addi	x0,x0,0
    9114:	00000013          	addi	x0,x0,0
    9118:	00000013          	addi	x0,x0,0
    911c:	00000013          	addi	x0,x0,0
    9120:	00000013          	addi	x0,x0,0
    9124:	00000013          	addi	x0,x0,0
    9128:	00000013          	addi	x0,x0,0
    912c:	00000013          	addi	x0,x0,0
    9130:	00000013          	addi	x0,x0,0
    9134:	00000013          	addi	x0,x0,0
    9138:	00000013          	addi	x0,x0,0
    913c:	00000013          	addi	x0,x0,0
    9140:	00000013          	addi	x0,x0,0
    9144:	00000013          	addi	x0,x0,0
    9148:	00000013          	addi	x0,x0,0
    914c:	00000013          	addi	x0,x0,0
    9150:	00000013          	addi	x0,x0,0
    9154:	00000013          	addi	x0,x0,0
    9158:	00000013          	addi	x0,x0,0
    915c:	00000013          	addi	x0,x0,0
    9160:	00000013          	addi	x0,x0,0
    9164:	00000013          	addi	x0,x0,0
    9168:	00000013          	addi	x0,x0,0
    916c:	00000013          	addi	x0,x0,0
    9170:	00000013          	addi	x0,x0,0
    9174:	00000013          	addi	x0,x0,0
    9178:	00000013          	addi	x0,x0,0
    917c:	00000013          	addi	x0,x0,0
    9180:	00000013          	addi	x0,x0,0
    9184:	00000013          	addi	x0,x0,0
    9188:	00000013          	addi	x0,x0,0
    918c:	00000013          	addi	x0,x0,0
    9190:	00000013          	addi	x0,x0,0
    9194:	00000013          	addi	x0,x0,0
    9198:	00000013          	addi	x0,x0,0
    919c:	00000013          	addi	x0,x0,0
    91a0:	00000013          	addi	x0,x0,0
    91a4:	00000013          	addi	x0,x0,0
    91a8:	00000013          	addi	x0,x0,0
    91ac:	00000013          	addi	x0,x0,0
    91b0:	00000013          	addi	x0,x0,0
    91b4:	00000013          	addi	x0,x0,0
    91b8:	00000013          	addi	x0,x0,0
    91bc:	00000013          	addi	x0,x0,0
    91c0:	00000013          	addi	x0,x0,0
    91c4:	00000013          	addi	x0,x0,0
    91c8:	00000013          	addi	x0,x0,0
    91cc:	00000013          	addi	x0,x0,0
    91d0:	00000013          	addi	x0,x0,0
    91d4:	00000013          	addi	x0,x0,0
    91d8:	00000013          	addi	x0,x0,0
    91dc:	00000013          	addi	x0,x0,0
    91e0:	00000013          	addi	x0,x0,0
    91e4:	00000013          	addi	x0,x0,0
    91e8:	00000013          	addi	x0,x0,0
    91ec:	00000013          	addi	x0,x0,0
    91f0:	00000013          	addi	x0,x0,0
    91f4:	00000013          	addi	x0,x0,0
    91f8:	00000013          	addi	x0,x0,0
    91fc:	00000013          	addi	x0,x0,0
    9200:	00000013          	addi	x0,x0,0
    9204:	00000013          	addi	x0,x0,0
    9208:	00000013          	addi	x0,x0,0
    920c:	00000013          	addi	x0,x0,0
    9210:	00000013          	addi	x0,x0,0
    9214:	00000013          	addi	x0,x0,0
    9218:	00000013          	addi	x0,x0,0
    921c:	00000013          	addi	x0,x0,0
    9220:	00000013          	addi	x0,x0,0
    9224:	00000013          	addi	x0,x0,0
    9228:	00000013          	addi	x0,x0,0
    922c:	00000013          	addi	x0,x0,0
    9230:	00000013          	addi	x0,x0,0
    9234:	00000013          	addi	x0,x0,0
    9238:	00000013          	addi	x0,x0,0
    923c:	00000013          	addi	x0,x0,0
    9240:	00000013          	addi	x0,x0,0
    9244:	00000013          	addi	x0,x0,0
    9248:	00000013          	addi	x0,x0,0
    924c:	00000013          	addi	x0,x0,0
    9250:	00000013          	addi	x0,x0,0
    9254:	00000013          	addi	x0,x0,0
    9258:	00000013          	addi	x0,x0,0
    925c:	00000013          	addi	x0,x0,0
    9260:	00000013          	addi	x0,x0,0
    9264:	00000013          	addi	x0,x0,0
    9268:	00000013          	addi	x0,x0,0
    926c:	00000013          	addi	x0,x0,0
    9270:	00000013          	addi	x0,x0,0
    9274:	00000013          	addi	x0,x0,0
    9278:	00000013          	addi	x0,x0,0
    927c:	00000013          	addi	x0,x0,0
    9280:	00000013          	addi	x0,x0,0
    9284:	00000013          	addi	x0,x0,0
    9288:	00000013          	addi	x0,x0,0
    928c:	00000013          	addi	x0,x0,0
    9290:	00000013          	addi	x0,x0,0
    9294:	00000013          	addi	x0,x0,0
    9298:	00000013          	addi	x0,x0,0
    929c:	00000013          	addi	x0,x0,0
    92a0:	00000013          	addi	x0,x0,0
    92a4:	00000013          	addi	x0,x0,0
    92a8:	00000013          	addi	x0,x0,0
    92ac:	00000013          	addi	x0,x0,0
    92b0:	00000013          	addi	x0,x0,0
    92b4:	00000013          	addi	x0,x0,0
    92b8:	00000013          	addi	x0,x0,0
    92bc:	00000013          	addi	x0,x0,0
    92c0:	00000013          	addi	x0,x0,0
    92c4:	00000013          	addi	x0,x0,0
    92c8:	00000013          	addi	x0,x0,0
    92cc:	00000013          	addi	x0,x0,0
    92d0:	00000013          	addi	x0,x0,0
    92d4:	00000013          	addi	x0,x0,0
    92d8:	00000013          	addi	x0,x0,0
    92dc:	00000013          	addi	x0,x0,0
    92e0:	00000013          	addi	x0,x0,0
    92e4:	00000013          	addi	x0,x0,0
    92e8:	00000013          	addi	x0,x0,0
    92ec:	00000013          	addi	x0,x0,0
    92f0:	00000013          	addi	x0,x0,0
    92f4:	00000013          	addi	x0,x0,0
    92f8:	00000013          	addi	x0,x0,0
    92fc:	00000013          	addi	x0,x0,0
    9300:	00000013          	addi	x0,x0,0
    9304:	00000013          	addi	x0,x0,0
    9308:	00000013          	addi	x0,x0,0
    930c:	00000013          	addi	x0,x0,0
    9310:	00000013          	addi	x0,x0,0
    9314:	00000013          	addi	x0,x0,0
    9318:	00000013          	addi	x0,x0,0
    931c:	00000013          	addi	x0,x0,0
    9320:	00000013          	addi	x0,x0,0
    9324:	00000013          	addi	x0,x0,0
    9328:	00000013          	addi	x0,x0,0
    932c:	00000013          	addi	x0,x0,0
    9330:	00000013          	addi	x0,x0,0
    9334:	00000013          	addi	x0,x0,0
    9338:	00000013          	addi	x0,x0,0
    933c:	00000013          	addi	x0,x0,0
    9340:	00000013          	addi	x0,x0,0
    9344:	00000013          	addi	x0,x0,0
    9348:	00000013          	addi	x0,x0,0
    934c:	00000013          	addi	x0,x0,0
    9350:	00000013          	addi	x0,x0,0
    9354:	00000013          	addi	x0,x0,0
    9358:	00000013          	addi	x0,x0,0
    935c:	00000013          	addi	x0,x0,0
    9360:	00000013          	addi	x0,x0,0
    9364:	00000013          	addi	x0,x0,0
    9368:	00000013          	addi	x0,x0,0
    936c:	00000013          	addi	x0,x0,0
    9370:	00000013          	addi	x0,x0,0
    9374:	00000013          	addi	x0,x0,0
    9378:	00000013          	addi	x0,x0,0
    937c:	00000013          	addi	x0,x0,0
    9380:	00000013          	addi	x0,x0,0
    9384:	00000013          	addi	x0,x0,0
    9388:	00000013          	addi	x0,x0,0
    938c:	00000013          	addi	x0,x0,0
    9390:	00000013          	addi	x0,x0,0
    9394:	00000013          	addi	x0,x0,0
    9398:	00000013          	addi	x0,x0,0
    939c:	00000013          	addi	x0,x0,0
    93a0:	00000013          	addi	x0,x0,0
    93a4:	00000013          	addi	x0,x0,0
    93a8:	00000013          	addi	x0,x0,0
    93ac:	00000013          	addi	x0,x0,0
    93b0:	00000013          	addi	x0,x0,0
    93b4:	00000013          	addi	x0,x0,0
    93b8:	00000013          	addi	x0,x0,0
    93bc:	00000013          	addi	x0,x0,0
    93c0:	00000013          	addi	x0,x0,0
    93c4:	00000013          	addi	x0,x0,0
    93c8:	00000013          	addi	x0,x0,0
    93cc:	00000013          	addi	x0,x0,0
    93d0:	00000013          	addi	x0,x0,0
    93d4:	00000013          	addi	x0,x0,0
    93d8:	00000013          	addi	x0,x0,0
    93dc:	00000013          	addi	x0,x0,0
    93e0:	00000013          	addi	x0,x0,0
    93e4:	00000013          	addi	x0,x0,0
    93e8:	00000013          	addi	x0,x0,0
    93ec:	00000013          	addi	x0,x0,0
    93f0:	00000013          	addi	x0,x0,0
    93f4:	00000013          	addi	x0,x0,0
    93f8:	00000013          	addi	x0,x0,0
    93fc:	00000013          	addi	x0,x0,0
    9400:	00000013          	addi	x0,x0,0
    9404:	00000013          	addi	x0,x0,0
    9408:	00000013          	addi	x0,x0,0
    940c:	00000013          	addi	x0,x0,0
    9410:	00000013          	addi	x0,x0,0
    9414:	00000013          	addi	x0,x0,0
    9418:	00000013          	addi	x0,x0,0
    941c:	00000013          	addi	x0,x0,0
    9420:	00000013          	addi	x0,x0,0
    9424:	00000013          	addi	x0,x0,0
    9428:	00000013          	addi	x0,x0,0
    942c:	00000013          	addi	x0,x0,0
    9430:	00000013          	addi	x0,x0,0
    9434:	00000013          	addi	x0,x0,0
    9438:	00000013          	addi	x0,x0,0
    943c:	00000013          	addi	x0,x0,0
    9440:	00000013          	addi	x0,x0,0
    9444:	00000013          	addi	x0,x0,0
    9448:	00000013          	addi	x0,x0,0
    944c:	00000013          	addi	x0,x0,0
    9450:	00000013          	addi	x0,x0,0
    9454:	00000013          	addi	x0,x0,0
    9458:	00000013          	addi	x0,x0,0
    945c:	00000013          	addi	x0,x0,0
    9460:	00000013          	addi	x0,x0,0
    9464:	00000013          	addi	x0,x0,0
    9468:	00000013          	addi	x0,x0,0
    946c:	00000013          	addi	x0,x0,0
    9470:	00000013          	addi	x0,x0,0
    9474:	00000013          	addi	x0,x0,0
    9478:	00000013          	addi	x0,x0,0
    947c:	00000013          	addi	x0,x0,0
    9480:	00000013          	addi	x0,x0,0
    9484:	00000013          	addi	x0,x0,0
    9488:	00000013          	addi	x0,x0,0
    948c:	00000013          	addi	x0,x0,0
    9490:	00000013          	addi	x0,x0,0
    9494:	00000013          	addi	x0,x0,0
    9498:	00000013          	addi	x0,x0,0
    949c:	00000013          	addi	x0,x0,0
    94a0:	00000013          	addi	x0,x0,0
    94a4:	00000013          	addi	x0,x0,0
    94a8:	00000013          	addi	x0,x0,0
    94ac:	00000013          	addi	x0,x0,0
    94b0:	00000013          	addi	x0,x0,0
    94b4:	00000013          	addi	x0,x0,0
    94b8:	00000013          	addi	x0,x0,0
    94bc:	00000013          	addi	x0,x0,0
    94c0:	00000013          	addi	x0,x0,0
    94c4:	00000013          	addi	x0,x0,0
    94c8:	00000013          	addi	x0,x0,0
    94cc:	00000013          	addi	x0,x0,0
    94d0:	00000013          	addi	x0,x0,0
    94d4:	00000013          	addi	x0,x0,0
    94d8:	00000013          	addi	x0,x0,0
    94dc:	00000013          	addi	x0,x0,0
    94e0:	00000013          	addi	x0,x0,0
    94e4:	00000013          	addi	x0,x0,0
    94e8:	00000013          	addi	x0,x0,0
    94ec:	00000013          	addi	x0,x0,0
    94f0:	00000013          	addi	x0,x0,0
    94f4:	00000013          	addi	x0,x0,0
    94f8:	00000013          	addi	x0,x0,0
    94fc:	00000013          	addi	x0,x0,0
    9500:	00000013          	addi	x0,x0,0
    9504:	00000013          	addi	x0,x0,0
    9508:	00000013          	addi	x0,x0,0
    950c:	00000013          	addi	x0,x0,0
    9510:	00000013          	addi	x0,x0,0
    9514:	00000013          	addi	x0,x0,0
    9518:	00000013          	addi	x0,x0,0
    951c:	00000013          	addi	x0,x0,0
    9520:	00000013          	addi	x0,x0,0
    9524:	00000013          	addi	x0,x0,0
    9528:	00000013          	addi	x0,x0,0
    952c:	00000013          	addi	x0,x0,0
    9530:	00000013          	addi	x0,x0,0
    9534:	00000013          	addi	x0,x0,0
    9538:	00000013          	addi	x0,x0,0
    953c:	00000013          	addi	x0,x0,0
    9540:	00000013          	addi	x0,x0,0
    9544:	00000013          	addi	x0,x0,0
    9548:	00000013          	addi	x0,x0,0
    954c:	00000013          	addi	x0,x0,0
    9550:	00000013          	addi	x0,x0,0
    9554:	00000013          	addi	x0,x0,0
    9558:	00000013          	addi	x0,x0,0
    955c:	00000013          	addi	x0,x0,0
    9560:	00000013          	addi	x0,x0,0
    9564:	00000013          	addi	x0,x0,0
    9568:	00000013          	addi	x0,x0,0
    956c:	00000013          	addi	x0,x0,0
    9570:	00000013          	addi	x0,x0,0
    9574:	00000013          	addi	x0,x0,0
    9578:	00000013          	addi	x0,x0,0
    957c:	00000013          	addi	x0,x0,0
    9580:	00000013          	addi	x0,x0,0
    9584:	00000013          	addi	x0,x0,0
    9588:	00000013          	addi	x0,x0,0
    958c:	00000013          	addi	x0,x0,0
    9590:	00000013          	addi	x0,x0,0
    9594:	00000013          	addi	x0,x0,0
    9598:	00000013          	addi	x0,x0,0
    959c:	00000013          	addi	x0,x0,0
    95a0:	00000013          	addi	x0,x0,0
    95a4:	00000013          	addi	x0,x0,0
    95a8:	00000013          	addi	x0,x0,0
    95ac:	00000013          	addi	x0,x0,0
    95b0:	00000013          	addi	x0,x0,0
    95b4:	00000013          	addi	x0,x0,0
    95b8:	00000013          	addi	x0,x0,0
    95bc:	00000013          	addi	x0,x0,0
    95c0:	00000013          	addi	x0,x0,0
    95c4:	00000013          	addi	x0,x0,0
    95c8:	00000013          	addi	x0,x0,0
    95cc:	00000013          	addi	x0,x0,0
    95d0:	00000013          	addi	x0,x0,0
    95d4:	00000013          	addi	x0,x0,0
    95d8:	00000013          	addi	x0,x0,0
    95dc:	00000013          	addi	x0,x0,0
    95e0:	00000013          	addi	x0,x0,0
    95e4:	00000013          	addi	x0,x0,0
    95e8:	00000013          	addi	x0,x0,0
    95ec:	00000013          	addi	x0,x0,0
    95f0:	00000013          	addi	x0,x0,0
    95f4:	00000013          	addi	x0,x0,0
    95f8:	00000013          	addi	x0,x0,0
    95fc:	00000013          	addi	x0,x0,0
    9600:	00000013          	addi	x0,x0,0
    9604:	00000013          	addi	x0,x0,0
    9608:	00000013          	addi	x0,x0,0
    960c:	00000013          	addi	x0,x0,0
    9610:	00000013          	addi	x0,x0,0
    9614:	00000013          	addi	x0,x0,0
    9618:	00000013          	addi	x0,x0,0
    961c:	00000013          	addi	x0,x0,0
    9620:	00000013          	addi	x0,x0,0
    9624:	00000013          	addi	x0,x0,0
    9628:	00000013          	addi	x0,x0,0
    962c:	00000013          	addi	x0,x0,0
    9630:	00000013          	addi	x0,x0,0
    9634:	00000013          	addi	x0,x0,0
    9638:	00000013          	addi	x0,x0,0
    963c:	00000013          	addi	x0,x0,0
    9640:	00000013          	addi	x0,x0,0
    9644:	00000013          	addi	x0,x0,0
    9648:	00000013          	addi	x0,x0,0
    964c:	00000013          	addi	x0,x0,0
    9650:	00000013          	addi	x0,x0,0
    9654:	00000013          	addi	x0,x0,0
    9658:	00000013          	addi	x0,x0,0
    965c:	00000013          	addi	x0,x0,0
    9660:	00000013          	addi	x0,x0,0
    9664:	00000013          	addi	x0,x0,0
    9668:	00000013          	addi	x0,x0,0
    966c:	00000013          	addi	x0,x0,0
    9670:	00000013          	addi	x0,x0,0
    9674:	00000013          	addi	x0,x0,0
    9678:	00000013          	addi	x0,x0,0
    967c:	00000013          	addi	x0,x0,0
    9680:	00000013          	addi	x0,x0,0
    9684:	00000013          	addi	x0,x0,0
    9688:	00000013          	addi	x0,x0,0
    968c:	00000013          	addi	x0,x0,0
    9690:	00000013          	addi	x0,x0,0
    9694:	00000013          	addi	x0,x0,0
    9698:	00000013          	addi	x0,x0,0
    969c:	00000013          	addi	x0,x0,0
    96a0:	00000013          	addi	x0,x0,0
    96a4:	00000013          	addi	x0,x0,0
    96a8:	00000013          	addi	x0,x0,0
    96ac:	00000013          	addi	x0,x0,0
    96b0:	00000013          	addi	x0,x0,0
    96b4:	00000013          	addi	x0,x0,0
    96b8:	00000013          	addi	x0,x0,0
    96bc:	00000013          	addi	x0,x0,0
    96c0:	00000013          	addi	x0,x0,0
    96c4:	00000013          	addi	x0,x0,0
    96c8:	00000013          	addi	x0,x0,0
    96cc:	00000013          	addi	x0,x0,0
    96d0:	00000013          	addi	x0,x0,0
    96d4:	00000013          	addi	x0,x0,0
    96d8:	00000013          	addi	x0,x0,0
    96dc:	00000013          	addi	x0,x0,0
    96e0:	00000013          	addi	x0,x0,0
    96e4:	00000013          	addi	x0,x0,0
    96e8:	00000013          	addi	x0,x0,0
    96ec:	00000013          	addi	x0,x0,0
    96f0:	00000013          	addi	x0,x0,0
    96f4:	00000013          	addi	x0,x0,0
    96f8:	00000013          	addi	x0,x0,0
    96fc:	00000013          	addi	x0,x0,0
    9700:	00000013          	addi	x0,x0,0
    9704:	00000013          	addi	x0,x0,0
    9708:	00000013          	addi	x0,x0,0
    970c:	00000013          	addi	x0,x0,0
    9710:	00000013          	addi	x0,x0,0
    9714:	00000013          	addi	x0,x0,0
    9718:	00000013          	addi	x0,x0,0
    971c:	00000013          	addi	x0,x0,0
    9720:	00000013          	addi	x0,x0,0
    9724:	00000013          	addi	x0,x0,0
    9728:	00000013          	addi	x0,x0,0
    972c:	00000013          	addi	x0,x0,0
    9730:	00000013          	addi	x0,x0,0
    9734:	00000013          	addi	x0,x0,0
    9738:	00000013          	addi	x0,x0,0
    973c:	00000013          	addi	x0,x0,0
    9740:	00000013          	addi	x0,x0,0
    9744:	00000013          	addi	x0,x0,0
    9748:	00000013          	addi	x0,x0,0
    974c:	00000013          	addi	x0,x0,0
    9750:	00000013          	addi	x0,x0,0
    9754:	00000013          	addi	x0,x0,0
    9758:	00000013          	addi	x0,x0,0
    975c:	00000013          	addi	x0,x0,0
    9760:	00000013          	addi	x0,x0,0
    9764:	00000013          	addi	x0,x0,0
    9768:	00000013          	addi	x0,x0,0
    976c:	00000013          	addi	x0,x0,0
    9770:	00000013          	addi	x0,x0,0
    9774:	00000013          	addi	x0,x0,0
    9778:	00000013          	addi	x0,x0,0
    977c:	00000013          	addi	x0,x0,0
    9780:	00000013          	addi	x0,x0,0
    9784:	00000013          	addi	x0,x0,0
    9788:	00000013          	addi	x0,x0,0
    978c:	00000013          	addi	x0,x0,0
    9790:	00000013          	addi	x0,x0,0
    9794:	00000013          	addi	x0,x0,0
    9798:	00000013          	addi	x0,x0,0
    979c:	00000013          	addi	x0,x0,0
    97a0:	00000013          	addi	x0,x0,0
    97a4:	00000013          	addi	x0,x0,0
    97a8:	00000013          	addi	x0,x0,0
    97ac:	00000013          	addi	x0,x0,0
    97b0:	00000013          	addi	x0,x0,0
    97b4:	00000013          	addi	x0,x0,0
    97b8:	00000013          	addi	x0,x0,0
    97bc:	00000013          	addi	x0,x0,0
    97c0:	00000013          	addi	x0,x0,0
    97c4:	00000013          	addi	x0,x0,0
    97c8:	00000013          	addi	x0,x0,0
    97cc:	00000013          	addi	x0,x0,0
    97d0:	00000013          	addi	x0,x0,0
    97d4:	00000013          	addi	x0,x0,0
    97d8:	00000013          	addi	x0,x0,0
    97dc:	00000013          	addi	x0,x0,0
    97e0:	00000013          	addi	x0,x0,0
    97e4:	00000013          	addi	x0,x0,0
    97e8:	00000013          	addi	x0,x0,0
    97ec:	00000013          	addi	x0,x0,0
    97f0:	00000013          	addi	x0,x0,0
    97f4:	00000013          	addi	x0,x0,0
    97f8:	00000013          	addi	x0,x0,0
    97fc:	00000013          	addi	x0,x0,0
    9800:	00000013          	addi	x0,x0,0
    9804:	00000013          	addi	x0,x0,0
    9808:	00000013          	addi	x0,x0,0
    980c:	00000013          	addi	x0,x0,0
    9810:	00000013          	addi	x0,x0,0
    9814:	00000013          	addi	x0,x0,0
    9818:	00000013          	addi	x0,x0,0
    981c:	00000013          	addi	x0,x0,0
    9820:	00000013          	addi	x0,x0,0
    9824:	00000013          	addi	x0,x0,0
    9828:	00000013          	addi	x0,x0,0
    982c:	00000013          	addi	x0,x0,0
    9830:	00000013          	addi	x0,x0,0
    9834:	00000013          	addi	x0,x0,0
    9838:	00000013          	addi	x0,x0,0
    983c:	00000013          	addi	x0,x0,0
    9840:	00000013          	addi	x0,x0,0
    9844:	00000013          	addi	x0,x0,0
    9848:	00000013          	addi	x0,x0,0
    984c:	00000013          	addi	x0,x0,0
    9850:	00000013          	addi	x0,x0,0
    9854:	00000013          	addi	x0,x0,0
    9858:	00000013          	addi	x0,x0,0
    985c:	00000013          	addi	x0,x0,0
    9860:	00000013          	addi	x0,x0,0
    9864:	00000013          	addi	x0,x0,0
    9868:	00000013          	addi	x0,x0,0
    986c:	00000013          	addi	x0,x0,0
    9870:	00000013          	addi	x0,x0,0
    9874:	00000013          	addi	x0,x0,0
    9878:	00000013          	addi	x0,x0,0
    987c:	00000013          	addi	x0,x0,0
    9880:	00000013          	addi	x0,x0,0
    9884:	00000013          	addi	x0,x0,0
    9888:	00000013          	addi	x0,x0,0
    988c:	00000013          	addi	x0,x0,0
    9890:	00000013          	addi	x0,x0,0
    9894:	00000013          	addi	x0,x0,0
    9898:	00000013          	addi	x0,x0,0
    989c:	00000013          	addi	x0,x0,0
    98a0:	00000013          	addi	x0,x0,0
    98a4:	00000013          	addi	x0,x0,0
    98a8:	00000013          	addi	x0,x0,0
    98ac:	00000013          	addi	x0,x0,0
    98b0:	00000013          	addi	x0,x0,0
    98b4:	00000013          	addi	x0,x0,0
    98b8:	00000013          	addi	x0,x0,0
    98bc:	00000013          	addi	x0,x0,0
    98c0:	00000013          	addi	x0,x0,0
    98c4:	00000013          	addi	x0,x0,0
    98c8:	00000013          	addi	x0,x0,0
    98cc:	00000013          	addi	x0,x0,0
    98d0:	00000013          	addi	x0,x0,0
    98d4:	00000013          	addi	x0,x0,0
    98d8:	00000013          	addi	x0,x0,0
    98dc:	00000013          	addi	x0,x0,0
    98e0:	00000013          	addi	x0,x0,0
    98e4:	00000013          	addi	x0,x0,0
    98e8:	00000013          	addi	x0,x0,0
    98ec:	00000013          	addi	x0,x0,0
    98f0:	00000013          	addi	x0,x0,0
    98f4:	00000013          	addi	x0,x0,0
    98f8:	00000013          	addi	x0,x0,0
    98fc:	00000013          	addi	x0,x0,0
    9900:	00000013          	addi	x0,x0,0
    9904:	00000013          	addi	x0,x0,0
    9908:	00000013          	addi	x0,x0,0
    990c:	00000013          	addi	x0,x0,0
    9910:	00000013          	addi	x0,x0,0
    9914:	00000013          	addi	x0,x0,0
    9918:	00000013          	addi	x0,x0,0
    991c:	00000013          	addi	x0,x0,0
    9920:	00000013          	addi	x0,x0,0
    9924:	00000013          	addi	x0,x0,0
    9928:	00000013          	addi	x0,x0,0
    992c:	00000013          	addi	x0,x0,0
    9930:	00000013          	addi	x0,x0,0
    9934:	00000013          	addi	x0,x0,0
    9938:	00000013          	addi	x0,x0,0
    993c:	00000013          	addi	x0,x0,0
    9940:	00000013          	addi	x0,x0,0
    9944:	00000013          	addi	x0,x0,0
    9948:	00000013          	addi	x0,x0,0
    994c:	00000013          	addi	x0,x0,0
    9950:	00000013          	addi	x0,x0,0
    9954:	00000013          	addi	x0,x0,0
    9958:	00000013          	addi	x0,x0,0
    995c:	00000013          	addi	x0,x0,0
    9960:	00000013          	addi	x0,x0,0
    9964:	00000013          	addi	x0,x0,0
    9968:	00000013          	addi	x0,x0,0
    996c:	00000013          	addi	x0,x0,0
    9970:	00000013          	addi	x0,x0,0
    9974:	00000013          	addi	x0,x0,0
    9978:	00000013          	addi	x0,x0,0
    997c:	00000013          	addi	x0,x0,0
    9980:	00000013          	addi	x0,x0,0
    9984:	00000013          	addi	x0,x0,0
    9988:	00000013          	addi	x0,x0,0
    998c:	00000013          	addi	x0,x0,0
    9990:	00000013          	addi	x0,x0,0
    9994:	00000013          	addi	x0,x0,0
    9998:	00000013          	addi	x0,x0,0
    999c:	00000013          	addi	x0,x0,0
    99a0:	00000013          	addi	x0,x0,0
    99a4:	00000013          	addi	x0,x0,0
    99a8:	00000013          	addi	x0,x0,0
    99ac:	00000013          	addi	x0,x0,0
    99b0:	00000013          	addi	x0,x0,0
    99b4:	00000013          	addi	x0,x0,0
    99b8:	00000013          	addi	x0,x0,0
    99bc:	00000013          	addi	x0,x0,0
    99c0:	00000013          	addi	x0,x0,0
    99c4:	00000013          	addi	x0,x0,0
    99c8:	00000013          	addi	x0,x0,0
    99cc:	00000013          	addi	x0,x0,0
    99d0:	00000013          	addi	x0,x0,0
    99d4:	00000013          	addi	x0,x0,0
    99d8:	00000013          	addi	x0,x0,0
    99dc:	00000013          	addi	x0,x0,0
    99e0:	00000013          	addi	x0,x0,0
    99e4:	00000013          	addi	x0,x0,0
    99e8:	00000013          	addi	x0,x0,0
    99ec:	00000013          	addi	x0,x0,0
    99f0:	00000013          	addi	x0,x0,0
    99f4:	00000013          	addi	x0,x0,0
    99f8:	00000013          	addi	x0,x0,0
    99fc:	00000013          	addi	x0,x0,0
    9a00:	00000013          	addi	x0,x0,0
    9a04:	00000013          	addi	x0,x0,0
    9a08:	00000013          	addi	x0,x0,0
    9a0c:	00000013          	addi	x0,x0,0
    9a10:	00000013          	addi	x0,x0,0
    9a14:	00000013          	addi	x0,x0,0
    9a18:	00000013          	addi	x0,x0,0
    9a1c:	00000013          	addi	x0,x0,0
    9a20:	00000013          	addi	x0,x0,0
    9a24:	00000013          	addi	x0,x0,0
    9a28:	00000013          	addi	x0,x0,0
    9a2c:	00000013          	addi	x0,x0,0
    9a30:	00000013          	addi	x0,x0,0
    9a34:	00000013          	addi	x0,x0,0
    9a38:	00000013          	addi	x0,x0,0
    9a3c:	00000013          	addi	x0,x0,0
    9a40:	00000013          	addi	x0,x0,0
    9a44:	00000013          	addi	x0,x0,0
    9a48:	00000013          	addi	x0,x0,0
    9a4c:	00000013          	addi	x0,x0,0
    9a50:	00000013          	addi	x0,x0,0
    9a54:	00000013          	addi	x0,x0,0
    9a58:	00000013          	addi	x0,x0,0
    9a5c:	00000013          	addi	x0,x0,0
    9a60:	00000013          	addi	x0,x0,0
    9a64:	00000013          	addi	x0,x0,0
    9a68:	00000013          	addi	x0,x0,0
    9a6c:	00000013          	addi	x0,x0,0
    9a70:	00000013          	addi	x0,x0,0
    9a74:	00000013          	addi	x0,x0,0
    9a78:	00000013          	addi	x0,x0,0
    9a7c:	00000013          	addi	x0,x0,0
    9a80:	00000013          	addi	x0,x0,0
    9a84:	00000013          	addi	x0,x0,0
    9a88:	00000013          	addi	x0,x0,0
    9a8c:	00000013          	addi	x0,x0,0
    9a90:	00000013          	addi	x0,x0,0
    9a94:	00000013          	addi	x0,x0,0
    9a98:	00000013          	addi	x0,x0,0
    9a9c:	00000013          	addi	x0,x0,0
    9aa0:	00000013          	addi	x0,x0,0
    9aa4:	00000013          	addi	x0,x0,0
    9aa8:	00000013          	addi	x0,x0,0
    9aac:	00000013          	addi	x0,x0,0
    9ab0:	00000013          	addi	x0,x0,0
    9ab4:	00000013          	addi	x0,x0,0
    9ab8:	00000013          	addi	x0,x0,0
    9abc:	00000013          	addi	x0,x0,0
    9ac0:	00000013          	addi	x0,x0,0
    9ac4:	00000013          	addi	x0,x0,0
    9ac8:	00000013          	addi	x0,x0,0
    9acc:	00000013          	addi	x0,x0,0
    9ad0:	00000013          	addi	x0,x0,0
    9ad4:	00000013          	addi	x0,x0,0
    9ad8:	00000013          	addi	x0,x0,0
    9adc:	00000013          	addi	x0,x0,0
    9ae0:	00000013          	addi	x0,x0,0
    9ae4:	00000013          	addi	x0,x0,0
    9ae8:	00000013          	addi	x0,x0,0
    9aec:	00000013          	addi	x0,x0,0
    9af0:	00000013          	addi	x0,x0,0
    9af4:	00000013          	addi	x0,x0,0
    9af8:	00000013          	addi	x0,x0,0
    9afc:	00000013          	addi	x0,x0,0
    9b00:	00000013          	addi	x0,x0,0
    9b04:	00000013          	addi	x0,x0,0
    9b08:	00000013          	addi	x0,x0,0
    9b0c:	00000013          	addi	x0,x0,0
    9b10:	00000013          	addi	x0,x0,0
    9b14:	00000013          	addi	x0,x0,0
    9b18:	00000013          	addi	x0,x0,0
    9b1c:	00000013          	addi	x0,x0,0
    9b20:	00000013          	addi	x0,x0,0
    9b24:	00000013          	addi	x0,x0,0
    9b28:	00000013          	addi	x0,x0,0
    9b2c:	00000013          	addi	x0,x0,0
    9b30:	00000013          	addi	x0,x0,0
    9b34:	00000013          	addi	x0,x0,0
    9b38:	00000013          	addi	x0,x0,0
    9b3c:	00000013          	addi	x0,x0,0
    9b40:	00000013          	addi	x0,x0,0
    9b44:	00000013          	addi	x0,x0,0
    9b48:	00000013          	addi	x0,x0,0
    9b4c:	00000013          	addi	x0,x0,0
    9b50:	00000013          	addi	x0,x0,0
    9b54:	00000013          	addi	x0,x0,0
    9b58:	00000013          	addi	x0,x0,0
    9b5c:	00000013          	addi	x0,x0,0
    9b60:	00000013          	addi	x0,x0,0
    9b64:	00000013          	addi	x0,x0,0
    9b68:	00000013          	addi	x0,x0,0
    9b6c:	00000013          	addi	x0,x0,0
    9b70:	00000013          	addi	x0,x0,0
    9b74:	00000013          	addi	x0,x0,0
    9b78:	00000013          	addi	x0,x0,0
    9b7c:	00000013          	addi	x0,x0,0
    9b80:	00000013          	addi	x0,x0,0
    9b84:	00000013          	addi	x0,x0,0
    9b88:	00000013          	addi	x0,x0,0
    9b8c:	00000013          	addi	x0,x0,0
    9b90:	00000013          	addi	x0,x0,0
    9b94:	00000013          	addi	x0,x0,0
    9b98:	00000013          	addi	x0,x0,0
    9b9c:	00000013          	addi	x0,x0,0
    9ba0:	00000013          	addi	x0,x0,0
    9ba4:	00000013          	addi	x0,x0,0
    9ba8:	00000013          	addi	x0,x0,0
    9bac:	00000013          	addi	x0,x0,0
    9bb0:	00000013          	addi	x0,x0,0
    9bb4:	00000013          	addi	x0,x0,0
    9bb8:	00000013          	addi	x0,x0,0
    9bbc:	00000013          	addi	x0,x0,0
    9bc0:	00000013          	addi	x0,x0,0
    9bc4:	00000013          	addi	x0,x0,0
    9bc8:	00000013          	addi	x0,x0,0
    9bcc:	00000013          	addi	x0,x0,0
    9bd0:	00000013          	addi	x0,x0,0
    9bd4:	00000013          	addi	x0,x0,0
    9bd8:	00000013          	addi	x0,x0,0
    9bdc:	00000013          	addi	x0,x0,0
    9be0:	00000013          	addi	x0,x0,0
    9be4:	00000013          	addi	x0,x0,0
    9be8:	00000013          	addi	x0,x0,0
    9bec:	00000013          	addi	x0,x0,0
    9bf0:	00000013          	addi	x0,x0,0
    9bf4:	00000013          	addi	x0,x0,0
    9bf8:	00000013          	addi	x0,x0,0
    9bfc:	00000013          	addi	x0,x0,0
    9c00:	00000013          	addi	x0,x0,0
    9c04:	00000013          	addi	x0,x0,0
    9c08:	00000013          	addi	x0,x0,0
    9c0c:	00000013          	addi	x0,x0,0
    9c10:	00000013          	addi	x0,x0,0
    9c14:	00000013          	addi	x0,x0,0
    9c18:	00000013          	addi	x0,x0,0
    9c1c:	00000013          	addi	x0,x0,0
    9c20:	00000013          	addi	x0,x0,0
    9c24:	00000013          	addi	x0,x0,0
    9c28:	00000013          	addi	x0,x0,0
    9c2c:	00000013          	addi	x0,x0,0
    9c30:	00000013          	addi	x0,x0,0
    9c34:	00000013          	addi	x0,x0,0
    9c38:	00000013          	addi	x0,x0,0
    9c3c:	00000013          	addi	x0,x0,0
    9c40:	00000013          	addi	x0,x0,0
    9c44:	00000013          	addi	x0,x0,0
    9c48:	00000013          	addi	x0,x0,0
    9c4c:	00000013          	addi	x0,x0,0
    9c50:	00000013          	addi	x0,x0,0
    9c54:	00000013          	addi	x0,x0,0
    9c58:	00000013          	addi	x0,x0,0
    9c5c:	00000013          	addi	x0,x0,0
    9c60:	00000013          	addi	x0,x0,0
    9c64:	00000013          	addi	x0,x0,0
    9c68:	00000013          	addi	x0,x0,0
    9c6c:	00000013          	addi	x0,x0,0
    9c70:	00000013          	addi	x0,x0,0
    9c74:	00000013          	addi	x0,x0,0
    9c78:	00000013          	addi	x0,x0,0
    9c7c:	00000013          	addi	x0,x0,0
    9c80:	00000013          	addi	x0,x0,0
    9c84:	00000013          	addi	x0,x0,0
    9c88:	00000013          	addi	x0,x0,0
    9c8c:	00000013          	addi	x0,x0,0
    9c90:	00000013          	addi	x0,x0,0
    9c94:	00000013          	addi	x0,x0,0
    9c98:	00000013          	addi	x0,x0,0
    9c9c:	00000013          	addi	x0,x0,0
    9ca0:	00000013          	addi	x0,x0,0
    9ca4:	00000013          	addi	x0,x0,0
    9ca8:	00000013          	addi	x0,x0,0
    9cac:	00000013          	addi	x0,x0,0
    9cb0:	00000013          	addi	x0,x0,0
    9cb4:	00000013          	addi	x0,x0,0
    9cb8:	00000013          	addi	x0,x0,0
    9cbc:	00000013          	addi	x0,x0,0
    9cc0:	00000013          	addi	x0,x0,0
    9cc4:	00000013          	addi	x0,x0,0
    9cc8:	00000013          	addi	x0,x0,0
    9ccc:	00000013          	addi	x0,x0,0
    9cd0:	00000013          	addi	x0,x0,0
    9cd4:	00000013          	addi	x0,x0,0
    9cd8:	00000013          	addi	x0,x0,0
    9cdc:	00000013          	addi	x0,x0,0
    9ce0:	00000013          	addi	x0,x0,0
    9ce4:	00000013          	addi	x0,x0,0
    9ce8:	00000013          	addi	x0,x0,0
    9cec:	00000013          	addi	x0,x0,0
    9cf0:	00000013          	addi	x0,x0,0
    9cf4:	00000013          	addi	x0,x0,0
    9cf8:	00000013          	addi	x0,x0,0
    9cfc:	00000013          	addi	x0,x0,0
    9d00:	00000013          	addi	x0,x0,0
    9d04:	00000013          	addi	x0,x0,0
    9d08:	00000013          	addi	x0,x0,0
    9d0c:	00000013          	addi	x0,x0,0
    9d10:	00000013          	addi	x0,x0,0
    9d14:	00000013          	addi	x0,x0,0
    9d18:	00000013          	addi	x0,x0,0
    9d1c:	00000013          	addi	x0,x0,0
    9d20:	00000013          	addi	x0,x0,0
    9d24:	00000013          	addi	x0,x0,0
    9d28:	00000013          	addi	x0,x0,0
    9d2c:	00000013          	addi	x0,x0,0
    9d30:	00000013          	addi	x0,x0,0
    9d34:	00000013          	addi	x0,x0,0
    9d38:	00000013          	addi	x0,x0,0
    9d3c:	00000013          	addi	x0,x0,0
    9d40:	00000013          	addi	x0,x0,0
    9d44:	00000013          	addi	x0,x0,0
    9d48:	00000013          	addi	x0,x0,0
    9d4c:	00000013          	addi	x0,x0,0
    9d50:	00000013          	addi	x0,x0,0
    9d54:	00000013          	addi	x0,x0,0
    9d58:	00000013          	addi	x0,x0,0
    9d5c:	00000013          	addi	x0,x0,0
    9d60:	00000013          	addi	x0,x0,0
    9d64:	00000013          	addi	x0,x0,0
    9d68:	00000013          	addi	x0,x0,0
    9d6c:	00000013          	addi	x0,x0,0
    9d70:	00000013          	addi	x0,x0,0
    9d74:	00000013          	addi	x0,x0,0
    9d78:	00000013          	addi	x0,x0,0
    9d7c:	00000013          	addi	x0,x0,0
    9d80:	00000013          	addi	x0,x0,0
    9d84:	00000013          	addi	x0,x0,0
    9d88:	00000013          	addi	x0,x0,0
    9d8c:	00000013          	addi	x0,x0,0
    9d90:	00000013          	addi	x0,x0,0
    9d94:	00000013          	addi	x0,x0,0
    9d98:	00000013          	addi	x0,x0,0
    9d9c:	00000013          	addi	x0,x0,0
    9da0:	00000013          	addi	x0,x0,0
    9da4:	00000013          	addi	x0,x0,0
    9da8:	00000013          	addi	x0,x0,0
    9dac:	00000013          	addi	x0,x0,0
    9db0:	00000013          	addi	x0,x0,0
    9db4:	00000013          	addi	x0,x0,0
    9db8:	00000013          	addi	x0,x0,0
    9dbc:	00000013          	addi	x0,x0,0
    9dc0:	00000013          	addi	x0,x0,0
    9dc4:	00000013          	addi	x0,x0,0
    9dc8:	00000013          	addi	x0,x0,0
    9dcc:	00000013          	addi	x0,x0,0
    9dd0:	00000013          	addi	x0,x0,0
    9dd4:	00000013          	addi	x0,x0,0
    9dd8:	00000013          	addi	x0,x0,0
    9ddc:	00000013          	addi	x0,x0,0
    9de0:	00000013          	addi	x0,x0,0
    9de4:	00000013          	addi	x0,x0,0
    9de8:	00000013          	addi	x0,x0,0
    9dec:	00000013          	addi	x0,x0,0
    9df0:	00000013          	addi	x0,x0,0
    9df4:	00000013          	addi	x0,x0,0
    9df8:	00000013          	addi	x0,x0,0
    9dfc:	00000013          	addi	x0,x0,0
    9e00:	00000013          	addi	x0,x0,0
    9e04:	00000013          	addi	x0,x0,0
    9e08:	00000013          	addi	x0,x0,0
    9e0c:	00000013          	addi	x0,x0,0
    9e10:	00000013          	addi	x0,x0,0
    9e14:	00000013          	addi	x0,x0,0
    9e18:	00000013          	addi	x0,x0,0
    9e1c:	00000013          	addi	x0,x0,0
    9e20:	00000013          	addi	x0,x0,0
    9e24:	00000013          	addi	x0,x0,0
    9e28:	00000013          	addi	x0,x0,0
    9e2c:	00000013          	addi	x0,x0,0
    9e30:	00000013          	addi	x0,x0,0
    9e34:	00000013          	addi	x0,x0,0
    9e38:	00000013          	addi	x0,x0,0
    9e3c:	00000013          	addi	x0,x0,0
    9e40:	00000013          	addi	x0,x0,0
    9e44:	00000013          	addi	x0,x0,0
    9e48:	00000013          	addi	x0,x0,0
    9e4c:	00000013          	addi	x0,x0,0
    9e50:	00000013          	addi	x0,x0,0
    9e54:	00000013          	addi	x0,x0,0
    9e58:	00000013          	addi	x0,x0,0
    9e5c:	00000013          	addi	x0,x0,0
    9e60:	00000013          	addi	x0,x0,0
    9e64:	00000013          	addi	x0,x0,0
    9e68:	00000013          	addi	x0,x0,0
    9e6c:	00000013          	addi	x0,x0,0
    9e70:	00000013          	addi	x0,x0,0
    9e74:	00000013          	addi	x0,x0,0
    9e78:	00000013          	addi	x0,x0,0
    9e7c:	00000013          	addi	x0,x0,0
    9e80:	00000013          	addi	x0,x0,0
    9e84:	00000013          	addi	x0,x0,0
    9e88:	00000013          	addi	x0,x0,0
    9e8c:	00000013          	addi	x0,x0,0
    9e90:	00000013          	addi	x0,x0,0
    9e94:	00000013          	addi	x0,x0,0
    9e98:	00000013          	addi	x0,x0,0
    9e9c:	00000013          	addi	x0,x0,0
    9ea0:	00000013          	addi	x0,x0,0
    9ea4:	00000013          	addi	x0,x0,0
    9ea8:	00000013          	addi	x0,x0,0
    9eac:	00000013          	addi	x0,x0,0
    9eb0:	00000013          	addi	x0,x0,0
    9eb4:	00000013          	addi	x0,x0,0
    9eb8:	00000013          	addi	x0,x0,0
    9ebc:	00000013          	addi	x0,x0,0
    9ec0:	00000013          	addi	x0,x0,0
    9ec4:	00000013          	addi	x0,x0,0
    9ec8:	00000013          	addi	x0,x0,0
    9ecc:	00000013          	addi	x0,x0,0
    9ed0:	00000013          	addi	x0,x0,0
    9ed4:	00000013          	addi	x0,x0,0
    9ed8:	00000013          	addi	x0,x0,0
    9edc:	00000013          	addi	x0,x0,0
    9ee0:	00000013          	addi	x0,x0,0
    9ee4:	00000013          	addi	x0,x0,0
    9ee8:	00000013          	addi	x0,x0,0
    9eec:	00000013          	addi	x0,x0,0
    9ef0:	00000013          	addi	x0,x0,0
    9ef4:	00000013          	addi	x0,x0,0
    9ef8:	00000013          	addi	x0,x0,0
    9efc:	00000013          	addi	x0,x0,0
    9f00:	00000013          	addi	x0,x0,0
    9f04:	00000013          	addi	x0,x0,0
    9f08:	00000013          	addi	x0,x0,0
    9f0c:	00000013          	addi	x0,x0,0
    9f10:	00000013          	addi	x0,x0,0
    9f14:	00000013          	addi	x0,x0,0
    9f18:	00000013          	addi	x0,x0,0
    9f1c:	00000013          	addi	x0,x0,0
    9f20:	00000013          	addi	x0,x0,0
    9f24:	00000013          	addi	x0,x0,0
    9f28:	00000013          	addi	x0,x0,0
    9f2c:	00000013          	addi	x0,x0,0
    9f30:	00000013          	addi	x0,x0,0
    9f34:	00000013          	addi	x0,x0,0
    9f38:	00000013          	addi	x0,x0,0
    9f3c:	00000013          	addi	x0,x0,0
    9f40:	00000013          	addi	x0,x0,0
    9f44:	00000013          	addi	x0,x0,0
    9f48:	00000013          	addi	x0,x0,0
    9f4c:	00000013          	addi	x0,x0,0
    9f50:	00000013          	addi	x0,x0,0
    9f54:	00000013          	addi	x0,x0,0
    9f58:	00000013          	addi	x0,x0,0
    9f5c:	00000013          	addi	x0,x0,0
    9f60:	00000013          	addi	x0,x0,0
    9f64:	00000013          	addi	x0,x0,0
    9f68:	00000013          	addi	x0,x0,0
    9f6c:	00000013          	addi	x0,x0,0
    9f70:	00000013          	addi	x0,x0,0
    9f74:	00000013          	addi	x0,x0,0
    9f78:	00000013          	addi	x0,x0,0
    9f7c:	00000013          	addi	x0,x0,0
    9f80:	00000013          	addi	x0,x0,0
    9f84:	00000013          	addi	x0,x0,0
    9f88:	00000013          	addi	x0,x0,0
    9f8c:	00000013          	addi	x0,x0,0
    9f90:	00000013          	addi	x0,x0,0
    9f94:	00000013          	addi	x0,x0,0
    9f98:	00000013          	addi	x0,x0,0
    9f9c:	00000013          	addi	x0,x0,0
    9fa0:	00000013          	addi	x0,x0,0
    9fa4:	00000013          	addi	x0,x0,0
    9fa8:	00000013          	addi	x0,x0,0
    9fac:	00000013          	addi	x0,x0,0
    9fb0:	00000013          	addi	x0,x0,0
    9fb4:	00000013          	addi	x0,x0,0
    9fb8:	00000013          	addi	x0,x0,0
    9fbc:	00000013          	addi	x0,x0,0
    9fc0:	00000013          	addi	x0,x0,0
    9fc4:	00000013          	addi	x0,x0,0
    9fc8:	00000013          	addi	x0,x0,0
    9fcc:	00000013          	addi	x0,x0,0
    9fd0:	00000013          	addi	x0,x0,0
    9fd4:	00000013          	addi	x0,x0,0
    9fd8:	00000013          	addi	x0,x0,0
    9fdc:	00000013          	addi	x0,x0,0
    9fe0:	00000013          	addi	x0,x0,0
    9fe4:	00000013          	addi	x0,x0,0
    9fe8:	00000013          	addi	x0,x0,0
    9fec:	00000013          	addi	x0,x0,0
    9ff0:	00000013          	addi	x0,x0,0
    9ff4:	00000013          	addi	x0,x0,0
    9ff8:	00000013          	addi	x0,x0,0
    9ffc:	00000013          	addi	x0,x0,0
  .p2align 12 # align to 4096 bytes
11:
  .insn 0x81514063 # blt x2, x21, -4096; GCC is turning this into a small branch and a jump
    a000:	81514063          	blt	x2,x21,9000 <I_blt_cg_cp_imm_edges_branch_all+0x3394>
  addi x27, x27, 300 # shouldn't happen
    a004:	12cd8d93          	addi	x27,x27,300
  j 19f # shouldn't happen
    a008:	0040006f          	jal	x0,a00c <I_blt_cg_cp_imm_edges_branch_all+0x43a0>

# Shouldn't reach here, write failure code
19:
  LI(x27, -1)
    a00c:	fff00d93          	addi	x27,x0,-1

# end of branches
20:

  # Check if x27 contains the expected result. x6 is the signature ptr, x5 is the link ptr, x4 is a temp reg.
  RVTEST_SIGUPD(x6, x5, x4, x27, I_blt_cg_cp_imm_edges_branch_all, I_blt_cg_cp_imm_edges_branch_all_str)
    a010:	00032203          	lw	x4,0(x6)
    a014:	01b20863          	beq	x4,x27,a024 <I_blt_cg_cp_imm_edges_branch_all+0x43b8>
    a018:	064002ef          	jal	x5,a07c <failedtest_x5_x4>
    a01c:	00005c6c          	.word	0x00005c6c
    a020:	00011837          	.word	0x00011837
    a024:	00430313          	addi	x6,x6,4

  mv x2, x6 # restore signature pointer to default register for teardown
    a028:	00030113          	addi	x2,x6,0

0000a02c <cleanup_epilogs>:
    a02c:	00000013          	addi	x0,x0,0
    a030:	00000013          	addi	x0,x0,0
    a034:	00000013          	addi	x0,x0,0
    a038:	00000013          	addi	x0,x0,0
    a03c:	00000013          	addi	x0,x0,0

// Instantiate trap handlers and other epilog code, call RVMODEL_HALT at end of test
RVTEST_CODE_END
    a040:	00008517          	auipc	x10,0x8
    a044:	ea450513          	addi	x10,x10,-348 # 11ee4 <successstr>
    a048:	00000013          	addi	x0,x0,0
    a04c:	00000013          	addi	x0,x0,0
    a050:	00000013          	addi	x0,x0,0
    a054:	00000013          	addi	x0,x0,0
    a058:	00000013          	addi	x0,x0,0
    a05c:	00000013          	addi	x0,x0,0
    a060:	00019097          	auipc	x1,0x19
    a064:	1a4080e7          	jalr	x1,420(x1) # 23204 <rvmodel_io_write_str>
    a068:	00019097          	auipc	x1,0x19
    a06c:	1a0080e7          	jalr	x1,416(x1) # 23208 <rvmodel_halt_pass>

0000a070 <abort_test>:
    a070:	bad0e737          	lui	x14,0xbad0e
    a074:	ead70713          	addi	x14,x14,-339 # bad0dead <absimm+0x4b743ba4>
    a078:	fb5ff06f          	jal	x0,a02c <cleanup_epilogs>

0000a07c <failedtest_x5_x4>:
    a07c:	00008217          	auipc	x4,0x8
    a080:	80420213          	addi	x4,x4,-2044 # 11880 <begin_failure_scratch>
    a084:	02522423          	sw	x5,40(x4) # 28 <MMODE_SIG+0x25>
    a088:	00122423          	sw	x1,8(x4) # 8 <MMODE_SIG+0x5>
    a08c:	00022023          	sw	x0,0(x4) # 0 <rvtest_entry_point>
    a090:	0b00006f          	jal	x0,a140 <failedtest_saveregs>

0000a094 <failedtest_x8_x7>:
    a094:	00007397          	auipc	x7,0x7
    a098:	7ec38393          	addi	x7,x7,2028 # 11880 <begin_failure_scratch>
    a09c:	0483a023          	sw	x8,64(x7)
    a0a0:	0243a023          	sw	x4,32(x7)
    a0a4:	0253a423          	sw	x5,40(x7)
    a0a8:	0013a423          	sw	x1,8(x7)
    a0ac:	0003a023          	sw	x0,0(x7)
    a0b0:	00038213          	addi	x4,x7,0
    a0b4:	00040293          	addi	x5,x8,0
    a0b8:	0880006f          	jal	x0,a140 <failedtest_saveregs>

0000a0bc <failedtest_x14_x13>:
    a0bc:	00007697          	auipc	x13,0x7
    a0c0:	7c468693          	addi	x13,x13,1988 # 11880 <begin_failure_scratch>
    a0c4:	06e6a823          	sw	x14,112(x13)
    a0c8:	0246a023          	sw	x4,32(x13)
    a0cc:	0256a423          	sw	x5,40(x13)
    a0d0:	0016a423          	sw	x1,8(x13)
    a0d4:	0006a023          	sw	x0,0(x13)
    a0d8:	00068213          	addi	x4,x13,0
    a0dc:	00070293          	addi	x5,x14,0
    a0e0:	0600006f          	jal	x0,a140 <failedtest_saveregs>

0000a0e4 <failedtest_trap_x7_x9>:
    a0e4:	00007497          	auipc	x9,0x7
    a0e8:	79c48493          	addi	x9,x9,1948 # 11880 <begin_failure_scratch>
    a0ec:	0674a423          	sw	x7,104(x9)
    a0f0:	0244a023          	sw	x4,32(x9)
    a0f4:	0254a423          	sw	x5,40(x9)
    a0f8:	0014a423          	sw	x1,8(x9)
    a0fc:	00300093          	addi	x1,x0,3
    a100:	0014a023          	sw	x1,0(x9)
    a104:	00048213          	addi	x4,x9,0
    a108:	00038293          	addi	x5,x7,0
    a10c:	342020f3          	csrrs	x1,mcause,x0
    a110:	00008497          	auipc	x9,0x8
    a114:	8e048493          	addi	x9,x9,-1824 # 119f0 <saved_mcause>
    a118:	0014a023          	sw	x1,0(x9)
    a11c:	343020f3          	csrrs	x1,mtval,x0
    a120:	00008497          	auipc	x9,0x8
    a124:	8d848493          	addi	x9,x9,-1832 # 119f8 <saved_mtval>
    a128:	0014a023          	sw	x1,0(x9)
    a12c:	300020f3          	csrrs	x1,mstatus,x0
    a130:	00008497          	auipc	x9,0x8
    a134:	8d048493          	addi	x9,x9,-1840 # 11a00 <saved_mstatus>
    a138:	0014a023          	sw	x1,0(x9)
    a13c:	0040006f          	jal	x0,a140 <failedtest_saveregs>

0000a140 <failedtest_saveregs>:
    a140:	00222823          	sw	x2,16(x4) # 10 <MMODE_SIG+0xd>
    a144:	00322c23          	sw	x3,24(x4) # 18 <MMODE_SIG+0x15>
    a148:	02622823          	sw	x6,48(x4) # 30 <MMODE_SIG+0x2d>
    a14c:	02722c23          	sw	x7,56(x4) # 38 <MMODE_SIG+0x35>
    a150:	04822023          	sw	x8,64(x4) # 40 <MMODE_SIG+0x3d>
    a154:	04922423          	sw	x9,72(x4) # 48 <MMODE_SIG+0x45>
    a158:	04a22823          	sw	x10,80(x4) # 50 <MMODE_SIG+0x4d>
    a15c:	04b22c23          	sw	x11,88(x4) # 58 <MMODE_SIG+0x55>
    a160:	06c22023          	sw	x12,96(x4) # 60 <MMODE_SIG+0x5d>
    a164:	06d22423          	sw	x13,104(x4) # 68 <MMODE_SIG+0x65>
    a168:	06e22823          	sw	x14,112(x4) # 70 <MMODE_SIG+0x6d>
    a16c:	06f22c23          	sw	x15,120(x4) # 78 <MMODE_SIG+0x75>
    a170:	09022023          	sw	x16,128(x4) # 80 <MMODE_SIG+0x7d>
    a174:	09122423          	sw	x17,136(x4) # 88 <MMODE_SIG+0x85>
    a178:	09222823          	sw	x18,144(x4) # 90 <MMODE_SIG+0x8d>
    a17c:	09322c23          	sw	x19,152(x4) # 98 <MMODE_SIG+0x95>
    a180:	0b422023          	sw	x20,160(x4) # a0 <MMODE_SIG+0x9d>
    a184:	0b522423          	sw	x21,168(x4) # a8 <MMODE_SIG+0xa5>
    a188:	0b622823          	sw	x22,176(x4) # b0 <MMODE_SIG+0xad>
    a18c:	0b722c23          	sw	x23,184(x4) # b8 <MMODE_SIG+0xb5>
    a190:	0d822023          	sw	x24,192(x4) # c0 <MMODE_SIG+0xbd>
    a194:	0d922423          	sw	x25,200(x4) # c8 <MMODE_SIG+0xc5>
    a198:	0da22823          	sw	x26,208(x4) # d0 <MMODE_SIG+0xcd>
    a19c:	0db22c23          	sw	x27,216(x4) # d8 <MMODE_SIG+0xd5>
    a1a0:	0fc22023          	sw	x28,224(x4) # e0 <MMODE_SIG+0xdd>
    a1a4:	0fd22423          	sw	x29,232(x4) # e8 <MMODE_SIG+0xe5>
    a1a8:	0fe22823          	sw	x30,240(x4) # f0 <MMODE_SIG+0xed>
    a1ac:	0ff22c23          	sw	x31,248(x4) # f8 <MMODE_SIG+0xf5>

0000a1b0 <failedtest_saveresults>:
    a1b0:	00007497          	auipc	x9,0x7
    a1b4:	6d04a483          	lw	x9,1744(x9) # 11880 <begin_failure_scratch>
    a1b8:	00300513          	addi	x10,x0,3
    a1bc:	06a48863          	beq	x9,x10,a22c <failedtest_saveresults_trap>

0000a1c0 <failedtest_saveresults_int>:
    a1c0:	ffa2d303          	lhu	x6,-6(x5)
    a1c4:	ff82d383          	lhu	x7,-8(x5)
    a1c8:	01031313          	slli	x6,x6,0x10
    a1cc:	00736333          	or	x6,x6,x7
    a1d0:	00f35393          	srli	x7,x6,0xf
    a1d4:	01f3f393          	andi	x7,x7,31
    a1d8:	01435413          	srli	x8,x6,0x14
    a1dc:	01f47413          	andi	x8,x8,31
    a1e0:	10822223          	sw	x8,260(x4) # 104 <MMODE_SIG+0x101>
    a1e4:	00341313          	slli	x6,x8,0x3
    a1e8:	00620333          	add	x6,x4,x6
    a1ec:	00032303          	lw	x6,0(x6)
    a1f0:	10622823          	sw	x6,272(x4) # 110 <MMODE_SIG+0x10d>
    a1f4:	ff62d303          	lhu	x6,-10(x5)
    a1f8:	ff42d383          	lhu	x7,-12(x5)
    a1fc:	01031313          	slli	x6,x6,0x10
    a200:	00736333          	or	x6,x6,x7
    a204:	41435393          	srai	x7,x6,0x14
    a208:	00f35313          	srli	x6,x6,0xf
    a20c:	01f37313          	andi	x6,x6,31
    a210:	00331313          	slli	x6,x6,0x3
    a214:	00620333          	add	x6,x4,x6
    a218:	00032303          	lw	x6,0(x6)
    a21c:	00730333          	add	x6,x6,x7
    a220:	00032303          	lw	x6,0(x6)
    a224:	10622c23          	sw	x6,280(x4) # 118 <MMODE_SIG+0x115>
    a228:	3d80006f          	jal	x0,a600 <failedtest_saveresults_common>

0000a22c <failedtest_saveresults_trap>:
    a22c:	0042a303          	lw	x6,4(x5)
    a230:	00007817          	auipc	x16,0x7
    a234:	7a880813          	addi	x16,x16,1960 # 119d8 <trap_diag_fail_str_ptr>
    a238:	00682023          	sw	x6,0(x16)
    a23c:	0002a303          	lw	x6,0(x5)
    a240:	10622423          	sw	x6,264(x4) # 108 <MMODE_SIG+0x105>
    a244:	00007817          	auipc	x16,0x7
    a248:	79480813          	addi	x16,x16,1940 # 119d8 <trap_diag_fail_str_ptr>
    a24c:	00082303          	lw	x6,0(x16)
    a250:	00008397          	auipc	x7,0x8
    a254:	e5a38393          	addi	x7,x7,-422 # 120aa <trap_sig_offset_mismatch>
    a258:	28730463          	beq	x6,x7,a4e0 <trap_diag_offset_mismatch>
    a25c:	00000413          	addi	x8,x0,0
    a260:	00007817          	auipc	x16,0x7
    a264:	75080813          	addi	x16,x16,1872 # 119b0 <trap_diag_subtype>
    a268:	00882023          	sw	x8,0(x16)
    a26c:	00008397          	auipc	x7,0x8
    a270:	ea238393          	addi	x7,x7,-350 # 1210e <sv_Mvect_str>
    a274:	00731863          	bne	x6,x7,a284 <failedtest_saveresults_trap+0x58>
    a278:	00100413          	addi	x8,x0,1
    a27c:	00000493          	addi	x9,x0,0
    a280:	2e00006f          	jal	x0,a560 <trap_diag_field_identified>
    a284:	00008397          	auipc	x7,0x8
    a288:	f8c38393          	addi	x7,x7,-116 # 12210 <sv_Mcause_str>
    a28c:	00731863          	bne	x6,x7,a29c <failedtest_saveresults_trap+0x70>
    a290:	00200413          	addi	x8,x0,2
    a294:	00000493          	addi	x9,x0,0
    a298:	2c80006f          	jal	x0,a560 <trap_diag_field_identified>
    a29c:	00008397          	auipc	x7,0x8
    a2a0:	06f38393          	addi	x7,x7,111 # 1230b <sv_Mepc_str>
    a2a4:	00731863          	bne	x6,x7,a2b4 <failedtest_saveresults_trap+0x88>
    a2a8:	00300413          	addi	x8,x0,3
    a2ac:	00000493          	addi	x9,x0,0
    a2b0:	2b00006f          	jal	x0,a560 <trap_diag_field_identified>
    a2b4:	00008397          	auipc	x7,0x8
    a2b8:	14a38393          	addi	x7,x7,330 # 123fe <sv_Mtval_str>
    a2bc:	00731863          	bne	x6,x7,a2cc <failedtest_saveresults_trap+0xa0>
    a2c0:	00400413          	addi	x8,x0,4
    a2c4:	00000493          	addi	x9,x0,0
    a2c8:	2980006f          	jal	x0,a560 <trap_diag_field_identified>
    a2cc:	00008397          	auipc	x7,0x8
    a2d0:	2a538393          	addi	x7,x7,677 # 12571 <sv_Mip_str>
    a2d4:	00731863          	bne	x6,x7,a2e4 <failedtest_saveresults_trap+0xb8>
    a2d8:	00500413          	addi	x8,x0,5
    a2dc:	00000493          	addi	x9,x0,0
    a2e0:	2800006f          	jal	x0,a560 <trap_diag_field_identified>
    a2e4:	00008397          	auipc	x7,0x8
    a2e8:	21138393          	addi	x7,x7,529 # 124f5 <sv_Mtval2_str>
    a2ec:	00731863          	bne	x6,x7,a2fc <failedtest_saveresults_trap+0xd0>
    a2f0:	00600413          	addi	x8,x0,6
    a2f4:	00000493          	addi	x9,x0,0
    a2f8:	2680006f          	jal	x0,a560 <trap_diag_field_identified>
    a2fc:	00008397          	auipc	x7,0x8
    a300:	23738393          	addi	x7,x7,567 # 12533 <sv_Mtinst_str>
    a304:	00731863          	bne	x6,x7,a314 <failedtest_saveresults_trap+0xe8>
    a308:	00700413          	addi	x8,x0,7
    a30c:	00000493          	addi	x9,x0,0
    a310:	2500006f          	jal	x0,a560 <trap_diag_field_identified>
    a314:	00008397          	auipc	x7,0x8
    a318:	e3a38393          	addi	x7,x7,-454 # 1214e <sv_Svect_str>
    a31c:	00731863          	bne	x6,x7,a32c <failedtest_saveresults_trap+0x100>
    a320:	00100413          	addi	x8,x0,1
    a324:	00100493          	addi	x9,x0,1
    a328:	2380006f          	jal	x0,a560 <trap_diag_field_identified>
    a32c:	00008397          	auipc	x7,0x8
    a330:	f2238393          	addi	x7,x7,-222 # 1224e <sv_Scause_str>
    a334:	00731863          	bne	x6,x7,a344 <failedtest_saveresults_trap+0x118>
    a338:	00200413          	addi	x8,x0,2
    a33c:	00100493          	addi	x9,x0,1
    a340:	2200006f          	jal	x0,a560 <trap_diag_field_identified>
    a344:	00008397          	auipc	x7,0x8
    a348:	00338393          	addi	x7,x7,3 # 12347 <sv_Sepc_str>
    a34c:	00731863          	bne	x6,x7,a35c <failedtest_saveresults_trap+0x130>
    a350:	00300413          	addi	x8,x0,3
    a354:	00100493          	addi	x9,x0,1
    a358:	2080006f          	jal	x0,a560 <trap_diag_field_identified>
    a35c:	00008397          	auipc	x7,0x8
    a360:	0df38393          	addi	x7,x7,223 # 1243b <sv_Stval_str>
    a364:	00731863          	bne	x6,x7,a374 <failedtest_saveresults_trap+0x148>
    a368:	00400413          	addi	x8,x0,4
    a36c:	00100493          	addi	x9,x0,1
    a370:	1f00006f          	jal	x0,a560 <trap_diag_field_identified>
    a374:	00008397          	auipc	x7,0x8
    a378:	23838393          	addi	x7,x7,568 # 125ac <sv_Sip_str>
    a37c:	00731863          	bne	x6,x7,a38c <failedtest_saveresults_trap+0x160>
    a380:	00500413          	addi	x8,x0,5
    a384:	00100493          	addi	x9,x0,1
    a388:	1d80006f          	jal	x0,a560 <trap_diag_field_identified>
    a38c:	00008397          	auipc	x7,0x8
    a390:	e0238393          	addi	x7,x7,-510 # 1218e <sv_Hvect_str>
    a394:	00731863          	bne	x6,x7,a3a4 <failedtest_saveresults_trap+0x178>
    a398:	00100413          	addi	x8,x0,1
    a39c:	00200493          	addi	x9,x0,2
    a3a0:	1c00006f          	jal	x0,a560 <trap_diag_field_identified>
    a3a4:	00008397          	auipc	x7,0x8
    a3a8:	ee838393          	addi	x7,x7,-280 # 1228c <sv_Hcause_str>
    a3ac:	00731863          	bne	x6,x7,a3bc <failedtest_saveresults_trap+0x190>
    a3b0:	00200413          	addi	x8,x0,2
    a3b4:	00200493          	addi	x9,x0,2
    a3b8:	1a80006f          	jal	x0,a560 <trap_diag_field_identified>
    a3bc:	00008397          	auipc	x7,0x8
    a3c0:	fc738393          	addi	x7,x7,-57 # 12383 <sv_Hepc_str>
    a3c4:	00731863          	bne	x6,x7,a3d4 <failedtest_saveresults_trap+0x1a8>
    a3c8:	00300413          	addi	x8,x0,3
    a3cc:	00200493          	addi	x9,x0,2
    a3d0:	1900006f          	jal	x0,a560 <trap_diag_field_identified>
    a3d4:	00008397          	auipc	x7,0x8
    a3d8:	0a438393          	addi	x7,x7,164 # 12478 <sv_Htval_str>
    a3dc:	00731863          	bne	x6,x7,a3ec <failedtest_saveresults_trap+0x1c0>
    a3e0:	00400413          	addi	x8,x0,4
    a3e4:	00200493          	addi	x9,x0,2
    a3e8:	1780006f          	jal	x0,a560 <trap_diag_field_identified>
    a3ec:	00008397          	auipc	x7,0x8
    a3f0:	1fb38393          	addi	x7,x7,507 # 125e7 <sv_Hip_str>
    a3f4:	00731863          	bne	x6,x7,a404 <failedtest_saveresults_trap+0x1d8>
    a3f8:	00500413          	addi	x8,x0,5
    a3fc:	00200493          	addi	x9,x0,2
    a400:	1600006f          	jal	x0,a560 <trap_diag_field_identified>
    a404:	00008397          	auipc	x7,0x8
    a408:	dcb38393          	addi	x7,x7,-565 # 121cf <sv_Vvect_str>
    a40c:	00731863          	bne	x6,x7,a41c <failedtest_saveresults_trap+0x1f0>
    a410:	00100413          	addi	x8,x0,1
    a414:	00300493          	addi	x9,x0,3
    a418:	1480006f          	jal	x0,a560 <trap_diag_field_identified>
    a41c:	00008397          	auipc	x7,0x8
    a420:	eaf38393          	addi	x7,x7,-337 # 122cb <sv_Vcause_str>
    a424:	00731863          	bne	x6,x7,a434 <failedtest_saveresults_trap+0x208>
    a428:	00200413          	addi	x8,x0,2
    a42c:	00300493          	addi	x9,x0,3
    a430:	1300006f          	jal	x0,a560 <trap_diag_field_identified>
    a434:	00008397          	auipc	x7,0x8
    a438:	f8c38393          	addi	x7,x7,-116 # 123c0 <sv_Vepc_str>
    a43c:	00731863          	bne	x6,x7,a44c <failedtest_saveresults_trap+0x220>
    a440:	00300413          	addi	x8,x0,3
    a444:	00300493          	addi	x9,x0,3
    a448:	1180006f          	jal	x0,a560 <trap_diag_field_identified>
    a44c:	00008397          	auipc	x7,0x8
    a450:	06a38393          	addi	x7,x7,106 # 124b6 <sv_Vtval_str>
    a454:	00731863          	bne	x6,x7,a464 <failedtest_saveresults_trap+0x238>
    a458:	00400413          	addi	x8,x0,4
    a45c:	00300493          	addi	x9,x0,3
    a460:	1000006f          	jal	x0,a560 <trap_diag_field_identified>
    a464:	00008397          	auipc	x7,0x8
    a468:	1bf38393          	addi	x7,x7,447 # 12623 <sv_Vip_str>
    a46c:	00731863          	bne	x6,x7,a47c <failedtest_saveresults_trap+0x250>
    a470:	00500413          	addi	x8,x0,5
    a474:	00300493          	addi	x9,x0,3
    a478:	0e80006f          	jal	x0,a560 <trap_diag_field_identified>
    a47c:	00008397          	auipc	x7,0x8
    a480:	1e438393          	addi	x7,x7,484 # 12660 <Mclr_Mext_int_str>
    a484:	00731863          	bne	x6,x7,a494 <failedtest_saveresults_trap+0x268>
    a488:	00800413          	addi	x8,x0,8
    a48c:	00000493          	addi	x9,x0,0
    a490:	0d00006f          	jal	x0,a560 <trap_diag_field_identified>
    a494:	00008397          	auipc	x7,0x8
    a498:	21b38393          	addi	x7,x7,539 # 126af <Mclr_Sext_int_str>
    a49c:	00731863          	bne	x6,x7,a4ac <failedtest_saveresults_trap+0x280>
    a4a0:	00800413          	addi	x8,x0,8
    a4a4:	00000493          	addi	x9,x0,0
    a4a8:	0b80006f          	jal	x0,a560 <trap_diag_field_identified>
    a4ac:	00008397          	auipc	x7,0x8
    a4b0:	2fe38393          	addi	x7,x7,766 # 127aa <Sclr_Sext_int_str>
    a4b4:	00731863          	bne	x6,x7,a4c4 <failedtest_saveresults_trap+0x298>
    a4b8:	00800413          	addi	x8,x0,8
    a4bc:	00100493          	addi	x9,x0,1
    a4c0:	0a00006f          	jal	x0,a560 <trap_diag_field_identified>
    a4c4:	00008397          	auipc	x7,0x8
    a4c8:	3e238393          	addi	x7,x7,994 # 128a6 <Hclr_Sext_int_str>
    a4cc:	00731863          	bne	x6,x7,a4dc <failedtest_saveresults_trap+0x2b0>
    a4d0:	00800413          	addi	x8,x0,8
    a4d4:	00200493          	addi	x9,x0,2
    a4d8:	0880006f          	jal	x0,a560 <trap_diag_field_identified>
    a4dc:	1140006f          	jal	x0,a5f0 <trap_diag_generic_report>

0000a4e0 <trap_diag_offset_mismatch>:
    a4e0:	00900413          	addi	x8,x0,9
    a4e4:	00007817          	auipc	x16,0x7
    a4e8:	4cc80813          	addi	x16,x16,1228 # 119b0 <trap_diag_subtype>
    a4ec:	00882023          	sw	x8,0(x16)
    a4f0:	ffa2d303          	lhu	x6,-6(x5)
    a4f4:	ff82d383          	lhu	x7,-8(x5)
    a4f8:	01031313          	slli	x6,x6,0x10
    a4fc:	00736333          	or	x6,x6,x7
    a500:	01435413          	srli	x8,x6,0x14
    a504:	01f47413          	andi	x8,x8,31
    a508:	00341313          	slli	x6,x8,0x3
    a50c:	00620333          	add	x6,x4,x6
    a510:	00032303          	lw	x6,0(x6)
    a514:	00007817          	auipc	x16,0x7
    a518:	4b480813          	addi	x16,x16,1204 # 119c8 <trap_diag_actual_offset>
    a51c:	00682023          	sw	x6,0(x16)
    a520:	ff62d303          	lhu	x6,-10(x5)
    a524:	ff42d383          	lhu	x7,-12(x5)
    a528:	01031313          	slli	x6,x6,0x10
    a52c:	00736333          	or	x6,x6,x7
    a530:	41435393          	srai	x7,x6,0x14
    a534:	00f35313          	srli	x6,x6,0xf
    a538:	01f37313          	andi	x6,x6,31
    a53c:	00331313          	slli	x6,x6,0x3
    a540:	00620333          	add	x6,x4,x6
    a544:	00032303          	lw	x6,0(x6)
    a548:	00730333          	add	x6,x6,x7
    a54c:	00032303          	lw	x6,0(x6)
    a550:	00007817          	auipc	x16,0x7
    a554:	48080813          	addi	x16,x16,1152 # 119d0 <trap_diag_expected_offset>
    a558:	00682023          	sw	x6,0(x16)
    a55c:	0a40006f          	jal	x0,a600 <failedtest_saveresults_common>

0000a560 <trap_diag_field_identified>:
    a560:	00007817          	auipc	x16,0x7
    a564:	45080813          	addi	x16,x16,1104 # 119b0 <trap_diag_subtype>
    a568:	00882023          	sw	x8,0(x16)
    a56c:	00007817          	auipc	x16,0x7
    a570:	44880813          	addi	x16,x16,1096 # 119b4 <trap_diag_mode>
    a574:	00982023          	sw	x9,0(x16)
    a578:	ffa2d303          	lhu	x6,-6(x5)
    a57c:	ff82d383          	lhu	x7,-8(x5)
    a580:	01031313          	slli	x6,x6,0x10
    a584:	00736333          	or	x6,x6,x7
    a588:	01435713          	srli	x14,x6,0x14
    a58c:	01f77713          	andi	x14,x14,31
    a590:	00371313          	slli	x6,x14,0x3
    a594:	00620333          	add	x6,x4,x6
    a598:	00032303          	lw	x6,0(x6)
    a59c:	10622823          	sw	x6,272(x4) # 110 <MMODE_SIG+0x10d>
    a5a0:	00007817          	auipc	x16,0x7
    a5a4:	41880813          	addi	x16,x16,1048 # 119b8 <trap_diag_actual_value>
    a5a8:	00682023          	sw	x6,0(x16)
    a5ac:	ff62d303          	lhu	x6,-10(x5)
    a5b0:	ff42d383          	lhu	x7,-12(x5)
    a5b4:	01031313          	slli	x6,x6,0x10
    a5b8:	00736333          	or	x6,x6,x7
    a5bc:	41435393          	srai	x7,x6,0x14
    a5c0:	00f35313          	srli	x6,x6,0xf
    a5c4:	01f37313          	andi	x6,x6,31
    a5c8:	00331313          	slli	x6,x6,0x3
    a5cc:	00620333          	add	x6,x4,x6
    a5d0:	00032303          	lw	x6,0(x6)
    a5d4:	00730333          	add	x6,x6,x7
    a5d8:	00032303          	lw	x6,0(x6)
    a5dc:	10622c23          	sw	x6,280(x4) # 118 <MMODE_SIG+0x115>
    a5e0:	00007817          	auipc	x16,0x7
    a5e4:	3e080813          	addi	x16,x16,992 # 119c0 <trap_diag_expected_value>
    a5e8:	00682023          	sw	x6,0(x16)
    a5ec:	0140006f          	jal	x0,a600 <failedtest_saveresults_common>

0000a5f0 <trap_diag_generic_report>:
    a5f0:	00007817          	auipc	x16,0x7
    a5f4:	3c080813          	addi	x16,x16,960 # 119b0 <trap_diag_subtype>
    a5f8:	00082023          	sw	x0,0(x16)
    a5fc:	0040006f          	jal	x0,a600 <failedtest_saveresults_common>

0000a600 <failedtest_saveresults_common>:
    a600:	0002a303          	lw	x6,0(x5)
    a604:	10622423          	sw	x6,264(x4) # 108 <MMODE_SIG+0x105>
    a608:	00035383          	lhu	x7,0(x6)
    a60c:	0033f413          	andi	x8,x7,3
    a610:	00300493          	addi	x9,x0,3
    a614:	00941863          	bne	x8,x9,a624 <failedtest_saveresults_common+0x24>
    a618:	00235403          	lhu	x8,2(x6)
    a61c:	01041413          	slli	x8,x8,0x10
    a620:	0083e3b3          	or	x7,x7,x8
    a624:	10722023          	sw	x7,256(x4) # 100 <MMODE_SIG+0xfd>
    a628:	0042a303          	lw	x6,4(x5)
    a62c:	12622023          	sw	x6,288(x4) # 120 <MMODE_SIG+0x11d>

0000a630 <failedtest_report>:
    a630:	00000013          	addi	x0,x0,0
    a634:	00000013          	addi	x0,x0,0
    a638:	00000013          	addi	x0,x0,0
    a63c:	00000013          	addi	x0,x0,0
    a640:	00008517          	auipc	x10,0x8
    a644:	8da50513          	addi	x10,x10,-1830 # 11f1a <failstr>
    a648:	00000013          	addi	x0,x0,0
    a64c:	00000013          	addi	x0,x0,0
    a650:	00000013          	addi	x0,x0,0
    a654:	00000013          	addi	x0,x0,0
    a658:	00000013          	addi	x0,x0,0
    a65c:	00000013          	addi	x0,x0,0
    a660:	00019097          	auipc	x1,0x19
    a664:	ba4080e7          	jalr	x1,-1116(x1) # 23204 <rvmodel_io_write_str>

0000a668 <print_testnamestr>:
    a668:	00000013          	addi	x0,x0,0
    a66c:	00000013          	addi	x0,x0,0
    a670:	00000013          	addi	x0,x0,0
    a674:	00000013          	addi	x0,x0,0
    a678:	00000013          	addi	x0,x0,0
    a67c:	00000013          	addi	x0,x0,0
    a680:	00008517          	auipc	x10,0x8
    a684:	92d50513          	addi	x10,x10,-1747 # 11fad <testnamestr>
    a688:	00000013          	addi	x0,x0,0
    a68c:	00000013          	addi	x0,x0,0
    a690:	00000013          	addi	x0,x0,0
    a694:	00000013          	addi	x0,x0,0
    a698:	00000013          	addi	x0,x0,0
    a69c:	00000013          	addi	x0,x0,0
    a6a0:	00019097          	auipc	x1,0x19
    a6a4:	b64080e7          	jalr	x1,-1180(x1) # 23204 <rvmodel_io_write_str>

0000a6a8 <print_failure_test_name_str>:
    a6a8:	00007517          	auipc	x10,0x7
    a6ac:	2f852503          	lw	x10,760(x10) # 119a0 <failure_string_ptr>
    a6b0:	00019097          	auipc	x1,0x19
    a6b4:	b54080e7          	jalr	x1,-1196(x1) # 23204 <rvmodel_io_write_str>

0000a6b8 <print_newline_str>:
    a6b8:	00000013          	addi	x0,x0,0
    a6bc:	00000013          	addi	x0,x0,0
    a6c0:	00008517          	auipc	x10,0x8
    a6c4:	8ff50513          	addi	x10,x10,-1793 # 11fbf <newlinestr>
    a6c8:	00000013          	addi	x0,x0,0
    a6cc:	00000013          	addi	x0,x0,0
    a6d0:	00000013          	addi	x0,x0,0
    a6d4:	00000013          	addi	x0,x0,0
    a6d8:	00000013          	addi	x0,x0,0
    a6dc:	00000013          	addi	x0,x0,0
    a6e0:	00019097          	auipc	x1,0x19
    a6e4:	b24080e7          	jalr	x1,-1244(x1) # 23204 <rvmodel_io_write_str>
    a6e8:	00007517          	auipc	x10,0x7
    a6ec:	19852503          	lw	x10,408(x10) # 11880 <begin_failure_scratch>
    a6f0:	00300593          	addi	x11,x0,3
    a6f4:	3eb50c63          	beq	x10,x11,aaec <failedtest_report_trap_detailed>
    a6f8:	00000013          	addi	x0,x0,0
    a6fc:	00000013          	addi	x0,x0,0
    a700:	00008517          	auipc	x10,0x8
    a704:	8c150513          	addi	x10,x10,-1855 # 11fc1 <inststr>
    a708:	00000013          	addi	x0,x0,0
    a70c:	00000013          	addi	x0,x0,0
    a710:	00000013          	addi	x0,x0,0
    a714:	00000013          	addi	x0,x0,0
    a718:	00000013          	addi	x0,x0,0
    a71c:	00000013          	addi	x0,x0,0
    a720:	00019097          	auipc	x1,0x19
    a724:	ae4080e7          	jalr	x1,-1308(x1) # 23204 <rvmodel_io_write_str>
    a728:	00007517          	auipc	x10,0x7
    a72c:	25852503          	lw	x10,600(x10) # 11980 <failing_instruction>
    a730:	02000593          	addi	x11,x0,32
    a734:	00357613          	andi	x12,x10,3
    a738:	00300693          	addi	x13,x0,3
    a73c:	00d60463          	beq	x12,x13,a744 <print_newline_str+0x8c>
    a740:	01000593          	addi	x11,x0,16
    a744:	2f4010ef          	jal	x1,ba38 <failedtest_hex_to_str>
    a748:	00000013          	addi	x0,x0,0
    a74c:	00000013          	addi	x0,x0,0
    a750:	00000013          	addi	x0,x0,0
    a754:	00000013          	addi	x0,x0,0
    a758:	00000013          	addi	x0,x0,0
    a75c:	00000013          	addi	x0,x0,0
    a760:	00007517          	auipc	x10,0x7
    a764:	2a850513          	addi	x10,x10,680 # 11a08 <ascii_buffer>
    a768:	00000013          	addi	x0,x0,0
    a76c:	00000013          	addi	x0,x0,0
    a770:	00000013          	addi	x0,x0,0
    a774:	00000013          	addi	x0,x0,0
    a778:	00000013          	addi	x0,x0,0
    a77c:	00000013          	addi	x0,x0,0
    a780:	00019097          	auipc	x1,0x19
    a784:	a84080e7          	jalr	x1,-1404(x1) # 23204 <rvmodel_io_write_str>
    a788:	00000013          	addi	x0,x0,0
    a78c:	00000013          	addi	x0,x0,0
    a790:	00000013          	addi	x0,x0,0
    a794:	00000013          	addi	x0,x0,0
    a798:	00000013          	addi	x0,x0,0
    a79c:	00000013          	addi	x0,x0,0
    a7a0:	00008517          	auipc	x10,0x8
    a7a4:	83550513          	addi	x10,x10,-1995 # 11fd5 <addrstr>
    a7a8:	00000013          	addi	x0,x0,0
    a7ac:	00000013          	addi	x0,x0,0
    a7b0:	00000013          	addi	x0,x0,0
    a7b4:	00000013          	addi	x0,x0,0
    a7b8:	00000013          	addi	x0,x0,0
    a7bc:	00000013          	addi	x0,x0,0
    a7c0:	00019097          	auipc	x1,0x19
    a7c4:	a44080e7          	jalr	x1,-1468(x1) # 23204 <rvmodel_io_write_str>
    a7c8:	00007517          	auipc	x10,0x7
    a7cc:	1c052503          	lw	x10,448(x10) # 11988 <failing_addr>
    a7d0:	02000593          	addi	x11,x0,32
    a7d4:	264010ef          	jal	x1,ba38 <failedtest_hex_to_str>
    a7d8:	00000013          	addi	x0,x0,0
    a7dc:	00000013          	addi	x0,x0,0
    a7e0:	00007517          	auipc	x10,0x7
    a7e4:	22850513          	addi	x10,x10,552 # 11a08 <ascii_buffer>
    a7e8:	00000013          	addi	x0,x0,0
    a7ec:	00000013          	addi	x0,x0,0
    a7f0:	00000013          	addi	x0,x0,0
    a7f4:	00000013          	addi	x0,x0,0
    a7f8:	00000013          	addi	x0,x0,0
    a7fc:	00000013          	addi	x0,x0,0
    a800:	00019097          	auipc	x1,0x19
    a804:	a04080e7          	jalr	x1,-1532(x1) # 23204 <rvmodel_io_write_str>
    a808:	00000013          	addi	x0,x0,0
    a80c:	00000013          	addi	x0,x0,0
    a810:	00000013          	addi	x0,x0,0
    a814:	00000013          	addi	x0,x0,0
    a818:	00000013          	addi	x0,x0,0
    a81c:	00000013          	addi	x0,x0,0
    a820:	00008517          	auipc	x10,0x8
    a824:	23250513          	addi	x10,x10,562 # 12a52 <regstr>
    a828:	00000013          	addi	x0,x0,0
    a82c:	00000013          	addi	x0,x0,0
    a830:	00000013          	addi	x0,x0,0
    a834:	00000013          	addi	x0,x0,0
    a838:	00000013          	addi	x0,x0,0
    a83c:	00000013          	addi	x0,x0,0
    a840:	00019097          	auipc	x1,0x19
    a844:	9c4080e7          	jalr	x1,-1596(x1) # 23204 <rvmodel_io_write_str>
    a848:	00007517          	auipc	x10,0x7
    a84c:	03852503          	lw	x10,56(x10) # 11880 <begin_failure_scratch>
    a850:	00050663          	beq	x10,x0,a85c <print_newline_str+0x1a4>
    a854:	00300593          	addi	x11,x0,3
    a858:	04b51063          	bne	x10,x11,a898 <failedtest_report_not_intreg>
    a85c:	07800593          	addi	x11,x0,120
    a860:	00007617          	auipc	x12,0x7
    a864:	1a860613          	addi	x12,x12,424 # 11a08 <ascii_buffer>
    a868:	00000013          	addi	x0,x0,0
    a86c:	00000013          	addi	x0,x0,0
    a870:	00000013          	addi	x0,x0,0
    a874:	00000013          	addi	x0,x0,0
    a878:	00000013          	addi	x0,x0,0
    a87c:	00000013          	addi	x0,x0,0
    a880:	00b60023          	sb	x11,0(x12)
    a884:	00160613          	addi	x12,x12,1
    a888:	00007517          	auipc	x10,0x7
    a88c:	0fc52503          	lw	x10,252(x10) # 11984 <failing_reg>
    a890:	224010ef          	jal	x1,bab4 <failedtest_dec_to_str>
    a894:	0e00006f          	jal	x0,a974 <failedtest_report_print_regstr>

0000a898 <failedtest_report_not_intreg>:
    a898:	00100593          	addi	x11,x0,1
    a89c:	04b50863          	beq	x10,x11,a8ec <failedtest_report_fpreg>
    a8a0:	00400593          	addi	x11,x0,4
    a8a4:	08b50a63          	beq	x10,x11,a938 <failedtest_report_vecreg>
    a8a8:	00000013          	addi	x0,x0,0
    a8ac:	00000013          	addi	x0,x0,0
    a8b0:	00000013          	addi	x0,x0,0
    a8b4:	00000013          	addi	x0,x0,0
    a8b8:	00000013          	addi	x0,x0,0
    a8bc:	00000013          	addi	x0,x0,0
    a8c0:	00008517          	auipc	x10,0x8
    a8c4:	1f250513          	addi	x10,x10,498 # 12ab2 <fflagsstr>
    a8c8:	00000013          	addi	x0,x0,0
    a8cc:	00000013          	addi	x0,x0,0
    a8d0:	00000013          	addi	x0,x0,0
    a8d4:	00000013          	addi	x0,x0,0
    a8d8:	00000013          	addi	x0,x0,0
    a8dc:	00000013          	addi	x0,x0,0
    a8e0:	00019097          	auipc	x1,0x19
    a8e4:	924080e7          	jalr	x1,-1756(x1) # 23204 <rvmodel_io_write_str>
    a8e8:	0c00006f          	jal	x0,a9a8 <failedtest_report_after_reg>

0000a8ec <failedtest_report_fpreg>:
    a8ec:	06600593          	addi	x11,x0,102
    a8f0:	00000013          	addi	x0,x0,0
    a8f4:	00000013          	addi	x0,x0,0
    a8f8:	00000013          	addi	x0,x0,0
    a8fc:	00000013          	addi	x0,x0,0
    a900:	00007617          	auipc	x12,0x7
    a904:	10860613          	addi	x12,x12,264 # 11a08 <ascii_buffer>
    a908:	00000013          	addi	x0,x0,0
    a90c:	00000013          	addi	x0,x0,0
    a910:	00000013          	addi	x0,x0,0
    a914:	00000013          	addi	x0,x0,0
    a918:	00000013          	addi	x0,x0,0
    a91c:	00000013          	addi	x0,x0,0
    a920:	00b60023          	sb	x11,0(x12)
    a924:	00160613          	addi	x12,x12,1
    a928:	00007517          	auipc	x10,0x7
    a92c:	05c52503          	lw	x10,92(x10) # 11984 <failing_reg>
    a930:	184010ef          	jal	x1,bab4 <failedtest_dec_to_str>
    a934:	0400006f          	jal	x0,a974 <failedtest_report_print_regstr>

0000a938 <failedtest_report_vecreg>:
    a938:	07600593          	addi	x11,x0,118
    a93c:	00000013          	addi	x0,x0,0
    a940:	00007617          	auipc	x12,0x7
    a944:	0c860613          	addi	x12,x12,200 # 11a08 <ascii_buffer>
    a948:	00000013          	addi	x0,x0,0
    a94c:	00000013          	addi	x0,x0,0
    a950:	00000013          	addi	x0,x0,0
    a954:	00000013          	addi	x0,x0,0
    a958:	00000013          	addi	x0,x0,0
    a95c:	00000013          	addi	x0,x0,0
    a960:	00b60023          	sb	x11,0(x12)
    a964:	00160613          	addi	x12,x12,1
    a968:	00007517          	auipc	x10,0x7
    a96c:	01c52503          	lw	x10,28(x10) # 11984 <failing_reg>
    a970:	144010ef          	jal	x1,bab4 <failedtest_dec_to_str>

0000a974 <failedtest_report_print_regstr>:
    a974:	00000013          	addi	x0,x0,0
    a978:	00000013          	addi	x0,x0,0
    a97c:	00000013          	addi	x0,x0,0
    a980:	00007517          	auipc	x10,0x7
    a984:	08850513          	addi	x10,x10,136 # 11a08 <ascii_buffer>
    a988:	00000013          	addi	x0,x0,0
    a98c:	00000013          	addi	x0,x0,0
    a990:	00000013          	addi	x0,x0,0
    a994:	00000013          	addi	x0,x0,0
    a998:	00000013          	addi	x0,x0,0
    a99c:	00000013          	addi	x0,x0,0
    a9a0:	00019097          	auipc	x1,0x19
    a9a4:	864080e7          	jalr	x1,-1948(x1) # 23204 <rvmodel_io_write_str>

0000a9a8 <failedtest_report_after_reg>:
    a9a8:	00000013          	addi	x0,x0,0
    a9ac:	00000013          	addi	x0,x0,0
    a9b0:	00000013          	addi	x0,x0,0
    a9b4:	00000013          	addi	x0,x0,0
    a9b8:	00000013          	addi	x0,x0,0
    a9bc:	00000013          	addi	x0,x0,0
    a9c0:	00008517          	auipc	x10,0x8
    a9c4:	0a350513          	addi	x10,x10,163 # 12a63 <badvalstr>
    a9c8:	00000013          	addi	x0,x0,0
    a9cc:	00000013          	addi	x0,x0,0
    a9d0:	00000013          	addi	x0,x0,0
    a9d4:	00000013          	addi	x0,x0,0
    a9d8:	00000013          	addi	x0,x0,0
    a9dc:	00000013          	addi	x0,x0,0
    a9e0:	00019097          	auipc	x1,0x19
    a9e4:	824080e7          	jalr	x1,-2012(x1) # 23204 <rvmodel_io_write_str>
    a9e8:	00007517          	auipc	x10,0x7
    a9ec:	e9852503          	lw	x10,-360(x10) # 11880 <begin_failure_scratch>
    a9f0:	00100593          	addi	x11,x0,1
    a9f4:	00b51c63          	bne	x10,x11,aa0c <failedtest_report_badval_not_fp>
    a9f8:	00007517          	auipc	x10,0x7
    a9fc:	f9852503          	lw	x10,-104(x10) # 11990 <failing_value>
    aa00:	02000593          	addi	x11,x0,32
    aa04:	034010ef          	jal	x1,ba38 <failedtest_hex_to_str>
    aa08:	0140006f          	jal	x0,aa1c <failedtest_report_badval_done>

0000aa0c <failedtest_report_badval_not_fp>:
    aa0c:	00007517          	auipc	x10,0x7
    aa10:	f8452503          	lw	x10,-124(x10) # 11990 <failing_value>
    aa14:	02000593          	addi	x11,x0,32
    aa18:	020010ef          	jal	x1,ba38 <failedtest_hex_to_str>

0000aa1c <failedtest_report_badval_done>:
    aa1c:	00000013          	addi	x0,x0,0
    aa20:	00007517          	auipc	x10,0x7
    aa24:	fe850513          	addi	x10,x10,-24 # 11a08 <ascii_buffer>
    aa28:	00000013          	addi	x0,x0,0
    aa2c:	00000013          	addi	x0,x0,0
    aa30:	00000013          	addi	x0,x0,0
    aa34:	00000013          	addi	x0,x0,0
    aa38:	00000013          	addi	x0,x0,0
    aa3c:	00000013          	addi	x0,x0,0
    aa40:	00018097          	auipc	x1,0x18
    aa44:	7c4080e7          	jalr	x1,1988(x1) # 23204 <rvmodel_io_write_str>
    aa48:	00000013          	addi	x0,x0,0
    aa4c:	00000013          	addi	x0,x0,0
    aa50:	00000013          	addi	x0,x0,0
    aa54:	00000013          	addi	x0,x0,0
    aa58:	00000013          	addi	x0,x0,0
    aa5c:	00000013          	addi	x0,x0,0
    aa60:	00008517          	auipc	x10,0x8
    aa64:	01a50513          	addi	x10,x10,26 # 12a7a <expvalstr>
    aa68:	00000013          	addi	x0,x0,0
    aa6c:	00000013          	addi	x0,x0,0
    aa70:	00000013          	addi	x0,x0,0
    aa74:	00000013          	addi	x0,x0,0
    aa78:	00000013          	addi	x0,x0,0
    aa7c:	00000013          	addi	x0,x0,0
    aa80:	00018097          	auipc	x1,0x18
    aa84:	784080e7          	jalr	x1,1924(x1) # 23204 <rvmodel_io_write_str>
    aa88:	00007517          	auipc	x10,0x7
    aa8c:	df852503          	lw	x10,-520(x10) # 11880 <begin_failure_scratch>
    aa90:	00100593          	addi	x11,x0,1
    aa94:	00b51c63          	bne	x10,x11,aaac <failedtest_report_expval_not_fp>
    aa98:	00007517          	auipc	x10,0x7
    aa9c:	f0052503          	lw	x10,-256(x10) # 11998 <expected_value>
    aaa0:	02000593          	addi	x11,x0,32
    aaa4:	795000ef          	jal	x1,ba38 <failedtest_hex_to_str>
    aaa8:	0140006f          	jal	x0,aabc <failedtest_report_expval_done>

0000aaac <failedtest_report_expval_not_fp>:
    aaac:	00007517          	auipc	x10,0x7
    aab0:	eec52503          	lw	x10,-276(x10) # 11998 <expected_value>
    aab4:	02000593          	addi	x11,x0,32
    aab8:	781000ef          	jal	x1,ba38 <failedtest_hex_to_str>

0000aabc <failedtest_report_expval_done>:
    aabc:	00000013          	addi	x0,x0,0
    aac0:	00007517          	auipc	x10,0x7
    aac4:	f4850513          	addi	x10,x10,-184 # 11a08 <ascii_buffer>
    aac8:	00000013          	addi	x0,x0,0
    aacc:	00000013          	addi	x0,x0,0
    aad0:	00000013          	addi	x0,x0,0
    aad4:	00000013          	addi	x0,x0,0
    aad8:	00000013          	addi	x0,x0,0
    aadc:	00000013          	addi	x0,x0,0
    aae0:	00018097          	auipc	x1,0x18
    aae4:	724080e7          	jalr	x1,1828(x1) # 23204 <rvmodel_io_write_str>
    aae8:	4fd0006f          	jal	x0,b7e4 <failedtest_report_end>

0000aaec <failedtest_report_trap_detailed>:
    aaec:	00000013          	addi	x0,x0,0
    aaf0:	00000013          	addi	x0,x0,0
    aaf4:	00000013          	addi	x0,x0,0
    aaf8:	00000013          	addi	x0,x0,0
    aafc:	00000013          	addi	x0,x0,0
    ab00:	00008517          	auipc	x10,0x8
    ab04:	fde50513          	addi	x10,x10,-34 # 12ade <trap_diag_header_str>
    ab08:	00000013          	addi	x0,x0,0
    ab0c:	00000013          	addi	x0,x0,0
    ab10:	00000013          	addi	x0,x0,0
    ab14:	00000013          	addi	x0,x0,0
    ab18:	00000013          	addi	x0,x0,0
    ab1c:	00000013          	addi	x0,x0,0
    ab20:	00018097          	auipc	x1,0x18
    ab24:	6e4080e7          	jalr	x1,1764(x1) # 23204 <rvmodel_io_write_str>
    ab28:	00000013          	addi	x0,x0,0
    ab2c:	00000013          	addi	x0,x0,0
    ab30:	00000013          	addi	x0,x0,0
    ab34:	00000013          	addi	x0,x0,0
    ab38:	00000013          	addi	x0,x0,0
    ab3c:	00000013          	addi	x0,x0,0
    ab40:	00008517          	auipc	x10,0x8
    ab44:	fca50513          	addi	x10,x10,-54 # 12b0a <trap_diag_origstr_label>
    ab48:	00000013          	addi	x0,x0,0
    ab4c:	00000013          	addi	x0,x0,0
    ab50:	00000013          	addi	x0,x0,0
    ab54:	00000013          	addi	x0,x0,0
    ab58:	00000013          	addi	x0,x0,0
    ab5c:	00000013          	addi	x0,x0,0
    ab60:	00018097          	auipc	x1,0x18
    ab64:	6a4080e7          	jalr	x1,1700(x1) # 23204 <rvmodel_io_write_str>
    ab68:	00007817          	auipc	x16,0x7
    ab6c:	e7080813          	addi	x16,x16,-400 # 119d8 <trap_diag_fail_str_ptr>
    ab70:	00082503          	lw	x10,0(x16)
    ab74:	00018097          	auipc	x1,0x18
    ab78:	690080e7          	jalr	x1,1680(x1) # 23204 <rvmodel_io_write_str>
    ab7c:	00000013          	addi	x0,x0,0
    ab80:	00007517          	auipc	x10,0x7
    ab84:	43f50513          	addi	x10,x10,1087 # 11fbf <newlinestr>
    ab88:	00000013          	addi	x0,x0,0
    ab8c:	00000013          	addi	x0,x0,0
    ab90:	00000013          	addi	x0,x0,0
    ab94:	00000013          	addi	x0,x0,0
    ab98:	00000013          	addi	x0,x0,0
    ab9c:	00000013          	addi	x0,x0,0
    aba0:	00018097          	auipc	x1,0x18
    aba4:	664080e7          	jalr	x1,1636(x1) # 23204 <rvmodel_io_write_str>
    aba8:	00007417          	auipc	x8,0x7
    abac:	e0842403          	lw	x8,-504(x8) # 119b0 <trap_diag_subtype>
    abb0:	00900493          	addi	x9,x0,9
    abb4:	00940663          	beq	x8,x9,abc0 <trap_report_offset_mismatch>
    abb8:	2a040ce3          	beq	x8,x0,b670 <trap_report_generic>
    abbc:	3780006f          	jal	x0,af34 <trap_report_field_mismatch>

0000abc0 <trap_report_offset_mismatch>:
    abc0:	00008517          	auipc	x10,0x8
    abc4:	f5a50513          	addi	x10,x10,-166 # 12b1a <trap_diag_count_mismatch_str>
    abc8:	00000013          	addi	x0,x0,0
    abcc:	00000013          	addi	x0,x0,0
    abd0:	00000013          	addi	x0,x0,0
    abd4:	00000013          	addi	x0,x0,0
    abd8:	00000013          	addi	x0,x0,0
    abdc:	00000013          	addi	x0,x0,0
    abe0:	00018097          	auipc	x1,0x18
    abe4:	624080e7          	jalr	x1,1572(x1) # 23204 <rvmodel_io_write_str>
    abe8:	00000013          	addi	x0,x0,0
    abec:	00000013          	addi	x0,x0,0
    abf0:	00000013          	addi	x0,x0,0
    abf4:	00000013          	addi	x0,x0,0
    abf8:	00000013          	addi	x0,x0,0
    abfc:	00000013          	addi	x0,x0,0
    ac00:	00008517          	auipc	x10,0x8
    ac04:	f7b50513          	addi	x10,x10,-133 # 12b7b <trap_diag_expected_offset_str>
    ac08:	00000013          	addi	x0,x0,0
    ac0c:	00000013          	addi	x0,x0,0
    ac10:	00000013          	addi	x0,x0,0
    ac14:	00000013          	addi	x0,x0,0
    ac18:	00000013          	addi	x0,x0,0
    ac1c:	00000013          	addi	x0,x0,0
    ac20:	00018097          	auipc	x1,0x18
    ac24:	5e4080e7          	jalr	x1,1508(x1) # 23204 <rvmodel_io_write_str>
    ac28:	00007517          	auipc	x10,0x7
    ac2c:	da852503          	lw	x10,-600(x10) # 119d0 <trap_diag_expected_offset>
    ac30:	02000593          	addi	x11,x0,32
    ac34:	605000ef          	jal	x1,ba38 <failedtest_hex_to_str>
    ac38:	00000013          	addi	x0,x0,0
    ac3c:	00000013          	addi	x0,x0,0
    ac40:	00007517          	auipc	x10,0x7
    ac44:	dc850513          	addi	x10,x10,-568 # 11a08 <ascii_buffer>
    ac48:	00000013          	addi	x0,x0,0
    ac4c:	00000013          	addi	x0,x0,0
    ac50:	00000013          	addi	x0,x0,0
    ac54:	00000013          	addi	x0,x0,0
    ac58:	00000013          	addi	x0,x0,0
    ac5c:	00000013          	addi	x0,x0,0
    ac60:	00018097          	auipc	x1,0x18
    ac64:	5a4080e7          	jalr	x1,1444(x1) # 23204 <rvmodel_io_write_str>
    ac68:	00000013          	addi	x0,x0,0
    ac6c:	00000013          	addi	x0,x0,0
    ac70:	00000013          	addi	x0,x0,0
    ac74:	00000013          	addi	x0,x0,0
    ac78:	00000013          	addi	x0,x0,0
    ac7c:	00000013          	addi	x0,x0,0
    ac80:	00008517          	auipc	x10,0x8
    ac84:	f2250513          	addi	x10,x10,-222 # 12ba2 <trap_diag_actual_offset_str>
    ac88:	00000013          	addi	x0,x0,0
    ac8c:	00000013          	addi	x0,x0,0
    ac90:	00000013          	addi	x0,x0,0
    ac94:	00000013          	addi	x0,x0,0
    ac98:	00000013          	addi	x0,x0,0
    ac9c:	00000013          	addi	x0,x0,0
    aca0:	00018097          	auipc	x1,0x18
    aca4:	564080e7          	jalr	x1,1380(x1) # 23204 <rvmodel_io_write_str>
    aca8:	00007517          	auipc	x10,0x7
    acac:	d2052503          	lw	x10,-736(x10) # 119c8 <trap_diag_actual_offset>
    acb0:	02000593          	addi	x11,x0,32
    acb4:	585000ef          	jal	x1,ba38 <failedtest_hex_to_str>
    acb8:	00000013          	addi	x0,x0,0
    acbc:	00000013          	addi	x0,x0,0
    acc0:	00007517          	auipc	x10,0x7
    acc4:	d4850513          	addi	x10,x10,-696 # 11a08 <ascii_buffer>
    acc8:	00000013          	addi	x0,x0,0
    accc:	00000013          	addi	x0,x0,0
    acd0:	00000013          	addi	x0,x0,0
    acd4:	00000013          	addi	x0,x0,0
    acd8:	00000013          	addi	x0,x0,0
    acdc:	00000013          	addi	x0,x0,0
    ace0:	00018097          	auipc	x1,0x18
    ace4:	524080e7          	jalr	x1,1316(x1) # 23204 <rvmodel_io_write_str>
    ace8:	00007317          	auipc	x6,0x7
    acec:	ce032303          	lw	x6,-800(x6) # 119c8 <trap_diag_actual_offset>
    acf0:	00007397          	auipc	x7,0x7
    acf4:	ce03a383          	lw	x7,-800(x7) # 119d0 <trap_diag_expected_offset>
    acf8:	10734e63          	blt	x6,x7,ae14 <trap_report_missing_traps>

0000acfc <trap_report_extra_traps>:
    acfc:	00000013          	addi	x0,x0,0
    ad00:	00008517          	auipc	x10,0x8
    ad04:	ec950513          	addi	x10,x10,-311 # 12bc9 <trap_diag_extra_traps_str>
    ad08:	00000013          	addi	x0,x0,0
    ad0c:	00000013          	addi	x0,x0,0
    ad10:	00000013          	addi	x0,x0,0
    ad14:	00000013          	addi	x0,x0,0
    ad18:	00000013          	addi	x0,x0,0
    ad1c:	00000013          	addi	x0,x0,0
    ad20:	00018097          	auipc	x1,0x18
    ad24:	4e4080e7          	jalr	x1,1252(x1) # 23204 <rvmodel_io_write_str>
    ad28:	00007317          	auipc	x6,0x7
    ad2c:	ca032303          	lw	x6,-864(x6) # 119c8 <trap_diag_actual_offset>
    ad30:	00007397          	auipc	x7,0x7
    ad34:	ca03a383          	lw	x7,-864(x7) # 119d0 <trap_diag_expected_offset>
    ad38:	40730333          	sub	x6,x6,x7
    ad3c:	00235313          	srli	x6,x6,0x2
    ad40:	00008517          	auipc	x10,0x8
    ad44:	f0e50513          	addi	x10,x10,-242 # 12c4e <trap_diag_extra_bytes_str>
    ad48:	00000013          	addi	x0,x0,0
    ad4c:	00000013          	addi	x0,x0,0
    ad50:	00000013          	addi	x0,x0,0
    ad54:	00000013          	addi	x0,x0,0
    ad58:	00000013          	addi	x0,x0,0
    ad5c:	00000013          	addi	x0,x0,0
    ad60:	00018097          	auipc	x1,0x18
    ad64:	4a4080e7          	jalr	x1,1188(x1) # 23204 <rvmodel_io_write_str>
    ad68:	00007317          	auipc	x6,0x7
    ad6c:	c6032303          	lw	x6,-928(x6) # 119c8 <trap_diag_actual_offset>
    ad70:	00007397          	auipc	x7,0x7
    ad74:	c603a383          	lw	x7,-928(x7) # 119d0 <trap_diag_expected_offset>
    ad78:	40730533          	sub	x10,x6,x7
    ad7c:	02000593          	addi	x11,x0,32
    ad80:	4b9000ef          	jal	x1,ba38 <failedtest_hex_to_str>
    ad84:	00000013          	addi	x0,x0,0
    ad88:	00000013          	addi	x0,x0,0
    ad8c:	00000013          	addi	x0,x0,0
    ad90:	00000013          	addi	x0,x0,0
    ad94:	00000013          	addi	x0,x0,0
    ad98:	00000013          	addi	x0,x0,0
    ad9c:	00000013          	addi	x0,x0,0
    ada0:	00007517          	auipc	x10,0x7
    ada4:	c6850513          	addi	x10,x10,-920 # 11a08 <ascii_buffer>
    ada8:	00000013          	addi	x0,x0,0
    adac:	00000013          	addi	x0,x0,0
    adb0:	00000013          	addi	x0,x0,0
    adb4:	00000013          	addi	x0,x0,0
    adb8:	00000013          	addi	x0,x0,0
    adbc:	00000013          	addi	x0,x0,0
    adc0:	00018097          	auipc	x1,0x18
    adc4:	444080e7          	jalr	x1,1092(x1) # 23204 <rvmodel_io_write_str>
    adc8:	00000013          	addi	x0,x0,0
    adcc:	00000013          	addi	x0,x0,0
    add0:	00000013          	addi	x0,x0,0
    add4:	00000013          	addi	x0,x0,0
    add8:	00000013          	addi	x0,x0,0
    addc:	00000013          	addi	x0,x0,0
    ade0:	00008517          	auipc	x10,0x8
    ade4:	e9950513          	addi	x10,x10,-359 # 12c79 <trap_diag_extra_hint_str>
    ade8:	00000013          	addi	x0,x0,0
    adec:	00000013          	addi	x0,x0,0
    adf0:	00000013          	addi	x0,x0,0
    adf4:	00000013          	addi	x0,x0,0
    adf8:	00000013          	addi	x0,x0,0
    adfc:	00000013          	addi	x0,x0,0
    ae00:	00018097          	auipc	x1,0x18
    ae04:	404080e7          	jalr	x1,1028(x1) # 23204 <rvmodel_io_write_str>
    ae08:	00001097          	auipc	x1,0x1
    ae0c:	a28080e7          	jalr	x1,-1496(x1) # b830 <failedtest_print_csr_context>
    ae10:	1d50006f          	jal	x0,b7e4 <failedtest_report_end>

0000ae14 <trap_report_missing_traps>:
    ae14:	00000013          	addi	x0,x0,0
    ae18:	00000013          	addi	x0,x0,0
    ae1c:	00000013          	addi	x0,x0,0
    ae20:	00008517          	auipc	x10,0x8
    ae24:	de350513          	addi	x10,x10,-541 # 12c03 <trap_diag_missing_traps_str>
    ae28:	00000013          	addi	x0,x0,0
    ae2c:	00000013          	addi	x0,x0,0
    ae30:	00000013          	addi	x0,x0,0
    ae34:	00000013          	addi	x0,x0,0
    ae38:	00000013          	addi	x0,x0,0
    ae3c:	00000013          	addi	x0,x0,0
    ae40:	00018097          	auipc	x1,0x18
    ae44:	3c4080e7          	jalr	x1,964(x1) # 23204 <rvmodel_io_write_str>
    ae48:	00000013          	addi	x0,x0,0
    ae4c:	00000013          	addi	x0,x0,0
    ae50:	00000013          	addi	x0,x0,0
    ae54:	00000013          	addi	x0,x0,0
    ae58:	00000013          	addi	x0,x0,0
    ae5c:	00000013          	addi	x0,x0,0
    ae60:	00008517          	auipc	x10,0x8
    ae64:	dee50513          	addi	x10,x10,-530 # 12c4e <trap_diag_extra_bytes_str>
    ae68:	00000013          	addi	x0,x0,0
    ae6c:	00000013          	addi	x0,x0,0
    ae70:	00000013          	addi	x0,x0,0
    ae74:	00000013          	addi	x0,x0,0
    ae78:	00000013          	addi	x0,x0,0
    ae7c:	00000013          	addi	x0,x0,0
    ae80:	00018097          	auipc	x1,0x18
    ae84:	384080e7          	jalr	x1,900(x1) # 23204 <rvmodel_io_write_str>
    ae88:	00007317          	auipc	x6,0x7
    ae8c:	b4832303          	lw	x6,-1208(x6) # 119d0 <trap_diag_expected_offset>
    ae90:	00007397          	auipc	x7,0x7
    ae94:	b383a383          	lw	x7,-1224(x7) # 119c8 <trap_diag_actual_offset>
    ae98:	40730533          	sub	x10,x6,x7
    ae9c:	02000593          	addi	x11,x0,32
    aea0:	399000ef          	jal	x1,ba38 <failedtest_hex_to_str>
    aea4:	00000013          	addi	x0,x0,0
    aea8:	00000013          	addi	x0,x0,0
    aeac:	00000013          	addi	x0,x0,0
    aeb0:	00000013          	addi	x0,x0,0
    aeb4:	00000013          	addi	x0,x0,0
    aeb8:	00000013          	addi	x0,x0,0
    aebc:	00000013          	addi	x0,x0,0
    aec0:	00007517          	auipc	x10,0x7
    aec4:	b4850513          	addi	x10,x10,-1208 # 11a08 <ascii_buffer>
    aec8:	00000013          	addi	x0,x0,0
    aecc:	00000013          	addi	x0,x0,0
    aed0:	00000013          	addi	x0,x0,0
    aed4:	00000013          	addi	x0,x0,0
    aed8:	00000013          	addi	x0,x0,0
    aedc:	00000013          	addi	x0,x0,0
    aee0:	00018097          	auipc	x1,0x18
    aee4:	324080e7          	jalr	x1,804(x1) # 23204 <rvmodel_io_write_str>
    aee8:	00000013          	addi	x0,x0,0
    aeec:	00000013          	addi	x0,x0,0
    aef0:	00000013          	addi	x0,x0,0
    aef4:	00000013          	addi	x0,x0,0
    aef8:	00000013          	addi	x0,x0,0
    aefc:	00000013          	addi	x0,x0,0
    af00:	00008517          	auipc	x10,0x8
    af04:	e6150513          	addi	x10,x10,-415 # 12d61 <trap_diag_missing_hint_str>
    af08:	00000013          	addi	x0,x0,0
    af0c:	00000013          	addi	x0,x0,0
    af10:	00000013          	addi	x0,x0,0
    af14:	00000013          	addi	x0,x0,0
    af18:	00000013          	addi	x0,x0,0
    af1c:	00000013          	addi	x0,x0,0
    af20:	00018097          	auipc	x1,0x18
    af24:	2e4080e7          	jalr	x1,740(x1) # 23204 <rvmodel_io_write_str>
    af28:	00001097          	auipc	x1,0x1
    af2c:	908080e7          	jalr	x1,-1784(x1) # b830 <failedtest_print_csr_context>
    af30:	0b50006f          	jal	x0,b7e4 <failedtest_report_end>

0000af34 <trap_report_field_mismatch>:
    af34:	00000013          	addi	x0,x0,0
    af38:	00000013          	addi	x0,x0,0
    af3c:	00000013          	addi	x0,x0,0
    af40:	00008517          	auipc	x10,0x8
    af44:	f0850513          	addi	x10,x10,-248 # 12e48 <trap_diag_handler_mode_str>
    af48:	00000013          	addi	x0,x0,0
    af4c:	00000013          	addi	x0,x0,0
    af50:	00000013          	addi	x0,x0,0
    af54:	00000013          	addi	x0,x0,0
    af58:	00000013          	addi	x0,x0,0
    af5c:	00000013          	addi	x0,x0,0
    af60:	00018097          	auipc	x1,0x18
    af64:	2a4080e7          	jalr	x1,676(x1) # 23204 <rvmodel_io_write_str>
    af68:	00007517          	auipc	x10,0x7
    af6c:	a4c52503          	lw	x10,-1460(x10) # 119b4 <trap_diag_mode>
    af70:	04050a63          	beq	x10,x0,afc4 <trap_mode_m>
    af74:	00100593          	addi	x11,x0,1
    af78:	08b50663          	beq	x10,x11,b004 <trap_mode_s>
    af7c:	00200593          	addi	x11,x0,2
    af80:	0cb50263          	beq	x10,x11,b044 <trap_mode_h>
    af84:	00300593          	addi	x11,x0,3
    af88:	0eb50e63          	beq	x10,x11,b084 <trap_mode_v>
    af8c:	00000013          	addi	x0,x0,0
    af90:	00000013          	addi	x0,x0,0
    af94:	00000013          	addi	x0,x0,0
    af98:	00000013          	addi	x0,x0,0
    af9c:	00000013          	addi	x0,x0,0
    afa0:	00008517          	auipc	x10,0x8
    afa4:	ee450513          	addi	x10,x10,-284 # 12e84 <trap_diag_mode_unknown_str>
    afa8:	00000013          	addi	x0,x0,0
    afac:	00000013          	addi	x0,x0,0
    afb0:	00000013          	addi	x0,x0,0
    afb4:	00000013          	addi	x0,x0,0
    afb8:	00000013          	addi	x0,x0,0
    afbc:	00000013          	addi	x0,x0,0
    afc0:	1000006f          	jal	x0,b0c0 <trap_mode_print>

0000afc4 <trap_mode_m>:
    afc4:	00000013          	addi	x0,x0,0
    afc8:	00000013          	addi	x0,x0,0
    afcc:	00000013          	addi	x0,x0,0
    afd0:	00000013          	addi	x0,x0,0
    afd4:	00000013          	addi	x0,x0,0
    afd8:	00000013          	addi	x0,x0,0
    afdc:	00000013          	addi	x0,x0,0
    afe0:	00008517          	auipc	x10,0x8
    afe4:	e8250513          	addi	x10,x10,-382 # 12e62 <trap_diag_mode_m_str>
    afe8:	00000013          	addi	x0,x0,0
    afec:	00000013          	addi	x0,x0,0
    aff0:	00000013          	addi	x0,x0,0
    aff4:	00000013          	addi	x0,x0,0
    aff8:	00000013          	addi	x0,x0,0
    affc:	00000013          	addi	x0,x0,0
    b000:	0c00006f          	jal	x0,b0c0 <trap_mode_print>

0000b004 <trap_mode_s>:
    b004:	00000013          	addi	x0,x0,0
    b008:	00000013          	addi	x0,x0,0
    b00c:	00000013          	addi	x0,x0,0
    b010:	00000013          	addi	x0,x0,0
    b014:	00000013          	addi	x0,x0,0
    b018:	00000013          	addi	x0,x0,0
    b01c:	00000013          	addi	x0,x0,0
    b020:	00008517          	auipc	x10,0x8
    b024:	e4a50513          	addi	x10,x10,-438 # 12e6a <trap_diag_mode_s_str>
    b028:	00000013          	addi	x0,x0,0
    b02c:	00000013          	addi	x0,x0,0
    b030:	00000013          	addi	x0,x0,0
    b034:	00000013          	addi	x0,x0,0
    b038:	00000013          	addi	x0,x0,0
    b03c:	00000013          	addi	x0,x0,0
    b040:	0800006f          	jal	x0,b0c0 <trap_mode_print>

0000b044 <trap_mode_h>:
    b044:	00000013          	addi	x0,x0,0
    b048:	00000013          	addi	x0,x0,0
    b04c:	00000013          	addi	x0,x0,0
    b050:	00000013          	addi	x0,x0,0
    b054:	00000013          	addi	x0,x0,0
    b058:	00000013          	addi	x0,x0,0
    b05c:	00000013          	addi	x0,x0,0
    b060:	00008517          	auipc	x10,0x8
    b064:	e1250513          	addi	x10,x10,-494 # 12e72 <trap_diag_mode_hs_str>
    b068:	00000013          	addi	x0,x0,0
    b06c:	00000013          	addi	x0,x0,0
    b070:	00000013          	addi	x0,x0,0
    b074:	00000013          	addi	x0,x0,0
    b078:	00000013          	addi	x0,x0,0
    b07c:	00000013          	addi	x0,x0,0
    b080:	0400006f          	jal	x0,b0c0 <trap_mode_print>

0000b084 <trap_mode_v>:
    b084:	00000013          	addi	x0,x0,0
    b088:	00000013          	addi	x0,x0,0
    b08c:	00000013          	addi	x0,x0,0
    b090:	00000013          	addi	x0,x0,0
    b094:	00000013          	addi	x0,x0,0
    b098:	00000013          	addi	x0,x0,0
    b09c:	00000013          	addi	x0,x0,0
    b0a0:	00008517          	auipc	x10,0x8
    b0a4:	ddb50513          	addi	x10,x10,-549 # 12e7b <trap_diag_mode_vs_str>
    b0a8:	00000013          	addi	x0,x0,0
    b0ac:	00000013          	addi	x0,x0,0
    b0b0:	00000013          	addi	x0,x0,0
    b0b4:	00000013          	addi	x0,x0,0
    b0b8:	00000013          	addi	x0,x0,0
    b0bc:	00000013          	addi	x0,x0,0

0000b0c0 <trap_mode_print>:
    b0c0:	00018097          	auipc	x1,0x18
    b0c4:	144080e7          	jalr	x1,324(x1) # 23204 <rvmodel_io_write_str>
    b0c8:	00000013          	addi	x0,x0,0
    b0cc:	00000013          	addi	x0,x0,0
    b0d0:	00000013          	addi	x0,x0,0
    b0d4:	00000013          	addi	x0,x0,0
    b0d8:	00000013          	addi	x0,x0,0
    b0dc:	00000013          	addi	x0,x0,0
    b0e0:	00008517          	auipc	x10,0x8
    b0e4:	dad50513          	addi	x10,x10,-595 # 12e8d <trap_diag_field_str>
    b0e8:	00000013          	addi	x0,x0,0
    b0ec:	00000013          	addi	x0,x0,0
    b0f0:	00000013          	addi	x0,x0,0
    b0f4:	00000013          	addi	x0,x0,0
    b0f8:	00000013          	addi	x0,x0,0
    b0fc:	00000013          	addi	x0,x0,0
    b100:	00018097          	auipc	x1,0x18
    b104:	104080e7          	jalr	x1,260(x1) # 23204 <rvmodel_io_write_str>
    b108:	00007517          	auipc	x10,0x7
    b10c:	8a852503          	lw	x10,-1880(x10) # 119b0 <trap_diag_subtype>
    b110:	00100593          	addi	x11,x0,1
    b114:	06b50863          	beq	x10,x11,b184 <trap_field_vect>
    b118:	00200593          	addi	x11,x0,2
    b11c:	0ab50463          	beq	x10,x11,b1c4 <trap_field_cause>
    b120:	00300593          	addi	x11,x0,3
    b124:	0eb50063          	beq	x10,x11,b204 <trap_field_epc>
    b128:	00400593          	addi	x11,x0,4
    b12c:	10b50c63          	beq	x10,x11,b244 <trap_field_tval>
    b130:	00500593          	addi	x11,x0,5
    b134:	14b50863          	beq	x10,x11,b284 <trap_field_ip>
    b138:	00600593          	addi	x11,x0,6
    b13c:	18b50463          	beq	x10,x11,b2c4 <trap_field_tval2>
    b140:	00700593          	addi	x11,x0,7
    b144:	1cb50063          	beq	x10,x11,b304 <trap_field_tinst>
    b148:	00800593          	addi	x11,x0,8
    b14c:	1eb50c63          	beq	x10,x11,b344 <trap_field_intid>
    b150:	00000013          	addi	x0,x0,0
    b154:	00000013          	addi	x0,x0,0
    b158:	00000013          	addi	x0,x0,0
    b15c:	00000013          	addi	x0,x0,0
    b160:	00008517          	auipc	x10,0x8
    b164:	e8450513          	addi	x10,x10,-380 # 12fe4 <trap_diag_field_unknown_str>
    b168:	00000013          	addi	x0,x0,0
    b16c:	00000013          	addi	x0,x0,0
    b170:	00000013          	addi	x0,x0,0
    b174:	00000013          	addi	x0,x0,0
    b178:	00000013          	addi	x0,x0,0
    b17c:	00000013          	addi	x0,x0,0
    b180:	2000006f          	jal	x0,b380 <trap_field_print>

0000b184 <trap_field_vect>:
    b184:	00000013          	addi	x0,x0,0
    b188:	00000013          	addi	x0,x0,0
    b18c:	00000013          	addi	x0,x0,0
    b190:	00000013          	addi	x0,x0,0
    b194:	00000013          	addi	x0,x0,0
    b198:	00000013          	addi	x0,x0,0
    b19c:	00000013          	addi	x0,x0,0
    b1a0:	00008517          	auipc	x10,0x8
    b1a4:	d0750513          	addi	x10,x10,-761 # 12ea7 <trap_diag_field_vect_str>
    b1a8:	00000013          	addi	x0,x0,0
    b1ac:	00000013          	addi	x0,x0,0
    b1b0:	00000013          	addi	x0,x0,0
    b1b4:	00000013          	addi	x0,x0,0
    b1b8:	00000013          	addi	x0,x0,0
    b1bc:	00000013          	addi	x0,x0,0
    b1c0:	1c00006f          	jal	x0,b380 <trap_field_print>

0000b1c4 <trap_field_cause>:
    b1c4:	00000013          	addi	x0,x0,0
    b1c8:	00000013          	addi	x0,x0,0
    b1cc:	00000013          	addi	x0,x0,0
    b1d0:	00000013          	addi	x0,x0,0
    b1d4:	00000013          	addi	x0,x0,0
    b1d8:	00000013          	addi	x0,x0,0
    b1dc:	00000013          	addi	x0,x0,0
    b1e0:	00008517          	auipc	x10,0x8
    b1e4:	cf850513          	addi	x10,x10,-776 # 12ed8 <trap_diag_field_cause_str>
    b1e8:	00000013          	addi	x0,x0,0
    b1ec:	00000013          	addi	x0,x0,0
    b1f0:	00000013          	addi	x0,x0,0
    b1f4:	00000013          	addi	x0,x0,0
    b1f8:	00000013          	addi	x0,x0,0
    b1fc:	00000013          	addi	x0,x0,0
    b200:	1800006f          	jal	x0,b380 <trap_field_print>

0000b204 <trap_field_epc>:
    b204:	00000013          	addi	x0,x0,0
    b208:	00000013          	addi	x0,x0,0
    b20c:	00000013          	addi	x0,x0,0
    b210:	00000013          	addi	x0,x0,0
    b214:	00000013          	addi	x0,x0,0
    b218:	00000013          	addi	x0,x0,0
    b21c:	00000013          	addi	x0,x0,0
    b220:	00008517          	auipc	x10,0x8
    b224:	cd850513          	addi	x10,x10,-808 # 12ef8 <trap_diag_field_epc_str>
    b228:	00000013          	addi	x0,x0,0
    b22c:	00000013          	addi	x0,x0,0
    b230:	00000013          	addi	x0,x0,0
    b234:	00000013          	addi	x0,x0,0
    b238:	00000013          	addi	x0,x0,0
    b23c:	00000013          	addi	x0,x0,0
    b240:	1400006f          	jal	x0,b380 <trap_field_print>

0000b244 <trap_field_tval>:
    b244:	00000013          	addi	x0,x0,0
    b248:	00000013          	addi	x0,x0,0
    b24c:	00000013          	addi	x0,x0,0
    b250:	00000013          	addi	x0,x0,0
    b254:	00000013          	addi	x0,x0,0
    b258:	00000013          	addi	x0,x0,0
    b25c:	00000013          	addi	x0,x0,0
    b260:	00008517          	auipc	x10,0x8
    b264:	cb650513          	addi	x10,x10,-842 # 12f16 <trap_diag_field_tval_str>
    b268:	00000013          	addi	x0,x0,0
    b26c:	00000013          	addi	x0,x0,0
    b270:	00000013          	addi	x0,x0,0
    b274:	00000013          	addi	x0,x0,0
    b278:	00000013          	addi	x0,x0,0
    b27c:	00000013          	addi	x0,x0,0
    b280:	1000006f          	jal	x0,b380 <trap_field_print>

0000b284 <trap_field_ip>:
    b284:	00000013          	addi	x0,x0,0
    b288:	00000013          	addi	x0,x0,0
    b28c:	00000013          	addi	x0,x0,0
    b290:	00000013          	addi	x0,x0,0
    b294:	00000013          	addi	x0,x0,0
    b298:	00000013          	addi	x0,x0,0
    b29c:	00000013          	addi	x0,x0,0
    b2a0:	00008517          	auipc	x10,0x8
    b2a4:	c9550513          	addi	x10,x10,-875 # 12f35 <trap_diag_field_ip_str>
    b2a8:	00000013          	addi	x0,x0,0
    b2ac:	00000013          	addi	x0,x0,0
    b2b0:	00000013          	addi	x0,x0,0
    b2b4:	00000013          	addi	x0,x0,0
    b2b8:	00000013          	addi	x0,x0,0
    b2bc:	00000013          	addi	x0,x0,0
    b2c0:	0c00006f          	jal	x0,b380 <trap_field_print>

0000b2c4 <trap_field_tval2>:
    b2c4:	00000013          	addi	x0,x0,0
    b2c8:	00000013          	addi	x0,x0,0
    b2cc:	00000013          	addi	x0,x0,0
    b2d0:	00000013          	addi	x0,x0,0
    b2d4:	00000013          	addi	x0,x0,0
    b2d8:	00000013          	addi	x0,x0,0
    b2dc:	00000013          	addi	x0,x0,0
    b2e0:	00008517          	auipc	x10,0x8
    b2e4:	c7d50513          	addi	x10,x10,-899 # 12f5d <trap_diag_field_tval2_str>
    b2e8:	00000013          	addi	x0,x0,0
    b2ec:	00000013          	addi	x0,x0,0
    b2f0:	00000013          	addi	x0,x0,0
    b2f4:	00000013          	addi	x0,x0,0
    b2f8:	00000013          	addi	x0,x0,0
    b2fc:	00000013          	addi	x0,x0,0
    b300:	0800006f          	jal	x0,b380 <trap_field_print>

0000b304 <trap_field_tinst>:
    b304:	00000013          	addi	x0,x0,0
    b308:	00000013          	addi	x0,x0,0
    b30c:	00000013          	addi	x0,x0,0
    b310:	00000013          	addi	x0,x0,0
    b314:	00000013          	addi	x0,x0,0
    b318:	00000013          	addi	x0,x0,0
    b31c:	00000013          	addi	x0,x0,0
    b320:	00008517          	auipc	x10,0x8
    b324:	c6950513          	addi	x10,x10,-919 # 12f89 <trap_diag_field_tinst_str>
    b328:	00000013          	addi	x0,x0,0
    b32c:	00000013          	addi	x0,x0,0
    b330:	00000013          	addi	x0,x0,0
    b334:	00000013          	addi	x0,x0,0
    b338:	00000013          	addi	x0,x0,0
    b33c:	00000013          	addi	x0,x0,0
    b340:	0400006f          	jal	x0,b380 <trap_field_print>

0000b344 <trap_field_intid>:
    b344:	00000013          	addi	x0,x0,0
    b348:	00000013          	addi	x0,x0,0
    b34c:	00000013          	addi	x0,x0,0
    b350:	00000013          	addi	x0,x0,0
    b354:	00000013          	addi	x0,x0,0
    b358:	00000013          	addi	x0,x0,0
    b35c:	00000013          	addi	x0,x0,0
    b360:	00008517          	auipc	x10,0x8
    b364:	c5550513          	addi	x10,x10,-939 # 12fb5 <trap_diag_field_intid_str>
    b368:	00000013          	addi	x0,x0,0
    b36c:	00000013          	addi	x0,x0,0
    b370:	00000013          	addi	x0,x0,0
    b374:	00000013          	addi	x0,x0,0
    b378:	00000013          	addi	x0,x0,0
    b37c:	00000013          	addi	x0,x0,0

0000b380 <trap_field_print>:
    b380:	00018097          	auipc	x1,0x18
    b384:	e84080e7          	jalr	x1,-380(x1) # 23204 <rvmodel_io_write_str>
    b388:	00000013          	addi	x0,x0,0
    b38c:	00000013          	addi	x0,x0,0
    b390:	00000013          	addi	x0,x0,0
    b394:	00000013          	addi	x0,x0,0
    b398:	00000013          	addi	x0,x0,0
    b39c:	00000013          	addi	x0,x0,0
    b3a0:	00008517          	auipc	x10,0x8
    b3a4:	c5350513          	addi	x10,x10,-941 # 12ff3 <trap_diag_expected_str>
    b3a8:	00000013          	addi	x0,x0,0
    b3ac:	00000013          	addi	x0,x0,0
    b3b0:	00000013          	addi	x0,x0,0
    b3b4:	00000013          	addi	x0,x0,0
    b3b8:	00000013          	addi	x0,x0,0
    b3bc:	00000013          	addi	x0,x0,0
    b3c0:	00018097          	auipc	x1,0x18
    b3c4:	e44080e7          	jalr	x1,-444(x1) # 23204 <rvmodel_io_write_str>
    b3c8:	00006517          	auipc	x10,0x6
    b3cc:	5f852503          	lw	x10,1528(x10) # 119c0 <trap_diag_expected_value>
    b3d0:	02000593          	addi	x11,x0,32
    b3d4:	664000ef          	jal	x1,ba38 <failedtest_hex_to_str>
    b3d8:	00000013          	addi	x0,x0,0
    b3dc:	00000013          	addi	x0,x0,0
    b3e0:	00006517          	auipc	x10,0x6
    b3e4:	62850513          	addi	x10,x10,1576 # 11a08 <ascii_buffer>
    b3e8:	00000013          	addi	x0,x0,0
    b3ec:	00000013          	addi	x0,x0,0
    b3f0:	00000013          	addi	x0,x0,0
    b3f4:	00000013          	addi	x0,x0,0
    b3f8:	00000013          	addi	x0,x0,0
    b3fc:	00000013          	addi	x0,x0,0
    b400:	00018097          	auipc	x1,0x18
    b404:	e04080e7          	jalr	x1,-508(x1) # 23204 <rvmodel_io_write_str>
    b408:	00000013          	addi	x0,x0,0
    b40c:	00000013          	addi	x0,x0,0
    b410:	00000013          	addi	x0,x0,0
    b414:	00000013          	addi	x0,x0,0
    b418:	00000013          	addi	x0,x0,0
    b41c:	00000013          	addi	x0,x0,0
    b420:	00008517          	auipc	x10,0x8
    b424:	bea50513          	addi	x10,x10,-1046 # 1300a <trap_diag_actual_str>
    b428:	00000013          	addi	x0,x0,0
    b42c:	00000013          	addi	x0,x0,0
    b430:	00000013          	addi	x0,x0,0
    b434:	00000013          	addi	x0,x0,0
    b438:	00000013          	addi	x0,x0,0
    b43c:	00000013          	addi	x0,x0,0
    b440:	00018097          	auipc	x1,0x18
    b444:	dc4080e7          	jalr	x1,-572(x1) # 23204 <rvmodel_io_write_str>
    b448:	00006517          	auipc	x10,0x6
    b44c:	57052503          	lw	x10,1392(x10) # 119b8 <trap_diag_actual_value>
    b450:	02000593          	addi	x11,x0,32
    b454:	5e4000ef          	jal	x1,ba38 <failedtest_hex_to_str>
    b458:	00000013          	addi	x0,x0,0
    b45c:	00000013          	addi	x0,x0,0
    b460:	00006517          	auipc	x10,0x6
    b464:	5a850513          	addi	x10,x10,1448 # 11a08 <ascii_buffer>
    b468:	00000013          	addi	x0,x0,0
    b46c:	00000013          	addi	x0,x0,0
    b470:	00000013          	addi	x0,x0,0
    b474:	00000013          	addi	x0,x0,0
    b478:	00000013          	addi	x0,x0,0
    b47c:	00000013          	addi	x0,x0,0
    b480:	00018097          	auipc	x1,0x18
    b484:	d84080e7          	jalr	x1,-636(x1) # 23204 <rvmodel_io_write_str>
    b488:	00006517          	auipc	x10,0x6
    b48c:	52852503          	lw	x10,1320(x10) # 119b0 <trap_diag_subtype>
    b490:	00200593          	addi	x11,x0,2
    b494:	08b51463          	bne	x10,x11,b51c <trap_field_not_cause>
    b498:	00000013          	addi	x0,x0,0
    b49c:	00000013          	addi	x0,x0,0
    b4a0:	00008517          	auipc	x10,0x8
    b4a4:	b8150513          	addi	x10,x10,-1151 # 13021 <trap_diag_expected_cause_name_str>
    b4a8:	00000013          	addi	x0,x0,0
    b4ac:	00000013          	addi	x0,x0,0
    b4b0:	00000013          	addi	x0,x0,0
    b4b4:	00000013          	addi	x0,x0,0
    b4b8:	00000013          	addi	x0,x0,0
    b4bc:	00000013          	addi	x0,x0,0
    b4c0:	00018097          	auipc	x1,0x18
    b4c4:	d44080e7          	jalr	x1,-700(x1) # 23204 <rvmodel_io_write_str>
    b4c8:	00006517          	auipc	x10,0x6
    b4cc:	4f852503          	lw	x10,1272(x10) # 119c0 <trap_diag_expected_value>
    b4d0:	284000ef          	jal	x1,b754 <trap_cause_to_str>
    b4d4:	00018097          	auipc	x1,0x18
    b4d8:	d30080e7          	jalr	x1,-720(x1) # 23204 <rvmodel_io_write_str>
    b4dc:	00000013          	addi	x0,x0,0
    b4e0:	00008517          	auipc	x10,0x8
    b4e4:	b5850513          	addi	x10,x10,-1192 # 13038 <trap_diag_actual_cause_name_str>
    b4e8:	00000013          	addi	x0,x0,0
    b4ec:	00000013          	addi	x0,x0,0
    b4f0:	00000013          	addi	x0,x0,0
    b4f4:	00000013          	addi	x0,x0,0
    b4f8:	00000013          	addi	x0,x0,0
    b4fc:	00000013          	addi	x0,x0,0
    b500:	00018097          	auipc	x1,0x18
    b504:	d04080e7          	jalr	x1,-764(x1) # 23204 <rvmodel_io_write_str>
    b508:	00006517          	auipc	x10,0x6
    b50c:	4b052503          	lw	x10,1200(x10) # 119b8 <trap_diag_actual_value>
    b510:	244000ef          	jal	x1,b754 <trap_cause_to_str>
    b514:	00018097          	auipc	x1,0x18
    b518:	cf0080e7          	jalr	x1,-784(x1) # 23204 <rvmodel_io_write_str>

0000b51c <trap_field_not_cause>:
    b51c:	00000097          	auipc	x1,0x0
    b520:	314080e7          	jalr	x1,788(x1) # b830 <failedtest_print_csr_context>
    b524:	00006517          	auipc	x10,0x6
    b528:	48c52503          	lw	x10,1164(x10) # 119b0 <trap_diag_subtype>
    b52c:	00100593          	addi	x11,x0,1
    b530:	02b51e63          	bne	x10,x11,b56c <trap_field_not_cause+0x50>
    b534:	00000013          	addi	x0,x0,0
    b538:	00000013          	addi	x0,x0,0
    b53c:	00000013          	addi	x0,x0,0
    b540:	00008517          	auipc	x10,0x8
    b544:	b6e50513          	addi	x10,x10,-1170 # 130ae <trap_diag_hint_vect_str>
    b548:	00000013          	addi	x0,x0,0
    b54c:	00000013          	addi	x0,x0,0
    b550:	00000013          	addi	x0,x0,0
    b554:	00000013          	addi	x0,x0,0
    b558:	00000013          	addi	x0,x0,0
    b55c:	00000013          	addi	x0,x0,0
    b560:	00018097          	auipc	x1,0x18
    b564:	ca4080e7          	jalr	x1,-860(x1) # 23204 <rvmodel_io_write_str>
    b568:	27c0006f          	jal	x0,b7e4 <failedtest_report_end>
    b56c:	00200593          	addi	x11,x0,2
    b570:	02b51e63          	bne	x10,x11,b5ac <trap_field_not_cause+0x90>
    b574:	00000013          	addi	x0,x0,0
    b578:	00000013          	addi	x0,x0,0
    b57c:	00000013          	addi	x0,x0,0
    b580:	00008517          	auipc	x10,0x8
    b584:	c0450513          	addi	x10,x10,-1020 # 13184 <trap_diag_hint_cause_str>
    b588:	00000013          	addi	x0,x0,0
    b58c:	00000013          	addi	x0,x0,0
    b590:	00000013          	addi	x0,x0,0
    b594:	00000013          	addi	x0,x0,0
    b598:	00000013          	addi	x0,x0,0
    b59c:	00000013          	addi	x0,x0,0
    b5a0:	00018097          	auipc	x1,0x18
    b5a4:	c64080e7          	jalr	x1,-924(x1) # 23204 <rvmodel_io_write_str>
    b5a8:	23c0006f          	jal	x0,b7e4 <failedtest_report_end>
    b5ac:	00300593          	addi	x11,x0,3
    b5b0:	02b51e63          	bne	x10,x11,b5ec <trap_field_not_cause+0xd0>
    b5b4:	00000013          	addi	x0,x0,0
    b5b8:	00000013          	addi	x0,x0,0
    b5bc:	00000013          	addi	x0,x0,0
    b5c0:	00008517          	auipc	x10,0x8
    b5c4:	cb750513          	addi	x10,x10,-841 # 13277 <trap_diag_hint_epc_str>
    b5c8:	00000013          	addi	x0,x0,0
    b5cc:	00000013          	addi	x0,x0,0
    b5d0:	00000013          	addi	x0,x0,0
    b5d4:	00000013          	addi	x0,x0,0
    b5d8:	00000013          	addi	x0,x0,0
    b5dc:	00000013          	addi	x0,x0,0
    b5e0:	00018097          	auipc	x1,0x18
    b5e4:	c24080e7          	jalr	x1,-988(x1) # 23204 <rvmodel_io_write_str>
    b5e8:	1fc0006f          	jal	x0,b7e4 <failedtest_report_end>
    b5ec:	00400593          	addi	x11,x0,4
    b5f0:	02b51e63          	bne	x10,x11,b62c <trap_field_not_cause+0x110>
    b5f4:	00000013          	addi	x0,x0,0
    b5f8:	00000013          	addi	x0,x0,0
    b5fc:	00000013          	addi	x0,x0,0
    b600:	00008517          	auipc	x10,0x8
    b604:	d7250513          	addi	x10,x10,-654 # 13372 <trap_diag_hint_tval_str>
    b608:	00000013          	addi	x0,x0,0
    b60c:	00000013          	addi	x0,x0,0
    b610:	00000013          	addi	x0,x0,0
    b614:	00000013          	addi	x0,x0,0
    b618:	00000013          	addi	x0,x0,0
    b61c:	00000013          	addi	x0,x0,0
    b620:	00018097          	auipc	x1,0x18
    b624:	be4080e7          	jalr	x1,-1052(x1) # 23204 <rvmodel_io_write_str>
    b628:	1bc0006f          	jal	x0,b7e4 <failedtest_report_end>
    b62c:	00500593          	addi	x11,x0,5
    b630:	02b51e63          	bne	x10,x11,b66c <trap_field_not_cause+0x150>
    b634:	00000013          	addi	x0,x0,0
    b638:	00000013          	addi	x0,x0,0
    b63c:	00000013          	addi	x0,x0,0
    b640:	00008517          	auipc	x10,0x8
    b644:	e1950513          	addi	x10,x10,-487 # 13459 <trap_diag_hint_ip_str>
    b648:	00000013          	addi	x0,x0,0
    b64c:	00000013          	addi	x0,x0,0
    b650:	00000013          	addi	x0,x0,0
    b654:	00000013          	addi	x0,x0,0
    b658:	00000013          	addi	x0,x0,0
    b65c:	00000013          	addi	x0,x0,0
    b660:	00018097          	auipc	x1,0x18
    b664:	ba4080e7          	jalr	x1,-1116(x1) # 23204 <rvmodel_io_write_str>
    b668:	17c0006f          	jal	x0,b7e4 <failedtest_report_end>
    b66c:	1780006f          	jal	x0,b7e4 <failedtest_report_end>

0000b670 <trap_report_generic>:
    b670:	00000013          	addi	x0,x0,0
    b674:	00000013          	addi	x0,x0,0
    b678:	00000013          	addi	x0,x0,0
    b67c:	00000013          	addi	x0,x0,0
    b680:	00008517          	auipc	x10,0x8
    b684:	9e650513          	addi	x10,x10,-1562 # 13066 <trap_diag_generic_str>
    b688:	00000013          	addi	x0,x0,0
    b68c:	00000013          	addi	x0,x0,0
    b690:	00000013          	addi	x0,x0,0
    b694:	00000013          	addi	x0,x0,0
    b698:	00000013          	addi	x0,x0,0
    b69c:	00000013          	addi	x0,x0,0
    b6a0:	00018097          	auipc	x1,0x18
    b6a4:	b64080e7          	jalr	x1,-1180(x1) # 23204 <rvmodel_io_write_str>
    b6a8:	00006617          	auipc	x12,0x6
    b6ac:	34062603          	lw	x12,832(x12) # 119e8 <saved_mepc>
    b6b0:	00000013          	addi	x0,x0,0
    b6b4:	00000013          	addi	x0,x0,0
    b6b8:	00000013          	addi	x0,x0,0
    b6bc:	00000013          	addi	x0,x0,0
    b6c0:	00007517          	auipc	x10,0x7
    b6c4:	98950513          	addi	x10,x10,-1655 # 12049 <xepcinstrstr>
    b6c8:	00000013          	addi	x0,x0,0
    b6cc:	00000013          	addi	x0,x0,0
    b6d0:	00000013          	addi	x0,x0,0
    b6d4:	00000013          	addi	x0,x0,0
    b6d8:	00000013          	addi	x0,x0,0
    b6dc:	00000013          	addi	x0,x0,0
    b6e0:	00018097          	auipc	x1,0x18
    b6e4:	b24080e7          	jalr	x1,-1244(x1) # 23204 <rvmodel_io_write_str>
    b6e8:	00065503          	lhu	x10,0(x12)
    b6ec:	01000593          	addi	x11,x0,16
    b6f0:	00357413          	andi	x8,x10,3
    b6f4:	00300493          	addi	x9,x0,3
    b6f8:	00941a63          	bne	x8,x9,b70c <trap_report_generic+0x9c>
    b6fc:	00265403          	lhu	x8,2(x12)
    b700:	01041413          	slli	x8,x8,0x10
    b704:	00856533          	or	x10,x10,x8
    b708:	02000593          	addi	x11,x0,32
    b70c:	32c000ef          	jal	x1,ba38 <failedtest_hex_to_str>
    b710:	00000013          	addi	x0,x0,0
    b714:	00000013          	addi	x0,x0,0
    b718:	00000013          	addi	x0,x0,0
    b71c:	00000013          	addi	x0,x0,0
    b720:	00006517          	auipc	x10,0x6
    b724:	2e850513          	addi	x10,x10,744 # 11a08 <ascii_buffer>
    b728:	00000013          	addi	x0,x0,0
    b72c:	00000013          	addi	x0,x0,0
    b730:	00000013          	addi	x0,x0,0
    b734:	00000013          	addi	x0,x0,0
    b738:	00000013          	addi	x0,x0,0
    b73c:	00000013          	addi	x0,x0,0
    b740:	00018097          	auipc	x1,0x18
    b744:	ac4080e7          	jalr	x1,-1340(x1) # 23204 <rvmodel_io_write_str>
    b748:	00000097          	auipc	x1,0x0
    b74c:	0e8080e7          	jalr	x1,232(x1) # b830 <failedtest_print_csr_context>
    b750:	0940006f          	jal	x0,b7e4 <failedtest_report_end>

0000b754 <trap_cause_to_str>:
    b754:	02054263          	blt	x10,x0,b778 <trap_cause_interrupt>

0000b758 <trap_cause_exception>:
    b758:	01800593          	addi	x11,x0,24
    b75c:	04b55463          	bge	x10,x11,b7a4 <trap_cause_unknown>
    b760:	00006597          	auipc	x11,0x6
    b764:	2d058593          	addi	x11,x11,720 # 11a30 <end_failure_scratch>
    b768:	00251613          	slli	x12,x10,0x2
    b76c:	00c585b3          	add	x11,x11,x12
    b770:	0005a503          	lw	x10,0(x11)
    b774:	00008067          	jalr	x0,0(x1)

0000b778 <trap_cause_interrupt>:
    b778:	00100593          	addi	x11,x0,1
    b77c:	01f59593          	slli	x11,x11,0x1f
    b780:	00b54533          	xor	x10,x10,x11
    b784:	01000593          	addi	x11,x0,16
    b788:	00b55e63          	bge	x10,x11,b7a4 <trap_cause_unknown>
    b78c:	00006597          	auipc	x11,0x6
    b790:	30458593          	addi	x11,x11,772 # 11a90 <trap_int_name_tbl>
    b794:	00251613          	slli	x12,x10,0x2
    b798:	00c585b3          	add	x11,x11,x12
    b79c:	0005a503          	lw	x10,0(x11)
    b7a0:	00008067          	jalr	x0,0(x1)

0000b7a4 <trap_cause_unknown>:
    b7a4:	00000013          	addi	x0,x0,0
    b7a8:	00000013          	addi	x0,x0,0
    b7ac:	00000013          	addi	x0,x0,0
    b7b0:	00000013          	addi	x0,x0,0
    b7b4:	00000013          	addi	x0,x0,0
    b7b8:	00000013          	addi	x0,x0,0
    b7bc:	00000013          	addi	x0,x0,0
    b7c0:	00006517          	auipc	x10,0x6
    b7c4:	70e50513          	addi	x10,x10,1806 # 11ece <trap_cause_unknown_str>
    b7c8:	00000013          	addi	x0,x0,0
    b7cc:	00000013          	addi	x0,x0,0
    b7d0:	00000013          	addi	x0,x0,0
    b7d4:	00000013          	addi	x0,x0,0
    b7d8:	00000013          	addi	x0,x0,0
    b7dc:	00000013          	addi	x0,x0,0
    b7e0:	00008067          	jalr	x0,0(x1)

0000b7e4 <failedtest_report_end>:
    b7e4:	00000013          	addi	x0,x0,0
    b7e8:	00000013          	addi	x0,x0,0
    b7ec:	00000013          	addi	x0,x0,0
    b7f0:	00000013          	addi	x0,x0,0
    b7f4:	00000013          	addi	x0,x0,0
    b7f8:	00000013          	addi	x0,x0,0
    b7fc:	00000013          	addi	x0,x0,0
    b800:	00007517          	auipc	x10,0x7
    b804:	29150513          	addi	x10,x10,657 # 12a91 <endstr>
    b808:	00000013          	addi	x0,x0,0
    b80c:	00000013          	addi	x0,x0,0
    b810:	00000013          	addi	x0,x0,0
    b814:	00000013          	addi	x0,x0,0
    b818:	00000013          	addi	x0,x0,0
    b81c:	00000013          	addi	x0,x0,0
    b820:	00018097          	auipc	x1,0x18
    b824:	9e4080e7          	jalr	x1,-1564(x1) # 23204 <rvmodel_io_write_str>

0000b828 <failedtest_terminate>:
    b828:	00018097          	auipc	x1,0x18
    b82c:	9ec080e7          	jalr	x1,-1556(x1) # 23214 <rvmodel_halt_fail>

0000b830 <failedtest_print_csr_context>:
    b830:	00006617          	auipc	x12,0x6
    b834:	1b060613          	addi	x12,x12,432 # 119e0 <csr_context_ret_addr>
    b838:	00162023          	sw	x1,0(x12)
    b83c:	00000013          	addi	x0,x0,0
    b840:	00007517          	auipc	x10,0x7
    b844:	82a50513          	addi	x10,x10,-2006 # 1206a <mepcstr>
    b848:	00000013          	addi	x0,x0,0
    b84c:	00000013          	addi	x0,x0,0
    b850:	00000013          	addi	x0,x0,0
    b854:	00000013          	addi	x0,x0,0
    b858:	00000013          	addi	x0,x0,0
    b85c:	00000013          	addi	x0,x0,0
    b860:	00018097          	auipc	x1,0x18
    b864:	9a4080e7          	jalr	x1,-1628(x1) # 23204 <rvmodel_io_write_str>
    b868:	00006517          	auipc	x10,0x6
    b86c:	18052503          	lw	x10,384(x10) # 119e8 <saved_mepc>
    b870:	02000593          	addi	x11,x0,32
    b874:	1c4000ef          	jal	x1,ba38 <failedtest_hex_to_str>
    b878:	00000013          	addi	x0,x0,0
    b87c:	00000013          	addi	x0,x0,0
    b880:	00006517          	auipc	x10,0x6
    b884:	18850513          	addi	x10,x10,392 # 11a08 <ascii_buffer>
    b888:	00000013          	addi	x0,x0,0
    b88c:	00000013          	addi	x0,x0,0
    b890:	00000013          	addi	x0,x0,0
    b894:	00000013          	addi	x0,x0,0
    b898:	00000013          	addi	x0,x0,0
    b89c:	00000013          	addi	x0,x0,0
    b8a0:	00018097          	auipc	x1,0x18
    b8a4:	964080e7          	jalr	x1,-1692(x1) # 23204 <rvmodel_io_write_str>
    b8a8:	00000013          	addi	x0,x0,0
    b8ac:	00000013          	addi	x0,x0,0
    b8b0:	00000013          	addi	x0,x0,0
    b8b4:	00000013          	addi	x0,x0,0
    b8b8:	00000013          	addi	x0,x0,0
    b8bc:	00000013          	addi	x0,x0,0
    b8c0:	00006517          	auipc	x10,0x6
    b8c4:	7ba50513          	addi	x10,x10,1978 # 1207a <mcausestr>
    b8c8:	00000013          	addi	x0,x0,0
    b8cc:	00000013          	addi	x0,x0,0
    b8d0:	00000013          	addi	x0,x0,0
    b8d4:	00000013          	addi	x0,x0,0
    b8d8:	00000013          	addi	x0,x0,0
    b8dc:	00000013          	addi	x0,x0,0
    b8e0:	00018097          	auipc	x1,0x18
    b8e4:	924080e7          	jalr	x1,-1756(x1) # 23204 <rvmodel_io_write_str>
    b8e8:	00006517          	auipc	x10,0x6
    b8ec:	10852503          	lw	x10,264(x10) # 119f0 <saved_mcause>
    b8f0:	02000593          	addi	x11,x0,32
    b8f4:	144000ef          	jal	x1,ba38 <failedtest_hex_to_str>
    b8f8:	00000013          	addi	x0,x0,0
    b8fc:	00000013          	addi	x0,x0,0
    b900:	00006517          	auipc	x10,0x6
    b904:	10850513          	addi	x10,x10,264 # 11a08 <ascii_buffer>
    b908:	00000013          	addi	x0,x0,0
    b90c:	00000013          	addi	x0,x0,0
    b910:	00000013          	addi	x0,x0,0
    b914:	00000013          	addi	x0,x0,0
    b918:	00000013          	addi	x0,x0,0
    b91c:	00000013          	addi	x0,x0,0
    b920:	00018097          	auipc	x1,0x18
    b924:	8e4080e7          	jalr	x1,-1820(x1) # 23204 <rvmodel_io_write_str>
    b928:	00000013          	addi	x0,x0,0
    b92c:	00000013          	addi	x0,x0,0
    b930:	00000013          	addi	x0,x0,0
    b934:	00000013          	addi	x0,x0,0
    b938:	00000013          	addi	x0,x0,0
    b93c:	00000013          	addi	x0,x0,0
    b940:	00006517          	auipc	x10,0x6
    b944:	74a50513          	addi	x10,x10,1866 # 1208a <mtvalstr>
    b948:	00000013          	addi	x0,x0,0
    b94c:	00000013          	addi	x0,x0,0
    b950:	00000013          	addi	x0,x0,0
    b954:	00000013          	addi	x0,x0,0
    b958:	00000013          	addi	x0,x0,0
    b95c:	00000013          	addi	x0,x0,0
    b960:	00018097          	auipc	x1,0x18
    b964:	8a4080e7          	jalr	x1,-1884(x1) # 23204 <rvmodel_io_write_str>
    b968:	00006517          	auipc	x10,0x6
    b96c:	09052503          	lw	x10,144(x10) # 119f8 <saved_mtval>
    b970:	02000593          	addi	x11,x0,32
    b974:	0c4000ef          	jal	x1,ba38 <failedtest_hex_to_str>
    b978:	00000013          	addi	x0,x0,0
    b97c:	00000013          	addi	x0,x0,0
    b980:	00006517          	auipc	x10,0x6
    b984:	08850513          	addi	x10,x10,136 # 11a08 <ascii_buffer>
    b988:	00000013          	addi	x0,x0,0
    b98c:	00000013          	addi	x0,x0,0
    b990:	00000013          	addi	x0,x0,0
    b994:	00000013          	addi	x0,x0,0
    b998:	00000013          	addi	x0,x0,0
    b99c:	00000013          	addi	x0,x0,0
    b9a0:	00018097          	auipc	x1,0x18
    b9a4:	864080e7          	jalr	x1,-1948(x1) # 23204 <rvmodel_io_write_str>
    b9a8:	00000013          	addi	x0,x0,0
    b9ac:	00000013          	addi	x0,x0,0
    b9b0:	00000013          	addi	x0,x0,0
    b9b4:	00000013          	addi	x0,x0,0
    b9b8:	00000013          	addi	x0,x0,0
    b9bc:	00000013          	addi	x0,x0,0
    b9c0:	00006517          	auipc	x10,0x6
    b9c4:	6da50513          	addi	x10,x10,1754 # 1209a <mstatusstr>
    b9c8:	00000013          	addi	x0,x0,0
    b9cc:	00000013          	addi	x0,x0,0
    b9d0:	00000013          	addi	x0,x0,0
    b9d4:	00000013          	addi	x0,x0,0
    b9d8:	00000013          	addi	x0,x0,0
    b9dc:	00000013          	addi	x0,x0,0
    b9e0:	00018097          	auipc	x1,0x18
    b9e4:	824080e7          	jalr	x1,-2012(x1) # 23204 <rvmodel_io_write_str>
    b9e8:	00006517          	auipc	x10,0x6
    b9ec:	01852503          	lw	x10,24(x10) # 11a00 <saved_mstatus>
    b9f0:	02000593          	addi	x11,x0,32
    b9f4:	044000ef          	jal	x1,ba38 <failedtest_hex_to_str>
    b9f8:	00000013          	addi	x0,x0,0
    b9fc:	00000013          	addi	x0,x0,0
    ba00:	00006517          	auipc	x10,0x6
    ba04:	00850513          	addi	x10,x10,8 # 11a08 <ascii_buffer>
    ba08:	00000013          	addi	x0,x0,0
    ba0c:	00000013          	addi	x0,x0,0
    ba10:	00000013          	addi	x0,x0,0
    ba14:	00000013          	addi	x0,x0,0
    ba18:	00000013          	addi	x0,x0,0
    ba1c:	00000013          	addi	x0,x0,0
    ba20:	00017097          	auipc	x1,0x17
    ba24:	7e4080e7          	jalr	x1,2020(x1) # 23204 <rvmodel_io_write_str>
    ba28:	00006617          	auipc	x12,0x6
    ba2c:	fb860613          	addi	x12,x12,-72 # 119e0 <csr_context_ret_addr>
    ba30:	00062083          	lw	x1,0(x12)
    ba34:	00008067          	jalr	x0,0(x1)

0000ba38 <failedtest_hex_to_str>:
    ba38:	00000013          	addi	x0,x0,0
    ba3c:	00000013          	addi	x0,x0,0
    ba40:	00006617          	auipc	x12,0x6
    ba44:	fc860613          	addi	x12,x12,-56 # 11a08 <ascii_buffer>
    ba48:	00000013          	addi	x0,x0,0
    ba4c:	00000013          	addi	x0,x0,0
    ba50:	00000013          	addi	x0,x0,0
    ba54:	00000013          	addi	x0,x0,0
    ba58:	00000013          	addi	x0,x0,0
    ba5c:	00000013          	addi	x0,x0,0
    ba60:	03000693          	addi	x13,x0,48
    ba64:	00d60023          	sb	x13,0(x12)
    ba68:	07800693          	addi	x13,x0,120
    ba6c:	00d600a3          	sb	x13,1(x12)
    ba70:	00260613          	addi	x12,x12,2
    ba74:	00058693          	addi	x13,x11,0

0000ba78 <failedtest_hex_to_str_loop>:
    ba78:	ffc68693          	addi	x13,x13,-4
    ba7c:	00d55733          	srl	x14,x10,x13
    ba80:	00f77713          	andi	x14,x14,15
    ba84:	00a00793          	addi	x15,x0,10
    ba88:	00f74663          	blt	x14,x15,ba94 <failedtest_hex_to_str_digit>
    ba8c:	05770713          	addi	x14,x14,87
    ba90:	0080006f          	jal	x0,ba98 <failedtest_hex_to_str_write>

0000ba94 <failedtest_hex_to_str_digit>:
    ba94:	03070713          	addi	x14,x14,48

0000ba98 <failedtest_hex_to_str_write>:
    ba98:	00e60023          	sb	x14,0(x12)
    ba9c:	00160613          	addi	x12,x12,1
    baa0:	fc069ce3          	bne	x13,x0,ba78 <failedtest_hex_to_str_loop>
    baa4:	00a00693          	addi	x13,x0,10
    baa8:	00d60023          	sb	x13,0(x12)
    baac:	000600a3          	sb	x0,1(x12)
    bab0:	00008067          	jalr	x0,0(x1)

0000bab4 <failedtest_dec_to_str>:
    bab4:	00a00693          	addi	x13,x0,10
    bab8:	02d54663          	blt	x10,x13,bae4 <failedtest_dec_to_str+0x30>
    babc:	ff650513          	addi	x10,x10,-10
    bac0:	03100713          	addi	x14,x0,49
    bac4:	00d54c63          	blt	x10,x13,badc <failedtest_dec_to_str+0x28>
    bac8:	ff650513          	addi	x10,x10,-10
    bacc:	03200713          	addi	x14,x0,50
    bad0:	00d54663          	blt	x10,x13,badc <failedtest_dec_to_str+0x28>
    bad4:	ff650513          	addi	x10,x10,-10
    bad8:	03300713          	addi	x14,x0,51
    badc:	00e60023          	sb	x14,0(x12)
    bae0:	00160613          	addi	x12,x12,1
    bae4:	03050513          	addi	x10,x10,48
    bae8:	00a60023          	sb	x10,0(x12)
    baec:	00a00693          	addi	x13,x0,10
    baf0:	00d600a3          	sb	x13,1(x12)
    baf4:	00060123          	sb	x0,2(x12)
    baf8:	00008067          	jalr	x0,0(x1)
    bafc:	00000013          	addi	x0,x0,0
    bb00:	00000013          	addi	x0,x0,0
    bb04:	00000013          	addi	x0,x0,0
    bb08:	00000013          	addi	x0,x0,0
    bb0c:	00000013          	addi	x0,x0,0
    bb10:	00000013          	addi	x0,x0,0
    bb14:	00000013          	addi	x0,x0,0
    bb18:	00000013          	addi	x0,x0,0
    bb1c:	00000013          	addi	x0,x0,0
    bb20:	00000013          	addi	x0,x0,0
    bb24:	00000013          	addi	x0,x0,0
    bb28:	00000013          	addi	x0,x0,0
    bb2c:	00000013          	addi	x0,x0,0
    bb30:	00000013          	addi	x0,x0,0
    bb34:	00000013          	addi	x0,x0,0
    bb38:	00000013          	addi	x0,x0,0
    bb3c:	00000013          	addi	x0,x0,0
    bb40:	00000013          	addi	x0,x0,0
    bb44:	00000013          	addi	x0,x0,0
    bb48:	00000013          	addi	x0,x0,0
    bb4c:	00000013          	addi	x0,x0,0
    bb50:	00000013          	addi	x0,x0,0
    bb54:	00000013          	addi	x0,x0,0
    bb58:	00000013          	addi	x0,x0,0
    bb5c:	00000013          	addi	x0,x0,0
    bb60:	00000013          	addi	x0,x0,0
    bb64:	00000013          	addi	x0,x0,0
    bb68:	00000013          	addi	x0,x0,0
    bb6c:	00000013          	addi	x0,x0,0
    bb70:	00000013          	addi	x0,x0,0
    bb74:	00000013          	addi	x0,x0,0
    bb78:	00000013          	addi	x0,x0,0
    bb7c:	00000013          	addi	x0,x0,0
    bb80:	00000013          	addi	x0,x0,0
    bb84:	00000013          	addi	x0,x0,0
    bb88:	00000013          	addi	x0,x0,0
    bb8c:	00000013          	addi	x0,x0,0
    bb90:	00000013          	addi	x0,x0,0
    bb94:	00000013          	addi	x0,x0,0
    bb98:	00000013          	addi	x0,x0,0
    bb9c:	00000013          	addi	x0,x0,0
    bba0:	00000013          	addi	x0,x0,0
    bba4:	00000013          	addi	x0,x0,0
    bba8:	00000013          	addi	x0,x0,0
    bbac:	00000013          	addi	x0,x0,0
    bbb0:	00000013          	addi	x0,x0,0
    bbb4:	00000013          	addi	x0,x0,0
    bbb8:	00000013          	addi	x0,x0,0
    bbbc:	00000013          	addi	x0,x0,0
    bbc0:	00000013          	addi	x0,x0,0
    bbc4:	00000013          	addi	x0,x0,0
    bbc8:	00000013          	addi	x0,x0,0
    bbcc:	00000013          	addi	x0,x0,0
    bbd0:	00000013          	addi	x0,x0,0
    bbd4:	00000013          	addi	x0,x0,0
    bbd8:	00000013          	addi	x0,x0,0
    bbdc:	00000013          	addi	x0,x0,0
    bbe0:	00000013          	addi	x0,x0,0
    bbe4:	00000013          	addi	x0,x0,0
    bbe8:	00000013          	addi	x0,x0,0
    bbec:	00000013          	addi	x0,x0,0
    bbf0:	00000013          	addi	x0,x0,0
    bbf4:	00000013          	addi	x0,x0,0
    bbf8:	00000013          	addi	x0,x0,0
    bbfc:	00000013          	addi	x0,x0,0
    bc00:	00000013          	addi	x0,x0,0
    bc04:	00000013          	addi	x0,x0,0
    bc08:	00000013          	addi	x0,x0,0
    bc0c:	00000013          	addi	x0,x0,0
    bc10:	00000013          	addi	x0,x0,0
    bc14:	00000013          	addi	x0,x0,0
    bc18:	00000013          	addi	x0,x0,0
    bc1c:	00000013          	addi	x0,x0,0
    bc20:	00000013          	addi	x0,x0,0
    bc24:	00000013          	addi	x0,x0,0
    bc28:	00000013          	addi	x0,x0,0
    bc2c:	00000013          	addi	x0,x0,0
    bc30:	00000013          	addi	x0,x0,0
    bc34:	00000013          	addi	x0,x0,0
    bc38:	00000013          	addi	x0,x0,0
    bc3c:	00000013          	addi	x0,x0,0
    bc40:	00000013          	addi	x0,x0,0
    bc44:	00000013          	addi	x0,x0,0
    bc48:	00000013          	addi	x0,x0,0
    bc4c:	00000013          	addi	x0,x0,0
    bc50:	00000013          	addi	x0,x0,0
    bc54:	00000013          	addi	x0,x0,0
    bc58:	00000013          	addi	x0,x0,0
    bc5c:	00000013          	addi	x0,x0,0
    bc60:	00000013          	addi	x0,x0,0
    bc64:	00000013          	addi	x0,x0,0
    bc68:	00000013          	addi	x0,x0,0
    bc6c:	00000013          	addi	x0,x0,0
    bc70:	00000013          	addi	x0,x0,0
    bc74:	00000013          	addi	x0,x0,0
    bc78:	00000013          	addi	x0,x0,0
    bc7c:	00000013          	addi	x0,x0,0
    bc80:	00000013          	addi	x0,x0,0
    bc84:	00000013          	addi	x0,x0,0
    bc88:	00000013          	addi	x0,x0,0
    bc8c:	00000013          	addi	x0,x0,0
    bc90:	00000013          	addi	x0,x0,0
    bc94:	00000013          	addi	x0,x0,0
    bc98:	00000013          	addi	x0,x0,0
    bc9c:	00000013          	addi	x0,x0,0
    bca0:	00000013          	addi	x0,x0,0
    bca4:	00000013          	addi	x0,x0,0
    bca8:	00000013          	addi	x0,x0,0
    bcac:	00000013          	addi	x0,x0,0
    bcb0:	00000013          	addi	x0,x0,0
    bcb4:	00000013          	addi	x0,x0,0
    bcb8:	00000013          	addi	x0,x0,0
    bcbc:	00000013          	addi	x0,x0,0
    bcc0:	00000013          	addi	x0,x0,0
    bcc4:	00000013          	addi	x0,x0,0
    bcc8:	00000013          	addi	x0,x0,0
    bccc:	00000013          	addi	x0,x0,0
    bcd0:	00000013          	addi	x0,x0,0
    bcd4:	00000013          	addi	x0,x0,0
    bcd8:	00000013          	addi	x0,x0,0
    bcdc:	00000013          	addi	x0,x0,0
    bce0:	00000013          	addi	x0,x0,0
    bce4:	00000013          	addi	x0,x0,0
    bce8:	00000013          	addi	x0,x0,0
    bcec:	00000013          	addi	x0,x0,0
    bcf0:	00000013          	addi	x0,x0,0
    bcf4:	00000013          	addi	x0,x0,0
    bcf8:	00000013          	addi	x0,x0,0
    bcfc:	00000013          	addi	x0,x0,0
    bd00:	00000013          	addi	x0,x0,0
    bd04:	00000013          	addi	x0,x0,0
    bd08:	00000013          	addi	x0,x0,0
    bd0c:	00000013          	addi	x0,x0,0
    bd10:	00000013          	addi	x0,x0,0
    bd14:	00000013          	addi	x0,x0,0
    bd18:	00000013          	addi	x0,x0,0
    bd1c:	00000013          	addi	x0,x0,0
    bd20:	00000013          	addi	x0,x0,0
    bd24:	00000013          	addi	x0,x0,0
    bd28:	00000013          	addi	x0,x0,0
    bd2c:	00000013          	addi	x0,x0,0
    bd30:	00000013          	addi	x0,x0,0
    bd34:	00000013          	addi	x0,x0,0
    bd38:	00000013          	addi	x0,x0,0
    bd3c:	00000013          	addi	x0,x0,0
    bd40:	00000013          	addi	x0,x0,0
    bd44:	00000013          	addi	x0,x0,0
    bd48:	00000013          	addi	x0,x0,0
    bd4c:	00000013          	addi	x0,x0,0
    bd50:	00000013          	addi	x0,x0,0
    bd54:	00000013          	addi	x0,x0,0
    bd58:	00000013          	addi	x0,x0,0
    bd5c:	00000013          	addi	x0,x0,0
    bd60:	00000013          	addi	x0,x0,0
    bd64:	00000013          	addi	x0,x0,0
    bd68:	00000013          	addi	x0,x0,0
    bd6c:	00000013          	addi	x0,x0,0
    bd70:	00000013          	addi	x0,x0,0
    bd74:	00000013          	addi	x0,x0,0
    bd78:	00000013          	addi	x0,x0,0
    bd7c:	00000013          	addi	x0,x0,0
    bd80:	00000013          	addi	x0,x0,0
    bd84:	00000013          	addi	x0,x0,0
    bd88:	00000013          	addi	x0,x0,0
    bd8c:	00000013          	addi	x0,x0,0
    bd90:	00000013          	addi	x0,x0,0
    bd94:	00000013          	addi	x0,x0,0
    bd98:	00000013          	addi	x0,x0,0
    bd9c:	00000013          	addi	x0,x0,0
    bda0:	00000013          	addi	x0,x0,0
    bda4:	00000013          	addi	x0,x0,0
    bda8:	00000013          	addi	x0,x0,0
    bdac:	00000013          	addi	x0,x0,0
    bdb0:	00000013          	addi	x0,x0,0
    bdb4:	00000013          	addi	x0,x0,0
    bdb8:	00000013          	addi	x0,x0,0
    bdbc:	00000013          	addi	x0,x0,0
    bdc0:	00000013          	addi	x0,x0,0
    bdc4:	00000013          	addi	x0,x0,0
    bdc8:	00000013          	addi	x0,x0,0
    bdcc:	00000013          	addi	x0,x0,0
    bdd0:	00000013          	addi	x0,x0,0
    bdd4:	00000013          	addi	x0,x0,0
    bdd8:	00000013          	addi	x0,x0,0
    bddc:	00000013          	addi	x0,x0,0
    bde0:	00000013          	addi	x0,x0,0
    bde4:	00000013          	addi	x0,x0,0
    bde8:	00000013          	addi	x0,x0,0
    bdec:	00000013          	addi	x0,x0,0
    bdf0:	00000013          	addi	x0,x0,0
    bdf4:	00000013          	addi	x0,x0,0
    bdf8:	00000013          	addi	x0,x0,0
    bdfc:	00000013          	addi	x0,x0,0
    be00:	00000013          	addi	x0,x0,0
    be04:	00000013          	addi	x0,x0,0
    be08:	00000013          	addi	x0,x0,0
    be0c:	00000013          	addi	x0,x0,0
    be10:	00000013          	addi	x0,x0,0
    be14:	00000013          	addi	x0,x0,0
    be18:	00000013          	addi	x0,x0,0
    be1c:	00000013          	addi	x0,x0,0
    be20:	00000013          	addi	x0,x0,0
    be24:	00000013          	addi	x0,x0,0
    be28:	00000013          	addi	x0,x0,0
    be2c:	00000013          	addi	x0,x0,0
    be30:	00000013          	addi	x0,x0,0
    be34:	00000013          	addi	x0,x0,0
    be38:	00000013          	addi	x0,x0,0
    be3c:	00000013          	addi	x0,x0,0
    be40:	00000013          	addi	x0,x0,0
    be44:	00000013          	addi	x0,x0,0
    be48:	00000013          	addi	x0,x0,0
    be4c:	00000013          	addi	x0,x0,0
    be50:	00000013          	addi	x0,x0,0
    be54:	00000013          	addi	x0,x0,0
    be58:	00000013          	addi	x0,x0,0
    be5c:	00000013          	addi	x0,x0,0
    be60:	00000013          	addi	x0,x0,0
    be64:	00000013          	addi	x0,x0,0
    be68:	00000013          	addi	x0,x0,0
    be6c:	00000013          	addi	x0,x0,0
    be70:	00000013          	addi	x0,x0,0
    be74:	00000013          	addi	x0,x0,0
    be78:	00000013          	addi	x0,x0,0
    be7c:	00000013          	addi	x0,x0,0
    be80:	00000013          	addi	x0,x0,0
    be84:	00000013          	addi	x0,x0,0
    be88:	00000013          	addi	x0,x0,0
    be8c:	00000013          	addi	x0,x0,0
    be90:	00000013          	addi	x0,x0,0
    be94:	00000013          	addi	x0,x0,0
    be98:	00000013          	addi	x0,x0,0
    be9c:	00000013          	addi	x0,x0,0
    bea0:	00000013          	addi	x0,x0,0
    bea4:	00000013          	addi	x0,x0,0
    bea8:	00000013          	addi	x0,x0,0
    beac:	00000013          	addi	x0,x0,0
    beb0:	00000013          	addi	x0,x0,0
    beb4:	00000013          	addi	x0,x0,0
    beb8:	00000013          	addi	x0,x0,0
    bebc:	00000013          	addi	x0,x0,0
    bec0:	00000013          	addi	x0,x0,0
    bec4:	00000013          	addi	x0,x0,0
    bec8:	00000013          	addi	x0,x0,0
    becc:	00000013          	addi	x0,x0,0
    bed0:	00000013          	addi	x0,x0,0
    bed4:	00000013          	addi	x0,x0,0
    bed8:	00000013          	addi	x0,x0,0
    bedc:	00000013          	addi	x0,x0,0
    bee0:	00000013          	addi	x0,x0,0
    bee4:	00000013          	addi	x0,x0,0
    bee8:	00000013          	addi	x0,x0,0
    beec:	00000013          	addi	x0,x0,0
    bef0:	00000013          	addi	x0,x0,0
    bef4:	00000013          	addi	x0,x0,0
    bef8:	00000013          	addi	x0,x0,0
    befc:	00000013          	addi	x0,x0,0
    bf00:	00000013          	addi	x0,x0,0
    bf04:	00000013          	addi	x0,x0,0
    bf08:	00000013          	addi	x0,x0,0
    bf0c:	00000013          	addi	x0,x0,0
    bf10:	00000013          	addi	x0,x0,0
    bf14:	00000013          	addi	x0,x0,0
    bf18:	00000013          	addi	x0,x0,0
    bf1c:	00000013          	addi	x0,x0,0
    bf20:	00000013          	addi	x0,x0,0
    bf24:	00000013          	addi	x0,x0,0
    bf28:	00000013          	addi	x0,x0,0
    bf2c:	00000013          	addi	x0,x0,0
    bf30:	00000013          	addi	x0,x0,0
    bf34:	00000013          	addi	x0,x0,0
    bf38:	00000013          	addi	x0,x0,0
    bf3c:	00000013          	addi	x0,x0,0
    bf40:	00000013          	addi	x0,x0,0
    bf44:	00000013          	addi	x0,x0,0
    bf48:	00000013          	addi	x0,x0,0
    bf4c:	00000013          	addi	x0,x0,0
    bf50:	00000013          	addi	x0,x0,0
    bf54:	00000013          	addi	x0,x0,0
    bf58:	00000013          	addi	x0,x0,0
    bf5c:	00000013          	addi	x0,x0,0
    bf60:	00000013          	addi	x0,x0,0
    bf64:	00000013          	addi	x0,x0,0
    bf68:	00000013          	addi	x0,x0,0
    bf6c:	00000013          	addi	x0,x0,0
    bf70:	00000013          	addi	x0,x0,0
    bf74:	00000013          	addi	x0,x0,0
    bf78:	00000013          	addi	x0,x0,0
    bf7c:	00000013          	addi	x0,x0,0
    bf80:	00000013          	addi	x0,x0,0
    bf84:	00000013          	addi	x0,x0,0
    bf88:	00000013          	addi	x0,x0,0
    bf8c:	00000013          	addi	x0,x0,0
    bf90:	00000013          	addi	x0,x0,0
    bf94:	00000013          	addi	x0,x0,0
    bf98:	00000013          	addi	x0,x0,0
    bf9c:	00000013          	addi	x0,x0,0
    bfa0:	00000013          	addi	x0,x0,0
    bfa4:	00000013          	addi	x0,x0,0
    bfa8:	00000013          	addi	x0,x0,0
    bfac:	00000013          	addi	x0,x0,0
    bfb0:	00000013          	addi	x0,x0,0
    bfb4:	00000013          	addi	x0,x0,0
    bfb8:	00000013          	addi	x0,x0,0
    bfbc:	00000013          	addi	x0,x0,0
    bfc0:	00000013          	addi	x0,x0,0
    bfc4:	00000013          	addi	x0,x0,0
    bfc8:	00000013          	addi	x0,x0,0
    bfcc:	00000013          	addi	x0,x0,0
    bfd0:	00000013          	addi	x0,x0,0
    bfd4:	00000013          	addi	x0,x0,0
    bfd8:	00000013          	addi	x0,x0,0
    bfdc:	00000013          	addi	x0,x0,0
    bfe0:	00000013          	addi	x0,x0,0
    bfe4:	00000013          	addi	x0,x0,0
    bfe8:	00000013          	addi	x0,x0,0
    bfec:	00000013          	addi	x0,x0,0
    bff0:	00000013          	addi	x0,x0,0
    bff4:	00000013          	addi	x0,x0,0
    bff8:	00000013          	addi	x0,x0,0
    bffc:	00000013          	addi	x0,x0,0

Disassembly of section .text.rvmodel:

00023000 <rvmodel_boot>:
   23000:	feedc0b7          	lui	x1,0xfeedc
   23004:	ead08093          	addi	x1,x1,-339 # feedbead <absimm+0x8f911ba4>
   23008:	01909793          	slli	x15,x1,0x19
   2300c:	0070d113          	srli	x2,x1,0x7
   23010:	00f16133          	or	x2,x2,x15
   23014:	01911793          	slli	x15,x2,0x19
   23018:	00715193          	srli	x3,x2,0x7
   2301c:	00f1e1b3          	or	x3,x3,x15
   23020:	01919793          	slli	x15,x3,0x19
   23024:	0071d213          	srli	x4,x3,0x7
   23028:	00f26233          	or	x4,x4,x15
   2302c:	01921793          	slli	x15,x4,0x19
   23030:	00725293          	srli	x5,x4,0x7
   23034:	00f2e2b3          	or	x5,x5,x15
   23038:	01929793          	slli	x15,x5,0x19
   2303c:	0072d313          	srli	x6,x5,0x7
   23040:	00f36333          	or	x6,x6,x15
   23044:	01931793          	slli	x15,x6,0x19
   23048:	00735393          	srli	x7,x6,0x7
   2304c:	00f3e3b3          	or	x7,x7,x15
   23050:	01939793          	slli	x15,x7,0x19
   23054:	0073d413          	srli	x8,x7,0x7
   23058:	00f46433          	or	x8,x8,x15
   2305c:	01941793          	slli	x15,x8,0x19
   23060:	00745493          	srli	x9,x8,0x7
   23064:	00f4e4b3          	or	x9,x9,x15
   23068:	01949793          	slli	x15,x9,0x19
   2306c:	0074d513          	srli	x10,x9,0x7
   23070:	00f56533          	or	x10,x10,x15
   23074:	01951793          	slli	x15,x10,0x19
   23078:	00755593          	srli	x11,x10,0x7
   2307c:	00f5e5b3          	or	x11,x11,x15
   23080:	01959793          	slli	x15,x11,0x19
   23084:	0075d613          	srli	x12,x11,0x7
   23088:	00f66633          	or	x12,x12,x15
   2308c:	01961793          	slli	x15,x12,0x19
   23090:	00765693          	srli	x13,x12,0x7
   23094:	00f6e6b3          	or	x13,x13,x15
   23098:	01969793          	slli	x15,x13,0x19
   2309c:	0076d713          	srli	x14,x13,0x7
   230a0:	00f76733          	or	x14,x14,x15
   230a4:	fab807b7          	lui	x15,0xfab80
   230a8:	bb678793          	addi	x15,x15,-1098 # fab7fbb6 <absimm+0x8b5b58ad>
   230ac:	7d5c0837          	lui	x16,0x7d5c0
   230b0:	ddb80813          	addi	x16,x16,-549 # 7d5bfddb <absimm+0xdff5ad2>
   230b4:	01981793          	slli	x15,x16,0x19
   230b8:	00785893          	srli	x17,x16,0x7
   230bc:	00f8e8b3          	or	x17,x17,x15
   230c0:	01989793          	slli	x15,x17,0x19
   230c4:	0078d913          	srli	x18,x17,0x7
   230c8:	00f96933          	or	x18,x18,x15
   230cc:	01991793          	slli	x15,x18,0x19
   230d0:	00795993          	srli	x19,x18,0x7
   230d4:	00f9e9b3          	or	x19,x19,x15
   230d8:	01999793          	slli	x15,x19,0x19
   230dc:	0079da13          	srli	x20,x19,0x7
   230e0:	00fa6a33          	or	x20,x20,x15
   230e4:	019a1793          	slli	x15,x20,0x19
   230e8:	007a5a93          	srli	x21,x20,0x7
   230ec:	00faeab3          	or	x21,x21,x15
   230f0:	019a9793          	slli	x15,x21,0x19
   230f4:	007adb13          	srli	x22,x21,0x7
   230f8:	00fb6b33          	or	x22,x22,x15
   230fc:	019b1793          	slli	x15,x22,0x19
   23100:	007b5b93          	srli	x23,x22,0x7
   23104:	00fbebb3          	or	x23,x23,x15
   23108:	019b9793          	slli	x15,x23,0x19
   2310c:	007bdc13          	srli	x24,x23,0x7
   23110:	00fc6c33          	or	x24,x24,x15
   23114:	019c1793          	slli	x15,x24,0x19
   23118:	007c5c93          	srli	x25,x24,0x7
   2311c:	00fcecb3          	or	x25,x25,x15
   23120:	019c9793          	slli	x15,x25,0x19
   23124:	007cdd13          	srli	x26,x25,0x7
   23128:	00fd6d33          	or	x26,x26,x15
   2312c:	019d1793          	slli	x15,x26,0x19
   23130:	007d5d93          	srli	x27,x26,0x7
   23134:	00fdedb3          	or	x27,x27,x15
   23138:	019d9793          	slli	x15,x27,0x19
   2313c:	007dde13          	srli	x28,x27,0x7
   23140:	00fe6e33          	or	x28,x28,x15
   23144:	019e1793          	slli	x15,x28,0x19
   23148:	007e5e93          	srli	x29,x28,0x7
   2314c:	00feeeb3          	or	x29,x29,x15
   23150:	019e9793          	slli	x15,x29,0x19
   23154:	007edf13          	srli	x30,x29,0x7
   23158:	00ff6f33          	or	x30,x30,x15
   2315c:	019f1793          	slli	x15,x30,0x19
   23160:	007f5f93          	srli	x31,x30,0x7
   23164:	00ffefb3          	or	x31,x31,x15
   23168:	00000013          	addi	x0,x0,0
   2316c:	00000013          	addi	x0,x0,0
   23170:	00000013          	addi	x0,x0,0
   23174:	00000013          	addi	x0,x0,0
   23178:	00000013          	addi	x0,x0,0
   2317c:	00000013          	addi	x0,x0,0
   23180:	ffff0117          	auipc	x2,0xffff0
   23184:	3c010113          	addi	x2,x2,960 # 13540 <begin_signature>
   23188:	00000013          	addi	x0,x0,0
   2318c:	00000013          	addi	x0,x0,0
   23190:	00000013          	addi	x0,x0,0
   23194:	00000013          	addi	x0,x0,0
   23198:	00000013          	addi	x0,x0,0
   2319c:	00000013          	addi	x0,x0,0

000231a0 <canary_check>:
   231a0:	6f5ca337          	lui	x6,0x6f5ca
   231a4:	30930313          	addi	x6,x6,777 # 6f5ca309 <absimm>
   231a8:	00012203          	lw	x4,0(x2)
   231ac:	00620863          	beq	x4,x6,231bc <canary_check+0x1c>
   231b0:	ecde62ef          	jal	x5,a07c <failedtest_x5_x4>
   231b4:	000231a0          	.word	0x000231a0
   231b8:	00012aba          	.word	0x00012aba
   231bc:	00410113          	addi	x2,x2,4
   231c0:	fffe9197          	auipc	x3,0xfffe9
   231c4:	f5018193          	addi	x3,x3,-176 # c110 <rvtest_data_begin>
   231c8:	00000013          	addi	x0,x0,0
   231cc:	00000013          	addi	x0,x0,0
   231d0:	00000013          	addi	x0,x0,0
   231d4:	00000013          	addi	x0,x0,0
   231d8:	00000013          	addi	x0,x0,0
   231dc:	00000013          	addi	x0,x0,0
   231e0:	fffde317          	auipc	x6,0xfffde
   231e4:	e2030313          	addi	x6,x6,-480 # 1000 <rvtest_code_begin>
   231e8:	00000013          	addi	x0,x0,0
   231ec:	00000013          	addi	x0,x0,0
   231f0:	00000013          	addi	x0,x0,0
   231f4:	00000013          	addi	x0,x0,0
   231f8:	00000013          	addi	x0,x0,0
   231fc:	00000013          	addi	x0,x0,0
   23200:	00030067          	jalr	x0,0(x6)

00023204 <rvmodel_io_write_str>:
   23204:	00008067          	jalr	x0,0(x1)

00023208 <rvmodel_halt_pass>:
   23208:	00000513          	addi	x10,x0,0
   2320c:	00000073          	ecall
   23210:	0000006f          	jal	x0,23210 <rvmodel_halt_pass+0x8>

00023214 <rvmodel_halt_fail>:
   23214:	00100513          	addi	x10,x0,1
   23218:	00000073          	ecall
   2321c:	0000006f          	jal	x0,2321c <rvmodel_halt_fail+0x8>
   23220:	00000013          	addi	x0,x0,0
   23224:	00000013          	addi	x0,x0,0
   23228:	00000013          	addi	x0,x0,0
   2322c:	00000013          	addi	x0,x0,0
   23230:	00000013          	addi	x0,x0,0
   23234:	00000013          	addi	x0,x0,0
   23238:	00000013          	addi	x0,x0,0
   2323c:	00000013          	addi	x0,x0,0
