
/home/dev/github/clones/riscv-arch-test/work/rv32i-core/elfs/rv32i/I/I-jalr-00.elf:     file format elf32-littleriscv
/home/dev/github/clones/riscv-arch-test/work/rv32i-core/elfs/rv32i/I/I-jalr-00.elf
architecture: riscv:rv32, flags 0x00000112:
EXEC_P, HAS_SYMS, D_PAGED
start address 0x00000000

Program Header:
0x70000003 off    0x0001a240 vaddr 0x00000000 paddr 0x00000000 align 2**0
         filesz 0x00000033 memsz 0x00000000 flags r--
    LOAD off    0x00001000 vaddr 0x00000000 paddr 0x00000000 align 2**12
         filesz 0x000056a0 memsz 0x000056a0 flags r-x
    LOAD off    0x00007000 vaddr 0x00008000 paddr 0x00008000 align 2**12
         filesz 0x00013240 memsz 0x00013240 flags rwx

Sections:
Idx Name          Size      VMA       LMA       File off  Algn
  0 .text.init    00000040  00000000  00000000  00001000  2**5
                  CONTENTS, ALLOC, LOAD, READONLY, CODE
  1 .text.rvtest  00005660  00000040  00000040  00001040  2**5
                  CONTENTS, ALLOC, LOAD, READONLY, CODE
  2 .data         00012650  00008000  00008000  00007000  2**8
                  CONTENTS, ALLOC, LOAD, DATA
  3 .text.rvmodel 00000240  0001b000  0001b000  0001a000  2**5
                  CONTENTS, ALLOC, LOAD, READONLY, CODE
  4 .riscv.attributes 00000033  00000000  00000000  0001a240  2**0
                  CONTENTS, READONLY
  5 .debug_line   00001ce6  00000000  00000000  0001a273  2**0
                  CONTENTS, READONLY, DEBUGGING, OCTETS
  6 .debug_line_str 0000006a  00000000  00000000  0001bf59  2**0
                  CONTENTS, READONLY, DEBUGGING, OCTETS
  7 .debug_info   00000023  00000000  00000000  0001bfc3  2**0
                  CONTENTS, READONLY, DEBUGGING, OCTETS
  8 .debug_abbrev 00000012  00000000  00000000  0001bfe6  2**0
                  CONTENTS, READONLY, DEBUGGING, OCTETS
  9 .debug_aranges 00000028  00000000  00000000  0001bff8  2**3
                  CONTENTS, READONLY, DEBUGGING, OCTETS
 10 .debug_str    00000076  00000000  00000000  0001c020  2**0
                  CONTENTS, READONLY, DEBUGGING, OCTETS
 11 .debug_rnglists 0000001b  00000000  00000000  0001c096  2**0
                  CONTENTS, READONLY, DEBUGGING, OCTETS
SYMBOL TABLE:
00000000 l    d  .text.init	00000000 .text.init
00000040 l    d  .text.rvtest	00000000 .text.rvtest
00008000 l    d  .data	00000000 .data
0001b000 l    d  .text.rvmodel	00000000 .text.rvmodel
00000000 l    d  .riscv.attributes	00000000 .riscv.attributes
00000000 l    d  .debug_line	00000000 .debug_line
00000000 l    d  .debug_line_str	00000000 .debug_line_str
00000000 l    d  .debug_info	00000000 .debug_info
00000000 l    d  .debug_abbrev	00000000 .debug_abbrev
00000000 l    d  .debug_aranges	00000000 .debug_aranges
00000000 l    d  .debug_str	00000000 .debug_str
00000000 l    d  .debug_rnglists	00000000 .debug_rnglists
00000000 l    df *ABS*	00000000 ccnBrPwO.o
00000003 l       *ABS*	00000000 MMODE_SIG
00000001 l       *ABS*	00000000 SMODE_SIG
00000001 l       *ABS*	00000000 HMODE_SIG
00000002 l       *ABS*	00000000 VMODE_SIG
0001b000 l       .text.rvmodel	00000000 rvmodel_boot
0000006c l       .text.rvtest	00000000 I_jalr_cg_cp_rs1_nx0_b1
00003c1c l       .text.rvtest	00000000 failedtest_x5_x4
000082ec l       .data	00000000 I_jalr_cg_cp_rs1_nx0_b1_str
000000ec l       .text.rvtest	00000000 I_jalr_cg_cp_rs1_nx0_b2
0000831e l       .data	00000000 I_jalr_cg_cp_rs1_nx0_b2_str
0000016c l       .text.rvtest	00000000 I_jalr_cg_cp_rs1_nx0_b3
00008350 l       .data	00000000 I_jalr_cg_cp_rs1_nx0_b3_str
000001ec l       .text.rvtest	00000000 I_jalr_cg_cp_rs1_nx0_b4
00003c5c l       .text.rvtest	00000000 failedtest_x14_x13
00008382 l       .data	00000000 I_jalr_cg_cp_rs1_nx0_b4_str
0000026c l       .text.rvtest	00000000 I_jalr_cg_cp_rs1_nx0_b5
000083b4 l       .data	00000000 I_jalr_cg_cp_rs1_nx0_b5_str
000002ec l       .text.rvtest	00000000 I_jalr_cg_cp_rs1_nx0_b6
000083e6 l       .data	00000000 I_jalr_cg_cp_rs1_nx0_b6_str
0000036c l       .text.rvtest	00000000 I_jalr_cg_cp_rs1_nx0_b7
00008418 l       .data	00000000 I_jalr_cg_cp_rs1_nx0_b7_str
000003ec l       .text.rvtest	00000000 I_jalr_cg_cp_rs1_nx0_b8
0000844a l       .data	00000000 I_jalr_cg_cp_rs1_nx0_b8_str
0000046c l       .text.rvtest	00000000 I_jalr_cg_cp_rs1_nx0_b9
0000847c l       .data	00000000 I_jalr_cg_cp_rs1_nx0_b9_str
000004ec l       .text.rvtest	00000000 I_jalr_cg_cp_rs1_nx0_b10
000084ae l       .data	00000000 I_jalr_cg_cp_rs1_nx0_b10_str
0000056c l       .text.rvtest	00000000 I_jalr_cg_cp_rs1_nx0_b11
000084e2 l       .data	00000000 I_jalr_cg_cp_rs1_nx0_b11_str
000005ec l       .text.rvtest	00000000 I_jalr_cg_cp_rs1_nx0_b12
00008516 l       .data	00000000 I_jalr_cg_cp_rs1_nx0_b12_str
0000066c l       .text.rvtest	00000000 I_jalr_cg_cp_rs1_nx0_b13
0000854a l       .data	00000000 I_jalr_cg_cp_rs1_nx0_b13_str
000006ec l       .text.rvtest	00000000 I_jalr_cg_cp_rs1_nx0_b14
0000857e l       .data	00000000 I_jalr_cg_cp_rs1_nx0_b14_str
0000076c l       .text.rvtest	00000000 I_jalr_cg_cp_rs1_nx0_b15
000085b2 l       .data	00000000 I_jalr_cg_cp_rs1_nx0_b15_str
000007ec l       .text.rvtest	00000000 I_jalr_cg_cp_rs1_nx0_b16
000085e6 l       .data	00000000 I_jalr_cg_cp_rs1_nx0_b16_str
0000086c l       .text.rvtest	00000000 I_jalr_cg_cp_rs1_nx0_b17
0000861a l       .data	00000000 I_jalr_cg_cp_rs1_nx0_b17_str
000008ec l       .text.rvtest	00000000 I_jalr_cg_cp_rs1_nx0_b18
0000864e l       .data	00000000 I_jalr_cg_cp_rs1_nx0_b18_str
0000096c l       .text.rvtest	00000000 I_jalr_cg_cp_rs1_nx0_b19
00008682 l       .data	00000000 I_jalr_cg_cp_rs1_nx0_b19_str
000009ec l       .text.rvtest	00000000 I_jalr_cg_cp_rs1_nx0_b20
000086b6 l       .data	00000000 I_jalr_cg_cp_rs1_nx0_b20_str
00000a6c l       .text.rvtest	00000000 I_jalr_cg_cp_rs1_nx0_b21
000086ea l       .data	00000000 I_jalr_cg_cp_rs1_nx0_b21_str
00000aec l       .text.rvtest	00000000 I_jalr_cg_cp_rs1_nx0_b22
0000871e l       .data	00000000 I_jalr_cg_cp_rs1_nx0_b22_str
00000b6c l       .text.rvtest	00000000 I_jalr_cg_cp_rs1_nx0_b23
00008752 l       .data	00000000 I_jalr_cg_cp_rs1_nx0_b23_str
00000bec l       .text.rvtest	00000000 I_jalr_cg_cp_rs1_nx0_b24
00008786 l       .data	00000000 I_jalr_cg_cp_rs1_nx0_b24_str
00000c6c l       .text.rvtest	00000000 I_jalr_cg_cp_rs1_nx0_b25
000087ba l       .data	00000000 I_jalr_cg_cp_rs1_nx0_b25_str
00000cec l       .text.rvtest	00000000 I_jalr_cg_cp_rs1_nx0_b26
000087ee l       .data	00000000 I_jalr_cg_cp_rs1_nx0_b26_str
00000d6c l       .text.rvtest	00000000 I_jalr_cg_cp_rs1_nx0_b27
00008822 l       .data	00000000 I_jalr_cg_cp_rs1_nx0_b27_str
00000dec l       .text.rvtest	00000000 I_jalr_cg_cp_rs1_nx0_b28
00008856 l       .data	00000000 I_jalr_cg_cp_rs1_nx0_b28_str
00000e6c l       .text.rvtest	00000000 I_jalr_cg_cp_rs1_nx0_b29
0000888a l       .data	00000000 I_jalr_cg_cp_rs1_nx0_b29_str
00000eec l       .text.rvtest	00000000 I_jalr_cg_cp_rs1_nx0_b30
000088be l       .data	00000000 I_jalr_cg_cp_rs1_nx0_b30_str
00000f6c l       .text.rvtest	00000000 I_jalr_cg_cp_rs1_nx0_b31
000088f2 l       .data	00000000 I_jalr_cg_cp_rs1_nx0_b31_str
00000fec l       .text.rvtest	00000000 I_jalr_cg_cp_rd_b0
00008926 l       .data	00000000 I_jalr_cg_cp_rd_b0_str
0000106c l       .text.rvtest	00000000 I_jalr_cg_cp_rd_b1
00008954 l       .data	00000000 I_jalr_cg_cp_rd_b1_str
000010ec l       .text.rvtest	00000000 I_jalr_cg_cp_rd_b2
00008982 l       .data	00000000 I_jalr_cg_cp_rd_b2_str
0000116c l       .text.rvtest	00000000 I_jalr_cg_cp_rd_b3
000089b0 l       .data	00000000 I_jalr_cg_cp_rd_b3_str
000011ec l       .text.rvtest	00000000 I_jalr_cg_cp_rd_b4
000089de l       .data	00000000 I_jalr_cg_cp_rd_b4_str
0000126c l       .text.rvtest	00000000 I_jalr_cg_cp_rd_b5
00008a0c l       .data	00000000 I_jalr_cg_cp_rd_b5_str
000012ec l       .text.rvtest	00000000 I_jalr_cg_cp_rd_b6
00008a3a l       .data	00000000 I_jalr_cg_cp_rd_b6_str
0000136c l       .text.rvtest	00000000 I_jalr_cg_cp_rd_b7
00008a68 l       .data	00000000 I_jalr_cg_cp_rd_b7_str
000013ec l       .text.rvtest	00000000 I_jalr_cg_cp_rd_b8
00008a96 l       .data	00000000 I_jalr_cg_cp_rd_b8_str
0000146c l       .text.rvtest	00000000 I_jalr_cg_cp_rd_b9
00008ac4 l       .data	00000000 I_jalr_cg_cp_rd_b9_str
000014ec l       .text.rvtest	00000000 I_jalr_cg_cp_rd_b10
00008af2 l       .data	00000000 I_jalr_cg_cp_rd_b10_str
0000156c l       .text.rvtest	00000000 I_jalr_cg_cp_rd_b11
00008b21 l       .data	00000000 I_jalr_cg_cp_rd_b11_str
000015ec l       .text.rvtest	00000000 I_jalr_cg_cp_rd_b12
00008b50 l       .data	00000000 I_jalr_cg_cp_rd_b12_str
0000166c l       .text.rvtest	00000000 I_jalr_cg_cp_rd_b13
00003c34 l       .text.rvtest	00000000 failedtest_x8_x7
00008b7f l       .data	00000000 I_jalr_cg_cp_rd_b13_str
000016ec l       .text.rvtest	00000000 I_jalr_cg_cp_rd_b14
00008bae l       .data	00000000 I_jalr_cg_cp_rd_b14_str
0000176c l       .text.rvtest	00000000 I_jalr_cg_cp_rd_b15
00008bdd l       .data	00000000 I_jalr_cg_cp_rd_b15_str
000017ec l       .text.rvtest	00000000 I_jalr_cg_cp_rd_b16
00008c0c l       .data	00000000 I_jalr_cg_cp_rd_b16_str
0000186c l       .text.rvtest	00000000 I_jalr_cg_cp_rd_b17
00008c3b l       .data	00000000 I_jalr_cg_cp_rd_b17_str
000018ec l       .text.rvtest	00000000 I_jalr_cg_cp_rd_b18
00008c6a l       .data	00000000 I_jalr_cg_cp_rd_b18_str
0000196c l       .text.rvtest	00000000 I_jalr_cg_cp_rd_b19
00008c99 l       .data	00000000 I_jalr_cg_cp_rd_b19_str
000019ec l       .text.rvtest	00000000 I_jalr_cg_cp_rd_b20
00008cc8 l       .data	00000000 I_jalr_cg_cp_rd_b20_str
00001a6c l       .text.rvtest	00000000 I_jalr_cg_cp_rd_b21
00008cf7 l       .data	00000000 I_jalr_cg_cp_rd_b21_str
00001aec l       .text.rvtest	00000000 I_jalr_cg_cp_rd_b22
00008d26 l       .data	00000000 I_jalr_cg_cp_rd_b22_str
00001b6c l       .text.rvtest	00000000 I_jalr_cg_cp_rd_b23
00008d55 l       .data	00000000 I_jalr_cg_cp_rd_b23_str
00001bec l       .text.rvtest	00000000 I_jalr_cg_cp_rd_b24
00008d84 l       .data	00000000 I_jalr_cg_cp_rd_b24_str
00001c6c l       .text.rvtest	00000000 I_jalr_cg_cp_rd_b25
00008db3 l       .data	00000000 I_jalr_cg_cp_rd_b25_str
00001cec l       .text.rvtest	00000000 I_jalr_cg_cp_rd_b26
00008de2 l       .data	00000000 I_jalr_cg_cp_rd_b26_str
00001d6c l       .text.rvtest	00000000 I_jalr_cg_cp_rd_b27
00008e11 l       .data	00000000 I_jalr_cg_cp_rd_b27_str
00001dec l       .text.rvtest	00000000 I_jalr_cg_cp_rd_b28
00008e40 l       .data	00000000 I_jalr_cg_cp_rd_b28_str
00001e6c l       .text.rvtest	00000000 I_jalr_cg_cp_rd_b29
00008e6f l       .data	00000000 I_jalr_cg_cp_rd_b29_str
00001eec l       .text.rvtest	00000000 I_jalr_cg_cp_rd_b30
00008e9e l       .data	00000000 I_jalr_cg_cp_rd_b30_str
00001f6c l       .text.rvtest	00000000 I_jalr_cg_cp_rd_b31
00008ecd l       .data	00000000 I_jalr_cg_cp_rd_b31_str
00001fec l       .text.rvtest	00000000 I_jalr_cg_cmp_rd_rs1_nx0_b1
00008efc l       .data	00000000 I_jalr_cg_cmp_rd_rs1_nx0_b1_str
0000206c l       .text.rvtest	00000000 I_jalr_cg_cmp_rd_rs1_nx0_b2
00008f33 l       .data	00000000 I_jalr_cg_cmp_rd_rs1_nx0_b2_str
000020ec l       .text.rvtest	00000000 I_jalr_cg_cmp_rd_rs1_nx0_b3
00008f6a l       .data	00000000 I_jalr_cg_cmp_rd_rs1_nx0_b3_str
0000216c l       .text.rvtest	00000000 I_jalr_cg_cmp_rd_rs1_nx0_b4
00008fa1 l       .data	00000000 I_jalr_cg_cmp_rd_rs1_nx0_b4_str
000021ec l       .text.rvtest	00000000 I_jalr_cg_cmp_rd_rs1_nx0_b5
00008fd8 l       .data	00000000 I_jalr_cg_cmp_rd_rs1_nx0_b5_str
0000226c l       .text.rvtest	00000000 I_jalr_cg_cmp_rd_rs1_nx0_b6
0000900f l       .data	00000000 I_jalr_cg_cmp_rd_rs1_nx0_b6_str
000022ec l       .text.rvtest	00000000 I_jalr_cg_cmp_rd_rs1_nx0_b7
00009046 l       .data	00000000 I_jalr_cg_cmp_rd_rs1_nx0_b7_str
0000236c l       .text.rvtest	00000000 I_jalr_cg_cmp_rd_rs1_nx0_b8
0000907d l       .data	00000000 I_jalr_cg_cmp_rd_rs1_nx0_b8_str
000023ec l       .text.rvtest	00000000 I_jalr_cg_cmp_rd_rs1_nx0_b9
000090b4 l       .data	00000000 I_jalr_cg_cmp_rd_rs1_nx0_b9_str
0000246c l       .text.rvtest	00000000 I_jalr_cg_cmp_rd_rs1_nx0_b10
000090eb l       .data	00000000 I_jalr_cg_cmp_rd_rs1_nx0_b10_str
000024ec l       .text.rvtest	00000000 I_jalr_cg_cmp_rd_rs1_nx0_b11
00009123 l       .data	00000000 I_jalr_cg_cmp_rd_rs1_nx0_b11_str
0000256c l       .text.rvtest	00000000 I_jalr_cg_cmp_rd_rs1_nx0_b12
0000915b l       .data	00000000 I_jalr_cg_cmp_rd_rs1_nx0_b12_str
000025ec l       .text.rvtest	00000000 I_jalr_cg_cmp_rd_rs1_nx0_b13
00009193 l       .data	00000000 I_jalr_cg_cmp_rd_rs1_nx0_b13_str
0000266c l       .text.rvtest	00000000 I_jalr_cg_cmp_rd_rs1_nx0_b14
000091cb l       .data	00000000 I_jalr_cg_cmp_rd_rs1_nx0_b14_str
000026ec l       .text.rvtest	00000000 I_jalr_cg_cmp_rd_rs1_nx0_b15
00009203 l       .data	00000000 I_jalr_cg_cmp_rd_rs1_nx0_b15_str
0000276c l       .text.rvtest	00000000 I_jalr_cg_cmp_rd_rs1_nx0_b16
0000923b l       .data	00000000 I_jalr_cg_cmp_rd_rs1_nx0_b16_str
000027ec l       .text.rvtest	00000000 I_jalr_cg_cmp_rd_rs1_nx0_b17
00009273 l       .data	00000000 I_jalr_cg_cmp_rd_rs1_nx0_b17_str
0000286c l       .text.rvtest	00000000 I_jalr_cg_cmp_rd_rs1_nx0_b18
000092ab l       .data	00000000 I_jalr_cg_cmp_rd_rs1_nx0_b18_str
000028ec l       .text.rvtest	00000000 I_jalr_cg_cmp_rd_rs1_nx0_b19
000092e3 l       .data	00000000 I_jalr_cg_cmp_rd_rs1_nx0_b19_str
0000296c l       .text.rvtest	00000000 I_jalr_cg_cmp_rd_rs1_nx0_b20
0000931b l       .data	00000000 I_jalr_cg_cmp_rd_rs1_nx0_b20_str
000029ec l       .text.rvtest	00000000 I_jalr_cg_cmp_rd_rs1_nx0_b21
00009353 l       .data	00000000 I_jalr_cg_cmp_rd_rs1_nx0_b21_str
00002a6c l       .text.rvtest	00000000 I_jalr_cg_cmp_rd_rs1_nx0_b22
0000938b l       .data	00000000 I_jalr_cg_cmp_rd_rs1_nx0_b22_str
00002aec l       .text.rvtest	00000000 I_jalr_cg_cmp_rd_rs1_nx0_b23
000093c3 l       .data	00000000 I_jalr_cg_cmp_rd_rs1_nx0_b23_str
00002b6c l       .text.rvtest	00000000 I_jalr_cg_cmp_rd_rs1_nx0_b24
000093fb l       .data	00000000 I_jalr_cg_cmp_rd_rs1_nx0_b24_str
00002bec l       .text.rvtest	00000000 I_jalr_cg_cmp_rd_rs1_nx0_b25
00009433 l       .data	00000000 I_jalr_cg_cmp_rd_rs1_nx0_b25_str
00002c6c l       .text.rvtest	00000000 I_jalr_cg_cmp_rd_rs1_nx0_b26
0000946b l       .data	00000000 I_jalr_cg_cmp_rd_rs1_nx0_b26_str
00002cec l       .text.rvtest	00000000 I_jalr_cg_cmp_rd_rs1_nx0_b27
000094a3 l       .data	00000000 I_jalr_cg_cmp_rd_rs1_nx0_b27_str
00002d6c l       .text.rvtest	00000000 I_jalr_cg_cmp_rd_rs1_nx0_b28
000094db l       .data	00000000 I_jalr_cg_cmp_rd_rs1_nx0_b28_str
00002dec l       .text.rvtest	00000000 I_jalr_cg_cmp_rd_rs1_nx0_b29
00009513 l       .data	00000000 I_jalr_cg_cmp_rd_rs1_nx0_b29_str
00002e6c l       .text.rvtest	00000000 I_jalr_cg_cmp_rd_rs1_nx0_b30
0000954b l       .data	00000000 I_jalr_cg_cmp_rd_rs1_nx0_b30_str
00002eec l       .text.rvtest	00000000 I_jalr_cg_cmp_rd_rs1_nx0_b31
00009583 l       .data	00000000 I_jalr_cg_cmp_rd_rs1_nx0_b31_str
00002f80 l       .text.rvtest	00000000 I_jalr_cg_cp_offset_jalr_neg
000095bb l       .data	00000000 I_jalr_cg_cp_offset_jalr_neg_str
0000300c l       .text.rvtest	00000000 jalrlsb_00
00003004 l       .text.rvtest	00000000 I_jalr_cg_cp_offset_lsbs_0_0
000095f3 l       .data	00000000 I_jalr_cg_cp_offset_lsbs_0_0_str
0000308c l       .text.rvtest	00000000 jalrlsb_01
00003084 l       .text.rvtest	00000000 I_jalr_cg_cp_offset_lsbs_0_1
0000962b l       .data	00000000 I_jalr_cg_cp_offset_lsbs_0_1_str
0000310c l       .text.rvtest	00000000 jalrlsb_10
00003104 l       .text.rvtest	00000000 I_jalr_cg_cp_offset_lsbs_1_0
00009663 l       .data	00000000 I_jalr_cg_cp_offset_lsbs_1_0_str
0000318c l       .text.rvtest	00000000 jalrlsb_11
00003184 l       .text.rvtest	00000000 I_jalr_cg_cp_offset_lsbs_1_1
0000969b l       .data	00000000 I_jalr_cg_cp_offset_lsbs_1_1_str
0000320c l       .text.rvtest	00000000 I_jalr_cg_cp_imm_edges_0x0
000096d3 l       .data	00000000 I_jalr_cg_cp_imm_edges_0x0_str
0000328c l       .text.rvtest	00000000 I_jalr_cg_cp_imm_edges_0x1
0000970a l       .data	00000000 I_jalr_cg_cp_imm_edges_0x1_str
0000330c l       .text.rvtest	00000000 I_jalr_cg_cp_imm_edges_0x2
00009741 l       .data	00000000 I_jalr_cg_cp_imm_edges_0x2_str
0000338c l       .text.rvtest	00000000 I_jalr_cg_cp_imm_edges_0x3
00009778 l       .data	00000000 I_jalr_cg_cp_imm_edges_0x3_str
0000340c l       .text.rvtest	00000000 I_jalr_cg_cp_imm_edges_0x4
000097af l       .data	00000000 I_jalr_cg_cp_imm_edges_0x4_str
0000348c l       .text.rvtest	00000000 I_jalr_cg_cp_imm_edges_0x8
000097e6 l       .data	00000000 I_jalr_cg_cp_imm_edges_0x8_str
0000350c l       .text.rvtest	00000000 I_jalr_cg_cp_imm_edges_0x10
0000981d l       .data	00000000 I_jalr_cg_cp_imm_edges_0x10_str
0000358c l       .text.rvtest	00000000 I_jalr_cg_cp_imm_edges_0x20
00009855 l       .data	00000000 I_jalr_cg_cp_imm_edges_0x20_str
0000360c l       .text.rvtest	00000000 I_jalr_cg_cp_imm_edges_0x40
0000988d l       .data	00000000 I_jalr_cg_cp_imm_edges_0x40_str
0000368c l       .text.rvtest	00000000 I_jalr_cg_cp_imm_edges_0x80
000098c5 l       .data	00000000 I_jalr_cg_cp_imm_edges_0x80_str
0000370c l       .text.rvtest	00000000 I_jalr_cg_cp_imm_edges_0x100
000098fd l       .data	00000000 I_jalr_cg_cp_imm_edges_0x100_str
0000378c l       .text.rvtest	00000000 I_jalr_cg_cp_imm_edges_0x200
00009936 l       .data	00000000 I_jalr_cg_cp_imm_edges_0x200_str
0000380c l       .text.rvtest	00000000 I_jalr_cg_cp_imm_edges_0x3ff
0000996f l       .data	00000000 I_jalr_cg_cp_imm_edges_0x3ff_str
0000388c l       .text.rvtest	00000000 I_jalr_cg_cp_imm_edges_0x400
000099a8 l       .data	00000000 I_jalr_cg_cp_imm_edges_0x400_str
0000390c l       .text.rvtest	00000000 I_jalr_cg_cp_imm_edges_0x703
000099e1 l       .data	00000000 I_jalr_cg_cp_imm_edges_0x703_str
0000398c l       .text.rvtest	00000000 I_jalr_cg_cp_imm_edges_0x7ff
00009a1a l       .data	00000000 I_jalr_cg_cp_imm_edges_0x7ff_str
00003a10 l       .text.rvtest	00000000 I_jalr_cg_cp_imm_edges_m0x800
00009a53 l       .data	00000000 I_jalr_cg_cp_imm_edges_m0x800_str
00003a8c l       .text.rvtest	00000000 I_jalr_cg_cp_imm_edges_m0x7ff
00009a8d l       .data	00000000 I_jalr_cg_cp_imm_edges_m0x7ff_str
00003b0c l       .text.rvtest	00000000 I_jalr_cg_cp_imm_edges_m0x2
00009ac7 l       .data	00000000 I_jalr_cg_cp_imm_edges_m0x2_str
00003b8c l       .text.rvtest	00000000 I_jalr_cg_cp_imm_edges_m0x1
00009aff l       .data	00000000 I_jalr_cg_cp_imm_edges_m0x1_str
00003bd4 l       .text.rvtest	00000000 exit_cleanup
0000a1a4 l       .data	00000000 successstr
0001b204 l       .text.rvmodel	00000000 rvmodel_io_write_str
0001b208 l       .text.rvmodel	00000000 rvmodel_halt_pass
00003c10 l       .text.rvtest	00000000 abort_test
6f5ca309 l       *ABS*	00000000 immx
6f5ca309 l       *ABS*	00000000 absimm
00000000 l       *ABS*	00000000 cry
00000309 l       *ABS*	00000000 imm12
00009b40 l       .data	00000000 begin_failure_scratch
00003ce0 l       .text.rvtest	00000000 failedtest_saveregs
00003c84 l       .text.rvtest	00000000 failedtest_trap_x7_x9
00009cb0 l       .data	00000000 saved_mcause
00009cb8 l       .data	00000000 saved_mtval
00009cc0 l       .data	00000000 saved_mstatus
00003d50 l       .text.rvtest	00000000 failedtest_saveresults
00009b40 l       .data	00000000 failure_type
00003dcc l       .text.rvtest	00000000 failedtest_saveresults_trap
00003d60 l       .text.rvtest	00000000 failedtest_saveresults_int
000041a0 l       .text.rvtest	00000000 failedtest_saveresults_common
00009c98 l       .data	00000000 trap_diag_fail_str_ptr
0000a36c l       .data	00000000 trap_sig_offset_mismatch
00004080 l       .text.rvtest	00000000 trap_diag_offset_mismatch
00009c70 l       .data	00000000 trap_diag_subtype
0000a3d0 l       .data	00000000 sv_Mvect_str
00004100 l       .text.rvtest	00000000 trap_diag_field_identified
0000a4d2 l       .data	00000000 sv_Mcause_str
0000a5cd l       .data	00000000 sv_Mepc_str
0000a6c0 l       .data	00000000 sv_Mtval_str
0000a833 l       .data	00000000 sv_Mip_str
0000a7b7 l       .data	00000000 sv_Mtval2_str
0000a7f5 l       .data	00000000 sv_Mtinst_str
0000a410 l       .data	00000000 sv_Svect_str
0000a510 l       .data	00000000 sv_Scause_str
0000a609 l       .data	00000000 sv_Sepc_str
0000a6fd l       .data	00000000 sv_Stval_str
0000a86e l       .data	00000000 sv_Sip_str
0000a450 l       .data	00000000 sv_Hvect_str
0000a54e l       .data	00000000 sv_Hcause_str
0000a645 l       .data	00000000 sv_Hepc_str
0000a73a l       .data	00000000 sv_Htval_str
0000a8a9 l       .data	00000000 sv_Hip_str
0000a491 l       .data	00000000 sv_Vvect_str
0000a58d l       .data	00000000 sv_Vcause_str
0000a682 l       .data	00000000 sv_Vepc_str
0000a778 l       .data	00000000 sv_Vtval_str
0000a8e5 l       .data	00000000 sv_Vip_str
0000a922 l       .data	00000000 Mclr_Mext_int_str
0000a971 l       .data	00000000 Mclr_Sext_int_str
0000aa6c l       .data	00000000 Sclr_Sext_int_str
0000ab68 l       .data	00000000 Hclr_Sext_int_str
00004190 l       .text.rvtest	00000000 trap_diag_generic_report
00009c88 l       .data	00000000 trap_diag_actual_offset
00009c90 l       .data	00000000 trap_diag_expected_offset
00009c74 l       .data	00000000 trap_diag_mode
00009c78 l       .data	00000000 trap_diag_actual_value
00009c80 l       .data	00000000 trap_diag_expected_value
000041d0 l       .text.rvtest	00000000 failedtest_report
000041d0 l       .text.rvtest	00000000 print_failstr
0000a1db l       .data	00000000 failstr
00004208 l       .text.rvtest	00000000 print_testnamestr
0000a26f l       .data	00000000 testnamestr
00004248 l       .text.rvtest	00000000 print_failure_test_name_str
00009c60 l       .data	00000000 failure_string_ptr
00004258 l       .text.rvtest	00000000 print_newline_str
0000a281 l       .data	00000000 newlinestr
0000468c l       .text.rvtest	00000000 failedtest_report_trap_detailed
0000a283 l       .data	00000000 inststr
00009c40 l       .data	00000000 failing_instruction
000055d8 l       .text.rvtest	00000000 failedtest_hex_to_str
00009cc8 l       .data	00000000 ascii_buffer
0000a297 l       .data	00000000 addrstr
00009c48 l       .data	00000000 failing_addr
0000ad14 l       .data	00000000 regstr
00004438 l       .text.rvtest	00000000 failedtest_report_not_intreg
00009c44 l       .data	00000000 failing_reg
00005654 l       .text.rvtest	00000000 failedtest_dec_to_str
00004514 l       .text.rvtest	00000000 failedtest_report_print_regstr
0000448c l       .text.rvtest	00000000 failedtest_report_fpreg
000044d8 l       .text.rvtest	00000000 failedtest_report_vecreg
0000ad74 l       .data	00000000 fflagsstr
00004548 l       .text.rvtest	00000000 failedtest_report_after_reg
0000ad25 l       .data	00000000 badvalstr
000045ac l       .text.rvtest	00000000 failedtest_report_badval_not_fp
00009c50 l       .data	00000000 failing_value
000045bc l       .text.rvtest	00000000 failedtest_report_badval_done
0000ad3c l       .data	00000000 expvalstr
0000464c l       .text.rvtest	00000000 failedtest_report_expval_not_fp
00009c58 l       .data	00000000 expected_value
0000465c l       .text.rvtest	00000000 failedtest_report_expval_done
00005384 l       .text.rvtest	00000000 failedtest_report_end
0000ada0 l       .data	00000000 trap_diag_header_str
0000adcc l       .data	00000000 trap_diag_origstr_label
00004760 l       .text.rvtest	00000000 trap_report_offset_mismatch
00005210 l       .text.rvtest	00000000 trap_report_generic
00004ad4 l       .text.rvtest	00000000 trap_report_field_mismatch
0000addc l       .data	00000000 trap_diag_count_mismatch_str
0000ae3d l       .data	00000000 trap_diag_expected_offset_str
0000ae64 l       .data	00000000 trap_diag_actual_offset_str
000049b4 l       .text.rvtest	00000000 trap_report_missing_traps
0000489c l       .text.rvtest	00000000 trap_report_extra_traps
0000ae8b l       .data	00000000 trap_diag_extra_traps_str
0000af10 l       .data	00000000 trap_diag_extra_bytes_str
0000af3b l       .data	00000000 trap_diag_extra_hint_str
000053d0 l       .text.rvtest	00000000 failedtest_print_csr_context
0000aec5 l       .data	00000000 trap_diag_missing_traps_str
0000b023 l       .data	00000000 trap_diag_missing_hint_str
0000b10a l       .data	00000000 trap_diag_handler_mode_str
00004b64 l       .text.rvtest	00000000 trap_mode_m
00004ba4 l       .text.rvtest	00000000 trap_mode_s
00004be4 l       .text.rvtest	00000000 trap_mode_h
00004c24 l       .text.rvtest	00000000 trap_mode_v
0000b146 l       .data	00000000 trap_diag_mode_unknown_str
00004c60 l       .text.rvtest	00000000 trap_mode_print
0000b124 l       .data	00000000 trap_diag_mode_m_str
0000b12c l       .data	00000000 trap_diag_mode_s_str
0000b134 l       .data	00000000 trap_diag_mode_hs_str
0000b13d l       .data	00000000 trap_diag_mode_vs_str
0000b14f l       .data	00000000 trap_diag_field_str
00004d24 l       .text.rvtest	00000000 trap_field_vect
00004d64 l       .text.rvtest	00000000 trap_field_cause
00004da4 l       .text.rvtest	00000000 trap_field_epc
00004de4 l       .text.rvtest	00000000 trap_field_tval
00004e24 l       .text.rvtest	00000000 trap_field_ip
00004e64 l       .text.rvtest	00000000 trap_field_tval2
00004ea4 l       .text.rvtest	00000000 trap_field_tinst
00004ee4 l       .text.rvtest	00000000 trap_field_intid
0000b2a6 l       .data	00000000 trap_diag_field_unknown_str
00004f20 l       .text.rvtest	00000000 trap_field_print
0000b169 l       .data	00000000 trap_diag_field_vect_str
0000b19a l       .data	00000000 trap_diag_field_cause_str
0000b1ba l       .data	00000000 trap_diag_field_epc_str
0000b1d8 l       .data	00000000 trap_diag_field_tval_str
0000b1f7 l       .data	00000000 trap_diag_field_ip_str
0000b21f l       .data	00000000 trap_diag_field_tval2_str
0000b24b l       .data	00000000 trap_diag_field_tinst_str
0000b277 l       .data	00000000 trap_diag_field_intid_str
0000b2b5 l       .data	00000000 trap_diag_expected_str
0000b2cc l       .data	00000000 trap_diag_actual_str
000050bc l       .text.rvtest	00000000 trap_field_not_cause
0000b2e3 l       .data	00000000 trap_diag_expected_cause_name_str
000052f4 l       .text.rvtest	00000000 trap_cause_to_str
0000b2fa l       .data	00000000 trap_diag_actual_cause_name_str
000050bc l       .text.rvtest	00000000 trap_field_not_epc
0000b370 l       .data	00000000 trap_diag_hint_vect_str
0000b446 l       .data	00000000 trap_diag_hint_cause_str
0000b539 l       .data	00000000 trap_diag_hint_epc_str
0000b634 l       .data	00000000 trap_diag_hint_tval_str
0000b71b l       .data	00000000 trap_diag_hint_ip_str
0000b328 l       .data	00000000 trap_diag_generic_str
00009ca8 l       .data	00000000 saved_mepc
0000a30b l       .data	00000000 xepcinstrstr
00005318 l       .text.rvtest	00000000 trap_cause_interrupt
000052f8 l       .text.rvtest	00000000 trap_cause_exception
00005344 l       .text.rvtest	00000000 trap_cause_unknown
00009cf0 l       .data	00000000 trap_excpt_name_tbl
00009d50 l       .data	00000000 trap_int_name_tbl
0000a18e l       .data	00000000 trap_cause_unknown_str
0000ad53 l       .data	00000000 endstr
000053c8 l       .text.rvtest	00000000 failedtest_terminate
0001b214 l       .text.rvmodel	00000000 rvmodel_halt_fail
00009ca0 l       .data	00000000 csr_context_ret_addr
0000a32c l       .data	00000000 mepcstr
0000a33c l       .data	00000000 mcausestr
0000a34c l       .data	00000000 mtvalstr
0000a35c l       .data	00000000 mstatusstr
00005618 l       .text.rvtest	00000000 failedtest_hex_to_str_loop
00005634 l       .text.rvtest	00000000 failedtest_hex_to_str_digit
00005638 l       .text.rvtest	00000000 failedtest_hex_to_str_write
0001b000 l       .text.rvmodel	00000000 rvtest_boot_to_mmode
0001b000 l       .text.rvmodel	00000000 rvtest_init_regs
0000b800 l       .data	00000000 signature_base
0001b1a0 l       .text.rvmodel	00000000 canary_check
0000ad7c l       .data	00000000 canary_mismatch
00008000 l       .data	00000000 scratch
00009cf0 l       .data	00000000 end_failure_scratch
00009d90 l       .data	00000000 trap_excpt_name_0
00009db0 l       .data	00000000 trap_excpt_name_1
00009dca l       .data	00000000 trap_excpt_name_2
00009ddf l       .data	00000000 trap_excpt_name_3
00009deb l       .data	00000000 trap_excpt_name_4
00009e04 l       .data	00000000 trap_excpt_name_5
00009e17 l       .data	00000000 trap_excpt_name_6
00009e35 l       .data	00000000 trap_excpt_name_7
00009e4d l       .data	00000000 trap_excpt_name_8
00009e6b l       .data	00000000 trap_excpt_name_9
00009e89 l       .data	00000000 trap_excpt_name_10
00009ea8 l       .data	00000000 trap_excpt_name_11
00009ec6 l       .data	00000000 trap_excpt_name_12
00009ede l       .data	00000000 trap_excpt_name_13
00009eef l       .data	00000000 trap_excpt_name_14
00009efe l       .data	00000000 trap_excpt_name_15
00009f14 l       .data	00000000 trap_excpt_name_16
00009f21 l       .data	00000000 trap_excpt_name_17
00009f30 l       .data	00000000 trap_excpt_name_18
00009f40 l       .data	00000000 trap_excpt_name_19
00009f50 l       .data	00000000 trap_excpt_name_20
00009f6e l       .data	00000000 trap_excpt_name_21
00009f85 l       .data	00000000 trap_excpt_name_22
00009f9a l       .data	00000000 trap_excpt_name_23
00009fb6 l       .data	00000000 trap_int_name_0
00009fce l       .data	00000000 trap_int_name_1
00009fed l       .data	00000000 trap_int_name_2
0000a014 l       .data	00000000 trap_int_name_3
0000a030 l       .data	00000000 trap_int_name_4
0000a048 l       .data	00000000 trap_int_name_5
0000a064 l       .data	00000000 trap_int_name_6
0000a088 l       .data	00000000 trap_int_name_7
0000a0a1 l       .data	00000000 trap_int_name_8
0000a0b9 l       .data	00000000 trap_int_name_9
0000a0d8 l       .data	00000000 trap_int_name_10
0000a0ff l       .data	00000000 trap_int_name_11
0000a11b l       .data	00000000 trap_int_name_12
0000a140 l       .data	00000000 trap_int_name_13
0000a15c l       .data	00000000 trap_int_name_14
0000a175 l       .data	00000000 trap_int_name_15
0000a231 l       .data	00000000 abortstr
0000a2d8 l       .data	00000000 xepcstr
0000a9c3 l       .data	00000000 Mclr_Vext_int_str
0000aa1d l       .data	00000000 Sclr_Mext_int_str
0000aabe l       .data	00000000 Sclr_Vext_int_str
0000ab18 l       .data	00000000 Hclr_Mext_int_str
0000abbb l       .data	00000000 Hclr_Vext_int_str
0000ac16 l       .data	00000000 Vclr_Mext_int_str
0000ac66 l       .data	00000000 Vclr_Sext_int_str
0000acb9 l       .data	00000000 Vclr_Vext_int_str
0000b311 l       .data	00000000 trap_diag_curr_xepc_str
0000bbe8 l       .data	00000000 trap_sigptr
0001a650 g       .data	00000000 end_signature
0001a650 g       .data	00000000 rvtest_sig_end
00000000 g       .text.init	00000000 rvtest_entry_point
0000b800 g       .data	00000000 begin_signature
00003bd4 g       .text.rvtest	00000000 rvtest_code_end
00000040 g       .text.rvtest	00000000 rvtest_code_begin
0000b800 g       .data	00000000 rvtest_sig_begin
00008110 g       .data	00000000 rvtest_data_begin
0000b800 g       .data	00000000 rvtest_data_end
00003bd4 g       .text.rvtest	00000000 cleanup_epilogs
0001c000 g       .text.rvmodel	00000000 _end



Disassembly of section .text.init:

00000000 <rvtest_entry_point>:

// Include framework macros
#include "riscv_arch_test.h"

// Set up test environment and declare main entry point
RVTEST_BEGIN
   0:	0001b097          	auipc	x1,0x1b
   4:	00008093          	addi	x1,x1,0 # 1b000 <rvmodel_boot>
   8:	00000013          	addi	x0,x0,0
   c:	00000013          	addi	x0,x0,0
  10:	00000013          	addi	x0,x0,0
  14:	00000013          	addi	x0,x0,0
  18:	00000013          	addi	x0,x0,0
  1c:	00000013          	addi	x0,x0,0
  20:	000080e7          	jalr	x1,0(x1)
  24:	00000013          	addi	x0,x0,0
  28:	00000013          	addi	x0,x0,0
  2c:	00000013          	addi	x0,x0,0
  30:	00000013          	addi	x0,x0,0
  34:	00000013          	addi	x0,x0,0
  38:	00000013          	addi	x0,x0,0
  3c:	00000013          	addi	x0,x0,0

Disassembly of section .text.rvtest:

00000040 <rvtest_code_begin>:
/////////////////////////////////
// cp_rs1_nx0
/////////////////////////////////

# Testcase cp_rs1_nx0 (Test source rs1 = x1)
  LA(x1, 1f) # load jump target address
      40:	00000097          	auipc	x1,0x0
      44:	03408093          	addi	x1,x1,52 # 74 <I_jalr_cg_cp_rs1_nx0_b1+0x8>
      48:	00000013          	addi	x0,x0,0
      4c:	00000013          	addi	x0,x0,0
      50:	00000013          	addi	x0,x0,0
      54:	00000013          	addi	x0,x0,0
      58:	00000013          	addi	x0,x0,0
      5c:	00000013          	addi	x0,x0,0
  RVTEST_TESTDATA_LOAD_INT(x3, x22) # load jump check value: x22 = 0x521297c6
      60:	0001ab03          	lw	x22,0(x3)
      64:	00418193          	addi	x3,x3,4
  addi x1, x1, 1350 # adjust base address for offset
      68:	54608093          	addi	x1,x1,1350

0000006c <I_jalr_cg_cp_rs1_nx0_b1>:
I_jalr_cg_cp_rs1_nx0_b1:
  jalr x15, x1, -1350 # perform jump with offset
      6c:	aba087e7          	jalr	x15,-1350(x1)
  addi x22, x22, -4 # should not execute
      70:	ffcb0b13          	addi	x22,x22,-4
1:
  addi x22, x22, 2 # should execute
      74:	002b0b13          	addi	x22,x22,2
  # Check if x22 contains the expected result. x2 is the signature ptr, x5 is the link ptr, x4 is a temp reg.
  RVTEST_SIGUPD(x2, x5, x4, x22, I_jalr_cg_cp_rs1_nx0_b1, I_jalr_cg_cp_rs1_nx0_b1_str)
      78:	00012203          	lw	x4,0(x2)
      7c:	01620863          	beq	x4,x22,8c <I_jalr_cg_cp_rs1_nx0_b1+0x20>
      80:	39d032ef          	jal	x5,3c1c <failedtest_x5_x4>
      84:	0000006c          	.word	0x0000006c
      88:	000082ec          	.word	0x000082ec
      8c:	00410113          	addi	x2,x2,4
  auipc x22, 0 # get current PC
      90:	00000b17          	auipc	x22,0x0
  sub x15, x15, x22 # subtract current PC to make position-independent
      94:	416787b3          	sub	x15,x15,x22
  # Check if x15 contains the expected result. x2 is the signature ptr, x5 is the link ptr, x4 is a temp reg.
  RVTEST_SIGUPD(x2, x5, x4, x15, I_jalr_cg_cp_rs1_nx0_b1, I_jalr_cg_cp_rs1_nx0_b1_str)
      98:	00012203          	lw	x4,0(x2)
      9c:	00f20863          	beq	x4,x15,ac <I_jalr_cg_cp_rs1_nx0_b1+0x40>
      a0:	37d032ef          	jal	x5,3c1c <failedtest_x5_x4>
      a4:	0000006c          	.word	0x0000006c
      a8:	000082ec          	.word	0x000082ec
      ac:	00410113          	addi	x2,x2,4

  mv x18, x2 # switch signature pointer register to avoid conflict with test
      b0:	00010913          	addi	x18,x2,0
      b4:	00000013          	addi	x0,x0,0
      b8:	00000013          	addi	x0,x0,0
      bc:	00000013          	addi	x0,x0,0
# Testcase cp_rs1_nx0 (Test source rs1 = x2)
  LA(x2, 1f) # load jump target address
      c0:	00000117          	auipc	x2,0x0
      c4:	03410113          	addi	x2,x2,52 # f4 <I_jalr_cg_cp_rs1_nx0_b2+0x8>
      c8:	00000013          	addi	x0,x0,0
      cc:	00000013          	addi	x0,x0,0
      d0:	00000013          	addi	x0,x0,0
      d4:	00000013          	addi	x0,x0,0
      d8:	00000013          	addi	x0,x0,0
      dc:	00000013          	addi	x0,x0,0
  RVTEST_TESTDATA_LOAD_INT(x3, x21) # load jump check value: x21 = 0xa32b7ac4
      e0:	0001aa83          	lw	x21,0(x3)
      e4:	00418193          	addi	x3,x3,4
  addi x2, x2, 1300 # adjust base address for offset
      e8:	51410113          	addi	x2,x2,1300

000000ec <I_jalr_cg_cp_rs1_nx0_b2>:
I_jalr_cg_cp_rs1_nx0_b2:
  jalr x22, x2, -1300 # perform jump with offset
      ec:	aec10b67          	jalr	x22,-1300(x2)
  addi x21, x21, -4 # should not execute
      f0:	ffca8a93          	addi	x21,x21,-4
1:
  addi x21, x21, 2 # should execute
      f4:	002a8a93          	addi	x21,x21,2
  # Check if x21 contains the expected result. x18 is the signature ptr, x5 is the link ptr, x4 is a temp reg.
  RVTEST_SIGUPD(x18, x5, x4, x21, I_jalr_cg_cp_rs1_nx0_b2, I_jalr_cg_cp_rs1_nx0_b2_str)
      f8:	00092203          	lw	x4,0(x18)
      fc:	01520863          	beq	x4,x21,10c <I_jalr_cg_cp_rs1_nx0_b2+0x20>
     100:	31d032ef          	jal	x5,3c1c <failedtest_x5_x4>
     104:	000000ec          	.word	0x000000ec
     108:	0000831e          	.word	0x0000831e
     10c:	00490913          	addi	x18,x18,4
  auipc x21, 0 # get current PC
     110:	00000a97          	auipc	x21,0x0
  sub x22, x22, x21 # subtract current PC to make position-independent
     114:	415b0b33          	sub	x22,x22,x21
  # Check if x22 contains the expected result. x18 is the signature ptr, x5 is the link ptr, x4 is a temp reg.
  RVTEST_SIGUPD(x18, x5, x4, x22, I_jalr_cg_cp_rs1_nx0_b2, I_jalr_cg_cp_rs1_nx0_b2_str)
     118:	00092203          	lw	x4,0(x18)
     11c:	01620863          	beq	x4,x22,12c <I_jalr_cg_cp_rs1_nx0_b2+0x40>
     120:	2fd032ef          	jal	x5,3c1c <failedtest_x5_x4>
     124:	000000ec          	.word	0x000000ec
     128:	0000831e          	.word	0x0000831e
     12c:	00490913          	addi	x18,x18,4

  mv x9, x3 # switch data pointer register to avoid conflict with test
     130:	00018493          	addi	x9,x3,0
     134:	00000013          	addi	x0,x0,0
     138:	00000013          	addi	x0,x0,0
     13c:	00000013          	addi	x0,x0,0
# Testcase cp_rs1_nx0 (Test source rs1 = x3)
  LA(x3, 1f) # load jump target address
     140:	00000197          	auipc	x3,0x0
     144:	03418193          	addi	x3,x3,52 # 174 <I_jalr_cg_cp_rs1_nx0_b3+0x8>
     148:	00000013          	addi	x0,x0,0
     14c:	00000013          	addi	x0,x0,0
     150:	00000013          	addi	x0,x0,0
     154:	00000013          	addi	x0,x0,0
     158:	00000013          	addi	x0,x0,0
     15c:	00000013          	addi	x0,x0,0
  RVTEST_TESTDATA_LOAD_INT(x9, x21) # load jump check value: x21 = 0x0257f62a
     160:	0004aa83          	lw	x21,0(x9)
     164:	00448493          	addi	x9,x9,4
  addi x3, x3, 546 # adjust base address for offset
     168:	22218193          	addi	x3,x3,546

0000016c <I_jalr_cg_cp_rs1_nx0_b3>:
I_jalr_cg_cp_rs1_nx0_b3:
  jalr x22, x3, -546 # perform jump with offset
     16c:	dde18b67          	jalr	x22,-546(x3)
  addi x21, x21, -4 # should not execute
     170:	ffca8a93          	addi	x21,x21,-4 # 10c <I_jalr_cg_cp_rs1_nx0_b2+0x20>
1:
  addi x21, x21, 2 # should execute
     174:	002a8a93          	addi	x21,x21,2
  # Check if x21 contains the expected result. x18 is the signature ptr, x5 is the link ptr, x4 is a temp reg.
  RVTEST_SIGUPD(x18, x5, x4, x21, I_jalr_cg_cp_rs1_nx0_b3, I_jalr_cg_cp_rs1_nx0_b3_str)
     178:	00092203          	lw	x4,0(x18)
     17c:	01520863          	beq	x4,x21,18c <I_jalr_cg_cp_rs1_nx0_b3+0x20>
     180:	29d032ef          	jal	x5,3c1c <failedtest_x5_x4>
     184:	0000016c          	.word	0x0000016c
     188:	00008350          	.word	0x00008350
     18c:	00490913          	addi	x18,x18,4
  auipc x21, 0 # get current PC
     190:	00000a97          	auipc	x21,0x0
  sub x22, x22, x21 # subtract current PC to make position-independent
     194:	415b0b33          	sub	x22,x22,x21
  # Check if x22 contains the expected result. x18 is the signature ptr, x5 is the link ptr, x4 is a temp reg.
  RVTEST_SIGUPD(x18, x5, x4, x22, I_jalr_cg_cp_rs1_nx0_b3, I_jalr_cg_cp_rs1_nx0_b3_str)
     198:	00092203          	lw	x4,0(x18)
     19c:	01620863          	beq	x4,x22,1ac <I_jalr_cg_cp_rs1_nx0_b3+0x40>
     1a0:	27d032ef          	jal	x5,3c1c <failedtest_x5_x4>
     1a4:	0000016c          	.word	0x0000016c
     1a8:	00008350          	.word	0x00008350
     1ac:	00490913          	addi	x18,x18,4

  mv x13, x4 # switch temp register to avoid conflict with test
     1b0:	00020693          	addi	x13,x4,0 # 0 <rvtest_entry_point>
  mv x14, x5 # switch link pointer register to avoid conflict with test
     1b4:	00028713          	addi	x14,x5,0
     1b8:	00000013          	addi	x0,x0,0
     1bc:	00000013          	addi	x0,x0,0
# Testcase cp_rs1_nx0 (Test source rs1 = x4)
  LA(x4, 1f) # load jump target address
     1c0:	00000217          	auipc	x4,0x0
     1c4:	03420213          	addi	x4,x4,52 # 1f4 <I_jalr_cg_cp_rs1_nx0_b4+0x8>
     1c8:	00000013          	addi	x0,x0,0
     1cc:	00000013          	addi	x0,x0,0
     1d0:	00000013          	addi	x0,x0,0
     1d4:	00000013          	addi	x0,x0,0
     1d8:	00000013          	addi	x0,x0,0
     1dc:	00000013          	addi	x0,x0,0
  RVTEST_TESTDATA_LOAD_INT(x9, x23) # load jump check value: x23 = 0x530708c7
     1e0:	0004ab83          	lw	x23,0(x9)
     1e4:	00448493          	addi	x9,x9,4
  addi x4, x4, 1850 # adjust base address for offset
     1e8:	73a20213          	addi	x4,x4,1850 # 73a <I_jalr_cg_cp_rs1_nx0_b14+0x4e>

000001ec <I_jalr_cg_cp_rs1_nx0_b4>:
I_jalr_cg_cp_rs1_nx0_b4:
  jalr x3, x4, -1850 # perform jump with offset
     1ec:	8c6201e7          	jalr	x3,-1850(x4) # fffff8c6 <absimm+0x90a355bd>
  addi x23, x23, -4 # should not execute
     1f0:	ffcb8b93          	addi	x23,x23,-4
1:
  addi x23, x23, 2 # should execute
     1f4:	002b8b93          	addi	x23,x23,2
  # Check if x23 contains the expected result. x18 is the signature ptr, x14 is the link ptr, x13 is a temp reg.
  RVTEST_SIGUPD(x18, x14, x13, x23, I_jalr_cg_cp_rs1_nx0_b4, I_jalr_cg_cp_rs1_nx0_b4_str)
     1f8:	00092683          	lw	x13,0(x18)
     1fc:	01768863          	beq	x13,x23,20c <I_jalr_cg_cp_rs1_nx0_b4+0x20>
     200:	25d0376f          	jal	x14,3c5c <failedtest_x14_x13>
     204:	000001ec          	.word	0x000001ec
     208:	00008382          	.word	0x00008382
     20c:	00490913          	addi	x18,x18,4
  auipc x23, 0 # get current PC
     210:	00000b97          	auipc	x23,0x0
  sub x3, x3, x23 # subtract current PC to make position-independent
     214:	417181b3          	sub	x3,x3,x23
  # Check if x3 contains the expected result. x18 is the signature ptr, x14 is the link ptr, x13 is a temp reg.
  RVTEST_SIGUPD(x18, x14, x13, x3, I_jalr_cg_cp_rs1_nx0_b4, I_jalr_cg_cp_rs1_nx0_b4_str)
     218:	00092683          	lw	x13,0(x18)
     21c:	00368863          	beq	x13,x3,22c <I_jalr_cg_cp_rs1_nx0_b4+0x40>
     220:	23d0376f          	jal	x14,3c5c <failedtest_x14_x13>
     224:	000001ec          	.word	0x000001ec
     228:	00008382          	.word	0x00008382
     22c:	00490913          	addi	x18,x18,4
     230:	00000013          	addi	x0,x0,0
     234:	00000013          	addi	x0,x0,0
     238:	00000013          	addi	x0,x0,0
     23c:	00000013          	addi	x0,x0,0

# Testcase cp_rs1_nx0 (Test source rs1 = x5)
  LA(x5, 1f) # load jump target address
     240:	00000297          	auipc	x5,0x0
     244:	03428293          	addi	x5,x5,52 # 274 <I_jalr_cg_cp_rs1_nx0_b5+0x8>
     248:	00000013          	addi	x0,x0,0
     24c:	00000013          	addi	x0,x0,0
     250:	00000013          	addi	x0,x0,0
     254:	00000013          	addi	x0,x0,0
     258:	00000013          	addi	x0,x0,0
     25c:	00000013          	addi	x0,x0,0
  RVTEST_TESTDATA_LOAD_INT(x9, x3) # load jump check value: x3 = 0xfa369bd0
     260:	0004a183          	lw	x3,0(x9)
     264:	00448493          	addi	x9,x9,4
  addi x5, x5, -81 # adjust base address for offset
     268:	faf28293          	addi	x5,x5,-81

0000026c <I_jalr_cg_cp_rs1_nx0_b5>:
I_jalr_cg_cp_rs1_nx0_b5:
  jalr x26, x5, 81 # perform jump with offset
     26c:	05128d67          	jalr	x26,81(x5)
  addi x3, x3, -4 # should not execute
     270:	ffc18193          	addi	x3,x3,-4
1:
  addi x3, x3, 2 # should execute
     274:	00218193          	addi	x3,x3,2
  # Check if x3 contains the expected result. x18 is the signature ptr, x14 is the link ptr, x13 is a temp reg.
  RVTEST_SIGUPD(x18, x14, x13, x3, I_jalr_cg_cp_rs1_nx0_b5, I_jalr_cg_cp_rs1_nx0_b5_str)
     278:	00092683          	lw	x13,0(x18)
     27c:	00368863          	beq	x13,x3,28c <I_jalr_cg_cp_rs1_nx0_b5+0x20>
     280:	1dd0376f          	jal	x14,3c5c <failedtest_x14_x13>
     284:	0000026c          	.word	0x0000026c
     288:	000083b4          	.word	0x000083b4
     28c:	00490913          	addi	x18,x18,4
  auipc x3, 0 # get current PC
     290:	00000197          	auipc	x3,0x0
  sub x26, x26, x3 # subtract current PC to make position-independent
     294:	403d0d33          	sub	x26,x26,x3
  # Check if x26 contains the expected result. x18 is the signature ptr, x14 is the link ptr, x13 is a temp reg.
  RVTEST_SIGUPD(x18, x14, x13, x26, I_jalr_cg_cp_rs1_nx0_b5, I_jalr_cg_cp_rs1_nx0_b5_str)
     298:	00092683          	lw	x13,0(x18)
     29c:	01a68863          	beq	x13,x26,2ac <I_jalr_cg_cp_rs1_nx0_b5+0x40>
     2a0:	1bd0376f          	jal	x14,3c5c <failedtest_x14_x13>
     2a4:	0000026c          	.word	0x0000026c
     2a8:	000083b4          	.word	0x000083b4
     2ac:	00490913          	addi	x18,x18,4
     2b0:	00000013          	addi	x0,x0,0
     2b4:	00000013          	addi	x0,x0,0
     2b8:	00000013          	addi	x0,x0,0
     2bc:	00000013          	addi	x0,x0,0

# Testcase cp_rs1_nx0 (Test source rs1 = x6)
  LA(x6, 1f) # load jump target address
     2c0:	00000317          	auipc	x6,0x0
     2c4:	03430313          	addi	x6,x6,52 # 2f4 <I_jalr_cg_cp_rs1_nx0_b6+0x8>
     2c8:	00000013          	addi	x0,x0,0
     2cc:	00000013          	addi	x0,x0,0
     2d0:	00000013          	addi	x0,x0,0
     2d4:	00000013          	addi	x0,x0,0
     2d8:	00000013          	addi	x0,x0,0
     2dc:	00000013          	addi	x0,x0,0
  RVTEST_TESTDATA_LOAD_INT(x9, x22) # load jump check value: x22 = 0x0c58e979
     2e0:	0004ab03          	lw	x22,0(x9)
     2e4:	00448493          	addi	x9,x9,4
  addi x6, x6, -1133 # adjust base address for offset
     2e8:	b9330313          	addi	x6,x6,-1133

000002ec <I_jalr_cg_cp_rs1_nx0_b6>:
I_jalr_cg_cp_rs1_nx0_b6:
  jalr x21, x6, 1133 # perform jump with offset
     2ec:	46d30ae7          	jalr	x21,1133(x6)
  addi x22, x22, -4 # should not execute
     2f0:	ffcb0b13          	addi	x22,x22,-4 # 8c <I_jalr_cg_cp_rs1_nx0_b1+0x20>
1:
  addi x22, x22, 2 # should execute
     2f4:	002b0b13          	addi	x22,x22,2
  # Check if x22 contains the expected result. x18 is the signature ptr, x14 is the link ptr, x13 is a temp reg.
  RVTEST_SIGUPD(x18, x14, x13, x22, I_jalr_cg_cp_rs1_nx0_b6, I_jalr_cg_cp_rs1_nx0_b6_str)
     2f8:	00092683          	lw	x13,0(x18)
     2fc:	01668863          	beq	x13,x22,30c <imm12+0x3>
     300:	15d0376f          	jal	x14,3c5c <failedtest_x14_x13>
     304:	000002ec          	.word	0x000002ec
     308:	000083e6          	.word	0x000083e6
     30c:	00490913          	addi	x18,x18,4
  auipc x22, 0 # get current PC
     310:	00000b17          	auipc	x22,0x0
  sub x21, x21, x22 # subtract current PC to make position-independent
     314:	416a8ab3          	sub	x21,x21,x22
  # Check if x21 contains the expected result. x18 is the signature ptr, x14 is the link ptr, x13 is a temp reg.
  RVTEST_SIGUPD(x18, x14, x13, x21, I_jalr_cg_cp_rs1_nx0_b6, I_jalr_cg_cp_rs1_nx0_b6_str)
     318:	00092683          	lw	x13,0(x18)
     31c:	01568863          	beq	x13,x21,32c <imm12+0x23>
     320:	13d0376f          	jal	x14,3c5c <failedtest_x14_x13>
     324:	000002ec          	.word	0x000002ec
     328:	000083e6          	.word	0x000083e6
     32c:	00490913          	addi	x18,x18,4
     330:	00000013          	addi	x0,x0,0
     334:	00000013          	addi	x0,x0,0
     338:	00000013          	addi	x0,x0,0
     33c:	00000013          	addi	x0,x0,0

# Testcase cp_rs1_nx0 (Test source rs1 = x7)
  LA(x7, 1f) # load jump target address
     340:	00000397          	auipc	x7,0x0
     344:	03438393          	addi	x7,x7,52 # 374 <I_jalr_cg_cp_rs1_nx0_b7+0x8>
     348:	00000013          	addi	x0,x0,0
     34c:	00000013          	addi	x0,x0,0
     350:	00000013          	addi	x0,x0,0
     354:	00000013          	addi	x0,x0,0
     358:	00000013          	addi	x0,x0,0
     35c:	00000013          	addi	x0,x0,0
  RVTEST_TESTDATA_LOAD_INT(x9, x11) # load jump check value: x11 = 0x8593fdad
     360:	0004a583          	lw	x11,0(x9)
     364:	00448493          	addi	x9,x9,4
  addi x7, x7, 1974 # adjust base address for offset
     368:	7b638393          	addi	x7,x7,1974

0000036c <I_jalr_cg_cp_rs1_nx0_b7>:
I_jalr_cg_cp_rs1_nx0_b7:
  jalr x30, x7, -1974 # perform jump with offset
     36c:	84a38f67          	jalr	x30,-1974(x7)
  addi x11, x11, -4 # should not execute
     370:	ffc58593          	addi	x11,x11,-4
1:
  addi x11, x11, 2 # should execute
     374:	00258593          	addi	x11,x11,2
  # Check if x11 contains the expected result. x18 is the signature ptr, x14 is the link ptr, x13 is a temp reg.
  RVTEST_SIGUPD(x18, x14, x13, x11, I_jalr_cg_cp_rs1_nx0_b7, I_jalr_cg_cp_rs1_nx0_b7_str)
     378:	00092683          	lw	x13,0(x18)
     37c:	00b68863          	beq	x13,x11,38c <I_jalr_cg_cp_rs1_nx0_b7+0x20>
     380:	0dd0376f          	jal	x14,3c5c <failedtest_x14_x13>
     384:	0000036c          	.word	0x0000036c
     388:	00008418          	.word	0x00008418
     38c:	00490913          	addi	x18,x18,4
  auipc x11, 0 # get current PC
     390:	00000597          	auipc	x11,0x0
  sub x30, x30, x11 # subtract current PC to make position-independent
     394:	40bf0f33          	sub	x30,x30,x11
  # Check if x30 contains the expected result. x18 is the signature ptr, x14 is the link ptr, x13 is a temp reg.
  RVTEST_SIGUPD(x18, x14, x13, x30, I_jalr_cg_cp_rs1_nx0_b7, I_jalr_cg_cp_rs1_nx0_b7_str)
     398:	00092683          	lw	x13,0(x18)
     39c:	01e68863          	beq	x13,x30,3ac <I_jalr_cg_cp_rs1_nx0_b7+0x40>
     3a0:	0bd0376f          	jal	x14,3c5c <failedtest_x14_x13>
     3a4:	0000036c          	.word	0x0000036c
     3a8:	00008418          	.word	0x00008418
     3ac:	00490913          	addi	x18,x18,4
     3b0:	00000013          	addi	x0,x0,0
     3b4:	00000013          	addi	x0,x0,0
     3b8:	00000013          	addi	x0,x0,0
     3bc:	00000013          	addi	x0,x0,0

# Testcase cp_rs1_nx0 (Test source rs1 = x8)
  LA(x8, 1f) # load jump target address
     3c0:	00000417          	auipc	x8,0x0
     3c4:	03440413          	addi	x8,x8,52 # 3f4 <I_jalr_cg_cp_rs1_nx0_b8+0x8>
     3c8:	00000013          	addi	x0,x0,0
     3cc:	00000013          	addi	x0,x0,0
     3d0:	00000013          	addi	x0,x0,0
     3d4:	00000013          	addi	x0,x0,0
     3d8:	00000013          	addi	x0,x0,0
     3dc:	00000013          	addi	x0,x0,0
  RVTEST_TESTDATA_LOAD_INT(x9, x26) # load jump check value: x26 = 0x8034b2f0
     3e0:	0004ad03          	lw	x26,0(x9)
     3e4:	00448493          	addi	x9,x9,4
  addi x8, x8, 1307 # adjust base address for offset
     3e8:	51b40413          	addi	x8,x8,1307

000003ec <I_jalr_cg_cp_rs1_nx0_b8>:
I_jalr_cg_cp_rs1_nx0_b8:
  jalr x15, x8, -1307 # perform jump with offset
     3ec:	ae5407e7          	jalr	x15,-1307(x8)
  addi x26, x26, -4 # should not execute
     3f0:	ffcd0d13          	addi	x26,x26,-4
1:
  addi x26, x26, 2 # should execute
     3f4:	002d0d13          	addi	x26,x26,2
  # Check if x26 contains the expected result. x18 is the signature ptr, x14 is the link ptr, x13 is a temp reg.
  RVTEST_SIGUPD(x18, x14, x13, x26, I_jalr_cg_cp_rs1_nx0_b8, I_jalr_cg_cp_rs1_nx0_b8_str)
     3f8:	00092683          	lw	x13,0(x18)
     3fc:	01a68863          	beq	x13,x26,40c <I_jalr_cg_cp_rs1_nx0_b8+0x20>
     400:	05d0376f          	jal	x14,3c5c <failedtest_x14_x13>
     404:	000003ec          	.word	0x000003ec
     408:	0000844a          	.word	0x0000844a
     40c:	00490913          	addi	x18,x18,4
  auipc x26, 0 # get current PC
     410:	00000d17          	auipc	x26,0x0
  sub x15, x15, x26 # subtract current PC to make position-independent
     414:	41a787b3          	sub	x15,x15,x26
  # Check if x15 contains the expected result. x18 is the signature ptr, x14 is the link ptr, x13 is a temp reg.
  RVTEST_SIGUPD(x18, x14, x13, x15, I_jalr_cg_cp_rs1_nx0_b8, I_jalr_cg_cp_rs1_nx0_b8_str)
     418:	00092683          	lw	x13,0(x18)
     41c:	00f68863          	beq	x13,x15,42c <I_jalr_cg_cp_rs1_nx0_b8+0x40>
     420:	03d0376f          	jal	x14,3c5c <failedtest_x14_x13>
     424:	000003ec          	.word	0x000003ec
     428:	0000844a          	.word	0x0000844a
     42c:	00490913          	addi	x18,x18,4

  mv x24, x9 # switch data pointer register to avoid conflict with test
     430:	00048c13          	addi	x24,x9,0
     434:	00000013          	addi	x0,x0,0
     438:	00000013          	addi	x0,x0,0
     43c:	00000013          	addi	x0,x0,0
# Testcase cp_rs1_nx0 (Test source rs1 = x9)
  LA(x9, 1f) # load jump target address
     440:	00000497          	auipc	x9,0x0
     444:	03448493          	addi	x9,x9,52 # 474 <I_jalr_cg_cp_rs1_nx0_b9+0x8>
     448:	00000013          	addi	x0,x0,0
     44c:	00000013          	addi	x0,x0,0
     450:	00000013          	addi	x0,x0,0
     454:	00000013          	addi	x0,x0,0
     458:	00000013          	addi	x0,x0,0
     45c:	00000013          	addi	x0,x0,0
  RVTEST_TESTDATA_LOAD_INT(x24, x19) # load jump check value: x19 = 0x936a7778
     460:	000c2983          	lw	x19,0(x24)
     464:	004c0c13          	addi	x24,x24,4
  addi x9, x9, 1072 # adjust base address for offset
     468:	43048493          	addi	x9,x9,1072

0000046c <I_jalr_cg_cp_rs1_nx0_b9>:
I_jalr_cg_cp_rs1_nx0_b9:
  jalr x1, x9, -1072 # perform jump with offset
     46c:	bd0480e7          	jalr	x1,-1072(x9)
  addi x19, x19, -4 # should not execute
     470:	ffc98993          	addi	x19,x19,-4
1:
  addi x19, x19, 2 # should execute
     474:	00298993          	addi	x19,x19,2
  # Check if x19 contains the expected result. x18 is the signature ptr, x14 is the link ptr, x13 is a temp reg.
  RVTEST_SIGUPD(x18, x14, x13, x19, I_jalr_cg_cp_rs1_nx0_b9, I_jalr_cg_cp_rs1_nx0_b9_str)
     478:	00092683          	lw	x13,0(x18)
     47c:	01368863          	beq	x13,x19,48c <I_jalr_cg_cp_rs1_nx0_b9+0x20>
     480:	7dc0376f          	jal	x14,3c5c <failedtest_x14_x13>
     484:	0000046c          	.word	0x0000046c
     488:	0000847c          	.word	0x0000847c
     48c:	00490913          	addi	x18,x18,4
  auipc x19, 0 # get current PC
     490:	00000997          	auipc	x19,0x0
  sub x1, x1, x19 # subtract current PC to make position-independent
     494:	413080b3          	sub	x1,x1,x19
  # Check if x1 contains the expected result. x18 is the signature ptr, x14 is the link ptr, x13 is a temp reg.
  RVTEST_SIGUPD(x18, x14, x13, x1, I_jalr_cg_cp_rs1_nx0_b9, I_jalr_cg_cp_rs1_nx0_b9_str)
     498:	00092683          	lw	x13,0(x18)
     49c:	00168863          	beq	x13,x1,4ac <I_jalr_cg_cp_rs1_nx0_b9+0x40>
     4a0:	7bc0376f          	jal	x14,3c5c <failedtest_x14_x13>
     4a4:	0000046c          	.word	0x0000046c
     4a8:	0000847c          	.word	0x0000847c
     4ac:	00490913          	addi	x18,x18,4
     4b0:	00000013          	addi	x0,x0,0
     4b4:	00000013          	addi	x0,x0,0
     4b8:	00000013          	addi	x0,x0,0
     4bc:	00000013          	addi	x0,x0,0

# Testcase cp_rs1_nx0 (Test source rs1 = x10)
  LA(x10, 1f) # load jump target address
     4c0:	00000517          	auipc	x10,0x0
     4c4:	03450513          	addi	x10,x10,52 # 4f4 <I_jalr_cg_cp_rs1_nx0_b10+0x8>
     4c8:	00000013          	addi	x0,x0,0
     4cc:	00000013          	addi	x0,x0,0
     4d0:	00000013          	addi	x0,x0,0
     4d4:	00000013          	addi	x0,x0,0
     4d8:	00000013          	addi	x0,x0,0
     4dc:	00000013          	addi	x0,x0,0
  RVTEST_TESTDATA_LOAD_INT(x24, x19) # load jump check value: x19 = 0xc71a42a4
     4e0:	000c2983          	lw	x19,0(x24)
     4e4:	004c0c13          	addi	x24,x24,4
  addi x10, x10, 1829 # adjust base address for offset
     4e8:	72550513          	addi	x10,x10,1829

000004ec <I_jalr_cg_cp_rs1_nx0_b10>:
I_jalr_cg_cp_rs1_nx0_b10:
  jalr x28, x10, -1829 # perform jump with offset
     4ec:	8db50e67          	jalr	x28,-1829(x10)
  addi x19, x19, -4 # should not execute
     4f0:	ffc98993          	addi	x19,x19,-4 # 48c <I_jalr_cg_cp_rs1_nx0_b9+0x20>
1:
  addi x19, x19, 2 # should execute
     4f4:	00298993          	addi	x19,x19,2
  # Check if x19 contains the expected result. x18 is the signature ptr, x14 is the link ptr, x13 is a temp reg.
  RVTEST_SIGUPD(x18, x14, x13, x19, I_jalr_cg_cp_rs1_nx0_b10, I_jalr_cg_cp_rs1_nx0_b10_str)
     4f8:	00092683          	lw	x13,0(x18)
     4fc:	01368863          	beq	x13,x19,50c <I_jalr_cg_cp_rs1_nx0_b10+0x20>
     500:	75c0376f          	jal	x14,3c5c <failedtest_x14_x13>
     504:	000004ec          	.word	0x000004ec
     508:	000084ae          	.word	0x000084ae
     50c:	00490913          	addi	x18,x18,4
  auipc x19, 0 # get current PC
     510:	00000997          	auipc	x19,0x0
  sub x28, x28, x19 # subtract current PC to make position-independent
     514:	413e0e33          	sub	x28,x28,x19
  # Check if x28 contains the expected result. x18 is the signature ptr, x14 is the link ptr, x13 is a temp reg.
  RVTEST_SIGUPD(x18, x14, x13, x28, I_jalr_cg_cp_rs1_nx0_b10, I_jalr_cg_cp_rs1_nx0_b10_str)
     518:	00092683          	lw	x13,0(x18)
     51c:	01c68863          	beq	x13,x28,52c <I_jalr_cg_cp_rs1_nx0_b10+0x40>
     520:	73c0376f          	jal	x14,3c5c <failedtest_x14_x13>
     524:	000004ec          	.word	0x000004ec
     528:	000084ae          	.word	0x000084ae
     52c:	00490913          	addi	x18,x18,4
     530:	00000013          	addi	x0,x0,0
     534:	00000013          	addi	x0,x0,0
     538:	00000013          	addi	x0,x0,0
     53c:	00000013          	addi	x0,x0,0

# Testcase cp_rs1_nx0 (Test source rs1 = x11)
  LA(x11, 1f) # load jump target address
     540:	00000597          	auipc	x11,0x0
     544:	03458593          	addi	x11,x11,52 # 574 <I_jalr_cg_cp_rs1_nx0_b11+0x8>
     548:	00000013          	addi	x0,x0,0
     54c:	00000013          	addi	x0,x0,0
     550:	00000013          	addi	x0,x0,0
     554:	00000013          	addi	x0,x0,0
     558:	00000013          	addi	x0,x0,0
     55c:	00000013          	addi	x0,x0,0
  RVTEST_TESTDATA_LOAD_INT(x24, x30) # load jump check value: x30 = 0xc2f9ce5a
     560:	000c2f03          	lw	x30,0(x24)
     564:	004c0c13          	addi	x24,x24,4
  addi x11, x11, 983 # adjust base address for offset
     568:	3d758593          	addi	x11,x11,983

0000056c <I_jalr_cg_cp_rs1_nx0_b11>:
I_jalr_cg_cp_rs1_nx0_b11:
  jalr x0, x11, -983 # perform jump with offset
     56c:	c2958067          	jalr	x0,-983(x11)
  addi x30, x30, -4 # should not execute
     570:	ffcf0f13          	addi	x30,x30,-4
1:
  addi x30, x30, 2 # should execute
     574:	002f0f13          	addi	x30,x30,2
  # Check if x30 contains the expected result. x18 is the signature ptr, x14 is the link ptr, x13 is a temp reg.
  RVTEST_SIGUPD(x18, x14, x13, x30, I_jalr_cg_cp_rs1_nx0_b11, I_jalr_cg_cp_rs1_nx0_b11_str)
     578:	00092683          	lw	x13,0(x18)
     57c:	01e68863          	beq	x13,x30,58c <I_jalr_cg_cp_rs1_nx0_b11+0x20>
     580:	6dc0376f          	jal	x14,3c5c <failedtest_x14_x13>
     584:	0000056c          	.word	0x0000056c
     588:	000084e2          	.word	0x000084e2
     58c:	00490913          	addi	x18,x18,4
  auipc x30, 0 # get current PC
     590:	00000f17          	auipc	x30,0x0
  sub x0, x0, x30 # subtract current PC to make position-independent
     594:	41e00033          	sub	x0,x0,x30
  # Check if x0 contains the expected result. x18 is the signature ptr, x14 is the link ptr, x13 is a temp reg.
  RVTEST_SIGUPD(x18, x14, x13, x0, I_jalr_cg_cp_rs1_nx0_b11, I_jalr_cg_cp_rs1_nx0_b11_str)
     598:	00092683          	lw	x13,0(x18)
     59c:	00068863          	beq	x13,x0,5ac <I_jalr_cg_cp_rs1_nx0_b11+0x40>
     5a0:	6bc0376f          	jal	x14,3c5c <failedtest_x14_x13>
     5a4:	0000056c          	.word	0x0000056c
     5a8:	000084e2          	.word	0x000084e2
     5ac:	00490913          	addi	x18,x18,4
     5b0:	00000013          	addi	x0,x0,0
     5b4:	00000013          	addi	x0,x0,0
     5b8:	00000013          	addi	x0,x0,0
     5bc:	00000013          	addi	x0,x0,0

# Testcase cp_rs1_nx0 (Test source rs1 = x12)
  LA(x12, 1f) # load jump target address
     5c0:	00000617          	auipc	x12,0x0
     5c4:	03460613          	addi	x12,x12,52 # 5f4 <I_jalr_cg_cp_rs1_nx0_b12+0x8>
     5c8:	00000013          	addi	x0,x0,0
     5cc:	00000013          	addi	x0,x0,0
     5d0:	00000013          	addi	x0,x0,0
     5d4:	00000013          	addi	x0,x0,0
     5d8:	00000013          	addi	x0,x0,0
     5dc:	00000013          	addi	x0,x0,0
  RVTEST_TESTDATA_LOAD_INT(x24, x20) # load jump check value: x20 = 0x3c17077a
     5e0:	000c2a03          	lw	x20,0(x24)
     5e4:	004c0c13          	addi	x24,x24,4
  addi x12, x12, 960 # adjust base address for offset
     5e8:	3c060613          	addi	x12,x12,960

000005ec <I_jalr_cg_cp_rs1_nx0_b12>:
I_jalr_cg_cp_rs1_nx0_b12:
  jalr x21, x12, -960 # perform jump with offset
     5ec:	c4060ae7          	jalr	x21,-960(x12)
  addi x20, x20, -4 # should not execute
     5f0:	ffca0a13          	addi	x20,x20,-4
1:
  addi x20, x20, 2 # should execute
     5f4:	002a0a13          	addi	x20,x20,2
  # Check if x20 contains the expected result. x18 is the signature ptr, x14 is the link ptr, x13 is a temp reg.
  RVTEST_SIGUPD(x18, x14, x13, x20, I_jalr_cg_cp_rs1_nx0_b12, I_jalr_cg_cp_rs1_nx0_b12_str)
     5f8:	00092683          	lw	x13,0(x18)
     5fc:	01468863          	beq	x13,x20,60c <I_jalr_cg_cp_rs1_nx0_b12+0x20>
     600:	65c0376f          	jal	x14,3c5c <failedtest_x14_x13>
     604:	000005ec          	.word	0x000005ec
     608:	00008516          	.word	0x00008516
     60c:	00490913          	addi	x18,x18,4
  auipc x20, 0 # get current PC
     610:	00000a17          	auipc	x20,0x0
  sub x21, x21, x20 # subtract current PC to make position-independent
     614:	414a8ab3          	sub	x21,x21,x20
  # Check if x21 contains the expected result. x18 is the signature ptr, x14 is the link ptr, x13 is a temp reg.
  RVTEST_SIGUPD(x18, x14, x13, x21, I_jalr_cg_cp_rs1_nx0_b12, I_jalr_cg_cp_rs1_nx0_b12_str)
     618:	00092683          	lw	x13,0(x18)
     61c:	01568863          	beq	x13,x21,62c <I_jalr_cg_cp_rs1_nx0_b12+0x40>
     620:	63c0376f          	jal	x14,3c5c <failedtest_x14_x13>
     624:	000005ec          	.word	0x000005ec
     628:	00008516          	.word	0x00008516
     62c:	00490913          	addi	x18,x18,4

  mv x4, x13 # switch temp register to avoid conflict with test
     630:	00068213          	addi	x4,x13,0
  mv x5, x14 # switch link pointer register to avoid conflict with test
     634:	00070293          	addi	x5,x14,0
     638:	00000013          	addi	x0,x0,0
     63c:	00000013          	addi	x0,x0,0
# Testcase cp_rs1_nx0 (Test source rs1 = x13)
  LA(x13, 1f) # load jump target address
     640:	00000697          	auipc	x13,0x0
     644:	03468693          	addi	x13,x13,52 # 674 <I_jalr_cg_cp_rs1_nx0_b13+0x8>
     648:	00000013          	addi	x0,x0,0
     64c:	00000013          	addi	x0,x0,0
     650:	00000013          	addi	x0,x0,0
     654:	00000013          	addi	x0,x0,0
     658:	00000013          	addi	x0,x0,0
     65c:	00000013          	addi	x0,x0,0
  RVTEST_TESTDATA_LOAD_INT(x24, x6) # load jump check value: x6 = 0x2a07785f
     660:	000c2303          	lw	x6,0(x24)
     664:	004c0c13          	addi	x24,x24,4
  addi x13, x13, -2028 # adjust base address for offset
     668:	81468693          	addi	x13,x13,-2028

0000066c <I_jalr_cg_cp_rs1_nx0_b13>:
I_jalr_cg_cp_rs1_nx0_b13:
  jalr x0, x13, 2028 # perform jump with offset
     66c:	7ec68067          	jalr	x0,2028(x13)
  addi x6, x6, -4 # should not execute
     670:	ffc30313          	addi	x6,x6,-4
1:
  addi x6, x6, 2 # should execute
     674:	00230313          	addi	x6,x6,2
  # Check if x6 contains the expected result. x18 is the signature ptr, x5 is the link ptr, x4 is a temp reg.
  RVTEST_SIGUPD(x18, x5, x4, x6, I_jalr_cg_cp_rs1_nx0_b13, I_jalr_cg_cp_rs1_nx0_b13_str)
     678:	00092203          	lw	x4,0(x18)
     67c:	00620863          	beq	x4,x6,68c <I_jalr_cg_cp_rs1_nx0_b13+0x20>
     680:	59c032ef          	jal	x5,3c1c <failedtest_x5_x4>
     684:	0000066c          	.word	0x0000066c
     688:	0000854a          	.word	0x0000854a
     68c:	00490913          	addi	x18,x18,4
  auipc x6, 0 # get current PC
     690:	00000317          	auipc	x6,0x0
  sub x0, x0, x6 # subtract current PC to make position-independent
     694:	40600033          	sub	x0,x0,x6
  # Check if x0 contains the expected result. x18 is the signature ptr, x5 is the link ptr, x4 is a temp reg.
  RVTEST_SIGUPD(x18, x5, x4, x0, I_jalr_cg_cp_rs1_nx0_b13, I_jalr_cg_cp_rs1_nx0_b13_str)
     698:	00092203          	lw	x4,0(x18)
     69c:	00020863          	beq	x4,x0,6ac <I_jalr_cg_cp_rs1_nx0_b13+0x40>
     6a0:	57c032ef          	jal	x5,3c1c <failedtest_x5_x4>
     6a4:	0000066c          	.word	0x0000066c
     6a8:	0000854a          	.word	0x0000854a
     6ac:	00490913          	addi	x18,x18,4
     6b0:	00000013          	addi	x0,x0,0
     6b4:	00000013          	addi	x0,x0,0
     6b8:	00000013          	addi	x0,x0,0
     6bc:	00000013          	addi	x0,x0,0

# Testcase cp_rs1_nx0 (Test source rs1 = x14)
  LA(x14, 1f) # load jump target address
     6c0:	00000717          	auipc	x14,0x0
     6c4:	03470713          	addi	x14,x14,52 # 6f4 <I_jalr_cg_cp_rs1_nx0_b14+0x8>
     6c8:	00000013          	addi	x0,x0,0
     6cc:	00000013          	addi	x0,x0,0
     6d0:	00000013          	addi	x0,x0,0
     6d4:	00000013          	addi	x0,x0,0
     6d8:	00000013          	addi	x0,x0,0
     6dc:	00000013          	addi	x0,x0,0
  RVTEST_TESTDATA_LOAD_INT(x24, x25) # load jump check value: x25 = 0x100d7eb9
     6e0:	000c2c83          	lw	x25,0(x24)
     6e4:	004c0c13          	addi	x24,x24,4
  addi x14, x14, -1499 # adjust base address for offset
     6e8:	a2570713          	addi	x14,x14,-1499

000006ec <I_jalr_cg_cp_rs1_nx0_b14>:
I_jalr_cg_cp_rs1_nx0_b14:
  jalr x27, x14, 1499 # perform jump with offset
     6ec:	5db70de7          	jalr	x27,1499(x14)
  addi x25, x25, -4 # should not execute
     6f0:	ffcc8c93          	addi	x25,x25,-4
1:
  addi x25, x25, 2 # should execute
     6f4:	002c8c93          	addi	x25,x25,2
  # Check if x25 contains the expected result. x18 is the signature ptr, x5 is the link ptr, x4 is a temp reg.
  RVTEST_SIGUPD(x18, x5, x4, x25, I_jalr_cg_cp_rs1_nx0_b14, I_jalr_cg_cp_rs1_nx0_b14_str)
     6f8:	00092203          	lw	x4,0(x18)
     6fc:	01920863          	beq	x4,x25,70c <I_jalr_cg_cp_rs1_nx0_b14+0x20>
     700:	51c032ef          	jal	x5,3c1c <failedtest_x5_x4>
     704:	000006ec          	.word	0x000006ec
     708:	0000857e          	.word	0x0000857e
     70c:	00490913          	addi	x18,x18,4
  auipc x25, 0 # get current PC
     710:	00000c97          	auipc	x25,0x0
  sub x27, x27, x25 # subtract current PC to make position-independent
     714:	419d8db3          	sub	x27,x27,x25
  # Check if x27 contains the expected result. x18 is the signature ptr, x5 is the link ptr, x4 is a temp reg.
  RVTEST_SIGUPD(x18, x5, x4, x27, I_jalr_cg_cp_rs1_nx0_b14, I_jalr_cg_cp_rs1_nx0_b14_str)
     718:	00092203          	lw	x4,0(x18)
     71c:	01b20863          	beq	x4,x27,72c <I_jalr_cg_cp_rs1_nx0_b14+0x40>
     720:	4fc032ef          	jal	x5,3c1c <failedtest_x5_x4>
     724:	000006ec          	.word	0x000006ec
     728:	0000857e          	.word	0x0000857e
     72c:	00490913          	addi	x18,x18,4
     730:	00000013          	addi	x0,x0,0
     734:	00000013          	addi	x0,x0,0
     738:	00000013          	addi	x0,x0,0
     73c:	00000013          	addi	x0,x0,0

# Testcase cp_rs1_nx0 (Test source rs1 = x15)
  LA(x15, 1f) # load jump target address
     740:	00000797          	auipc	x15,0x0
     744:	03478793          	addi	x15,x15,52 # 774 <I_jalr_cg_cp_rs1_nx0_b15+0x8>
     748:	00000013          	addi	x0,x0,0
     74c:	00000013          	addi	x0,x0,0
     750:	00000013          	addi	x0,x0,0
     754:	00000013          	addi	x0,x0,0
     758:	00000013          	addi	x0,x0,0
     75c:	00000013          	addi	x0,x0,0
  RVTEST_TESTDATA_LOAD_INT(x24, x19) # load jump check value: x19 = 0xd441979e
     760:	000c2983          	lw	x19,0(x24)
     764:	004c0c13          	addi	x24,x24,4
  addi x15, x15, -331 # adjust base address for offset
     768:	eb578793          	addi	x15,x15,-331

0000076c <I_jalr_cg_cp_rs1_nx0_b15>:
I_jalr_cg_cp_rs1_nx0_b15:
  jalr x7, x15, 331 # perform jump with offset
     76c:	14b783e7          	jalr	x7,331(x15)
  addi x19, x19, -4 # should not execute
     770:	ffc98993          	addi	x19,x19,-4 # 50c <I_jalr_cg_cp_rs1_nx0_b10+0x20>
1:
  addi x19, x19, 2 # should execute
     774:	00298993          	addi	x19,x19,2
  # Check if x19 contains the expected result. x18 is the signature ptr, x5 is the link ptr, x4 is a temp reg.
  RVTEST_SIGUPD(x18, x5, x4, x19, I_jalr_cg_cp_rs1_nx0_b15, I_jalr_cg_cp_rs1_nx0_b15_str)
     778:	00092203          	lw	x4,0(x18)
     77c:	01320863          	beq	x4,x19,78c <I_jalr_cg_cp_rs1_nx0_b15+0x20>
     780:	49c032ef          	jal	x5,3c1c <failedtest_x5_x4>
     784:	0000076c          	.word	0x0000076c
     788:	000085b2          	.word	0x000085b2
     78c:	00490913          	addi	x18,x18,4
  auipc x19, 0 # get current PC
     790:	00000997          	auipc	x19,0x0
  sub x7, x7, x19 # subtract current PC to make position-independent
     794:	413383b3          	sub	x7,x7,x19
  # Check if x7 contains the expected result. x18 is the signature ptr, x5 is the link ptr, x4 is a temp reg.
  RVTEST_SIGUPD(x18, x5, x4, x7, I_jalr_cg_cp_rs1_nx0_b15, I_jalr_cg_cp_rs1_nx0_b15_str)
     798:	00092203          	lw	x4,0(x18)
     79c:	00720863          	beq	x4,x7,7ac <I_jalr_cg_cp_rs1_nx0_b15+0x40>
     7a0:	47c032ef          	jal	x5,3c1c <failedtest_x5_x4>
     7a4:	0000076c          	.word	0x0000076c
     7a8:	000085b2          	.word	0x000085b2
     7ac:	00490913          	addi	x18,x18,4
     7b0:	00000013          	addi	x0,x0,0
     7b4:	00000013          	addi	x0,x0,0
     7b8:	00000013          	addi	x0,x0,0
     7bc:	00000013          	addi	x0,x0,0

# Testcase cp_rs1_nx0 (Test source rs1 = x16)
  LA(x16, 1f) # load jump target address
     7c0:	00000817          	auipc	x16,0x0
     7c4:	03480813          	addi	x16,x16,52 # 7f4 <I_jalr_cg_cp_rs1_nx0_b16+0x8>
     7c8:	00000013          	addi	x0,x0,0
     7cc:	00000013          	addi	x0,x0,0
     7d0:	00000013          	addi	x0,x0,0
     7d4:	00000013          	addi	x0,x0,0
     7d8:	00000013          	addi	x0,x0,0
     7dc:	00000013          	addi	x0,x0,0
  RVTEST_TESTDATA_LOAD_INT(x24, x21) # load jump check value: x21 = 0xda888ac6
     7e0:	000c2a83          	lw	x21,0(x24)
     7e4:	004c0c13          	addi	x24,x24,4
  addi x16, x16, 682 # adjust base address for offset
     7e8:	2aa80813          	addi	x16,x16,682

000007ec <I_jalr_cg_cp_rs1_nx0_b16>:
I_jalr_cg_cp_rs1_nx0_b16:
  jalr x10, x16, -682 # perform jump with offset
     7ec:	d5680567          	jalr	x10,-682(x16)
  addi x21, x21, -4 # should not execute
     7f0:	ffca8a93          	addi	x21,x21,-4 # 18c <I_jalr_cg_cp_rs1_nx0_b3+0x20>
1:
  addi x21, x21, 2 # should execute
     7f4:	002a8a93          	addi	x21,x21,2
  # Check if x21 contains the expected result. x18 is the signature ptr, x5 is the link ptr, x4 is a temp reg.
  RVTEST_SIGUPD(x18, x5, x4, x21, I_jalr_cg_cp_rs1_nx0_b16, I_jalr_cg_cp_rs1_nx0_b16_str)
     7f8:	00092203          	lw	x4,0(x18)
     7fc:	01520863          	beq	x4,x21,80c <I_jalr_cg_cp_rs1_nx0_b16+0x20>
     800:	41c032ef          	jal	x5,3c1c <failedtest_x5_x4>
     804:	000007ec          	.word	0x000007ec
     808:	000085e6          	.word	0x000085e6
     80c:	00490913          	addi	x18,x18,4
  auipc x21, 0 # get current PC
     810:	00000a97          	auipc	x21,0x0
  sub x10, x10, x21 # subtract current PC to make position-independent
     814:	41550533          	sub	x10,x10,x21
  # Check if x10 contains the expected result. x18 is the signature ptr, x5 is the link ptr, x4 is a temp reg.
  RVTEST_SIGUPD(x18, x5, x4, x10, I_jalr_cg_cp_rs1_nx0_b16, I_jalr_cg_cp_rs1_nx0_b16_str)
     818:	00092203          	lw	x4,0(x18)
     81c:	00a20863          	beq	x4,x10,82c <I_jalr_cg_cp_rs1_nx0_b16+0x40>
     820:	3fc032ef          	jal	x5,3c1c <failedtest_x5_x4>
     824:	000007ec          	.word	0x000007ec
     828:	000085e6          	.word	0x000085e6
     82c:	00490913          	addi	x18,x18,4
     830:	00000013          	addi	x0,x0,0
     834:	00000013          	addi	x0,x0,0
     838:	00000013          	addi	x0,x0,0
     83c:	00000013          	addi	x0,x0,0

# Testcase cp_rs1_nx0 (Test source rs1 = x17)
  LA(x17, 1f) # load jump target address
     840:	00000897          	auipc	x17,0x0
     844:	03488893          	addi	x17,x17,52 # 874 <I_jalr_cg_cp_rs1_nx0_b17+0x8>
     848:	00000013          	addi	x0,x0,0
     84c:	00000013          	addi	x0,x0,0
     850:	00000013          	addi	x0,x0,0
     854:	00000013          	addi	x0,x0,0
     858:	00000013          	addi	x0,x0,0
     85c:	00000013          	addi	x0,x0,0
  RVTEST_TESTDATA_LOAD_INT(x24, x9) # load jump check value: x9 = 0xfb2207af
     860:	000c2483          	lw	x9,0(x24)
     864:	004c0c13          	addi	x24,x24,4
  addi x17, x17, 1425 # adjust base address for offset
     868:	59188893          	addi	x17,x17,1425

0000086c <I_jalr_cg_cp_rs1_nx0_b17>:
I_jalr_cg_cp_rs1_nx0_b17:
  jalr x10, x17, -1425 # perform jump with offset
     86c:	a6f88567          	jalr	x10,-1425(x17)
  addi x9, x9, -4 # should not execute
     870:	ffc48493          	addi	x9,x9,-4
1:
  addi x9, x9, 2 # should execute
     874:	00248493          	addi	x9,x9,2
  # Check if x9 contains the expected result. x18 is the signature ptr, x5 is the link ptr, x4 is a temp reg.
  RVTEST_SIGUPD(x18, x5, x4, x9, I_jalr_cg_cp_rs1_nx0_b17, I_jalr_cg_cp_rs1_nx0_b17_str)
     878:	00092203          	lw	x4,0(x18)
     87c:	00920863          	beq	x4,x9,88c <I_jalr_cg_cp_rs1_nx0_b17+0x20>
     880:	39c032ef          	jal	x5,3c1c <failedtest_x5_x4>
     884:	0000086c          	.word	0x0000086c
     888:	0000861a          	.word	0x0000861a
     88c:	00490913          	addi	x18,x18,4
  auipc x9, 0 # get current PC
     890:	00000497          	auipc	x9,0x0
  sub x10, x10, x9 # subtract current PC to make position-independent
     894:	40950533          	sub	x10,x10,x9
  # Check if x10 contains the expected result. x18 is the signature ptr, x5 is the link ptr, x4 is a temp reg.
  RVTEST_SIGUPD(x18, x5, x4, x10, I_jalr_cg_cp_rs1_nx0_b17, I_jalr_cg_cp_rs1_nx0_b17_str)
     898:	00092203          	lw	x4,0(x18)
     89c:	00a20863          	beq	x4,x10,8ac <I_jalr_cg_cp_rs1_nx0_b17+0x40>
     8a0:	37c032ef          	jal	x5,3c1c <failedtest_x5_x4>
     8a4:	0000086c          	.word	0x0000086c
     8a8:	0000861a          	.word	0x0000861a
     8ac:	00490913          	addi	x18,x18,4

  mv x26, x18 # switch signature pointer register to avoid conflict with test
     8b0:	00090d13          	addi	x26,x18,0
     8b4:	00000013          	addi	x0,x0,0
     8b8:	00000013          	addi	x0,x0,0
     8bc:	00000013          	addi	x0,x0,0
# Testcase cp_rs1_nx0 (Test source rs1 = x18)
  LA(x18, 1f) # load jump target address
     8c0:	00000917          	auipc	x18,0x0
     8c4:	03490913          	addi	x18,x18,52 # 8f4 <I_jalr_cg_cp_rs1_nx0_b18+0x8>
     8c8:	00000013          	addi	x0,x0,0
     8cc:	00000013          	addi	x0,x0,0
     8d0:	00000013          	addi	x0,x0,0
     8d4:	00000013          	addi	x0,x0,0
     8d8:	00000013          	addi	x0,x0,0
     8dc:	00000013          	addi	x0,x0,0
  RVTEST_TESTDATA_LOAD_INT(x24, x19) # load jump check value: x19 = 0x556cbe17
     8e0:	000c2983          	lw	x19,0(x24)
     8e4:	004c0c13          	addi	x24,x24,4
  addi x18, x18, -279 # adjust base address for offset
     8e8:	ee990913          	addi	x18,x18,-279

000008ec <I_jalr_cg_cp_rs1_nx0_b18>:
I_jalr_cg_cp_rs1_nx0_b18:
  jalr x23, x18, 279 # perform jump with offset
     8ec:	11790be7          	jalr	x23,279(x18)
  addi x19, x19, -4 # should not execute
     8f0:	ffc98993          	addi	x19,x19,-4 # 78c <I_jalr_cg_cp_rs1_nx0_b15+0x20>
1:
  addi x19, x19, 2 # should execute
     8f4:	00298993          	addi	x19,x19,2
  # Check if x19 contains the expected result. x26 is the signature ptr, x5 is the link ptr, x4 is a temp reg.
  RVTEST_SIGUPD(x26, x5, x4, x19, I_jalr_cg_cp_rs1_nx0_b18, I_jalr_cg_cp_rs1_nx0_b18_str)
     8f8:	000d2203          	lw	x4,0(x26) # 410 <I_jalr_cg_cp_rs1_nx0_b8+0x24>
     8fc:	01320863          	beq	x4,x19,90c <I_jalr_cg_cp_rs1_nx0_b18+0x20>
     900:	31c032ef          	jal	x5,3c1c <failedtest_x5_x4>
     904:	000008ec          	.word	0x000008ec
     908:	0000864e          	.word	0x0000864e
     90c:	004d0d13          	addi	x26,x26,4
  auipc x19, 0 # get current PC
     910:	00000997          	auipc	x19,0x0
  sub x23, x23, x19 # subtract current PC to make position-independent
     914:	413b8bb3          	sub	x23,x23,x19
  # Check if x23 contains the expected result. x26 is the signature ptr, x5 is the link ptr, x4 is a temp reg.
  RVTEST_SIGUPD(x26, x5, x4, x23, I_jalr_cg_cp_rs1_nx0_b18, I_jalr_cg_cp_rs1_nx0_b18_str)
     918:	000d2203          	lw	x4,0(x26)
     91c:	01720863          	beq	x4,x23,92c <I_jalr_cg_cp_rs1_nx0_b18+0x40>
     920:	2fc032ef          	jal	x5,3c1c <failedtest_x5_x4>
     924:	000008ec          	.word	0x000008ec
     928:	0000864e          	.word	0x0000864e
     92c:	004d0d13          	addi	x26,x26,4
     930:	00000013          	addi	x0,x0,0
     934:	00000013          	addi	x0,x0,0
     938:	00000013          	addi	x0,x0,0
     93c:	00000013          	addi	x0,x0,0

# Testcase cp_rs1_nx0 (Test source rs1 = x19)
  LA(x19, 1f) # load jump target address
     940:	00000997          	auipc	x19,0x0
     944:	03498993          	addi	x19,x19,52 # 974 <I_jalr_cg_cp_rs1_nx0_b19+0x8>
     948:	00000013          	addi	x0,x0,0
     94c:	00000013          	addi	x0,x0,0
     950:	00000013          	addi	x0,x0,0
     954:	00000013          	addi	x0,x0,0
     958:	00000013          	addi	x0,x0,0
     95c:	00000013          	addi	x0,x0,0
  RVTEST_TESTDATA_LOAD_INT(x24, x21) # load jump check value: x21 = 0xf76c28bf
     960:	000c2a83          	lw	x21,0(x24)
     964:	004c0c13          	addi	x24,x24,4
  addi x19, x19, -1817 # adjust base address for offset
     968:	8e798993          	addi	x19,x19,-1817

0000096c <I_jalr_cg_cp_rs1_nx0_b19>:
I_jalr_cg_cp_rs1_nx0_b19:
  jalr x1, x19, 1817 # perform jump with offset
     96c:	719980e7          	jalr	x1,1817(x19)
  addi x21, x21, -4 # should not execute
     970:	ffca8a93          	addi	x21,x21,-4 # 80c <I_jalr_cg_cp_rs1_nx0_b16+0x20>
1:
  addi x21, x21, 2 # should execute
     974:	002a8a93          	addi	x21,x21,2
  # Check if x21 contains the expected result. x26 is the signature ptr, x5 is the link ptr, x4 is a temp reg.
  RVTEST_SIGUPD(x26, x5, x4, x21, I_jalr_cg_cp_rs1_nx0_b19, I_jalr_cg_cp_rs1_nx0_b19_str)
     978:	000d2203          	lw	x4,0(x26)
     97c:	01520863          	beq	x4,x21,98c <I_jalr_cg_cp_rs1_nx0_b19+0x20>
     980:	29c032ef          	jal	x5,3c1c <failedtest_x5_x4>
     984:	0000096c          	.word	0x0000096c
     988:	00008682          	.word	0x00008682
     98c:	004d0d13          	addi	x26,x26,4
  auipc x21, 0 # get current PC
     990:	00000a97          	auipc	x21,0x0
  sub x1, x1, x21 # subtract current PC to make position-independent
     994:	415080b3          	sub	x1,x1,x21
  # Check if x1 contains the expected result. x26 is the signature ptr, x5 is the link ptr, x4 is a temp reg.
  RVTEST_SIGUPD(x26, x5, x4, x1, I_jalr_cg_cp_rs1_nx0_b19, I_jalr_cg_cp_rs1_nx0_b19_str)
     998:	000d2203          	lw	x4,0(x26)
     99c:	00120863          	beq	x4,x1,9ac <I_jalr_cg_cp_rs1_nx0_b19+0x40>
     9a0:	27c032ef          	jal	x5,3c1c <failedtest_x5_x4>
     9a4:	0000096c          	.word	0x0000096c
     9a8:	00008682          	.word	0x00008682
     9ac:	004d0d13          	addi	x26,x26,4
     9b0:	00000013          	addi	x0,x0,0
     9b4:	00000013          	addi	x0,x0,0
     9b8:	00000013          	addi	x0,x0,0
     9bc:	00000013          	addi	x0,x0,0

# Testcase cp_rs1_nx0 (Test source rs1 = x20)
  LA(x20, 1f) # load jump target address
     9c0:	00000a17          	auipc	x20,0x0
     9c4:	034a0a13          	addi	x20,x20,52 # 9f4 <I_jalr_cg_cp_rs1_nx0_b20+0x8>
     9c8:	00000013          	addi	x0,x0,0
     9cc:	00000013          	addi	x0,x0,0
     9d0:	00000013          	addi	x0,x0,0
     9d4:	00000013          	addi	x0,x0,0
     9d8:	00000013          	addi	x0,x0,0
     9dc:	00000013          	addi	x0,x0,0
  RVTEST_TESTDATA_LOAD_INT(x24, x31) # load jump check value: x31 = 0xb762badd
     9e0:	000c2f83          	lw	x31,0(x24)
     9e4:	004c0c13          	addi	x24,x24,4
  addi x20, x20, -676 # adjust base address for offset
     9e8:	d5ca0a13          	addi	x20,x20,-676

000009ec <I_jalr_cg_cp_rs1_nx0_b20>:
I_jalr_cg_cp_rs1_nx0_b20:
  jalr x18, x20, 676 # perform jump with offset
     9ec:	2a4a0967          	jalr	x18,676(x20)
  addi x31, x31, -4 # should not execute
     9f0:	ffcf8f93          	addi	x31,x31,-4
1:
  addi x31, x31, 2 # should execute
     9f4:	002f8f93          	addi	x31,x31,2
  # Check if x31 contains the expected result. x26 is the signature ptr, x5 is the link ptr, x4 is a temp reg.
  RVTEST_SIGUPD(x26, x5, x4, x31, I_jalr_cg_cp_rs1_nx0_b20, I_jalr_cg_cp_rs1_nx0_b20_str)
     9f8:	000d2203          	lw	x4,0(x26)
     9fc:	01f20863          	beq	x4,x31,a0c <I_jalr_cg_cp_rs1_nx0_b20+0x20>
     a00:	21c032ef          	jal	x5,3c1c <failedtest_x5_x4>
     a04:	000009ec          	.word	0x000009ec
     a08:	000086b6          	.word	0x000086b6
     a0c:	004d0d13          	addi	x26,x26,4
  auipc x31, 0 # get current PC
     a10:	00000f97          	auipc	x31,0x0
  sub x18, x18, x31 # subtract current PC to make position-independent
     a14:	41f90933          	sub	x18,x18,x31
  # Check if x18 contains the expected result. x26 is the signature ptr, x5 is the link ptr, x4 is a temp reg.
  RVTEST_SIGUPD(x26, x5, x4, x18, I_jalr_cg_cp_rs1_nx0_b20, I_jalr_cg_cp_rs1_nx0_b20_str)
     a18:	000d2203          	lw	x4,0(x26)
     a1c:	01220863          	beq	x4,x18,a2c <I_jalr_cg_cp_rs1_nx0_b20+0x40>
     a20:	1fc032ef          	jal	x5,3c1c <failedtest_x5_x4>
     a24:	000009ec          	.word	0x000009ec
     a28:	000086b6          	.word	0x000086b6
     a2c:	004d0d13          	addi	x26,x26,4
     a30:	00000013          	addi	x0,x0,0
     a34:	00000013          	addi	x0,x0,0
     a38:	00000013          	addi	x0,x0,0
     a3c:	00000013          	addi	x0,x0,0

# Testcase cp_rs1_nx0 (Test source rs1 = x21)
  LA(x21, 1f) # load jump target address
     a40:	00000a97          	auipc	x21,0x0
     a44:	034a8a93          	addi	x21,x21,52 # a74 <I_jalr_cg_cp_rs1_nx0_b21+0x8>
     a48:	00000013          	addi	x0,x0,0
     a4c:	00000013          	addi	x0,x0,0
     a50:	00000013          	addi	x0,x0,0
     a54:	00000013          	addi	x0,x0,0
     a58:	00000013          	addi	x0,x0,0
     a5c:	00000013          	addi	x0,x0,0
  RVTEST_TESTDATA_LOAD_INT(x24, x28) # load jump check value: x28 = 0xbe4eefa5
     a60:	000c2e03          	lw	x28,0(x24)
     a64:	004c0c13          	addi	x24,x24,4
  addi x21, x21, 437 # adjust base address for offset
     a68:	1b5a8a93          	addi	x21,x21,437

00000a6c <I_jalr_cg_cp_rs1_nx0_b21>:
I_jalr_cg_cp_rs1_nx0_b21:
  jalr x30, x21, -437 # perform jump with offset
     a6c:	e4ba8f67          	jalr	x30,-437(x21)
  addi x28, x28, -4 # should not execute
     a70:	ffce0e13          	addi	x28,x28,-4
1:
  addi x28, x28, 2 # should execute
     a74:	002e0e13          	addi	x28,x28,2
  # Check if x28 contains the expected result. x26 is the signature ptr, x5 is the link ptr, x4 is a temp reg.
  RVTEST_SIGUPD(x26, x5, x4, x28, I_jalr_cg_cp_rs1_nx0_b21, I_jalr_cg_cp_rs1_nx0_b21_str)
     a78:	000d2203          	lw	x4,0(x26)
     a7c:	01c20863          	beq	x4,x28,a8c <I_jalr_cg_cp_rs1_nx0_b21+0x20>
     a80:	19c032ef          	jal	x5,3c1c <failedtest_x5_x4>
     a84:	00000a6c          	.word	0x00000a6c
     a88:	000086ea          	.word	0x000086ea
     a8c:	004d0d13          	addi	x26,x26,4
  auipc x28, 0 # get current PC
     a90:	00000e17          	auipc	x28,0x0
  sub x30, x30, x28 # subtract current PC to make position-independent
     a94:	41cf0f33          	sub	x30,x30,x28
  # Check if x30 contains the expected result. x26 is the signature ptr, x5 is the link ptr, x4 is a temp reg.
  RVTEST_SIGUPD(x26, x5, x4, x30, I_jalr_cg_cp_rs1_nx0_b21, I_jalr_cg_cp_rs1_nx0_b21_str)
     a98:	000d2203          	lw	x4,0(x26)
     a9c:	01e20863          	beq	x4,x30,aac <I_jalr_cg_cp_rs1_nx0_b21+0x40>
     aa0:	17c032ef          	jal	x5,3c1c <failedtest_x5_x4>
     aa4:	00000a6c          	.word	0x00000a6c
     aa8:	000086ea          	.word	0x000086ea
     aac:	004d0d13          	addi	x26,x26,4
     ab0:	00000013          	addi	x0,x0,0
     ab4:	00000013          	addi	x0,x0,0
     ab8:	00000013          	addi	x0,x0,0
     abc:	00000013          	addi	x0,x0,0

# Testcase cp_rs1_nx0 (Test source rs1 = x22)
  LA(x22, 1f) # load jump target address
     ac0:	00000b17          	auipc	x22,0x0
     ac4:	034b0b13          	addi	x22,x22,52 # af4 <I_jalr_cg_cp_rs1_nx0_b22+0x8>
     ac8:	00000013          	addi	x0,x0,0
     acc:	00000013          	addi	x0,x0,0
     ad0:	00000013          	addi	x0,x0,0
     ad4:	00000013          	addi	x0,x0,0
     ad8:	00000013          	addi	x0,x0,0
     adc:	00000013          	addi	x0,x0,0
  RVTEST_TESTDATA_LOAD_INT(x24, x31) # load jump check value: x31 = 0xa538e6f6
     ae0:	000c2f83          	lw	x31,0(x24)
     ae4:	004c0c13          	addi	x24,x24,4
  addi x22, x22, -78 # adjust base address for offset
     ae8:	fb2b0b13          	addi	x22,x22,-78

00000aec <I_jalr_cg_cp_rs1_nx0_b22>:
I_jalr_cg_cp_rs1_nx0_b22:
  jalr x19, x22, 78 # perform jump with offset
     aec:	04eb09e7          	jalr	x19,78(x22)
  addi x31, x31, -4 # should not execute
     af0:	ffcf8f93          	addi	x31,x31,-4 # a0c <I_jalr_cg_cp_rs1_nx0_b20+0x20>
1:
  addi x31, x31, 2 # should execute
     af4:	002f8f93          	addi	x31,x31,2
  # Check if x31 contains the expected result. x26 is the signature ptr, x5 is the link ptr, x4 is a temp reg.
  RVTEST_SIGUPD(x26, x5, x4, x31, I_jalr_cg_cp_rs1_nx0_b22, I_jalr_cg_cp_rs1_nx0_b22_str)
     af8:	000d2203          	lw	x4,0(x26)
     afc:	01f20863          	beq	x4,x31,b0c <I_jalr_cg_cp_rs1_nx0_b22+0x20>
     b00:	11c032ef          	jal	x5,3c1c <failedtest_x5_x4>
     b04:	00000aec          	.word	0x00000aec
     b08:	0000871e          	.word	0x0000871e
     b0c:	004d0d13          	addi	x26,x26,4
  auipc x31, 0 # get current PC
     b10:	00000f97          	auipc	x31,0x0
  sub x19, x19, x31 # subtract current PC to make position-independent
     b14:	41f989b3          	sub	x19,x19,x31
  # Check if x19 contains the expected result. x26 is the signature ptr, x5 is the link ptr, x4 is a temp reg.
  RVTEST_SIGUPD(x26, x5, x4, x19, I_jalr_cg_cp_rs1_nx0_b22, I_jalr_cg_cp_rs1_nx0_b22_str)
     b18:	000d2203          	lw	x4,0(x26)
     b1c:	01320863          	beq	x4,x19,b2c <I_jalr_cg_cp_rs1_nx0_b22+0x40>
     b20:	0fc032ef          	jal	x5,3c1c <failedtest_x5_x4>
     b24:	00000aec          	.word	0x00000aec
     b28:	0000871e          	.word	0x0000871e
     b2c:	004d0d13          	addi	x26,x26,4
     b30:	00000013          	addi	x0,x0,0
     b34:	00000013          	addi	x0,x0,0
     b38:	00000013          	addi	x0,x0,0
     b3c:	00000013          	addi	x0,x0,0

# Testcase cp_rs1_nx0 (Test source rs1 = x23)
  LA(x23, 1f) # load jump target address
     b40:	00000b97          	auipc	x23,0x0
     b44:	034b8b93          	addi	x23,x23,52 # b74 <I_jalr_cg_cp_rs1_nx0_b23+0x8>
     b48:	00000013          	addi	x0,x0,0
     b4c:	00000013          	addi	x0,x0,0
     b50:	00000013          	addi	x0,x0,0
     b54:	00000013          	addi	x0,x0,0
     b58:	00000013          	addi	x0,x0,0
     b5c:	00000013          	addi	x0,x0,0
  RVTEST_TESTDATA_LOAD_INT(x24, x10) # load jump check value: x10 = 0x222c35a0
     b60:	000c2503          	lw	x10,0(x24)
     b64:	004c0c13          	addi	x24,x24,4
  addi x23, x23, 560 # adjust base address for offset
     b68:	230b8b93          	addi	x23,x23,560

00000b6c <I_jalr_cg_cp_rs1_nx0_b23>:
I_jalr_cg_cp_rs1_nx0_b23:
  jalr x21, x23, -560 # perform jump with offset
     b6c:	dd0b8ae7          	jalr	x21,-560(x23)
  addi x10, x10, -4 # should not execute
     b70:	ffc50513          	addi	x10,x10,-4
1:
  addi x10, x10, 2 # should execute
     b74:	00250513          	addi	x10,x10,2
  # Check if x10 contains the expected result. x26 is the signature ptr, x5 is the link ptr, x4 is a temp reg.
  RVTEST_SIGUPD(x26, x5, x4, x10, I_jalr_cg_cp_rs1_nx0_b23, I_jalr_cg_cp_rs1_nx0_b23_str)
     b78:	000d2203          	lw	x4,0(x26)
     b7c:	00a20863          	beq	x4,x10,b8c <I_jalr_cg_cp_rs1_nx0_b23+0x20>
     b80:	09c032ef          	jal	x5,3c1c <failedtest_x5_x4>
     b84:	00000b6c          	.word	0x00000b6c
     b88:	00008752          	.word	0x00008752
     b8c:	004d0d13          	addi	x26,x26,4
  auipc x10, 0 # get current PC
     b90:	00000517          	auipc	x10,0x0
  sub x21, x21, x10 # subtract current PC to make position-independent
     b94:	40aa8ab3          	sub	x21,x21,x10
  # Check if x21 contains the expected result. x26 is the signature ptr, x5 is the link ptr, x4 is a temp reg.
  RVTEST_SIGUPD(x26, x5, x4, x21, I_jalr_cg_cp_rs1_nx0_b23, I_jalr_cg_cp_rs1_nx0_b23_str)
     b98:	000d2203          	lw	x4,0(x26)
     b9c:	01520863          	beq	x4,x21,bac <I_jalr_cg_cp_rs1_nx0_b23+0x40>
     ba0:	07c032ef          	jal	x5,3c1c <failedtest_x5_x4>
     ba4:	00000b6c          	.word	0x00000b6c
     ba8:	00008752          	.word	0x00008752
     bac:	004d0d13          	addi	x26,x26,4

  mv x11, x24 # switch data pointer register to avoid conflict with test
     bb0:	000c0593          	addi	x11,x24,0
     bb4:	00000013          	addi	x0,x0,0
     bb8:	00000013          	addi	x0,x0,0
     bbc:	00000013          	addi	x0,x0,0
# Testcase cp_rs1_nx0 (Test source rs1 = x24)
  LA(x24, 1f) # load jump target address
     bc0:	00000c17          	auipc	x24,0x0
     bc4:	034c0c13          	addi	x24,x24,52 # bf4 <I_jalr_cg_cp_rs1_nx0_b24+0x8>
     bc8:	00000013          	addi	x0,x0,0
     bcc:	00000013          	addi	x0,x0,0
     bd0:	00000013          	addi	x0,x0,0
     bd4:	00000013          	addi	x0,x0,0
     bd8:	00000013          	addi	x0,x0,0
     bdc:	00000013          	addi	x0,x0,0
  RVTEST_TESTDATA_LOAD_INT(x11, x6) # load jump check value: x6 = 0x87579044
     be0:	0005a303          	lw	x6,0(x11)
     be4:	00458593          	addi	x11,x11,4
  addi x24, x24, -1367 # adjust base address for offset
     be8:	aa9c0c13          	addi	x24,x24,-1367

00000bec <I_jalr_cg_cp_rs1_nx0_b24>:
I_jalr_cg_cp_rs1_nx0_b24:
  jalr x15, x24, 1367 # perform jump with offset
     bec:	557c07e7          	jalr	x15,1367(x24)
  addi x6, x6, -4 # should not execute
     bf0:	ffc30313          	addi	x6,x6,-4 # 68c <I_jalr_cg_cp_rs1_nx0_b13+0x20>
1:
  addi x6, x6, 2 # should execute
     bf4:	00230313          	addi	x6,x6,2
  # Check if x6 contains the expected result. x26 is the signature ptr, x5 is the link ptr, x4 is a temp reg.
  RVTEST_SIGUPD(x26, x5, x4, x6, I_jalr_cg_cp_rs1_nx0_b24, I_jalr_cg_cp_rs1_nx0_b24_str)
     bf8:	000d2203          	lw	x4,0(x26)
     bfc:	00620863          	beq	x4,x6,c0c <I_jalr_cg_cp_rs1_nx0_b24+0x20>
     c00:	01c032ef          	jal	x5,3c1c <failedtest_x5_x4>
     c04:	00000bec          	.word	0x00000bec
     c08:	00008786          	.word	0x00008786
     c0c:	004d0d13          	addi	x26,x26,4
  auipc x6, 0 # get current PC
     c10:	00000317          	auipc	x6,0x0
  sub x15, x15, x6 # subtract current PC to make position-independent
     c14:	406787b3          	sub	x15,x15,x6
  # Check if x15 contains the expected result. x26 is the signature ptr, x5 is the link ptr, x4 is a temp reg.
  RVTEST_SIGUPD(x26, x5, x4, x15, I_jalr_cg_cp_rs1_nx0_b24, I_jalr_cg_cp_rs1_nx0_b24_str)
     c18:	000d2203          	lw	x4,0(x26)
     c1c:	00f20863          	beq	x4,x15,c2c <I_jalr_cg_cp_rs1_nx0_b24+0x40>
     c20:	7fd022ef          	jal	x5,3c1c <failedtest_x5_x4>
     c24:	00000bec          	.word	0x00000bec
     c28:	00008786          	.word	0x00008786
     c2c:	004d0d13          	addi	x26,x26,4
     c30:	00000013          	addi	x0,x0,0
     c34:	00000013          	addi	x0,x0,0
     c38:	00000013          	addi	x0,x0,0
     c3c:	00000013          	addi	x0,x0,0

# Testcase cp_rs1_nx0 (Test source rs1 = x25)
  LA(x25, 1f) # load jump target address
     c40:	00000c97          	auipc	x25,0x0
     c44:	034c8c93          	addi	x25,x25,52 # c74 <I_jalr_cg_cp_rs1_nx0_b25+0x8>
     c48:	00000013          	addi	x0,x0,0
     c4c:	00000013          	addi	x0,x0,0
     c50:	00000013          	addi	x0,x0,0
     c54:	00000013          	addi	x0,x0,0
     c58:	00000013          	addi	x0,x0,0
     c5c:	00000013          	addi	x0,x0,0
  RVTEST_TESTDATA_LOAD_INT(x11, x29) # load jump check value: x29 = 0x49d00958
     c60:	0005ae83          	lw	x29,0(x11)
     c64:	00458593          	addi	x11,x11,4
  addi x25, x25, 624 # adjust base address for offset
     c68:	270c8c93          	addi	x25,x25,624

00000c6c <I_jalr_cg_cp_rs1_nx0_b25>:
I_jalr_cg_cp_rs1_nx0_b25:
  jalr x28, x25, -624 # perform jump with offset
     c6c:	d90c8e67          	jalr	x28,-624(x25)
  addi x29, x29, -4 # should not execute
     c70:	ffce8e93          	addi	x29,x29,-4
1:
  addi x29, x29, 2 # should execute
     c74:	002e8e93          	addi	x29,x29,2
  # Check if x29 contains the expected result. x26 is the signature ptr, x5 is the link ptr, x4 is a temp reg.
  RVTEST_SIGUPD(x26, x5, x4, x29, I_jalr_cg_cp_rs1_nx0_b25, I_jalr_cg_cp_rs1_nx0_b25_str)
     c78:	000d2203          	lw	x4,0(x26)
     c7c:	01d20863          	beq	x4,x29,c8c <I_jalr_cg_cp_rs1_nx0_b25+0x20>
     c80:	79d022ef          	jal	x5,3c1c <failedtest_x5_x4>
     c84:	00000c6c          	.word	0x00000c6c
     c88:	000087ba          	.word	0x000087ba
     c8c:	004d0d13          	addi	x26,x26,4
  auipc x29, 0 # get current PC
     c90:	00000e97          	auipc	x29,0x0
  sub x28, x28, x29 # subtract current PC to make position-independent
     c94:	41de0e33          	sub	x28,x28,x29
  # Check if x28 contains the expected result. x26 is the signature ptr, x5 is the link ptr, x4 is a temp reg.
  RVTEST_SIGUPD(x26, x5, x4, x28, I_jalr_cg_cp_rs1_nx0_b25, I_jalr_cg_cp_rs1_nx0_b25_str)
     c98:	000d2203          	lw	x4,0(x26)
     c9c:	01c20863          	beq	x4,x28,cac <I_jalr_cg_cp_rs1_nx0_b25+0x40>
     ca0:	77d022ef          	jal	x5,3c1c <failedtest_x5_x4>
     ca4:	00000c6c          	.word	0x00000c6c
     ca8:	000087ba          	.word	0x000087ba
     cac:	004d0d13          	addi	x26,x26,4

  mv x21, x26 # switch signature pointer register to avoid conflict with test
     cb0:	000d0a93          	addi	x21,x26,0
     cb4:	00000013          	addi	x0,x0,0
     cb8:	00000013          	addi	x0,x0,0
     cbc:	00000013          	addi	x0,x0,0
# Testcase cp_rs1_nx0 (Test source rs1 = x26)
  LA(x26, 1f) # load jump target address
     cc0:	00000d17          	auipc	x26,0x0
     cc4:	034d0d13          	addi	x26,x26,52 # cf4 <I_jalr_cg_cp_rs1_nx0_b26+0x8>
     cc8:	00000013          	addi	x0,x0,0
     ccc:	00000013          	addi	x0,x0,0
     cd0:	00000013          	addi	x0,x0,0
     cd4:	00000013          	addi	x0,x0,0
     cd8:	00000013          	addi	x0,x0,0
     cdc:	00000013          	addi	x0,x0,0
  RVTEST_TESTDATA_LOAD_INT(x11, x3) # load jump check value: x3 = 0xbf4a7b64
     ce0:	0005a183          	lw	x3,0(x11)
     ce4:	00458593          	addi	x11,x11,4
  addi x26, x26, -737 # adjust base address for offset
     ce8:	d1fd0d13          	addi	x26,x26,-737

00000cec <I_jalr_cg_cp_rs1_nx0_b26>:
I_jalr_cg_cp_rs1_nx0_b26:
  jalr x10, x26, 737 # perform jump with offset
     cec:	2e1d0567          	jalr	x10,737(x26)
  addi x3, x3, -4 # should not execute
     cf0:	ffc18193          	addi	x3,x3,-4 # 28c <I_jalr_cg_cp_rs1_nx0_b5+0x20>
1:
  addi x3, x3, 2 # should execute
     cf4:	00218193          	addi	x3,x3,2
  # Check if x3 contains the expected result. x21 is the signature ptr, x5 is the link ptr, x4 is a temp reg.
  RVTEST_SIGUPD(x21, x5, x4, x3, I_jalr_cg_cp_rs1_nx0_b26, I_jalr_cg_cp_rs1_nx0_b26_str)
     cf8:	000aa203          	lw	x4,0(x21)
     cfc:	00320863          	beq	x4,x3,d0c <I_jalr_cg_cp_rs1_nx0_b26+0x20>
     d00:	71d022ef          	jal	x5,3c1c <failedtest_x5_x4>
     d04:	00000cec          	.word	0x00000cec
     d08:	000087ee          	.word	0x000087ee
     d0c:	004a8a93          	addi	x21,x21,4
  auipc x3, 0 # get current PC
     d10:	00000197          	auipc	x3,0x0
  sub x10, x10, x3 # subtract current PC to make position-independent
     d14:	40350533          	sub	x10,x10,x3
  # Check if x10 contains the expected result. x21 is the signature ptr, x5 is the link ptr, x4 is a temp reg.
  RVTEST_SIGUPD(x21, x5, x4, x10, I_jalr_cg_cp_rs1_nx0_b26, I_jalr_cg_cp_rs1_nx0_b26_str)
     d18:	000aa203          	lw	x4,0(x21)
     d1c:	00a20863          	beq	x4,x10,d2c <I_jalr_cg_cp_rs1_nx0_b26+0x40>
     d20:	6fd022ef          	jal	x5,3c1c <failedtest_x5_x4>
     d24:	00000cec          	.word	0x00000cec
     d28:	000087ee          	.word	0x000087ee
     d2c:	004a8a93          	addi	x21,x21,4
     d30:	00000013          	addi	x0,x0,0
     d34:	00000013          	addi	x0,x0,0
     d38:	00000013          	addi	x0,x0,0
     d3c:	00000013          	addi	x0,x0,0

# Testcase cp_rs1_nx0 (Test source rs1 = x27)
  LA(x27, 1f) # load jump target address
     d40:	00000d97          	auipc	x27,0x0
     d44:	034d8d93          	addi	x27,x27,52 # d74 <I_jalr_cg_cp_rs1_nx0_b27+0x8>
     d48:	00000013          	addi	x0,x0,0
     d4c:	00000013          	addi	x0,x0,0
     d50:	00000013          	addi	x0,x0,0
     d54:	00000013          	addi	x0,x0,0
     d58:	00000013          	addi	x0,x0,0
     d5c:	00000013          	addi	x0,x0,0
  RVTEST_TESTDATA_LOAD_INT(x11, x22) # load jump check value: x22 = 0xf9c89a0e
     d60:	0005ab03          	lw	x22,0(x11)
     d64:	00458593          	addi	x11,x11,4
  addi x27, x27, -628 # adjust base address for offset
     d68:	d8cd8d93          	addi	x27,x27,-628

00000d6c <I_jalr_cg_cp_rs1_nx0_b27>:
I_jalr_cg_cp_rs1_nx0_b27:
  jalr x15, x27, 628 # perform jump with offset
     d6c:	274d87e7          	jalr	x15,628(x27)
  addi x22, x22, -4 # should not execute
     d70:	ffcb0b13          	addi	x22,x22,-4
1:
  addi x22, x22, 2 # should execute
     d74:	002b0b13          	addi	x22,x22,2
  # Check if x22 contains the expected result. x21 is the signature ptr, x5 is the link ptr, x4 is a temp reg.
  RVTEST_SIGUPD(x21, x5, x4, x22, I_jalr_cg_cp_rs1_nx0_b27, I_jalr_cg_cp_rs1_nx0_b27_str)
     d78:	000aa203          	lw	x4,0(x21)
     d7c:	01620863          	beq	x4,x22,d8c <I_jalr_cg_cp_rs1_nx0_b27+0x20>
     d80:	69d022ef          	jal	x5,3c1c <failedtest_x5_x4>
     d84:	00000d6c          	.word	0x00000d6c
     d88:	00008822          	.word	0x00008822
     d8c:	004a8a93          	addi	x21,x21,4
  auipc x22, 0 # get current PC
     d90:	00000b17          	auipc	x22,0x0
  sub x15, x15, x22 # subtract current PC to make position-independent
     d94:	416787b3          	sub	x15,x15,x22
  # Check if x15 contains the expected result. x21 is the signature ptr, x5 is the link ptr, x4 is a temp reg.
  RVTEST_SIGUPD(x21, x5, x4, x15, I_jalr_cg_cp_rs1_nx0_b27, I_jalr_cg_cp_rs1_nx0_b27_str)
     d98:	000aa203          	lw	x4,0(x21)
     d9c:	00f20863          	beq	x4,x15,dac <I_jalr_cg_cp_rs1_nx0_b27+0x40>
     da0:	67d022ef          	jal	x5,3c1c <failedtest_x5_x4>
     da4:	00000d6c          	.word	0x00000d6c
     da8:	00008822          	.word	0x00008822
     dac:	004a8a93          	addi	x21,x21,4
     db0:	00000013          	addi	x0,x0,0
     db4:	00000013          	addi	x0,x0,0
     db8:	00000013          	addi	x0,x0,0
     dbc:	00000013          	addi	x0,x0,0

# Testcase cp_rs1_nx0 (Test source rs1 = x28)
  LA(x28, 1f) # load jump target address
     dc0:	00000e17          	auipc	x28,0x0
     dc4:	034e0e13          	addi	x28,x28,52 # df4 <I_jalr_cg_cp_rs1_nx0_b28+0x8>
     dc8:	00000013          	addi	x0,x0,0
     dcc:	00000013          	addi	x0,x0,0
     dd0:	00000013          	addi	x0,x0,0
     dd4:	00000013          	addi	x0,x0,0
     dd8:	00000013          	addi	x0,x0,0
     ddc:	00000013          	addi	x0,x0,0
  RVTEST_TESTDATA_LOAD_INT(x11, x9) # load jump check value: x9 = 0x406ac6fa
     de0:	0005a483          	lw	x9,0(x11)
     de4:	00458593          	addi	x11,x11,4
  addi x28, x28, 1865 # adjust base address for offset
     de8:	749e0e13          	addi	x28,x28,1865

00000dec <I_jalr_cg_cp_rs1_nx0_b28>:
I_jalr_cg_cp_rs1_nx0_b28:
  jalr x12, x28, -1865 # perform jump with offset
     dec:	8b7e0667          	jalr	x12,-1865(x28)
  addi x9, x9, -4 # should not execute
     df0:	ffc48493          	addi	x9,x9,-4 # 88c <I_jalr_cg_cp_rs1_nx0_b17+0x20>
1:
  addi x9, x9, 2 # should execute
     df4:	00248493          	addi	x9,x9,2
  # Check if x9 contains the expected result. x21 is the signature ptr, x5 is the link ptr, x4 is a temp reg.
  RVTEST_SIGUPD(x21, x5, x4, x9, I_jalr_cg_cp_rs1_nx0_b28, I_jalr_cg_cp_rs1_nx0_b28_str)
     df8:	000aa203          	lw	x4,0(x21)
     dfc:	00920863          	beq	x4,x9,e0c <I_jalr_cg_cp_rs1_nx0_b28+0x20>
     e00:	61d022ef          	jal	x5,3c1c <failedtest_x5_x4>
     e04:	00000dec          	.word	0x00000dec
     e08:	00008856          	.word	0x00008856
     e0c:	004a8a93          	addi	x21,x21,4
  auipc x9, 0 # get current PC
     e10:	00000497          	auipc	x9,0x0
  sub x12, x12, x9 # subtract current PC to make position-independent
     e14:	40960633          	sub	x12,x12,x9
  # Check if x12 contains the expected result. x21 is the signature ptr, x5 is the link ptr, x4 is a temp reg.
  RVTEST_SIGUPD(x21, x5, x4, x12, I_jalr_cg_cp_rs1_nx0_b28, I_jalr_cg_cp_rs1_nx0_b28_str)
     e18:	000aa203          	lw	x4,0(x21)
     e1c:	00c20863          	beq	x4,x12,e2c <I_jalr_cg_cp_rs1_nx0_b28+0x40>
     e20:	5fd022ef          	jal	x5,3c1c <failedtest_x5_x4>
     e24:	00000dec          	.word	0x00000dec
     e28:	00008856          	.word	0x00008856
     e2c:	004a8a93          	addi	x21,x21,4
     e30:	00000013          	addi	x0,x0,0
     e34:	00000013          	addi	x0,x0,0
     e38:	00000013          	addi	x0,x0,0
     e3c:	00000013          	addi	x0,x0,0

# Testcase cp_rs1_nx0 (Test source rs1 = x29)
  LA(x29, 1f) # load jump target address
     e40:	00000e97          	auipc	x29,0x0
     e44:	034e8e93          	addi	x29,x29,52 # e74 <I_jalr_cg_cp_rs1_nx0_b29+0x8>
     e48:	00000013          	addi	x0,x0,0
     e4c:	00000013          	addi	x0,x0,0
     e50:	00000013          	addi	x0,x0,0
     e54:	00000013          	addi	x0,x0,0
     e58:	00000013          	addi	x0,x0,0
     e5c:	00000013          	addi	x0,x0,0
  RVTEST_TESTDATA_LOAD_INT(x11, x14) # load jump check value: x14 = 0x70eec7c3
     e60:	0005a703          	lw	x14,0(x11)
     e64:	00458593          	addi	x11,x11,4
  addi x29, x29, -1046 # adjust base address for offset
     e68:	beae8e93          	addi	x29,x29,-1046

00000e6c <I_jalr_cg_cp_rs1_nx0_b29>:
I_jalr_cg_cp_rs1_nx0_b29:
  jalr x13, x29, 1046 # perform jump with offset
     e6c:	416e86e7          	jalr	x13,1046(x29)
  addi x14, x14, -4 # should not execute
     e70:	ffc70713          	addi	x14,x14,-4
1:
  addi x14, x14, 2 # should execute
     e74:	00270713          	addi	x14,x14,2
  # Check if x14 contains the expected result. x21 is the signature ptr, x5 is the link ptr, x4 is a temp reg.
  RVTEST_SIGUPD(x21, x5, x4, x14, I_jalr_cg_cp_rs1_nx0_b29, I_jalr_cg_cp_rs1_nx0_b29_str)
     e78:	000aa203          	lw	x4,0(x21)
     e7c:	00e20863          	beq	x4,x14,e8c <I_jalr_cg_cp_rs1_nx0_b29+0x20>
     e80:	59d022ef          	jal	x5,3c1c <failedtest_x5_x4>
     e84:	00000e6c          	.word	0x00000e6c
     e88:	0000888a          	.word	0x0000888a
     e8c:	004a8a93          	addi	x21,x21,4
  auipc x14, 0 # get current PC
     e90:	00000717          	auipc	x14,0x0
  sub x13, x13, x14 # subtract current PC to make position-independent
     e94:	40e686b3          	sub	x13,x13,x14
  # Check if x13 contains the expected result. x21 is the signature ptr, x5 is the link ptr, x4 is a temp reg.
  RVTEST_SIGUPD(x21, x5, x4, x13, I_jalr_cg_cp_rs1_nx0_b29, I_jalr_cg_cp_rs1_nx0_b29_str)
     e98:	000aa203          	lw	x4,0(x21)
     e9c:	00d20863          	beq	x4,x13,eac <I_jalr_cg_cp_rs1_nx0_b29+0x40>
     ea0:	57d022ef          	jal	x5,3c1c <failedtest_x5_x4>
     ea4:	00000e6c          	.word	0x00000e6c
     ea8:	0000888a          	.word	0x0000888a
     eac:	004a8a93          	addi	x21,x21,4
     eb0:	00000013          	addi	x0,x0,0
     eb4:	00000013          	addi	x0,x0,0
     eb8:	00000013          	addi	x0,x0,0
     ebc:	00000013          	addi	x0,x0,0

# Testcase cp_rs1_nx0 (Test source rs1 = x30)
  LA(x30, 1f) # load jump target address
     ec0:	00000f17          	auipc	x30,0x0
     ec4:	034f0f13          	addi	x30,x30,52 # ef4 <I_jalr_cg_cp_rs1_nx0_b30+0x8>
     ec8:	00000013          	addi	x0,x0,0
     ecc:	00000013          	addi	x0,x0,0
     ed0:	00000013          	addi	x0,x0,0
     ed4:	00000013          	addi	x0,x0,0
     ed8:	00000013          	addi	x0,x0,0
     edc:	00000013          	addi	x0,x0,0
  RVTEST_TESTDATA_LOAD_INT(x11, x6) # load jump check value: x6 = 0x59cdf3f1
     ee0:	0005a303          	lw	x6,0(x11)
     ee4:	00458593          	addi	x11,x11,4
  addi x30, x30, -1659 # adjust base address for offset
     ee8:	985f0f13          	addi	x30,x30,-1659

00000eec <I_jalr_cg_cp_rs1_nx0_b30>:
I_jalr_cg_cp_rs1_nx0_b30:
  jalr x18, x30, 1659 # perform jump with offset
     eec:	67bf0967          	jalr	x18,1659(x30)
  addi x6, x6, -4 # should not execute
     ef0:	ffc30313          	addi	x6,x6,-4 # c0c <I_jalr_cg_cp_rs1_nx0_b24+0x20>
1:
  addi x6, x6, 2 # should execute
     ef4:	00230313          	addi	x6,x6,2
  # Check if x6 contains the expected result. x21 is the signature ptr, x5 is the link ptr, x4 is a temp reg.
  RVTEST_SIGUPD(x21, x5, x4, x6, I_jalr_cg_cp_rs1_nx0_b30, I_jalr_cg_cp_rs1_nx0_b30_str)
     ef8:	000aa203          	lw	x4,0(x21)
     efc:	00620863          	beq	x4,x6,f0c <I_jalr_cg_cp_rs1_nx0_b30+0x20>
     f00:	51d022ef          	jal	x5,3c1c <failedtest_x5_x4>
     f04:	00000eec          	.word	0x00000eec
     f08:	000088be          	.word	0x000088be
     f0c:	004a8a93          	addi	x21,x21,4
  auipc x6, 0 # get current PC
     f10:	00000317          	auipc	x6,0x0
  sub x18, x18, x6 # subtract current PC to make position-independent
     f14:	40690933          	sub	x18,x18,x6
  # Check if x18 contains the expected result. x21 is the signature ptr, x5 is the link ptr, x4 is a temp reg.
  RVTEST_SIGUPD(x21, x5, x4, x18, I_jalr_cg_cp_rs1_nx0_b30, I_jalr_cg_cp_rs1_nx0_b30_str)
     f18:	000aa203          	lw	x4,0(x21)
     f1c:	01220863          	beq	x4,x18,f2c <I_jalr_cg_cp_rs1_nx0_b30+0x40>
     f20:	4fd022ef          	jal	x5,3c1c <failedtest_x5_x4>
     f24:	00000eec          	.word	0x00000eec
     f28:	000088be          	.word	0x000088be
     f2c:	004a8a93          	addi	x21,x21,4
     f30:	00000013          	addi	x0,x0,0
     f34:	00000013          	addi	x0,x0,0
     f38:	00000013          	addi	x0,x0,0
     f3c:	00000013          	addi	x0,x0,0

# Testcase cp_rs1_nx0 (Test source rs1 = x31)
  LA(x31, 1f) # load jump target address
     f40:	00000f97          	auipc	x31,0x0
     f44:	034f8f93          	addi	x31,x31,52 # f74 <I_jalr_cg_cp_rs1_nx0_b31+0x8>
     f48:	00000013          	addi	x0,x0,0
     f4c:	00000013          	addi	x0,x0,0
     f50:	00000013          	addi	x0,x0,0
     f54:	00000013          	addi	x0,x0,0
     f58:	00000013          	addi	x0,x0,0
     f5c:	00000013          	addi	x0,x0,0
  RVTEST_TESTDATA_LOAD_INT(x11, x15) # load jump check value: x15 = 0x694663dc
     f60:	0005a783          	lw	x15,0(x11)
     f64:	00458593          	addi	x11,x11,4
  addi x31, x31, 32 # adjust base address for offset
     f68:	020f8f93          	addi	x31,x31,32

00000f6c <I_jalr_cg_cp_rs1_nx0_b31>:
I_jalr_cg_cp_rs1_nx0_b31:
  jalr x7, x31, -32 # perform jump with offset
     f6c:	fe0f83e7          	jalr	x7,-32(x31)
  addi x15, x15, -4 # should not execute
     f70:	ffc78793          	addi	x15,x15,-4
1:
  addi x15, x15, 2 # should execute
     f74:	00278793          	addi	x15,x15,2
  # Check if x15 contains the expected result. x21 is the signature ptr, x5 is the link ptr, x4 is a temp reg.
  RVTEST_SIGUPD(x21, x5, x4, x15, I_jalr_cg_cp_rs1_nx0_b31, I_jalr_cg_cp_rs1_nx0_b31_str)
     f78:	000aa203          	lw	x4,0(x21)
     f7c:	00f20863          	beq	x4,x15,f8c <I_jalr_cg_cp_rs1_nx0_b31+0x20>
     f80:	49d022ef          	jal	x5,3c1c <failedtest_x5_x4>
     f84:	00000f6c          	.word	0x00000f6c
     f88:	000088f2          	.word	0x000088f2
     f8c:	004a8a93          	addi	x21,x21,4
  auipc x15, 0 # get current PC
     f90:	00000797          	auipc	x15,0x0
  sub x7, x7, x15 # subtract current PC to make position-independent
     f94:	40f383b3          	sub	x7,x7,x15
  # Check if x7 contains the expected result. x21 is the signature ptr, x5 is the link ptr, x4 is a temp reg.
  RVTEST_SIGUPD(x21, x5, x4, x7, I_jalr_cg_cp_rs1_nx0_b31, I_jalr_cg_cp_rs1_nx0_b31_str)
     f98:	000aa203          	lw	x4,0(x21)
     f9c:	00720863          	beq	x4,x7,fac <I_jalr_cg_cp_rs1_nx0_b31+0x40>
     fa0:	47d022ef          	jal	x5,3c1c <failedtest_x5_x4>
     fa4:	00000f6c          	.word	0x00000f6c
     fa8:	000088f2          	.word	0x000088f2
     fac:	004a8a93          	addi	x21,x21,4
     fb0:	00000013          	addi	x0,x0,0
     fb4:	00000013          	addi	x0,x0,0
     fb8:	00000013          	addi	x0,x0,0
     fbc:	00000013          	addi	x0,x0,0
/////////////////////////////////
// cp_rd
/////////////////////////////////

# Testcase cp_rd (Test destination rd = x0)
  LA(x1, 1f) # load jump target address
     fc0:	00000097          	auipc	x1,0x0
     fc4:	03408093          	addi	x1,x1,52 # ff4 <I_jalr_cg_cp_rd_b0+0x8>
     fc8:	00000013          	addi	x0,x0,0
     fcc:	00000013          	addi	x0,x0,0
     fd0:	00000013          	addi	x0,x0,0
     fd4:	00000013          	addi	x0,x0,0
     fd8:	00000013          	addi	x0,x0,0
     fdc:	00000013          	addi	x0,x0,0
  RVTEST_TESTDATA_LOAD_INT(x11, x25) # load jump check value: x25 = 0x3959b26f
     fe0:	0005ac83          	lw	x25,0(x11)
     fe4:	00458593          	addi	x11,x11,4
  addi x1, x1, 392 # adjust base address for offset
     fe8:	18808093          	addi	x1,x1,392

00000fec <I_jalr_cg_cp_rd_b0>:
I_jalr_cg_cp_rd_b0:
  jalr x0, x1, -392 # perform jump with offset
     fec:	e7808067          	jalr	x0,-392(x1)
  addi x25, x25, -4 # should not execute
     ff0:	ffcc8c93          	addi	x25,x25,-4
1:
  addi x25, x25, 2 # should execute
     ff4:	002c8c93          	addi	x25,x25,2
  # Check if x25 contains the expected result. x21 is the signature ptr, x5 is the link ptr, x4 is a temp reg.
  RVTEST_SIGUPD(x21, x5, x4, x25, I_jalr_cg_cp_rd_b0, I_jalr_cg_cp_rd_b0_str)
     ff8:	000aa203          	lw	x4,0(x21)
     ffc:	01920863          	beq	x4,x25,100c <I_jalr_cg_cp_rd_b0+0x20>
    1000:	41d022ef          	jal	x5,3c1c <failedtest_x5_x4>
    1004:	00000fec          	.word	0x00000fec
    1008:	00008926          	.word	0x00008926
    100c:	004a8a93          	addi	x21,x21,4
  auipc x25, 0 # get current PC
    1010:	00000c97          	auipc	x25,0x0
  sub x0, x0, x25 # subtract current PC to make position-independent
    1014:	41900033          	sub	x0,x0,x25
  # Check if x0 contains the expected result. x21 is the signature ptr, x5 is the link ptr, x4 is a temp reg.
  RVTEST_SIGUPD(x21, x5, x4, x0, I_jalr_cg_cp_rd_b0, I_jalr_cg_cp_rd_b0_str)
    1018:	000aa203          	lw	x4,0(x21)
    101c:	00020863          	beq	x4,x0,102c <I_jalr_cg_cp_rd_b0+0x40>
    1020:	3fd022ef          	jal	x5,3c1c <failedtest_x5_x4>
    1024:	00000fec          	.word	0x00000fec
    1028:	00008926          	.word	0x00008926
    102c:	004a8a93          	addi	x21,x21,4
    1030:	00000013          	addi	x0,x0,0
    1034:	00000013          	addi	x0,x0,0
    1038:	00000013          	addi	x0,x0,0
    103c:	00000013          	addi	x0,x0,0

# Testcase cp_rd (Test destination rd = x1)
  LA(x9, 1f) # load jump target address
    1040:	00000497          	auipc	x9,0x0
    1044:	03448493          	addi	x9,x9,52 # 1074 <I_jalr_cg_cp_rd_b1+0x8>
    1048:	00000013          	addi	x0,x0,0
    104c:	00000013          	addi	x0,x0,0
    1050:	00000013          	addi	x0,x0,0
    1054:	00000013          	addi	x0,x0,0
    1058:	00000013          	addi	x0,x0,0
    105c:	00000013          	addi	x0,x0,0
  RVTEST_TESTDATA_LOAD_INT(x11, x16) # load jump check value: x16 = 0x32f0f09f
    1060:	0005a803          	lw	x16,0(x11)
    1064:	00458593          	addi	x11,x11,4
  addi x9, x9, 1993 # adjust base address for offset
    1068:	7c948493          	addi	x9,x9,1993

0000106c <I_jalr_cg_cp_rd_b1>:
I_jalr_cg_cp_rd_b1:
  jalr x1, x9, -1993 # perform jump with offset
    106c:	837480e7          	jalr	x1,-1993(x9)
  addi x16, x16, -4 # should not execute
    1070:	ffc80813          	addi	x16,x16,-4
1:
  addi x16, x16, 2 # should execute
    1074:	00280813          	addi	x16,x16,2
  # Check if x16 contains the expected result. x21 is the signature ptr, x5 is the link ptr, x4 is a temp reg.
  RVTEST_SIGUPD(x21, x5, x4, x16, I_jalr_cg_cp_rd_b1, I_jalr_cg_cp_rd_b1_str)
    1078:	000aa203          	lw	x4,0(x21)
    107c:	01020863          	beq	x4,x16,108c <I_jalr_cg_cp_rd_b1+0x20>
    1080:	39d022ef          	jal	x5,3c1c <failedtest_x5_x4>
    1084:	0000106c          	.word	0x0000106c
    1088:	00008954          	.word	0x00008954
    108c:	004a8a93          	addi	x21,x21,4
  auipc x16, 0 # get current PC
    1090:	00000817          	auipc	x16,0x0
  sub x1, x1, x16 # subtract current PC to make position-independent
    1094:	410080b3          	sub	x1,x1,x16
  # Check if x1 contains the expected result. x21 is the signature ptr, x5 is the link ptr, x4 is a temp reg.
  RVTEST_SIGUPD(x21, x5, x4, x1, I_jalr_cg_cp_rd_b1, I_jalr_cg_cp_rd_b1_str)
    1098:	000aa203          	lw	x4,0(x21)
    109c:	00120863          	beq	x4,x1,10ac <I_jalr_cg_cp_rd_b1+0x40>
    10a0:	37d022ef          	jal	x5,3c1c <failedtest_x5_x4>
    10a4:	0000106c          	.word	0x0000106c
    10a8:	00008954          	.word	0x00008954
    10ac:	004a8a93          	addi	x21,x21,4
    10b0:	00000013          	addi	x0,x0,0
    10b4:	00000013          	addi	x0,x0,0
    10b8:	00000013          	addi	x0,x0,0
    10bc:	00000013          	addi	x0,x0,0

# Testcase cp_rd (Test destination rd = x2)
  LA(x30, 1f) # load jump target address
    10c0:	00000f17          	auipc	x30,0x0
    10c4:	034f0f13          	addi	x30,x30,52 # 10f4 <I_jalr_cg_cp_rd_b2+0x8>
    10c8:	00000013          	addi	x0,x0,0
    10cc:	00000013          	addi	x0,x0,0
    10d0:	00000013          	addi	x0,x0,0
    10d4:	00000013          	addi	x0,x0,0
    10d8:	00000013          	addi	x0,x0,0
    10dc:	00000013          	addi	x0,x0,0
  RVTEST_TESTDATA_LOAD_INT(x11, x9) # load jump check value: x9 = 0x16c37c07
    10e0:	0005a483          	lw	x9,0(x11)
    10e4:	00458593          	addi	x11,x11,4
  addi x30, x30, 960 # adjust base address for offset
    10e8:	3c0f0f13          	addi	x30,x30,960

000010ec <I_jalr_cg_cp_rd_b2>:
I_jalr_cg_cp_rd_b2:
  jalr x2, x30, -960 # perform jump with offset
    10ec:	c40f0167          	jalr	x2,-960(x30)
  addi x9, x9, -4 # should not execute
    10f0:	ffc48493          	addi	x9,x9,-4
1:
  addi x9, x9, 2 # should execute
    10f4:	00248493          	addi	x9,x9,2
  # Check if x9 contains the expected result. x21 is the signature ptr, x5 is the link ptr, x4 is a temp reg.
  RVTEST_SIGUPD(x21, x5, x4, x9, I_jalr_cg_cp_rd_b2, I_jalr_cg_cp_rd_b2_str)
    10f8:	000aa203          	lw	x4,0(x21)
    10fc:	00920863          	beq	x4,x9,110c <I_jalr_cg_cp_rd_b2+0x20>
    1100:	31d022ef          	jal	x5,3c1c <failedtest_x5_x4>
    1104:	000010ec          	.word	0x000010ec
    1108:	00008982          	.word	0x00008982
    110c:	004a8a93          	addi	x21,x21,4
  auipc x9, 0 # get current PC
    1110:	00000497          	auipc	x9,0x0
  sub x2, x2, x9 # subtract current PC to make position-independent
    1114:	40910133          	sub	x2,x2,x9
  # Check if x2 contains the expected result. x21 is the signature ptr, x5 is the link ptr, x4 is a temp reg.
  RVTEST_SIGUPD(x21, x5, x4, x2, I_jalr_cg_cp_rd_b2, I_jalr_cg_cp_rd_b2_str)
    1118:	000aa203          	lw	x4,0(x21)
    111c:	00220863          	beq	x4,x2,112c <I_jalr_cg_cp_rd_b2+0x40>
    1120:	2fd022ef          	jal	x5,3c1c <failedtest_x5_x4>
    1124:	000010ec          	.word	0x000010ec
    1128:	00008982          	.word	0x00008982
    112c:	004a8a93          	addi	x21,x21,4
    1130:	00000013          	addi	x0,x0,0
    1134:	00000013          	addi	x0,x0,0
    1138:	00000013          	addi	x0,x0,0
    113c:	00000013          	addi	x0,x0,0

# Testcase cp_rd (Test destination rd = x3)
  LA(x10, 1f) # load jump target address
    1140:	00000517          	auipc	x10,0x0
    1144:	03450513          	addi	x10,x10,52 # 1174 <I_jalr_cg_cp_rd_b3+0x8>
    1148:	00000013          	addi	x0,x0,0
    114c:	00000013          	addi	x0,x0,0
    1150:	00000013          	addi	x0,x0,0
    1154:	00000013          	addi	x0,x0,0
    1158:	00000013          	addi	x0,x0,0
    115c:	00000013          	addi	x0,x0,0
  RVTEST_TESTDATA_LOAD_INT(x11, x13) # load jump check value: x13 = 0x1096ef8a
    1160:	0005a683          	lw	x13,0(x11)
    1164:	00458593          	addi	x11,x11,4
  addi x10, x10, -1790 # adjust base address for offset
    1168:	90250513          	addi	x10,x10,-1790

0000116c <I_jalr_cg_cp_rd_b3>:
I_jalr_cg_cp_rd_b3:
  jalr x3, x10, 1790 # perform jump with offset
    116c:	6fe501e7          	jalr	x3,1790(x10)
  addi x13, x13, -4 # should not execute
    1170:	ffc68693          	addi	x13,x13,-4
1:
  addi x13, x13, 2 # should execute
    1174:	00268693          	addi	x13,x13,2
  # Check if x13 contains the expected result. x21 is the signature ptr, x5 is the link ptr, x4 is a temp reg.
  RVTEST_SIGUPD(x21, x5, x4, x13, I_jalr_cg_cp_rd_b3, I_jalr_cg_cp_rd_b3_str)
    1178:	000aa203          	lw	x4,0(x21)
    117c:	00d20863          	beq	x4,x13,118c <I_jalr_cg_cp_rd_b3+0x20>
    1180:	29d022ef          	jal	x5,3c1c <failedtest_x5_x4>
    1184:	0000116c          	.word	0x0000116c
    1188:	000089b0          	.word	0x000089b0
    118c:	004a8a93          	addi	x21,x21,4
  auipc x13, 0 # get current PC
    1190:	00000697          	auipc	x13,0x0
  sub x3, x3, x13 # subtract current PC to make position-independent
    1194:	40d181b3          	sub	x3,x3,x13
  # Check if x3 contains the expected result. x21 is the signature ptr, x5 is the link ptr, x4 is a temp reg.
  RVTEST_SIGUPD(x21, x5, x4, x3, I_jalr_cg_cp_rd_b3, I_jalr_cg_cp_rd_b3_str)
    1198:	000aa203          	lw	x4,0(x21)
    119c:	00320863          	beq	x4,x3,11ac <I_jalr_cg_cp_rd_b3+0x40>
    11a0:	27d022ef          	jal	x5,3c1c <failedtest_x5_x4>
    11a4:	0000116c          	.word	0x0000116c
    11a8:	000089b0          	.word	0x000089b0
    11ac:	004a8a93          	addi	x21,x21,4

  mv x13, x4 # switch temp register to avoid conflict with test
    11b0:	00020693          	addi	x13,x4,0 # 0 <rvtest_entry_point>
  mv x14, x5 # switch link pointer register to avoid conflict with test
    11b4:	00028713          	addi	x14,x5,0
    11b8:	00000013          	addi	x0,x0,0
    11bc:	00000013          	addi	x0,x0,0
# Testcase cp_rd (Test destination rd = x4)
  LA(x10, 1f) # load jump target address
    11c0:	00000517          	auipc	x10,0x0
    11c4:	03450513          	addi	x10,x10,52 # 11f4 <I_jalr_cg_cp_rd_b4+0x8>
    11c8:	00000013          	addi	x0,x0,0
    11cc:	00000013          	addi	x0,x0,0
    11d0:	00000013          	addi	x0,x0,0
    11d4:	00000013          	addi	x0,x0,0
    11d8:	00000013          	addi	x0,x0,0
    11dc:	00000013          	addi	x0,x0,0
  RVTEST_TESTDATA_LOAD_INT(x11, x25) # load jump check value: x25 = 0x4a97f3d4
    11e0:	0005ac83          	lw	x25,0(x11)
    11e4:	00458593          	addi	x11,x11,4
  addi x10, x10, -1746 # adjust base address for offset
    11e8:	92e50513          	addi	x10,x10,-1746

000011ec <I_jalr_cg_cp_rd_b4>:
I_jalr_cg_cp_rd_b4:
  jalr x4, x10, 1746 # perform jump with offset
    11ec:	6d250267          	jalr	x4,1746(x10)
  addi x25, x25, -4 # should not execute
    11f0:	ffcc8c93          	addi	x25,x25,-4 # 100c <I_jalr_cg_cp_rd_b0+0x20>
1:
  addi x25, x25, 2 # should execute
    11f4:	002c8c93          	addi	x25,x25,2
  # Check if x25 contains the expected result. x21 is the signature ptr, x14 is the link ptr, x13 is a temp reg.
  RVTEST_SIGUPD(x21, x14, x13, x25, I_jalr_cg_cp_rd_b4, I_jalr_cg_cp_rd_b4_str)
    11f8:	000aa683          	lw	x13,0(x21)
    11fc:	01968863          	beq	x13,x25,120c <I_jalr_cg_cp_rd_b4+0x20>
    1200:	25d0276f          	jal	x14,3c5c <failedtest_x14_x13>
    1204:	000011ec          	.word	0x000011ec
    1208:	000089de          	.word	0x000089de
    120c:	004a8a93          	addi	x21,x21,4
  auipc x25, 0 # get current PC
    1210:	00000c97          	auipc	x25,0x0
  sub x4, x4, x25 # subtract current PC to make position-independent
    1214:	41920233          	sub	x4,x4,x25
  # Check if x4 contains the expected result. x21 is the signature ptr, x14 is the link ptr, x13 is a temp reg.
  RVTEST_SIGUPD(x21, x14, x13, x4, I_jalr_cg_cp_rd_b4, I_jalr_cg_cp_rd_b4_str)
    1218:	000aa683          	lw	x13,0(x21)
    121c:	00468863          	beq	x13,x4,122c <I_jalr_cg_cp_rd_b4+0x40>
    1220:	23d0276f          	jal	x14,3c5c <failedtest_x14_x13>
    1224:	000011ec          	.word	0x000011ec
    1228:	000089de          	.word	0x000089de
    122c:	004a8a93          	addi	x21,x21,4
    1230:	00000013          	addi	x0,x0,0
    1234:	00000013          	addi	x0,x0,0
    1238:	00000013          	addi	x0,x0,0
    123c:	00000013          	addi	x0,x0,0

# Testcase cp_rd (Test destination rd = x5)
  LA(x9, 1f) # load jump target address
    1240:	00000497          	auipc	x9,0x0
    1244:	03448493          	addi	x9,x9,52 # 1274 <I_jalr_cg_cp_rd_b5+0x8>
    1248:	00000013          	addi	x0,x0,0
    124c:	00000013          	addi	x0,x0,0
    1250:	00000013          	addi	x0,x0,0
    1254:	00000013          	addi	x0,x0,0
    1258:	00000013          	addi	x0,x0,0
    125c:	00000013          	addi	x0,x0,0
  RVTEST_TESTDATA_LOAD_INT(x11, x22) # load jump check value: x22 = 0x219f45a8
    1260:	0005ab03          	lw	x22,0(x11)
    1264:	00458593          	addi	x11,x11,4
  addi x9, x9, -1870 # adjust base address for offset
    1268:	8b248493          	addi	x9,x9,-1870

0000126c <I_jalr_cg_cp_rd_b5>:
I_jalr_cg_cp_rd_b5:
  jalr x5, x9, 1870 # perform jump with offset
    126c:	74e482e7          	jalr	x5,1870(x9)
  addi x22, x22, -4 # should not execute
    1270:	ffcb0b13          	addi	x22,x22,-4 # d8c <I_jalr_cg_cp_rs1_nx0_b27+0x20>
1:
  addi x22, x22, 2 # should execute
    1274:	002b0b13          	addi	x22,x22,2
  # Check if x22 contains the expected result. x21 is the signature ptr, x14 is the link ptr, x13 is a temp reg.
  RVTEST_SIGUPD(x21, x14, x13, x22, I_jalr_cg_cp_rd_b5, I_jalr_cg_cp_rd_b5_str)
    1278:	000aa683          	lw	x13,0(x21)
    127c:	01668863          	beq	x13,x22,128c <I_jalr_cg_cp_rd_b5+0x20>
    1280:	1dd0276f          	jal	x14,3c5c <failedtest_x14_x13>
    1284:	0000126c          	.word	0x0000126c
    1288:	00008a0c          	.word	0x00008a0c
    128c:	004a8a93          	addi	x21,x21,4
  auipc x22, 0 # get current PC
    1290:	00000b17          	auipc	x22,0x0
  sub x5, x5, x22 # subtract current PC to make position-independent
    1294:	416282b3          	sub	x5,x5,x22
  # Check if x5 contains the expected result. x21 is the signature ptr, x14 is the link ptr, x13 is a temp reg.
  RVTEST_SIGUPD(x21, x14, x13, x5, I_jalr_cg_cp_rd_b5, I_jalr_cg_cp_rd_b5_str)
    1298:	000aa683          	lw	x13,0(x21)
    129c:	00568863          	beq	x13,x5,12ac <I_jalr_cg_cp_rd_b5+0x40>
    12a0:	1bd0276f          	jal	x14,3c5c <failedtest_x14_x13>
    12a4:	0000126c          	.word	0x0000126c
    12a8:	00008a0c          	.word	0x00008a0c
    12ac:	004a8a93          	addi	x21,x21,4
    12b0:	00000013          	addi	x0,x0,0
    12b4:	00000013          	addi	x0,x0,0
    12b8:	00000013          	addi	x0,x0,0
    12bc:	00000013          	addi	x0,x0,0

# Testcase cp_rd (Test destination rd = x6)
  LA(x30, 1f) # load jump target address
    12c0:	00000f17          	auipc	x30,0x0
    12c4:	034f0f13          	addi	x30,x30,52 # 12f4 <I_jalr_cg_cp_rd_b6+0x8>
    12c8:	00000013          	addi	x0,x0,0
    12cc:	00000013          	addi	x0,x0,0
    12d0:	00000013          	addi	x0,x0,0
    12d4:	00000013          	addi	x0,x0,0
    12d8:	00000013          	addi	x0,x0,0
    12dc:	00000013          	addi	x0,x0,0
  RVTEST_TESTDATA_LOAD_INT(x11, x7) # load jump check value: x7 = 0xcd775771
    12e0:	0005a383          	lw	x7,0(x11)
    12e4:	00458593          	addi	x11,x11,4
  addi x30, x30, -1487 # adjust base address for offset
    12e8:	a31f0f13          	addi	x30,x30,-1487

000012ec <I_jalr_cg_cp_rd_b6>:
I_jalr_cg_cp_rd_b6:
  jalr x6, x30, 1487 # perform jump with offset
    12ec:	5cff0367          	jalr	x6,1487(x30)
  addi x7, x7, -4 # should not execute
    12f0:	ffc38393          	addi	x7,x7,-4
1:
  addi x7, x7, 2 # should execute
    12f4:	00238393          	addi	x7,x7,2
  # Check if x7 contains the expected result. x21 is the signature ptr, x14 is the link ptr, x13 is a temp reg.
  RVTEST_SIGUPD(x21, x14, x13, x7, I_jalr_cg_cp_rd_b6, I_jalr_cg_cp_rd_b6_str)
    12f8:	000aa683          	lw	x13,0(x21)
    12fc:	00768863          	beq	x13,x7,130c <I_jalr_cg_cp_rd_b6+0x20>
    1300:	15d0276f          	jal	x14,3c5c <failedtest_x14_x13>
    1304:	000012ec          	.word	0x000012ec
    1308:	00008a3a          	.word	0x00008a3a
    130c:	004a8a93          	addi	x21,x21,4
  auipc x7, 0 # get current PC
    1310:	00000397          	auipc	x7,0x0
  sub x6, x6, x7 # subtract current PC to make position-independent
    1314:	40730333          	sub	x6,x6,x7
  # Check if x6 contains the expected result. x21 is the signature ptr, x14 is the link ptr, x13 is a temp reg.
  RVTEST_SIGUPD(x21, x14, x13, x6, I_jalr_cg_cp_rd_b6, I_jalr_cg_cp_rd_b6_str)
    1318:	000aa683          	lw	x13,0(x21)
    131c:	00668863          	beq	x13,x6,132c <I_jalr_cg_cp_rd_b6+0x40>
    1320:	13d0276f          	jal	x14,3c5c <failedtest_x14_x13>
    1324:	000012ec          	.word	0x000012ec
    1328:	00008a3a          	.word	0x00008a3a
    132c:	004a8a93          	addi	x21,x21,4
    1330:	00000013          	addi	x0,x0,0
    1334:	00000013          	addi	x0,x0,0
    1338:	00000013          	addi	x0,x0,0
    133c:	00000013          	addi	x0,x0,0

# Testcase cp_rd (Test destination rd = x7)
  LA(x27, 1f) # load jump target address
    1340:	00000d97          	auipc	x27,0x0
    1344:	034d8d93          	addi	x27,x27,52 # 1374 <I_jalr_cg_cp_rd_b7+0x8>
    1348:	00000013          	addi	x0,x0,0
    134c:	00000013          	addi	x0,x0,0
    1350:	00000013          	addi	x0,x0,0
    1354:	00000013          	addi	x0,x0,0
    1358:	00000013          	addi	x0,x0,0
    135c:	00000013          	addi	x0,x0,0
  RVTEST_TESTDATA_LOAD_INT(x11, x1) # load jump check value: x1 = 0xb345f062
    1360:	0005a083          	lw	x1,0(x11)
    1364:	00458593          	addi	x11,x11,4
  addi x27, x27, -1488 # adjust base address for offset
    1368:	a30d8d93          	addi	x27,x27,-1488

0000136c <I_jalr_cg_cp_rd_b7>:
I_jalr_cg_cp_rd_b7:
  jalr x7, x27, 1488 # perform jump with offset
    136c:	5d0d83e7          	jalr	x7,1488(x27)
  addi x1, x1, -4 # should not execute
    1370:	ffc08093          	addi	x1,x1,-4
1:
  addi x1, x1, 2 # should execute
    1374:	00208093          	addi	x1,x1,2
  # Check if x1 contains the expected result. x21 is the signature ptr, x14 is the link ptr, x13 is a temp reg.
  RVTEST_SIGUPD(x21, x14, x13, x1, I_jalr_cg_cp_rd_b7, I_jalr_cg_cp_rd_b7_str)
    1378:	000aa683          	lw	x13,0(x21)
    137c:	00168863          	beq	x13,x1,138c <I_jalr_cg_cp_rd_b7+0x20>
    1380:	0dd0276f          	jal	x14,3c5c <failedtest_x14_x13>
    1384:	0000136c          	.word	0x0000136c
    1388:	00008a68          	.word	0x00008a68
    138c:	004a8a93          	addi	x21,x21,4
  auipc x1, 0 # get current PC
    1390:	00000097          	auipc	x1,0x0
  sub x7, x7, x1 # subtract current PC to make position-independent
    1394:	401383b3          	sub	x7,x7,x1
  # Check if x7 contains the expected result. x21 is the signature ptr, x14 is the link ptr, x13 is a temp reg.
  RVTEST_SIGUPD(x21, x14, x13, x7, I_jalr_cg_cp_rd_b7, I_jalr_cg_cp_rd_b7_str)
    1398:	000aa683          	lw	x13,0(x21)
    139c:	00768863          	beq	x13,x7,13ac <I_jalr_cg_cp_rd_b7+0x40>
    13a0:	0bd0276f          	jal	x14,3c5c <failedtest_x14_x13>
    13a4:	0000136c          	.word	0x0000136c
    13a8:	00008a68          	.word	0x00008a68
    13ac:	004a8a93          	addi	x21,x21,4
    13b0:	00000013          	addi	x0,x0,0
    13b4:	00000013          	addi	x0,x0,0
    13b8:	00000013          	addi	x0,x0,0
    13bc:	00000013          	addi	x0,x0,0

# Testcase cp_rd (Test destination rd = x8)
  LA(x16, 1f) # load jump target address
    13c0:	00000817          	auipc	x16,0x0
    13c4:	03480813          	addi	x16,x16,52 # 13f4 <I_jalr_cg_cp_rd_b8+0x8>
    13c8:	00000013          	addi	x0,x0,0
    13cc:	00000013          	addi	x0,x0,0
    13d0:	00000013          	addi	x0,x0,0
    13d4:	00000013          	addi	x0,x0,0
    13d8:	00000013          	addi	x0,x0,0
    13dc:	00000013          	addi	x0,x0,0
  RVTEST_TESTDATA_LOAD_INT(x11, x20) # load jump check value: x20 = 0x8effeeb0
    13e0:	0005aa03          	lw	x20,0(x11)
    13e4:	00458593          	addi	x11,x11,4
  addi x16, x16, 1475 # adjust base address for offset
    13e8:	5c380813          	addi	x16,x16,1475

000013ec <I_jalr_cg_cp_rd_b8>:
I_jalr_cg_cp_rd_b8:
  jalr x8, x16, -1475 # perform jump with offset
    13ec:	a3d80467          	jalr	x8,-1475(x16)
  addi x20, x20, -4 # should not execute
    13f0:	ffca0a13          	addi	x20,x20,-4
1:
  addi x20, x20, 2 # should execute
    13f4:	002a0a13          	addi	x20,x20,2
  # Check if x20 contains the expected result. x21 is the signature ptr, x14 is the link ptr, x13 is a temp reg.
  RVTEST_SIGUPD(x21, x14, x13, x20, I_jalr_cg_cp_rd_b8, I_jalr_cg_cp_rd_b8_str)
    13f8:	000aa683          	lw	x13,0(x21)
    13fc:	01468863          	beq	x13,x20,140c <I_jalr_cg_cp_rd_b8+0x20>
    1400:	05d0276f          	jal	x14,3c5c <failedtest_x14_x13>
    1404:	000013ec          	.word	0x000013ec
    1408:	00008a96          	.word	0x00008a96
    140c:	004a8a93          	addi	x21,x21,4
  auipc x20, 0 # get current PC
    1410:	00000a17          	auipc	x20,0x0
  sub x8, x8, x20 # subtract current PC to make position-independent
    1414:	41440433          	sub	x8,x8,x20
  # Check if x8 contains the expected result. x21 is the signature ptr, x14 is the link ptr, x13 is a temp reg.
  RVTEST_SIGUPD(x21, x14, x13, x8, I_jalr_cg_cp_rd_b8, I_jalr_cg_cp_rd_b8_str)
    1418:	000aa683          	lw	x13,0(x21)
    141c:	00868863          	beq	x13,x8,142c <I_jalr_cg_cp_rd_b8+0x40>
    1420:	03d0276f          	jal	x14,3c5c <failedtest_x14_x13>
    1424:	000013ec          	.word	0x000013ec
    1428:	00008a96          	.word	0x00008a96
    142c:	004a8a93          	addi	x21,x21,4
    1430:	00000013          	addi	x0,x0,0
    1434:	00000013          	addi	x0,x0,0
    1438:	00000013          	addi	x0,x0,0
    143c:	00000013          	addi	x0,x0,0

# Testcase cp_rd (Test destination rd = x9)
  LA(x22, 1f) # load jump target address
    1440:	00000b17          	auipc	x22,0x0
    1444:	034b0b13          	addi	x22,x22,52 # 1474 <I_jalr_cg_cp_rd_b9+0x8>
    1448:	00000013          	addi	x0,x0,0
    144c:	00000013          	addi	x0,x0,0
    1450:	00000013          	addi	x0,x0,0
    1454:	00000013          	addi	x0,x0,0
    1458:	00000013          	addi	x0,x0,0
    145c:	00000013          	addi	x0,x0,0
  RVTEST_TESTDATA_LOAD_INT(x11, x31) # load jump check value: x31 = 0xd2d94374
    1460:	0005af83          	lw	x31,0(x11)
    1464:	00458593          	addi	x11,x11,4
  addi x22, x22, -1141 # adjust base address for offset
    1468:	b8bb0b13          	addi	x22,x22,-1141

0000146c <I_jalr_cg_cp_rd_b9>:
I_jalr_cg_cp_rd_b9:
  jalr x9, x22, 1141 # perform jump with offset
    146c:	475b04e7          	jalr	x9,1141(x22)
  addi x31, x31, -4 # should not execute
    1470:	ffcf8f93          	addi	x31,x31,-4
1:
  addi x31, x31, 2 # should execute
    1474:	002f8f93          	addi	x31,x31,2
  # Check if x31 contains the expected result. x21 is the signature ptr, x14 is the link ptr, x13 is a temp reg.
  RVTEST_SIGUPD(x21, x14, x13, x31, I_jalr_cg_cp_rd_b9, I_jalr_cg_cp_rd_b9_str)
    1478:	000aa683          	lw	x13,0(x21)
    147c:	01f68863          	beq	x13,x31,148c <I_jalr_cg_cp_rd_b9+0x20>
    1480:	7dc0276f          	jal	x14,3c5c <failedtest_x14_x13>
    1484:	0000146c          	.word	0x0000146c
    1488:	00008ac4          	.word	0x00008ac4
    148c:	004a8a93          	addi	x21,x21,4
  auipc x31, 0 # get current PC
    1490:	00000f97          	auipc	x31,0x0
  sub x9, x9, x31 # subtract current PC to make position-independent
    1494:	41f484b3          	sub	x9,x9,x31
  # Check if x9 contains the expected result. x21 is the signature ptr, x14 is the link ptr, x13 is a temp reg.
  RVTEST_SIGUPD(x21, x14, x13, x9, I_jalr_cg_cp_rd_b9, I_jalr_cg_cp_rd_b9_str)
    1498:	000aa683          	lw	x13,0(x21)
    149c:	00968863          	beq	x13,x9,14ac <I_jalr_cg_cp_rd_b9+0x40>
    14a0:	7bc0276f          	jal	x14,3c5c <failedtest_x14_x13>
    14a4:	0000146c          	.word	0x0000146c
    14a8:	00008ac4          	.word	0x00008ac4
    14ac:	004a8a93          	addi	x21,x21,4
    14b0:	00000013          	addi	x0,x0,0
    14b4:	00000013          	addi	x0,x0,0
    14b8:	00000013          	addi	x0,x0,0
    14bc:	00000013          	addi	x0,x0,0

# Testcase cp_rd (Test destination rd = x10)
  LA(x23, 1f) # load jump target address
    14c0:	00000b97          	auipc	x23,0x0
    14c4:	034b8b93          	addi	x23,x23,52 # 14f4 <I_jalr_cg_cp_rd_b10+0x8>
    14c8:	00000013          	addi	x0,x0,0
    14cc:	00000013          	addi	x0,x0,0
    14d0:	00000013          	addi	x0,x0,0
    14d4:	00000013          	addi	x0,x0,0
    14d8:	00000013          	addi	x0,x0,0
    14dc:	00000013          	addi	x0,x0,0
  RVTEST_TESTDATA_LOAD_INT(x11, x16) # load jump check value: x16 = 0xf4b0fa62
    14e0:	0005a803          	lw	x16,0(x11)
    14e4:	00458593          	addi	x11,x11,4
  addi x23, x23, 1819 # adjust base address for offset
    14e8:	71bb8b93          	addi	x23,x23,1819

000014ec <I_jalr_cg_cp_rd_b10>:
I_jalr_cg_cp_rd_b10:
  jalr x10, x23, -1819 # perform jump with offset
    14ec:	8e5b8567          	jalr	x10,-1819(x23)
  addi x16, x16, -4 # should not execute
    14f0:	ffc80813          	addi	x16,x16,-4
1:
  addi x16, x16, 2 # should execute
    14f4:	00280813          	addi	x16,x16,2
  # Check if x16 contains the expected result. x21 is the signature ptr, x14 is the link ptr, x13 is a temp reg.
  RVTEST_SIGUPD(x21, x14, x13, x16, I_jalr_cg_cp_rd_b10, I_jalr_cg_cp_rd_b10_str)
    14f8:	000aa683          	lw	x13,0(x21)
    14fc:	01068863          	beq	x13,x16,150c <I_jalr_cg_cp_rd_b10+0x20>
    1500:	75c0276f          	jal	x14,3c5c <failedtest_x14_x13>
    1504:	000014ec          	.word	0x000014ec
    1508:	00008af2          	.word	0x00008af2
    150c:	004a8a93          	addi	x21,x21,4
  auipc x16, 0 # get current PC
    1510:	00000817          	auipc	x16,0x0
  sub x10, x10, x16 # subtract current PC to make position-independent
    1514:	41050533          	sub	x10,x10,x16
  # Check if x10 contains the expected result. x21 is the signature ptr, x14 is the link ptr, x13 is a temp reg.
  RVTEST_SIGUPD(x21, x14, x13, x10, I_jalr_cg_cp_rd_b10, I_jalr_cg_cp_rd_b10_str)
    1518:	000aa683          	lw	x13,0(x21)
    151c:	00a68863          	beq	x13,x10,152c <I_jalr_cg_cp_rd_b10+0x40>
    1520:	73c0276f          	jal	x14,3c5c <failedtest_x14_x13>
    1524:	000014ec          	.word	0x000014ec
    1528:	00008af2          	.word	0x00008af2
    152c:	004a8a93          	addi	x21,x21,4

  mv x20, x11 # switch data pointer register to avoid conflict with test
    1530:	00058a13          	addi	x20,x11,0
    1534:	00000013          	addi	x0,x0,0
    1538:	00000013          	addi	x0,x0,0
    153c:	00000013          	addi	x0,x0,0
# Testcase cp_rd (Test destination rd = x11)
  LA(x2, 1f) # load jump target address
    1540:	00000117          	auipc	x2,0x0
    1544:	03410113          	addi	x2,x2,52 # 1574 <I_jalr_cg_cp_rd_b11+0x8>
    1548:	00000013          	addi	x0,x0,0
    154c:	00000013          	addi	x0,x0,0
    1550:	00000013          	addi	x0,x0,0
    1554:	00000013          	addi	x0,x0,0
    1558:	00000013          	addi	x0,x0,0
    155c:	00000013          	addi	x0,x0,0
  RVTEST_TESTDATA_LOAD_INT(x20, x12) # load jump check value: x12 = 0x079f4c1c
    1560:	000a2603          	lw	x12,0(x20) # 1410 <I_jalr_cg_cp_rd_b8+0x24>
    1564:	004a0a13          	addi	x20,x20,4
  addi x2, x2, -59 # adjust base address for offset
    1568:	fc510113          	addi	x2,x2,-59

0000156c <I_jalr_cg_cp_rd_b11>:
I_jalr_cg_cp_rd_b11:
  jalr x11, x2, 59 # perform jump with offset
    156c:	03b105e7          	jalr	x11,59(x2)
  addi x12, x12, -4 # should not execute
    1570:	ffc60613          	addi	x12,x12,-4
1:
  addi x12, x12, 2 # should execute
    1574:	00260613          	addi	x12,x12,2
  # Check if x12 contains the expected result. x21 is the signature ptr, x14 is the link ptr, x13 is a temp reg.
  RVTEST_SIGUPD(x21, x14, x13, x12, I_jalr_cg_cp_rd_b11, I_jalr_cg_cp_rd_b11_str)
    1578:	000aa683          	lw	x13,0(x21)
    157c:	00c68863          	beq	x13,x12,158c <I_jalr_cg_cp_rd_b11+0x20>
    1580:	6dc0276f          	jal	x14,3c5c <failedtest_x14_x13>
    1584:	0000156c          	.word	0x0000156c
    1588:	00008b21          	.word	0x00008b21
    158c:	004a8a93          	addi	x21,x21,4
  auipc x12, 0 # get current PC
    1590:	00000617          	auipc	x12,0x0
  sub x11, x11, x12 # subtract current PC to make position-independent
    1594:	40c585b3          	sub	x11,x11,x12
  # Check if x11 contains the expected result. x21 is the signature ptr, x14 is the link ptr, x13 is a temp reg.
  RVTEST_SIGUPD(x21, x14, x13, x11, I_jalr_cg_cp_rd_b11, I_jalr_cg_cp_rd_b11_str)
    1598:	000aa683          	lw	x13,0(x21)
    159c:	00b68863          	beq	x13,x11,15ac <I_jalr_cg_cp_rd_b11+0x40>
    15a0:	6bc0276f          	jal	x14,3c5c <failedtest_x14_x13>
    15a4:	0000156c          	.word	0x0000156c
    15a8:	00008b21          	.word	0x00008b21
    15ac:	004a8a93          	addi	x21,x21,4
    15b0:	00000013          	addi	x0,x0,0
    15b4:	00000013          	addi	x0,x0,0
    15b8:	00000013          	addi	x0,x0,0
    15bc:	00000013          	addi	x0,x0,0

# Testcase cp_rd (Test destination rd = x12)
  LA(x23, 1f) # load jump target address
    15c0:	00000b97          	auipc	x23,0x0
    15c4:	034b8b93          	addi	x23,x23,52 # 15f4 <I_jalr_cg_cp_rd_b12+0x8>
    15c8:	00000013          	addi	x0,x0,0
    15cc:	00000013          	addi	x0,x0,0
    15d0:	00000013          	addi	x0,x0,0
    15d4:	00000013          	addi	x0,x0,0
    15d8:	00000013          	addi	x0,x0,0
    15dc:	00000013          	addi	x0,x0,0
  RVTEST_TESTDATA_LOAD_INT(x20, x16) # load jump check value: x16 = 0xa325185d
    15e0:	000a2803          	lw	x16,0(x20)
    15e4:	004a0a13          	addi	x20,x20,4
  addi x23, x23, 1509 # adjust base address for offset
    15e8:	5e5b8b93          	addi	x23,x23,1509

000015ec <I_jalr_cg_cp_rd_b12>:
I_jalr_cg_cp_rd_b12:
  jalr x12, x23, -1509 # perform jump with offset
    15ec:	a1bb8667          	jalr	x12,-1509(x23)
  addi x16, x16, -4 # should not execute
    15f0:	ffc80813          	addi	x16,x16,-4 # 150c <I_jalr_cg_cp_rd_b10+0x20>
1:
  addi x16, x16, 2 # should execute
    15f4:	00280813          	addi	x16,x16,2
  # Check if x16 contains the expected result. x21 is the signature ptr, x14 is the link ptr, x13 is a temp reg.
  RVTEST_SIGUPD(x21, x14, x13, x16, I_jalr_cg_cp_rd_b12, I_jalr_cg_cp_rd_b12_str)
    15f8:	000aa683          	lw	x13,0(x21)
    15fc:	01068863          	beq	x13,x16,160c <I_jalr_cg_cp_rd_b12+0x20>
    1600:	65c0276f          	jal	x14,3c5c <failedtest_x14_x13>
    1604:	000015ec          	.word	0x000015ec
    1608:	00008b50          	.word	0x00008b50
    160c:	004a8a93          	addi	x21,x21,4
  auipc x16, 0 # get current PC
    1610:	00000817          	auipc	x16,0x0
  sub x12, x12, x16 # subtract current PC to make position-independent
    1614:	41060633          	sub	x12,x12,x16
  # Check if x12 contains the expected result. x21 is the signature ptr, x14 is the link ptr, x13 is a temp reg.
  RVTEST_SIGUPD(x21, x14, x13, x12, I_jalr_cg_cp_rd_b12, I_jalr_cg_cp_rd_b12_str)
    1618:	000aa683          	lw	x13,0(x21)
    161c:	00c68863          	beq	x13,x12,162c <I_jalr_cg_cp_rd_b12+0x40>
    1620:	63c0276f          	jal	x14,3c5c <failedtest_x14_x13>
    1624:	000015ec          	.word	0x000015ec
    1628:	00008b50          	.word	0x00008b50
    162c:	004a8a93          	addi	x21,x21,4

  mv x7, x13 # switch temp register to avoid conflict with test
    1630:	00068393          	addi	x7,x13,0 # 1190 <I_jalr_cg_cp_rd_b3+0x24>
  mv x8, x14 # switch link pointer register to avoid conflict with test
    1634:	00070413          	addi	x8,x14,0 # e90 <I_jalr_cg_cp_rs1_nx0_b29+0x24>
    1638:	00000013          	addi	x0,x0,0
    163c:	00000013          	addi	x0,x0,0
# Testcase cp_rd (Test destination rd = x13)
  LA(x25, 1f) # load jump target address
    1640:	00000c97          	auipc	x25,0x0
    1644:	034c8c93          	addi	x25,x25,52 # 1674 <I_jalr_cg_cp_rd_b13+0x8>
    1648:	00000013          	addi	x0,x0,0
    164c:	00000013          	addi	x0,x0,0
    1650:	00000013          	addi	x0,x0,0
    1654:	00000013          	addi	x0,x0,0
    1658:	00000013          	addi	x0,x0,0
    165c:	00000013          	addi	x0,x0,0
  RVTEST_TESTDATA_LOAD_INT(x20, x17) # load jump check value: x17 = 0x5a80391c
    1660:	000a2883          	lw	x17,0(x20)
    1664:	004a0a13          	addi	x20,x20,4
  addi x25, x25, 237 # adjust base address for offset
    1668:	0edc8c93          	addi	x25,x25,237

0000166c <I_jalr_cg_cp_rd_b13>:
I_jalr_cg_cp_rd_b13:
  jalr x13, x25, -237 # perform jump with offset
    166c:	f13c86e7          	jalr	x13,-237(x25)
  addi x17, x17, -4 # should not execute
    1670:	ffc88893          	addi	x17,x17,-4
1:
  addi x17, x17, 2 # should execute
    1674:	00288893          	addi	x17,x17,2
  # Check if x17 contains the expected result. x21 is the signature ptr, x8 is the link ptr, x7 is a temp reg.
  RVTEST_SIGUPD(x21, x8, x7, x17, I_jalr_cg_cp_rd_b13, I_jalr_cg_cp_rd_b13_str)
    1678:	000aa383          	lw	x7,0(x21)
    167c:	01138863          	beq	x7,x17,168c <I_jalr_cg_cp_rd_b13+0x20>
    1680:	5b40246f          	jal	x8,3c34 <failedtest_x8_x7>
    1684:	0000166c          	.word	0x0000166c
    1688:	00008b7f          	.word	0x00008b7f
    168c:	004a8a93          	addi	x21,x21,4
  auipc x17, 0 # get current PC
    1690:	00000897          	auipc	x17,0x0
  sub x13, x13, x17 # subtract current PC to make position-independent
    1694:	411686b3          	sub	x13,x13,x17
  # Check if x13 contains the expected result. x21 is the signature ptr, x8 is the link ptr, x7 is a temp reg.
  RVTEST_SIGUPD(x21, x8, x7, x13, I_jalr_cg_cp_rd_b13, I_jalr_cg_cp_rd_b13_str)
    1698:	000aa383          	lw	x7,0(x21)
    169c:	00d38863          	beq	x7,x13,16ac <I_jalr_cg_cp_rd_b13+0x40>
    16a0:	5940246f          	jal	x8,3c34 <failedtest_x8_x7>
    16a4:	0000166c          	.word	0x0000166c
    16a8:	00008b7f          	.word	0x00008b7f
    16ac:	004a8a93          	addi	x21,x21,4
    16b0:	00000013          	addi	x0,x0,0
    16b4:	00000013          	addi	x0,x0,0
    16b8:	00000013          	addi	x0,x0,0
    16bc:	00000013          	addi	x0,x0,0

# Testcase cp_rd (Test destination rd = x14)
  LA(x29, 1f) # load jump target address
    16c0:	00000e97          	auipc	x29,0x0
    16c4:	034e8e93          	addi	x29,x29,52 # 16f4 <I_jalr_cg_cp_rd_b14+0x8>
    16c8:	00000013          	addi	x0,x0,0
    16cc:	00000013          	addi	x0,x0,0
    16d0:	00000013          	addi	x0,x0,0
    16d4:	00000013          	addi	x0,x0,0
    16d8:	00000013          	addi	x0,x0,0
    16dc:	00000013          	addi	x0,x0,0
  RVTEST_TESTDATA_LOAD_INT(x20, x12) # load jump check value: x12 = 0x0061db4b
    16e0:	000a2603          	lw	x12,0(x20)
    16e4:	004a0a13          	addi	x20,x20,4
  addi x29, x29, 789 # adjust base address for offset
    16e8:	315e8e93          	addi	x29,x29,789

000016ec <I_jalr_cg_cp_rd_b14>:
I_jalr_cg_cp_rd_b14:
  jalr x14, x29, -789 # perform jump with offset
    16ec:	cebe8767          	jalr	x14,-789(x29)
  addi x12, x12, -4 # should not execute
    16f0:	ffc60613          	addi	x12,x12,-4 # 158c <I_jalr_cg_cp_rd_b11+0x20>
1:
  addi x12, x12, 2 # should execute
    16f4:	00260613          	addi	x12,x12,2
  # Check if x12 contains the expected result. x21 is the signature ptr, x8 is the link ptr, x7 is a temp reg.
  RVTEST_SIGUPD(x21, x8, x7, x12, I_jalr_cg_cp_rd_b14, I_jalr_cg_cp_rd_b14_str)
    16f8:	000aa383          	lw	x7,0(x21)
    16fc:	00c38863          	beq	x7,x12,170c <I_jalr_cg_cp_rd_b14+0x20>
    1700:	5340246f          	jal	x8,3c34 <failedtest_x8_x7>
    1704:	000016ec          	.word	0x000016ec
    1708:	00008bae          	.word	0x00008bae
    170c:	004a8a93          	addi	x21,x21,4
  auipc x12, 0 # get current PC
    1710:	00000617          	auipc	x12,0x0
  sub x14, x14, x12 # subtract current PC to make position-independent
    1714:	40c70733          	sub	x14,x14,x12
  # Check if x14 contains the expected result. x21 is the signature ptr, x8 is the link ptr, x7 is a temp reg.
  RVTEST_SIGUPD(x21, x8, x7, x14, I_jalr_cg_cp_rd_b14, I_jalr_cg_cp_rd_b14_str)
    1718:	000aa383          	lw	x7,0(x21)
    171c:	00e38863          	beq	x7,x14,172c <I_jalr_cg_cp_rd_b14+0x40>
    1720:	5140246f          	jal	x8,3c34 <failedtest_x8_x7>
    1724:	000016ec          	.word	0x000016ec
    1728:	00008bae          	.word	0x00008bae
    172c:	004a8a93          	addi	x21,x21,4
    1730:	00000013          	addi	x0,x0,0
    1734:	00000013          	addi	x0,x0,0
    1738:	00000013          	addi	x0,x0,0
    173c:	00000013          	addi	x0,x0,0

# Testcase cp_rd (Test destination rd = x15)
  LA(x19, 1f) # load jump target address
    1740:	00000997          	auipc	x19,0x0
    1744:	03498993          	addi	x19,x19,52 # 1774 <I_jalr_cg_cp_rd_b15+0x8>
    1748:	00000013          	addi	x0,x0,0
    174c:	00000013          	addi	x0,x0,0
    1750:	00000013          	addi	x0,x0,0
    1754:	00000013          	addi	x0,x0,0
    1758:	00000013          	addi	x0,x0,0
    175c:	00000013          	addi	x0,x0,0
  RVTEST_TESTDATA_LOAD_INT(x20, x24) # load jump check value: x24 = 0x9fadefe1
    1760:	000a2c03          	lw	x24,0(x20)
    1764:	004a0a13          	addi	x20,x20,4
  addi x19, x19, -395 # adjust base address for offset
    1768:	e7598993          	addi	x19,x19,-395

0000176c <I_jalr_cg_cp_rd_b15>:
I_jalr_cg_cp_rd_b15:
  jalr x15, x19, 395 # perform jump with offset
    176c:	18b987e7          	jalr	x15,395(x19)
  addi x24, x24, -4 # should not execute
    1770:	ffcc0c13          	addi	x24,x24,-4
1:
  addi x24, x24, 2 # should execute
    1774:	002c0c13          	addi	x24,x24,2
  # Check if x24 contains the expected result. x21 is the signature ptr, x8 is the link ptr, x7 is a temp reg.
  RVTEST_SIGUPD(x21, x8, x7, x24, I_jalr_cg_cp_rd_b15, I_jalr_cg_cp_rd_b15_str)
    1778:	000aa383          	lw	x7,0(x21)
    177c:	01838863          	beq	x7,x24,178c <I_jalr_cg_cp_rd_b15+0x20>
    1780:	4b40246f          	jal	x8,3c34 <failedtest_x8_x7>
    1784:	0000176c          	.word	0x0000176c
    1788:	00008bdd          	.word	0x00008bdd
    178c:	004a8a93          	addi	x21,x21,4
  auipc x24, 0 # get current PC
    1790:	00000c17          	auipc	x24,0x0
  sub x15, x15, x24 # subtract current PC to make position-independent
    1794:	418787b3          	sub	x15,x15,x24
  # Check if x15 contains the expected result. x21 is the signature ptr, x8 is the link ptr, x7 is a temp reg.
  RVTEST_SIGUPD(x21, x8, x7, x15, I_jalr_cg_cp_rd_b15, I_jalr_cg_cp_rd_b15_str)
    1798:	000aa383          	lw	x7,0(x21)
    179c:	00f38863          	beq	x7,x15,17ac <I_jalr_cg_cp_rd_b15+0x40>
    17a0:	4940246f          	jal	x8,3c34 <failedtest_x8_x7>
    17a4:	0000176c          	.word	0x0000176c
    17a8:	00008bdd          	.word	0x00008bdd
    17ac:	004a8a93          	addi	x21,x21,4
    17b0:	00000013          	addi	x0,x0,0
    17b4:	00000013          	addi	x0,x0,0
    17b8:	00000013          	addi	x0,x0,0
    17bc:	00000013          	addi	x0,x0,0

# Testcase cp_rd (Test destination rd = x16)
  LA(x4, 1f) # load jump target address
    17c0:	00000217          	auipc	x4,0x0
    17c4:	03420213          	addi	x4,x4,52 # 17f4 <I_jalr_cg_cp_rd_b16+0x8>
    17c8:	00000013          	addi	x0,x0,0
    17cc:	00000013          	addi	x0,x0,0
    17d0:	00000013          	addi	x0,x0,0
    17d4:	00000013          	addi	x0,x0,0
    17d8:	00000013          	addi	x0,x0,0
    17dc:	00000013          	addi	x0,x0,0
  RVTEST_TESTDATA_LOAD_INT(x20, x22) # load jump check value: x22 = 0x6bf3fc6c
    17e0:	000a2b03          	lw	x22,0(x20)
    17e4:	004a0a13          	addi	x20,x20,4
  addi x4, x4, 1013 # adjust base address for offset
    17e8:	3f520213          	addi	x4,x4,1013 # 3f5 <I_jalr_cg_cp_rs1_nx0_b8+0x9>

000017ec <I_jalr_cg_cp_rd_b16>:
I_jalr_cg_cp_rd_b16:
  jalr x16, x4, -1013 # perform jump with offset
    17ec:	c0b20867          	jalr	x16,-1013(x4) # fffffc0b <absimm+0x90a35902>
  addi x22, x22, -4 # should not execute
    17f0:	ffcb0b13          	addi	x22,x22,-4
1:
  addi x22, x22, 2 # should execute
    17f4:	002b0b13          	addi	x22,x22,2
  # Check if x22 contains the expected result. x21 is the signature ptr, x8 is the link ptr, x7 is a temp reg.
  RVTEST_SIGUPD(x21, x8, x7, x22, I_jalr_cg_cp_rd_b16, I_jalr_cg_cp_rd_b16_str)
    17f8:	000aa383          	lw	x7,0(x21)
    17fc:	01638863          	beq	x7,x22,180c <I_jalr_cg_cp_rd_b16+0x20>
    1800:	4340246f          	jal	x8,3c34 <failedtest_x8_x7>
    1804:	000017ec          	.word	0x000017ec
    1808:	00008c0c          	.word	0x00008c0c
    180c:	004a8a93          	addi	x21,x21,4
  auipc x22, 0 # get current PC
    1810:	00000b17          	auipc	x22,0x0
  sub x16, x16, x22 # subtract current PC to make position-independent
    1814:	41680833          	sub	x16,x16,x22
  # Check if x16 contains the expected result. x21 is the signature ptr, x8 is the link ptr, x7 is a temp reg.
  RVTEST_SIGUPD(x21, x8, x7, x16, I_jalr_cg_cp_rd_b16, I_jalr_cg_cp_rd_b16_str)
    1818:	000aa383          	lw	x7,0(x21)
    181c:	01038863          	beq	x7,x16,182c <I_jalr_cg_cp_rd_b16+0x40>
    1820:	4140246f          	jal	x8,3c34 <failedtest_x8_x7>
    1824:	000017ec          	.word	0x000017ec
    1828:	00008c0c          	.word	0x00008c0c
    182c:	004a8a93          	addi	x21,x21,4
    1830:	00000013          	addi	x0,x0,0
    1834:	00000013          	addi	x0,x0,0
    1838:	00000013          	addi	x0,x0,0
    183c:	00000013          	addi	x0,x0,0

# Testcase cp_rd (Test destination rd = x17)
  LA(x13, 1f) # load jump target address
    1840:	00000697          	auipc	x13,0x0
    1844:	03468693          	addi	x13,x13,52 # 1874 <I_jalr_cg_cp_rd_b17+0x8>
    1848:	00000013          	addi	x0,x0,0
    184c:	00000013          	addi	x0,x0,0
    1850:	00000013          	addi	x0,x0,0
    1854:	00000013          	addi	x0,x0,0
    1858:	00000013          	addi	x0,x0,0
    185c:	00000013          	addi	x0,x0,0
  RVTEST_TESTDATA_LOAD_INT(x20, x1) # load jump check value: x1 = 0xa82df77b
    1860:	000a2083          	lw	x1,0(x20)
    1864:	004a0a13          	addi	x20,x20,4
  addi x13, x13, 1436 # adjust base address for offset
    1868:	59c68693          	addi	x13,x13,1436

0000186c <I_jalr_cg_cp_rd_b17>:
I_jalr_cg_cp_rd_b17:
  jalr x17, x13, -1436 # perform jump with offset
    186c:	a64688e7          	jalr	x17,-1436(x13)
  addi x1, x1, -4 # should not execute
    1870:	ffc08093          	addi	x1,x1,-4 # 138c <I_jalr_cg_cp_rd_b7+0x20>
1:
  addi x1, x1, 2 # should execute
    1874:	00208093          	addi	x1,x1,2
  # Check if x1 contains the expected result. x21 is the signature ptr, x8 is the link ptr, x7 is a temp reg.
  RVTEST_SIGUPD(x21, x8, x7, x1, I_jalr_cg_cp_rd_b17, I_jalr_cg_cp_rd_b17_str)
    1878:	000aa383          	lw	x7,0(x21)
    187c:	00138863          	beq	x7,x1,188c <I_jalr_cg_cp_rd_b17+0x20>
    1880:	3b40246f          	jal	x8,3c34 <failedtest_x8_x7>
    1884:	0000186c          	.word	0x0000186c
    1888:	00008c3b          	.word	0x00008c3b
    188c:	004a8a93          	addi	x21,x21,4
  auipc x1, 0 # get current PC
    1890:	00000097          	auipc	x1,0x0
  sub x17, x17, x1 # subtract current PC to make position-independent
    1894:	401888b3          	sub	x17,x17,x1
  # Check if x17 contains the expected result. x21 is the signature ptr, x8 is the link ptr, x7 is a temp reg.
  RVTEST_SIGUPD(x21, x8, x7, x17, I_jalr_cg_cp_rd_b17, I_jalr_cg_cp_rd_b17_str)
    1898:	000aa383          	lw	x7,0(x21)
    189c:	01138863          	beq	x7,x17,18ac <I_jalr_cg_cp_rd_b17+0x40>
    18a0:	3940246f          	jal	x8,3c34 <failedtest_x8_x7>
    18a4:	0000186c          	.word	0x0000186c
    18a8:	00008c3b          	.word	0x00008c3b
    18ac:	004a8a93          	addi	x21,x21,4
    18b0:	00000013          	addi	x0,x0,0
    18b4:	00000013          	addi	x0,x0,0
    18b8:	00000013          	addi	x0,x0,0
    18bc:	00000013          	addi	x0,x0,0

# Testcase cp_rd (Test destination rd = x18)
  LA(x25, 1f) # load jump target address
    18c0:	00000c97          	auipc	x25,0x0
    18c4:	034c8c93          	addi	x25,x25,52 # 18f4 <I_jalr_cg_cp_rd_b18+0x8>
    18c8:	00000013          	addi	x0,x0,0
    18cc:	00000013          	addi	x0,x0,0
    18d0:	00000013          	addi	x0,x0,0
    18d4:	00000013          	addi	x0,x0,0
    18d8:	00000013          	addi	x0,x0,0
    18dc:	00000013          	addi	x0,x0,0
  RVTEST_TESTDATA_LOAD_INT(x20, x19) # load jump check value: x19 = 0x62791959
    18e0:	000a2983          	lw	x19,0(x20)
    18e4:	004a0a13          	addi	x20,x20,4
  addi x25, x25, 182 # adjust base address for offset
    18e8:	0b6c8c93          	addi	x25,x25,182

000018ec <I_jalr_cg_cp_rd_b18>:
I_jalr_cg_cp_rd_b18:
  jalr x18, x25, -182 # perform jump with offset
    18ec:	f4ac8967          	jalr	x18,-182(x25)
  addi x19, x19, -4 # should not execute
    18f0:	ffc98993          	addi	x19,x19,-4
1:
  addi x19, x19, 2 # should execute
    18f4:	00298993          	addi	x19,x19,2
  # Check if x19 contains the expected result. x21 is the signature ptr, x8 is the link ptr, x7 is a temp reg.
  RVTEST_SIGUPD(x21, x8, x7, x19, I_jalr_cg_cp_rd_b18, I_jalr_cg_cp_rd_b18_str)
    18f8:	000aa383          	lw	x7,0(x21)
    18fc:	01338863          	beq	x7,x19,190c <I_jalr_cg_cp_rd_b18+0x20>
    1900:	3340246f          	jal	x8,3c34 <failedtest_x8_x7>
    1904:	000018ec          	.word	0x000018ec
    1908:	00008c6a          	.word	0x00008c6a
    190c:	004a8a93          	addi	x21,x21,4
  auipc x19, 0 # get current PC
    1910:	00000997          	auipc	x19,0x0
  sub x18, x18, x19 # subtract current PC to make position-independent
    1914:	41390933          	sub	x18,x18,x19
  # Check if x18 contains the expected result. x21 is the signature ptr, x8 is the link ptr, x7 is a temp reg.
  RVTEST_SIGUPD(x21, x8, x7, x18, I_jalr_cg_cp_rd_b18, I_jalr_cg_cp_rd_b18_str)
    1918:	000aa383          	lw	x7,0(x21)
    191c:	01238863          	beq	x7,x18,192c <I_jalr_cg_cp_rd_b18+0x40>
    1920:	3140246f          	jal	x8,3c34 <failedtest_x8_x7>
    1924:	000018ec          	.word	0x000018ec
    1928:	00008c6a          	.word	0x00008c6a
    192c:	004a8a93          	addi	x21,x21,4
    1930:	00000013          	addi	x0,x0,0
    1934:	00000013          	addi	x0,x0,0
    1938:	00000013          	addi	x0,x0,0
    193c:	00000013          	addi	x0,x0,0

# Testcase cp_rd (Test destination rd = x19)
  LA(x12, 1f) # load jump target address
    1940:	00000617          	auipc	x12,0x0
    1944:	03460613          	addi	x12,x12,52 # 1974 <I_jalr_cg_cp_rd_b19+0x8>
    1948:	00000013          	addi	x0,x0,0
    194c:	00000013          	addi	x0,x0,0
    1950:	00000013          	addi	x0,x0,0
    1954:	00000013          	addi	x0,x0,0
    1958:	00000013          	addi	x0,x0,0
    195c:	00000013          	addi	x0,x0,0
  RVTEST_TESTDATA_LOAD_INT(x20, x13) # load jump check value: x13 = 0x37718d84
    1960:	000a2683          	lw	x13,0(x20)
    1964:	004a0a13          	addi	x20,x20,4
  addi x12, x12, 314 # adjust base address for offset
    1968:	13a60613          	addi	x12,x12,314

0000196c <I_jalr_cg_cp_rd_b19>:
I_jalr_cg_cp_rd_b19:
  jalr x19, x12, -314 # perform jump with offset
    196c:	ec6609e7          	jalr	x19,-314(x12)
  addi x13, x13, -4 # should not execute
    1970:	ffc68693          	addi	x13,x13,-4
1:
  addi x13, x13, 2 # should execute
    1974:	00268693          	addi	x13,x13,2
  # Check if x13 contains the expected result. x21 is the signature ptr, x8 is the link ptr, x7 is a temp reg.
  RVTEST_SIGUPD(x21, x8, x7, x13, I_jalr_cg_cp_rd_b19, I_jalr_cg_cp_rd_b19_str)
    1978:	000aa383          	lw	x7,0(x21)
    197c:	00d38863          	beq	x7,x13,198c <I_jalr_cg_cp_rd_b19+0x20>
    1980:	2b40246f          	jal	x8,3c34 <failedtest_x8_x7>
    1984:	0000196c          	.word	0x0000196c
    1988:	00008c99          	.word	0x00008c99
    198c:	004a8a93          	addi	x21,x21,4
  auipc x13, 0 # get current PC
    1990:	00000697          	auipc	x13,0x0
  sub x19, x19, x13 # subtract current PC to make position-independent
    1994:	40d989b3          	sub	x19,x19,x13
  # Check if x19 contains the expected result. x21 is the signature ptr, x8 is the link ptr, x7 is a temp reg.
  RVTEST_SIGUPD(x21, x8, x7, x19, I_jalr_cg_cp_rd_b19, I_jalr_cg_cp_rd_b19_str)
    1998:	000aa383          	lw	x7,0(x21)
    199c:	01338863          	beq	x7,x19,19ac <I_jalr_cg_cp_rd_b19+0x40>
    19a0:	2940246f          	jal	x8,3c34 <failedtest_x8_x7>
    19a4:	0000196c          	.word	0x0000196c
    19a8:	00008c99          	.word	0x00008c99
    19ac:	004a8a93          	addi	x21,x21,4

  mv x16, x20 # switch data pointer register to avoid conflict with test
    19b0:	000a0813          	addi	x16,x20,0
    19b4:	00000013          	addi	x0,x0,0
    19b8:	00000013          	addi	x0,x0,0
    19bc:	00000013          	addi	x0,x0,0
# Testcase cp_rd (Test destination rd = x20)
  LA(x4, 1f) # load jump target address
    19c0:	00000217          	auipc	x4,0x0
    19c4:	03420213          	addi	x4,x4,52 # 19f4 <I_jalr_cg_cp_rd_b20+0x8>
    19c8:	00000013          	addi	x0,x0,0
    19cc:	00000013          	addi	x0,x0,0
    19d0:	00000013          	addi	x0,x0,0
    19d4:	00000013          	addi	x0,x0,0
    19d8:	00000013          	addi	x0,x0,0
    19dc:	00000013          	addi	x0,x0,0
  RVTEST_TESTDATA_LOAD_INT(x16, x26) # load jump check value: x26 = 0xe74fd0bd
    19e0:	00082d03          	lw	x26,0(x16) # 1610 <I_jalr_cg_cp_rd_b12+0x24>
    19e4:	00480813          	addi	x16,x16,4
  addi x4, x4, -1795 # adjust base address for offset
    19e8:	8fd20213          	addi	x4,x4,-1795 # fffff8fd <absimm+0x90a355f4>

000019ec <I_jalr_cg_cp_rd_b20>:
I_jalr_cg_cp_rd_b20:
  jalr x20, x4, 1795 # perform jump with offset
    19ec:	70320a67          	jalr	x20,1795(x4) # 703 <I_jalr_cg_cp_rs1_nx0_b14+0x17>
  addi x26, x26, -4 # should not execute
    19f0:	ffcd0d13          	addi	x26,x26,-4
1:
  addi x26, x26, 2 # should execute
    19f4:	002d0d13          	addi	x26,x26,2
  # Check if x26 contains the expected result. x21 is the signature ptr, x8 is the link ptr, x7 is a temp reg.
  RVTEST_SIGUPD(x21, x8, x7, x26, I_jalr_cg_cp_rd_b20, I_jalr_cg_cp_rd_b20_str)
    19f8:	000aa383          	lw	x7,0(x21)
    19fc:	01a38863          	beq	x7,x26,1a0c <I_jalr_cg_cp_rd_b20+0x20>
    1a00:	2340246f          	jal	x8,3c34 <failedtest_x8_x7>
    1a04:	000019ec          	.word	0x000019ec
    1a08:	00008cc8          	.word	0x00008cc8
    1a0c:	004a8a93          	addi	x21,x21,4
  auipc x26, 0 # get current PC
    1a10:	00000d17          	auipc	x26,0x0
  sub x20, x20, x26 # subtract current PC to make position-independent
    1a14:	41aa0a33          	sub	x20,x20,x26
  # Check if x20 contains the expected result. x21 is the signature ptr, x8 is the link ptr, x7 is a temp reg.
  RVTEST_SIGUPD(x21, x8, x7, x20, I_jalr_cg_cp_rd_b20, I_jalr_cg_cp_rd_b20_str)
    1a18:	000aa383          	lw	x7,0(x21)
    1a1c:	01438863          	beq	x7,x20,1a2c <I_jalr_cg_cp_rd_b20+0x40>
    1a20:	2140246f          	jal	x8,3c34 <failedtest_x8_x7>
    1a24:	000019ec          	.word	0x000019ec
    1a28:	00008cc8          	.word	0x00008cc8
    1a2c:	004a8a93          	addi	x21,x21,4

  mv x15, x21 # switch signature pointer register to avoid conflict with test
    1a30:	000a8793          	addi	x15,x21,0
    1a34:	00000013          	addi	x0,x0,0
    1a38:	00000013          	addi	x0,x0,0
    1a3c:	00000013          	addi	x0,x0,0
# Testcase cp_rd (Test destination rd = x21)
  LA(x31, 1f) # load jump target address
    1a40:	00000f97          	auipc	x31,0x0
    1a44:	034f8f93          	addi	x31,x31,52 # 1a74 <I_jalr_cg_cp_rd_b21+0x8>
    1a48:	00000013          	addi	x0,x0,0
    1a4c:	00000013          	addi	x0,x0,0
    1a50:	00000013          	addi	x0,x0,0
    1a54:	00000013          	addi	x0,x0,0
    1a58:	00000013          	addi	x0,x0,0
    1a5c:	00000013          	addi	x0,x0,0
  RVTEST_TESTDATA_LOAD_INT(x16, x1) # load jump check value: x1 = 0xe0cfe8b1
    1a60:	00082083          	lw	x1,0(x16)
    1a64:	00480813          	addi	x16,x16,4
  addi x31, x31, 1892 # adjust base address for offset
    1a68:	764f8f93          	addi	x31,x31,1892

00001a6c <I_jalr_cg_cp_rd_b21>:
I_jalr_cg_cp_rd_b21:
  jalr x21, x31, -1892 # perform jump with offset
    1a6c:	89cf8ae7          	jalr	x21,-1892(x31)
  addi x1, x1, -4 # should not execute
    1a70:	ffc08093          	addi	x1,x1,-4 # 188c <I_jalr_cg_cp_rd_b17+0x20>
1:
  addi x1, x1, 2 # should execute
    1a74:	00208093          	addi	x1,x1,2
  # Check if x1 contains the expected result. x15 is the signature ptr, x8 is the link ptr, x7 is a temp reg.
  RVTEST_SIGUPD(x15, x8, x7, x1, I_jalr_cg_cp_rd_b21, I_jalr_cg_cp_rd_b21_str)
    1a78:	0007a383          	lw	x7,0(x15) # f90 <I_jalr_cg_cp_rs1_nx0_b31+0x24>
    1a7c:	00138863          	beq	x7,x1,1a8c <I_jalr_cg_cp_rd_b21+0x20>
    1a80:	1b40246f          	jal	x8,3c34 <failedtest_x8_x7>
    1a84:	00001a6c          	.word	0x00001a6c
    1a88:	00008cf7          	.word	0x00008cf7
    1a8c:	00478793          	addi	x15,x15,4
  auipc x1, 0 # get current PC
    1a90:	00000097          	auipc	x1,0x0
  sub x21, x21, x1 # subtract current PC to make position-independent
    1a94:	401a8ab3          	sub	x21,x21,x1
  # Check if x21 contains the expected result. x15 is the signature ptr, x8 is the link ptr, x7 is a temp reg.
  RVTEST_SIGUPD(x15, x8, x7, x21, I_jalr_cg_cp_rd_b21, I_jalr_cg_cp_rd_b21_str)
    1a98:	0007a383          	lw	x7,0(x15)
    1a9c:	01538863          	beq	x7,x21,1aac <I_jalr_cg_cp_rd_b21+0x40>
    1aa0:	1940246f          	jal	x8,3c34 <failedtest_x8_x7>
    1aa4:	00001a6c          	.word	0x00001a6c
    1aa8:	00008cf7          	.word	0x00008cf7
    1aac:	00478793          	addi	x15,x15,4
    1ab0:	00000013          	addi	x0,x0,0
    1ab4:	00000013          	addi	x0,x0,0
    1ab8:	00000013          	addi	x0,x0,0
    1abc:	00000013          	addi	x0,x0,0

# Testcase cp_rd (Test destination rd = x22)
  LA(x10, 1f) # load jump target address
    1ac0:	00000517          	auipc	x10,0x0
    1ac4:	03450513          	addi	x10,x10,52 # 1af4 <I_jalr_cg_cp_rd_b22+0x8>
    1ac8:	00000013          	addi	x0,x0,0
    1acc:	00000013          	addi	x0,x0,0
    1ad0:	00000013          	addi	x0,x0,0
    1ad4:	00000013          	addi	x0,x0,0
    1ad8:	00000013          	addi	x0,x0,0
    1adc:	00000013          	addi	x0,x0,0
  RVTEST_TESTDATA_LOAD_INT(x16, x29) # load jump check value: x29 = 0x5ee78895
    1ae0:	00082e83          	lw	x29,0(x16)
    1ae4:	00480813          	addi	x16,x16,4
  addi x10, x10, 1268 # adjust base address for offset
    1ae8:	4f450513          	addi	x10,x10,1268

00001aec <I_jalr_cg_cp_rd_b22>:
I_jalr_cg_cp_rd_b22:
  jalr x22, x10, -1268 # perform jump with offset
    1aec:	b0c50b67          	jalr	x22,-1268(x10)
  addi x29, x29, -4 # should not execute
    1af0:	ffce8e93          	addi	x29,x29,-4
1:
  addi x29, x29, 2 # should execute
    1af4:	002e8e93          	addi	x29,x29,2
  # Check if x29 contains the expected result. x15 is the signature ptr, x8 is the link ptr, x7 is a temp reg.
  RVTEST_SIGUPD(x15, x8, x7, x29, I_jalr_cg_cp_rd_b22, I_jalr_cg_cp_rd_b22_str)
    1af8:	0007a383          	lw	x7,0(x15)
    1afc:	01d38863          	beq	x7,x29,1b0c <I_jalr_cg_cp_rd_b22+0x20>
    1b00:	1340246f          	jal	x8,3c34 <failedtest_x8_x7>
    1b04:	00001aec          	.word	0x00001aec
    1b08:	00008d26          	.word	0x00008d26
    1b0c:	00478793          	addi	x15,x15,4
  auipc x29, 0 # get current PC
    1b10:	00000e97          	auipc	x29,0x0
  sub x22, x22, x29 # subtract current PC to make position-independent
    1b14:	41db0b33          	sub	x22,x22,x29
  # Check if x22 contains the expected result. x15 is the signature ptr, x8 is the link ptr, x7 is a temp reg.
  RVTEST_SIGUPD(x15, x8, x7, x22, I_jalr_cg_cp_rd_b22, I_jalr_cg_cp_rd_b22_str)
    1b18:	0007a383          	lw	x7,0(x15)
    1b1c:	01638863          	beq	x7,x22,1b2c <I_jalr_cg_cp_rd_b22+0x40>
    1b20:	1140246f          	jal	x8,3c34 <failedtest_x8_x7>
    1b24:	00001aec          	.word	0x00001aec
    1b28:	00008d26          	.word	0x00008d26
    1b2c:	00478793          	addi	x15,x15,4
    1b30:	00000013          	addi	x0,x0,0
    1b34:	00000013          	addi	x0,x0,0
    1b38:	00000013          	addi	x0,x0,0
    1b3c:	00000013          	addi	x0,x0,0

# Testcase cp_rd (Test destination rd = x23)
  LA(x26, 1f) # load jump target address
    1b40:	00000d17          	auipc	x26,0x0
    1b44:	034d0d13          	addi	x26,x26,52 # 1b74 <I_jalr_cg_cp_rd_b23+0x8>
    1b48:	00000013          	addi	x0,x0,0
    1b4c:	00000013          	addi	x0,x0,0
    1b50:	00000013          	addi	x0,x0,0
    1b54:	00000013          	addi	x0,x0,0
    1b58:	00000013          	addi	x0,x0,0
    1b5c:	00000013          	addi	x0,x0,0
  RVTEST_TESTDATA_LOAD_INT(x16, x9) # load jump check value: x9 = 0x68632f97
    1b60:	00082483          	lw	x9,0(x16)
    1b64:	00480813          	addi	x16,x16,4
  addi x26, x26, 282 # adjust base address for offset
    1b68:	11ad0d13          	addi	x26,x26,282

00001b6c <I_jalr_cg_cp_rd_b23>:
I_jalr_cg_cp_rd_b23:
  jalr x23, x26, -282 # perform jump with offset
    1b6c:	ee6d0be7          	jalr	x23,-282(x26)
  addi x9, x9, -4 # should not execute
    1b70:	ffc48493          	addi	x9,x9,-4
1:
  addi x9, x9, 2 # should execute
    1b74:	00248493          	addi	x9,x9,2
  # Check if x9 contains the expected result. x15 is the signature ptr, x8 is the link ptr, x7 is a temp reg.
  RVTEST_SIGUPD(x15, x8, x7, x9, I_jalr_cg_cp_rd_b23, I_jalr_cg_cp_rd_b23_str)
    1b78:	0007a383          	lw	x7,0(x15)
    1b7c:	00938863          	beq	x7,x9,1b8c <I_jalr_cg_cp_rd_b23+0x20>
    1b80:	0b40246f          	jal	x8,3c34 <failedtest_x8_x7>
    1b84:	00001b6c          	.word	0x00001b6c
    1b88:	00008d55          	.word	0x00008d55
    1b8c:	00478793          	addi	x15,x15,4
  auipc x9, 0 # get current PC
    1b90:	00000497          	auipc	x9,0x0
  sub x23, x23, x9 # subtract current PC to make position-independent
    1b94:	409b8bb3          	sub	x23,x23,x9
  # Check if x23 contains the expected result. x15 is the signature ptr, x8 is the link ptr, x7 is a temp reg.
  RVTEST_SIGUPD(x15, x8, x7, x23, I_jalr_cg_cp_rd_b23, I_jalr_cg_cp_rd_b23_str)
    1b98:	0007a383          	lw	x7,0(x15)
    1b9c:	01738863          	beq	x7,x23,1bac <I_jalr_cg_cp_rd_b23+0x40>
    1ba0:	0940246f          	jal	x8,3c34 <failedtest_x8_x7>
    1ba4:	00001b6c          	.word	0x00001b6c
    1ba8:	00008d55          	.word	0x00008d55
    1bac:	00478793          	addi	x15,x15,4
    1bb0:	00000013          	addi	x0,x0,0
    1bb4:	00000013          	addi	x0,x0,0
    1bb8:	00000013          	addi	x0,x0,0
    1bbc:	00000013          	addi	x0,x0,0

# Testcase cp_rd (Test destination rd = x24)
  LA(x2, 1f) # load jump target address
    1bc0:	00000117          	auipc	x2,0x0
    1bc4:	03410113          	addi	x2,x2,52 # 1bf4 <I_jalr_cg_cp_rd_b24+0x8>
    1bc8:	00000013          	addi	x0,x0,0
    1bcc:	00000013          	addi	x0,x0,0
    1bd0:	00000013          	addi	x0,x0,0
    1bd4:	00000013          	addi	x0,x0,0
    1bd8:	00000013          	addi	x0,x0,0
    1bdc:	00000013          	addi	x0,x0,0
  RVTEST_TESTDATA_LOAD_INT(x16, x29) # load jump check value: x29 = 0x1da2f617
    1be0:	00082e83          	lw	x29,0(x16)
    1be4:	00480813          	addi	x16,x16,4
  addi x2, x2, 107 # adjust base address for offset
    1be8:	06b10113          	addi	x2,x2,107

00001bec <I_jalr_cg_cp_rd_b24>:
I_jalr_cg_cp_rd_b24:
  jalr x24, x2, -107 # perform jump with offset
    1bec:	f9510c67          	jalr	x24,-107(x2)
  addi x29, x29, -4 # should not execute
    1bf0:	ffce8e93          	addi	x29,x29,-4 # 1b0c <I_jalr_cg_cp_rd_b22+0x20>
1:
  addi x29, x29, 2 # should execute
    1bf4:	002e8e93          	addi	x29,x29,2
  # Check if x29 contains the expected result. x15 is the signature ptr, x8 is the link ptr, x7 is a temp reg.
  RVTEST_SIGUPD(x15, x8, x7, x29, I_jalr_cg_cp_rd_b24, I_jalr_cg_cp_rd_b24_str)
    1bf8:	0007a383          	lw	x7,0(x15)
    1bfc:	01d38863          	beq	x7,x29,1c0c <I_jalr_cg_cp_rd_b24+0x20>
    1c00:	0340246f          	jal	x8,3c34 <failedtest_x8_x7>
    1c04:	00001bec          	.word	0x00001bec
    1c08:	00008d84          	.word	0x00008d84
    1c0c:	00478793          	addi	x15,x15,4
  auipc x29, 0 # get current PC
    1c10:	00000e97          	auipc	x29,0x0
  sub x24, x24, x29 # subtract current PC to make position-independent
    1c14:	41dc0c33          	sub	x24,x24,x29
  # Check if x24 contains the expected result. x15 is the signature ptr, x8 is the link ptr, x7 is a temp reg.
  RVTEST_SIGUPD(x15, x8, x7, x24, I_jalr_cg_cp_rd_b24, I_jalr_cg_cp_rd_b24_str)
    1c18:	0007a383          	lw	x7,0(x15)
    1c1c:	01838863          	beq	x7,x24,1c2c <I_jalr_cg_cp_rd_b24+0x40>
    1c20:	0140246f          	jal	x8,3c34 <failedtest_x8_x7>
    1c24:	00001bec          	.word	0x00001bec
    1c28:	00008d84          	.word	0x00008d84
    1c2c:	00478793          	addi	x15,x15,4
    1c30:	00000013          	addi	x0,x0,0
    1c34:	00000013          	addi	x0,x0,0
    1c38:	00000013          	addi	x0,x0,0
    1c3c:	00000013          	addi	x0,x0,0

# Testcase cp_rd (Test destination rd = x25)
  LA(x30, 1f) # load jump target address
    1c40:	00000f17          	auipc	x30,0x0
    1c44:	034f0f13          	addi	x30,x30,52 # 1c74 <I_jalr_cg_cp_rd_b25+0x8>
    1c48:	00000013          	addi	x0,x0,0
    1c4c:	00000013          	addi	x0,x0,0
    1c50:	00000013          	addi	x0,x0,0
    1c54:	00000013          	addi	x0,x0,0
    1c58:	00000013          	addi	x0,x0,0
    1c5c:	00000013          	addi	x0,x0,0
  RVTEST_TESTDATA_LOAD_INT(x16, x4) # load jump check value: x4 = 0xdf463478
    1c60:	00082203          	lw	x4,0(x16)
    1c64:	00480813          	addi	x16,x16,4
  addi x30, x30, -594 # adjust base address for offset
    1c68:	daef0f13          	addi	x30,x30,-594

00001c6c <I_jalr_cg_cp_rd_b25>:
I_jalr_cg_cp_rd_b25:
  jalr x25, x30, 594 # perform jump with offset
    1c6c:	252f0ce7          	jalr	x25,594(x30)
  addi x4, x4, -4 # should not execute
    1c70:	ffc20213          	addi	x4,x4,-4 # fffffffc <absimm+0x90a35cf3>
1:
  addi x4, x4, 2 # should execute
    1c74:	00220213          	addi	x4,x4,2 # 2 <VMODE_SIG>
  # Check if x4 contains the expected result. x15 is the signature ptr, x8 is the link ptr, x7 is a temp reg.
  RVTEST_SIGUPD(x15, x8, x7, x4, I_jalr_cg_cp_rd_b25, I_jalr_cg_cp_rd_b25_str)
    1c78:	0007a383          	lw	x7,0(x15)
    1c7c:	00438863          	beq	x7,x4,1c8c <I_jalr_cg_cp_rd_b25+0x20>
    1c80:	7b50146f          	jal	x8,3c34 <failedtest_x8_x7>
    1c84:	00001c6c          	.word	0x00001c6c
    1c88:	00008db3          	.word	0x00008db3
    1c8c:	00478793          	addi	x15,x15,4
  auipc x4, 0 # get current PC
    1c90:	00000217          	auipc	x4,0x0
  sub x25, x25, x4 # subtract current PC to make position-independent
    1c94:	404c8cb3          	sub	x25,x25,x4
  # Check if x25 contains the expected result. x15 is the signature ptr, x8 is the link ptr, x7 is a temp reg.
  RVTEST_SIGUPD(x15, x8, x7, x25, I_jalr_cg_cp_rd_b25, I_jalr_cg_cp_rd_b25_str)
    1c98:	0007a383          	lw	x7,0(x15)
    1c9c:	01938863          	beq	x7,x25,1cac <I_jalr_cg_cp_rd_b25+0x40>
    1ca0:	7950146f          	jal	x8,3c34 <failedtest_x8_x7>
    1ca4:	00001c6c          	.word	0x00001c6c
    1ca8:	00008db3          	.word	0x00008db3
    1cac:	00478793          	addi	x15,x15,4
    1cb0:	00000013          	addi	x0,x0,0
    1cb4:	00000013          	addi	x0,x0,0
    1cb8:	00000013          	addi	x0,x0,0
    1cbc:	00000013          	addi	x0,x0,0

# Testcase cp_rd (Test destination rd = x26)
  LA(x1, 1f) # load jump target address
    1cc0:	00000097          	auipc	x1,0x0
    1cc4:	03408093          	addi	x1,x1,52 # 1cf4 <I_jalr_cg_cp_rd_b26+0x8>
    1cc8:	00000013          	addi	x0,x0,0
    1ccc:	00000013          	addi	x0,x0,0
    1cd0:	00000013          	addi	x0,x0,0
    1cd4:	00000013          	addi	x0,x0,0
    1cd8:	00000013          	addi	x0,x0,0
    1cdc:	00000013          	addi	x0,x0,0
  RVTEST_TESTDATA_LOAD_INT(x16, x30) # load jump check value: x30 = 0x65adcabb
    1ce0:	00082f03          	lw	x30,0(x16)
    1ce4:	00480813          	addi	x16,x16,4
  addi x1, x1, 1482 # adjust base address for offset
    1ce8:	5ca08093          	addi	x1,x1,1482

00001cec <I_jalr_cg_cp_rd_b26>:
I_jalr_cg_cp_rd_b26:
  jalr x26, x1, -1482 # perform jump with offset
    1cec:	a3608d67          	jalr	x26,-1482(x1)
  addi x30, x30, -4 # should not execute
    1cf0:	ffcf0f13          	addi	x30,x30,-4
1:
  addi x30, x30, 2 # should execute
    1cf4:	002f0f13          	addi	x30,x30,2
  # Check if x30 contains the expected result. x15 is the signature ptr, x8 is the link ptr, x7 is a temp reg.
  RVTEST_SIGUPD(x15, x8, x7, x30, I_jalr_cg_cp_rd_b26, I_jalr_cg_cp_rd_b26_str)
    1cf8:	0007a383          	lw	x7,0(x15)
    1cfc:	01e38863          	beq	x7,x30,1d0c <I_jalr_cg_cp_rd_b26+0x20>
    1d00:	7350146f          	jal	x8,3c34 <failedtest_x8_x7>
    1d04:	00001cec          	.word	0x00001cec
    1d08:	00008de2          	.word	0x00008de2
    1d0c:	00478793          	addi	x15,x15,4
  auipc x30, 0 # get current PC
    1d10:	00000f17          	auipc	x30,0x0
  sub x26, x26, x30 # subtract current PC to make position-independent
    1d14:	41ed0d33          	sub	x26,x26,x30
  # Check if x26 contains the expected result. x15 is the signature ptr, x8 is the link ptr, x7 is a temp reg.
  RVTEST_SIGUPD(x15, x8, x7, x26, I_jalr_cg_cp_rd_b26, I_jalr_cg_cp_rd_b26_str)
    1d18:	0007a383          	lw	x7,0(x15)
    1d1c:	01a38863          	beq	x7,x26,1d2c <I_jalr_cg_cp_rd_b26+0x40>
    1d20:	7150146f          	jal	x8,3c34 <failedtest_x8_x7>
    1d24:	00001cec          	.word	0x00001cec
    1d28:	00008de2          	.word	0x00008de2
    1d2c:	00478793          	addi	x15,x15,4
    1d30:	00000013          	addi	x0,x0,0
    1d34:	00000013          	addi	x0,x0,0
    1d38:	00000013          	addi	x0,x0,0
    1d3c:	00000013          	addi	x0,x0,0

# Testcase cp_rd (Test destination rd = x27)
  LA(x9, 1f) # load jump target address
    1d40:	00000497          	auipc	x9,0x0
    1d44:	03448493          	addi	x9,x9,52 # 1d74 <I_jalr_cg_cp_rd_b27+0x8>
    1d48:	00000013          	addi	x0,x0,0
    1d4c:	00000013          	addi	x0,x0,0
    1d50:	00000013          	addi	x0,x0,0
    1d54:	00000013          	addi	x0,x0,0
    1d58:	00000013          	addi	x0,x0,0
    1d5c:	00000013          	addi	x0,x0,0
  RVTEST_TESTDATA_LOAD_INT(x16, x19) # load jump check value: x19 = 0x748918da
    1d60:	00082983          	lw	x19,0(x16)
    1d64:	00480813          	addi	x16,x16,4
  addi x9, x9, 107 # adjust base address for offset
    1d68:	06b48493          	addi	x9,x9,107

00001d6c <I_jalr_cg_cp_rd_b27>:
I_jalr_cg_cp_rd_b27:
  jalr x27, x9, -107 # perform jump with offset
    1d6c:	f9548de7          	jalr	x27,-107(x9)
  addi x19, x19, -4 # should not execute
    1d70:	ffc98993          	addi	x19,x19,-4 # 190c <I_jalr_cg_cp_rd_b18+0x20>
1:
  addi x19, x19, 2 # should execute
    1d74:	00298993          	addi	x19,x19,2
  # Check if x19 contains the expected result. x15 is the signature ptr, x8 is the link ptr, x7 is a temp reg.
  RVTEST_SIGUPD(x15, x8, x7, x19, I_jalr_cg_cp_rd_b27, I_jalr_cg_cp_rd_b27_str)
    1d78:	0007a383          	lw	x7,0(x15)
    1d7c:	01338863          	beq	x7,x19,1d8c <I_jalr_cg_cp_rd_b27+0x20>
    1d80:	6b50146f          	jal	x8,3c34 <failedtest_x8_x7>
    1d84:	00001d6c          	.word	0x00001d6c
    1d88:	00008e11          	.word	0x00008e11
    1d8c:	00478793          	addi	x15,x15,4
  auipc x19, 0 # get current PC
    1d90:	00000997          	auipc	x19,0x0
  sub x27, x27, x19 # subtract current PC to make position-independent
    1d94:	413d8db3          	sub	x27,x27,x19
  # Check if x27 contains the expected result. x15 is the signature ptr, x8 is the link ptr, x7 is a temp reg.
  RVTEST_SIGUPD(x15, x8, x7, x27, I_jalr_cg_cp_rd_b27, I_jalr_cg_cp_rd_b27_str)
    1d98:	0007a383          	lw	x7,0(x15)
    1d9c:	01b38863          	beq	x7,x27,1dac <I_jalr_cg_cp_rd_b27+0x40>
    1da0:	6950146f          	jal	x8,3c34 <failedtest_x8_x7>
    1da4:	00001d6c          	.word	0x00001d6c
    1da8:	00008e11          	.word	0x00008e11
    1dac:	00478793          	addi	x15,x15,4
    1db0:	00000013          	addi	x0,x0,0
    1db4:	00000013          	addi	x0,x0,0
    1db8:	00000013          	addi	x0,x0,0
    1dbc:	00000013          	addi	x0,x0,0

# Testcase cp_rd (Test destination rd = x28)
  LA(x14, 1f) # load jump target address
    1dc0:	00000717          	auipc	x14,0x0
    1dc4:	03470713          	addi	x14,x14,52 # 1df4 <I_jalr_cg_cp_rd_b28+0x8>
    1dc8:	00000013          	addi	x0,x0,0
    1dcc:	00000013          	addi	x0,x0,0
    1dd0:	00000013          	addi	x0,x0,0
    1dd4:	00000013          	addi	x0,x0,0
    1dd8:	00000013          	addi	x0,x0,0
    1ddc:	00000013          	addi	x0,x0,0
  RVTEST_TESTDATA_LOAD_INT(x16, x27) # load jump check value: x27 = 0x0a382863
    1de0:	00082d83          	lw	x27,0(x16)
    1de4:	00480813          	addi	x16,x16,4
  addi x14, x14, 979 # adjust base address for offset
    1de8:	3d370713          	addi	x14,x14,979

00001dec <I_jalr_cg_cp_rd_b28>:
I_jalr_cg_cp_rd_b28:
  jalr x28, x14, -979 # perform jump with offset
    1dec:	c2d70e67          	jalr	x28,-979(x14)
  addi x27, x27, -4 # should not execute
    1df0:	ffcd8d93          	addi	x27,x27,-4
1:
  addi x27, x27, 2 # should execute
    1df4:	002d8d93          	addi	x27,x27,2
  # Check if x27 contains the expected result. x15 is the signature ptr, x8 is the link ptr, x7 is a temp reg.
  RVTEST_SIGUPD(x15, x8, x7, x27, I_jalr_cg_cp_rd_b28, I_jalr_cg_cp_rd_b28_str)
    1df8:	0007a383          	lw	x7,0(x15)
    1dfc:	01b38863          	beq	x7,x27,1e0c <I_jalr_cg_cp_rd_b28+0x20>
    1e00:	6350146f          	jal	x8,3c34 <failedtest_x8_x7>
    1e04:	00001dec          	.word	0x00001dec
    1e08:	00008e40          	.word	0x00008e40
    1e0c:	00478793          	addi	x15,x15,4
  auipc x27, 0 # get current PC
    1e10:	00000d97          	auipc	x27,0x0
  sub x28, x28, x27 # subtract current PC to make position-independent
    1e14:	41be0e33          	sub	x28,x28,x27
  # Check if x28 contains the expected result. x15 is the signature ptr, x8 is the link ptr, x7 is a temp reg.
  RVTEST_SIGUPD(x15, x8, x7, x28, I_jalr_cg_cp_rd_b28, I_jalr_cg_cp_rd_b28_str)
    1e18:	0007a383          	lw	x7,0(x15)
    1e1c:	01c38863          	beq	x7,x28,1e2c <I_jalr_cg_cp_rd_b28+0x40>
    1e20:	6150146f          	jal	x8,3c34 <failedtest_x8_x7>
    1e24:	00001dec          	.word	0x00001dec
    1e28:	00008e40          	.word	0x00008e40
    1e2c:	00478793          	addi	x15,x15,4
    1e30:	00000013          	addi	x0,x0,0
    1e34:	00000013          	addi	x0,x0,0
    1e38:	00000013          	addi	x0,x0,0
    1e3c:	00000013          	addi	x0,x0,0

# Testcase cp_rd (Test destination rd = x29)
  LA(x11, 1f) # load jump target address
    1e40:	00000597          	auipc	x11,0x0
    1e44:	03458593          	addi	x11,x11,52 # 1e74 <I_jalr_cg_cp_rd_b29+0x8>
    1e48:	00000013          	addi	x0,x0,0
    1e4c:	00000013          	addi	x0,x0,0
    1e50:	00000013          	addi	x0,x0,0
    1e54:	00000013          	addi	x0,x0,0
    1e58:	00000013          	addi	x0,x0,0
    1e5c:	00000013          	addi	x0,x0,0
  RVTEST_TESTDATA_LOAD_INT(x16, x3) # load jump check value: x3 = 0xf94618f4
    1e60:	00082183          	lw	x3,0(x16)
    1e64:	00480813          	addi	x16,x16,4
  addi x11, x11, 464 # adjust base address for offset
    1e68:	1d058593          	addi	x11,x11,464

00001e6c <I_jalr_cg_cp_rd_b29>:
I_jalr_cg_cp_rd_b29:
  jalr x29, x11, -464 # perform jump with offset
    1e6c:	e3058ee7          	jalr	x29,-464(x11)
  addi x3, x3, -4 # should not execute
    1e70:	ffc18193          	addi	x3,x3,-4 # d0c <I_jalr_cg_cp_rs1_nx0_b26+0x20>
1:
  addi x3, x3, 2 # should execute
    1e74:	00218193          	addi	x3,x3,2
  # Check if x3 contains the expected result. x15 is the signature ptr, x8 is the link ptr, x7 is a temp reg.
  RVTEST_SIGUPD(x15, x8, x7, x3, I_jalr_cg_cp_rd_b29, I_jalr_cg_cp_rd_b29_str)
    1e78:	0007a383          	lw	x7,0(x15)
    1e7c:	00338863          	beq	x7,x3,1e8c <I_jalr_cg_cp_rd_b29+0x20>
    1e80:	5b50146f          	jal	x8,3c34 <failedtest_x8_x7>
    1e84:	00001e6c          	.word	0x00001e6c
    1e88:	00008e6f          	.word	0x00008e6f
    1e8c:	00478793          	addi	x15,x15,4
  auipc x3, 0 # get current PC
    1e90:	00000197          	auipc	x3,0x0
  sub x29, x29, x3 # subtract current PC to make position-independent
    1e94:	403e8eb3          	sub	x29,x29,x3
  # Check if x29 contains the expected result. x15 is the signature ptr, x8 is the link ptr, x7 is a temp reg.
  RVTEST_SIGUPD(x15, x8, x7, x29, I_jalr_cg_cp_rd_b29, I_jalr_cg_cp_rd_b29_str)
    1e98:	0007a383          	lw	x7,0(x15)
    1e9c:	01d38863          	beq	x7,x29,1eac <I_jalr_cg_cp_rd_b29+0x40>
    1ea0:	5950146f          	jal	x8,3c34 <failedtest_x8_x7>
    1ea4:	00001e6c          	.word	0x00001e6c
    1ea8:	00008e6f          	.word	0x00008e6f
    1eac:	00478793          	addi	x15,x15,4
    1eb0:	00000013          	addi	x0,x0,0
    1eb4:	00000013          	addi	x0,x0,0
    1eb8:	00000013          	addi	x0,x0,0
    1ebc:	00000013          	addi	x0,x0,0

# Testcase cp_rd (Test destination rd = x30)
  LA(x24, 1f) # load jump target address
    1ec0:	00000c17          	auipc	x24,0x0
    1ec4:	034c0c13          	addi	x24,x24,52 # 1ef4 <I_jalr_cg_cp_rd_b30+0x8>
    1ec8:	00000013          	addi	x0,x0,0
    1ecc:	00000013          	addi	x0,x0,0
    1ed0:	00000013          	addi	x0,x0,0
    1ed4:	00000013          	addi	x0,x0,0
    1ed8:	00000013          	addi	x0,x0,0
    1edc:	00000013          	addi	x0,x0,0
  RVTEST_TESTDATA_LOAD_INT(x16, x17) # load jump check value: x17 = 0x6c084bc9
    1ee0:	00082883          	lw	x17,0(x16)
    1ee4:	00480813          	addi	x16,x16,4
  addi x24, x24, -6 # adjust base address for offset
    1ee8:	ffac0c13          	addi	x24,x24,-6

00001eec <I_jalr_cg_cp_rd_b30>:
I_jalr_cg_cp_rd_b30:
  jalr x30, x24, 6 # perform jump with offset
    1eec:	006c0f67          	jalr	x30,6(x24)
  addi x17, x17, -4 # should not execute
    1ef0:	ffc88893          	addi	x17,x17,-4 # 168c <I_jalr_cg_cp_rd_b13+0x20>
1:
  addi x17, x17, 2 # should execute
    1ef4:	00288893          	addi	x17,x17,2
  # Check if x17 contains the expected result. x15 is the signature ptr, x8 is the link ptr, x7 is a temp reg.
  RVTEST_SIGUPD(x15, x8, x7, x17, I_jalr_cg_cp_rd_b30, I_jalr_cg_cp_rd_b30_str)
    1ef8:	0007a383          	lw	x7,0(x15)
    1efc:	01138863          	beq	x7,x17,1f0c <I_jalr_cg_cp_rd_b30+0x20>
    1f00:	5350146f          	jal	x8,3c34 <failedtest_x8_x7>
    1f04:	00001eec          	.word	0x00001eec
    1f08:	00008e9e          	.word	0x00008e9e
    1f0c:	00478793          	addi	x15,x15,4
  auipc x17, 0 # get current PC
    1f10:	00000897          	auipc	x17,0x0
  sub x30, x30, x17 # subtract current PC to make position-independent
    1f14:	411f0f33          	sub	x30,x30,x17
  # Check if x30 contains the expected result. x15 is the signature ptr, x8 is the link ptr, x7 is a temp reg.
  RVTEST_SIGUPD(x15, x8, x7, x30, I_jalr_cg_cp_rd_b30, I_jalr_cg_cp_rd_b30_str)
    1f18:	0007a383          	lw	x7,0(x15)
    1f1c:	01e38863          	beq	x7,x30,1f2c <I_jalr_cg_cp_rd_b30+0x40>
    1f20:	5150146f          	jal	x8,3c34 <failedtest_x8_x7>
    1f24:	00001eec          	.word	0x00001eec
    1f28:	00008e9e          	.word	0x00008e9e
    1f2c:	00478793          	addi	x15,x15,4
    1f30:	00000013          	addi	x0,x0,0
    1f34:	00000013          	addi	x0,x0,0
    1f38:	00000013          	addi	x0,x0,0
    1f3c:	00000013          	addi	x0,x0,0

# Testcase cp_rd (Test destination rd = x31)
  LA(x21, 1f) # load jump target address
    1f40:	00000a97          	auipc	x21,0x0
    1f44:	034a8a93          	addi	x21,x21,52 # 1f74 <I_jalr_cg_cp_rd_b31+0x8>
    1f48:	00000013          	addi	x0,x0,0
    1f4c:	00000013          	addi	x0,x0,0
    1f50:	00000013          	addi	x0,x0,0
    1f54:	00000013          	addi	x0,x0,0
    1f58:	00000013          	addi	x0,x0,0
    1f5c:	00000013          	addi	x0,x0,0
  RVTEST_TESTDATA_LOAD_INT(x16, x5) # load jump check value: x5 = 0x3d7815fa
    1f60:	00082283          	lw	x5,0(x16)
    1f64:	00480813          	addi	x16,x16,4
  addi x21, x21, 991 # adjust base address for offset
    1f68:	3dfa8a93          	addi	x21,x21,991

00001f6c <I_jalr_cg_cp_rd_b31>:
I_jalr_cg_cp_rd_b31:
  jalr x31, x21, -991 # perform jump with offset
    1f6c:	c21a8fe7          	jalr	x31,-991(x21)
  addi x5, x5, -4 # should not execute
    1f70:	ffc28293          	addi	x5,x5,-4
1:
  addi x5, x5, 2 # should execute
    1f74:	00228293          	addi	x5,x5,2
  # Check if x5 contains the expected result. x15 is the signature ptr, x8 is the link ptr, x7 is a temp reg.
  RVTEST_SIGUPD(x15, x8, x7, x5, I_jalr_cg_cp_rd_b31, I_jalr_cg_cp_rd_b31_str)
    1f78:	0007a383          	lw	x7,0(x15)
    1f7c:	00538863          	beq	x7,x5,1f8c <I_jalr_cg_cp_rd_b31+0x20>
    1f80:	4b50146f          	jal	x8,3c34 <failedtest_x8_x7>
    1f84:	00001f6c          	.word	0x00001f6c
    1f88:	00008ecd          	.word	0x00008ecd
    1f8c:	00478793          	addi	x15,x15,4
  auipc x5, 0 # get current PC
    1f90:	00000297          	auipc	x5,0x0
  sub x31, x31, x5 # subtract current PC to make position-independent
    1f94:	405f8fb3          	sub	x31,x31,x5
  # Check if x31 contains the expected result. x15 is the signature ptr, x8 is the link ptr, x7 is a temp reg.
  RVTEST_SIGUPD(x15, x8, x7, x31, I_jalr_cg_cp_rd_b31, I_jalr_cg_cp_rd_b31_str)
    1f98:	0007a383          	lw	x7,0(x15)
    1f9c:	01f38863          	beq	x7,x31,1fac <I_jalr_cg_cp_rd_b31+0x40>
    1fa0:	4950146f          	jal	x8,3c34 <failedtest_x8_x7>
    1fa4:	00001f6c          	.word	0x00001f6c
    1fa8:	00008ecd          	.word	0x00008ecd
    1fac:	00478793          	addi	x15,x15,4
    1fb0:	00000013          	addi	x0,x0,0
    1fb4:	00000013          	addi	x0,x0,0
    1fb8:	00000013          	addi	x0,x0,0
    1fbc:	00000013          	addi	x0,x0,0
/////////////////////////////////
// cmp_rd_rs1_nx0
/////////////////////////////////

# Testcase cmp_rd_rs1_nx0 (Test rd = rs1 = x1)
  LA(x1, 1f) # load jump target address
    1fc0:	00000097          	auipc	x1,0x0
    1fc4:	03408093          	addi	x1,x1,52 # 1ff4 <I_jalr_cg_cmp_rd_rs1_nx0_b1+0x8>
    1fc8:	00000013          	addi	x0,x0,0
    1fcc:	00000013          	addi	x0,x0,0
    1fd0:	00000013          	addi	x0,x0,0
    1fd4:	00000013          	addi	x0,x0,0
    1fd8:	00000013          	addi	x0,x0,0
    1fdc:	00000013          	addi	x0,x0,0
  RVTEST_TESTDATA_LOAD_INT(x16, x13) # load jump check value: x13 = 0xca8e850b
    1fe0:	00082683          	lw	x13,0(x16)
    1fe4:	00480813          	addi	x16,x16,4
  addi x1, x1, 961 # adjust base address for offset
    1fe8:	3c108093          	addi	x1,x1,961

00001fec <I_jalr_cg_cmp_rd_rs1_nx0_b1>:
I_jalr_cg_cmp_rd_rs1_nx0_b1:
  jalr x1, x1, -961 # perform jump with offset
    1fec:	c3f080e7          	jalr	x1,-961(x1)
  addi x13, x13, -4 # should not execute
    1ff0:	ffc68693          	addi	x13,x13,-4 # 198c <I_jalr_cg_cp_rd_b19+0x20>
1:
  addi x13, x13, 2 # should execute
    1ff4:	00268693          	addi	x13,x13,2
  # Check if x13 contains the expected result. x15 is the signature ptr, x8 is the link ptr, x7 is a temp reg.
  RVTEST_SIGUPD(x15, x8, x7, x13, I_jalr_cg_cmp_rd_rs1_nx0_b1, I_jalr_cg_cmp_rd_rs1_nx0_b1_str)
    1ff8:	0007a383          	lw	x7,0(x15)
    1ffc:	00d38863          	beq	x7,x13,200c <I_jalr_cg_cmp_rd_rs1_nx0_b1+0x20>
    2000:	4350146f          	jal	x8,3c34 <failedtest_x8_x7>
    2004:	00001fec          	.word	0x00001fec
    2008:	00008efc          	.word	0x00008efc
    200c:	00478793          	addi	x15,x15,4
  auipc x13, 0 # get current PC
    2010:	00000697          	auipc	x13,0x0
  sub x1, x1, x13 # subtract current PC to make position-independent
    2014:	40d080b3          	sub	x1,x1,x13
  # Check if x1 contains the expected result. x15 is the signature ptr, x8 is the link ptr, x7 is a temp reg.
  RVTEST_SIGUPD(x15, x8, x7, x1, I_jalr_cg_cmp_rd_rs1_nx0_b1, I_jalr_cg_cmp_rd_rs1_nx0_b1_str)
    2018:	0007a383          	lw	x7,0(x15)
    201c:	00138863          	beq	x7,x1,202c <I_jalr_cg_cmp_rd_rs1_nx0_b1+0x40>
    2020:	4150146f          	jal	x8,3c34 <failedtest_x8_x7>
    2024:	00001fec          	.word	0x00001fec
    2028:	00008efc          	.word	0x00008efc
    202c:	00478793          	addi	x15,x15,4
    2030:	00000013          	addi	x0,x0,0
    2034:	00000013          	addi	x0,x0,0
    2038:	00000013          	addi	x0,x0,0
    203c:	00000013          	addi	x0,x0,0

# Testcase cmp_rd_rs1_nx0 (Test rd = rs1 = x2)
  LA(x2, 1f) # load jump target address
    2040:	00000117          	auipc	x2,0x0
    2044:	03410113          	addi	x2,x2,52 # 2074 <I_jalr_cg_cmp_rd_rs1_nx0_b2+0x8>
    2048:	00000013          	addi	x0,x0,0
    204c:	00000013          	addi	x0,x0,0
    2050:	00000013          	addi	x0,x0,0
    2054:	00000013          	addi	x0,x0,0
    2058:	00000013          	addi	x0,x0,0
    205c:	00000013          	addi	x0,x0,0
  RVTEST_TESTDATA_LOAD_INT(x16, x4) # load jump check value: x4 = 0x730665b9
    2060:	00082203          	lw	x4,0(x16)
    2064:	00480813          	addi	x16,x16,4
  addi x2, x2, 58 # adjust base address for offset
    2068:	03a10113          	addi	x2,x2,58

0000206c <I_jalr_cg_cmp_rd_rs1_nx0_b2>:
I_jalr_cg_cmp_rd_rs1_nx0_b2:
  jalr x2, x2, -58 # perform jump with offset
    206c:	fc610167          	jalr	x2,-58(x2)
  addi x4, x4, -4 # should not execute
    2070:	ffc20213          	addi	x4,x4,-4 # 1c8c <I_jalr_cg_cp_rd_b25+0x20>
1:
  addi x4, x4, 2 # should execute
    2074:	00220213          	addi	x4,x4,2 # 2 <VMODE_SIG>
  # Check if x4 contains the expected result. x15 is the signature ptr, x8 is the link ptr, x7 is a temp reg.
  RVTEST_SIGUPD(x15, x8, x7, x4, I_jalr_cg_cmp_rd_rs1_nx0_b2, I_jalr_cg_cmp_rd_rs1_nx0_b2_str)
    2078:	0007a383          	lw	x7,0(x15)
    207c:	00438863          	beq	x7,x4,208c <I_jalr_cg_cmp_rd_rs1_nx0_b2+0x20>
    2080:	3b50146f          	jal	x8,3c34 <failedtest_x8_x7>
    2084:	0000206c          	.word	0x0000206c
    2088:	00008f33          	.word	0x00008f33
    208c:	00478793          	addi	x15,x15,4
  auipc x4, 0 # get current PC
    2090:	00000217          	auipc	x4,0x0
  sub x2, x2, x4 # subtract current PC to make position-independent
    2094:	40410133          	sub	x2,x2,x4
  # Check if x2 contains the expected result. x15 is the signature ptr, x8 is the link ptr, x7 is a temp reg.
  RVTEST_SIGUPD(x15, x8, x7, x2, I_jalr_cg_cmp_rd_rs1_nx0_b2, I_jalr_cg_cmp_rd_rs1_nx0_b2_str)
    2098:	0007a383          	lw	x7,0(x15)
    209c:	00238863          	beq	x7,x2,20ac <I_jalr_cg_cmp_rd_rs1_nx0_b2+0x40>
    20a0:	3950146f          	jal	x8,3c34 <failedtest_x8_x7>
    20a4:	0000206c          	.word	0x0000206c
    20a8:	00008f33          	.word	0x00008f33
    20ac:	00478793          	addi	x15,x15,4
    20b0:	00000013          	addi	x0,x0,0
    20b4:	00000013          	addi	x0,x0,0
    20b8:	00000013          	addi	x0,x0,0
    20bc:	00000013          	addi	x0,x0,0

# Testcase cmp_rd_rs1_nx0 (Test rd = rs1 = x3)
  LA(x3, 1f) # load jump target address
    20c0:	00000197          	auipc	x3,0x0
    20c4:	03418193          	addi	x3,x3,52 # 20f4 <I_jalr_cg_cmp_rd_rs1_nx0_b3+0x8>
    20c8:	00000013          	addi	x0,x0,0
    20cc:	00000013          	addi	x0,x0,0
    20d0:	00000013          	addi	x0,x0,0
    20d4:	00000013          	addi	x0,x0,0
    20d8:	00000013          	addi	x0,x0,0
    20dc:	00000013          	addi	x0,x0,0
  RVTEST_TESTDATA_LOAD_INT(x16, x22) # load jump check value: x22 = 0xae13e88d
    20e0:	00082b03          	lw	x22,0(x16)
    20e4:	00480813          	addi	x16,x16,4
  addi x3, x3, -746 # adjust base address for offset
    20e8:	d1618193          	addi	x3,x3,-746

000020ec <I_jalr_cg_cmp_rd_rs1_nx0_b3>:
I_jalr_cg_cmp_rd_rs1_nx0_b3:
  jalr x3, x3, 746 # perform jump with offset
    20ec:	2ea181e7          	jalr	x3,746(x3)
  addi x22, x22, -4 # should not execute
    20f0:	ffcb0b13          	addi	x22,x22,-4 # 180c <I_jalr_cg_cp_rd_b16+0x20>
1:
  addi x22, x22, 2 # should execute
    20f4:	002b0b13          	addi	x22,x22,2
  # Check if x22 contains the expected result. x15 is the signature ptr, x8 is the link ptr, x7 is a temp reg.
  RVTEST_SIGUPD(x15, x8, x7, x22, I_jalr_cg_cmp_rd_rs1_nx0_b3, I_jalr_cg_cmp_rd_rs1_nx0_b3_str)
    20f8:	0007a383          	lw	x7,0(x15)
    20fc:	01638863          	beq	x7,x22,210c <I_jalr_cg_cmp_rd_rs1_nx0_b3+0x20>
    2100:	3350146f          	jal	x8,3c34 <failedtest_x8_x7>
    2104:	000020ec          	.word	0x000020ec
    2108:	00008f6a          	.word	0x00008f6a
    210c:	00478793          	addi	x15,x15,4
  auipc x22, 0 # get current PC
    2110:	00000b17          	auipc	x22,0x0
  sub x3, x3, x22 # subtract current PC to make position-independent
    2114:	416181b3          	sub	x3,x3,x22
  # Check if x3 contains the expected result. x15 is the signature ptr, x8 is the link ptr, x7 is a temp reg.
  RVTEST_SIGUPD(x15, x8, x7, x3, I_jalr_cg_cmp_rd_rs1_nx0_b3, I_jalr_cg_cmp_rd_rs1_nx0_b3_str)
    2118:	0007a383          	lw	x7,0(x15)
    211c:	00338863          	beq	x7,x3,212c <I_jalr_cg_cmp_rd_rs1_nx0_b3+0x40>
    2120:	3150146f          	jal	x8,3c34 <failedtest_x8_x7>
    2124:	000020ec          	.word	0x000020ec
    2128:	00008f6a          	.word	0x00008f6a
    212c:	00478793          	addi	x15,x15,4
    2130:	00000013          	addi	x0,x0,0
    2134:	00000013          	addi	x0,x0,0
    2138:	00000013          	addi	x0,x0,0
    213c:	00000013          	addi	x0,x0,0

# Testcase cmp_rd_rs1_nx0 (Test rd = rs1 = x4)
  LA(x4, 1f) # load jump target address
    2140:	00000217          	auipc	x4,0x0
    2144:	03420213          	addi	x4,x4,52 # 2174 <I_jalr_cg_cmp_rd_rs1_nx0_b4+0x8>
    2148:	00000013          	addi	x0,x0,0
    214c:	00000013          	addi	x0,x0,0
    2150:	00000013          	addi	x0,x0,0
    2154:	00000013          	addi	x0,x0,0
    2158:	00000013          	addi	x0,x0,0
    215c:	00000013          	addi	x0,x0,0
  RVTEST_TESTDATA_LOAD_INT(x16, x27) # load jump check value: x27 = 0xdfbc8143
    2160:	00082d83          	lw	x27,0(x16)
    2164:	00480813          	addi	x16,x16,4
  addi x4, x4, 868 # adjust base address for offset
    2168:	36420213          	addi	x4,x4,868 # 364 <imm12+0x5b>

0000216c <I_jalr_cg_cmp_rd_rs1_nx0_b4>:
I_jalr_cg_cmp_rd_rs1_nx0_b4:
  jalr x4, x4, -868 # perform jump with offset
    216c:	c9c20267          	jalr	x4,-868(x4) # fffffc9c <absimm+0x90a35993>
  addi x27, x27, -4 # should not execute
    2170:	ffcd8d93          	addi	x27,x27,-4 # 1e0c <I_jalr_cg_cp_rd_b28+0x20>
1:
  addi x27, x27, 2 # should execute
    2174:	002d8d93          	addi	x27,x27,2
  # Check if x27 contains the expected result. x15 is the signature ptr, x8 is the link ptr, x7 is a temp reg.
  RVTEST_SIGUPD(x15, x8, x7, x27, I_jalr_cg_cmp_rd_rs1_nx0_b4, I_jalr_cg_cmp_rd_rs1_nx0_b4_str)
    2178:	0007a383          	lw	x7,0(x15)
    217c:	01b38863          	beq	x7,x27,218c <I_jalr_cg_cmp_rd_rs1_nx0_b4+0x20>
    2180:	2b50146f          	jal	x8,3c34 <failedtest_x8_x7>
    2184:	0000216c          	.word	0x0000216c
    2188:	00008fa1          	.word	0x00008fa1
    218c:	00478793          	addi	x15,x15,4
  auipc x27, 0 # get current PC
    2190:	00000d97          	auipc	x27,0x0
  sub x4, x4, x27 # subtract current PC to make position-independent
    2194:	41b20233          	sub	x4,x4,x27
  # Check if x4 contains the expected result. x15 is the signature ptr, x8 is the link ptr, x7 is a temp reg.
  RVTEST_SIGUPD(x15, x8, x7, x4, I_jalr_cg_cmp_rd_rs1_nx0_b4, I_jalr_cg_cmp_rd_rs1_nx0_b4_str)
    2198:	0007a383          	lw	x7,0(x15)
    219c:	00438863          	beq	x7,x4,21ac <I_jalr_cg_cmp_rd_rs1_nx0_b4+0x40>
    21a0:	2950146f          	jal	x8,3c34 <failedtest_x8_x7>
    21a4:	0000216c          	.word	0x0000216c
    21a8:	00008fa1          	.word	0x00008fa1
    21ac:	00478793          	addi	x15,x15,4
    21b0:	00000013          	addi	x0,x0,0
    21b4:	00000013          	addi	x0,x0,0
    21b8:	00000013          	addi	x0,x0,0
    21bc:	00000013          	addi	x0,x0,0

# Testcase cmp_rd_rs1_nx0 (Test rd = rs1 = x5)
  LA(x5, 1f) # load jump target address
    21c0:	00000297          	auipc	x5,0x0
    21c4:	03428293          	addi	x5,x5,52 # 21f4 <I_jalr_cg_cmp_rd_rs1_nx0_b5+0x8>
    21c8:	00000013          	addi	x0,x0,0
    21cc:	00000013          	addi	x0,x0,0
    21d0:	00000013          	addi	x0,x0,0
    21d4:	00000013          	addi	x0,x0,0
    21d8:	00000013          	addi	x0,x0,0
    21dc:	00000013          	addi	x0,x0,0
  RVTEST_TESTDATA_LOAD_INT(x16, x17) # load jump check value: x17 = 0x1928c031
    21e0:	00082883          	lw	x17,0(x16)
    21e4:	00480813          	addi	x16,x16,4
  addi x5, x5, 613 # adjust base address for offset
    21e8:	26528293          	addi	x5,x5,613

000021ec <I_jalr_cg_cmp_rd_rs1_nx0_b5>:
I_jalr_cg_cmp_rd_rs1_nx0_b5:
  jalr x5, x5, -613 # perform jump with offset
    21ec:	d9b282e7          	jalr	x5,-613(x5)
  addi x17, x17, -4 # should not execute
    21f0:	ffc88893          	addi	x17,x17,-4 # 1f0c <I_jalr_cg_cp_rd_b30+0x20>
1:
  addi x17, x17, 2 # should execute
    21f4:	00288893          	addi	x17,x17,2
  # Check if x17 contains the expected result. x15 is the signature ptr, x8 is the link ptr, x7 is a temp reg.
  RVTEST_SIGUPD(x15, x8, x7, x17, I_jalr_cg_cmp_rd_rs1_nx0_b5, I_jalr_cg_cmp_rd_rs1_nx0_b5_str)
    21f8:	0007a383          	lw	x7,0(x15)
    21fc:	01138863          	beq	x7,x17,220c <I_jalr_cg_cmp_rd_rs1_nx0_b5+0x20>
    2200:	2350146f          	jal	x8,3c34 <failedtest_x8_x7>
    2204:	000021ec          	.word	0x000021ec
    2208:	00008fd8          	.word	0x00008fd8
    220c:	00478793          	addi	x15,x15,4
  auipc x17, 0 # get current PC
    2210:	00000897          	auipc	x17,0x0
  sub x5, x5, x17 # subtract current PC to make position-independent
    2214:	411282b3          	sub	x5,x5,x17
  # Check if x5 contains the expected result. x15 is the signature ptr, x8 is the link ptr, x7 is a temp reg.
  RVTEST_SIGUPD(x15, x8, x7, x5, I_jalr_cg_cmp_rd_rs1_nx0_b5, I_jalr_cg_cmp_rd_rs1_nx0_b5_str)
    2218:	0007a383          	lw	x7,0(x15)
    221c:	00538863          	beq	x7,x5,222c <I_jalr_cg_cmp_rd_rs1_nx0_b5+0x40>
    2220:	2150146f          	jal	x8,3c34 <failedtest_x8_x7>
    2224:	000021ec          	.word	0x000021ec
    2228:	00008fd8          	.word	0x00008fd8
    222c:	00478793          	addi	x15,x15,4
    2230:	00000013          	addi	x0,x0,0
    2234:	00000013          	addi	x0,x0,0
    2238:	00000013          	addi	x0,x0,0
    223c:	00000013          	addi	x0,x0,0

# Testcase cmp_rd_rs1_nx0 (Test rd = rs1 = x6)
  LA(x6, 1f) # load jump target address
    2240:	00000317          	auipc	x6,0x0
    2244:	03430313          	addi	x6,x6,52 # 2274 <I_jalr_cg_cmp_rd_rs1_nx0_b6+0x8>
    2248:	00000013          	addi	x0,x0,0
    224c:	00000013          	addi	x0,x0,0
    2250:	00000013          	addi	x0,x0,0
    2254:	00000013          	addi	x0,x0,0
    2258:	00000013          	addi	x0,x0,0
    225c:	00000013          	addi	x0,x0,0
  RVTEST_TESTDATA_LOAD_INT(x16, x10) # load jump check value: x10 = 0xecac1a51
    2260:	00082503          	lw	x10,0(x16)
    2264:	00480813          	addi	x16,x16,4
  addi x6, x6, -1260 # adjust base address for offset
    2268:	b1430313          	addi	x6,x6,-1260

0000226c <I_jalr_cg_cmp_rd_rs1_nx0_b6>:
I_jalr_cg_cmp_rd_rs1_nx0_b6:
  jalr x6, x6, 1260 # perform jump with offset
    226c:	4ec30367          	jalr	x6,1260(x6)
  addi x10, x10, -4 # should not execute
    2270:	ffc50513          	addi	x10,x10,-4
1:
  addi x10, x10, 2 # should execute
    2274:	00250513          	addi	x10,x10,2
  # Check if x10 contains the expected result. x15 is the signature ptr, x8 is the link ptr, x7 is a temp reg.
  RVTEST_SIGUPD(x15, x8, x7, x10, I_jalr_cg_cmp_rd_rs1_nx0_b6, I_jalr_cg_cmp_rd_rs1_nx0_b6_str)
    2278:	0007a383          	lw	x7,0(x15)
    227c:	00a38863          	beq	x7,x10,228c <I_jalr_cg_cmp_rd_rs1_nx0_b6+0x20>
    2280:	1b50146f          	jal	x8,3c34 <failedtest_x8_x7>
    2284:	0000226c          	.word	0x0000226c
    2288:	0000900f          	.word	0x0000900f
    228c:	00478793          	addi	x15,x15,4
  auipc x10, 0 # get current PC
    2290:	00000517          	auipc	x10,0x0
  sub x6, x6, x10 # subtract current PC to make position-independent
    2294:	40a30333          	sub	x6,x6,x10
  # Check if x6 contains the expected result. x15 is the signature ptr, x8 is the link ptr, x7 is a temp reg.
  RVTEST_SIGUPD(x15, x8, x7, x6, I_jalr_cg_cmp_rd_rs1_nx0_b6, I_jalr_cg_cmp_rd_rs1_nx0_b6_str)
    2298:	0007a383          	lw	x7,0(x15)
    229c:	00638863          	beq	x7,x6,22ac <I_jalr_cg_cmp_rd_rs1_nx0_b6+0x40>
    22a0:	1950146f          	jal	x8,3c34 <failedtest_x8_x7>
    22a4:	0000226c          	.word	0x0000226c
    22a8:	0000900f          	.word	0x0000900f
    22ac:	00478793          	addi	x15,x15,4

  mv x4, x7 # switch temp register to avoid conflict with test
    22b0:	00038213          	addi	x4,x7,0 # 1310 <I_jalr_cg_cp_rd_b6+0x24>
  mv x5, x8 # switch link pointer register to avoid conflict with test
    22b4:	00040293          	addi	x5,x8,0
    22b8:	00000013          	addi	x0,x0,0
    22bc:	00000013          	addi	x0,x0,0
# Testcase cmp_rd_rs1_nx0 (Test rd = rs1 = x7)
  LA(x7, 1f) # load jump target address
    22c0:	00000397          	auipc	x7,0x0
    22c4:	03438393          	addi	x7,x7,52 # 22f4 <I_jalr_cg_cmp_rd_rs1_nx0_b7+0x8>
    22c8:	00000013          	addi	x0,x0,0
    22cc:	00000013          	addi	x0,x0,0
    22d0:	00000013          	addi	x0,x0,0
    22d4:	00000013          	addi	x0,x0,0
    22d8:	00000013          	addi	x0,x0,0
    22dc:	00000013          	addi	x0,x0,0
  RVTEST_TESTDATA_LOAD_INT(x16, x27) # load jump check value: x27 = 0x06735095
    22e0:	00082d83          	lw	x27,0(x16)
    22e4:	00480813          	addi	x16,x16,4
  addi x7, x7, 1269 # adjust base address for offset
    22e8:	4f538393          	addi	x7,x7,1269

000022ec <I_jalr_cg_cmp_rd_rs1_nx0_b7>:
I_jalr_cg_cmp_rd_rs1_nx0_b7:
  jalr x7, x7, -1269 # perform jump with offset
    22ec:	b0b383e7          	jalr	x7,-1269(x7)
  addi x27, x27, -4 # should not execute
    22f0:	ffcd8d93          	addi	x27,x27,-4 # 218c <I_jalr_cg_cmp_rd_rs1_nx0_b4+0x20>
1:
  addi x27, x27, 2 # should execute
    22f4:	002d8d93          	addi	x27,x27,2
  # Check if x27 contains the expected result. x15 is the signature ptr, x5 is the link ptr, x4 is a temp reg.
  RVTEST_SIGUPD(x15, x5, x4, x27, I_jalr_cg_cmp_rd_rs1_nx0_b7, I_jalr_cg_cmp_rd_rs1_nx0_b7_str)
    22f8:	0007a203          	lw	x4,0(x15)
    22fc:	01b20863          	beq	x4,x27,230c <I_jalr_cg_cmp_rd_rs1_nx0_b7+0x20>
    2300:	11d012ef          	jal	x5,3c1c <failedtest_x5_x4>
    2304:	000022ec          	.word	0x000022ec
    2308:	00009046          	.word	0x00009046
    230c:	00478793          	addi	x15,x15,4
  auipc x27, 0 # get current PC
    2310:	00000d97          	auipc	x27,0x0
  sub x7, x7, x27 # subtract current PC to make position-independent
    2314:	41b383b3          	sub	x7,x7,x27
  # Check if x7 contains the expected result. x15 is the signature ptr, x5 is the link ptr, x4 is a temp reg.
  RVTEST_SIGUPD(x15, x5, x4, x7, I_jalr_cg_cmp_rd_rs1_nx0_b7, I_jalr_cg_cmp_rd_rs1_nx0_b7_str)
    2318:	0007a203          	lw	x4,0(x15)
    231c:	00720863          	beq	x4,x7,232c <I_jalr_cg_cmp_rd_rs1_nx0_b7+0x40>
    2320:	0fd012ef          	jal	x5,3c1c <failedtest_x5_x4>
    2324:	000022ec          	.word	0x000022ec
    2328:	00009046          	.word	0x00009046
    232c:	00478793          	addi	x15,x15,4
    2330:	00000013          	addi	x0,x0,0
    2334:	00000013          	addi	x0,x0,0
    2338:	00000013          	addi	x0,x0,0
    233c:	00000013          	addi	x0,x0,0

# Testcase cmp_rd_rs1_nx0 (Test rd = rs1 = x8)
  LA(x8, 1f) # load jump target address
    2340:	00000417          	auipc	x8,0x0
    2344:	03440413          	addi	x8,x8,52 # 2374 <I_jalr_cg_cmp_rd_rs1_nx0_b8+0x8>
    2348:	00000013          	addi	x0,x0,0
    234c:	00000013          	addi	x0,x0,0
    2350:	00000013          	addi	x0,x0,0
    2354:	00000013          	addi	x0,x0,0
    2358:	00000013          	addi	x0,x0,0
    235c:	00000013          	addi	x0,x0,0
  RVTEST_TESTDATA_LOAD_INT(x16, x12) # load jump check value: x12 = 0x1f4fe12c
    2360:	00082603          	lw	x12,0(x16)
    2364:	00480813          	addi	x16,x16,4
  addi x8, x8, -545 # adjust base address for offset
    2368:	ddf40413          	addi	x8,x8,-545

0000236c <I_jalr_cg_cmp_rd_rs1_nx0_b8>:
I_jalr_cg_cmp_rd_rs1_nx0_b8:
  jalr x8, x8, 545 # perform jump with offset
    236c:	22140467          	jalr	x8,545(x8)
  addi x12, x12, -4 # should not execute
    2370:	ffc60613          	addi	x12,x12,-4
1:
  addi x12, x12, 2 # should execute
    2374:	00260613          	addi	x12,x12,2
  # Check if x12 contains the expected result. x15 is the signature ptr, x5 is the link ptr, x4 is a temp reg.
  RVTEST_SIGUPD(x15, x5, x4, x12, I_jalr_cg_cmp_rd_rs1_nx0_b8, I_jalr_cg_cmp_rd_rs1_nx0_b8_str)
    2378:	0007a203          	lw	x4,0(x15)
    237c:	00c20863          	beq	x4,x12,238c <I_jalr_cg_cmp_rd_rs1_nx0_b8+0x20>
    2380:	09d012ef          	jal	x5,3c1c <failedtest_x5_x4>
    2384:	0000236c          	.word	0x0000236c
    2388:	0000907d          	.word	0x0000907d
    238c:	00478793          	addi	x15,x15,4
  auipc x12, 0 # get current PC
    2390:	00000617          	auipc	x12,0x0
  sub x8, x8, x12 # subtract current PC to make position-independent
    2394:	40c40433          	sub	x8,x8,x12
  # Check if x8 contains the expected result. x15 is the signature ptr, x5 is the link ptr, x4 is a temp reg.
  RVTEST_SIGUPD(x15, x5, x4, x8, I_jalr_cg_cmp_rd_rs1_nx0_b8, I_jalr_cg_cmp_rd_rs1_nx0_b8_str)
    2398:	0007a203          	lw	x4,0(x15)
    239c:	00820863          	beq	x4,x8,23ac <I_jalr_cg_cmp_rd_rs1_nx0_b8+0x40>
    23a0:	07d012ef          	jal	x5,3c1c <failedtest_x5_x4>
    23a4:	0000236c          	.word	0x0000236c
    23a8:	0000907d          	.word	0x0000907d
    23ac:	00478793          	addi	x15,x15,4
    23b0:	00000013          	addi	x0,x0,0
    23b4:	00000013          	addi	x0,x0,0
    23b8:	00000013          	addi	x0,x0,0
    23bc:	00000013          	addi	x0,x0,0

# Testcase cmp_rd_rs1_nx0 (Test rd = rs1 = x9)
  LA(x9, 1f) # load jump target address
    23c0:	00000497          	auipc	x9,0x0
    23c4:	03448493          	addi	x9,x9,52 # 23f4 <I_jalr_cg_cmp_rd_rs1_nx0_b9+0x8>
    23c8:	00000013          	addi	x0,x0,0
    23cc:	00000013          	addi	x0,x0,0
    23d0:	00000013          	addi	x0,x0,0
    23d4:	00000013          	addi	x0,x0,0
    23d8:	00000013          	addi	x0,x0,0
    23dc:	00000013          	addi	x0,x0,0
  RVTEST_TESTDATA_LOAD_INT(x16, x21) # load jump check value: x21 = 0x2b4863d0
    23e0:	00082a83          	lw	x21,0(x16)
    23e4:	00480813          	addi	x16,x16,4
  addi x9, x9, 62 # adjust base address for offset
    23e8:	03e48493          	addi	x9,x9,62

000023ec <I_jalr_cg_cmp_rd_rs1_nx0_b9>:
I_jalr_cg_cmp_rd_rs1_nx0_b9:
  jalr x9, x9, -62 # perform jump with offset
    23ec:	fc2484e7          	jalr	x9,-62(x9)
  addi x21, x21, -4 # should not execute
    23f0:	ffca8a93          	addi	x21,x21,-4
1:
  addi x21, x21, 2 # should execute
    23f4:	002a8a93          	addi	x21,x21,2
  # Check if x21 contains the expected result. x15 is the signature ptr, x5 is the link ptr, x4 is a temp reg.
  RVTEST_SIGUPD(x15, x5, x4, x21, I_jalr_cg_cmp_rd_rs1_nx0_b9, I_jalr_cg_cmp_rd_rs1_nx0_b9_str)
    23f8:	0007a203          	lw	x4,0(x15)
    23fc:	01520863          	beq	x4,x21,240c <I_jalr_cg_cmp_rd_rs1_nx0_b9+0x20>
    2400:	01d012ef          	jal	x5,3c1c <failedtest_x5_x4>
    2404:	000023ec          	.word	0x000023ec
    2408:	000090b4          	.word	0x000090b4
    240c:	00478793          	addi	x15,x15,4
  auipc x21, 0 # get current PC
    2410:	00000a97          	auipc	x21,0x0
  sub x9, x9, x21 # subtract current PC to make position-independent
    2414:	415484b3          	sub	x9,x9,x21
  # Check if x9 contains the expected result. x15 is the signature ptr, x5 is the link ptr, x4 is a temp reg.
  RVTEST_SIGUPD(x15, x5, x4, x9, I_jalr_cg_cmp_rd_rs1_nx0_b9, I_jalr_cg_cmp_rd_rs1_nx0_b9_str)
    2418:	0007a203          	lw	x4,0(x15)
    241c:	00920863          	beq	x4,x9,242c <I_jalr_cg_cmp_rd_rs1_nx0_b9+0x40>
    2420:	7fc012ef          	jal	x5,3c1c <failedtest_x5_x4>
    2424:	000023ec          	.word	0x000023ec
    2428:	000090b4          	.word	0x000090b4
    242c:	00478793          	addi	x15,x15,4
    2430:	00000013          	addi	x0,x0,0
    2434:	00000013          	addi	x0,x0,0
    2438:	00000013          	addi	x0,x0,0
    243c:	00000013          	addi	x0,x0,0

# Testcase cmp_rd_rs1_nx0 (Test rd = rs1 = x10)
  LA(x10, 1f) # load jump target address
    2440:	00000517          	auipc	x10,0x0
    2444:	03450513          	addi	x10,x10,52 # 2474 <I_jalr_cg_cmp_rd_rs1_nx0_b10+0x8>
    2448:	00000013          	addi	x0,x0,0
    244c:	00000013          	addi	x0,x0,0
    2450:	00000013          	addi	x0,x0,0
    2454:	00000013          	addi	x0,x0,0
    2458:	00000013          	addi	x0,x0,0
    245c:	00000013          	addi	x0,x0,0
  RVTEST_TESTDATA_LOAD_INT(x16, x13) # load jump check value: x13 = 0x8bf7d98e
    2460:	00082683          	lw	x13,0(x16)
    2464:	00480813          	addi	x16,x16,4
  addi x10, x10, 101 # adjust base address for offset
    2468:	06550513          	addi	x10,x10,101

0000246c <I_jalr_cg_cmp_rd_rs1_nx0_b10>:
I_jalr_cg_cmp_rd_rs1_nx0_b10:
  jalr x10, x10, -101 # perform jump with offset
    246c:	f9b50567          	jalr	x10,-101(x10)
  addi x13, x13, -4 # should not execute
    2470:	ffc68693          	addi	x13,x13,-4 # 200c <I_jalr_cg_cmp_rd_rs1_nx0_b1+0x20>
1:
  addi x13, x13, 2 # should execute
    2474:	00268693          	addi	x13,x13,2
  # Check if x13 contains the expected result. x15 is the signature ptr, x5 is the link ptr, x4 is a temp reg.
  RVTEST_SIGUPD(x15, x5, x4, x13, I_jalr_cg_cmp_rd_rs1_nx0_b10, I_jalr_cg_cmp_rd_rs1_nx0_b10_str)
    2478:	0007a203          	lw	x4,0(x15)
    247c:	00d20863          	beq	x4,x13,248c <I_jalr_cg_cmp_rd_rs1_nx0_b10+0x20>
    2480:	79c012ef          	jal	x5,3c1c <failedtest_x5_x4>
    2484:	0000246c          	.word	0x0000246c
    2488:	000090eb          	.word	0x000090eb
    248c:	00478793          	addi	x15,x15,4
  auipc x13, 0 # get current PC
    2490:	00000697          	auipc	x13,0x0
  sub x10, x10, x13 # subtract current PC to make position-independent
    2494:	40d50533          	sub	x10,x10,x13
  # Check if x10 contains the expected result. x15 is the signature ptr, x5 is the link ptr, x4 is a temp reg.
  RVTEST_SIGUPD(x15, x5, x4, x10, I_jalr_cg_cmp_rd_rs1_nx0_b10, I_jalr_cg_cmp_rd_rs1_nx0_b10_str)
    2498:	0007a203          	lw	x4,0(x15)
    249c:	00a20863          	beq	x4,x10,24ac <I_jalr_cg_cmp_rd_rs1_nx0_b10+0x40>
    24a0:	77c012ef          	jal	x5,3c1c <failedtest_x5_x4>
    24a4:	0000246c          	.word	0x0000246c
    24a8:	000090eb          	.word	0x000090eb
    24ac:	00478793          	addi	x15,x15,4
    24b0:	00000013          	addi	x0,x0,0
    24b4:	00000013          	addi	x0,x0,0
    24b8:	00000013          	addi	x0,x0,0
    24bc:	00000013          	addi	x0,x0,0

# Testcase cmp_rd_rs1_nx0 (Test rd = rs1 = x11)
  LA(x11, 1f) # load jump target address
    24c0:	00000597          	auipc	x11,0x0
    24c4:	03458593          	addi	x11,x11,52 # 24f4 <I_jalr_cg_cmp_rd_rs1_nx0_b11+0x8>
    24c8:	00000013          	addi	x0,x0,0
    24cc:	00000013          	addi	x0,x0,0
    24d0:	00000013          	addi	x0,x0,0
    24d4:	00000013          	addi	x0,x0,0
    24d8:	00000013          	addi	x0,x0,0
    24dc:	00000013          	addi	x0,x0,0
  RVTEST_TESTDATA_LOAD_INT(x16, x20) # load jump check value: x20 = 0xf5d9d50a
    24e0:	00082a03          	lw	x20,0(x16)
    24e4:	00480813          	addi	x16,x16,4
  addi x11, x11, 185 # adjust base address for offset
    24e8:	0b958593          	addi	x11,x11,185

000024ec <I_jalr_cg_cmp_rd_rs1_nx0_b11>:
I_jalr_cg_cmp_rd_rs1_nx0_b11:
  jalr x11, x11, -185 # perform jump with offset
    24ec:	f47585e7          	jalr	x11,-185(x11)
  addi x20, x20, -4 # should not execute
    24f0:	ffca0a13          	addi	x20,x20,-4
1:
  addi x20, x20, 2 # should execute
    24f4:	002a0a13          	addi	x20,x20,2
  # Check if x20 contains the expected result. x15 is the signature ptr, x5 is the link ptr, x4 is a temp reg.
  RVTEST_SIGUPD(x15, x5, x4, x20, I_jalr_cg_cmp_rd_rs1_nx0_b11, I_jalr_cg_cmp_rd_rs1_nx0_b11_str)
    24f8:	0007a203          	lw	x4,0(x15)
    24fc:	01420863          	beq	x4,x20,250c <I_jalr_cg_cmp_rd_rs1_nx0_b11+0x20>
    2500:	71c012ef          	jal	x5,3c1c <failedtest_x5_x4>
    2504:	000024ec          	.word	0x000024ec
    2508:	00009123          	.word	0x00009123
    250c:	00478793          	addi	x15,x15,4
  auipc x20, 0 # get current PC
    2510:	00000a17          	auipc	x20,0x0
  sub x11, x11, x20 # subtract current PC to make position-independent
    2514:	414585b3          	sub	x11,x11,x20
  # Check if x11 contains the expected result. x15 is the signature ptr, x5 is the link ptr, x4 is a temp reg.
  RVTEST_SIGUPD(x15, x5, x4, x11, I_jalr_cg_cmp_rd_rs1_nx0_b11, I_jalr_cg_cmp_rd_rs1_nx0_b11_str)
    2518:	0007a203          	lw	x4,0(x15)
    251c:	00b20863          	beq	x4,x11,252c <I_jalr_cg_cmp_rd_rs1_nx0_b11+0x40>
    2520:	6fc012ef          	jal	x5,3c1c <failedtest_x5_x4>
    2524:	000024ec          	.word	0x000024ec
    2528:	00009123          	.word	0x00009123
    252c:	00478793          	addi	x15,x15,4
    2530:	00000013          	addi	x0,x0,0
    2534:	00000013          	addi	x0,x0,0
    2538:	00000013          	addi	x0,x0,0
    253c:	00000013          	addi	x0,x0,0

# Testcase cmp_rd_rs1_nx0 (Test rd = rs1 = x12)
  LA(x12, 1f) # load jump target address
    2540:	00000617          	auipc	x12,0x0
    2544:	03460613          	addi	x12,x12,52 # 2574 <I_jalr_cg_cmp_rd_rs1_nx0_b12+0x8>
    2548:	00000013          	addi	x0,x0,0
    254c:	00000013          	addi	x0,x0,0
    2550:	00000013          	addi	x0,x0,0
    2554:	00000013          	addi	x0,x0,0
    2558:	00000013          	addi	x0,x0,0
    255c:	00000013          	addi	x0,x0,0
  RVTEST_TESTDATA_LOAD_INT(x16, x7) # load jump check value: x7 = 0xb58c81ce
    2560:	00082383          	lw	x7,0(x16)
    2564:	00480813          	addi	x16,x16,4
  addi x12, x12, 480 # adjust base address for offset
    2568:	1e060613          	addi	x12,x12,480

0000256c <I_jalr_cg_cmp_rd_rs1_nx0_b12>:
I_jalr_cg_cmp_rd_rs1_nx0_b12:
  jalr x12, x12, -480 # perform jump with offset
    256c:	e2060667          	jalr	x12,-480(x12)
  addi x7, x7, -4 # should not execute
    2570:	ffc38393          	addi	x7,x7,-4
1:
  addi x7, x7, 2 # should execute
    2574:	00238393          	addi	x7,x7,2
  # Check if x7 contains the expected result. x15 is the signature ptr, x5 is the link ptr, x4 is a temp reg.
  RVTEST_SIGUPD(x15, x5, x4, x7, I_jalr_cg_cmp_rd_rs1_nx0_b12, I_jalr_cg_cmp_rd_rs1_nx0_b12_str)
    2578:	0007a203          	lw	x4,0(x15)
    257c:	00720863          	beq	x4,x7,258c <I_jalr_cg_cmp_rd_rs1_nx0_b12+0x20>
    2580:	69c012ef          	jal	x5,3c1c <failedtest_x5_x4>
    2584:	0000256c          	.word	0x0000256c
    2588:	0000915b          	.word	0x0000915b
    258c:	00478793          	addi	x15,x15,4
  auipc x7, 0 # get current PC
    2590:	00000397          	auipc	x7,0x0
  sub x12, x12, x7 # subtract current PC to make position-independent
    2594:	40760633          	sub	x12,x12,x7
  # Check if x12 contains the expected result. x15 is the signature ptr, x5 is the link ptr, x4 is a temp reg.
  RVTEST_SIGUPD(x15, x5, x4, x12, I_jalr_cg_cmp_rd_rs1_nx0_b12, I_jalr_cg_cmp_rd_rs1_nx0_b12_str)
    2598:	0007a203          	lw	x4,0(x15)
    259c:	00c20863          	beq	x4,x12,25ac <I_jalr_cg_cmp_rd_rs1_nx0_b12+0x40>
    25a0:	67c012ef          	jal	x5,3c1c <failedtest_x5_x4>
    25a4:	0000256c          	.word	0x0000256c
    25a8:	0000915b          	.word	0x0000915b
    25ac:	00478793          	addi	x15,x15,4
    25b0:	00000013          	addi	x0,x0,0
    25b4:	00000013          	addi	x0,x0,0
    25b8:	00000013          	addi	x0,x0,0
    25bc:	00000013          	addi	x0,x0,0

# Testcase cmp_rd_rs1_nx0 (Test rd = rs1 = x13)
  LA(x13, 1f) # load jump target address
    25c0:	00000697          	auipc	x13,0x0
    25c4:	03468693          	addi	x13,x13,52 # 25f4 <I_jalr_cg_cmp_rd_rs1_nx0_b13+0x8>
    25c8:	00000013          	addi	x0,x0,0
    25cc:	00000013          	addi	x0,x0,0
    25d0:	00000013          	addi	x0,x0,0
    25d4:	00000013          	addi	x0,x0,0
    25d8:	00000013          	addi	x0,x0,0
    25dc:	00000013          	addi	x0,x0,0
  RVTEST_TESTDATA_LOAD_INT(x16, x1) # load jump check value: x1 = 0xbdc737a0
    25e0:	00082083          	lw	x1,0(x16)
    25e4:	00480813          	addi	x16,x16,4
  addi x13, x13, 1821 # adjust base address for offset
    25e8:	71d68693          	addi	x13,x13,1821

000025ec <I_jalr_cg_cmp_rd_rs1_nx0_b13>:
I_jalr_cg_cmp_rd_rs1_nx0_b13:
  jalr x13, x13, -1821 # perform jump with offset
    25ec:	8e3686e7          	jalr	x13,-1821(x13)
  addi x1, x1, -4 # should not execute
    25f0:	ffc08093          	addi	x1,x1,-4
1:
  addi x1, x1, 2 # should execute
    25f4:	00208093          	addi	x1,x1,2
  # Check if x1 contains the expected result. x15 is the signature ptr, x5 is the link ptr, x4 is a temp reg.
  RVTEST_SIGUPD(x15, x5, x4, x1, I_jalr_cg_cmp_rd_rs1_nx0_b13, I_jalr_cg_cmp_rd_rs1_nx0_b13_str)
    25f8:	0007a203          	lw	x4,0(x15)
    25fc:	00120863          	beq	x4,x1,260c <I_jalr_cg_cmp_rd_rs1_nx0_b13+0x20>
    2600:	61c012ef          	jal	x5,3c1c <failedtest_x5_x4>
    2604:	000025ec          	.word	0x000025ec
    2608:	00009193          	.word	0x00009193
    260c:	00478793          	addi	x15,x15,4
  auipc x1, 0 # get current PC
    2610:	00000097          	auipc	x1,0x0
  sub x13, x13, x1 # subtract current PC to make position-independent
    2614:	401686b3          	sub	x13,x13,x1
  # Check if x13 contains the expected result. x15 is the signature ptr, x5 is the link ptr, x4 is a temp reg.
  RVTEST_SIGUPD(x15, x5, x4, x13, I_jalr_cg_cmp_rd_rs1_nx0_b13, I_jalr_cg_cmp_rd_rs1_nx0_b13_str)
    2618:	0007a203          	lw	x4,0(x15)
    261c:	00d20863          	beq	x4,x13,262c <I_jalr_cg_cmp_rd_rs1_nx0_b13+0x40>
    2620:	5fc012ef          	jal	x5,3c1c <failedtest_x5_x4>
    2624:	000025ec          	.word	0x000025ec
    2628:	00009193          	.word	0x00009193
    262c:	00478793          	addi	x15,x15,4
    2630:	00000013          	addi	x0,x0,0
    2634:	00000013          	addi	x0,x0,0
    2638:	00000013          	addi	x0,x0,0
    263c:	00000013          	addi	x0,x0,0

# Testcase cmp_rd_rs1_nx0 (Test rd = rs1 = x14)
  LA(x14, 1f) # load jump target address
    2640:	00000717          	auipc	x14,0x0
    2644:	03470713          	addi	x14,x14,52 # 2674 <I_jalr_cg_cmp_rd_rs1_nx0_b14+0x8>
    2648:	00000013          	addi	x0,x0,0
    264c:	00000013          	addi	x0,x0,0
    2650:	00000013          	addi	x0,x0,0
    2654:	00000013          	addi	x0,x0,0
    2658:	00000013          	addi	x0,x0,0
    265c:	00000013          	addi	x0,x0,0
  RVTEST_TESTDATA_LOAD_INT(x16, x23) # load jump check value: x23 = 0xff8a6943
    2660:	00082b83          	lw	x23,0(x16)
    2664:	00480813          	addi	x16,x16,4
  addi x14, x14, -416 # adjust base address for offset
    2668:	e6070713          	addi	x14,x14,-416

0000266c <I_jalr_cg_cmp_rd_rs1_nx0_b14>:
I_jalr_cg_cmp_rd_rs1_nx0_b14:
  jalr x14, x14, 416 # perform jump with offset
    266c:	1a070767          	jalr	x14,416(x14)
  addi x23, x23, -4 # should not execute
    2670:	ffcb8b93          	addi	x23,x23,-4
1:
  addi x23, x23, 2 # should execute
    2674:	002b8b93          	addi	x23,x23,2
  # Check if x23 contains the expected result. x15 is the signature ptr, x5 is the link ptr, x4 is a temp reg.
  RVTEST_SIGUPD(x15, x5, x4, x23, I_jalr_cg_cmp_rd_rs1_nx0_b14, I_jalr_cg_cmp_rd_rs1_nx0_b14_str)
    2678:	0007a203          	lw	x4,0(x15)
    267c:	01720863          	beq	x4,x23,268c <I_jalr_cg_cmp_rd_rs1_nx0_b14+0x20>
    2680:	59c012ef          	jal	x5,3c1c <failedtest_x5_x4>
    2684:	0000266c          	.word	0x0000266c
    2688:	000091cb          	.word	0x000091cb
    268c:	00478793          	addi	x15,x15,4
  auipc x23, 0 # get current PC
    2690:	00000b97          	auipc	x23,0x0
  sub x14, x14, x23 # subtract current PC to make position-independent
    2694:	41770733          	sub	x14,x14,x23
  # Check if x14 contains the expected result. x15 is the signature ptr, x5 is the link ptr, x4 is a temp reg.
  RVTEST_SIGUPD(x15, x5, x4, x14, I_jalr_cg_cmp_rd_rs1_nx0_b14, I_jalr_cg_cmp_rd_rs1_nx0_b14_str)
    2698:	0007a203          	lw	x4,0(x15)
    269c:	00e20863          	beq	x4,x14,26ac <I_jalr_cg_cmp_rd_rs1_nx0_b14+0x40>
    26a0:	57c012ef          	jal	x5,3c1c <failedtest_x5_x4>
    26a4:	0000266c          	.word	0x0000266c
    26a8:	000091cb          	.word	0x000091cb
    26ac:	00478793          	addi	x15,x15,4

  mv x24, x15 # switch signature pointer register to avoid conflict with test
    26b0:	00078c13          	addi	x24,x15,0
    26b4:	00000013          	addi	x0,x0,0
    26b8:	00000013          	addi	x0,x0,0
    26bc:	00000013          	addi	x0,x0,0
# Testcase cmp_rd_rs1_nx0 (Test rd = rs1 = x15)
  LA(x15, 1f) # load jump target address
    26c0:	00000797          	auipc	x15,0x0
    26c4:	03478793          	addi	x15,x15,52 # 26f4 <I_jalr_cg_cmp_rd_rs1_nx0_b15+0x8>
    26c8:	00000013          	addi	x0,x0,0
    26cc:	00000013          	addi	x0,x0,0
    26d0:	00000013          	addi	x0,x0,0
    26d4:	00000013          	addi	x0,x0,0
    26d8:	00000013          	addi	x0,x0,0
    26dc:	00000013          	addi	x0,x0,0
  RVTEST_TESTDATA_LOAD_INT(x16, x8) # load jump check value: x8 = 0x97609a38
    26e0:	00082403          	lw	x8,0(x16)
    26e4:	00480813          	addi	x16,x16,4
  addi x15, x15, -115 # adjust base address for offset
    26e8:	f8d78793          	addi	x15,x15,-115

000026ec <I_jalr_cg_cmp_rd_rs1_nx0_b15>:
I_jalr_cg_cmp_rd_rs1_nx0_b15:
  jalr x15, x15, 115 # perform jump with offset
    26ec:	073787e7          	jalr	x15,115(x15)
  addi x8, x8, -4 # should not execute
    26f0:	ffc40413          	addi	x8,x8,-4
1:
  addi x8, x8, 2 # should execute
    26f4:	00240413          	addi	x8,x8,2
  # Check if x8 contains the expected result. x24 is the signature ptr, x5 is the link ptr, x4 is a temp reg.
  RVTEST_SIGUPD(x24, x5, x4, x8, I_jalr_cg_cmp_rd_rs1_nx0_b15, I_jalr_cg_cmp_rd_rs1_nx0_b15_str)
    26f8:	000c2203          	lw	x4,0(x24)
    26fc:	00820863          	beq	x4,x8,270c <I_jalr_cg_cmp_rd_rs1_nx0_b15+0x20>
    2700:	51c012ef          	jal	x5,3c1c <failedtest_x5_x4>
    2704:	000026ec          	.word	0x000026ec
    2708:	00009203          	.word	0x00009203
    270c:	004c0c13          	addi	x24,x24,4
  auipc x8, 0 # get current PC
    2710:	00000417          	auipc	x8,0x0
  sub x15, x15, x8 # subtract current PC to make position-independent
    2714:	408787b3          	sub	x15,x15,x8
  # Check if x15 contains the expected result. x24 is the signature ptr, x5 is the link ptr, x4 is a temp reg.
  RVTEST_SIGUPD(x24, x5, x4, x15, I_jalr_cg_cmp_rd_rs1_nx0_b15, I_jalr_cg_cmp_rd_rs1_nx0_b15_str)
    2718:	000c2203          	lw	x4,0(x24)
    271c:	00f20863          	beq	x4,x15,272c <I_jalr_cg_cmp_rd_rs1_nx0_b15+0x40>
    2720:	4fc012ef          	jal	x5,3c1c <failedtest_x5_x4>
    2724:	000026ec          	.word	0x000026ec
    2728:	00009203          	.word	0x00009203
    272c:	004c0c13          	addi	x24,x24,4

  mv x18, x16 # switch data pointer register to avoid conflict with test
    2730:	00080913          	addi	x18,x16,0
    2734:	00000013          	addi	x0,x0,0
    2738:	00000013          	addi	x0,x0,0
    273c:	00000013          	addi	x0,x0,0
# Testcase cmp_rd_rs1_nx0 (Test rd = rs1 = x16)
  LA(x16, 1f) # load jump target address
    2740:	00000817          	auipc	x16,0x0
    2744:	03480813          	addi	x16,x16,52 # 2774 <I_jalr_cg_cmp_rd_rs1_nx0_b16+0x8>
    2748:	00000013          	addi	x0,x0,0
    274c:	00000013          	addi	x0,x0,0
    2750:	00000013          	addi	x0,x0,0
    2754:	00000013          	addi	x0,x0,0
    2758:	00000013          	addi	x0,x0,0
    275c:	00000013          	addi	x0,x0,0
  RVTEST_TESTDATA_LOAD_INT(x18, x10) # load jump check value: x10 = 0x9a845bc0
    2760:	00092503          	lw	x10,0(x18)
    2764:	00490913          	addi	x18,x18,4
  addi x16, x16, -347 # adjust base address for offset
    2768:	ea580813          	addi	x16,x16,-347

0000276c <I_jalr_cg_cmp_rd_rs1_nx0_b16>:
I_jalr_cg_cmp_rd_rs1_nx0_b16:
  jalr x16, x16, 347 # perform jump with offset
    276c:	15b80867          	jalr	x16,347(x16)
  addi x10, x10, -4 # should not execute
    2770:	ffc50513          	addi	x10,x10,-4
1:
  addi x10, x10, 2 # should execute
    2774:	00250513          	addi	x10,x10,2
  # Check if x10 contains the expected result. x24 is the signature ptr, x5 is the link ptr, x4 is a temp reg.
  RVTEST_SIGUPD(x24, x5, x4, x10, I_jalr_cg_cmp_rd_rs1_nx0_b16, I_jalr_cg_cmp_rd_rs1_nx0_b16_str)
    2778:	000c2203          	lw	x4,0(x24)
    277c:	00a20863          	beq	x4,x10,278c <I_jalr_cg_cmp_rd_rs1_nx0_b16+0x20>
    2780:	49c012ef          	jal	x5,3c1c <failedtest_x5_x4>
    2784:	0000276c          	.word	0x0000276c
    2788:	0000923b          	.word	0x0000923b
    278c:	004c0c13          	addi	x24,x24,4
  auipc x10, 0 # get current PC
    2790:	00000517          	auipc	x10,0x0
  sub x16, x16, x10 # subtract current PC to make position-independent
    2794:	40a80833          	sub	x16,x16,x10
  # Check if x16 contains the expected result. x24 is the signature ptr, x5 is the link ptr, x4 is a temp reg.
  RVTEST_SIGUPD(x24, x5, x4, x16, I_jalr_cg_cmp_rd_rs1_nx0_b16, I_jalr_cg_cmp_rd_rs1_nx0_b16_str)
    2798:	000c2203          	lw	x4,0(x24)
    279c:	01020863          	beq	x4,x16,27ac <I_jalr_cg_cmp_rd_rs1_nx0_b16+0x40>
    27a0:	47c012ef          	jal	x5,3c1c <failedtest_x5_x4>
    27a4:	0000276c          	.word	0x0000276c
    27a8:	0000923b          	.word	0x0000923b
    27ac:	004c0c13          	addi	x24,x24,4
    27b0:	00000013          	addi	x0,x0,0
    27b4:	00000013          	addi	x0,x0,0
    27b8:	00000013          	addi	x0,x0,0
    27bc:	00000013          	addi	x0,x0,0

# Testcase cmp_rd_rs1_nx0 (Test rd = rs1 = x17)
  LA(x17, 1f) # load jump target address
    27c0:	00000897          	auipc	x17,0x0
    27c4:	03488893          	addi	x17,x17,52 # 27f4 <I_jalr_cg_cmp_rd_rs1_nx0_b17+0x8>
    27c8:	00000013          	addi	x0,x0,0
    27cc:	00000013          	addi	x0,x0,0
    27d0:	00000013          	addi	x0,x0,0
    27d4:	00000013          	addi	x0,x0,0
    27d8:	00000013          	addi	x0,x0,0
    27dc:	00000013          	addi	x0,x0,0
  RVTEST_TESTDATA_LOAD_INT(x18, x8) # load jump check value: x8 = 0x63d1792b
    27e0:	00092403          	lw	x8,0(x18)
    27e4:	00490913          	addi	x18,x18,4
  addi x17, x17, 835 # adjust base address for offset
    27e8:	34388893          	addi	x17,x17,835

000027ec <I_jalr_cg_cmp_rd_rs1_nx0_b17>:
I_jalr_cg_cmp_rd_rs1_nx0_b17:
  jalr x17, x17, -835 # perform jump with offset
    27ec:	cbd888e7          	jalr	x17,-835(x17)
  addi x8, x8, -4 # should not execute
    27f0:	ffc40413          	addi	x8,x8,-4 # 270c <I_jalr_cg_cmp_rd_rs1_nx0_b15+0x20>
1:
  addi x8, x8, 2 # should execute
    27f4:	00240413          	addi	x8,x8,2
  # Check if x8 contains the expected result. x24 is the signature ptr, x5 is the link ptr, x4 is a temp reg.
  RVTEST_SIGUPD(x24, x5, x4, x8, I_jalr_cg_cmp_rd_rs1_nx0_b17, I_jalr_cg_cmp_rd_rs1_nx0_b17_str)
    27f8:	000c2203          	lw	x4,0(x24)
    27fc:	00820863          	beq	x4,x8,280c <I_jalr_cg_cmp_rd_rs1_nx0_b17+0x20>
    2800:	41c012ef          	jal	x5,3c1c <failedtest_x5_x4>
    2804:	000027ec          	.word	0x000027ec
    2808:	00009273          	.word	0x00009273
    280c:	004c0c13          	addi	x24,x24,4
  auipc x8, 0 # get current PC
    2810:	00000417          	auipc	x8,0x0
  sub x17, x17, x8 # subtract current PC to make position-independent
    2814:	408888b3          	sub	x17,x17,x8
  # Check if x17 contains the expected result. x24 is the signature ptr, x5 is the link ptr, x4 is a temp reg.
  RVTEST_SIGUPD(x24, x5, x4, x17, I_jalr_cg_cmp_rd_rs1_nx0_b17, I_jalr_cg_cmp_rd_rs1_nx0_b17_str)
    2818:	000c2203          	lw	x4,0(x24)
    281c:	01120863          	beq	x4,x17,282c <I_jalr_cg_cmp_rd_rs1_nx0_b17+0x40>
    2820:	3fc012ef          	jal	x5,3c1c <failedtest_x5_x4>
    2824:	000027ec          	.word	0x000027ec
    2828:	00009273          	.word	0x00009273
    282c:	004c0c13          	addi	x24,x24,4

  mv x22, x18 # switch data pointer register to avoid conflict with test
    2830:	00090b13          	addi	x22,x18,0
    2834:	00000013          	addi	x0,x0,0
    2838:	00000013          	addi	x0,x0,0
    283c:	00000013          	addi	x0,x0,0
# Testcase cmp_rd_rs1_nx0 (Test rd = rs1 = x18)
  LA(x18, 1f) # load jump target address
    2840:	00000917          	auipc	x18,0x0
    2844:	03490913          	addi	x18,x18,52 # 2874 <I_jalr_cg_cmp_rd_rs1_nx0_b18+0x8>
    2848:	00000013          	addi	x0,x0,0
    284c:	00000013          	addi	x0,x0,0
    2850:	00000013          	addi	x0,x0,0
    2854:	00000013          	addi	x0,x0,0
    2858:	00000013          	addi	x0,x0,0
    285c:	00000013          	addi	x0,x0,0
  RVTEST_TESTDATA_LOAD_INT(x22, x29) # load jump check value: x29 = 0xb0ca7f37
    2860:	000b2e83          	lw	x29,0(x22) # 2110 <I_jalr_cg_cmp_rd_rs1_nx0_b3+0x24>
    2864:	004b0b13          	addi	x22,x22,4
  addi x18, x18, 810 # adjust base address for offset
    2868:	32a90913          	addi	x18,x18,810

0000286c <I_jalr_cg_cmp_rd_rs1_nx0_b18>:
I_jalr_cg_cmp_rd_rs1_nx0_b18:
  jalr x18, x18, -810 # perform jump with offset
    286c:	cd690967          	jalr	x18,-810(x18)
  addi x29, x29, -4 # should not execute
    2870:	ffce8e93          	addi	x29,x29,-4 # 1c0c <I_jalr_cg_cp_rd_b24+0x20>
1:
  addi x29, x29, 2 # should execute
    2874:	002e8e93          	addi	x29,x29,2
  # Check if x29 contains the expected result. x24 is the signature ptr, x5 is the link ptr, x4 is a temp reg.
  RVTEST_SIGUPD(x24, x5, x4, x29, I_jalr_cg_cmp_rd_rs1_nx0_b18, I_jalr_cg_cmp_rd_rs1_nx0_b18_str)
    2878:	000c2203          	lw	x4,0(x24)
    287c:	01d20863          	beq	x4,x29,288c <I_jalr_cg_cmp_rd_rs1_nx0_b18+0x20>
    2880:	39c012ef          	jal	x5,3c1c <failedtest_x5_x4>
    2884:	0000286c          	.word	0x0000286c
    2888:	000092ab          	.word	0x000092ab
    288c:	004c0c13          	addi	x24,x24,4
  auipc x29, 0 # get current PC
    2890:	00000e97          	auipc	x29,0x0
  sub x18, x18, x29 # subtract current PC to make position-independent
    2894:	41d90933          	sub	x18,x18,x29
  # Check if x18 contains the expected result. x24 is the signature ptr, x5 is the link ptr, x4 is a temp reg.
  RVTEST_SIGUPD(x24, x5, x4, x18, I_jalr_cg_cmp_rd_rs1_nx0_b18, I_jalr_cg_cmp_rd_rs1_nx0_b18_str)
    2898:	000c2203          	lw	x4,0(x24)
    289c:	01220863          	beq	x4,x18,28ac <I_jalr_cg_cmp_rd_rs1_nx0_b18+0x40>
    28a0:	37c012ef          	jal	x5,3c1c <failedtest_x5_x4>
    28a4:	0000286c          	.word	0x0000286c
    28a8:	000092ab          	.word	0x000092ab
    28ac:	004c0c13          	addi	x24,x24,4
    28b0:	00000013          	addi	x0,x0,0
    28b4:	00000013          	addi	x0,x0,0
    28b8:	00000013          	addi	x0,x0,0
    28bc:	00000013          	addi	x0,x0,0

# Testcase cmp_rd_rs1_nx0 (Test rd = rs1 = x19)
  LA(x19, 1f) # load jump target address
    28c0:	00000997          	auipc	x19,0x0
    28c4:	03498993          	addi	x19,x19,52 # 28f4 <I_jalr_cg_cmp_rd_rs1_nx0_b19+0x8>
    28c8:	00000013          	addi	x0,x0,0
    28cc:	00000013          	addi	x0,x0,0
    28d0:	00000013          	addi	x0,x0,0
    28d4:	00000013          	addi	x0,x0,0
    28d8:	00000013          	addi	x0,x0,0
    28dc:	00000013          	addi	x0,x0,0
  RVTEST_TESTDATA_LOAD_INT(x22, x14) # load jump check value: x14 = 0x81a023e2
    28e0:	000b2703          	lw	x14,0(x22)
    28e4:	004b0b13          	addi	x22,x22,4
  addi x19, x19, 1635 # adjust base address for offset
    28e8:	66398993          	addi	x19,x19,1635

000028ec <I_jalr_cg_cmp_rd_rs1_nx0_b19>:
I_jalr_cg_cmp_rd_rs1_nx0_b19:
  jalr x19, x19, -1635 # perform jump with offset
    28ec:	99d989e7          	jalr	x19,-1635(x19)
  addi x14, x14, -4 # should not execute
    28f0:	ffc70713          	addi	x14,x14,-4
1:
  addi x14, x14, 2 # should execute
    28f4:	00270713          	addi	x14,x14,2
  # Check if x14 contains the expected result. x24 is the signature ptr, x5 is the link ptr, x4 is a temp reg.
  RVTEST_SIGUPD(x24, x5, x4, x14, I_jalr_cg_cmp_rd_rs1_nx0_b19, I_jalr_cg_cmp_rd_rs1_nx0_b19_str)
    28f8:	000c2203          	lw	x4,0(x24)
    28fc:	00e20863          	beq	x4,x14,290c <I_jalr_cg_cmp_rd_rs1_nx0_b19+0x20>
    2900:	31c012ef          	jal	x5,3c1c <failedtest_x5_x4>
    2904:	000028ec          	.word	0x000028ec
    2908:	000092e3          	.word	0x000092e3
    290c:	004c0c13          	addi	x24,x24,4
  auipc x14, 0 # get current PC
    2910:	00000717          	auipc	x14,0x0
  sub x19, x19, x14 # subtract current PC to make position-independent
    2914:	40e989b3          	sub	x19,x19,x14
  # Check if x19 contains the expected result. x24 is the signature ptr, x5 is the link ptr, x4 is a temp reg.
  RVTEST_SIGUPD(x24, x5, x4, x19, I_jalr_cg_cmp_rd_rs1_nx0_b19, I_jalr_cg_cmp_rd_rs1_nx0_b19_str)
    2918:	000c2203          	lw	x4,0(x24)
    291c:	01320863          	beq	x4,x19,292c <I_jalr_cg_cmp_rd_rs1_nx0_b19+0x40>
    2920:	2fc012ef          	jal	x5,3c1c <failedtest_x5_x4>
    2924:	000028ec          	.word	0x000028ec
    2928:	000092e3          	.word	0x000092e3
    292c:	004c0c13          	addi	x24,x24,4
    2930:	00000013          	addi	x0,x0,0
    2934:	00000013          	addi	x0,x0,0
    2938:	00000013          	addi	x0,x0,0
    293c:	00000013          	addi	x0,x0,0

# Testcase cmp_rd_rs1_nx0 (Test rd = rs1 = x20)
  LA(x20, 1f) # load jump target address
    2940:	00000a17          	auipc	x20,0x0
    2944:	034a0a13          	addi	x20,x20,52 # 2974 <I_jalr_cg_cmp_rd_rs1_nx0_b20+0x8>
    2948:	00000013          	addi	x0,x0,0
    294c:	00000013          	addi	x0,x0,0
    2950:	00000013          	addi	x0,x0,0
    2954:	00000013          	addi	x0,x0,0
    2958:	00000013          	addi	x0,x0,0
    295c:	00000013          	addi	x0,x0,0
  RVTEST_TESTDATA_LOAD_INT(x22, x10) # load jump check value: x10 = 0x54b2f803
    2960:	000b2503          	lw	x10,0(x22)
    2964:	004b0b13          	addi	x22,x22,4
  addi x20, x20, -2014 # adjust base address for offset
    2968:	822a0a13          	addi	x20,x20,-2014

0000296c <I_jalr_cg_cmp_rd_rs1_nx0_b20>:
I_jalr_cg_cmp_rd_rs1_nx0_b20:
  jalr x20, x20, 2014 # perform jump with offset
    296c:	7dea0a67          	jalr	x20,2014(x20)
  addi x10, x10, -4 # should not execute
    2970:	ffc50513          	addi	x10,x10,-4 # 278c <I_jalr_cg_cmp_rd_rs1_nx0_b16+0x20>
1:
  addi x10, x10, 2 # should execute
    2974:	00250513          	addi	x10,x10,2
  # Check if x10 contains the expected result. x24 is the signature ptr, x5 is the link ptr, x4 is a temp reg.
  RVTEST_SIGUPD(x24, x5, x4, x10, I_jalr_cg_cmp_rd_rs1_nx0_b20, I_jalr_cg_cmp_rd_rs1_nx0_b20_str)
    2978:	000c2203          	lw	x4,0(x24)
    297c:	00a20863          	beq	x4,x10,298c <I_jalr_cg_cmp_rd_rs1_nx0_b20+0x20>
    2980:	29c012ef          	jal	x5,3c1c <failedtest_x5_x4>
    2984:	0000296c          	.word	0x0000296c
    2988:	0000931b          	.word	0x0000931b
    298c:	004c0c13          	addi	x24,x24,4
  auipc x10, 0 # get current PC
    2990:	00000517          	auipc	x10,0x0
  sub x20, x20, x10 # subtract current PC to make position-independent
    2994:	40aa0a33          	sub	x20,x20,x10
  # Check if x20 contains the expected result. x24 is the signature ptr, x5 is the link ptr, x4 is a temp reg.
  RVTEST_SIGUPD(x24, x5, x4, x20, I_jalr_cg_cmp_rd_rs1_nx0_b20, I_jalr_cg_cmp_rd_rs1_nx0_b20_str)
    2998:	000c2203          	lw	x4,0(x24)
    299c:	01420863          	beq	x4,x20,29ac <I_jalr_cg_cmp_rd_rs1_nx0_b20+0x40>
    29a0:	27c012ef          	jal	x5,3c1c <failedtest_x5_x4>
    29a4:	0000296c          	.word	0x0000296c
    29a8:	0000931b          	.word	0x0000931b
    29ac:	004c0c13          	addi	x24,x24,4
    29b0:	00000013          	addi	x0,x0,0
    29b4:	00000013          	addi	x0,x0,0
    29b8:	00000013          	addi	x0,x0,0
    29bc:	00000013          	addi	x0,x0,0

# Testcase cmp_rd_rs1_nx0 (Test rd = rs1 = x21)
  LA(x21, 1f) # load jump target address
    29c0:	00000a97          	auipc	x21,0x0
    29c4:	034a8a93          	addi	x21,x21,52 # 29f4 <I_jalr_cg_cmp_rd_rs1_nx0_b21+0x8>
    29c8:	00000013          	addi	x0,x0,0
    29cc:	00000013          	addi	x0,x0,0
    29d0:	00000013          	addi	x0,x0,0
    29d4:	00000013          	addi	x0,x0,0
    29d8:	00000013          	addi	x0,x0,0
    29dc:	00000013          	addi	x0,x0,0
  RVTEST_TESTDATA_LOAD_INT(x22, x10) # load jump check value: x10 = 0x4044fc7d
    29e0:	000b2503          	lw	x10,0(x22)
    29e4:	004b0b13          	addi	x22,x22,4
  addi x21, x21, 1268 # adjust base address for offset
    29e8:	4f4a8a93          	addi	x21,x21,1268

000029ec <I_jalr_cg_cmp_rd_rs1_nx0_b21>:
I_jalr_cg_cmp_rd_rs1_nx0_b21:
  jalr x21, x21, -1268 # perform jump with offset
    29ec:	b0ca8ae7          	jalr	x21,-1268(x21)
  addi x10, x10, -4 # should not execute
    29f0:	ffc50513          	addi	x10,x10,-4 # 298c <I_jalr_cg_cmp_rd_rs1_nx0_b20+0x20>
1:
  addi x10, x10, 2 # should execute
    29f4:	00250513          	addi	x10,x10,2
  # Check if x10 contains the expected result. x24 is the signature ptr, x5 is the link ptr, x4 is a temp reg.
  RVTEST_SIGUPD(x24, x5, x4, x10, I_jalr_cg_cmp_rd_rs1_nx0_b21, I_jalr_cg_cmp_rd_rs1_nx0_b21_str)
    29f8:	000c2203          	lw	x4,0(x24)
    29fc:	00a20863          	beq	x4,x10,2a0c <I_jalr_cg_cmp_rd_rs1_nx0_b21+0x20>
    2a00:	21c012ef          	jal	x5,3c1c <failedtest_x5_x4>
    2a04:	000029ec          	.word	0x000029ec
    2a08:	00009353          	.word	0x00009353
    2a0c:	004c0c13          	addi	x24,x24,4
  auipc x10, 0 # get current PC
    2a10:	00000517          	auipc	x10,0x0
  sub x21, x21, x10 # subtract current PC to make position-independent
    2a14:	40aa8ab3          	sub	x21,x21,x10
  # Check if x21 contains the expected result. x24 is the signature ptr, x5 is the link ptr, x4 is a temp reg.
  RVTEST_SIGUPD(x24, x5, x4, x21, I_jalr_cg_cmp_rd_rs1_nx0_b21, I_jalr_cg_cmp_rd_rs1_nx0_b21_str)
    2a18:	000c2203          	lw	x4,0(x24)
    2a1c:	01520863          	beq	x4,x21,2a2c <I_jalr_cg_cmp_rd_rs1_nx0_b21+0x40>
    2a20:	1fc012ef          	jal	x5,3c1c <failedtest_x5_x4>
    2a24:	000029ec          	.word	0x000029ec
    2a28:	00009353          	.word	0x00009353
    2a2c:	004c0c13          	addi	x24,x24,4

  mv x28, x22 # switch data pointer register to avoid conflict with test
    2a30:	000b0e13          	addi	x28,x22,0
    2a34:	00000013          	addi	x0,x0,0
    2a38:	00000013          	addi	x0,x0,0
    2a3c:	00000013          	addi	x0,x0,0
# Testcase cmp_rd_rs1_nx0 (Test rd = rs1 = x22)
  LA(x22, 1f) # load jump target address
    2a40:	00000b17          	auipc	x22,0x0
    2a44:	034b0b13          	addi	x22,x22,52 # 2a74 <I_jalr_cg_cmp_rd_rs1_nx0_b22+0x8>
    2a48:	00000013          	addi	x0,x0,0
    2a4c:	00000013          	addi	x0,x0,0
    2a50:	00000013          	addi	x0,x0,0
    2a54:	00000013          	addi	x0,x0,0
    2a58:	00000013          	addi	x0,x0,0
    2a5c:	00000013          	addi	x0,x0,0
  RVTEST_TESTDATA_LOAD_INT(x28, x29) # load jump check value: x29 = 0x00578eb0
    2a60:	000e2e83          	lw	x29,0(x28)
    2a64:	004e0e13          	addi	x28,x28,4
  addi x22, x22, 1862 # adjust base address for offset
    2a68:	746b0b13          	addi	x22,x22,1862

00002a6c <I_jalr_cg_cmp_rd_rs1_nx0_b22>:
I_jalr_cg_cmp_rd_rs1_nx0_b22:
  jalr x22, x22, -1862 # perform jump with offset
    2a6c:	8bab0b67          	jalr	x22,-1862(x22)
  addi x29, x29, -4 # should not execute
    2a70:	ffce8e93          	addi	x29,x29,-4 # 288c <I_jalr_cg_cmp_rd_rs1_nx0_b18+0x20>
1:
  addi x29, x29, 2 # should execute
    2a74:	002e8e93          	addi	x29,x29,2
  # Check if x29 contains the expected result. x24 is the signature ptr, x5 is the link ptr, x4 is a temp reg.
  RVTEST_SIGUPD(x24, x5, x4, x29, I_jalr_cg_cmp_rd_rs1_nx0_b22, I_jalr_cg_cmp_rd_rs1_nx0_b22_str)
    2a78:	000c2203          	lw	x4,0(x24)
    2a7c:	01d20863          	beq	x4,x29,2a8c <I_jalr_cg_cmp_rd_rs1_nx0_b22+0x20>
    2a80:	19c012ef          	jal	x5,3c1c <failedtest_x5_x4>
    2a84:	00002a6c          	.word	0x00002a6c
    2a88:	0000938b          	.word	0x0000938b
    2a8c:	004c0c13          	addi	x24,x24,4
  auipc x29, 0 # get current PC
    2a90:	00000e97          	auipc	x29,0x0
  sub x22, x22, x29 # subtract current PC to make position-independent
    2a94:	41db0b33          	sub	x22,x22,x29
  # Check if x22 contains the expected result. x24 is the signature ptr, x5 is the link ptr, x4 is a temp reg.
  RVTEST_SIGUPD(x24, x5, x4, x22, I_jalr_cg_cmp_rd_rs1_nx0_b22, I_jalr_cg_cmp_rd_rs1_nx0_b22_str)
    2a98:	000c2203          	lw	x4,0(x24)
    2a9c:	01620863          	beq	x4,x22,2aac <I_jalr_cg_cmp_rd_rs1_nx0_b22+0x40>
    2aa0:	17c012ef          	jal	x5,3c1c <failedtest_x5_x4>
    2aa4:	00002a6c          	.word	0x00002a6c
    2aa8:	0000938b          	.word	0x0000938b
    2aac:	004c0c13          	addi	x24,x24,4
    2ab0:	00000013          	addi	x0,x0,0
    2ab4:	00000013          	addi	x0,x0,0
    2ab8:	00000013          	addi	x0,x0,0
    2abc:	00000013          	addi	x0,x0,0

# Testcase cmp_rd_rs1_nx0 (Test rd = rs1 = x23)
  LA(x23, 1f) # load jump target address
    2ac0:	00000b97          	auipc	x23,0x0
    2ac4:	034b8b93          	addi	x23,x23,52 # 2af4 <I_jalr_cg_cmp_rd_rs1_nx0_b23+0x8>
    2ac8:	00000013          	addi	x0,x0,0
    2acc:	00000013          	addi	x0,x0,0
    2ad0:	00000013          	addi	x0,x0,0
    2ad4:	00000013          	addi	x0,x0,0
    2ad8:	00000013          	addi	x0,x0,0
    2adc:	00000013          	addi	x0,x0,0
  RVTEST_TESTDATA_LOAD_INT(x28, x17) # load jump check value: x17 = 0x11257b92
    2ae0:	000e2883          	lw	x17,0(x28)
    2ae4:	004e0e13          	addi	x28,x28,4
  addi x23, x23, -1776 # adjust base address for offset
    2ae8:	910b8b93          	addi	x23,x23,-1776

00002aec <I_jalr_cg_cmp_rd_rs1_nx0_b23>:
I_jalr_cg_cmp_rd_rs1_nx0_b23:
  jalr x23, x23, 1776 # perform jump with offset
    2aec:	6f0b8be7          	jalr	x23,1776(x23)
  addi x17, x17, -4 # should not execute
    2af0:	ffc88893          	addi	x17,x17,-4
1:
  addi x17, x17, 2 # should execute
    2af4:	00288893          	addi	x17,x17,2
  # Check if x17 contains the expected result. x24 is the signature ptr, x5 is the link ptr, x4 is a temp reg.
  RVTEST_SIGUPD(x24, x5, x4, x17, I_jalr_cg_cmp_rd_rs1_nx0_b23, I_jalr_cg_cmp_rd_rs1_nx0_b23_str)
    2af8:	000c2203          	lw	x4,0(x24)
    2afc:	01120863          	beq	x4,x17,2b0c <I_jalr_cg_cmp_rd_rs1_nx0_b23+0x20>
    2b00:	11c012ef          	jal	x5,3c1c <failedtest_x5_x4>
    2b04:	00002aec          	.word	0x00002aec
    2b08:	000093c3          	.word	0x000093c3
    2b0c:	004c0c13          	addi	x24,x24,4
  auipc x17, 0 # get current PC
    2b10:	00000897          	auipc	x17,0x0
  sub x23, x23, x17 # subtract current PC to make position-independent
    2b14:	411b8bb3          	sub	x23,x23,x17
  # Check if x23 contains the expected result. x24 is the signature ptr, x5 is the link ptr, x4 is a temp reg.
  RVTEST_SIGUPD(x24, x5, x4, x23, I_jalr_cg_cmp_rd_rs1_nx0_b23, I_jalr_cg_cmp_rd_rs1_nx0_b23_str)
    2b18:	000c2203          	lw	x4,0(x24)
    2b1c:	01720863          	beq	x4,x23,2b2c <I_jalr_cg_cmp_rd_rs1_nx0_b23+0x40>
    2b20:	0fc012ef          	jal	x5,3c1c <failedtest_x5_x4>
    2b24:	00002aec          	.word	0x00002aec
    2b28:	000093c3          	.word	0x000093c3
    2b2c:	004c0c13          	addi	x24,x24,4

  mv x1, x24 # switch signature pointer register to avoid conflict with test
    2b30:	000c0093          	addi	x1,x24,0
    2b34:	00000013          	addi	x0,x0,0
    2b38:	00000013          	addi	x0,x0,0
    2b3c:	00000013          	addi	x0,x0,0
# Testcase cmp_rd_rs1_nx0 (Test rd = rs1 = x24)
  LA(x24, 1f) # load jump target address
    2b40:	00000c17          	auipc	x24,0x0
    2b44:	034c0c13          	addi	x24,x24,52 # 2b74 <I_jalr_cg_cmp_rd_rs1_nx0_b24+0x8>
    2b48:	00000013          	addi	x0,x0,0
    2b4c:	00000013          	addi	x0,x0,0
    2b50:	00000013          	addi	x0,x0,0
    2b54:	00000013          	addi	x0,x0,0
    2b58:	00000013          	addi	x0,x0,0
    2b5c:	00000013          	addi	x0,x0,0
  RVTEST_TESTDATA_LOAD_INT(x28, x23) # load jump check value: x23 = 0x95f7027e
    2b60:	000e2b83          	lw	x23,0(x28)
    2b64:	004e0e13          	addi	x28,x28,4
  addi x24, x24, -153 # adjust base address for offset
    2b68:	f67c0c13          	addi	x24,x24,-153

00002b6c <I_jalr_cg_cmp_rd_rs1_nx0_b24>:
I_jalr_cg_cmp_rd_rs1_nx0_b24:
  jalr x24, x24, 153 # perform jump with offset
    2b6c:	099c0c67          	jalr	x24,153(x24)
  addi x23, x23, -4 # should not execute
    2b70:	ffcb8b93          	addi	x23,x23,-4
1:
  addi x23, x23, 2 # should execute
    2b74:	002b8b93          	addi	x23,x23,2
  # Check if x23 contains the expected result. x1 is the signature ptr, x5 is the link ptr, x4 is a temp reg.
  RVTEST_SIGUPD(x1, x5, x4, x23, I_jalr_cg_cmp_rd_rs1_nx0_b24, I_jalr_cg_cmp_rd_rs1_nx0_b24_str)
    2b78:	0000a203          	lw	x4,0(x1) # 2610 <I_jalr_cg_cmp_rd_rs1_nx0_b13+0x24>
    2b7c:	01720863          	beq	x4,x23,2b8c <I_jalr_cg_cmp_rd_rs1_nx0_b24+0x20>
    2b80:	09c012ef          	jal	x5,3c1c <failedtest_x5_x4>
    2b84:	00002b6c          	.word	0x00002b6c
    2b88:	000093fb          	.word	0x000093fb
    2b8c:	00408093          	addi	x1,x1,4
  auipc x23, 0 # get current PC
    2b90:	00000b97          	auipc	x23,0x0
  sub x24, x24, x23 # subtract current PC to make position-independent
    2b94:	417c0c33          	sub	x24,x24,x23
  # Check if x24 contains the expected result. x1 is the signature ptr, x5 is the link ptr, x4 is a temp reg.
  RVTEST_SIGUPD(x1, x5, x4, x24, I_jalr_cg_cmp_rd_rs1_nx0_b24, I_jalr_cg_cmp_rd_rs1_nx0_b24_str)
    2b98:	0000a203          	lw	x4,0(x1)
    2b9c:	01820863          	beq	x4,x24,2bac <I_jalr_cg_cmp_rd_rs1_nx0_b24+0x40>
    2ba0:	07c012ef          	jal	x5,3c1c <failedtest_x5_x4>
    2ba4:	00002b6c          	.word	0x00002b6c
    2ba8:	000093fb          	.word	0x000093fb
    2bac:	00408093          	addi	x1,x1,4
    2bb0:	00000013          	addi	x0,x0,0
    2bb4:	00000013          	addi	x0,x0,0
    2bb8:	00000013          	addi	x0,x0,0
    2bbc:	00000013          	addi	x0,x0,0

# Testcase cmp_rd_rs1_nx0 (Test rd = rs1 = x25)
  LA(x25, 1f) # load jump target address
    2bc0:	00000c97          	auipc	x25,0x0
    2bc4:	034c8c93          	addi	x25,x25,52 # 2bf4 <I_jalr_cg_cmp_rd_rs1_nx0_b25+0x8>
    2bc8:	00000013          	addi	x0,x0,0
    2bcc:	00000013          	addi	x0,x0,0
    2bd0:	00000013          	addi	x0,x0,0
    2bd4:	00000013          	addi	x0,x0,0
    2bd8:	00000013          	addi	x0,x0,0
    2bdc:	00000013          	addi	x0,x0,0
  RVTEST_TESTDATA_LOAD_INT(x28, x21) # load jump check value: x21 = 0x2883a685
    2be0:	000e2a83          	lw	x21,0(x28)
    2be4:	004e0e13          	addi	x28,x28,4
  addi x25, x25, 1871 # adjust base address for offset
    2be8:	74fc8c93          	addi	x25,x25,1871

00002bec <I_jalr_cg_cmp_rd_rs1_nx0_b25>:
I_jalr_cg_cmp_rd_rs1_nx0_b25:
  jalr x25, x25, -1871 # perform jump with offset
    2bec:	8b1c8ce7          	jalr	x25,-1871(x25)
  addi x21, x21, -4 # should not execute
    2bf0:	ffca8a93          	addi	x21,x21,-4
1:
  addi x21, x21, 2 # should execute
    2bf4:	002a8a93          	addi	x21,x21,2
  # Check if x21 contains the expected result. x1 is the signature ptr, x5 is the link ptr, x4 is a temp reg.
  RVTEST_SIGUPD(x1, x5, x4, x21, I_jalr_cg_cmp_rd_rs1_nx0_b25, I_jalr_cg_cmp_rd_rs1_nx0_b25_str)
    2bf8:	0000a203          	lw	x4,0(x1)
    2bfc:	01520863          	beq	x4,x21,2c0c <I_jalr_cg_cmp_rd_rs1_nx0_b25+0x20>
    2c00:	01c012ef          	jal	x5,3c1c <failedtest_x5_x4>
    2c04:	00002bec          	.word	0x00002bec
    2c08:	00009433          	.word	0x00009433
    2c0c:	00408093          	addi	x1,x1,4
  auipc x21, 0 # get current PC
    2c10:	00000a97          	auipc	x21,0x0
  sub x25, x25, x21 # subtract current PC to make position-independent
    2c14:	415c8cb3          	sub	x25,x25,x21
  # Check if x25 contains the expected result. x1 is the signature ptr, x5 is the link ptr, x4 is a temp reg.
  RVTEST_SIGUPD(x1, x5, x4, x25, I_jalr_cg_cmp_rd_rs1_nx0_b25, I_jalr_cg_cmp_rd_rs1_nx0_b25_str)
    2c18:	0000a203          	lw	x4,0(x1)
    2c1c:	01920863          	beq	x4,x25,2c2c <I_jalr_cg_cmp_rd_rs1_nx0_b25+0x40>
    2c20:	7fd002ef          	jal	x5,3c1c <failedtest_x5_x4>
    2c24:	00002bec          	.word	0x00002bec
    2c28:	00009433          	.word	0x00009433
    2c2c:	00408093          	addi	x1,x1,4
    2c30:	00000013          	addi	x0,x0,0
    2c34:	00000013          	addi	x0,x0,0
    2c38:	00000013          	addi	x0,x0,0
    2c3c:	00000013          	addi	x0,x0,0

# Testcase cmp_rd_rs1_nx0 (Test rd = rs1 = x26)
  LA(x26, 1f) # load jump target address
    2c40:	00000d17          	auipc	x26,0x0
    2c44:	034d0d13          	addi	x26,x26,52 # 2c74 <I_jalr_cg_cmp_rd_rs1_nx0_b26+0x8>
    2c48:	00000013          	addi	x0,x0,0
    2c4c:	00000013          	addi	x0,x0,0
    2c50:	00000013          	addi	x0,x0,0
    2c54:	00000013          	addi	x0,x0,0
    2c58:	00000013          	addi	x0,x0,0
    2c5c:	00000013          	addi	x0,x0,0
  RVTEST_TESTDATA_LOAD_INT(x28, x31) # load jump check value: x31 = 0xda1385b0
    2c60:	000e2f83          	lw	x31,0(x28)
    2c64:	004e0e13          	addi	x28,x28,4
  addi x26, x26, 289 # adjust base address for offset
    2c68:	121d0d13          	addi	x26,x26,289

00002c6c <I_jalr_cg_cmp_rd_rs1_nx0_b26>:
I_jalr_cg_cmp_rd_rs1_nx0_b26:
  jalr x26, x26, -289 # perform jump with offset
    2c6c:	edfd0d67          	jalr	x26,-289(x26)
  addi x31, x31, -4 # should not execute
    2c70:	ffcf8f93          	addi	x31,x31,-4
1:
  addi x31, x31, 2 # should execute
    2c74:	002f8f93          	addi	x31,x31,2
  # Check if x31 contains the expected result. x1 is the signature ptr, x5 is the link ptr, x4 is a temp reg.
  RVTEST_SIGUPD(x1, x5, x4, x31, I_jalr_cg_cmp_rd_rs1_nx0_b26, I_jalr_cg_cmp_rd_rs1_nx0_b26_str)
    2c78:	0000a203          	lw	x4,0(x1)
    2c7c:	01f20863          	beq	x4,x31,2c8c <I_jalr_cg_cmp_rd_rs1_nx0_b26+0x20>
    2c80:	79d002ef          	jal	x5,3c1c <failedtest_x5_x4>
    2c84:	00002c6c          	.word	0x00002c6c
    2c88:	0000946b          	.word	0x0000946b
    2c8c:	00408093          	addi	x1,x1,4
  auipc x31, 0 # get current PC
    2c90:	00000f97          	auipc	x31,0x0
  sub x26, x26, x31 # subtract current PC to make position-independent
    2c94:	41fd0d33          	sub	x26,x26,x31
  # Check if x26 contains the expected result. x1 is the signature ptr, x5 is the link ptr, x4 is a temp reg.
  RVTEST_SIGUPD(x1, x5, x4, x26, I_jalr_cg_cmp_rd_rs1_nx0_b26, I_jalr_cg_cmp_rd_rs1_nx0_b26_str)
    2c98:	0000a203          	lw	x4,0(x1)
    2c9c:	01a20863          	beq	x4,x26,2cac <I_jalr_cg_cmp_rd_rs1_nx0_b26+0x40>
    2ca0:	77d002ef          	jal	x5,3c1c <failedtest_x5_x4>
    2ca4:	00002c6c          	.word	0x00002c6c
    2ca8:	0000946b          	.word	0x0000946b
    2cac:	00408093          	addi	x1,x1,4
    2cb0:	00000013          	addi	x0,x0,0
    2cb4:	00000013          	addi	x0,x0,0
    2cb8:	00000013          	addi	x0,x0,0
    2cbc:	00000013          	addi	x0,x0,0

# Testcase cmp_rd_rs1_nx0 (Test rd = rs1 = x27)
  LA(x27, 1f) # load jump target address
    2cc0:	00000d97          	auipc	x27,0x0
    2cc4:	034d8d93          	addi	x27,x27,52 # 2cf4 <I_jalr_cg_cmp_rd_rs1_nx0_b27+0x8>
    2cc8:	00000013          	addi	x0,x0,0
    2ccc:	00000013          	addi	x0,x0,0
    2cd0:	00000013          	addi	x0,x0,0
    2cd4:	00000013          	addi	x0,x0,0
    2cd8:	00000013          	addi	x0,x0,0
    2cdc:	00000013          	addi	x0,x0,0
  RVTEST_TESTDATA_LOAD_INT(x28, x15) # load jump check value: x15 = 0x2e99bd0b
    2ce0:	000e2783          	lw	x15,0(x28)
    2ce4:	004e0e13          	addi	x28,x28,4
  addi x27, x27, -1137 # adjust base address for offset
    2ce8:	b8fd8d93          	addi	x27,x27,-1137

00002cec <I_jalr_cg_cmp_rd_rs1_nx0_b27>:
I_jalr_cg_cmp_rd_rs1_nx0_b27:
  jalr x27, x27, 1137 # perform jump with offset
    2cec:	471d8de7          	jalr	x27,1137(x27)
  addi x15, x15, -4 # should not execute
    2cf0:	ffc78793          	addi	x15,x15,-4
1:
  addi x15, x15, 2 # should execute
    2cf4:	00278793          	addi	x15,x15,2
  # Check if x15 contains the expected result. x1 is the signature ptr, x5 is the link ptr, x4 is a temp reg.
  RVTEST_SIGUPD(x1, x5, x4, x15, I_jalr_cg_cmp_rd_rs1_nx0_b27, I_jalr_cg_cmp_rd_rs1_nx0_b27_str)
    2cf8:	0000a203          	lw	x4,0(x1)
    2cfc:	00f20863          	beq	x4,x15,2d0c <I_jalr_cg_cmp_rd_rs1_nx0_b27+0x20>
    2d00:	71d002ef          	jal	x5,3c1c <failedtest_x5_x4>
    2d04:	00002cec          	.word	0x00002cec
    2d08:	000094a3          	.word	0x000094a3
    2d0c:	00408093          	addi	x1,x1,4
  auipc x15, 0 # get current PC
    2d10:	00000797          	auipc	x15,0x0
  sub x27, x27, x15 # subtract current PC to make position-independent
    2d14:	40fd8db3          	sub	x27,x27,x15
  # Check if x27 contains the expected result. x1 is the signature ptr, x5 is the link ptr, x4 is a temp reg.
  RVTEST_SIGUPD(x1, x5, x4, x27, I_jalr_cg_cmp_rd_rs1_nx0_b27, I_jalr_cg_cmp_rd_rs1_nx0_b27_str)
    2d18:	0000a203          	lw	x4,0(x1)
    2d1c:	01b20863          	beq	x4,x27,2d2c <I_jalr_cg_cmp_rd_rs1_nx0_b27+0x40>
    2d20:	6fd002ef          	jal	x5,3c1c <failedtest_x5_x4>
    2d24:	00002cec          	.word	0x00002cec
    2d28:	000094a3          	.word	0x000094a3
    2d2c:	00408093          	addi	x1,x1,4

  mv x25, x28 # switch data pointer register to avoid conflict with test
    2d30:	000e0c93          	addi	x25,x28,0
    2d34:	00000013          	addi	x0,x0,0
    2d38:	00000013          	addi	x0,x0,0
    2d3c:	00000013          	addi	x0,x0,0
# Testcase cmp_rd_rs1_nx0 (Test rd = rs1 = x28)
  LA(x28, 1f) # load jump target address
    2d40:	00000e17          	auipc	x28,0x0
    2d44:	034e0e13          	addi	x28,x28,52 # 2d74 <I_jalr_cg_cmp_rd_rs1_nx0_b28+0x8>
    2d48:	00000013          	addi	x0,x0,0
    2d4c:	00000013          	addi	x0,x0,0
    2d50:	00000013          	addi	x0,x0,0
    2d54:	00000013          	addi	x0,x0,0
    2d58:	00000013          	addi	x0,x0,0
    2d5c:	00000013          	addi	x0,x0,0
  RVTEST_TESTDATA_LOAD_INT(x25, x9) # load jump check value: x9 = 0x1e0bcc12
    2d60:	000ca483          	lw	x9,0(x25)
    2d64:	004c8c93          	addi	x25,x25,4
  addi x28, x28, -1421 # adjust base address for offset
    2d68:	a73e0e13          	addi	x28,x28,-1421

00002d6c <I_jalr_cg_cmp_rd_rs1_nx0_b28>:
I_jalr_cg_cmp_rd_rs1_nx0_b28:
  jalr x28, x28, 1421 # perform jump with offset
    2d6c:	58de0e67          	jalr	x28,1421(x28)
  addi x9, x9, -4 # should not execute
    2d70:	ffc48493          	addi	x9,x9,-4
1:
  addi x9, x9, 2 # should execute
    2d74:	00248493          	addi	x9,x9,2
  # Check if x9 contains the expected result. x1 is the signature ptr, x5 is the link ptr, x4 is a temp reg.
  RVTEST_SIGUPD(x1, x5, x4, x9, I_jalr_cg_cmp_rd_rs1_nx0_b28, I_jalr_cg_cmp_rd_rs1_nx0_b28_str)
    2d78:	0000a203          	lw	x4,0(x1)
    2d7c:	00920863          	beq	x4,x9,2d8c <I_jalr_cg_cmp_rd_rs1_nx0_b28+0x20>
    2d80:	69d002ef          	jal	x5,3c1c <failedtest_x5_x4>
    2d84:	00002d6c          	.word	0x00002d6c
    2d88:	000094db          	.word	0x000094db
    2d8c:	00408093          	addi	x1,x1,4
  auipc x9, 0 # get current PC
    2d90:	00000497          	auipc	x9,0x0
  sub x28, x28, x9 # subtract current PC to make position-independent
    2d94:	409e0e33          	sub	x28,x28,x9
  # Check if x28 contains the expected result. x1 is the signature ptr, x5 is the link ptr, x4 is a temp reg.
  RVTEST_SIGUPD(x1, x5, x4, x28, I_jalr_cg_cmp_rd_rs1_nx0_b28, I_jalr_cg_cmp_rd_rs1_nx0_b28_str)
    2d98:	0000a203          	lw	x4,0(x1)
    2d9c:	01c20863          	beq	x4,x28,2dac <I_jalr_cg_cmp_rd_rs1_nx0_b28+0x40>
    2da0:	67d002ef          	jal	x5,3c1c <failedtest_x5_x4>
    2da4:	00002d6c          	.word	0x00002d6c
    2da8:	000094db          	.word	0x000094db
    2dac:	00408093          	addi	x1,x1,4
    2db0:	00000013          	addi	x0,x0,0
    2db4:	00000013          	addi	x0,x0,0
    2db8:	00000013          	addi	x0,x0,0
    2dbc:	00000013          	addi	x0,x0,0

# Testcase cmp_rd_rs1_nx0 (Test rd = rs1 = x29)
  LA(x29, 1f) # load jump target address
    2dc0:	00000e97          	auipc	x29,0x0
    2dc4:	034e8e93          	addi	x29,x29,52 # 2df4 <I_jalr_cg_cmp_rd_rs1_nx0_b29+0x8>
    2dc8:	00000013          	addi	x0,x0,0
    2dcc:	00000013          	addi	x0,x0,0
    2dd0:	00000013          	addi	x0,x0,0
    2dd4:	00000013          	addi	x0,x0,0
    2dd8:	00000013          	addi	x0,x0,0
    2ddc:	00000013          	addi	x0,x0,0
  RVTEST_TESTDATA_LOAD_INT(x25, x11) # load jump check value: x11 = 0x82f30a06
    2de0:	000ca583          	lw	x11,0(x25)
    2de4:	004c8c93          	addi	x25,x25,4
  addi x29, x29, 1479 # adjust base address for offset
    2de8:	5c7e8e93          	addi	x29,x29,1479

00002dec <I_jalr_cg_cmp_rd_rs1_nx0_b29>:
I_jalr_cg_cmp_rd_rs1_nx0_b29:
  jalr x29, x29, -1479 # perform jump with offset
    2dec:	a39e8ee7          	jalr	x29,-1479(x29)
  addi x11, x11, -4 # should not execute
    2df0:	ffc58593          	addi	x11,x11,-4
1:
  addi x11, x11, 2 # should execute
    2df4:	00258593          	addi	x11,x11,2
  # Check if x11 contains the expected result. x1 is the signature ptr, x5 is the link ptr, x4 is a temp reg.
  RVTEST_SIGUPD(x1, x5, x4, x11, I_jalr_cg_cmp_rd_rs1_nx0_b29, I_jalr_cg_cmp_rd_rs1_nx0_b29_str)
    2df8:	0000a203          	lw	x4,0(x1)
    2dfc:	00b20863          	beq	x4,x11,2e0c <I_jalr_cg_cmp_rd_rs1_nx0_b29+0x20>
    2e00:	61d002ef          	jal	x5,3c1c <failedtest_x5_x4>
    2e04:	00002dec          	.word	0x00002dec
    2e08:	00009513          	.word	0x00009513
    2e0c:	00408093          	addi	x1,x1,4
  auipc x11, 0 # get current PC
    2e10:	00000597          	auipc	x11,0x0
  sub x29, x29, x11 # subtract current PC to make position-independent
    2e14:	40be8eb3          	sub	x29,x29,x11
  # Check if x29 contains the expected result. x1 is the signature ptr, x5 is the link ptr, x4 is a temp reg.
  RVTEST_SIGUPD(x1, x5, x4, x29, I_jalr_cg_cmp_rd_rs1_nx0_b29, I_jalr_cg_cmp_rd_rs1_nx0_b29_str)
    2e18:	0000a203          	lw	x4,0(x1)
    2e1c:	01d20863          	beq	x4,x29,2e2c <I_jalr_cg_cmp_rd_rs1_nx0_b29+0x40>
    2e20:	5fd002ef          	jal	x5,3c1c <failedtest_x5_x4>
    2e24:	00002dec          	.word	0x00002dec
    2e28:	00009513          	.word	0x00009513
    2e2c:	00408093          	addi	x1,x1,4
    2e30:	00000013          	addi	x0,x0,0
    2e34:	00000013          	addi	x0,x0,0
    2e38:	00000013          	addi	x0,x0,0
    2e3c:	00000013          	addi	x0,x0,0

# Testcase cmp_rd_rs1_nx0 (Test rd = rs1 = x30)
  LA(x30, 1f) # load jump target address
    2e40:	00000f17          	auipc	x30,0x0
    2e44:	034f0f13          	addi	x30,x30,52 # 2e74 <I_jalr_cg_cmp_rd_rs1_nx0_b30+0x8>
    2e48:	00000013          	addi	x0,x0,0
    2e4c:	00000013          	addi	x0,x0,0
    2e50:	00000013          	addi	x0,x0,0
    2e54:	00000013          	addi	x0,x0,0
    2e58:	00000013          	addi	x0,x0,0
    2e5c:	00000013          	addi	x0,x0,0
  RVTEST_TESTDATA_LOAD_INT(x25, x7) # load jump check value: x7 = 0xca01bb62
    2e60:	000ca383          	lw	x7,0(x25)
    2e64:	004c8c93          	addi	x25,x25,4
  addi x30, x30, 567 # adjust base address for offset
    2e68:	237f0f13          	addi	x30,x30,567

00002e6c <I_jalr_cg_cmp_rd_rs1_nx0_b30>:
I_jalr_cg_cmp_rd_rs1_nx0_b30:
  jalr x30, x30, -567 # perform jump with offset
    2e6c:	dc9f0f67          	jalr	x30,-567(x30)
  addi x7, x7, -4 # should not execute
    2e70:	ffc38393          	addi	x7,x7,-4 # 258c <I_jalr_cg_cmp_rd_rs1_nx0_b12+0x20>
1:
  addi x7, x7, 2 # should execute
    2e74:	00238393          	addi	x7,x7,2
  # Check if x7 contains the expected result. x1 is the signature ptr, x5 is the link ptr, x4 is a temp reg.
  RVTEST_SIGUPD(x1, x5, x4, x7, I_jalr_cg_cmp_rd_rs1_nx0_b30, I_jalr_cg_cmp_rd_rs1_nx0_b30_str)
    2e78:	0000a203          	lw	x4,0(x1)
    2e7c:	00720863          	beq	x4,x7,2e8c <I_jalr_cg_cmp_rd_rs1_nx0_b30+0x20>
    2e80:	59d002ef          	jal	x5,3c1c <failedtest_x5_x4>
    2e84:	00002e6c          	.word	0x00002e6c
    2e88:	0000954b          	.word	0x0000954b
    2e8c:	00408093          	addi	x1,x1,4
  auipc x7, 0 # get current PC
    2e90:	00000397          	auipc	x7,0x0
  sub x30, x30, x7 # subtract current PC to make position-independent
    2e94:	407f0f33          	sub	x30,x30,x7
  # Check if x30 contains the expected result. x1 is the signature ptr, x5 is the link ptr, x4 is a temp reg.
  RVTEST_SIGUPD(x1, x5, x4, x30, I_jalr_cg_cmp_rd_rs1_nx0_b30, I_jalr_cg_cmp_rd_rs1_nx0_b30_str)
    2e98:	0000a203          	lw	x4,0(x1)
    2e9c:	01e20863          	beq	x4,x30,2eac <I_jalr_cg_cmp_rd_rs1_nx0_b30+0x40>
    2ea0:	57d002ef          	jal	x5,3c1c <failedtest_x5_x4>
    2ea4:	00002e6c          	.word	0x00002e6c
    2ea8:	0000954b          	.word	0x0000954b
    2eac:	00408093          	addi	x1,x1,4
    2eb0:	00000013          	addi	x0,x0,0
    2eb4:	00000013          	addi	x0,x0,0
    2eb8:	00000013          	addi	x0,x0,0
    2ebc:	00000013          	addi	x0,x0,0

# Testcase cmp_rd_rs1_nx0 (Test rd = rs1 = x31)
  LA(x31, 1f) # load jump target address
    2ec0:	00000f97          	auipc	x31,0x0
    2ec4:	034f8f93          	addi	x31,x31,52 # 2ef4 <I_jalr_cg_cmp_rd_rs1_nx0_b31+0x8>
    2ec8:	00000013          	addi	x0,x0,0
    2ecc:	00000013          	addi	x0,x0,0
    2ed0:	00000013          	addi	x0,x0,0
    2ed4:	00000013          	addi	x0,x0,0
    2ed8:	00000013          	addi	x0,x0,0
    2edc:	00000013          	addi	x0,x0,0
  RVTEST_TESTDATA_LOAD_INT(x25, x26) # load jump check value: x26 = 0x2ce0ae09
    2ee0:	000cad03          	lw	x26,0(x25)
    2ee4:	004c8c93          	addi	x25,x25,4
  addi x31, x31, -528 # adjust base address for offset
    2ee8:	df0f8f93          	addi	x31,x31,-528

00002eec <I_jalr_cg_cmp_rd_rs1_nx0_b31>:
I_jalr_cg_cmp_rd_rs1_nx0_b31:
  jalr x31, x31, 528 # perform jump with offset
    2eec:	210f8fe7          	jalr	x31,528(x31)
  addi x26, x26, -4 # should not execute
    2ef0:	ffcd0d13          	addi	x26,x26,-4
1:
  addi x26, x26, 2 # should execute
    2ef4:	002d0d13          	addi	x26,x26,2
  # Check if x26 contains the expected result. x1 is the signature ptr, x5 is the link ptr, x4 is a temp reg.
  RVTEST_SIGUPD(x1, x5, x4, x26, I_jalr_cg_cmp_rd_rs1_nx0_b31, I_jalr_cg_cmp_rd_rs1_nx0_b31_str)
    2ef8:	0000a203          	lw	x4,0(x1)
    2efc:	01a20863          	beq	x4,x26,2f0c <I_jalr_cg_cmp_rd_rs1_nx0_b31+0x20>
    2f00:	51d002ef          	jal	x5,3c1c <failedtest_x5_x4>
    2f04:	00002eec          	.word	0x00002eec
    2f08:	00009583          	.word	0x00009583
    2f0c:	00408093          	addi	x1,x1,4
  auipc x26, 0 # get current PC
    2f10:	00000d17          	auipc	x26,0x0
  sub x31, x31, x26 # subtract current PC to make position-independent
    2f14:	41af8fb3          	sub	x31,x31,x26
  # Check if x31 contains the expected result. x1 is the signature ptr, x5 is the link ptr, x4 is a temp reg.
  RVTEST_SIGUPD(x1, x5, x4, x31, I_jalr_cg_cmp_rd_rs1_nx0_b31, I_jalr_cg_cmp_rd_rs1_nx0_b31_str)
    2f18:	0000a203          	lw	x4,0(x1)
    2f1c:	01f20863          	beq	x4,x31,2f2c <I_jalr_cg_cmp_rd_rs1_nx0_b31+0x40>
    2f20:	4fd002ef          	jal	x5,3c1c <failedtest_x5_x4>
    2f24:	00002eec          	.word	0x00002eec
    2f28:	00009583          	.word	0x00009583
    2f2c:	00408093          	addi	x1,x1,4
/////////////////////////////////
// cp_offset_jalr
/////////////////////////////////

# Testcase cp_offset negative bin (positive bin is covered by other coverpoints)
  RVTEST_TESTDATA_LOAD_INT(x25, x20) # load jump check value: x20 = 0xab821ff3
    2f30:	000caa03          	lw	x20,0(x25)
    2f34:	004c8c93          	addi	x25,x25,4
  j 2f # jump past backward jump target
    2f38:	00c0006f          	jal	x0,2f44 <I_jalr_cg_cmp_rd_rs1_nx0_b31+0x58>
1: addi x20, x20, 4 # backward jump target, increment check value
    2f3c:	004a0a13          	addi	x20,x20,4
  j 3f # jump past backward jump
    2f40:	0480006f          	jal	x0,2f88 <I_jalr_cg_cp_offset_jalr_neg+0x8>
    2f44:	00000013          	addi	x0,x0,0
    2f48:	00000013          	addi	x0,x0,0
    2f4c:	00000013          	addi	x0,x0,0
    2f50:	00000013          	addi	x0,x0,0
    2f54:	00000013          	addi	x0,x0,0
    2f58:	00000013          	addi	x0,x0,0
    2f5c:	00000013          	addi	x0,x0,0
2: LA(x15, 1b) # load backward jump target
    2f60:	00000797          	auipc	x15,0x0
    2f64:	fdc78793          	addi	x15,x15,-36 # 2f3c <I_jalr_cg_cmp_rd_rs1_nx0_b31+0x50>
    2f68:	00000013          	addi	x0,x0,0
    2f6c:	00000013          	addi	x0,x0,0
    2f70:	00000013          	addi	x0,x0,0
    2f74:	00000013          	addi	x0,x0,0
    2f78:	00000013          	addi	x0,x0,0
    2f7c:	00000013          	addi	x0,x0,0

00002f80 <I_jalr_cg_cp_offset_jalr_neg>:
I_jalr_cg_cp_offset_jalr_neg:
  jalr x27, x15, 0 # backward jump
    2f80:	00078de7          	jalr	x27,0(x15)
  addi x20, x20, -2 # jump not taken, decrement check value
    2f84:	ffea0a13          	addi	x20,x20,-2
3:  # done with sequence
  # Check if x20 contains the expected result. x1 is the signature ptr, x5 is the link ptr, x4 is a temp reg.
  RVTEST_SIGUPD(x1, x5, x4, x20, I_jalr_cg_cp_offset_jalr_neg, I_jalr_cg_cp_offset_jalr_neg_str)
    2f88:	0000a203          	lw	x4,0(x1)
    2f8c:	01420863          	beq	x4,x20,2f9c <I_jalr_cg_cp_offset_jalr_neg+0x1c>
    2f90:	48d002ef          	jal	x5,3c1c <failedtest_x5_x4>
    2f94:	00002f80          	.word	0x00002f80
    2f98:	000095bb          	.word	0x000095bb
    2f9c:	00408093          	addi	x1,x1,4
  # check return address from jalr
  auipc x20, 0 # get current PC
    2fa0:	00000a17          	auipc	x20,0x0
  sub x27, x27, x20 # subtract PC to make position-independent
    2fa4:	414d8db3          	sub	x27,x27,x20
  # Check if x27 contains the expected result. x1 is the signature ptr, x5 is the link ptr, x4 is a temp reg.
  RVTEST_SIGUPD(x1, x5, x4, x27, I_jalr_cg_cp_offset_jalr_neg, I_jalr_cg_cp_offset_jalr_neg_str)
    2fa8:	0000a203          	lw	x4,0(x1)
    2fac:	01b20863          	beq	x4,x27,2fbc <I_jalr_cg_cp_offset_jalr_neg+0x3c>
    2fb0:	46d002ef          	jal	x5,3c1c <failedtest_x5_x4>
    2fb4:	00002f80          	.word	0x00002f80
    2fb8:	000095bb          	.word	0x000095bb
    2fbc:	00408093          	addi	x1,x1,4

# Testcase cp_offset_lsbs (rs1 LSB=0, imm LSB=0)
  RVTEST_TESTDATA_LOAD_INT(x25, x26) # load jump check value: x26 = 0xfc2ca3f9
    2fc0:	000cad03          	lw	x26,0(x25)
    2fc4:	004c8c93          	addi	x25,x25,4
    2fc8:	00000013          	addi	x0,x0,0
    2fcc:	00000013          	addi	x0,x0,0
    2fd0:	00000013          	addi	x0,x0,0
    2fd4:	00000013          	addi	x0,x0,0
    2fd8:	00000013          	addi	x0,x0,0
    2fdc:	00000013          	addi	x0,x0,0
  LA(x22, jalrlsb_00) # load address of label
    2fe0:	00000b17          	auipc	x22,0x0
    2fe4:	02cb0b13          	addi	x22,x22,44 # 300c <jalrlsb_00>
    2fe8:	00000013          	addi	x0,x0,0
    2fec:	00000013          	addi	x0,x0,0
    2ff0:	00000013          	addi	x0,x0,0
    2ff4:	00000013          	addi	x0,x0,0
    2ff8:	00000013          	addi	x0,x0,0
    2ffc:	00000013          	addi	x0,x0,0
  addi x22, x22, 0 # set rs1 LSB to 0
    3000:	000b0b13          	addi	x22,x22,0

00003004 <I_jalr_cg_cp_offset_lsbs_0_0>:
I_jalr_cg_cp_offset_lsbs_0_0:
  jalr x9, x22, 0 # jump with imm LSB = 0
    3004:	000b04e7          	jalr	x9,0(x22)
  addi x26, x26, -4  # should not execute; branch not taken
    3008:	ffcd0d13          	addi	x26,x26,-4 # 2f0c <I_jalr_cg_cmp_rd_rs1_nx0_b31+0x20>

0000300c <jalrlsb_00>:
jalrlsb_00: addi x26, x26, 2 # should execute; branch taken
    300c:	002d0d13          	addi	x26,x26,2
  # check jump taken
  # Check if x26 contains the expected result. x1 is the signature ptr, x5 is the link ptr, x4 is a temp reg.
  RVTEST_SIGUPD(x1, x5, x4, x26, I_jalr_cg_cp_offset_lsbs_0_0, I_jalr_cg_cp_offset_lsbs_0_0_str)
    3010:	0000a203          	lw	x4,0(x1)
    3014:	01a20863          	beq	x4,x26,3024 <jalrlsb_00+0x18>
    3018:	405002ef          	jal	x5,3c1c <failedtest_x5_x4>
    301c:	00003004          	.word	0x00003004
    3020:	000095f3          	.word	0x000095f3
    3024:	00408093          	addi	x1,x1,4
  # check return address from jalr
  auipc x26, 0 # get current PC
    3028:	00000d17          	auipc	x26,0x0
  sub x9, x9, x26 # subtract PC to make position-independent
    302c:	41a484b3          	sub	x9,x9,x26
  # Check if x9 contains the expected result. x1 is the signature ptr, x5 is the link ptr, x4 is a temp reg.
  RVTEST_SIGUPD(x1, x5, x4, x9, I_jalr_cg_cp_offset_lsbs_0_0, I_jalr_cg_cp_offset_lsbs_0_0_str)
    3030:	0000a203          	lw	x4,0(x1)
    3034:	00920863          	beq	x4,x9,3044 <jalrlsb_00+0x38>
    3038:	3e5002ef          	jal	x5,3c1c <failedtest_x5_x4>
    303c:	00003004          	.word	0x00003004
    3040:	000095f3          	.word	0x000095f3
    3044:	00408093          	addi	x1,x1,4

# Testcase cp_offset_lsbs (rs1 LSB=0, imm LSB=1)
  RVTEST_TESTDATA_LOAD_INT(x25, x6) # load jump check value: x6 = 0xcb360253
    3048:	000ca303          	lw	x6,0(x25)
    304c:	004c8c93          	addi	x25,x25,4
    3050:	00000013          	addi	x0,x0,0
    3054:	00000013          	addi	x0,x0,0
    3058:	00000013          	addi	x0,x0,0
    305c:	00000013          	addi	x0,x0,0
  LA(x3, jalrlsb_01) # load address of label
    3060:	00000197          	auipc	x3,0x0
    3064:	02c18193          	addi	x3,x3,44 # 308c <jalrlsb_01>
    3068:	00000013          	addi	x0,x0,0
    306c:	00000013          	addi	x0,x0,0
    3070:	00000013          	addi	x0,x0,0
    3074:	00000013          	addi	x0,x0,0
    3078:	00000013          	addi	x0,x0,0
    307c:	00000013          	addi	x0,x0,0
  addi x3, x3, 0 # set rs1 LSB to 0
    3080:	00018193          	addi	x3,x3,0

00003084 <I_jalr_cg_cp_offset_lsbs_0_1>:
I_jalr_cg_cp_offset_lsbs_0_1:
  jalr x30, x3, 1 # jump with imm LSB = 1
    3084:	00118f67          	jalr	x30,1(x3)
  addi x6, x6, -4  # should not execute; branch not taken
    3088:	ffc30313          	addi	x6,x6,-4

0000308c <jalrlsb_01>:
jalrlsb_01: addi x6, x6, 2 # should execute; branch taken
    308c:	00230313          	addi	x6,x6,2
  # check jump taken
  # Check if x6 contains the expected result. x1 is the signature ptr, x5 is the link ptr, x4 is a temp reg.
  RVTEST_SIGUPD(x1, x5, x4, x6, I_jalr_cg_cp_offset_lsbs_0_1, I_jalr_cg_cp_offset_lsbs_0_1_str)
    3090:	0000a203          	lw	x4,0(x1)
    3094:	00620863          	beq	x4,x6,30a4 <jalrlsb_01+0x18>
    3098:	385002ef          	jal	x5,3c1c <failedtest_x5_x4>
    309c:	00003084          	.word	0x00003084
    30a0:	0000962b          	.word	0x0000962b
    30a4:	00408093          	addi	x1,x1,4
  # check return address from jalr
  auipc x6, 0 # get current PC
    30a8:	00000317          	auipc	x6,0x0
  sub x30, x30, x6 # subtract PC to make position-independent
    30ac:	406f0f33          	sub	x30,x30,x6
  # Check if x30 contains the expected result. x1 is the signature ptr, x5 is the link ptr, x4 is a temp reg.
  RVTEST_SIGUPD(x1, x5, x4, x30, I_jalr_cg_cp_offset_lsbs_0_1, I_jalr_cg_cp_offset_lsbs_0_1_str)
    30b0:	0000a203          	lw	x4,0(x1)
    30b4:	01e20863          	beq	x4,x30,30c4 <jalrlsb_01+0x38>
    30b8:	365002ef          	jal	x5,3c1c <failedtest_x5_x4>
    30bc:	00003084          	.word	0x00003084
    30c0:	0000962b          	.word	0x0000962b
    30c4:	00408093          	addi	x1,x1,4

# Testcase cp_offset_lsbs (rs1 LSB=1, imm LSB=0)
  RVTEST_TESTDATA_LOAD_INT(x25, x17) # load jump check value: x17 = 0xf3cb2e4c
    30c8:	000ca883          	lw	x17,0(x25)
    30cc:	004c8c93          	addi	x25,x25,4
    30d0:	00000013          	addi	x0,x0,0
    30d4:	00000013          	addi	x0,x0,0
    30d8:	00000013          	addi	x0,x0,0
    30dc:	00000013          	addi	x0,x0,0
  LA(x18, jalrlsb_10) # load address of label
    30e0:	00000917          	auipc	x18,0x0
    30e4:	02c90913          	addi	x18,x18,44 # 310c <jalrlsb_10>
    30e8:	00000013          	addi	x0,x0,0
    30ec:	00000013          	addi	x0,x0,0
    30f0:	00000013          	addi	x0,x0,0
    30f4:	00000013          	addi	x0,x0,0
    30f8:	00000013          	addi	x0,x0,0
    30fc:	00000013          	addi	x0,x0,0
  addi x18, x18, 1 # set rs1 LSB to 1
    3100:	00190913          	addi	x18,x18,1

00003104 <I_jalr_cg_cp_offset_lsbs_1_0>:
I_jalr_cg_cp_offset_lsbs_1_0:
  jalr x29, x18, 0 # jump with imm LSB = 0
    3104:	00090ee7          	jalr	x29,0(x18)
  addi x17, x17, -4  # should not execute; branch not taken
    3108:	ffc88893          	addi	x17,x17,-4 # 2b0c <I_jalr_cg_cmp_rd_rs1_nx0_b23+0x20>

0000310c <jalrlsb_10>:
jalrlsb_10: addi x17, x17, 2 # should execute; branch taken
    310c:	00288893          	addi	x17,x17,2
  # check jump taken
  # Check if x17 contains the expected result. x1 is the signature ptr, x5 is the link ptr, x4 is a temp reg.
  RVTEST_SIGUPD(x1, x5, x4, x17, I_jalr_cg_cp_offset_lsbs_1_0, I_jalr_cg_cp_offset_lsbs_1_0_str)
    3110:	0000a203          	lw	x4,0(x1)
    3114:	01120863          	beq	x4,x17,3124 <jalrlsb_10+0x18>
    3118:	305002ef          	jal	x5,3c1c <failedtest_x5_x4>
    311c:	00003104          	.word	0x00003104
    3120:	00009663          	.word	0x00009663
    3124:	00408093          	addi	x1,x1,4
  # check return address from jalr
  auipc x17, 0 # get current PC
    3128:	00000897          	auipc	x17,0x0
  sub x29, x29, x17 # subtract PC to make position-independent
    312c:	411e8eb3          	sub	x29,x29,x17
  # Check if x29 contains the expected result. x1 is the signature ptr, x5 is the link ptr, x4 is a temp reg.
  RVTEST_SIGUPD(x1, x5, x4, x29, I_jalr_cg_cp_offset_lsbs_1_0, I_jalr_cg_cp_offset_lsbs_1_0_str)
    3130:	0000a203          	lw	x4,0(x1)
    3134:	01d20863          	beq	x4,x29,3144 <jalrlsb_10+0x38>
    3138:	2e5002ef          	jal	x5,3c1c <failedtest_x5_x4>
    313c:	00003104          	.word	0x00003104
    3140:	00009663          	.word	0x00009663
    3144:	00408093          	addi	x1,x1,4

# Testcase cp_offset_lsbs (rs1 LSB=1, imm LSB=1)
  RVTEST_TESTDATA_LOAD_INT(x25, x18) # load jump check value: x18 = 0xe81bd160
    3148:	000ca903          	lw	x18,0(x25)
    314c:	004c8c93          	addi	x25,x25,4
    3150:	00000013          	addi	x0,x0,0
    3154:	00000013          	addi	x0,x0,0
    3158:	00000013          	addi	x0,x0,0
    315c:	00000013          	addi	x0,x0,0
  LA(x22, jalrlsb_11) # load address of label
    3160:	00000b17          	auipc	x22,0x0
    3164:	02cb0b13          	addi	x22,x22,44 # 318c <jalrlsb_11>
    3168:	00000013          	addi	x0,x0,0
    316c:	00000013          	addi	x0,x0,0
    3170:	00000013          	addi	x0,x0,0
    3174:	00000013          	addi	x0,x0,0
    3178:	00000013          	addi	x0,x0,0
    317c:	00000013          	addi	x0,x0,0
  addi x22, x22, 1 # set rs1 LSB to 1
    3180:	001b0b13          	addi	x22,x22,1

00003184 <I_jalr_cg_cp_offset_lsbs_1_1>:
I_jalr_cg_cp_offset_lsbs_1_1:
  jalr x10, x22, -1 # jump with imm LSB = 1
    3184:	fffb0567          	jalr	x10,-1(x22)
  addi x18, x18, -4  # should not execute; branch not taken
    3188:	ffc90913          	addi	x18,x18,-4

0000318c <jalrlsb_11>:
jalrlsb_11: addi x18, x18, 2 # should execute; branch taken
    318c:	00290913          	addi	x18,x18,2
  # check jump taken
  # Check if x18 contains the expected result. x1 is the signature ptr, x5 is the link ptr, x4 is a temp reg.
  RVTEST_SIGUPD(x1, x5, x4, x18, I_jalr_cg_cp_offset_lsbs_1_1, I_jalr_cg_cp_offset_lsbs_1_1_str)
    3190:	0000a203          	lw	x4,0(x1)
    3194:	01220863          	beq	x4,x18,31a4 <jalrlsb_11+0x18>
    3198:	285002ef          	jal	x5,3c1c <failedtest_x5_x4>
    319c:	00003184          	.word	0x00003184
    31a0:	0000969b          	.word	0x0000969b
    31a4:	00408093          	addi	x1,x1,4
  # check return address from jalr
  auipc x18, 0 # get current PC
    31a8:	00000917          	auipc	x18,0x0
  sub x10, x10, x18 # subtract PC to make position-independent
    31ac:	41250533          	sub	x10,x10,x18
  # Check if x10 contains the expected result. x1 is the signature ptr, x5 is the link ptr, x4 is a temp reg.
  RVTEST_SIGUPD(x1, x5, x4, x10, I_jalr_cg_cp_offset_lsbs_1_1, I_jalr_cg_cp_offset_lsbs_1_1_str)
    31b0:	0000a203          	lw	x4,0(x1)
    31b4:	00a20863          	beq	x4,x10,31c4 <jalrlsb_11+0x38>
    31b8:	265002ef          	jal	x5,3c1c <failedtest_x5_x4>
    31bc:	00003184          	.word	0x00003184
    31c0:	0000969b          	.word	0x0000969b
    31c4:	00408093          	addi	x1,x1,4
    31c8:	00000013          	addi	x0,x0,0
    31cc:	00000013          	addi	x0,x0,0
    31d0:	00000013          	addi	x0,x0,0
    31d4:	00000013          	addi	x0,x0,0
    31d8:	00000013          	addi	x0,x0,0
    31dc:	00000013          	addi	x0,x0,0
/////////////////////////////////
// cp_imm_edges
/////////////////////////////////

# Testcase cp_imm_edges (imm = 0)
  LA(x28, 1f) # load jump target address
    31e0:	00000e17          	auipc	x28,0x0
    31e4:	034e0e13          	addi	x28,x28,52 # 3214 <I_jalr_cg_cp_imm_edges_0x0+0x8>
    31e8:	00000013          	addi	x0,x0,0
    31ec:	00000013          	addi	x0,x0,0
    31f0:	00000013          	addi	x0,x0,0
    31f4:	00000013          	addi	x0,x0,0
    31f8:	00000013          	addi	x0,x0,0
    31fc:	00000013          	addi	x0,x0,0
  RVTEST_TESTDATA_LOAD_INT(x25, x26) # load jump check value: x26 = 0xb37160df
    3200:	000cad03          	lw	x26,0(x25)
    3204:	004c8c93          	addi	x25,x25,4
  addi x28, x28, 0 # adjust base address for offset
    3208:	000e0e13          	addi	x28,x28,0

0000320c <I_jalr_cg_cp_imm_edges_0x0>:
I_jalr_cg_cp_imm_edges_0x0:
  jalr x16, x28, 0 # perform jump with offset
    320c:	000e0867          	jalr	x16,0(x28)
  addi x26, x26, -4 # should not execute
    3210:	ffcd0d13          	addi	x26,x26,-4 # 3024 <jalrlsb_00+0x18>
1:
  addi x26, x26, 2 # should execute
    3214:	002d0d13          	addi	x26,x26,2
  # Check if x26 contains the expected result. x1 is the signature ptr, x5 is the link ptr, x4 is a temp reg.
  RVTEST_SIGUPD(x1, x5, x4, x26, I_jalr_cg_cp_imm_edges_0x0, I_jalr_cg_cp_imm_edges_0x0_str)
    3218:	0000a203          	lw	x4,0(x1)
    321c:	01a20863          	beq	x4,x26,322c <I_jalr_cg_cp_imm_edges_0x0+0x20>
    3220:	1fd002ef          	jal	x5,3c1c <failedtest_x5_x4>
    3224:	0000320c          	.word	0x0000320c
    3228:	000096d3          	.word	0x000096d3
    322c:	00408093          	addi	x1,x1,4
  auipc x26, 0 # get current PC
    3230:	00000d17          	auipc	x26,0x0
  sub x16, x16, x26 # subtract current PC to make position-independent
    3234:	41a80833          	sub	x16,x16,x26
  # Check if x16 contains the expected result. x1 is the signature ptr, x5 is the link ptr, x4 is a temp reg.
  RVTEST_SIGUPD(x1, x5, x4, x16, I_jalr_cg_cp_imm_edges_0x0, I_jalr_cg_cp_imm_edges_0x0_str)
    3238:	0000a203          	lw	x4,0(x1)
    323c:	01020863          	beq	x4,x16,324c <I_jalr_cg_cp_imm_edges_0x0+0x40>
    3240:	1dd002ef          	jal	x5,3c1c <failedtest_x5_x4>
    3244:	0000320c          	.word	0x0000320c
    3248:	000096d3          	.word	0x000096d3
    324c:	00408093          	addi	x1,x1,4
    3250:	00000013          	addi	x0,x0,0
    3254:	00000013          	addi	x0,x0,0
    3258:	00000013          	addi	x0,x0,0
    325c:	00000013          	addi	x0,x0,0

# Testcase cp_imm_edges (imm = 1)
  LA(x21, 1f) # load jump target address
    3260:	00000a97          	auipc	x21,0x0
    3264:	034a8a93          	addi	x21,x21,52 # 3294 <I_jalr_cg_cp_imm_edges_0x1+0x8>
    3268:	00000013          	addi	x0,x0,0
    326c:	00000013          	addi	x0,x0,0
    3270:	00000013          	addi	x0,x0,0
    3274:	00000013          	addi	x0,x0,0
    3278:	00000013          	addi	x0,x0,0
    327c:	00000013          	addi	x0,x0,0
  RVTEST_TESTDATA_LOAD_INT(x25, x27) # load jump check value: x27 = 0xbda0bd62
    3280:	000cad83          	lw	x27,0(x25)
    3284:	004c8c93          	addi	x25,x25,4
  addi x21, x21, -1 # adjust base address for offset
    3288:	fffa8a93          	addi	x21,x21,-1

0000328c <I_jalr_cg_cp_imm_edges_0x1>:
I_jalr_cg_cp_imm_edges_0x1:
  jalr x8, x21, 1 # perform jump with offset
    328c:	001a8467          	jalr	x8,1(x21)
  addi x27, x27, -4 # should not execute
    3290:	ffcd8d93          	addi	x27,x27,-4
1:
  addi x27, x27, 2 # should execute
    3294:	002d8d93          	addi	x27,x27,2
  # Check if x27 contains the expected result. x1 is the signature ptr, x5 is the link ptr, x4 is a temp reg.
  RVTEST_SIGUPD(x1, x5, x4, x27, I_jalr_cg_cp_imm_edges_0x1, I_jalr_cg_cp_imm_edges_0x1_str)
    3298:	0000a203          	lw	x4,0(x1)
    329c:	01b20863          	beq	x4,x27,32ac <I_jalr_cg_cp_imm_edges_0x1+0x20>
    32a0:	17d002ef          	jal	x5,3c1c <failedtest_x5_x4>
    32a4:	0000328c          	.word	0x0000328c
    32a8:	0000970a          	.word	0x0000970a
    32ac:	00408093          	addi	x1,x1,4
  auipc x27, 0 # get current PC
    32b0:	00000d97          	auipc	x27,0x0
  sub x8, x8, x27 # subtract current PC to make position-independent
    32b4:	41b40433          	sub	x8,x8,x27
  # Check if x8 contains the expected result. x1 is the signature ptr, x5 is the link ptr, x4 is a temp reg.
  RVTEST_SIGUPD(x1, x5, x4, x8, I_jalr_cg_cp_imm_edges_0x1, I_jalr_cg_cp_imm_edges_0x1_str)
    32b8:	0000a203          	lw	x4,0(x1)
    32bc:	00820863          	beq	x4,x8,32cc <I_jalr_cg_cp_imm_edges_0x1+0x40>
    32c0:	15d002ef          	jal	x5,3c1c <failedtest_x5_x4>
    32c4:	0000328c          	.word	0x0000328c
    32c8:	0000970a          	.word	0x0000970a
    32cc:	00408093          	addi	x1,x1,4
    32d0:	00000013          	addi	x0,x0,0
    32d4:	00000013          	addi	x0,x0,0
    32d8:	00000013          	addi	x0,x0,0
    32dc:	00000013          	addi	x0,x0,0

# Testcase cp_imm_edges (imm = 2)
  LA(x2, 1f) # load jump target address
    32e0:	00000117          	auipc	x2,0x0
    32e4:	03410113          	addi	x2,x2,52 # 3314 <I_jalr_cg_cp_imm_edges_0x2+0x8>
    32e8:	00000013          	addi	x0,x0,0
    32ec:	00000013          	addi	x0,x0,0
    32f0:	00000013          	addi	x0,x0,0
    32f4:	00000013          	addi	x0,x0,0
    32f8:	00000013          	addi	x0,x0,0
    32fc:	00000013          	addi	x0,x0,0
  RVTEST_TESTDATA_LOAD_INT(x25, x7) # load jump check value: x7 = 0xb35a04bc
    3300:	000ca383          	lw	x7,0(x25)
    3304:	004c8c93          	addi	x25,x25,4
  addi x2, x2, -2 # adjust base address for offset
    3308:	ffe10113          	addi	x2,x2,-2

0000330c <I_jalr_cg_cp_imm_edges_0x2>:
I_jalr_cg_cp_imm_edges_0x2:
  jalr x28, x2, 2 # perform jump with offset
    330c:	00210e67          	jalr	x28,2(x2)
  addi x7, x7, -4 # should not execute
    3310:	ffc38393          	addi	x7,x7,-4 # 2e8c <I_jalr_cg_cmp_rd_rs1_nx0_b30+0x20>
1:
  addi x7, x7, 2 # should execute
    3314:	00238393          	addi	x7,x7,2
  # Check if x7 contains the expected result. x1 is the signature ptr, x5 is the link ptr, x4 is a temp reg.
  RVTEST_SIGUPD(x1, x5, x4, x7, I_jalr_cg_cp_imm_edges_0x2, I_jalr_cg_cp_imm_edges_0x2_str)
    3318:	0000a203          	lw	x4,0(x1)
    331c:	00720863          	beq	x4,x7,332c <I_jalr_cg_cp_imm_edges_0x2+0x20>
    3320:	0fd002ef          	jal	x5,3c1c <failedtest_x5_x4>
    3324:	0000330c          	.word	0x0000330c
    3328:	00009741          	.word	0x00009741
    332c:	00408093          	addi	x1,x1,4
  auipc x7, 0 # get current PC
    3330:	00000397          	auipc	x7,0x0
  sub x28, x28, x7 # subtract current PC to make position-independent
    3334:	407e0e33          	sub	x28,x28,x7
  # Check if x28 contains the expected result. x1 is the signature ptr, x5 is the link ptr, x4 is a temp reg.
  RVTEST_SIGUPD(x1, x5, x4, x28, I_jalr_cg_cp_imm_edges_0x2, I_jalr_cg_cp_imm_edges_0x2_str)
    3338:	0000a203          	lw	x4,0(x1)
    333c:	01c20863          	beq	x4,x28,334c <I_jalr_cg_cp_imm_edges_0x2+0x40>
    3340:	0dd002ef          	jal	x5,3c1c <failedtest_x5_x4>
    3344:	0000330c          	.word	0x0000330c
    3348:	00009741          	.word	0x00009741
    334c:	00408093          	addi	x1,x1,4
    3350:	00000013          	addi	x0,x0,0
    3354:	00000013          	addi	x0,x0,0
    3358:	00000013          	addi	x0,x0,0
    335c:	00000013          	addi	x0,x0,0

# Testcase cp_imm_edges (imm = 3)
  LA(x29, 1f) # load jump target address
    3360:	00000e97          	auipc	x29,0x0
    3364:	034e8e93          	addi	x29,x29,52 # 3394 <I_jalr_cg_cp_imm_edges_0x3+0x8>
    3368:	00000013          	addi	x0,x0,0
    336c:	00000013          	addi	x0,x0,0
    3370:	00000013          	addi	x0,x0,0
    3374:	00000013          	addi	x0,x0,0
    3378:	00000013          	addi	x0,x0,0
    337c:	00000013          	addi	x0,x0,0
  RVTEST_TESTDATA_LOAD_INT(x25, x6) # load jump check value: x6 = 0xaa07a5e0
    3380:	000ca303          	lw	x6,0(x25)
    3384:	004c8c93          	addi	x25,x25,4
  addi x29, x29, -3 # adjust base address for offset
    3388:	ffde8e93          	addi	x29,x29,-3

0000338c <I_jalr_cg_cp_imm_edges_0x3>:
I_jalr_cg_cp_imm_edges_0x3:
  jalr x13, x29, 3 # perform jump with offset
    338c:	003e86e7          	jalr	x13,3(x29)
  addi x6, x6, -4 # should not execute
    3390:	ffc30313          	addi	x6,x6,-4 # 30a4 <jalrlsb_01+0x18>
1:
  addi x6, x6, 2 # should execute
    3394:	00230313          	addi	x6,x6,2
  # Check if x6 contains the expected result. x1 is the signature ptr, x5 is the link ptr, x4 is a temp reg.
  RVTEST_SIGUPD(x1, x5, x4, x6, I_jalr_cg_cp_imm_edges_0x3, I_jalr_cg_cp_imm_edges_0x3_str)
    3398:	0000a203          	lw	x4,0(x1)
    339c:	00620863          	beq	x4,x6,33ac <I_jalr_cg_cp_imm_edges_0x3+0x20>
    33a0:	07d002ef          	jal	x5,3c1c <failedtest_x5_x4>
    33a4:	0000338c          	.word	0x0000338c
    33a8:	00009778          	.word	0x00009778
    33ac:	00408093          	addi	x1,x1,4
  auipc x6, 0 # get current PC
    33b0:	00000317          	auipc	x6,0x0
  sub x13, x13, x6 # subtract current PC to make position-independent
    33b4:	406686b3          	sub	x13,x13,x6
  # Check if x13 contains the expected result. x1 is the signature ptr, x5 is the link ptr, x4 is a temp reg.
  RVTEST_SIGUPD(x1, x5, x4, x13, I_jalr_cg_cp_imm_edges_0x3, I_jalr_cg_cp_imm_edges_0x3_str)
    33b8:	0000a203          	lw	x4,0(x1)
    33bc:	00d20863          	beq	x4,x13,33cc <I_jalr_cg_cp_imm_edges_0x3+0x40>
    33c0:	05d002ef          	jal	x5,3c1c <failedtest_x5_x4>
    33c4:	0000338c          	.word	0x0000338c
    33c8:	00009778          	.word	0x00009778
    33cc:	00408093          	addi	x1,x1,4
    33d0:	00000013          	addi	x0,x0,0
    33d4:	00000013          	addi	x0,x0,0
    33d8:	00000013          	addi	x0,x0,0
    33dc:	00000013          	addi	x0,x0,0

# Testcase cp_imm_edges (imm = 4)
  LA(x15, 1f) # load jump target address
    33e0:	00000797          	auipc	x15,0x0
    33e4:	03478793          	addi	x15,x15,52 # 3414 <I_jalr_cg_cp_imm_edges_0x4+0x8>
    33e8:	00000013          	addi	x0,x0,0
    33ec:	00000013          	addi	x0,x0,0
    33f0:	00000013          	addi	x0,x0,0
    33f4:	00000013          	addi	x0,x0,0
    33f8:	00000013          	addi	x0,x0,0
    33fc:	00000013          	addi	x0,x0,0
  RVTEST_TESTDATA_LOAD_INT(x25, x14) # load jump check value: x14 = 0x2eb7fe43
    3400:	000ca703          	lw	x14,0(x25)
    3404:	004c8c93          	addi	x25,x25,4
  addi x15, x15, -4 # adjust base address for offset
    3408:	ffc78793          	addi	x15,x15,-4

0000340c <I_jalr_cg_cp_imm_edges_0x4>:
I_jalr_cg_cp_imm_edges_0x4:
  jalr x30, x15, 4 # perform jump with offset
    340c:	00478f67          	jalr	x30,4(x15)
  addi x14, x14, -4 # should not execute
    3410:	ffc70713          	addi	x14,x14,-4 # 290c <I_jalr_cg_cmp_rd_rs1_nx0_b19+0x20>
1:
  addi x14, x14, 2 # should execute
    3414:	00270713          	addi	x14,x14,2
  # Check if x14 contains the expected result. x1 is the signature ptr, x5 is the link ptr, x4 is a temp reg.
  RVTEST_SIGUPD(x1, x5, x4, x14, I_jalr_cg_cp_imm_edges_0x4, I_jalr_cg_cp_imm_edges_0x4_str)
    3418:	0000a203          	lw	x4,0(x1)
    341c:	00e20863          	beq	x4,x14,342c <I_jalr_cg_cp_imm_edges_0x4+0x20>
    3420:	7fc002ef          	jal	x5,3c1c <failedtest_x5_x4>
    3424:	0000340c          	.word	0x0000340c
    3428:	000097af          	.word	0x000097af
    342c:	00408093          	addi	x1,x1,4
  auipc x14, 0 # get current PC
    3430:	00000717          	auipc	x14,0x0
  sub x30, x30, x14 # subtract current PC to make position-independent
    3434:	40ef0f33          	sub	x30,x30,x14
  # Check if x30 contains the expected result. x1 is the signature ptr, x5 is the link ptr, x4 is a temp reg.
  RVTEST_SIGUPD(x1, x5, x4, x30, I_jalr_cg_cp_imm_edges_0x4, I_jalr_cg_cp_imm_edges_0x4_str)
    3438:	0000a203          	lw	x4,0(x1)
    343c:	01e20863          	beq	x4,x30,344c <I_jalr_cg_cp_imm_edges_0x4+0x40>
    3440:	7dc002ef          	jal	x5,3c1c <failedtest_x5_x4>
    3444:	0000340c          	.word	0x0000340c
    3448:	000097af          	.word	0x000097af
    344c:	00408093          	addi	x1,x1,4
    3450:	00000013          	addi	x0,x0,0
    3454:	00000013          	addi	x0,x0,0
    3458:	00000013          	addi	x0,x0,0
    345c:	00000013          	addi	x0,x0,0

# Testcase cp_imm_edges (imm = 8)
  LA(x3, 1f) # load jump target address
    3460:	00000197          	auipc	x3,0x0
    3464:	03418193          	addi	x3,x3,52 # 3494 <I_jalr_cg_cp_imm_edges_0x8+0x8>
    3468:	00000013          	addi	x0,x0,0
    346c:	00000013          	addi	x0,x0,0
    3470:	00000013          	addi	x0,x0,0
    3474:	00000013          	addi	x0,x0,0
    3478:	00000013          	addi	x0,x0,0
    347c:	00000013          	addi	x0,x0,0
  RVTEST_TESTDATA_LOAD_INT(x25, x24) # load jump check value: x24 = 0xb4537949
    3480:	000cac03          	lw	x24,0(x25)
    3484:	004c8c93          	addi	x25,x25,4
  addi x3, x3, -8 # adjust base address for offset
    3488:	ff818193          	addi	x3,x3,-8

0000348c <I_jalr_cg_cp_imm_edges_0x8>:
I_jalr_cg_cp_imm_edges_0x8:
  jalr x6, x3, 8 # perform jump with offset
    348c:	00818367          	jalr	x6,8(x3)
  addi x24, x24, -4 # should not execute
    3490:	ffcc0c13          	addi	x24,x24,-4
1:
  addi x24, x24, 2 # should execute
    3494:	002c0c13          	addi	x24,x24,2
  # Check if x24 contains the expected result. x1 is the signature ptr, x5 is the link ptr, x4 is a temp reg.
  RVTEST_SIGUPD(x1, x5, x4, x24, I_jalr_cg_cp_imm_edges_0x8, I_jalr_cg_cp_imm_edges_0x8_str)
    3498:	0000a203          	lw	x4,0(x1)
    349c:	01820863          	beq	x4,x24,34ac <I_jalr_cg_cp_imm_edges_0x8+0x20>
    34a0:	77c002ef          	jal	x5,3c1c <failedtest_x5_x4>
    34a4:	0000348c          	.word	0x0000348c
    34a8:	000097e6          	.word	0x000097e6
    34ac:	00408093          	addi	x1,x1,4
  auipc x24, 0 # get current PC
    34b0:	00000c17          	auipc	x24,0x0
  sub x6, x6, x24 # subtract current PC to make position-independent
    34b4:	41830333          	sub	x6,x6,x24
  # Check if x6 contains the expected result. x1 is the signature ptr, x5 is the link ptr, x4 is a temp reg.
  RVTEST_SIGUPD(x1, x5, x4, x6, I_jalr_cg_cp_imm_edges_0x8, I_jalr_cg_cp_imm_edges_0x8_str)
    34b8:	0000a203          	lw	x4,0(x1)
    34bc:	00620863          	beq	x4,x6,34cc <I_jalr_cg_cp_imm_edges_0x8+0x40>
    34c0:	75c002ef          	jal	x5,3c1c <failedtest_x5_x4>
    34c4:	0000348c          	.word	0x0000348c
    34c8:	000097e6          	.word	0x000097e6
    34cc:	00408093          	addi	x1,x1,4
    34d0:	00000013          	addi	x0,x0,0
    34d4:	00000013          	addi	x0,x0,0
    34d8:	00000013          	addi	x0,x0,0
    34dc:	00000013          	addi	x0,x0,0

# Testcase cp_imm_edges (imm = 16)
  LA(x31, 1f) # load jump target address
    34e0:	00000f97          	auipc	x31,0x0
    34e4:	034f8f93          	addi	x31,x31,52 # 3514 <I_jalr_cg_cp_imm_edges_0x10+0x8>
    34e8:	00000013          	addi	x0,x0,0
    34ec:	00000013          	addi	x0,x0,0
    34f0:	00000013          	addi	x0,x0,0
    34f4:	00000013          	addi	x0,x0,0
    34f8:	00000013          	addi	x0,x0,0
    34fc:	00000013          	addi	x0,x0,0
  RVTEST_TESTDATA_LOAD_INT(x25, x17) # load jump check value: x17 = 0x48976484
    3500:	000ca883          	lw	x17,0(x25)
    3504:	004c8c93          	addi	x25,x25,4
  addi x31, x31, -16 # adjust base address for offset
    3508:	ff0f8f93          	addi	x31,x31,-16

0000350c <I_jalr_cg_cp_imm_edges_0x10>:
I_jalr_cg_cp_imm_edges_0x10:
  jalr x28, x31, 16 # perform jump with offset
    350c:	010f8e67          	jalr	x28,16(x31)
  addi x17, x17, -4 # should not execute
    3510:	ffc88893          	addi	x17,x17,-4 # 3124 <jalrlsb_10+0x18>
1:
  addi x17, x17, 2 # should execute
    3514:	00288893          	addi	x17,x17,2
  # Check if x17 contains the expected result. x1 is the signature ptr, x5 is the link ptr, x4 is a temp reg.
  RVTEST_SIGUPD(x1, x5, x4, x17, I_jalr_cg_cp_imm_edges_0x10, I_jalr_cg_cp_imm_edges_0x10_str)
    3518:	0000a203          	lw	x4,0(x1)
    351c:	01120863          	beq	x4,x17,352c <I_jalr_cg_cp_imm_edges_0x10+0x20>
    3520:	6fc002ef          	jal	x5,3c1c <failedtest_x5_x4>
    3524:	0000350c          	.word	0x0000350c
    3528:	0000981d          	.word	0x0000981d
    352c:	00408093          	addi	x1,x1,4
  auipc x17, 0 # get current PC
    3530:	00000897          	auipc	x17,0x0
  sub x28, x28, x17 # subtract current PC to make position-independent
    3534:	411e0e33          	sub	x28,x28,x17
  # Check if x28 contains the expected result. x1 is the signature ptr, x5 is the link ptr, x4 is a temp reg.
  RVTEST_SIGUPD(x1, x5, x4, x28, I_jalr_cg_cp_imm_edges_0x10, I_jalr_cg_cp_imm_edges_0x10_str)
    3538:	0000a203          	lw	x4,0(x1)
    353c:	01c20863          	beq	x4,x28,354c <I_jalr_cg_cp_imm_edges_0x10+0x40>
    3540:	6dc002ef          	jal	x5,3c1c <failedtest_x5_x4>
    3544:	0000350c          	.word	0x0000350c
    3548:	0000981d          	.word	0x0000981d
    354c:	00408093          	addi	x1,x1,4
    3550:	00000013          	addi	x0,x0,0
    3554:	00000013          	addi	x0,x0,0
    3558:	00000013          	addi	x0,x0,0
    355c:	00000013          	addi	x0,x0,0

# Testcase cp_imm_edges (imm = 32)
  LA(x20, 1f) # load jump target address
    3560:	00000a17          	auipc	x20,0x0
    3564:	034a0a13          	addi	x20,x20,52 # 3594 <I_jalr_cg_cp_imm_edges_0x20+0x8>
    3568:	00000013          	addi	x0,x0,0
    356c:	00000013          	addi	x0,x0,0
    3570:	00000013          	addi	x0,x0,0
    3574:	00000013          	addi	x0,x0,0
    3578:	00000013          	addi	x0,x0,0
    357c:	00000013          	addi	x0,x0,0
  RVTEST_TESTDATA_LOAD_INT(x25, x17) # load jump check value: x17 = 0xa44eee30
    3580:	000ca883          	lw	x17,0(x25)
    3584:	004c8c93          	addi	x25,x25,4
  addi x20, x20, -32 # adjust base address for offset
    3588:	fe0a0a13          	addi	x20,x20,-32

0000358c <I_jalr_cg_cp_imm_edges_0x20>:
I_jalr_cg_cp_imm_edges_0x20:
  jalr x8, x20, 32 # perform jump with offset
    358c:	020a0467          	jalr	x8,32(x20)
  addi x17, x17, -4 # should not execute
    3590:	ffc88893          	addi	x17,x17,-4 # 352c <I_jalr_cg_cp_imm_edges_0x10+0x20>
1:
  addi x17, x17, 2 # should execute
    3594:	00288893          	addi	x17,x17,2
  # Check if x17 contains the expected result. x1 is the signature ptr, x5 is the link ptr, x4 is a temp reg.
  RVTEST_SIGUPD(x1, x5, x4, x17, I_jalr_cg_cp_imm_edges_0x20, I_jalr_cg_cp_imm_edges_0x20_str)
    3598:	0000a203          	lw	x4,0(x1)
    359c:	01120863          	beq	x4,x17,35ac <I_jalr_cg_cp_imm_edges_0x20+0x20>
    35a0:	67c002ef          	jal	x5,3c1c <failedtest_x5_x4>
    35a4:	0000358c          	.word	0x0000358c
    35a8:	00009855          	.word	0x00009855
    35ac:	00408093          	addi	x1,x1,4
  auipc x17, 0 # get current PC
    35b0:	00000897          	auipc	x17,0x0
  sub x8, x8, x17 # subtract current PC to make position-independent
    35b4:	41140433          	sub	x8,x8,x17
  # Check if x8 contains the expected result. x1 is the signature ptr, x5 is the link ptr, x4 is a temp reg.
  RVTEST_SIGUPD(x1, x5, x4, x8, I_jalr_cg_cp_imm_edges_0x20, I_jalr_cg_cp_imm_edges_0x20_str)
    35b8:	0000a203          	lw	x4,0(x1)
    35bc:	00820863          	beq	x4,x8,35cc <I_jalr_cg_cp_imm_edges_0x20+0x40>
    35c0:	65c002ef          	jal	x5,3c1c <failedtest_x5_x4>
    35c4:	0000358c          	.word	0x0000358c
    35c8:	00009855          	.word	0x00009855
    35cc:	00408093          	addi	x1,x1,4
    35d0:	00000013          	addi	x0,x0,0
    35d4:	00000013          	addi	x0,x0,0
    35d8:	00000013          	addi	x0,x0,0
    35dc:	00000013          	addi	x0,x0,0

# Testcase cp_imm_edges (imm = 64)
  LA(x27, 1f) # load jump target address
    35e0:	00000d97          	auipc	x27,0x0
    35e4:	034d8d93          	addi	x27,x27,52 # 3614 <I_jalr_cg_cp_imm_edges_0x40+0x8>
    35e8:	00000013          	addi	x0,x0,0
    35ec:	00000013          	addi	x0,x0,0
    35f0:	00000013          	addi	x0,x0,0
    35f4:	00000013          	addi	x0,x0,0
    35f8:	00000013          	addi	x0,x0,0
    35fc:	00000013          	addi	x0,x0,0
  RVTEST_TESTDATA_LOAD_INT(x25, x8) # load jump check value: x8 = 0xce06c810
    3600:	000ca403          	lw	x8,0(x25)
    3604:	004c8c93          	addi	x25,x25,4
  addi x27, x27, -64 # adjust base address for offset
    3608:	fc0d8d93          	addi	x27,x27,-64

0000360c <I_jalr_cg_cp_imm_edges_0x40>:
I_jalr_cg_cp_imm_edges_0x40:
  jalr x24, x27, 64 # perform jump with offset
    360c:	040d8c67          	jalr	x24,64(x27)
  addi x8, x8, -4 # should not execute
    3610:	ffc40413          	addi	x8,x8,-4 # 280c <I_jalr_cg_cmp_rd_rs1_nx0_b17+0x20>
1:
  addi x8, x8, 2 # should execute
    3614:	00240413          	addi	x8,x8,2
  # Check if x8 contains the expected result. x1 is the signature ptr, x5 is the link ptr, x4 is a temp reg.
  RVTEST_SIGUPD(x1, x5, x4, x8, I_jalr_cg_cp_imm_edges_0x40, I_jalr_cg_cp_imm_edges_0x40_str)
    3618:	0000a203          	lw	x4,0(x1)
    361c:	00820863          	beq	x4,x8,362c <I_jalr_cg_cp_imm_edges_0x40+0x20>
    3620:	5fc002ef          	jal	x5,3c1c <failedtest_x5_x4>
    3624:	0000360c          	.word	0x0000360c
    3628:	0000988d          	.word	0x0000988d
    362c:	00408093          	addi	x1,x1,4
  auipc x8, 0 # get current PC
    3630:	00000417          	auipc	x8,0x0
  sub x24, x24, x8 # subtract current PC to make position-independent
    3634:	408c0c33          	sub	x24,x24,x8
  # Check if x24 contains the expected result. x1 is the signature ptr, x5 is the link ptr, x4 is a temp reg.
  RVTEST_SIGUPD(x1, x5, x4, x24, I_jalr_cg_cp_imm_edges_0x40, I_jalr_cg_cp_imm_edges_0x40_str)
    3638:	0000a203          	lw	x4,0(x1)
    363c:	01820863          	beq	x4,x24,364c <I_jalr_cg_cp_imm_edges_0x40+0x40>
    3640:	5dc002ef          	jal	x5,3c1c <failedtest_x5_x4>
    3644:	0000360c          	.word	0x0000360c
    3648:	0000988d          	.word	0x0000988d
    364c:	00408093          	addi	x1,x1,4
    3650:	00000013          	addi	x0,x0,0
    3654:	00000013          	addi	x0,x0,0
    3658:	00000013          	addi	x0,x0,0
    365c:	00000013          	addi	x0,x0,0

# Testcase cp_imm_edges (imm = 128)
  LA(x15, 1f) # load jump target address
    3660:	00000797          	auipc	x15,0x0
    3664:	03478793          	addi	x15,x15,52 # 3694 <I_jalr_cg_cp_imm_edges_0x80+0x8>
    3668:	00000013          	addi	x0,x0,0
    366c:	00000013          	addi	x0,x0,0
    3670:	00000013          	addi	x0,x0,0
    3674:	00000013          	addi	x0,x0,0
    3678:	00000013          	addi	x0,x0,0
    367c:	00000013          	addi	x0,x0,0
  RVTEST_TESTDATA_LOAD_INT(x25, x28) # load jump check value: x28 = 0x9bf13bcf
    3680:	000cae03          	lw	x28,0(x25)
    3684:	004c8c93          	addi	x25,x25,4
  addi x15, x15, -128 # adjust base address for offset
    3688:	f8078793          	addi	x15,x15,-128

0000368c <I_jalr_cg_cp_imm_edges_0x80>:
I_jalr_cg_cp_imm_edges_0x80:
  jalr x2, x15, 128 # perform jump with offset
    368c:	08078167          	jalr	x2,128(x15)
  addi x28, x28, -4 # should not execute
    3690:	ffce0e13          	addi	x28,x28,-4
1:
  addi x28, x28, 2 # should execute
    3694:	002e0e13          	addi	x28,x28,2
  # Check if x28 contains the expected result. x1 is the signature ptr, x5 is the link ptr, x4 is a temp reg.
  RVTEST_SIGUPD(x1, x5, x4, x28, I_jalr_cg_cp_imm_edges_0x80, I_jalr_cg_cp_imm_edges_0x80_str)
    3698:	0000a203          	lw	x4,0(x1)
    369c:	01c20863          	beq	x4,x28,36ac <I_jalr_cg_cp_imm_edges_0x80+0x20>
    36a0:	57c002ef          	jal	x5,3c1c <failedtest_x5_x4>
    36a4:	0000368c          	.word	0x0000368c
    36a8:	000098c5          	.word	0x000098c5
    36ac:	00408093          	addi	x1,x1,4
  auipc x28, 0 # get current PC
    36b0:	00000e17          	auipc	x28,0x0
  sub x2, x2, x28 # subtract current PC to make position-independent
    36b4:	41c10133          	sub	x2,x2,x28
  # Check if x2 contains the expected result. x1 is the signature ptr, x5 is the link ptr, x4 is a temp reg.
  RVTEST_SIGUPD(x1, x5, x4, x2, I_jalr_cg_cp_imm_edges_0x80, I_jalr_cg_cp_imm_edges_0x80_str)
    36b8:	0000a203          	lw	x4,0(x1)
    36bc:	00220863          	beq	x4,x2,36cc <I_jalr_cg_cp_imm_edges_0x80+0x40>
    36c0:	55c002ef          	jal	x5,3c1c <failedtest_x5_x4>
    36c4:	0000368c          	.word	0x0000368c
    36c8:	000098c5          	.word	0x000098c5
    36cc:	00408093          	addi	x1,x1,4
    36d0:	00000013          	addi	x0,x0,0
    36d4:	00000013          	addi	x0,x0,0
    36d8:	00000013          	addi	x0,x0,0
    36dc:	00000013          	addi	x0,x0,0

# Testcase cp_imm_edges (imm = 256)
  LA(x12, 1f) # load jump target address
    36e0:	00000617          	auipc	x12,0x0
    36e4:	03460613          	addi	x12,x12,52 # 3714 <I_jalr_cg_cp_imm_edges_0x100+0x8>
    36e8:	00000013          	addi	x0,x0,0
    36ec:	00000013          	addi	x0,x0,0
    36f0:	00000013          	addi	x0,x0,0
    36f4:	00000013          	addi	x0,x0,0
    36f8:	00000013          	addi	x0,x0,0
    36fc:	00000013          	addi	x0,x0,0
  RVTEST_TESTDATA_LOAD_INT(x25, x3) # load jump check value: x3 = 0x312a822b
    3700:	000ca183          	lw	x3,0(x25)
    3704:	004c8c93          	addi	x25,x25,4
  addi x12, x12, -256 # adjust base address for offset
    3708:	f0060613          	addi	x12,x12,-256

0000370c <I_jalr_cg_cp_imm_edges_0x100>:
I_jalr_cg_cp_imm_edges_0x100:
  jalr x28, x12, 256 # perform jump with offset
    370c:	10060e67          	jalr	x28,256(x12)
  addi x3, x3, -4 # should not execute
    3710:	ffc18193          	addi	x3,x3,-4
1:
  addi x3, x3, 2 # should execute
    3714:	00218193          	addi	x3,x3,2
  # Check if x3 contains the expected result. x1 is the signature ptr, x5 is the link ptr, x4 is a temp reg.
  RVTEST_SIGUPD(x1, x5, x4, x3, I_jalr_cg_cp_imm_edges_0x100, I_jalr_cg_cp_imm_edges_0x100_str)
    3718:	0000a203          	lw	x4,0(x1)
    371c:	00320863          	beq	x4,x3,372c <I_jalr_cg_cp_imm_edges_0x100+0x20>
    3720:	4fc002ef          	jal	x5,3c1c <failedtest_x5_x4>
    3724:	0000370c          	.word	0x0000370c
    3728:	000098fd          	.word	0x000098fd
    372c:	00408093          	addi	x1,x1,4
  auipc x3, 0 # get current PC
    3730:	00000197          	auipc	x3,0x0
  sub x28, x28, x3 # subtract current PC to make position-independent
    3734:	403e0e33          	sub	x28,x28,x3
  # Check if x28 contains the expected result. x1 is the signature ptr, x5 is the link ptr, x4 is a temp reg.
  RVTEST_SIGUPD(x1, x5, x4, x28, I_jalr_cg_cp_imm_edges_0x100, I_jalr_cg_cp_imm_edges_0x100_str)
    3738:	0000a203          	lw	x4,0(x1)
    373c:	01c20863          	beq	x4,x28,374c <I_jalr_cg_cp_imm_edges_0x100+0x40>
    3740:	4dc002ef          	jal	x5,3c1c <failedtest_x5_x4>
    3744:	0000370c          	.word	0x0000370c
    3748:	000098fd          	.word	0x000098fd
    374c:	00408093          	addi	x1,x1,4
    3750:	00000013          	addi	x0,x0,0
    3754:	00000013          	addi	x0,x0,0
    3758:	00000013          	addi	x0,x0,0
    375c:	00000013          	addi	x0,x0,0

# Testcase cp_imm_edges (imm = 512)
  LA(x27, 1f) # load jump target address
    3760:	00000d97          	auipc	x27,0x0
    3764:	034d8d93          	addi	x27,x27,52 # 3794 <I_jalr_cg_cp_imm_edges_0x200+0x8>
    3768:	00000013          	addi	x0,x0,0
    376c:	00000013          	addi	x0,x0,0
    3770:	00000013          	addi	x0,x0,0
    3774:	00000013          	addi	x0,x0,0
    3778:	00000013          	addi	x0,x0,0
    377c:	00000013          	addi	x0,x0,0
  RVTEST_TESTDATA_LOAD_INT(x25, x21) # load jump check value: x21 = 0x8cc07652
    3780:	000caa83          	lw	x21,0(x25)
    3784:	004c8c93          	addi	x25,x25,4
  addi x27, x27, -512 # adjust base address for offset
    3788:	e00d8d93          	addi	x27,x27,-512

0000378c <I_jalr_cg_cp_imm_edges_0x200>:
I_jalr_cg_cp_imm_edges_0x200:
  jalr x16, x27, 512 # perform jump with offset
    378c:	200d8867          	jalr	x16,512(x27)
  addi x21, x21, -4 # should not execute
    3790:	ffca8a93          	addi	x21,x21,-4
1:
  addi x21, x21, 2 # should execute
    3794:	002a8a93          	addi	x21,x21,2
  # Check if x21 contains the expected result. x1 is the signature ptr, x5 is the link ptr, x4 is a temp reg.
  RVTEST_SIGUPD(x1, x5, x4, x21, I_jalr_cg_cp_imm_edges_0x200, I_jalr_cg_cp_imm_edges_0x200_str)
    3798:	0000a203          	lw	x4,0(x1)
    379c:	01520863          	beq	x4,x21,37ac <I_jalr_cg_cp_imm_edges_0x200+0x20>
    37a0:	47c002ef          	jal	x5,3c1c <failedtest_x5_x4>
    37a4:	0000378c          	.word	0x0000378c
    37a8:	00009936          	.word	0x00009936
    37ac:	00408093          	addi	x1,x1,4
  auipc x21, 0 # get current PC
    37b0:	00000a97          	auipc	x21,0x0
  sub x16, x16, x21 # subtract current PC to make position-independent
    37b4:	41580833          	sub	x16,x16,x21
  # Check if x16 contains the expected result. x1 is the signature ptr, x5 is the link ptr, x4 is a temp reg.
  RVTEST_SIGUPD(x1, x5, x4, x16, I_jalr_cg_cp_imm_edges_0x200, I_jalr_cg_cp_imm_edges_0x200_str)
    37b8:	0000a203          	lw	x4,0(x1)
    37bc:	01020863          	beq	x4,x16,37cc <I_jalr_cg_cp_imm_edges_0x200+0x40>
    37c0:	45c002ef          	jal	x5,3c1c <failedtest_x5_x4>
    37c4:	0000378c          	.word	0x0000378c
    37c8:	00009936          	.word	0x00009936
    37cc:	00408093          	addi	x1,x1,4
    37d0:	00000013          	addi	x0,x0,0
    37d4:	00000013          	addi	x0,x0,0
    37d8:	00000013          	addi	x0,x0,0
    37dc:	00000013          	addi	x0,x0,0

# Testcase cp_imm_edges (imm = 1023)
  LA(x17, 1f) # load jump target address
    37e0:	00000897          	auipc	x17,0x0
    37e4:	03488893          	addi	x17,x17,52 # 3814 <I_jalr_cg_cp_imm_edges_0x3ff+0x8>
    37e8:	00000013          	addi	x0,x0,0
    37ec:	00000013          	addi	x0,x0,0
    37f0:	00000013          	addi	x0,x0,0
    37f4:	00000013          	addi	x0,x0,0
    37f8:	00000013          	addi	x0,x0,0
    37fc:	00000013          	addi	x0,x0,0
  RVTEST_TESTDATA_LOAD_INT(x25, x19) # load jump check value: x19 = 0xee5d17d6
    3800:	000ca983          	lw	x19,0(x25)
    3804:	004c8c93          	addi	x25,x25,4
  addi x17, x17, -1023 # adjust base address for offset
    3808:	c0188893          	addi	x17,x17,-1023

0000380c <I_jalr_cg_cp_imm_edges_0x3ff>:
I_jalr_cg_cp_imm_edges_0x3ff:
  jalr x23, x17, 1023 # perform jump with offset
    380c:	3ff88be7          	jalr	x23,1023(x17)
  addi x19, x19, -4 # should not execute
    3810:	ffc98993          	addi	x19,x19,-4
1:
  addi x19, x19, 2 # should execute
    3814:	00298993          	addi	x19,x19,2
  # Check if x19 contains the expected result. x1 is the signature ptr, x5 is the link ptr, x4 is a temp reg.
  RVTEST_SIGUPD(x1, x5, x4, x19, I_jalr_cg_cp_imm_edges_0x3ff, I_jalr_cg_cp_imm_edges_0x3ff_str)
    3818:	0000a203          	lw	x4,0(x1)
    381c:	01320863          	beq	x4,x19,382c <I_jalr_cg_cp_imm_edges_0x3ff+0x20>
    3820:	3fc002ef          	jal	x5,3c1c <failedtest_x5_x4>
    3824:	0000380c          	.word	0x0000380c
    3828:	0000996f          	.word	0x0000996f
    382c:	00408093          	addi	x1,x1,4
  auipc x19, 0 # get current PC
    3830:	00000997          	auipc	x19,0x0
  sub x23, x23, x19 # subtract current PC to make position-independent
    3834:	413b8bb3          	sub	x23,x23,x19
  # Check if x23 contains the expected result. x1 is the signature ptr, x5 is the link ptr, x4 is a temp reg.
  RVTEST_SIGUPD(x1, x5, x4, x23, I_jalr_cg_cp_imm_edges_0x3ff, I_jalr_cg_cp_imm_edges_0x3ff_str)
    3838:	0000a203          	lw	x4,0(x1)
    383c:	01720863          	beq	x4,x23,384c <I_jalr_cg_cp_imm_edges_0x3ff+0x40>
    3840:	3dc002ef          	jal	x5,3c1c <failedtest_x5_x4>
    3844:	0000380c          	.word	0x0000380c
    3848:	0000996f          	.word	0x0000996f
    384c:	00408093          	addi	x1,x1,4
    3850:	00000013          	addi	x0,x0,0
    3854:	00000013          	addi	x0,x0,0
    3858:	00000013          	addi	x0,x0,0
    385c:	00000013          	addi	x0,x0,0

# Testcase cp_imm_edges (imm = 1024)
  LA(x9, 1f) # load jump target address
    3860:	00000497          	auipc	x9,0x0
    3864:	03448493          	addi	x9,x9,52 # 3894 <I_jalr_cg_cp_imm_edges_0x400+0x8>
    3868:	00000013          	addi	x0,x0,0
    386c:	00000013          	addi	x0,x0,0
    3870:	00000013          	addi	x0,x0,0
    3874:	00000013          	addi	x0,x0,0
    3878:	00000013          	addi	x0,x0,0
    387c:	00000013          	addi	x0,x0,0
  RVTEST_TESTDATA_LOAD_INT(x25, x31) # load jump check value: x31 = 0xe3b94e80
    3880:	000caf83          	lw	x31,0(x25)
    3884:	004c8c93          	addi	x25,x25,4
  addi x9, x9, -1024 # adjust base address for offset
    3888:	c0048493          	addi	x9,x9,-1024

0000388c <I_jalr_cg_cp_imm_edges_0x400>:
I_jalr_cg_cp_imm_edges_0x400:
  jalr x17, x9, 1024 # perform jump with offset
    388c:	400488e7          	jalr	x17,1024(x9)
  addi x31, x31, -4 # should not execute
    3890:	ffcf8f93          	addi	x31,x31,-4
1:
  addi x31, x31, 2 # should execute
    3894:	002f8f93          	addi	x31,x31,2
  # Check if x31 contains the expected result. x1 is the signature ptr, x5 is the link ptr, x4 is a temp reg.
  RVTEST_SIGUPD(x1, x5, x4, x31, I_jalr_cg_cp_imm_edges_0x400, I_jalr_cg_cp_imm_edges_0x400_str)
    3898:	0000a203          	lw	x4,0(x1)
    389c:	01f20863          	beq	x4,x31,38ac <I_jalr_cg_cp_imm_edges_0x400+0x20>
    38a0:	37c002ef          	jal	x5,3c1c <failedtest_x5_x4>
    38a4:	0000388c          	.word	0x0000388c
    38a8:	000099a8          	.word	0x000099a8
    38ac:	00408093          	addi	x1,x1,4
  auipc x31, 0 # get current PC
    38b0:	00000f97          	auipc	x31,0x0
  sub x17, x17, x31 # subtract current PC to make position-independent
    38b4:	41f888b3          	sub	x17,x17,x31
  # Check if x17 contains the expected result. x1 is the signature ptr, x5 is the link ptr, x4 is a temp reg.
  RVTEST_SIGUPD(x1, x5, x4, x17, I_jalr_cg_cp_imm_edges_0x400, I_jalr_cg_cp_imm_edges_0x400_str)
    38b8:	0000a203          	lw	x4,0(x1)
    38bc:	01120863          	beq	x4,x17,38cc <I_jalr_cg_cp_imm_edges_0x400+0x40>
    38c0:	35c002ef          	jal	x5,3c1c <failedtest_x5_x4>
    38c4:	0000388c          	.word	0x0000388c
    38c8:	000099a8          	.word	0x000099a8
    38cc:	00408093          	addi	x1,x1,4
    38d0:	00000013          	addi	x0,x0,0
    38d4:	00000013          	addi	x0,x0,0
    38d8:	00000013          	addi	x0,x0,0
    38dc:	00000013          	addi	x0,x0,0

# Testcase cp_imm_edges (imm = 1795)
  LA(x29, 1f) # load jump target address
    38e0:	00000e97          	auipc	x29,0x0
    38e4:	034e8e93          	addi	x29,x29,52 # 3914 <I_jalr_cg_cp_imm_edges_0x703+0x8>
    38e8:	00000013          	addi	x0,x0,0
    38ec:	00000013          	addi	x0,x0,0
    38f0:	00000013          	addi	x0,x0,0
    38f4:	00000013          	addi	x0,x0,0
    38f8:	00000013          	addi	x0,x0,0
    38fc:	00000013          	addi	x0,x0,0
  RVTEST_TESTDATA_LOAD_INT(x25, x14) # load jump check value: x14 = 0xc5606c5b
    3900:	000ca703          	lw	x14,0(x25)
    3904:	004c8c93          	addi	x25,x25,4
  addi x29, x29, -1795 # adjust base address for offset
    3908:	8fde8e93          	addi	x29,x29,-1795

0000390c <I_jalr_cg_cp_imm_edges_0x703>:
I_jalr_cg_cp_imm_edges_0x703:
  jalr x24, x29, 1795 # perform jump with offset
    390c:	703e8c67          	jalr	x24,1795(x29)
  addi x14, x14, -4 # should not execute
    3910:	ffc70713          	addi	x14,x14,-4 # 342c <I_jalr_cg_cp_imm_edges_0x4+0x20>
1:
  addi x14, x14, 2 # should execute
    3914:	00270713          	addi	x14,x14,2
  # Check if x14 contains the expected result. x1 is the signature ptr, x5 is the link ptr, x4 is a temp reg.
  RVTEST_SIGUPD(x1, x5, x4, x14, I_jalr_cg_cp_imm_edges_0x703, I_jalr_cg_cp_imm_edges_0x703_str)
    3918:	0000a203          	lw	x4,0(x1)
    391c:	00e20863          	beq	x4,x14,392c <I_jalr_cg_cp_imm_edges_0x703+0x20>
    3920:	2fc002ef          	jal	x5,3c1c <failedtest_x5_x4>
    3924:	0000390c          	.word	0x0000390c
    3928:	000099e1          	.word	0x000099e1
    392c:	00408093          	addi	x1,x1,4
  auipc x14, 0 # get current PC
    3930:	00000717          	auipc	x14,0x0
  sub x24, x24, x14 # subtract current PC to make position-independent
    3934:	40ec0c33          	sub	x24,x24,x14
  # Check if x24 contains the expected result. x1 is the signature ptr, x5 is the link ptr, x4 is a temp reg.
  RVTEST_SIGUPD(x1, x5, x4, x24, I_jalr_cg_cp_imm_edges_0x703, I_jalr_cg_cp_imm_edges_0x703_str)
    3938:	0000a203          	lw	x4,0(x1)
    393c:	01820863          	beq	x4,x24,394c <I_jalr_cg_cp_imm_edges_0x703+0x40>
    3940:	2dc002ef          	jal	x5,3c1c <failedtest_x5_x4>
    3944:	0000390c          	.word	0x0000390c
    3948:	000099e1          	.word	0x000099e1
    394c:	00408093          	addi	x1,x1,4
    3950:	00000013          	addi	x0,x0,0
    3954:	00000013          	addi	x0,x0,0
    3958:	00000013          	addi	x0,x0,0
    395c:	00000013          	addi	x0,x0,0

# Testcase cp_imm_edges (imm = 2047)
  LA(x24, 1f) # load jump target address
    3960:	00000c17          	auipc	x24,0x0
    3964:	034c0c13          	addi	x24,x24,52 # 3994 <I_jalr_cg_cp_imm_edges_0x7ff+0x8>
    3968:	00000013          	addi	x0,x0,0
    396c:	00000013          	addi	x0,x0,0
    3970:	00000013          	addi	x0,x0,0
    3974:	00000013          	addi	x0,x0,0
    3978:	00000013          	addi	x0,x0,0
    397c:	00000013          	addi	x0,x0,0
  RVTEST_TESTDATA_LOAD_INT(x25, x11) # load jump check value: x11 = 0xd87102d9
    3980:	000ca583          	lw	x11,0(x25)
    3984:	004c8c93          	addi	x25,x25,4
  addi x24, x24, -2047 # adjust base address for offset
    3988:	801c0c13          	addi	x24,x24,-2047

0000398c <I_jalr_cg_cp_imm_edges_0x7ff>:
I_jalr_cg_cp_imm_edges_0x7ff:
  jalr x7, x24, 2047 # perform jump with offset
    398c:	7ffc03e7          	jalr	x7,2047(x24)
  addi x11, x11, -4 # should not execute
    3990:	ffc58593          	addi	x11,x11,-4 # 2e0c <I_jalr_cg_cmp_rd_rs1_nx0_b29+0x20>
1:
  addi x11, x11, 2 # should execute
    3994:	00258593          	addi	x11,x11,2
  # Check if x11 contains the expected result. x1 is the signature ptr, x5 is the link ptr, x4 is a temp reg.
  RVTEST_SIGUPD(x1, x5, x4, x11, I_jalr_cg_cp_imm_edges_0x7ff, I_jalr_cg_cp_imm_edges_0x7ff_str)
    3998:	0000a203          	lw	x4,0(x1)
    399c:	00b20863          	beq	x4,x11,39ac <I_jalr_cg_cp_imm_edges_0x7ff+0x20>
    39a0:	27c002ef          	jal	x5,3c1c <failedtest_x5_x4>
    39a4:	0000398c          	.word	0x0000398c
    39a8:	00009a1a          	.word	0x00009a1a
    39ac:	00408093          	addi	x1,x1,4
  auipc x11, 0 # get current PC
    39b0:	00000597          	auipc	x11,0x0
  sub x7, x7, x11 # subtract current PC to make position-independent
    39b4:	40b383b3          	sub	x7,x7,x11
  # Check if x7 contains the expected result. x1 is the signature ptr, x5 is the link ptr, x4 is a temp reg.
  RVTEST_SIGUPD(x1, x5, x4, x7, I_jalr_cg_cp_imm_edges_0x7ff, I_jalr_cg_cp_imm_edges_0x7ff_str)
    39b8:	0000a203          	lw	x4,0(x1)
    39bc:	00720863          	beq	x4,x7,39cc <I_jalr_cg_cp_imm_edges_0x7ff+0x40>
    39c0:	25c002ef          	jal	x5,3c1c <failedtest_x5_x4>
    39c4:	0000398c          	.word	0x0000398c
    39c8:	00009a1a          	.word	0x00009a1a
    39cc:	00408093          	addi	x1,x1,4
    39d0:	00000013          	addi	x0,x0,0
    39d4:	00000013          	addi	x0,x0,0
    39d8:	00000013          	addi	x0,x0,0
    39dc:	00000013          	addi	x0,x0,0

# Testcase cp_imm_edges (imm = -2048)
  LA(x7, 1f) # load jump target address
    39e0:	00000397          	auipc	x7,0x0
    39e4:	03838393          	addi	x7,x7,56 # 3a18 <I_jalr_cg_cp_imm_edges_m0x800+0x8>
    39e8:	00000013          	addi	x0,x0,0
    39ec:	00000013          	addi	x0,x0,0
    39f0:	00000013          	addi	x0,x0,0
    39f4:	00000013          	addi	x0,x0,0
    39f8:	00000013          	addi	x0,x0,0
    39fc:	00000013          	addi	x0,x0,0
  RVTEST_TESTDATA_LOAD_INT(x25, x17) # load jump check value: x17 = 0xe0c2baf9
    3a00:	000ca883          	lw	x17,0(x25)
    3a04:	004c8c93          	addi	x25,x25,4
  addi x7, x7, 2047 # increment by 2047
    3a08:	7ff38393          	addi	x7,x7,2047
  addi x7, x7, 1 # increment by 1 more for total +2048
    3a0c:	00138393          	addi	x7,x7,1

00003a10 <I_jalr_cg_cp_imm_edges_m0x800>:
I_jalr_cg_cp_imm_edges_m0x800:
  jalr x22, x7, -2048 # perform jump with offset
    3a10:	80038b67          	jalr	x22,-2048(x7)
  addi x17, x17, -4 # should not execute
    3a14:	ffc88893          	addi	x17,x17,-4
1:
  addi x17, x17, 2 # should execute
    3a18:	00288893          	addi	x17,x17,2
  # Check if x17 contains the expected result. x1 is the signature ptr, x5 is the link ptr, x4 is a temp reg.
  RVTEST_SIGUPD(x1, x5, x4, x17, I_jalr_cg_cp_imm_edges_m0x800, I_jalr_cg_cp_imm_edges_m0x800_str)
    3a1c:	0000a203          	lw	x4,0(x1)
    3a20:	01120863          	beq	x4,x17,3a30 <I_jalr_cg_cp_imm_edges_m0x800+0x20>
    3a24:	1f8002ef          	jal	x5,3c1c <failedtest_x5_x4>
    3a28:	00003a10          	.word	0x00003a10
    3a2c:	00009a53          	.word	0x00009a53
    3a30:	00408093          	addi	x1,x1,4
  auipc x17, 0 # get current PC
    3a34:	00000897          	auipc	x17,0x0
  sub x22, x22, x17 # subtract current PC to make position-independent
    3a38:	411b0b33          	sub	x22,x22,x17
  # Check if x22 contains the expected result. x1 is the signature ptr, x5 is the link ptr, x4 is a temp reg.
  RVTEST_SIGUPD(x1, x5, x4, x22, I_jalr_cg_cp_imm_edges_m0x800, I_jalr_cg_cp_imm_edges_m0x800_str)
    3a3c:	0000a203          	lw	x4,0(x1)
    3a40:	01620863          	beq	x4,x22,3a50 <I_jalr_cg_cp_imm_edges_m0x800+0x40>
    3a44:	1d8002ef          	jal	x5,3c1c <failedtest_x5_x4>
    3a48:	00003a10          	.word	0x00003a10
    3a4c:	00009a53          	.word	0x00009a53
    3a50:	00408093          	addi	x1,x1,4
    3a54:	00000013          	addi	x0,x0,0
    3a58:	00000013          	addi	x0,x0,0
    3a5c:	00000013          	addi	x0,x0,0

# Testcase cp_imm_edges (imm = -2047)
  LA(x19, 1f) # load jump target address
    3a60:	00000997          	auipc	x19,0x0
    3a64:	03498993          	addi	x19,x19,52 # 3a94 <I_jalr_cg_cp_imm_edges_m0x7ff+0x8>
    3a68:	00000013          	addi	x0,x0,0
    3a6c:	00000013          	addi	x0,x0,0
    3a70:	00000013          	addi	x0,x0,0
    3a74:	00000013          	addi	x0,x0,0
    3a78:	00000013          	addi	x0,x0,0
    3a7c:	00000013          	addi	x0,x0,0
  RVTEST_TESTDATA_LOAD_INT(x25, x15) # load jump check value: x15 = 0x8ba66e94
    3a80:	000ca783          	lw	x15,0(x25)
    3a84:	004c8c93          	addi	x25,x25,4
  addi x19, x19, 2047 # adjust base address for offset
    3a88:	7ff98993          	addi	x19,x19,2047

00003a8c <I_jalr_cg_cp_imm_edges_m0x7ff>:
I_jalr_cg_cp_imm_edges_m0x7ff:
  jalr x3, x19, -2047 # perform jump with offset
    3a8c:	801981e7          	jalr	x3,-2047(x19)
  addi x15, x15, -4 # should not execute
    3a90:	ffc78793          	addi	x15,x15,-4
1:
  addi x15, x15, 2 # should execute
    3a94:	00278793          	addi	x15,x15,2
  # Check if x15 contains the expected result. x1 is the signature ptr, x5 is the link ptr, x4 is a temp reg.
  RVTEST_SIGUPD(x1, x5, x4, x15, I_jalr_cg_cp_imm_edges_m0x7ff, I_jalr_cg_cp_imm_edges_m0x7ff_str)
    3a98:	0000a203          	lw	x4,0(x1)
    3a9c:	00f20863          	beq	x4,x15,3aac <I_jalr_cg_cp_imm_edges_m0x7ff+0x20>
    3aa0:	17c002ef          	jal	x5,3c1c <failedtest_x5_x4>
    3aa4:	00003a8c          	.word	0x00003a8c
    3aa8:	00009a8d          	.word	0x00009a8d
    3aac:	00408093          	addi	x1,x1,4
  auipc x15, 0 # get current PC
    3ab0:	00000797          	auipc	x15,0x0
  sub x3, x3, x15 # subtract current PC to make position-independent
    3ab4:	40f181b3          	sub	x3,x3,x15
  # Check if x3 contains the expected result. x1 is the signature ptr, x5 is the link ptr, x4 is a temp reg.
  RVTEST_SIGUPD(x1, x5, x4, x3, I_jalr_cg_cp_imm_edges_m0x7ff, I_jalr_cg_cp_imm_edges_m0x7ff_str)
    3ab8:	0000a203          	lw	x4,0(x1)
    3abc:	00320863          	beq	x4,x3,3acc <I_jalr_cg_cp_imm_edges_m0x7ff+0x40>
    3ac0:	15c002ef          	jal	x5,3c1c <failedtest_x5_x4>
    3ac4:	00003a8c          	.word	0x00003a8c
    3ac8:	00009a8d          	.word	0x00009a8d
    3acc:	00408093          	addi	x1,x1,4
    3ad0:	00000013          	addi	x0,x0,0
    3ad4:	00000013          	addi	x0,x0,0
    3ad8:	00000013          	addi	x0,x0,0
    3adc:	00000013          	addi	x0,x0,0

# Testcase cp_imm_edges (imm = -2)
  LA(x24, 1f) # load jump target address
    3ae0:	00000c17          	auipc	x24,0x0
    3ae4:	034c0c13          	addi	x24,x24,52 # 3b14 <I_jalr_cg_cp_imm_edges_m0x2+0x8>
    3ae8:	00000013          	addi	x0,x0,0
    3aec:	00000013          	addi	x0,x0,0
    3af0:	00000013          	addi	x0,x0,0
    3af4:	00000013          	addi	x0,x0,0
    3af8:	00000013          	addi	x0,x0,0
    3afc:	00000013          	addi	x0,x0,0
  RVTEST_TESTDATA_LOAD_INT(x25, x10) # load jump check value: x10 = 0xbd6a3ae5
    3b00:	000ca503          	lw	x10,0(x25)
    3b04:	004c8c93          	addi	x25,x25,4
  addi x24, x24, 2 # adjust base address for offset
    3b08:	002c0c13          	addi	x24,x24,2

00003b0c <I_jalr_cg_cp_imm_edges_m0x2>:
I_jalr_cg_cp_imm_edges_m0x2:
  jalr x16, x24, -2 # perform jump with offset
    3b0c:	ffec0867          	jalr	x16,-2(x24)
  addi x10, x10, -4 # should not execute
    3b10:	ffc50513          	addi	x10,x10,-4 # 2a0c <I_jalr_cg_cmp_rd_rs1_nx0_b21+0x20>
1:
  addi x10, x10, 2 # should execute
    3b14:	00250513          	addi	x10,x10,2
  # Check if x10 contains the expected result. x1 is the signature ptr, x5 is the link ptr, x4 is a temp reg.
  RVTEST_SIGUPD(x1, x5, x4, x10, I_jalr_cg_cp_imm_edges_m0x2, I_jalr_cg_cp_imm_edges_m0x2_str)
    3b18:	0000a203          	lw	x4,0(x1)
    3b1c:	00a20863          	beq	x4,x10,3b2c <I_jalr_cg_cp_imm_edges_m0x2+0x20>
    3b20:	0fc002ef          	jal	x5,3c1c <failedtest_x5_x4>
    3b24:	00003b0c          	.word	0x00003b0c
    3b28:	00009ac7          	.word	0x00009ac7
    3b2c:	00408093          	addi	x1,x1,4
  auipc x10, 0 # get current PC
    3b30:	00000517          	auipc	x10,0x0
  sub x16, x16, x10 # subtract current PC to make position-independent
    3b34:	40a80833          	sub	x16,x16,x10
  # Check if x16 contains the expected result. x1 is the signature ptr, x5 is the link ptr, x4 is a temp reg.
  RVTEST_SIGUPD(x1, x5, x4, x16, I_jalr_cg_cp_imm_edges_m0x2, I_jalr_cg_cp_imm_edges_m0x2_str)
    3b38:	0000a203          	lw	x4,0(x1)
    3b3c:	01020863          	beq	x4,x16,3b4c <I_jalr_cg_cp_imm_edges_m0x2+0x40>
    3b40:	0dc002ef          	jal	x5,3c1c <failedtest_x5_x4>
    3b44:	00003b0c          	.word	0x00003b0c
    3b48:	00009ac7          	.word	0x00009ac7
    3b4c:	00408093          	addi	x1,x1,4
    3b50:	00000013          	addi	x0,x0,0
    3b54:	00000013          	addi	x0,x0,0
    3b58:	00000013          	addi	x0,x0,0
    3b5c:	00000013          	addi	x0,x0,0

# Testcase cp_imm_edges (imm = -1)
  LA(x12, 1f) # load jump target address
    3b60:	00000617          	auipc	x12,0x0
    3b64:	03460613          	addi	x12,x12,52 # 3b94 <I_jalr_cg_cp_imm_edges_m0x1+0x8>
    3b68:	00000013          	addi	x0,x0,0
    3b6c:	00000013          	addi	x0,x0,0
    3b70:	00000013          	addi	x0,x0,0
    3b74:	00000013          	addi	x0,x0,0
    3b78:	00000013          	addi	x0,x0,0
    3b7c:	00000013          	addi	x0,x0,0
  RVTEST_TESTDATA_LOAD_INT(x25, x23) # load jump check value: x23 = 0x7388b4e3
    3b80:	000cab83          	lw	x23,0(x25)
    3b84:	004c8c93          	addi	x25,x25,4
  addi x12, x12, 1 # adjust base address for offset
    3b88:	00160613          	addi	x12,x12,1

00003b8c <I_jalr_cg_cp_imm_edges_m0x1>:
I_jalr_cg_cp_imm_edges_m0x1:
  jalr x20, x12, -1 # perform jump with offset
    3b8c:	fff60a67          	jalr	x20,-1(x12)
  addi x23, x23, -4 # should not execute
    3b90:	ffcb8b93          	addi	x23,x23,-4 # 2b8c <I_jalr_cg_cmp_rd_rs1_nx0_b24+0x20>
1:
  addi x23, x23, 2 # should execute
    3b94:	002b8b93          	addi	x23,x23,2
  # Check if x23 contains the expected result. x1 is the signature ptr, x5 is the link ptr, x4 is a temp reg.
  RVTEST_SIGUPD(x1, x5, x4, x23, I_jalr_cg_cp_imm_edges_m0x1, I_jalr_cg_cp_imm_edges_m0x1_str)
    3b98:	0000a203          	lw	x4,0(x1)
    3b9c:	01720863          	beq	x4,x23,3bac <I_jalr_cg_cp_imm_edges_m0x1+0x20>
    3ba0:	07c002ef          	jal	x5,3c1c <failedtest_x5_x4>
    3ba4:	00003b8c          	.word	0x00003b8c
    3ba8:	00009aff          	.word	0x00009aff
    3bac:	00408093          	addi	x1,x1,4
  auipc x23, 0 # get current PC
    3bb0:	00000b97          	auipc	x23,0x0
  sub x20, x20, x23 # subtract current PC to make position-independent
    3bb4:	417a0a33          	sub	x20,x20,x23
  # Check if x20 contains the expected result. x1 is the signature ptr, x5 is the link ptr, x4 is a temp reg.
  RVTEST_SIGUPD(x1, x5, x4, x20, I_jalr_cg_cp_imm_edges_m0x1, I_jalr_cg_cp_imm_edges_m0x1_str)
    3bb8:	0000a203          	lw	x4,0(x1)
    3bbc:	01420863          	beq	x4,x20,3bcc <I_jalr_cg_cp_imm_edges_m0x1+0x40>
    3bc0:	05c002ef          	jal	x5,3c1c <failedtest_x5_x4>
    3bc4:	00003b8c          	.word	0x00003b8c
    3bc8:	00009aff          	.word	0x00009aff
    3bcc:	00408093          	addi	x1,x1,4

  mv x2, x1 # restore signature pointer to default register for teardown
    3bd0:	00008113          	addi	x2,x1,0

00003bd4 <cleanup_epilogs>:
    3bd4:	00000013          	addi	x0,x0,0
    3bd8:	00000013          	addi	x0,x0,0
    3bdc:	00000013          	addi	x0,x0,0

// Instantiate trap handlers and other epilog code, call RVMODEL_HALT at end of test
RVTEST_CODE_END
    3be0:	00006517          	auipc	x10,0x6
    3be4:	5c450513          	addi	x10,x10,1476 # a1a4 <successstr>
    3be8:	00000013          	addi	x0,x0,0
    3bec:	00000013          	addi	x0,x0,0
    3bf0:	00000013          	addi	x0,x0,0
    3bf4:	00000013          	addi	x0,x0,0
    3bf8:	00000013          	addi	x0,x0,0
    3bfc:	00000013          	addi	x0,x0,0
    3c00:	00017097          	auipc	x1,0x17
    3c04:	604080e7          	jalr	x1,1540(x1) # 1b204 <rvmodel_io_write_str>
    3c08:	00017097          	auipc	x1,0x17
    3c0c:	600080e7          	jalr	x1,1536(x1) # 1b208 <rvmodel_halt_pass>

00003c10 <abort_test>:
    3c10:	bad0e737          	lui	x14,0xbad0e
    3c14:	ead70713          	addi	x14,x14,-339 # bad0dead <absimm+0x4b743ba4>
    3c18:	fbdff06f          	jal	x0,3bd4 <cleanup_epilogs>

00003c1c <failedtest_x5_x4>:
    3c1c:	00006217          	auipc	x4,0x6
    3c20:	f2420213          	addi	x4,x4,-220 # 9b40 <begin_failure_scratch>
    3c24:	02522423          	sw	x5,40(x4) # 28 <MMODE_SIG+0x25>
    3c28:	00122423          	sw	x1,8(x4) # 8 <MMODE_SIG+0x5>
    3c2c:	00022023          	sw	x0,0(x4) # 0 <rvtest_entry_point>
    3c30:	0b00006f          	jal	x0,3ce0 <failedtest_saveregs>

00003c34 <failedtest_x8_x7>:
    3c34:	00006397          	auipc	x7,0x6
    3c38:	f0c38393          	addi	x7,x7,-244 # 9b40 <begin_failure_scratch>
    3c3c:	0483a023          	sw	x8,64(x7)
    3c40:	0243a023          	sw	x4,32(x7)
    3c44:	0253a423          	sw	x5,40(x7)
    3c48:	0013a423          	sw	x1,8(x7)
    3c4c:	0003a023          	sw	x0,0(x7)
    3c50:	00038213          	addi	x4,x7,0
    3c54:	00040293          	addi	x5,x8,0 # 3630 <I_jalr_cg_cp_imm_edges_0x40+0x24>
    3c58:	0880006f          	jal	x0,3ce0 <failedtest_saveregs>

00003c5c <failedtest_x14_x13>:
    3c5c:	00006697          	auipc	x13,0x6
    3c60:	ee468693          	addi	x13,x13,-284 # 9b40 <begin_failure_scratch>
    3c64:	06e6a823          	sw	x14,112(x13)
    3c68:	0246a023          	sw	x4,32(x13)
    3c6c:	0256a423          	sw	x5,40(x13)
    3c70:	0016a423          	sw	x1,8(x13)
    3c74:	0006a023          	sw	x0,0(x13)
    3c78:	00068213          	addi	x4,x13,0
    3c7c:	00070293          	addi	x5,x14,0
    3c80:	0600006f          	jal	x0,3ce0 <failedtest_saveregs>

00003c84 <failedtest_trap_x7_x9>:
    3c84:	00006497          	auipc	x9,0x6
    3c88:	ebc48493          	addi	x9,x9,-324 # 9b40 <begin_failure_scratch>
    3c8c:	0674a423          	sw	x7,104(x9)
    3c90:	0244a023          	sw	x4,32(x9)
    3c94:	0254a423          	sw	x5,40(x9)
    3c98:	0014a423          	sw	x1,8(x9)
    3c9c:	00300093          	addi	x1,x0,3
    3ca0:	0014a023          	sw	x1,0(x9)
    3ca4:	00048213          	addi	x4,x9,0
    3ca8:	00038293          	addi	x5,x7,0
    3cac:	342020f3          	csrrs	x1,mcause,x0
    3cb0:	00006497          	auipc	x9,0x6
    3cb4:	00048493          	addi	x9,x9,0 # 9cb0 <saved_mcause>
    3cb8:	0014a023          	sw	x1,0(x9)
    3cbc:	343020f3          	csrrs	x1,mtval,x0
    3cc0:	00006497          	auipc	x9,0x6
    3cc4:	ff848493          	addi	x9,x9,-8 # 9cb8 <saved_mtval>
    3cc8:	0014a023          	sw	x1,0(x9)
    3ccc:	300020f3          	csrrs	x1,mstatus,x0
    3cd0:	00006497          	auipc	x9,0x6
    3cd4:	ff048493          	addi	x9,x9,-16 # 9cc0 <saved_mstatus>
    3cd8:	0014a023          	sw	x1,0(x9)
    3cdc:	0040006f          	jal	x0,3ce0 <failedtest_saveregs>

00003ce0 <failedtest_saveregs>:
    3ce0:	00222823          	sw	x2,16(x4) # 10 <MMODE_SIG+0xd>
    3ce4:	00322c23          	sw	x3,24(x4) # 18 <MMODE_SIG+0x15>
    3ce8:	02622823          	sw	x6,48(x4) # 30 <MMODE_SIG+0x2d>
    3cec:	02722c23          	sw	x7,56(x4) # 38 <MMODE_SIG+0x35>
    3cf0:	04822023          	sw	x8,64(x4) # 40 <rvtest_code_begin>
    3cf4:	04922423          	sw	x9,72(x4) # 48 <rvtest_code_begin+0x8>
    3cf8:	04a22823          	sw	x10,80(x4) # 50 <rvtest_code_begin+0x10>
    3cfc:	04b22c23          	sw	x11,88(x4) # 58 <rvtest_code_begin+0x18>
    3d00:	06c22023          	sw	x12,96(x4) # 60 <rvtest_code_begin+0x20>
    3d04:	06d22423          	sw	x13,104(x4) # 68 <rvtest_code_begin+0x28>
    3d08:	06e22823          	sw	x14,112(x4) # 70 <I_jalr_cg_cp_rs1_nx0_b1+0x4>
    3d0c:	06f22c23          	sw	x15,120(x4) # 78 <I_jalr_cg_cp_rs1_nx0_b1+0xc>
    3d10:	09022023          	sw	x16,128(x4) # 80 <I_jalr_cg_cp_rs1_nx0_b1+0x14>
    3d14:	09122423          	sw	x17,136(x4) # 88 <I_jalr_cg_cp_rs1_nx0_b1+0x1c>
    3d18:	09222823          	sw	x18,144(x4) # 90 <I_jalr_cg_cp_rs1_nx0_b1+0x24>
    3d1c:	09322c23          	sw	x19,152(x4) # 98 <I_jalr_cg_cp_rs1_nx0_b1+0x2c>
    3d20:	0b422023          	sw	x20,160(x4) # a0 <I_jalr_cg_cp_rs1_nx0_b1+0x34>
    3d24:	0b522423          	sw	x21,168(x4) # a8 <I_jalr_cg_cp_rs1_nx0_b1+0x3c>
    3d28:	0b622823          	sw	x22,176(x4) # b0 <I_jalr_cg_cp_rs1_nx0_b1+0x44>
    3d2c:	0b722c23          	sw	x23,184(x4) # b8 <I_jalr_cg_cp_rs1_nx0_b1+0x4c>
    3d30:	0d822023          	sw	x24,192(x4) # c0 <I_jalr_cg_cp_rs1_nx0_b1+0x54>
    3d34:	0d922423          	sw	x25,200(x4) # c8 <I_jalr_cg_cp_rs1_nx0_b1+0x5c>
    3d38:	0da22823          	sw	x26,208(x4) # d0 <I_jalr_cg_cp_rs1_nx0_b1+0x64>
    3d3c:	0db22c23          	sw	x27,216(x4) # d8 <I_jalr_cg_cp_rs1_nx0_b1+0x6c>
    3d40:	0fc22023          	sw	x28,224(x4) # e0 <I_jalr_cg_cp_rs1_nx0_b1+0x74>
    3d44:	0fd22423          	sw	x29,232(x4) # e8 <I_jalr_cg_cp_rs1_nx0_b1+0x7c>
    3d48:	0fe22823          	sw	x30,240(x4) # f0 <I_jalr_cg_cp_rs1_nx0_b2+0x4>
    3d4c:	0ff22c23          	sw	x31,248(x4) # f8 <I_jalr_cg_cp_rs1_nx0_b2+0xc>

00003d50 <failedtest_saveresults>:
    3d50:	00006497          	auipc	x9,0x6
    3d54:	df04a483          	lw	x9,-528(x9) # 9b40 <begin_failure_scratch>
    3d58:	00300513          	addi	x10,x0,3
    3d5c:	06a48863          	beq	x9,x10,3dcc <failedtest_saveresults_trap>

00003d60 <failedtest_saveresults_int>:
    3d60:	ffa2d303          	lhu	x6,-6(x5)
    3d64:	ff82d383          	lhu	x7,-8(x5)
    3d68:	01031313          	slli	x6,x6,0x10
    3d6c:	00736333          	or	x6,x6,x7
    3d70:	00f35393          	srli	x7,x6,0xf
    3d74:	01f3f393          	andi	x7,x7,31
    3d78:	01435413          	srli	x8,x6,0x14
    3d7c:	01f47413          	andi	x8,x8,31
    3d80:	10822223          	sw	x8,260(x4) # 104 <I_jalr_cg_cp_rs1_nx0_b2+0x18>
    3d84:	00341313          	slli	x6,x8,0x3
    3d88:	00620333          	add	x6,x4,x6
    3d8c:	00032303          	lw	x6,0(x6) # 33b0 <I_jalr_cg_cp_imm_edges_0x3+0x24>
    3d90:	10622823          	sw	x6,272(x4) # 110 <I_jalr_cg_cp_rs1_nx0_b2+0x24>
    3d94:	ff62d303          	lhu	x6,-10(x5)
    3d98:	ff42d383          	lhu	x7,-12(x5)
    3d9c:	01031313          	slli	x6,x6,0x10
    3da0:	00736333          	or	x6,x6,x7
    3da4:	41435393          	srai	x7,x6,0x14
    3da8:	00f35313          	srli	x6,x6,0xf
    3dac:	01f37313          	andi	x6,x6,31
    3db0:	00331313          	slli	x6,x6,0x3
    3db4:	00620333          	add	x6,x4,x6
    3db8:	00032303          	lw	x6,0(x6)
    3dbc:	00730333          	add	x6,x6,x7
    3dc0:	00032303          	lw	x6,0(x6)
    3dc4:	10622c23          	sw	x6,280(x4) # 118 <I_jalr_cg_cp_rs1_nx0_b2+0x2c>
    3dc8:	3d80006f          	jal	x0,41a0 <failedtest_saveresults_common>

00003dcc <failedtest_saveresults_trap>:
    3dcc:	0042a303          	lw	x6,4(x5)
    3dd0:	00006817          	auipc	x16,0x6
    3dd4:	ec880813          	addi	x16,x16,-312 # 9c98 <trap_diag_fail_str_ptr>
    3dd8:	00682023          	sw	x6,0(x16)
    3ddc:	0002a303          	lw	x6,0(x5)
    3de0:	10622423          	sw	x6,264(x4) # 108 <I_jalr_cg_cp_rs1_nx0_b2+0x1c>
    3de4:	00006817          	auipc	x16,0x6
    3de8:	eb480813          	addi	x16,x16,-332 # 9c98 <trap_diag_fail_str_ptr>
    3dec:	00082303          	lw	x6,0(x16)
    3df0:	00006397          	auipc	x7,0x6
    3df4:	57c38393          	addi	x7,x7,1404 # a36c <trap_sig_offset_mismatch>
    3df8:	28730463          	beq	x6,x7,4080 <trap_diag_offset_mismatch>
    3dfc:	00000413          	addi	x8,x0,0
    3e00:	00006817          	auipc	x16,0x6
    3e04:	e7080813          	addi	x16,x16,-400 # 9c70 <trap_diag_subtype>
    3e08:	00882023          	sw	x8,0(x16)
    3e0c:	00006397          	auipc	x7,0x6
    3e10:	5c438393          	addi	x7,x7,1476 # a3d0 <sv_Mvect_str>
    3e14:	00731863          	bne	x6,x7,3e24 <failedtest_saveresults_trap+0x58>
    3e18:	00100413          	addi	x8,x0,1
    3e1c:	00000493          	addi	x9,x0,0
    3e20:	2e00006f          	jal	x0,4100 <trap_diag_field_identified>
    3e24:	00006397          	auipc	x7,0x6
    3e28:	6ae38393          	addi	x7,x7,1710 # a4d2 <sv_Mcause_str>
    3e2c:	00731863          	bne	x6,x7,3e3c <failedtest_saveresults_trap+0x70>
    3e30:	00200413          	addi	x8,x0,2
    3e34:	00000493          	addi	x9,x0,0
    3e38:	2c80006f          	jal	x0,4100 <trap_diag_field_identified>
    3e3c:	00006397          	auipc	x7,0x6
    3e40:	79138393          	addi	x7,x7,1937 # a5cd <sv_Mepc_str>
    3e44:	00731863          	bne	x6,x7,3e54 <failedtest_saveresults_trap+0x88>
    3e48:	00300413          	addi	x8,x0,3
    3e4c:	00000493          	addi	x9,x0,0
    3e50:	2b00006f          	jal	x0,4100 <trap_diag_field_identified>
    3e54:	00007397          	auipc	x7,0x7
    3e58:	86c38393          	addi	x7,x7,-1940 # a6c0 <sv_Mtval_str>
    3e5c:	00731863          	bne	x6,x7,3e6c <failedtest_saveresults_trap+0xa0>
    3e60:	00400413          	addi	x8,x0,4
    3e64:	00000493          	addi	x9,x0,0
    3e68:	2980006f          	jal	x0,4100 <trap_diag_field_identified>
    3e6c:	00007397          	auipc	x7,0x7
    3e70:	9c738393          	addi	x7,x7,-1593 # a833 <sv_Mip_str>
    3e74:	00731863          	bne	x6,x7,3e84 <failedtest_saveresults_trap+0xb8>
    3e78:	00500413          	addi	x8,x0,5
    3e7c:	00000493          	addi	x9,x0,0
    3e80:	2800006f          	jal	x0,4100 <trap_diag_field_identified>
    3e84:	00007397          	auipc	x7,0x7
    3e88:	93338393          	addi	x7,x7,-1741 # a7b7 <sv_Mtval2_str>
    3e8c:	00731863          	bne	x6,x7,3e9c <failedtest_saveresults_trap+0xd0>
    3e90:	00600413          	addi	x8,x0,6
    3e94:	00000493          	addi	x9,x0,0
    3e98:	2680006f          	jal	x0,4100 <trap_diag_field_identified>
    3e9c:	00007397          	auipc	x7,0x7
    3ea0:	95938393          	addi	x7,x7,-1703 # a7f5 <sv_Mtinst_str>
    3ea4:	00731863          	bne	x6,x7,3eb4 <failedtest_saveresults_trap+0xe8>
    3ea8:	00700413          	addi	x8,x0,7
    3eac:	00000493          	addi	x9,x0,0
    3eb0:	2500006f          	jal	x0,4100 <trap_diag_field_identified>
    3eb4:	00006397          	auipc	x7,0x6
    3eb8:	55c38393          	addi	x7,x7,1372 # a410 <sv_Svect_str>
    3ebc:	00731863          	bne	x6,x7,3ecc <failedtest_saveresults_trap+0x100>
    3ec0:	00100413          	addi	x8,x0,1
    3ec4:	00100493          	addi	x9,x0,1
    3ec8:	2380006f          	jal	x0,4100 <trap_diag_field_identified>
    3ecc:	00006397          	auipc	x7,0x6
    3ed0:	64438393          	addi	x7,x7,1604 # a510 <sv_Scause_str>
    3ed4:	00731863          	bne	x6,x7,3ee4 <failedtest_saveresults_trap+0x118>
    3ed8:	00200413          	addi	x8,x0,2
    3edc:	00100493          	addi	x9,x0,1
    3ee0:	2200006f          	jal	x0,4100 <trap_diag_field_identified>
    3ee4:	00006397          	auipc	x7,0x6
    3ee8:	72538393          	addi	x7,x7,1829 # a609 <sv_Sepc_str>
    3eec:	00731863          	bne	x6,x7,3efc <failedtest_saveresults_trap+0x130>
    3ef0:	00300413          	addi	x8,x0,3
    3ef4:	00100493          	addi	x9,x0,1
    3ef8:	2080006f          	jal	x0,4100 <trap_diag_field_identified>
    3efc:	00007397          	auipc	x7,0x7
    3f00:	80138393          	addi	x7,x7,-2047 # a6fd <sv_Stval_str>
    3f04:	00731863          	bne	x6,x7,3f14 <failedtest_saveresults_trap+0x148>
    3f08:	00400413          	addi	x8,x0,4
    3f0c:	00100493          	addi	x9,x0,1
    3f10:	1f00006f          	jal	x0,4100 <trap_diag_field_identified>
    3f14:	00007397          	auipc	x7,0x7
    3f18:	95a38393          	addi	x7,x7,-1702 # a86e <sv_Sip_str>
    3f1c:	00731863          	bne	x6,x7,3f2c <failedtest_saveresults_trap+0x160>
    3f20:	00500413          	addi	x8,x0,5
    3f24:	00100493          	addi	x9,x0,1
    3f28:	1d80006f          	jal	x0,4100 <trap_diag_field_identified>
    3f2c:	00006397          	auipc	x7,0x6
    3f30:	52438393          	addi	x7,x7,1316 # a450 <sv_Hvect_str>
    3f34:	00731863          	bne	x6,x7,3f44 <failedtest_saveresults_trap+0x178>
    3f38:	00100413          	addi	x8,x0,1
    3f3c:	00200493          	addi	x9,x0,2
    3f40:	1c00006f          	jal	x0,4100 <trap_diag_field_identified>
    3f44:	00006397          	auipc	x7,0x6
    3f48:	60a38393          	addi	x7,x7,1546 # a54e <sv_Hcause_str>
    3f4c:	00731863          	bne	x6,x7,3f5c <failedtest_saveresults_trap+0x190>
    3f50:	00200413          	addi	x8,x0,2
    3f54:	00200493          	addi	x9,x0,2
    3f58:	1a80006f          	jal	x0,4100 <trap_diag_field_identified>
    3f5c:	00006397          	auipc	x7,0x6
    3f60:	6e938393          	addi	x7,x7,1769 # a645 <sv_Hepc_str>
    3f64:	00731863          	bne	x6,x7,3f74 <failedtest_saveresults_trap+0x1a8>
    3f68:	00300413          	addi	x8,x0,3
    3f6c:	00200493          	addi	x9,x0,2
    3f70:	1900006f          	jal	x0,4100 <trap_diag_field_identified>
    3f74:	00006397          	auipc	x7,0x6
    3f78:	7c638393          	addi	x7,x7,1990 # a73a <sv_Htval_str>
    3f7c:	00731863          	bne	x6,x7,3f8c <failedtest_saveresults_trap+0x1c0>
    3f80:	00400413          	addi	x8,x0,4
    3f84:	00200493          	addi	x9,x0,2
    3f88:	1780006f          	jal	x0,4100 <trap_diag_field_identified>
    3f8c:	00007397          	auipc	x7,0x7
    3f90:	91d38393          	addi	x7,x7,-1763 # a8a9 <sv_Hip_str>
    3f94:	00731863          	bne	x6,x7,3fa4 <failedtest_saveresults_trap+0x1d8>
    3f98:	00500413          	addi	x8,x0,5
    3f9c:	00200493          	addi	x9,x0,2
    3fa0:	1600006f          	jal	x0,4100 <trap_diag_field_identified>
    3fa4:	00006397          	auipc	x7,0x6
    3fa8:	4ed38393          	addi	x7,x7,1261 # a491 <sv_Vvect_str>
    3fac:	00731863          	bne	x6,x7,3fbc <failedtest_saveresults_trap+0x1f0>
    3fb0:	00100413          	addi	x8,x0,1
    3fb4:	00300493          	addi	x9,x0,3
    3fb8:	1480006f          	jal	x0,4100 <trap_diag_field_identified>
    3fbc:	00006397          	auipc	x7,0x6
    3fc0:	5d138393          	addi	x7,x7,1489 # a58d <sv_Vcause_str>
    3fc4:	00731863          	bne	x6,x7,3fd4 <failedtest_saveresults_trap+0x208>
    3fc8:	00200413          	addi	x8,x0,2
    3fcc:	00300493          	addi	x9,x0,3
    3fd0:	1300006f          	jal	x0,4100 <trap_diag_field_identified>
    3fd4:	00006397          	auipc	x7,0x6
    3fd8:	6ae38393          	addi	x7,x7,1710 # a682 <sv_Vepc_str>
    3fdc:	00731863          	bne	x6,x7,3fec <failedtest_saveresults_trap+0x220>
    3fe0:	00300413          	addi	x8,x0,3
    3fe4:	00300493          	addi	x9,x0,3
    3fe8:	1180006f          	jal	x0,4100 <trap_diag_field_identified>
    3fec:	00006397          	auipc	x7,0x6
    3ff0:	78c38393          	addi	x7,x7,1932 # a778 <sv_Vtval_str>
    3ff4:	00731863          	bne	x6,x7,4004 <failedtest_saveresults_trap+0x238>
    3ff8:	00400413          	addi	x8,x0,4
    3ffc:	00300493          	addi	x9,x0,3
    4000:	1000006f          	jal	x0,4100 <trap_diag_field_identified>
    4004:	00007397          	auipc	x7,0x7
    4008:	8e138393          	addi	x7,x7,-1823 # a8e5 <sv_Vip_str>
    400c:	00731863          	bne	x6,x7,401c <failedtest_saveresults_trap+0x250>
    4010:	00500413          	addi	x8,x0,5
    4014:	00300493          	addi	x9,x0,3
    4018:	0e80006f          	jal	x0,4100 <trap_diag_field_identified>
    401c:	00007397          	auipc	x7,0x7
    4020:	90638393          	addi	x7,x7,-1786 # a922 <Mclr_Mext_int_str>
    4024:	00731863          	bne	x6,x7,4034 <failedtest_saveresults_trap+0x268>
    4028:	00800413          	addi	x8,x0,8
    402c:	00000493          	addi	x9,x0,0
    4030:	0d00006f          	jal	x0,4100 <trap_diag_field_identified>
    4034:	00007397          	auipc	x7,0x7
    4038:	93d38393          	addi	x7,x7,-1731 # a971 <Mclr_Sext_int_str>
    403c:	00731863          	bne	x6,x7,404c <failedtest_saveresults_trap+0x280>
    4040:	00800413          	addi	x8,x0,8
    4044:	00000493          	addi	x9,x0,0
    4048:	0b80006f          	jal	x0,4100 <trap_diag_field_identified>
    404c:	00007397          	auipc	x7,0x7
    4050:	a2038393          	addi	x7,x7,-1504 # aa6c <Sclr_Sext_int_str>
    4054:	00731863          	bne	x6,x7,4064 <failedtest_saveresults_trap+0x298>
    4058:	00800413          	addi	x8,x0,8
    405c:	00100493          	addi	x9,x0,1
    4060:	0a00006f          	jal	x0,4100 <trap_diag_field_identified>
    4064:	00007397          	auipc	x7,0x7
    4068:	b0438393          	addi	x7,x7,-1276 # ab68 <Hclr_Sext_int_str>
    406c:	00731863          	bne	x6,x7,407c <failedtest_saveresults_trap+0x2b0>
    4070:	00800413          	addi	x8,x0,8
    4074:	00200493          	addi	x9,x0,2
    4078:	0880006f          	jal	x0,4100 <trap_diag_field_identified>
    407c:	1140006f          	jal	x0,4190 <trap_diag_generic_report>

00004080 <trap_diag_offset_mismatch>:
    4080:	00900413          	addi	x8,x0,9
    4084:	00006817          	auipc	x16,0x6
    4088:	bec80813          	addi	x16,x16,-1044 # 9c70 <trap_diag_subtype>
    408c:	00882023          	sw	x8,0(x16)
    4090:	ffa2d303          	lhu	x6,-6(x5)
    4094:	ff82d383          	lhu	x7,-8(x5)
    4098:	01031313          	slli	x6,x6,0x10
    409c:	00736333          	or	x6,x6,x7
    40a0:	01435413          	srli	x8,x6,0x14
    40a4:	01f47413          	andi	x8,x8,31
    40a8:	00341313          	slli	x6,x8,0x3
    40ac:	00620333          	add	x6,x4,x6
    40b0:	00032303          	lw	x6,0(x6)
    40b4:	00006817          	auipc	x16,0x6
    40b8:	bd480813          	addi	x16,x16,-1068 # 9c88 <trap_diag_actual_offset>
    40bc:	00682023          	sw	x6,0(x16)
    40c0:	ff62d303          	lhu	x6,-10(x5)
    40c4:	ff42d383          	lhu	x7,-12(x5)
    40c8:	01031313          	slli	x6,x6,0x10
    40cc:	00736333          	or	x6,x6,x7
    40d0:	41435393          	srai	x7,x6,0x14
    40d4:	00f35313          	srli	x6,x6,0xf
    40d8:	01f37313          	andi	x6,x6,31
    40dc:	00331313          	slli	x6,x6,0x3
    40e0:	00620333          	add	x6,x4,x6
    40e4:	00032303          	lw	x6,0(x6)
    40e8:	00730333          	add	x6,x6,x7
    40ec:	00032303          	lw	x6,0(x6)
    40f0:	00006817          	auipc	x16,0x6
    40f4:	ba080813          	addi	x16,x16,-1120 # 9c90 <trap_diag_expected_offset>
    40f8:	00682023          	sw	x6,0(x16)
    40fc:	0a40006f          	jal	x0,41a0 <failedtest_saveresults_common>

00004100 <trap_diag_field_identified>:
    4100:	00006817          	auipc	x16,0x6
    4104:	b7080813          	addi	x16,x16,-1168 # 9c70 <trap_diag_subtype>
    4108:	00882023          	sw	x8,0(x16)
    410c:	00006817          	auipc	x16,0x6
    4110:	b6880813          	addi	x16,x16,-1176 # 9c74 <trap_diag_mode>
    4114:	00982023          	sw	x9,0(x16)
    4118:	ffa2d303          	lhu	x6,-6(x5)
    411c:	ff82d383          	lhu	x7,-8(x5)
    4120:	01031313          	slli	x6,x6,0x10
    4124:	00736333          	or	x6,x6,x7
    4128:	01435713          	srli	x14,x6,0x14
    412c:	01f77713          	andi	x14,x14,31
    4130:	00371313          	slli	x6,x14,0x3
    4134:	00620333          	add	x6,x4,x6
    4138:	00032303          	lw	x6,0(x6)
    413c:	10622823          	sw	x6,272(x4) # 110 <I_jalr_cg_cp_rs1_nx0_b2+0x24>
    4140:	00006817          	auipc	x16,0x6
    4144:	b3880813          	addi	x16,x16,-1224 # 9c78 <trap_diag_actual_value>
    4148:	00682023          	sw	x6,0(x16)
    414c:	ff62d303          	lhu	x6,-10(x5)
    4150:	ff42d383          	lhu	x7,-12(x5)
    4154:	01031313          	slli	x6,x6,0x10
    4158:	00736333          	or	x6,x6,x7
    415c:	41435393          	srai	x7,x6,0x14
    4160:	00f35313          	srli	x6,x6,0xf
    4164:	01f37313          	andi	x6,x6,31
    4168:	00331313          	slli	x6,x6,0x3
    416c:	00620333          	add	x6,x4,x6
    4170:	00032303          	lw	x6,0(x6)
    4174:	00730333          	add	x6,x6,x7
    4178:	00032303          	lw	x6,0(x6)
    417c:	10622c23          	sw	x6,280(x4) # 118 <I_jalr_cg_cp_rs1_nx0_b2+0x2c>
    4180:	00006817          	auipc	x16,0x6
    4184:	b0080813          	addi	x16,x16,-1280 # 9c80 <trap_diag_expected_value>
    4188:	00682023          	sw	x6,0(x16)
    418c:	0140006f          	jal	x0,41a0 <failedtest_saveresults_common>

00004190 <trap_diag_generic_report>:
    4190:	00006817          	auipc	x16,0x6
    4194:	ae080813          	addi	x16,x16,-1312 # 9c70 <trap_diag_subtype>
    4198:	00082023          	sw	x0,0(x16)
    419c:	0040006f          	jal	x0,41a0 <failedtest_saveresults_common>

000041a0 <failedtest_saveresults_common>:
    41a0:	0002a303          	lw	x6,0(x5)
    41a4:	10622423          	sw	x6,264(x4) # 108 <I_jalr_cg_cp_rs1_nx0_b2+0x1c>
    41a8:	00035383          	lhu	x7,0(x6)
    41ac:	0033f413          	andi	x8,x7,3
    41b0:	00300493          	addi	x9,x0,3
    41b4:	00941863          	bne	x8,x9,41c4 <failedtest_saveresults_common+0x24>
    41b8:	00235403          	lhu	x8,2(x6)
    41bc:	01041413          	slli	x8,x8,0x10
    41c0:	0083e3b3          	or	x7,x7,x8
    41c4:	10722023          	sw	x7,256(x4) # 100 <I_jalr_cg_cp_rs1_nx0_b2+0x14>
    41c8:	0042a303          	lw	x6,4(x5)
    41cc:	12622023          	sw	x6,288(x4) # 120 <I_jalr_cg_cp_rs1_nx0_b2+0x34>

000041d0 <failedtest_report>:
    41d0:	00000013          	addi	x0,x0,0
    41d4:	00000013          	addi	x0,x0,0
    41d8:	00000013          	addi	x0,x0,0
    41dc:	00000013          	addi	x0,x0,0
    41e0:	00006517          	auipc	x10,0x6
    41e4:	ffb50513          	addi	x10,x10,-5 # a1db <failstr>
    41e8:	00000013          	addi	x0,x0,0
    41ec:	00000013          	addi	x0,x0,0
    41f0:	00000013          	addi	x0,x0,0
    41f4:	00000013          	addi	x0,x0,0
    41f8:	00000013          	addi	x0,x0,0
    41fc:	00000013          	addi	x0,x0,0
    4200:	00017097          	auipc	x1,0x17
    4204:	004080e7          	jalr	x1,4(x1) # 1b204 <rvmodel_io_write_str>

00004208 <print_testnamestr>:
    4208:	00000013          	addi	x0,x0,0
    420c:	00000013          	addi	x0,x0,0
    4210:	00000013          	addi	x0,x0,0
    4214:	00000013          	addi	x0,x0,0
    4218:	00000013          	addi	x0,x0,0
    421c:	00000013          	addi	x0,x0,0
    4220:	00006517          	auipc	x10,0x6
    4224:	04f50513          	addi	x10,x10,79 # a26f <testnamestr>
    4228:	00000013          	addi	x0,x0,0
    422c:	00000013          	addi	x0,x0,0
    4230:	00000013          	addi	x0,x0,0
    4234:	00000013          	addi	x0,x0,0
    4238:	00000013          	addi	x0,x0,0
    423c:	00000013          	addi	x0,x0,0
    4240:	00017097          	auipc	x1,0x17
    4244:	fc4080e7          	jalr	x1,-60(x1) # 1b204 <rvmodel_io_write_str>

00004248 <print_failure_test_name_str>:
    4248:	00006517          	auipc	x10,0x6
    424c:	a1852503          	lw	x10,-1512(x10) # 9c60 <failure_string_ptr>
    4250:	00017097          	auipc	x1,0x17
    4254:	fb4080e7          	jalr	x1,-76(x1) # 1b204 <rvmodel_io_write_str>

00004258 <print_newline_str>:
    4258:	00000013          	addi	x0,x0,0
    425c:	00000013          	addi	x0,x0,0
    4260:	00006517          	auipc	x10,0x6
    4264:	02150513          	addi	x10,x10,33 # a281 <newlinestr>
    4268:	00000013          	addi	x0,x0,0
    426c:	00000013          	addi	x0,x0,0
    4270:	00000013          	addi	x0,x0,0
    4274:	00000013          	addi	x0,x0,0
    4278:	00000013          	addi	x0,x0,0
    427c:	00000013          	addi	x0,x0,0
    4280:	00017097          	auipc	x1,0x17
    4284:	f84080e7          	jalr	x1,-124(x1) # 1b204 <rvmodel_io_write_str>
    4288:	00006517          	auipc	x10,0x6
    428c:	8b852503          	lw	x10,-1864(x10) # 9b40 <begin_failure_scratch>
    4290:	00300593          	addi	x11,x0,3
    4294:	3eb50c63          	beq	x10,x11,468c <failedtest_report_trap_detailed>
    4298:	00000013          	addi	x0,x0,0
    429c:	00000013          	addi	x0,x0,0
    42a0:	00006517          	auipc	x10,0x6
    42a4:	fe350513          	addi	x10,x10,-29 # a283 <inststr>
    42a8:	00000013          	addi	x0,x0,0
    42ac:	00000013          	addi	x0,x0,0
    42b0:	00000013          	addi	x0,x0,0
    42b4:	00000013          	addi	x0,x0,0
    42b8:	00000013          	addi	x0,x0,0
    42bc:	00000013          	addi	x0,x0,0
    42c0:	00017097          	auipc	x1,0x17
    42c4:	f44080e7          	jalr	x1,-188(x1) # 1b204 <rvmodel_io_write_str>
    42c8:	00006517          	auipc	x10,0x6
    42cc:	97852503          	lw	x10,-1672(x10) # 9c40 <failing_instruction>
    42d0:	02000593          	addi	x11,x0,32
    42d4:	00357613          	andi	x12,x10,3
    42d8:	00300693          	addi	x13,x0,3
    42dc:	00d60463          	beq	x12,x13,42e4 <print_newline_str+0x8c>
    42e0:	01000593          	addi	x11,x0,16
    42e4:	2f4010ef          	jal	x1,55d8 <failedtest_hex_to_str>
    42e8:	00000013          	addi	x0,x0,0
    42ec:	00000013          	addi	x0,x0,0
    42f0:	00000013          	addi	x0,x0,0
    42f4:	00000013          	addi	x0,x0,0
    42f8:	00000013          	addi	x0,x0,0
    42fc:	00000013          	addi	x0,x0,0
    4300:	00006517          	auipc	x10,0x6
    4304:	9c850513          	addi	x10,x10,-1592 # 9cc8 <ascii_buffer>
    4308:	00000013          	addi	x0,x0,0
    430c:	00000013          	addi	x0,x0,0
    4310:	00000013          	addi	x0,x0,0
    4314:	00000013          	addi	x0,x0,0
    4318:	00000013          	addi	x0,x0,0
    431c:	00000013          	addi	x0,x0,0
    4320:	00017097          	auipc	x1,0x17
    4324:	ee4080e7          	jalr	x1,-284(x1) # 1b204 <rvmodel_io_write_str>
    4328:	00000013          	addi	x0,x0,0
    432c:	00000013          	addi	x0,x0,0
    4330:	00000013          	addi	x0,x0,0
    4334:	00000013          	addi	x0,x0,0
    4338:	00000013          	addi	x0,x0,0
    433c:	00000013          	addi	x0,x0,0
    4340:	00006517          	auipc	x10,0x6
    4344:	f5750513          	addi	x10,x10,-169 # a297 <addrstr>
    4348:	00000013          	addi	x0,x0,0
    434c:	00000013          	addi	x0,x0,0
    4350:	00000013          	addi	x0,x0,0
    4354:	00000013          	addi	x0,x0,0
    4358:	00000013          	addi	x0,x0,0
    435c:	00000013          	addi	x0,x0,0
    4360:	00017097          	auipc	x1,0x17
    4364:	ea4080e7          	jalr	x1,-348(x1) # 1b204 <rvmodel_io_write_str>
    4368:	00006517          	auipc	x10,0x6
    436c:	8e052503          	lw	x10,-1824(x10) # 9c48 <failing_addr>
    4370:	02000593          	addi	x11,x0,32
    4374:	264010ef          	jal	x1,55d8 <failedtest_hex_to_str>
    4378:	00000013          	addi	x0,x0,0
    437c:	00000013          	addi	x0,x0,0
    4380:	00006517          	auipc	x10,0x6
    4384:	94850513          	addi	x10,x10,-1720 # 9cc8 <ascii_buffer>
    4388:	00000013          	addi	x0,x0,0
    438c:	00000013          	addi	x0,x0,0
    4390:	00000013          	addi	x0,x0,0
    4394:	00000013          	addi	x0,x0,0
    4398:	00000013          	addi	x0,x0,0
    439c:	00000013          	addi	x0,x0,0
    43a0:	00017097          	auipc	x1,0x17
    43a4:	e64080e7          	jalr	x1,-412(x1) # 1b204 <rvmodel_io_write_str>
    43a8:	00000013          	addi	x0,x0,0
    43ac:	00000013          	addi	x0,x0,0
    43b0:	00000013          	addi	x0,x0,0
    43b4:	00000013          	addi	x0,x0,0
    43b8:	00000013          	addi	x0,x0,0
    43bc:	00000013          	addi	x0,x0,0
    43c0:	00007517          	auipc	x10,0x7
    43c4:	95450513          	addi	x10,x10,-1708 # ad14 <regstr>
    43c8:	00000013          	addi	x0,x0,0
    43cc:	00000013          	addi	x0,x0,0
    43d0:	00000013          	addi	x0,x0,0
    43d4:	00000013          	addi	x0,x0,0
    43d8:	00000013          	addi	x0,x0,0
    43dc:	00000013          	addi	x0,x0,0
    43e0:	00017097          	auipc	x1,0x17
    43e4:	e24080e7          	jalr	x1,-476(x1) # 1b204 <rvmodel_io_write_str>
    43e8:	00005517          	auipc	x10,0x5
    43ec:	75852503          	lw	x10,1880(x10) # 9b40 <begin_failure_scratch>
    43f0:	00050663          	beq	x10,x0,43fc <print_newline_str+0x1a4>
    43f4:	00300593          	addi	x11,x0,3
    43f8:	04b51063          	bne	x10,x11,4438 <failedtest_report_not_intreg>
    43fc:	07800593          	addi	x11,x0,120
    4400:	00006617          	auipc	x12,0x6
    4404:	8c860613          	addi	x12,x12,-1848 # 9cc8 <ascii_buffer>
    4408:	00000013          	addi	x0,x0,0
    440c:	00000013          	addi	x0,x0,0
    4410:	00000013          	addi	x0,x0,0
    4414:	00000013          	addi	x0,x0,0
    4418:	00000013          	addi	x0,x0,0
    441c:	00000013          	addi	x0,x0,0
    4420:	00b60023          	sb	x11,0(x12)
    4424:	00160613          	addi	x12,x12,1
    4428:	00006517          	auipc	x10,0x6
    442c:	81c52503          	lw	x10,-2020(x10) # 9c44 <failing_reg>
    4430:	224010ef          	jal	x1,5654 <failedtest_dec_to_str>
    4434:	0e00006f          	jal	x0,4514 <failedtest_report_print_regstr>

00004438 <failedtest_report_not_intreg>:
    4438:	00100593          	addi	x11,x0,1
    443c:	04b50863          	beq	x10,x11,448c <failedtest_report_fpreg>
    4440:	00400593          	addi	x11,x0,4
    4444:	08b50a63          	beq	x10,x11,44d8 <failedtest_report_vecreg>
    4448:	00000013          	addi	x0,x0,0
    444c:	00000013          	addi	x0,x0,0
    4450:	00000013          	addi	x0,x0,0
    4454:	00000013          	addi	x0,x0,0
    4458:	00000013          	addi	x0,x0,0
    445c:	00000013          	addi	x0,x0,0
    4460:	00007517          	auipc	x10,0x7
    4464:	91450513          	addi	x10,x10,-1772 # ad74 <fflagsstr>
    4468:	00000013          	addi	x0,x0,0
    446c:	00000013          	addi	x0,x0,0
    4470:	00000013          	addi	x0,x0,0
    4474:	00000013          	addi	x0,x0,0
    4478:	00000013          	addi	x0,x0,0
    447c:	00000013          	addi	x0,x0,0
    4480:	00017097          	auipc	x1,0x17
    4484:	d84080e7          	jalr	x1,-636(x1) # 1b204 <rvmodel_io_write_str>
    4488:	0c00006f          	jal	x0,4548 <failedtest_report_after_reg>

0000448c <failedtest_report_fpreg>:
    448c:	06600593          	addi	x11,x0,102
    4490:	00000013          	addi	x0,x0,0
    4494:	00000013          	addi	x0,x0,0
    4498:	00000013          	addi	x0,x0,0
    449c:	00000013          	addi	x0,x0,0
    44a0:	00006617          	auipc	x12,0x6
    44a4:	82860613          	addi	x12,x12,-2008 # 9cc8 <ascii_buffer>
    44a8:	00000013          	addi	x0,x0,0
    44ac:	00000013          	addi	x0,x0,0
    44b0:	00000013          	addi	x0,x0,0
    44b4:	00000013          	addi	x0,x0,0
    44b8:	00000013          	addi	x0,x0,0
    44bc:	00000013          	addi	x0,x0,0
    44c0:	00b60023          	sb	x11,0(x12)
    44c4:	00160613          	addi	x12,x12,1
    44c8:	00005517          	auipc	x10,0x5
    44cc:	77c52503          	lw	x10,1916(x10) # 9c44 <failing_reg>
    44d0:	184010ef          	jal	x1,5654 <failedtest_dec_to_str>
    44d4:	0400006f          	jal	x0,4514 <failedtest_report_print_regstr>

000044d8 <failedtest_report_vecreg>:
    44d8:	07600593          	addi	x11,x0,118
    44dc:	00000013          	addi	x0,x0,0
    44e0:	00005617          	auipc	x12,0x5
    44e4:	7e860613          	addi	x12,x12,2024 # 9cc8 <ascii_buffer>
    44e8:	00000013          	addi	x0,x0,0
    44ec:	00000013          	addi	x0,x0,0
    44f0:	00000013          	addi	x0,x0,0
    44f4:	00000013          	addi	x0,x0,0
    44f8:	00000013          	addi	x0,x0,0
    44fc:	00000013          	addi	x0,x0,0
    4500:	00b60023          	sb	x11,0(x12)
    4504:	00160613          	addi	x12,x12,1
    4508:	00005517          	auipc	x10,0x5
    450c:	73c52503          	lw	x10,1852(x10) # 9c44 <failing_reg>
    4510:	144010ef          	jal	x1,5654 <failedtest_dec_to_str>

00004514 <failedtest_report_print_regstr>:
    4514:	00000013          	addi	x0,x0,0
    4518:	00000013          	addi	x0,x0,0
    451c:	00000013          	addi	x0,x0,0
    4520:	00005517          	auipc	x10,0x5
    4524:	7a850513          	addi	x10,x10,1960 # 9cc8 <ascii_buffer>
    4528:	00000013          	addi	x0,x0,0
    452c:	00000013          	addi	x0,x0,0
    4530:	00000013          	addi	x0,x0,0
    4534:	00000013          	addi	x0,x0,0
    4538:	00000013          	addi	x0,x0,0
    453c:	00000013          	addi	x0,x0,0
    4540:	00017097          	auipc	x1,0x17
    4544:	cc4080e7          	jalr	x1,-828(x1) # 1b204 <rvmodel_io_write_str>

00004548 <failedtest_report_after_reg>:
    4548:	00000013          	addi	x0,x0,0
    454c:	00000013          	addi	x0,x0,0
    4550:	00000013          	addi	x0,x0,0
    4554:	00000013          	addi	x0,x0,0
    4558:	00000013          	addi	x0,x0,0
    455c:	00000013          	addi	x0,x0,0
    4560:	00006517          	auipc	x10,0x6
    4564:	7c550513          	addi	x10,x10,1989 # ad25 <badvalstr>
    4568:	00000013          	addi	x0,x0,0
    456c:	00000013          	addi	x0,x0,0
    4570:	00000013          	addi	x0,x0,0
    4574:	00000013          	addi	x0,x0,0
    4578:	00000013          	addi	x0,x0,0
    457c:	00000013          	addi	x0,x0,0
    4580:	00017097          	auipc	x1,0x17
    4584:	c84080e7          	jalr	x1,-892(x1) # 1b204 <rvmodel_io_write_str>
    4588:	00005517          	auipc	x10,0x5
    458c:	5b852503          	lw	x10,1464(x10) # 9b40 <begin_failure_scratch>
    4590:	00100593          	addi	x11,x0,1
    4594:	00b51c63          	bne	x10,x11,45ac <failedtest_report_badval_not_fp>
    4598:	00005517          	auipc	x10,0x5
    459c:	6b852503          	lw	x10,1720(x10) # 9c50 <failing_value>
    45a0:	02000593          	addi	x11,x0,32
    45a4:	034010ef          	jal	x1,55d8 <failedtest_hex_to_str>
    45a8:	0140006f          	jal	x0,45bc <failedtest_report_badval_done>

000045ac <failedtest_report_badval_not_fp>:
    45ac:	00005517          	auipc	x10,0x5
    45b0:	6a452503          	lw	x10,1700(x10) # 9c50 <failing_value>
    45b4:	02000593          	addi	x11,x0,32
    45b8:	020010ef          	jal	x1,55d8 <failedtest_hex_to_str>

000045bc <failedtest_report_badval_done>:
    45bc:	00000013          	addi	x0,x0,0
    45c0:	00005517          	auipc	x10,0x5
    45c4:	70850513          	addi	x10,x10,1800 # 9cc8 <ascii_buffer>
    45c8:	00000013          	addi	x0,x0,0
    45cc:	00000013          	addi	x0,x0,0
    45d0:	00000013          	addi	x0,x0,0
    45d4:	00000013          	addi	x0,x0,0
    45d8:	00000013          	addi	x0,x0,0
    45dc:	00000013          	addi	x0,x0,0
    45e0:	00017097          	auipc	x1,0x17
    45e4:	c24080e7          	jalr	x1,-988(x1) # 1b204 <rvmodel_io_write_str>
    45e8:	00000013          	addi	x0,x0,0
    45ec:	00000013          	addi	x0,x0,0
    45f0:	00000013          	addi	x0,x0,0
    45f4:	00000013          	addi	x0,x0,0
    45f8:	00000013          	addi	x0,x0,0
    45fc:	00000013          	addi	x0,x0,0
    4600:	00006517          	auipc	x10,0x6
    4604:	73c50513          	addi	x10,x10,1852 # ad3c <expvalstr>
    4608:	00000013          	addi	x0,x0,0
    460c:	00000013          	addi	x0,x0,0
    4610:	00000013          	addi	x0,x0,0
    4614:	00000013          	addi	x0,x0,0
    4618:	00000013          	addi	x0,x0,0
    461c:	00000013          	addi	x0,x0,0
    4620:	00017097          	auipc	x1,0x17
    4624:	be4080e7          	jalr	x1,-1052(x1) # 1b204 <rvmodel_io_write_str>
    4628:	00005517          	auipc	x10,0x5
    462c:	51852503          	lw	x10,1304(x10) # 9b40 <begin_failure_scratch>
    4630:	00100593          	addi	x11,x0,1
    4634:	00b51c63          	bne	x10,x11,464c <failedtest_report_expval_not_fp>
    4638:	00005517          	auipc	x10,0x5
    463c:	62052503          	lw	x10,1568(x10) # 9c58 <expected_value>
    4640:	02000593          	addi	x11,x0,32
    4644:	795000ef          	jal	x1,55d8 <failedtest_hex_to_str>
    4648:	0140006f          	jal	x0,465c <failedtest_report_expval_done>

0000464c <failedtest_report_expval_not_fp>:
    464c:	00005517          	auipc	x10,0x5
    4650:	60c52503          	lw	x10,1548(x10) # 9c58 <expected_value>
    4654:	02000593          	addi	x11,x0,32
    4658:	781000ef          	jal	x1,55d8 <failedtest_hex_to_str>

0000465c <failedtest_report_expval_done>:
    465c:	00000013          	addi	x0,x0,0
    4660:	00005517          	auipc	x10,0x5
    4664:	66850513          	addi	x10,x10,1640 # 9cc8 <ascii_buffer>
    4668:	00000013          	addi	x0,x0,0
    466c:	00000013          	addi	x0,x0,0
    4670:	00000013          	addi	x0,x0,0
    4674:	00000013          	addi	x0,x0,0
    4678:	00000013          	addi	x0,x0,0
    467c:	00000013          	addi	x0,x0,0
    4680:	00017097          	auipc	x1,0x17
    4684:	b84080e7          	jalr	x1,-1148(x1) # 1b204 <rvmodel_io_write_str>
    4688:	4fd0006f          	jal	x0,5384 <failedtest_report_end>

0000468c <failedtest_report_trap_detailed>:
    468c:	00000013          	addi	x0,x0,0
    4690:	00000013          	addi	x0,x0,0
    4694:	00000013          	addi	x0,x0,0
    4698:	00000013          	addi	x0,x0,0
    469c:	00000013          	addi	x0,x0,0
    46a0:	00006517          	auipc	x10,0x6
    46a4:	70050513          	addi	x10,x10,1792 # ada0 <trap_diag_header_str>
    46a8:	00000013          	addi	x0,x0,0
    46ac:	00000013          	addi	x0,x0,0
    46b0:	00000013          	addi	x0,x0,0
    46b4:	00000013          	addi	x0,x0,0
    46b8:	00000013          	addi	x0,x0,0
    46bc:	00000013          	addi	x0,x0,0
    46c0:	00017097          	auipc	x1,0x17
    46c4:	b44080e7          	jalr	x1,-1212(x1) # 1b204 <rvmodel_io_write_str>
    46c8:	00000013          	addi	x0,x0,0
    46cc:	00000013          	addi	x0,x0,0
    46d0:	00000013          	addi	x0,x0,0
    46d4:	00000013          	addi	x0,x0,0
    46d8:	00000013          	addi	x0,x0,0
    46dc:	00000013          	addi	x0,x0,0
    46e0:	00006517          	auipc	x10,0x6
    46e4:	6ec50513          	addi	x10,x10,1772 # adcc <trap_diag_origstr_label>
    46e8:	00000013          	addi	x0,x0,0
    46ec:	00000013          	addi	x0,x0,0
    46f0:	00000013          	addi	x0,x0,0
    46f4:	00000013          	addi	x0,x0,0
    46f8:	00000013          	addi	x0,x0,0
    46fc:	00000013          	addi	x0,x0,0
    4700:	00017097          	auipc	x1,0x17
    4704:	b04080e7          	jalr	x1,-1276(x1) # 1b204 <rvmodel_io_write_str>
    4708:	00005817          	auipc	x16,0x5
    470c:	59080813          	addi	x16,x16,1424 # 9c98 <trap_diag_fail_str_ptr>
    4710:	00082503          	lw	x10,0(x16)
    4714:	00017097          	auipc	x1,0x17
    4718:	af0080e7          	jalr	x1,-1296(x1) # 1b204 <rvmodel_io_write_str>
    471c:	00000013          	addi	x0,x0,0
    4720:	00006517          	auipc	x10,0x6
    4724:	b6150513          	addi	x10,x10,-1183 # a281 <newlinestr>
    4728:	00000013          	addi	x0,x0,0
    472c:	00000013          	addi	x0,x0,0
    4730:	00000013          	addi	x0,x0,0
    4734:	00000013          	addi	x0,x0,0
    4738:	00000013          	addi	x0,x0,0
    473c:	00000013          	addi	x0,x0,0
    4740:	00017097          	auipc	x1,0x17
    4744:	ac4080e7          	jalr	x1,-1340(x1) # 1b204 <rvmodel_io_write_str>
    4748:	00005417          	auipc	x8,0x5
    474c:	52842403          	lw	x8,1320(x8) # 9c70 <trap_diag_subtype>
    4750:	00900493          	addi	x9,x0,9
    4754:	00940663          	beq	x8,x9,4760 <trap_report_offset_mismatch>
    4758:	2a040ce3          	beq	x8,x0,5210 <trap_report_generic>
    475c:	3780006f          	jal	x0,4ad4 <trap_report_field_mismatch>

00004760 <trap_report_offset_mismatch>:
    4760:	00006517          	auipc	x10,0x6
    4764:	67c50513          	addi	x10,x10,1660 # addc <trap_diag_count_mismatch_str>
    4768:	00000013          	addi	x0,x0,0
    476c:	00000013          	addi	x0,x0,0
    4770:	00000013          	addi	x0,x0,0
    4774:	00000013          	addi	x0,x0,0
    4778:	00000013          	addi	x0,x0,0
    477c:	00000013          	addi	x0,x0,0
    4780:	00017097          	auipc	x1,0x17
    4784:	a84080e7          	jalr	x1,-1404(x1) # 1b204 <rvmodel_io_write_str>
    4788:	00000013          	addi	x0,x0,0
    478c:	00000013          	addi	x0,x0,0
    4790:	00000013          	addi	x0,x0,0
    4794:	00000013          	addi	x0,x0,0
    4798:	00000013          	addi	x0,x0,0
    479c:	00000013          	addi	x0,x0,0
    47a0:	00006517          	auipc	x10,0x6
    47a4:	69d50513          	addi	x10,x10,1693 # ae3d <trap_diag_expected_offset_str>
    47a8:	00000013          	addi	x0,x0,0
    47ac:	00000013          	addi	x0,x0,0
    47b0:	00000013          	addi	x0,x0,0
    47b4:	00000013          	addi	x0,x0,0
    47b8:	00000013          	addi	x0,x0,0
    47bc:	00000013          	addi	x0,x0,0
    47c0:	00017097          	auipc	x1,0x17
    47c4:	a44080e7          	jalr	x1,-1468(x1) # 1b204 <rvmodel_io_write_str>
    47c8:	00005517          	auipc	x10,0x5
    47cc:	4c852503          	lw	x10,1224(x10) # 9c90 <trap_diag_expected_offset>
    47d0:	02000593          	addi	x11,x0,32
    47d4:	605000ef          	jal	x1,55d8 <failedtest_hex_to_str>
    47d8:	00000013          	addi	x0,x0,0
    47dc:	00000013          	addi	x0,x0,0
    47e0:	00005517          	auipc	x10,0x5
    47e4:	4e850513          	addi	x10,x10,1256 # 9cc8 <ascii_buffer>
    47e8:	00000013          	addi	x0,x0,0
    47ec:	00000013          	addi	x0,x0,0
    47f0:	00000013          	addi	x0,x0,0
    47f4:	00000013          	addi	x0,x0,0
    47f8:	00000013          	addi	x0,x0,0
    47fc:	00000013          	addi	x0,x0,0
    4800:	00017097          	auipc	x1,0x17
    4804:	a04080e7          	jalr	x1,-1532(x1) # 1b204 <rvmodel_io_write_str>
    4808:	00000013          	addi	x0,x0,0
    480c:	00000013          	addi	x0,x0,0
    4810:	00000013          	addi	x0,x0,0
    4814:	00000013          	addi	x0,x0,0
    4818:	00000013          	addi	x0,x0,0
    481c:	00000013          	addi	x0,x0,0
    4820:	00006517          	auipc	x10,0x6
    4824:	64450513          	addi	x10,x10,1604 # ae64 <trap_diag_actual_offset_str>
    4828:	00000013          	addi	x0,x0,0
    482c:	00000013          	addi	x0,x0,0
    4830:	00000013          	addi	x0,x0,0
    4834:	00000013          	addi	x0,x0,0
    4838:	00000013          	addi	x0,x0,0
    483c:	00000013          	addi	x0,x0,0
    4840:	00017097          	auipc	x1,0x17
    4844:	9c4080e7          	jalr	x1,-1596(x1) # 1b204 <rvmodel_io_write_str>
    4848:	00005517          	auipc	x10,0x5
    484c:	44052503          	lw	x10,1088(x10) # 9c88 <trap_diag_actual_offset>
    4850:	02000593          	addi	x11,x0,32
    4854:	585000ef          	jal	x1,55d8 <failedtest_hex_to_str>
    4858:	00000013          	addi	x0,x0,0
    485c:	00000013          	addi	x0,x0,0
    4860:	00005517          	auipc	x10,0x5
    4864:	46850513          	addi	x10,x10,1128 # 9cc8 <ascii_buffer>
    4868:	00000013          	addi	x0,x0,0
    486c:	00000013          	addi	x0,x0,0
    4870:	00000013          	addi	x0,x0,0
    4874:	00000013          	addi	x0,x0,0
    4878:	00000013          	addi	x0,x0,0
    487c:	00000013          	addi	x0,x0,0
    4880:	00017097          	auipc	x1,0x17
    4884:	984080e7          	jalr	x1,-1660(x1) # 1b204 <rvmodel_io_write_str>
    4888:	00005317          	auipc	x6,0x5
    488c:	40032303          	lw	x6,1024(x6) # 9c88 <trap_diag_actual_offset>
    4890:	00005397          	auipc	x7,0x5
    4894:	4003a383          	lw	x7,1024(x7) # 9c90 <trap_diag_expected_offset>
    4898:	10734e63          	blt	x6,x7,49b4 <trap_report_missing_traps>

0000489c <trap_report_extra_traps>:
    489c:	00000013          	addi	x0,x0,0
    48a0:	00006517          	auipc	x10,0x6
    48a4:	5eb50513          	addi	x10,x10,1515 # ae8b <trap_diag_extra_traps_str>
    48a8:	00000013          	addi	x0,x0,0
    48ac:	00000013          	addi	x0,x0,0
    48b0:	00000013          	addi	x0,x0,0
    48b4:	00000013          	addi	x0,x0,0
    48b8:	00000013          	addi	x0,x0,0
    48bc:	00000013          	addi	x0,x0,0
    48c0:	00017097          	auipc	x1,0x17
    48c4:	944080e7          	jalr	x1,-1724(x1) # 1b204 <rvmodel_io_write_str>
    48c8:	00005317          	auipc	x6,0x5
    48cc:	3c032303          	lw	x6,960(x6) # 9c88 <trap_diag_actual_offset>
    48d0:	00005397          	auipc	x7,0x5
    48d4:	3c03a383          	lw	x7,960(x7) # 9c90 <trap_diag_expected_offset>
    48d8:	40730333          	sub	x6,x6,x7
    48dc:	00235313          	srli	x6,x6,0x2
    48e0:	00006517          	auipc	x10,0x6
    48e4:	63050513          	addi	x10,x10,1584 # af10 <trap_diag_extra_bytes_str>
    48e8:	00000013          	addi	x0,x0,0
    48ec:	00000013          	addi	x0,x0,0
    48f0:	00000013          	addi	x0,x0,0
    48f4:	00000013          	addi	x0,x0,0
    48f8:	00000013          	addi	x0,x0,0
    48fc:	00000013          	addi	x0,x0,0
    4900:	00017097          	auipc	x1,0x17
    4904:	904080e7          	jalr	x1,-1788(x1) # 1b204 <rvmodel_io_write_str>
    4908:	00005317          	auipc	x6,0x5
    490c:	38032303          	lw	x6,896(x6) # 9c88 <trap_diag_actual_offset>
    4910:	00005397          	auipc	x7,0x5
    4914:	3803a383          	lw	x7,896(x7) # 9c90 <trap_diag_expected_offset>
    4918:	40730533          	sub	x10,x6,x7
    491c:	02000593          	addi	x11,x0,32
    4920:	4b9000ef          	jal	x1,55d8 <failedtest_hex_to_str>
    4924:	00000013          	addi	x0,x0,0
    4928:	00000013          	addi	x0,x0,0
    492c:	00000013          	addi	x0,x0,0
    4930:	00000013          	addi	x0,x0,0
    4934:	00000013          	addi	x0,x0,0
    4938:	00000013          	addi	x0,x0,0
    493c:	00000013          	addi	x0,x0,0
    4940:	00005517          	auipc	x10,0x5
    4944:	38850513          	addi	x10,x10,904 # 9cc8 <ascii_buffer>
    4948:	00000013          	addi	x0,x0,0
    494c:	00000013          	addi	x0,x0,0
    4950:	00000013          	addi	x0,x0,0
    4954:	00000013          	addi	x0,x0,0
    4958:	00000013          	addi	x0,x0,0
    495c:	00000013          	addi	x0,x0,0
    4960:	00017097          	auipc	x1,0x17
    4964:	8a4080e7          	jalr	x1,-1884(x1) # 1b204 <rvmodel_io_write_str>
    4968:	00000013          	addi	x0,x0,0
    496c:	00000013          	addi	x0,x0,0
    4970:	00000013          	addi	x0,x0,0
    4974:	00000013          	addi	x0,x0,0
    4978:	00000013          	addi	x0,x0,0
    497c:	00000013          	addi	x0,x0,0
    4980:	00006517          	auipc	x10,0x6
    4984:	5bb50513          	addi	x10,x10,1467 # af3b <trap_diag_extra_hint_str>
    4988:	00000013          	addi	x0,x0,0
    498c:	00000013          	addi	x0,x0,0
    4990:	00000013          	addi	x0,x0,0
    4994:	00000013          	addi	x0,x0,0
    4998:	00000013          	addi	x0,x0,0
    499c:	00000013          	addi	x0,x0,0
    49a0:	00017097          	auipc	x1,0x17
    49a4:	864080e7          	jalr	x1,-1948(x1) # 1b204 <rvmodel_io_write_str>
    49a8:	00001097          	auipc	x1,0x1
    49ac:	a28080e7          	jalr	x1,-1496(x1) # 53d0 <failedtest_print_csr_context>
    49b0:	1d50006f          	jal	x0,5384 <failedtest_report_end>

000049b4 <trap_report_missing_traps>:
    49b4:	00000013          	addi	x0,x0,0
    49b8:	00000013          	addi	x0,x0,0
    49bc:	00000013          	addi	x0,x0,0
    49c0:	00006517          	auipc	x10,0x6
    49c4:	50550513          	addi	x10,x10,1285 # aec5 <trap_diag_missing_traps_str>
    49c8:	00000013          	addi	x0,x0,0
    49cc:	00000013          	addi	x0,x0,0
    49d0:	00000013          	addi	x0,x0,0
    49d4:	00000013          	addi	x0,x0,0
    49d8:	00000013          	addi	x0,x0,0
    49dc:	00000013          	addi	x0,x0,0
    49e0:	00017097          	auipc	x1,0x17
    49e4:	824080e7          	jalr	x1,-2012(x1) # 1b204 <rvmodel_io_write_str>
    49e8:	00000013          	addi	x0,x0,0
    49ec:	00000013          	addi	x0,x0,0
    49f0:	00000013          	addi	x0,x0,0
    49f4:	00000013          	addi	x0,x0,0
    49f8:	00000013          	addi	x0,x0,0
    49fc:	00000013          	addi	x0,x0,0
    4a00:	00006517          	auipc	x10,0x6
    4a04:	51050513          	addi	x10,x10,1296 # af10 <trap_diag_extra_bytes_str>
    4a08:	00000013          	addi	x0,x0,0
    4a0c:	00000013          	addi	x0,x0,0
    4a10:	00000013          	addi	x0,x0,0
    4a14:	00000013          	addi	x0,x0,0
    4a18:	00000013          	addi	x0,x0,0
    4a1c:	00000013          	addi	x0,x0,0
    4a20:	00016097          	auipc	x1,0x16
    4a24:	7e4080e7          	jalr	x1,2020(x1) # 1b204 <rvmodel_io_write_str>
    4a28:	00005317          	auipc	x6,0x5
    4a2c:	26832303          	lw	x6,616(x6) # 9c90 <trap_diag_expected_offset>
    4a30:	00005397          	auipc	x7,0x5
    4a34:	2583a383          	lw	x7,600(x7) # 9c88 <trap_diag_actual_offset>
    4a38:	40730533          	sub	x10,x6,x7
    4a3c:	02000593          	addi	x11,x0,32
    4a40:	399000ef          	jal	x1,55d8 <failedtest_hex_to_str>
    4a44:	00000013          	addi	x0,x0,0
    4a48:	00000013          	addi	x0,x0,0
    4a4c:	00000013          	addi	x0,x0,0
    4a50:	00000013          	addi	x0,x0,0
    4a54:	00000013          	addi	x0,x0,0
    4a58:	00000013          	addi	x0,x0,0
    4a5c:	00000013          	addi	x0,x0,0
    4a60:	00005517          	auipc	x10,0x5
    4a64:	26850513          	addi	x10,x10,616 # 9cc8 <ascii_buffer>
    4a68:	00000013          	addi	x0,x0,0
    4a6c:	00000013          	addi	x0,x0,0
    4a70:	00000013          	addi	x0,x0,0
    4a74:	00000013          	addi	x0,x0,0
    4a78:	00000013          	addi	x0,x0,0
    4a7c:	00000013          	addi	x0,x0,0
    4a80:	00016097          	auipc	x1,0x16
    4a84:	784080e7          	jalr	x1,1924(x1) # 1b204 <rvmodel_io_write_str>
    4a88:	00000013          	addi	x0,x0,0
    4a8c:	00000013          	addi	x0,x0,0
    4a90:	00000013          	addi	x0,x0,0
    4a94:	00000013          	addi	x0,x0,0
    4a98:	00000013          	addi	x0,x0,0
    4a9c:	00000013          	addi	x0,x0,0
    4aa0:	00006517          	auipc	x10,0x6
    4aa4:	58350513          	addi	x10,x10,1411 # b023 <trap_diag_missing_hint_str>
    4aa8:	00000013          	addi	x0,x0,0
    4aac:	00000013          	addi	x0,x0,0
    4ab0:	00000013          	addi	x0,x0,0
    4ab4:	00000013          	addi	x0,x0,0
    4ab8:	00000013          	addi	x0,x0,0
    4abc:	00000013          	addi	x0,x0,0
    4ac0:	00016097          	auipc	x1,0x16
    4ac4:	744080e7          	jalr	x1,1860(x1) # 1b204 <rvmodel_io_write_str>
    4ac8:	00001097          	auipc	x1,0x1
    4acc:	908080e7          	jalr	x1,-1784(x1) # 53d0 <failedtest_print_csr_context>
    4ad0:	0b50006f          	jal	x0,5384 <failedtest_report_end>

00004ad4 <trap_report_field_mismatch>:
    4ad4:	00000013          	addi	x0,x0,0
    4ad8:	00000013          	addi	x0,x0,0
    4adc:	00000013          	addi	x0,x0,0
    4ae0:	00006517          	auipc	x10,0x6
    4ae4:	62a50513          	addi	x10,x10,1578 # b10a <trap_diag_handler_mode_str>
    4ae8:	00000013          	addi	x0,x0,0
    4aec:	00000013          	addi	x0,x0,0
    4af0:	00000013          	addi	x0,x0,0
    4af4:	00000013          	addi	x0,x0,0
    4af8:	00000013          	addi	x0,x0,0
    4afc:	00000013          	addi	x0,x0,0
    4b00:	00016097          	auipc	x1,0x16
    4b04:	704080e7          	jalr	x1,1796(x1) # 1b204 <rvmodel_io_write_str>
    4b08:	00005517          	auipc	x10,0x5
    4b0c:	16c52503          	lw	x10,364(x10) # 9c74 <trap_diag_mode>
    4b10:	04050a63          	beq	x10,x0,4b64 <trap_mode_m>
    4b14:	00100593          	addi	x11,x0,1
    4b18:	08b50663          	beq	x10,x11,4ba4 <trap_mode_s>
    4b1c:	00200593          	addi	x11,x0,2
    4b20:	0cb50263          	beq	x10,x11,4be4 <trap_mode_h>
    4b24:	00300593          	addi	x11,x0,3
    4b28:	0eb50e63          	beq	x10,x11,4c24 <trap_mode_v>
    4b2c:	00000013          	addi	x0,x0,0
    4b30:	00000013          	addi	x0,x0,0
    4b34:	00000013          	addi	x0,x0,0
    4b38:	00000013          	addi	x0,x0,0
    4b3c:	00000013          	addi	x0,x0,0
    4b40:	00006517          	auipc	x10,0x6
    4b44:	60650513          	addi	x10,x10,1542 # b146 <trap_diag_mode_unknown_str>
    4b48:	00000013          	addi	x0,x0,0
    4b4c:	00000013          	addi	x0,x0,0
    4b50:	00000013          	addi	x0,x0,0
    4b54:	00000013          	addi	x0,x0,0
    4b58:	00000013          	addi	x0,x0,0
    4b5c:	00000013          	addi	x0,x0,0
    4b60:	1000006f          	jal	x0,4c60 <trap_mode_print>

00004b64 <trap_mode_m>:
    4b64:	00000013          	addi	x0,x0,0
    4b68:	00000013          	addi	x0,x0,0
    4b6c:	00000013          	addi	x0,x0,0
    4b70:	00000013          	addi	x0,x0,0
    4b74:	00000013          	addi	x0,x0,0
    4b78:	00000013          	addi	x0,x0,0
    4b7c:	00000013          	addi	x0,x0,0
    4b80:	00006517          	auipc	x10,0x6
    4b84:	5a450513          	addi	x10,x10,1444 # b124 <trap_diag_mode_m_str>
    4b88:	00000013          	addi	x0,x0,0
    4b8c:	00000013          	addi	x0,x0,0
    4b90:	00000013          	addi	x0,x0,0
    4b94:	00000013          	addi	x0,x0,0
    4b98:	00000013          	addi	x0,x0,0
    4b9c:	00000013          	addi	x0,x0,0
    4ba0:	0c00006f          	jal	x0,4c60 <trap_mode_print>

00004ba4 <trap_mode_s>:
    4ba4:	00000013          	addi	x0,x0,0
    4ba8:	00000013          	addi	x0,x0,0
    4bac:	00000013          	addi	x0,x0,0
    4bb0:	00000013          	addi	x0,x0,0
    4bb4:	00000013          	addi	x0,x0,0
    4bb8:	00000013          	addi	x0,x0,0
    4bbc:	00000013          	addi	x0,x0,0
    4bc0:	00006517          	auipc	x10,0x6
    4bc4:	56c50513          	addi	x10,x10,1388 # b12c <trap_diag_mode_s_str>
    4bc8:	00000013          	addi	x0,x0,0
    4bcc:	00000013          	addi	x0,x0,0
    4bd0:	00000013          	addi	x0,x0,0
    4bd4:	00000013          	addi	x0,x0,0
    4bd8:	00000013          	addi	x0,x0,0
    4bdc:	00000013          	addi	x0,x0,0
    4be0:	0800006f          	jal	x0,4c60 <trap_mode_print>

00004be4 <trap_mode_h>:
    4be4:	00000013          	addi	x0,x0,0
    4be8:	00000013          	addi	x0,x0,0
    4bec:	00000013          	addi	x0,x0,0
    4bf0:	00000013          	addi	x0,x0,0
    4bf4:	00000013          	addi	x0,x0,0
    4bf8:	00000013          	addi	x0,x0,0
    4bfc:	00000013          	addi	x0,x0,0
    4c00:	00006517          	auipc	x10,0x6
    4c04:	53450513          	addi	x10,x10,1332 # b134 <trap_diag_mode_hs_str>
    4c08:	00000013          	addi	x0,x0,0
    4c0c:	00000013          	addi	x0,x0,0
    4c10:	00000013          	addi	x0,x0,0
    4c14:	00000013          	addi	x0,x0,0
    4c18:	00000013          	addi	x0,x0,0
    4c1c:	00000013          	addi	x0,x0,0
    4c20:	0400006f          	jal	x0,4c60 <trap_mode_print>

00004c24 <trap_mode_v>:
    4c24:	00000013          	addi	x0,x0,0
    4c28:	00000013          	addi	x0,x0,0
    4c2c:	00000013          	addi	x0,x0,0
    4c30:	00000013          	addi	x0,x0,0
    4c34:	00000013          	addi	x0,x0,0
    4c38:	00000013          	addi	x0,x0,0
    4c3c:	00000013          	addi	x0,x0,0
    4c40:	00006517          	auipc	x10,0x6
    4c44:	4fd50513          	addi	x10,x10,1277 # b13d <trap_diag_mode_vs_str>
    4c48:	00000013          	addi	x0,x0,0
    4c4c:	00000013          	addi	x0,x0,0
    4c50:	00000013          	addi	x0,x0,0
    4c54:	00000013          	addi	x0,x0,0
    4c58:	00000013          	addi	x0,x0,0
    4c5c:	00000013          	addi	x0,x0,0

00004c60 <trap_mode_print>:
    4c60:	00016097          	auipc	x1,0x16
    4c64:	5a4080e7          	jalr	x1,1444(x1) # 1b204 <rvmodel_io_write_str>
    4c68:	00000013          	addi	x0,x0,0
    4c6c:	00000013          	addi	x0,x0,0
    4c70:	00000013          	addi	x0,x0,0
    4c74:	00000013          	addi	x0,x0,0
    4c78:	00000013          	addi	x0,x0,0
    4c7c:	00000013          	addi	x0,x0,0
    4c80:	00006517          	auipc	x10,0x6
    4c84:	4cf50513          	addi	x10,x10,1231 # b14f <trap_diag_field_str>
    4c88:	00000013          	addi	x0,x0,0
    4c8c:	00000013          	addi	x0,x0,0
    4c90:	00000013          	addi	x0,x0,0
    4c94:	00000013          	addi	x0,x0,0
    4c98:	00000013          	addi	x0,x0,0
    4c9c:	00000013          	addi	x0,x0,0
    4ca0:	00016097          	auipc	x1,0x16
    4ca4:	564080e7          	jalr	x1,1380(x1) # 1b204 <rvmodel_io_write_str>
    4ca8:	00005517          	auipc	x10,0x5
    4cac:	fc852503          	lw	x10,-56(x10) # 9c70 <trap_diag_subtype>
    4cb0:	00100593          	addi	x11,x0,1
    4cb4:	06b50863          	beq	x10,x11,4d24 <trap_field_vect>
    4cb8:	00200593          	addi	x11,x0,2
    4cbc:	0ab50463          	beq	x10,x11,4d64 <trap_field_cause>
    4cc0:	00300593          	addi	x11,x0,3
    4cc4:	0eb50063          	beq	x10,x11,4da4 <trap_field_epc>
    4cc8:	00400593          	addi	x11,x0,4
    4ccc:	10b50c63          	beq	x10,x11,4de4 <trap_field_tval>
    4cd0:	00500593          	addi	x11,x0,5
    4cd4:	14b50863          	beq	x10,x11,4e24 <trap_field_ip>
    4cd8:	00600593          	addi	x11,x0,6
    4cdc:	18b50463          	beq	x10,x11,4e64 <trap_field_tval2>
    4ce0:	00700593          	addi	x11,x0,7
    4ce4:	1cb50063          	beq	x10,x11,4ea4 <trap_field_tinst>
    4ce8:	00800593          	addi	x11,x0,8
    4cec:	1eb50c63          	beq	x10,x11,4ee4 <trap_field_intid>
    4cf0:	00000013          	addi	x0,x0,0
    4cf4:	00000013          	addi	x0,x0,0
    4cf8:	00000013          	addi	x0,x0,0
    4cfc:	00000013          	addi	x0,x0,0
    4d00:	00006517          	auipc	x10,0x6
    4d04:	5a650513          	addi	x10,x10,1446 # b2a6 <trap_diag_field_unknown_str>
    4d08:	00000013          	addi	x0,x0,0
    4d0c:	00000013          	addi	x0,x0,0
    4d10:	00000013          	addi	x0,x0,0
    4d14:	00000013          	addi	x0,x0,0
    4d18:	00000013          	addi	x0,x0,0
    4d1c:	00000013          	addi	x0,x0,0
    4d20:	2000006f          	jal	x0,4f20 <trap_field_print>

00004d24 <trap_field_vect>:
    4d24:	00000013          	addi	x0,x0,0
    4d28:	00000013          	addi	x0,x0,0
    4d2c:	00000013          	addi	x0,x0,0
    4d30:	00000013          	addi	x0,x0,0
    4d34:	00000013          	addi	x0,x0,0
    4d38:	00000013          	addi	x0,x0,0
    4d3c:	00000013          	addi	x0,x0,0
    4d40:	00006517          	auipc	x10,0x6
    4d44:	42950513          	addi	x10,x10,1065 # b169 <trap_diag_field_vect_str>
    4d48:	00000013          	addi	x0,x0,0
    4d4c:	00000013          	addi	x0,x0,0
    4d50:	00000013          	addi	x0,x0,0
    4d54:	00000013          	addi	x0,x0,0
    4d58:	00000013          	addi	x0,x0,0
    4d5c:	00000013          	addi	x0,x0,0
    4d60:	1c00006f          	jal	x0,4f20 <trap_field_print>

00004d64 <trap_field_cause>:
    4d64:	00000013          	addi	x0,x0,0
    4d68:	00000013          	addi	x0,x0,0
    4d6c:	00000013          	addi	x0,x0,0
    4d70:	00000013          	addi	x0,x0,0
    4d74:	00000013          	addi	x0,x0,0
    4d78:	00000013          	addi	x0,x0,0
    4d7c:	00000013          	addi	x0,x0,0
    4d80:	00006517          	auipc	x10,0x6
    4d84:	41a50513          	addi	x10,x10,1050 # b19a <trap_diag_field_cause_str>
    4d88:	00000013          	addi	x0,x0,0
    4d8c:	00000013          	addi	x0,x0,0
    4d90:	00000013          	addi	x0,x0,0
    4d94:	00000013          	addi	x0,x0,0
    4d98:	00000013          	addi	x0,x0,0
    4d9c:	00000013          	addi	x0,x0,0
    4da0:	1800006f          	jal	x0,4f20 <trap_field_print>

00004da4 <trap_field_epc>:
    4da4:	00000013          	addi	x0,x0,0
    4da8:	00000013          	addi	x0,x0,0
    4dac:	00000013          	addi	x0,x0,0
    4db0:	00000013          	addi	x0,x0,0
    4db4:	00000013          	addi	x0,x0,0
    4db8:	00000013          	addi	x0,x0,0
    4dbc:	00000013          	addi	x0,x0,0
    4dc0:	00006517          	auipc	x10,0x6
    4dc4:	3fa50513          	addi	x10,x10,1018 # b1ba <trap_diag_field_epc_str>
    4dc8:	00000013          	addi	x0,x0,0
    4dcc:	00000013          	addi	x0,x0,0
    4dd0:	00000013          	addi	x0,x0,0
    4dd4:	00000013          	addi	x0,x0,0
    4dd8:	00000013          	addi	x0,x0,0
    4ddc:	00000013          	addi	x0,x0,0
    4de0:	1400006f          	jal	x0,4f20 <trap_field_print>

00004de4 <trap_field_tval>:
    4de4:	00000013          	addi	x0,x0,0
    4de8:	00000013          	addi	x0,x0,0
    4dec:	00000013          	addi	x0,x0,0
    4df0:	00000013          	addi	x0,x0,0
    4df4:	00000013          	addi	x0,x0,0
    4df8:	00000013          	addi	x0,x0,0
    4dfc:	00000013          	addi	x0,x0,0
    4e00:	00006517          	auipc	x10,0x6
    4e04:	3d850513          	addi	x10,x10,984 # b1d8 <trap_diag_field_tval_str>
    4e08:	00000013          	addi	x0,x0,0
    4e0c:	00000013          	addi	x0,x0,0
    4e10:	00000013          	addi	x0,x0,0
    4e14:	00000013          	addi	x0,x0,0
    4e18:	00000013          	addi	x0,x0,0
    4e1c:	00000013          	addi	x0,x0,0
    4e20:	1000006f          	jal	x0,4f20 <trap_field_print>

00004e24 <trap_field_ip>:
    4e24:	00000013          	addi	x0,x0,0
    4e28:	00000013          	addi	x0,x0,0
    4e2c:	00000013          	addi	x0,x0,0
    4e30:	00000013          	addi	x0,x0,0
    4e34:	00000013          	addi	x0,x0,0
    4e38:	00000013          	addi	x0,x0,0
    4e3c:	00000013          	addi	x0,x0,0
    4e40:	00006517          	auipc	x10,0x6
    4e44:	3b750513          	addi	x10,x10,951 # b1f7 <trap_diag_field_ip_str>
    4e48:	00000013          	addi	x0,x0,0
    4e4c:	00000013          	addi	x0,x0,0
    4e50:	00000013          	addi	x0,x0,0
    4e54:	00000013          	addi	x0,x0,0
    4e58:	00000013          	addi	x0,x0,0
    4e5c:	00000013          	addi	x0,x0,0
    4e60:	0c00006f          	jal	x0,4f20 <trap_field_print>

00004e64 <trap_field_tval2>:
    4e64:	00000013          	addi	x0,x0,0
    4e68:	00000013          	addi	x0,x0,0
    4e6c:	00000013          	addi	x0,x0,0
    4e70:	00000013          	addi	x0,x0,0
    4e74:	00000013          	addi	x0,x0,0
    4e78:	00000013          	addi	x0,x0,0
    4e7c:	00000013          	addi	x0,x0,0
    4e80:	00006517          	auipc	x10,0x6
    4e84:	39f50513          	addi	x10,x10,927 # b21f <trap_diag_field_tval2_str>
    4e88:	00000013          	addi	x0,x0,0
    4e8c:	00000013          	addi	x0,x0,0
    4e90:	00000013          	addi	x0,x0,0
    4e94:	00000013          	addi	x0,x0,0
    4e98:	00000013          	addi	x0,x0,0
    4e9c:	00000013          	addi	x0,x0,0
    4ea0:	0800006f          	jal	x0,4f20 <trap_field_print>

00004ea4 <trap_field_tinst>:
    4ea4:	00000013          	addi	x0,x0,0
    4ea8:	00000013          	addi	x0,x0,0
    4eac:	00000013          	addi	x0,x0,0
    4eb0:	00000013          	addi	x0,x0,0
    4eb4:	00000013          	addi	x0,x0,0
    4eb8:	00000013          	addi	x0,x0,0
    4ebc:	00000013          	addi	x0,x0,0
    4ec0:	00006517          	auipc	x10,0x6
    4ec4:	38b50513          	addi	x10,x10,907 # b24b <trap_diag_field_tinst_str>
    4ec8:	00000013          	addi	x0,x0,0
    4ecc:	00000013          	addi	x0,x0,0
    4ed0:	00000013          	addi	x0,x0,0
    4ed4:	00000013          	addi	x0,x0,0
    4ed8:	00000013          	addi	x0,x0,0
    4edc:	00000013          	addi	x0,x0,0
    4ee0:	0400006f          	jal	x0,4f20 <trap_field_print>

00004ee4 <trap_field_intid>:
    4ee4:	00000013          	addi	x0,x0,0
    4ee8:	00000013          	addi	x0,x0,0
    4eec:	00000013          	addi	x0,x0,0
    4ef0:	00000013          	addi	x0,x0,0
    4ef4:	00000013          	addi	x0,x0,0
    4ef8:	00000013          	addi	x0,x0,0
    4efc:	00000013          	addi	x0,x0,0
    4f00:	00006517          	auipc	x10,0x6
    4f04:	37750513          	addi	x10,x10,887 # b277 <trap_diag_field_intid_str>
    4f08:	00000013          	addi	x0,x0,0
    4f0c:	00000013          	addi	x0,x0,0
    4f10:	00000013          	addi	x0,x0,0
    4f14:	00000013          	addi	x0,x0,0
    4f18:	00000013          	addi	x0,x0,0
    4f1c:	00000013          	addi	x0,x0,0

00004f20 <trap_field_print>:
    4f20:	00016097          	auipc	x1,0x16
    4f24:	2e4080e7          	jalr	x1,740(x1) # 1b204 <rvmodel_io_write_str>
    4f28:	00000013          	addi	x0,x0,0
    4f2c:	00000013          	addi	x0,x0,0
    4f30:	00000013          	addi	x0,x0,0
    4f34:	00000013          	addi	x0,x0,0
    4f38:	00000013          	addi	x0,x0,0
    4f3c:	00000013          	addi	x0,x0,0
    4f40:	00006517          	auipc	x10,0x6
    4f44:	37550513          	addi	x10,x10,885 # b2b5 <trap_diag_expected_str>
    4f48:	00000013          	addi	x0,x0,0
    4f4c:	00000013          	addi	x0,x0,0
    4f50:	00000013          	addi	x0,x0,0
    4f54:	00000013          	addi	x0,x0,0
    4f58:	00000013          	addi	x0,x0,0
    4f5c:	00000013          	addi	x0,x0,0
    4f60:	00016097          	auipc	x1,0x16
    4f64:	2a4080e7          	jalr	x1,676(x1) # 1b204 <rvmodel_io_write_str>
    4f68:	00005517          	auipc	x10,0x5
    4f6c:	d1852503          	lw	x10,-744(x10) # 9c80 <trap_diag_expected_value>
    4f70:	02000593          	addi	x11,x0,32
    4f74:	664000ef          	jal	x1,55d8 <failedtest_hex_to_str>
    4f78:	00000013          	addi	x0,x0,0
    4f7c:	00000013          	addi	x0,x0,0
    4f80:	00005517          	auipc	x10,0x5
    4f84:	d4850513          	addi	x10,x10,-696 # 9cc8 <ascii_buffer>
    4f88:	00000013          	addi	x0,x0,0
    4f8c:	00000013          	addi	x0,x0,0
    4f90:	00000013          	addi	x0,x0,0
    4f94:	00000013          	addi	x0,x0,0
    4f98:	00000013          	addi	x0,x0,0
    4f9c:	00000013          	addi	x0,x0,0
    4fa0:	00016097          	auipc	x1,0x16
    4fa4:	264080e7          	jalr	x1,612(x1) # 1b204 <rvmodel_io_write_str>
    4fa8:	00000013          	addi	x0,x0,0
    4fac:	00000013          	addi	x0,x0,0
    4fb0:	00000013          	addi	x0,x0,0
    4fb4:	00000013          	addi	x0,x0,0
    4fb8:	00000013          	addi	x0,x0,0
    4fbc:	00000013          	addi	x0,x0,0
    4fc0:	00006517          	auipc	x10,0x6
    4fc4:	30c50513          	addi	x10,x10,780 # b2cc <trap_diag_actual_str>
    4fc8:	00000013          	addi	x0,x0,0
    4fcc:	00000013          	addi	x0,x0,0
    4fd0:	00000013          	addi	x0,x0,0
    4fd4:	00000013          	addi	x0,x0,0
    4fd8:	00000013          	addi	x0,x0,0
    4fdc:	00000013          	addi	x0,x0,0
    4fe0:	00016097          	auipc	x1,0x16
    4fe4:	224080e7          	jalr	x1,548(x1) # 1b204 <rvmodel_io_write_str>
    4fe8:	00005517          	auipc	x10,0x5
    4fec:	c9052503          	lw	x10,-880(x10) # 9c78 <trap_diag_actual_value>
    4ff0:	02000593          	addi	x11,x0,32
    4ff4:	5e4000ef          	jal	x1,55d8 <failedtest_hex_to_str>
    4ff8:	00000013          	addi	x0,x0,0
    4ffc:	00000013          	addi	x0,x0,0
    5000:	00005517          	auipc	x10,0x5
    5004:	cc850513          	addi	x10,x10,-824 # 9cc8 <ascii_buffer>
    5008:	00000013          	addi	x0,x0,0
    500c:	00000013          	addi	x0,x0,0
    5010:	00000013          	addi	x0,x0,0
    5014:	00000013          	addi	x0,x0,0
    5018:	00000013          	addi	x0,x0,0
    501c:	00000013          	addi	x0,x0,0
    5020:	00016097          	auipc	x1,0x16
    5024:	1e4080e7          	jalr	x1,484(x1) # 1b204 <rvmodel_io_write_str>
    5028:	00005517          	auipc	x10,0x5
    502c:	c4852503          	lw	x10,-952(x10) # 9c70 <trap_diag_subtype>
    5030:	00200593          	addi	x11,x0,2
    5034:	08b51463          	bne	x10,x11,50bc <trap_field_not_cause>
    5038:	00000013          	addi	x0,x0,0
    503c:	00000013          	addi	x0,x0,0
    5040:	00006517          	auipc	x10,0x6
    5044:	2a350513          	addi	x10,x10,675 # b2e3 <trap_diag_expected_cause_name_str>
    5048:	00000013          	addi	x0,x0,0
    504c:	00000013          	addi	x0,x0,0
    5050:	00000013          	addi	x0,x0,0
    5054:	00000013          	addi	x0,x0,0
    5058:	00000013          	addi	x0,x0,0
    505c:	00000013          	addi	x0,x0,0
    5060:	00016097          	auipc	x1,0x16
    5064:	1a4080e7          	jalr	x1,420(x1) # 1b204 <rvmodel_io_write_str>
    5068:	00005517          	auipc	x10,0x5
    506c:	c1852503          	lw	x10,-1000(x10) # 9c80 <trap_diag_expected_value>
    5070:	284000ef          	jal	x1,52f4 <trap_cause_to_str>
    5074:	00016097          	auipc	x1,0x16
    5078:	190080e7          	jalr	x1,400(x1) # 1b204 <rvmodel_io_write_str>
    507c:	00000013          	addi	x0,x0,0
    5080:	00006517          	auipc	x10,0x6
    5084:	27a50513          	addi	x10,x10,634 # b2fa <trap_diag_actual_cause_name_str>
    5088:	00000013          	addi	x0,x0,0
    508c:	00000013          	addi	x0,x0,0
    5090:	00000013          	addi	x0,x0,0
    5094:	00000013          	addi	x0,x0,0
    5098:	00000013          	addi	x0,x0,0
    509c:	00000013          	addi	x0,x0,0
    50a0:	00016097          	auipc	x1,0x16
    50a4:	164080e7          	jalr	x1,356(x1) # 1b204 <rvmodel_io_write_str>
    50a8:	00005517          	auipc	x10,0x5
    50ac:	bd052503          	lw	x10,-1072(x10) # 9c78 <trap_diag_actual_value>
    50b0:	244000ef          	jal	x1,52f4 <trap_cause_to_str>
    50b4:	00016097          	auipc	x1,0x16
    50b8:	150080e7          	jalr	x1,336(x1) # 1b204 <rvmodel_io_write_str>

000050bc <trap_field_not_cause>:
    50bc:	00000097          	auipc	x1,0x0
    50c0:	314080e7          	jalr	x1,788(x1) # 53d0 <failedtest_print_csr_context>
    50c4:	00005517          	auipc	x10,0x5
    50c8:	bac52503          	lw	x10,-1108(x10) # 9c70 <trap_diag_subtype>
    50cc:	00100593          	addi	x11,x0,1
    50d0:	02b51e63          	bne	x10,x11,510c <trap_field_not_cause+0x50>
    50d4:	00000013          	addi	x0,x0,0
    50d8:	00000013          	addi	x0,x0,0
    50dc:	00000013          	addi	x0,x0,0
    50e0:	00006517          	auipc	x10,0x6
    50e4:	29050513          	addi	x10,x10,656 # b370 <trap_diag_hint_vect_str>
    50e8:	00000013          	addi	x0,x0,0
    50ec:	00000013          	addi	x0,x0,0
    50f0:	00000013          	addi	x0,x0,0
    50f4:	00000013          	addi	x0,x0,0
    50f8:	00000013          	addi	x0,x0,0
    50fc:	00000013          	addi	x0,x0,0
    5100:	00016097          	auipc	x1,0x16
    5104:	104080e7          	jalr	x1,260(x1) # 1b204 <rvmodel_io_write_str>
    5108:	27c0006f          	jal	x0,5384 <failedtest_report_end>
    510c:	00200593          	addi	x11,x0,2
    5110:	02b51e63          	bne	x10,x11,514c <trap_field_not_cause+0x90>
    5114:	00000013          	addi	x0,x0,0
    5118:	00000013          	addi	x0,x0,0
    511c:	00000013          	addi	x0,x0,0
    5120:	00006517          	auipc	x10,0x6
    5124:	32650513          	addi	x10,x10,806 # b446 <trap_diag_hint_cause_str>
    5128:	00000013          	addi	x0,x0,0
    512c:	00000013          	addi	x0,x0,0
    5130:	00000013          	addi	x0,x0,0
    5134:	00000013          	addi	x0,x0,0
    5138:	00000013          	addi	x0,x0,0
    513c:	00000013          	addi	x0,x0,0
    5140:	00016097          	auipc	x1,0x16
    5144:	0c4080e7          	jalr	x1,196(x1) # 1b204 <rvmodel_io_write_str>
    5148:	23c0006f          	jal	x0,5384 <failedtest_report_end>
    514c:	00300593          	addi	x11,x0,3
    5150:	02b51e63          	bne	x10,x11,518c <trap_field_not_cause+0xd0>
    5154:	00000013          	addi	x0,x0,0
    5158:	00000013          	addi	x0,x0,0
    515c:	00000013          	addi	x0,x0,0
    5160:	00006517          	auipc	x10,0x6
    5164:	3d950513          	addi	x10,x10,985 # b539 <trap_diag_hint_epc_str>
    5168:	00000013          	addi	x0,x0,0
    516c:	00000013          	addi	x0,x0,0
    5170:	00000013          	addi	x0,x0,0
    5174:	00000013          	addi	x0,x0,0
    5178:	00000013          	addi	x0,x0,0
    517c:	00000013          	addi	x0,x0,0
    5180:	00016097          	auipc	x1,0x16
    5184:	084080e7          	jalr	x1,132(x1) # 1b204 <rvmodel_io_write_str>
    5188:	1fc0006f          	jal	x0,5384 <failedtest_report_end>
    518c:	00400593          	addi	x11,x0,4
    5190:	02b51e63          	bne	x10,x11,51cc <trap_field_not_cause+0x110>
    5194:	00000013          	addi	x0,x0,0
    5198:	00000013          	addi	x0,x0,0
    519c:	00000013          	addi	x0,x0,0
    51a0:	00006517          	auipc	x10,0x6
    51a4:	49450513          	addi	x10,x10,1172 # b634 <trap_diag_hint_tval_str>
    51a8:	00000013          	addi	x0,x0,0
    51ac:	00000013          	addi	x0,x0,0
    51b0:	00000013          	addi	x0,x0,0
    51b4:	00000013          	addi	x0,x0,0
    51b8:	00000013          	addi	x0,x0,0
    51bc:	00000013          	addi	x0,x0,0
    51c0:	00016097          	auipc	x1,0x16
    51c4:	044080e7          	jalr	x1,68(x1) # 1b204 <rvmodel_io_write_str>
    51c8:	1bc0006f          	jal	x0,5384 <failedtest_report_end>
    51cc:	00500593          	addi	x11,x0,5
    51d0:	02b51e63          	bne	x10,x11,520c <trap_field_not_cause+0x150>
    51d4:	00000013          	addi	x0,x0,0
    51d8:	00000013          	addi	x0,x0,0
    51dc:	00000013          	addi	x0,x0,0
    51e0:	00006517          	auipc	x10,0x6
    51e4:	53b50513          	addi	x10,x10,1339 # b71b <trap_diag_hint_ip_str>
    51e8:	00000013          	addi	x0,x0,0
    51ec:	00000013          	addi	x0,x0,0
    51f0:	00000013          	addi	x0,x0,0
    51f4:	00000013          	addi	x0,x0,0
    51f8:	00000013          	addi	x0,x0,0
    51fc:	00000013          	addi	x0,x0,0
    5200:	00016097          	auipc	x1,0x16
    5204:	004080e7          	jalr	x1,4(x1) # 1b204 <rvmodel_io_write_str>
    5208:	17c0006f          	jal	x0,5384 <failedtest_report_end>
    520c:	1780006f          	jal	x0,5384 <failedtest_report_end>

00005210 <trap_report_generic>:
    5210:	00000013          	addi	x0,x0,0
    5214:	00000013          	addi	x0,x0,0
    5218:	00000013          	addi	x0,x0,0
    521c:	00000013          	addi	x0,x0,0
    5220:	00006517          	auipc	x10,0x6
    5224:	10850513          	addi	x10,x10,264 # b328 <trap_diag_generic_str>
    5228:	00000013          	addi	x0,x0,0
    522c:	00000013          	addi	x0,x0,0
    5230:	00000013          	addi	x0,x0,0
    5234:	00000013          	addi	x0,x0,0
    5238:	00000013          	addi	x0,x0,0
    523c:	00000013          	addi	x0,x0,0
    5240:	00016097          	auipc	x1,0x16
    5244:	fc4080e7          	jalr	x1,-60(x1) # 1b204 <rvmodel_io_write_str>
    5248:	00005617          	auipc	x12,0x5
    524c:	a6062603          	lw	x12,-1440(x12) # 9ca8 <saved_mepc>
    5250:	00000013          	addi	x0,x0,0
    5254:	00000013          	addi	x0,x0,0
    5258:	00000013          	addi	x0,x0,0
    525c:	00000013          	addi	x0,x0,0
    5260:	00005517          	auipc	x10,0x5
    5264:	0ab50513          	addi	x10,x10,171 # a30b <xepcinstrstr>
    5268:	00000013          	addi	x0,x0,0
    526c:	00000013          	addi	x0,x0,0
    5270:	00000013          	addi	x0,x0,0
    5274:	00000013          	addi	x0,x0,0
    5278:	00000013          	addi	x0,x0,0
    527c:	00000013          	addi	x0,x0,0
    5280:	00016097          	auipc	x1,0x16
    5284:	f84080e7          	jalr	x1,-124(x1) # 1b204 <rvmodel_io_write_str>
    5288:	00065503          	lhu	x10,0(x12)
    528c:	01000593          	addi	x11,x0,16
    5290:	00357413          	andi	x8,x10,3
    5294:	00300493          	addi	x9,x0,3
    5298:	00941a63          	bne	x8,x9,52ac <trap_report_generic+0x9c>
    529c:	00265403          	lhu	x8,2(x12)
    52a0:	01041413          	slli	x8,x8,0x10
    52a4:	00856533          	or	x10,x10,x8
    52a8:	02000593          	addi	x11,x0,32
    52ac:	32c000ef          	jal	x1,55d8 <failedtest_hex_to_str>
    52b0:	00000013          	addi	x0,x0,0
    52b4:	00000013          	addi	x0,x0,0
    52b8:	00000013          	addi	x0,x0,0
    52bc:	00000013          	addi	x0,x0,0
    52c0:	00005517          	auipc	x10,0x5
    52c4:	a0850513          	addi	x10,x10,-1528 # 9cc8 <ascii_buffer>
    52c8:	00000013          	addi	x0,x0,0
    52cc:	00000013          	addi	x0,x0,0
    52d0:	00000013          	addi	x0,x0,0
    52d4:	00000013          	addi	x0,x0,0
    52d8:	00000013          	addi	x0,x0,0
    52dc:	00000013          	addi	x0,x0,0
    52e0:	00016097          	auipc	x1,0x16
    52e4:	f24080e7          	jalr	x1,-220(x1) # 1b204 <rvmodel_io_write_str>
    52e8:	00000097          	auipc	x1,0x0
    52ec:	0e8080e7          	jalr	x1,232(x1) # 53d0 <failedtest_print_csr_context>
    52f0:	0940006f          	jal	x0,5384 <failedtest_report_end>

000052f4 <trap_cause_to_str>:
    52f4:	02054263          	blt	x10,x0,5318 <trap_cause_interrupt>

000052f8 <trap_cause_exception>:
    52f8:	01800593          	addi	x11,x0,24
    52fc:	04b55463          	bge	x10,x11,5344 <trap_cause_unknown>
    5300:	00005597          	auipc	x11,0x5
    5304:	9f058593          	addi	x11,x11,-1552 # 9cf0 <end_failure_scratch>
    5308:	00251613          	slli	x12,x10,0x2
    530c:	00c585b3          	add	x11,x11,x12
    5310:	0005a503          	lw	x10,0(x11)
    5314:	00008067          	jalr	x0,0(x1)

00005318 <trap_cause_interrupt>:
    5318:	00100593          	addi	x11,x0,1
    531c:	01f59593          	slli	x11,x11,0x1f
    5320:	00b54533          	xor	x10,x10,x11
    5324:	01000593          	addi	x11,x0,16
    5328:	00b55e63          	bge	x10,x11,5344 <trap_cause_unknown>
    532c:	00005597          	auipc	x11,0x5
    5330:	a2458593          	addi	x11,x11,-1500 # 9d50 <trap_int_name_tbl>
    5334:	00251613          	slli	x12,x10,0x2
    5338:	00c585b3          	add	x11,x11,x12
    533c:	0005a503          	lw	x10,0(x11)
    5340:	00008067          	jalr	x0,0(x1)

00005344 <trap_cause_unknown>:
    5344:	00000013          	addi	x0,x0,0
    5348:	00000013          	addi	x0,x0,0
    534c:	00000013          	addi	x0,x0,0
    5350:	00000013          	addi	x0,x0,0
    5354:	00000013          	addi	x0,x0,0
    5358:	00000013          	addi	x0,x0,0
    535c:	00000013          	addi	x0,x0,0
    5360:	00005517          	auipc	x10,0x5
    5364:	e2e50513          	addi	x10,x10,-466 # a18e <trap_cause_unknown_str>
    5368:	00000013          	addi	x0,x0,0
    536c:	00000013          	addi	x0,x0,0
    5370:	00000013          	addi	x0,x0,0
    5374:	00000013          	addi	x0,x0,0
    5378:	00000013          	addi	x0,x0,0
    537c:	00000013          	addi	x0,x0,0
    5380:	00008067          	jalr	x0,0(x1)

00005384 <failedtest_report_end>:
    5384:	00000013          	addi	x0,x0,0
    5388:	00000013          	addi	x0,x0,0
    538c:	00000013          	addi	x0,x0,0
    5390:	00000013          	addi	x0,x0,0
    5394:	00000013          	addi	x0,x0,0
    5398:	00000013          	addi	x0,x0,0
    539c:	00000013          	addi	x0,x0,0
    53a0:	00006517          	auipc	x10,0x6
    53a4:	9b350513          	addi	x10,x10,-1613 # ad53 <endstr>
    53a8:	00000013          	addi	x0,x0,0
    53ac:	00000013          	addi	x0,x0,0
    53b0:	00000013          	addi	x0,x0,0
    53b4:	00000013          	addi	x0,x0,0
    53b8:	00000013          	addi	x0,x0,0
    53bc:	00000013          	addi	x0,x0,0
    53c0:	00016097          	auipc	x1,0x16
    53c4:	e44080e7          	jalr	x1,-444(x1) # 1b204 <rvmodel_io_write_str>

000053c8 <failedtest_terminate>:
    53c8:	00016097          	auipc	x1,0x16
    53cc:	e4c080e7          	jalr	x1,-436(x1) # 1b214 <rvmodel_halt_fail>

000053d0 <failedtest_print_csr_context>:
    53d0:	00005617          	auipc	x12,0x5
    53d4:	8d060613          	addi	x12,x12,-1840 # 9ca0 <csr_context_ret_addr>
    53d8:	00162023          	sw	x1,0(x12)
    53dc:	00000013          	addi	x0,x0,0
    53e0:	00005517          	auipc	x10,0x5
    53e4:	f4c50513          	addi	x10,x10,-180 # a32c <mepcstr>
    53e8:	00000013          	addi	x0,x0,0
    53ec:	00000013          	addi	x0,x0,0
    53f0:	00000013          	addi	x0,x0,0
    53f4:	00000013          	addi	x0,x0,0
    53f8:	00000013          	addi	x0,x0,0
    53fc:	00000013          	addi	x0,x0,0
    5400:	00016097          	auipc	x1,0x16
    5404:	e04080e7          	jalr	x1,-508(x1) # 1b204 <rvmodel_io_write_str>
    5408:	00005517          	auipc	x10,0x5
    540c:	8a052503          	lw	x10,-1888(x10) # 9ca8 <saved_mepc>
    5410:	02000593          	addi	x11,x0,32
    5414:	1c4000ef          	jal	x1,55d8 <failedtest_hex_to_str>
    5418:	00000013          	addi	x0,x0,0
    541c:	00000013          	addi	x0,x0,0
    5420:	00005517          	auipc	x10,0x5
    5424:	8a850513          	addi	x10,x10,-1880 # 9cc8 <ascii_buffer>
    5428:	00000013          	addi	x0,x0,0
    542c:	00000013          	addi	x0,x0,0
    5430:	00000013          	addi	x0,x0,0
    5434:	00000013          	addi	x0,x0,0
    5438:	00000013          	addi	x0,x0,0
    543c:	00000013          	addi	x0,x0,0
    5440:	00016097          	auipc	x1,0x16
    5444:	dc4080e7          	jalr	x1,-572(x1) # 1b204 <rvmodel_io_write_str>
    5448:	00000013          	addi	x0,x0,0
    544c:	00000013          	addi	x0,x0,0
    5450:	00000013          	addi	x0,x0,0
    5454:	00000013          	addi	x0,x0,0
    5458:	00000013          	addi	x0,x0,0
    545c:	00000013          	addi	x0,x0,0
    5460:	00005517          	auipc	x10,0x5
    5464:	edc50513          	addi	x10,x10,-292 # a33c <mcausestr>
    5468:	00000013          	addi	x0,x0,0
    546c:	00000013          	addi	x0,x0,0
    5470:	00000013          	addi	x0,x0,0
    5474:	00000013          	addi	x0,x0,0
    5478:	00000013          	addi	x0,x0,0
    547c:	00000013          	addi	x0,x0,0
    5480:	00016097          	auipc	x1,0x16
    5484:	d84080e7          	jalr	x1,-636(x1) # 1b204 <rvmodel_io_write_str>
    5488:	00005517          	auipc	x10,0x5
    548c:	82852503          	lw	x10,-2008(x10) # 9cb0 <saved_mcause>
    5490:	02000593          	addi	x11,x0,32
    5494:	144000ef          	jal	x1,55d8 <failedtest_hex_to_str>
    5498:	00000013          	addi	x0,x0,0
    549c:	00000013          	addi	x0,x0,0
    54a0:	00005517          	auipc	x10,0x5
    54a4:	82850513          	addi	x10,x10,-2008 # 9cc8 <ascii_buffer>
    54a8:	00000013          	addi	x0,x0,0
    54ac:	00000013          	addi	x0,x0,0
    54b0:	00000013          	addi	x0,x0,0
    54b4:	00000013          	addi	x0,x0,0
    54b8:	00000013          	addi	x0,x0,0
    54bc:	00000013          	addi	x0,x0,0
    54c0:	00016097          	auipc	x1,0x16
    54c4:	d44080e7          	jalr	x1,-700(x1) # 1b204 <rvmodel_io_write_str>
    54c8:	00000013          	addi	x0,x0,0
    54cc:	00000013          	addi	x0,x0,0
    54d0:	00000013          	addi	x0,x0,0
    54d4:	00000013          	addi	x0,x0,0
    54d8:	00000013          	addi	x0,x0,0
    54dc:	00000013          	addi	x0,x0,0
    54e0:	00005517          	auipc	x10,0x5
    54e4:	e6c50513          	addi	x10,x10,-404 # a34c <mtvalstr>
    54e8:	00000013          	addi	x0,x0,0
    54ec:	00000013          	addi	x0,x0,0
    54f0:	00000013          	addi	x0,x0,0
    54f4:	00000013          	addi	x0,x0,0
    54f8:	00000013          	addi	x0,x0,0
    54fc:	00000013          	addi	x0,x0,0
    5500:	00016097          	auipc	x1,0x16
    5504:	d04080e7          	jalr	x1,-764(x1) # 1b204 <rvmodel_io_write_str>
    5508:	00004517          	auipc	x10,0x4
    550c:	7b052503          	lw	x10,1968(x10) # 9cb8 <saved_mtval>
    5510:	02000593          	addi	x11,x0,32
    5514:	0c4000ef          	jal	x1,55d8 <failedtest_hex_to_str>
    5518:	00000013          	addi	x0,x0,0
    551c:	00000013          	addi	x0,x0,0
    5520:	00004517          	auipc	x10,0x4
    5524:	7a850513          	addi	x10,x10,1960 # 9cc8 <ascii_buffer>
    5528:	00000013          	addi	x0,x0,0
    552c:	00000013          	addi	x0,x0,0
    5530:	00000013          	addi	x0,x0,0
    5534:	00000013          	addi	x0,x0,0
    5538:	00000013          	addi	x0,x0,0
    553c:	00000013          	addi	x0,x0,0
    5540:	00016097          	auipc	x1,0x16
    5544:	cc4080e7          	jalr	x1,-828(x1) # 1b204 <rvmodel_io_write_str>
    5548:	00000013          	addi	x0,x0,0
    554c:	00000013          	addi	x0,x0,0
    5550:	00000013          	addi	x0,x0,0
    5554:	00000013          	addi	x0,x0,0
    5558:	00000013          	addi	x0,x0,0
    555c:	00000013          	addi	x0,x0,0
    5560:	00005517          	auipc	x10,0x5
    5564:	dfc50513          	addi	x10,x10,-516 # a35c <mstatusstr>
    5568:	00000013          	addi	x0,x0,0
    556c:	00000013          	addi	x0,x0,0
    5570:	00000013          	addi	x0,x0,0
    5574:	00000013          	addi	x0,x0,0
    5578:	00000013          	addi	x0,x0,0
    557c:	00000013          	addi	x0,x0,0
    5580:	00016097          	auipc	x1,0x16
    5584:	c84080e7          	jalr	x1,-892(x1) # 1b204 <rvmodel_io_write_str>
    5588:	00004517          	auipc	x10,0x4
    558c:	73852503          	lw	x10,1848(x10) # 9cc0 <saved_mstatus>
    5590:	02000593          	addi	x11,x0,32
    5594:	044000ef          	jal	x1,55d8 <failedtest_hex_to_str>
    5598:	00000013          	addi	x0,x0,0
    559c:	00000013          	addi	x0,x0,0
    55a0:	00004517          	auipc	x10,0x4
    55a4:	72850513          	addi	x10,x10,1832 # 9cc8 <ascii_buffer>
    55a8:	00000013          	addi	x0,x0,0
    55ac:	00000013          	addi	x0,x0,0
    55b0:	00000013          	addi	x0,x0,0
    55b4:	00000013          	addi	x0,x0,0
    55b8:	00000013          	addi	x0,x0,0
    55bc:	00000013          	addi	x0,x0,0
    55c0:	00016097          	auipc	x1,0x16
    55c4:	c44080e7          	jalr	x1,-956(x1) # 1b204 <rvmodel_io_write_str>
    55c8:	00004617          	auipc	x12,0x4
    55cc:	6d860613          	addi	x12,x12,1752 # 9ca0 <csr_context_ret_addr>
    55d0:	00062083          	lw	x1,0(x12)
    55d4:	00008067          	jalr	x0,0(x1)

000055d8 <failedtest_hex_to_str>:
    55d8:	00000013          	addi	x0,x0,0
    55dc:	00000013          	addi	x0,x0,0
    55e0:	00004617          	auipc	x12,0x4
    55e4:	6e860613          	addi	x12,x12,1768 # 9cc8 <ascii_buffer>
    55e8:	00000013          	addi	x0,x0,0
    55ec:	00000013          	addi	x0,x0,0
    55f0:	00000013          	addi	x0,x0,0
    55f4:	00000013          	addi	x0,x0,0
    55f8:	00000013          	addi	x0,x0,0
    55fc:	00000013          	addi	x0,x0,0
    5600:	03000693          	addi	x13,x0,48
    5604:	00d60023          	sb	x13,0(x12)
    5608:	07800693          	addi	x13,x0,120
    560c:	00d600a3          	sb	x13,1(x12)
    5610:	00260613          	addi	x12,x12,2
    5614:	00058693          	addi	x13,x11,0

00005618 <failedtest_hex_to_str_loop>:
    5618:	ffc68693          	addi	x13,x13,-4
    561c:	00d55733          	srl	x14,x10,x13
    5620:	00f77713          	andi	x14,x14,15
    5624:	00a00793          	addi	x15,x0,10
    5628:	00f74663          	blt	x14,x15,5634 <failedtest_hex_to_str_digit>
    562c:	05770713          	addi	x14,x14,87
    5630:	0080006f          	jal	x0,5638 <failedtest_hex_to_str_write>

00005634 <failedtest_hex_to_str_digit>:
    5634:	03070713          	addi	x14,x14,48

00005638 <failedtest_hex_to_str_write>:
    5638:	00e60023          	sb	x14,0(x12)
    563c:	00160613          	addi	x12,x12,1
    5640:	fc069ce3          	bne	x13,x0,5618 <failedtest_hex_to_str_loop>
    5644:	00a00693          	addi	x13,x0,10
    5648:	00d60023          	sb	x13,0(x12)
    564c:	000600a3          	sb	x0,1(x12)
    5650:	00008067          	jalr	x0,0(x1)

00005654 <failedtest_dec_to_str>:
    5654:	00a00693          	addi	x13,x0,10
    5658:	02d54663          	blt	x10,x13,5684 <failedtest_dec_to_str+0x30>
    565c:	ff650513          	addi	x10,x10,-10
    5660:	03100713          	addi	x14,x0,49
    5664:	00d54c63          	blt	x10,x13,567c <failedtest_dec_to_str+0x28>
    5668:	ff650513          	addi	x10,x10,-10
    566c:	03200713          	addi	x14,x0,50
    5670:	00d54663          	blt	x10,x13,567c <failedtest_dec_to_str+0x28>
    5674:	ff650513          	addi	x10,x10,-10
    5678:	03300713          	addi	x14,x0,51
    567c:	00e60023          	sb	x14,0(x12)
    5680:	00160613          	addi	x12,x12,1
    5684:	03050513          	addi	x10,x10,48
    5688:	00a60023          	sb	x10,0(x12)
    568c:	00a00693          	addi	x13,x0,10
    5690:	00d600a3          	sb	x13,1(x12)
    5694:	00060123          	sb	x0,2(x12)
    5698:	00008067          	jalr	x0,0(x1)
    569c:	00000013          	addi	x0,x0,0

Disassembly of section .text.rvmodel:

0001b000 <rvmodel_boot>:
   1b000:	feedc0b7          	lui	x1,0xfeedc
   1b004:	ead08093          	addi	x1,x1,-339 # feedbead <absimm+0x8f911ba4>
   1b008:	01909793          	slli	x15,x1,0x19
   1b00c:	0070d113          	srli	x2,x1,0x7
   1b010:	00f16133          	or	x2,x2,x15
   1b014:	01911793          	slli	x15,x2,0x19
   1b018:	00715193          	srli	x3,x2,0x7
   1b01c:	00f1e1b3          	or	x3,x3,x15
   1b020:	01919793          	slli	x15,x3,0x19
   1b024:	0071d213          	srli	x4,x3,0x7
   1b028:	00f26233          	or	x4,x4,x15
   1b02c:	01921793          	slli	x15,x4,0x19
   1b030:	00725293          	srli	x5,x4,0x7
   1b034:	00f2e2b3          	or	x5,x5,x15
   1b038:	01929793          	slli	x15,x5,0x19
   1b03c:	0072d313          	srli	x6,x5,0x7
   1b040:	00f36333          	or	x6,x6,x15
   1b044:	01931793          	slli	x15,x6,0x19
   1b048:	00735393          	srli	x7,x6,0x7
   1b04c:	00f3e3b3          	or	x7,x7,x15
   1b050:	01939793          	slli	x15,x7,0x19
   1b054:	0073d413          	srli	x8,x7,0x7
   1b058:	00f46433          	or	x8,x8,x15
   1b05c:	01941793          	slli	x15,x8,0x19
   1b060:	00745493          	srli	x9,x8,0x7
   1b064:	00f4e4b3          	or	x9,x9,x15
   1b068:	01949793          	slli	x15,x9,0x19
   1b06c:	0074d513          	srli	x10,x9,0x7
   1b070:	00f56533          	or	x10,x10,x15
   1b074:	01951793          	slli	x15,x10,0x19
   1b078:	00755593          	srli	x11,x10,0x7
   1b07c:	00f5e5b3          	or	x11,x11,x15
   1b080:	01959793          	slli	x15,x11,0x19
   1b084:	0075d613          	srli	x12,x11,0x7
   1b088:	00f66633          	or	x12,x12,x15
   1b08c:	01961793          	slli	x15,x12,0x19
   1b090:	00765693          	srli	x13,x12,0x7
   1b094:	00f6e6b3          	or	x13,x13,x15
   1b098:	01969793          	slli	x15,x13,0x19
   1b09c:	0076d713          	srli	x14,x13,0x7
   1b0a0:	00f76733          	or	x14,x14,x15
   1b0a4:	fab807b7          	lui	x15,0xfab80
   1b0a8:	bb678793          	addi	x15,x15,-1098 # fab7fbb6 <absimm+0x8b5b58ad>
   1b0ac:	7d5c0837          	lui	x16,0x7d5c0
   1b0b0:	ddb80813          	addi	x16,x16,-549 # 7d5bfddb <absimm+0xdff5ad2>
   1b0b4:	01981793          	slli	x15,x16,0x19
   1b0b8:	00785893          	srli	x17,x16,0x7
   1b0bc:	00f8e8b3          	or	x17,x17,x15
   1b0c0:	01989793          	slli	x15,x17,0x19
   1b0c4:	0078d913          	srli	x18,x17,0x7
   1b0c8:	00f96933          	or	x18,x18,x15
   1b0cc:	01991793          	slli	x15,x18,0x19
   1b0d0:	00795993          	srli	x19,x18,0x7
   1b0d4:	00f9e9b3          	or	x19,x19,x15
   1b0d8:	01999793          	slli	x15,x19,0x19
   1b0dc:	0079da13          	srli	x20,x19,0x7
   1b0e0:	00fa6a33          	or	x20,x20,x15
   1b0e4:	019a1793          	slli	x15,x20,0x19
   1b0e8:	007a5a93          	srli	x21,x20,0x7
   1b0ec:	00faeab3          	or	x21,x21,x15
   1b0f0:	019a9793          	slli	x15,x21,0x19
   1b0f4:	007adb13          	srli	x22,x21,0x7
   1b0f8:	00fb6b33          	or	x22,x22,x15
   1b0fc:	019b1793          	slli	x15,x22,0x19
   1b100:	007b5b93          	srli	x23,x22,0x7
   1b104:	00fbebb3          	or	x23,x23,x15
   1b108:	019b9793          	slli	x15,x23,0x19
   1b10c:	007bdc13          	srli	x24,x23,0x7
   1b110:	00fc6c33          	or	x24,x24,x15
   1b114:	019c1793          	slli	x15,x24,0x19
   1b118:	007c5c93          	srli	x25,x24,0x7
   1b11c:	00fcecb3          	or	x25,x25,x15
   1b120:	019c9793          	slli	x15,x25,0x19
   1b124:	007cdd13          	srli	x26,x25,0x7
   1b128:	00fd6d33          	or	x26,x26,x15
   1b12c:	019d1793          	slli	x15,x26,0x19
   1b130:	007d5d93          	srli	x27,x26,0x7
   1b134:	00fdedb3          	or	x27,x27,x15
   1b138:	019d9793          	slli	x15,x27,0x19
   1b13c:	007dde13          	srli	x28,x27,0x7
   1b140:	00fe6e33          	or	x28,x28,x15
   1b144:	019e1793          	slli	x15,x28,0x19
   1b148:	007e5e93          	srli	x29,x28,0x7
   1b14c:	00feeeb3          	or	x29,x29,x15
   1b150:	019e9793          	slli	x15,x29,0x19
   1b154:	007edf13          	srli	x30,x29,0x7
   1b158:	00ff6f33          	or	x30,x30,x15
   1b15c:	019f1793          	slli	x15,x30,0x19
   1b160:	007f5f93          	srli	x31,x30,0x7
   1b164:	00ffefb3          	or	x31,x31,x15
   1b168:	00000013          	addi	x0,x0,0
   1b16c:	00000013          	addi	x0,x0,0
   1b170:	00000013          	addi	x0,x0,0
   1b174:	00000013          	addi	x0,x0,0
   1b178:	00000013          	addi	x0,x0,0
   1b17c:	00000013          	addi	x0,x0,0
   1b180:	ffff0117          	auipc	x2,0xffff0
   1b184:	68010113          	addi	x2,x2,1664 # b800 <begin_signature>
   1b188:	00000013          	addi	x0,x0,0
   1b18c:	00000013          	addi	x0,x0,0
   1b190:	00000013          	addi	x0,x0,0
   1b194:	00000013          	addi	x0,x0,0
   1b198:	00000013          	addi	x0,x0,0
   1b19c:	00000013          	addi	x0,x0,0

0001b1a0 <canary_check>:
   1b1a0:	6f5ca337          	lui	x6,0x6f5ca
   1b1a4:	30930313          	addi	x6,x6,777 # 6f5ca309 <absimm>
   1b1a8:	00012203          	lw	x4,0(x2)
   1b1ac:	00620863          	beq	x4,x6,1b1bc <canary_check+0x1c>
   1b1b0:	a6de82ef          	jal	x5,3c1c <failedtest_x5_x4>
   1b1b4:	0001b1a0          	.word	0x0001b1a0
   1b1b8:	0000ad7c          	.word	0x0000ad7c
   1b1bc:	00410113          	addi	x2,x2,4
   1b1c0:	fffed197          	auipc	x3,0xfffed
   1b1c4:	f5018193          	addi	x3,x3,-176 # 8110 <rvtest_data_begin>
   1b1c8:	00000013          	addi	x0,x0,0
   1b1cc:	00000013          	addi	x0,x0,0
   1b1d0:	00000013          	addi	x0,x0,0
   1b1d4:	00000013          	addi	x0,x0,0
   1b1d8:	00000013          	addi	x0,x0,0
   1b1dc:	00000013          	addi	x0,x0,0
   1b1e0:	fffe5317          	auipc	x6,0xfffe5
   1b1e4:	e6030313          	addi	x6,x6,-416 # 40 <rvtest_code_begin>
   1b1e8:	00000013          	addi	x0,x0,0
   1b1ec:	00000013          	addi	x0,x0,0
   1b1f0:	00000013          	addi	x0,x0,0
   1b1f4:	00000013          	addi	x0,x0,0
   1b1f8:	00000013          	addi	x0,x0,0
   1b1fc:	00000013          	addi	x0,x0,0
   1b200:	00030067          	jalr	x0,0(x6)

0001b204 <rvmodel_io_write_str>:
   1b204:	00008067          	jalr	x0,0(x1)

0001b208 <rvmodel_halt_pass>:
   1b208:	00000513          	addi	x10,x0,0
   1b20c:	00000073          	ecall
   1b210:	0000006f          	jal	x0,1b210 <rvmodel_halt_pass+0x8>

0001b214 <rvmodel_halt_fail>:
   1b214:	00100513          	addi	x10,x0,1
   1b218:	00000073          	ecall
   1b21c:	0000006f          	jal	x0,1b21c <rvmodel_halt_fail+0x8>
   1b220:	00000013          	addi	x0,x0,0
   1b224:	00000013          	addi	x0,x0,0
   1b228:	00000013          	addi	x0,x0,0
   1b22c:	00000013          	addi	x0,x0,0
   1b230:	00000013          	addi	x0,x0,0
   1b234:	00000013          	addi	x0,x0,0
   1b238:	00000013          	addi	x0,x0,0
   1b23c:	00000013          	addi	x0,x0,0
