
/home/dev/github/clones/riscv-arch-test/work/rv32i-core/elfs/rv32i/I/I-lbu-00.elf:     file format elf32-littleriscv
/home/dev/github/clones/riscv-arch-test/work/rv32i-core/elfs/rv32i/I/I-lbu-00.elf
architecture: riscv:rv32, flags 0x00000112:
EXEC_P, HAS_SYMS, D_PAGED
start address 0x00000000

Program Header:
0x70000003 off    0x00017240 vaddr 0x00000000 paddr 0x00000000 align 2**0
         filesz 0x00000033 memsz 0x00000000 flags r--
    LOAD off    0x00001000 vaddr 0x00000000 paddr 0x00000000 align 2**12
         filesz 0x00002f40 memsz 0x00002f40 flags r-x
    LOAD off    0x00004000 vaddr 0x00004000 paddr 0x00004000 align 2**12
         filesz 0x00013240 memsz 0x00013240 flags rwx

Sections:
Idx Name          Size      VMA       LMA       File off  Algn
  0 .text.init    00000040  00000000  00000000  00001000  2**5
                  CONTENTS, ALLOC, LOAD, READONLY, CODE
  1 .text.rvtest  00002f00  00000040  00000040  00001040  2**5
                  CONTENTS, ALLOC, LOAD, READONLY, CODE
  2 .data         000125f0  00004000  00004000  00004000  2**8
                  CONTENTS, ALLOC, LOAD, DATA
  3 .text.rvmodel 00000240  00017000  00017000  00017000  2**5
                  CONTENTS, ALLOC, LOAD, READONLY, CODE
  4 .riscv.attributes 00000033  00000000  00000000  00017240  2**0
                  CONTENTS, READONLY
  5 .debug_line   00000d56  00000000  00000000  00017273  2**0
                  CONTENTS, READONLY, DEBUGGING, OCTETS
  6 .debug_line_str 00000069  00000000  00000000  00017fc9  2**0
                  CONTENTS, READONLY, DEBUGGING, OCTETS
  7 .debug_info   00000023  00000000  00000000  00018032  2**0
                  CONTENTS, READONLY, DEBUGGING, OCTETS
  8 .debug_abbrev 00000012  00000000  00000000  00018055  2**0
                  CONTENTS, READONLY, DEBUGGING, OCTETS
  9 .debug_aranges 00000028  00000000  00000000  00018068  2**3
                  CONTENTS, READONLY, DEBUGGING, OCTETS
 10 .debug_str    00000075  00000000  00000000  00018090  2**0
                  CONTENTS, READONLY, DEBUGGING, OCTETS
 11 .debug_rnglists 0000001a  00000000  00000000  00018105  2**0
                  CONTENTS, READONLY, DEBUGGING, OCTETS
SYMBOL TABLE:
00000000 l    d  .text.init	00000000 .text.init
00000040 l    d  .text.rvtest	00000000 .text.rvtest
00004000 l    d  .data	00000000 .data
00017000 l    d  .text.rvmodel	00000000 .text.rvmodel
00000000 l    d  .riscv.attributes	00000000 .riscv.attributes
00000000 l    d  .debug_line	00000000 .debug_line
00000000 l    d  .debug_line_str	00000000 .debug_line_str
00000000 l    d  .debug_info	00000000 .debug_info
00000000 l    d  .debug_abbrev	00000000 .debug_abbrev
00000000 l    d  .debug_aranges	00000000 .debug_aranges
00000000 l    d  .debug_str	00000000 .debug_str
00000000 l    d  .debug_rnglists	00000000 .debug_rnglists
00000000 l    df *ABS*	00000000 ccWSX4XB.o
00000003 l       *ABS*	00000000 MMODE_SIG
00000001 l       *ABS*	00000000 SMODE_SIG
00000001 l       *ABS*	00000000 HMODE_SIG
00000002 l       *ABS*	00000000 VMODE_SIG
00017000 l       .text.rvmodel	00000000 rvmodel_boot
00000044 l       .text.rvtest	00000000 I_lbu_cg_cp_rs1_nx0_b1
000014bc l       .text.rvtest	00000000 failedtest_x5_x4
0000430c l       .data	00000000 I_lbu_cg_cp_rs1_nx0_b1_str
0000006c l       .text.rvtest	00000000 I_lbu_cg_cp_rs1_nx0_b2
0000433d l       .data	00000000 I_lbu_cg_cp_rs1_nx0_b2_str
00000094 l       .text.rvtest	00000000 I_lbu_cg_cp_rs1_nx0_b3
0000436e l       .data	00000000 I_lbu_cg_cp_rs1_nx0_b3_str
000000c0 l       .text.rvtest	00000000 I_lbu_cg_cp_rs1_nx0_b4
000014d4 l       .text.rvtest	00000000 failedtest_x8_x7
0000439f l       .data	00000000 I_lbu_cg_cp_rs1_nx0_b4_str
000000e4 l       .text.rvtest	00000000 I_lbu_cg_cp_rs1_nx0_b5
000043d0 l       .data	00000000 I_lbu_cg_cp_rs1_nx0_b5_str
00000108 l       .text.rvtest	00000000 I_lbu_cg_cp_rs1_nx0_b6
00004401 l       .data	00000000 I_lbu_cg_cp_rs1_nx0_b6_str
00000134 l       .text.rvtest	00000000 I_lbu_cg_cp_rs1_nx0_b7
000014fc l       .text.rvtest	00000000 failedtest_x14_x13
00004432 l       .data	00000000 I_lbu_cg_cp_rs1_nx0_b7_str
00000158 l       .text.rvtest	00000000 I_lbu_cg_cp_rs1_nx0_b8
00004463 l       .data	00000000 I_lbu_cg_cp_rs1_nx0_b8_str
0000017c l       .text.rvtest	00000000 I_lbu_cg_cp_rs1_nx0_b9
00004494 l       .data	00000000 I_lbu_cg_cp_rs1_nx0_b9_str
000001a0 l       .text.rvtest	00000000 I_lbu_cg_cp_rs1_nx0_b10
000044c5 l       .data	00000000 I_lbu_cg_cp_rs1_nx0_b10_str
000001c4 l       .text.rvtest	00000000 I_lbu_cg_cp_rs1_nx0_b11
000044f8 l       .data	00000000 I_lbu_cg_cp_rs1_nx0_b11_str
000001e8 l       .text.rvtest	00000000 I_lbu_cg_cp_rs1_nx0_b12
0000452b l       .data	00000000 I_lbu_cg_cp_rs1_nx0_b12_str
00000214 l       .text.rvtest	00000000 I_lbu_cg_cp_rs1_nx0_b13
0000455e l       .data	00000000 I_lbu_cg_cp_rs1_nx0_b13_str
00000238 l       .text.rvtest	00000000 I_lbu_cg_cp_rs1_nx0_b14
00004591 l       .data	00000000 I_lbu_cg_cp_rs1_nx0_b14_str
00000260 l       .text.rvtest	00000000 I_lbu_cg_cp_rs1_nx0_b15
000045c4 l       .data	00000000 I_lbu_cg_cp_rs1_nx0_b15_str
00000284 l       .text.rvtest	00000000 I_lbu_cg_cp_rs1_nx0_b16
000045f7 l       .data	00000000 I_lbu_cg_cp_rs1_nx0_b16_str
000002a8 l       .text.rvtest	00000000 I_lbu_cg_cp_rs1_nx0_b17
0000462a l       .data	00000000 I_lbu_cg_cp_rs1_nx0_b17_str
000002cc l       .text.rvtest	00000000 I_lbu_cg_cp_rs1_nx0_b18
0000465d l       .data	00000000 I_lbu_cg_cp_rs1_nx0_b18_str
000002f0 l       .text.rvtest	00000000 I_lbu_cg_cp_rs1_nx0_b19
00004690 l       .data	00000000 I_lbu_cg_cp_rs1_nx0_b19_str
00000314 l       .text.rvtest	00000000 I_lbu_cg_cp_rs1_nx0_b20
000046c3 l       .data	00000000 I_lbu_cg_cp_rs1_nx0_b20_str
00000338 l       .text.rvtest	00000000 I_lbu_cg_cp_rs1_nx0_b21
000046f6 l       .data	00000000 I_lbu_cg_cp_rs1_nx0_b21_str
0000035c l       .text.rvtest	00000000 I_lbu_cg_cp_rs1_nx0_b22
00004729 l       .data	00000000 I_lbu_cg_cp_rs1_nx0_b22_str
00000380 l       .text.rvtest	00000000 I_lbu_cg_cp_rs1_nx0_b23
0000475c l       .data	00000000 I_lbu_cg_cp_rs1_nx0_b23_str
000003a4 l       .text.rvtest	00000000 I_lbu_cg_cp_rs1_nx0_b24
0000478f l       .data	00000000 I_lbu_cg_cp_rs1_nx0_b24_str
000003cc l       .text.rvtest	00000000 I_lbu_cg_cp_rs1_nx0_b25
000047c2 l       .data	00000000 I_lbu_cg_cp_rs1_nx0_b25_str
000003f0 l       .text.rvtest	00000000 I_lbu_cg_cp_rs1_nx0_b26
000047f5 l       .data	00000000 I_lbu_cg_cp_rs1_nx0_b26_str
00000414 l       .text.rvtest	00000000 I_lbu_cg_cp_rs1_nx0_b27
00004828 l       .data	00000000 I_lbu_cg_cp_rs1_nx0_b27_str
00000438 l       .text.rvtest	00000000 I_lbu_cg_cp_rs1_nx0_b28
0000485b l       .data	00000000 I_lbu_cg_cp_rs1_nx0_b28_str
00000460 l       .text.rvtest	00000000 I_lbu_cg_cp_rs1_nx0_b29
0000488e l       .data	00000000 I_lbu_cg_cp_rs1_nx0_b29_str
00000488 l       .text.rvtest	00000000 I_lbu_cg_cp_rs1_nx0_b30
000048c1 l       .data	00000000 I_lbu_cg_cp_rs1_nx0_b30_str
000004ac l       .text.rvtest	00000000 I_lbu_cg_cp_rs1_nx0_b31
000048f4 l       .data	00000000 I_lbu_cg_cp_rs1_nx0_b31_str
000004d0 l       .text.rvtest	00000000 I_lbu_cg_cp_rd_b0
00004927 l       .data	00000000 I_lbu_cg_cp_rd_b0_str
000004f4 l       .text.rvtest	00000000 I_lbu_cg_cp_rd_b1
00004954 l       .data	00000000 I_lbu_cg_cp_rd_b1_str
00000518 l       .text.rvtest	00000000 I_lbu_cg_cp_rd_b2
00004981 l       .data	00000000 I_lbu_cg_cp_rd_b2_str
00000540 l       .text.rvtest	00000000 I_lbu_cg_cp_rd_b3
000049ae l       .data	00000000 I_lbu_cg_cp_rd_b3_str
00000564 l       .text.rvtest	00000000 I_lbu_cg_cp_rd_b4
000049db l       .data	00000000 I_lbu_cg_cp_rd_b4_str
00000588 l       .text.rvtest	00000000 I_lbu_cg_cp_rd_b5
00004a08 l       .data	00000000 I_lbu_cg_cp_rd_b5_str
000005ac l       .text.rvtest	00000000 I_lbu_cg_cp_rd_b6
00004a35 l       .data	00000000 I_lbu_cg_cp_rd_b6_str
000005d8 l       .text.rvtest	00000000 I_lbu_cg_cp_rd_b7
00004a62 l       .data	00000000 I_lbu_cg_cp_rd_b7_str
000005fc l       .text.rvtest	00000000 I_lbu_cg_cp_rd_b8
00004a8f l       .data	00000000 I_lbu_cg_cp_rd_b8_str
00000620 l       .text.rvtest	00000000 I_lbu_cg_cp_rd_b9
00004abc l       .data	00000000 I_lbu_cg_cp_rd_b9_str
00000648 l       .text.rvtest	00000000 I_lbu_cg_cp_rd_b10
00004ae9 l       .data	00000000 I_lbu_cg_cp_rd_b10_str
00000670 l       .text.rvtest	00000000 I_lbu_cg_cp_rd_b11
00004b17 l       .data	00000000 I_lbu_cg_cp_rd_b11_str
00000694 l       .text.rvtest	00000000 I_lbu_cg_cp_rd_b12
00004b45 l       .data	00000000 I_lbu_cg_cp_rd_b12_str
000006c0 l       .text.rvtest	00000000 I_lbu_cg_cp_rd_b13
00004b73 l       .data	00000000 I_lbu_cg_cp_rd_b13_str
000006e4 l       .text.rvtest	00000000 I_lbu_cg_cp_rd_b14
00004ba1 l       .data	00000000 I_lbu_cg_cp_rd_b14_str
00000708 l       .text.rvtest	00000000 I_lbu_cg_cp_rd_b15
00004bcf l       .data	00000000 I_lbu_cg_cp_rd_b15_str
0000072c l       .text.rvtest	00000000 I_lbu_cg_cp_rd_b16
00004bfd l       .data	00000000 I_lbu_cg_cp_rd_b16_str
00000750 l       .text.rvtest	00000000 I_lbu_cg_cp_rd_b17
00004c2b l       .data	00000000 I_lbu_cg_cp_rd_b17_str
00000774 l       .text.rvtest	00000000 I_lbu_cg_cp_rd_b18
00004c59 l       .data	00000000 I_lbu_cg_cp_rd_b18_str
00000798 l       .text.rvtest	00000000 I_lbu_cg_cp_rd_b19
00004c87 l       .data	00000000 I_lbu_cg_cp_rd_b19_str
000007c0 l       .text.rvtest	00000000 I_lbu_cg_cp_rd_b20
00004cb5 l       .data	00000000 I_lbu_cg_cp_rd_b20_str
000007e4 l       .text.rvtest	00000000 I_lbu_cg_cp_rd_b21
00004ce3 l       .data	00000000 I_lbu_cg_cp_rd_b21_str
00000808 l       .text.rvtest	00000000 I_lbu_cg_cp_rd_b22
00004d11 l       .data	00000000 I_lbu_cg_cp_rd_b22_str
0000082c l       .text.rvtest	00000000 I_lbu_cg_cp_rd_b23
00004d3f l       .data	00000000 I_lbu_cg_cp_rd_b23_str
00000850 l       .text.rvtest	00000000 I_lbu_cg_cp_rd_b24
00004d6d l       .data	00000000 I_lbu_cg_cp_rd_b24_str
00000874 l       .text.rvtest	00000000 I_lbu_cg_cp_rd_b25
00004d9b l       .data	00000000 I_lbu_cg_cp_rd_b25_str
00000898 l       .text.rvtest	00000000 I_lbu_cg_cp_rd_b26
00004dc9 l       .data	00000000 I_lbu_cg_cp_rd_b26_str
000008bc l       .text.rvtest	00000000 I_lbu_cg_cp_rd_b27
00004df7 l       .data	00000000 I_lbu_cg_cp_rd_b27_str
000008e0 l       .text.rvtest	00000000 I_lbu_cg_cp_rd_b28
00004e25 l       .data	00000000 I_lbu_cg_cp_rd_b28_str
00000904 l       .text.rvtest	00000000 I_lbu_cg_cp_rd_b29
00004e53 l       .data	00000000 I_lbu_cg_cp_rd_b29_str
00000928 l       .text.rvtest	00000000 I_lbu_cg_cp_rd_b30
00004e81 l       .data	00000000 I_lbu_cg_cp_rd_b30_str
0000094c l       .text.rvtest	00000000 I_lbu_cg_cp_rd_b31
00004eaf l       .data	00000000 I_lbu_cg_cp_rd_b31_str
00000970 l       .text.rvtest	00000000 I_lbu_cg_cmp_rd_rs1_nx0_b1
00004edd l       .data	00000000 I_lbu_cg_cmp_rd_rs1_nx0_b1_str
00000994 l       .text.rvtest	00000000 I_lbu_cg_cmp_rd_rs1_nx0_b2
00004f13 l       .data	00000000 I_lbu_cg_cmp_rd_rs1_nx0_b2_str
000009b8 l       .text.rvtest	00000000 I_lbu_cg_cmp_rd_rs1_nx0_b3
00004f49 l       .data	00000000 I_lbu_cg_cmp_rd_rs1_nx0_b3_str
000009dc l       .text.rvtest	00000000 I_lbu_cg_cmp_rd_rs1_nx0_b4
00004f7f l       .data	00000000 I_lbu_cg_cmp_rd_rs1_nx0_b4_str
00000a00 l       .text.rvtest	00000000 I_lbu_cg_cmp_rd_rs1_nx0_b5
00004fb5 l       .data	00000000 I_lbu_cg_cmp_rd_rs1_nx0_b5_str
00000a28 l       .text.rvtest	00000000 I_lbu_cg_cmp_rd_rs1_nx0_b6
00004feb l       .data	00000000 I_lbu_cg_cmp_rd_rs1_nx0_b6_str
00000a54 l       .text.rvtest	00000000 I_lbu_cg_cmp_rd_rs1_nx0_b7
00005021 l       .data	00000000 I_lbu_cg_cmp_rd_rs1_nx0_b7_str
00000a78 l       .text.rvtest	00000000 I_lbu_cg_cmp_rd_rs1_nx0_b8
00005057 l       .data	00000000 I_lbu_cg_cmp_rd_rs1_nx0_b8_str
00000aa0 l       .text.rvtest	00000000 I_lbu_cg_cmp_rd_rs1_nx0_b9
0000508d l       .data	00000000 I_lbu_cg_cmp_rd_rs1_nx0_b9_str
00000ac4 l       .text.rvtest	00000000 I_lbu_cg_cmp_rd_rs1_nx0_b10
000050c3 l       .data	00000000 I_lbu_cg_cmp_rd_rs1_nx0_b10_str
00000ae8 l       .text.rvtest	00000000 I_lbu_cg_cmp_rd_rs1_nx0_b11
000050fa l       .data	00000000 I_lbu_cg_cmp_rd_rs1_nx0_b11_str
00000b0c l       .text.rvtest	00000000 I_lbu_cg_cmp_rd_rs1_nx0_b12
00005131 l       .data	00000000 I_lbu_cg_cmp_rd_rs1_nx0_b12_str
00000b38 l       .text.rvtest	00000000 I_lbu_cg_cmp_rd_rs1_nx0_b13
00005168 l       .data	00000000 I_lbu_cg_cmp_rd_rs1_nx0_b13_str
00000b5c l       .text.rvtest	00000000 I_lbu_cg_cmp_rd_rs1_nx0_b14
0000519f l       .data	00000000 I_lbu_cg_cmp_rd_rs1_nx0_b14_str
00000b80 l       .text.rvtest	00000000 I_lbu_cg_cmp_rd_rs1_nx0_b15
000051d6 l       .data	00000000 I_lbu_cg_cmp_rd_rs1_nx0_b15_str
00000ba4 l       .text.rvtest	00000000 I_lbu_cg_cmp_rd_rs1_nx0_b16
0000520d l       .data	00000000 I_lbu_cg_cmp_rd_rs1_nx0_b16_str
00000bc8 l       .text.rvtest	00000000 I_lbu_cg_cmp_rd_rs1_nx0_b17
00005244 l       .data	00000000 I_lbu_cg_cmp_rd_rs1_nx0_b17_str
00000bf0 l       .text.rvtest	00000000 I_lbu_cg_cmp_rd_rs1_nx0_b18
0000527b l       .data	00000000 I_lbu_cg_cmp_rd_rs1_nx0_b18_str
00000c18 l       .text.rvtest	00000000 I_lbu_cg_cmp_rd_rs1_nx0_b19
000052b2 l       .data	00000000 I_lbu_cg_cmp_rd_rs1_nx0_b19_str
00000c3c l       .text.rvtest	00000000 I_lbu_cg_cmp_rd_rs1_nx0_b20
000052e9 l       .data	00000000 I_lbu_cg_cmp_rd_rs1_nx0_b20_str
00000c60 l       .text.rvtest	00000000 I_lbu_cg_cmp_rd_rs1_nx0_b21
00005320 l       .data	00000000 I_lbu_cg_cmp_rd_rs1_nx0_b21_str
00000c84 l       .text.rvtest	00000000 I_lbu_cg_cmp_rd_rs1_nx0_b22
00005357 l       .data	00000000 I_lbu_cg_cmp_rd_rs1_nx0_b22_str
00000ca8 l       .text.rvtest	00000000 I_lbu_cg_cmp_rd_rs1_nx0_b23
0000538e l       .data	00000000 I_lbu_cg_cmp_rd_rs1_nx0_b23_str
00000ccc l       .text.rvtest	00000000 I_lbu_cg_cmp_rd_rs1_nx0_b24
000053c5 l       .data	00000000 I_lbu_cg_cmp_rd_rs1_nx0_b24_str
00000cf0 l       .text.rvtest	00000000 I_lbu_cg_cmp_rd_rs1_nx0_b25
000053fc l       .data	00000000 I_lbu_cg_cmp_rd_rs1_nx0_b25_str
00000d14 l       .text.rvtest	00000000 I_lbu_cg_cmp_rd_rs1_nx0_b26
00005433 l       .data	00000000 I_lbu_cg_cmp_rd_rs1_nx0_b26_str
00000d38 l       .text.rvtest	00000000 I_lbu_cg_cmp_rd_rs1_nx0_b27
0000546a l       .data	00000000 I_lbu_cg_cmp_rd_rs1_nx0_b27_str
00000d5c l       .text.rvtest	00000000 I_lbu_cg_cmp_rd_rs1_nx0_b28
000054a1 l       .data	00000000 I_lbu_cg_cmp_rd_rs1_nx0_b28_str
00000d80 l       .text.rvtest	00000000 I_lbu_cg_cmp_rd_rs1_nx0_b29
000054d8 l       .data	00000000 I_lbu_cg_cmp_rd_rs1_nx0_b29_str
00000da4 l       .text.rvtest	00000000 I_lbu_cg_cmp_rd_rs1_nx0_b30
0000550f l       .data	00000000 I_lbu_cg_cmp_rd_rs1_nx0_b30_str
00000dc8 l       .text.rvtest	00000000 I_lbu_cg_cmp_rd_rs1_nx0_b31
00005546 l       .data	00000000 I_lbu_cg_cmp_rd_rs1_nx0_b31_str
00000dec l       .text.rvtest	00000000 I_lbu_cg_cp_imm_edges_0x0
0000557d l       .data	00000000 I_lbu_cg_cp_imm_edges_0x0_str
00000e10 l       .text.rvtest	00000000 I_lbu_cg_cp_imm_edges_0x1
000055b2 l       .data	00000000 I_lbu_cg_cp_imm_edges_0x1_str
00000e34 l       .text.rvtest	00000000 I_lbu_cg_cp_imm_edges_0x2
000055e7 l       .data	00000000 I_lbu_cg_cp_imm_edges_0x2_str
00000e58 l       .text.rvtest	00000000 I_lbu_cg_cp_imm_edges_0x3
0000561c l       .data	00000000 I_lbu_cg_cp_imm_edges_0x3_str
00000e7c l       .text.rvtest	00000000 I_lbu_cg_cp_imm_edges_0x4
00005651 l       .data	00000000 I_lbu_cg_cp_imm_edges_0x4_str
00000ea0 l       .text.rvtest	00000000 I_lbu_cg_cp_imm_edges_0x8
00005686 l       .data	00000000 I_lbu_cg_cp_imm_edges_0x8_str
00000ec4 l       .text.rvtest	00000000 I_lbu_cg_cp_imm_edges_0x10
000056bc l       .data	00000000 I_lbu_cg_cp_imm_edges_0x10_str
00000ee8 l       .text.rvtest	00000000 I_lbu_cg_cp_imm_edges_0x20
000056f3 l       .data	00000000 I_lbu_cg_cp_imm_edges_0x20_str
00000f0c l       .text.rvtest	00000000 I_lbu_cg_cp_imm_edges_0x40
0000572a l       .data	00000000 I_lbu_cg_cp_imm_edges_0x40_str
00000f30 l       .text.rvtest	00000000 I_lbu_cg_cp_imm_edges_0x80
00005761 l       .data	00000000 I_lbu_cg_cp_imm_edges_0x80_str
00000f54 l       .text.rvtest	00000000 I_lbu_cg_cp_imm_edges_0x100
00005798 l       .data	00000000 I_lbu_cg_cp_imm_edges_0x100_str
00000f78 l       .text.rvtest	00000000 I_lbu_cg_cp_imm_edges_0x200
000057d0 l       .data	00000000 I_lbu_cg_cp_imm_edges_0x200_str
00000f9c l       .text.rvtest	00000000 I_lbu_cg_cp_imm_edges_0x3ff
00005808 l       .data	00000000 I_lbu_cg_cp_imm_edges_0x3ff_str
00000fc0 l       .text.rvtest	00000000 I_lbu_cg_cp_imm_edges_0x400
00005840 l       .data	00000000 I_lbu_cg_cp_imm_edges_0x400_str
00000fe4 l       .text.rvtest	00000000 I_lbu_cg_cp_imm_edges_0x703
00005878 l       .data	00000000 I_lbu_cg_cp_imm_edges_0x703_str
00001008 l       .text.rvtest	00000000 I_lbu_cg_cp_imm_edges_0x7ff
000058b0 l       .data	00000000 I_lbu_cg_cp_imm_edges_0x7ff_str
00001030 l       .text.rvtest	00000000 I_lbu_cg_cp_imm_edges_m0x800
000058e8 l       .data	00000000 I_lbu_cg_cp_imm_edges_m0x800_str
00001054 l       .text.rvtest	00000000 I_lbu_cg_cp_imm_edges_m0x7ff
00005921 l       .data	00000000 I_lbu_cg_cp_imm_edges_m0x7ff_str
00001078 l       .text.rvtest	00000000 I_lbu_cg_cp_imm_edges_m0x2
0000595a l       .data	00000000 I_lbu_cg_cp_imm_edges_m0x2_str
0000109c l       .text.rvtest	00000000 I_lbu_cg_cp_imm_edges_m0x1
00005991 l       .data	00000000 I_lbu_cg_cp_imm_edges_m0x1_str
00004000 l       .data	00000000 scratch
000010f0 l       .text.rvtest	00000000 I_lbu_cg_cp_align_byte_b0
000059c8 l       .data	00000000 I_lbu_cg_cp_align_byte_b0_str
00001150 l       .text.rvtest	00000000 I_lbu_cg_cp_align_byte_b1
000059fe l       .data	00000000 I_lbu_cg_cp_align_byte_b1_str
000011b0 l       .text.rvtest	00000000 I_lbu_cg_cp_align_byte_b2
00005a34 l       .data	00000000 I_lbu_cg_cp_align_byte_b2_str
00001210 l       .text.rvtest	00000000 I_lbu_cg_cp_align_byte_b3
00005a6a l       .data	00000000 I_lbu_cg_cp_align_byte_b3_str
00001270 l       .text.rvtest	00000000 I_lbu_cg_cp_align_byte_b4
00005aa0 l       .data	00000000 I_lbu_cg_cp_align_byte_b4_str
000012d0 l       .text.rvtest	00000000 I_lbu_cg_cp_align_byte_b5
00005ad6 l       .data	00000000 I_lbu_cg_cp_align_byte_b5_str
00001330 l       .text.rvtest	00000000 I_lbu_cg_cp_align_byte_b6
00005b0c l       .data	00000000 I_lbu_cg_cp_align_byte_b6_str
00001390 l       .text.rvtest	00000000 I_lbu_cg_cp_align_byte_b7
00005b42 l       .data	00000000 I_lbu_cg_cp_align_byte_b7_str
000013b0 l       .text.rvtest	00000000 I_lbu_cg_cp_memval_byte_0x0
00005b78 l       .data	00000000 I_lbu_cg_cp_memval_byte_0x0_str
000013d4 l       .text.rvtest	00000000 I_lbu_cg_cp_memval_byte_0x1
00005bb0 l       .data	00000000 I_lbu_cg_cp_memval_byte_0x1_str
000013f8 l       .text.rvtest	00000000 I_lbu_cg_cp_memval_byte_0x7f
00005be8 l       .data	00000000 I_lbu_cg_cp_memval_byte_0x7f_str
0000141c l       .text.rvtest	00000000 I_lbu_cg_cp_memval_byte_0x80
00005c21 l       .data	00000000 I_lbu_cg_cp_memval_byte_0x80_str
00001440 l       .text.rvtest	00000000 I_lbu_cg_cp_memval_byte_0xff
00005c5a l       .data	00000000 I_lbu_cg_cp_memval_byte_0xff_str
00001464 l       .text.rvtest	00000000 exit_cleanup
00006304 l       .data	00000000 successstr
00017204 l       .text.rvmodel	00000000 rvmodel_io_write_str
00017208 l       .text.rvmodel	00000000 rvmodel_halt_pass
000014b0 l       .text.rvtest	00000000 abort_test
6f5ca309 l       *ABS*	00000000 immx
6f5ca309 l       *ABS*	00000000 absimm
00000000 l       *ABS*	00000000 cry
00000309 l       *ABS*	00000000 imm12
00005ca0 l       .data	00000000 begin_failure_scratch
00001580 l       .text.rvtest	00000000 failedtest_saveregs
00001524 l       .text.rvtest	00000000 failedtest_trap_x7_x9
00005e10 l       .data	00000000 saved_mcause
00005e18 l       .data	00000000 saved_mtval
00005e20 l       .data	00000000 saved_mstatus
000015f0 l       .text.rvtest	00000000 failedtest_saveresults
00005ca0 l       .data	00000000 failure_type
0000166c l       .text.rvtest	00000000 failedtest_saveresults_trap
00001600 l       .text.rvtest	00000000 failedtest_saveresults_int
00001a40 l       .text.rvtest	00000000 failedtest_saveresults_common
00005df8 l       .data	00000000 trap_diag_fail_str_ptr
000064ca l       .data	00000000 trap_sig_offset_mismatch
00001920 l       .text.rvtest	00000000 trap_diag_offset_mismatch
00005dd0 l       .data	00000000 trap_diag_subtype
0000652e l       .data	00000000 sv_Mvect_str
000019a0 l       .text.rvtest	00000000 trap_diag_field_identified
00006630 l       .data	00000000 sv_Mcause_str
0000672b l       .data	00000000 sv_Mepc_str
0000681e l       .data	00000000 sv_Mtval_str
00006991 l       .data	00000000 sv_Mip_str
00006915 l       .data	00000000 sv_Mtval2_str
00006953 l       .data	00000000 sv_Mtinst_str
0000656e l       .data	00000000 sv_Svect_str
0000666e l       .data	00000000 sv_Scause_str
00006767 l       .data	00000000 sv_Sepc_str
0000685b l       .data	00000000 sv_Stval_str
000069cc l       .data	00000000 sv_Sip_str
000065ae l       .data	00000000 sv_Hvect_str
000066ac l       .data	00000000 sv_Hcause_str
000067a3 l       .data	00000000 sv_Hepc_str
00006898 l       .data	00000000 sv_Htval_str
00006a07 l       .data	00000000 sv_Hip_str
000065ef l       .data	00000000 sv_Vvect_str
000066eb l       .data	00000000 sv_Vcause_str
000067e0 l       .data	00000000 sv_Vepc_str
000068d6 l       .data	00000000 sv_Vtval_str
00006a43 l       .data	00000000 sv_Vip_str
00006a80 l       .data	00000000 Mclr_Mext_int_str
00006acf l       .data	00000000 Mclr_Sext_int_str
00006bca l       .data	00000000 Sclr_Sext_int_str
00006cc6 l       .data	00000000 Hclr_Sext_int_str
00001a30 l       .text.rvtest	00000000 trap_diag_generic_report
00005de8 l       .data	00000000 trap_diag_actual_offset
00005df0 l       .data	00000000 trap_diag_expected_offset
00005dd4 l       .data	00000000 trap_diag_mode
00005dd8 l       .data	00000000 trap_diag_actual_value
00005de0 l       .data	00000000 trap_diag_expected_value
00001a70 l       .text.rvtest	00000000 failedtest_report
00001a70 l       .text.rvtest	00000000 print_failstr
0000633a l       .data	00000000 failstr
00001aa8 l       .text.rvtest	00000000 print_testnamestr
000063cd l       .data	00000000 testnamestr
00001ae8 l       .text.rvtest	00000000 print_failure_test_name_str
00005dc0 l       .data	00000000 failure_string_ptr
00001af8 l       .text.rvtest	00000000 print_newline_str
000063df l       .data	00000000 newlinestr
00001f2c l       .text.rvtest	00000000 failedtest_report_trap_detailed
000063e1 l       .data	00000000 inststr
00005da0 l       .data	00000000 failing_instruction
00002e78 l       .text.rvtest	00000000 failedtest_hex_to_str
00005e28 l       .data	00000000 ascii_buffer
000063f5 l       .data	00000000 addrstr
00005da8 l       .data	00000000 failing_addr
00006e72 l       .data	00000000 regstr
00001cd8 l       .text.rvtest	00000000 failedtest_report_not_intreg
00005da4 l       .data	00000000 failing_reg
00002ef4 l       .text.rvtest	00000000 failedtest_dec_to_str
00001db4 l       .text.rvtest	00000000 failedtest_report_print_regstr
00001d2c l       .text.rvtest	00000000 failedtest_report_fpreg
00001d78 l       .text.rvtest	00000000 failedtest_report_vecreg
00006ed2 l       .data	00000000 fflagsstr
00001de8 l       .text.rvtest	00000000 failedtest_report_after_reg
00006e83 l       .data	00000000 badvalstr
00001e4c l       .text.rvtest	00000000 failedtest_report_badval_not_fp
00005db0 l       .data	00000000 failing_value
00001e5c l       .text.rvtest	00000000 failedtest_report_badval_done
00006e9a l       .data	00000000 expvalstr
00001eec l       .text.rvtest	00000000 failedtest_report_expval_not_fp
00005db8 l       .data	00000000 expected_value
00001efc l       .text.rvtest	00000000 failedtest_report_expval_done
00002c24 l       .text.rvtest	00000000 failedtest_report_end
00006efe l       .data	00000000 trap_diag_header_str
00006f2a l       .data	00000000 trap_diag_origstr_label
00002000 l       .text.rvtest	00000000 trap_report_offset_mismatch
00002ab0 l       .text.rvtest	00000000 trap_report_generic
00002374 l       .text.rvtest	00000000 trap_report_field_mismatch
00006f3a l       .data	00000000 trap_diag_count_mismatch_str
00006f9b l       .data	00000000 trap_diag_expected_offset_str
00006fc2 l       .data	00000000 trap_diag_actual_offset_str
00002254 l       .text.rvtest	00000000 trap_report_missing_traps
0000213c l       .text.rvtest	00000000 trap_report_extra_traps
00006fe9 l       .data	00000000 trap_diag_extra_traps_str
0000706e l       .data	00000000 trap_diag_extra_bytes_str
00007099 l       .data	00000000 trap_diag_extra_hint_str
00002c70 l       .text.rvtest	00000000 failedtest_print_csr_context
00007023 l       .data	00000000 trap_diag_missing_traps_str
00007181 l       .data	00000000 trap_diag_missing_hint_str
00007268 l       .data	00000000 trap_diag_handler_mode_str
00002404 l       .text.rvtest	00000000 trap_mode_m
00002444 l       .text.rvtest	00000000 trap_mode_s
00002484 l       .text.rvtest	00000000 trap_mode_h
000024c4 l       .text.rvtest	00000000 trap_mode_v
000072a4 l       .data	00000000 trap_diag_mode_unknown_str
00002500 l       .text.rvtest	00000000 trap_mode_print
00007282 l       .data	00000000 trap_diag_mode_m_str
0000728a l       .data	00000000 trap_diag_mode_s_str
00007292 l       .data	00000000 trap_diag_mode_hs_str
0000729b l       .data	00000000 trap_diag_mode_vs_str
000072ad l       .data	00000000 trap_diag_field_str
000025c4 l       .text.rvtest	00000000 trap_field_vect
00002604 l       .text.rvtest	00000000 trap_field_cause
00002644 l       .text.rvtest	00000000 trap_field_epc
00002684 l       .text.rvtest	00000000 trap_field_tval
000026c4 l       .text.rvtest	00000000 trap_field_ip
00002704 l       .text.rvtest	00000000 trap_field_tval2
00002744 l       .text.rvtest	00000000 trap_field_tinst
00002784 l       .text.rvtest	00000000 trap_field_intid
00007404 l       .data	00000000 trap_diag_field_unknown_str
000027c0 l       .text.rvtest	00000000 trap_field_print
000072c7 l       .data	00000000 trap_diag_field_vect_str
000072f8 l       .data	00000000 trap_diag_field_cause_str
00007318 l       .data	00000000 trap_diag_field_epc_str
00007336 l       .data	00000000 trap_diag_field_tval_str
00007355 l       .data	00000000 trap_diag_field_ip_str
0000737d l       .data	00000000 trap_diag_field_tval2_str
000073a9 l       .data	00000000 trap_diag_field_tinst_str
000073d5 l       .data	00000000 trap_diag_field_intid_str
00007413 l       .data	00000000 trap_diag_expected_str
0000742a l       .data	00000000 trap_diag_actual_str
0000295c l       .text.rvtest	00000000 trap_field_not_cause
00007441 l       .data	00000000 trap_diag_expected_cause_name_str
00002b94 l       .text.rvtest	00000000 trap_cause_to_str
00007458 l       .data	00000000 trap_diag_actual_cause_name_str
0000295c l       .text.rvtest	00000000 trap_field_not_epc
000074ce l       .data	00000000 trap_diag_hint_vect_str
000075a4 l       .data	00000000 trap_diag_hint_cause_str
00007697 l       .data	00000000 trap_diag_hint_epc_str
00007792 l       .data	00000000 trap_diag_hint_tval_str
00007879 l       .data	00000000 trap_diag_hint_ip_str
00007486 l       .data	00000000 trap_diag_generic_str
00005e08 l       .data	00000000 saved_mepc
00006469 l       .data	00000000 xepcinstrstr
00002bb8 l       .text.rvtest	00000000 trap_cause_interrupt
00002b98 l       .text.rvtest	00000000 trap_cause_exception
00002be4 l       .text.rvtest	00000000 trap_cause_unknown
00005e50 l       .data	00000000 trap_excpt_name_tbl
00005eb0 l       .data	00000000 trap_int_name_tbl
000062ee l       .data	00000000 trap_cause_unknown_str
00006eb1 l       .data	00000000 endstr
00002c68 l       .text.rvtest	00000000 failedtest_terminate
00017214 l       .text.rvmodel	00000000 rvmodel_halt_fail
00005e00 l       .data	00000000 csr_context_ret_addr
0000648a l       .data	00000000 mepcstr
0000649a l       .data	00000000 mcausestr
000064aa l       .data	00000000 mtvalstr
000064ba l       .data	00000000 mstatusstr
00002eb8 l       .text.rvtest	00000000 failedtest_hex_to_str_loop
00002ed4 l       .text.rvtest	00000000 failedtest_hex_to_str_digit
00002ed8 l       .text.rvtest	00000000 failedtest_hex_to_str_write
00017000 l       .text.rvmodel	00000000 rvtest_boot_to_mmode
00017000 l       .text.rvmodel	00000000 rvtest_init_regs
00007960 l       .data	00000000 signature_base
000171a0 l       .text.rvmodel	00000000 canary_check
00006eda l       .data	00000000 canary_mismatch
00005e50 l       .data	00000000 end_failure_scratch
00005ef0 l       .data	00000000 trap_excpt_name_0
00005f10 l       .data	00000000 trap_excpt_name_1
00005f2a l       .data	00000000 trap_excpt_name_2
00005f3f l       .data	00000000 trap_excpt_name_3
00005f4b l       .data	00000000 trap_excpt_name_4
00005f64 l       .data	00000000 trap_excpt_name_5
00005f77 l       .data	00000000 trap_excpt_name_6
00005f95 l       .data	00000000 trap_excpt_name_7
00005fad l       .data	00000000 trap_excpt_name_8
00005fcb l       .data	00000000 trap_excpt_name_9
00005fe9 l       .data	00000000 trap_excpt_name_10
00006008 l       .data	00000000 trap_excpt_name_11
00006026 l       .data	00000000 trap_excpt_name_12
0000603e l       .data	00000000 trap_excpt_name_13
0000604f l       .data	00000000 trap_excpt_name_14
0000605e l       .data	00000000 trap_excpt_name_15
00006074 l       .data	00000000 trap_excpt_name_16
00006081 l       .data	00000000 trap_excpt_name_17
00006090 l       .data	00000000 trap_excpt_name_18
000060a0 l       .data	00000000 trap_excpt_name_19
000060b0 l       .data	00000000 trap_excpt_name_20
000060ce l       .data	00000000 trap_excpt_name_21
000060e5 l       .data	00000000 trap_excpt_name_22
000060fa l       .data	00000000 trap_excpt_name_23
00006116 l       .data	00000000 trap_int_name_0
0000612e l       .data	00000000 trap_int_name_1
0000614d l       .data	00000000 trap_int_name_2
00006174 l       .data	00000000 trap_int_name_3
00006190 l       .data	00000000 trap_int_name_4
000061a8 l       .data	00000000 trap_int_name_5
000061c4 l       .data	00000000 trap_int_name_6
000061e8 l       .data	00000000 trap_int_name_7
00006201 l       .data	00000000 trap_int_name_8
00006219 l       .data	00000000 trap_int_name_9
00006238 l       .data	00000000 trap_int_name_10
0000625f l       .data	00000000 trap_int_name_11
0000627b l       .data	00000000 trap_int_name_12
000062a0 l       .data	00000000 trap_int_name_13
000062bc l       .data	00000000 trap_int_name_14
000062d5 l       .data	00000000 trap_int_name_15
0000638f l       .data	00000000 abortstr
00006436 l       .data	00000000 xepcstr
00006b21 l       .data	00000000 Mclr_Vext_int_str
00006b7b l       .data	00000000 Sclr_Mext_int_str
00006c1c l       .data	00000000 Sclr_Vext_int_str
00006c76 l       .data	00000000 Hclr_Mext_int_str
00006d19 l       .data	00000000 Hclr_Vext_int_str
00006d74 l       .data	00000000 Vclr_Mext_int_str
00006dc4 l       .data	00000000 Vclr_Sext_int_str
00006e17 l       .data	00000000 Vclr_Vext_int_str
0000746f l       .data	00000000 trap_diag_curr_xepc_str
00007b8c l       .data	00000000 trap_sigptr
000165f0 g       .data	00000000 end_signature
000165f0 g       .data	00000000 rvtest_sig_end
00000000 g       .text.init	00000000 rvtest_entry_point
00007960 g       .data	00000000 begin_signature
00001464 g       .text.rvtest	00000000 rvtest_code_end
00000040 g       .text.rvtest	00000000 rvtest_code_begin
00007960 g       .data	00000000 rvtest_sig_begin
00004110 g       .data	00000000 rvtest_data_begin
0000795e g       .data	00000000 rvtest_data_end
00001464 g       .text.rvtest	00000000 cleanup_epilogs
00018000 g       .text.rvmodel	00000000 _end



Disassembly of section .text.init:

00000000 <rvtest_entry_point>:

// Include framework macros
#include "riscv_arch_test.h"

// Set up test environment and declare main entry point
RVTEST_BEGIN
   0:	00017097          	auipc	x1,0x17
   4:	00008093          	addi	x1,x1,0 # 17000 <rvmodel_boot>
   8:	00000013          	addi	x0,x0,0
   c:	00000013          	addi	x0,x0,0
  10:	00000013          	addi	x0,x0,0
  14:	00000013          	addi	x0,x0,0
  18:	00000013          	addi	x0,x0,0
  1c:	00000013          	addi	x0,x0,0
  20:	000080e7          	jalr	x1,0(x1)
  24:	00000013          	addi	x0,x0,0
  28:	00000013          	addi	x0,x0,0
  2c:	00000013          	addi	x0,x0,0
  30:	00000013          	addi	x0,x0,0
  34:	00000013          	addi	x0,x0,0
  38:	00000013          	addi	x0,x0,0
  3c:	00000013          	addi	x0,x0,0

Disassembly of section .text.rvtest:

00000040 <rvtest_code_begin>:
/////////////////////////////////
// cp_rs1_nx0
/////////////////////////////////

# Testcase cp_rs1_nx0 (Test source rs1 = x1)
  addi x1, x3, 177 # copy data_ptr to rs1 and adjust for offset
      40:	0b118093          	addi	x1,x3,177

00000044 <I_lbu_cg_cp_rs1_nx0_b1>:
I_lbu_cg_cp_rs1_nx0_b1:
  lbu x10, -177(x1) # perform load (0x9642956c)
      44:	f4f0c503          	lbu	x10,-177(x1)
  # Check if x10 contains the expected result. x2 is the signature ptr, x5 is the link ptr, x4 is a temp reg.
  RVTEST_SIGUPD(x2, x5, x4, x10, I_lbu_cg_cp_rs1_nx0_b1, I_lbu_cg_cp_rs1_nx0_b1_str)
      48:	00012203          	lw	x4,0(x2)
      4c:	00a20863          	beq	x4,x10,5c <I_lbu_cg_cp_rs1_nx0_b1+0x18>
      50:	46c012ef          	jal	x5,14bc <failedtest_x5_x4>
      54:	00000044          	.word	0x00000044
      58:	0000430c          	.word	0x0000430c
      5c:	00410113          	addi	x2,x2,4
  addi x3, x3, SIG_STRIDE # increment data_ptr
      60:	00418193          	addi	x3,x3,4

  mv x25, x2 # switch signature pointer register to avoid conflict with test
      64:	00010c93          	addi	x25,x2,0
# Testcase cp_rs1_nx0 (Test source rs1 = x2)
  addi x2, x3, 1729 # copy data_ptr to rs1 and adjust for offset
      68:	6c118113          	addi	x2,x3,1729

0000006c <I_lbu_cg_cp_rs1_nx0_b2>:
I_lbu_cg_cp_rs1_nx0_b2:
  lbu x6, -1729(x2) # perform load (0xa4fe17cb)
      6c:	93f14303          	lbu	x6,-1729(x2)
  # Check if x6 contains the expected result. x25 is the signature ptr, x5 is the link ptr, x4 is a temp reg.
  RVTEST_SIGUPD(x25, x5, x4, x6, I_lbu_cg_cp_rs1_nx0_b2, I_lbu_cg_cp_rs1_nx0_b2_str)
      70:	000ca203          	lw	x4,0(x25)
      74:	00620863          	beq	x4,x6,84 <I_lbu_cg_cp_rs1_nx0_b2+0x18>
      78:	444012ef          	jal	x5,14bc <failedtest_x5_x4>
      7c:	0000006c          	.word	0x0000006c
      80:	0000433d          	.word	0x0000433d
      84:	004c8c93          	addi	x25,x25,4
  addi x3, x3, SIG_STRIDE # increment data_ptr
      88:	00418193          	addi	x3,x3,4

  mv x15, x3 # switch data pointer register to avoid conflict with test
      8c:	00018793          	addi	x15,x3,0
# Testcase cp_rs1_nx0 (Test source rs1 = x3)
  addi x3, x15, 1444 # copy data_ptr to rs1 and adjust for offset
      90:	5a478193          	addi	x3,x15,1444

00000094 <I_lbu_cg_cp_rs1_nx0_b3>:
I_lbu_cg_cp_rs1_nx0_b3:
  lbu x31, -1444(x3) # perform load (0x37ebc301)
      94:	a5c1cf83          	lbu	x31,-1444(x3)
  # Check if x31 contains the expected result. x25 is the signature ptr, x5 is the link ptr, x4 is a temp reg.
  RVTEST_SIGUPD(x25, x5, x4, x31, I_lbu_cg_cp_rs1_nx0_b3, I_lbu_cg_cp_rs1_nx0_b3_str)
      98:	000ca203          	lw	x4,0(x25)
      9c:	01f20863          	beq	x4,x31,ac <I_lbu_cg_cp_rs1_nx0_b3+0x18>
      a0:	41c012ef          	jal	x5,14bc <failedtest_x5_x4>
      a4:	00000094          	.word	0x00000094
      a8:	0000436e          	.word	0x0000436e
      ac:	004c8c93          	addi	x25,x25,4
  addi x15, x15, SIG_STRIDE # increment data_ptr
      b0:	00478793          	addi	x15,x15,4

  mv x7, x4 # switch temp register to avoid conflict with test
      b4:	00020393          	addi	x7,x4,0 # 0 <rvtest_entry_point>
  mv x8, x5 # switch link pointer register to avoid conflict with test
      b8:	00028413          	addi	x8,x5,0
# Testcase cp_rs1_nx0 (Test source rs1 = x4)
  addi x4, x15, -743 # copy data_ptr to rs1 and adjust for offset
      bc:	d1978213          	addi	x4,x15,-743

000000c0 <I_lbu_cg_cp_rs1_nx0_b4>:
I_lbu_cg_cp_rs1_nx0_b4:
  lbu x26, 743(x4) # perform load (0x46c82fa1)
      c0:	2e724d03          	lbu	x26,743(x4) # 2e7 <I_lbu_cg_cp_rs1_nx0_b18+0x1b>
  # Check if x26 contains the expected result. x25 is the signature ptr, x8 is the link ptr, x7 is a temp reg.
  RVTEST_SIGUPD(x25, x8, x7, x26, I_lbu_cg_cp_rs1_nx0_b4, I_lbu_cg_cp_rs1_nx0_b4_str)
      c4:	000ca383          	lw	x7,0(x25)
      c8:	01a38863          	beq	x7,x26,d8 <I_lbu_cg_cp_rs1_nx0_b4+0x18>
      cc:	4080146f          	jal	x8,14d4 <failedtest_x8_x7>
      d0:	000000c0          	.word	0x000000c0
      d4:	0000439f          	.word	0x0000439f
      d8:	004c8c93          	addi	x25,x25,4
  addi x15, x15, SIG_STRIDE # increment data_ptr
      dc:	00478793          	addi	x15,x15,4

# Testcase cp_rs1_nx0 (Test source rs1 = x5)
  addi x5, x15, -666 # copy data_ptr to rs1 and adjust for offset
      e0:	d6678293          	addi	x5,x15,-666

000000e4 <I_lbu_cg_cp_rs1_nx0_b5>:
I_lbu_cg_cp_rs1_nx0_b5:
  lbu x20, 666(x5) # perform load (0x57026ae5)
      e4:	29a2ca03          	lbu	x20,666(x5)
  # Check if x20 contains the expected result. x25 is the signature ptr, x8 is the link ptr, x7 is a temp reg.
  RVTEST_SIGUPD(x25, x8, x7, x20, I_lbu_cg_cp_rs1_nx0_b5, I_lbu_cg_cp_rs1_nx0_b5_str)
      e8:	000ca383          	lw	x7,0(x25)
      ec:	01438863          	beq	x7,x20,fc <I_lbu_cg_cp_rs1_nx0_b5+0x18>
      f0:	3e40146f          	jal	x8,14d4 <failedtest_x8_x7>
      f4:	000000e4          	.word	0x000000e4
      f8:	000043d0          	.word	0x000043d0
      fc:	004c8c93          	addi	x25,x25,4
  addi x15, x15, SIG_STRIDE # increment data_ptr
     100:	00478793          	addi	x15,x15,4

# Testcase cp_rs1_nx0 (Test source rs1 = x6)
  addi x6, x15, 1158 # copy data_ptr to rs1 and adjust for offset
     104:	48678313          	addi	x6,x15,1158

00000108 <I_lbu_cg_cp_rs1_nx0_b6>:
I_lbu_cg_cp_rs1_nx0_b6:
  lbu x26, -1158(x6) # perform load (0xde97e779)
     108:	b7a34d03          	lbu	x26,-1158(x6)
  # Check if x26 contains the expected result. x25 is the signature ptr, x8 is the link ptr, x7 is a temp reg.
  RVTEST_SIGUPD(x25, x8, x7, x26, I_lbu_cg_cp_rs1_nx0_b6, I_lbu_cg_cp_rs1_nx0_b6_str)
     10c:	000ca383          	lw	x7,0(x25)
     110:	01a38863          	beq	x7,x26,120 <I_lbu_cg_cp_rs1_nx0_b6+0x18>
     114:	3c00146f          	jal	x8,14d4 <failedtest_x8_x7>
     118:	00000108          	.word	0x00000108
     11c:	00004401          	.word	0x00004401
     120:	004c8c93          	addi	x25,x25,4
  addi x15, x15, SIG_STRIDE # increment data_ptr
     124:	00478793          	addi	x15,x15,4

  mv x13, x7 # switch temp register to avoid conflict with test
     128:	00038693          	addi	x13,x7,0
  mv x14, x8 # switch link pointer register to avoid conflict with test
     12c:	00040713          	addi	x14,x8,0
# Testcase cp_rs1_nx0 (Test source rs1 = x7)
  addi x7, x15, 114 # copy data_ptr to rs1 and adjust for offset
     130:	07278393          	addi	x7,x15,114

00000134 <I_lbu_cg_cp_rs1_nx0_b7>:
I_lbu_cg_cp_rs1_nx0_b7:
  lbu x30, -114(x7) # perform load (0xc4e366fd)
     134:	f8e3cf03          	lbu	x30,-114(x7)
  # Check if x30 contains the expected result. x25 is the signature ptr, x14 is the link ptr, x13 is a temp reg.
  RVTEST_SIGUPD(x25, x14, x13, x30, I_lbu_cg_cp_rs1_nx0_b7, I_lbu_cg_cp_rs1_nx0_b7_str)
     138:	000ca683          	lw	x13,0(x25)
     13c:	01e68863          	beq	x13,x30,14c <I_lbu_cg_cp_rs1_nx0_b7+0x18>
     140:	3bc0176f          	jal	x14,14fc <failedtest_x14_x13>
     144:	00000134          	.word	0x00000134
     148:	00004432          	.word	0x00004432
     14c:	004c8c93          	addi	x25,x25,4
  addi x15, x15, SIG_STRIDE # increment data_ptr
     150:	00478793          	addi	x15,x15,4

# Testcase cp_rs1_nx0 (Test source rs1 = x8)
  addi x8, x15, -1591 # copy data_ptr to rs1 and adjust for offset
     154:	9c978413          	addi	x8,x15,-1591

00000158 <I_lbu_cg_cp_rs1_nx0_b8>:
I_lbu_cg_cp_rs1_nx0_b8:
  lbu x31, 1591(x8) # perform load (0x11935558)
     158:	63744f83          	lbu	x31,1591(x8)
  # Check if x31 contains the expected result. x25 is the signature ptr, x14 is the link ptr, x13 is a temp reg.
  RVTEST_SIGUPD(x25, x14, x13, x31, I_lbu_cg_cp_rs1_nx0_b8, I_lbu_cg_cp_rs1_nx0_b8_str)
     15c:	000ca683          	lw	x13,0(x25)
     160:	01f68863          	beq	x13,x31,170 <I_lbu_cg_cp_rs1_nx0_b8+0x18>
     164:	3980176f          	jal	x14,14fc <failedtest_x14_x13>
     168:	00000158          	.word	0x00000158
     16c:	00004463          	.word	0x00004463
     170:	004c8c93          	addi	x25,x25,4
  addi x15, x15, SIG_STRIDE # increment data_ptr
     174:	00478793          	addi	x15,x15,4

# Testcase cp_rs1_nx0 (Test source rs1 = x9)
  addi x9, x15, -1454 # copy data_ptr to rs1 and adjust for offset
     178:	a5278493          	addi	x9,x15,-1454

0000017c <I_lbu_cg_cp_rs1_nx0_b9>:
I_lbu_cg_cp_rs1_nx0_b9:
  lbu x7, 1454(x9) # perform load (0xd76058bc)
     17c:	5ae4c383          	lbu	x7,1454(x9)
  # Check if x7 contains the expected result. x25 is the signature ptr, x14 is the link ptr, x13 is a temp reg.
  RVTEST_SIGUPD(x25, x14, x13, x7, I_lbu_cg_cp_rs1_nx0_b9, I_lbu_cg_cp_rs1_nx0_b9_str)
     180:	000ca683          	lw	x13,0(x25)
     184:	00768863          	beq	x13,x7,194 <I_lbu_cg_cp_rs1_nx0_b9+0x18>
     188:	3740176f          	jal	x14,14fc <failedtest_x14_x13>
     18c:	0000017c          	.word	0x0000017c
     190:	00004494          	.word	0x00004494
     194:	004c8c93          	addi	x25,x25,4
  addi x15, x15, SIG_STRIDE # increment data_ptr
     198:	00478793          	addi	x15,x15,4

# Testcase cp_rs1_nx0 (Test source rs1 = x10)
  addi x10, x15, -1858 # copy data_ptr to rs1 and adjust for offset
     19c:	8be78513          	addi	x10,x15,-1858

000001a0 <I_lbu_cg_cp_rs1_nx0_b10>:
I_lbu_cg_cp_rs1_nx0_b10:
  lbu x16, 1858(x10) # perform load (0x9a9418c5)
     1a0:	74254803          	lbu	x16,1858(x10)
  # Check if x16 contains the expected result. x25 is the signature ptr, x14 is the link ptr, x13 is a temp reg.
  RVTEST_SIGUPD(x25, x14, x13, x16, I_lbu_cg_cp_rs1_nx0_b10, I_lbu_cg_cp_rs1_nx0_b10_str)
     1a4:	000ca683          	lw	x13,0(x25)
     1a8:	01068863          	beq	x13,x16,1b8 <I_lbu_cg_cp_rs1_nx0_b10+0x18>
     1ac:	3500176f          	jal	x14,14fc <failedtest_x14_x13>
     1b0:	000001a0          	.word	0x000001a0
     1b4:	000044c5          	.word	0x000044c5
     1b8:	004c8c93          	addi	x25,x25,4
  addi x15, x15, SIG_STRIDE # increment data_ptr
     1bc:	00478793          	addi	x15,x15,4

# Testcase cp_rs1_nx0 (Test source rs1 = x11)
  addi x11, x15, -729 # copy data_ptr to rs1 and adjust for offset
     1c0:	d2778593          	addi	x11,x15,-729

000001c4 <I_lbu_cg_cp_rs1_nx0_b11>:
I_lbu_cg_cp_rs1_nx0_b11:
  lbu x5, 729(x11) # perform load (0x10f09843)
     1c4:	2d95c283          	lbu	x5,729(x11)
  # Check if x5 contains the expected result. x25 is the signature ptr, x14 is the link ptr, x13 is a temp reg.
  RVTEST_SIGUPD(x25, x14, x13, x5, I_lbu_cg_cp_rs1_nx0_b11, I_lbu_cg_cp_rs1_nx0_b11_str)
     1c8:	000ca683          	lw	x13,0(x25)
     1cc:	00568863          	beq	x13,x5,1dc <I_lbu_cg_cp_rs1_nx0_b11+0x18>
     1d0:	32c0176f          	jal	x14,14fc <failedtest_x14_x13>
     1d4:	000001c4          	.word	0x000001c4
     1d8:	000044f8          	.word	0x000044f8
     1dc:	004c8c93          	addi	x25,x25,4
  addi x15, x15, SIG_STRIDE # increment data_ptr
     1e0:	00478793          	addi	x15,x15,4

# Testcase cp_rs1_nx0 (Test source rs1 = x12)
  addi x12, x15, 600 # copy data_ptr to rs1 and adjust for offset
     1e4:	25878613          	addi	x12,x15,600

000001e8 <I_lbu_cg_cp_rs1_nx0_b12>:
I_lbu_cg_cp_rs1_nx0_b12:
  lbu x28, -600(x12) # perform load (0xdd94f883)
     1e8:	da864e03          	lbu	x28,-600(x12)
  # Check if x28 contains the expected result. x25 is the signature ptr, x14 is the link ptr, x13 is a temp reg.
  RVTEST_SIGUPD(x25, x14, x13, x28, I_lbu_cg_cp_rs1_nx0_b12, I_lbu_cg_cp_rs1_nx0_b12_str)
     1ec:	000ca683          	lw	x13,0(x25)
     1f0:	01c68863          	beq	x13,x28,200 <I_lbu_cg_cp_rs1_nx0_b12+0x18>
     1f4:	3080176f          	jal	x14,14fc <failedtest_x14_x13>
     1f8:	000001e8          	.word	0x000001e8
     1fc:	0000452b          	.word	0x0000452b
     200:	004c8c93          	addi	x25,x25,4
  addi x15, x15, SIG_STRIDE # increment data_ptr
     204:	00478793          	addi	x15,x15,4

  mv x7, x13 # switch temp register to avoid conflict with test
     208:	00068393          	addi	x7,x13,0
  mv x8, x14 # switch link pointer register to avoid conflict with test
     20c:	00070413          	addi	x8,x14,0
# Testcase cp_rs1_nx0 (Test source rs1 = x13)
  addi x13, x15, -1116 # copy data_ptr to rs1 and adjust for offset
     210:	ba478693          	addi	x13,x15,-1116

00000214 <I_lbu_cg_cp_rs1_nx0_b13>:
I_lbu_cg_cp_rs1_nx0_b13:
  lbu x28, 1116(x13) # perform load (0xf5d62855)
     214:	45c6ce03          	lbu	x28,1116(x13)
  # Check if x28 contains the expected result. x25 is the signature ptr, x8 is the link ptr, x7 is a temp reg.
  RVTEST_SIGUPD(x25, x8, x7, x28, I_lbu_cg_cp_rs1_nx0_b13, I_lbu_cg_cp_rs1_nx0_b13_str)
     218:	000ca383          	lw	x7,0(x25)
     21c:	01c38863          	beq	x7,x28,22c <I_lbu_cg_cp_rs1_nx0_b13+0x18>
     220:	2b40146f          	jal	x8,14d4 <failedtest_x8_x7>
     224:	00000214          	.word	0x00000214
     228:	0000455e          	.word	0x0000455e
     22c:	004c8c93          	addi	x25,x25,4
  addi x15, x15, SIG_STRIDE # increment data_ptr
     230:	00478793          	addi	x15,x15,4

# Testcase cp_rs1_nx0 (Test source rs1 = x14)
  addi x14, x15, 1222 # copy data_ptr to rs1 and adjust for offset
     234:	4c678713          	addi	x14,x15,1222

00000238 <I_lbu_cg_cp_rs1_nx0_b14>:
I_lbu_cg_cp_rs1_nx0_b14:
  lbu x21, -1222(x14) # perform load (0xf6704a93)
     238:	b3a74a83          	lbu	x21,-1222(x14)
  # Check if x21 contains the expected result. x25 is the signature ptr, x8 is the link ptr, x7 is a temp reg.
  RVTEST_SIGUPD(x25, x8, x7, x21, I_lbu_cg_cp_rs1_nx0_b14, I_lbu_cg_cp_rs1_nx0_b14_str)
     23c:	000ca383          	lw	x7,0(x25)
     240:	01538863          	beq	x7,x21,250 <I_lbu_cg_cp_rs1_nx0_b14+0x18>
     244:	2900146f          	jal	x8,14d4 <failedtest_x8_x7>
     248:	00000238          	.word	0x00000238
     24c:	00004591          	.word	0x00004591
     250:	004c8c93          	addi	x25,x25,4
  addi x15, x15, SIG_STRIDE # increment data_ptr
     254:	00478793          	addi	x15,x15,4

  mv x30, x15 # switch data pointer register to avoid conflict with test
     258:	00078f13          	addi	x30,x15,0
# Testcase cp_rs1_nx0 (Test source rs1 = x15)
  addi x15, x30, -1927 # copy data_ptr to rs1 and adjust for offset
     25c:	879f0793          	addi	x15,x30,-1927

00000260 <I_lbu_cg_cp_rs1_nx0_b15>:
I_lbu_cg_cp_rs1_nx0_b15:
  lbu x10, 1927(x15) # perform load (0x06d6a601)
     260:	7877c503          	lbu	x10,1927(x15)
  # Check if x10 contains the expected result. x25 is the signature ptr, x8 is the link ptr, x7 is a temp reg.
  RVTEST_SIGUPD(x25, x8, x7, x10, I_lbu_cg_cp_rs1_nx0_b15, I_lbu_cg_cp_rs1_nx0_b15_str)
     264:	000ca383          	lw	x7,0(x25)
     268:	00a38863          	beq	x7,x10,278 <I_lbu_cg_cp_rs1_nx0_b15+0x18>
     26c:	2680146f          	jal	x8,14d4 <failedtest_x8_x7>
     270:	00000260          	.word	0x00000260
     274:	000045c4          	.word	0x000045c4
     278:	004c8c93          	addi	x25,x25,4
  addi x30, x30, SIG_STRIDE # increment data_ptr
     27c:	004f0f13          	addi	x30,x30,4

# Testcase cp_rs1_nx0 (Test source rs1 = x16)
  addi x16, x30, -987 # copy data_ptr to rs1 and adjust for offset
     280:	c25f0813          	addi	x16,x30,-987

00000284 <I_lbu_cg_cp_rs1_nx0_b16>:
I_lbu_cg_cp_rs1_nx0_b16:
  lbu x1, 987(x16) # perform load (0xd3dd196a)
     284:	3db84083          	lbu	x1,987(x16)
  # Check if x1 contains the expected result. x25 is the signature ptr, x8 is the link ptr, x7 is a temp reg.
  RVTEST_SIGUPD(x25, x8, x7, x1, I_lbu_cg_cp_rs1_nx0_b16, I_lbu_cg_cp_rs1_nx0_b16_str)
     288:	000ca383          	lw	x7,0(x25)
     28c:	00138863          	beq	x7,x1,29c <I_lbu_cg_cp_rs1_nx0_b16+0x18>
     290:	2440146f          	jal	x8,14d4 <failedtest_x8_x7>
     294:	00000284          	.word	0x00000284
     298:	000045f7          	.word	0x000045f7
     29c:	004c8c93          	addi	x25,x25,4
  addi x30, x30, SIG_STRIDE # increment data_ptr
     2a0:	004f0f13          	addi	x30,x30,4

# Testcase cp_rs1_nx0 (Test source rs1 = x17)
  addi x17, x30, -1023 # copy data_ptr to rs1 and adjust for offset
     2a4:	c01f0893          	addi	x17,x30,-1023

000002a8 <I_lbu_cg_cp_rs1_nx0_b17>:
I_lbu_cg_cp_rs1_nx0_b17:
  lbu x9, 1023(x17) # perform load (0x83625e4a)
     2a8:	3ff8c483          	lbu	x9,1023(x17)
  # Check if x9 contains the expected result. x25 is the signature ptr, x8 is the link ptr, x7 is a temp reg.
  RVTEST_SIGUPD(x25, x8, x7, x9, I_lbu_cg_cp_rs1_nx0_b17, I_lbu_cg_cp_rs1_nx0_b17_str)
     2ac:	000ca383          	lw	x7,0(x25)
     2b0:	00938863          	beq	x7,x9,2c0 <I_lbu_cg_cp_rs1_nx0_b17+0x18>
     2b4:	2200146f          	jal	x8,14d4 <failedtest_x8_x7>
     2b8:	000002a8          	.word	0x000002a8
     2bc:	0000462a          	.word	0x0000462a
     2c0:	004c8c93          	addi	x25,x25,4
  addi x30, x30, SIG_STRIDE # increment data_ptr
     2c4:	004f0f13          	addi	x30,x30,4

# Testcase cp_rs1_nx0 (Test source rs1 = x18)
  addi x18, x30, 1734 # copy data_ptr to rs1 and adjust for offset
     2c8:	6c6f0913          	addi	x18,x30,1734

000002cc <I_lbu_cg_cp_rs1_nx0_b18>:
I_lbu_cg_cp_rs1_nx0_b18:
  lbu x1, -1734(x18) # perform load (0x02c848a7)
     2cc:	93a94083          	lbu	x1,-1734(x18)
  # Check if x1 contains the expected result. x25 is the signature ptr, x8 is the link ptr, x7 is a temp reg.
  RVTEST_SIGUPD(x25, x8, x7, x1, I_lbu_cg_cp_rs1_nx0_b18, I_lbu_cg_cp_rs1_nx0_b18_str)
     2d0:	000ca383          	lw	x7,0(x25)
     2d4:	00138863          	beq	x7,x1,2e4 <I_lbu_cg_cp_rs1_nx0_b18+0x18>
     2d8:	1fc0146f          	jal	x8,14d4 <failedtest_x8_x7>
     2dc:	000002cc          	.word	0x000002cc
     2e0:	0000465d          	.word	0x0000465d
     2e4:	004c8c93          	addi	x25,x25,4
  addi x30, x30, SIG_STRIDE # increment data_ptr
     2e8:	004f0f13          	addi	x30,x30,4

# Testcase cp_rs1_nx0 (Test source rs1 = x19)
  addi x19, x30, -253 # copy data_ptr to rs1 and adjust for offset
     2ec:	f03f0993          	addi	x19,x30,-253

000002f0 <I_lbu_cg_cp_rs1_nx0_b19>:
I_lbu_cg_cp_rs1_nx0_b19:
  lbu x13, 253(x19) # perform load (0x64e6af8f)
     2f0:	0fd9c683          	lbu	x13,253(x19)
  # Check if x13 contains the expected result. x25 is the signature ptr, x8 is the link ptr, x7 is a temp reg.
  RVTEST_SIGUPD(x25, x8, x7, x13, I_lbu_cg_cp_rs1_nx0_b19, I_lbu_cg_cp_rs1_nx0_b19_str)
     2f4:	000ca383          	lw	x7,0(x25)
     2f8:	00d38863          	beq	x7,x13,308 <I_lbu_cg_cp_rs1_nx0_b19+0x18>
     2fc:	1d80146f          	jal	x8,14d4 <failedtest_x8_x7>
     300:	000002f0          	.word	0x000002f0
     304:	00004690          	.word	0x00004690
     308:	004c8c93          	addi	x25,x25,4
  addi x30, x30, SIG_STRIDE # increment data_ptr
     30c:	004f0f13          	addi	x30,x30,4

# Testcase cp_rs1_nx0 (Test source rs1 = x20)
  addi x20, x30, -145 # copy data_ptr to rs1 and adjust for offset
     310:	f6ff0a13          	addi	x20,x30,-145

00000314 <I_lbu_cg_cp_rs1_nx0_b20>:
I_lbu_cg_cp_rs1_nx0_b20:
  lbu x23, 145(x20) # perform load (0x9d452c2a)
     314:	091a4b83          	lbu	x23,145(x20)
  # Check if x23 contains the expected result. x25 is the signature ptr, x8 is the link ptr, x7 is a temp reg.
  RVTEST_SIGUPD(x25, x8, x7, x23, I_lbu_cg_cp_rs1_nx0_b20, I_lbu_cg_cp_rs1_nx0_b20_str)
     318:	000ca383          	lw	x7,0(x25)
     31c:	01738863          	beq	x7,x23,32c <I_lbu_cg_cp_rs1_nx0_b20+0x18>
     320:	1b40146f          	jal	x8,14d4 <failedtest_x8_x7>
     324:	00000314          	.word	0x00000314
     328:	000046c3          	.word	0x000046c3
     32c:	004c8c93          	addi	x25,x25,4
  addi x30, x30, SIG_STRIDE # increment data_ptr
     330:	004f0f13          	addi	x30,x30,4

# Testcase cp_rs1_nx0 (Test source rs1 = x21)
  addi x21, x30, -1957 # copy data_ptr to rs1 and adjust for offset
     334:	85bf0a93          	addi	x21,x30,-1957

00000338 <I_lbu_cg_cp_rs1_nx0_b21>:
I_lbu_cg_cp_rs1_nx0_b21:
  lbu x12, 1957(x21) # perform load (0xe1831b1e)
     338:	7a5ac603          	lbu	x12,1957(x21)
  # Check if x12 contains the expected result. x25 is the signature ptr, x8 is the link ptr, x7 is a temp reg.
  RVTEST_SIGUPD(x25, x8, x7, x12, I_lbu_cg_cp_rs1_nx0_b21, I_lbu_cg_cp_rs1_nx0_b21_str)
     33c:	000ca383          	lw	x7,0(x25)
     340:	00c38863          	beq	x7,x12,350 <I_lbu_cg_cp_rs1_nx0_b21+0x18>
     344:	1900146f          	jal	x8,14d4 <failedtest_x8_x7>
     348:	00000338          	.word	0x00000338
     34c:	000046f6          	.word	0x000046f6
     350:	004c8c93          	addi	x25,x25,4
  addi x30, x30, SIG_STRIDE # increment data_ptr
     354:	004f0f13          	addi	x30,x30,4

# Testcase cp_rs1_nx0 (Test source rs1 = x22)
  addi x22, x30, 1582 # copy data_ptr to rs1 and adjust for offset
     358:	62ef0b13          	addi	x22,x30,1582

0000035c <I_lbu_cg_cp_rs1_nx0_b22>:
I_lbu_cg_cp_rs1_nx0_b22:
  lbu x2, -1582(x22) # perform load (0x64d2e5d2)
     35c:	9d2b4103          	lbu	x2,-1582(x22)
  # Check if x2 contains the expected result. x25 is the signature ptr, x8 is the link ptr, x7 is a temp reg.
  RVTEST_SIGUPD(x25, x8, x7, x2, I_lbu_cg_cp_rs1_nx0_b22, I_lbu_cg_cp_rs1_nx0_b22_str)
     360:	000ca383          	lw	x7,0(x25)
     364:	00238863          	beq	x7,x2,374 <I_lbu_cg_cp_rs1_nx0_b22+0x18>
     368:	16c0146f          	jal	x8,14d4 <failedtest_x8_x7>
     36c:	0000035c          	.word	0x0000035c
     370:	00004729          	.word	0x00004729
     374:	004c8c93          	addi	x25,x25,4
  addi x30, x30, SIG_STRIDE # increment data_ptr
     378:	004f0f13          	addi	x30,x30,4

# Testcase cp_rs1_nx0 (Test source rs1 = x23)
  addi x23, x30, 660 # copy data_ptr to rs1 and adjust for offset
     37c:	294f0b93          	addi	x23,x30,660

00000380 <I_lbu_cg_cp_rs1_nx0_b23>:
I_lbu_cg_cp_rs1_nx0_b23:
  lbu x22, -660(x23) # perform load (0xab6a2d27)
     380:	d6cbcb03          	lbu	x22,-660(x23)
  # Check if x22 contains the expected result. x25 is the signature ptr, x8 is the link ptr, x7 is a temp reg.
  RVTEST_SIGUPD(x25, x8, x7, x22, I_lbu_cg_cp_rs1_nx0_b23, I_lbu_cg_cp_rs1_nx0_b23_str)
     384:	000ca383          	lw	x7,0(x25)
     388:	01638863          	beq	x7,x22,398 <I_lbu_cg_cp_rs1_nx0_b23+0x18>
     38c:	1480146f          	jal	x8,14d4 <failedtest_x8_x7>
     390:	00000380          	.word	0x00000380
     394:	0000475c          	.word	0x0000475c
     398:	004c8c93          	addi	x25,x25,4
  addi x30, x30, SIG_STRIDE # increment data_ptr
     39c:	004f0f13          	addi	x30,x30,4

# Testcase cp_rs1_nx0 (Test source rs1 = x24)
  addi x24, x30, -1297 # copy data_ptr to rs1 and adjust for offset
     3a0:	aeff0c13          	addi	x24,x30,-1297

000003a4 <I_lbu_cg_cp_rs1_nx0_b24>:
I_lbu_cg_cp_rs1_nx0_b24:
  lbu x11, 1297(x24) # perform load (0xd86f9eda)
     3a4:	511c4583          	lbu	x11,1297(x24)
  # Check if x11 contains the expected result. x25 is the signature ptr, x8 is the link ptr, x7 is a temp reg.
  RVTEST_SIGUPD(x25, x8, x7, x11, I_lbu_cg_cp_rs1_nx0_b24, I_lbu_cg_cp_rs1_nx0_b24_str)
     3a8:	000ca383          	lw	x7,0(x25)
     3ac:	00b38863          	beq	x7,x11,3bc <I_lbu_cg_cp_rs1_nx0_b24+0x18>
     3b0:	1240146f          	jal	x8,14d4 <failedtest_x8_x7>
     3b4:	000003a4          	.word	0x000003a4
     3b8:	0000478f          	.word	0x0000478f
     3bc:	004c8c93          	addi	x25,x25,4
  addi x30, x30, SIG_STRIDE # increment data_ptr
     3c0:	004f0f13          	addi	x30,x30,4

  mv x29, x25 # switch signature pointer register to avoid conflict with test
     3c4:	000c8e93          	addi	x29,x25,0
# Testcase cp_rs1_nx0 (Test source rs1 = x25)
  addi x25, x30, -516 # copy data_ptr to rs1 and adjust for offset
     3c8:	dfcf0c93          	addi	x25,x30,-516

000003cc <I_lbu_cg_cp_rs1_nx0_b25>:
I_lbu_cg_cp_rs1_nx0_b25:
  lbu x6, 516(x25) # perform load (0xed4bdcef)
     3cc:	204cc303          	lbu	x6,516(x25)
  # Check if x6 contains the expected result. x29 is the signature ptr, x8 is the link ptr, x7 is a temp reg.
  RVTEST_SIGUPD(x29, x8, x7, x6, I_lbu_cg_cp_rs1_nx0_b25, I_lbu_cg_cp_rs1_nx0_b25_str)
     3d0:	000ea383          	lw	x7,0(x29)
     3d4:	00638863          	beq	x7,x6,3e4 <I_lbu_cg_cp_rs1_nx0_b25+0x18>
     3d8:	0fc0146f          	jal	x8,14d4 <failedtest_x8_x7>
     3dc:	000003cc          	.word	0x000003cc
     3e0:	000047c2          	.word	0x000047c2
     3e4:	004e8e93          	addi	x29,x29,4
  addi x30, x30, SIG_STRIDE # increment data_ptr
     3e8:	004f0f13          	addi	x30,x30,4

# Testcase cp_rs1_nx0 (Test source rs1 = x26)
  addi x26, x30, 1340 # copy data_ptr to rs1 and adjust for offset
     3ec:	53cf0d13          	addi	x26,x30,1340

000003f0 <I_lbu_cg_cp_rs1_nx0_b26>:
I_lbu_cg_cp_rs1_nx0_b26:
  lbu x25, -1340(x26) # perform load (0xde02e4f9)
     3f0:	ac4d4c83          	lbu	x25,-1340(x26)
  # Check if x25 contains the expected result. x29 is the signature ptr, x8 is the link ptr, x7 is a temp reg.
  RVTEST_SIGUPD(x29, x8, x7, x25, I_lbu_cg_cp_rs1_nx0_b26, I_lbu_cg_cp_rs1_nx0_b26_str)
     3f4:	000ea383          	lw	x7,0(x29)
     3f8:	01938863          	beq	x7,x25,408 <I_lbu_cg_cp_rs1_nx0_b26+0x18>
     3fc:	0d80146f          	jal	x8,14d4 <failedtest_x8_x7>
     400:	000003f0          	.word	0x000003f0
     404:	000047f5          	.word	0x000047f5
     408:	004e8e93          	addi	x29,x29,4
  addi x30, x30, SIG_STRIDE # increment data_ptr
     40c:	004f0f13          	addi	x30,x30,4

# Testcase cp_rs1_nx0 (Test source rs1 = x27)
  addi x27, x30, -891 # copy data_ptr to rs1 and adjust for offset
     410:	c85f0d93          	addi	x27,x30,-891

00000414 <I_lbu_cg_cp_rs1_nx0_b27>:
I_lbu_cg_cp_rs1_nx0_b27:
  lbu x25, 891(x27) # perform load (0xda4c0359)
     414:	37bdcc83          	lbu	x25,891(x27)
  # Check if x25 contains the expected result. x29 is the signature ptr, x8 is the link ptr, x7 is a temp reg.
  RVTEST_SIGUPD(x29, x8, x7, x25, I_lbu_cg_cp_rs1_nx0_b27, I_lbu_cg_cp_rs1_nx0_b27_str)
     418:	000ea383          	lw	x7,0(x29)
     41c:	01938863          	beq	x7,x25,42c <I_lbu_cg_cp_rs1_nx0_b27+0x18>
     420:	0b40146f          	jal	x8,14d4 <failedtest_x8_x7>
     424:	00000414          	.word	0x00000414
     428:	00004828          	.word	0x00004828
     42c:	004e8e93          	addi	x29,x29,4
  addi x30, x30, SIG_STRIDE # increment data_ptr
     430:	004f0f13          	addi	x30,x30,4

# Testcase cp_rs1_nx0 (Test source rs1 = x28)
  addi x28, x30, -1039 # copy data_ptr to rs1 and adjust for offset
     434:	bf1f0e13          	addi	x28,x30,-1039

00000438 <I_lbu_cg_cp_rs1_nx0_b28>:
I_lbu_cg_cp_rs1_nx0_b28:
  lbu x6, 1039(x28) # perform load (0x654b3c0e)
     438:	40fe4303          	lbu	x6,1039(x28)
  # Check if x6 contains the expected result. x29 is the signature ptr, x8 is the link ptr, x7 is a temp reg.
  RVTEST_SIGUPD(x29, x8, x7, x6, I_lbu_cg_cp_rs1_nx0_b28, I_lbu_cg_cp_rs1_nx0_b28_str)
     43c:	000ea383          	lw	x7,0(x29)
     440:	00638863          	beq	x7,x6,450 <I_lbu_cg_cp_rs1_nx0_b28+0x18>
     444:	0900146f          	jal	x8,14d4 <failedtest_x8_x7>
     448:	00000438          	.word	0x00000438
     44c:	0000485b          	.word	0x0000485b
     450:	004e8e93          	addi	x29,x29,4
  addi x30, x30, SIG_STRIDE # increment data_ptr
     454:	004f0f13          	addi	x30,x30,4

  mv x10, x29 # switch signature pointer register to avoid conflict with test
     458:	000e8513          	addi	x10,x29,0
# Testcase cp_rs1_nx0 (Test source rs1 = x29)
  addi x29, x30, 168 # copy data_ptr to rs1 and adjust for offset
     45c:	0a8f0e93          	addi	x29,x30,168

00000460 <I_lbu_cg_cp_rs1_nx0_b29>:
I_lbu_cg_cp_rs1_nx0_b29:
  lbu x17, -168(x29) # perform load (0xf1cac7dd)
     460:	f58ec883          	lbu	x17,-168(x29)
  # Check if x17 contains the expected result. x10 is the signature ptr, x8 is the link ptr, x7 is a temp reg.
  RVTEST_SIGUPD(x10, x8, x7, x17, I_lbu_cg_cp_rs1_nx0_b29, I_lbu_cg_cp_rs1_nx0_b29_str)
     464:	00052383          	lw	x7,0(x10)
     468:	01138863          	beq	x7,x17,478 <I_lbu_cg_cp_rs1_nx0_b29+0x18>
     46c:	0680146f          	jal	x8,14d4 <failedtest_x8_x7>
     470:	00000460          	.word	0x00000460
     474:	0000488e          	.word	0x0000488e
     478:	00450513          	addi	x10,x10,4
  addi x30, x30, SIG_STRIDE # increment data_ptr
     47c:	004f0f13          	addi	x30,x30,4

  mv x3, x30 # switch data pointer register to avoid conflict with test
     480:	000f0193          	addi	x3,x30,0
# Testcase cp_rs1_nx0 (Test source rs1 = x30)
  addi x30, x3, -245 # copy data_ptr to rs1 and adjust for offset
     484:	f0b18f13          	addi	x30,x3,-245

00000488 <I_lbu_cg_cp_rs1_nx0_b30>:
I_lbu_cg_cp_rs1_nx0_b30:
  lbu x22, 245(x30) # perform load (0x9d0f930f)
     488:	0f5f4b03          	lbu	x22,245(x30)
  # Check if x22 contains the expected result. x10 is the signature ptr, x8 is the link ptr, x7 is a temp reg.
  RVTEST_SIGUPD(x10, x8, x7, x22, I_lbu_cg_cp_rs1_nx0_b30, I_lbu_cg_cp_rs1_nx0_b30_str)
     48c:	00052383          	lw	x7,0(x10)
     490:	01638863          	beq	x7,x22,4a0 <I_lbu_cg_cp_rs1_nx0_b30+0x18>
     494:	0400146f          	jal	x8,14d4 <failedtest_x8_x7>
     498:	00000488          	.word	0x00000488
     49c:	000048c1          	.word	0x000048c1
     4a0:	00450513          	addi	x10,x10,4
  addi x3, x3, SIG_STRIDE # increment data_ptr
     4a4:	00418193          	addi	x3,x3,4

# Testcase cp_rs1_nx0 (Test source rs1 = x31)
  addi x31, x3, -314 # copy data_ptr to rs1 and adjust for offset
     4a8:	ec618f93          	addi	x31,x3,-314

000004ac <I_lbu_cg_cp_rs1_nx0_b31>:
I_lbu_cg_cp_rs1_nx0_b31:
  lbu x16, 314(x31) # perform load (0x3948682f)
     4ac:	13afc803          	lbu	x16,314(x31)
  # Check if x16 contains the expected result. x10 is the signature ptr, x8 is the link ptr, x7 is a temp reg.
  RVTEST_SIGUPD(x10, x8, x7, x16, I_lbu_cg_cp_rs1_nx0_b31, I_lbu_cg_cp_rs1_nx0_b31_str)
     4b0:	00052383          	lw	x7,0(x10)
     4b4:	01038863          	beq	x7,x16,4c4 <I_lbu_cg_cp_rs1_nx0_b31+0x18>
     4b8:	01c0146f          	jal	x8,14d4 <failedtest_x8_x7>
     4bc:	000004ac          	.word	0x000004ac
     4c0:	000048f4          	.word	0x000048f4
     4c4:	00450513          	addi	x10,x10,4
  addi x3, x3, SIG_STRIDE # increment data_ptr
     4c8:	00418193          	addi	x3,x3,4
/////////////////////////////////
// cp_rd
/////////////////////////////////

# Testcase cp_rd (Test destination rd = x0)
  addi x30, x3, 388 # copy data_ptr to rs1 and adjust for offset
     4cc:	18418f13          	addi	x30,x3,388

000004d0 <I_lbu_cg_cp_rd_b0>:
I_lbu_cg_cp_rd_b0:
  lbu x0, -388(x30) # perform load (0x77166442)
     4d0:	e7cf4003          	lbu	x0,-388(x30)
  # Check if x0 contains the expected result. x10 is the signature ptr, x8 is the link ptr, x7 is a temp reg.
  RVTEST_SIGUPD(x10, x8, x7, x0, I_lbu_cg_cp_rd_b0, I_lbu_cg_cp_rd_b0_str)
     4d4:	00052383          	lw	x7,0(x10)
     4d8:	00038863          	beq	x7,x0,4e8 <I_lbu_cg_cp_rd_b0+0x18>
     4dc:	7f90046f          	jal	x8,14d4 <failedtest_x8_x7>
     4e0:	000004d0          	.word	0x000004d0
     4e4:	00004927          	.word	0x00004927
     4e8:	00450513          	addi	x10,x10,4
  addi x3, x3, SIG_STRIDE # increment data_ptr
     4ec:	00418193          	addi	x3,x3,4

# Testcase cp_rd (Test destination rd = x1)
  addi x22, x3, -50 # copy data_ptr to rs1 and adjust for offset
     4f0:	fce18b13          	addi	x22,x3,-50

000004f4 <I_lbu_cg_cp_rd_b1>:
I_lbu_cg_cp_rd_b1:
  lbu x1, 50(x22) # perform load (0x7c1bc0f0)
     4f4:	032b4083          	lbu	x1,50(x22)
  # Check if x1 contains the expected result. x10 is the signature ptr, x8 is the link ptr, x7 is a temp reg.
  RVTEST_SIGUPD(x10, x8, x7, x1, I_lbu_cg_cp_rd_b1, I_lbu_cg_cp_rd_b1_str)
     4f8:	00052383          	lw	x7,0(x10)
     4fc:	00138863          	beq	x7,x1,50c <I_lbu_cg_cp_rd_b1+0x18>
     500:	7d50046f          	jal	x8,14d4 <failedtest_x8_x7>
     504:	000004f4          	.word	0x000004f4
     508:	00004954          	.word	0x00004954
     50c:	00450513          	addi	x10,x10,4
  addi x3, x3, SIG_STRIDE # increment data_ptr
     510:	00418193          	addi	x3,x3,4

# Testcase cp_rd (Test destination rd = x2)
  addi x19, x3, -199 # copy data_ptr to rs1 and adjust for offset
     514:	f3918993          	addi	x19,x3,-199

00000518 <I_lbu_cg_cp_rd_b2>:
I_lbu_cg_cp_rd_b2:
  lbu x2, 199(x19) # perform load (0xd84a08f3)
     518:	0c79c103          	lbu	x2,199(x19)
  # Check if x2 contains the expected result. x10 is the signature ptr, x8 is the link ptr, x7 is a temp reg.
  RVTEST_SIGUPD(x10, x8, x7, x2, I_lbu_cg_cp_rd_b2, I_lbu_cg_cp_rd_b2_str)
     51c:	00052383          	lw	x7,0(x10)
     520:	00238863          	beq	x7,x2,530 <I_lbu_cg_cp_rd_b2+0x18>
     524:	7b10046f          	jal	x8,14d4 <failedtest_x8_x7>
     528:	00000518          	.word	0x00000518
     52c:	00004981          	.word	0x00004981
     530:	00450513          	addi	x10,x10,4
  addi x3, x3, SIG_STRIDE # increment data_ptr
     534:	00418193          	addi	x3,x3,4

  mv x11, x3 # switch data pointer register to avoid conflict with test
     538:	00018593          	addi	x11,x3,0
# Testcase cp_rd (Test destination rd = x3)
  addi x24, x11, 117 # copy data_ptr to rs1 and adjust for offset
     53c:	07558c13          	addi	x24,x11,117

00000540 <I_lbu_cg_cp_rd_b3>:
I_lbu_cg_cp_rd_b3:
  lbu x3, -117(x24) # perform load (0xdcfd805a)
     540:	f8bc4183          	lbu	x3,-117(x24)
  # Check if x3 contains the expected result. x10 is the signature ptr, x8 is the link ptr, x7 is a temp reg.
  RVTEST_SIGUPD(x10, x8, x7, x3, I_lbu_cg_cp_rd_b3, I_lbu_cg_cp_rd_b3_str)
     544:	00052383          	lw	x7,0(x10)
     548:	00338863          	beq	x7,x3,558 <I_lbu_cg_cp_rd_b3+0x18>
     54c:	7890046f          	jal	x8,14d4 <failedtest_x8_x7>
     550:	00000540          	.word	0x00000540
     554:	000049ae          	.word	0x000049ae
     558:	00450513          	addi	x10,x10,4
  addi x11, x11, SIG_STRIDE # increment data_ptr
     55c:	00458593          	addi	x11,x11,4

# Testcase cp_rd (Test destination rd = x4)
  addi x24, x11, 2008 # copy data_ptr to rs1 and adjust for offset
     560:	7d858c13          	addi	x24,x11,2008

00000564 <I_lbu_cg_cp_rd_b4>:
I_lbu_cg_cp_rd_b4:
  lbu x4, -2008(x24) # perform load (0xf5a1124c)
     564:	828c4203          	lbu	x4,-2008(x24)
  # Check if x4 contains the expected result. x10 is the signature ptr, x8 is the link ptr, x7 is a temp reg.
  RVTEST_SIGUPD(x10, x8, x7, x4, I_lbu_cg_cp_rd_b4, I_lbu_cg_cp_rd_b4_str)
     568:	00052383          	lw	x7,0(x10)
     56c:	00438863          	beq	x7,x4,57c <I_lbu_cg_cp_rd_b4+0x18>
     570:	7650046f          	jal	x8,14d4 <failedtest_x8_x7>
     574:	00000564          	.word	0x00000564
     578:	000049db          	.word	0x000049db
     57c:	00450513          	addi	x10,x10,4
  addi x11, x11, SIG_STRIDE # increment data_ptr
     580:	00458593          	addi	x11,x11,4

# Testcase cp_rd (Test destination rd = x5)
  addi x27, x11, 948 # copy data_ptr to rs1 and adjust for offset
     584:	3b458d93          	addi	x27,x11,948

00000588 <I_lbu_cg_cp_rd_b5>:
I_lbu_cg_cp_rd_b5:
  lbu x5, -948(x27) # perform load (0x1105d003)
     588:	c4cdc283          	lbu	x5,-948(x27)
  # Check if x5 contains the expected result. x10 is the signature ptr, x8 is the link ptr, x7 is a temp reg.
  RVTEST_SIGUPD(x10, x8, x7, x5, I_lbu_cg_cp_rd_b5, I_lbu_cg_cp_rd_b5_str)
     58c:	00052383          	lw	x7,0(x10)
     590:	00538863          	beq	x7,x5,5a0 <I_lbu_cg_cp_rd_b5+0x18>
     594:	7410046f          	jal	x8,14d4 <failedtest_x8_x7>
     598:	00000588          	.word	0x00000588
     59c:	00004a08          	.word	0x00004a08
     5a0:	00450513          	addi	x10,x10,4
  addi x11, x11, SIG_STRIDE # increment data_ptr
     5a4:	00458593          	addi	x11,x11,4

# Testcase cp_rd (Test destination rd = x6)
  addi x19, x11, -921 # copy data_ptr to rs1 and adjust for offset
     5a8:	c6758993          	addi	x19,x11,-921

000005ac <I_lbu_cg_cp_rd_b6>:
I_lbu_cg_cp_rd_b6:
  lbu x6, 921(x19) # perform load (0x6d3d4688)
     5ac:	3999c303          	lbu	x6,921(x19)
  # Check if x6 contains the expected result. x10 is the signature ptr, x8 is the link ptr, x7 is a temp reg.
  RVTEST_SIGUPD(x10, x8, x7, x6, I_lbu_cg_cp_rd_b6, I_lbu_cg_cp_rd_b6_str)
     5b0:	00052383          	lw	x7,0(x10)
     5b4:	00638863          	beq	x7,x6,5c4 <I_lbu_cg_cp_rd_b6+0x18>
     5b8:	71d0046f          	jal	x8,14d4 <failedtest_x8_x7>
     5bc:	000005ac          	.word	0x000005ac
     5c0:	00004a35          	.word	0x00004a35
     5c4:	00450513          	addi	x10,x10,4
  addi x11, x11, SIG_STRIDE # increment data_ptr
     5c8:	00458593          	addi	x11,x11,4

  mv x13, x7 # switch temp register to avoid conflict with test
     5cc:	00038693          	addi	x13,x7,0
  mv x14, x8 # switch link pointer register to avoid conflict with test
     5d0:	00040713          	addi	x14,x8,0
# Testcase cp_rd (Test destination rd = x7)
  addi x1, x11, -1318 # copy data_ptr to rs1 and adjust for offset
     5d4:	ada58093          	addi	x1,x11,-1318

000005d8 <I_lbu_cg_cp_rd_b7>:
I_lbu_cg_cp_rd_b7:
  lbu x7, 1318(x1) # perform load (0xf404c720)
     5d8:	5260c383          	lbu	x7,1318(x1)
  # Check if x7 contains the expected result. x10 is the signature ptr, x14 is the link ptr, x13 is a temp reg.
  RVTEST_SIGUPD(x10, x14, x13, x7, I_lbu_cg_cp_rd_b7, I_lbu_cg_cp_rd_b7_str)
     5dc:	00052683          	lw	x13,0(x10)
     5e0:	00768863          	beq	x13,x7,5f0 <I_lbu_cg_cp_rd_b7+0x18>
     5e4:	7190076f          	jal	x14,14fc <failedtest_x14_x13>
     5e8:	000005d8          	.word	0x000005d8
     5ec:	00004a62          	.word	0x00004a62
     5f0:	00450513          	addi	x10,x10,4
  addi x11, x11, SIG_STRIDE # increment data_ptr
     5f4:	00458593          	addi	x11,x11,4

# Testcase cp_rd (Test destination rd = x8)
  addi x7, x11, 70 # copy data_ptr to rs1 and adjust for offset
     5f8:	04658393          	addi	x7,x11,70

000005fc <I_lbu_cg_cp_rd_b8>:
I_lbu_cg_cp_rd_b8:
  lbu x8, -70(x7) # perform load (0xb331b1bf)
     5fc:	fba3c403          	lbu	x8,-70(x7)
  # Check if x8 contains the expected result. x10 is the signature ptr, x14 is the link ptr, x13 is a temp reg.
  RVTEST_SIGUPD(x10, x14, x13, x8, I_lbu_cg_cp_rd_b8, I_lbu_cg_cp_rd_b8_str)
     600:	00052683          	lw	x13,0(x10)
     604:	00868863          	beq	x13,x8,614 <I_lbu_cg_cp_rd_b8+0x18>
     608:	6f50076f          	jal	x14,14fc <failedtest_x14_x13>
     60c:	000005fc          	.word	0x000005fc
     610:	00004a8f          	.word	0x00004a8f
     614:	00450513          	addi	x10,x10,4
  addi x11, x11, SIG_STRIDE # increment data_ptr
     618:	00458593          	addi	x11,x11,4

# Testcase cp_rd (Test destination rd = x9)
  addi x8, x11, -836 # copy data_ptr to rs1 and adjust for offset
     61c:	cbc58413          	addi	x8,x11,-836

00000620 <I_lbu_cg_cp_rd_b9>:
I_lbu_cg_cp_rd_b9:
  lbu x9, 836(x8) # perform load (0x468544ce)
     620:	34444483          	lbu	x9,836(x8)
  # Check if x9 contains the expected result. x10 is the signature ptr, x14 is the link ptr, x13 is a temp reg.
  RVTEST_SIGUPD(x10, x14, x13, x9, I_lbu_cg_cp_rd_b9, I_lbu_cg_cp_rd_b9_str)
     624:	00052683          	lw	x13,0(x10)
     628:	00968863          	beq	x13,x9,638 <I_lbu_cg_cp_rd_b9+0x18>
     62c:	6d10076f          	jal	x14,14fc <failedtest_x14_x13>
     630:	00000620          	.word	0x00000620
     634:	00004abc          	.word	0x00004abc
     638:	00450513          	addi	x10,x10,4
  addi x11, x11, SIG_STRIDE # increment data_ptr
     63c:	00458593          	addi	x11,x11,4

  mv x6, x10 # switch signature pointer register to avoid conflict with test
     640:	00050313          	addi	x6,x10,0
# Testcase cp_rd (Test destination rd = x10)
  addi x5, x11, 1159 # copy data_ptr to rs1 and adjust for offset
     644:	48758293          	addi	x5,x11,1159

00000648 <I_lbu_cg_cp_rd_b10>:
I_lbu_cg_cp_rd_b10:
  lbu x10, -1159(x5) # perform load (0xa76d69ae)
     648:	b792c503          	lbu	x10,-1159(x5)
  # Check if x10 contains the expected result. x6 is the signature ptr, x14 is the link ptr, x13 is a temp reg.
  RVTEST_SIGUPD(x6, x14, x13, x10, I_lbu_cg_cp_rd_b10, I_lbu_cg_cp_rd_b10_str)
     64c:	00032683          	lw	x13,0(x6)
     650:	00a68863          	beq	x13,x10,660 <I_lbu_cg_cp_rd_b10+0x18>
     654:	6a90076f          	jal	x14,14fc <failedtest_x14_x13>
     658:	00000648          	.word	0x00000648
     65c:	00004ae9          	.word	0x00004ae9
     660:	00430313          	addi	x6,x6,4
  addi x11, x11, SIG_STRIDE # increment data_ptr
     664:	00458593          	addi	x11,x11,4

  mv x20, x11 # switch data pointer register to avoid conflict with test
     668:	00058a13          	addi	x20,x11,0
# Testcase cp_rd (Test destination rd = x11)
  addi x7, x20, 1798 # copy data_ptr to rs1 and adjust for offset
     66c:	706a0393          	addi	x7,x20,1798

00000670 <I_lbu_cg_cp_rd_b11>:
I_lbu_cg_cp_rd_b11:
  lbu x11, -1798(x7) # perform load (0xac1ba218)
     670:	8fa3c583          	lbu	x11,-1798(x7)
  # Check if x11 contains the expected result. x6 is the signature ptr, x14 is the link ptr, x13 is a temp reg.
  RVTEST_SIGUPD(x6, x14, x13, x11, I_lbu_cg_cp_rd_b11, I_lbu_cg_cp_rd_b11_str)
     674:	00032683          	lw	x13,0(x6)
     678:	00b68863          	beq	x13,x11,688 <I_lbu_cg_cp_rd_b11+0x18>
     67c:	6810076f          	jal	x14,14fc <failedtest_x14_x13>
     680:	00000670          	.word	0x00000670
     684:	00004b17          	.word	0x00004b17
     688:	00430313          	addi	x6,x6,4
  addi x20, x20, SIG_STRIDE # increment data_ptr
     68c:	004a0a13          	addi	x20,x20,4

# Testcase cp_rd (Test destination rd = x12)
  addi x25, x20, 735 # copy data_ptr to rs1 and adjust for offset
     690:	2dfa0c93          	addi	x25,x20,735

00000694 <I_lbu_cg_cp_rd_b12>:
I_lbu_cg_cp_rd_b12:
  lbu x12, -735(x25) # perform load (0xbc459858)
     694:	d21cc603          	lbu	x12,-735(x25)
  # Check if x12 contains the expected result. x6 is the signature ptr, x14 is the link ptr, x13 is a temp reg.
  RVTEST_SIGUPD(x6, x14, x13, x12, I_lbu_cg_cp_rd_b12, I_lbu_cg_cp_rd_b12_str)
     698:	00032683          	lw	x13,0(x6)
     69c:	00c68863          	beq	x13,x12,6ac <I_lbu_cg_cp_rd_b12+0x18>
     6a0:	65d0076f          	jal	x14,14fc <failedtest_x14_x13>
     6a4:	00000694          	.word	0x00000694
     6a8:	00004b45          	.word	0x00004b45
     6ac:	00430313          	addi	x6,x6,4
  addi x20, x20, SIG_STRIDE # increment data_ptr
     6b0:	004a0a13          	addi	x20,x20,4

  mv x7, x13 # switch temp register to avoid conflict with test
     6b4:	00068393          	addi	x7,x13,0
  mv x8, x14 # switch link pointer register to avoid conflict with test
     6b8:	00070413          	addi	x8,x14,0
# Testcase cp_rd (Test destination rd = x13)
  addi x14, x20, 547 # copy data_ptr to rs1 and adjust for offset
     6bc:	223a0713          	addi	x14,x20,547

000006c0 <I_lbu_cg_cp_rd_b13>:
I_lbu_cg_cp_rd_b13:
  lbu x13, -547(x14) # perform load (0x8b8879ce)
     6c0:	ddd74683          	lbu	x13,-547(x14)
  # Check if x13 contains the expected result. x6 is the signature ptr, x8 is the link ptr, x7 is a temp reg.
  RVTEST_SIGUPD(x6, x8, x7, x13, I_lbu_cg_cp_rd_b13, I_lbu_cg_cp_rd_b13_str)
     6c4:	00032383          	lw	x7,0(x6)
     6c8:	00d38863          	beq	x7,x13,6d8 <I_lbu_cg_cp_rd_b13+0x18>
     6cc:	6090046f          	jal	x8,14d4 <failedtest_x8_x7>
     6d0:	000006c0          	.word	0x000006c0
     6d4:	00004b73          	.word	0x00004b73
     6d8:	00430313          	addi	x6,x6,4
  addi x20, x20, SIG_STRIDE # increment data_ptr
     6dc:	004a0a13          	addi	x20,x20,4

# Testcase cp_rd (Test destination rd = x14)
  addi x29, x20, -1969 # copy data_ptr to rs1 and adjust for offset
     6e0:	84fa0e93          	addi	x29,x20,-1969

000006e4 <I_lbu_cg_cp_rd_b14>:
I_lbu_cg_cp_rd_b14:
  lbu x14, 1969(x29) # perform load (0x4a9b481f)
     6e4:	7b1ec703          	lbu	x14,1969(x29)
  # Check if x14 contains the expected result. x6 is the signature ptr, x8 is the link ptr, x7 is a temp reg.
  RVTEST_SIGUPD(x6, x8, x7, x14, I_lbu_cg_cp_rd_b14, I_lbu_cg_cp_rd_b14_str)
     6e8:	00032383          	lw	x7,0(x6)
     6ec:	00e38863          	beq	x7,x14,6fc <I_lbu_cg_cp_rd_b14+0x18>
     6f0:	5e50046f          	jal	x8,14d4 <failedtest_x8_x7>
     6f4:	000006e4          	.word	0x000006e4
     6f8:	00004ba1          	.word	0x00004ba1
     6fc:	00430313          	addi	x6,x6,4
  addi x20, x20, SIG_STRIDE # increment data_ptr
     700:	004a0a13          	addi	x20,x20,4

# Testcase cp_rd (Test destination rd = x15)
  addi x19, x20, -1350 # copy data_ptr to rs1 and adjust for offset
     704:	abaa0993          	addi	x19,x20,-1350

00000708 <I_lbu_cg_cp_rd_b15>:
I_lbu_cg_cp_rd_b15:
  lbu x15, 1350(x19) # perform load (0x1b2f47bc)
     708:	5469c783          	lbu	x15,1350(x19)
  # Check if x15 contains the expected result. x6 is the signature ptr, x8 is the link ptr, x7 is a temp reg.
  RVTEST_SIGUPD(x6, x8, x7, x15, I_lbu_cg_cp_rd_b15, I_lbu_cg_cp_rd_b15_str)
     70c:	00032383          	lw	x7,0(x6)
     710:	00f38863          	beq	x7,x15,720 <I_lbu_cg_cp_rd_b15+0x18>
     714:	5c10046f          	jal	x8,14d4 <failedtest_x8_x7>
     718:	00000708          	.word	0x00000708
     71c:	00004bcf          	.word	0x00004bcf
     720:	00430313          	addi	x6,x6,4
  addi x20, x20, SIG_STRIDE # increment data_ptr
     724:	004a0a13          	addi	x20,x20,4

# Testcase cp_rd (Test destination rd = x16)
  addi x17, x20, -721 # copy data_ptr to rs1 and adjust for offset
     728:	d2fa0893          	addi	x17,x20,-721

0000072c <I_lbu_cg_cp_rd_b16>:
I_lbu_cg_cp_rd_b16:
  lbu x16, 721(x17) # perform load (0x4f27e2d5)
     72c:	2d18c803          	lbu	x16,721(x17)
  # Check if x16 contains the expected result. x6 is the signature ptr, x8 is the link ptr, x7 is a temp reg.
  RVTEST_SIGUPD(x6, x8, x7, x16, I_lbu_cg_cp_rd_b16, I_lbu_cg_cp_rd_b16_str)
     730:	00032383          	lw	x7,0(x6)
     734:	01038863          	beq	x7,x16,744 <I_lbu_cg_cp_rd_b16+0x18>
     738:	59d0046f          	jal	x8,14d4 <failedtest_x8_x7>
     73c:	0000072c          	.word	0x0000072c
     740:	00004bfd          	.word	0x00004bfd
     744:	00430313          	addi	x6,x6,4
  addi x20, x20, SIG_STRIDE # increment data_ptr
     748:	004a0a13          	addi	x20,x20,4

# Testcase cp_rd (Test destination rd = x17)
  addi x31, x20, 1583 # copy data_ptr to rs1 and adjust for offset
     74c:	62fa0f93          	addi	x31,x20,1583

00000750 <I_lbu_cg_cp_rd_b17>:
I_lbu_cg_cp_rd_b17:
  lbu x17, -1583(x31) # perform load (0xd919adea)
     750:	9d1fc883          	lbu	x17,-1583(x31)
  # Check if x17 contains the expected result. x6 is the signature ptr, x8 is the link ptr, x7 is a temp reg.
  RVTEST_SIGUPD(x6, x8, x7, x17, I_lbu_cg_cp_rd_b17, I_lbu_cg_cp_rd_b17_str)
     754:	00032383          	lw	x7,0(x6)
     758:	01138863          	beq	x7,x17,768 <I_lbu_cg_cp_rd_b17+0x18>
     75c:	5790046f          	jal	x8,14d4 <failedtest_x8_x7>
     760:	00000750          	.word	0x00000750
     764:	00004c2b          	.word	0x00004c2b
     768:	00430313          	addi	x6,x6,4
  addi x20, x20, SIG_STRIDE # increment data_ptr
     76c:	004a0a13          	addi	x20,x20,4

# Testcase cp_rd (Test destination rd = x18)
  addi x17, x20, -605 # copy data_ptr to rs1 and adjust for offset
     770:	da3a0893          	addi	x17,x20,-605

00000774 <I_lbu_cg_cp_rd_b18>:
I_lbu_cg_cp_rd_b18:
  lbu x18, 605(x17) # perform load (0xdeb8da4a)
     774:	25d8c903          	lbu	x18,605(x17)
  # Check if x18 contains the expected result. x6 is the signature ptr, x8 is the link ptr, x7 is a temp reg.
  RVTEST_SIGUPD(x6, x8, x7, x18, I_lbu_cg_cp_rd_b18, I_lbu_cg_cp_rd_b18_str)
     778:	00032383          	lw	x7,0(x6)
     77c:	01238863          	beq	x7,x18,78c <I_lbu_cg_cp_rd_b18+0x18>
     780:	5550046f          	jal	x8,14d4 <failedtest_x8_x7>
     784:	00000774          	.word	0x00000774
     788:	00004c59          	.word	0x00004c59
     78c:	00430313          	addi	x6,x6,4
  addi x20, x20, SIG_STRIDE # increment data_ptr
     790:	004a0a13          	addi	x20,x20,4

# Testcase cp_rd (Test destination rd = x19)
  addi x12, x20, -1334 # copy data_ptr to rs1 and adjust for offset
     794:	acaa0613          	addi	x12,x20,-1334

00000798 <I_lbu_cg_cp_rd_b19>:
I_lbu_cg_cp_rd_b19:
  lbu x19, 1334(x12) # perform load (0x8cefdd06)
     798:	53664983          	lbu	x19,1334(x12)
  # Check if x19 contains the expected result. x6 is the signature ptr, x8 is the link ptr, x7 is a temp reg.
  RVTEST_SIGUPD(x6, x8, x7, x19, I_lbu_cg_cp_rd_b19, I_lbu_cg_cp_rd_b19_str)
     79c:	00032383          	lw	x7,0(x6)
     7a0:	01338863          	beq	x7,x19,7b0 <I_lbu_cg_cp_rd_b19+0x18>
     7a4:	5310046f          	jal	x8,14d4 <failedtest_x8_x7>
     7a8:	00000798          	.word	0x00000798
     7ac:	00004c87          	.word	0x00004c87
     7b0:	00430313          	addi	x6,x6,4
  addi x20, x20, SIG_STRIDE # increment data_ptr
     7b4:	004a0a13          	addi	x20,x20,4

  mv x9, x20 # switch data pointer register to avoid conflict with test
     7b8:	000a0493          	addi	x9,x20,0
# Testcase cp_rd (Test destination rd = x20)
  addi x17, x9, -843 # copy data_ptr to rs1 and adjust for offset
     7bc:	cb548893          	addi	x17,x9,-843

000007c0 <I_lbu_cg_cp_rd_b20>:
I_lbu_cg_cp_rd_b20:
  lbu x20, 843(x17) # perform load (0xc3a4e3d4)
     7c0:	34b8ca03          	lbu	x20,843(x17)
  # Check if x20 contains the expected result. x6 is the signature ptr, x8 is the link ptr, x7 is a temp reg.
  RVTEST_SIGUPD(x6, x8, x7, x20, I_lbu_cg_cp_rd_b20, I_lbu_cg_cp_rd_b20_str)
     7c4:	00032383          	lw	x7,0(x6)
     7c8:	01438863          	beq	x7,x20,7d8 <I_lbu_cg_cp_rd_b20+0x18>
     7cc:	5090046f          	jal	x8,14d4 <failedtest_x8_x7>
     7d0:	000007c0          	.word	0x000007c0
     7d4:	00004cb5          	.word	0x00004cb5
     7d8:	00430313          	addi	x6,x6,4
  addi x9, x9, SIG_STRIDE # increment data_ptr
     7dc:	00448493          	addi	x9,x9,4

# Testcase cp_rd (Test destination rd = x21)
  addi x5, x9, 1003 # copy data_ptr to rs1 and adjust for offset
     7e0:	3eb48293          	addi	x5,x9,1003

000007e4 <I_lbu_cg_cp_rd_b21>:
I_lbu_cg_cp_rd_b21:
  lbu x21, -1003(x5) # perform load (0x659cd5f6)
     7e4:	c152ca83          	lbu	x21,-1003(x5)
  # Check if x21 contains the expected result. x6 is the signature ptr, x8 is the link ptr, x7 is a temp reg.
  RVTEST_SIGUPD(x6, x8, x7, x21, I_lbu_cg_cp_rd_b21, I_lbu_cg_cp_rd_b21_str)
     7e8:	00032383          	lw	x7,0(x6)
     7ec:	01538863          	beq	x7,x21,7fc <I_lbu_cg_cp_rd_b21+0x18>
     7f0:	4e50046f          	jal	x8,14d4 <failedtest_x8_x7>
     7f4:	000007e4          	.word	0x000007e4
     7f8:	00004ce3          	.word	0x00004ce3
     7fc:	00430313          	addi	x6,x6,4
  addi x9, x9, SIG_STRIDE # increment data_ptr
     800:	00448493          	addi	x9,x9,4

# Testcase cp_rd (Test destination rd = x22)
  addi x18, x9, 1571 # copy data_ptr to rs1 and adjust for offset
     804:	62348913          	addi	x18,x9,1571

00000808 <I_lbu_cg_cp_rd_b22>:
I_lbu_cg_cp_rd_b22:
  lbu x22, -1571(x18) # perform load (0x88f1b4d8)
     808:	9dd94b03          	lbu	x22,-1571(x18)
  # Check if x22 contains the expected result. x6 is the signature ptr, x8 is the link ptr, x7 is a temp reg.
  RVTEST_SIGUPD(x6, x8, x7, x22, I_lbu_cg_cp_rd_b22, I_lbu_cg_cp_rd_b22_str)
     80c:	00032383          	lw	x7,0(x6)
     810:	01638863          	beq	x7,x22,820 <I_lbu_cg_cp_rd_b22+0x18>
     814:	4c10046f          	jal	x8,14d4 <failedtest_x8_x7>
     818:	00000808          	.word	0x00000808
     81c:	00004d11          	.word	0x00004d11
     820:	00430313          	addi	x6,x6,4
  addi x9, x9, SIG_STRIDE # increment data_ptr
     824:	00448493          	addi	x9,x9,4

# Testcase cp_rd (Test destination rd = x23)
  addi x18, x9, 1743 # copy data_ptr to rs1 and adjust for offset
     828:	6cf48913          	addi	x18,x9,1743

0000082c <I_lbu_cg_cp_rd_b23>:
I_lbu_cg_cp_rd_b23:
  lbu x23, -1743(x18) # perform load (0x2843f700)
     82c:	93194b83          	lbu	x23,-1743(x18)
  # Check if x23 contains the expected result. x6 is the signature ptr, x8 is the link ptr, x7 is a temp reg.
  RVTEST_SIGUPD(x6, x8, x7, x23, I_lbu_cg_cp_rd_b23, I_lbu_cg_cp_rd_b23_str)
     830:	00032383          	lw	x7,0(x6)
     834:	01738863          	beq	x7,x23,844 <I_lbu_cg_cp_rd_b23+0x18>
     838:	49d0046f          	jal	x8,14d4 <failedtest_x8_x7>
     83c:	0000082c          	.word	0x0000082c
     840:	00004d3f          	.word	0x00004d3f
     844:	00430313          	addi	x6,x6,4
  addi x9, x9, SIG_STRIDE # increment data_ptr
     848:	00448493          	addi	x9,x9,4

# Testcase cp_rd (Test destination rd = x24)
  addi x21, x9, 797 # copy data_ptr to rs1 and adjust for offset
     84c:	31d48a93          	addi	x21,x9,797

00000850 <I_lbu_cg_cp_rd_b24>:
I_lbu_cg_cp_rd_b24:
  lbu x24, -797(x21) # perform load (0x8e82546a)
     850:	ce3acc03          	lbu	x24,-797(x21)
  # Check if x24 contains the expected result. x6 is the signature ptr, x8 is the link ptr, x7 is a temp reg.
  RVTEST_SIGUPD(x6, x8, x7, x24, I_lbu_cg_cp_rd_b24, I_lbu_cg_cp_rd_b24_str)
     854:	00032383          	lw	x7,0(x6)
     858:	01838863          	beq	x7,x24,868 <I_lbu_cg_cp_rd_b24+0x18>
     85c:	4790046f          	jal	x8,14d4 <failedtest_x8_x7>
     860:	00000850          	.word	0x00000850
     864:	00004d6d          	.word	0x00004d6d
     868:	00430313          	addi	x6,x6,4
  addi x9, x9, SIG_STRIDE # increment data_ptr
     86c:	00448493          	addi	x9,x9,4

# Testcase cp_rd (Test destination rd = x25)
  addi x27, x9, -1100 # copy data_ptr to rs1 and adjust for offset
     870:	bb448d93          	addi	x27,x9,-1100

00000874 <I_lbu_cg_cp_rd_b25>:
I_lbu_cg_cp_rd_b25:
  lbu x25, 1100(x27) # perform load (0x537b1723)
     874:	44cdcc83          	lbu	x25,1100(x27)
  # Check if x25 contains the expected result. x6 is the signature ptr, x8 is the link ptr, x7 is a temp reg.
  RVTEST_SIGUPD(x6, x8, x7, x25, I_lbu_cg_cp_rd_b25, I_lbu_cg_cp_rd_b25_str)
     878:	00032383          	lw	x7,0(x6)
     87c:	01938863          	beq	x7,x25,88c <I_lbu_cg_cp_rd_b25+0x18>
     880:	4550046f          	jal	x8,14d4 <failedtest_x8_x7>
     884:	00000874          	.word	0x00000874
     888:	00004d9b          	.word	0x00004d9b
     88c:	00430313          	addi	x6,x6,4
  addi x9, x9, SIG_STRIDE # increment data_ptr
     890:	00448493          	addi	x9,x9,4

# Testcase cp_rd (Test destination rd = x26)
  addi x2, x9, 1073 # copy data_ptr to rs1 and adjust for offset
     894:	43148113          	addi	x2,x9,1073

00000898 <I_lbu_cg_cp_rd_b26>:
I_lbu_cg_cp_rd_b26:
  lbu x26, -1073(x2) # perform load (0x0875fe63)
     898:	bcf14d03          	lbu	x26,-1073(x2)
  # Check if x26 contains the expected result. x6 is the signature ptr, x8 is the link ptr, x7 is a temp reg.
  RVTEST_SIGUPD(x6, x8, x7, x26, I_lbu_cg_cp_rd_b26, I_lbu_cg_cp_rd_b26_str)
     89c:	00032383          	lw	x7,0(x6)
     8a0:	01a38863          	beq	x7,x26,8b0 <I_lbu_cg_cp_rd_b26+0x18>
     8a4:	4310046f          	jal	x8,14d4 <failedtest_x8_x7>
     8a8:	00000898          	.word	0x00000898
     8ac:	00004dc9          	.word	0x00004dc9
     8b0:	00430313          	addi	x6,x6,4
  addi x9, x9, SIG_STRIDE # increment data_ptr
     8b4:	00448493          	addi	x9,x9,4

# Testcase cp_rd (Test destination rd = x27)
  addi x23, x9, -438 # copy data_ptr to rs1 and adjust for offset
     8b8:	e4a48b93          	addi	x23,x9,-438

000008bc <I_lbu_cg_cp_rd_b27>:
I_lbu_cg_cp_rd_b27:
  lbu x27, 438(x23) # perform load (0x15008457)
     8bc:	1b6bcd83          	lbu	x27,438(x23)
  # Check if x27 contains the expected result. x6 is the signature ptr, x8 is the link ptr, x7 is a temp reg.
  RVTEST_SIGUPD(x6, x8, x7, x27, I_lbu_cg_cp_rd_b27, I_lbu_cg_cp_rd_b27_str)
     8c0:	00032383          	lw	x7,0(x6)
     8c4:	01b38863          	beq	x7,x27,8d4 <I_lbu_cg_cp_rd_b27+0x18>
     8c8:	40d0046f          	jal	x8,14d4 <failedtest_x8_x7>
     8cc:	000008bc          	.word	0x000008bc
     8d0:	00004df7          	.word	0x00004df7
     8d4:	00430313          	addi	x6,x6,4
  addi x9, x9, SIG_STRIDE # increment data_ptr
     8d8:	00448493          	addi	x9,x9,4

# Testcase cp_rd (Test destination rd = x28)
  addi x30, x9, -1598 # copy data_ptr to rs1 and adjust for offset
     8dc:	9c248f13          	addi	x30,x9,-1598

000008e0 <I_lbu_cg_cp_rd_b28>:
I_lbu_cg_cp_rd_b28:
  lbu x28, 1598(x30) # perform load (0x9503d046)
     8e0:	63ef4e03          	lbu	x28,1598(x30)
  # Check if x28 contains the expected result. x6 is the signature ptr, x8 is the link ptr, x7 is a temp reg.
  RVTEST_SIGUPD(x6, x8, x7, x28, I_lbu_cg_cp_rd_b28, I_lbu_cg_cp_rd_b28_str)
     8e4:	00032383          	lw	x7,0(x6)
     8e8:	01c38863          	beq	x7,x28,8f8 <I_lbu_cg_cp_rd_b28+0x18>
     8ec:	3e90046f          	jal	x8,14d4 <failedtest_x8_x7>
     8f0:	000008e0          	.word	0x000008e0
     8f4:	00004e25          	.word	0x00004e25
     8f8:	00430313          	addi	x6,x6,4
  addi x9, x9, SIG_STRIDE # increment data_ptr
     8fc:	00448493          	addi	x9,x9,4

# Testcase cp_rd (Test destination rd = x29)
  addi x27, x9, -1347 # copy data_ptr to rs1 and adjust for offset
     900:	abd48d93          	addi	x27,x9,-1347

00000904 <I_lbu_cg_cp_rd_b29>:
I_lbu_cg_cp_rd_b29:
  lbu x29, 1347(x27) # perform load (0xbbf7e09f)
     904:	543dce83          	lbu	x29,1347(x27)
  # Check if x29 contains the expected result. x6 is the signature ptr, x8 is the link ptr, x7 is a temp reg.
  RVTEST_SIGUPD(x6, x8, x7, x29, I_lbu_cg_cp_rd_b29, I_lbu_cg_cp_rd_b29_str)
     908:	00032383          	lw	x7,0(x6)
     90c:	01d38863          	beq	x7,x29,91c <I_lbu_cg_cp_rd_b29+0x18>
     910:	3c50046f          	jal	x8,14d4 <failedtest_x8_x7>
     914:	00000904          	.word	0x00000904
     918:	00004e53          	.word	0x00004e53
     91c:	00430313          	addi	x6,x6,4
  addi x9, x9, SIG_STRIDE # increment data_ptr
     920:	00448493          	addi	x9,x9,4

# Testcase cp_rd (Test destination rd = x30)
  addi x28, x9, -1080 # copy data_ptr to rs1 and adjust for offset
     924:	bc848e13          	addi	x28,x9,-1080

00000928 <I_lbu_cg_cp_rd_b30>:
I_lbu_cg_cp_rd_b30:
  lbu x30, 1080(x28) # perform load (0x2e4c5d0f)
     928:	438e4f03          	lbu	x30,1080(x28)
  # Check if x30 contains the expected result. x6 is the signature ptr, x8 is the link ptr, x7 is a temp reg.
  RVTEST_SIGUPD(x6, x8, x7, x30, I_lbu_cg_cp_rd_b30, I_lbu_cg_cp_rd_b30_str)
     92c:	00032383          	lw	x7,0(x6)
     930:	01e38863          	beq	x7,x30,940 <I_lbu_cg_cp_rd_b30+0x18>
     934:	3a10046f          	jal	x8,14d4 <failedtest_x8_x7>
     938:	00000928          	.word	0x00000928
     93c:	00004e81          	.word	0x00004e81
     940:	00430313          	addi	x6,x6,4
  addi x9, x9, SIG_STRIDE # increment data_ptr
     944:	00448493          	addi	x9,x9,4

# Testcase cp_rd (Test destination rd = x31)
  addi x25, x9, -1045 # copy data_ptr to rs1 and adjust for offset
     948:	beb48c93          	addi	x25,x9,-1045

0000094c <I_lbu_cg_cp_rd_b31>:
I_lbu_cg_cp_rd_b31:
  lbu x31, 1045(x25) # perform load (0xf919610c)
     94c:	415ccf83          	lbu	x31,1045(x25)
  # Check if x31 contains the expected result. x6 is the signature ptr, x8 is the link ptr, x7 is a temp reg.
  RVTEST_SIGUPD(x6, x8, x7, x31, I_lbu_cg_cp_rd_b31, I_lbu_cg_cp_rd_b31_str)
     950:	00032383          	lw	x7,0(x6)
     954:	01f38863          	beq	x7,x31,964 <I_lbu_cg_cp_rd_b31+0x18>
     958:	37d0046f          	jal	x8,14d4 <failedtest_x8_x7>
     95c:	0000094c          	.word	0x0000094c
     960:	00004eaf          	.word	0x00004eaf
     964:	00430313          	addi	x6,x6,4
  addi x9, x9, SIG_STRIDE # increment data_ptr
     968:	00448493          	addi	x9,x9,4
/////////////////////////////////
// cmp_rd_rs1_nx0
/////////////////////////////////

# Testcase cmp_rd_rs1_nx0 (Test rd = rs1 = x1)
  addi x1, x9, 453 # copy data_ptr to rs1 and adjust for offset
     96c:	1c548093          	addi	x1,x9,453

00000970 <I_lbu_cg_cmp_rd_rs1_nx0_b1>:
I_lbu_cg_cmp_rd_rs1_nx0_b1:
  lbu x1, -453(x1) # perform load (0x10ebb7dc)
     970:	e3b0c083          	lbu	x1,-453(x1)
  # Check if x1 contains the expected result. x6 is the signature ptr, x8 is the link ptr, x7 is a temp reg.
  RVTEST_SIGUPD(x6, x8, x7, x1, I_lbu_cg_cmp_rd_rs1_nx0_b1, I_lbu_cg_cmp_rd_rs1_nx0_b1_str)
     974:	00032383          	lw	x7,0(x6)
     978:	00138863          	beq	x7,x1,988 <I_lbu_cg_cmp_rd_rs1_nx0_b1+0x18>
     97c:	3590046f          	jal	x8,14d4 <failedtest_x8_x7>
     980:	00000970          	.word	0x00000970
     984:	00004edd          	.word	0x00004edd
     988:	00430313          	addi	x6,x6,4
  addi x9, x9, SIG_STRIDE # increment data_ptr
     98c:	00448493          	addi	x9,x9,4

# Testcase cmp_rd_rs1_nx0 (Test rd = rs1 = x2)
  addi x2, x9, 1936 # copy data_ptr to rs1 and adjust for offset
     990:	79048113          	addi	x2,x9,1936

00000994 <I_lbu_cg_cmp_rd_rs1_nx0_b2>:
I_lbu_cg_cmp_rd_rs1_nx0_b2:
  lbu x2, -1936(x2) # perform load (0x4d20518a)
     994:	87014103          	lbu	x2,-1936(x2)
  # Check if x2 contains the expected result. x6 is the signature ptr, x8 is the link ptr, x7 is a temp reg.
  RVTEST_SIGUPD(x6, x8, x7, x2, I_lbu_cg_cmp_rd_rs1_nx0_b2, I_lbu_cg_cmp_rd_rs1_nx0_b2_str)
     998:	00032383          	lw	x7,0(x6)
     99c:	00238863          	beq	x7,x2,9ac <I_lbu_cg_cmp_rd_rs1_nx0_b2+0x18>
     9a0:	3350046f          	jal	x8,14d4 <failedtest_x8_x7>
     9a4:	00000994          	.word	0x00000994
     9a8:	00004f13          	.word	0x00004f13
     9ac:	00430313          	addi	x6,x6,4
  addi x9, x9, SIG_STRIDE # increment data_ptr
     9b0:	00448493          	addi	x9,x9,4

# Testcase cmp_rd_rs1_nx0 (Test rd = rs1 = x3)
  addi x3, x9, 1484 # copy data_ptr to rs1 and adjust for offset
     9b4:	5cc48193          	addi	x3,x9,1484

000009b8 <I_lbu_cg_cmp_rd_rs1_nx0_b3>:
I_lbu_cg_cmp_rd_rs1_nx0_b3:
  lbu x3, -1484(x3) # perform load (0xa5dedeb4)
     9b8:	a341c183          	lbu	x3,-1484(x3)
  # Check if x3 contains the expected result. x6 is the signature ptr, x8 is the link ptr, x7 is a temp reg.
  RVTEST_SIGUPD(x6, x8, x7, x3, I_lbu_cg_cmp_rd_rs1_nx0_b3, I_lbu_cg_cmp_rd_rs1_nx0_b3_str)
     9bc:	00032383          	lw	x7,0(x6)
     9c0:	00338863          	beq	x7,x3,9d0 <I_lbu_cg_cmp_rd_rs1_nx0_b3+0x18>
     9c4:	3110046f          	jal	x8,14d4 <failedtest_x8_x7>
     9c8:	000009b8          	.word	0x000009b8
     9cc:	00004f49          	.word	0x00004f49
     9d0:	00430313          	addi	x6,x6,4
  addi x9, x9, SIG_STRIDE # increment data_ptr
     9d4:	00448493          	addi	x9,x9,4

# Testcase cmp_rd_rs1_nx0 (Test rd = rs1 = x4)
  addi x4, x9, -1961 # copy data_ptr to rs1 and adjust for offset
     9d8:	85748213          	addi	x4,x9,-1961

000009dc <I_lbu_cg_cmp_rd_rs1_nx0_b4>:
I_lbu_cg_cmp_rd_rs1_nx0_b4:
  lbu x4, 1961(x4) # perform load (0x8243cd23)
     9dc:	7a924203          	lbu	x4,1961(x4) # 7a9 <I_lbu_cg_cp_rd_b19+0x11>
  # Check if x4 contains the expected result. x6 is the signature ptr, x8 is the link ptr, x7 is a temp reg.
  RVTEST_SIGUPD(x6, x8, x7, x4, I_lbu_cg_cmp_rd_rs1_nx0_b4, I_lbu_cg_cmp_rd_rs1_nx0_b4_str)
     9e0:	00032383          	lw	x7,0(x6)
     9e4:	00438863          	beq	x7,x4,9f4 <I_lbu_cg_cmp_rd_rs1_nx0_b4+0x18>
     9e8:	2ed0046f          	jal	x8,14d4 <failedtest_x8_x7>
     9ec:	000009dc          	.word	0x000009dc
     9f0:	00004f7f          	.word	0x00004f7f
     9f4:	00430313          	addi	x6,x6,4
  addi x9, x9, SIG_STRIDE # increment data_ptr
     9f8:	00448493          	addi	x9,x9,4

# Testcase cmp_rd_rs1_nx0 (Test rd = rs1 = x5)
  addi x5, x9, -1915 # copy data_ptr to rs1 and adjust for offset
     9fc:	88548293          	addi	x5,x9,-1915

00000a00 <I_lbu_cg_cmp_rd_rs1_nx0_b5>:
I_lbu_cg_cmp_rd_rs1_nx0_b5:
  lbu x5, 1915(x5) # perform load (0x3017952c)
     a00:	77b2c283          	lbu	x5,1915(x5)
  # Check if x5 contains the expected result. x6 is the signature ptr, x8 is the link ptr, x7 is a temp reg.
  RVTEST_SIGUPD(x6, x8, x7, x5, I_lbu_cg_cmp_rd_rs1_nx0_b5, I_lbu_cg_cmp_rd_rs1_nx0_b5_str)
     a04:	00032383          	lw	x7,0(x6)
     a08:	00538863          	beq	x7,x5,a18 <I_lbu_cg_cmp_rd_rs1_nx0_b5+0x18>
     a0c:	2c90046f          	jal	x8,14d4 <failedtest_x8_x7>
     a10:	00000a00          	.word	0x00000a00
     a14:	00004fb5          	.word	0x00004fb5
     a18:	00430313          	addi	x6,x6,4
  addi x9, x9, SIG_STRIDE # increment data_ptr
     a1c:	00448493          	addi	x9,x9,4

  mv x19, x6 # switch signature pointer register to avoid conflict with test
     a20:	00030993          	addi	x19,x6,0
# Testcase cmp_rd_rs1_nx0 (Test rd = rs1 = x6)
  addi x6, x9, 1329 # copy data_ptr to rs1 and adjust for offset
     a24:	53148313          	addi	x6,x9,1329

00000a28 <I_lbu_cg_cmp_rd_rs1_nx0_b6>:
I_lbu_cg_cmp_rd_rs1_nx0_b6:
  lbu x6, -1329(x6) # perform load (0xba99c3a0)
     a28:	acf34303          	lbu	x6,-1329(x6)
  # Check if x6 contains the expected result. x19 is the signature ptr, x8 is the link ptr, x7 is a temp reg.
  RVTEST_SIGUPD(x19, x8, x7, x6, I_lbu_cg_cmp_rd_rs1_nx0_b6, I_lbu_cg_cmp_rd_rs1_nx0_b6_str)
     a2c:	0009a383          	lw	x7,0(x19)
     a30:	00638863          	beq	x7,x6,a40 <I_lbu_cg_cmp_rd_rs1_nx0_b6+0x18>
     a34:	2a10046f          	jal	x8,14d4 <failedtest_x8_x7>
     a38:	00000a28          	.word	0x00000a28
     a3c:	00004feb          	.word	0x00004feb
     a40:	00498993          	addi	x19,x19,4
  addi x9, x9, SIG_STRIDE # increment data_ptr
     a44:	00448493          	addi	x9,x9,4

  mv x13, x7 # switch temp register to avoid conflict with test
     a48:	00038693          	addi	x13,x7,0
  mv x14, x8 # switch link pointer register to avoid conflict with test
     a4c:	00040713          	addi	x14,x8,0
# Testcase cmp_rd_rs1_nx0 (Test rd = rs1 = x7)
  addi x7, x9, 2013 # copy data_ptr to rs1 and adjust for offset
     a50:	7dd48393          	addi	x7,x9,2013

00000a54 <I_lbu_cg_cmp_rd_rs1_nx0_b7>:
I_lbu_cg_cmp_rd_rs1_nx0_b7:
  lbu x7, -2013(x7) # perform load (0xe0785aac)
     a54:	8233c383          	lbu	x7,-2013(x7)
  # Check if x7 contains the expected result. x19 is the signature ptr, x14 is the link ptr, x13 is a temp reg.
  RVTEST_SIGUPD(x19, x14, x13, x7, I_lbu_cg_cmp_rd_rs1_nx0_b7, I_lbu_cg_cmp_rd_rs1_nx0_b7_str)
     a58:	0009a683          	lw	x13,0(x19)
     a5c:	00768863          	beq	x13,x7,a6c <I_lbu_cg_cmp_rd_rs1_nx0_b7+0x18>
     a60:	29d0076f          	jal	x14,14fc <failedtest_x14_x13>
     a64:	00000a54          	.word	0x00000a54
     a68:	00005021          	.word	0x00005021
     a6c:	00498993          	addi	x19,x19,4
  addi x9, x9, SIG_STRIDE # increment data_ptr
     a70:	00448493          	addi	x9,x9,4

# Testcase cmp_rd_rs1_nx0 (Test rd = rs1 = x8)
  addi x8, x9, 1176 # copy data_ptr to rs1 and adjust for offset
     a74:	49848413          	addi	x8,x9,1176

00000a78 <I_lbu_cg_cmp_rd_rs1_nx0_b8>:
I_lbu_cg_cmp_rd_rs1_nx0_b8:
  lbu x8, -1176(x8) # perform load (0x6da1da79)
     a78:	b6844403          	lbu	x8,-1176(x8)
  # Check if x8 contains the expected result. x19 is the signature ptr, x14 is the link ptr, x13 is a temp reg.
  RVTEST_SIGUPD(x19, x14, x13, x8, I_lbu_cg_cmp_rd_rs1_nx0_b8, I_lbu_cg_cmp_rd_rs1_nx0_b8_str)
     a7c:	0009a683          	lw	x13,0(x19)
     a80:	00868863          	beq	x13,x8,a90 <I_lbu_cg_cmp_rd_rs1_nx0_b8+0x18>
     a84:	2790076f          	jal	x14,14fc <failedtest_x14_x13>
     a88:	00000a78          	.word	0x00000a78
     a8c:	00005057          	.word	0x00005057
     a90:	00498993          	addi	x19,x19,4
  addi x9, x9, SIG_STRIDE # increment data_ptr
     a94:	00448493          	addi	x9,x9,4

  mv x18, x9 # switch data pointer register to avoid conflict with test
     a98:	00048913          	addi	x18,x9,0
# Testcase cmp_rd_rs1_nx0 (Test rd = rs1 = x9)
  addi x9, x18, 1409 # copy data_ptr to rs1 and adjust for offset
     a9c:	58190493          	addi	x9,x18,1409

00000aa0 <I_lbu_cg_cmp_rd_rs1_nx0_b9>:
I_lbu_cg_cmp_rd_rs1_nx0_b9:
  lbu x9, -1409(x9) # perform load (0x82c48639)
     aa0:	a7f4c483          	lbu	x9,-1409(x9)
  # Check if x9 contains the expected result. x19 is the signature ptr, x14 is the link ptr, x13 is a temp reg.
  RVTEST_SIGUPD(x19, x14, x13, x9, I_lbu_cg_cmp_rd_rs1_nx0_b9, I_lbu_cg_cmp_rd_rs1_nx0_b9_str)
     aa4:	0009a683          	lw	x13,0(x19)
     aa8:	00968863          	beq	x13,x9,ab8 <I_lbu_cg_cmp_rd_rs1_nx0_b9+0x18>
     aac:	2510076f          	jal	x14,14fc <failedtest_x14_x13>
     ab0:	00000aa0          	.word	0x00000aa0
     ab4:	0000508d          	.word	0x0000508d
     ab8:	00498993          	addi	x19,x19,4
  addi x18, x18, SIG_STRIDE # increment data_ptr
     abc:	00490913          	addi	x18,x18,4

# Testcase cmp_rd_rs1_nx0 (Test rd = rs1 = x10)
  addi x10, x18, -1418 # copy data_ptr to rs1 and adjust for offset
     ac0:	a7690513          	addi	x10,x18,-1418

00000ac4 <I_lbu_cg_cmp_rd_rs1_nx0_b10>:
I_lbu_cg_cmp_rd_rs1_nx0_b10:
  lbu x10, 1418(x10) # perform load (0x0fe17420)
     ac4:	58a54503          	lbu	x10,1418(x10)
  # Check if x10 contains the expected result. x19 is the signature ptr, x14 is the link ptr, x13 is a temp reg.
  RVTEST_SIGUPD(x19, x14, x13, x10, I_lbu_cg_cmp_rd_rs1_nx0_b10, I_lbu_cg_cmp_rd_rs1_nx0_b10_str)
     ac8:	0009a683          	lw	x13,0(x19)
     acc:	00a68863          	beq	x13,x10,adc <I_lbu_cg_cmp_rd_rs1_nx0_b10+0x18>
     ad0:	22d0076f          	jal	x14,14fc <failedtest_x14_x13>
     ad4:	00000ac4          	.word	0x00000ac4
     ad8:	000050c3          	.word	0x000050c3
     adc:	00498993          	addi	x19,x19,4
  addi x18, x18, SIG_STRIDE # increment data_ptr
     ae0:	00490913          	addi	x18,x18,4

# Testcase cmp_rd_rs1_nx0 (Test rd = rs1 = x11)
  addi x11, x18, 1616 # copy data_ptr to rs1 and adjust for offset
     ae4:	65090593          	addi	x11,x18,1616

00000ae8 <I_lbu_cg_cmp_rd_rs1_nx0_b11>:
I_lbu_cg_cmp_rd_rs1_nx0_b11:
  lbu x11, -1616(x11) # perform load (0x12b32258)
     ae8:	9b05c583          	lbu	x11,-1616(x11)
  # Check if x11 contains the expected result. x19 is the signature ptr, x14 is the link ptr, x13 is a temp reg.
  RVTEST_SIGUPD(x19, x14, x13, x11, I_lbu_cg_cmp_rd_rs1_nx0_b11, I_lbu_cg_cmp_rd_rs1_nx0_b11_str)
     aec:	0009a683          	lw	x13,0(x19)
     af0:	00b68863          	beq	x13,x11,b00 <I_lbu_cg_cmp_rd_rs1_nx0_b11+0x18>
     af4:	2090076f          	jal	x14,14fc <failedtest_x14_x13>
     af8:	00000ae8          	.word	0x00000ae8
     afc:	000050fa          	.word	0x000050fa
     b00:	00498993          	addi	x19,x19,4
  addi x18, x18, SIG_STRIDE # increment data_ptr
     b04:	00490913          	addi	x18,x18,4

# Testcase cmp_rd_rs1_nx0 (Test rd = rs1 = x12)
  addi x12, x18, -443 # copy data_ptr to rs1 and adjust for offset
     b08:	e4590613          	addi	x12,x18,-443

00000b0c <I_lbu_cg_cmp_rd_rs1_nx0_b12>:
I_lbu_cg_cmp_rd_rs1_nx0_b12:
  lbu x12, 443(x12) # perform load (0x37f05e94)
     b0c:	1bb64603          	lbu	x12,443(x12)
  # Check if x12 contains the expected result. x19 is the signature ptr, x14 is the link ptr, x13 is a temp reg.
  RVTEST_SIGUPD(x19, x14, x13, x12, I_lbu_cg_cmp_rd_rs1_nx0_b12, I_lbu_cg_cmp_rd_rs1_nx0_b12_str)
     b10:	0009a683          	lw	x13,0(x19)
     b14:	00c68863          	beq	x13,x12,b24 <I_lbu_cg_cmp_rd_rs1_nx0_b12+0x18>
     b18:	1e50076f          	jal	x14,14fc <failedtest_x14_x13>
     b1c:	00000b0c          	.word	0x00000b0c
     b20:	00005131          	.word	0x00005131
     b24:	00498993          	addi	x19,x19,4
  addi x18, x18, SIG_STRIDE # increment data_ptr
     b28:	00490913          	addi	x18,x18,4

  mv x7, x13 # switch temp register to avoid conflict with test
     b2c:	00068393          	addi	x7,x13,0
  mv x8, x14 # switch link pointer register to avoid conflict with test
     b30:	00070413          	addi	x8,x14,0
# Testcase cmp_rd_rs1_nx0 (Test rd = rs1 = x13)
  addi x13, x18, -1596 # copy data_ptr to rs1 and adjust for offset
     b34:	9c490693          	addi	x13,x18,-1596

00000b38 <I_lbu_cg_cmp_rd_rs1_nx0_b13>:
I_lbu_cg_cmp_rd_rs1_nx0_b13:
  lbu x13, 1596(x13) # perform load (0x09dd157c)
     b38:	63c6c683          	lbu	x13,1596(x13)
  # Check if x13 contains the expected result. x19 is the signature ptr, x8 is the link ptr, x7 is a temp reg.
  RVTEST_SIGUPD(x19, x8, x7, x13, I_lbu_cg_cmp_rd_rs1_nx0_b13, I_lbu_cg_cmp_rd_rs1_nx0_b13_str)
     b3c:	0009a383          	lw	x7,0(x19)
     b40:	00d38863          	beq	x7,x13,b50 <I_lbu_cg_cmp_rd_rs1_nx0_b13+0x18>
     b44:	1910046f          	jal	x8,14d4 <failedtest_x8_x7>
     b48:	00000b38          	.word	0x00000b38
     b4c:	00005168          	.word	0x00005168
     b50:	00498993          	addi	x19,x19,4
  addi x18, x18, SIG_STRIDE # increment data_ptr
     b54:	00490913          	addi	x18,x18,4

# Testcase cmp_rd_rs1_nx0 (Test rd = rs1 = x14)
  addi x14, x18, 1100 # copy data_ptr to rs1 and adjust for offset
     b58:	44c90713          	addi	x14,x18,1100

00000b5c <I_lbu_cg_cmp_rd_rs1_nx0_b14>:
I_lbu_cg_cmp_rd_rs1_nx0_b14:
  lbu x14, -1100(x14) # perform load (0x55ad35fa)
     b5c:	bb474703          	lbu	x14,-1100(x14)
  # Check if x14 contains the expected result. x19 is the signature ptr, x8 is the link ptr, x7 is a temp reg.
  RVTEST_SIGUPD(x19, x8, x7, x14, I_lbu_cg_cmp_rd_rs1_nx0_b14, I_lbu_cg_cmp_rd_rs1_nx0_b14_str)
     b60:	0009a383          	lw	x7,0(x19)
     b64:	00e38863          	beq	x7,x14,b74 <I_lbu_cg_cmp_rd_rs1_nx0_b14+0x18>
     b68:	16d0046f          	jal	x8,14d4 <failedtest_x8_x7>
     b6c:	00000b5c          	.word	0x00000b5c
     b70:	0000519f          	.word	0x0000519f
     b74:	00498993          	addi	x19,x19,4
  addi x18, x18, SIG_STRIDE # increment data_ptr
     b78:	00490913          	addi	x18,x18,4

# Testcase cmp_rd_rs1_nx0 (Test rd = rs1 = x15)
  addi x15, x18, 128 # copy data_ptr to rs1 and adjust for offset
     b7c:	08090793          	addi	x15,x18,128

00000b80 <I_lbu_cg_cmp_rd_rs1_nx0_b15>:
I_lbu_cg_cmp_rd_rs1_nx0_b15:
  lbu x15, -128(x15) # perform load (0xd0d2da67)
     b80:	f807c783          	lbu	x15,-128(x15)
  # Check if x15 contains the expected result. x19 is the signature ptr, x8 is the link ptr, x7 is a temp reg.
  RVTEST_SIGUPD(x19, x8, x7, x15, I_lbu_cg_cmp_rd_rs1_nx0_b15, I_lbu_cg_cmp_rd_rs1_nx0_b15_str)
     b84:	0009a383          	lw	x7,0(x19)
     b88:	00f38863          	beq	x7,x15,b98 <I_lbu_cg_cmp_rd_rs1_nx0_b15+0x18>
     b8c:	1490046f          	jal	x8,14d4 <failedtest_x8_x7>
     b90:	00000b80          	.word	0x00000b80
     b94:	000051d6          	.word	0x000051d6
     b98:	00498993          	addi	x19,x19,4
  addi x18, x18, SIG_STRIDE # increment data_ptr
     b9c:	00490913          	addi	x18,x18,4

# Testcase cmp_rd_rs1_nx0 (Test rd = rs1 = x16)
  addi x16, x18, -1545 # copy data_ptr to rs1 and adjust for offset
     ba0:	9f790813          	addi	x16,x18,-1545

00000ba4 <I_lbu_cg_cmp_rd_rs1_nx0_b16>:
I_lbu_cg_cmp_rd_rs1_nx0_b16:
  lbu x16, 1545(x16) # perform load (0xc273477d)
     ba4:	60984803          	lbu	x16,1545(x16)
  # Check if x16 contains the expected result. x19 is the signature ptr, x8 is the link ptr, x7 is a temp reg.
  RVTEST_SIGUPD(x19, x8, x7, x16, I_lbu_cg_cmp_rd_rs1_nx0_b16, I_lbu_cg_cmp_rd_rs1_nx0_b16_str)
     ba8:	0009a383          	lw	x7,0(x19)
     bac:	01038863          	beq	x7,x16,bbc <I_lbu_cg_cmp_rd_rs1_nx0_b16+0x18>
     bb0:	1250046f          	jal	x8,14d4 <failedtest_x8_x7>
     bb4:	00000ba4          	.word	0x00000ba4
     bb8:	0000520d          	.word	0x0000520d
     bbc:	00498993          	addi	x19,x19,4
  addi x18, x18, SIG_STRIDE # increment data_ptr
     bc0:	00490913          	addi	x18,x18,4

# Testcase cmp_rd_rs1_nx0 (Test rd = rs1 = x17)
  addi x17, x18, 1130 # copy data_ptr to rs1 and adjust for offset
     bc4:	46a90893          	addi	x17,x18,1130

00000bc8 <I_lbu_cg_cmp_rd_rs1_nx0_b17>:
I_lbu_cg_cmp_rd_rs1_nx0_b17:
  lbu x17, -1130(x17) # perform load (0x6788792f)
     bc8:	b968c883          	lbu	x17,-1130(x17)
  # Check if x17 contains the expected result. x19 is the signature ptr, x8 is the link ptr, x7 is a temp reg.
  RVTEST_SIGUPD(x19, x8, x7, x17, I_lbu_cg_cmp_rd_rs1_nx0_b17, I_lbu_cg_cmp_rd_rs1_nx0_b17_str)
     bcc:	0009a383          	lw	x7,0(x19)
     bd0:	01138863          	beq	x7,x17,be0 <I_lbu_cg_cmp_rd_rs1_nx0_b17+0x18>
     bd4:	1010046f          	jal	x8,14d4 <failedtest_x8_x7>
     bd8:	00000bc8          	.word	0x00000bc8
     bdc:	00005244          	.word	0x00005244
     be0:	00498993          	addi	x19,x19,4
  addi x18, x18, SIG_STRIDE # increment data_ptr
     be4:	00490913          	addi	x18,x18,4

  mv x10, x18 # switch data pointer register to avoid conflict with test
     be8:	00090513          	addi	x10,x18,0
# Testcase cmp_rd_rs1_nx0 (Test rd = rs1 = x18)
  addi x18, x10, 1859 # copy data_ptr to rs1 and adjust for offset
     bec:	74350913          	addi	x18,x10,1859

00000bf0 <I_lbu_cg_cmp_rd_rs1_nx0_b18>:
I_lbu_cg_cmp_rd_rs1_nx0_b18:
  lbu x18, -1859(x18) # perform load (0xe12b461d)
     bf0:	8bd94903          	lbu	x18,-1859(x18)
  # Check if x18 contains the expected result. x19 is the signature ptr, x8 is the link ptr, x7 is a temp reg.
  RVTEST_SIGUPD(x19, x8, x7, x18, I_lbu_cg_cmp_rd_rs1_nx0_b18, I_lbu_cg_cmp_rd_rs1_nx0_b18_str)
     bf4:	0009a383          	lw	x7,0(x19)
     bf8:	01238863          	beq	x7,x18,c08 <I_lbu_cg_cmp_rd_rs1_nx0_b18+0x18>
     bfc:	0d90046f          	jal	x8,14d4 <failedtest_x8_x7>
     c00:	00000bf0          	.word	0x00000bf0
     c04:	0000527b          	.word	0x0000527b
     c08:	00498993          	addi	x19,x19,4
  addi x10, x10, SIG_STRIDE # increment data_ptr
     c0c:	00450513          	addi	x10,x10,4

  mv x16, x19 # switch signature pointer register to avoid conflict with test
     c10:	00098813          	addi	x16,x19,0
# Testcase cmp_rd_rs1_nx0 (Test rd = rs1 = x19)
  addi x19, x10, 580 # copy data_ptr to rs1 and adjust for offset
     c14:	24450993          	addi	x19,x10,580

00000c18 <I_lbu_cg_cmp_rd_rs1_nx0_b19>:
I_lbu_cg_cmp_rd_rs1_nx0_b19:
  lbu x19, -580(x19) # perform load (0xfef9d141)
     c18:	dbc9c983          	lbu	x19,-580(x19)
  # Check if x19 contains the expected result. x16 is the signature ptr, x8 is the link ptr, x7 is a temp reg.
  RVTEST_SIGUPD(x16, x8, x7, x19, I_lbu_cg_cmp_rd_rs1_nx0_b19, I_lbu_cg_cmp_rd_rs1_nx0_b19_str)
     c1c:	00082383          	lw	x7,0(x16)
     c20:	01338863          	beq	x7,x19,c30 <I_lbu_cg_cmp_rd_rs1_nx0_b19+0x18>
     c24:	0b10046f          	jal	x8,14d4 <failedtest_x8_x7>
     c28:	00000c18          	.word	0x00000c18
     c2c:	000052b2          	.word	0x000052b2
     c30:	00480813          	addi	x16,x16,4
  addi x10, x10, SIG_STRIDE # increment data_ptr
     c34:	00450513          	addi	x10,x10,4

# Testcase cmp_rd_rs1_nx0 (Test rd = rs1 = x20)
  addi x20, x10, 1764 # copy data_ptr to rs1 and adjust for offset
     c38:	6e450a13          	addi	x20,x10,1764

00000c3c <I_lbu_cg_cmp_rd_rs1_nx0_b20>:
I_lbu_cg_cmp_rd_rs1_nx0_b20:
  lbu x20, -1764(x20) # perform load (0x02df9135)
     c3c:	91ca4a03          	lbu	x20,-1764(x20)
  # Check if x20 contains the expected result. x16 is the signature ptr, x8 is the link ptr, x7 is a temp reg.
  RVTEST_SIGUPD(x16, x8, x7, x20, I_lbu_cg_cmp_rd_rs1_nx0_b20, I_lbu_cg_cmp_rd_rs1_nx0_b20_str)
     c40:	00082383          	lw	x7,0(x16)
     c44:	01438863          	beq	x7,x20,c54 <I_lbu_cg_cmp_rd_rs1_nx0_b20+0x18>
     c48:	08d0046f          	jal	x8,14d4 <failedtest_x8_x7>
     c4c:	00000c3c          	.word	0x00000c3c
     c50:	000052e9          	.word	0x000052e9
     c54:	00480813          	addi	x16,x16,4
  addi x10, x10, SIG_STRIDE # increment data_ptr
     c58:	00450513          	addi	x10,x10,4

# Testcase cmp_rd_rs1_nx0 (Test rd = rs1 = x21)
  addi x21, x10, -290 # copy data_ptr to rs1 and adjust for offset
     c5c:	ede50a93          	addi	x21,x10,-290

00000c60 <I_lbu_cg_cmp_rd_rs1_nx0_b21>:
I_lbu_cg_cmp_rd_rs1_nx0_b21:
  lbu x21, 290(x21) # perform load (0x3c8442b6)
     c60:	122aca83          	lbu	x21,290(x21)
  # Check if x21 contains the expected result. x16 is the signature ptr, x8 is the link ptr, x7 is a temp reg.
  RVTEST_SIGUPD(x16, x8, x7, x21, I_lbu_cg_cmp_rd_rs1_nx0_b21, I_lbu_cg_cmp_rd_rs1_nx0_b21_str)
     c64:	00082383          	lw	x7,0(x16)
     c68:	01538863          	beq	x7,x21,c78 <I_lbu_cg_cmp_rd_rs1_nx0_b21+0x18>
     c6c:	0690046f          	jal	x8,14d4 <failedtest_x8_x7>
     c70:	00000c60          	.word	0x00000c60
     c74:	00005320          	.word	0x00005320
     c78:	00480813          	addi	x16,x16,4
  addi x10, x10, SIG_STRIDE # increment data_ptr
     c7c:	00450513          	addi	x10,x10,4

# Testcase cmp_rd_rs1_nx0 (Test rd = rs1 = x22)
  addi x22, x10, 1677 # copy data_ptr to rs1 and adjust for offset
     c80:	68d50b13          	addi	x22,x10,1677

00000c84 <I_lbu_cg_cmp_rd_rs1_nx0_b22>:
I_lbu_cg_cmp_rd_rs1_nx0_b22:
  lbu x22, -1677(x22) # perform load (0x05949855)
     c84:	973b4b03          	lbu	x22,-1677(x22)
  # Check if x22 contains the expected result. x16 is the signature ptr, x8 is the link ptr, x7 is a temp reg.
  RVTEST_SIGUPD(x16, x8, x7, x22, I_lbu_cg_cmp_rd_rs1_nx0_b22, I_lbu_cg_cmp_rd_rs1_nx0_b22_str)
     c88:	00082383          	lw	x7,0(x16)
     c8c:	01638863          	beq	x7,x22,c9c <I_lbu_cg_cmp_rd_rs1_nx0_b22+0x18>
     c90:	0450046f          	jal	x8,14d4 <failedtest_x8_x7>
     c94:	00000c84          	.word	0x00000c84
     c98:	00005357          	.word	0x00005357
     c9c:	00480813          	addi	x16,x16,4
  addi x10, x10, SIG_STRIDE # increment data_ptr
     ca0:	00450513          	addi	x10,x10,4

# Testcase cmp_rd_rs1_nx0 (Test rd = rs1 = x23)
  addi x23, x10, -867 # copy data_ptr to rs1 and adjust for offset
     ca4:	c9d50b93          	addi	x23,x10,-867

00000ca8 <I_lbu_cg_cmp_rd_rs1_nx0_b23>:
I_lbu_cg_cmp_rd_rs1_nx0_b23:
  lbu x23, 867(x23) # perform load (0x2ca1d695)
     ca8:	363bcb83          	lbu	x23,867(x23)
  # Check if x23 contains the expected result. x16 is the signature ptr, x8 is the link ptr, x7 is a temp reg.
  RVTEST_SIGUPD(x16, x8, x7, x23, I_lbu_cg_cmp_rd_rs1_nx0_b23, I_lbu_cg_cmp_rd_rs1_nx0_b23_str)
     cac:	00082383          	lw	x7,0(x16)
     cb0:	01738863          	beq	x7,x23,cc0 <I_lbu_cg_cmp_rd_rs1_nx0_b23+0x18>
     cb4:	0210046f          	jal	x8,14d4 <failedtest_x8_x7>
     cb8:	00000ca8          	.word	0x00000ca8
     cbc:	0000538e          	.word	0x0000538e
     cc0:	00480813          	addi	x16,x16,4
  addi x10, x10, SIG_STRIDE # increment data_ptr
     cc4:	00450513          	addi	x10,x10,4

# Testcase cmp_rd_rs1_nx0 (Test rd = rs1 = x24)
  addi x24, x10, 395 # copy data_ptr to rs1 and adjust for offset
     cc8:	18b50c13          	addi	x24,x10,395

00000ccc <I_lbu_cg_cmp_rd_rs1_nx0_b24>:
I_lbu_cg_cmp_rd_rs1_nx0_b24:
  lbu x24, -395(x24) # perform load (0x748a07ac)
     ccc:	e75c4c03          	lbu	x24,-395(x24)
  # Check if x24 contains the expected result. x16 is the signature ptr, x8 is the link ptr, x7 is a temp reg.
  RVTEST_SIGUPD(x16, x8, x7, x24, I_lbu_cg_cmp_rd_rs1_nx0_b24, I_lbu_cg_cmp_rd_rs1_nx0_b24_str)
     cd0:	00082383          	lw	x7,0(x16)
     cd4:	01838863          	beq	x7,x24,ce4 <I_lbu_cg_cmp_rd_rs1_nx0_b24+0x18>
     cd8:	7fc0046f          	jal	x8,14d4 <failedtest_x8_x7>
     cdc:	00000ccc          	.word	0x00000ccc
     ce0:	000053c5          	.word	0x000053c5
     ce4:	00480813          	addi	x16,x16,4
  addi x10, x10, SIG_STRIDE # increment data_ptr
     ce8:	00450513          	addi	x10,x10,4

# Testcase cmp_rd_rs1_nx0 (Test rd = rs1 = x25)
  addi x25, x10, 1915 # copy data_ptr to rs1 and adjust for offset
     cec:	77b50c93          	addi	x25,x10,1915

00000cf0 <I_lbu_cg_cmp_rd_rs1_nx0_b25>:
I_lbu_cg_cmp_rd_rs1_nx0_b25:
  lbu x25, -1915(x25) # perform load (0x4881a9cd)
     cf0:	885ccc83          	lbu	x25,-1915(x25)
  # Check if x25 contains the expected result. x16 is the signature ptr, x8 is the link ptr, x7 is a temp reg.
  RVTEST_SIGUPD(x16, x8, x7, x25, I_lbu_cg_cmp_rd_rs1_nx0_b25, I_lbu_cg_cmp_rd_rs1_nx0_b25_str)
     cf4:	00082383          	lw	x7,0(x16)
     cf8:	01938863          	beq	x7,x25,d08 <I_lbu_cg_cmp_rd_rs1_nx0_b25+0x18>
     cfc:	7d80046f          	jal	x8,14d4 <failedtest_x8_x7>
     d00:	00000cf0          	.word	0x00000cf0
     d04:	000053fc          	.word	0x000053fc
     d08:	00480813          	addi	x16,x16,4
  addi x10, x10, SIG_STRIDE # increment data_ptr
     d0c:	00450513          	addi	x10,x10,4

# Testcase cmp_rd_rs1_nx0 (Test rd = rs1 = x26)
  addi x26, x10, -1564 # copy data_ptr to rs1 and adjust for offset
     d10:	9e450d13          	addi	x26,x10,-1564

00000d14 <I_lbu_cg_cmp_rd_rs1_nx0_b26>:
I_lbu_cg_cmp_rd_rs1_nx0_b26:
  lbu x26, 1564(x26) # perform load (0x4b64f5db)
     d14:	61cd4d03          	lbu	x26,1564(x26)
  # Check if x26 contains the expected result. x16 is the signature ptr, x8 is the link ptr, x7 is a temp reg.
  RVTEST_SIGUPD(x16, x8, x7, x26, I_lbu_cg_cmp_rd_rs1_nx0_b26, I_lbu_cg_cmp_rd_rs1_nx0_b26_str)
     d18:	00082383          	lw	x7,0(x16)
     d1c:	01a38863          	beq	x7,x26,d2c <I_lbu_cg_cmp_rd_rs1_nx0_b26+0x18>
     d20:	7b40046f          	jal	x8,14d4 <failedtest_x8_x7>
     d24:	00000d14          	.word	0x00000d14
     d28:	00005433          	.word	0x00005433
     d2c:	00480813          	addi	x16,x16,4
  addi x10, x10, SIG_STRIDE # increment data_ptr
     d30:	00450513          	addi	x10,x10,4

# Testcase cmp_rd_rs1_nx0 (Test rd = rs1 = x27)
  addi x27, x10, 1597 # copy data_ptr to rs1 and adjust for offset
     d34:	63d50d93          	addi	x27,x10,1597

00000d38 <I_lbu_cg_cmp_rd_rs1_nx0_b27>:
I_lbu_cg_cmp_rd_rs1_nx0_b27:
  lbu x27, -1597(x27) # perform load (0xe03c3694)
     d38:	9c3dcd83          	lbu	x27,-1597(x27)
  # Check if x27 contains the expected result. x16 is the signature ptr, x8 is the link ptr, x7 is a temp reg.
  RVTEST_SIGUPD(x16, x8, x7, x27, I_lbu_cg_cmp_rd_rs1_nx0_b27, I_lbu_cg_cmp_rd_rs1_nx0_b27_str)
     d3c:	00082383          	lw	x7,0(x16)
     d40:	01b38863          	beq	x7,x27,d50 <I_lbu_cg_cmp_rd_rs1_nx0_b27+0x18>
     d44:	7900046f          	jal	x8,14d4 <failedtest_x8_x7>
     d48:	00000d38          	.word	0x00000d38
     d4c:	0000546a          	.word	0x0000546a
     d50:	00480813          	addi	x16,x16,4
  addi x10, x10, SIG_STRIDE # increment data_ptr
     d54:	00450513          	addi	x10,x10,4

# Testcase cmp_rd_rs1_nx0 (Test rd = rs1 = x28)
  addi x28, x10, 1686 # copy data_ptr to rs1 and adjust for offset
     d58:	69650e13          	addi	x28,x10,1686

00000d5c <I_lbu_cg_cmp_rd_rs1_nx0_b28>:
I_lbu_cg_cmp_rd_rs1_nx0_b28:
  lbu x28, -1686(x28) # perform load (0x811fe499)
     d5c:	96ae4e03          	lbu	x28,-1686(x28)
  # Check if x28 contains the expected result. x16 is the signature ptr, x8 is the link ptr, x7 is a temp reg.
  RVTEST_SIGUPD(x16, x8, x7, x28, I_lbu_cg_cmp_rd_rs1_nx0_b28, I_lbu_cg_cmp_rd_rs1_nx0_b28_str)
     d60:	00082383          	lw	x7,0(x16)
     d64:	01c38863          	beq	x7,x28,d74 <I_lbu_cg_cmp_rd_rs1_nx0_b28+0x18>
     d68:	76c0046f          	jal	x8,14d4 <failedtest_x8_x7>
     d6c:	00000d5c          	.word	0x00000d5c
     d70:	000054a1          	.word	0x000054a1
     d74:	00480813          	addi	x16,x16,4
  addi x10, x10, SIG_STRIDE # increment data_ptr
     d78:	00450513          	addi	x10,x10,4

# Testcase cmp_rd_rs1_nx0 (Test rd = rs1 = x29)
  addi x29, x10, 1710 # copy data_ptr to rs1 and adjust for offset
     d7c:	6ae50e93          	addi	x29,x10,1710

00000d80 <I_lbu_cg_cmp_rd_rs1_nx0_b29>:
I_lbu_cg_cmp_rd_rs1_nx0_b29:
  lbu x29, -1710(x29) # perform load (0x8a209d8f)
     d80:	952ece83          	lbu	x29,-1710(x29)
  # Check if x29 contains the expected result. x16 is the signature ptr, x8 is the link ptr, x7 is a temp reg.
  RVTEST_SIGUPD(x16, x8, x7, x29, I_lbu_cg_cmp_rd_rs1_nx0_b29, I_lbu_cg_cmp_rd_rs1_nx0_b29_str)
     d84:	00082383          	lw	x7,0(x16)
     d88:	01d38863          	beq	x7,x29,d98 <I_lbu_cg_cmp_rd_rs1_nx0_b29+0x18>
     d8c:	7480046f          	jal	x8,14d4 <failedtest_x8_x7>
     d90:	00000d80          	.word	0x00000d80
     d94:	000054d8          	.word	0x000054d8
     d98:	00480813          	addi	x16,x16,4
  addi x10, x10, SIG_STRIDE # increment data_ptr
     d9c:	00450513          	addi	x10,x10,4

# Testcase cmp_rd_rs1_nx0 (Test rd = rs1 = x30)
  addi x30, x10, -144 # copy data_ptr to rs1 and adjust for offset
     da0:	f7050f13          	addi	x30,x10,-144

00000da4 <I_lbu_cg_cmp_rd_rs1_nx0_b30>:
I_lbu_cg_cmp_rd_rs1_nx0_b30:
  lbu x30, 144(x30) # perform load (0xa65f0c0f)
     da4:	090f4f03          	lbu	x30,144(x30)
  # Check if x30 contains the expected result. x16 is the signature ptr, x8 is the link ptr, x7 is a temp reg.
  RVTEST_SIGUPD(x16, x8, x7, x30, I_lbu_cg_cmp_rd_rs1_nx0_b30, I_lbu_cg_cmp_rd_rs1_nx0_b30_str)
     da8:	00082383          	lw	x7,0(x16)
     dac:	01e38863          	beq	x7,x30,dbc <I_lbu_cg_cmp_rd_rs1_nx0_b30+0x18>
     db0:	7240046f          	jal	x8,14d4 <failedtest_x8_x7>
     db4:	00000da4          	.word	0x00000da4
     db8:	0000550f          	.word	0x0000550f
     dbc:	00480813          	addi	x16,x16,4
  addi x10, x10, SIG_STRIDE # increment data_ptr
     dc0:	00450513          	addi	x10,x10,4

# Testcase cmp_rd_rs1_nx0 (Test rd = rs1 = x31)
  addi x31, x10, -1717 # copy data_ptr to rs1 and adjust for offset
     dc4:	94b50f93          	addi	x31,x10,-1717

00000dc8 <I_lbu_cg_cmp_rd_rs1_nx0_b31>:
I_lbu_cg_cmp_rd_rs1_nx0_b31:
  lbu x31, 1717(x31) # perform load (0xc8b09f2a)
     dc8:	6b5fcf83          	lbu	x31,1717(x31)
  # Check if x31 contains the expected result. x16 is the signature ptr, x8 is the link ptr, x7 is a temp reg.
  RVTEST_SIGUPD(x16, x8, x7, x31, I_lbu_cg_cmp_rd_rs1_nx0_b31, I_lbu_cg_cmp_rd_rs1_nx0_b31_str)
     dcc:	00082383          	lw	x7,0(x16)
     dd0:	01f38863          	beq	x7,x31,de0 <I_lbu_cg_cmp_rd_rs1_nx0_b31+0x18>
     dd4:	7000046f          	jal	x8,14d4 <failedtest_x8_x7>
     dd8:	00000dc8          	.word	0x00000dc8
     ddc:	00005546          	.word	0x00005546
     de0:	00480813          	addi	x16,x16,4
  addi x10, x10, SIG_STRIDE # increment data_ptr
     de4:	00450513          	addi	x10,x10,4
/////////////////////////////////
// cp_imm_edges
/////////////////////////////////

# Testcase cp_imm_edges (imm = 0)
  addi x3, x10, 0 # copy data_ptr to rs1 and adjust for offset
     de8:	00050193          	addi	x3,x10,0

00000dec <I_lbu_cg_cp_imm_edges_0x0>:
I_lbu_cg_cp_imm_edges_0x0:
  lbu x22, 0(x3) # perform load (0xa6243cc9)
     dec:	0001cb03          	lbu	x22,0(x3)
  # Check if x22 contains the expected result. x16 is the signature ptr, x8 is the link ptr, x7 is a temp reg.
  RVTEST_SIGUPD(x16, x8, x7, x22, I_lbu_cg_cp_imm_edges_0x0, I_lbu_cg_cp_imm_edges_0x0_str)
     df0:	00082383          	lw	x7,0(x16)
     df4:	01638863          	beq	x7,x22,e04 <I_lbu_cg_cp_imm_edges_0x0+0x18>
     df8:	6dc0046f          	jal	x8,14d4 <failedtest_x8_x7>
     dfc:	00000dec          	.word	0x00000dec
     e00:	0000557d          	.word	0x0000557d
     e04:	00480813          	addi	x16,x16,4
  addi x10, x10, SIG_STRIDE # increment data_ptr
     e08:	00450513          	addi	x10,x10,4

# Testcase cp_imm_edges (imm = 1)
  addi x30, x10, -1 # copy data_ptr to rs1 and adjust for offset
     e0c:	fff50f13          	addi	x30,x10,-1

00000e10 <I_lbu_cg_cp_imm_edges_0x1>:
I_lbu_cg_cp_imm_edges_0x1:
  lbu x20, 1(x30) # perform load (0x06d24a2d)
     e10:	001f4a03          	lbu	x20,1(x30)
  # Check if x20 contains the expected result. x16 is the signature ptr, x8 is the link ptr, x7 is a temp reg.
  RVTEST_SIGUPD(x16, x8, x7, x20, I_lbu_cg_cp_imm_edges_0x1, I_lbu_cg_cp_imm_edges_0x1_str)
     e14:	00082383          	lw	x7,0(x16)
     e18:	01438863          	beq	x7,x20,e28 <I_lbu_cg_cp_imm_edges_0x1+0x18>
     e1c:	6b80046f          	jal	x8,14d4 <failedtest_x8_x7>
     e20:	00000e10          	.word	0x00000e10
     e24:	000055b2          	.word	0x000055b2
     e28:	00480813          	addi	x16,x16,4
  addi x10, x10, SIG_STRIDE # increment data_ptr
     e2c:	00450513          	addi	x10,x10,4

# Testcase cp_imm_edges (imm = 2)
  addi x30, x10, -2 # copy data_ptr to rs1 and adjust for offset
     e30:	ffe50f13          	addi	x30,x10,-2

00000e34 <I_lbu_cg_cp_imm_edges_0x2>:
I_lbu_cg_cp_imm_edges_0x2:
  lbu x13, 2(x30) # perform load (0x1477f547)
     e34:	002f4683          	lbu	x13,2(x30)
  # Check if x13 contains the expected result. x16 is the signature ptr, x8 is the link ptr, x7 is a temp reg.
  RVTEST_SIGUPD(x16, x8, x7, x13, I_lbu_cg_cp_imm_edges_0x2, I_lbu_cg_cp_imm_edges_0x2_str)
     e38:	00082383          	lw	x7,0(x16)
     e3c:	00d38863          	beq	x7,x13,e4c <I_lbu_cg_cp_imm_edges_0x2+0x18>
     e40:	6940046f          	jal	x8,14d4 <failedtest_x8_x7>
     e44:	00000e34          	.word	0x00000e34
     e48:	000055e7          	.word	0x000055e7
     e4c:	00480813          	addi	x16,x16,4
  addi x10, x10, SIG_STRIDE # increment data_ptr
     e50:	00450513          	addi	x10,x10,4

# Testcase cp_imm_edges (imm = 3)
  addi x4, x10, -3 # copy data_ptr to rs1 and adjust for offset
     e54:	ffd50213          	addi	x4,x10,-3

00000e58 <I_lbu_cg_cp_imm_edges_0x3>:
I_lbu_cg_cp_imm_edges_0x3:
  lbu x23, 3(x4) # perform load (0x24e0c15a)
     e58:	00324b83          	lbu	x23,3(x4) # 3 <MMODE_SIG>
  # Check if x23 contains the expected result. x16 is the signature ptr, x8 is the link ptr, x7 is a temp reg.
  RVTEST_SIGUPD(x16, x8, x7, x23, I_lbu_cg_cp_imm_edges_0x3, I_lbu_cg_cp_imm_edges_0x3_str)
     e5c:	00082383          	lw	x7,0(x16)
     e60:	01738863          	beq	x7,x23,e70 <I_lbu_cg_cp_imm_edges_0x3+0x18>
     e64:	6700046f          	jal	x8,14d4 <failedtest_x8_x7>
     e68:	00000e58          	.word	0x00000e58
     e6c:	0000561c          	.word	0x0000561c
     e70:	00480813          	addi	x16,x16,4
  addi x10, x10, SIG_STRIDE # increment data_ptr
     e74:	00450513          	addi	x10,x10,4

# Testcase cp_imm_edges (imm = 4)
  addi x14, x10, -4 # copy data_ptr to rs1 and adjust for offset
     e78:	ffc50713          	addi	x14,x10,-4

00000e7c <I_lbu_cg_cp_imm_edges_0x4>:
I_lbu_cg_cp_imm_edges_0x4:
  lbu x28, 4(x14) # perform load (0x7a21b22d)
     e7c:	00474e03          	lbu	x28,4(x14)
  # Check if x28 contains the expected result. x16 is the signature ptr, x8 is the link ptr, x7 is a temp reg.
  RVTEST_SIGUPD(x16, x8, x7, x28, I_lbu_cg_cp_imm_edges_0x4, I_lbu_cg_cp_imm_edges_0x4_str)
     e80:	00082383          	lw	x7,0(x16)
     e84:	01c38863          	beq	x7,x28,e94 <I_lbu_cg_cp_imm_edges_0x4+0x18>
     e88:	64c0046f          	jal	x8,14d4 <failedtest_x8_x7>
     e8c:	00000e7c          	.word	0x00000e7c
     e90:	00005651          	.word	0x00005651
     e94:	00480813          	addi	x16,x16,4
  addi x10, x10, SIG_STRIDE # increment data_ptr
     e98:	00450513          	addi	x10,x10,4

# Testcase cp_imm_edges (imm = 8)
  addi x14, x10, -8 # copy data_ptr to rs1 and adjust for offset
     e9c:	ff850713          	addi	x14,x10,-8

00000ea0 <I_lbu_cg_cp_imm_edges_0x8>:
I_lbu_cg_cp_imm_edges_0x8:
  lbu x11, 8(x14) # perform load (0x19ea6967)
     ea0:	00874583          	lbu	x11,8(x14)
  # Check if x11 contains the expected result. x16 is the signature ptr, x8 is the link ptr, x7 is a temp reg.
  RVTEST_SIGUPD(x16, x8, x7, x11, I_lbu_cg_cp_imm_edges_0x8, I_lbu_cg_cp_imm_edges_0x8_str)
     ea4:	00082383          	lw	x7,0(x16)
     ea8:	00b38863          	beq	x7,x11,eb8 <I_lbu_cg_cp_imm_edges_0x8+0x18>
     eac:	6280046f          	jal	x8,14d4 <failedtest_x8_x7>
     eb0:	00000ea0          	.word	0x00000ea0
     eb4:	00005686          	.word	0x00005686
     eb8:	00480813          	addi	x16,x16,4
  addi x10, x10, SIG_STRIDE # increment data_ptr
     ebc:	00450513          	addi	x10,x10,4

# Testcase cp_imm_edges (imm = 16)
  addi x3, x10, -16 # copy data_ptr to rs1 and adjust for offset
     ec0:	ff050193          	addi	x3,x10,-16

00000ec4 <I_lbu_cg_cp_imm_edges_0x10>:
I_lbu_cg_cp_imm_edges_0x10:
  lbu x9, 16(x3) # perform load (0x64f35cad)
     ec4:	0101c483          	lbu	x9,16(x3)
  # Check if x9 contains the expected result. x16 is the signature ptr, x8 is the link ptr, x7 is a temp reg.
  RVTEST_SIGUPD(x16, x8, x7, x9, I_lbu_cg_cp_imm_edges_0x10, I_lbu_cg_cp_imm_edges_0x10_str)
     ec8:	00082383          	lw	x7,0(x16)
     ecc:	00938863          	beq	x7,x9,edc <I_lbu_cg_cp_imm_edges_0x10+0x18>
     ed0:	6040046f          	jal	x8,14d4 <failedtest_x8_x7>
     ed4:	00000ec4          	.word	0x00000ec4
     ed8:	000056bc          	.word	0x000056bc
     edc:	00480813          	addi	x16,x16,4
  addi x10, x10, SIG_STRIDE # increment data_ptr
     ee0:	00450513          	addi	x10,x10,4

# Testcase cp_imm_edges (imm = 32)
  addi x29, x10, -32 # copy data_ptr to rs1 and adjust for offset
     ee4:	fe050e93          	addi	x29,x10,-32

00000ee8 <I_lbu_cg_cp_imm_edges_0x20>:
I_lbu_cg_cp_imm_edges_0x20:
  lbu x17, 32(x29) # perform load (0xc8c39adc)
     ee8:	020ec883          	lbu	x17,32(x29)
  # Check if x17 contains the expected result. x16 is the signature ptr, x8 is the link ptr, x7 is a temp reg.
  RVTEST_SIGUPD(x16, x8, x7, x17, I_lbu_cg_cp_imm_edges_0x20, I_lbu_cg_cp_imm_edges_0x20_str)
     eec:	00082383          	lw	x7,0(x16)
     ef0:	01138863          	beq	x7,x17,f00 <I_lbu_cg_cp_imm_edges_0x20+0x18>
     ef4:	5e00046f          	jal	x8,14d4 <failedtest_x8_x7>
     ef8:	00000ee8          	.word	0x00000ee8
     efc:	000056f3          	.word	0x000056f3
     f00:	00480813          	addi	x16,x16,4
  addi x10, x10, SIG_STRIDE # increment data_ptr
     f04:	00450513          	addi	x10,x10,4

# Testcase cp_imm_edges (imm = 64)
  addi x2, x10, -64 # copy data_ptr to rs1 and adjust for offset
     f08:	fc050113          	addi	x2,x10,-64

00000f0c <I_lbu_cg_cp_imm_edges_0x40>:
I_lbu_cg_cp_imm_edges_0x40:
  lbu x31, 64(x2) # perform load (0x193ca58b)
     f0c:	04014f83          	lbu	x31,64(x2)
  # Check if x31 contains the expected result. x16 is the signature ptr, x8 is the link ptr, x7 is a temp reg.
  RVTEST_SIGUPD(x16, x8, x7, x31, I_lbu_cg_cp_imm_edges_0x40, I_lbu_cg_cp_imm_edges_0x40_str)
     f10:	00082383          	lw	x7,0(x16)
     f14:	01f38863          	beq	x7,x31,f24 <I_lbu_cg_cp_imm_edges_0x40+0x18>
     f18:	5bc0046f          	jal	x8,14d4 <failedtest_x8_x7>
     f1c:	00000f0c          	.word	0x00000f0c
     f20:	0000572a          	.word	0x0000572a
     f24:	00480813          	addi	x16,x16,4
  addi x10, x10, SIG_STRIDE # increment data_ptr
     f28:	00450513          	addi	x10,x10,4

# Testcase cp_imm_edges (imm = 128)
  addi x25, x10, -128 # copy data_ptr to rs1 and adjust for offset
     f2c:	f8050c93          	addi	x25,x10,-128

00000f30 <I_lbu_cg_cp_imm_edges_0x80>:
I_lbu_cg_cp_imm_edges_0x80:
  lbu x21, 128(x25) # perform load (0x919ddfe1)
     f30:	080cca83          	lbu	x21,128(x25)
  # Check if x21 contains the expected result. x16 is the signature ptr, x8 is the link ptr, x7 is a temp reg.
  RVTEST_SIGUPD(x16, x8, x7, x21, I_lbu_cg_cp_imm_edges_0x80, I_lbu_cg_cp_imm_edges_0x80_str)
     f34:	00082383          	lw	x7,0(x16)
     f38:	01538863          	beq	x7,x21,f48 <I_lbu_cg_cp_imm_edges_0x80+0x18>
     f3c:	5980046f          	jal	x8,14d4 <failedtest_x8_x7>
     f40:	00000f30          	.word	0x00000f30
     f44:	00005761          	.word	0x00005761
     f48:	00480813          	addi	x16,x16,4
  addi x10, x10, SIG_STRIDE # increment data_ptr
     f4c:	00450513          	addi	x10,x10,4

# Testcase cp_imm_edges (imm = 256)
  addi x25, x10, -256 # copy data_ptr to rs1 and adjust for offset
     f50:	f0050c93          	addi	x25,x10,-256

00000f54 <I_lbu_cg_cp_imm_edges_0x100>:
I_lbu_cg_cp_imm_edges_0x100:
  lbu x3, 256(x25) # perform load (0xcc7453d1)
     f54:	100cc183          	lbu	x3,256(x25)
  # Check if x3 contains the expected result. x16 is the signature ptr, x8 is the link ptr, x7 is a temp reg.
  RVTEST_SIGUPD(x16, x8, x7, x3, I_lbu_cg_cp_imm_edges_0x100, I_lbu_cg_cp_imm_edges_0x100_str)
     f58:	00082383          	lw	x7,0(x16)
     f5c:	00338863          	beq	x7,x3,f6c <I_lbu_cg_cp_imm_edges_0x100+0x18>
     f60:	5740046f          	jal	x8,14d4 <failedtest_x8_x7>
     f64:	00000f54          	.word	0x00000f54
     f68:	00005798          	.word	0x00005798
     f6c:	00480813          	addi	x16,x16,4
  addi x10, x10, SIG_STRIDE # increment data_ptr
     f70:	00450513          	addi	x10,x10,4

# Testcase cp_imm_edges (imm = 512)
  addi x29, x10, -512 # copy data_ptr to rs1 and adjust for offset
     f74:	e0050e93          	addi	x29,x10,-512

00000f78 <I_lbu_cg_cp_imm_edges_0x200>:
I_lbu_cg_cp_imm_edges_0x200:
  lbu x31, 512(x29) # perform load (0x237f2837)
     f78:	200ecf83          	lbu	x31,512(x29)
  # Check if x31 contains the expected result. x16 is the signature ptr, x8 is the link ptr, x7 is a temp reg.
  RVTEST_SIGUPD(x16, x8, x7, x31, I_lbu_cg_cp_imm_edges_0x200, I_lbu_cg_cp_imm_edges_0x200_str)
     f7c:	00082383          	lw	x7,0(x16)
     f80:	01f38863          	beq	x7,x31,f90 <I_lbu_cg_cp_imm_edges_0x200+0x18>
     f84:	5500046f          	jal	x8,14d4 <failedtest_x8_x7>
     f88:	00000f78          	.word	0x00000f78
     f8c:	000057d0          	.word	0x000057d0
     f90:	00480813          	addi	x16,x16,4
  addi x10, x10, SIG_STRIDE # increment data_ptr
     f94:	00450513          	addi	x10,x10,4

# Testcase cp_imm_edges (imm = 1023)
  addi x15, x10, -1023 # copy data_ptr to rs1 and adjust for offset
     f98:	c0150793          	addi	x15,x10,-1023

00000f9c <I_lbu_cg_cp_imm_edges_0x3ff>:
I_lbu_cg_cp_imm_edges_0x3ff:
  lbu x13, 1023(x15) # perform load (0xf2ff0ce4)
     f9c:	3ff7c683          	lbu	x13,1023(x15)
  # Check if x13 contains the expected result. x16 is the signature ptr, x8 is the link ptr, x7 is a temp reg.
  RVTEST_SIGUPD(x16, x8, x7, x13, I_lbu_cg_cp_imm_edges_0x3ff, I_lbu_cg_cp_imm_edges_0x3ff_str)
     fa0:	00082383          	lw	x7,0(x16)
     fa4:	00d38863          	beq	x7,x13,fb4 <I_lbu_cg_cp_imm_edges_0x3ff+0x18>
     fa8:	52c0046f          	jal	x8,14d4 <failedtest_x8_x7>
     fac:	00000f9c          	.word	0x00000f9c
     fb0:	00005808          	.word	0x00005808
     fb4:	00480813          	addi	x16,x16,4
  addi x10, x10, SIG_STRIDE # increment data_ptr
     fb8:	00450513          	addi	x10,x10,4

# Testcase cp_imm_edges (imm = 1024)
  addi x29, x10, -1024 # copy data_ptr to rs1 and adjust for offset
     fbc:	c0050e93          	addi	x29,x10,-1024

00000fc0 <I_lbu_cg_cp_imm_edges_0x400>:
I_lbu_cg_cp_imm_edges_0x400:
  lbu x19, 1024(x29) # perform load (0x90078437)
     fc0:	400ec983          	lbu	x19,1024(x29)
  # Check if x19 contains the expected result. x16 is the signature ptr, x8 is the link ptr, x7 is a temp reg.
  RVTEST_SIGUPD(x16, x8, x7, x19, I_lbu_cg_cp_imm_edges_0x400, I_lbu_cg_cp_imm_edges_0x400_str)
     fc4:	00082383          	lw	x7,0(x16)
     fc8:	01338863          	beq	x7,x19,fd8 <I_lbu_cg_cp_imm_edges_0x400+0x18>
     fcc:	5080046f          	jal	x8,14d4 <failedtest_x8_x7>
     fd0:	00000fc0          	.word	0x00000fc0
     fd4:	00005840          	.word	0x00005840
     fd8:	00480813          	addi	x16,x16,4
  addi x10, x10, SIG_STRIDE # increment data_ptr
     fdc:	00450513          	addi	x10,x10,4

# Testcase cp_imm_edges (imm = 1795)
  addi x26, x10, -1795 # copy data_ptr to rs1 and adjust for offset
     fe0:	8fd50d13          	addi	x26,x10,-1795

00000fe4 <I_lbu_cg_cp_imm_edges_0x703>:
I_lbu_cg_cp_imm_edges_0x703:
  lbu x6, 1795(x26) # perform load (0xf05361b2)
     fe4:	703d4303          	lbu	x6,1795(x26)
  # Check if x6 contains the expected result. x16 is the signature ptr, x8 is the link ptr, x7 is a temp reg.
  RVTEST_SIGUPD(x16, x8, x7, x6, I_lbu_cg_cp_imm_edges_0x703, I_lbu_cg_cp_imm_edges_0x703_str)
     fe8:	00082383          	lw	x7,0(x16)
     fec:	00638863          	beq	x7,x6,ffc <I_lbu_cg_cp_imm_edges_0x703+0x18>
     ff0:	4e40046f          	jal	x8,14d4 <failedtest_x8_x7>
     ff4:	00000fe4          	.word	0x00000fe4
     ff8:	00005878          	.word	0x00005878
     ffc:	00480813          	addi	x16,x16,4
  addi x10, x10, SIG_STRIDE # increment data_ptr
    1000:	00450513          	addi	x10,x10,4

# Testcase cp_imm_edges (imm = 2047)
  addi x12, x10, -2047 # copy data_ptr to rs1 and adjust for offset
    1004:	80150613          	addi	x12,x10,-2047

00001008 <I_lbu_cg_cp_imm_edges_0x7ff>:
I_lbu_cg_cp_imm_edges_0x7ff:
  lbu x20, 2047(x12) # perform load (0x2bb8aa37)
    1008:	7ff64a03          	lbu	x20,2047(x12)
  # Check if x20 contains the expected result. x16 is the signature ptr, x8 is the link ptr, x7 is a temp reg.
  RVTEST_SIGUPD(x16, x8, x7, x20, I_lbu_cg_cp_imm_edges_0x7ff, I_lbu_cg_cp_imm_edges_0x7ff_str)
    100c:	00082383          	lw	x7,0(x16)
    1010:	01438863          	beq	x7,x20,1020 <I_lbu_cg_cp_imm_edges_0x7ff+0x18>
    1014:	4c00046f          	jal	x8,14d4 <failedtest_x8_x7>
    1018:	00001008          	.word	0x00001008
    101c:	000058b0          	.word	0x000058b0
    1020:	00480813          	addi	x16,x16,4
  addi x10, x10, SIG_STRIDE # increment data_ptr
    1024:	00450513          	addi	x10,x10,4

# Testcase cp_imm_edges (imm = -2048)
  addi x18, x10, 2047 # copy data_ptr to rs1 and increment by 2047
    1028:	7ff50913          	addi	x18,x10,2047
  addi x18, x18, 1    # increment by 1 more for total +2048 offset
    102c:	00190913          	addi	x18,x18,1

00001030 <I_lbu_cg_cp_imm_edges_m0x800>:
I_lbu_cg_cp_imm_edges_m0x800:
  lbu x22, -2048(x18) # perform load (0x61fc6e6e)
    1030:	80094b03          	lbu	x22,-2048(x18)
  # Check if x22 contains the expected result. x16 is the signature ptr, x8 is the link ptr, x7 is a temp reg.
  RVTEST_SIGUPD(x16, x8, x7, x22, I_lbu_cg_cp_imm_edges_m0x800, I_lbu_cg_cp_imm_edges_m0x800_str)
    1034:	00082383          	lw	x7,0(x16)
    1038:	01638863          	beq	x7,x22,1048 <I_lbu_cg_cp_imm_edges_m0x800+0x18>
    103c:	4980046f          	jal	x8,14d4 <failedtest_x8_x7>
    1040:	00001030          	.word	0x00001030
    1044:	000058e8          	.word	0x000058e8
    1048:	00480813          	addi	x16,x16,4
  addi x10, x10, SIG_STRIDE # increment data_ptr
    104c:	00450513          	addi	x10,x10,4

# Testcase cp_imm_edges (imm = -2047)
  addi x27, x10, 2047 # copy data_ptr to rs1 and adjust for offset
    1050:	7ff50d93          	addi	x27,x10,2047

00001054 <I_lbu_cg_cp_imm_edges_m0x7ff>:
I_lbu_cg_cp_imm_edges_m0x7ff:
  lbu x14, -2047(x27) # perform load (0xbd6ed69d)
    1054:	801dc703          	lbu	x14,-2047(x27)
  # Check if x14 contains the expected result. x16 is the signature ptr, x8 is the link ptr, x7 is a temp reg.
  RVTEST_SIGUPD(x16, x8, x7, x14, I_lbu_cg_cp_imm_edges_m0x7ff, I_lbu_cg_cp_imm_edges_m0x7ff_str)
    1058:	00082383          	lw	x7,0(x16)
    105c:	00e38863          	beq	x7,x14,106c <I_lbu_cg_cp_imm_edges_m0x7ff+0x18>
    1060:	4740046f          	jal	x8,14d4 <failedtest_x8_x7>
    1064:	00001054          	.word	0x00001054
    1068:	00005921          	.word	0x00005921
    106c:	00480813          	addi	x16,x16,4
  addi x10, x10, SIG_STRIDE # increment data_ptr
    1070:	00450513          	addi	x10,x10,4

# Testcase cp_imm_edges (imm = -2)
  addi x6, x10, 2 # copy data_ptr to rs1 and adjust for offset
    1074:	00250313          	addi	x6,x10,2

00001078 <I_lbu_cg_cp_imm_edges_m0x2>:
I_lbu_cg_cp_imm_edges_m0x2:
  lbu x5, -2(x6) # perform load (0x7c17e546)
    1078:	ffe34283          	lbu	x5,-2(x6)
  # Check if x5 contains the expected result. x16 is the signature ptr, x8 is the link ptr, x7 is a temp reg.
  RVTEST_SIGUPD(x16, x8, x7, x5, I_lbu_cg_cp_imm_edges_m0x2, I_lbu_cg_cp_imm_edges_m0x2_str)
    107c:	00082383          	lw	x7,0(x16)
    1080:	00538863          	beq	x7,x5,1090 <I_lbu_cg_cp_imm_edges_m0x2+0x18>
    1084:	4500046f          	jal	x8,14d4 <failedtest_x8_x7>
    1088:	00001078          	.word	0x00001078
    108c:	0000595a          	.word	0x0000595a
    1090:	00480813          	addi	x16,x16,4
  addi x10, x10, SIG_STRIDE # increment data_ptr
    1094:	00450513          	addi	x10,x10,4

# Testcase cp_imm_edges (imm = -1)
  addi x13, x10, 1 # copy data_ptr to rs1 and adjust for offset
    1098:	00150693          	addi	x13,x10,1

0000109c <I_lbu_cg_cp_imm_edges_m0x1>:
I_lbu_cg_cp_imm_edges_m0x1:
  lbu x11, -1(x13) # perform load (0xe3504e89)
    109c:	fff6c583          	lbu	x11,-1(x13)
  # Check if x11 contains the expected result. x16 is the signature ptr, x8 is the link ptr, x7 is a temp reg.
  RVTEST_SIGUPD(x16, x8, x7, x11, I_lbu_cg_cp_imm_edges_m0x1, I_lbu_cg_cp_imm_edges_m0x1_str)
    10a0:	00082383          	lw	x7,0(x16)
    10a4:	00b38863          	beq	x7,x11,10b4 <I_lbu_cg_cp_imm_edges_m0x1+0x18>
    10a8:	42c0046f          	jal	x8,14d4 <failedtest_x8_x7>
    10ac:	0000109c          	.word	0x0000109c
    10b0:	00005991          	.word	0x00005991
    10b4:	00480813          	addi	x16,x16,4
  addi x10, x10, SIG_STRIDE # increment data_ptr
    10b8:	00450513          	addi	x10,x10,4
    10bc:	00000013          	addi	x0,x0,0
/////////////////////////////////
// cp_align_byte
/////////////////////////////////

# Testcase: cp_align_byte (imm[2:0] = 000)
  LA(x23, scratch) # load base address
    10c0:	00003b97          	auipc	x23,0x3
    10c4:	f40b8b93          	addi	x23,x23,-192 # 4000 <scratch>
    10c8:	00000013          	addi	x0,x0,0
    10cc:	00000013          	addi	x0,x0,0
    10d0:	00000013          	addi	x0,x0,0
    10d4:	00000013          	addi	x0,x0,0
    10d8:	00000013          	addi	x0,x0,0
    10dc:	00000013          	addi	x0,x0,0
  RVTEST_TESTDATA_LOAD_INT(x10, x20) # load temp_reg: x20 = 0x016424fb
    10e0:	00052a03          	lw	x20,0(x10)
    10e4:	00450513          	addi	x10,x10,4
  SREG x20, 0(x23) # store test value to memory
    10e8:	014ba023          	sw	x20,0(x23)
  SREG x20, REGWIDTH(x23) # store test value to memory
    10ec:	014ba223          	sw	x20,4(x23)

000010f0 <I_lbu_cg_cp_align_byte_b0>:
I_lbu_cg_cp_align_byte_b0:
  lbu x27, 0(x23) # perform load
    10f0:	000bcd83          	lbu	x27,0(x23)
  # Check if x27 contains the expected result. x16 is the signature ptr, x8 is the link ptr, x7 is a temp reg.
  RVTEST_SIGUPD(x16, x8, x7, x27, I_lbu_cg_cp_align_byte_b0, I_lbu_cg_cp_align_byte_b0_str)
    10f4:	00082383          	lw	x7,0(x16)
    10f8:	01b38863          	beq	x7,x27,1108 <I_lbu_cg_cp_align_byte_b0+0x18>
    10fc:	3d80046f          	jal	x8,14d4 <failedtest_x8_x7>
    1100:	000010f0          	.word	0x000010f0
    1104:	000059c8          	.word	0x000059c8
    1108:	00480813          	addi	x16,x16,4
    110c:	00000013          	addi	x0,x0,0
    1110:	00000013          	addi	x0,x0,0
    1114:	00000013          	addi	x0,x0,0
    1118:	00000013          	addi	x0,x0,0
    111c:	00000013          	addi	x0,x0,0

# Testcase: cp_align_byte (imm[2:0] = 001)
  LA(x5, scratch) # load base address
    1120:	00003297          	auipc	x5,0x3
    1124:	ee028293          	addi	x5,x5,-288 # 4000 <scratch>
    1128:	00000013          	addi	x0,x0,0
    112c:	00000013          	addi	x0,x0,0
    1130:	00000013          	addi	x0,x0,0
    1134:	00000013          	addi	x0,x0,0
    1138:	00000013          	addi	x0,x0,0
    113c:	00000013          	addi	x0,x0,0
  RVTEST_TESTDATA_LOAD_INT(x10, x23) # load temp_reg: x23 = 0xc6d4e057
    1140:	00052b83          	lw	x23,0(x10)
    1144:	00450513          	addi	x10,x10,4
  SREG x23, 0(x5) # store test value to memory
    1148:	0172a023          	sw	x23,0(x5)
  SREG x23, REGWIDTH(x5) # store test value to memory
    114c:	0172a223          	sw	x23,4(x5)

00001150 <I_lbu_cg_cp_align_byte_b1>:
I_lbu_cg_cp_align_byte_b1:
  lbu x30, 1(x5) # perform load
    1150:	0012cf03          	lbu	x30,1(x5)
  # Check if x30 contains the expected result. x16 is the signature ptr, x8 is the link ptr, x7 is a temp reg.
  RVTEST_SIGUPD(x16, x8, x7, x30, I_lbu_cg_cp_align_byte_b1, I_lbu_cg_cp_align_byte_b1_str)
    1154:	00082383          	lw	x7,0(x16)
    1158:	01e38863          	beq	x7,x30,1168 <I_lbu_cg_cp_align_byte_b1+0x18>
    115c:	3780046f          	jal	x8,14d4 <failedtest_x8_x7>
    1160:	00001150          	.word	0x00001150
    1164:	000059fe          	.word	0x000059fe
    1168:	00480813          	addi	x16,x16,4
    116c:	00000013          	addi	x0,x0,0
    1170:	00000013          	addi	x0,x0,0
    1174:	00000013          	addi	x0,x0,0
    1178:	00000013          	addi	x0,x0,0
    117c:	00000013          	addi	x0,x0,0

# Testcase: cp_align_byte (imm[2:0] = 010)
  LA(x15, scratch) # load base address
    1180:	00003797          	auipc	x15,0x3
    1184:	e8078793          	addi	x15,x15,-384 # 4000 <scratch>
    1188:	00000013          	addi	x0,x0,0
    118c:	00000013          	addi	x0,x0,0
    1190:	00000013          	addi	x0,x0,0
    1194:	00000013          	addi	x0,x0,0
    1198:	00000013          	addi	x0,x0,0
    119c:	00000013          	addi	x0,x0,0
  RVTEST_TESTDATA_LOAD_INT(x10, x31) # load temp_reg: x31 = 0xf4efa90d
    11a0:	00052f83          	lw	x31,0(x10)
    11a4:	00450513          	addi	x10,x10,4
  SREG x31, 0(x15) # store test value to memory
    11a8:	01f7a023          	sw	x31,0(x15)
  SREG x31, REGWIDTH(x15) # store test value to memory
    11ac:	01f7a223          	sw	x31,4(x15)

000011b0 <I_lbu_cg_cp_align_byte_b2>:
I_lbu_cg_cp_align_byte_b2:
  lbu x23, 2(x15) # perform load
    11b0:	0027cb83          	lbu	x23,2(x15)
  # Check if x23 contains the expected result. x16 is the signature ptr, x8 is the link ptr, x7 is a temp reg.
  RVTEST_SIGUPD(x16, x8, x7, x23, I_lbu_cg_cp_align_byte_b2, I_lbu_cg_cp_align_byte_b2_str)
    11b4:	00082383          	lw	x7,0(x16)
    11b8:	01738863          	beq	x7,x23,11c8 <I_lbu_cg_cp_align_byte_b2+0x18>
    11bc:	3180046f          	jal	x8,14d4 <failedtest_x8_x7>
    11c0:	000011b0          	.word	0x000011b0
    11c4:	00005a34          	.word	0x00005a34
    11c8:	00480813          	addi	x16,x16,4
    11cc:	00000013          	addi	x0,x0,0
    11d0:	00000013          	addi	x0,x0,0
    11d4:	00000013          	addi	x0,x0,0
    11d8:	00000013          	addi	x0,x0,0
    11dc:	00000013          	addi	x0,x0,0

# Testcase: cp_align_byte (imm[2:0] = 011)
  LA(x12, scratch) # load base address
    11e0:	00003617          	auipc	x12,0x3
    11e4:	e2060613          	addi	x12,x12,-480 # 4000 <scratch>
    11e8:	00000013          	addi	x0,x0,0
    11ec:	00000013          	addi	x0,x0,0
    11f0:	00000013          	addi	x0,x0,0
    11f4:	00000013          	addi	x0,x0,0
    11f8:	00000013          	addi	x0,x0,0
    11fc:	00000013          	addi	x0,x0,0
  RVTEST_TESTDATA_LOAD_INT(x10, x5) # load temp_reg: x5 = 0x34f289e9
    1200:	00052283          	lw	x5,0(x10)
    1204:	00450513          	addi	x10,x10,4
  SREG x5, 0(x12) # store test value to memory
    1208:	00562023          	sw	x5,0(x12)
  SREG x5, REGWIDTH(x12) # store test value to memory
    120c:	00562223          	sw	x5,4(x12)

00001210 <I_lbu_cg_cp_align_byte_b3>:
I_lbu_cg_cp_align_byte_b3:
  lbu x26, 3(x12) # perform load
    1210:	00364d03          	lbu	x26,3(x12)
  # Check if x26 contains the expected result. x16 is the signature ptr, x8 is the link ptr, x7 is a temp reg.
  RVTEST_SIGUPD(x16, x8, x7, x26, I_lbu_cg_cp_align_byte_b3, I_lbu_cg_cp_align_byte_b3_str)
    1214:	00082383          	lw	x7,0(x16)
    1218:	01a38863          	beq	x7,x26,1228 <I_lbu_cg_cp_align_byte_b3+0x18>
    121c:	2b80046f          	jal	x8,14d4 <failedtest_x8_x7>
    1220:	00001210          	.word	0x00001210
    1224:	00005a6a          	.word	0x00005a6a
    1228:	00480813          	addi	x16,x16,4
    122c:	00000013          	addi	x0,x0,0
    1230:	00000013          	addi	x0,x0,0
    1234:	00000013          	addi	x0,x0,0
    1238:	00000013          	addi	x0,x0,0
    123c:	00000013          	addi	x0,x0,0

# Testcase: cp_align_byte (imm[2:0] = 100)
  LA(x29, scratch) # load base address
    1240:	00003e97          	auipc	x29,0x3
    1244:	dc0e8e93          	addi	x29,x29,-576 # 4000 <scratch>
    1248:	00000013          	addi	x0,x0,0
    124c:	00000013          	addi	x0,x0,0
    1250:	00000013          	addi	x0,x0,0
    1254:	00000013          	addi	x0,x0,0
    1258:	00000013          	addi	x0,x0,0
    125c:	00000013          	addi	x0,x0,0
  RVTEST_TESTDATA_LOAD_INT(x10, x24) # load temp_reg: x24 = 0x111db109
    1260:	00052c03          	lw	x24,0(x10)
    1264:	00450513          	addi	x10,x10,4
  SREG x24, 0(x29) # store test value to memory
    1268:	018ea023          	sw	x24,0(x29)
  SREG x24, REGWIDTH(x29) # store test value to memory
    126c:	018ea223          	sw	x24,4(x29)

00001270 <I_lbu_cg_cp_align_byte_b4>:
I_lbu_cg_cp_align_byte_b4:
  lbu x3, 4(x29) # perform load
    1270:	004ec183          	lbu	x3,4(x29)
  # Check if x3 contains the expected result. x16 is the signature ptr, x8 is the link ptr, x7 is a temp reg.
  RVTEST_SIGUPD(x16, x8, x7, x3, I_lbu_cg_cp_align_byte_b4, I_lbu_cg_cp_align_byte_b4_str)
    1274:	00082383          	lw	x7,0(x16)
    1278:	00338863          	beq	x7,x3,1288 <I_lbu_cg_cp_align_byte_b4+0x18>
    127c:	2580046f          	jal	x8,14d4 <failedtest_x8_x7>
    1280:	00001270          	.word	0x00001270
    1284:	00005aa0          	.word	0x00005aa0
    1288:	00480813          	addi	x16,x16,4
    128c:	00000013          	addi	x0,x0,0
    1290:	00000013          	addi	x0,x0,0
    1294:	00000013          	addi	x0,x0,0
    1298:	00000013          	addi	x0,x0,0
    129c:	00000013          	addi	x0,x0,0

# Testcase: cp_align_byte (imm[2:0] = 101)
  LA(x17, scratch) # load base address
    12a0:	00003897          	auipc	x17,0x3
    12a4:	d6088893          	addi	x17,x17,-672 # 4000 <scratch>
    12a8:	00000013          	addi	x0,x0,0
    12ac:	00000013          	addi	x0,x0,0
    12b0:	00000013          	addi	x0,x0,0
    12b4:	00000013          	addi	x0,x0,0
    12b8:	00000013          	addi	x0,x0,0
    12bc:	00000013          	addi	x0,x0,0
  RVTEST_TESTDATA_LOAD_INT(x10, x29) # load temp_reg: x29 = 0x60cd4ab9
    12c0:	00052e83          	lw	x29,0(x10)
    12c4:	00450513          	addi	x10,x10,4
  SREG x29, 0(x17) # store test value to memory
    12c8:	01d8a023          	sw	x29,0(x17)
  SREG x29, REGWIDTH(x17) # store test value to memory
    12cc:	01d8a223          	sw	x29,4(x17)

000012d0 <I_lbu_cg_cp_align_byte_b5>:
I_lbu_cg_cp_align_byte_b5:
  lbu x3, 5(x17) # perform load
    12d0:	0058c183          	lbu	x3,5(x17)
  # Check if x3 contains the expected result. x16 is the signature ptr, x8 is the link ptr, x7 is a temp reg.
  RVTEST_SIGUPD(x16, x8, x7, x3, I_lbu_cg_cp_align_byte_b5, I_lbu_cg_cp_align_byte_b5_str)
    12d4:	00082383          	lw	x7,0(x16)
    12d8:	00338863          	beq	x7,x3,12e8 <I_lbu_cg_cp_align_byte_b5+0x18>
    12dc:	1f80046f          	jal	x8,14d4 <failedtest_x8_x7>
    12e0:	000012d0          	.word	0x000012d0
    12e4:	00005ad6          	.word	0x00005ad6
    12e8:	00480813          	addi	x16,x16,4
    12ec:	00000013          	addi	x0,x0,0
    12f0:	00000013          	addi	x0,x0,0
    12f4:	00000013          	addi	x0,x0,0
    12f8:	00000013          	addi	x0,x0,0
    12fc:	00000013          	addi	x0,x0,0

# Testcase: cp_align_byte (imm[2:0] = 110)
  LA(x4, scratch) # load base address
    1300:	00003217          	auipc	x4,0x3
    1304:	d0020213          	addi	x4,x4,-768 # 4000 <scratch>
    1308:	00000013          	addi	x0,x0,0
    130c:	00000013          	addi	x0,x0,0
    1310:	00000013          	addi	x0,x0,0
    1314:	00000013          	addi	x0,x0,0
    1318:	00000013          	addi	x0,x0,0
    131c:	00000013          	addi	x0,x0,0
  RVTEST_TESTDATA_LOAD_INT(x10, x27) # load temp_reg: x27 = 0x5cbbb204
    1320:	00052d83          	lw	x27,0(x10)
    1324:	00450513          	addi	x10,x10,4
  SREG x27, 0(x4) # store test value to memory
    1328:	01b22023          	sw	x27,0(x4) # 0 <rvtest_entry_point>
  SREG x27, REGWIDTH(x4) # store test value to memory
    132c:	01b22223          	sw	x27,4(x4) # 4 <MMODE_SIG+0x1>

00001330 <I_lbu_cg_cp_align_byte_b6>:
I_lbu_cg_cp_align_byte_b6:
  lbu x11, 6(x4) # perform load
    1330:	00624583          	lbu	x11,6(x4) # 6 <MMODE_SIG+0x3>
  # Check if x11 contains the expected result. x16 is the signature ptr, x8 is the link ptr, x7 is a temp reg.
  RVTEST_SIGUPD(x16, x8, x7, x11, I_lbu_cg_cp_align_byte_b6, I_lbu_cg_cp_align_byte_b6_str)
    1334:	00082383          	lw	x7,0(x16)
    1338:	00b38863          	beq	x7,x11,1348 <I_lbu_cg_cp_align_byte_b6+0x18>
    133c:	1980046f          	jal	x8,14d4 <failedtest_x8_x7>
    1340:	00001330          	.word	0x00001330
    1344:	00005b0c          	.word	0x00005b0c
    1348:	00480813          	addi	x16,x16,4
    134c:	00000013          	addi	x0,x0,0
    1350:	00000013          	addi	x0,x0,0
    1354:	00000013          	addi	x0,x0,0
    1358:	00000013          	addi	x0,x0,0
    135c:	00000013          	addi	x0,x0,0

# Testcase: cp_align_byte (imm[2:0] = 111)
  LA(x15, scratch) # load base address
    1360:	00003797          	auipc	x15,0x3
    1364:	ca078793          	addi	x15,x15,-864 # 4000 <scratch>
    1368:	00000013          	addi	x0,x0,0
    136c:	00000013          	addi	x0,x0,0
    1370:	00000013          	addi	x0,x0,0
    1374:	00000013          	addi	x0,x0,0
    1378:	00000013          	addi	x0,x0,0
    137c:	00000013          	addi	x0,x0,0
  RVTEST_TESTDATA_LOAD_INT(x10, x18) # load temp_reg: x18 = 0x2fc517a2
    1380:	00052903          	lw	x18,0(x10)
    1384:	00450513          	addi	x10,x10,4
  SREG x18, 0(x15) # store test value to memory
    1388:	0127a023          	sw	x18,0(x15)
  SREG x18, REGWIDTH(x15) # store test value to memory
    138c:	0127a223          	sw	x18,4(x15)

00001390 <I_lbu_cg_cp_align_byte_b7>:
I_lbu_cg_cp_align_byte_b7:
  lbu x4, 7(x15) # perform load
    1390:	0077c203          	lbu	x4,7(x15)
  # Check if x4 contains the expected result. x16 is the signature ptr, x8 is the link ptr, x7 is a temp reg.
  RVTEST_SIGUPD(x16, x8, x7, x4, I_lbu_cg_cp_align_byte_b7, I_lbu_cg_cp_align_byte_b7_str)
    1394:	00082383          	lw	x7,0(x16)
    1398:	00438863          	beq	x7,x4,13a8 <I_lbu_cg_cp_align_byte_b7+0x18>
    139c:	1380046f          	jal	x8,14d4 <failedtest_x8_x7>
    13a0:	00001390          	.word	0x00001390
    13a4:	00005b42          	.word	0x00005b42
    13a8:	00480813          	addi	x16,x16,4
/////////////////////////////////
// cp_memval_byte
/////////////////////////////////

# Testcase cp_memval_byte (memory value = 0x0)
  addi x18, x10, -248 # copy data_ptr to rs1 and adjust for offset
    13ac:	f0850913          	addi	x18,x10,-248

000013b0 <I_lbu_cg_cp_memval_byte_0x0>:
I_lbu_cg_cp_memval_byte_0x0:
  lbu x19, 248(x18) # perform load (0x00000000)
    13b0:	0f894983          	lbu	x19,248(x18)
  # Check if x19 contains the expected result. x16 is the signature ptr, x8 is the link ptr, x7 is a temp reg.
  RVTEST_SIGUPD(x16, x8, x7, x19, I_lbu_cg_cp_memval_byte_0x0, I_lbu_cg_cp_memval_byte_0x0_str)
    13b4:	00082383          	lw	x7,0(x16)
    13b8:	01338863          	beq	x7,x19,13c8 <I_lbu_cg_cp_memval_byte_0x0+0x18>
    13bc:	1180046f          	jal	x8,14d4 <failedtest_x8_x7>
    13c0:	000013b0          	.word	0x000013b0
    13c4:	00005b78          	.word	0x00005b78
    13c8:	00480813          	addi	x16,x16,4
  addi x10, x10, SIG_STRIDE # increment data_ptr
    13cc:	00450513          	addi	x10,x10,4

# Testcase cp_memval_byte (memory value = 0x1)
  addi x3, x10, -1322 # copy data_ptr to rs1 and adjust for offset
    13d0:	ad650193          	addi	x3,x10,-1322

000013d4 <I_lbu_cg_cp_memval_byte_0x1>:
I_lbu_cg_cp_memval_byte_0x1:
  lbu x23, 1322(x3) # perform load (0x00000001)
    13d4:	52a1cb83          	lbu	x23,1322(x3)
  # Check if x23 contains the expected result. x16 is the signature ptr, x8 is the link ptr, x7 is a temp reg.
  RVTEST_SIGUPD(x16, x8, x7, x23, I_lbu_cg_cp_memval_byte_0x1, I_lbu_cg_cp_memval_byte_0x1_str)
    13d8:	00082383          	lw	x7,0(x16)
    13dc:	01738863          	beq	x7,x23,13ec <I_lbu_cg_cp_memval_byte_0x1+0x18>
    13e0:	0f40046f          	jal	x8,14d4 <failedtest_x8_x7>
    13e4:	000013d4          	.word	0x000013d4
    13e8:	00005bb0          	.word	0x00005bb0
    13ec:	00480813          	addi	x16,x16,4
  addi x10, x10, SIG_STRIDE # increment data_ptr
    13f0:	00450513          	addi	x10,x10,4

# Testcase cp_memval_byte (memory value = 0x7f)
  addi x11, x10, 2035 # copy data_ptr to rs1 and adjust for offset
    13f4:	7f350593          	addi	x11,x10,2035

000013f8 <I_lbu_cg_cp_memval_byte_0x7f>:
I_lbu_cg_cp_memval_byte_0x7f:
  lbu x17, -2035(x11) # perform load (0x0000007f)
    13f8:	80d5c883          	lbu	x17,-2035(x11)
  # Check if x17 contains the expected result. x16 is the signature ptr, x8 is the link ptr, x7 is a temp reg.
  RVTEST_SIGUPD(x16, x8, x7, x17, I_lbu_cg_cp_memval_byte_0x7f, I_lbu_cg_cp_memval_byte_0x7f_str)
    13fc:	00082383          	lw	x7,0(x16)
    1400:	01138863          	beq	x7,x17,1410 <I_lbu_cg_cp_memval_byte_0x7f+0x18>
    1404:	0d00046f          	jal	x8,14d4 <failedtest_x8_x7>
    1408:	000013f8          	.word	0x000013f8
    140c:	00005be8          	.word	0x00005be8
    1410:	00480813          	addi	x16,x16,4
  addi x10, x10, SIG_STRIDE # increment data_ptr
    1414:	00450513          	addi	x10,x10,4

# Testcase cp_memval_byte (memory value = 0x80)
  addi x3, x10, 561 # copy data_ptr to rs1 and adjust for offset
    1418:	23150193          	addi	x3,x10,561

0000141c <I_lbu_cg_cp_memval_byte_0x80>:
I_lbu_cg_cp_memval_byte_0x80:
  lbu x1, -561(x3) # perform load (0x00000080)
    141c:	dcf1c083          	lbu	x1,-561(x3)
  # Check if x1 contains the expected result. x16 is the signature ptr, x8 is the link ptr, x7 is a temp reg.
  RVTEST_SIGUPD(x16, x8, x7, x1, I_lbu_cg_cp_memval_byte_0x80, I_lbu_cg_cp_memval_byte_0x80_str)
    1420:	00082383          	lw	x7,0(x16)
    1424:	00138863          	beq	x7,x1,1434 <I_lbu_cg_cp_memval_byte_0x80+0x18>
    1428:	0ac0046f          	jal	x8,14d4 <failedtest_x8_x7>
    142c:	0000141c          	.word	0x0000141c
    1430:	00005c21          	.word	0x00005c21
    1434:	00480813          	addi	x16,x16,4
  addi x10, x10, SIG_STRIDE # increment data_ptr
    1438:	00450513          	addi	x10,x10,4

# Testcase cp_memval_byte (memory value = 0xff)
  addi x9, x10, 520 # copy data_ptr to rs1 and adjust for offset
    143c:	20850493          	addi	x9,x10,520

00001440 <I_lbu_cg_cp_memval_byte_0xff>:
I_lbu_cg_cp_memval_byte_0xff:
  lbu x17, -520(x9) # perform load (0x000000ff)
    1440:	df84c883          	lbu	x17,-520(x9)
  # Check if x17 contains the expected result. x16 is the signature ptr, x8 is the link ptr, x7 is a temp reg.
  RVTEST_SIGUPD(x16, x8, x7, x17, I_lbu_cg_cp_memval_byte_0xff, I_lbu_cg_cp_memval_byte_0xff_str)
    1444:	00082383          	lw	x7,0(x16)
    1448:	01138863          	beq	x7,x17,1458 <I_lbu_cg_cp_memval_byte_0xff+0x18>
    144c:	0880046f          	jal	x8,14d4 <failedtest_x8_x7>
    1450:	00001440          	.word	0x00001440
    1454:	00005c5a          	.word	0x00005c5a
    1458:	00480813          	addi	x16,x16,4
  addi x10, x10, SIG_STRIDE # increment data_ptr
    145c:	00450513          	addi	x10,x10,4

  mv x2, x16 # restore signature pointer to default register for teardown
    1460:	00080113          	addi	x2,x16,0

00001464 <cleanup_epilogs>:
    1464:	00000013          	addi	x0,x0,0
    1468:	00000013          	addi	x0,x0,0
    146c:	00000013          	addi	x0,x0,0
    1470:	00000013          	addi	x0,x0,0
    1474:	00000013          	addi	x0,x0,0
    1478:	00000013          	addi	x0,x0,0
    147c:	00000013          	addi	x0,x0,0

// Instantiate trap handlers and other epilog code, call RVMODEL_HALT at end of test
RVTEST_CODE_END
    1480:	00005517          	auipc	x10,0x5
    1484:	e8450513          	addi	x10,x10,-380 # 6304 <successstr>
    1488:	00000013          	addi	x0,x0,0
    148c:	00000013          	addi	x0,x0,0
    1490:	00000013          	addi	x0,x0,0
    1494:	00000013          	addi	x0,x0,0
    1498:	00000013          	addi	x0,x0,0
    149c:	00000013          	addi	x0,x0,0
    14a0:	00016097          	auipc	x1,0x16
    14a4:	d64080e7          	jalr	x1,-668(x1) # 17204 <rvmodel_io_write_str>
    14a8:	00016097          	auipc	x1,0x16
    14ac:	d60080e7          	jalr	x1,-672(x1) # 17208 <rvmodel_halt_pass>

000014b0 <abort_test>:
    14b0:	bad0e737          	lui	x14,0xbad0e
    14b4:	ead70713          	addi	x14,x14,-339 # bad0dead <absimm+0x4b743ba4>
    14b8:	fadff06f          	jal	x0,1464 <cleanup_epilogs>

000014bc <failedtest_x5_x4>:
    14bc:	00004217          	auipc	x4,0x4
    14c0:	7e420213          	addi	x4,x4,2020 # 5ca0 <begin_failure_scratch>
    14c4:	02522423          	sw	x5,40(x4) # 28 <MMODE_SIG+0x25>
    14c8:	00122423          	sw	x1,8(x4) # 8 <MMODE_SIG+0x5>
    14cc:	00022023          	sw	x0,0(x4) # 0 <rvtest_entry_point>
    14d0:	0b00006f          	jal	x0,1580 <failedtest_saveregs>

000014d4 <failedtest_x8_x7>:
    14d4:	00004397          	auipc	x7,0x4
    14d8:	7cc38393          	addi	x7,x7,1996 # 5ca0 <begin_failure_scratch>
    14dc:	0483a023          	sw	x8,64(x7)
    14e0:	0243a023          	sw	x4,32(x7)
    14e4:	0253a423          	sw	x5,40(x7)
    14e8:	0013a423          	sw	x1,8(x7)
    14ec:	0003a023          	sw	x0,0(x7)
    14f0:	00038213          	addi	x4,x7,0
    14f4:	00040293          	addi	x5,x8,0
    14f8:	0880006f          	jal	x0,1580 <failedtest_saveregs>

000014fc <failedtest_x14_x13>:
    14fc:	00004697          	auipc	x13,0x4
    1500:	7a468693          	addi	x13,x13,1956 # 5ca0 <begin_failure_scratch>
    1504:	06e6a823          	sw	x14,112(x13)
    1508:	0246a023          	sw	x4,32(x13)
    150c:	0256a423          	sw	x5,40(x13)
    1510:	0016a423          	sw	x1,8(x13)
    1514:	0006a023          	sw	x0,0(x13)
    1518:	00068213          	addi	x4,x13,0
    151c:	00070293          	addi	x5,x14,0
    1520:	0600006f          	jal	x0,1580 <failedtest_saveregs>

00001524 <failedtest_trap_x7_x9>:
    1524:	00004497          	auipc	x9,0x4
    1528:	77c48493          	addi	x9,x9,1916 # 5ca0 <begin_failure_scratch>
    152c:	0674a423          	sw	x7,104(x9)
    1530:	0244a023          	sw	x4,32(x9)
    1534:	0254a423          	sw	x5,40(x9)
    1538:	0014a423          	sw	x1,8(x9)
    153c:	00300093          	addi	x1,x0,3
    1540:	0014a023          	sw	x1,0(x9)
    1544:	00048213          	addi	x4,x9,0
    1548:	00038293          	addi	x5,x7,0
    154c:	342020f3          	csrrs	x1,mcause,x0
    1550:	00005497          	auipc	x9,0x5
    1554:	8c048493          	addi	x9,x9,-1856 # 5e10 <saved_mcause>
    1558:	0014a023          	sw	x1,0(x9)
    155c:	343020f3          	csrrs	x1,mtval,x0
    1560:	00005497          	auipc	x9,0x5
    1564:	8b848493          	addi	x9,x9,-1864 # 5e18 <saved_mtval>
    1568:	0014a023          	sw	x1,0(x9)
    156c:	300020f3          	csrrs	x1,mstatus,x0
    1570:	00005497          	auipc	x9,0x5
    1574:	8b048493          	addi	x9,x9,-1872 # 5e20 <saved_mstatus>
    1578:	0014a023          	sw	x1,0(x9)
    157c:	0040006f          	jal	x0,1580 <failedtest_saveregs>

00001580 <failedtest_saveregs>:
    1580:	00222823          	sw	x2,16(x4) # 10 <MMODE_SIG+0xd>
    1584:	00322c23          	sw	x3,24(x4) # 18 <MMODE_SIG+0x15>
    1588:	02622823          	sw	x6,48(x4) # 30 <MMODE_SIG+0x2d>
    158c:	02722c23          	sw	x7,56(x4) # 38 <MMODE_SIG+0x35>
    1590:	04822023          	sw	x8,64(x4) # 40 <rvtest_code_begin>
    1594:	04922423          	sw	x9,72(x4) # 48 <I_lbu_cg_cp_rs1_nx0_b1+0x4>
    1598:	04a22823          	sw	x10,80(x4) # 50 <I_lbu_cg_cp_rs1_nx0_b1+0xc>
    159c:	04b22c23          	sw	x11,88(x4) # 58 <I_lbu_cg_cp_rs1_nx0_b1+0x14>
    15a0:	06c22023          	sw	x12,96(x4) # 60 <I_lbu_cg_cp_rs1_nx0_b1+0x1c>
    15a4:	06d22423          	sw	x13,104(x4) # 68 <I_lbu_cg_cp_rs1_nx0_b1+0x24>
    15a8:	06e22823          	sw	x14,112(x4) # 70 <I_lbu_cg_cp_rs1_nx0_b2+0x4>
    15ac:	06f22c23          	sw	x15,120(x4) # 78 <I_lbu_cg_cp_rs1_nx0_b2+0xc>
    15b0:	09022023          	sw	x16,128(x4) # 80 <I_lbu_cg_cp_rs1_nx0_b2+0x14>
    15b4:	09122423          	sw	x17,136(x4) # 88 <I_lbu_cg_cp_rs1_nx0_b2+0x1c>
    15b8:	09222823          	sw	x18,144(x4) # 90 <I_lbu_cg_cp_rs1_nx0_b2+0x24>
    15bc:	09322c23          	sw	x19,152(x4) # 98 <I_lbu_cg_cp_rs1_nx0_b3+0x4>
    15c0:	0b422023          	sw	x20,160(x4) # a0 <I_lbu_cg_cp_rs1_nx0_b3+0xc>
    15c4:	0b522423          	sw	x21,168(x4) # a8 <I_lbu_cg_cp_rs1_nx0_b3+0x14>
    15c8:	0b622823          	sw	x22,176(x4) # b0 <I_lbu_cg_cp_rs1_nx0_b3+0x1c>
    15cc:	0b722c23          	sw	x23,184(x4) # b8 <I_lbu_cg_cp_rs1_nx0_b3+0x24>
    15d0:	0d822023          	sw	x24,192(x4) # c0 <I_lbu_cg_cp_rs1_nx0_b4>
    15d4:	0d922423          	sw	x25,200(x4) # c8 <I_lbu_cg_cp_rs1_nx0_b4+0x8>
    15d8:	0da22823          	sw	x26,208(x4) # d0 <I_lbu_cg_cp_rs1_nx0_b4+0x10>
    15dc:	0db22c23          	sw	x27,216(x4) # d8 <I_lbu_cg_cp_rs1_nx0_b4+0x18>
    15e0:	0fc22023          	sw	x28,224(x4) # e0 <I_lbu_cg_cp_rs1_nx0_b4+0x20>
    15e4:	0fd22423          	sw	x29,232(x4) # e8 <I_lbu_cg_cp_rs1_nx0_b5+0x4>
    15e8:	0fe22823          	sw	x30,240(x4) # f0 <I_lbu_cg_cp_rs1_nx0_b5+0xc>
    15ec:	0ff22c23          	sw	x31,248(x4) # f8 <I_lbu_cg_cp_rs1_nx0_b5+0x14>

000015f0 <failedtest_saveresults>:
    15f0:	00004497          	auipc	x9,0x4
    15f4:	6b04a483          	lw	x9,1712(x9) # 5ca0 <begin_failure_scratch>
    15f8:	00300513          	addi	x10,x0,3
    15fc:	06a48863          	beq	x9,x10,166c <failedtest_saveresults_trap>

00001600 <failedtest_saveresults_int>:
    1600:	ffa2d303          	lhu	x6,-6(x5)
    1604:	ff82d383          	lhu	x7,-8(x5)
    1608:	01031313          	slli	x6,x6,0x10
    160c:	00736333          	or	x6,x6,x7
    1610:	00f35393          	srli	x7,x6,0xf
    1614:	01f3f393          	andi	x7,x7,31
    1618:	01435413          	srli	x8,x6,0x14
    161c:	01f47413          	andi	x8,x8,31
    1620:	10822223          	sw	x8,260(x4) # 104 <I_lbu_cg_cp_rs1_nx0_b5+0x20>
    1624:	00341313          	slli	x6,x8,0x3
    1628:	00620333          	add	x6,x4,x6
    162c:	00032303          	lw	x6,0(x6)
    1630:	10622823          	sw	x6,272(x4) # 110 <I_lbu_cg_cp_rs1_nx0_b6+0x8>
    1634:	ff62d303          	lhu	x6,-10(x5)
    1638:	ff42d383          	lhu	x7,-12(x5)
    163c:	01031313          	slli	x6,x6,0x10
    1640:	00736333          	or	x6,x6,x7
    1644:	41435393          	srai	x7,x6,0x14
    1648:	00f35313          	srli	x6,x6,0xf
    164c:	01f37313          	andi	x6,x6,31
    1650:	00331313          	slli	x6,x6,0x3
    1654:	00620333          	add	x6,x4,x6
    1658:	00032303          	lw	x6,0(x6)
    165c:	00730333          	add	x6,x6,x7
    1660:	00032303          	lw	x6,0(x6)
    1664:	10622c23          	sw	x6,280(x4) # 118 <I_lbu_cg_cp_rs1_nx0_b6+0x10>
    1668:	3d80006f          	jal	x0,1a40 <failedtest_saveresults_common>

0000166c <failedtest_saveresults_trap>:
    166c:	0042a303          	lw	x6,4(x5)
    1670:	00004817          	auipc	x16,0x4
    1674:	78880813          	addi	x16,x16,1928 # 5df8 <trap_diag_fail_str_ptr>
    1678:	00682023          	sw	x6,0(x16)
    167c:	0002a303          	lw	x6,0(x5)
    1680:	10622423          	sw	x6,264(x4) # 108 <I_lbu_cg_cp_rs1_nx0_b6>
    1684:	00004817          	auipc	x16,0x4
    1688:	77480813          	addi	x16,x16,1908 # 5df8 <trap_diag_fail_str_ptr>
    168c:	00082303          	lw	x6,0(x16)
    1690:	00005397          	auipc	x7,0x5
    1694:	e3a38393          	addi	x7,x7,-454 # 64ca <trap_sig_offset_mismatch>
    1698:	28730463          	beq	x6,x7,1920 <trap_diag_offset_mismatch>
    169c:	00000413          	addi	x8,x0,0
    16a0:	00004817          	auipc	x16,0x4
    16a4:	73080813          	addi	x16,x16,1840 # 5dd0 <trap_diag_subtype>
    16a8:	00882023          	sw	x8,0(x16)
    16ac:	00005397          	auipc	x7,0x5
    16b0:	e8238393          	addi	x7,x7,-382 # 652e <sv_Mvect_str>
    16b4:	00731863          	bne	x6,x7,16c4 <failedtest_saveresults_trap+0x58>
    16b8:	00100413          	addi	x8,x0,1
    16bc:	00000493          	addi	x9,x0,0
    16c0:	2e00006f          	jal	x0,19a0 <trap_diag_field_identified>
    16c4:	00005397          	auipc	x7,0x5
    16c8:	f6c38393          	addi	x7,x7,-148 # 6630 <sv_Mcause_str>
    16cc:	00731863          	bne	x6,x7,16dc <failedtest_saveresults_trap+0x70>
    16d0:	00200413          	addi	x8,x0,2
    16d4:	00000493          	addi	x9,x0,0
    16d8:	2c80006f          	jal	x0,19a0 <trap_diag_field_identified>
    16dc:	00005397          	auipc	x7,0x5
    16e0:	04f38393          	addi	x7,x7,79 # 672b <sv_Mepc_str>
    16e4:	00731863          	bne	x6,x7,16f4 <failedtest_saveresults_trap+0x88>
    16e8:	00300413          	addi	x8,x0,3
    16ec:	00000493          	addi	x9,x0,0
    16f0:	2b00006f          	jal	x0,19a0 <trap_diag_field_identified>
    16f4:	00005397          	auipc	x7,0x5
    16f8:	12a38393          	addi	x7,x7,298 # 681e <sv_Mtval_str>
    16fc:	00731863          	bne	x6,x7,170c <failedtest_saveresults_trap+0xa0>
    1700:	00400413          	addi	x8,x0,4
    1704:	00000493          	addi	x9,x0,0
    1708:	2980006f          	jal	x0,19a0 <trap_diag_field_identified>
    170c:	00005397          	auipc	x7,0x5
    1710:	28538393          	addi	x7,x7,645 # 6991 <sv_Mip_str>
    1714:	00731863          	bne	x6,x7,1724 <failedtest_saveresults_trap+0xb8>
    1718:	00500413          	addi	x8,x0,5
    171c:	00000493          	addi	x9,x0,0
    1720:	2800006f          	jal	x0,19a0 <trap_diag_field_identified>
    1724:	00005397          	auipc	x7,0x5
    1728:	1f138393          	addi	x7,x7,497 # 6915 <sv_Mtval2_str>
    172c:	00731863          	bne	x6,x7,173c <failedtest_saveresults_trap+0xd0>
    1730:	00600413          	addi	x8,x0,6
    1734:	00000493          	addi	x9,x0,0
    1738:	2680006f          	jal	x0,19a0 <trap_diag_field_identified>
    173c:	00005397          	auipc	x7,0x5
    1740:	21738393          	addi	x7,x7,535 # 6953 <sv_Mtinst_str>
    1744:	00731863          	bne	x6,x7,1754 <failedtest_saveresults_trap+0xe8>
    1748:	00700413          	addi	x8,x0,7
    174c:	00000493          	addi	x9,x0,0
    1750:	2500006f          	jal	x0,19a0 <trap_diag_field_identified>
    1754:	00005397          	auipc	x7,0x5
    1758:	e1a38393          	addi	x7,x7,-486 # 656e <sv_Svect_str>
    175c:	00731863          	bne	x6,x7,176c <failedtest_saveresults_trap+0x100>
    1760:	00100413          	addi	x8,x0,1
    1764:	00100493          	addi	x9,x0,1
    1768:	2380006f          	jal	x0,19a0 <trap_diag_field_identified>
    176c:	00005397          	auipc	x7,0x5
    1770:	f0238393          	addi	x7,x7,-254 # 666e <sv_Scause_str>
    1774:	00731863          	bne	x6,x7,1784 <failedtest_saveresults_trap+0x118>
    1778:	00200413          	addi	x8,x0,2
    177c:	00100493          	addi	x9,x0,1
    1780:	2200006f          	jal	x0,19a0 <trap_diag_field_identified>
    1784:	00005397          	auipc	x7,0x5
    1788:	fe338393          	addi	x7,x7,-29 # 6767 <sv_Sepc_str>
    178c:	00731863          	bne	x6,x7,179c <failedtest_saveresults_trap+0x130>
    1790:	00300413          	addi	x8,x0,3
    1794:	00100493          	addi	x9,x0,1
    1798:	2080006f          	jal	x0,19a0 <trap_diag_field_identified>
    179c:	00005397          	auipc	x7,0x5
    17a0:	0bf38393          	addi	x7,x7,191 # 685b <sv_Stval_str>
    17a4:	00731863          	bne	x6,x7,17b4 <failedtest_saveresults_trap+0x148>
    17a8:	00400413          	addi	x8,x0,4
    17ac:	00100493          	addi	x9,x0,1
    17b0:	1f00006f          	jal	x0,19a0 <trap_diag_field_identified>
    17b4:	00005397          	auipc	x7,0x5
    17b8:	21838393          	addi	x7,x7,536 # 69cc <sv_Sip_str>
    17bc:	00731863          	bne	x6,x7,17cc <failedtest_saveresults_trap+0x160>
    17c0:	00500413          	addi	x8,x0,5
    17c4:	00100493          	addi	x9,x0,1
    17c8:	1d80006f          	jal	x0,19a0 <trap_diag_field_identified>
    17cc:	00005397          	auipc	x7,0x5
    17d0:	de238393          	addi	x7,x7,-542 # 65ae <sv_Hvect_str>
    17d4:	00731863          	bne	x6,x7,17e4 <failedtest_saveresults_trap+0x178>
    17d8:	00100413          	addi	x8,x0,1
    17dc:	00200493          	addi	x9,x0,2
    17e0:	1c00006f          	jal	x0,19a0 <trap_diag_field_identified>
    17e4:	00005397          	auipc	x7,0x5
    17e8:	ec838393          	addi	x7,x7,-312 # 66ac <sv_Hcause_str>
    17ec:	00731863          	bne	x6,x7,17fc <failedtest_saveresults_trap+0x190>
    17f0:	00200413          	addi	x8,x0,2
    17f4:	00200493          	addi	x9,x0,2
    17f8:	1a80006f          	jal	x0,19a0 <trap_diag_field_identified>
    17fc:	00005397          	auipc	x7,0x5
    1800:	fa738393          	addi	x7,x7,-89 # 67a3 <sv_Hepc_str>
    1804:	00731863          	bne	x6,x7,1814 <failedtest_saveresults_trap+0x1a8>
    1808:	00300413          	addi	x8,x0,3
    180c:	00200493          	addi	x9,x0,2
    1810:	1900006f          	jal	x0,19a0 <trap_diag_field_identified>
    1814:	00005397          	auipc	x7,0x5
    1818:	08438393          	addi	x7,x7,132 # 6898 <sv_Htval_str>
    181c:	00731863          	bne	x6,x7,182c <failedtest_saveresults_trap+0x1c0>
    1820:	00400413          	addi	x8,x0,4
    1824:	00200493          	addi	x9,x0,2
    1828:	1780006f          	jal	x0,19a0 <trap_diag_field_identified>
    182c:	00005397          	auipc	x7,0x5
    1830:	1db38393          	addi	x7,x7,475 # 6a07 <sv_Hip_str>
    1834:	00731863          	bne	x6,x7,1844 <failedtest_saveresults_trap+0x1d8>
    1838:	00500413          	addi	x8,x0,5
    183c:	00200493          	addi	x9,x0,2
    1840:	1600006f          	jal	x0,19a0 <trap_diag_field_identified>
    1844:	00005397          	auipc	x7,0x5
    1848:	dab38393          	addi	x7,x7,-597 # 65ef <sv_Vvect_str>
    184c:	00731863          	bne	x6,x7,185c <failedtest_saveresults_trap+0x1f0>
    1850:	00100413          	addi	x8,x0,1
    1854:	00300493          	addi	x9,x0,3
    1858:	1480006f          	jal	x0,19a0 <trap_diag_field_identified>
    185c:	00005397          	auipc	x7,0x5
    1860:	e8f38393          	addi	x7,x7,-369 # 66eb <sv_Vcause_str>
    1864:	00731863          	bne	x6,x7,1874 <failedtest_saveresults_trap+0x208>
    1868:	00200413          	addi	x8,x0,2
    186c:	00300493          	addi	x9,x0,3
    1870:	1300006f          	jal	x0,19a0 <trap_diag_field_identified>
    1874:	00005397          	auipc	x7,0x5
    1878:	f6c38393          	addi	x7,x7,-148 # 67e0 <sv_Vepc_str>
    187c:	00731863          	bne	x6,x7,188c <failedtest_saveresults_trap+0x220>
    1880:	00300413          	addi	x8,x0,3
    1884:	00300493          	addi	x9,x0,3
    1888:	1180006f          	jal	x0,19a0 <trap_diag_field_identified>
    188c:	00005397          	auipc	x7,0x5
    1890:	04a38393          	addi	x7,x7,74 # 68d6 <sv_Vtval_str>
    1894:	00731863          	bne	x6,x7,18a4 <failedtest_saveresults_trap+0x238>
    1898:	00400413          	addi	x8,x0,4
    189c:	00300493          	addi	x9,x0,3
    18a0:	1000006f          	jal	x0,19a0 <trap_diag_field_identified>
    18a4:	00005397          	auipc	x7,0x5
    18a8:	19f38393          	addi	x7,x7,415 # 6a43 <sv_Vip_str>
    18ac:	00731863          	bne	x6,x7,18bc <failedtest_saveresults_trap+0x250>
    18b0:	00500413          	addi	x8,x0,5
    18b4:	00300493          	addi	x9,x0,3
    18b8:	0e80006f          	jal	x0,19a0 <trap_diag_field_identified>
    18bc:	00005397          	auipc	x7,0x5
    18c0:	1c438393          	addi	x7,x7,452 # 6a80 <Mclr_Mext_int_str>
    18c4:	00731863          	bne	x6,x7,18d4 <failedtest_saveresults_trap+0x268>
    18c8:	00800413          	addi	x8,x0,8
    18cc:	00000493          	addi	x9,x0,0
    18d0:	0d00006f          	jal	x0,19a0 <trap_diag_field_identified>
    18d4:	00005397          	auipc	x7,0x5
    18d8:	1fb38393          	addi	x7,x7,507 # 6acf <Mclr_Sext_int_str>
    18dc:	00731863          	bne	x6,x7,18ec <failedtest_saveresults_trap+0x280>
    18e0:	00800413          	addi	x8,x0,8
    18e4:	00000493          	addi	x9,x0,0
    18e8:	0b80006f          	jal	x0,19a0 <trap_diag_field_identified>
    18ec:	00005397          	auipc	x7,0x5
    18f0:	2de38393          	addi	x7,x7,734 # 6bca <Sclr_Sext_int_str>
    18f4:	00731863          	bne	x6,x7,1904 <failedtest_saveresults_trap+0x298>
    18f8:	00800413          	addi	x8,x0,8
    18fc:	00100493          	addi	x9,x0,1
    1900:	0a00006f          	jal	x0,19a0 <trap_diag_field_identified>
    1904:	00005397          	auipc	x7,0x5
    1908:	3c238393          	addi	x7,x7,962 # 6cc6 <Hclr_Sext_int_str>
    190c:	00731863          	bne	x6,x7,191c <failedtest_saveresults_trap+0x2b0>
    1910:	00800413          	addi	x8,x0,8
    1914:	00200493          	addi	x9,x0,2
    1918:	0880006f          	jal	x0,19a0 <trap_diag_field_identified>
    191c:	1140006f          	jal	x0,1a30 <trap_diag_generic_report>

00001920 <trap_diag_offset_mismatch>:
    1920:	00900413          	addi	x8,x0,9
    1924:	00004817          	auipc	x16,0x4
    1928:	4ac80813          	addi	x16,x16,1196 # 5dd0 <trap_diag_subtype>
    192c:	00882023          	sw	x8,0(x16)
    1930:	ffa2d303          	lhu	x6,-6(x5)
    1934:	ff82d383          	lhu	x7,-8(x5)
    1938:	01031313          	slli	x6,x6,0x10
    193c:	00736333          	or	x6,x6,x7
    1940:	01435413          	srli	x8,x6,0x14
    1944:	01f47413          	andi	x8,x8,31
    1948:	00341313          	slli	x6,x8,0x3
    194c:	00620333          	add	x6,x4,x6
    1950:	00032303          	lw	x6,0(x6)
    1954:	00004817          	auipc	x16,0x4
    1958:	49480813          	addi	x16,x16,1172 # 5de8 <trap_diag_actual_offset>
    195c:	00682023          	sw	x6,0(x16)
    1960:	ff62d303          	lhu	x6,-10(x5)
    1964:	ff42d383          	lhu	x7,-12(x5)
    1968:	01031313          	slli	x6,x6,0x10
    196c:	00736333          	or	x6,x6,x7
    1970:	41435393          	srai	x7,x6,0x14
    1974:	00f35313          	srli	x6,x6,0xf
    1978:	01f37313          	andi	x6,x6,31
    197c:	00331313          	slli	x6,x6,0x3
    1980:	00620333          	add	x6,x4,x6
    1984:	00032303          	lw	x6,0(x6)
    1988:	00730333          	add	x6,x6,x7
    198c:	00032303          	lw	x6,0(x6)
    1990:	00004817          	auipc	x16,0x4
    1994:	46080813          	addi	x16,x16,1120 # 5df0 <trap_diag_expected_offset>
    1998:	00682023          	sw	x6,0(x16)
    199c:	0a40006f          	jal	x0,1a40 <failedtest_saveresults_common>

000019a0 <trap_diag_field_identified>:
    19a0:	00004817          	auipc	x16,0x4
    19a4:	43080813          	addi	x16,x16,1072 # 5dd0 <trap_diag_subtype>
    19a8:	00882023          	sw	x8,0(x16)
    19ac:	00004817          	auipc	x16,0x4
    19b0:	42880813          	addi	x16,x16,1064 # 5dd4 <trap_diag_mode>
    19b4:	00982023          	sw	x9,0(x16)
    19b8:	ffa2d303          	lhu	x6,-6(x5)
    19bc:	ff82d383          	lhu	x7,-8(x5)
    19c0:	01031313          	slli	x6,x6,0x10
    19c4:	00736333          	or	x6,x6,x7
    19c8:	01435713          	srli	x14,x6,0x14
    19cc:	01f77713          	andi	x14,x14,31
    19d0:	00371313          	slli	x6,x14,0x3
    19d4:	00620333          	add	x6,x4,x6
    19d8:	00032303          	lw	x6,0(x6)
    19dc:	10622823          	sw	x6,272(x4) # 110 <I_lbu_cg_cp_rs1_nx0_b6+0x8>
    19e0:	00004817          	auipc	x16,0x4
    19e4:	3f880813          	addi	x16,x16,1016 # 5dd8 <trap_diag_actual_value>
    19e8:	00682023          	sw	x6,0(x16)
    19ec:	ff62d303          	lhu	x6,-10(x5)
    19f0:	ff42d383          	lhu	x7,-12(x5)
    19f4:	01031313          	slli	x6,x6,0x10
    19f8:	00736333          	or	x6,x6,x7
    19fc:	41435393          	srai	x7,x6,0x14
    1a00:	00f35313          	srli	x6,x6,0xf
    1a04:	01f37313          	andi	x6,x6,31
    1a08:	00331313          	slli	x6,x6,0x3
    1a0c:	00620333          	add	x6,x4,x6
    1a10:	00032303          	lw	x6,0(x6)
    1a14:	00730333          	add	x6,x6,x7
    1a18:	00032303          	lw	x6,0(x6)
    1a1c:	10622c23          	sw	x6,280(x4) # 118 <I_lbu_cg_cp_rs1_nx0_b6+0x10>
    1a20:	00004817          	auipc	x16,0x4
    1a24:	3c080813          	addi	x16,x16,960 # 5de0 <trap_diag_expected_value>
    1a28:	00682023          	sw	x6,0(x16)
    1a2c:	0140006f          	jal	x0,1a40 <failedtest_saveresults_common>

00001a30 <trap_diag_generic_report>:
    1a30:	00004817          	auipc	x16,0x4
    1a34:	3a080813          	addi	x16,x16,928 # 5dd0 <trap_diag_subtype>
    1a38:	00082023          	sw	x0,0(x16)
    1a3c:	0040006f          	jal	x0,1a40 <failedtest_saveresults_common>

00001a40 <failedtest_saveresults_common>:
    1a40:	0002a303          	lw	x6,0(x5)
    1a44:	10622423          	sw	x6,264(x4) # 108 <I_lbu_cg_cp_rs1_nx0_b6>
    1a48:	00035383          	lhu	x7,0(x6)
    1a4c:	0033f413          	andi	x8,x7,3
    1a50:	00300493          	addi	x9,x0,3
    1a54:	00941863          	bne	x8,x9,1a64 <failedtest_saveresults_common+0x24>
    1a58:	00235403          	lhu	x8,2(x6)
    1a5c:	01041413          	slli	x8,x8,0x10
    1a60:	0083e3b3          	or	x7,x7,x8
    1a64:	10722023          	sw	x7,256(x4) # 100 <I_lbu_cg_cp_rs1_nx0_b5+0x1c>
    1a68:	0042a303          	lw	x6,4(x5)
    1a6c:	12622023          	sw	x6,288(x4) # 120 <I_lbu_cg_cp_rs1_nx0_b6+0x18>

00001a70 <failedtest_report>:
    1a70:	00000013          	addi	x0,x0,0
    1a74:	00000013          	addi	x0,x0,0
    1a78:	00000013          	addi	x0,x0,0
    1a7c:	00000013          	addi	x0,x0,0
    1a80:	00005517          	auipc	x10,0x5
    1a84:	8ba50513          	addi	x10,x10,-1862 # 633a <failstr>
    1a88:	00000013          	addi	x0,x0,0
    1a8c:	00000013          	addi	x0,x0,0
    1a90:	00000013          	addi	x0,x0,0
    1a94:	00000013          	addi	x0,x0,0
    1a98:	00000013          	addi	x0,x0,0
    1a9c:	00000013          	addi	x0,x0,0
    1aa0:	00015097          	auipc	x1,0x15
    1aa4:	764080e7          	jalr	x1,1892(x1) # 17204 <rvmodel_io_write_str>

00001aa8 <print_testnamestr>:
    1aa8:	00000013          	addi	x0,x0,0
    1aac:	00000013          	addi	x0,x0,0
    1ab0:	00000013          	addi	x0,x0,0
    1ab4:	00000013          	addi	x0,x0,0
    1ab8:	00000013          	addi	x0,x0,0
    1abc:	00000013          	addi	x0,x0,0
    1ac0:	00005517          	auipc	x10,0x5
    1ac4:	90d50513          	addi	x10,x10,-1779 # 63cd <testnamestr>
    1ac8:	00000013          	addi	x0,x0,0
    1acc:	00000013          	addi	x0,x0,0
    1ad0:	00000013          	addi	x0,x0,0
    1ad4:	00000013          	addi	x0,x0,0
    1ad8:	00000013          	addi	x0,x0,0
    1adc:	00000013          	addi	x0,x0,0
    1ae0:	00015097          	auipc	x1,0x15
    1ae4:	724080e7          	jalr	x1,1828(x1) # 17204 <rvmodel_io_write_str>

00001ae8 <print_failure_test_name_str>:
    1ae8:	00004517          	auipc	x10,0x4
    1aec:	2d852503          	lw	x10,728(x10) # 5dc0 <failure_string_ptr>
    1af0:	00015097          	auipc	x1,0x15
    1af4:	714080e7          	jalr	x1,1812(x1) # 17204 <rvmodel_io_write_str>

00001af8 <print_newline_str>:
    1af8:	00000013          	addi	x0,x0,0
    1afc:	00000013          	addi	x0,x0,0
    1b00:	00005517          	auipc	x10,0x5
    1b04:	8df50513          	addi	x10,x10,-1825 # 63df <newlinestr>
    1b08:	00000013          	addi	x0,x0,0
    1b0c:	00000013          	addi	x0,x0,0
    1b10:	00000013          	addi	x0,x0,0
    1b14:	00000013          	addi	x0,x0,0
    1b18:	00000013          	addi	x0,x0,0
    1b1c:	00000013          	addi	x0,x0,0
    1b20:	00015097          	auipc	x1,0x15
    1b24:	6e4080e7          	jalr	x1,1764(x1) # 17204 <rvmodel_io_write_str>
    1b28:	00004517          	auipc	x10,0x4
    1b2c:	17852503          	lw	x10,376(x10) # 5ca0 <begin_failure_scratch>
    1b30:	00300593          	addi	x11,x0,3
    1b34:	3eb50c63          	beq	x10,x11,1f2c <failedtest_report_trap_detailed>
    1b38:	00000013          	addi	x0,x0,0
    1b3c:	00000013          	addi	x0,x0,0
    1b40:	00005517          	auipc	x10,0x5
    1b44:	8a150513          	addi	x10,x10,-1887 # 63e1 <inststr>
    1b48:	00000013          	addi	x0,x0,0
    1b4c:	00000013          	addi	x0,x0,0
    1b50:	00000013          	addi	x0,x0,0
    1b54:	00000013          	addi	x0,x0,0
    1b58:	00000013          	addi	x0,x0,0
    1b5c:	00000013          	addi	x0,x0,0
    1b60:	00015097          	auipc	x1,0x15
    1b64:	6a4080e7          	jalr	x1,1700(x1) # 17204 <rvmodel_io_write_str>
    1b68:	00004517          	auipc	x10,0x4
    1b6c:	23852503          	lw	x10,568(x10) # 5da0 <failing_instruction>
    1b70:	02000593          	addi	x11,x0,32
    1b74:	00357613          	andi	x12,x10,3
    1b78:	00300693          	addi	x13,x0,3
    1b7c:	00d60463          	beq	x12,x13,1b84 <print_newline_str+0x8c>
    1b80:	01000593          	addi	x11,x0,16
    1b84:	2f4010ef          	jal	x1,2e78 <failedtest_hex_to_str>
    1b88:	00000013          	addi	x0,x0,0
    1b8c:	00000013          	addi	x0,x0,0
    1b90:	00000013          	addi	x0,x0,0
    1b94:	00000013          	addi	x0,x0,0
    1b98:	00000013          	addi	x0,x0,0
    1b9c:	00000013          	addi	x0,x0,0
    1ba0:	00004517          	auipc	x10,0x4
    1ba4:	28850513          	addi	x10,x10,648 # 5e28 <ascii_buffer>
    1ba8:	00000013          	addi	x0,x0,0
    1bac:	00000013          	addi	x0,x0,0
    1bb0:	00000013          	addi	x0,x0,0
    1bb4:	00000013          	addi	x0,x0,0
    1bb8:	00000013          	addi	x0,x0,0
    1bbc:	00000013          	addi	x0,x0,0
    1bc0:	00015097          	auipc	x1,0x15
    1bc4:	644080e7          	jalr	x1,1604(x1) # 17204 <rvmodel_io_write_str>
    1bc8:	00000013          	addi	x0,x0,0
    1bcc:	00000013          	addi	x0,x0,0
    1bd0:	00000013          	addi	x0,x0,0
    1bd4:	00000013          	addi	x0,x0,0
    1bd8:	00000013          	addi	x0,x0,0
    1bdc:	00000013          	addi	x0,x0,0
    1be0:	00005517          	auipc	x10,0x5
    1be4:	81550513          	addi	x10,x10,-2027 # 63f5 <addrstr>
    1be8:	00000013          	addi	x0,x0,0
    1bec:	00000013          	addi	x0,x0,0
    1bf0:	00000013          	addi	x0,x0,0
    1bf4:	00000013          	addi	x0,x0,0
    1bf8:	00000013          	addi	x0,x0,0
    1bfc:	00000013          	addi	x0,x0,0
    1c00:	00015097          	auipc	x1,0x15
    1c04:	604080e7          	jalr	x1,1540(x1) # 17204 <rvmodel_io_write_str>
    1c08:	00004517          	auipc	x10,0x4
    1c0c:	1a052503          	lw	x10,416(x10) # 5da8 <failing_addr>
    1c10:	02000593          	addi	x11,x0,32
    1c14:	264010ef          	jal	x1,2e78 <failedtest_hex_to_str>
    1c18:	00000013          	addi	x0,x0,0
    1c1c:	00000013          	addi	x0,x0,0
    1c20:	00004517          	auipc	x10,0x4
    1c24:	20850513          	addi	x10,x10,520 # 5e28 <ascii_buffer>
    1c28:	00000013          	addi	x0,x0,0
    1c2c:	00000013          	addi	x0,x0,0
    1c30:	00000013          	addi	x0,x0,0
    1c34:	00000013          	addi	x0,x0,0
    1c38:	00000013          	addi	x0,x0,0
    1c3c:	00000013          	addi	x0,x0,0
    1c40:	00015097          	auipc	x1,0x15
    1c44:	5c4080e7          	jalr	x1,1476(x1) # 17204 <rvmodel_io_write_str>
    1c48:	00000013          	addi	x0,x0,0
    1c4c:	00000013          	addi	x0,x0,0
    1c50:	00000013          	addi	x0,x0,0
    1c54:	00000013          	addi	x0,x0,0
    1c58:	00000013          	addi	x0,x0,0
    1c5c:	00000013          	addi	x0,x0,0
    1c60:	00005517          	auipc	x10,0x5
    1c64:	21250513          	addi	x10,x10,530 # 6e72 <regstr>
    1c68:	00000013          	addi	x0,x0,0
    1c6c:	00000013          	addi	x0,x0,0
    1c70:	00000013          	addi	x0,x0,0
    1c74:	00000013          	addi	x0,x0,0
    1c78:	00000013          	addi	x0,x0,0
    1c7c:	00000013          	addi	x0,x0,0
    1c80:	00015097          	auipc	x1,0x15
    1c84:	584080e7          	jalr	x1,1412(x1) # 17204 <rvmodel_io_write_str>
    1c88:	00004517          	auipc	x10,0x4
    1c8c:	01852503          	lw	x10,24(x10) # 5ca0 <begin_failure_scratch>
    1c90:	00050663          	beq	x10,x0,1c9c <print_newline_str+0x1a4>
    1c94:	00300593          	addi	x11,x0,3
    1c98:	04b51063          	bne	x10,x11,1cd8 <failedtest_report_not_intreg>
    1c9c:	07800593          	addi	x11,x0,120
    1ca0:	00004617          	auipc	x12,0x4
    1ca4:	18860613          	addi	x12,x12,392 # 5e28 <ascii_buffer>
    1ca8:	00000013          	addi	x0,x0,0
    1cac:	00000013          	addi	x0,x0,0
    1cb0:	00000013          	addi	x0,x0,0
    1cb4:	00000013          	addi	x0,x0,0
    1cb8:	00000013          	addi	x0,x0,0
    1cbc:	00000013          	addi	x0,x0,0
    1cc0:	00b60023          	sb	x11,0(x12)
    1cc4:	00160613          	addi	x12,x12,1
    1cc8:	00004517          	auipc	x10,0x4
    1ccc:	0dc52503          	lw	x10,220(x10) # 5da4 <failing_reg>
    1cd0:	224010ef          	jal	x1,2ef4 <failedtest_dec_to_str>
    1cd4:	0e00006f          	jal	x0,1db4 <failedtest_report_print_regstr>

00001cd8 <failedtest_report_not_intreg>:
    1cd8:	00100593          	addi	x11,x0,1
    1cdc:	04b50863          	beq	x10,x11,1d2c <failedtest_report_fpreg>
    1ce0:	00400593          	addi	x11,x0,4
    1ce4:	08b50a63          	beq	x10,x11,1d78 <failedtest_report_vecreg>
    1ce8:	00000013          	addi	x0,x0,0
    1cec:	00000013          	addi	x0,x0,0
    1cf0:	00000013          	addi	x0,x0,0
    1cf4:	00000013          	addi	x0,x0,0
    1cf8:	00000013          	addi	x0,x0,0
    1cfc:	00000013          	addi	x0,x0,0
    1d00:	00005517          	auipc	x10,0x5
    1d04:	1d250513          	addi	x10,x10,466 # 6ed2 <fflagsstr>
    1d08:	00000013          	addi	x0,x0,0
    1d0c:	00000013          	addi	x0,x0,0
    1d10:	00000013          	addi	x0,x0,0
    1d14:	00000013          	addi	x0,x0,0
    1d18:	00000013          	addi	x0,x0,0
    1d1c:	00000013          	addi	x0,x0,0
    1d20:	00015097          	auipc	x1,0x15
    1d24:	4e4080e7          	jalr	x1,1252(x1) # 17204 <rvmodel_io_write_str>
    1d28:	0c00006f          	jal	x0,1de8 <failedtest_report_after_reg>

00001d2c <failedtest_report_fpreg>:
    1d2c:	06600593          	addi	x11,x0,102
    1d30:	00000013          	addi	x0,x0,0
    1d34:	00000013          	addi	x0,x0,0
    1d38:	00000013          	addi	x0,x0,0
    1d3c:	00000013          	addi	x0,x0,0
    1d40:	00004617          	auipc	x12,0x4
    1d44:	0e860613          	addi	x12,x12,232 # 5e28 <ascii_buffer>
    1d48:	00000013          	addi	x0,x0,0
    1d4c:	00000013          	addi	x0,x0,0
    1d50:	00000013          	addi	x0,x0,0
    1d54:	00000013          	addi	x0,x0,0
    1d58:	00000013          	addi	x0,x0,0
    1d5c:	00000013          	addi	x0,x0,0
    1d60:	00b60023          	sb	x11,0(x12)
    1d64:	00160613          	addi	x12,x12,1
    1d68:	00004517          	auipc	x10,0x4
    1d6c:	03c52503          	lw	x10,60(x10) # 5da4 <failing_reg>
    1d70:	184010ef          	jal	x1,2ef4 <failedtest_dec_to_str>
    1d74:	0400006f          	jal	x0,1db4 <failedtest_report_print_regstr>

00001d78 <failedtest_report_vecreg>:
    1d78:	07600593          	addi	x11,x0,118
    1d7c:	00000013          	addi	x0,x0,0
    1d80:	00004617          	auipc	x12,0x4
    1d84:	0a860613          	addi	x12,x12,168 # 5e28 <ascii_buffer>
    1d88:	00000013          	addi	x0,x0,0
    1d8c:	00000013          	addi	x0,x0,0
    1d90:	00000013          	addi	x0,x0,0
    1d94:	00000013          	addi	x0,x0,0
    1d98:	00000013          	addi	x0,x0,0
    1d9c:	00000013          	addi	x0,x0,0
    1da0:	00b60023          	sb	x11,0(x12)
    1da4:	00160613          	addi	x12,x12,1
    1da8:	00004517          	auipc	x10,0x4
    1dac:	ffc52503          	lw	x10,-4(x10) # 5da4 <failing_reg>
    1db0:	144010ef          	jal	x1,2ef4 <failedtest_dec_to_str>

00001db4 <failedtest_report_print_regstr>:
    1db4:	00000013          	addi	x0,x0,0
    1db8:	00000013          	addi	x0,x0,0
    1dbc:	00000013          	addi	x0,x0,0
    1dc0:	00004517          	auipc	x10,0x4
    1dc4:	06850513          	addi	x10,x10,104 # 5e28 <ascii_buffer>
    1dc8:	00000013          	addi	x0,x0,0
    1dcc:	00000013          	addi	x0,x0,0
    1dd0:	00000013          	addi	x0,x0,0
    1dd4:	00000013          	addi	x0,x0,0
    1dd8:	00000013          	addi	x0,x0,0
    1ddc:	00000013          	addi	x0,x0,0
    1de0:	00015097          	auipc	x1,0x15
    1de4:	424080e7          	jalr	x1,1060(x1) # 17204 <rvmodel_io_write_str>

00001de8 <failedtest_report_after_reg>:
    1de8:	00000013          	addi	x0,x0,0
    1dec:	00000013          	addi	x0,x0,0
    1df0:	00000013          	addi	x0,x0,0
    1df4:	00000013          	addi	x0,x0,0
    1df8:	00000013          	addi	x0,x0,0
    1dfc:	00000013          	addi	x0,x0,0
    1e00:	00005517          	auipc	x10,0x5
    1e04:	08350513          	addi	x10,x10,131 # 6e83 <badvalstr>
    1e08:	00000013          	addi	x0,x0,0
    1e0c:	00000013          	addi	x0,x0,0
    1e10:	00000013          	addi	x0,x0,0
    1e14:	00000013          	addi	x0,x0,0
    1e18:	00000013          	addi	x0,x0,0
    1e1c:	00000013          	addi	x0,x0,0
    1e20:	00015097          	auipc	x1,0x15
    1e24:	3e4080e7          	jalr	x1,996(x1) # 17204 <rvmodel_io_write_str>
    1e28:	00004517          	auipc	x10,0x4
    1e2c:	e7852503          	lw	x10,-392(x10) # 5ca0 <begin_failure_scratch>
    1e30:	00100593          	addi	x11,x0,1
    1e34:	00b51c63          	bne	x10,x11,1e4c <failedtest_report_badval_not_fp>
    1e38:	00004517          	auipc	x10,0x4
    1e3c:	f7852503          	lw	x10,-136(x10) # 5db0 <failing_value>
    1e40:	02000593          	addi	x11,x0,32
    1e44:	034010ef          	jal	x1,2e78 <failedtest_hex_to_str>
    1e48:	0140006f          	jal	x0,1e5c <failedtest_report_badval_done>

00001e4c <failedtest_report_badval_not_fp>:
    1e4c:	00004517          	auipc	x10,0x4
    1e50:	f6452503          	lw	x10,-156(x10) # 5db0 <failing_value>
    1e54:	02000593          	addi	x11,x0,32
    1e58:	020010ef          	jal	x1,2e78 <failedtest_hex_to_str>

00001e5c <failedtest_report_badval_done>:
    1e5c:	00000013          	addi	x0,x0,0
    1e60:	00004517          	auipc	x10,0x4
    1e64:	fc850513          	addi	x10,x10,-56 # 5e28 <ascii_buffer>
    1e68:	00000013          	addi	x0,x0,0
    1e6c:	00000013          	addi	x0,x0,0
    1e70:	00000013          	addi	x0,x0,0
    1e74:	00000013          	addi	x0,x0,0
    1e78:	00000013          	addi	x0,x0,0
    1e7c:	00000013          	addi	x0,x0,0
    1e80:	00015097          	auipc	x1,0x15
    1e84:	384080e7          	jalr	x1,900(x1) # 17204 <rvmodel_io_write_str>
    1e88:	00000013          	addi	x0,x0,0
    1e8c:	00000013          	addi	x0,x0,0
    1e90:	00000013          	addi	x0,x0,0
    1e94:	00000013          	addi	x0,x0,0
    1e98:	00000013          	addi	x0,x0,0
    1e9c:	00000013          	addi	x0,x0,0
    1ea0:	00005517          	auipc	x10,0x5
    1ea4:	ffa50513          	addi	x10,x10,-6 # 6e9a <expvalstr>
    1ea8:	00000013          	addi	x0,x0,0
    1eac:	00000013          	addi	x0,x0,0
    1eb0:	00000013          	addi	x0,x0,0
    1eb4:	00000013          	addi	x0,x0,0
    1eb8:	00000013          	addi	x0,x0,0
    1ebc:	00000013          	addi	x0,x0,0
    1ec0:	00015097          	auipc	x1,0x15
    1ec4:	344080e7          	jalr	x1,836(x1) # 17204 <rvmodel_io_write_str>
    1ec8:	00004517          	auipc	x10,0x4
    1ecc:	dd852503          	lw	x10,-552(x10) # 5ca0 <begin_failure_scratch>
    1ed0:	00100593          	addi	x11,x0,1
    1ed4:	00b51c63          	bne	x10,x11,1eec <failedtest_report_expval_not_fp>
    1ed8:	00004517          	auipc	x10,0x4
    1edc:	ee052503          	lw	x10,-288(x10) # 5db8 <expected_value>
    1ee0:	02000593          	addi	x11,x0,32
    1ee4:	795000ef          	jal	x1,2e78 <failedtest_hex_to_str>
    1ee8:	0140006f          	jal	x0,1efc <failedtest_report_expval_done>

00001eec <failedtest_report_expval_not_fp>:
    1eec:	00004517          	auipc	x10,0x4
    1ef0:	ecc52503          	lw	x10,-308(x10) # 5db8 <expected_value>
    1ef4:	02000593          	addi	x11,x0,32
    1ef8:	781000ef          	jal	x1,2e78 <failedtest_hex_to_str>

00001efc <failedtest_report_expval_done>:
    1efc:	00000013          	addi	x0,x0,0
    1f00:	00004517          	auipc	x10,0x4
    1f04:	f2850513          	addi	x10,x10,-216 # 5e28 <ascii_buffer>
    1f08:	00000013          	addi	x0,x0,0
    1f0c:	00000013          	addi	x0,x0,0
    1f10:	00000013          	addi	x0,x0,0
    1f14:	00000013          	addi	x0,x0,0
    1f18:	00000013          	addi	x0,x0,0
    1f1c:	00000013          	addi	x0,x0,0
    1f20:	00015097          	auipc	x1,0x15
    1f24:	2e4080e7          	jalr	x1,740(x1) # 17204 <rvmodel_io_write_str>
    1f28:	4fd0006f          	jal	x0,2c24 <failedtest_report_end>

00001f2c <failedtest_report_trap_detailed>:
    1f2c:	00000013          	addi	x0,x0,0
    1f30:	00000013          	addi	x0,x0,0
    1f34:	00000013          	addi	x0,x0,0
    1f38:	00000013          	addi	x0,x0,0
    1f3c:	00000013          	addi	x0,x0,0
    1f40:	00005517          	auipc	x10,0x5
    1f44:	fbe50513          	addi	x10,x10,-66 # 6efe <trap_diag_header_str>
    1f48:	00000013          	addi	x0,x0,0
    1f4c:	00000013          	addi	x0,x0,0
    1f50:	00000013          	addi	x0,x0,0
    1f54:	00000013          	addi	x0,x0,0
    1f58:	00000013          	addi	x0,x0,0
    1f5c:	00000013          	addi	x0,x0,0
    1f60:	00015097          	auipc	x1,0x15
    1f64:	2a4080e7          	jalr	x1,676(x1) # 17204 <rvmodel_io_write_str>
    1f68:	00000013          	addi	x0,x0,0
    1f6c:	00000013          	addi	x0,x0,0
    1f70:	00000013          	addi	x0,x0,0
    1f74:	00000013          	addi	x0,x0,0
    1f78:	00000013          	addi	x0,x0,0
    1f7c:	00000013          	addi	x0,x0,0
    1f80:	00005517          	auipc	x10,0x5
    1f84:	faa50513          	addi	x10,x10,-86 # 6f2a <trap_diag_origstr_label>
    1f88:	00000013          	addi	x0,x0,0
    1f8c:	00000013          	addi	x0,x0,0
    1f90:	00000013          	addi	x0,x0,0
    1f94:	00000013          	addi	x0,x0,0
    1f98:	00000013          	addi	x0,x0,0
    1f9c:	00000013          	addi	x0,x0,0
    1fa0:	00015097          	auipc	x1,0x15
    1fa4:	264080e7          	jalr	x1,612(x1) # 17204 <rvmodel_io_write_str>
    1fa8:	00004817          	auipc	x16,0x4
    1fac:	e5080813          	addi	x16,x16,-432 # 5df8 <trap_diag_fail_str_ptr>
    1fb0:	00082503          	lw	x10,0(x16)
    1fb4:	00015097          	auipc	x1,0x15
    1fb8:	250080e7          	jalr	x1,592(x1) # 17204 <rvmodel_io_write_str>
    1fbc:	00000013          	addi	x0,x0,0
    1fc0:	00004517          	auipc	x10,0x4
    1fc4:	41f50513          	addi	x10,x10,1055 # 63df <newlinestr>
    1fc8:	00000013          	addi	x0,x0,0
    1fcc:	00000013          	addi	x0,x0,0
    1fd0:	00000013          	addi	x0,x0,0
    1fd4:	00000013          	addi	x0,x0,0
    1fd8:	00000013          	addi	x0,x0,0
    1fdc:	00000013          	addi	x0,x0,0
    1fe0:	00015097          	auipc	x1,0x15
    1fe4:	224080e7          	jalr	x1,548(x1) # 17204 <rvmodel_io_write_str>
    1fe8:	00004417          	auipc	x8,0x4
    1fec:	de842403          	lw	x8,-536(x8) # 5dd0 <trap_diag_subtype>
    1ff0:	00900493          	addi	x9,x0,9
    1ff4:	00940663          	beq	x8,x9,2000 <trap_report_offset_mismatch>
    1ff8:	2a040ce3          	beq	x8,x0,2ab0 <trap_report_generic>
    1ffc:	3780006f          	jal	x0,2374 <trap_report_field_mismatch>

00002000 <trap_report_offset_mismatch>:
    2000:	00005517          	auipc	x10,0x5
    2004:	f3a50513          	addi	x10,x10,-198 # 6f3a <trap_diag_count_mismatch_str>
    2008:	00000013          	addi	x0,x0,0
    200c:	00000013          	addi	x0,x0,0
    2010:	00000013          	addi	x0,x0,0
    2014:	00000013          	addi	x0,x0,0
    2018:	00000013          	addi	x0,x0,0
    201c:	00000013          	addi	x0,x0,0
    2020:	00015097          	auipc	x1,0x15
    2024:	1e4080e7          	jalr	x1,484(x1) # 17204 <rvmodel_io_write_str>
    2028:	00000013          	addi	x0,x0,0
    202c:	00000013          	addi	x0,x0,0
    2030:	00000013          	addi	x0,x0,0
    2034:	00000013          	addi	x0,x0,0
    2038:	00000013          	addi	x0,x0,0
    203c:	00000013          	addi	x0,x0,0
    2040:	00005517          	auipc	x10,0x5
    2044:	f5b50513          	addi	x10,x10,-165 # 6f9b <trap_diag_expected_offset_str>
    2048:	00000013          	addi	x0,x0,0
    204c:	00000013          	addi	x0,x0,0
    2050:	00000013          	addi	x0,x0,0
    2054:	00000013          	addi	x0,x0,0
    2058:	00000013          	addi	x0,x0,0
    205c:	00000013          	addi	x0,x0,0
    2060:	00015097          	auipc	x1,0x15
    2064:	1a4080e7          	jalr	x1,420(x1) # 17204 <rvmodel_io_write_str>
    2068:	00004517          	auipc	x10,0x4
    206c:	d8852503          	lw	x10,-632(x10) # 5df0 <trap_diag_expected_offset>
    2070:	02000593          	addi	x11,x0,32
    2074:	605000ef          	jal	x1,2e78 <failedtest_hex_to_str>
    2078:	00000013          	addi	x0,x0,0
    207c:	00000013          	addi	x0,x0,0
    2080:	00004517          	auipc	x10,0x4
    2084:	da850513          	addi	x10,x10,-600 # 5e28 <ascii_buffer>
    2088:	00000013          	addi	x0,x0,0
    208c:	00000013          	addi	x0,x0,0
    2090:	00000013          	addi	x0,x0,0
    2094:	00000013          	addi	x0,x0,0
    2098:	00000013          	addi	x0,x0,0
    209c:	00000013          	addi	x0,x0,0
    20a0:	00015097          	auipc	x1,0x15
    20a4:	164080e7          	jalr	x1,356(x1) # 17204 <rvmodel_io_write_str>
    20a8:	00000013          	addi	x0,x0,0
    20ac:	00000013          	addi	x0,x0,0
    20b0:	00000013          	addi	x0,x0,0
    20b4:	00000013          	addi	x0,x0,0
    20b8:	00000013          	addi	x0,x0,0
    20bc:	00000013          	addi	x0,x0,0
    20c0:	00005517          	auipc	x10,0x5
    20c4:	f0250513          	addi	x10,x10,-254 # 6fc2 <trap_diag_actual_offset_str>
    20c8:	00000013          	addi	x0,x0,0
    20cc:	00000013          	addi	x0,x0,0
    20d0:	00000013          	addi	x0,x0,0
    20d4:	00000013          	addi	x0,x0,0
    20d8:	00000013          	addi	x0,x0,0
    20dc:	00000013          	addi	x0,x0,0
    20e0:	00015097          	auipc	x1,0x15
    20e4:	124080e7          	jalr	x1,292(x1) # 17204 <rvmodel_io_write_str>
    20e8:	00004517          	auipc	x10,0x4
    20ec:	d0052503          	lw	x10,-768(x10) # 5de8 <trap_diag_actual_offset>
    20f0:	02000593          	addi	x11,x0,32
    20f4:	585000ef          	jal	x1,2e78 <failedtest_hex_to_str>
    20f8:	00000013          	addi	x0,x0,0
    20fc:	00000013          	addi	x0,x0,0
    2100:	00004517          	auipc	x10,0x4
    2104:	d2850513          	addi	x10,x10,-728 # 5e28 <ascii_buffer>
    2108:	00000013          	addi	x0,x0,0
    210c:	00000013          	addi	x0,x0,0
    2110:	00000013          	addi	x0,x0,0
    2114:	00000013          	addi	x0,x0,0
    2118:	00000013          	addi	x0,x0,0
    211c:	00000013          	addi	x0,x0,0
    2120:	00015097          	auipc	x1,0x15
    2124:	0e4080e7          	jalr	x1,228(x1) # 17204 <rvmodel_io_write_str>
    2128:	00004317          	auipc	x6,0x4
    212c:	cc032303          	lw	x6,-832(x6) # 5de8 <trap_diag_actual_offset>
    2130:	00004397          	auipc	x7,0x4
    2134:	cc03a383          	lw	x7,-832(x7) # 5df0 <trap_diag_expected_offset>
    2138:	10734e63          	blt	x6,x7,2254 <trap_report_missing_traps>

0000213c <trap_report_extra_traps>:
    213c:	00000013          	addi	x0,x0,0
    2140:	00005517          	auipc	x10,0x5
    2144:	ea950513          	addi	x10,x10,-343 # 6fe9 <trap_diag_extra_traps_str>
    2148:	00000013          	addi	x0,x0,0
    214c:	00000013          	addi	x0,x0,0
    2150:	00000013          	addi	x0,x0,0
    2154:	00000013          	addi	x0,x0,0
    2158:	00000013          	addi	x0,x0,0
    215c:	00000013          	addi	x0,x0,0
    2160:	00015097          	auipc	x1,0x15
    2164:	0a4080e7          	jalr	x1,164(x1) # 17204 <rvmodel_io_write_str>
    2168:	00004317          	auipc	x6,0x4
    216c:	c8032303          	lw	x6,-896(x6) # 5de8 <trap_diag_actual_offset>
    2170:	00004397          	auipc	x7,0x4
    2174:	c803a383          	lw	x7,-896(x7) # 5df0 <trap_diag_expected_offset>
    2178:	40730333          	sub	x6,x6,x7
    217c:	00235313          	srli	x6,x6,0x2
    2180:	00005517          	auipc	x10,0x5
    2184:	eee50513          	addi	x10,x10,-274 # 706e <trap_diag_extra_bytes_str>
    2188:	00000013          	addi	x0,x0,0
    218c:	00000013          	addi	x0,x0,0
    2190:	00000013          	addi	x0,x0,0
    2194:	00000013          	addi	x0,x0,0
    2198:	00000013          	addi	x0,x0,0
    219c:	00000013          	addi	x0,x0,0
    21a0:	00015097          	auipc	x1,0x15
    21a4:	064080e7          	jalr	x1,100(x1) # 17204 <rvmodel_io_write_str>
    21a8:	00004317          	auipc	x6,0x4
    21ac:	c4032303          	lw	x6,-960(x6) # 5de8 <trap_diag_actual_offset>
    21b0:	00004397          	auipc	x7,0x4
    21b4:	c403a383          	lw	x7,-960(x7) # 5df0 <trap_diag_expected_offset>
    21b8:	40730533          	sub	x10,x6,x7
    21bc:	02000593          	addi	x11,x0,32
    21c0:	4b9000ef          	jal	x1,2e78 <failedtest_hex_to_str>
    21c4:	00000013          	addi	x0,x0,0
    21c8:	00000013          	addi	x0,x0,0
    21cc:	00000013          	addi	x0,x0,0
    21d0:	00000013          	addi	x0,x0,0
    21d4:	00000013          	addi	x0,x0,0
    21d8:	00000013          	addi	x0,x0,0
    21dc:	00000013          	addi	x0,x0,0
    21e0:	00004517          	auipc	x10,0x4
    21e4:	c4850513          	addi	x10,x10,-952 # 5e28 <ascii_buffer>
    21e8:	00000013          	addi	x0,x0,0
    21ec:	00000013          	addi	x0,x0,0
    21f0:	00000013          	addi	x0,x0,0
    21f4:	00000013          	addi	x0,x0,0
    21f8:	00000013          	addi	x0,x0,0
    21fc:	00000013          	addi	x0,x0,0
    2200:	00015097          	auipc	x1,0x15
    2204:	004080e7          	jalr	x1,4(x1) # 17204 <rvmodel_io_write_str>
    2208:	00000013          	addi	x0,x0,0
    220c:	00000013          	addi	x0,x0,0
    2210:	00000013          	addi	x0,x0,0
    2214:	00000013          	addi	x0,x0,0
    2218:	00000013          	addi	x0,x0,0
    221c:	00000013          	addi	x0,x0,0
    2220:	00005517          	auipc	x10,0x5
    2224:	e7950513          	addi	x10,x10,-391 # 7099 <trap_diag_extra_hint_str>
    2228:	00000013          	addi	x0,x0,0
    222c:	00000013          	addi	x0,x0,0
    2230:	00000013          	addi	x0,x0,0
    2234:	00000013          	addi	x0,x0,0
    2238:	00000013          	addi	x0,x0,0
    223c:	00000013          	addi	x0,x0,0
    2240:	00015097          	auipc	x1,0x15
    2244:	fc4080e7          	jalr	x1,-60(x1) # 17204 <rvmodel_io_write_str>
    2248:	00001097          	auipc	x1,0x1
    224c:	a28080e7          	jalr	x1,-1496(x1) # 2c70 <failedtest_print_csr_context>
    2250:	1d50006f          	jal	x0,2c24 <failedtest_report_end>

00002254 <trap_report_missing_traps>:
    2254:	00000013          	addi	x0,x0,0
    2258:	00000013          	addi	x0,x0,0
    225c:	00000013          	addi	x0,x0,0
    2260:	00005517          	auipc	x10,0x5
    2264:	dc350513          	addi	x10,x10,-573 # 7023 <trap_diag_missing_traps_str>
    2268:	00000013          	addi	x0,x0,0
    226c:	00000013          	addi	x0,x0,0
    2270:	00000013          	addi	x0,x0,0
    2274:	00000013          	addi	x0,x0,0
    2278:	00000013          	addi	x0,x0,0
    227c:	00000013          	addi	x0,x0,0
    2280:	00015097          	auipc	x1,0x15
    2284:	f84080e7          	jalr	x1,-124(x1) # 17204 <rvmodel_io_write_str>
    2288:	00000013          	addi	x0,x0,0
    228c:	00000013          	addi	x0,x0,0
    2290:	00000013          	addi	x0,x0,0
    2294:	00000013          	addi	x0,x0,0
    2298:	00000013          	addi	x0,x0,0
    229c:	00000013          	addi	x0,x0,0
    22a0:	00005517          	auipc	x10,0x5
    22a4:	dce50513          	addi	x10,x10,-562 # 706e <trap_diag_extra_bytes_str>
    22a8:	00000013          	addi	x0,x0,0
    22ac:	00000013          	addi	x0,x0,0
    22b0:	00000013          	addi	x0,x0,0
    22b4:	00000013          	addi	x0,x0,0
    22b8:	00000013          	addi	x0,x0,0
    22bc:	00000013          	addi	x0,x0,0
    22c0:	00015097          	auipc	x1,0x15
    22c4:	f44080e7          	jalr	x1,-188(x1) # 17204 <rvmodel_io_write_str>
    22c8:	00004317          	auipc	x6,0x4
    22cc:	b2832303          	lw	x6,-1240(x6) # 5df0 <trap_diag_expected_offset>
    22d0:	00004397          	auipc	x7,0x4
    22d4:	b183a383          	lw	x7,-1256(x7) # 5de8 <trap_diag_actual_offset>
    22d8:	40730533          	sub	x10,x6,x7
    22dc:	02000593          	addi	x11,x0,32
    22e0:	399000ef          	jal	x1,2e78 <failedtest_hex_to_str>
    22e4:	00000013          	addi	x0,x0,0
    22e8:	00000013          	addi	x0,x0,0
    22ec:	00000013          	addi	x0,x0,0
    22f0:	00000013          	addi	x0,x0,0
    22f4:	00000013          	addi	x0,x0,0
    22f8:	00000013          	addi	x0,x0,0
    22fc:	00000013          	addi	x0,x0,0
    2300:	00004517          	auipc	x10,0x4
    2304:	b2850513          	addi	x10,x10,-1240 # 5e28 <ascii_buffer>
    2308:	00000013          	addi	x0,x0,0
    230c:	00000013          	addi	x0,x0,0
    2310:	00000013          	addi	x0,x0,0
    2314:	00000013          	addi	x0,x0,0
    2318:	00000013          	addi	x0,x0,0
    231c:	00000013          	addi	x0,x0,0
    2320:	00015097          	auipc	x1,0x15
    2324:	ee4080e7          	jalr	x1,-284(x1) # 17204 <rvmodel_io_write_str>
    2328:	00000013          	addi	x0,x0,0
    232c:	00000013          	addi	x0,x0,0
    2330:	00000013          	addi	x0,x0,0
    2334:	00000013          	addi	x0,x0,0
    2338:	00000013          	addi	x0,x0,0
    233c:	00000013          	addi	x0,x0,0
    2340:	00005517          	auipc	x10,0x5
    2344:	e4150513          	addi	x10,x10,-447 # 7181 <trap_diag_missing_hint_str>
    2348:	00000013          	addi	x0,x0,0
    234c:	00000013          	addi	x0,x0,0
    2350:	00000013          	addi	x0,x0,0
    2354:	00000013          	addi	x0,x0,0
    2358:	00000013          	addi	x0,x0,0
    235c:	00000013          	addi	x0,x0,0
    2360:	00015097          	auipc	x1,0x15
    2364:	ea4080e7          	jalr	x1,-348(x1) # 17204 <rvmodel_io_write_str>
    2368:	00001097          	auipc	x1,0x1
    236c:	908080e7          	jalr	x1,-1784(x1) # 2c70 <failedtest_print_csr_context>
    2370:	0b50006f          	jal	x0,2c24 <failedtest_report_end>

00002374 <trap_report_field_mismatch>:
    2374:	00000013          	addi	x0,x0,0
    2378:	00000013          	addi	x0,x0,0
    237c:	00000013          	addi	x0,x0,0
    2380:	00005517          	auipc	x10,0x5
    2384:	ee850513          	addi	x10,x10,-280 # 7268 <trap_diag_handler_mode_str>
    2388:	00000013          	addi	x0,x0,0
    238c:	00000013          	addi	x0,x0,0
    2390:	00000013          	addi	x0,x0,0
    2394:	00000013          	addi	x0,x0,0
    2398:	00000013          	addi	x0,x0,0
    239c:	00000013          	addi	x0,x0,0
    23a0:	00015097          	auipc	x1,0x15
    23a4:	e64080e7          	jalr	x1,-412(x1) # 17204 <rvmodel_io_write_str>
    23a8:	00004517          	auipc	x10,0x4
    23ac:	a2c52503          	lw	x10,-1492(x10) # 5dd4 <trap_diag_mode>
    23b0:	04050a63          	beq	x10,x0,2404 <trap_mode_m>
    23b4:	00100593          	addi	x11,x0,1
    23b8:	08b50663          	beq	x10,x11,2444 <trap_mode_s>
    23bc:	00200593          	addi	x11,x0,2
    23c0:	0cb50263          	beq	x10,x11,2484 <trap_mode_h>
    23c4:	00300593          	addi	x11,x0,3
    23c8:	0eb50e63          	beq	x10,x11,24c4 <trap_mode_v>
    23cc:	00000013          	addi	x0,x0,0
    23d0:	00000013          	addi	x0,x0,0
    23d4:	00000013          	addi	x0,x0,0
    23d8:	00000013          	addi	x0,x0,0
    23dc:	00000013          	addi	x0,x0,0
    23e0:	00005517          	auipc	x10,0x5
    23e4:	ec450513          	addi	x10,x10,-316 # 72a4 <trap_diag_mode_unknown_str>
    23e8:	00000013          	addi	x0,x0,0
    23ec:	00000013          	addi	x0,x0,0
    23f0:	00000013          	addi	x0,x0,0
    23f4:	00000013          	addi	x0,x0,0
    23f8:	00000013          	addi	x0,x0,0
    23fc:	00000013          	addi	x0,x0,0
    2400:	1000006f          	jal	x0,2500 <trap_mode_print>

00002404 <trap_mode_m>:
    2404:	00000013          	addi	x0,x0,0
    2408:	00000013          	addi	x0,x0,0
    240c:	00000013          	addi	x0,x0,0
    2410:	00000013          	addi	x0,x0,0
    2414:	00000013          	addi	x0,x0,0
    2418:	00000013          	addi	x0,x0,0
    241c:	00000013          	addi	x0,x0,0
    2420:	00005517          	auipc	x10,0x5
    2424:	e6250513          	addi	x10,x10,-414 # 7282 <trap_diag_mode_m_str>
    2428:	00000013          	addi	x0,x0,0
    242c:	00000013          	addi	x0,x0,0
    2430:	00000013          	addi	x0,x0,0
    2434:	00000013          	addi	x0,x0,0
    2438:	00000013          	addi	x0,x0,0
    243c:	00000013          	addi	x0,x0,0
    2440:	0c00006f          	jal	x0,2500 <trap_mode_print>

00002444 <trap_mode_s>:
    2444:	00000013          	addi	x0,x0,0
    2448:	00000013          	addi	x0,x0,0
    244c:	00000013          	addi	x0,x0,0
    2450:	00000013          	addi	x0,x0,0
    2454:	00000013          	addi	x0,x0,0
    2458:	00000013          	addi	x0,x0,0
    245c:	00000013          	addi	x0,x0,0
    2460:	00005517          	auipc	x10,0x5
    2464:	e2a50513          	addi	x10,x10,-470 # 728a <trap_diag_mode_s_str>
    2468:	00000013          	addi	x0,x0,0
    246c:	00000013          	addi	x0,x0,0
    2470:	00000013          	addi	x0,x0,0
    2474:	00000013          	addi	x0,x0,0
    2478:	00000013          	addi	x0,x0,0
    247c:	00000013          	addi	x0,x0,0
    2480:	0800006f          	jal	x0,2500 <trap_mode_print>

00002484 <trap_mode_h>:
    2484:	00000013          	addi	x0,x0,0
    2488:	00000013          	addi	x0,x0,0
    248c:	00000013          	addi	x0,x0,0
    2490:	00000013          	addi	x0,x0,0
    2494:	00000013          	addi	x0,x0,0
    2498:	00000013          	addi	x0,x0,0
    249c:	00000013          	addi	x0,x0,0
    24a0:	00005517          	auipc	x10,0x5
    24a4:	df250513          	addi	x10,x10,-526 # 7292 <trap_diag_mode_hs_str>
    24a8:	00000013          	addi	x0,x0,0
    24ac:	00000013          	addi	x0,x0,0
    24b0:	00000013          	addi	x0,x0,0
    24b4:	00000013          	addi	x0,x0,0
    24b8:	00000013          	addi	x0,x0,0
    24bc:	00000013          	addi	x0,x0,0
    24c0:	0400006f          	jal	x0,2500 <trap_mode_print>

000024c4 <trap_mode_v>:
    24c4:	00000013          	addi	x0,x0,0
    24c8:	00000013          	addi	x0,x0,0
    24cc:	00000013          	addi	x0,x0,0
    24d0:	00000013          	addi	x0,x0,0
    24d4:	00000013          	addi	x0,x0,0
    24d8:	00000013          	addi	x0,x0,0
    24dc:	00000013          	addi	x0,x0,0
    24e0:	00005517          	auipc	x10,0x5
    24e4:	dbb50513          	addi	x10,x10,-581 # 729b <trap_diag_mode_vs_str>
    24e8:	00000013          	addi	x0,x0,0
    24ec:	00000013          	addi	x0,x0,0
    24f0:	00000013          	addi	x0,x0,0
    24f4:	00000013          	addi	x0,x0,0
    24f8:	00000013          	addi	x0,x0,0
    24fc:	00000013          	addi	x0,x0,0

00002500 <trap_mode_print>:
    2500:	00015097          	auipc	x1,0x15
    2504:	d04080e7          	jalr	x1,-764(x1) # 17204 <rvmodel_io_write_str>
    2508:	00000013          	addi	x0,x0,0
    250c:	00000013          	addi	x0,x0,0
    2510:	00000013          	addi	x0,x0,0
    2514:	00000013          	addi	x0,x0,0
    2518:	00000013          	addi	x0,x0,0
    251c:	00000013          	addi	x0,x0,0
    2520:	00005517          	auipc	x10,0x5
    2524:	d8d50513          	addi	x10,x10,-627 # 72ad <trap_diag_field_str>
    2528:	00000013          	addi	x0,x0,0
    252c:	00000013          	addi	x0,x0,0
    2530:	00000013          	addi	x0,x0,0
    2534:	00000013          	addi	x0,x0,0
    2538:	00000013          	addi	x0,x0,0
    253c:	00000013          	addi	x0,x0,0
    2540:	00015097          	auipc	x1,0x15
    2544:	cc4080e7          	jalr	x1,-828(x1) # 17204 <rvmodel_io_write_str>
    2548:	00004517          	auipc	x10,0x4
    254c:	88852503          	lw	x10,-1912(x10) # 5dd0 <trap_diag_subtype>
    2550:	00100593          	addi	x11,x0,1
    2554:	06b50863          	beq	x10,x11,25c4 <trap_field_vect>
    2558:	00200593          	addi	x11,x0,2
    255c:	0ab50463          	beq	x10,x11,2604 <trap_field_cause>
    2560:	00300593          	addi	x11,x0,3
    2564:	0eb50063          	beq	x10,x11,2644 <trap_field_epc>
    2568:	00400593          	addi	x11,x0,4
    256c:	10b50c63          	beq	x10,x11,2684 <trap_field_tval>
    2570:	00500593          	addi	x11,x0,5
    2574:	14b50863          	beq	x10,x11,26c4 <trap_field_ip>
    2578:	00600593          	addi	x11,x0,6
    257c:	18b50463          	beq	x10,x11,2704 <trap_field_tval2>
    2580:	00700593          	addi	x11,x0,7
    2584:	1cb50063          	beq	x10,x11,2744 <trap_field_tinst>
    2588:	00800593          	addi	x11,x0,8
    258c:	1eb50c63          	beq	x10,x11,2784 <trap_field_intid>
    2590:	00000013          	addi	x0,x0,0
    2594:	00000013          	addi	x0,x0,0
    2598:	00000013          	addi	x0,x0,0
    259c:	00000013          	addi	x0,x0,0
    25a0:	00005517          	auipc	x10,0x5
    25a4:	e6450513          	addi	x10,x10,-412 # 7404 <trap_diag_field_unknown_str>
    25a8:	00000013          	addi	x0,x0,0
    25ac:	00000013          	addi	x0,x0,0
    25b0:	00000013          	addi	x0,x0,0
    25b4:	00000013          	addi	x0,x0,0
    25b8:	00000013          	addi	x0,x0,0
    25bc:	00000013          	addi	x0,x0,0
    25c0:	2000006f          	jal	x0,27c0 <trap_field_print>

000025c4 <trap_field_vect>:
    25c4:	00000013          	addi	x0,x0,0
    25c8:	00000013          	addi	x0,x0,0
    25cc:	00000013          	addi	x0,x0,0
    25d0:	00000013          	addi	x0,x0,0
    25d4:	00000013          	addi	x0,x0,0
    25d8:	00000013          	addi	x0,x0,0
    25dc:	00000013          	addi	x0,x0,0
    25e0:	00005517          	auipc	x10,0x5
    25e4:	ce750513          	addi	x10,x10,-793 # 72c7 <trap_diag_field_vect_str>
    25e8:	00000013          	addi	x0,x0,0
    25ec:	00000013          	addi	x0,x0,0
    25f0:	00000013          	addi	x0,x0,0
    25f4:	00000013          	addi	x0,x0,0
    25f8:	00000013          	addi	x0,x0,0
    25fc:	00000013          	addi	x0,x0,0
    2600:	1c00006f          	jal	x0,27c0 <trap_field_print>

00002604 <trap_field_cause>:
    2604:	00000013          	addi	x0,x0,0
    2608:	00000013          	addi	x0,x0,0
    260c:	00000013          	addi	x0,x0,0
    2610:	00000013          	addi	x0,x0,0
    2614:	00000013          	addi	x0,x0,0
    2618:	00000013          	addi	x0,x0,0
    261c:	00000013          	addi	x0,x0,0
    2620:	00005517          	auipc	x10,0x5
    2624:	cd850513          	addi	x10,x10,-808 # 72f8 <trap_diag_field_cause_str>
    2628:	00000013          	addi	x0,x0,0
    262c:	00000013          	addi	x0,x0,0
    2630:	00000013          	addi	x0,x0,0
    2634:	00000013          	addi	x0,x0,0
    2638:	00000013          	addi	x0,x0,0
    263c:	00000013          	addi	x0,x0,0
    2640:	1800006f          	jal	x0,27c0 <trap_field_print>

00002644 <trap_field_epc>:
    2644:	00000013          	addi	x0,x0,0
    2648:	00000013          	addi	x0,x0,0
    264c:	00000013          	addi	x0,x0,0
    2650:	00000013          	addi	x0,x0,0
    2654:	00000013          	addi	x0,x0,0
    2658:	00000013          	addi	x0,x0,0
    265c:	00000013          	addi	x0,x0,0
    2660:	00005517          	auipc	x10,0x5
    2664:	cb850513          	addi	x10,x10,-840 # 7318 <trap_diag_field_epc_str>
    2668:	00000013          	addi	x0,x0,0
    266c:	00000013          	addi	x0,x0,0
    2670:	00000013          	addi	x0,x0,0
    2674:	00000013          	addi	x0,x0,0
    2678:	00000013          	addi	x0,x0,0
    267c:	00000013          	addi	x0,x0,0
    2680:	1400006f          	jal	x0,27c0 <trap_field_print>

00002684 <trap_field_tval>:
    2684:	00000013          	addi	x0,x0,0
    2688:	00000013          	addi	x0,x0,0
    268c:	00000013          	addi	x0,x0,0
    2690:	00000013          	addi	x0,x0,0
    2694:	00000013          	addi	x0,x0,0
    2698:	00000013          	addi	x0,x0,0
    269c:	00000013          	addi	x0,x0,0
    26a0:	00005517          	auipc	x10,0x5
    26a4:	c9650513          	addi	x10,x10,-874 # 7336 <trap_diag_field_tval_str>
    26a8:	00000013          	addi	x0,x0,0
    26ac:	00000013          	addi	x0,x0,0
    26b0:	00000013          	addi	x0,x0,0
    26b4:	00000013          	addi	x0,x0,0
    26b8:	00000013          	addi	x0,x0,0
    26bc:	00000013          	addi	x0,x0,0
    26c0:	1000006f          	jal	x0,27c0 <trap_field_print>

000026c4 <trap_field_ip>:
    26c4:	00000013          	addi	x0,x0,0
    26c8:	00000013          	addi	x0,x0,0
    26cc:	00000013          	addi	x0,x0,0
    26d0:	00000013          	addi	x0,x0,0
    26d4:	00000013          	addi	x0,x0,0
    26d8:	00000013          	addi	x0,x0,0
    26dc:	00000013          	addi	x0,x0,0
    26e0:	00005517          	auipc	x10,0x5
    26e4:	c7550513          	addi	x10,x10,-907 # 7355 <trap_diag_field_ip_str>
    26e8:	00000013          	addi	x0,x0,0
    26ec:	00000013          	addi	x0,x0,0
    26f0:	00000013          	addi	x0,x0,0
    26f4:	00000013          	addi	x0,x0,0
    26f8:	00000013          	addi	x0,x0,0
    26fc:	00000013          	addi	x0,x0,0
    2700:	0c00006f          	jal	x0,27c0 <trap_field_print>

00002704 <trap_field_tval2>:
    2704:	00000013          	addi	x0,x0,0
    2708:	00000013          	addi	x0,x0,0
    270c:	00000013          	addi	x0,x0,0
    2710:	00000013          	addi	x0,x0,0
    2714:	00000013          	addi	x0,x0,0
    2718:	00000013          	addi	x0,x0,0
    271c:	00000013          	addi	x0,x0,0
    2720:	00005517          	auipc	x10,0x5
    2724:	c5d50513          	addi	x10,x10,-931 # 737d <trap_diag_field_tval2_str>
    2728:	00000013          	addi	x0,x0,0
    272c:	00000013          	addi	x0,x0,0
    2730:	00000013          	addi	x0,x0,0
    2734:	00000013          	addi	x0,x0,0
    2738:	00000013          	addi	x0,x0,0
    273c:	00000013          	addi	x0,x0,0
    2740:	0800006f          	jal	x0,27c0 <trap_field_print>

00002744 <trap_field_tinst>:
    2744:	00000013          	addi	x0,x0,0
    2748:	00000013          	addi	x0,x0,0
    274c:	00000013          	addi	x0,x0,0
    2750:	00000013          	addi	x0,x0,0
    2754:	00000013          	addi	x0,x0,0
    2758:	00000013          	addi	x0,x0,0
    275c:	00000013          	addi	x0,x0,0
    2760:	00005517          	auipc	x10,0x5
    2764:	c4950513          	addi	x10,x10,-951 # 73a9 <trap_diag_field_tinst_str>
    2768:	00000013          	addi	x0,x0,0
    276c:	00000013          	addi	x0,x0,0
    2770:	00000013          	addi	x0,x0,0
    2774:	00000013          	addi	x0,x0,0
    2778:	00000013          	addi	x0,x0,0
    277c:	00000013          	addi	x0,x0,0
    2780:	0400006f          	jal	x0,27c0 <trap_field_print>

00002784 <trap_field_intid>:
    2784:	00000013          	addi	x0,x0,0
    2788:	00000013          	addi	x0,x0,0
    278c:	00000013          	addi	x0,x0,0
    2790:	00000013          	addi	x0,x0,0
    2794:	00000013          	addi	x0,x0,0
    2798:	00000013          	addi	x0,x0,0
    279c:	00000013          	addi	x0,x0,0
    27a0:	00005517          	auipc	x10,0x5
    27a4:	c3550513          	addi	x10,x10,-971 # 73d5 <trap_diag_field_intid_str>
    27a8:	00000013          	addi	x0,x0,0
    27ac:	00000013          	addi	x0,x0,0
    27b0:	00000013          	addi	x0,x0,0
    27b4:	00000013          	addi	x0,x0,0
    27b8:	00000013          	addi	x0,x0,0
    27bc:	00000013          	addi	x0,x0,0

000027c0 <trap_field_print>:
    27c0:	00015097          	auipc	x1,0x15
    27c4:	a44080e7          	jalr	x1,-1468(x1) # 17204 <rvmodel_io_write_str>
    27c8:	00000013          	addi	x0,x0,0
    27cc:	00000013          	addi	x0,x0,0
    27d0:	00000013          	addi	x0,x0,0
    27d4:	00000013          	addi	x0,x0,0
    27d8:	00000013          	addi	x0,x0,0
    27dc:	00000013          	addi	x0,x0,0
    27e0:	00005517          	auipc	x10,0x5
    27e4:	c3350513          	addi	x10,x10,-973 # 7413 <trap_diag_expected_str>
    27e8:	00000013          	addi	x0,x0,0
    27ec:	00000013          	addi	x0,x0,0
    27f0:	00000013          	addi	x0,x0,0
    27f4:	00000013          	addi	x0,x0,0
    27f8:	00000013          	addi	x0,x0,0
    27fc:	00000013          	addi	x0,x0,0
    2800:	00015097          	auipc	x1,0x15
    2804:	a04080e7          	jalr	x1,-1532(x1) # 17204 <rvmodel_io_write_str>
    2808:	00003517          	auipc	x10,0x3
    280c:	5d852503          	lw	x10,1496(x10) # 5de0 <trap_diag_expected_value>
    2810:	02000593          	addi	x11,x0,32
    2814:	664000ef          	jal	x1,2e78 <failedtest_hex_to_str>
    2818:	00000013          	addi	x0,x0,0
    281c:	00000013          	addi	x0,x0,0
    2820:	00003517          	auipc	x10,0x3
    2824:	60850513          	addi	x10,x10,1544 # 5e28 <ascii_buffer>
    2828:	00000013          	addi	x0,x0,0
    282c:	00000013          	addi	x0,x0,0
    2830:	00000013          	addi	x0,x0,0
    2834:	00000013          	addi	x0,x0,0
    2838:	00000013          	addi	x0,x0,0
    283c:	00000013          	addi	x0,x0,0
    2840:	00015097          	auipc	x1,0x15
    2844:	9c4080e7          	jalr	x1,-1596(x1) # 17204 <rvmodel_io_write_str>
    2848:	00000013          	addi	x0,x0,0
    284c:	00000013          	addi	x0,x0,0
    2850:	00000013          	addi	x0,x0,0
    2854:	00000013          	addi	x0,x0,0
    2858:	00000013          	addi	x0,x0,0
    285c:	00000013          	addi	x0,x0,0
    2860:	00005517          	auipc	x10,0x5
    2864:	bca50513          	addi	x10,x10,-1078 # 742a <trap_diag_actual_str>
    2868:	00000013          	addi	x0,x0,0
    286c:	00000013          	addi	x0,x0,0
    2870:	00000013          	addi	x0,x0,0
    2874:	00000013          	addi	x0,x0,0
    2878:	00000013          	addi	x0,x0,0
    287c:	00000013          	addi	x0,x0,0
    2880:	00015097          	auipc	x1,0x15
    2884:	984080e7          	jalr	x1,-1660(x1) # 17204 <rvmodel_io_write_str>
    2888:	00003517          	auipc	x10,0x3
    288c:	55052503          	lw	x10,1360(x10) # 5dd8 <trap_diag_actual_value>
    2890:	02000593          	addi	x11,x0,32
    2894:	5e4000ef          	jal	x1,2e78 <failedtest_hex_to_str>
    2898:	00000013          	addi	x0,x0,0
    289c:	00000013          	addi	x0,x0,0
    28a0:	00003517          	auipc	x10,0x3
    28a4:	58850513          	addi	x10,x10,1416 # 5e28 <ascii_buffer>
    28a8:	00000013          	addi	x0,x0,0
    28ac:	00000013          	addi	x0,x0,0
    28b0:	00000013          	addi	x0,x0,0
    28b4:	00000013          	addi	x0,x0,0
    28b8:	00000013          	addi	x0,x0,0
    28bc:	00000013          	addi	x0,x0,0
    28c0:	00015097          	auipc	x1,0x15
    28c4:	944080e7          	jalr	x1,-1724(x1) # 17204 <rvmodel_io_write_str>
    28c8:	00003517          	auipc	x10,0x3
    28cc:	50852503          	lw	x10,1288(x10) # 5dd0 <trap_diag_subtype>
    28d0:	00200593          	addi	x11,x0,2
    28d4:	08b51463          	bne	x10,x11,295c <trap_field_not_cause>
    28d8:	00000013          	addi	x0,x0,0
    28dc:	00000013          	addi	x0,x0,0
    28e0:	00005517          	auipc	x10,0x5
    28e4:	b6150513          	addi	x10,x10,-1183 # 7441 <trap_diag_expected_cause_name_str>
    28e8:	00000013          	addi	x0,x0,0
    28ec:	00000013          	addi	x0,x0,0
    28f0:	00000013          	addi	x0,x0,0
    28f4:	00000013          	addi	x0,x0,0
    28f8:	00000013          	addi	x0,x0,0
    28fc:	00000013          	addi	x0,x0,0
    2900:	00015097          	auipc	x1,0x15
    2904:	904080e7          	jalr	x1,-1788(x1) # 17204 <rvmodel_io_write_str>
    2908:	00003517          	auipc	x10,0x3
    290c:	4d852503          	lw	x10,1240(x10) # 5de0 <trap_diag_expected_value>
    2910:	284000ef          	jal	x1,2b94 <trap_cause_to_str>
    2914:	00015097          	auipc	x1,0x15
    2918:	8f0080e7          	jalr	x1,-1808(x1) # 17204 <rvmodel_io_write_str>
    291c:	00000013          	addi	x0,x0,0
    2920:	00005517          	auipc	x10,0x5
    2924:	b3850513          	addi	x10,x10,-1224 # 7458 <trap_diag_actual_cause_name_str>
    2928:	00000013          	addi	x0,x0,0
    292c:	00000013          	addi	x0,x0,0
    2930:	00000013          	addi	x0,x0,0
    2934:	00000013          	addi	x0,x0,0
    2938:	00000013          	addi	x0,x0,0
    293c:	00000013          	addi	x0,x0,0
    2940:	00015097          	auipc	x1,0x15
    2944:	8c4080e7          	jalr	x1,-1852(x1) # 17204 <rvmodel_io_write_str>
    2948:	00003517          	auipc	x10,0x3
    294c:	49052503          	lw	x10,1168(x10) # 5dd8 <trap_diag_actual_value>
    2950:	244000ef          	jal	x1,2b94 <trap_cause_to_str>
    2954:	00015097          	auipc	x1,0x15
    2958:	8b0080e7          	jalr	x1,-1872(x1) # 17204 <rvmodel_io_write_str>

0000295c <trap_field_not_cause>:
    295c:	00000097          	auipc	x1,0x0
    2960:	314080e7          	jalr	x1,788(x1) # 2c70 <failedtest_print_csr_context>
    2964:	00003517          	auipc	x10,0x3
    2968:	46c52503          	lw	x10,1132(x10) # 5dd0 <trap_diag_subtype>
    296c:	00100593          	addi	x11,x0,1
    2970:	02b51e63          	bne	x10,x11,29ac <trap_field_not_cause+0x50>
    2974:	00000013          	addi	x0,x0,0
    2978:	00000013          	addi	x0,x0,0
    297c:	00000013          	addi	x0,x0,0
    2980:	00005517          	auipc	x10,0x5
    2984:	b4e50513          	addi	x10,x10,-1202 # 74ce <trap_diag_hint_vect_str>
    2988:	00000013          	addi	x0,x0,0
    298c:	00000013          	addi	x0,x0,0
    2990:	00000013          	addi	x0,x0,0
    2994:	00000013          	addi	x0,x0,0
    2998:	00000013          	addi	x0,x0,0
    299c:	00000013          	addi	x0,x0,0
    29a0:	00015097          	auipc	x1,0x15
    29a4:	864080e7          	jalr	x1,-1948(x1) # 17204 <rvmodel_io_write_str>
    29a8:	27c0006f          	jal	x0,2c24 <failedtest_report_end>
    29ac:	00200593          	addi	x11,x0,2
    29b0:	02b51e63          	bne	x10,x11,29ec <trap_field_not_cause+0x90>
    29b4:	00000013          	addi	x0,x0,0
    29b8:	00000013          	addi	x0,x0,0
    29bc:	00000013          	addi	x0,x0,0
    29c0:	00005517          	auipc	x10,0x5
    29c4:	be450513          	addi	x10,x10,-1052 # 75a4 <trap_diag_hint_cause_str>
    29c8:	00000013          	addi	x0,x0,0
    29cc:	00000013          	addi	x0,x0,0
    29d0:	00000013          	addi	x0,x0,0
    29d4:	00000013          	addi	x0,x0,0
    29d8:	00000013          	addi	x0,x0,0
    29dc:	00000013          	addi	x0,x0,0
    29e0:	00015097          	auipc	x1,0x15
    29e4:	824080e7          	jalr	x1,-2012(x1) # 17204 <rvmodel_io_write_str>
    29e8:	23c0006f          	jal	x0,2c24 <failedtest_report_end>
    29ec:	00300593          	addi	x11,x0,3
    29f0:	02b51e63          	bne	x10,x11,2a2c <trap_field_not_cause+0xd0>
    29f4:	00000013          	addi	x0,x0,0
    29f8:	00000013          	addi	x0,x0,0
    29fc:	00000013          	addi	x0,x0,0
    2a00:	00005517          	auipc	x10,0x5
    2a04:	c9750513          	addi	x10,x10,-873 # 7697 <trap_diag_hint_epc_str>
    2a08:	00000013          	addi	x0,x0,0
    2a0c:	00000013          	addi	x0,x0,0
    2a10:	00000013          	addi	x0,x0,0
    2a14:	00000013          	addi	x0,x0,0
    2a18:	00000013          	addi	x0,x0,0
    2a1c:	00000013          	addi	x0,x0,0
    2a20:	00014097          	auipc	x1,0x14
    2a24:	7e4080e7          	jalr	x1,2020(x1) # 17204 <rvmodel_io_write_str>
    2a28:	1fc0006f          	jal	x0,2c24 <failedtest_report_end>
    2a2c:	00400593          	addi	x11,x0,4
    2a30:	02b51e63          	bne	x10,x11,2a6c <trap_field_not_cause+0x110>
    2a34:	00000013          	addi	x0,x0,0
    2a38:	00000013          	addi	x0,x0,0
    2a3c:	00000013          	addi	x0,x0,0
    2a40:	00005517          	auipc	x10,0x5
    2a44:	d5250513          	addi	x10,x10,-686 # 7792 <trap_diag_hint_tval_str>
    2a48:	00000013          	addi	x0,x0,0
    2a4c:	00000013          	addi	x0,x0,0
    2a50:	00000013          	addi	x0,x0,0
    2a54:	00000013          	addi	x0,x0,0
    2a58:	00000013          	addi	x0,x0,0
    2a5c:	00000013          	addi	x0,x0,0
    2a60:	00014097          	auipc	x1,0x14
    2a64:	7a4080e7          	jalr	x1,1956(x1) # 17204 <rvmodel_io_write_str>
    2a68:	1bc0006f          	jal	x0,2c24 <failedtest_report_end>
    2a6c:	00500593          	addi	x11,x0,5
    2a70:	02b51e63          	bne	x10,x11,2aac <trap_field_not_cause+0x150>
    2a74:	00000013          	addi	x0,x0,0
    2a78:	00000013          	addi	x0,x0,0
    2a7c:	00000013          	addi	x0,x0,0
    2a80:	00005517          	auipc	x10,0x5
    2a84:	df950513          	addi	x10,x10,-519 # 7879 <trap_diag_hint_ip_str>
    2a88:	00000013          	addi	x0,x0,0
    2a8c:	00000013          	addi	x0,x0,0
    2a90:	00000013          	addi	x0,x0,0
    2a94:	00000013          	addi	x0,x0,0
    2a98:	00000013          	addi	x0,x0,0
    2a9c:	00000013          	addi	x0,x0,0
    2aa0:	00014097          	auipc	x1,0x14
    2aa4:	764080e7          	jalr	x1,1892(x1) # 17204 <rvmodel_io_write_str>
    2aa8:	17c0006f          	jal	x0,2c24 <failedtest_report_end>
    2aac:	1780006f          	jal	x0,2c24 <failedtest_report_end>

00002ab0 <trap_report_generic>:
    2ab0:	00000013          	addi	x0,x0,0
    2ab4:	00000013          	addi	x0,x0,0
    2ab8:	00000013          	addi	x0,x0,0
    2abc:	00000013          	addi	x0,x0,0
    2ac0:	00005517          	auipc	x10,0x5
    2ac4:	9c650513          	addi	x10,x10,-1594 # 7486 <trap_diag_generic_str>
    2ac8:	00000013          	addi	x0,x0,0
    2acc:	00000013          	addi	x0,x0,0
    2ad0:	00000013          	addi	x0,x0,0
    2ad4:	00000013          	addi	x0,x0,0
    2ad8:	00000013          	addi	x0,x0,0
    2adc:	00000013          	addi	x0,x0,0
    2ae0:	00014097          	auipc	x1,0x14
    2ae4:	724080e7          	jalr	x1,1828(x1) # 17204 <rvmodel_io_write_str>
    2ae8:	00003617          	auipc	x12,0x3
    2aec:	32062603          	lw	x12,800(x12) # 5e08 <saved_mepc>
    2af0:	00000013          	addi	x0,x0,0
    2af4:	00000013          	addi	x0,x0,0
    2af8:	00000013          	addi	x0,x0,0
    2afc:	00000013          	addi	x0,x0,0
    2b00:	00004517          	auipc	x10,0x4
    2b04:	96950513          	addi	x10,x10,-1687 # 6469 <xepcinstrstr>
    2b08:	00000013          	addi	x0,x0,0
    2b0c:	00000013          	addi	x0,x0,0
    2b10:	00000013          	addi	x0,x0,0
    2b14:	00000013          	addi	x0,x0,0
    2b18:	00000013          	addi	x0,x0,0
    2b1c:	00000013          	addi	x0,x0,0
    2b20:	00014097          	auipc	x1,0x14
    2b24:	6e4080e7          	jalr	x1,1764(x1) # 17204 <rvmodel_io_write_str>
    2b28:	00065503          	lhu	x10,0(x12)
    2b2c:	01000593          	addi	x11,x0,16
    2b30:	00357413          	andi	x8,x10,3
    2b34:	00300493          	addi	x9,x0,3
    2b38:	00941a63          	bne	x8,x9,2b4c <trap_report_generic+0x9c>
    2b3c:	00265403          	lhu	x8,2(x12)
    2b40:	01041413          	slli	x8,x8,0x10
    2b44:	00856533          	or	x10,x10,x8
    2b48:	02000593          	addi	x11,x0,32
    2b4c:	32c000ef          	jal	x1,2e78 <failedtest_hex_to_str>
    2b50:	00000013          	addi	x0,x0,0
    2b54:	00000013          	addi	x0,x0,0
    2b58:	00000013          	addi	x0,x0,0
    2b5c:	00000013          	addi	x0,x0,0
    2b60:	00003517          	auipc	x10,0x3
    2b64:	2c850513          	addi	x10,x10,712 # 5e28 <ascii_buffer>
    2b68:	00000013          	addi	x0,x0,0
    2b6c:	00000013          	addi	x0,x0,0
    2b70:	00000013          	addi	x0,x0,0
    2b74:	00000013          	addi	x0,x0,0
    2b78:	00000013          	addi	x0,x0,0
    2b7c:	00000013          	addi	x0,x0,0
    2b80:	00014097          	auipc	x1,0x14
    2b84:	684080e7          	jalr	x1,1668(x1) # 17204 <rvmodel_io_write_str>
    2b88:	00000097          	auipc	x1,0x0
    2b8c:	0e8080e7          	jalr	x1,232(x1) # 2c70 <failedtest_print_csr_context>
    2b90:	0940006f          	jal	x0,2c24 <failedtest_report_end>

00002b94 <trap_cause_to_str>:
    2b94:	02054263          	blt	x10,x0,2bb8 <trap_cause_interrupt>

00002b98 <trap_cause_exception>:
    2b98:	01800593          	addi	x11,x0,24
    2b9c:	04b55463          	bge	x10,x11,2be4 <trap_cause_unknown>
    2ba0:	00003597          	auipc	x11,0x3
    2ba4:	2b058593          	addi	x11,x11,688 # 5e50 <end_failure_scratch>
    2ba8:	00251613          	slli	x12,x10,0x2
    2bac:	00c585b3          	add	x11,x11,x12
    2bb0:	0005a503          	lw	x10,0(x11)
    2bb4:	00008067          	jalr	x0,0(x1)

00002bb8 <trap_cause_interrupt>:
    2bb8:	00100593          	addi	x11,x0,1
    2bbc:	01f59593          	slli	x11,x11,0x1f
    2bc0:	00b54533          	xor	x10,x10,x11
    2bc4:	01000593          	addi	x11,x0,16
    2bc8:	00b55e63          	bge	x10,x11,2be4 <trap_cause_unknown>
    2bcc:	00003597          	auipc	x11,0x3
    2bd0:	2e458593          	addi	x11,x11,740 # 5eb0 <trap_int_name_tbl>
    2bd4:	00251613          	slli	x12,x10,0x2
    2bd8:	00c585b3          	add	x11,x11,x12
    2bdc:	0005a503          	lw	x10,0(x11)
    2be0:	00008067          	jalr	x0,0(x1)

00002be4 <trap_cause_unknown>:
    2be4:	00000013          	addi	x0,x0,0
    2be8:	00000013          	addi	x0,x0,0
    2bec:	00000013          	addi	x0,x0,0
    2bf0:	00000013          	addi	x0,x0,0
    2bf4:	00000013          	addi	x0,x0,0
    2bf8:	00000013          	addi	x0,x0,0
    2bfc:	00000013          	addi	x0,x0,0
    2c00:	00003517          	auipc	x10,0x3
    2c04:	6ee50513          	addi	x10,x10,1774 # 62ee <trap_cause_unknown_str>
    2c08:	00000013          	addi	x0,x0,0
    2c0c:	00000013          	addi	x0,x0,0
    2c10:	00000013          	addi	x0,x0,0
    2c14:	00000013          	addi	x0,x0,0
    2c18:	00000013          	addi	x0,x0,0
    2c1c:	00000013          	addi	x0,x0,0
    2c20:	00008067          	jalr	x0,0(x1)

00002c24 <failedtest_report_end>:
    2c24:	00000013          	addi	x0,x0,0
    2c28:	00000013          	addi	x0,x0,0
    2c2c:	00000013          	addi	x0,x0,0
    2c30:	00000013          	addi	x0,x0,0
    2c34:	00000013          	addi	x0,x0,0
    2c38:	00000013          	addi	x0,x0,0
    2c3c:	00000013          	addi	x0,x0,0
    2c40:	00004517          	auipc	x10,0x4
    2c44:	27150513          	addi	x10,x10,625 # 6eb1 <endstr>
    2c48:	00000013          	addi	x0,x0,0
    2c4c:	00000013          	addi	x0,x0,0
    2c50:	00000013          	addi	x0,x0,0
    2c54:	00000013          	addi	x0,x0,0
    2c58:	00000013          	addi	x0,x0,0
    2c5c:	00000013          	addi	x0,x0,0
    2c60:	00014097          	auipc	x1,0x14
    2c64:	5a4080e7          	jalr	x1,1444(x1) # 17204 <rvmodel_io_write_str>

00002c68 <failedtest_terminate>:
    2c68:	00014097          	auipc	x1,0x14
    2c6c:	5ac080e7          	jalr	x1,1452(x1) # 17214 <rvmodel_halt_fail>

00002c70 <failedtest_print_csr_context>:
    2c70:	00003617          	auipc	x12,0x3
    2c74:	19060613          	addi	x12,x12,400 # 5e00 <csr_context_ret_addr>
    2c78:	00162023          	sw	x1,0(x12)
    2c7c:	00000013          	addi	x0,x0,0
    2c80:	00004517          	auipc	x10,0x4
    2c84:	80a50513          	addi	x10,x10,-2038 # 648a <mepcstr>
    2c88:	00000013          	addi	x0,x0,0
    2c8c:	00000013          	addi	x0,x0,0
    2c90:	00000013          	addi	x0,x0,0
    2c94:	00000013          	addi	x0,x0,0
    2c98:	00000013          	addi	x0,x0,0
    2c9c:	00000013          	addi	x0,x0,0
    2ca0:	00014097          	auipc	x1,0x14
    2ca4:	564080e7          	jalr	x1,1380(x1) # 17204 <rvmodel_io_write_str>
    2ca8:	00003517          	auipc	x10,0x3
    2cac:	16052503          	lw	x10,352(x10) # 5e08 <saved_mepc>
    2cb0:	02000593          	addi	x11,x0,32
    2cb4:	1c4000ef          	jal	x1,2e78 <failedtest_hex_to_str>
    2cb8:	00000013          	addi	x0,x0,0
    2cbc:	00000013          	addi	x0,x0,0
    2cc0:	00003517          	auipc	x10,0x3
    2cc4:	16850513          	addi	x10,x10,360 # 5e28 <ascii_buffer>
    2cc8:	00000013          	addi	x0,x0,0
    2ccc:	00000013          	addi	x0,x0,0
    2cd0:	00000013          	addi	x0,x0,0
    2cd4:	00000013          	addi	x0,x0,0
    2cd8:	00000013          	addi	x0,x0,0
    2cdc:	00000013          	addi	x0,x0,0
    2ce0:	00014097          	auipc	x1,0x14
    2ce4:	524080e7          	jalr	x1,1316(x1) # 17204 <rvmodel_io_write_str>
    2ce8:	00000013          	addi	x0,x0,0
    2cec:	00000013          	addi	x0,x0,0
    2cf0:	00000013          	addi	x0,x0,0
    2cf4:	00000013          	addi	x0,x0,0
    2cf8:	00000013          	addi	x0,x0,0
    2cfc:	00000013          	addi	x0,x0,0
    2d00:	00003517          	auipc	x10,0x3
    2d04:	79a50513          	addi	x10,x10,1946 # 649a <mcausestr>
    2d08:	00000013          	addi	x0,x0,0
    2d0c:	00000013          	addi	x0,x0,0
    2d10:	00000013          	addi	x0,x0,0
    2d14:	00000013          	addi	x0,x0,0
    2d18:	00000013          	addi	x0,x0,0
    2d1c:	00000013          	addi	x0,x0,0
    2d20:	00014097          	auipc	x1,0x14
    2d24:	4e4080e7          	jalr	x1,1252(x1) # 17204 <rvmodel_io_write_str>
    2d28:	00003517          	auipc	x10,0x3
    2d2c:	0e852503          	lw	x10,232(x10) # 5e10 <saved_mcause>
    2d30:	02000593          	addi	x11,x0,32
    2d34:	144000ef          	jal	x1,2e78 <failedtest_hex_to_str>
    2d38:	00000013          	addi	x0,x0,0
    2d3c:	00000013          	addi	x0,x0,0
    2d40:	00003517          	auipc	x10,0x3
    2d44:	0e850513          	addi	x10,x10,232 # 5e28 <ascii_buffer>
    2d48:	00000013          	addi	x0,x0,0
    2d4c:	00000013          	addi	x0,x0,0
    2d50:	00000013          	addi	x0,x0,0
    2d54:	00000013          	addi	x0,x0,0
    2d58:	00000013          	addi	x0,x0,0
    2d5c:	00000013          	addi	x0,x0,0
    2d60:	00014097          	auipc	x1,0x14
    2d64:	4a4080e7          	jalr	x1,1188(x1) # 17204 <rvmodel_io_write_str>
    2d68:	00000013          	addi	x0,x0,0
    2d6c:	00000013          	addi	x0,x0,0
    2d70:	00000013          	addi	x0,x0,0
    2d74:	00000013          	addi	x0,x0,0
    2d78:	00000013          	addi	x0,x0,0
    2d7c:	00000013          	addi	x0,x0,0
    2d80:	00003517          	auipc	x10,0x3
    2d84:	72a50513          	addi	x10,x10,1834 # 64aa <mtvalstr>
    2d88:	00000013          	addi	x0,x0,0
    2d8c:	00000013          	addi	x0,x0,0
    2d90:	00000013          	addi	x0,x0,0
    2d94:	00000013          	addi	x0,x0,0
    2d98:	00000013          	addi	x0,x0,0
    2d9c:	00000013          	addi	x0,x0,0
    2da0:	00014097          	auipc	x1,0x14
    2da4:	464080e7          	jalr	x1,1124(x1) # 17204 <rvmodel_io_write_str>
    2da8:	00003517          	auipc	x10,0x3
    2dac:	07052503          	lw	x10,112(x10) # 5e18 <saved_mtval>
    2db0:	02000593          	addi	x11,x0,32
    2db4:	0c4000ef          	jal	x1,2e78 <failedtest_hex_to_str>
    2db8:	00000013          	addi	x0,x0,0
    2dbc:	00000013          	addi	x0,x0,0
    2dc0:	00003517          	auipc	x10,0x3
    2dc4:	06850513          	addi	x10,x10,104 # 5e28 <ascii_buffer>
    2dc8:	00000013          	addi	x0,x0,0
    2dcc:	00000013          	addi	x0,x0,0
    2dd0:	00000013          	addi	x0,x0,0
    2dd4:	00000013          	addi	x0,x0,0
    2dd8:	00000013          	addi	x0,x0,0
    2ddc:	00000013          	addi	x0,x0,0
    2de0:	00014097          	auipc	x1,0x14
    2de4:	424080e7          	jalr	x1,1060(x1) # 17204 <rvmodel_io_write_str>
    2de8:	00000013          	addi	x0,x0,0
    2dec:	00000013          	addi	x0,x0,0
    2df0:	00000013          	addi	x0,x0,0
    2df4:	00000013          	addi	x0,x0,0
    2df8:	00000013          	addi	x0,x0,0
    2dfc:	00000013          	addi	x0,x0,0
    2e00:	00003517          	auipc	x10,0x3
    2e04:	6ba50513          	addi	x10,x10,1722 # 64ba <mstatusstr>
    2e08:	00000013          	addi	x0,x0,0
    2e0c:	00000013          	addi	x0,x0,0
    2e10:	00000013          	addi	x0,x0,0
    2e14:	00000013          	addi	x0,x0,0
    2e18:	00000013          	addi	x0,x0,0
    2e1c:	00000013          	addi	x0,x0,0
    2e20:	00014097          	auipc	x1,0x14
    2e24:	3e4080e7          	jalr	x1,996(x1) # 17204 <rvmodel_io_write_str>
    2e28:	00003517          	auipc	x10,0x3
    2e2c:	ff852503          	lw	x10,-8(x10) # 5e20 <saved_mstatus>
    2e30:	02000593          	addi	x11,x0,32
    2e34:	044000ef          	jal	x1,2e78 <failedtest_hex_to_str>
    2e38:	00000013          	addi	x0,x0,0
    2e3c:	00000013          	addi	x0,x0,0
    2e40:	00003517          	auipc	x10,0x3
    2e44:	fe850513          	addi	x10,x10,-24 # 5e28 <ascii_buffer>
    2e48:	00000013          	addi	x0,x0,0
    2e4c:	00000013          	addi	x0,x0,0
    2e50:	00000013          	addi	x0,x0,0
    2e54:	00000013          	addi	x0,x0,0
    2e58:	00000013          	addi	x0,x0,0
    2e5c:	00000013          	addi	x0,x0,0
    2e60:	00014097          	auipc	x1,0x14
    2e64:	3a4080e7          	jalr	x1,932(x1) # 17204 <rvmodel_io_write_str>
    2e68:	00003617          	auipc	x12,0x3
    2e6c:	f9860613          	addi	x12,x12,-104 # 5e00 <csr_context_ret_addr>
    2e70:	00062083          	lw	x1,0(x12)
    2e74:	00008067          	jalr	x0,0(x1)

00002e78 <failedtest_hex_to_str>:
    2e78:	00000013          	addi	x0,x0,0
    2e7c:	00000013          	addi	x0,x0,0
    2e80:	00003617          	auipc	x12,0x3
    2e84:	fa860613          	addi	x12,x12,-88 # 5e28 <ascii_buffer>
    2e88:	00000013          	addi	x0,x0,0
    2e8c:	00000013          	addi	x0,x0,0
    2e90:	00000013          	addi	x0,x0,0
    2e94:	00000013          	addi	x0,x0,0
    2e98:	00000013          	addi	x0,x0,0
    2e9c:	00000013          	addi	x0,x0,0
    2ea0:	03000693          	addi	x13,x0,48
    2ea4:	00d60023          	sb	x13,0(x12)
    2ea8:	07800693          	addi	x13,x0,120
    2eac:	00d600a3          	sb	x13,1(x12)
    2eb0:	00260613          	addi	x12,x12,2
    2eb4:	00058693          	addi	x13,x11,0

00002eb8 <failedtest_hex_to_str_loop>:
    2eb8:	ffc68693          	addi	x13,x13,-4
    2ebc:	00d55733          	srl	x14,x10,x13
    2ec0:	00f77713          	andi	x14,x14,15
    2ec4:	00a00793          	addi	x15,x0,10
    2ec8:	00f74663          	blt	x14,x15,2ed4 <failedtest_hex_to_str_digit>
    2ecc:	05770713          	addi	x14,x14,87
    2ed0:	0080006f          	jal	x0,2ed8 <failedtest_hex_to_str_write>

00002ed4 <failedtest_hex_to_str_digit>:
    2ed4:	03070713          	addi	x14,x14,48

00002ed8 <failedtest_hex_to_str_write>:
    2ed8:	00e60023          	sb	x14,0(x12)
    2edc:	00160613          	addi	x12,x12,1
    2ee0:	fc069ce3          	bne	x13,x0,2eb8 <failedtest_hex_to_str_loop>
    2ee4:	00a00693          	addi	x13,x0,10
    2ee8:	00d60023          	sb	x13,0(x12)
    2eec:	000600a3          	sb	x0,1(x12)
    2ef0:	00008067          	jalr	x0,0(x1)

00002ef4 <failedtest_dec_to_str>:
    2ef4:	00a00693          	addi	x13,x0,10
    2ef8:	02d54663          	blt	x10,x13,2f24 <failedtest_dec_to_str+0x30>
    2efc:	ff650513          	addi	x10,x10,-10
    2f00:	03100713          	addi	x14,x0,49
    2f04:	00d54c63          	blt	x10,x13,2f1c <failedtest_dec_to_str+0x28>
    2f08:	ff650513          	addi	x10,x10,-10
    2f0c:	03200713          	addi	x14,x0,50
    2f10:	00d54663          	blt	x10,x13,2f1c <failedtest_dec_to_str+0x28>
    2f14:	ff650513          	addi	x10,x10,-10
    2f18:	03300713          	addi	x14,x0,51
    2f1c:	00e60023          	sb	x14,0(x12)
    2f20:	00160613          	addi	x12,x12,1
    2f24:	03050513          	addi	x10,x10,48
    2f28:	00a60023          	sb	x10,0(x12)
    2f2c:	00a00693          	addi	x13,x0,10
    2f30:	00d600a3          	sb	x13,1(x12)
    2f34:	00060123          	sb	x0,2(x12)
    2f38:	00008067          	jalr	x0,0(x1)
    2f3c:	00000013          	addi	x0,x0,0

Disassembly of section .text.rvmodel:

00017000 <rvmodel_boot>:
   17000:	feedc0b7          	lui	x1,0xfeedc
   17004:	ead08093          	addi	x1,x1,-339 # feedbead <absimm+0x8f911ba4>
   17008:	01909793          	slli	x15,x1,0x19
   1700c:	0070d113          	srli	x2,x1,0x7
   17010:	00f16133          	or	x2,x2,x15
   17014:	01911793          	slli	x15,x2,0x19
   17018:	00715193          	srli	x3,x2,0x7
   1701c:	00f1e1b3          	or	x3,x3,x15
   17020:	01919793          	slli	x15,x3,0x19
   17024:	0071d213          	srli	x4,x3,0x7
   17028:	00f26233          	or	x4,x4,x15
   1702c:	01921793          	slli	x15,x4,0x19
   17030:	00725293          	srli	x5,x4,0x7
   17034:	00f2e2b3          	or	x5,x5,x15
   17038:	01929793          	slli	x15,x5,0x19
   1703c:	0072d313          	srli	x6,x5,0x7
   17040:	00f36333          	or	x6,x6,x15
   17044:	01931793          	slli	x15,x6,0x19
   17048:	00735393          	srli	x7,x6,0x7
   1704c:	00f3e3b3          	or	x7,x7,x15
   17050:	01939793          	slli	x15,x7,0x19
   17054:	0073d413          	srli	x8,x7,0x7
   17058:	00f46433          	or	x8,x8,x15
   1705c:	01941793          	slli	x15,x8,0x19
   17060:	00745493          	srli	x9,x8,0x7
   17064:	00f4e4b3          	or	x9,x9,x15
   17068:	01949793          	slli	x15,x9,0x19
   1706c:	0074d513          	srli	x10,x9,0x7
   17070:	00f56533          	or	x10,x10,x15
   17074:	01951793          	slli	x15,x10,0x19
   17078:	00755593          	srli	x11,x10,0x7
   1707c:	00f5e5b3          	or	x11,x11,x15
   17080:	01959793          	slli	x15,x11,0x19
   17084:	0075d613          	srli	x12,x11,0x7
   17088:	00f66633          	or	x12,x12,x15
   1708c:	01961793          	slli	x15,x12,0x19
   17090:	00765693          	srli	x13,x12,0x7
   17094:	00f6e6b3          	or	x13,x13,x15
   17098:	01969793          	slli	x15,x13,0x19
   1709c:	0076d713          	srli	x14,x13,0x7
   170a0:	00f76733          	or	x14,x14,x15
   170a4:	fab807b7          	lui	x15,0xfab80
   170a8:	bb678793          	addi	x15,x15,-1098 # fab7fbb6 <absimm+0x8b5b58ad>
   170ac:	7d5c0837          	lui	x16,0x7d5c0
   170b0:	ddb80813          	addi	x16,x16,-549 # 7d5bfddb <absimm+0xdff5ad2>
   170b4:	01981793          	slli	x15,x16,0x19
   170b8:	00785893          	srli	x17,x16,0x7
   170bc:	00f8e8b3          	or	x17,x17,x15
   170c0:	01989793          	slli	x15,x17,0x19
   170c4:	0078d913          	srli	x18,x17,0x7
   170c8:	00f96933          	or	x18,x18,x15
   170cc:	01991793          	slli	x15,x18,0x19
   170d0:	00795993          	srli	x19,x18,0x7
   170d4:	00f9e9b3          	or	x19,x19,x15
   170d8:	01999793          	slli	x15,x19,0x19
   170dc:	0079da13          	srli	x20,x19,0x7
   170e0:	00fa6a33          	or	x20,x20,x15
   170e4:	019a1793          	slli	x15,x20,0x19
   170e8:	007a5a93          	srli	x21,x20,0x7
   170ec:	00faeab3          	or	x21,x21,x15
   170f0:	019a9793          	slli	x15,x21,0x19
   170f4:	007adb13          	srli	x22,x21,0x7
   170f8:	00fb6b33          	or	x22,x22,x15
