
/home/dev/github/clones/riscv-arch-test/work/rv32i-core/elfs/rv32i/I/I-lh-00.elf:     file format elf32-littleriscv
/home/dev/github/clones/riscv-arch-test/work/rv32i-core/elfs/rv32i/I/I-lh-00.elf
architecture: riscv:rv32, flags 0x00000112:
EXEC_P, HAS_SYMS, D_PAGED
start address 0x00000000

Program Header:
0x70000003 off    0x00017240 vaddr 0x00000000 paddr 0x00000000 align 2**0
         filesz 0x00000033 memsz 0x00000000 flags r--
    LOAD off    0x00001000 vaddr 0x00000000 paddr 0x00000000 align 2**12
         filesz 0x00002dc0 memsz 0x00002dc0 flags r-x
    LOAD off    0x00004000 vaddr 0x00004000 paddr 0x00004000 align 2**12
         filesz 0x00013240 memsz 0x00013240 flags rwx

Sections:
Idx Name          Size      VMA       LMA       File off  Algn
  0 .text.init    00000040  00000000  00000000  00001000  2**5
                  CONTENTS, ALLOC, LOAD, READONLY, CODE
  1 .text.rvtest  00002d80  00000040  00000040  00001040  2**5
                  CONTENTS, ALLOC, LOAD, READONLY, CODE
  2 .data         00012480  00004000  00004000  00004000  2**8
                  CONTENTS, ALLOC, LOAD, DATA
  3 .text.rvmodel 00000240  00017000  00017000  00017000  2**5
                  CONTENTS, ALLOC, LOAD, READONLY, CODE
  4 .riscv.attributes 00000033  00000000  00000000  00017240  2**0
                  CONTENTS, READONLY
  5 .debug_line   00000cae  00000000  00000000  00017273  2**0
                  CONTENTS, READONLY, DEBUGGING, OCTETS
  6 .debug_line_str 00000068  00000000  00000000  00017f21  2**0
                  CONTENTS, READONLY, DEBUGGING, OCTETS
  7 .debug_info   00000023  00000000  00000000  00017f89  2**0
                  CONTENTS, READONLY, DEBUGGING, OCTETS
  8 .debug_abbrev 00000012  00000000  00000000  00017fac  2**0
                  CONTENTS, READONLY, DEBUGGING, OCTETS
  9 .debug_aranges 00000028  00000000  00000000  00017fc0  2**3
                  CONTENTS, READONLY, DEBUGGING, OCTETS
 10 .debug_str    00000074  00000000  00000000  00017fe8  2**0
                  CONTENTS, READONLY, DEBUGGING, OCTETS
 11 .debug_rnglists 0000001a  00000000  00000000  0001805c  2**0
                  CONTENTS, READONLY, DEBUGGING, OCTETS
SYMBOL TABLE:
00000000 l    d  .text.init	00000000 .text.init
00000040 l    d  .text.rvtest	00000000 .text.rvtest
00004000 l    d  .data	00000000 .data
00017000 l    d  .text.rvmodel	00000000 .text.rvmodel
00000000 l    d  .riscv.attributes	00000000 .riscv.attributes
00000000 l    d  .debug_line	00000000 .debug_line
00000000 l    d  .debug_line_str	00000000 .debug_line_str
00000000 l    d  .debug_info	00000000 .debug_info
00000000 l    d  .debug_abbrev	00000000 .debug_abbrev
00000000 l    d  .debug_aranges	00000000 .debug_aranges
00000000 l    d  .debug_str	00000000 .debug_str
00000000 l    d  .debug_rnglists	00000000 .debug_rnglists
00000000 l    df *ABS*	00000000 cc1I4IE3.o
00000003 l       *ABS*	00000000 MMODE_SIG
00000001 l       *ABS*	00000000 SMODE_SIG
00000001 l       *ABS*	00000000 HMODE_SIG
00000002 l       *ABS*	00000000 VMODE_SIG
00017000 l       .text.rvmodel	00000000 rvmodel_boot
00000044 l       .text.rvtest	00000000 I_lh_cg_cp_rs1_nx0_b1
0000133c l       .text.rvtest	00000000 failedtest_x5_x4
000042fc l       .data	00000000 I_lh_cg_cp_rs1_nx0_b1_str
0000006c l       .text.rvtest	00000000 I_lh_cg_cp_rs1_nx0_b2
0000432c l       .data	00000000 I_lh_cg_cp_rs1_nx0_b2_str
00000094 l       .text.rvtest	00000000 I_lh_cg_cp_rs1_nx0_b3
0000435c l       .data	00000000 I_lh_cg_cp_rs1_nx0_b3_str
000000c0 l       .text.rvtest	00000000 I_lh_cg_cp_rs1_nx0_b4
00001354 l       .text.rvtest	00000000 failedtest_x8_x7
0000438c l       .data	00000000 I_lh_cg_cp_rs1_nx0_b4_str
000000e4 l       .text.rvtest	00000000 I_lh_cg_cp_rs1_nx0_b5
000043bc l       .data	00000000 I_lh_cg_cp_rs1_nx0_b5_str
00000108 l       .text.rvtest	00000000 I_lh_cg_cp_rs1_nx0_b6
000043ec l       .data	00000000 I_lh_cg_cp_rs1_nx0_b6_str
00000134 l       .text.rvtest	00000000 I_lh_cg_cp_rs1_nx0_b7
0000137c l       .text.rvtest	00000000 failedtest_x14_x13
0000441c l       .data	00000000 I_lh_cg_cp_rs1_nx0_b7_str
00000158 l       .text.rvtest	00000000 I_lh_cg_cp_rs1_nx0_b8
0000444c l       .data	00000000 I_lh_cg_cp_rs1_nx0_b8_str
0000017c l       .text.rvtest	00000000 I_lh_cg_cp_rs1_nx0_b9
0000447c l       .data	00000000 I_lh_cg_cp_rs1_nx0_b9_str
000001a4 l       .text.rvtest	00000000 I_lh_cg_cp_rs1_nx0_b10
000044ac l       .data	00000000 I_lh_cg_cp_rs1_nx0_b10_str
000001cc l       .text.rvtest	00000000 I_lh_cg_cp_rs1_nx0_b11
000044de l       .data	00000000 I_lh_cg_cp_rs1_nx0_b11_str
000001f0 l       .text.rvtest	00000000 I_lh_cg_cp_rs1_nx0_b12
00004510 l       .data	00000000 I_lh_cg_cp_rs1_nx0_b12_str
0000021c l       .text.rvtest	00000000 I_lh_cg_cp_rs1_nx0_b13
00004542 l       .data	00000000 I_lh_cg_cp_rs1_nx0_b13_str
00000240 l       .text.rvtest	00000000 I_lh_cg_cp_rs1_nx0_b14
00004574 l       .data	00000000 I_lh_cg_cp_rs1_nx0_b14_str
00000264 l       .text.rvtest	00000000 I_lh_cg_cp_rs1_nx0_b15
000045a6 l       .data	00000000 I_lh_cg_cp_rs1_nx0_b15_str
00000288 l       .text.rvtest	00000000 I_lh_cg_cp_rs1_nx0_b16
000045d8 l       .data	00000000 I_lh_cg_cp_rs1_nx0_b16_str
000002ac l       .text.rvtest	00000000 I_lh_cg_cp_rs1_nx0_b17
0000460a l       .data	00000000 I_lh_cg_cp_rs1_nx0_b17_str
000002d0 l       .text.rvtest	00000000 I_lh_cg_cp_rs1_nx0_b18
0000463c l       .data	00000000 I_lh_cg_cp_rs1_nx0_b18_str
000002f4 l       .text.rvtest	00000000 I_lh_cg_cp_rs1_nx0_b19
0000466e l       .data	00000000 I_lh_cg_cp_rs1_nx0_b19_str
00000318 l       .text.rvtest	00000000 I_lh_cg_cp_rs1_nx0_b20
000046a0 l       .data	00000000 I_lh_cg_cp_rs1_nx0_b20_str
00000340 l       .text.rvtest	00000000 I_lh_cg_cp_rs1_nx0_b21
000046d2 l       .data	00000000 I_lh_cg_cp_rs1_nx0_b21_str
00000364 l       .text.rvtest	00000000 I_lh_cg_cp_rs1_nx0_b22
00004704 l       .data	00000000 I_lh_cg_cp_rs1_nx0_b22_str
0000038c l       .text.rvtest	00000000 I_lh_cg_cp_rs1_nx0_b23
00004736 l       .data	00000000 I_lh_cg_cp_rs1_nx0_b23_str
000003b0 l       .text.rvtest	00000000 I_lh_cg_cp_rs1_nx0_b24
00004768 l       .data	00000000 I_lh_cg_cp_rs1_nx0_b24_str
000003d4 l       .text.rvtest	00000000 I_lh_cg_cp_rs1_nx0_b25
0000479a l       .data	00000000 I_lh_cg_cp_rs1_nx0_b25_str
000003f8 l       .text.rvtest	00000000 I_lh_cg_cp_rs1_nx0_b26
000047cc l       .data	00000000 I_lh_cg_cp_rs1_nx0_b26_str
0000041c l       .text.rvtest	00000000 I_lh_cg_cp_rs1_nx0_b27
000047fe l       .data	00000000 I_lh_cg_cp_rs1_nx0_b27_str
00000440 l       .text.rvtest	00000000 I_lh_cg_cp_rs1_nx0_b28
00004830 l       .data	00000000 I_lh_cg_cp_rs1_nx0_b28_str
00000464 l       .text.rvtest	00000000 I_lh_cg_cp_rs1_nx0_b29
00004862 l       .data	00000000 I_lh_cg_cp_rs1_nx0_b29_str
00000488 l       .text.rvtest	00000000 I_lh_cg_cp_rs1_nx0_b30
00004894 l       .data	00000000 I_lh_cg_cp_rs1_nx0_b30_str
000004ac l       .text.rvtest	00000000 I_lh_cg_cp_rs1_nx0_b31
000048c6 l       .data	00000000 I_lh_cg_cp_rs1_nx0_b31_str
000004d0 l       .text.rvtest	00000000 I_lh_cg_cp_rd_b0
000048f8 l       .data	00000000 I_lh_cg_cp_rd_b0_str
000004f4 l       .text.rvtest	00000000 I_lh_cg_cp_rd_b1
00004924 l       .data	00000000 I_lh_cg_cp_rd_b1_str
0000051c l       .text.rvtest	00000000 I_lh_cg_cp_rd_b2
00004950 l       .data	00000000 I_lh_cg_cp_rd_b2_str
00000540 l       .text.rvtest	00000000 I_lh_cg_cp_rd_b3
0000497c l       .data	00000000 I_lh_cg_cp_rd_b3_str
00000564 l       .text.rvtest	00000000 I_lh_cg_cp_rd_b4
000049a8 l       .data	00000000 I_lh_cg_cp_rd_b4_str
00000588 l       .text.rvtest	00000000 I_lh_cg_cp_rd_b5
000049d4 l       .data	00000000 I_lh_cg_cp_rd_b5_str
000005ac l       .text.rvtest	00000000 I_lh_cg_cp_rd_b6
00004a00 l       .data	00000000 I_lh_cg_cp_rd_b6_str
000005d8 l       .text.rvtest	00000000 I_lh_cg_cp_rd_b7
00004a2c l       .data	00000000 I_lh_cg_cp_rd_b7_str
000005fc l       .text.rvtest	00000000 I_lh_cg_cp_rd_b8
00004a58 l       .data	00000000 I_lh_cg_cp_rd_b8_str
00000620 l       .text.rvtest	00000000 I_lh_cg_cp_rd_b9
00004a84 l       .data	00000000 I_lh_cg_cp_rd_b9_str
00000644 l       .text.rvtest	00000000 I_lh_cg_cp_rd_b10
00004ab0 l       .data	00000000 I_lh_cg_cp_rd_b10_str
00000668 l       .text.rvtest	00000000 I_lh_cg_cp_rd_b11
00004add l       .data	00000000 I_lh_cg_cp_rd_b11_str
0000068c l       .text.rvtest	00000000 I_lh_cg_cp_rd_b12
00004b0a l       .data	00000000 I_lh_cg_cp_rd_b12_str
000006b0 l       .text.rvtest	00000000 I_lh_cg_cp_rd_b13
00004b37 l       .data	00000000 I_lh_cg_cp_rd_b13_str
000006d4 l       .text.rvtest	00000000 I_lh_cg_cp_rd_b14
00004b64 l       .data	00000000 I_lh_cg_cp_rd_b14_str
000006f8 l       .text.rvtest	00000000 I_lh_cg_cp_rd_b15
00004b91 l       .data	00000000 I_lh_cg_cp_rd_b15_str
0000071c l       .text.rvtest	00000000 I_lh_cg_cp_rd_b16
00004bbe l       .data	00000000 I_lh_cg_cp_rd_b16_str
00000744 l       .text.rvtest	00000000 I_lh_cg_cp_rd_b17
00004beb l       .data	00000000 I_lh_cg_cp_rd_b17_str
00000768 l       .text.rvtest	00000000 I_lh_cg_cp_rd_b18
00004c18 l       .data	00000000 I_lh_cg_cp_rd_b18_str
0000078c l       .text.rvtest	00000000 I_lh_cg_cp_rd_b19
00004c45 l       .data	00000000 I_lh_cg_cp_rd_b19_str
000007b0 l       .text.rvtest	00000000 I_lh_cg_cp_rd_b20
00004c72 l       .data	00000000 I_lh_cg_cp_rd_b20_str
000007d8 l       .text.rvtest	00000000 I_lh_cg_cp_rd_b21
00004c9f l       .data	00000000 I_lh_cg_cp_rd_b21_str
000007fc l       .text.rvtest	00000000 I_lh_cg_cp_rd_b22
00004ccc l       .data	00000000 I_lh_cg_cp_rd_b22_str
00000820 l       .text.rvtest	00000000 I_lh_cg_cp_rd_b23
00004cf9 l       .data	00000000 I_lh_cg_cp_rd_b23_str
00000844 l       .text.rvtest	00000000 I_lh_cg_cp_rd_b24
00004d26 l       .data	00000000 I_lh_cg_cp_rd_b24_str
00000868 l       .text.rvtest	00000000 I_lh_cg_cp_rd_b25
00004d53 l       .data	00000000 I_lh_cg_cp_rd_b25_str
0000088c l       .text.rvtest	00000000 I_lh_cg_cp_rd_b26
00004d80 l       .data	00000000 I_lh_cg_cp_rd_b26_str
000008b0 l       .text.rvtest	00000000 I_lh_cg_cp_rd_b27
00004dad l       .data	00000000 I_lh_cg_cp_rd_b27_str
000008d4 l       .text.rvtest	00000000 I_lh_cg_cp_rd_b28
00004dda l       .data	00000000 I_lh_cg_cp_rd_b28_str
000008f8 l       .text.rvtest	00000000 I_lh_cg_cp_rd_b29
00004e07 l       .data	00000000 I_lh_cg_cp_rd_b29_str
00000920 l       .text.rvtest	00000000 I_lh_cg_cp_rd_b30
00004e34 l       .data	00000000 I_lh_cg_cp_rd_b30_str
00000944 l       .text.rvtest	00000000 I_lh_cg_cp_rd_b31
00004e61 l       .data	00000000 I_lh_cg_cp_rd_b31_str
00000968 l       .text.rvtest	00000000 I_lh_cg_cmp_rd_rs1_nx0_b1
00004e8e l       .data	00000000 I_lh_cg_cmp_rd_rs1_nx0_b1_str
0000098c l       .text.rvtest	00000000 I_lh_cg_cmp_rd_rs1_nx0_b2
00004ec3 l       .data	00000000 I_lh_cg_cmp_rd_rs1_nx0_b2_str
000009b0 l       .text.rvtest	00000000 I_lh_cg_cmp_rd_rs1_nx0_b3
00004ef8 l       .data	00000000 I_lh_cg_cmp_rd_rs1_nx0_b3_str
000009dc l       .text.rvtest	00000000 I_lh_cg_cmp_rd_rs1_nx0_b4
00004f2d l       .data	00000000 I_lh_cg_cmp_rd_rs1_nx0_b4_str
00000a00 l       .text.rvtest	00000000 I_lh_cg_cmp_rd_rs1_nx0_b5
00004f62 l       .data	00000000 I_lh_cg_cmp_rd_rs1_nx0_b5_str
00000a24 l       .text.rvtest	00000000 I_lh_cg_cmp_rd_rs1_nx0_b6
00004f97 l       .data	00000000 I_lh_cg_cmp_rd_rs1_nx0_b6_str
00000a50 l       .text.rvtest	00000000 I_lh_cg_cmp_rd_rs1_nx0_b7
00004fcc l       .data	00000000 I_lh_cg_cmp_rd_rs1_nx0_b7_str
00000a74 l       .text.rvtest	00000000 I_lh_cg_cmp_rd_rs1_nx0_b8
00005001 l       .data	00000000 I_lh_cg_cmp_rd_rs1_nx0_b8_str
00000a98 l       .text.rvtest	00000000 I_lh_cg_cmp_rd_rs1_nx0_b9
00005036 l       .data	00000000 I_lh_cg_cmp_rd_rs1_nx0_b9_str
00000abc l       .text.rvtest	00000000 I_lh_cg_cmp_rd_rs1_nx0_b10
0000506b l       .data	00000000 I_lh_cg_cmp_rd_rs1_nx0_b10_str
00000ae0 l       .text.rvtest	00000000 I_lh_cg_cmp_rd_rs1_nx0_b11
000050a1 l       .data	00000000 I_lh_cg_cmp_rd_rs1_nx0_b11_str
00000b04 l       .text.rvtest	00000000 I_lh_cg_cmp_rd_rs1_nx0_b12
000050d7 l       .data	00000000 I_lh_cg_cmp_rd_rs1_nx0_b12_str
00000b28 l       .text.rvtest	00000000 I_lh_cg_cmp_rd_rs1_nx0_b13
0000510d l       .data	00000000 I_lh_cg_cmp_rd_rs1_nx0_b13_str
00000b4c l       .text.rvtest	00000000 I_lh_cg_cmp_rd_rs1_nx0_b14
00005143 l       .data	00000000 I_lh_cg_cmp_rd_rs1_nx0_b14_str
00000b70 l       .text.rvtest	00000000 I_lh_cg_cmp_rd_rs1_nx0_b15
00005179 l       .data	00000000 I_lh_cg_cmp_rd_rs1_nx0_b15_str
00000b94 l       .text.rvtest	00000000 I_lh_cg_cmp_rd_rs1_nx0_b16
000051af l       .data	00000000 I_lh_cg_cmp_rd_rs1_nx0_b16_str
00000bb8 l       .text.rvtest	00000000 I_lh_cg_cmp_rd_rs1_nx0_b17
000051e5 l       .data	00000000 I_lh_cg_cmp_rd_rs1_nx0_b17_str
00000bdc l       .text.rvtest	00000000 I_lh_cg_cmp_rd_rs1_nx0_b18
0000521b l       .data	00000000 I_lh_cg_cmp_rd_rs1_nx0_b18_str
00000c04 l       .text.rvtest	00000000 I_lh_cg_cmp_rd_rs1_nx0_b19
00005251 l       .data	00000000 I_lh_cg_cmp_rd_rs1_nx0_b19_str
00000c28 l       .text.rvtest	00000000 I_lh_cg_cmp_rd_rs1_nx0_b20
00005287 l       .data	00000000 I_lh_cg_cmp_rd_rs1_nx0_b20_str
00000c4c l       .text.rvtest	00000000 I_lh_cg_cmp_rd_rs1_nx0_b21
000052bd l       .data	00000000 I_lh_cg_cmp_rd_rs1_nx0_b21_str
00000c70 l       .text.rvtest	00000000 I_lh_cg_cmp_rd_rs1_nx0_b22
000052f3 l       .data	00000000 I_lh_cg_cmp_rd_rs1_nx0_b22_str
00000c94 l       .text.rvtest	00000000 I_lh_cg_cmp_rd_rs1_nx0_b23
00005329 l       .data	00000000 I_lh_cg_cmp_rd_rs1_nx0_b23_str
00000cb8 l       .text.rvtest	00000000 I_lh_cg_cmp_rd_rs1_nx0_b24
0000535f l       .data	00000000 I_lh_cg_cmp_rd_rs1_nx0_b24_str
00000cdc l       .text.rvtest	00000000 I_lh_cg_cmp_rd_rs1_nx0_b25
00005395 l       .data	00000000 I_lh_cg_cmp_rd_rs1_nx0_b25_str
00000d00 l       .text.rvtest	00000000 I_lh_cg_cmp_rd_rs1_nx0_b26
000053cb l       .data	00000000 I_lh_cg_cmp_rd_rs1_nx0_b26_str
00000d28 l       .text.rvtest	00000000 I_lh_cg_cmp_rd_rs1_nx0_b27
00005401 l       .data	00000000 I_lh_cg_cmp_rd_rs1_nx0_b27_str
00000d4c l       .text.rvtest	00000000 I_lh_cg_cmp_rd_rs1_nx0_b28
00005437 l       .data	00000000 I_lh_cg_cmp_rd_rs1_nx0_b28_str
00000d70 l       .text.rvtest	00000000 I_lh_cg_cmp_rd_rs1_nx0_b29
0000546d l       .data	00000000 I_lh_cg_cmp_rd_rs1_nx0_b29_str
00000d94 l       .text.rvtest	00000000 I_lh_cg_cmp_rd_rs1_nx0_b30
000054a3 l       .data	00000000 I_lh_cg_cmp_rd_rs1_nx0_b30_str
00000db8 l       .text.rvtest	00000000 I_lh_cg_cmp_rd_rs1_nx0_b31
000054d9 l       .data	00000000 I_lh_cg_cmp_rd_rs1_nx0_b31_str
00000ddc l       .text.rvtest	00000000 I_lh_cg_cp_imm_edges_0x0
0000550f l       .data	00000000 I_lh_cg_cp_imm_edges_0x0_str
00000e00 l       .text.rvtest	00000000 I_lh_cg_cp_imm_edges_0x1
00005543 l       .data	00000000 I_lh_cg_cp_imm_edges_0x1_str
00000e24 l       .text.rvtest	00000000 I_lh_cg_cp_imm_edges_0x2
00005577 l       .data	00000000 I_lh_cg_cp_imm_edges_0x2_str
00000e48 l       .text.rvtest	00000000 I_lh_cg_cp_imm_edges_0x3
000055ab l       .data	00000000 I_lh_cg_cp_imm_edges_0x3_str
00000e6c l       .text.rvtest	00000000 I_lh_cg_cp_imm_edges_0x4
000055df l       .data	00000000 I_lh_cg_cp_imm_edges_0x4_str
00000e90 l       .text.rvtest	00000000 I_lh_cg_cp_imm_edges_0x8
00005613 l       .data	00000000 I_lh_cg_cp_imm_edges_0x8_str
00000eb4 l       .text.rvtest	00000000 I_lh_cg_cp_imm_edges_0x10
00005648 l       .data	00000000 I_lh_cg_cp_imm_edges_0x10_str
00000ed8 l       .text.rvtest	00000000 I_lh_cg_cp_imm_edges_0x20
0000567e l       .data	00000000 I_lh_cg_cp_imm_edges_0x20_str
00000efc l       .text.rvtest	00000000 I_lh_cg_cp_imm_edges_0x40
000056b4 l       .data	00000000 I_lh_cg_cp_imm_edges_0x40_str
00000f20 l       .text.rvtest	00000000 I_lh_cg_cp_imm_edges_0x80
000056ea l       .data	00000000 I_lh_cg_cp_imm_edges_0x80_str
00000f44 l       .text.rvtest	00000000 I_lh_cg_cp_imm_edges_0x100
00005720 l       .data	00000000 I_lh_cg_cp_imm_edges_0x100_str
00000f68 l       .text.rvtest	00000000 I_lh_cg_cp_imm_edges_0x200
00005757 l       .data	00000000 I_lh_cg_cp_imm_edges_0x200_str
00000f8c l       .text.rvtest	00000000 I_lh_cg_cp_imm_edges_0x3ff
0000578e l       .data	00000000 I_lh_cg_cp_imm_edges_0x3ff_str
00000fb0 l       .text.rvtest	00000000 I_lh_cg_cp_imm_edges_0x400
000057c5 l       .data	00000000 I_lh_cg_cp_imm_edges_0x400_str
00000fd4 l       .text.rvtest	00000000 I_lh_cg_cp_imm_edges_0x703
000057fc l       .data	00000000 I_lh_cg_cp_imm_edges_0x703_str
00000ff8 l       .text.rvtest	00000000 I_lh_cg_cp_imm_edges_0x7ff
00005833 l       .data	00000000 I_lh_cg_cp_imm_edges_0x7ff_str
00001020 l       .text.rvtest	00000000 I_lh_cg_cp_imm_edges_m0x800
0000586a l       .data	00000000 I_lh_cg_cp_imm_edges_m0x800_str
00001044 l       .text.rvtest	00000000 I_lh_cg_cp_imm_edges_m0x7ff
000058a2 l       .data	00000000 I_lh_cg_cp_imm_edges_m0x7ff_str
00001068 l       .text.rvtest	00000000 I_lh_cg_cp_imm_edges_m0x2
000058da l       .data	00000000 I_lh_cg_cp_imm_edges_m0x2_str
0000108c l       .text.rvtest	00000000 I_lh_cg_cp_imm_edges_m0x1
00005910 l       .data	00000000 I_lh_cg_cp_imm_edges_m0x1_str
00004000 l       .data	00000000 scratch
000010f0 l       .text.rvtest	00000000 I_lh_cg_cp_align_hword_b0
00005946 l       .data	00000000 I_lh_cg_cp_align_hword_b0_str
00001150 l       .text.rvtest	00000000 I_lh_cg_cp_align_hword_b2
0000597c l       .data	00000000 I_lh_cg_cp_align_hword_b2_str
000011b0 l       .text.rvtest	00000000 I_lh_cg_cp_align_hword_b4
000059b2 l       .data	00000000 I_lh_cg_cp_align_hword_b4_str
00001210 l       .text.rvtest	00000000 I_lh_cg_cp_align_hword_b6
000059e8 l       .data	00000000 I_lh_cg_cp_align_hword_b6_str
00001230 l       .text.rvtest	00000000 I_lh_cg_cp_memval_hword_0x0
00005a1e l       .data	00000000 I_lh_cg_cp_memval_hword_0x0_str
00001254 l       .text.rvtest	00000000 I_lh_cg_cp_memval_hword_0x1
00005a56 l       .data	00000000 I_lh_cg_cp_memval_hword_0x1_str
00001278 l       .text.rvtest	00000000 I_lh_cg_cp_memval_hword_0x7fff
00005a8e l       .data	00000000 I_lh_cg_cp_memval_hword_0x7fff_str
0000129c l       .text.rvtest	00000000 I_lh_cg_cp_memval_hword_0x8000
00005ac9 l       .data	00000000 I_lh_cg_cp_memval_hword_0x8000_str
000012c0 l       .text.rvtest	00000000 I_lh_cg_cp_memval_hword_0xffff
00005b04 l       .data	00000000 I_lh_cg_cp_memval_hword_0xffff_str
000012e4 l       .text.rvtest	00000000 exit_cleanup
000061a4 l       .data	00000000 successstr
00017204 l       .text.rvmodel	00000000 rvmodel_io_write_str
00017208 l       .text.rvmodel	00000000 rvmodel_halt_pass
00001330 l       .text.rvtest	00000000 abort_test
6f5ca309 l       *ABS*	00000000 immx
6f5ca309 l       *ABS*	00000000 absimm
00000000 l       *ABS*	00000000 cry
00000309 l       *ABS*	00000000 imm12
00005b40 l       .data	00000000 begin_failure_scratch
00001400 l       .text.rvtest	00000000 failedtest_saveregs
000013a4 l       .text.rvtest	00000000 failedtest_trap_x7_x9
00005cb0 l       .data	00000000 saved_mcause
00005cb8 l       .data	00000000 saved_mtval
00005cc0 l       .data	00000000 saved_mstatus
00001470 l       .text.rvtest	00000000 failedtest_saveresults
00005b40 l       .data	00000000 failure_type
000014ec l       .text.rvtest	00000000 failedtest_saveresults_trap
00001480 l       .text.rvtest	00000000 failedtest_saveresults_int
000018c0 l       .text.rvtest	00000000 failedtest_saveresults_common
00005c98 l       .data	00000000 trap_diag_fail_str_ptr
00006368 l       .data	00000000 trap_sig_offset_mismatch
000017a0 l       .text.rvtest	00000000 trap_diag_offset_mismatch
00005c70 l       .data	00000000 trap_diag_subtype
000063cc l       .data	00000000 sv_Mvect_str
00001820 l       .text.rvtest	00000000 trap_diag_field_identified
000064ce l       .data	00000000 sv_Mcause_str
000065c9 l       .data	00000000 sv_Mepc_str
000066bc l       .data	00000000 sv_Mtval_str
0000682f l       .data	00000000 sv_Mip_str
000067b3 l       .data	00000000 sv_Mtval2_str
000067f1 l       .data	00000000 sv_Mtinst_str
0000640c l       .data	00000000 sv_Svect_str
0000650c l       .data	00000000 sv_Scause_str
00006605 l       .data	00000000 sv_Sepc_str
000066f9 l       .data	00000000 sv_Stval_str
0000686a l       .data	00000000 sv_Sip_str
0000644c l       .data	00000000 sv_Hvect_str
0000654a l       .data	00000000 sv_Hcause_str
00006641 l       .data	00000000 sv_Hepc_str
00006736 l       .data	00000000 sv_Htval_str
000068a5 l       .data	00000000 sv_Hip_str
0000648d l       .data	00000000 sv_Vvect_str
00006589 l       .data	00000000 sv_Vcause_str
0000667e l       .data	00000000 sv_Vepc_str
00006774 l       .data	00000000 sv_Vtval_str
000068e1 l       .data	00000000 sv_Vip_str
0000691e l       .data	00000000 Mclr_Mext_int_str
0000696d l       .data	00000000 Mclr_Sext_int_str
00006a68 l       .data	00000000 Sclr_Sext_int_str
00006b64 l       .data	00000000 Hclr_Sext_int_str
000018b0 l       .text.rvtest	00000000 trap_diag_generic_report
00005c88 l       .data	00000000 trap_diag_actual_offset
00005c90 l       .data	00000000 trap_diag_expected_offset
00005c74 l       .data	00000000 trap_diag_mode
00005c78 l       .data	00000000 trap_diag_actual_value
00005c80 l       .data	00000000 trap_diag_expected_value
000018f0 l       .text.rvtest	00000000 failedtest_report
000018f0 l       .text.rvtest	00000000 print_failstr
000061d9 l       .data	00000000 failstr
00001928 l       .text.rvtest	00000000 print_testnamestr
0000626b l       .data	00000000 testnamestr
00001968 l       .text.rvtest	00000000 print_failure_test_name_str
00005c60 l       .data	00000000 failure_string_ptr
00001978 l       .text.rvtest	00000000 print_newline_str
0000627d l       .data	00000000 newlinestr
00001dac l       .text.rvtest	00000000 failedtest_report_trap_detailed
0000627f l       .data	00000000 inststr
00005c40 l       .data	00000000 failing_instruction
00002cf8 l       .text.rvtest	00000000 failedtest_hex_to_str
00005cc8 l       .data	00000000 ascii_buffer
00006293 l       .data	00000000 addrstr
00005c48 l       .data	00000000 failing_addr
00006d10 l       .data	00000000 regstr
00001b58 l       .text.rvtest	00000000 failedtest_report_not_intreg
00005c44 l       .data	00000000 failing_reg
00002d74 l       .text.rvtest	00000000 failedtest_dec_to_str
00001c34 l       .text.rvtest	00000000 failedtest_report_print_regstr
00001bac l       .text.rvtest	00000000 failedtest_report_fpreg
00001bf8 l       .text.rvtest	00000000 failedtest_report_vecreg
00006d70 l       .data	00000000 fflagsstr
00001c68 l       .text.rvtest	00000000 failedtest_report_after_reg
00006d21 l       .data	00000000 badvalstr
00001ccc l       .text.rvtest	00000000 failedtest_report_badval_not_fp
00005c50 l       .data	00000000 failing_value
00001cdc l       .text.rvtest	00000000 failedtest_report_badval_done
00006d38 l       .data	00000000 expvalstr
00001d6c l       .text.rvtest	00000000 failedtest_report_expval_not_fp
00005c58 l       .data	00000000 expected_value
00001d7c l       .text.rvtest	00000000 failedtest_report_expval_done
00002aa4 l       .text.rvtest	00000000 failedtest_report_end
00006d9c l       .data	00000000 trap_diag_header_str
00006dc8 l       .data	00000000 trap_diag_origstr_label
00001e80 l       .text.rvtest	00000000 trap_report_offset_mismatch
00002930 l       .text.rvtest	00000000 trap_report_generic
000021f4 l       .text.rvtest	00000000 trap_report_field_mismatch
00006dd8 l       .data	00000000 trap_diag_count_mismatch_str
00006e39 l       .data	00000000 trap_diag_expected_offset_str
00006e60 l       .data	00000000 trap_diag_actual_offset_str
000020d4 l       .text.rvtest	00000000 trap_report_missing_traps
00001fbc l       .text.rvtest	00000000 trap_report_extra_traps
00006e87 l       .data	00000000 trap_diag_extra_traps_str
00006f0c l       .data	00000000 trap_diag_extra_bytes_str
00006f37 l       .data	00000000 trap_diag_extra_hint_str
00002af0 l       .text.rvtest	00000000 failedtest_print_csr_context
00006ec1 l       .data	00000000 trap_diag_missing_traps_str
0000701f l       .data	00000000 trap_diag_missing_hint_str
00007106 l       .data	00000000 trap_diag_handler_mode_str
00002284 l       .text.rvtest	00000000 trap_mode_m
000022c4 l       .text.rvtest	00000000 trap_mode_s
00002304 l       .text.rvtest	00000000 trap_mode_h
00002344 l       .text.rvtest	00000000 trap_mode_v
00007142 l       .data	00000000 trap_diag_mode_unknown_str
00002380 l       .text.rvtest	00000000 trap_mode_print
00007120 l       .data	00000000 trap_diag_mode_m_str
00007128 l       .data	00000000 trap_diag_mode_s_str
00007130 l       .data	00000000 trap_diag_mode_hs_str
00007139 l       .data	00000000 trap_diag_mode_vs_str
0000714b l       .data	00000000 trap_diag_field_str
00002444 l       .text.rvtest	00000000 trap_field_vect
00002484 l       .text.rvtest	00000000 trap_field_cause
000024c4 l       .text.rvtest	00000000 trap_field_epc
00002504 l       .text.rvtest	00000000 trap_field_tval
00002544 l       .text.rvtest	00000000 trap_field_ip
00002584 l       .text.rvtest	00000000 trap_field_tval2
000025c4 l       .text.rvtest	00000000 trap_field_tinst
00002604 l       .text.rvtest	00000000 trap_field_intid
000072a2 l       .data	00000000 trap_diag_field_unknown_str
00002640 l       .text.rvtest	00000000 trap_field_print
00007165 l       .data	00000000 trap_diag_field_vect_str
00007196 l       .data	00000000 trap_diag_field_cause_str
000071b6 l       .data	00000000 trap_diag_field_epc_str
000071d4 l       .data	00000000 trap_diag_field_tval_str
000071f3 l       .data	00000000 trap_diag_field_ip_str
0000721b l       .data	00000000 trap_diag_field_tval2_str
00007247 l       .data	00000000 trap_diag_field_tinst_str
00007273 l       .data	00000000 trap_diag_field_intid_str
000072b1 l       .data	00000000 trap_diag_expected_str
000072c8 l       .data	00000000 trap_diag_actual_str
000027dc l       .text.rvtest	00000000 trap_field_not_cause
000072df l       .data	00000000 trap_diag_expected_cause_name_str
00002a14 l       .text.rvtest	00000000 trap_cause_to_str
000072f6 l       .data	00000000 trap_diag_actual_cause_name_str
000027dc l       .text.rvtest	00000000 trap_field_not_epc
0000736c l       .data	00000000 trap_diag_hint_vect_str
00007442 l       .data	00000000 trap_diag_hint_cause_str
00007535 l       .data	00000000 trap_diag_hint_epc_str
00007630 l       .data	00000000 trap_diag_hint_tval_str
00007717 l       .data	00000000 trap_diag_hint_ip_str
00007324 l       .data	00000000 trap_diag_generic_str
00005ca8 l       .data	00000000 saved_mepc
00006307 l       .data	00000000 xepcinstrstr
00002a38 l       .text.rvtest	00000000 trap_cause_interrupt
00002a18 l       .text.rvtest	00000000 trap_cause_exception
00002a64 l       .text.rvtest	00000000 trap_cause_unknown
00005cf0 l       .data	00000000 trap_excpt_name_tbl
00005d50 l       .data	00000000 trap_int_name_tbl
0000618e l       .data	00000000 trap_cause_unknown_str
00006d4f l       .data	00000000 endstr
00002ae8 l       .text.rvtest	00000000 failedtest_terminate
00017214 l       .text.rvmodel	00000000 rvmodel_halt_fail
00005ca0 l       .data	00000000 csr_context_ret_addr
00006328 l       .data	00000000 mepcstr
00006338 l       .data	00000000 mcausestr
00006348 l       .data	00000000 mtvalstr
00006358 l       .data	00000000 mstatusstr
00002d38 l       .text.rvtest	00000000 failedtest_hex_to_str_loop
00002d54 l       .text.rvtest	00000000 failedtest_hex_to_str_digit
00002d58 l       .text.rvtest	00000000 failedtest_hex_to_str_write
00017000 l       .text.rvmodel	00000000 rvtest_boot_to_mmode
00017000 l       .text.rvmodel	00000000 rvtest_init_regs
00007800 l       .data	00000000 signature_base
000171a0 l       .text.rvmodel	00000000 canary_check
00006d78 l       .data	00000000 canary_mismatch
00005cf0 l       .data	00000000 end_failure_scratch
00005d90 l       .data	00000000 trap_excpt_name_0
00005db0 l       .data	00000000 trap_excpt_name_1
00005dca l       .data	00000000 trap_excpt_name_2
00005ddf l       .data	00000000 trap_excpt_name_3
00005deb l       .data	00000000 trap_excpt_name_4
00005e04 l       .data	00000000 trap_excpt_name_5
00005e17 l       .data	00000000 trap_excpt_name_6
00005e35 l       .data	00000000 trap_excpt_name_7
00005e4d l       .data	00000000 trap_excpt_name_8
00005e6b l       .data	00000000 trap_excpt_name_9
00005e89 l       .data	00000000 trap_excpt_name_10
00005ea8 l       .data	00000000 trap_excpt_name_11
00005ec6 l       .data	00000000 trap_excpt_name_12
00005ede l       .data	00000000 trap_excpt_name_13
00005eef l       .data	00000000 trap_excpt_name_14
00005efe l       .data	00000000 trap_excpt_name_15
00005f14 l       .data	00000000 trap_excpt_name_16
00005f21 l       .data	00000000 trap_excpt_name_17
00005f30 l       .data	00000000 trap_excpt_name_18
00005f40 l       .data	00000000 trap_excpt_name_19
00005f50 l       .data	00000000 trap_excpt_name_20
00005f6e l       .data	00000000 trap_excpt_name_21
00005f85 l       .data	00000000 trap_excpt_name_22
00005f9a l       .data	00000000 trap_excpt_name_23
00005fb6 l       .data	00000000 trap_int_name_0
00005fce l       .data	00000000 trap_int_name_1
00005fed l       .data	00000000 trap_int_name_2
00006014 l       .data	00000000 trap_int_name_3
00006030 l       .data	00000000 trap_int_name_4
00006048 l       .data	00000000 trap_int_name_5
00006064 l       .data	00000000 trap_int_name_6
00006088 l       .data	00000000 trap_int_name_7
000060a1 l       .data	00000000 trap_int_name_8
000060b9 l       .data	00000000 trap_int_name_9
000060d8 l       .data	00000000 trap_int_name_10
000060ff l       .data	00000000 trap_int_name_11
0000611b l       .data	00000000 trap_int_name_12
00006140 l       .data	00000000 trap_int_name_13
0000615c l       .data	00000000 trap_int_name_14
00006175 l       .data	00000000 trap_int_name_15
0000622d l       .data	00000000 abortstr
000062d4 l       .data	00000000 xepcstr
000069bf l       .data	00000000 Mclr_Vext_int_str
00006a19 l       .data	00000000 Sclr_Mext_int_str
00006aba l       .data	00000000 Sclr_Vext_int_str
00006b14 l       .data	00000000 Hclr_Mext_int_str
00006bb7 l       .data	00000000 Hclr_Vext_int_str
00006c12 l       .data	00000000 Vclr_Mext_int_str
00006c62 l       .data	00000000 Vclr_Sext_int_str
00006cb5 l       .data	00000000 Vclr_Vext_int_str
0000730d l       .data	00000000 trap_diag_curr_xepc_str
00007a1c l       .data	00000000 trap_sigptr
00016480 g       .data	00000000 end_signature
00016480 g       .data	00000000 rvtest_sig_end
00000000 g       .text.init	00000000 rvtest_entry_point
00007800 g       .data	00000000 begin_signature
000012e4 g       .text.rvtest	00000000 rvtest_code_end
00000040 g       .text.rvtest	00000000 rvtest_code_begin
00007800 g       .data	00000000 rvtest_sig_begin
00004110 g       .data	00000000 rvtest_data_begin
000077fc g       .data	00000000 rvtest_data_end
000012e4 g       .text.rvtest	00000000 cleanup_epilogs
00018000 g       .text.rvmodel	00000000 _end



Disassembly of section .text.init:

00000000 <rvtest_entry_point>:

// Include framework macros
#include "riscv_arch_test.h"

// Set up test environment and declare main entry point
RVTEST_BEGIN
   0:	00017097          	auipc	x1,0x17
   4:	00008093          	addi	x1,x1,0 # 17000 <rvmodel_boot>
   8:	00000013          	addi	x0,x0,0
   c:	00000013          	addi	x0,x0,0
  10:	00000013          	addi	x0,x0,0
  14:	00000013          	addi	x0,x0,0
  18:	00000013          	addi	x0,x0,0
  1c:	00000013          	addi	x0,x0,0
  20:	000080e7          	jalr	x1,0(x1)
  24:	00000013          	addi	x0,x0,0
  28:	00000013          	addi	x0,x0,0
  2c:	00000013          	addi	x0,x0,0
  30:	00000013          	addi	x0,x0,0
  34:	00000013          	addi	x0,x0,0
  38:	00000013          	addi	x0,x0,0
  3c:	00000013          	addi	x0,x0,0

Disassembly of section .text.rvtest:

00000040 <rvtest_code_begin>:
/////////////////////////////////
// cp_rs1_nx0
/////////////////////////////////

# Testcase cp_rs1_nx0 (Test source rs1 = x1)
  addi x1, x3, 1507 # copy data_ptr to rs1 and adjust for offset
      40:	5e318093          	addi	x1,x3,1507

00000044 <I_lh_cg_cp_rs1_nx0_b1>:
I_lh_cg_cp_rs1_nx0_b1:
  lh x31, -1507(x1) # perform load (0x38581295)
      44:	a1d09f83          	lh	x31,-1507(x1)
  # Check if x31 contains the expected result. x2 is the signature ptr, x5 is the link ptr, x4 is a temp reg.
  RVTEST_SIGUPD(x2, x5, x4, x31, I_lh_cg_cp_rs1_nx0_b1, I_lh_cg_cp_rs1_nx0_b1_str)
      48:	00012203          	lw	x4,0(x2)
      4c:	01f20863          	beq	x4,x31,5c <I_lh_cg_cp_rs1_nx0_b1+0x18>
      50:	2ec012ef          	jal	x5,133c <failedtest_x5_x4>
      54:	00000044          	.word	0x00000044
      58:	000042fc          	.word	0x000042fc
      5c:	00410113          	addi	x2,x2,4
  addi x3, x3, SIG_STRIDE # increment data_ptr
      60:	00418193          	addi	x3,x3,4

  mv x10, x2 # switch signature pointer register to avoid conflict with test
      64:	00010513          	addi	x10,x2,0
# Testcase cp_rs1_nx0 (Test source rs1 = x2)
  addi x2, x3, 1625 # copy data_ptr to rs1 and adjust for offset
      68:	65918113          	addi	x2,x3,1625

0000006c <I_lh_cg_cp_rs1_nx0_b2>:
I_lh_cg_cp_rs1_nx0_b2:
  lh x27, -1625(x2) # perform load (0x5129feaf)
      6c:	9a711d83          	lh	x27,-1625(x2)
  # Check if x27 contains the expected result. x10 is the signature ptr, x5 is the link ptr, x4 is a temp reg.
  RVTEST_SIGUPD(x10, x5, x4, x27, I_lh_cg_cp_rs1_nx0_b2, I_lh_cg_cp_rs1_nx0_b2_str)
      70:	00052203          	lw	x4,0(x10)
      74:	01b20863          	beq	x4,x27,84 <I_lh_cg_cp_rs1_nx0_b2+0x18>
      78:	2c4012ef          	jal	x5,133c <failedtest_x5_x4>
      7c:	0000006c          	.word	0x0000006c
      80:	0000432c          	.word	0x0000432c
      84:	00450513          	addi	x10,x10,4
  addi x3, x3, SIG_STRIDE # increment data_ptr
      88:	00418193          	addi	x3,x3,4

  mv x11, x3 # switch data pointer register to avoid conflict with test
      8c:	00018593          	addi	x11,x3,0
# Testcase cp_rs1_nx0 (Test source rs1 = x3)
  addi x3, x11, -1984 # copy data_ptr to rs1 and adjust for offset
      90:	84058193          	addi	x3,x11,-1984

00000094 <I_lh_cg_cp_rs1_nx0_b3>:
I_lh_cg_cp_rs1_nx0_b3:
  lh x1, 1984(x3) # perform load (0x3dc1abbc)
      94:	7c019083          	lh	x1,1984(x3)
  # Check if x1 contains the expected result. x10 is the signature ptr, x5 is the link ptr, x4 is a temp reg.
  RVTEST_SIGUPD(x10, x5, x4, x1, I_lh_cg_cp_rs1_nx0_b3, I_lh_cg_cp_rs1_nx0_b3_str)
      98:	00052203          	lw	x4,0(x10)
      9c:	00120863          	beq	x4,x1,ac <I_lh_cg_cp_rs1_nx0_b3+0x18>
      a0:	29c012ef          	jal	x5,133c <failedtest_x5_x4>
      a4:	00000094          	.word	0x00000094
      a8:	0000435c          	.word	0x0000435c
      ac:	00450513          	addi	x10,x10,4
  addi x11, x11, SIG_STRIDE # increment data_ptr
      b0:	00458593          	addi	x11,x11,4

  mv x7, x4 # switch temp register to avoid conflict with test
      b4:	00020393          	addi	x7,x4,0 # 0 <rvtest_entry_point>
  mv x8, x5 # switch link pointer register to avoid conflict with test
      b8:	00028413          	addi	x8,x5,0
# Testcase cp_rs1_nx0 (Test source rs1 = x4)
  addi x4, x11, -191 # copy data_ptr to rs1 and adjust for offset
      bc:	f4158213          	addi	x4,x11,-191

000000c0 <I_lh_cg_cp_rs1_nx0_b4>:
I_lh_cg_cp_rs1_nx0_b4:
  lh x21, 191(x4) # perform load (0x46c27e76)
      c0:	0bf21a83          	lh	x21,191(x4) # bf <I_lh_cg_cp_rs1_nx0_b3+0x2b>
  # Check if x21 contains the expected result. x10 is the signature ptr, x8 is the link ptr, x7 is a temp reg.
  RVTEST_SIGUPD(x10, x8, x7, x21, I_lh_cg_cp_rs1_nx0_b4, I_lh_cg_cp_rs1_nx0_b4_str)
      c4:	00052383          	lw	x7,0(x10)
      c8:	01538863          	beq	x7,x21,d8 <I_lh_cg_cp_rs1_nx0_b4+0x18>
      cc:	2880146f          	jal	x8,1354 <failedtest_x8_x7>
      d0:	000000c0          	.word	0x000000c0
      d4:	0000438c          	.word	0x0000438c
      d8:	00450513          	addi	x10,x10,4
  addi x11, x11, SIG_STRIDE # increment data_ptr
      dc:	00458593          	addi	x11,x11,4

# Testcase cp_rs1_nx0 (Test source rs1 = x5)
  addi x5, x11, 107 # copy data_ptr to rs1 and adjust for offset
      e0:	06b58293          	addi	x5,x11,107

000000e4 <I_lh_cg_cp_rs1_nx0_b5>:
I_lh_cg_cp_rs1_nx0_b5:
  lh x16, -107(x5) # perform load (0xf007acf0)
      e4:	f9529803          	lh	x16,-107(x5)
  # Check if x16 contains the expected result. x10 is the signature ptr, x8 is the link ptr, x7 is a temp reg.
  RVTEST_SIGUPD(x10, x8, x7, x16, I_lh_cg_cp_rs1_nx0_b5, I_lh_cg_cp_rs1_nx0_b5_str)
      e8:	00052383          	lw	x7,0(x10)
      ec:	01038863          	beq	x7,x16,fc <I_lh_cg_cp_rs1_nx0_b5+0x18>
      f0:	2640146f          	jal	x8,1354 <failedtest_x8_x7>
      f4:	000000e4          	.word	0x000000e4
      f8:	000043bc          	.word	0x000043bc
      fc:	00450513          	addi	x10,x10,4
  addi x11, x11, SIG_STRIDE # increment data_ptr
     100:	00458593          	addi	x11,x11,4

# Testcase cp_rs1_nx0 (Test source rs1 = x6)
  addi x6, x11, 1200 # copy data_ptr to rs1 and adjust for offset
     104:	4b058313          	addi	x6,x11,1200

00000108 <I_lh_cg_cp_rs1_nx0_b6>:
I_lh_cg_cp_rs1_nx0_b6:
  lh x24, -1200(x6) # perform load (0x0dd6c0c5)
     108:	b5031c03          	lh	x24,-1200(x6)
  # Check if x24 contains the expected result. x10 is the signature ptr, x8 is the link ptr, x7 is a temp reg.
  RVTEST_SIGUPD(x10, x8, x7, x24, I_lh_cg_cp_rs1_nx0_b6, I_lh_cg_cp_rs1_nx0_b6_str)
     10c:	00052383          	lw	x7,0(x10)
     110:	01838863          	beq	x7,x24,120 <I_lh_cg_cp_rs1_nx0_b6+0x18>
     114:	2400146f          	jal	x8,1354 <failedtest_x8_x7>
     118:	00000108          	.word	0x00000108
     11c:	000043ec          	.word	0x000043ec
     120:	00450513          	addi	x10,x10,4
  addi x11, x11, SIG_STRIDE # increment data_ptr
     124:	00458593          	addi	x11,x11,4

  mv x13, x7 # switch temp register to avoid conflict with test
     128:	00038693          	addi	x13,x7,0
  mv x14, x8 # switch link pointer register to avoid conflict with test
     12c:	00040713          	addi	x14,x8,0
# Testcase cp_rs1_nx0 (Test source rs1 = x7)
  addi x7, x11, 1521 # copy data_ptr to rs1 and adjust for offset
     130:	5f158393          	addi	x7,x11,1521

00000134 <I_lh_cg_cp_rs1_nx0_b7>:
I_lh_cg_cp_rs1_nx0_b7:
  lh x4, -1521(x7) # perform load (0x86d6c358)
     134:	a0f39203          	lh	x4,-1521(x7)
  # Check if x4 contains the expected result. x10 is the signature ptr, x14 is the link ptr, x13 is a temp reg.
  RVTEST_SIGUPD(x10, x14, x13, x4, I_lh_cg_cp_rs1_nx0_b7, I_lh_cg_cp_rs1_nx0_b7_str)
     138:	00052683          	lw	x13,0(x10)
     13c:	00468863          	beq	x13,x4,14c <I_lh_cg_cp_rs1_nx0_b7+0x18>
     140:	23c0176f          	jal	x14,137c <failedtest_x14_x13>
     144:	00000134          	.word	0x00000134
     148:	0000441c          	.word	0x0000441c
     14c:	00450513          	addi	x10,x10,4
  addi x11, x11, SIG_STRIDE # increment data_ptr
     150:	00458593          	addi	x11,x11,4

# Testcase cp_rs1_nx0 (Test source rs1 = x8)
  addi x8, x11, -832 # copy data_ptr to rs1 and adjust for offset
     154:	cc058413          	addi	x8,x11,-832

00000158 <I_lh_cg_cp_rs1_nx0_b8>:
I_lh_cg_cp_rs1_nx0_b8:
  lh x9, 832(x8) # perform load (0xf96aa9c8)
     158:	34041483          	lh	x9,832(x8)
  # Check if x9 contains the expected result. x10 is the signature ptr, x14 is the link ptr, x13 is a temp reg.
  RVTEST_SIGUPD(x10, x14, x13, x9, I_lh_cg_cp_rs1_nx0_b8, I_lh_cg_cp_rs1_nx0_b8_str)
     15c:	00052683          	lw	x13,0(x10)
     160:	00968863          	beq	x13,x9,170 <I_lh_cg_cp_rs1_nx0_b8+0x18>
     164:	2180176f          	jal	x14,137c <failedtest_x14_x13>
     168:	00000158          	.word	0x00000158
     16c:	0000444c          	.word	0x0000444c
     170:	00450513          	addi	x10,x10,4
  addi x11, x11, SIG_STRIDE # increment data_ptr
     174:	00458593          	addi	x11,x11,4

# Testcase cp_rs1_nx0 (Test source rs1 = x9)
  addi x9, x11, 864 # copy data_ptr to rs1 and adjust for offset
     178:	36058493          	addi	x9,x11,864

0000017c <I_lh_cg_cp_rs1_nx0_b9>:
I_lh_cg_cp_rs1_nx0_b9:
  lh x22, -864(x9) # perform load (0xe55b9fe2)
     17c:	ca049b03          	lh	x22,-864(x9)
  # Check if x22 contains the expected result. x10 is the signature ptr, x14 is the link ptr, x13 is a temp reg.
  RVTEST_SIGUPD(x10, x14, x13, x22, I_lh_cg_cp_rs1_nx0_b9, I_lh_cg_cp_rs1_nx0_b9_str)
     180:	00052683          	lw	x13,0(x10)
     184:	01668863          	beq	x13,x22,194 <I_lh_cg_cp_rs1_nx0_b9+0x18>
     188:	1f40176f          	jal	x14,137c <failedtest_x14_x13>
     18c:	0000017c          	.word	0x0000017c
     190:	0000447c          	.word	0x0000447c
     194:	00450513          	addi	x10,x10,4
  addi x11, x11, SIG_STRIDE # increment data_ptr
     198:	00458593          	addi	x11,x11,4

  mv x21, x10 # switch signature pointer register to avoid conflict with test
     19c:	00050a93          	addi	x21,x10,0
# Testcase cp_rs1_nx0 (Test source rs1 = x10)
  addi x10, x11, 1795 # copy data_ptr to rs1 and adjust for offset
     1a0:	70358513          	addi	x10,x11,1795

000001a4 <I_lh_cg_cp_rs1_nx0_b10>:
I_lh_cg_cp_rs1_nx0_b10:
  lh x12, -1795(x10) # perform load (0x03ed34f6)
     1a4:	8fd51603          	lh	x12,-1795(x10)
  # Check if x12 contains the expected result. x21 is the signature ptr, x14 is the link ptr, x13 is a temp reg.
  RVTEST_SIGUPD(x21, x14, x13, x12, I_lh_cg_cp_rs1_nx0_b10, I_lh_cg_cp_rs1_nx0_b10_str)
     1a8:	000aa683          	lw	x13,0(x21)
     1ac:	00c68863          	beq	x13,x12,1bc <I_lh_cg_cp_rs1_nx0_b10+0x18>
     1b0:	1cc0176f          	jal	x14,137c <failedtest_x14_x13>
     1b4:	000001a4          	.word	0x000001a4
     1b8:	000044ac          	.word	0x000044ac
     1bc:	004a8a93          	addi	x21,x21,4
  addi x11, x11, SIG_STRIDE # increment data_ptr
     1c0:	00458593          	addi	x11,x11,4

  mv x2, x11 # switch data pointer register to avoid conflict with test
     1c4:	00058113          	addi	x2,x11,0
# Testcase cp_rs1_nx0 (Test source rs1 = x11)
  addi x11, x2, -1816 # copy data_ptr to rs1 and adjust for offset
     1c8:	8e810593          	addi	x11,x2,-1816

000001cc <I_lh_cg_cp_rs1_nx0_b11>:
I_lh_cg_cp_rs1_nx0_b11:
  lh x3, 1816(x11) # perform load (0x5efae72b)
     1cc:	71859183          	lh	x3,1816(x11)
  # Check if x3 contains the expected result. x21 is the signature ptr, x14 is the link ptr, x13 is a temp reg.
  RVTEST_SIGUPD(x21, x14, x13, x3, I_lh_cg_cp_rs1_nx0_b11, I_lh_cg_cp_rs1_nx0_b11_str)
     1d0:	000aa683          	lw	x13,0(x21)
     1d4:	00368863          	beq	x13,x3,1e4 <I_lh_cg_cp_rs1_nx0_b11+0x18>
     1d8:	1a40176f          	jal	x14,137c <failedtest_x14_x13>
     1dc:	000001cc          	.word	0x000001cc
     1e0:	000044de          	.word	0x000044de
     1e4:	004a8a93          	addi	x21,x21,4
  addi x2, x2, SIG_STRIDE # increment data_ptr
     1e8:	00410113          	addi	x2,x2,4

# Testcase cp_rs1_nx0 (Test source rs1 = x12)
  addi x12, x2, -533 # copy data_ptr to rs1 and adjust for offset
     1ec:	deb10613          	addi	x12,x2,-533

000001f0 <I_lh_cg_cp_rs1_nx0_b12>:
I_lh_cg_cp_rs1_nx0_b12:
  lh x18, 533(x12) # perform load (0x5810d97d)
     1f0:	21561903          	lh	x18,533(x12)
  # Check if x18 contains the expected result. x21 is the signature ptr, x14 is the link ptr, x13 is a temp reg.
  RVTEST_SIGUPD(x21, x14, x13, x18, I_lh_cg_cp_rs1_nx0_b12, I_lh_cg_cp_rs1_nx0_b12_str)
     1f4:	000aa683          	lw	x13,0(x21)
     1f8:	01268863          	beq	x13,x18,208 <I_lh_cg_cp_rs1_nx0_b12+0x18>
     1fc:	1800176f          	jal	x14,137c <failedtest_x14_x13>
     200:	000001f0          	.word	0x000001f0
     204:	00004510          	.word	0x00004510
     208:	004a8a93          	addi	x21,x21,4
  addi x2, x2, SIG_STRIDE # increment data_ptr
     20c:	00410113          	addi	x2,x2,4

  mv x7, x13 # switch temp register to avoid conflict with test
     210:	00068393          	addi	x7,x13,0
  mv x8, x14 # switch link pointer register to avoid conflict with test
     214:	00070413          	addi	x8,x14,0
# Testcase cp_rs1_nx0 (Test source rs1 = x13)
  addi x13, x2, -691 # copy data_ptr to rs1 and adjust for offset
     218:	d4d10693          	addi	x13,x2,-691

0000021c <I_lh_cg_cp_rs1_nx0_b13>:
I_lh_cg_cp_rs1_nx0_b13:
  lh x14, 691(x13) # perform load (0x18a4355f)
     21c:	2b369703          	lh	x14,691(x13)
  # Check if x14 contains the expected result. x21 is the signature ptr, x8 is the link ptr, x7 is a temp reg.
  RVTEST_SIGUPD(x21, x8, x7, x14, I_lh_cg_cp_rs1_nx0_b13, I_lh_cg_cp_rs1_nx0_b13_str)
     220:	000aa383          	lw	x7,0(x21)
     224:	00e38863          	beq	x7,x14,234 <I_lh_cg_cp_rs1_nx0_b13+0x18>
     228:	12c0146f          	jal	x8,1354 <failedtest_x8_x7>
     22c:	0000021c          	.word	0x0000021c
     230:	00004542          	.word	0x00004542
     234:	004a8a93          	addi	x21,x21,4
  addi x2, x2, SIG_STRIDE # increment data_ptr
     238:	00410113          	addi	x2,x2,4

# Testcase cp_rs1_nx0 (Test source rs1 = x14)
  addi x14, x2, -1629 # copy data_ptr to rs1 and adjust for offset
     23c:	9a310713          	addi	x14,x2,-1629

00000240 <I_lh_cg_cp_rs1_nx0_b14>:
I_lh_cg_cp_rs1_nx0_b14:
  lh x10, 1629(x14) # perform load (0x3b8a638a)
     240:	65d71503          	lh	x10,1629(x14)
  # Check if x10 contains the expected result. x21 is the signature ptr, x8 is the link ptr, x7 is a temp reg.
  RVTEST_SIGUPD(x21, x8, x7, x10, I_lh_cg_cp_rs1_nx0_b14, I_lh_cg_cp_rs1_nx0_b14_str)
     244:	000aa383          	lw	x7,0(x21)
     248:	00a38863          	beq	x7,x10,258 <I_lh_cg_cp_rs1_nx0_b14+0x18>
     24c:	1080146f          	jal	x8,1354 <failedtest_x8_x7>
     250:	00000240          	.word	0x00000240
     254:	00004574          	.word	0x00004574
     258:	004a8a93          	addi	x21,x21,4
  addi x2, x2, SIG_STRIDE # increment data_ptr
     25c:	00410113          	addi	x2,x2,4

# Testcase cp_rs1_nx0 (Test source rs1 = x15)
  addi x15, x2, -1582 # copy data_ptr to rs1 and adjust for offset
     260:	9d210793          	addi	x15,x2,-1582

00000264 <I_lh_cg_cp_rs1_nx0_b15>:
I_lh_cg_cp_rs1_nx0_b15:
  lh x17, 1582(x15) # perform load (0xc6403a9d)
     264:	62e79883          	lh	x17,1582(x15)
  # Check if x17 contains the expected result. x21 is the signature ptr, x8 is the link ptr, x7 is a temp reg.
  RVTEST_SIGUPD(x21, x8, x7, x17, I_lh_cg_cp_rs1_nx0_b15, I_lh_cg_cp_rs1_nx0_b15_str)
     268:	000aa383          	lw	x7,0(x21)
     26c:	01138863          	beq	x7,x17,27c <I_lh_cg_cp_rs1_nx0_b15+0x18>
     270:	0e40146f          	jal	x8,1354 <failedtest_x8_x7>
     274:	00000264          	.word	0x00000264
     278:	000045a6          	.word	0x000045a6
     27c:	004a8a93          	addi	x21,x21,4
  addi x2, x2, SIG_STRIDE # increment data_ptr
     280:	00410113          	addi	x2,x2,4

# Testcase cp_rs1_nx0 (Test source rs1 = x16)
  addi x16, x2, -704 # copy data_ptr to rs1 and adjust for offset
     284:	d4010813          	addi	x16,x2,-704

00000288 <I_lh_cg_cp_rs1_nx0_b16>:
I_lh_cg_cp_rs1_nx0_b16:
  lh x22, 704(x16) # perform load (0xb8f97da9)
     288:	2c081b03          	lh	x22,704(x16)
  # Check if x22 contains the expected result. x21 is the signature ptr, x8 is the link ptr, x7 is a temp reg.
  RVTEST_SIGUPD(x21, x8, x7, x22, I_lh_cg_cp_rs1_nx0_b16, I_lh_cg_cp_rs1_nx0_b16_str)
     28c:	000aa383          	lw	x7,0(x21)
     290:	01638863          	beq	x7,x22,2a0 <I_lh_cg_cp_rs1_nx0_b16+0x18>
     294:	0c00146f          	jal	x8,1354 <failedtest_x8_x7>
     298:	00000288          	.word	0x00000288
     29c:	000045d8          	.word	0x000045d8
     2a0:	004a8a93          	addi	x21,x21,4
  addi x2, x2, SIG_STRIDE # increment data_ptr
     2a4:	00410113          	addi	x2,x2,4

# Testcase cp_rs1_nx0 (Test source rs1 = x17)
  addi x17, x2, -1342 # copy data_ptr to rs1 and adjust for offset
     2a8:	ac210893          	addi	x17,x2,-1342

000002ac <I_lh_cg_cp_rs1_nx0_b17>:
I_lh_cg_cp_rs1_nx0_b17:
  lh x18, 1342(x17) # perform load (0x9ea10261)
     2ac:	53e89903          	lh	x18,1342(x17)
  # Check if x18 contains the expected result. x21 is the signature ptr, x8 is the link ptr, x7 is a temp reg.
  RVTEST_SIGUPD(x21, x8, x7, x18, I_lh_cg_cp_rs1_nx0_b17, I_lh_cg_cp_rs1_nx0_b17_str)
     2b0:	000aa383          	lw	x7,0(x21)
     2b4:	01238863          	beq	x7,x18,2c4 <I_lh_cg_cp_rs1_nx0_b17+0x18>
     2b8:	09c0146f          	jal	x8,1354 <failedtest_x8_x7>
     2bc:	000002ac          	.word	0x000002ac
     2c0:	0000460a          	.word	0x0000460a
     2c4:	004a8a93          	addi	x21,x21,4
  addi x2, x2, SIG_STRIDE # increment data_ptr
     2c8:	00410113          	addi	x2,x2,4

# Testcase cp_rs1_nx0 (Test source rs1 = x18)
  addi x18, x2, -227 # copy data_ptr to rs1 and adjust for offset
     2cc:	f1d10913          	addi	x18,x2,-227

000002d0 <I_lh_cg_cp_rs1_nx0_b18>:
I_lh_cg_cp_rs1_nx0_b18:
  lh x31, 227(x18) # perform load (0x5afc2218)
     2d0:	0e391f83          	lh	x31,227(x18)
  # Check if x31 contains the expected result. x21 is the signature ptr, x8 is the link ptr, x7 is a temp reg.
  RVTEST_SIGUPD(x21, x8, x7, x31, I_lh_cg_cp_rs1_nx0_b18, I_lh_cg_cp_rs1_nx0_b18_str)
     2d4:	000aa383          	lw	x7,0(x21)
     2d8:	01f38863          	beq	x7,x31,2e8 <I_lh_cg_cp_rs1_nx0_b18+0x18>
     2dc:	0780146f          	jal	x8,1354 <failedtest_x8_x7>
     2e0:	000002d0          	.word	0x000002d0
     2e4:	0000463c          	.word	0x0000463c
     2e8:	004a8a93          	addi	x21,x21,4
  addi x2, x2, SIG_STRIDE # increment data_ptr
     2ec:	00410113          	addi	x2,x2,4

# Testcase cp_rs1_nx0 (Test source rs1 = x19)
  addi x19, x2, -1135 # copy data_ptr to rs1 and adjust for offset
     2f0:	b9110993          	addi	x19,x2,-1135

000002f4 <I_lh_cg_cp_rs1_nx0_b19>:
I_lh_cg_cp_rs1_nx0_b19:
  lh x23, 1135(x19) # perform load (0x9fe9e98d)
     2f4:	46f99b83          	lh	x23,1135(x19)
  # Check if x23 contains the expected result. x21 is the signature ptr, x8 is the link ptr, x7 is a temp reg.
  RVTEST_SIGUPD(x21, x8, x7, x23, I_lh_cg_cp_rs1_nx0_b19, I_lh_cg_cp_rs1_nx0_b19_str)
     2f8:	000aa383          	lw	x7,0(x21)
     2fc:	01738863          	beq	x7,x23,30c <imm12+0x3>
     300:	0540146f          	jal	x8,1354 <failedtest_x8_x7>
     304:	000002f4          	.word	0x000002f4
     308:	0000466e          	.word	0x0000466e
     30c:	004a8a93          	addi	x21,x21,4
  addi x2, x2, SIG_STRIDE # increment data_ptr
     310:	00410113          	addi	x2,x2,4

# Testcase cp_rs1_nx0 (Test source rs1 = x20)
  addi x20, x2, 1254 # copy data_ptr to rs1 and adjust for offset
     314:	4e610a13          	addi	x20,x2,1254

00000318 <I_lh_cg_cp_rs1_nx0_b20>:
I_lh_cg_cp_rs1_nx0_b20:
  lh x24, -1254(x20) # perform load (0x72dec9e6)
     318:	b1aa1c03          	lh	x24,-1254(x20)
  # Check if x24 contains the expected result. x21 is the signature ptr, x8 is the link ptr, x7 is a temp reg.
  RVTEST_SIGUPD(x21, x8, x7, x24, I_lh_cg_cp_rs1_nx0_b20, I_lh_cg_cp_rs1_nx0_b20_str)
     31c:	000aa383          	lw	x7,0(x21)
     320:	01838863          	beq	x7,x24,330 <I_lh_cg_cp_rs1_nx0_b20+0x18>
     324:	0300146f          	jal	x8,1354 <failedtest_x8_x7>
     328:	00000318          	.word	0x00000318
     32c:	000046a0          	.word	0x000046a0
     330:	004a8a93          	addi	x21,x21,4
  addi x2, x2, SIG_STRIDE # increment data_ptr
     334:	00410113          	addi	x2,x2,4

  mv x23, x21 # switch signature pointer register to avoid conflict with test
     338:	000a8b93          	addi	x23,x21,0
# Testcase cp_rs1_nx0 (Test source rs1 = x21)
  addi x21, x2, 1991 # copy data_ptr to rs1 and adjust for offset
     33c:	7c710a93          	addi	x21,x2,1991

00000340 <I_lh_cg_cp_rs1_nx0_b21>:
I_lh_cg_cp_rs1_nx0_b21:
  lh x9, -1991(x21) # perform load (0x0fa38234)
     340:	839a9483          	lh	x9,-1991(x21)
  # Check if x9 contains the expected result. x23 is the signature ptr, x8 is the link ptr, x7 is a temp reg.
  RVTEST_SIGUPD(x23, x8, x7, x9, I_lh_cg_cp_rs1_nx0_b21, I_lh_cg_cp_rs1_nx0_b21_str)
     344:	000ba383          	lw	x7,0(x23)
     348:	00938863          	beq	x7,x9,358 <I_lh_cg_cp_rs1_nx0_b21+0x18>
     34c:	0080146f          	jal	x8,1354 <failedtest_x8_x7>
     350:	00000340          	.word	0x00000340
     354:	000046d2          	.word	0x000046d2
     358:	004b8b93          	addi	x23,x23,4
  addi x2, x2, SIG_STRIDE # increment data_ptr
     35c:	00410113          	addi	x2,x2,4

# Testcase cp_rs1_nx0 (Test source rs1 = x22)
  addi x22, x2, -71 # copy data_ptr to rs1 and adjust for offset
     360:	fb910b13          	addi	x22,x2,-71

00000364 <I_lh_cg_cp_rs1_nx0_b22>:
I_lh_cg_cp_rs1_nx0_b22:
  lh x17, 71(x22) # perform load (0x3f0418bd)
     364:	047b1883          	lh	x17,71(x22)
  # Check if x17 contains the expected result. x23 is the signature ptr, x8 is the link ptr, x7 is a temp reg.
  RVTEST_SIGUPD(x23, x8, x7, x17, I_lh_cg_cp_rs1_nx0_b22, I_lh_cg_cp_rs1_nx0_b22_str)
     368:	000ba383          	lw	x7,0(x23)
     36c:	01138863          	beq	x7,x17,37c <I_lh_cg_cp_rs1_nx0_b22+0x18>
     370:	7e50046f          	jal	x8,1354 <failedtest_x8_x7>
     374:	00000364          	.word	0x00000364
     378:	00004704          	.word	0x00004704
     37c:	004b8b93          	addi	x23,x23,4
  addi x2, x2, SIG_STRIDE # increment data_ptr
     380:	00410113          	addi	x2,x2,4

  mv x17, x23 # switch signature pointer register to avoid conflict with test
     384:	000b8893          	addi	x17,x23,0
# Testcase cp_rs1_nx0 (Test source rs1 = x23)
  addi x23, x2, -860 # copy data_ptr to rs1 and adjust for offset
     388:	ca410b93          	addi	x23,x2,-860

0000038c <I_lh_cg_cp_rs1_nx0_b23>:
I_lh_cg_cp_rs1_nx0_b23:
  lh x18, 860(x23) # perform load (0x0dc3849b)
     38c:	35cb9903          	lh	x18,860(x23)
  # Check if x18 contains the expected result. x17 is the signature ptr, x8 is the link ptr, x7 is a temp reg.
  RVTEST_SIGUPD(x17, x8, x7, x18, I_lh_cg_cp_rs1_nx0_b23, I_lh_cg_cp_rs1_nx0_b23_str)
     390:	0008a383          	lw	x7,0(x17)
     394:	01238863          	beq	x7,x18,3a4 <I_lh_cg_cp_rs1_nx0_b23+0x18>
     398:	7bd0046f          	jal	x8,1354 <failedtest_x8_x7>
     39c:	0000038c          	.word	0x0000038c
     3a0:	00004736          	.word	0x00004736
     3a4:	00488893          	addi	x17,x17,4
  addi x2, x2, SIG_STRIDE # increment data_ptr
     3a8:	00410113          	addi	x2,x2,4

# Testcase cp_rs1_nx0 (Test source rs1 = x24)
  addi x24, x2, 1268 # copy data_ptr to rs1 and adjust for offset
     3ac:	4f410c13          	addi	x24,x2,1268

000003b0 <I_lh_cg_cp_rs1_nx0_b24>:
I_lh_cg_cp_rs1_nx0_b24:
  lh x9, -1268(x24) # perform load (0x966f0976)
     3b0:	b0cc1483          	lh	x9,-1268(x24)
  # Check if x9 contains the expected result. x17 is the signature ptr, x8 is the link ptr, x7 is a temp reg.
  RVTEST_SIGUPD(x17, x8, x7, x9, I_lh_cg_cp_rs1_nx0_b24, I_lh_cg_cp_rs1_nx0_b24_str)
     3b4:	0008a383          	lw	x7,0(x17)
     3b8:	00938863          	beq	x7,x9,3c8 <I_lh_cg_cp_rs1_nx0_b24+0x18>
     3bc:	7990046f          	jal	x8,1354 <failedtest_x8_x7>
     3c0:	000003b0          	.word	0x000003b0
     3c4:	00004768          	.word	0x00004768
     3c8:	00488893          	addi	x17,x17,4
  addi x2, x2, SIG_STRIDE # increment data_ptr
     3cc:	00410113          	addi	x2,x2,4

# Testcase cp_rs1_nx0 (Test source rs1 = x25)
  addi x25, x2, -1787 # copy data_ptr to rs1 and adjust for offset
     3d0:	90510c93          	addi	x25,x2,-1787

000003d4 <I_lh_cg_cp_rs1_nx0_b25>:
I_lh_cg_cp_rs1_nx0_b25:
  lh x28, 1787(x25) # perform load (0x9bb4ce9a)
     3d4:	6fbc9e03          	lh	x28,1787(x25)
  # Check if x28 contains the expected result. x17 is the signature ptr, x8 is the link ptr, x7 is a temp reg.
  RVTEST_SIGUPD(x17, x8, x7, x28, I_lh_cg_cp_rs1_nx0_b25, I_lh_cg_cp_rs1_nx0_b25_str)
     3d8:	0008a383          	lw	x7,0(x17)
     3dc:	01c38863          	beq	x7,x28,3ec <I_lh_cg_cp_rs1_nx0_b25+0x18>
     3e0:	7750046f          	jal	x8,1354 <failedtest_x8_x7>
     3e4:	000003d4          	.word	0x000003d4
     3e8:	0000479a          	.word	0x0000479a
     3ec:	00488893          	addi	x17,x17,4
  addi x2, x2, SIG_STRIDE # increment data_ptr
     3f0:	00410113          	addi	x2,x2,4

# Testcase cp_rs1_nx0 (Test source rs1 = x26)
  addi x26, x2, -1466 # copy data_ptr to rs1 and adjust for offset
     3f4:	a4610d13          	addi	x26,x2,-1466

000003f8 <I_lh_cg_cp_rs1_nx0_b26>:
I_lh_cg_cp_rs1_nx0_b26:
  lh x25, 1466(x26) # perform load (0x84eb260c)
     3f8:	5bad1c83          	lh	x25,1466(x26)
  # Check if x25 contains the expected result. x17 is the signature ptr, x8 is the link ptr, x7 is a temp reg.
  RVTEST_SIGUPD(x17, x8, x7, x25, I_lh_cg_cp_rs1_nx0_b26, I_lh_cg_cp_rs1_nx0_b26_str)
     3fc:	0008a383          	lw	x7,0(x17)
     400:	01938863          	beq	x7,x25,410 <I_lh_cg_cp_rs1_nx0_b26+0x18>
     404:	7510046f          	jal	x8,1354 <failedtest_x8_x7>
     408:	000003f8          	.word	0x000003f8
     40c:	000047cc          	.word	0x000047cc
     410:	00488893          	addi	x17,x17,4
  addi x2, x2, SIG_STRIDE # increment data_ptr
     414:	00410113          	addi	x2,x2,4

# Testcase cp_rs1_nx0 (Test source rs1 = x27)
  addi x27, x2, 1553 # copy data_ptr to rs1 and adjust for offset
     418:	61110d93          	addi	x27,x2,1553

0000041c <I_lh_cg_cp_rs1_nx0_b27>:
I_lh_cg_cp_rs1_nx0_b27:
  lh x4, -1553(x27) # perform load (0xb8a01d79)
     41c:	9efd9203          	lh	x4,-1553(x27)
  # Check if x4 contains the expected result. x17 is the signature ptr, x8 is the link ptr, x7 is a temp reg.
  RVTEST_SIGUPD(x17, x8, x7, x4, I_lh_cg_cp_rs1_nx0_b27, I_lh_cg_cp_rs1_nx0_b27_str)
     420:	0008a383          	lw	x7,0(x17)
     424:	00438863          	beq	x7,x4,434 <I_lh_cg_cp_rs1_nx0_b27+0x18>
     428:	72d0046f          	jal	x8,1354 <failedtest_x8_x7>
     42c:	0000041c          	.word	0x0000041c
     430:	000047fe          	.word	0x000047fe
     434:	00488893          	addi	x17,x17,4
  addi x2, x2, SIG_STRIDE # increment data_ptr
     438:	00410113          	addi	x2,x2,4

# Testcase cp_rs1_nx0 (Test source rs1 = x28)
  addi x28, x2, -143 # copy data_ptr to rs1 and adjust for offset
     43c:	f7110e13          	addi	x28,x2,-143

00000440 <I_lh_cg_cp_rs1_nx0_b28>:
I_lh_cg_cp_rs1_nx0_b28:
  lh x14, 143(x28) # perform load (0xa434ccbd)
     440:	08fe1703          	lh	x14,143(x28)
  # Check if x14 contains the expected result. x17 is the signature ptr, x8 is the link ptr, x7 is a temp reg.
  RVTEST_SIGUPD(x17, x8, x7, x14, I_lh_cg_cp_rs1_nx0_b28, I_lh_cg_cp_rs1_nx0_b28_str)
     444:	0008a383          	lw	x7,0(x17)
     448:	00e38863          	beq	x7,x14,458 <I_lh_cg_cp_rs1_nx0_b28+0x18>
     44c:	7090046f          	jal	x8,1354 <failedtest_x8_x7>
     450:	00000440          	.word	0x00000440
     454:	00004830          	.word	0x00004830
     458:	00488893          	addi	x17,x17,4
  addi x2, x2, SIG_STRIDE # increment data_ptr
     45c:	00410113          	addi	x2,x2,4

# Testcase cp_rs1_nx0 (Test source rs1 = x29)
  addi x29, x2, 1487 # copy data_ptr to rs1 and adjust for offset
     460:	5cf10e93          	addi	x29,x2,1487

00000464 <I_lh_cg_cp_rs1_nx0_b29>:
I_lh_cg_cp_rs1_nx0_b29:
  lh x25, -1487(x29) # perform load (0x95fd7032)
     464:	a31e9c83          	lh	x25,-1487(x29)
  # Check if x25 contains the expected result. x17 is the signature ptr, x8 is the link ptr, x7 is a temp reg.
  RVTEST_SIGUPD(x17, x8, x7, x25, I_lh_cg_cp_rs1_nx0_b29, I_lh_cg_cp_rs1_nx0_b29_str)
     468:	0008a383          	lw	x7,0(x17)
     46c:	01938863          	beq	x7,x25,47c <I_lh_cg_cp_rs1_nx0_b29+0x18>
     470:	6e50046f          	jal	x8,1354 <failedtest_x8_x7>
     474:	00000464          	.word	0x00000464
     478:	00004862          	.word	0x00004862
     47c:	00488893          	addi	x17,x17,4
  addi x2, x2, SIG_STRIDE # increment data_ptr
     480:	00410113          	addi	x2,x2,4

# Testcase cp_rs1_nx0 (Test source rs1 = x30)
  addi x30, x2, -996 # copy data_ptr to rs1 and adjust for offset
     484:	c1c10f13          	addi	x30,x2,-996

00000488 <I_lh_cg_cp_rs1_nx0_b30>:
I_lh_cg_cp_rs1_nx0_b30:
  lh x16, 996(x30) # perform load (0x99d6a397)
     488:	3e4f1803          	lh	x16,996(x30)
  # Check if x16 contains the expected result. x17 is the signature ptr, x8 is the link ptr, x7 is a temp reg.
  RVTEST_SIGUPD(x17, x8, x7, x16, I_lh_cg_cp_rs1_nx0_b30, I_lh_cg_cp_rs1_nx0_b30_str)
     48c:	0008a383          	lw	x7,0(x17)
     490:	01038863          	beq	x7,x16,4a0 <I_lh_cg_cp_rs1_nx0_b30+0x18>
     494:	6c10046f          	jal	x8,1354 <failedtest_x8_x7>
     498:	00000488          	.word	0x00000488
     49c:	00004894          	.word	0x00004894
     4a0:	00488893          	addi	x17,x17,4
  addi x2, x2, SIG_STRIDE # increment data_ptr
     4a4:	00410113          	addi	x2,x2,4

# Testcase cp_rs1_nx0 (Test source rs1 = x31)
  addi x31, x2, 701 # copy data_ptr to rs1 and adjust for offset
     4a8:	2bd10f93          	addi	x31,x2,701

000004ac <I_lh_cg_cp_rs1_nx0_b31>:
I_lh_cg_cp_rs1_nx0_b31:
  lh x29, -701(x31) # perform load (0xdcfa7a84)
     4ac:	d43f9e83          	lh	x29,-701(x31)
  # Check if x29 contains the expected result. x17 is the signature ptr, x8 is the link ptr, x7 is a temp reg.
  RVTEST_SIGUPD(x17, x8, x7, x29, I_lh_cg_cp_rs1_nx0_b31, I_lh_cg_cp_rs1_nx0_b31_str)
     4b0:	0008a383          	lw	x7,0(x17)
     4b4:	01d38863          	beq	x7,x29,4c4 <I_lh_cg_cp_rs1_nx0_b31+0x18>
     4b8:	69d0046f          	jal	x8,1354 <failedtest_x8_x7>
     4bc:	000004ac          	.word	0x000004ac
     4c0:	000048c6          	.word	0x000048c6
     4c4:	00488893          	addi	x17,x17,4
  addi x2, x2, SIG_STRIDE # increment data_ptr
     4c8:	00410113          	addi	x2,x2,4
/////////////////////////////////
// cp_rd
/////////////////////////////////

# Testcase cp_rd (Test destination rd = x0)
  addi x20, x2, 1250 # copy data_ptr to rs1 and adjust for offset
     4cc:	4e210a13          	addi	x20,x2,1250

000004d0 <I_lh_cg_cp_rd_b0>:
I_lh_cg_cp_rd_b0:
  lh x0, -1250(x20) # perform load (0xb8676df2)
     4d0:	b1ea1003          	lh	x0,-1250(x20)
  # Check if x0 contains the expected result. x17 is the signature ptr, x8 is the link ptr, x7 is a temp reg.
  RVTEST_SIGUPD(x17, x8, x7, x0, I_lh_cg_cp_rd_b0, I_lh_cg_cp_rd_b0_str)
     4d4:	0008a383          	lw	x7,0(x17)
     4d8:	00038863          	beq	x7,x0,4e8 <I_lh_cg_cp_rd_b0+0x18>
     4dc:	6790046f          	jal	x8,1354 <failedtest_x8_x7>
     4e0:	000004d0          	.word	0x000004d0
     4e4:	000048f8          	.word	0x000048f8
     4e8:	00488893          	addi	x17,x17,4
  addi x2, x2, SIG_STRIDE # increment data_ptr
     4ec:	00410113          	addi	x2,x2,4

# Testcase cp_rd (Test destination rd = x1)
  addi x22, x2, -2002 # copy data_ptr to rs1 and adjust for offset
     4f0:	82e10b13          	addi	x22,x2,-2002

000004f4 <I_lh_cg_cp_rd_b1>:
I_lh_cg_cp_rd_b1:
  lh x1, 2002(x22) # perform load (0x2c51d96e)
     4f4:	7d2b1083          	lh	x1,2002(x22)
  # Check if x1 contains the expected result. x17 is the signature ptr, x8 is the link ptr, x7 is a temp reg.
  RVTEST_SIGUPD(x17, x8, x7, x1, I_lh_cg_cp_rd_b1, I_lh_cg_cp_rd_b1_str)
     4f8:	0008a383          	lw	x7,0(x17)
     4fc:	00138863          	beq	x7,x1,50c <I_lh_cg_cp_rd_b1+0x18>
     500:	6550046f          	jal	x8,1354 <failedtest_x8_x7>
     504:	000004f4          	.word	0x000004f4
     508:	00004924          	.word	0x00004924
     50c:	00488893          	addi	x17,x17,4
  addi x2, x2, SIG_STRIDE # increment data_ptr
     510:	00410113          	addi	x2,x2,4

  mv x21, x2 # switch data pointer register to avoid conflict with test
     514:	00010a93          	addi	x21,x2,0
# Testcase cp_rd (Test destination rd = x2)
  addi x12, x21, 605 # copy data_ptr to rs1 and adjust for offset
     518:	25da8613          	addi	x12,x21,605

0000051c <I_lh_cg_cp_rd_b2>:
I_lh_cg_cp_rd_b2:
  lh x2, -605(x12) # perform load (0xa04b6931)
     51c:	da361103          	lh	x2,-605(x12)
  # Check if x2 contains the expected result. x17 is the signature ptr, x8 is the link ptr, x7 is a temp reg.
  RVTEST_SIGUPD(x17, x8, x7, x2, I_lh_cg_cp_rd_b2, I_lh_cg_cp_rd_b2_str)
     520:	0008a383          	lw	x7,0(x17)
     524:	00238863          	beq	x7,x2,534 <I_lh_cg_cp_rd_b2+0x18>
     528:	62d0046f          	jal	x8,1354 <failedtest_x8_x7>
     52c:	0000051c          	.word	0x0000051c
     530:	00004950          	.word	0x00004950
     534:	00488893          	addi	x17,x17,4
  addi x21, x21, SIG_STRIDE # increment data_ptr
     538:	004a8a93          	addi	x21,x21,4

# Testcase cp_rd (Test destination rd = x3)
  addi x5, x21, 1260 # copy data_ptr to rs1 and adjust for offset
     53c:	4eca8293          	addi	x5,x21,1260

00000540 <I_lh_cg_cp_rd_b3>:
I_lh_cg_cp_rd_b3:
  lh x3, -1260(x5) # perform load (0x77be1d38)
     540:	b1429183          	lh	x3,-1260(x5)
  # Check if x3 contains the expected result. x17 is the signature ptr, x8 is the link ptr, x7 is a temp reg.
  RVTEST_SIGUPD(x17, x8, x7, x3, I_lh_cg_cp_rd_b3, I_lh_cg_cp_rd_b3_str)
     544:	0008a383          	lw	x7,0(x17)
     548:	00338863          	beq	x7,x3,558 <I_lh_cg_cp_rd_b3+0x18>
     54c:	6090046f          	jal	x8,1354 <failedtest_x8_x7>
     550:	00000540          	.word	0x00000540
     554:	0000497c          	.word	0x0000497c
     558:	00488893          	addi	x17,x17,4
  addi x21, x21, SIG_STRIDE # increment data_ptr
     55c:	004a8a93          	addi	x21,x21,4

# Testcase cp_rd (Test destination rd = x4)
  addi x27, x21, 1857 # copy data_ptr to rs1 and adjust for offset
     560:	741a8d93          	addi	x27,x21,1857

00000564 <I_lh_cg_cp_rd_b4>:
I_lh_cg_cp_rd_b4:
  lh x4, -1857(x27) # perform load (0x2a1659e9)
     564:	8bfd9203          	lh	x4,-1857(x27)
  # Check if x4 contains the expected result. x17 is the signature ptr, x8 is the link ptr, x7 is a temp reg.
  RVTEST_SIGUPD(x17, x8, x7, x4, I_lh_cg_cp_rd_b4, I_lh_cg_cp_rd_b4_str)
     568:	0008a383          	lw	x7,0(x17)
     56c:	00438863          	beq	x7,x4,57c <I_lh_cg_cp_rd_b4+0x18>
     570:	5e50046f          	jal	x8,1354 <failedtest_x8_x7>
     574:	00000564          	.word	0x00000564
     578:	000049a8          	.word	0x000049a8
     57c:	00488893          	addi	x17,x17,4
  addi x21, x21, SIG_STRIDE # increment data_ptr
     580:	004a8a93          	addi	x21,x21,4

# Testcase cp_rd (Test destination rd = x5)
  addi x28, x21, 608 # copy data_ptr to rs1 and adjust for offset
     584:	260a8e13          	addi	x28,x21,608

00000588 <I_lh_cg_cp_rd_b5>:
I_lh_cg_cp_rd_b5:
  lh x5, -608(x28) # perform load (0x72b25bfd)
     588:	da0e1283          	lh	x5,-608(x28)
  # Check if x5 contains the expected result. x17 is the signature ptr, x8 is the link ptr, x7 is a temp reg.
  RVTEST_SIGUPD(x17, x8, x7, x5, I_lh_cg_cp_rd_b5, I_lh_cg_cp_rd_b5_str)
     58c:	0008a383          	lw	x7,0(x17)
     590:	00538863          	beq	x7,x5,5a0 <I_lh_cg_cp_rd_b5+0x18>
     594:	5c10046f          	jal	x8,1354 <failedtest_x8_x7>
     598:	00000588          	.word	0x00000588
     59c:	000049d4          	.word	0x000049d4
     5a0:	00488893          	addi	x17,x17,4
  addi x21, x21, SIG_STRIDE # increment data_ptr
     5a4:	004a8a93          	addi	x21,x21,4

# Testcase cp_rd (Test destination rd = x6)
  addi x15, x21, -1359 # copy data_ptr to rs1 and adjust for offset
     5a8:	ab1a8793          	addi	x15,x21,-1359

000005ac <I_lh_cg_cp_rd_b6>:
I_lh_cg_cp_rd_b6:
  lh x6, 1359(x15) # perform load (0x71273b1b)
     5ac:	54f79303          	lh	x6,1359(x15)
  # Check if x6 contains the expected result. x17 is the signature ptr, x8 is the link ptr, x7 is a temp reg.
  RVTEST_SIGUPD(x17, x8, x7, x6, I_lh_cg_cp_rd_b6, I_lh_cg_cp_rd_b6_str)
     5b0:	0008a383          	lw	x7,0(x17)
     5b4:	00638863          	beq	x7,x6,5c4 <I_lh_cg_cp_rd_b6+0x18>
     5b8:	59d0046f          	jal	x8,1354 <failedtest_x8_x7>
     5bc:	000005ac          	.word	0x000005ac
     5c0:	00004a00          	.word	0x00004a00
     5c4:	00488893          	addi	x17,x17,4
  addi x21, x21, SIG_STRIDE # increment data_ptr
     5c8:	004a8a93          	addi	x21,x21,4

  mv x4, x7 # switch temp register to avoid conflict with test
     5cc:	00038213          	addi	x4,x7,0
  mv x5, x8 # switch link pointer register to avoid conflict with test
     5d0:	00040293          	addi	x5,x8,0
# Testcase cp_rd (Test destination rd = x7)
  addi x24, x21, -1411 # copy data_ptr to rs1 and adjust for offset
     5d4:	a7da8c13          	addi	x24,x21,-1411

000005d8 <I_lh_cg_cp_rd_b7>:
I_lh_cg_cp_rd_b7:
  lh x7, 1411(x24) # perform load (0x20b7424a)
     5d8:	583c1383          	lh	x7,1411(x24)
  # Check if x7 contains the expected result. x17 is the signature ptr, x5 is the link ptr, x4 is a temp reg.
  RVTEST_SIGUPD(x17, x5, x4, x7, I_lh_cg_cp_rd_b7, I_lh_cg_cp_rd_b7_str)
     5dc:	0008a203          	lw	x4,0(x17)
     5e0:	00720863          	beq	x4,x7,5f0 <I_lh_cg_cp_rd_b7+0x18>
     5e4:	559002ef          	jal	x5,133c <failedtest_x5_x4>
     5e8:	000005d8          	.word	0x000005d8
     5ec:	00004a2c          	.word	0x00004a2c
     5f0:	00488893          	addi	x17,x17,4
  addi x21, x21, SIG_STRIDE # increment data_ptr
     5f4:	004a8a93          	addi	x21,x21,4

# Testcase cp_rd (Test destination rd = x8)
  addi x29, x21, 646 # copy data_ptr to rs1 and adjust for offset
     5f8:	286a8e93          	addi	x29,x21,646

000005fc <I_lh_cg_cp_rd_b8>:
I_lh_cg_cp_rd_b8:
  lh x8, -646(x29) # perform load (0x8f3596d4)
     5fc:	d7ae9403          	lh	x8,-646(x29)
  # Check if x8 contains the expected result. x17 is the signature ptr, x5 is the link ptr, x4 is a temp reg.
  RVTEST_SIGUPD(x17, x5, x4, x8, I_lh_cg_cp_rd_b8, I_lh_cg_cp_rd_b8_str)
     600:	0008a203          	lw	x4,0(x17)
     604:	00820863          	beq	x4,x8,614 <I_lh_cg_cp_rd_b8+0x18>
     608:	535002ef          	jal	x5,133c <failedtest_x5_x4>
     60c:	000005fc          	.word	0x000005fc
     610:	00004a58          	.word	0x00004a58
     614:	00488893          	addi	x17,x17,4
  addi x21, x21, SIG_STRIDE # increment data_ptr
     618:	004a8a93          	addi	x21,x21,4

# Testcase cp_rd (Test destination rd = x9)
  addi x14, x21, 2047 # copy data_ptr to rs1 and adjust for offset
     61c:	7ffa8713          	addi	x14,x21,2047

00000620 <I_lh_cg_cp_rd_b9>:
I_lh_cg_cp_rd_b9:
  lh x9, -2047(x14) # perform load (0x4323ea72)
     620:	80171483          	lh	x9,-2047(x14)
  # Check if x9 contains the expected result. x17 is the signature ptr, x5 is the link ptr, x4 is a temp reg.
  RVTEST_SIGUPD(x17, x5, x4, x9, I_lh_cg_cp_rd_b9, I_lh_cg_cp_rd_b9_str)
     624:	0008a203          	lw	x4,0(x17)
     628:	00920863          	beq	x4,x9,638 <I_lh_cg_cp_rd_b9+0x18>
     62c:	511002ef          	jal	x5,133c <failedtest_x5_x4>
     630:	00000620          	.word	0x00000620
     634:	00004a84          	.word	0x00004a84
     638:	00488893          	addi	x17,x17,4
  addi x21, x21, SIG_STRIDE # increment data_ptr
     63c:	004a8a93          	addi	x21,x21,4

# Testcase cp_rd (Test destination rd = x10)
  addi x13, x21, 610 # copy data_ptr to rs1 and adjust for offset
     640:	262a8693          	addi	x13,x21,610

00000644 <I_lh_cg_cp_rd_b10>:
I_lh_cg_cp_rd_b10:
  lh x10, -610(x13) # perform load (0x32c20176)
     644:	d9e69503          	lh	x10,-610(x13)
  # Check if x10 contains the expected result. x17 is the signature ptr, x5 is the link ptr, x4 is a temp reg.
  RVTEST_SIGUPD(x17, x5, x4, x10, I_lh_cg_cp_rd_b10, I_lh_cg_cp_rd_b10_str)
     648:	0008a203          	lw	x4,0(x17)
     64c:	00a20863          	beq	x4,x10,65c <I_lh_cg_cp_rd_b10+0x18>
     650:	4ed002ef          	jal	x5,133c <failedtest_x5_x4>
     654:	00000644          	.word	0x00000644
     658:	00004ab0          	.word	0x00004ab0
     65c:	00488893          	addi	x17,x17,4
  addi x21, x21, SIG_STRIDE # increment data_ptr
     660:	004a8a93          	addi	x21,x21,4

# Testcase cp_rd (Test destination rd = x11)
  addi x1, x21, -698 # copy data_ptr to rs1 and adjust for offset
     664:	d46a8093          	addi	x1,x21,-698

00000668 <I_lh_cg_cp_rd_b11>:
I_lh_cg_cp_rd_b11:
  lh x11, 698(x1) # perform load (0x5c06006f)
     668:	2ba09583          	lh	x11,698(x1)
  # Check if x11 contains the expected result. x17 is the signature ptr, x5 is the link ptr, x4 is a temp reg.
  RVTEST_SIGUPD(x17, x5, x4, x11, I_lh_cg_cp_rd_b11, I_lh_cg_cp_rd_b11_str)
     66c:	0008a203          	lw	x4,0(x17)
     670:	00b20863          	beq	x4,x11,680 <I_lh_cg_cp_rd_b11+0x18>
     674:	4c9002ef          	jal	x5,133c <failedtest_x5_x4>
     678:	00000668          	.word	0x00000668
     67c:	00004add          	.word	0x00004add
     680:	00488893          	addi	x17,x17,4
  addi x21, x21, SIG_STRIDE # increment data_ptr
     684:	004a8a93          	addi	x21,x21,4

# Testcase cp_rd (Test destination rd = x12)
  addi x23, x21, -1793 # copy data_ptr to rs1 and adjust for offset
     688:	8ffa8b93          	addi	x23,x21,-1793

0000068c <I_lh_cg_cp_rd_b12>:
I_lh_cg_cp_rd_b12:
  lh x12, 1793(x23) # perform load (0xa92d7fc7)
     68c:	701b9603          	lh	x12,1793(x23)
  # Check if x12 contains the expected result. x17 is the signature ptr, x5 is the link ptr, x4 is a temp reg.
  RVTEST_SIGUPD(x17, x5, x4, x12, I_lh_cg_cp_rd_b12, I_lh_cg_cp_rd_b12_str)
     690:	0008a203          	lw	x4,0(x17)
     694:	00c20863          	beq	x4,x12,6a4 <I_lh_cg_cp_rd_b12+0x18>
     698:	4a5002ef          	jal	x5,133c <failedtest_x5_x4>
     69c:	0000068c          	.word	0x0000068c
     6a0:	00004b0a          	.word	0x00004b0a
     6a4:	00488893          	addi	x17,x17,4
  addi x21, x21, SIG_STRIDE # increment data_ptr
     6a8:	004a8a93          	addi	x21,x21,4

# Testcase cp_rd (Test destination rd = x13)
  addi x24, x21, -1359 # copy data_ptr to rs1 and adjust for offset
     6ac:	ab1a8c13          	addi	x24,x21,-1359

000006b0 <I_lh_cg_cp_rd_b13>:
I_lh_cg_cp_rd_b13:
  lh x13, 1359(x24) # perform load (0xb6abcde2)
     6b0:	54fc1683          	lh	x13,1359(x24)
  # Check if x13 contains the expected result. x17 is the signature ptr, x5 is the link ptr, x4 is a temp reg.
  RVTEST_SIGUPD(x17, x5, x4, x13, I_lh_cg_cp_rd_b13, I_lh_cg_cp_rd_b13_str)
     6b4:	0008a203          	lw	x4,0(x17)
     6b8:	00d20863          	beq	x4,x13,6c8 <I_lh_cg_cp_rd_b13+0x18>
     6bc:	481002ef          	jal	x5,133c <failedtest_x5_x4>
     6c0:	000006b0          	.word	0x000006b0
     6c4:	00004b37          	.word	0x00004b37
     6c8:	00488893          	addi	x17,x17,4
  addi x21, x21, SIG_STRIDE # increment data_ptr
     6cc:	004a8a93          	addi	x21,x21,4

# Testcase cp_rd (Test destination rd = x14)
  addi x30, x21, 1934 # copy data_ptr to rs1 and adjust for offset
     6d0:	78ea8f13          	addi	x30,x21,1934

000006d4 <I_lh_cg_cp_rd_b14>:
I_lh_cg_cp_rd_b14:
  lh x14, -1934(x30) # perform load (0xf738f7af)
     6d4:	872f1703          	lh	x14,-1934(x30)
  # Check if x14 contains the expected result. x17 is the signature ptr, x5 is the link ptr, x4 is a temp reg.
  RVTEST_SIGUPD(x17, x5, x4, x14, I_lh_cg_cp_rd_b14, I_lh_cg_cp_rd_b14_str)
     6d8:	0008a203          	lw	x4,0(x17)
     6dc:	00e20863          	beq	x4,x14,6ec <I_lh_cg_cp_rd_b14+0x18>
     6e0:	45d002ef          	jal	x5,133c <failedtest_x5_x4>
     6e4:	000006d4          	.word	0x000006d4
     6e8:	00004b64          	.word	0x00004b64
     6ec:	00488893          	addi	x17,x17,4
  addi x21, x21, SIG_STRIDE # increment data_ptr
     6f0:	004a8a93          	addi	x21,x21,4

# Testcase cp_rd (Test destination rd = x15)
  addi x24, x21, 1739 # copy data_ptr to rs1 and adjust for offset
     6f4:	6cba8c13          	addi	x24,x21,1739

000006f8 <I_lh_cg_cp_rd_b15>:
I_lh_cg_cp_rd_b15:
  lh x15, -1739(x24) # perform load (0xd8acb379)
     6f8:	935c1783          	lh	x15,-1739(x24)
  # Check if x15 contains the expected result. x17 is the signature ptr, x5 is the link ptr, x4 is a temp reg.
  RVTEST_SIGUPD(x17, x5, x4, x15, I_lh_cg_cp_rd_b15, I_lh_cg_cp_rd_b15_str)
     6fc:	0008a203          	lw	x4,0(x17)
     700:	00f20863          	beq	x4,x15,710 <I_lh_cg_cp_rd_b15+0x18>
     704:	439002ef          	jal	x5,133c <failedtest_x5_x4>
     708:	000006f8          	.word	0x000006f8
     70c:	00004b91          	.word	0x00004b91
     710:	00488893          	addi	x17,x17,4
  addi x21, x21, SIG_STRIDE # increment data_ptr
     714:	004a8a93          	addi	x21,x21,4

# Testcase cp_rd (Test destination rd = x16)
  addi x2, x21, 1064 # copy data_ptr to rs1 and adjust for offset
     718:	428a8113          	addi	x2,x21,1064

0000071c <I_lh_cg_cp_rd_b16>:
I_lh_cg_cp_rd_b16:
  lh x16, -1064(x2) # perform load (0x55ac6886)
     71c:	bd811803          	lh	x16,-1064(x2)
  # Check if x16 contains the expected result. x17 is the signature ptr, x5 is the link ptr, x4 is a temp reg.
  RVTEST_SIGUPD(x17, x5, x4, x16, I_lh_cg_cp_rd_b16, I_lh_cg_cp_rd_b16_str)
     720:	0008a203          	lw	x4,0(x17)
     724:	01020863          	beq	x4,x16,734 <I_lh_cg_cp_rd_b16+0x18>
     728:	415002ef          	jal	x5,133c <failedtest_x5_x4>
     72c:	0000071c          	.word	0x0000071c
     730:	00004bbe          	.word	0x00004bbe
     734:	00488893          	addi	x17,x17,4
  addi x21, x21, SIG_STRIDE # increment data_ptr
     738:	004a8a93          	addi	x21,x21,4

  mv x30, x17 # switch signature pointer register to avoid conflict with test
     73c:	00088f13          	addi	x30,x17,0
# Testcase cp_rd (Test destination rd = x17)
  addi x19, x21, -691 # copy data_ptr to rs1 and adjust for offset
     740:	d4da8993          	addi	x19,x21,-691

00000744 <I_lh_cg_cp_rd_b17>:
I_lh_cg_cp_rd_b17:
  lh x17, 691(x19) # perform load (0x2ceba5ed)
     744:	2b399883          	lh	x17,691(x19)
  # Check if x17 contains the expected result. x30 is the signature ptr, x5 is the link ptr, x4 is a temp reg.
  RVTEST_SIGUPD(x30, x5, x4, x17, I_lh_cg_cp_rd_b17, I_lh_cg_cp_rd_b17_str)
     748:	000f2203          	lw	x4,0(x30)
     74c:	01120863          	beq	x4,x17,75c <I_lh_cg_cp_rd_b17+0x18>
     750:	3ed002ef          	jal	x5,133c <failedtest_x5_x4>
     754:	00000744          	.word	0x00000744
     758:	00004beb          	.word	0x00004beb
     75c:	004f0f13          	addi	x30,x30,4
  addi x21, x21, SIG_STRIDE # increment data_ptr
     760:	004a8a93          	addi	x21,x21,4

# Testcase cp_rd (Test destination rd = x18)
  addi x29, x21, 601 # copy data_ptr to rs1 and adjust for offset
     764:	259a8e93          	addi	x29,x21,601

00000768 <I_lh_cg_cp_rd_b18>:
I_lh_cg_cp_rd_b18:
  lh x18, -601(x29) # perform load (0x8c4dde4f)
     768:	da7e9903          	lh	x18,-601(x29)
  # Check if x18 contains the expected result. x30 is the signature ptr, x5 is the link ptr, x4 is a temp reg.
  RVTEST_SIGUPD(x30, x5, x4, x18, I_lh_cg_cp_rd_b18, I_lh_cg_cp_rd_b18_str)
     76c:	000f2203          	lw	x4,0(x30)
     770:	01220863          	beq	x4,x18,780 <I_lh_cg_cp_rd_b18+0x18>
     774:	3c9002ef          	jal	x5,133c <failedtest_x5_x4>
     778:	00000768          	.word	0x00000768
     77c:	00004c18          	.word	0x00004c18
     780:	004f0f13          	addi	x30,x30,4
  addi x21, x21, SIG_STRIDE # increment data_ptr
     784:	004a8a93          	addi	x21,x21,4

# Testcase cp_rd (Test destination rd = x19)
  addi x16, x21, -613 # copy data_ptr to rs1 and adjust for offset
     788:	d9ba8813          	addi	x16,x21,-613

0000078c <I_lh_cg_cp_rd_b19>:
I_lh_cg_cp_rd_b19:
  lh x19, 613(x16) # perform load (0xfc332060)
     78c:	26581983          	lh	x19,613(x16)
  # Check if x19 contains the expected result. x30 is the signature ptr, x5 is the link ptr, x4 is a temp reg.
  RVTEST_SIGUPD(x30, x5, x4, x19, I_lh_cg_cp_rd_b19, I_lh_cg_cp_rd_b19_str)
     790:	000f2203          	lw	x4,0(x30)
     794:	01320863          	beq	x4,x19,7a4 <I_lh_cg_cp_rd_b19+0x18>
     798:	3a5002ef          	jal	x5,133c <failedtest_x5_x4>
     79c:	0000078c          	.word	0x0000078c
     7a0:	00004c45          	.word	0x00004c45
     7a4:	004f0f13          	addi	x30,x30,4
  addi x21, x21, SIG_STRIDE # increment data_ptr
     7a8:	004a8a93          	addi	x21,x21,4

# Testcase cp_rd (Test destination rd = x20)
  addi x18, x21, 336 # copy data_ptr to rs1 and adjust for offset
     7ac:	150a8913          	addi	x18,x21,336

000007b0 <I_lh_cg_cp_rd_b20>:
I_lh_cg_cp_rd_b20:
  lh x20, -336(x18) # perform load (0x70348151)
     7b0:	eb091a03          	lh	x20,-336(x18)
  # Check if x20 contains the expected result. x30 is the signature ptr, x5 is the link ptr, x4 is a temp reg.
  RVTEST_SIGUPD(x30, x5, x4, x20, I_lh_cg_cp_rd_b20, I_lh_cg_cp_rd_b20_str)
     7b4:	000f2203          	lw	x4,0(x30)
     7b8:	01420863          	beq	x4,x20,7c8 <I_lh_cg_cp_rd_b20+0x18>
     7bc:	381002ef          	jal	x5,133c <failedtest_x5_x4>
     7c0:	000007b0          	.word	0x000007b0
     7c4:	00004c72          	.word	0x00004c72
     7c8:	004f0f13          	addi	x30,x30,4
  addi x21, x21, SIG_STRIDE # increment data_ptr
     7cc:	004a8a93          	addi	x21,x21,4

  mv x19, x21 # switch data pointer register to avoid conflict with test
     7d0:	000a8993          	addi	x19,x21,0
# Testcase cp_rd (Test destination rd = x21)
  addi x16, x19, 207 # copy data_ptr to rs1 and adjust for offset
     7d4:	0cf98813          	addi	x16,x19,207

000007d8 <I_lh_cg_cp_rd_b21>:
I_lh_cg_cp_rd_b21:
  lh x21, -207(x16) # perform load (0x2e2ad99b)
     7d8:	f3181a83          	lh	x21,-207(x16)
  # Check if x21 contains the expected result. x30 is the signature ptr, x5 is the link ptr, x4 is a temp reg.
  RVTEST_SIGUPD(x30, x5, x4, x21, I_lh_cg_cp_rd_b21, I_lh_cg_cp_rd_b21_str)
     7dc:	000f2203          	lw	x4,0(x30)
     7e0:	01520863          	beq	x4,x21,7f0 <I_lh_cg_cp_rd_b21+0x18>
     7e4:	359002ef          	jal	x5,133c <failedtest_x5_x4>
     7e8:	000007d8          	.word	0x000007d8
     7ec:	00004c9f          	.word	0x00004c9f
     7f0:	004f0f13          	addi	x30,x30,4
  addi x19, x19, SIG_STRIDE # increment data_ptr
     7f4:	00498993          	addi	x19,x19,4

# Testcase cp_rd (Test destination rd = x22)
  addi x28, x19, -1884 # copy data_ptr to rs1 and adjust for offset
     7f8:	8a498e13          	addi	x28,x19,-1884

000007fc <I_lh_cg_cp_rd_b22>:
I_lh_cg_cp_rd_b22:
  lh x22, 1884(x28) # perform load (0x8da4738e)
     7fc:	75ce1b03          	lh	x22,1884(x28)
  # Check if x22 contains the expected result. x30 is the signature ptr, x5 is the link ptr, x4 is a temp reg.
  RVTEST_SIGUPD(x30, x5, x4, x22, I_lh_cg_cp_rd_b22, I_lh_cg_cp_rd_b22_str)
     800:	000f2203          	lw	x4,0(x30)
     804:	01620863          	beq	x4,x22,814 <I_lh_cg_cp_rd_b22+0x18>
     808:	335002ef          	jal	x5,133c <failedtest_x5_x4>
     80c:	000007fc          	.word	0x000007fc
     810:	00004ccc          	.word	0x00004ccc
     814:	004f0f13          	addi	x30,x30,4
  addi x19, x19, SIG_STRIDE # increment data_ptr
     818:	00498993          	addi	x19,x19,4

# Testcase cp_rd (Test destination rd = x23)
  addi x18, x19, 854 # copy data_ptr to rs1 and adjust for offset
     81c:	35698913          	addi	x18,x19,854

00000820 <I_lh_cg_cp_rd_b23>:
I_lh_cg_cp_rd_b23:
  lh x23, -854(x18) # perform load (0x5e1d440d)
     820:	caa91b83          	lh	x23,-854(x18)
  # Check if x23 contains the expected result. x30 is the signature ptr, x5 is the link ptr, x4 is a temp reg.
  RVTEST_SIGUPD(x30, x5, x4, x23, I_lh_cg_cp_rd_b23, I_lh_cg_cp_rd_b23_str)
     824:	000f2203          	lw	x4,0(x30)
     828:	01720863          	beq	x4,x23,838 <I_lh_cg_cp_rd_b23+0x18>
     82c:	311002ef          	jal	x5,133c <failedtest_x5_x4>
     830:	00000820          	.word	0x00000820
     834:	00004cf9          	.word	0x00004cf9
     838:	004f0f13          	addi	x30,x30,4
  addi x19, x19, SIG_STRIDE # increment data_ptr
     83c:	00498993          	addi	x19,x19,4

# Testcase cp_rd (Test destination rd = x24)
  addi x25, x19, 1184 # copy data_ptr to rs1 and adjust for offset
     840:	4a098c93          	addi	x25,x19,1184

00000844 <I_lh_cg_cp_rd_b24>:
I_lh_cg_cp_rd_b24:
  lh x24, -1184(x25) # perform load (0xf171e185)
     844:	b60c9c03          	lh	x24,-1184(x25)
  # Check if x24 contains the expected result. x30 is the signature ptr, x5 is the link ptr, x4 is a temp reg.
  RVTEST_SIGUPD(x30, x5, x4, x24, I_lh_cg_cp_rd_b24, I_lh_cg_cp_rd_b24_str)
     848:	000f2203          	lw	x4,0(x30)
     84c:	01820863          	beq	x4,x24,85c <I_lh_cg_cp_rd_b24+0x18>
     850:	2ed002ef          	jal	x5,133c <failedtest_x5_x4>
     854:	00000844          	.word	0x00000844
     858:	00004d26          	.word	0x00004d26
     85c:	004f0f13          	addi	x30,x30,4
  addi x19, x19, SIG_STRIDE # increment data_ptr
     860:	00498993          	addi	x19,x19,4

# Testcase cp_rd (Test destination rd = x25)
  addi x10, x19, 18 # copy data_ptr to rs1 and adjust for offset
     864:	01298513          	addi	x10,x19,18

00000868 <I_lh_cg_cp_rd_b25>:
I_lh_cg_cp_rd_b25:
  lh x25, -18(x10) # perform load (0xcb9fddda)
     868:	fee51c83          	lh	x25,-18(x10)
  # Check if x25 contains the expected result. x30 is the signature ptr, x5 is the link ptr, x4 is a temp reg.
  RVTEST_SIGUPD(x30, x5, x4, x25, I_lh_cg_cp_rd_b25, I_lh_cg_cp_rd_b25_str)
     86c:	000f2203          	lw	x4,0(x30)
     870:	01920863          	beq	x4,x25,880 <I_lh_cg_cp_rd_b25+0x18>
     874:	2c9002ef          	jal	x5,133c <failedtest_x5_x4>
     878:	00000868          	.word	0x00000868
     87c:	00004d53          	.word	0x00004d53
     880:	004f0f13          	addi	x30,x30,4
  addi x19, x19, SIG_STRIDE # increment data_ptr
     884:	00498993          	addi	x19,x19,4

# Testcase cp_rd (Test destination rd = x26)
  addi x13, x19, 1696 # copy data_ptr to rs1 and adjust for offset
     888:	6a098693          	addi	x13,x19,1696

0000088c <I_lh_cg_cp_rd_b26>:
I_lh_cg_cp_rd_b26:
  lh x26, -1696(x13) # perform load (0xa5855e6d)
     88c:	96069d03          	lh	x26,-1696(x13)
  # Check if x26 contains the expected result. x30 is the signature ptr, x5 is the link ptr, x4 is a temp reg.
  RVTEST_SIGUPD(x30, x5, x4, x26, I_lh_cg_cp_rd_b26, I_lh_cg_cp_rd_b26_str)
     890:	000f2203          	lw	x4,0(x30)
     894:	01a20863          	beq	x4,x26,8a4 <I_lh_cg_cp_rd_b26+0x18>
     898:	2a5002ef          	jal	x5,133c <failedtest_x5_x4>
     89c:	0000088c          	.word	0x0000088c
     8a0:	00004d80          	.word	0x00004d80
     8a4:	004f0f13          	addi	x30,x30,4
  addi x19, x19, SIG_STRIDE # increment data_ptr
     8a8:	00498993          	addi	x19,x19,4

# Testcase cp_rd (Test destination rd = x27)
  addi x29, x19, 288 # copy data_ptr to rs1 and adjust for offset
     8ac:	12098e93          	addi	x29,x19,288

000008b0 <I_lh_cg_cp_rd_b27>:
I_lh_cg_cp_rd_b27:
  lh x27, -288(x29) # perform load (0x1043a243)
     8b0:	ee0e9d83          	lh	x27,-288(x29)
  # Check if x27 contains the expected result. x30 is the signature ptr, x5 is the link ptr, x4 is a temp reg.
  RVTEST_SIGUPD(x30, x5, x4, x27, I_lh_cg_cp_rd_b27, I_lh_cg_cp_rd_b27_str)
     8b4:	000f2203          	lw	x4,0(x30)
     8b8:	01b20863          	beq	x4,x27,8c8 <I_lh_cg_cp_rd_b27+0x18>
     8bc:	281002ef          	jal	x5,133c <failedtest_x5_x4>
     8c0:	000008b0          	.word	0x000008b0
     8c4:	00004dad          	.word	0x00004dad
     8c8:	004f0f13          	addi	x30,x30,4
  addi x19, x19, SIG_STRIDE # increment data_ptr
     8cc:	00498993          	addi	x19,x19,4

# Testcase cp_rd (Test destination rd = x28)
  addi x29, x19, -1852 # copy data_ptr to rs1 and adjust for offset
     8d0:	8c498e93          	addi	x29,x19,-1852

000008d4 <I_lh_cg_cp_rd_b28>:
I_lh_cg_cp_rd_b28:
  lh x28, 1852(x29) # perform load (0xa35da2ba)
     8d4:	73ce9e03          	lh	x28,1852(x29)
  # Check if x28 contains the expected result. x30 is the signature ptr, x5 is the link ptr, x4 is a temp reg.
  RVTEST_SIGUPD(x30, x5, x4, x28, I_lh_cg_cp_rd_b28, I_lh_cg_cp_rd_b28_str)
     8d8:	000f2203          	lw	x4,0(x30)
     8dc:	01c20863          	beq	x4,x28,8ec <I_lh_cg_cp_rd_b28+0x18>
     8e0:	25d002ef          	jal	x5,133c <failedtest_x5_x4>
     8e4:	000008d4          	.word	0x000008d4
     8e8:	00004dda          	.word	0x00004dda
     8ec:	004f0f13          	addi	x30,x30,4
  addi x19, x19, SIG_STRIDE # increment data_ptr
     8f0:	00498993          	addi	x19,x19,4

# Testcase cp_rd (Test destination rd = x29)
  addi x28, x19, -1633 # copy data_ptr to rs1 and adjust for offset
     8f4:	99f98e13          	addi	x28,x19,-1633

000008f8 <I_lh_cg_cp_rd_b29>:
I_lh_cg_cp_rd_b29:
  lh x29, 1633(x28) # perform load (0x60646322)
     8f8:	661e1e83          	lh	x29,1633(x28)
  # Check if x29 contains the expected result. x30 is the signature ptr, x5 is the link ptr, x4 is a temp reg.
  RVTEST_SIGUPD(x30, x5, x4, x29, I_lh_cg_cp_rd_b29, I_lh_cg_cp_rd_b29_str)
     8fc:	000f2203          	lw	x4,0(x30)
     900:	01d20863          	beq	x4,x29,910 <I_lh_cg_cp_rd_b29+0x18>
     904:	239002ef          	jal	x5,133c <failedtest_x5_x4>
     908:	000008f8          	.word	0x000008f8
     90c:	00004e07          	.word	0x00004e07
     910:	004f0f13          	addi	x30,x30,4
  addi x19, x19, SIG_STRIDE # increment data_ptr
     914:	00498993          	addi	x19,x19,4

  mv x27, x30 # switch signature pointer register to avoid conflict with test
     918:	000f0d93          	addi	x27,x30,0
# Testcase cp_rd (Test destination rd = x30)
  addi x6, x19, -1632 # copy data_ptr to rs1 and adjust for offset
     91c:	9a098313          	addi	x6,x19,-1632

00000920 <I_lh_cg_cp_rd_b30>:
I_lh_cg_cp_rd_b30:
  lh x30, 1632(x6) # perform load (0xb0917b7e)
     920:	66031f03          	lh	x30,1632(x6)
  # Check if x30 contains the expected result. x27 is the signature ptr, x5 is the link ptr, x4 is a temp reg.
  RVTEST_SIGUPD(x27, x5, x4, x30, I_lh_cg_cp_rd_b30, I_lh_cg_cp_rd_b30_str)
     924:	000da203          	lw	x4,0(x27)
     928:	01e20863          	beq	x4,x30,938 <I_lh_cg_cp_rd_b30+0x18>
     92c:	211002ef          	jal	x5,133c <failedtest_x5_x4>
     930:	00000920          	.word	0x00000920
     934:	00004e34          	.word	0x00004e34
     938:	004d8d93          	addi	x27,x27,4
  addi x19, x19, SIG_STRIDE # increment data_ptr
     93c:	00498993          	addi	x19,x19,4

# Testcase cp_rd (Test destination rd = x31)
  addi x15, x19, -2044 # copy data_ptr to rs1 and adjust for offset
     940:	80498793          	addi	x15,x19,-2044

00000944 <I_lh_cg_cp_rd_b31>:
I_lh_cg_cp_rd_b31:
  lh x31, 2044(x15) # perform load (0x9c6c0e7c)
     944:	7fc79f83          	lh	x31,2044(x15)
  # Check if x31 contains the expected result. x27 is the signature ptr, x5 is the link ptr, x4 is a temp reg.
  RVTEST_SIGUPD(x27, x5, x4, x31, I_lh_cg_cp_rd_b31, I_lh_cg_cp_rd_b31_str)
     948:	000da203          	lw	x4,0(x27)
     94c:	01f20863          	beq	x4,x31,95c <I_lh_cg_cp_rd_b31+0x18>
     950:	1ed002ef          	jal	x5,133c <failedtest_x5_x4>
     954:	00000944          	.word	0x00000944
     958:	00004e61          	.word	0x00004e61
     95c:	004d8d93          	addi	x27,x27,4
  addi x19, x19, SIG_STRIDE # increment data_ptr
     960:	00498993          	addi	x19,x19,4
/////////////////////////////////
// cmp_rd_rs1_nx0
/////////////////////////////////

# Testcase cmp_rd_rs1_nx0 (Test rd = rs1 = x1)
  addi x1, x19, 587 # copy data_ptr to rs1 and adjust for offset
     964:	24b98093          	addi	x1,x19,587

00000968 <I_lh_cg_cmp_rd_rs1_nx0_b1>:
I_lh_cg_cmp_rd_rs1_nx0_b1:
  lh x1, -587(x1) # perform load (0x8833ae95)
     968:	db509083          	lh	x1,-587(x1)
  # Check if x1 contains the expected result. x27 is the signature ptr, x5 is the link ptr, x4 is a temp reg.
  RVTEST_SIGUPD(x27, x5, x4, x1, I_lh_cg_cmp_rd_rs1_nx0_b1, I_lh_cg_cmp_rd_rs1_nx0_b1_str)
     96c:	000da203          	lw	x4,0(x27)
     970:	00120863          	beq	x4,x1,980 <I_lh_cg_cmp_rd_rs1_nx0_b1+0x18>
     974:	1c9002ef          	jal	x5,133c <failedtest_x5_x4>
     978:	00000968          	.word	0x00000968
     97c:	00004e8e          	.word	0x00004e8e
     980:	004d8d93          	addi	x27,x27,4
  addi x19, x19, SIG_STRIDE # increment data_ptr
     984:	00498993          	addi	x19,x19,4

# Testcase cmp_rd_rs1_nx0 (Test rd = rs1 = x2)
  addi x2, x19, 1065 # copy data_ptr to rs1 and adjust for offset
     988:	42998113          	addi	x2,x19,1065

0000098c <I_lh_cg_cmp_rd_rs1_nx0_b2>:
I_lh_cg_cmp_rd_rs1_nx0_b2:
  lh x2, -1065(x2) # perform load (0xd9770db8)
     98c:	bd711103          	lh	x2,-1065(x2)
  # Check if x2 contains the expected result. x27 is the signature ptr, x5 is the link ptr, x4 is a temp reg.
  RVTEST_SIGUPD(x27, x5, x4, x2, I_lh_cg_cmp_rd_rs1_nx0_b2, I_lh_cg_cmp_rd_rs1_nx0_b2_str)
     990:	000da203          	lw	x4,0(x27)
     994:	00220863          	beq	x4,x2,9a4 <I_lh_cg_cmp_rd_rs1_nx0_b2+0x18>
     998:	1a5002ef          	jal	x5,133c <failedtest_x5_x4>
     99c:	0000098c          	.word	0x0000098c
     9a0:	00004ec3          	.word	0x00004ec3
     9a4:	004d8d93          	addi	x27,x27,4
  addi x19, x19, SIG_STRIDE # increment data_ptr
     9a8:	00498993          	addi	x19,x19,4

# Testcase cmp_rd_rs1_nx0 (Test rd = rs1 = x3)
  addi x3, x19, 80 # copy data_ptr to rs1 and adjust for offset
     9ac:	05098193          	addi	x3,x19,80

000009b0 <I_lh_cg_cmp_rd_rs1_nx0_b3>:
I_lh_cg_cmp_rd_rs1_nx0_b3:
  lh x3, -80(x3) # perform load (0x0910ede0)
     9b0:	fb019183          	lh	x3,-80(x3)
  # Check if x3 contains the expected result. x27 is the signature ptr, x5 is the link ptr, x4 is a temp reg.
  RVTEST_SIGUPD(x27, x5, x4, x3, I_lh_cg_cmp_rd_rs1_nx0_b3, I_lh_cg_cmp_rd_rs1_nx0_b3_str)
     9b4:	000da203          	lw	x4,0(x27)
     9b8:	00320863          	beq	x4,x3,9c8 <I_lh_cg_cmp_rd_rs1_nx0_b3+0x18>
     9bc:	181002ef          	jal	x5,133c <failedtest_x5_x4>
     9c0:	000009b0          	.word	0x000009b0
     9c4:	00004ef8          	.word	0x00004ef8
     9c8:	004d8d93          	addi	x27,x27,4
  addi x19, x19, SIG_STRIDE # increment data_ptr
     9cc:	00498993          	addi	x19,x19,4

  mv x7, x4 # switch temp register to avoid conflict with test
     9d0:	00020393          	addi	x7,x4,0 # 0 <rvtest_entry_point>
  mv x8, x5 # switch link pointer register to avoid conflict with test
     9d4:	00028413          	addi	x8,x5,0
# Testcase cmp_rd_rs1_nx0 (Test rd = rs1 = x4)
  addi x4, x19, -1516 # copy data_ptr to rs1 and adjust for offset
     9d8:	a1498213          	addi	x4,x19,-1516

000009dc <I_lh_cg_cmp_rd_rs1_nx0_b4>:
I_lh_cg_cmp_rd_rs1_nx0_b4:
  lh x4, 1516(x4) # perform load (0x69088277)
     9dc:	5ec21203          	lh	x4,1516(x4) # 5ec <I_lh_cg_cp_rd_b7+0x14>
  # Check if x4 contains the expected result. x27 is the signature ptr, x8 is the link ptr, x7 is a temp reg.
  RVTEST_SIGUPD(x27, x8, x7, x4, I_lh_cg_cmp_rd_rs1_nx0_b4, I_lh_cg_cmp_rd_rs1_nx0_b4_str)
     9e0:	000da383          	lw	x7,0(x27)
     9e4:	00438863          	beq	x7,x4,9f4 <I_lh_cg_cmp_rd_rs1_nx0_b4+0x18>
     9e8:	16d0046f          	jal	x8,1354 <failedtest_x8_x7>
     9ec:	000009dc          	.word	0x000009dc
     9f0:	00004f2d          	.word	0x00004f2d
     9f4:	004d8d93          	addi	x27,x27,4
  addi x19, x19, SIG_STRIDE # increment data_ptr
     9f8:	00498993          	addi	x19,x19,4

# Testcase cmp_rd_rs1_nx0 (Test rd = rs1 = x5)
  addi x5, x19, 159 # copy data_ptr to rs1 and adjust for offset
     9fc:	09f98293          	addi	x5,x19,159

00000a00 <I_lh_cg_cmp_rd_rs1_nx0_b5>:
I_lh_cg_cmp_rd_rs1_nx0_b5:
  lh x5, -159(x5) # perform load (0x8d4b18bd)
     a00:	f6129283          	lh	x5,-159(x5)
  # Check if x5 contains the expected result. x27 is the signature ptr, x8 is the link ptr, x7 is a temp reg.
  RVTEST_SIGUPD(x27, x8, x7, x5, I_lh_cg_cmp_rd_rs1_nx0_b5, I_lh_cg_cmp_rd_rs1_nx0_b5_str)
     a04:	000da383          	lw	x7,0(x27)
     a08:	00538863          	beq	x7,x5,a18 <I_lh_cg_cmp_rd_rs1_nx0_b5+0x18>
     a0c:	1490046f          	jal	x8,1354 <failedtest_x8_x7>
     a10:	00000a00          	.word	0x00000a00
     a14:	00004f62          	.word	0x00004f62
     a18:	004d8d93          	addi	x27,x27,4
  addi x19, x19, SIG_STRIDE # increment data_ptr
     a1c:	00498993          	addi	x19,x19,4

# Testcase cmp_rd_rs1_nx0 (Test rd = rs1 = x6)
  addi x6, x19, 334 # copy data_ptr to rs1 and adjust for offset
     a20:	14e98313          	addi	x6,x19,334

00000a24 <I_lh_cg_cmp_rd_rs1_nx0_b6>:
I_lh_cg_cmp_rd_rs1_nx0_b6:
  lh x6, -334(x6) # perform load (0x89fd1de6)
     a24:	eb231303          	lh	x6,-334(x6)
  # Check if x6 contains the expected result. x27 is the signature ptr, x8 is the link ptr, x7 is a temp reg.
  RVTEST_SIGUPD(x27, x8, x7, x6, I_lh_cg_cmp_rd_rs1_nx0_b6, I_lh_cg_cmp_rd_rs1_nx0_b6_str)
     a28:	000da383          	lw	x7,0(x27)
     a2c:	00638863          	beq	x7,x6,a3c <I_lh_cg_cmp_rd_rs1_nx0_b6+0x18>
     a30:	1250046f          	jal	x8,1354 <failedtest_x8_x7>
     a34:	00000a24          	.word	0x00000a24
     a38:	00004f97          	.word	0x00004f97
     a3c:	004d8d93          	addi	x27,x27,4
  addi x19, x19, SIG_STRIDE # increment data_ptr
     a40:	00498993          	addi	x19,x19,4

  mv x4, x7 # switch temp register to avoid conflict with test
     a44:	00038213          	addi	x4,x7,0
  mv x5, x8 # switch link pointer register to avoid conflict with test
     a48:	00040293          	addi	x5,x8,0
# Testcase cmp_rd_rs1_nx0 (Test rd = rs1 = x7)
  addi x7, x19, 667 # copy data_ptr to rs1 and adjust for offset
     a4c:	29b98393          	addi	x7,x19,667

00000a50 <I_lh_cg_cmp_rd_rs1_nx0_b7>:
I_lh_cg_cmp_rd_rs1_nx0_b7:
  lh x7, -667(x7) # perform load (0x77298d2e)
     a50:	d6539383          	lh	x7,-667(x7)
  # Check if x7 contains the expected result. x27 is the signature ptr, x5 is the link ptr, x4 is a temp reg.
  RVTEST_SIGUPD(x27, x5, x4, x7, I_lh_cg_cmp_rd_rs1_nx0_b7, I_lh_cg_cmp_rd_rs1_nx0_b7_str)
     a54:	000da203          	lw	x4,0(x27)
     a58:	00720863          	beq	x4,x7,a68 <I_lh_cg_cmp_rd_rs1_nx0_b7+0x18>
     a5c:	0e1002ef          	jal	x5,133c <failedtest_x5_x4>
     a60:	00000a50          	.word	0x00000a50
     a64:	00004fcc          	.word	0x00004fcc
     a68:	004d8d93          	addi	x27,x27,4
  addi x19, x19, SIG_STRIDE # increment data_ptr
     a6c:	00498993          	addi	x19,x19,4

# Testcase cmp_rd_rs1_nx0 (Test rd = rs1 = x8)
  addi x8, x19, 1421 # copy data_ptr to rs1 and adjust for offset
     a70:	58d98413          	addi	x8,x19,1421

00000a74 <I_lh_cg_cmp_rd_rs1_nx0_b8>:
I_lh_cg_cmp_rd_rs1_nx0_b8:
  lh x8, -1421(x8) # perform load (0xd74c3453)
     a74:	a7341403          	lh	x8,-1421(x8)
  # Check if x8 contains the expected result. x27 is the signature ptr, x5 is the link ptr, x4 is a temp reg.
  RVTEST_SIGUPD(x27, x5, x4, x8, I_lh_cg_cmp_rd_rs1_nx0_b8, I_lh_cg_cmp_rd_rs1_nx0_b8_str)
     a78:	000da203          	lw	x4,0(x27)
     a7c:	00820863          	beq	x4,x8,a8c <I_lh_cg_cmp_rd_rs1_nx0_b8+0x18>
     a80:	0bd002ef          	jal	x5,133c <failedtest_x5_x4>
     a84:	00000a74          	.word	0x00000a74
     a88:	00005001          	.word	0x00005001
     a8c:	004d8d93          	addi	x27,x27,4
  addi x19, x19, SIG_STRIDE # increment data_ptr
     a90:	00498993          	addi	x19,x19,4

# Testcase cmp_rd_rs1_nx0 (Test rd = rs1 = x9)
  addi x9, x19, -937 # copy data_ptr to rs1 and adjust for offset
     a94:	c5798493          	addi	x9,x19,-937

00000a98 <I_lh_cg_cmp_rd_rs1_nx0_b9>:
I_lh_cg_cmp_rd_rs1_nx0_b9:
  lh x9, 937(x9) # perform load (0x2a2035e7)
     a98:	3a949483          	lh	x9,937(x9)
  # Check if x9 contains the expected result. x27 is the signature ptr, x5 is the link ptr, x4 is a temp reg.
  RVTEST_SIGUPD(x27, x5, x4, x9, I_lh_cg_cmp_rd_rs1_nx0_b9, I_lh_cg_cmp_rd_rs1_nx0_b9_str)
     a9c:	000da203          	lw	x4,0(x27)
     aa0:	00920863          	beq	x4,x9,ab0 <I_lh_cg_cmp_rd_rs1_nx0_b9+0x18>
     aa4:	099002ef          	jal	x5,133c <failedtest_x5_x4>
     aa8:	00000a98          	.word	0x00000a98
     aac:	00005036          	.word	0x00005036
     ab0:	004d8d93          	addi	x27,x27,4
  addi x19, x19, SIG_STRIDE # increment data_ptr
     ab4:	00498993          	addi	x19,x19,4

# Testcase cmp_rd_rs1_nx0 (Test rd = rs1 = x10)
  addi x10, x19, 666 # copy data_ptr to rs1 and adjust for offset
     ab8:	29a98513          	addi	x10,x19,666

00000abc <I_lh_cg_cmp_rd_rs1_nx0_b10>:
I_lh_cg_cmp_rd_rs1_nx0_b10:
  lh x10, -666(x10) # perform load (0x299f2806)
     abc:	d6651503          	lh	x10,-666(x10)
  # Check if x10 contains the expected result. x27 is the signature ptr, x5 is the link ptr, x4 is a temp reg.
  RVTEST_SIGUPD(x27, x5, x4, x10, I_lh_cg_cmp_rd_rs1_nx0_b10, I_lh_cg_cmp_rd_rs1_nx0_b10_str)
     ac0:	000da203          	lw	x4,0(x27)
     ac4:	00a20863          	beq	x4,x10,ad4 <I_lh_cg_cmp_rd_rs1_nx0_b10+0x18>
     ac8:	075002ef          	jal	x5,133c <failedtest_x5_x4>
     acc:	00000abc          	.word	0x00000abc
     ad0:	0000506b          	.word	0x0000506b
     ad4:	004d8d93          	addi	x27,x27,4
  addi x19, x19, SIG_STRIDE # increment data_ptr
     ad8:	00498993          	addi	x19,x19,4

# Testcase cmp_rd_rs1_nx0 (Test rd = rs1 = x11)
  addi x11, x19, -345 # copy data_ptr to rs1 and adjust for offset
     adc:	ea798593          	addi	x11,x19,-345

00000ae0 <I_lh_cg_cmp_rd_rs1_nx0_b11>:
I_lh_cg_cmp_rd_rs1_nx0_b11:
  lh x11, 345(x11) # perform load (0xa00a7c0b)
     ae0:	15959583          	lh	x11,345(x11)
  # Check if x11 contains the expected result. x27 is the signature ptr, x5 is the link ptr, x4 is a temp reg.
  RVTEST_SIGUPD(x27, x5, x4, x11, I_lh_cg_cmp_rd_rs1_nx0_b11, I_lh_cg_cmp_rd_rs1_nx0_b11_str)
     ae4:	000da203          	lw	x4,0(x27)
     ae8:	00b20863          	beq	x4,x11,af8 <I_lh_cg_cmp_rd_rs1_nx0_b11+0x18>
     aec:	051002ef          	jal	x5,133c <failedtest_x5_x4>
     af0:	00000ae0          	.word	0x00000ae0
     af4:	000050a1          	.word	0x000050a1
     af8:	004d8d93          	addi	x27,x27,4
  addi x19, x19, SIG_STRIDE # increment data_ptr
     afc:	00498993          	addi	x19,x19,4

# Testcase cmp_rd_rs1_nx0 (Test rd = rs1 = x12)
  addi x12, x19, -1132 # copy data_ptr to rs1 and adjust for offset
     b00:	b9498613          	addi	x12,x19,-1132

00000b04 <I_lh_cg_cmp_rd_rs1_nx0_b12>:
I_lh_cg_cmp_rd_rs1_nx0_b12:
  lh x12, 1132(x12) # perform load (0x9aa80eed)
     b04:	46c61603          	lh	x12,1132(x12)
  # Check if x12 contains the expected result. x27 is the signature ptr, x5 is the link ptr, x4 is a temp reg.
  RVTEST_SIGUPD(x27, x5, x4, x12, I_lh_cg_cmp_rd_rs1_nx0_b12, I_lh_cg_cmp_rd_rs1_nx0_b12_str)
     b08:	000da203          	lw	x4,0(x27)
     b0c:	00c20863          	beq	x4,x12,b1c <I_lh_cg_cmp_rd_rs1_nx0_b12+0x18>
     b10:	02d002ef          	jal	x5,133c <failedtest_x5_x4>
     b14:	00000b04          	.word	0x00000b04
     b18:	000050d7          	.word	0x000050d7
     b1c:	004d8d93          	addi	x27,x27,4
  addi x19, x19, SIG_STRIDE # increment data_ptr
     b20:	00498993          	addi	x19,x19,4

# Testcase cmp_rd_rs1_nx0 (Test rd = rs1 = x13)
  addi x13, x19, 853 # copy data_ptr to rs1 and adjust for offset
     b24:	35598693          	addi	x13,x19,853

00000b28 <I_lh_cg_cmp_rd_rs1_nx0_b13>:
I_lh_cg_cmp_rd_rs1_nx0_b13:
  lh x13, -853(x13) # perform load (0x3ed545a2)
     b28:	cab69683          	lh	x13,-853(x13)
  # Check if x13 contains the expected result. x27 is the signature ptr, x5 is the link ptr, x4 is a temp reg.
  RVTEST_SIGUPD(x27, x5, x4, x13, I_lh_cg_cmp_rd_rs1_nx0_b13, I_lh_cg_cmp_rd_rs1_nx0_b13_str)
     b2c:	000da203          	lw	x4,0(x27)
     b30:	00d20863          	beq	x4,x13,b40 <I_lh_cg_cmp_rd_rs1_nx0_b13+0x18>
     b34:	009002ef          	jal	x5,133c <failedtest_x5_x4>
     b38:	00000b28          	.word	0x00000b28
     b3c:	0000510d          	.word	0x0000510d
     b40:	004d8d93          	addi	x27,x27,4
  addi x19, x19, SIG_STRIDE # increment data_ptr
     b44:	00498993          	addi	x19,x19,4

# Testcase cmp_rd_rs1_nx0 (Test rd = rs1 = x14)
  addi x14, x19, 58 # copy data_ptr to rs1 and adjust for offset
     b48:	03a98713          	addi	x14,x19,58

00000b4c <I_lh_cg_cmp_rd_rs1_nx0_b14>:
I_lh_cg_cmp_rd_rs1_nx0_b14:
  lh x14, -58(x14) # perform load (0xa2f83201)
     b4c:	fc671703          	lh	x14,-58(x14)
  # Check if x14 contains the expected result. x27 is the signature ptr, x5 is the link ptr, x4 is a temp reg.
  RVTEST_SIGUPD(x27, x5, x4, x14, I_lh_cg_cmp_rd_rs1_nx0_b14, I_lh_cg_cmp_rd_rs1_nx0_b14_str)
     b50:	000da203          	lw	x4,0(x27)
     b54:	00e20863          	beq	x4,x14,b64 <I_lh_cg_cmp_rd_rs1_nx0_b14+0x18>
     b58:	7e4002ef          	jal	x5,133c <failedtest_x5_x4>
     b5c:	00000b4c          	.word	0x00000b4c
     b60:	00005143          	.word	0x00005143
     b64:	004d8d93          	addi	x27,x27,4
  addi x19, x19, SIG_STRIDE # increment data_ptr
     b68:	00498993          	addi	x19,x19,4

# Testcase cmp_rd_rs1_nx0 (Test rd = rs1 = x15)
  addi x15, x19, 1515 # copy data_ptr to rs1 and adjust for offset
     b6c:	5eb98793          	addi	x15,x19,1515

00000b70 <I_lh_cg_cmp_rd_rs1_nx0_b15>:
I_lh_cg_cmp_rd_rs1_nx0_b15:
  lh x15, -1515(x15) # perform load (0x31a846bb)
     b70:	a1579783          	lh	x15,-1515(x15)
  # Check if x15 contains the expected result. x27 is the signature ptr, x5 is the link ptr, x4 is a temp reg.
  RVTEST_SIGUPD(x27, x5, x4, x15, I_lh_cg_cmp_rd_rs1_nx0_b15, I_lh_cg_cmp_rd_rs1_nx0_b15_str)
     b74:	000da203          	lw	x4,0(x27)
     b78:	00f20863          	beq	x4,x15,b88 <I_lh_cg_cmp_rd_rs1_nx0_b15+0x18>
     b7c:	7c0002ef          	jal	x5,133c <failedtest_x5_x4>
     b80:	00000b70          	.word	0x00000b70
     b84:	00005179          	.word	0x00005179
     b88:	004d8d93          	addi	x27,x27,4
  addi x19, x19, SIG_STRIDE # increment data_ptr
     b8c:	00498993          	addi	x19,x19,4

# Testcase cmp_rd_rs1_nx0 (Test rd = rs1 = x16)
  addi x16, x19, -1159 # copy data_ptr to rs1 and adjust for offset
     b90:	b7998813          	addi	x16,x19,-1159

00000b94 <I_lh_cg_cmp_rd_rs1_nx0_b16>:
I_lh_cg_cmp_rd_rs1_nx0_b16:
  lh x16, 1159(x16) # perform load (0xe3d815f9)
     b94:	48781803          	lh	x16,1159(x16)
  # Check if x16 contains the expected result. x27 is the signature ptr, x5 is the link ptr, x4 is a temp reg.
  RVTEST_SIGUPD(x27, x5, x4, x16, I_lh_cg_cmp_rd_rs1_nx0_b16, I_lh_cg_cmp_rd_rs1_nx0_b16_str)
     b98:	000da203          	lw	x4,0(x27)
     b9c:	01020863          	beq	x4,x16,bac <I_lh_cg_cmp_rd_rs1_nx0_b16+0x18>
     ba0:	79c002ef          	jal	x5,133c <failedtest_x5_x4>
     ba4:	00000b94          	.word	0x00000b94
     ba8:	000051af          	.word	0x000051af
     bac:	004d8d93          	addi	x27,x27,4
  addi x19, x19, SIG_STRIDE # increment data_ptr
     bb0:	00498993          	addi	x19,x19,4

# Testcase cmp_rd_rs1_nx0 (Test rd = rs1 = x17)
  addi x17, x19, 2034 # copy data_ptr to rs1 and adjust for offset
     bb4:	7f298893          	addi	x17,x19,2034

00000bb8 <I_lh_cg_cmp_rd_rs1_nx0_b17>:
I_lh_cg_cmp_rd_rs1_nx0_b17:
  lh x17, -2034(x17) # perform load (0xb359a59d)
     bb8:	80e89883          	lh	x17,-2034(x17)
  # Check if x17 contains the expected result. x27 is the signature ptr, x5 is the link ptr, x4 is a temp reg.
  RVTEST_SIGUPD(x27, x5, x4, x17, I_lh_cg_cmp_rd_rs1_nx0_b17, I_lh_cg_cmp_rd_rs1_nx0_b17_str)
     bbc:	000da203          	lw	x4,0(x27)
     bc0:	01120863          	beq	x4,x17,bd0 <I_lh_cg_cmp_rd_rs1_nx0_b17+0x18>
     bc4:	778002ef          	jal	x5,133c <failedtest_x5_x4>
     bc8:	00000bb8          	.word	0x00000bb8
     bcc:	000051e5          	.word	0x000051e5
     bd0:	004d8d93          	addi	x27,x27,4
  addi x19, x19, SIG_STRIDE # increment data_ptr
     bd4:	00498993          	addi	x19,x19,4

# Testcase cmp_rd_rs1_nx0 (Test rd = rs1 = x18)
  addi x18, x19, -104 # copy data_ptr to rs1 and adjust for offset
     bd8:	f9898913          	addi	x18,x19,-104

00000bdc <I_lh_cg_cmp_rd_rs1_nx0_b18>:
I_lh_cg_cmp_rd_rs1_nx0_b18:
  lh x18, 104(x18) # perform load (0x4cff7c7f)
     bdc:	06891903          	lh	x18,104(x18)
  # Check if x18 contains the expected result. x27 is the signature ptr, x5 is the link ptr, x4 is a temp reg.
  RVTEST_SIGUPD(x27, x5, x4, x18, I_lh_cg_cmp_rd_rs1_nx0_b18, I_lh_cg_cmp_rd_rs1_nx0_b18_str)
     be0:	000da203          	lw	x4,0(x27)
     be4:	01220863          	beq	x4,x18,bf4 <I_lh_cg_cmp_rd_rs1_nx0_b18+0x18>
     be8:	754002ef          	jal	x5,133c <failedtest_x5_x4>
     bec:	00000bdc          	.word	0x00000bdc
     bf0:	0000521b          	.word	0x0000521b
     bf4:	004d8d93          	addi	x27,x27,4
  addi x19, x19, SIG_STRIDE # increment data_ptr
     bf8:	00498993          	addi	x19,x19,4

  mv x11, x19 # switch data pointer register to avoid conflict with test
     bfc:	00098593          	addi	x11,x19,0
# Testcase cmp_rd_rs1_nx0 (Test rd = rs1 = x19)
  addi x19, x11, 1902 # copy data_ptr to rs1 and adjust for offset
     c00:	76e58993          	addi	x19,x11,1902

00000c04 <I_lh_cg_cmp_rd_rs1_nx0_b19>:
I_lh_cg_cmp_rd_rs1_nx0_b19:
  lh x19, -1902(x19) # perform load (0x5b62fab9)
     c04:	89299983          	lh	x19,-1902(x19)
  # Check if x19 contains the expected result. x27 is the signature ptr, x5 is the link ptr, x4 is a temp reg.
  RVTEST_SIGUPD(x27, x5, x4, x19, I_lh_cg_cmp_rd_rs1_nx0_b19, I_lh_cg_cmp_rd_rs1_nx0_b19_str)
     c08:	000da203          	lw	x4,0(x27)
     c0c:	01320863          	beq	x4,x19,c1c <I_lh_cg_cmp_rd_rs1_nx0_b19+0x18>
     c10:	72c002ef          	jal	x5,133c <failedtest_x5_x4>
     c14:	00000c04          	.word	0x00000c04
     c18:	00005251          	.word	0x00005251
     c1c:	004d8d93          	addi	x27,x27,4
  addi x11, x11, SIG_STRIDE # increment data_ptr
     c20:	00458593          	addi	x11,x11,4

# Testcase cmp_rd_rs1_nx0 (Test rd = rs1 = x20)
  addi x20, x11, 1361 # copy data_ptr to rs1 and adjust for offset
     c24:	55158a13          	addi	x20,x11,1361

00000c28 <I_lh_cg_cmp_rd_rs1_nx0_b20>:
I_lh_cg_cmp_rd_rs1_nx0_b20:
  lh x20, -1361(x20) # perform load (0xcabaf178)
     c28:	aafa1a03          	lh	x20,-1361(x20)
  # Check if x20 contains the expected result. x27 is the signature ptr, x5 is the link ptr, x4 is a temp reg.
  RVTEST_SIGUPD(x27, x5, x4, x20, I_lh_cg_cmp_rd_rs1_nx0_b20, I_lh_cg_cmp_rd_rs1_nx0_b20_str)
     c2c:	000da203          	lw	x4,0(x27)
     c30:	01420863          	beq	x4,x20,c40 <I_lh_cg_cmp_rd_rs1_nx0_b20+0x18>
     c34:	708002ef          	jal	x5,133c <failedtest_x5_x4>
     c38:	00000c28          	.word	0x00000c28
     c3c:	00005287          	.word	0x00005287
     c40:	004d8d93          	addi	x27,x27,4
  addi x11, x11, SIG_STRIDE # increment data_ptr
     c44:	00458593          	addi	x11,x11,4

# Testcase cmp_rd_rs1_nx0 (Test rd = rs1 = x21)
  addi x21, x11, 1475 # copy data_ptr to rs1 and adjust for offset
     c48:	5c358a93          	addi	x21,x11,1475

00000c4c <I_lh_cg_cmp_rd_rs1_nx0_b21>:
I_lh_cg_cmp_rd_rs1_nx0_b21:
  lh x21, -1475(x21) # perform load (0x9ae143a5)
     c4c:	a3da9a83          	lh	x21,-1475(x21)
  # Check if x21 contains the expected result. x27 is the signature ptr, x5 is the link ptr, x4 is a temp reg.
  RVTEST_SIGUPD(x27, x5, x4, x21, I_lh_cg_cmp_rd_rs1_nx0_b21, I_lh_cg_cmp_rd_rs1_nx0_b21_str)
     c50:	000da203          	lw	x4,0(x27)
     c54:	01520863          	beq	x4,x21,c64 <I_lh_cg_cmp_rd_rs1_nx0_b21+0x18>
     c58:	6e4002ef          	jal	x5,133c <failedtest_x5_x4>
     c5c:	00000c4c          	.word	0x00000c4c
     c60:	000052bd          	.word	0x000052bd
     c64:	004d8d93          	addi	x27,x27,4
  addi x11, x11, SIG_STRIDE # increment data_ptr
     c68:	00458593          	addi	x11,x11,4

# Testcase cmp_rd_rs1_nx0 (Test rd = rs1 = x22)
  addi x22, x11, -1634 # copy data_ptr to rs1 and adjust for offset
     c6c:	99e58b13          	addi	x22,x11,-1634

00000c70 <I_lh_cg_cmp_rd_rs1_nx0_b22>:
I_lh_cg_cmp_rd_rs1_nx0_b22:
  lh x22, 1634(x22) # perform load (0xa45285b4)
     c70:	662b1b03          	lh	x22,1634(x22)
  # Check if x22 contains the expected result. x27 is the signature ptr, x5 is the link ptr, x4 is a temp reg.
  RVTEST_SIGUPD(x27, x5, x4, x22, I_lh_cg_cmp_rd_rs1_nx0_b22, I_lh_cg_cmp_rd_rs1_nx0_b22_str)
     c74:	000da203          	lw	x4,0(x27)
     c78:	01620863          	beq	x4,x22,c88 <I_lh_cg_cmp_rd_rs1_nx0_b22+0x18>
     c7c:	6c0002ef          	jal	x5,133c <failedtest_x5_x4>
     c80:	00000c70          	.word	0x00000c70
     c84:	000052f3          	.word	0x000052f3
     c88:	004d8d93          	addi	x27,x27,4
  addi x11, x11, SIG_STRIDE # increment data_ptr
     c8c:	00458593          	addi	x11,x11,4

# Testcase cmp_rd_rs1_nx0 (Test rd = rs1 = x23)
  addi x23, x11, 782 # copy data_ptr to rs1 and adjust for offset
     c90:	30e58b93          	addi	x23,x11,782

00000c94 <I_lh_cg_cmp_rd_rs1_nx0_b23>:
I_lh_cg_cmp_rd_rs1_nx0_b23:
  lh x23, -782(x23) # perform load (0xabda3414)
     c94:	cf2b9b83          	lh	x23,-782(x23)
  # Check if x23 contains the expected result. x27 is the signature ptr, x5 is the link ptr, x4 is a temp reg.
  RVTEST_SIGUPD(x27, x5, x4, x23, I_lh_cg_cmp_rd_rs1_nx0_b23, I_lh_cg_cmp_rd_rs1_nx0_b23_str)
     c98:	000da203          	lw	x4,0(x27)
     c9c:	01720863          	beq	x4,x23,cac <I_lh_cg_cmp_rd_rs1_nx0_b23+0x18>
     ca0:	69c002ef          	jal	x5,133c <failedtest_x5_x4>
     ca4:	00000c94          	.word	0x00000c94
     ca8:	00005329          	.word	0x00005329
     cac:	004d8d93          	addi	x27,x27,4
  addi x11, x11, SIG_STRIDE # increment data_ptr
     cb0:	00458593          	addi	x11,x11,4

# Testcase cmp_rd_rs1_nx0 (Test rd = rs1 = x24)
  addi x24, x11, -133 # copy data_ptr to rs1 and adjust for offset
     cb4:	f7b58c13          	addi	x24,x11,-133

00000cb8 <I_lh_cg_cmp_rd_rs1_nx0_b24>:
I_lh_cg_cmp_rd_rs1_nx0_b24:
  lh x24, 133(x24) # perform load (0x61e1f087)
     cb8:	085c1c03          	lh	x24,133(x24)
  # Check if x24 contains the expected result. x27 is the signature ptr, x5 is the link ptr, x4 is a temp reg.
  RVTEST_SIGUPD(x27, x5, x4, x24, I_lh_cg_cmp_rd_rs1_nx0_b24, I_lh_cg_cmp_rd_rs1_nx0_b24_str)
     cbc:	000da203          	lw	x4,0(x27)
     cc0:	01820863          	beq	x4,x24,cd0 <I_lh_cg_cmp_rd_rs1_nx0_b24+0x18>
     cc4:	678002ef          	jal	x5,133c <failedtest_x5_x4>
     cc8:	00000cb8          	.word	0x00000cb8
     ccc:	0000535f          	.word	0x0000535f
     cd0:	004d8d93          	addi	x27,x27,4
  addi x11, x11, SIG_STRIDE # increment data_ptr
     cd4:	00458593          	addi	x11,x11,4

# Testcase cmp_rd_rs1_nx0 (Test rd = rs1 = x25)
  addi x25, x11, -1297 # copy data_ptr to rs1 and adjust for offset
     cd8:	aef58c93          	addi	x25,x11,-1297

00000cdc <I_lh_cg_cmp_rd_rs1_nx0_b25>:
I_lh_cg_cmp_rd_rs1_nx0_b25:
  lh x25, 1297(x25) # perform load (0x2ecac380)
     cdc:	511c9c83          	lh	x25,1297(x25)
  # Check if x25 contains the expected result. x27 is the signature ptr, x5 is the link ptr, x4 is a temp reg.
  RVTEST_SIGUPD(x27, x5, x4, x25, I_lh_cg_cmp_rd_rs1_nx0_b25, I_lh_cg_cmp_rd_rs1_nx0_b25_str)
     ce0:	000da203          	lw	x4,0(x27)
     ce4:	01920863          	beq	x4,x25,cf4 <I_lh_cg_cmp_rd_rs1_nx0_b25+0x18>
     ce8:	654002ef          	jal	x5,133c <failedtest_x5_x4>
     cec:	00000cdc          	.word	0x00000cdc
     cf0:	00005395          	.word	0x00005395
     cf4:	004d8d93          	addi	x27,x27,4
  addi x11, x11, SIG_STRIDE # increment data_ptr
     cf8:	00458593          	addi	x11,x11,4

# Testcase cmp_rd_rs1_nx0 (Test rd = rs1 = x26)
  addi x26, x11, 1153 # copy data_ptr to rs1 and adjust for offset
     cfc:	48158d13          	addi	x26,x11,1153

00000d00 <I_lh_cg_cmp_rd_rs1_nx0_b26>:
I_lh_cg_cmp_rd_rs1_nx0_b26:
  lh x26, -1153(x26) # perform load (0x161efd11)
     d00:	b7fd1d03          	lh	x26,-1153(x26)
  # Check if x26 contains the expected result. x27 is the signature ptr, x5 is the link ptr, x4 is a temp reg.
  RVTEST_SIGUPD(x27, x5, x4, x26, I_lh_cg_cmp_rd_rs1_nx0_b26, I_lh_cg_cmp_rd_rs1_nx0_b26_str)
     d04:	000da203          	lw	x4,0(x27)
     d08:	01a20863          	beq	x4,x26,d18 <I_lh_cg_cmp_rd_rs1_nx0_b26+0x18>
     d0c:	630002ef          	jal	x5,133c <failedtest_x5_x4>
     d10:	00000d00          	.word	0x00000d00
     d14:	000053cb          	.word	0x000053cb
     d18:	004d8d93          	addi	x27,x27,4
  addi x11, x11, SIG_STRIDE # increment data_ptr
     d1c:	00458593          	addi	x11,x11,4

  mv x10, x27 # switch signature pointer register to avoid conflict with test
     d20:	000d8513          	addi	x10,x27,0
# Testcase cmp_rd_rs1_nx0 (Test rd = rs1 = x27)
  addi x27, x11, 1972 # copy data_ptr to rs1 and adjust for offset
     d24:	7b458d93          	addi	x27,x11,1972

00000d28 <I_lh_cg_cmp_rd_rs1_nx0_b27>:
I_lh_cg_cmp_rd_rs1_nx0_b27:
  lh x27, -1972(x27) # perform load (0xbfa870f8)
     d28:	84cd9d83          	lh	x27,-1972(x27)
  # Check if x27 contains the expected result. x10 is the signature ptr, x5 is the link ptr, x4 is a temp reg.
  RVTEST_SIGUPD(x10, x5, x4, x27, I_lh_cg_cmp_rd_rs1_nx0_b27, I_lh_cg_cmp_rd_rs1_nx0_b27_str)
     d2c:	00052203          	lw	x4,0(x10)
     d30:	01b20863          	beq	x4,x27,d40 <I_lh_cg_cmp_rd_rs1_nx0_b27+0x18>
     d34:	608002ef          	jal	x5,133c <failedtest_x5_x4>
     d38:	00000d28          	.word	0x00000d28
     d3c:	00005401          	.word	0x00005401
     d40:	00450513          	addi	x10,x10,4
  addi x11, x11, SIG_STRIDE # increment data_ptr
     d44:	00458593          	addi	x11,x11,4

# Testcase cmp_rd_rs1_nx0 (Test rd = rs1 = x28)
  addi x28, x11, 141 # copy data_ptr to rs1 and adjust for offset
     d48:	08d58e13          	addi	x28,x11,141

00000d4c <I_lh_cg_cmp_rd_rs1_nx0_b28>:
I_lh_cg_cmp_rd_rs1_nx0_b28:
  lh x28, -141(x28) # perform load (0xceef5e80)
     d4c:	f73e1e03          	lh	x28,-141(x28)
  # Check if x28 contains the expected result. x10 is the signature ptr, x5 is the link ptr, x4 is a temp reg.
  RVTEST_SIGUPD(x10, x5, x4, x28, I_lh_cg_cmp_rd_rs1_nx0_b28, I_lh_cg_cmp_rd_rs1_nx0_b28_str)
     d50:	00052203          	lw	x4,0(x10)
     d54:	01c20863          	beq	x4,x28,d64 <I_lh_cg_cmp_rd_rs1_nx0_b28+0x18>
     d58:	5e4002ef          	jal	x5,133c <failedtest_x5_x4>
     d5c:	00000d4c          	.word	0x00000d4c
     d60:	00005437          	.word	0x00005437
     d64:	00450513          	addi	x10,x10,4
  addi x11, x11, SIG_STRIDE # increment data_ptr
     d68:	00458593          	addi	x11,x11,4

# Testcase cmp_rd_rs1_nx0 (Test rd = rs1 = x29)
  addi x29, x11, 1500 # copy data_ptr to rs1 and adjust for offset
     d6c:	5dc58e93          	addi	x29,x11,1500

00000d70 <I_lh_cg_cmp_rd_rs1_nx0_b29>:
I_lh_cg_cmp_rd_rs1_nx0_b29:
  lh x29, -1500(x29) # perform load (0xd54d8db2)
     d70:	a24e9e83          	lh	x29,-1500(x29)
  # Check if x29 contains the expected result. x10 is the signature ptr, x5 is the link ptr, x4 is a temp reg.
  RVTEST_SIGUPD(x10, x5, x4, x29, I_lh_cg_cmp_rd_rs1_nx0_b29, I_lh_cg_cmp_rd_rs1_nx0_b29_str)
     d74:	00052203          	lw	x4,0(x10)
     d78:	01d20863          	beq	x4,x29,d88 <I_lh_cg_cmp_rd_rs1_nx0_b29+0x18>
     d7c:	5c0002ef          	jal	x5,133c <failedtest_x5_x4>
     d80:	00000d70          	.word	0x00000d70
     d84:	0000546d          	.word	0x0000546d
     d88:	00450513          	addi	x10,x10,4
  addi x11, x11, SIG_STRIDE # increment data_ptr
     d8c:	00458593          	addi	x11,x11,4

# Testcase cmp_rd_rs1_nx0 (Test rd = rs1 = x30)
  addi x30, x11, -1056 # copy data_ptr to rs1 and adjust for offset
     d90:	be058f13          	addi	x30,x11,-1056

00000d94 <I_lh_cg_cmp_rd_rs1_nx0_b30>:
I_lh_cg_cmp_rd_rs1_nx0_b30:
  lh x30, 1056(x30) # perform load (0x7e795682)
     d94:	420f1f03          	lh	x30,1056(x30)
  # Check if x30 contains the expected result. x10 is the signature ptr, x5 is the link ptr, x4 is a temp reg.
  RVTEST_SIGUPD(x10, x5, x4, x30, I_lh_cg_cmp_rd_rs1_nx0_b30, I_lh_cg_cmp_rd_rs1_nx0_b30_str)
     d98:	00052203          	lw	x4,0(x10)
     d9c:	01e20863          	beq	x4,x30,dac <I_lh_cg_cmp_rd_rs1_nx0_b30+0x18>
     da0:	59c002ef          	jal	x5,133c <failedtest_x5_x4>
     da4:	00000d94          	.word	0x00000d94
     da8:	000054a3          	.word	0x000054a3
     dac:	00450513          	addi	x10,x10,4
  addi x11, x11, SIG_STRIDE # increment data_ptr
     db0:	00458593          	addi	x11,x11,4

# Testcase cmp_rd_rs1_nx0 (Test rd = rs1 = x31)
  addi x31, x11, 1579 # copy data_ptr to rs1 and adjust for offset
     db4:	62b58f93          	addi	x31,x11,1579

00000db8 <I_lh_cg_cmp_rd_rs1_nx0_b31>:
I_lh_cg_cmp_rd_rs1_nx0_b31:
  lh x31, -1579(x31) # perform load (0x043174fc)
     db8:	9d5f9f83          	lh	x31,-1579(x31)
  # Check if x31 contains the expected result. x10 is the signature ptr, x5 is the link ptr, x4 is a temp reg.
  RVTEST_SIGUPD(x10, x5, x4, x31, I_lh_cg_cmp_rd_rs1_nx0_b31, I_lh_cg_cmp_rd_rs1_nx0_b31_str)
     dbc:	00052203          	lw	x4,0(x10)
     dc0:	01f20863          	beq	x4,x31,dd0 <I_lh_cg_cmp_rd_rs1_nx0_b31+0x18>
     dc4:	578002ef          	jal	x5,133c <failedtest_x5_x4>
     dc8:	00000db8          	.word	0x00000db8
     dcc:	000054d9          	.word	0x000054d9
     dd0:	00450513          	addi	x10,x10,4
  addi x11, x11, SIG_STRIDE # increment data_ptr
     dd4:	00458593          	addi	x11,x11,4
/////////////////////////////////
// cp_imm_edges
/////////////////////////////////

# Testcase cp_imm_edges (imm = 0)
  addi x20, x11, 0 # copy data_ptr to rs1 and adjust for offset
     dd8:	00058a13          	addi	x20,x11,0

00000ddc <I_lh_cg_cp_imm_edges_0x0>:
I_lh_cg_cp_imm_edges_0x0:
  lh x2, 0(x20) # perform load (0x14b8c3dc)
     ddc:	000a1103          	lh	x2,0(x20)
  # Check if x2 contains the expected result. x10 is the signature ptr, x5 is the link ptr, x4 is a temp reg.
  RVTEST_SIGUPD(x10, x5, x4, x2, I_lh_cg_cp_imm_edges_0x0, I_lh_cg_cp_imm_edges_0x0_str)
     de0:	00052203          	lw	x4,0(x10)
     de4:	00220863          	beq	x4,x2,df4 <I_lh_cg_cp_imm_edges_0x0+0x18>
     de8:	554002ef          	jal	x5,133c <failedtest_x5_x4>
     dec:	00000ddc          	.word	0x00000ddc
     df0:	0000550f          	.word	0x0000550f
     df4:	00450513          	addi	x10,x10,4
  addi x11, x11, SIG_STRIDE # increment data_ptr
     df8:	00458593          	addi	x11,x11,4

# Testcase cp_imm_edges (imm = 1)
  addi x20, x11, -1 # copy data_ptr to rs1 and adjust for offset
     dfc:	fff58a13          	addi	x20,x11,-1

00000e00 <I_lh_cg_cp_imm_edges_0x1>:
I_lh_cg_cp_imm_edges_0x1:
  lh x15, 1(x20) # perform load (0x9e169cd6)
     e00:	001a1783          	lh	x15,1(x20)
  # Check if x15 contains the expected result. x10 is the signature ptr, x5 is the link ptr, x4 is a temp reg.
  RVTEST_SIGUPD(x10, x5, x4, x15, I_lh_cg_cp_imm_edges_0x1, I_lh_cg_cp_imm_edges_0x1_str)
     e04:	00052203          	lw	x4,0(x10)
     e08:	00f20863          	beq	x4,x15,e18 <I_lh_cg_cp_imm_edges_0x1+0x18>
     e0c:	530002ef          	jal	x5,133c <failedtest_x5_x4>
     e10:	00000e00          	.word	0x00000e00
     e14:	00005543          	.word	0x00005543
     e18:	00450513          	addi	x10,x10,4
  addi x11, x11, SIG_STRIDE # increment data_ptr
     e1c:	00458593          	addi	x11,x11,4

# Testcase cp_imm_edges (imm = 2)
  addi x15, x11, -2 # copy data_ptr to rs1 and adjust for offset
     e20:	ffe58793          	addi	x15,x11,-2

00000e24 <I_lh_cg_cp_imm_edges_0x2>:
I_lh_cg_cp_imm_edges_0x2:
  lh x17, 2(x15) # perform load (0x25dac4b0)
     e24:	00279883          	lh	x17,2(x15)
  # Check if x17 contains the expected result. x10 is the signature ptr, x5 is the link ptr, x4 is a temp reg.
  RVTEST_SIGUPD(x10, x5, x4, x17, I_lh_cg_cp_imm_edges_0x2, I_lh_cg_cp_imm_edges_0x2_str)
     e28:	00052203          	lw	x4,0(x10)
     e2c:	01120863          	beq	x4,x17,e3c <I_lh_cg_cp_imm_edges_0x2+0x18>
     e30:	50c002ef          	jal	x5,133c <failedtest_x5_x4>
     e34:	00000e24          	.word	0x00000e24
     e38:	00005577          	.word	0x00005577
     e3c:	00450513          	addi	x10,x10,4
  addi x11, x11, SIG_STRIDE # increment data_ptr
     e40:	00458593          	addi	x11,x11,4

# Testcase cp_imm_edges (imm = 3)
  addi x30, x11, -3 # copy data_ptr to rs1 and adjust for offset
     e44:	ffd58f13          	addi	x30,x11,-3

00000e48 <I_lh_cg_cp_imm_edges_0x3>:
I_lh_cg_cp_imm_edges_0x3:
  lh x21, 3(x30) # perform load (0x3fe042a8)
     e48:	003f1a83          	lh	x21,3(x30)
  # Check if x21 contains the expected result. x10 is the signature ptr, x5 is the link ptr, x4 is a temp reg.
  RVTEST_SIGUPD(x10, x5, x4, x21, I_lh_cg_cp_imm_edges_0x3, I_lh_cg_cp_imm_edges_0x3_str)
     e4c:	00052203          	lw	x4,0(x10)
     e50:	01520863          	beq	x4,x21,e60 <I_lh_cg_cp_imm_edges_0x3+0x18>
     e54:	4e8002ef          	jal	x5,133c <failedtest_x5_x4>
     e58:	00000e48          	.word	0x00000e48
     e5c:	000055ab          	.word	0x000055ab
     e60:	00450513          	addi	x10,x10,4
  addi x11, x11, SIG_STRIDE # increment data_ptr
     e64:	00458593          	addi	x11,x11,4

# Testcase cp_imm_edges (imm = 4)
  addi x29, x11, -4 # copy data_ptr to rs1 and adjust for offset
     e68:	ffc58e93          	addi	x29,x11,-4

00000e6c <I_lh_cg_cp_imm_edges_0x4>:
I_lh_cg_cp_imm_edges_0x4:
  lh x20, 4(x29) # perform load (0xb0c9aed6)
     e6c:	004e9a03          	lh	x20,4(x29)
  # Check if x20 contains the expected result. x10 is the signature ptr, x5 is the link ptr, x4 is a temp reg.
  RVTEST_SIGUPD(x10, x5, x4, x20, I_lh_cg_cp_imm_edges_0x4, I_lh_cg_cp_imm_edges_0x4_str)
     e70:	00052203          	lw	x4,0(x10)
     e74:	01420863          	beq	x4,x20,e84 <I_lh_cg_cp_imm_edges_0x4+0x18>
     e78:	4c4002ef          	jal	x5,133c <failedtest_x5_x4>
     e7c:	00000e6c          	.word	0x00000e6c
     e80:	000055df          	.word	0x000055df
     e84:	00450513          	addi	x10,x10,4
  addi x11, x11, SIG_STRIDE # increment data_ptr
     e88:	00458593          	addi	x11,x11,4

# Testcase cp_imm_edges (imm = 8)
  addi x1, x11, -8 # copy data_ptr to rs1 and adjust for offset
     e8c:	ff858093          	addi	x1,x11,-8

00000e90 <I_lh_cg_cp_imm_edges_0x8>:
I_lh_cg_cp_imm_edges_0x8:
  lh x7, 8(x1) # perform load (0x8bb04741)
     e90:	00809383          	lh	x7,8(x1)
  # Check if x7 contains the expected result. x10 is the signature ptr, x5 is the link ptr, x4 is a temp reg.
  RVTEST_SIGUPD(x10, x5, x4, x7, I_lh_cg_cp_imm_edges_0x8, I_lh_cg_cp_imm_edges_0x8_str)
     e94:	00052203          	lw	x4,0(x10)
     e98:	00720863          	beq	x4,x7,ea8 <I_lh_cg_cp_imm_edges_0x8+0x18>
     e9c:	4a0002ef          	jal	x5,133c <failedtest_x5_x4>
     ea0:	00000e90          	.word	0x00000e90
     ea4:	00005613          	.word	0x00005613
     ea8:	00450513          	addi	x10,x10,4
  addi x11, x11, SIG_STRIDE # increment data_ptr
     eac:	00458593          	addi	x11,x11,4

# Testcase cp_imm_edges (imm = 16)
  addi x17, x11, -16 # copy data_ptr to rs1 and adjust for offset
     eb0:	ff058893          	addi	x17,x11,-16

00000eb4 <I_lh_cg_cp_imm_edges_0x10>:
I_lh_cg_cp_imm_edges_0x10:
  lh x28, 16(x17) # perform load (0x011ad751)
     eb4:	01089e03          	lh	x28,16(x17)
  # Check if x28 contains the expected result. x10 is the signature ptr, x5 is the link ptr, x4 is a temp reg.
  RVTEST_SIGUPD(x10, x5, x4, x28, I_lh_cg_cp_imm_edges_0x10, I_lh_cg_cp_imm_edges_0x10_str)
     eb8:	00052203          	lw	x4,0(x10)
     ebc:	01c20863          	beq	x4,x28,ecc <I_lh_cg_cp_imm_edges_0x10+0x18>
     ec0:	47c002ef          	jal	x5,133c <failedtest_x5_x4>
     ec4:	00000eb4          	.word	0x00000eb4
     ec8:	00005648          	.word	0x00005648
     ecc:	00450513          	addi	x10,x10,4
  addi x11, x11, SIG_STRIDE # increment data_ptr
     ed0:	00458593          	addi	x11,x11,4

# Testcase cp_imm_edges (imm = 32)
  addi x12, x11, -32 # copy data_ptr to rs1 and adjust for offset
     ed4:	fe058613          	addi	x12,x11,-32

00000ed8 <I_lh_cg_cp_imm_edges_0x20>:
I_lh_cg_cp_imm_edges_0x20:
  lh x18, 32(x12) # perform load (0x00932678)
     ed8:	02061903          	lh	x18,32(x12)
  # Check if x18 contains the expected result. x10 is the signature ptr, x5 is the link ptr, x4 is a temp reg.
  RVTEST_SIGUPD(x10, x5, x4, x18, I_lh_cg_cp_imm_edges_0x20, I_lh_cg_cp_imm_edges_0x20_str)
     edc:	00052203          	lw	x4,0(x10)
     ee0:	01220863          	beq	x4,x18,ef0 <I_lh_cg_cp_imm_edges_0x20+0x18>
     ee4:	458002ef          	jal	x5,133c <failedtest_x5_x4>
     ee8:	00000ed8          	.word	0x00000ed8
     eec:	0000567e          	.word	0x0000567e
     ef0:	00450513          	addi	x10,x10,4
  addi x11, x11, SIG_STRIDE # increment data_ptr
     ef4:	00458593          	addi	x11,x11,4

# Testcase cp_imm_edges (imm = 64)
  addi x27, x11, -64 # copy data_ptr to rs1 and adjust for offset
     ef8:	fc058d93          	addi	x27,x11,-64

00000efc <I_lh_cg_cp_imm_edges_0x40>:
I_lh_cg_cp_imm_edges_0x40:
  lh x28, 64(x27) # perform load (0x359e0201)
     efc:	040d9e03          	lh	x28,64(x27)
  # Check if x28 contains the expected result. x10 is the signature ptr, x5 is the link ptr, x4 is a temp reg.
  RVTEST_SIGUPD(x10, x5, x4, x28, I_lh_cg_cp_imm_edges_0x40, I_lh_cg_cp_imm_edges_0x40_str)
     f00:	00052203          	lw	x4,0(x10)
     f04:	01c20863          	beq	x4,x28,f14 <I_lh_cg_cp_imm_edges_0x40+0x18>
     f08:	434002ef          	jal	x5,133c <failedtest_x5_x4>
     f0c:	00000efc          	.word	0x00000efc
     f10:	000056b4          	.word	0x000056b4
     f14:	00450513          	addi	x10,x10,4
  addi x11, x11, SIG_STRIDE # increment data_ptr
     f18:	00458593          	addi	x11,x11,4

# Testcase cp_imm_edges (imm = 128)
  addi x20, x11, -128 # copy data_ptr to rs1 and adjust for offset
     f1c:	f8058a13          	addi	x20,x11,-128

00000f20 <I_lh_cg_cp_imm_edges_0x80>:
I_lh_cg_cp_imm_edges_0x80:
  lh x8, 128(x20) # perform load (0xfd09ae9e)
     f20:	080a1403          	lh	x8,128(x20)
  # Check if x8 contains the expected result. x10 is the signature ptr, x5 is the link ptr, x4 is a temp reg.
  RVTEST_SIGUPD(x10, x5, x4, x8, I_lh_cg_cp_imm_edges_0x80, I_lh_cg_cp_imm_edges_0x80_str)
     f24:	00052203          	lw	x4,0(x10)
     f28:	00820863          	beq	x4,x8,f38 <I_lh_cg_cp_imm_edges_0x80+0x18>
     f2c:	410002ef          	jal	x5,133c <failedtest_x5_x4>
     f30:	00000f20          	.word	0x00000f20
     f34:	000056ea          	.word	0x000056ea
     f38:	00450513          	addi	x10,x10,4
  addi x11, x11, SIG_STRIDE # increment data_ptr
     f3c:	00458593          	addi	x11,x11,4

# Testcase cp_imm_edges (imm = 256)
  addi x30, x11, -256 # copy data_ptr to rs1 and adjust for offset
     f40:	f0058f13          	addi	x30,x11,-256

00000f44 <I_lh_cg_cp_imm_edges_0x100>:
I_lh_cg_cp_imm_edges_0x100:
  lh x27, 256(x30) # perform load (0xa537436a)
     f44:	100f1d83          	lh	x27,256(x30)
  # Check if x27 contains the expected result. x10 is the signature ptr, x5 is the link ptr, x4 is a temp reg.
  RVTEST_SIGUPD(x10, x5, x4, x27, I_lh_cg_cp_imm_edges_0x100, I_lh_cg_cp_imm_edges_0x100_str)
     f48:	00052203          	lw	x4,0(x10)
     f4c:	01b20863          	beq	x4,x27,f5c <I_lh_cg_cp_imm_edges_0x100+0x18>
     f50:	3ec002ef          	jal	x5,133c <failedtest_x5_x4>
     f54:	00000f44          	.word	0x00000f44
     f58:	00005720          	.word	0x00005720
     f5c:	00450513          	addi	x10,x10,4
  addi x11, x11, SIG_STRIDE # increment data_ptr
     f60:	00458593          	addi	x11,x11,4

# Testcase cp_imm_edges (imm = 512)
  addi x24, x11, -512 # copy data_ptr to rs1 and adjust for offset
     f64:	e0058c13          	addi	x24,x11,-512

00000f68 <I_lh_cg_cp_imm_edges_0x200>:
I_lh_cg_cp_imm_edges_0x200:
  lh x18, 512(x24) # perform load (0x29727d7e)
     f68:	200c1903          	lh	x18,512(x24)
  # Check if x18 contains the expected result. x10 is the signature ptr, x5 is the link ptr, x4 is a temp reg.
  RVTEST_SIGUPD(x10, x5, x4, x18, I_lh_cg_cp_imm_edges_0x200, I_lh_cg_cp_imm_edges_0x200_str)
     f6c:	00052203          	lw	x4,0(x10)
     f70:	01220863          	beq	x4,x18,f80 <I_lh_cg_cp_imm_edges_0x200+0x18>
     f74:	3c8002ef          	jal	x5,133c <failedtest_x5_x4>
     f78:	00000f68          	.word	0x00000f68
     f7c:	00005757          	.word	0x00005757
     f80:	00450513          	addi	x10,x10,4
  addi x11, x11, SIG_STRIDE # increment data_ptr
     f84:	00458593          	addi	x11,x11,4

# Testcase cp_imm_edges (imm = 1023)
  addi x29, x11, -1023 # copy data_ptr to rs1 and adjust for offset
     f88:	c0158e93          	addi	x29,x11,-1023

00000f8c <I_lh_cg_cp_imm_edges_0x3ff>:
I_lh_cg_cp_imm_edges_0x3ff:
  lh x3, 1023(x29) # perform load (0xf1f820b4)
     f8c:	3ffe9183          	lh	x3,1023(x29)
  # Check if x3 contains the expected result. x10 is the signature ptr, x5 is the link ptr, x4 is a temp reg.
  RVTEST_SIGUPD(x10, x5, x4, x3, I_lh_cg_cp_imm_edges_0x3ff, I_lh_cg_cp_imm_edges_0x3ff_str)
     f90:	00052203          	lw	x4,0(x10)
     f94:	00320863          	beq	x4,x3,fa4 <I_lh_cg_cp_imm_edges_0x3ff+0x18>
     f98:	3a4002ef          	jal	x5,133c <failedtest_x5_x4>
     f9c:	00000f8c          	.word	0x00000f8c
     fa0:	0000578e          	.word	0x0000578e
     fa4:	00450513          	addi	x10,x10,4
  addi x11, x11, SIG_STRIDE # increment data_ptr
     fa8:	00458593          	addi	x11,x11,4

# Testcase cp_imm_edges (imm = 1024)
  addi x28, x11, -1024 # copy data_ptr to rs1 and adjust for offset
     fac:	c0058e13          	addi	x28,x11,-1024

00000fb0 <I_lh_cg_cp_imm_edges_0x400>:
I_lh_cg_cp_imm_edges_0x400:
  lh x18, 1024(x28) # perform load (0x2d675d9f)
     fb0:	400e1903          	lh	x18,1024(x28)
  # Check if x18 contains the expected result. x10 is the signature ptr, x5 is the link ptr, x4 is a temp reg.
  RVTEST_SIGUPD(x10, x5, x4, x18, I_lh_cg_cp_imm_edges_0x400, I_lh_cg_cp_imm_edges_0x400_str)
     fb4:	00052203          	lw	x4,0(x10)
     fb8:	01220863          	beq	x4,x18,fc8 <I_lh_cg_cp_imm_edges_0x400+0x18>
     fbc:	380002ef          	jal	x5,133c <failedtest_x5_x4>
     fc0:	00000fb0          	.word	0x00000fb0
     fc4:	000057c5          	.word	0x000057c5
     fc8:	00450513          	addi	x10,x10,4
  addi x11, x11, SIG_STRIDE # increment data_ptr
     fcc:	00458593          	addi	x11,x11,4

# Testcase cp_imm_edges (imm = 1795)
  addi x22, x11, -1795 # copy data_ptr to rs1 and adjust for offset
     fd0:	8fd58b13          	addi	x22,x11,-1795

00000fd4 <I_lh_cg_cp_imm_edges_0x703>:
I_lh_cg_cp_imm_edges_0x703:
  lh x28, 1795(x22) # perform load (0xd8df1ba8)
     fd4:	703b1e03          	lh	x28,1795(x22)
  # Check if x28 contains the expected result. x10 is the signature ptr, x5 is the link ptr, x4 is a temp reg.
  RVTEST_SIGUPD(x10, x5, x4, x28, I_lh_cg_cp_imm_edges_0x703, I_lh_cg_cp_imm_edges_0x703_str)
     fd8:	00052203          	lw	x4,0(x10)
     fdc:	01c20863          	beq	x4,x28,fec <I_lh_cg_cp_imm_edges_0x703+0x18>
     fe0:	35c002ef          	jal	x5,133c <failedtest_x5_x4>
     fe4:	00000fd4          	.word	0x00000fd4
     fe8:	000057fc          	.word	0x000057fc
     fec:	00450513          	addi	x10,x10,4
  addi x11, x11, SIG_STRIDE # increment data_ptr
     ff0:	00458593          	addi	x11,x11,4

# Testcase cp_imm_edges (imm = 2047)
  addi x27, x11, -2047 # copy data_ptr to rs1 and adjust for offset
     ff4:	80158d93          	addi	x27,x11,-2047

00000ff8 <I_lh_cg_cp_imm_edges_0x7ff>:
I_lh_cg_cp_imm_edges_0x7ff:
  lh x30, 2047(x27) # perform load (0xd46bb535)
     ff8:	7ffd9f03          	lh	x30,2047(x27)
  # Check if x30 contains the expected result. x10 is the signature ptr, x5 is the link ptr, x4 is a temp reg.
  RVTEST_SIGUPD(x10, x5, x4, x30, I_lh_cg_cp_imm_edges_0x7ff, I_lh_cg_cp_imm_edges_0x7ff_str)
     ffc:	00052203          	lw	x4,0(x10)
    1000:	01e20863          	beq	x4,x30,1010 <I_lh_cg_cp_imm_edges_0x7ff+0x18>
    1004:	338002ef          	jal	x5,133c <failedtest_x5_x4>
    1008:	00000ff8          	.word	0x00000ff8
    100c:	00005833          	.word	0x00005833
    1010:	00450513          	addi	x10,x10,4
  addi x11, x11, SIG_STRIDE # increment data_ptr
    1014:	00458593          	addi	x11,x11,4

# Testcase cp_imm_edges (imm = -2048)
  addi x15, x11, 2047 # copy data_ptr to rs1 and increment by 2047
    1018:	7ff58793          	addi	x15,x11,2047
  addi x15, x15, 1    # increment by 1 more for total +2048 offset
    101c:	00178793          	addi	x15,x15,1

00001020 <I_lh_cg_cp_imm_edges_m0x800>:
I_lh_cg_cp_imm_edges_m0x800:
  lh x9, -2048(x15) # perform load (0x4214c4f6)
    1020:	80079483          	lh	x9,-2048(x15)
  # Check if x9 contains the expected result. x10 is the signature ptr, x5 is the link ptr, x4 is a temp reg.
  RVTEST_SIGUPD(x10, x5, x4, x9, I_lh_cg_cp_imm_edges_m0x800, I_lh_cg_cp_imm_edges_m0x800_str)
    1024:	00052203          	lw	x4,0(x10)
    1028:	00920863          	beq	x4,x9,1038 <I_lh_cg_cp_imm_edges_m0x800+0x18>
    102c:	310002ef          	jal	x5,133c <failedtest_x5_x4>
    1030:	00001020          	.word	0x00001020
    1034:	0000586a          	.word	0x0000586a
    1038:	00450513          	addi	x10,x10,4
  addi x11, x11, SIG_STRIDE # increment data_ptr
    103c:	00458593          	addi	x11,x11,4

# Testcase cp_imm_edges (imm = -2047)
  addi x29, x11, 2047 # copy data_ptr to rs1 and adjust for offset
    1040:	7ff58e93          	addi	x29,x11,2047

00001044 <I_lh_cg_cp_imm_edges_m0x7ff>:
I_lh_cg_cp_imm_edges_m0x7ff:
  lh x19, -2047(x29) # perform load (0xa667b7ff)
    1044:	801e9983          	lh	x19,-2047(x29)
  # Check if x19 contains the expected result. x10 is the signature ptr, x5 is the link ptr, x4 is a temp reg.
  RVTEST_SIGUPD(x10, x5, x4, x19, I_lh_cg_cp_imm_edges_m0x7ff, I_lh_cg_cp_imm_edges_m0x7ff_str)
    1048:	00052203          	lw	x4,0(x10)
    104c:	01320863          	beq	x4,x19,105c <I_lh_cg_cp_imm_edges_m0x7ff+0x18>
    1050:	2ec002ef          	jal	x5,133c <failedtest_x5_x4>
    1054:	00001044          	.word	0x00001044
    1058:	000058a2          	.word	0x000058a2
    105c:	00450513          	addi	x10,x10,4
  addi x11, x11, SIG_STRIDE # increment data_ptr
    1060:	00458593          	addi	x11,x11,4

# Testcase cp_imm_edges (imm = -2)
  addi x6, x11, 2 # copy data_ptr to rs1 and adjust for offset
    1064:	00258313          	addi	x6,x11,2

00001068 <I_lh_cg_cp_imm_edges_m0x2>:
I_lh_cg_cp_imm_edges_m0x2:
  lh x25, -2(x6) # perform load (0x520f0e0a)
    1068:	ffe31c83          	lh	x25,-2(x6)
  # Check if x25 contains the expected result. x10 is the signature ptr, x5 is the link ptr, x4 is a temp reg.
  RVTEST_SIGUPD(x10, x5, x4, x25, I_lh_cg_cp_imm_edges_m0x2, I_lh_cg_cp_imm_edges_m0x2_str)
    106c:	00052203          	lw	x4,0(x10)
    1070:	01920863          	beq	x4,x25,1080 <I_lh_cg_cp_imm_edges_m0x2+0x18>
    1074:	2c8002ef          	jal	x5,133c <failedtest_x5_x4>
    1078:	00001068          	.word	0x00001068
    107c:	000058da          	.word	0x000058da
    1080:	00450513          	addi	x10,x10,4
  addi x11, x11, SIG_STRIDE # increment data_ptr
    1084:	00458593          	addi	x11,x11,4

# Testcase cp_imm_edges (imm = -1)
  addi x20, x11, 1 # copy data_ptr to rs1 and adjust for offset
    1088:	00158a13          	addi	x20,x11,1

0000108c <I_lh_cg_cp_imm_edges_m0x1>:
I_lh_cg_cp_imm_edges_m0x1:
  lh x29, -1(x20) # perform load (0xd9f5ed79)
    108c:	fffa1e83          	lh	x29,-1(x20)
  # Check if x29 contains the expected result. x10 is the signature ptr, x5 is the link ptr, x4 is a temp reg.
  RVTEST_SIGUPD(x10, x5, x4, x29, I_lh_cg_cp_imm_edges_m0x1, I_lh_cg_cp_imm_edges_m0x1_str)
    1090:	00052203          	lw	x4,0(x10)
    1094:	01d20863          	beq	x4,x29,10a4 <I_lh_cg_cp_imm_edges_m0x1+0x18>
    1098:	2a4002ef          	jal	x5,133c <failedtest_x5_x4>
    109c:	0000108c          	.word	0x0000108c
    10a0:	00005910          	.word	0x00005910
    10a4:	00450513          	addi	x10,x10,4
  addi x11, x11, SIG_STRIDE # increment data_ptr
    10a8:	00458593          	addi	x11,x11,4
    10ac:	00000013          	addi	x0,x0,0
    10b0:	00000013          	addi	x0,x0,0
    10b4:	00000013          	addi	x0,x0,0
    10b8:	00000013          	addi	x0,x0,0
    10bc:	00000013          	addi	x0,x0,0
/////////////////////////////////
// cp_align_hword
/////////////////////////////////

# Testcase: cp_align_hword (imm[2:0] = 000)
  LA(x18, scratch) # load base address
    10c0:	00003917          	auipc	x18,0x3
    10c4:	f4090913          	addi	x18,x18,-192 # 4000 <scratch>
    10c8:	00000013          	addi	x0,x0,0
    10cc:	00000013          	addi	x0,x0,0
    10d0:	00000013          	addi	x0,x0,0
    10d4:	00000013          	addi	x0,x0,0
    10d8:	00000013          	addi	x0,x0,0
    10dc:	00000013          	addi	x0,x0,0
  RVTEST_TESTDATA_LOAD_INT(x11, x15) # load temp_reg: x15 = 0x38b58146
    10e0:	0005a783          	lw	x15,0(x11)
    10e4:	00458593          	addi	x11,x11,4
  SREG x15, 0(x18) # store test value to memory
    10e8:	00f92023          	sw	x15,0(x18)
  SREG x15, REGWIDTH(x18) # store test value to memory
    10ec:	00f92223          	sw	x15,4(x18)

000010f0 <I_lh_cg_cp_align_hword_b0>:
I_lh_cg_cp_align_hword_b0:
  lh x14, 0(x18) # perform load
    10f0:	00091703          	lh	x14,0(x18)
  # Check if x14 contains the expected result. x10 is the signature ptr, x5 is the link ptr, x4 is a temp reg.
  RVTEST_SIGUPD(x10, x5, x4, x14, I_lh_cg_cp_align_hword_b0, I_lh_cg_cp_align_hword_b0_str)
    10f4:	00052203          	lw	x4,0(x10)
    10f8:	00e20863          	beq	x4,x14,1108 <I_lh_cg_cp_align_hword_b0+0x18>
    10fc:	240002ef          	jal	x5,133c <failedtest_x5_x4>
    1100:	000010f0          	.word	0x000010f0
    1104:	00005946          	.word	0x00005946
    1108:	00450513          	addi	x10,x10,4
    110c:	00000013          	addi	x0,x0,0
    1110:	00000013          	addi	x0,x0,0
    1114:	00000013          	addi	x0,x0,0
    1118:	00000013          	addi	x0,x0,0
    111c:	00000013          	addi	x0,x0,0

# Testcase: cp_align_hword (imm[2:0] = 010)
  LA(x22, scratch) # load base address
    1120:	00003b17          	auipc	x22,0x3
    1124:	ee0b0b13          	addi	x22,x22,-288 # 4000 <scratch>
    1128:	00000013          	addi	x0,x0,0
    112c:	00000013          	addi	x0,x0,0
    1130:	00000013          	addi	x0,x0,0
    1134:	00000013          	addi	x0,x0,0
    1138:	00000013          	addi	x0,x0,0
    113c:	00000013          	addi	x0,x0,0
  RVTEST_TESTDATA_LOAD_INT(x11, x20) # load temp_reg: x20 = 0x1e9149cd
    1140:	0005aa03          	lw	x20,0(x11)
    1144:	00458593          	addi	x11,x11,4
  SREG x20, 0(x22) # store test value to memory
    1148:	014b2023          	sw	x20,0(x22)
  SREG x20, REGWIDTH(x22) # store test value to memory
    114c:	014b2223          	sw	x20,4(x22)

00001150 <I_lh_cg_cp_align_hword_b2>:
I_lh_cg_cp_align_hword_b2:
  lh x14, 2(x22) # perform load
    1150:	002b1703          	lh	x14,2(x22)
  # Check if x14 contains the expected result. x10 is the signature ptr, x5 is the link ptr, x4 is a temp reg.
  RVTEST_SIGUPD(x10, x5, x4, x14, I_lh_cg_cp_align_hword_b2, I_lh_cg_cp_align_hword_b2_str)
    1154:	00052203          	lw	x4,0(x10)
    1158:	00e20863          	beq	x4,x14,1168 <I_lh_cg_cp_align_hword_b2+0x18>
    115c:	1e0002ef          	jal	x5,133c <failedtest_x5_x4>
    1160:	00001150          	.word	0x00001150
    1164:	0000597c          	.word	0x0000597c
    1168:	00450513          	addi	x10,x10,4
    116c:	00000013          	addi	x0,x0,0
    1170:	00000013          	addi	x0,x0,0
    1174:	00000013          	addi	x0,x0,0
    1178:	00000013          	addi	x0,x0,0
    117c:	00000013          	addi	x0,x0,0

# Testcase: cp_align_hword (imm[2:0] = 100)
  LA(x7, scratch) # load base address
    1180:	00003397          	auipc	x7,0x3
    1184:	e8038393          	addi	x7,x7,-384 # 4000 <scratch>
    1188:	00000013          	addi	x0,x0,0
    118c:	00000013          	addi	x0,x0,0
    1190:	00000013          	addi	x0,x0,0
    1194:	00000013          	addi	x0,x0,0
    1198:	00000013          	addi	x0,x0,0
    119c:	00000013          	addi	x0,x0,0
  RVTEST_TESTDATA_LOAD_INT(x11, x8) # load temp_reg: x8 = 0xf4e4dfd9
    11a0:	0005a403          	lw	x8,0(x11)
    11a4:	00458593          	addi	x11,x11,4
  SREG x8, 0(x7) # store test value to memory
    11a8:	0083a023          	sw	x8,0(x7)
  SREG x8, REGWIDTH(x7) # store test value to memory
    11ac:	0083a223          	sw	x8,4(x7)

000011b0 <I_lh_cg_cp_align_hword_b4>:
I_lh_cg_cp_align_hword_b4:
  lh x19, 4(x7) # perform load
    11b0:	00439983          	lh	x19,4(x7)
  # Check if x19 contains the expected result. x10 is the signature ptr, x5 is the link ptr, x4 is a temp reg.
  RVTEST_SIGUPD(x10, x5, x4, x19, I_lh_cg_cp_align_hword_b4, I_lh_cg_cp_align_hword_b4_str)
    11b4:	00052203          	lw	x4,0(x10)
    11b8:	01320863          	beq	x4,x19,11c8 <I_lh_cg_cp_align_hword_b4+0x18>
    11bc:	180002ef          	jal	x5,133c <failedtest_x5_x4>
    11c0:	000011b0          	.word	0x000011b0
    11c4:	000059b2          	.word	0x000059b2
    11c8:	00450513          	addi	x10,x10,4
    11cc:	00000013          	addi	x0,x0,0
    11d0:	00000013          	addi	x0,x0,0
    11d4:	00000013          	addi	x0,x0,0
    11d8:	00000013          	addi	x0,x0,0
    11dc:	00000013          	addi	x0,x0,0

# Testcase: cp_align_hword (imm[2:0] = 110)
  LA(x13, scratch) # load base address
    11e0:	00003697          	auipc	x13,0x3
    11e4:	e2068693          	addi	x13,x13,-480 # 4000 <scratch>
    11e8:	00000013          	addi	x0,x0,0
    11ec:	00000013          	addi	x0,x0,0
    11f0:	00000013          	addi	x0,x0,0
    11f4:	00000013          	addi	x0,x0,0
    11f8:	00000013          	addi	x0,x0,0
    11fc:	00000013          	addi	x0,x0,0
  RVTEST_TESTDATA_LOAD_INT(x11, x25) # load temp_reg: x25 = 0x459b9388
    1200:	0005ac83          	lw	x25,0(x11)
    1204:	00458593          	addi	x11,x11,4
  SREG x25, 0(x13) # store test value to memory
    1208:	0196a023          	sw	x25,0(x13)
  SREG x25, REGWIDTH(x13) # store test value to memory
    120c:	0196a223          	sw	x25,4(x13)

00001210 <I_lh_cg_cp_align_hword_b6>:
I_lh_cg_cp_align_hword_b6:
  lh x16, 6(x13) # perform load
    1210:	00669803          	lh	x16,6(x13)
  # Check if x16 contains the expected result. x10 is the signature ptr, x5 is the link ptr, x4 is a temp reg.
  RVTEST_SIGUPD(x10, x5, x4, x16, I_lh_cg_cp_align_hword_b6, I_lh_cg_cp_align_hword_b6_str)
    1214:	00052203          	lw	x4,0(x10)
    1218:	01020863          	beq	x4,x16,1228 <I_lh_cg_cp_align_hword_b6+0x18>
    121c:	120002ef          	jal	x5,133c <failedtest_x5_x4>
    1220:	00001210          	.word	0x00001210
    1224:	000059e8          	.word	0x000059e8
    1228:	00450513          	addi	x10,x10,4
/////////////////////////////////
// cp_memval_hword
/////////////////////////////////

# Testcase cp_memval_hword (memory value = 0x0)
  addi x31, x11, 618 # copy data_ptr to rs1 and adjust for offset
    122c:	26a58f93          	addi	x31,x11,618

00001230 <I_lh_cg_cp_memval_hword_0x0>:
I_lh_cg_cp_memval_hword_0x0:
  lh x17, -618(x31) # perform load (0x00000000)
    1230:	d96f9883          	lh	x17,-618(x31)
  # Check if x17 contains the expected result. x10 is the signature ptr, x5 is the link ptr, x4 is a temp reg.
  RVTEST_SIGUPD(x10, x5, x4, x17, I_lh_cg_cp_memval_hword_0x0, I_lh_cg_cp_memval_hword_0x0_str)
    1234:	00052203          	lw	x4,0(x10)
    1238:	01120863          	beq	x4,x17,1248 <I_lh_cg_cp_memval_hword_0x0+0x18>
    123c:	100002ef          	jal	x5,133c <failedtest_x5_x4>
    1240:	00001230          	.word	0x00001230
    1244:	00005a1e          	.word	0x00005a1e
    1248:	00450513          	addi	x10,x10,4
  addi x11, x11, SIG_STRIDE # increment data_ptr
    124c:	00458593          	addi	x11,x11,4

# Testcase cp_memval_hword (memory value = 0x1)
  addi x18, x11, 1723 # copy data_ptr to rs1 and adjust for offset
    1250:	6bb58913          	addi	x18,x11,1723

00001254 <I_lh_cg_cp_memval_hword_0x1>:
I_lh_cg_cp_memval_hword_0x1:
  lh x19, -1723(x18) # perform load (0x00000001)
    1254:	94591983          	lh	x19,-1723(x18)
  # Check if x19 contains the expected result. x10 is the signature ptr, x5 is the link ptr, x4 is a temp reg.
  RVTEST_SIGUPD(x10, x5, x4, x19, I_lh_cg_cp_memval_hword_0x1, I_lh_cg_cp_memval_hword_0x1_str)
    1258:	00052203          	lw	x4,0(x10)
    125c:	01320863          	beq	x4,x19,126c <I_lh_cg_cp_memval_hword_0x1+0x18>
    1260:	0dc002ef          	jal	x5,133c <failedtest_x5_x4>
    1264:	00001254          	.word	0x00001254
    1268:	00005a56          	.word	0x00005a56
    126c:	00450513          	addi	x10,x10,4
  addi x11, x11, SIG_STRIDE # increment data_ptr
    1270:	00458593          	addi	x11,x11,4

# Testcase cp_memval_hword (memory value = 0x7fff)
  addi x25, x11, -1743 # copy data_ptr to rs1 and adjust for offset
    1274:	93158c93          	addi	x25,x11,-1743

00001278 <I_lh_cg_cp_memval_hword_0x7fff>:
I_lh_cg_cp_memval_hword_0x7fff:
  lh x28, 1743(x25) # perform load (0x00007fff)
    1278:	6cfc9e03          	lh	x28,1743(x25)
  # Check if x28 contains the expected result. x10 is the signature ptr, x5 is the link ptr, x4 is a temp reg.
  RVTEST_SIGUPD(x10, x5, x4, x28, I_lh_cg_cp_memval_hword_0x7fff, I_lh_cg_cp_memval_hword_0x7fff_str)
    127c:	00052203          	lw	x4,0(x10)
    1280:	01c20863          	beq	x4,x28,1290 <I_lh_cg_cp_memval_hword_0x7fff+0x18>
    1284:	0b8002ef          	jal	x5,133c <failedtest_x5_x4>
    1288:	00001278          	.word	0x00001278
    128c:	00005a8e          	.word	0x00005a8e
    1290:	00450513          	addi	x10,x10,4
  addi x11, x11, SIG_STRIDE # increment data_ptr
    1294:	00458593          	addi	x11,x11,4

# Testcase cp_memval_hword (memory value = 0x8000)
  addi x31, x11, 369 # copy data_ptr to rs1 and adjust for offset
    1298:	17158f93          	addi	x31,x11,369

0000129c <I_lh_cg_cp_memval_hword_0x8000>:
I_lh_cg_cp_memval_hword_0x8000:
  lh x19, -369(x31) # perform load (0x00008000)
    129c:	e8ff9983          	lh	x19,-369(x31)
  # Check if x19 contains the expected result. x10 is the signature ptr, x5 is the link ptr, x4 is a temp reg.
  RVTEST_SIGUPD(x10, x5, x4, x19, I_lh_cg_cp_memval_hword_0x8000, I_lh_cg_cp_memval_hword_0x8000_str)
    12a0:	00052203          	lw	x4,0(x10)
    12a4:	01320863          	beq	x4,x19,12b4 <I_lh_cg_cp_memval_hword_0x8000+0x18>
    12a8:	094002ef          	jal	x5,133c <failedtest_x5_x4>
    12ac:	0000129c          	.word	0x0000129c
    12b0:	00005ac9          	.word	0x00005ac9
    12b4:	00450513          	addi	x10,x10,4
  addi x11, x11, SIG_STRIDE # increment data_ptr
    12b8:	00458593          	addi	x11,x11,4

# Testcase cp_memval_hword (memory value = 0xffff)
  addi x18, x11, -1148 # copy data_ptr to rs1 and adjust for offset
    12bc:	b8458913          	addi	x18,x11,-1148

000012c0 <I_lh_cg_cp_memval_hword_0xffff>:
I_lh_cg_cp_memval_hword_0xffff:
  lh x6, 1148(x18) # perform load (0x0000ffff)
    12c0:	47c91303          	lh	x6,1148(x18)
  # Check if x6 contains the expected result. x10 is the signature ptr, x5 is the link ptr, x4 is a temp reg.
  RVTEST_SIGUPD(x10, x5, x4, x6, I_lh_cg_cp_memval_hword_0xffff, I_lh_cg_cp_memval_hword_0xffff_str)
    12c4:	00052203          	lw	x4,0(x10)
    12c8:	00620863          	beq	x4,x6,12d8 <I_lh_cg_cp_memval_hword_0xffff+0x18>
    12cc:	070002ef          	jal	x5,133c <failedtest_x5_x4>
    12d0:	000012c0          	.word	0x000012c0
    12d4:	00005b04          	.word	0x00005b04
    12d8:	00450513          	addi	x10,x10,4
  addi x11, x11, SIG_STRIDE # increment data_ptr
    12dc:	00458593          	addi	x11,x11,4

  mv x2, x10 # restore signature pointer to default register for teardown
    12e0:	00050113          	addi	x2,x10,0

000012e4 <cleanup_epilogs>:
    12e4:	00000013          	addi	x0,x0,0
    12e8:	00000013          	addi	x0,x0,0
    12ec:	00000013          	addi	x0,x0,0
    12f0:	00000013          	addi	x0,x0,0
    12f4:	00000013          	addi	x0,x0,0
    12f8:	00000013          	addi	x0,x0,0
    12fc:	00000013          	addi	x0,x0,0

// Instantiate trap handlers and other epilog code, call RVMODEL_HALT at end of test
RVTEST_CODE_END
    1300:	00005517          	auipc	x10,0x5
    1304:	ea450513          	addi	x10,x10,-348 # 61a4 <successstr>
    1308:	00000013          	addi	x0,x0,0
    130c:	00000013          	addi	x0,x0,0
    1310:	00000013          	addi	x0,x0,0
    1314:	00000013          	addi	x0,x0,0
    1318:	00000013          	addi	x0,x0,0
    131c:	00000013          	addi	x0,x0,0
    1320:	00016097          	auipc	x1,0x16
    1324:	ee4080e7          	jalr	x1,-284(x1) # 17204 <rvmodel_io_write_str>
    1328:	00016097          	auipc	x1,0x16
    132c:	ee0080e7          	jalr	x1,-288(x1) # 17208 <rvmodel_halt_pass>

00001330 <abort_test>:
    1330:	bad0e737          	lui	x14,0xbad0e
    1334:	ead70713          	addi	x14,x14,-339 # bad0dead <absimm+0x4b743ba4>
    1338:	fadff06f          	jal	x0,12e4 <cleanup_epilogs>

0000133c <failedtest_x5_x4>:
    133c:	00005217          	auipc	x4,0x5
    1340:	80420213          	addi	x4,x4,-2044 # 5b40 <begin_failure_scratch>
    1344:	02522423          	sw	x5,40(x4) # 28 <MMODE_SIG+0x25>
    1348:	00122423          	sw	x1,8(x4) # 8 <MMODE_SIG+0x5>
    134c:	00022023          	sw	x0,0(x4) # 0 <rvtest_entry_point>
    1350:	0b00006f          	jal	x0,1400 <failedtest_saveregs>

00001354 <failedtest_x8_x7>:
    1354:	00004397          	auipc	x7,0x4
    1358:	7ec38393          	addi	x7,x7,2028 # 5b40 <begin_failure_scratch>
    135c:	0483a023          	sw	x8,64(x7)
    1360:	0243a023          	sw	x4,32(x7)
    1364:	0253a423          	sw	x5,40(x7)
    1368:	0013a423          	sw	x1,8(x7)
    136c:	0003a023          	sw	x0,0(x7)
    1370:	00038213          	addi	x4,x7,0
    1374:	00040293          	addi	x5,x8,0
    1378:	0880006f          	jal	x0,1400 <failedtest_saveregs>

0000137c <failedtest_x14_x13>:
    137c:	00004697          	auipc	x13,0x4
    1380:	7c468693          	addi	x13,x13,1988 # 5b40 <begin_failure_scratch>
    1384:	06e6a823          	sw	x14,112(x13)
    1388:	0246a023          	sw	x4,32(x13)
    138c:	0256a423          	sw	x5,40(x13)
    1390:	0016a423          	sw	x1,8(x13)
    1394:	0006a023          	sw	x0,0(x13)
    1398:	00068213          	addi	x4,x13,0
    139c:	00070293          	addi	x5,x14,0
    13a0:	0600006f          	jal	x0,1400 <failedtest_saveregs>

000013a4 <failedtest_trap_x7_x9>:
    13a4:	00004497          	auipc	x9,0x4
    13a8:	79c48493          	addi	x9,x9,1948 # 5b40 <begin_failure_scratch>
    13ac:	0674a423          	sw	x7,104(x9)
    13b0:	0244a023          	sw	x4,32(x9)
    13b4:	0254a423          	sw	x5,40(x9)
    13b8:	0014a423          	sw	x1,8(x9)
    13bc:	00300093          	addi	x1,x0,3
    13c0:	0014a023          	sw	x1,0(x9)
    13c4:	00048213          	addi	x4,x9,0
    13c8:	00038293          	addi	x5,x7,0
    13cc:	342020f3          	csrrs	x1,mcause,x0
    13d0:	00005497          	auipc	x9,0x5
    13d4:	8e048493          	addi	x9,x9,-1824 # 5cb0 <saved_mcause>
    13d8:	0014a023          	sw	x1,0(x9)
    13dc:	343020f3          	csrrs	x1,mtval,x0
    13e0:	00005497          	auipc	x9,0x5
    13e4:	8d848493          	addi	x9,x9,-1832 # 5cb8 <saved_mtval>
    13e8:	0014a023          	sw	x1,0(x9)
    13ec:	300020f3          	csrrs	x1,mstatus,x0
    13f0:	00005497          	auipc	x9,0x5
    13f4:	8d048493          	addi	x9,x9,-1840 # 5cc0 <saved_mstatus>
    13f8:	0014a023          	sw	x1,0(x9)
    13fc:	0040006f          	jal	x0,1400 <failedtest_saveregs>

00001400 <failedtest_saveregs>:
    1400:	00222823          	sw	x2,16(x4) # 10 <MMODE_SIG+0xd>
    1404:	00322c23          	sw	x3,24(x4) # 18 <MMODE_SIG+0x15>
    1408:	02622823          	sw	x6,48(x4) # 30 <MMODE_SIG+0x2d>
    140c:	02722c23          	sw	x7,56(x4) # 38 <MMODE_SIG+0x35>
    1410:	04822023          	sw	x8,64(x4) # 40 <rvtest_code_begin>
    1414:	04922423          	sw	x9,72(x4) # 48 <I_lh_cg_cp_rs1_nx0_b1+0x4>
    1418:	04a22823          	sw	x10,80(x4) # 50 <I_lh_cg_cp_rs1_nx0_b1+0xc>
    141c:	04b22c23          	sw	x11,88(x4) # 58 <I_lh_cg_cp_rs1_nx0_b1+0x14>
    1420:	06c22023          	sw	x12,96(x4) # 60 <I_lh_cg_cp_rs1_nx0_b1+0x1c>
    1424:	06d22423          	sw	x13,104(x4) # 68 <I_lh_cg_cp_rs1_nx0_b1+0x24>
    1428:	06e22823          	sw	x14,112(x4) # 70 <I_lh_cg_cp_rs1_nx0_b2+0x4>
    142c:	06f22c23          	sw	x15,120(x4) # 78 <I_lh_cg_cp_rs1_nx0_b2+0xc>
    1430:	09022023          	sw	x16,128(x4) # 80 <I_lh_cg_cp_rs1_nx0_b2+0x14>
    1434:	09122423          	sw	x17,136(x4) # 88 <I_lh_cg_cp_rs1_nx0_b2+0x1c>
    1438:	09222823          	sw	x18,144(x4) # 90 <I_lh_cg_cp_rs1_nx0_b2+0x24>
    143c:	09322c23          	sw	x19,152(x4) # 98 <I_lh_cg_cp_rs1_nx0_b3+0x4>
    1440:	0b422023          	sw	x20,160(x4) # a0 <I_lh_cg_cp_rs1_nx0_b3+0xc>
    1444:	0b522423          	sw	x21,168(x4) # a8 <I_lh_cg_cp_rs1_nx0_b3+0x14>
    1448:	0b622823          	sw	x22,176(x4) # b0 <I_lh_cg_cp_rs1_nx0_b3+0x1c>
    144c:	0b722c23          	sw	x23,184(x4) # b8 <I_lh_cg_cp_rs1_nx0_b3+0x24>
    1450:	0d822023          	sw	x24,192(x4) # c0 <I_lh_cg_cp_rs1_nx0_b4>
    1454:	0d922423          	sw	x25,200(x4) # c8 <I_lh_cg_cp_rs1_nx0_b4+0x8>
    1458:	0da22823          	sw	x26,208(x4) # d0 <I_lh_cg_cp_rs1_nx0_b4+0x10>
    145c:	0db22c23          	sw	x27,216(x4) # d8 <I_lh_cg_cp_rs1_nx0_b4+0x18>
    1460:	0fc22023          	sw	x28,224(x4) # e0 <I_lh_cg_cp_rs1_nx0_b4+0x20>
    1464:	0fd22423          	sw	x29,232(x4) # e8 <I_lh_cg_cp_rs1_nx0_b5+0x4>
    1468:	0fe22823          	sw	x30,240(x4) # f0 <I_lh_cg_cp_rs1_nx0_b5+0xc>
    146c:	0ff22c23          	sw	x31,248(x4) # f8 <I_lh_cg_cp_rs1_nx0_b5+0x14>

00001470 <failedtest_saveresults>:
    1470:	00004497          	auipc	x9,0x4
    1474:	6d04a483          	lw	x9,1744(x9) # 5b40 <begin_failure_scratch>
    1478:	00300513          	addi	x10,x0,3
    147c:	06a48863          	beq	x9,x10,14ec <failedtest_saveresults_trap>

00001480 <failedtest_saveresults_int>:
    1480:	ffa2d303          	lhu	x6,-6(x5)
    1484:	ff82d383          	lhu	x7,-8(x5)
    1488:	01031313          	slli	x6,x6,0x10
    148c:	00736333          	or	x6,x6,x7
    1490:	00f35393          	srli	x7,x6,0xf
    1494:	01f3f393          	andi	x7,x7,31
    1498:	01435413          	srli	x8,x6,0x14
    149c:	01f47413          	andi	x8,x8,31
    14a0:	10822223          	sw	x8,260(x4) # 104 <I_lh_cg_cp_rs1_nx0_b5+0x20>
    14a4:	00341313          	slli	x6,x8,0x3
    14a8:	00620333          	add	x6,x4,x6
    14ac:	00032303          	lw	x6,0(x6)
    14b0:	10622823          	sw	x6,272(x4) # 110 <I_lh_cg_cp_rs1_nx0_b6+0x8>
    14b4:	ff62d303          	lhu	x6,-10(x5)
    14b8:	ff42d383          	lhu	x7,-12(x5)
    14bc:	01031313          	slli	x6,x6,0x10
    14c0:	00736333          	or	x6,x6,x7
    14c4:	41435393          	srai	x7,x6,0x14
    14c8:	00f35313          	srli	x6,x6,0xf
    14cc:	01f37313          	andi	x6,x6,31
    14d0:	00331313          	slli	x6,x6,0x3
    14d4:	00620333          	add	x6,x4,x6
    14d8:	00032303          	lw	x6,0(x6)
    14dc:	00730333          	add	x6,x6,x7
    14e0:	00032303          	lw	x6,0(x6)
    14e4:	10622c23          	sw	x6,280(x4) # 118 <I_lh_cg_cp_rs1_nx0_b6+0x10>
    14e8:	3d80006f          	jal	x0,18c0 <failedtest_saveresults_common>

000014ec <failedtest_saveresults_trap>:
    14ec:	0042a303          	lw	x6,4(x5)
    14f0:	00004817          	auipc	x16,0x4
    14f4:	7a880813          	addi	x16,x16,1960 # 5c98 <trap_diag_fail_str_ptr>
    14f8:	00682023          	sw	x6,0(x16)
    14fc:	0002a303          	lw	x6,0(x5)
    1500:	10622423          	sw	x6,264(x4) # 108 <I_lh_cg_cp_rs1_nx0_b6>
    1504:	00004817          	auipc	x16,0x4
    1508:	79480813          	addi	x16,x16,1940 # 5c98 <trap_diag_fail_str_ptr>
    150c:	00082303          	lw	x6,0(x16)
    1510:	00005397          	auipc	x7,0x5
    1514:	e5838393          	addi	x7,x7,-424 # 6368 <trap_sig_offset_mismatch>
    1518:	28730463          	beq	x6,x7,17a0 <trap_diag_offset_mismatch>
    151c:	00000413          	addi	x8,x0,0
    1520:	00004817          	auipc	x16,0x4
    1524:	75080813          	addi	x16,x16,1872 # 5c70 <trap_diag_subtype>
    1528:	00882023          	sw	x8,0(x16)
    152c:	00005397          	auipc	x7,0x5
    1530:	ea038393          	addi	x7,x7,-352 # 63cc <sv_Mvect_str>
    1534:	00731863          	bne	x6,x7,1544 <failedtest_saveresults_trap+0x58>
    1538:	00100413          	addi	x8,x0,1
    153c:	00000493          	addi	x9,x0,0
    1540:	2e00006f          	jal	x0,1820 <trap_diag_field_identified>
    1544:	00005397          	auipc	x7,0x5
    1548:	f8a38393          	addi	x7,x7,-118 # 64ce <sv_Mcause_str>
    154c:	00731863          	bne	x6,x7,155c <failedtest_saveresults_trap+0x70>
    1550:	00200413          	addi	x8,x0,2
    1554:	00000493          	addi	x9,x0,0
    1558:	2c80006f          	jal	x0,1820 <trap_diag_field_identified>
    155c:	00005397          	auipc	x7,0x5
    1560:	06d38393          	addi	x7,x7,109 # 65c9 <sv_Mepc_str>
    1564:	00731863          	bne	x6,x7,1574 <failedtest_saveresults_trap+0x88>
    1568:	00300413          	addi	x8,x0,3
    156c:	00000493          	addi	x9,x0,0
    1570:	2b00006f          	jal	x0,1820 <trap_diag_field_identified>
    1574:	00005397          	auipc	x7,0x5
    1578:	14838393          	addi	x7,x7,328 # 66bc <sv_Mtval_str>
    157c:	00731863          	bne	x6,x7,158c <failedtest_saveresults_trap+0xa0>
    1580:	00400413          	addi	x8,x0,4
    1584:	00000493          	addi	x9,x0,0
    1588:	2980006f          	jal	x0,1820 <trap_diag_field_identified>
    158c:	00005397          	auipc	x7,0x5
    1590:	2a338393          	addi	x7,x7,675 # 682f <sv_Mip_str>
    1594:	00731863          	bne	x6,x7,15a4 <failedtest_saveresults_trap+0xb8>
    1598:	00500413          	addi	x8,x0,5
    159c:	00000493          	addi	x9,x0,0
    15a0:	2800006f          	jal	x0,1820 <trap_diag_field_identified>
    15a4:	00005397          	auipc	x7,0x5
    15a8:	20f38393          	addi	x7,x7,527 # 67b3 <sv_Mtval2_str>
    15ac:	00731863          	bne	x6,x7,15bc <failedtest_saveresults_trap+0xd0>
    15b0:	00600413          	addi	x8,x0,6
    15b4:	00000493          	addi	x9,x0,0
    15b8:	2680006f          	jal	x0,1820 <trap_diag_field_identified>
    15bc:	00005397          	auipc	x7,0x5
    15c0:	23538393          	addi	x7,x7,565 # 67f1 <sv_Mtinst_str>
    15c4:	00731863          	bne	x6,x7,15d4 <failedtest_saveresults_trap+0xe8>
    15c8:	00700413          	addi	x8,x0,7
    15cc:	00000493          	addi	x9,x0,0
    15d0:	2500006f          	jal	x0,1820 <trap_diag_field_identified>
    15d4:	00005397          	auipc	x7,0x5
    15d8:	e3838393          	addi	x7,x7,-456 # 640c <sv_Svect_str>
    15dc:	00731863          	bne	x6,x7,15ec <failedtest_saveresults_trap+0x100>
    15e0:	00100413          	addi	x8,x0,1
    15e4:	00100493          	addi	x9,x0,1
    15e8:	2380006f          	jal	x0,1820 <trap_diag_field_identified>
    15ec:	00005397          	auipc	x7,0x5
    15f0:	f2038393          	addi	x7,x7,-224 # 650c <sv_Scause_str>
    15f4:	00731863          	bne	x6,x7,1604 <failedtest_saveresults_trap+0x118>
    15f8:	00200413          	addi	x8,x0,2
    15fc:	00100493          	addi	x9,x0,1
    1600:	2200006f          	jal	x0,1820 <trap_diag_field_identified>
    1604:	00005397          	auipc	x7,0x5
    1608:	00138393          	addi	x7,x7,1 # 6605 <sv_Sepc_str>
    160c:	00731863          	bne	x6,x7,161c <failedtest_saveresults_trap+0x130>
    1610:	00300413          	addi	x8,x0,3
    1614:	00100493          	addi	x9,x0,1
    1618:	2080006f          	jal	x0,1820 <trap_diag_field_identified>
    161c:	00005397          	auipc	x7,0x5
    1620:	0dd38393          	addi	x7,x7,221 # 66f9 <sv_Stval_str>
    1624:	00731863          	bne	x6,x7,1634 <failedtest_saveresults_trap+0x148>
    1628:	00400413          	addi	x8,x0,4
    162c:	00100493          	addi	x9,x0,1
    1630:	1f00006f          	jal	x0,1820 <trap_diag_field_identified>
    1634:	00005397          	auipc	x7,0x5
    1638:	23638393          	addi	x7,x7,566 # 686a <sv_Sip_str>
    163c:	00731863          	bne	x6,x7,164c <failedtest_saveresults_trap+0x160>
    1640:	00500413          	addi	x8,x0,5
    1644:	00100493          	addi	x9,x0,1
    1648:	1d80006f          	jal	x0,1820 <trap_diag_field_identified>
    164c:	00005397          	auipc	x7,0x5
    1650:	e0038393          	addi	x7,x7,-512 # 644c <sv_Hvect_str>
    1654:	00731863          	bne	x6,x7,1664 <failedtest_saveresults_trap+0x178>
    1658:	00100413          	addi	x8,x0,1
    165c:	00200493          	addi	x9,x0,2
    1660:	1c00006f          	jal	x0,1820 <trap_diag_field_identified>
    1664:	00005397          	auipc	x7,0x5
    1668:	ee638393          	addi	x7,x7,-282 # 654a <sv_Hcause_str>
    166c:	00731863          	bne	x6,x7,167c <failedtest_saveresults_trap+0x190>
    1670:	00200413          	addi	x8,x0,2
    1674:	00200493          	addi	x9,x0,2
    1678:	1a80006f          	jal	x0,1820 <trap_diag_field_identified>
    167c:	00005397          	auipc	x7,0x5
    1680:	fc538393          	addi	x7,x7,-59 # 6641 <sv_Hepc_str>
    1684:	00731863          	bne	x6,x7,1694 <failedtest_saveresults_trap+0x1a8>
    1688:	00300413          	addi	x8,x0,3
    168c:	00200493          	addi	x9,x0,2
    1690:	1900006f          	jal	x0,1820 <trap_diag_field_identified>
    1694:	00005397          	auipc	x7,0x5
    1698:	0a238393          	addi	x7,x7,162 # 6736 <sv_Htval_str>
    169c:	00731863          	bne	x6,x7,16ac <failedtest_saveresults_trap+0x1c0>
    16a0:	00400413          	addi	x8,x0,4
    16a4:	00200493          	addi	x9,x0,2
    16a8:	1780006f          	jal	x0,1820 <trap_diag_field_identified>
    16ac:	00005397          	auipc	x7,0x5
    16b0:	1f938393          	addi	x7,x7,505 # 68a5 <sv_Hip_str>
    16b4:	00731863          	bne	x6,x7,16c4 <failedtest_saveresults_trap+0x1d8>
    16b8:	00500413          	addi	x8,x0,5
    16bc:	00200493          	addi	x9,x0,2
    16c0:	1600006f          	jal	x0,1820 <trap_diag_field_identified>
    16c4:	00005397          	auipc	x7,0x5
    16c8:	dc938393          	addi	x7,x7,-567 # 648d <sv_Vvect_str>
    16cc:	00731863          	bne	x6,x7,16dc <failedtest_saveresults_trap+0x1f0>
    16d0:	00100413          	addi	x8,x0,1
    16d4:	00300493          	addi	x9,x0,3
    16d8:	1480006f          	jal	x0,1820 <trap_diag_field_identified>
    16dc:	00005397          	auipc	x7,0x5
    16e0:	ead38393          	addi	x7,x7,-339 # 6589 <sv_Vcause_str>
    16e4:	00731863          	bne	x6,x7,16f4 <failedtest_saveresults_trap+0x208>
    16e8:	00200413          	addi	x8,x0,2
    16ec:	00300493          	addi	x9,x0,3
    16f0:	1300006f          	jal	x0,1820 <trap_diag_field_identified>
    16f4:	00005397          	auipc	x7,0x5
    16f8:	f8a38393          	addi	x7,x7,-118 # 667e <sv_Vepc_str>
    16fc:	00731863          	bne	x6,x7,170c <failedtest_saveresults_trap+0x220>
    1700:	00300413          	addi	x8,x0,3
    1704:	00300493          	addi	x9,x0,3
    1708:	1180006f          	jal	x0,1820 <trap_diag_field_identified>
    170c:	00005397          	auipc	x7,0x5
    1710:	06838393          	addi	x7,x7,104 # 6774 <sv_Vtval_str>
    1714:	00731863          	bne	x6,x7,1724 <failedtest_saveresults_trap+0x238>
    1718:	00400413          	addi	x8,x0,4
    171c:	00300493          	addi	x9,x0,3
    1720:	1000006f          	jal	x0,1820 <trap_diag_field_identified>
    1724:	00005397          	auipc	x7,0x5
    1728:	1bd38393          	addi	x7,x7,445 # 68e1 <sv_Vip_str>
    172c:	00731863          	bne	x6,x7,173c <failedtest_saveresults_trap+0x250>
    1730:	00500413          	addi	x8,x0,5
    1734:	00300493          	addi	x9,x0,3
    1738:	0e80006f          	jal	x0,1820 <trap_diag_field_identified>
    173c:	00005397          	auipc	x7,0x5
    1740:	1e238393          	addi	x7,x7,482 # 691e <Mclr_Mext_int_str>
    1744:	00731863          	bne	x6,x7,1754 <failedtest_saveresults_trap+0x268>
    1748:	00800413          	addi	x8,x0,8
    174c:	00000493          	addi	x9,x0,0
    1750:	0d00006f          	jal	x0,1820 <trap_diag_field_identified>
    1754:	00005397          	auipc	x7,0x5
    1758:	21938393          	addi	x7,x7,537 # 696d <Mclr_Sext_int_str>
    175c:	00731863          	bne	x6,x7,176c <failedtest_saveresults_trap+0x280>
    1760:	00800413          	addi	x8,x0,8
    1764:	00000493          	addi	x9,x0,0
    1768:	0b80006f          	jal	x0,1820 <trap_diag_field_identified>
    176c:	00005397          	auipc	x7,0x5
    1770:	2fc38393          	addi	x7,x7,764 # 6a68 <Sclr_Sext_int_str>
    1774:	00731863          	bne	x6,x7,1784 <failedtest_saveresults_trap+0x298>
    1778:	00800413          	addi	x8,x0,8
    177c:	00100493          	addi	x9,x0,1
    1780:	0a00006f          	jal	x0,1820 <trap_diag_field_identified>
    1784:	00005397          	auipc	x7,0x5
    1788:	3e038393          	addi	x7,x7,992 # 6b64 <Hclr_Sext_int_str>
    178c:	00731863          	bne	x6,x7,179c <failedtest_saveresults_trap+0x2b0>
    1790:	00800413          	addi	x8,x0,8
    1794:	00200493          	addi	x9,x0,2
    1798:	0880006f          	jal	x0,1820 <trap_diag_field_identified>
    179c:	1140006f          	jal	x0,18b0 <trap_diag_generic_report>

000017a0 <trap_diag_offset_mismatch>:
    17a0:	00900413          	addi	x8,x0,9
    17a4:	00004817          	auipc	x16,0x4
    17a8:	4cc80813          	addi	x16,x16,1228 # 5c70 <trap_diag_subtype>
    17ac:	00882023          	sw	x8,0(x16)
    17b0:	ffa2d303          	lhu	x6,-6(x5)
    17b4:	ff82d383          	lhu	x7,-8(x5)
    17b8:	01031313          	slli	x6,x6,0x10
    17bc:	00736333          	or	x6,x6,x7
    17c0:	01435413          	srli	x8,x6,0x14
    17c4:	01f47413          	andi	x8,x8,31
    17c8:	00341313          	slli	x6,x8,0x3
    17cc:	00620333          	add	x6,x4,x6
    17d0:	00032303          	lw	x6,0(x6)
    17d4:	00004817          	auipc	x16,0x4
    17d8:	4b480813          	addi	x16,x16,1204 # 5c88 <trap_diag_actual_offset>
    17dc:	00682023          	sw	x6,0(x16)
    17e0:	ff62d303          	lhu	x6,-10(x5)
    17e4:	ff42d383          	lhu	x7,-12(x5)
    17e8:	01031313          	slli	x6,x6,0x10
    17ec:	00736333          	or	x6,x6,x7
    17f0:	41435393          	srai	x7,x6,0x14
    17f4:	00f35313          	srli	x6,x6,0xf
    17f8:	01f37313          	andi	x6,x6,31
    17fc:	00331313          	slli	x6,x6,0x3
    1800:	00620333          	add	x6,x4,x6
    1804:	00032303          	lw	x6,0(x6)
    1808:	00730333          	add	x6,x6,x7
    180c:	00032303          	lw	x6,0(x6)
    1810:	00004817          	auipc	x16,0x4
    1814:	48080813          	addi	x16,x16,1152 # 5c90 <trap_diag_expected_offset>
    1818:	00682023          	sw	x6,0(x16)
    181c:	0a40006f          	jal	x0,18c0 <failedtest_saveresults_common>

00001820 <trap_diag_field_identified>:
    1820:	00004817          	auipc	x16,0x4
    1824:	45080813          	addi	x16,x16,1104 # 5c70 <trap_diag_subtype>
    1828:	00882023          	sw	x8,0(x16)
    182c:	00004817          	auipc	x16,0x4
    1830:	44880813          	addi	x16,x16,1096 # 5c74 <trap_diag_mode>
    1834:	00982023          	sw	x9,0(x16)
    1838:	ffa2d303          	lhu	x6,-6(x5)
    183c:	ff82d383          	lhu	x7,-8(x5)
    1840:	01031313          	slli	x6,x6,0x10
    1844:	00736333          	or	x6,x6,x7
    1848:	01435713          	srli	x14,x6,0x14
    184c:	01f77713          	andi	x14,x14,31
    1850:	00371313          	slli	x6,x14,0x3
    1854:	00620333          	add	x6,x4,x6
    1858:	00032303          	lw	x6,0(x6)
    185c:	10622823          	sw	x6,272(x4) # 110 <I_lh_cg_cp_rs1_nx0_b6+0x8>
    1860:	00004817          	auipc	x16,0x4
    1864:	41880813          	addi	x16,x16,1048 # 5c78 <trap_diag_actual_value>
    1868:	00682023          	sw	x6,0(x16)
    186c:	ff62d303          	lhu	x6,-10(x5)
    1870:	ff42d383          	lhu	x7,-12(x5)
    1874:	01031313          	slli	x6,x6,0x10
    1878:	00736333          	or	x6,x6,x7
    187c:	41435393          	srai	x7,x6,0x14
    1880:	00f35313          	srli	x6,x6,0xf
    1884:	01f37313          	andi	x6,x6,31
    1888:	00331313          	slli	x6,x6,0x3
    188c:	00620333          	add	x6,x4,x6
    1890:	00032303          	lw	x6,0(x6)
    1894:	00730333          	add	x6,x6,x7
    1898:	00032303          	lw	x6,0(x6)
    189c:	10622c23          	sw	x6,280(x4) # 118 <I_lh_cg_cp_rs1_nx0_b6+0x10>
    18a0:	00004817          	auipc	x16,0x4
    18a4:	3e080813          	addi	x16,x16,992 # 5c80 <trap_diag_expected_value>
    18a8:	00682023          	sw	x6,0(x16)
    18ac:	0140006f          	jal	x0,18c0 <failedtest_saveresults_common>

000018b0 <trap_diag_generic_report>:
    18b0:	00004817          	auipc	x16,0x4
    18b4:	3c080813          	addi	x16,x16,960 # 5c70 <trap_diag_subtype>
    18b8:	00082023          	sw	x0,0(x16)
    18bc:	0040006f          	jal	x0,18c0 <failedtest_saveresults_common>

000018c0 <failedtest_saveresults_common>:
    18c0:	0002a303          	lw	x6,0(x5)
    18c4:	10622423          	sw	x6,264(x4) # 108 <I_lh_cg_cp_rs1_nx0_b6>
    18c8:	00035383          	lhu	x7,0(x6)
    18cc:	0033f413          	andi	x8,x7,3
    18d0:	00300493          	addi	x9,x0,3
    18d4:	00941863          	bne	x8,x9,18e4 <failedtest_saveresults_common+0x24>
    18d8:	00235403          	lhu	x8,2(x6)
    18dc:	01041413          	slli	x8,x8,0x10
    18e0:	0083e3b3          	or	x7,x7,x8
    18e4:	10722023          	sw	x7,256(x4) # 100 <I_lh_cg_cp_rs1_nx0_b5+0x1c>
    18e8:	0042a303          	lw	x6,4(x5)
    18ec:	12622023          	sw	x6,288(x4) # 120 <I_lh_cg_cp_rs1_nx0_b6+0x18>

000018f0 <failedtest_report>:
    18f0:	00000013          	addi	x0,x0,0
    18f4:	00000013          	addi	x0,x0,0
    18f8:	00000013          	addi	x0,x0,0
    18fc:	00000013          	addi	x0,x0,0
    1900:	00005517          	auipc	x10,0x5
    1904:	8d950513          	addi	x10,x10,-1831 # 61d9 <failstr>
    1908:	00000013          	addi	x0,x0,0
    190c:	00000013          	addi	x0,x0,0
    1910:	00000013          	addi	x0,x0,0
    1914:	00000013          	addi	x0,x0,0
    1918:	00000013          	addi	x0,x0,0
    191c:	00000013          	addi	x0,x0,0
    1920:	00016097          	auipc	x1,0x16
    1924:	8e4080e7          	jalr	x1,-1820(x1) # 17204 <rvmodel_io_write_str>

00001928 <print_testnamestr>:
    1928:	00000013          	addi	x0,x0,0
    192c:	00000013          	addi	x0,x0,0
    1930:	00000013          	addi	x0,x0,0
    1934:	00000013          	addi	x0,x0,0
    1938:	00000013          	addi	x0,x0,0
    193c:	00000013          	addi	x0,x0,0
    1940:	00005517          	auipc	x10,0x5
    1944:	92b50513          	addi	x10,x10,-1749 # 626b <testnamestr>
    1948:	00000013          	addi	x0,x0,0
    194c:	00000013          	addi	x0,x0,0
    1950:	00000013          	addi	x0,x0,0
    1954:	00000013          	addi	x0,x0,0
    1958:	00000013          	addi	x0,x0,0
    195c:	00000013          	addi	x0,x0,0
    1960:	00016097          	auipc	x1,0x16
    1964:	8a4080e7          	jalr	x1,-1884(x1) # 17204 <rvmodel_io_write_str>

00001968 <print_failure_test_name_str>:
    1968:	00004517          	auipc	x10,0x4
    196c:	2f852503          	lw	x10,760(x10) # 5c60 <failure_string_ptr>
    1970:	00016097          	auipc	x1,0x16
    1974:	894080e7          	jalr	x1,-1900(x1) # 17204 <rvmodel_io_write_str>

00001978 <print_newline_str>:
    1978:	00000013          	addi	x0,x0,0
    197c:	00000013          	addi	x0,x0,0
    1980:	00005517          	auipc	x10,0x5
    1984:	8fd50513          	addi	x10,x10,-1795 # 627d <newlinestr>
    1988:	00000013          	addi	x0,x0,0
    198c:	00000013          	addi	x0,x0,0
    1990:	00000013          	addi	x0,x0,0
    1994:	00000013          	addi	x0,x0,0
    1998:	00000013          	addi	x0,x0,0
    199c:	00000013          	addi	x0,x0,0
    19a0:	00016097          	auipc	x1,0x16
    19a4:	864080e7          	jalr	x1,-1948(x1) # 17204 <rvmodel_io_write_str>
    19a8:	00004517          	auipc	x10,0x4
    19ac:	19852503          	lw	x10,408(x10) # 5b40 <begin_failure_scratch>
    19b0:	00300593          	addi	x11,x0,3
    19b4:	3eb50c63          	beq	x10,x11,1dac <failedtest_report_trap_detailed>
    19b8:	00000013          	addi	x0,x0,0
    19bc:	00000013          	addi	x0,x0,0
    19c0:	00005517          	auipc	x10,0x5
    19c4:	8bf50513          	addi	x10,x10,-1857 # 627f <inststr>
    19c8:	00000013          	addi	x0,x0,0
    19cc:	00000013          	addi	x0,x0,0
    19d0:	00000013          	addi	x0,x0,0
    19d4:	00000013          	addi	x0,x0,0
    19d8:	00000013          	addi	x0,x0,0
    19dc:	00000013          	addi	x0,x0,0
    19e0:	00016097          	auipc	x1,0x16
    19e4:	824080e7          	jalr	x1,-2012(x1) # 17204 <rvmodel_io_write_str>
    19e8:	00004517          	auipc	x10,0x4
    19ec:	25852503          	lw	x10,600(x10) # 5c40 <failing_instruction>
    19f0:	02000593          	addi	x11,x0,32
    19f4:	00357613          	andi	x12,x10,3
    19f8:	00300693          	addi	x13,x0,3
    19fc:	00d60463          	beq	x12,x13,1a04 <print_newline_str+0x8c>
    1a00:	01000593          	addi	x11,x0,16
    1a04:	2f4010ef          	jal	x1,2cf8 <failedtest_hex_to_str>
    1a08:	00000013          	addi	x0,x0,0
    1a0c:	00000013          	addi	x0,x0,0
    1a10:	00000013          	addi	x0,x0,0
    1a14:	00000013          	addi	x0,x0,0
    1a18:	00000013          	addi	x0,x0,0
    1a1c:	00000013          	addi	x0,x0,0
    1a20:	00004517          	auipc	x10,0x4
    1a24:	2a850513          	addi	x10,x10,680 # 5cc8 <ascii_buffer>
    1a28:	00000013          	addi	x0,x0,0
    1a2c:	00000013          	addi	x0,x0,0
    1a30:	00000013          	addi	x0,x0,0
    1a34:	00000013          	addi	x0,x0,0
    1a38:	00000013          	addi	x0,x0,0
    1a3c:	00000013          	addi	x0,x0,0
    1a40:	00015097          	auipc	x1,0x15
    1a44:	7c4080e7          	jalr	x1,1988(x1) # 17204 <rvmodel_io_write_str>
    1a48:	00000013          	addi	x0,x0,0
    1a4c:	00000013          	addi	x0,x0,0
    1a50:	00000013          	addi	x0,x0,0
    1a54:	00000013          	addi	x0,x0,0
    1a58:	00000013          	addi	x0,x0,0
    1a5c:	00000013          	addi	x0,x0,0
    1a60:	00005517          	auipc	x10,0x5
    1a64:	83350513          	addi	x10,x10,-1997 # 6293 <addrstr>
    1a68:	00000013          	addi	x0,x0,0
    1a6c:	00000013          	addi	x0,x0,0
    1a70:	00000013          	addi	x0,x0,0
    1a74:	00000013          	addi	x0,x0,0
    1a78:	00000013          	addi	x0,x0,0
    1a7c:	00000013          	addi	x0,x0,0
    1a80:	00015097          	auipc	x1,0x15
    1a84:	784080e7          	jalr	x1,1924(x1) # 17204 <rvmodel_io_write_str>
    1a88:	00004517          	auipc	x10,0x4
    1a8c:	1c052503          	lw	x10,448(x10) # 5c48 <failing_addr>
    1a90:	02000593          	addi	x11,x0,32
    1a94:	264010ef          	jal	x1,2cf8 <failedtest_hex_to_str>
    1a98:	00000013          	addi	x0,x0,0
    1a9c:	00000013          	addi	x0,x0,0
    1aa0:	00004517          	auipc	x10,0x4
    1aa4:	22850513          	addi	x10,x10,552 # 5cc8 <ascii_buffer>
    1aa8:	00000013          	addi	x0,x0,0
    1aac:	00000013          	addi	x0,x0,0
    1ab0:	00000013          	addi	x0,x0,0
    1ab4:	00000013          	addi	x0,x0,0
    1ab8:	00000013          	addi	x0,x0,0
    1abc:	00000013          	addi	x0,x0,0
    1ac0:	00015097          	auipc	x1,0x15
    1ac4:	744080e7          	jalr	x1,1860(x1) # 17204 <rvmodel_io_write_str>
    1ac8:	00000013          	addi	x0,x0,0
    1acc:	00000013          	addi	x0,x0,0
    1ad0:	00000013          	addi	x0,x0,0
    1ad4:	00000013          	addi	x0,x0,0
    1ad8:	00000013          	addi	x0,x0,0
    1adc:	00000013          	addi	x0,x0,0
    1ae0:	00005517          	auipc	x10,0x5
    1ae4:	23050513          	addi	x10,x10,560 # 6d10 <regstr>
    1ae8:	00000013          	addi	x0,x0,0
    1aec:	00000013          	addi	x0,x0,0
    1af0:	00000013          	addi	x0,x0,0
    1af4:	00000013          	addi	x0,x0,0
    1af8:	00000013          	addi	x0,x0,0
    1afc:	00000013          	addi	x0,x0,0
    1b00:	00015097          	auipc	x1,0x15
    1b04:	704080e7          	jalr	x1,1796(x1) # 17204 <rvmodel_io_write_str>
    1b08:	00004517          	auipc	x10,0x4
    1b0c:	03852503          	lw	x10,56(x10) # 5b40 <begin_failure_scratch>
    1b10:	00050663          	beq	x10,x0,1b1c <print_newline_str+0x1a4>
    1b14:	00300593          	addi	x11,x0,3
    1b18:	04b51063          	bne	x10,x11,1b58 <failedtest_report_not_intreg>
    1b1c:	07800593          	addi	x11,x0,120
    1b20:	00004617          	auipc	x12,0x4
    1b24:	1a860613          	addi	x12,x12,424 # 5cc8 <ascii_buffer>
    1b28:	00000013          	addi	x0,x0,0
    1b2c:	00000013          	addi	x0,x0,0
    1b30:	00000013          	addi	x0,x0,0
    1b34:	00000013          	addi	x0,x0,0
    1b38:	00000013          	addi	x0,x0,0
    1b3c:	00000013          	addi	x0,x0,0
    1b40:	00b60023          	sb	x11,0(x12)
    1b44:	00160613          	addi	x12,x12,1
    1b48:	00004517          	auipc	x10,0x4
    1b4c:	0fc52503          	lw	x10,252(x10) # 5c44 <failing_reg>
    1b50:	224010ef          	jal	x1,2d74 <failedtest_dec_to_str>
    1b54:	0e00006f          	jal	x0,1c34 <failedtest_report_print_regstr>

00001b58 <failedtest_report_not_intreg>:
    1b58:	00100593          	addi	x11,x0,1
    1b5c:	04b50863          	beq	x10,x11,1bac <failedtest_report_fpreg>
    1b60:	00400593          	addi	x11,x0,4
    1b64:	08b50a63          	beq	x10,x11,1bf8 <failedtest_report_vecreg>
    1b68:	00000013          	addi	x0,x0,0
    1b6c:	00000013          	addi	x0,x0,0
    1b70:	00000013          	addi	x0,x0,0
    1b74:	00000013          	addi	x0,x0,0
    1b78:	00000013          	addi	x0,x0,0
    1b7c:	00000013          	addi	x0,x0,0
    1b80:	00005517          	auipc	x10,0x5
    1b84:	1f050513          	addi	x10,x10,496 # 6d70 <fflagsstr>
    1b88:	00000013          	addi	x0,x0,0
    1b8c:	00000013          	addi	x0,x0,0
    1b90:	00000013          	addi	x0,x0,0
    1b94:	00000013          	addi	x0,x0,0
    1b98:	00000013          	addi	x0,x0,0
    1b9c:	00000013          	addi	x0,x0,0
    1ba0:	00015097          	auipc	x1,0x15
    1ba4:	664080e7          	jalr	x1,1636(x1) # 17204 <rvmodel_io_write_str>
    1ba8:	0c00006f          	jal	x0,1c68 <failedtest_report_after_reg>

00001bac <failedtest_report_fpreg>:
    1bac:	06600593          	addi	x11,x0,102
    1bb0:	00000013          	addi	x0,x0,0
    1bb4:	00000013          	addi	x0,x0,0
    1bb8:	00000013          	addi	x0,x0,0
    1bbc:	00000013          	addi	x0,x0,0
    1bc0:	00004617          	auipc	x12,0x4
    1bc4:	10860613          	addi	x12,x12,264 # 5cc8 <ascii_buffer>
    1bc8:	00000013          	addi	x0,x0,0
    1bcc:	00000013          	addi	x0,x0,0
    1bd0:	00000013          	addi	x0,x0,0
    1bd4:	00000013          	addi	x0,x0,0
    1bd8:	00000013          	addi	x0,x0,0
    1bdc:	00000013          	addi	x0,x0,0
    1be0:	00b60023          	sb	x11,0(x12)
    1be4:	00160613          	addi	x12,x12,1
    1be8:	00004517          	auipc	x10,0x4
    1bec:	05c52503          	lw	x10,92(x10) # 5c44 <failing_reg>
    1bf0:	184010ef          	jal	x1,2d74 <failedtest_dec_to_str>
    1bf4:	0400006f          	jal	x0,1c34 <failedtest_report_print_regstr>

00001bf8 <failedtest_report_vecreg>:
    1bf8:	07600593          	addi	x11,x0,118
    1bfc:	00000013          	addi	x0,x0,0
    1c00:	00004617          	auipc	x12,0x4
    1c04:	0c860613          	addi	x12,x12,200 # 5cc8 <ascii_buffer>
    1c08:	00000013          	addi	x0,x0,0
    1c0c:	00000013          	addi	x0,x0,0
    1c10:	00000013          	addi	x0,x0,0
    1c14:	00000013          	addi	x0,x0,0
    1c18:	00000013          	addi	x0,x0,0
    1c1c:	00000013          	addi	x0,x0,0
    1c20:	00b60023          	sb	x11,0(x12)
    1c24:	00160613          	addi	x12,x12,1
    1c28:	00004517          	auipc	x10,0x4
    1c2c:	01c52503          	lw	x10,28(x10) # 5c44 <failing_reg>
    1c30:	144010ef          	jal	x1,2d74 <failedtest_dec_to_str>

00001c34 <failedtest_report_print_regstr>:
    1c34:	00000013          	addi	x0,x0,0
    1c38:	00000013          	addi	x0,x0,0
    1c3c:	00000013          	addi	x0,x0,0
    1c40:	00004517          	auipc	x10,0x4
    1c44:	08850513          	addi	x10,x10,136 # 5cc8 <ascii_buffer>
    1c48:	00000013          	addi	x0,x0,0
    1c4c:	00000013          	addi	x0,x0,0
    1c50:	00000013          	addi	x0,x0,0
    1c54:	00000013          	addi	x0,x0,0
    1c58:	00000013          	addi	x0,x0,0
    1c5c:	00000013          	addi	x0,x0,0
    1c60:	00015097          	auipc	x1,0x15
    1c64:	5a4080e7          	jalr	x1,1444(x1) # 17204 <rvmodel_io_write_str>

00001c68 <failedtest_report_after_reg>:
    1c68:	00000013          	addi	x0,x0,0
    1c6c:	00000013          	addi	x0,x0,0
    1c70:	00000013          	addi	x0,x0,0
    1c74:	00000013          	addi	x0,x0,0
    1c78:	00000013          	addi	x0,x0,0
    1c7c:	00000013          	addi	x0,x0,0
    1c80:	00005517          	auipc	x10,0x5
    1c84:	0a150513          	addi	x10,x10,161 # 6d21 <badvalstr>
    1c88:	00000013          	addi	x0,x0,0
    1c8c:	00000013          	addi	x0,x0,0
    1c90:	00000013          	addi	x0,x0,0
    1c94:	00000013          	addi	x0,x0,0
    1c98:	00000013          	addi	x0,x0,0
    1c9c:	00000013          	addi	x0,x0,0
    1ca0:	00015097          	auipc	x1,0x15
    1ca4:	564080e7          	jalr	x1,1380(x1) # 17204 <rvmodel_io_write_str>
    1ca8:	00004517          	auipc	x10,0x4
    1cac:	e9852503          	lw	x10,-360(x10) # 5b40 <begin_failure_scratch>
    1cb0:	00100593          	addi	x11,x0,1
    1cb4:	00b51c63          	bne	x10,x11,1ccc <failedtest_report_badval_not_fp>
    1cb8:	00004517          	auipc	x10,0x4
    1cbc:	f9852503          	lw	x10,-104(x10) # 5c50 <failing_value>
    1cc0:	02000593          	addi	x11,x0,32
    1cc4:	034010ef          	jal	x1,2cf8 <failedtest_hex_to_str>
    1cc8:	0140006f          	jal	x0,1cdc <failedtest_report_badval_done>

00001ccc <failedtest_report_badval_not_fp>:
    1ccc:	00004517          	auipc	x10,0x4
    1cd0:	f8452503          	lw	x10,-124(x10) # 5c50 <failing_value>
    1cd4:	02000593          	addi	x11,x0,32
    1cd8:	020010ef          	jal	x1,2cf8 <failedtest_hex_to_str>

00001cdc <failedtest_report_badval_done>:
    1cdc:	00000013          	addi	x0,x0,0
    1ce0:	00004517          	auipc	x10,0x4
    1ce4:	fe850513          	addi	x10,x10,-24 # 5cc8 <ascii_buffer>
    1ce8:	00000013          	addi	x0,x0,0
    1cec:	00000013          	addi	x0,x0,0
    1cf0:	00000013          	addi	x0,x0,0
    1cf4:	00000013          	addi	x0,x0,0
    1cf8:	00000013          	addi	x0,x0,0
    1cfc:	00000013          	addi	x0,x0,0
    1d00:	00015097          	auipc	x1,0x15
    1d04:	504080e7          	jalr	x1,1284(x1) # 17204 <rvmodel_io_write_str>
    1d08:	00000013          	addi	x0,x0,0
    1d0c:	00000013          	addi	x0,x0,0
    1d10:	00000013          	addi	x0,x0,0
    1d14:	00000013          	addi	x0,x0,0
    1d18:	00000013          	addi	x0,x0,0
    1d1c:	00000013          	addi	x0,x0,0
    1d20:	00005517          	auipc	x10,0x5
    1d24:	01850513          	addi	x10,x10,24 # 6d38 <expvalstr>
    1d28:	00000013          	addi	x0,x0,0
    1d2c:	00000013          	addi	x0,x0,0
    1d30:	00000013          	addi	x0,x0,0
    1d34:	00000013          	addi	x0,x0,0
    1d38:	00000013          	addi	x0,x0,0
    1d3c:	00000013          	addi	x0,x0,0
    1d40:	00015097          	auipc	x1,0x15
    1d44:	4c4080e7          	jalr	x1,1220(x1) # 17204 <rvmodel_io_write_str>
    1d48:	00004517          	auipc	x10,0x4
    1d4c:	df852503          	lw	x10,-520(x10) # 5b40 <begin_failure_scratch>
    1d50:	00100593          	addi	x11,x0,1
    1d54:	00b51c63          	bne	x10,x11,1d6c <failedtest_report_expval_not_fp>
    1d58:	00004517          	auipc	x10,0x4
    1d5c:	f0052503          	lw	x10,-256(x10) # 5c58 <expected_value>
    1d60:	02000593          	addi	x11,x0,32
    1d64:	795000ef          	jal	x1,2cf8 <failedtest_hex_to_str>
    1d68:	0140006f          	jal	x0,1d7c <failedtest_report_expval_done>

00001d6c <failedtest_report_expval_not_fp>:
    1d6c:	00004517          	auipc	x10,0x4
    1d70:	eec52503          	lw	x10,-276(x10) # 5c58 <expected_value>
    1d74:	02000593          	addi	x11,x0,32
    1d78:	781000ef          	jal	x1,2cf8 <failedtest_hex_to_str>

00001d7c <failedtest_report_expval_done>:
    1d7c:	00000013          	addi	x0,x0,0
    1d80:	00004517          	auipc	x10,0x4
    1d84:	f4850513          	addi	x10,x10,-184 # 5cc8 <ascii_buffer>
    1d88:	00000013          	addi	x0,x0,0
    1d8c:	00000013          	addi	x0,x0,0
    1d90:	00000013          	addi	x0,x0,0
    1d94:	00000013          	addi	x0,x0,0
    1d98:	00000013          	addi	x0,x0,0
    1d9c:	00000013          	addi	x0,x0,0
    1da0:	00015097          	auipc	x1,0x15
    1da4:	464080e7          	jalr	x1,1124(x1) # 17204 <rvmodel_io_write_str>
    1da8:	4fd0006f          	jal	x0,2aa4 <failedtest_report_end>

00001dac <failedtest_report_trap_detailed>:
    1dac:	00000013          	addi	x0,x0,0
    1db0:	00000013          	addi	x0,x0,0
    1db4:	00000013          	addi	x0,x0,0
    1db8:	00000013          	addi	x0,x0,0
    1dbc:	00000013          	addi	x0,x0,0
    1dc0:	00005517          	auipc	x10,0x5
    1dc4:	fdc50513          	addi	x10,x10,-36 # 6d9c <trap_diag_header_str>
    1dc8:	00000013          	addi	x0,x0,0
    1dcc:	00000013          	addi	x0,x0,0
    1dd0:	00000013          	addi	x0,x0,0
    1dd4:	00000013          	addi	x0,x0,0
    1dd8:	00000013          	addi	x0,x0,0
    1ddc:	00000013          	addi	x0,x0,0
    1de0:	00015097          	auipc	x1,0x15
    1de4:	424080e7          	jalr	x1,1060(x1) # 17204 <rvmodel_io_write_str>
    1de8:	00000013          	addi	x0,x0,0
    1dec:	00000013          	addi	x0,x0,0
    1df0:	00000013          	addi	x0,x0,0
    1df4:	00000013          	addi	x0,x0,0
    1df8:	00000013          	addi	x0,x0,0
    1dfc:	00000013          	addi	x0,x0,0
    1e00:	00005517          	auipc	x10,0x5
    1e04:	fc850513          	addi	x10,x10,-56 # 6dc8 <trap_diag_origstr_label>
    1e08:	00000013          	addi	x0,x0,0
    1e0c:	00000013          	addi	x0,x0,0
    1e10:	00000013          	addi	x0,x0,0
    1e14:	00000013          	addi	x0,x0,0
    1e18:	00000013          	addi	x0,x0,0
    1e1c:	00000013          	addi	x0,x0,0
    1e20:	00015097          	auipc	x1,0x15
    1e24:	3e4080e7          	jalr	x1,996(x1) # 17204 <rvmodel_io_write_str>
    1e28:	00004817          	auipc	x16,0x4
    1e2c:	e7080813          	addi	x16,x16,-400 # 5c98 <trap_diag_fail_str_ptr>
    1e30:	00082503          	lw	x10,0(x16)
    1e34:	00015097          	auipc	x1,0x15
    1e38:	3d0080e7          	jalr	x1,976(x1) # 17204 <rvmodel_io_write_str>
    1e3c:	00000013          	addi	x0,x0,0
    1e40:	00004517          	auipc	x10,0x4
    1e44:	43d50513          	addi	x10,x10,1085 # 627d <newlinestr>
    1e48:	00000013          	addi	x0,x0,0
    1e4c:	00000013          	addi	x0,x0,0
    1e50:	00000013          	addi	x0,x0,0
    1e54:	00000013          	addi	x0,x0,0
    1e58:	00000013          	addi	x0,x0,0
    1e5c:	00000013          	addi	x0,x0,0
    1e60:	00015097          	auipc	x1,0x15
    1e64:	3a4080e7          	jalr	x1,932(x1) # 17204 <rvmodel_io_write_str>
    1e68:	00004417          	auipc	x8,0x4
    1e6c:	e0842403          	lw	x8,-504(x8) # 5c70 <trap_diag_subtype>
    1e70:	00900493          	addi	x9,x0,9
    1e74:	00940663          	beq	x8,x9,1e80 <trap_report_offset_mismatch>
    1e78:	2a040ce3          	beq	x8,x0,2930 <trap_report_generic>
    1e7c:	3780006f          	jal	x0,21f4 <trap_report_field_mismatch>

00001e80 <trap_report_offset_mismatch>:
    1e80:	00005517          	auipc	x10,0x5
    1e84:	f5850513          	addi	x10,x10,-168 # 6dd8 <trap_diag_count_mismatch_str>
    1e88:	00000013          	addi	x0,x0,0
    1e8c:	00000013          	addi	x0,x0,0
    1e90:	00000013          	addi	x0,x0,0
    1e94:	00000013          	addi	x0,x0,0
    1e98:	00000013          	addi	x0,x0,0
    1e9c:	00000013          	addi	x0,x0,0
    1ea0:	00015097          	auipc	x1,0x15
    1ea4:	364080e7          	jalr	x1,868(x1) # 17204 <rvmodel_io_write_str>
    1ea8:	00000013          	addi	x0,x0,0
    1eac:	00000013          	addi	x0,x0,0
    1eb0:	00000013          	addi	x0,x0,0
    1eb4:	00000013          	addi	x0,x0,0
    1eb8:	00000013          	addi	x0,x0,0
    1ebc:	00000013          	addi	x0,x0,0
    1ec0:	00005517          	auipc	x10,0x5
    1ec4:	f7950513          	addi	x10,x10,-135 # 6e39 <trap_diag_expected_offset_str>
    1ec8:	00000013          	addi	x0,x0,0
    1ecc:	00000013          	addi	x0,x0,0
    1ed0:	00000013          	addi	x0,x0,0
    1ed4:	00000013          	addi	x0,x0,0
    1ed8:	00000013          	addi	x0,x0,0
    1edc:	00000013          	addi	x0,x0,0
    1ee0:	00015097          	auipc	x1,0x15
    1ee4:	324080e7          	jalr	x1,804(x1) # 17204 <rvmodel_io_write_str>
    1ee8:	00004517          	auipc	x10,0x4
    1eec:	da852503          	lw	x10,-600(x10) # 5c90 <trap_diag_expected_offset>
    1ef0:	02000593          	addi	x11,x0,32
    1ef4:	605000ef          	jal	x1,2cf8 <failedtest_hex_to_str>
    1ef8:	00000013          	addi	x0,x0,0
    1efc:	00000013          	addi	x0,x0,0
    1f00:	00004517          	auipc	x10,0x4
    1f04:	dc850513          	addi	x10,x10,-568 # 5cc8 <ascii_buffer>
    1f08:	00000013          	addi	x0,x0,0
    1f0c:	00000013          	addi	x0,x0,0
    1f10:	00000013          	addi	x0,x0,0
    1f14:	00000013          	addi	x0,x0,0
    1f18:	00000013          	addi	x0,x0,0
    1f1c:	00000013          	addi	x0,x0,0
    1f20:	00015097          	auipc	x1,0x15
    1f24:	2e4080e7          	jalr	x1,740(x1) # 17204 <rvmodel_io_write_str>
    1f28:	00000013          	addi	x0,x0,0
    1f2c:	00000013          	addi	x0,x0,0
    1f30:	00000013          	addi	x0,x0,0
    1f34:	00000013          	addi	x0,x0,0
    1f38:	00000013          	addi	x0,x0,0
    1f3c:	00000013          	addi	x0,x0,0
    1f40:	00005517          	auipc	x10,0x5
    1f44:	f2050513          	addi	x10,x10,-224 # 6e60 <trap_diag_actual_offset_str>
    1f48:	00000013          	addi	x0,x0,0
    1f4c:	00000013          	addi	x0,x0,0
    1f50:	00000013          	addi	x0,x0,0
    1f54:	00000013          	addi	x0,x0,0
    1f58:	00000013          	addi	x0,x0,0
    1f5c:	00000013          	addi	x0,x0,0
    1f60:	00015097          	auipc	x1,0x15
    1f64:	2a4080e7          	jalr	x1,676(x1) # 17204 <rvmodel_io_write_str>
    1f68:	00004517          	auipc	x10,0x4
    1f6c:	d2052503          	lw	x10,-736(x10) # 5c88 <trap_diag_actual_offset>
    1f70:	02000593          	addi	x11,x0,32
    1f74:	585000ef          	jal	x1,2cf8 <failedtest_hex_to_str>
    1f78:	00000013          	addi	x0,x0,0
    1f7c:	00000013          	addi	x0,x0,0
    1f80:	00004517          	auipc	x10,0x4
    1f84:	d4850513          	addi	x10,x10,-696 # 5cc8 <ascii_buffer>
    1f88:	00000013          	addi	x0,x0,0
    1f8c:	00000013          	addi	x0,x0,0
    1f90:	00000013          	addi	x0,x0,0
    1f94:	00000013          	addi	x0,x0,0
    1f98:	00000013          	addi	x0,x0,0
    1f9c:	00000013          	addi	x0,x0,0
    1fa0:	00015097          	auipc	x1,0x15
    1fa4:	264080e7          	jalr	x1,612(x1) # 17204 <rvmodel_io_write_str>
    1fa8:	00004317          	auipc	x6,0x4
    1fac:	ce032303          	lw	x6,-800(x6) # 5c88 <trap_diag_actual_offset>
    1fb0:	00004397          	auipc	x7,0x4
    1fb4:	ce03a383          	lw	x7,-800(x7) # 5c90 <trap_diag_expected_offset>
    1fb8:	10734e63          	blt	x6,x7,20d4 <trap_report_missing_traps>

00001fbc <trap_report_extra_traps>:
    1fbc:	00000013          	addi	x0,x0,0
    1fc0:	00005517          	auipc	x10,0x5
    1fc4:	ec750513          	addi	x10,x10,-313 # 6e87 <trap_diag_extra_traps_str>
    1fc8:	00000013          	addi	x0,x0,0
    1fcc:	00000013          	addi	x0,x0,0
    1fd0:	00000013          	addi	x0,x0,0
    1fd4:	00000013          	addi	x0,x0,0
    1fd8:	00000013          	addi	x0,x0,0
    1fdc:	00000013          	addi	x0,x0,0
    1fe0:	00015097          	auipc	x1,0x15
    1fe4:	224080e7          	jalr	x1,548(x1) # 17204 <rvmodel_io_write_str>
    1fe8:	00004317          	auipc	x6,0x4
    1fec:	ca032303          	lw	x6,-864(x6) # 5c88 <trap_diag_actual_offset>
    1ff0:	00004397          	auipc	x7,0x4
    1ff4:	ca03a383          	lw	x7,-864(x7) # 5c90 <trap_diag_expected_offset>
    1ff8:	40730333          	sub	x6,x6,x7
    1ffc:	00235313          	srli	x6,x6,0x2
    2000:	00005517          	auipc	x10,0x5
    2004:	f0c50513          	addi	x10,x10,-244 # 6f0c <trap_diag_extra_bytes_str>
    2008:	00000013          	addi	x0,x0,0
    200c:	00000013          	addi	x0,x0,0
    2010:	00000013          	addi	x0,x0,0
    2014:	00000013          	addi	x0,x0,0
    2018:	00000013          	addi	x0,x0,0
    201c:	00000013          	addi	x0,x0,0
    2020:	00015097          	auipc	x1,0x15
    2024:	1e4080e7          	jalr	x1,484(x1) # 17204 <rvmodel_io_write_str>
    2028:	00004317          	auipc	x6,0x4
    202c:	c6032303          	lw	x6,-928(x6) # 5c88 <trap_diag_actual_offset>
    2030:	00004397          	auipc	x7,0x4
    2034:	c603a383          	lw	x7,-928(x7) # 5c90 <trap_diag_expected_offset>
    2038:	40730533          	sub	x10,x6,x7
    203c:	02000593          	addi	x11,x0,32
    2040:	4b9000ef          	jal	x1,2cf8 <failedtest_hex_to_str>
    2044:	00000013          	addi	x0,x0,0
    2048:	00000013          	addi	x0,x0,0
    204c:	00000013          	addi	x0,x0,0
    2050:	00000013          	addi	x0,x0,0
    2054:	00000013          	addi	x0,x0,0
    2058:	00000013          	addi	x0,x0,0
    205c:	00000013          	addi	x0,x0,0
    2060:	00004517          	auipc	x10,0x4
    2064:	c6850513          	addi	x10,x10,-920 # 5cc8 <ascii_buffer>
    2068:	00000013          	addi	x0,x0,0
    206c:	00000013          	addi	x0,x0,0
    2070:	00000013          	addi	x0,x0,0
    2074:	00000013          	addi	x0,x0,0
    2078:	00000013          	addi	x0,x0,0
    207c:	00000013          	addi	x0,x0,0
    2080:	00015097          	auipc	x1,0x15
    2084:	184080e7          	jalr	x1,388(x1) # 17204 <rvmodel_io_write_str>
    2088:	00000013          	addi	x0,x0,0
    208c:	00000013          	addi	x0,x0,0
    2090:	00000013          	addi	x0,x0,0
    2094:	00000013          	addi	x0,x0,0
    2098:	00000013          	addi	x0,x0,0
    209c:	00000013          	addi	x0,x0,0
    20a0:	00005517          	auipc	x10,0x5
    20a4:	e9750513          	addi	x10,x10,-361 # 6f37 <trap_diag_extra_hint_str>
    20a8:	00000013          	addi	x0,x0,0
    20ac:	00000013          	addi	x0,x0,0
    20b0:	00000013          	addi	x0,x0,0
    20b4:	00000013          	addi	x0,x0,0
    20b8:	00000013          	addi	x0,x0,0
    20bc:	00000013          	addi	x0,x0,0
    20c0:	00015097          	auipc	x1,0x15
    20c4:	144080e7          	jalr	x1,324(x1) # 17204 <rvmodel_io_write_str>
    20c8:	00001097          	auipc	x1,0x1
    20cc:	a28080e7          	jalr	x1,-1496(x1) # 2af0 <failedtest_print_csr_context>
    20d0:	1d50006f          	jal	x0,2aa4 <failedtest_report_end>

000020d4 <trap_report_missing_traps>:
    20d4:	00000013          	addi	x0,x0,0
    20d8:	00000013          	addi	x0,x0,0
    20dc:	00000013          	addi	x0,x0,0
    20e0:	00005517          	auipc	x10,0x5
    20e4:	de150513          	addi	x10,x10,-543 # 6ec1 <trap_diag_missing_traps_str>
    20e8:	00000013          	addi	x0,x0,0
    20ec:	00000013          	addi	x0,x0,0
    20f0:	00000013          	addi	x0,x0,0
    20f4:	00000013          	addi	x0,x0,0
    20f8:	00000013          	addi	x0,x0,0
    20fc:	00000013          	addi	x0,x0,0
    2100:	00015097          	auipc	x1,0x15
    2104:	104080e7          	jalr	x1,260(x1) # 17204 <rvmodel_io_write_str>
    2108:	00000013          	addi	x0,x0,0
    210c:	00000013          	addi	x0,x0,0
    2110:	00000013          	addi	x0,x0,0
    2114:	00000013          	addi	x0,x0,0
    2118:	00000013          	addi	x0,x0,0
    211c:	00000013          	addi	x0,x0,0
    2120:	00005517          	auipc	x10,0x5
    2124:	dec50513          	addi	x10,x10,-532 # 6f0c <trap_diag_extra_bytes_str>
    2128:	00000013          	addi	x0,x0,0
    212c:	00000013          	addi	x0,x0,0
    2130:	00000013          	addi	x0,x0,0
    2134:	00000013          	addi	x0,x0,0
    2138:	00000013          	addi	x0,x0,0
    213c:	00000013          	addi	x0,x0,0
    2140:	00015097          	auipc	x1,0x15
    2144:	0c4080e7          	jalr	x1,196(x1) # 17204 <rvmodel_io_write_str>
    2148:	00004317          	auipc	x6,0x4
    214c:	b4832303          	lw	x6,-1208(x6) # 5c90 <trap_diag_expected_offset>
    2150:	00004397          	auipc	x7,0x4
    2154:	b383a383          	lw	x7,-1224(x7) # 5c88 <trap_diag_actual_offset>
    2158:	40730533          	sub	x10,x6,x7
    215c:	02000593          	addi	x11,x0,32
    2160:	399000ef          	jal	x1,2cf8 <failedtest_hex_to_str>
    2164:	00000013          	addi	x0,x0,0
    2168:	00000013          	addi	x0,x0,0
    216c:	00000013          	addi	x0,x0,0
    2170:	00000013          	addi	x0,x0,0
    2174:	00000013          	addi	x0,x0,0
    2178:	00000013          	addi	x0,x0,0
    217c:	00000013          	addi	x0,x0,0
    2180:	00004517          	auipc	x10,0x4
    2184:	b4850513          	addi	x10,x10,-1208 # 5cc8 <ascii_buffer>
    2188:	00000013          	addi	x0,x0,0
    218c:	00000013          	addi	x0,x0,0
    2190:	00000013          	addi	x0,x0,0
    2194:	00000013          	addi	x0,x0,0
    2198:	00000013          	addi	x0,x0,0
    219c:	00000013          	addi	x0,x0,0
    21a0:	00015097          	auipc	x1,0x15
    21a4:	064080e7          	jalr	x1,100(x1) # 17204 <rvmodel_io_write_str>
    21a8:	00000013          	addi	x0,x0,0
    21ac:	00000013          	addi	x0,x0,0
    21b0:	00000013          	addi	x0,x0,0
    21b4:	00000013          	addi	x0,x0,0
    21b8:	00000013          	addi	x0,x0,0
    21bc:	00000013          	addi	x0,x0,0
    21c0:	00005517          	auipc	x10,0x5
    21c4:	e5f50513          	addi	x10,x10,-417 # 701f <trap_diag_missing_hint_str>
    21c8:	00000013          	addi	x0,x0,0
    21cc:	00000013          	addi	x0,x0,0
    21d0:	00000013          	addi	x0,x0,0
    21d4:	00000013          	addi	x0,x0,0
    21d8:	00000013          	addi	x0,x0,0
    21dc:	00000013          	addi	x0,x0,0
    21e0:	00015097          	auipc	x1,0x15
    21e4:	024080e7          	jalr	x1,36(x1) # 17204 <rvmodel_io_write_str>
    21e8:	00001097          	auipc	x1,0x1
    21ec:	908080e7          	jalr	x1,-1784(x1) # 2af0 <failedtest_print_csr_context>
    21f0:	0b50006f          	jal	x0,2aa4 <failedtest_report_end>

000021f4 <trap_report_field_mismatch>:
    21f4:	00000013          	addi	x0,x0,0
    21f8:	00000013          	addi	x0,x0,0
    21fc:	00000013          	addi	x0,x0,0
    2200:	00005517          	auipc	x10,0x5
    2204:	f0650513          	addi	x10,x10,-250 # 7106 <trap_diag_handler_mode_str>
    2208:	00000013          	addi	x0,x0,0
    220c:	00000013          	addi	x0,x0,0
    2210:	00000013          	addi	x0,x0,0
    2214:	00000013          	addi	x0,x0,0
    2218:	00000013          	addi	x0,x0,0
    221c:	00000013          	addi	x0,x0,0
    2220:	00015097          	auipc	x1,0x15
    2224:	fe4080e7          	jalr	x1,-28(x1) # 17204 <rvmodel_io_write_str>
    2228:	00004517          	auipc	x10,0x4
    222c:	a4c52503          	lw	x10,-1460(x10) # 5c74 <trap_diag_mode>
    2230:	04050a63          	beq	x10,x0,2284 <trap_mode_m>
    2234:	00100593          	addi	x11,x0,1
    2238:	08b50663          	beq	x10,x11,22c4 <trap_mode_s>
    223c:	00200593          	addi	x11,x0,2
    2240:	0cb50263          	beq	x10,x11,2304 <trap_mode_h>
    2244:	00300593          	addi	x11,x0,3
    2248:	0eb50e63          	beq	x10,x11,2344 <trap_mode_v>
    224c:	00000013          	addi	x0,x0,0
    2250:	00000013          	addi	x0,x0,0
    2254:	00000013          	addi	x0,x0,0
    2258:	00000013          	addi	x0,x0,0
    225c:	00000013          	addi	x0,x0,0
    2260:	00005517          	auipc	x10,0x5
    2264:	ee250513          	addi	x10,x10,-286 # 7142 <trap_diag_mode_unknown_str>
    2268:	00000013          	addi	x0,x0,0
    226c:	00000013          	addi	x0,x0,0
    2270:	00000013          	addi	x0,x0,0
    2274:	00000013          	addi	x0,x0,0
    2278:	00000013          	addi	x0,x0,0
    227c:	00000013          	addi	x0,x0,0
    2280:	1000006f          	jal	x0,2380 <trap_mode_print>

00002284 <trap_mode_m>:
    2284:	00000013          	addi	x0,x0,0
    2288:	00000013          	addi	x0,x0,0
    228c:	00000013          	addi	x0,x0,0
    2290:	00000013          	addi	x0,x0,0
    2294:	00000013          	addi	x0,x0,0
    2298:	00000013          	addi	x0,x0,0
    229c:	00000013          	addi	x0,x0,0
    22a0:	00005517          	auipc	x10,0x5
    22a4:	e8050513          	addi	x10,x10,-384 # 7120 <trap_diag_mode_m_str>
    22a8:	00000013          	addi	x0,x0,0
    22ac:	00000013          	addi	x0,x0,0
    22b0:	00000013          	addi	x0,x0,0
    22b4:	00000013          	addi	x0,x0,0
    22b8:	00000013          	addi	x0,x0,0
    22bc:	00000013          	addi	x0,x0,0
    22c0:	0c00006f          	jal	x0,2380 <trap_mode_print>

000022c4 <trap_mode_s>:
    22c4:	00000013          	addi	x0,x0,0
    22c8:	00000013          	addi	x0,x0,0
    22cc:	00000013          	addi	x0,x0,0
    22d0:	00000013          	addi	x0,x0,0
    22d4:	00000013          	addi	x0,x0,0
    22d8:	00000013          	addi	x0,x0,0
    22dc:	00000013          	addi	x0,x0,0
    22e0:	00005517          	auipc	x10,0x5
    22e4:	e4850513          	addi	x10,x10,-440 # 7128 <trap_diag_mode_s_str>
    22e8:	00000013          	addi	x0,x0,0
    22ec:	00000013          	addi	x0,x0,0
    22f0:	00000013          	addi	x0,x0,0
    22f4:	00000013          	addi	x0,x0,0
    22f8:	00000013          	addi	x0,x0,0
    22fc:	00000013          	addi	x0,x0,0
    2300:	0800006f          	jal	x0,2380 <trap_mode_print>

00002304 <trap_mode_h>:
    2304:	00000013          	addi	x0,x0,0
    2308:	00000013          	addi	x0,x0,0
    230c:	00000013          	addi	x0,x0,0
    2310:	00000013          	addi	x0,x0,0
    2314:	00000013          	addi	x0,x0,0
    2318:	00000013          	addi	x0,x0,0
    231c:	00000013          	addi	x0,x0,0
    2320:	00005517          	auipc	x10,0x5
    2324:	e1050513          	addi	x10,x10,-496 # 7130 <trap_diag_mode_hs_str>
    2328:	00000013          	addi	x0,x0,0
    232c:	00000013          	addi	x0,x0,0
    2330:	00000013          	addi	x0,x0,0
    2334:	00000013          	addi	x0,x0,0
    2338:	00000013          	addi	x0,x0,0
    233c:	00000013          	addi	x0,x0,0
    2340:	0400006f          	jal	x0,2380 <trap_mode_print>

00002344 <trap_mode_v>:
    2344:	00000013          	addi	x0,x0,0
    2348:	00000013          	addi	x0,x0,0
    234c:	00000013          	addi	x0,x0,0
    2350:	00000013          	addi	x0,x0,0
    2354:	00000013          	addi	x0,x0,0
    2358:	00000013          	addi	x0,x0,0
    235c:	00000013          	addi	x0,x0,0
    2360:	00005517          	auipc	x10,0x5
    2364:	dd950513          	addi	x10,x10,-551 # 7139 <trap_diag_mode_vs_str>
    2368:	00000013          	addi	x0,x0,0
    236c:	00000013          	addi	x0,x0,0
    2370:	00000013          	addi	x0,x0,0
    2374:	00000013          	addi	x0,x0,0
    2378:	00000013          	addi	x0,x0,0
    237c:	00000013          	addi	x0,x0,0

00002380 <trap_mode_print>:
    2380:	00015097          	auipc	x1,0x15
    2384:	e84080e7          	jalr	x1,-380(x1) # 17204 <rvmodel_io_write_str>
    2388:	00000013          	addi	x0,x0,0
    238c:	00000013          	addi	x0,x0,0
    2390:	00000013          	addi	x0,x0,0
    2394:	00000013          	addi	x0,x0,0
    2398:	00000013          	addi	x0,x0,0
    239c:	00000013          	addi	x0,x0,0
    23a0:	00005517          	auipc	x10,0x5
    23a4:	dab50513          	addi	x10,x10,-597 # 714b <trap_diag_field_str>
    23a8:	00000013          	addi	x0,x0,0
    23ac:	00000013          	addi	x0,x0,0
    23b0:	00000013          	addi	x0,x0,0
    23b4:	00000013          	addi	x0,x0,0
    23b8:	00000013          	addi	x0,x0,0
    23bc:	00000013          	addi	x0,x0,0
    23c0:	00015097          	auipc	x1,0x15
    23c4:	e44080e7          	jalr	x1,-444(x1) # 17204 <rvmodel_io_write_str>
    23c8:	00004517          	auipc	x10,0x4
    23cc:	8a852503          	lw	x10,-1880(x10) # 5c70 <trap_diag_subtype>
    23d0:	00100593          	addi	x11,x0,1
    23d4:	06b50863          	beq	x10,x11,2444 <trap_field_vect>
    23d8:	00200593          	addi	x11,x0,2
    23dc:	0ab50463          	beq	x10,x11,2484 <trap_field_cause>
    23e0:	00300593          	addi	x11,x0,3
    23e4:	0eb50063          	beq	x10,x11,24c4 <trap_field_epc>
    23e8:	00400593          	addi	x11,x0,4
    23ec:	10b50c63          	beq	x10,x11,2504 <trap_field_tval>
    23f0:	00500593          	addi	x11,x0,5
    23f4:	14b50863          	beq	x10,x11,2544 <trap_field_ip>
    23f8:	00600593          	addi	x11,x0,6
    23fc:	18b50463          	beq	x10,x11,2584 <trap_field_tval2>
    2400:	00700593          	addi	x11,x0,7
    2404:	1cb50063          	beq	x10,x11,25c4 <trap_field_tinst>
    2408:	00800593          	addi	x11,x0,8
    240c:	1eb50c63          	beq	x10,x11,2604 <trap_field_intid>
    2410:	00000013          	addi	x0,x0,0
    2414:	00000013          	addi	x0,x0,0
    2418:	00000013          	addi	x0,x0,0
    241c:	00000013          	addi	x0,x0,0
    2420:	00005517          	auipc	x10,0x5
    2424:	e8250513          	addi	x10,x10,-382 # 72a2 <trap_diag_field_unknown_str>
    2428:	00000013          	addi	x0,x0,0
    242c:	00000013          	addi	x0,x0,0
    2430:	00000013          	addi	x0,x0,0
    2434:	00000013          	addi	x0,x0,0
    2438:	00000013          	addi	x0,x0,0
    243c:	00000013          	addi	x0,x0,0
    2440:	2000006f          	jal	x0,2640 <trap_field_print>

00002444 <trap_field_vect>:
    2444:	00000013          	addi	x0,x0,0
    2448:	00000013          	addi	x0,x0,0
    244c:	00000013          	addi	x0,x0,0
    2450:	00000013          	addi	x0,x0,0
    2454:	00000013          	addi	x0,x0,0
    2458:	00000013          	addi	x0,x0,0
    245c:	00000013          	addi	x0,x0,0
    2460:	00005517          	auipc	x10,0x5
    2464:	d0550513          	addi	x10,x10,-763 # 7165 <trap_diag_field_vect_str>
    2468:	00000013          	addi	x0,x0,0
    246c:	00000013          	addi	x0,x0,0
    2470:	00000013          	addi	x0,x0,0
    2474:	00000013          	addi	x0,x0,0
    2478:	00000013          	addi	x0,x0,0
    247c:	00000013          	addi	x0,x0,0
    2480:	1c00006f          	jal	x0,2640 <trap_field_print>

00002484 <trap_field_cause>:
    2484:	00000013          	addi	x0,x0,0
    2488:	00000013          	addi	x0,x0,0
    248c:	00000013          	addi	x0,x0,0
    2490:	00000013          	addi	x0,x0,0
    2494:	00000013          	addi	x0,x0,0
    2498:	00000013          	addi	x0,x0,0
    249c:	00000013          	addi	x0,x0,0
    24a0:	00005517          	auipc	x10,0x5
    24a4:	cf650513          	addi	x10,x10,-778 # 7196 <trap_diag_field_cause_str>
    24a8:	00000013          	addi	x0,x0,0
    24ac:	00000013          	addi	x0,x0,0
    24b0:	00000013          	addi	x0,x0,0
    24b4:	00000013          	addi	x0,x0,0
    24b8:	00000013          	addi	x0,x0,0
    24bc:	00000013          	addi	x0,x0,0
    24c0:	1800006f          	jal	x0,2640 <trap_field_print>

000024c4 <trap_field_epc>:
    24c4:	00000013          	addi	x0,x0,0
    24c8:	00000013          	addi	x0,x0,0
    24cc:	00000013          	addi	x0,x0,0
    24d0:	00000013          	addi	x0,x0,0
    24d4:	00000013          	addi	x0,x0,0
    24d8:	00000013          	addi	x0,x0,0
    24dc:	00000013          	addi	x0,x0,0
    24e0:	00005517          	auipc	x10,0x5
    24e4:	cd650513          	addi	x10,x10,-810 # 71b6 <trap_diag_field_epc_str>
    24e8:	00000013          	addi	x0,x0,0
    24ec:	00000013          	addi	x0,x0,0
    24f0:	00000013          	addi	x0,x0,0
    24f4:	00000013          	addi	x0,x0,0
    24f8:	00000013          	addi	x0,x0,0
    24fc:	00000013          	addi	x0,x0,0
    2500:	1400006f          	jal	x0,2640 <trap_field_print>

00002504 <trap_field_tval>:
    2504:	00000013          	addi	x0,x0,0
    2508:	00000013          	addi	x0,x0,0
    250c:	00000013          	addi	x0,x0,0
    2510:	00000013          	addi	x0,x0,0
    2514:	00000013          	addi	x0,x0,0
    2518:	00000013          	addi	x0,x0,0
    251c:	00000013          	addi	x0,x0,0
    2520:	00005517          	auipc	x10,0x5
    2524:	cb450513          	addi	x10,x10,-844 # 71d4 <trap_diag_field_tval_str>
    2528:	00000013          	addi	x0,x0,0
    252c:	00000013          	addi	x0,x0,0
    2530:	00000013          	addi	x0,x0,0
    2534:	00000013          	addi	x0,x0,0
    2538:	00000013          	addi	x0,x0,0
    253c:	00000013          	addi	x0,x0,0
    2540:	1000006f          	jal	x0,2640 <trap_field_print>

00002544 <trap_field_ip>:
    2544:	00000013          	addi	x0,x0,0
    2548:	00000013          	addi	x0,x0,0
    254c:	00000013          	addi	x0,x0,0
    2550:	00000013          	addi	x0,x0,0
    2554:	00000013          	addi	x0,x0,0
    2558:	00000013          	addi	x0,x0,0
    255c:	00000013          	addi	x0,x0,0
    2560:	00005517          	auipc	x10,0x5
    2564:	c9350513          	addi	x10,x10,-877 # 71f3 <trap_diag_field_ip_str>
    2568:	00000013          	addi	x0,x0,0
    256c:	00000013          	addi	x0,x0,0
    2570:	00000013          	addi	x0,x0,0
    2574:	00000013          	addi	x0,x0,0
    2578:	00000013          	addi	x0,x0,0
    257c:	00000013          	addi	x0,x0,0
    2580:	0c00006f          	jal	x0,2640 <trap_field_print>

00002584 <trap_field_tval2>:
    2584:	00000013          	addi	x0,x0,0
    2588:	00000013          	addi	x0,x0,0
    258c:	00000013          	addi	x0,x0,0
    2590:	00000013          	addi	x0,x0,0
    2594:	00000013          	addi	x0,x0,0
    2598:	00000013          	addi	x0,x0,0
    259c:	00000013          	addi	x0,x0,0
    25a0:	00005517          	auipc	x10,0x5
    25a4:	c7b50513          	addi	x10,x10,-901 # 721b <trap_diag_field_tval2_str>
    25a8:	00000013          	addi	x0,x0,0
    25ac:	00000013          	addi	x0,x0,0
    25b0:	00000013          	addi	x0,x0,0
    25b4:	00000013          	addi	x0,x0,0
    25b8:	00000013          	addi	x0,x0,0
    25bc:	00000013          	addi	x0,x0,0
    25c0:	0800006f          	jal	x0,2640 <trap_field_print>

000025c4 <trap_field_tinst>:
    25c4:	00000013          	addi	x0,x0,0
    25c8:	00000013          	addi	x0,x0,0
    25cc:	00000013          	addi	x0,x0,0
    25d0:	00000013          	addi	x0,x0,0
    25d4:	00000013          	addi	x0,x0,0
    25d8:	00000013          	addi	x0,x0,0
    25dc:	00000013          	addi	x0,x0,0
    25e0:	00005517          	auipc	x10,0x5
    25e4:	c6750513          	addi	x10,x10,-921 # 7247 <trap_diag_field_tinst_str>
    25e8:	00000013          	addi	x0,x0,0
    25ec:	00000013          	addi	x0,x0,0
    25f0:	00000013          	addi	x0,x0,0
    25f4:	00000013          	addi	x0,x0,0
    25f8:	00000013          	addi	x0,x0,0
    25fc:	00000013          	addi	x0,x0,0
    2600:	0400006f          	jal	x0,2640 <trap_field_print>

00002604 <trap_field_intid>:
    2604:	00000013          	addi	x0,x0,0
    2608:	00000013          	addi	x0,x0,0
    260c:	00000013          	addi	x0,x0,0
    2610:	00000013          	addi	x0,x0,0
    2614:	00000013          	addi	x0,x0,0
    2618:	00000013          	addi	x0,x0,0
    261c:	00000013          	addi	x0,x0,0
    2620:	00005517          	auipc	x10,0x5
    2624:	c5350513          	addi	x10,x10,-941 # 7273 <trap_diag_field_intid_str>
    2628:	00000013          	addi	x0,x0,0
    262c:	00000013          	addi	x0,x0,0
    2630:	00000013          	addi	x0,x0,0
    2634:	00000013          	addi	x0,x0,0
    2638:	00000013          	addi	x0,x0,0
    263c:	00000013          	addi	x0,x0,0

00002640 <trap_field_print>:
    2640:	00015097          	auipc	x1,0x15
    2644:	bc4080e7          	jalr	x1,-1084(x1) # 17204 <rvmodel_io_write_str>
    2648:	00000013          	addi	x0,x0,0
    264c:	00000013          	addi	x0,x0,0
    2650:	00000013          	addi	x0,x0,0
    2654:	00000013          	addi	x0,x0,0
    2658:	00000013          	addi	x0,x0,0
    265c:	00000013          	addi	x0,x0,0
    2660:	00005517          	auipc	x10,0x5
    2664:	c5150513          	addi	x10,x10,-943 # 72b1 <trap_diag_expected_str>
    2668:	00000013          	addi	x0,x0,0
    266c:	00000013          	addi	x0,x0,0
    2670:	00000013          	addi	x0,x0,0
    2674:	00000013          	addi	x0,x0,0
    2678:	00000013          	addi	x0,x0,0
    267c:	00000013          	addi	x0,x0,0
    2680:	00015097          	auipc	x1,0x15
    2684:	b84080e7          	jalr	x1,-1148(x1) # 17204 <rvmodel_io_write_str>
    2688:	00003517          	auipc	x10,0x3
    268c:	5f852503          	lw	x10,1528(x10) # 5c80 <trap_diag_expected_value>
    2690:	02000593          	addi	x11,x0,32
    2694:	664000ef          	jal	x1,2cf8 <failedtest_hex_to_str>
    2698:	00000013          	addi	x0,x0,0
    269c:	00000013          	addi	x0,x0,0
    26a0:	00003517          	auipc	x10,0x3
    26a4:	62850513          	addi	x10,x10,1576 # 5cc8 <ascii_buffer>
    26a8:	00000013          	addi	x0,x0,0
    26ac:	00000013          	addi	x0,x0,0
    26b0:	00000013          	addi	x0,x0,0
    26b4:	00000013          	addi	x0,x0,0
    26b8:	00000013          	addi	x0,x0,0
    26bc:	00000013          	addi	x0,x0,0
    26c0:	00015097          	auipc	x1,0x15
    26c4:	b44080e7          	jalr	x1,-1212(x1) # 17204 <rvmodel_io_write_str>
    26c8:	00000013          	addi	x0,x0,0
    26cc:	00000013          	addi	x0,x0,0
    26d0:	00000013          	addi	x0,x0,0
    26d4:	00000013          	addi	x0,x0,0
    26d8:	00000013          	addi	x0,x0,0
    26dc:	00000013          	addi	x0,x0,0
    26e0:	00005517          	auipc	x10,0x5
    26e4:	be850513          	addi	x10,x10,-1048 # 72c8 <trap_diag_actual_str>
    26e8:	00000013          	addi	x0,x0,0
    26ec:	00000013          	addi	x0,x0,0
    26f0:	00000013          	addi	x0,x0,0
    26f4:	00000013          	addi	x0,x0,0
    26f8:	00000013          	addi	x0,x0,0
    26fc:	00000013          	addi	x0,x0,0
    2700:	00015097          	auipc	x1,0x15
    2704:	b04080e7          	jalr	x1,-1276(x1) # 17204 <rvmodel_io_write_str>
    2708:	00003517          	auipc	x10,0x3
    270c:	57052503          	lw	x10,1392(x10) # 5c78 <trap_diag_actual_value>
    2710:	02000593          	addi	x11,x0,32
    2714:	5e4000ef          	jal	x1,2cf8 <failedtest_hex_to_str>
    2718:	00000013          	addi	x0,x0,0
    271c:	00000013          	addi	x0,x0,0
    2720:	00003517          	auipc	x10,0x3
    2724:	5a850513          	addi	x10,x10,1448 # 5cc8 <ascii_buffer>
    2728:	00000013          	addi	x0,x0,0
    272c:	00000013          	addi	x0,x0,0
    2730:	00000013          	addi	x0,x0,0
    2734:	00000013          	addi	x0,x0,0
    2738:	00000013          	addi	x0,x0,0
    273c:	00000013          	addi	x0,x0,0
    2740:	00015097          	auipc	x1,0x15
    2744:	ac4080e7          	jalr	x1,-1340(x1) # 17204 <rvmodel_io_write_str>
    2748:	00003517          	auipc	x10,0x3
    274c:	52852503          	lw	x10,1320(x10) # 5c70 <trap_diag_subtype>
    2750:	00200593          	addi	x11,x0,2
    2754:	08b51463          	bne	x10,x11,27dc <trap_field_not_cause>
    2758:	00000013          	addi	x0,x0,0
    275c:	00000013          	addi	x0,x0,0
    2760:	00005517          	auipc	x10,0x5
    2764:	b7f50513          	addi	x10,x10,-1153 # 72df <trap_diag_expected_cause_name_str>
    2768:	00000013          	addi	x0,x0,0
    276c:	00000013          	addi	x0,x0,0
    2770:	00000013          	addi	x0,x0,0
    2774:	00000013          	addi	x0,x0,0
    2778:	00000013          	addi	x0,x0,0
    277c:	00000013          	addi	x0,x0,0
    2780:	00015097          	auipc	x1,0x15
    2784:	a84080e7          	jalr	x1,-1404(x1) # 17204 <rvmodel_io_write_str>
    2788:	00003517          	auipc	x10,0x3
    278c:	4f852503          	lw	x10,1272(x10) # 5c80 <trap_diag_expected_value>
    2790:	284000ef          	jal	x1,2a14 <trap_cause_to_str>
    2794:	00015097          	auipc	x1,0x15
    2798:	a70080e7          	jalr	x1,-1424(x1) # 17204 <rvmodel_io_write_str>
    279c:	00000013          	addi	x0,x0,0
    27a0:	00005517          	auipc	x10,0x5
    27a4:	b5650513          	addi	x10,x10,-1194 # 72f6 <trap_diag_actual_cause_name_str>
    27a8:	00000013          	addi	x0,x0,0
    27ac:	00000013          	addi	x0,x0,0
    27b0:	00000013          	addi	x0,x0,0
    27b4:	00000013          	addi	x0,x0,0
    27b8:	00000013          	addi	x0,x0,0
    27bc:	00000013          	addi	x0,x0,0
    27c0:	00015097          	auipc	x1,0x15
    27c4:	a44080e7          	jalr	x1,-1468(x1) # 17204 <rvmodel_io_write_str>
    27c8:	00003517          	auipc	x10,0x3
    27cc:	4b052503          	lw	x10,1200(x10) # 5c78 <trap_diag_actual_value>
    27d0:	244000ef          	jal	x1,2a14 <trap_cause_to_str>
    27d4:	00015097          	auipc	x1,0x15
    27d8:	a30080e7          	jalr	x1,-1488(x1) # 17204 <rvmodel_io_write_str>

000027dc <trap_field_not_cause>:
    27dc:	00000097          	auipc	x1,0x0
    27e0:	314080e7          	jalr	x1,788(x1) # 2af0 <failedtest_print_csr_context>
    27e4:	00003517          	auipc	x10,0x3
    27e8:	48c52503          	lw	x10,1164(x10) # 5c70 <trap_diag_subtype>
    27ec:	00100593          	addi	x11,x0,1
    27f0:	02b51e63          	bne	x10,x11,282c <trap_field_not_cause+0x50>
    27f4:	00000013          	addi	x0,x0,0
    27f8:	00000013          	addi	x0,x0,0
    27fc:	00000013          	addi	x0,x0,0
    2800:	00005517          	auipc	x10,0x5
    2804:	b6c50513          	addi	x10,x10,-1172 # 736c <trap_diag_hint_vect_str>
    2808:	00000013          	addi	x0,x0,0
    280c:	00000013          	addi	x0,x0,0
    2810:	00000013          	addi	x0,x0,0
    2814:	00000013          	addi	x0,x0,0
    2818:	00000013          	addi	x0,x0,0
    281c:	00000013          	addi	x0,x0,0
    2820:	00015097          	auipc	x1,0x15
    2824:	9e4080e7          	jalr	x1,-1564(x1) # 17204 <rvmodel_io_write_str>
    2828:	27c0006f          	jal	x0,2aa4 <failedtest_report_end>
    282c:	00200593          	addi	x11,x0,2
    2830:	02b51e63          	bne	x10,x11,286c <trap_field_not_cause+0x90>
    2834:	00000013          	addi	x0,x0,0
    2838:	00000013          	addi	x0,x0,0
    283c:	00000013          	addi	x0,x0,0
    2840:	00005517          	auipc	x10,0x5
    2844:	c0250513          	addi	x10,x10,-1022 # 7442 <trap_diag_hint_cause_str>
    2848:	00000013          	addi	x0,x0,0
    284c:	00000013          	addi	x0,x0,0
    2850:	00000013          	addi	x0,x0,0
    2854:	00000013          	addi	x0,x0,0
    2858:	00000013          	addi	x0,x0,0
    285c:	00000013          	addi	x0,x0,0
    2860:	00015097          	auipc	x1,0x15
    2864:	9a4080e7          	jalr	x1,-1628(x1) # 17204 <rvmodel_io_write_str>
    2868:	23c0006f          	jal	x0,2aa4 <failedtest_report_end>
    286c:	00300593          	addi	x11,x0,3
    2870:	02b51e63          	bne	x10,x11,28ac <trap_field_not_cause+0xd0>
    2874:	00000013          	addi	x0,x0,0
    2878:	00000013          	addi	x0,x0,0
    287c:	00000013          	addi	x0,x0,0
    2880:	00005517          	auipc	x10,0x5
    2884:	cb550513          	addi	x10,x10,-843 # 7535 <trap_diag_hint_epc_str>
    2888:	00000013          	addi	x0,x0,0
    288c:	00000013          	addi	x0,x0,0
    2890:	00000013          	addi	x0,x0,0
    2894:	00000013          	addi	x0,x0,0
    2898:	00000013          	addi	x0,x0,0
    289c:	00000013          	addi	x0,x0,0
    28a0:	00015097          	auipc	x1,0x15
    28a4:	964080e7          	jalr	x1,-1692(x1) # 17204 <rvmodel_io_write_str>
    28a8:	1fc0006f          	jal	x0,2aa4 <failedtest_report_end>
    28ac:	00400593          	addi	x11,x0,4
    28b0:	02b51e63          	bne	x10,x11,28ec <trap_field_not_cause+0x110>
    28b4:	00000013          	addi	x0,x0,0
    28b8:	00000013          	addi	x0,x0,0
    28bc:	00000013          	addi	x0,x0,0
    28c0:	00005517          	auipc	x10,0x5
    28c4:	d7050513          	addi	x10,x10,-656 # 7630 <trap_diag_hint_tval_str>
    28c8:	00000013          	addi	x0,x0,0
    28cc:	00000013          	addi	x0,x0,0
    28d0:	00000013          	addi	x0,x0,0
    28d4:	00000013          	addi	x0,x0,0
    28d8:	00000013          	addi	x0,x0,0
    28dc:	00000013          	addi	x0,x0,0
    28e0:	00015097          	auipc	x1,0x15
    28e4:	924080e7          	jalr	x1,-1756(x1) # 17204 <rvmodel_io_write_str>
    28e8:	1bc0006f          	jal	x0,2aa4 <failedtest_report_end>
    28ec:	00500593          	addi	x11,x0,5
    28f0:	02b51e63          	bne	x10,x11,292c <trap_field_not_cause+0x150>
    28f4:	00000013          	addi	x0,x0,0
    28f8:	00000013          	addi	x0,x0,0
    28fc:	00000013          	addi	x0,x0,0
    2900:	00005517          	auipc	x10,0x5
    2904:	e1750513          	addi	x10,x10,-489 # 7717 <trap_diag_hint_ip_str>
    2908:	00000013          	addi	x0,x0,0
    290c:	00000013          	addi	x0,x0,0
    2910:	00000013          	addi	x0,x0,0
    2914:	00000013          	addi	x0,x0,0
    2918:	00000013          	addi	x0,x0,0
    291c:	00000013          	addi	x0,x0,0
    2920:	00015097          	auipc	x1,0x15
    2924:	8e4080e7          	jalr	x1,-1820(x1) # 17204 <rvmodel_io_write_str>
    2928:	17c0006f          	jal	x0,2aa4 <failedtest_report_end>
    292c:	1780006f          	jal	x0,2aa4 <failedtest_report_end>

00002930 <trap_report_generic>:
    2930:	00000013          	addi	x0,x0,0
    2934:	00000013          	addi	x0,x0,0
    2938:	00000013          	addi	x0,x0,0
    293c:	00000013          	addi	x0,x0,0
    2940:	00005517          	auipc	x10,0x5
    2944:	9e450513          	addi	x10,x10,-1564 # 7324 <trap_diag_generic_str>
    2948:	00000013          	addi	x0,x0,0
    294c:	00000013          	addi	x0,x0,0
    2950:	00000013          	addi	x0,x0,0
    2954:	00000013          	addi	x0,x0,0
    2958:	00000013          	addi	x0,x0,0
    295c:	00000013          	addi	x0,x0,0
    2960:	00015097          	auipc	x1,0x15
    2964:	8a4080e7          	jalr	x1,-1884(x1) # 17204 <rvmodel_io_write_str>
    2968:	00003617          	auipc	x12,0x3
    296c:	34062603          	lw	x12,832(x12) # 5ca8 <saved_mepc>
    2970:	00000013          	addi	x0,x0,0
    2974:	00000013          	addi	x0,x0,0
    2978:	00000013          	addi	x0,x0,0
    297c:	00000013          	addi	x0,x0,0
    2980:	00004517          	auipc	x10,0x4
    2984:	98750513          	addi	x10,x10,-1657 # 6307 <xepcinstrstr>
    2988:	00000013          	addi	x0,x0,0
    298c:	00000013          	addi	x0,x0,0
    2990:	00000013          	addi	x0,x0,0
    2994:	00000013          	addi	x0,x0,0
    2998:	00000013          	addi	x0,x0,0
    299c:	00000013          	addi	x0,x0,0
    29a0:	00015097          	auipc	x1,0x15
    29a4:	864080e7          	jalr	x1,-1948(x1) # 17204 <rvmodel_io_write_str>
    29a8:	00065503          	lhu	x10,0(x12)
    29ac:	01000593          	addi	x11,x0,16
    29b0:	00357413          	andi	x8,x10,3
    29b4:	00300493          	addi	x9,x0,3
    29b8:	00941a63          	bne	x8,x9,29cc <trap_report_generic+0x9c>
    29bc:	00265403          	lhu	x8,2(x12)
    29c0:	01041413          	slli	x8,x8,0x10
    29c4:	00856533          	or	x10,x10,x8
    29c8:	02000593          	addi	x11,x0,32
    29cc:	32c000ef          	jal	x1,2cf8 <failedtest_hex_to_str>
    29d0:	00000013          	addi	x0,x0,0
    29d4:	00000013          	addi	x0,x0,0
    29d8:	00000013          	addi	x0,x0,0
    29dc:	00000013          	addi	x0,x0,0
    29e0:	00003517          	auipc	x10,0x3
    29e4:	2e850513          	addi	x10,x10,744 # 5cc8 <ascii_buffer>
    29e8:	00000013          	addi	x0,x0,0
    29ec:	00000013          	addi	x0,x0,0
    29f0:	00000013          	addi	x0,x0,0
    29f4:	00000013          	addi	x0,x0,0
    29f8:	00000013          	addi	x0,x0,0
    29fc:	00000013          	addi	x0,x0,0
    2a00:	00015097          	auipc	x1,0x15
    2a04:	804080e7          	jalr	x1,-2044(x1) # 17204 <rvmodel_io_write_str>
    2a08:	00000097          	auipc	x1,0x0
    2a0c:	0e8080e7          	jalr	x1,232(x1) # 2af0 <failedtest_print_csr_context>
    2a10:	0940006f          	jal	x0,2aa4 <failedtest_report_end>

00002a14 <trap_cause_to_str>:
    2a14:	02054263          	blt	x10,x0,2a38 <trap_cause_interrupt>

00002a18 <trap_cause_exception>:
    2a18:	01800593          	addi	x11,x0,24
    2a1c:	04b55463          	bge	x10,x11,2a64 <trap_cause_unknown>
    2a20:	00003597          	auipc	x11,0x3
    2a24:	2d058593          	addi	x11,x11,720 # 5cf0 <end_failure_scratch>
    2a28:	00251613          	slli	x12,x10,0x2
    2a2c:	00c585b3          	add	x11,x11,x12
    2a30:	0005a503          	lw	x10,0(x11)
    2a34:	00008067          	jalr	x0,0(x1)

00002a38 <trap_cause_interrupt>:
    2a38:	00100593          	addi	x11,x0,1
    2a3c:	01f59593          	slli	x11,x11,0x1f
    2a40:	00b54533          	xor	x10,x10,x11
    2a44:	01000593          	addi	x11,x0,16
    2a48:	00b55e63          	bge	x10,x11,2a64 <trap_cause_unknown>
    2a4c:	00003597          	auipc	x11,0x3
    2a50:	30458593          	addi	x11,x11,772 # 5d50 <trap_int_name_tbl>
    2a54:	00251613          	slli	x12,x10,0x2
    2a58:	00c585b3          	add	x11,x11,x12
    2a5c:	0005a503          	lw	x10,0(x11)
    2a60:	00008067          	jalr	x0,0(x1)

00002a64 <trap_cause_unknown>:
    2a64:	00000013          	addi	x0,x0,0
    2a68:	00000013          	addi	x0,x0,0
    2a6c:	00000013          	addi	x0,x0,0
    2a70:	00000013          	addi	x0,x0,0
    2a74:	00000013          	addi	x0,x0,0
    2a78:	00000013          	addi	x0,x0,0
    2a7c:	00000013          	addi	x0,x0,0
    2a80:	00003517          	auipc	x10,0x3
    2a84:	70e50513          	addi	x10,x10,1806 # 618e <trap_cause_unknown_str>
    2a88:	00000013          	addi	x0,x0,0
    2a8c:	00000013          	addi	x0,x0,0
    2a90:	00000013          	addi	x0,x0,0
    2a94:	00000013          	addi	x0,x0,0
    2a98:	00000013          	addi	x0,x0,0
    2a9c:	00000013          	addi	x0,x0,0
    2aa0:	00008067          	jalr	x0,0(x1)

00002aa4 <failedtest_report_end>:
    2aa4:	00000013          	addi	x0,x0,0
    2aa8:	00000013          	addi	x0,x0,0
    2aac:	00000013          	addi	x0,x0,0
    2ab0:	00000013          	addi	x0,x0,0
    2ab4:	00000013          	addi	x0,x0,0
    2ab8:	00000013          	addi	x0,x0,0
    2abc:	00000013          	addi	x0,x0,0
    2ac0:	00004517          	auipc	x10,0x4
    2ac4:	28f50513          	addi	x10,x10,655 # 6d4f <endstr>
    2ac8:	00000013          	addi	x0,x0,0
    2acc:	00000013          	addi	x0,x0,0
    2ad0:	00000013          	addi	x0,x0,0
    2ad4:	00000013          	addi	x0,x0,0
    2ad8:	00000013          	addi	x0,x0,0
    2adc:	00000013          	addi	x0,x0,0
    2ae0:	00014097          	auipc	x1,0x14
    2ae4:	724080e7          	jalr	x1,1828(x1) # 17204 <rvmodel_io_write_str>

00002ae8 <failedtest_terminate>:
    2ae8:	00014097          	auipc	x1,0x14
    2aec:	72c080e7          	jalr	x1,1836(x1) # 17214 <rvmodel_halt_fail>

00002af0 <failedtest_print_csr_context>:
    2af0:	00003617          	auipc	x12,0x3
    2af4:	1b060613          	addi	x12,x12,432 # 5ca0 <csr_context_ret_addr>
    2af8:	00162023          	sw	x1,0(x12)
    2afc:	00000013          	addi	x0,x0,0
    2b00:	00004517          	auipc	x10,0x4
    2b04:	82850513          	addi	x10,x10,-2008 # 6328 <mepcstr>
    2b08:	00000013          	addi	x0,x0,0
    2b0c:	00000013          	addi	x0,x0,0
    2b10:	00000013          	addi	x0,x0,0
    2b14:	00000013          	addi	x0,x0,0
    2b18:	00000013          	addi	x0,x0,0
    2b1c:	00000013          	addi	x0,x0,0
    2b20:	00014097          	auipc	x1,0x14
    2b24:	6e4080e7          	jalr	x1,1764(x1) # 17204 <rvmodel_io_write_str>
    2b28:	00003517          	auipc	x10,0x3
    2b2c:	18052503          	lw	x10,384(x10) # 5ca8 <saved_mepc>
    2b30:	02000593          	addi	x11,x0,32
    2b34:	1c4000ef          	jal	x1,2cf8 <failedtest_hex_to_str>
    2b38:	00000013          	addi	x0,x0,0
    2b3c:	00000013          	addi	x0,x0,0
    2b40:	00003517          	auipc	x10,0x3
    2b44:	18850513          	addi	x10,x10,392 # 5cc8 <ascii_buffer>
    2b48:	00000013          	addi	x0,x0,0
    2b4c:	00000013          	addi	x0,x0,0
    2b50:	00000013          	addi	x0,x0,0
    2b54:	00000013          	addi	x0,x0,0
    2b58:	00000013          	addi	x0,x0,0
    2b5c:	00000013          	addi	x0,x0,0
    2b60:	00014097          	auipc	x1,0x14
    2b64:	6a4080e7          	jalr	x1,1700(x1) # 17204 <rvmodel_io_write_str>
    2b68:	00000013          	addi	x0,x0,0
    2b6c:	00000013          	addi	x0,x0,0
    2b70:	00000013          	addi	x0,x0,0
    2b74:	00000013          	addi	x0,x0,0
    2b78:	00000013          	addi	x0,x0,0
    2b7c:	00000013          	addi	x0,x0,0
    2b80:	00003517          	auipc	x10,0x3
    2b84:	7b850513          	addi	x10,x10,1976 # 6338 <mcausestr>
    2b88:	00000013          	addi	x0,x0,0
    2b8c:	00000013          	addi	x0,x0,0
    2b90:	00000013          	addi	x0,x0,0
    2b94:	00000013          	addi	x0,x0,0
    2b98:	00000013          	addi	x0,x0,0
    2b9c:	00000013          	addi	x0,x0,0
    2ba0:	00014097          	auipc	x1,0x14
    2ba4:	664080e7          	jalr	x1,1636(x1) # 17204 <rvmodel_io_write_str>
    2ba8:	00003517          	auipc	x10,0x3
    2bac:	10852503          	lw	x10,264(x10) # 5cb0 <saved_mcause>
    2bb0:	02000593          	addi	x11,x0,32
    2bb4:	144000ef          	jal	x1,2cf8 <failedtest_hex_to_str>
    2bb8:	00000013          	addi	x0,x0,0
    2bbc:	00000013          	addi	x0,x0,0
    2bc0:	00003517          	auipc	x10,0x3
    2bc4:	10850513          	addi	x10,x10,264 # 5cc8 <ascii_buffer>
    2bc8:	00000013          	addi	x0,x0,0
    2bcc:	00000013          	addi	x0,x0,0
    2bd0:	00000013          	addi	x0,x0,0
    2bd4:	00000013          	addi	x0,x0,0
    2bd8:	00000013          	addi	x0,x0,0
    2bdc:	00000013          	addi	x0,x0,0
    2be0:	00014097          	auipc	x1,0x14
    2be4:	624080e7          	jalr	x1,1572(x1) # 17204 <rvmodel_io_write_str>
    2be8:	00000013          	addi	x0,x0,0
    2bec:	00000013          	addi	x0,x0,0
    2bf0:	00000013          	addi	x0,x0,0
    2bf4:	00000013          	addi	x0,x0,0
    2bf8:	00000013          	addi	x0,x0,0
    2bfc:	00000013          	addi	x0,x0,0
    2c00:	00003517          	auipc	x10,0x3
    2c04:	74850513          	addi	x10,x10,1864 # 6348 <mtvalstr>
    2c08:	00000013          	addi	x0,x0,0
    2c0c:	00000013          	addi	x0,x0,0
    2c10:	00000013          	addi	x0,x0,0
    2c14:	00000013          	addi	x0,x0,0
    2c18:	00000013          	addi	x0,x0,0
    2c1c:	00000013          	addi	x0,x0,0
    2c20:	00014097          	auipc	x1,0x14
    2c24:	5e4080e7          	jalr	x1,1508(x1) # 17204 <rvmodel_io_write_str>
    2c28:	00003517          	auipc	x10,0x3
    2c2c:	09052503          	lw	x10,144(x10) # 5cb8 <saved_mtval>
    2c30:	02000593          	addi	x11,x0,32
    2c34:	0c4000ef          	jal	x1,2cf8 <failedtest_hex_to_str>
    2c38:	00000013          	addi	x0,x0,0
    2c3c:	00000013          	addi	x0,x0,0
    2c40:	00003517          	auipc	x10,0x3
    2c44:	08850513          	addi	x10,x10,136 # 5cc8 <ascii_buffer>
    2c48:	00000013          	addi	x0,x0,0
    2c4c:	00000013          	addi	x0,x0,0
    2c50:	00000013          	addi	x0,x0,0
    2c54:	00000013          	addi	x0,x0,0
    2c58:	00000013          	addi	x0,x0,0
    2c5c:	00000013          	addi	x0,x0,0
    2c60:	00014097          	auipc	x1,0x14
    2c64:	5a4080e7          	jalr	x1,1444(x1) # 17204 <rvmodel_io_write_str>
    2c68:	00000013          	addi	x0,x0,0
    2c6c:	00000013          	addi	x0,x0,0
    2c70:	00000013          	addi	x0,x0,0
    2c74:	00000013          	addi	x0,x0,0
    2c78:	00000013          	addi	x0,x0,0
    2c7c:	00000013          	addi	x0,x0,0
    2c80:	00003517          	auipc	x10,0x3
    2c84:	6d850513          	addi	x10,x10,1752 # 6358 <mstatusstr>
    2c88:	00000013          	addi	x0,x0,0
    2c8c:	00000013          	addi	x0,x0,0
    2c90:	00000013          	addi	x0,x0,0
    2c94:	00000013          	addi	x0,x0,0
    2c98:	00000013          	addi	x0,x0,0
    2c9c:	00000013          	addi	x0,x0,0
    2ca0:	00014097          	auipc	x1,0x14
    2ca4:	564080e7          	jalr	x1,1380(x1) # 17204 <rvmodel_io_write_str>
    2ca8:	00003517          	auipc	x10,0x3
    2cac:	01852503          	lw	x10,24(x10) # 5cc0 <saved_mstatus>
    2cb0:	02000593          	addi	x11,x0,32
    2cb4:	044000ef          	jal	x1,2cf8 <failedtest_hex_to_str>
    2cb8:	00000013          	addi	x0,x0,0
    2cbc:	00000013          	addi	x0,x0,0
    2cc0:	00003517          	auipc	x10,0x3
    2cc4:	00850513          	addi	x10,x10,8 # 5cc8 <ascii_buffer>
    2cc8:	00000013          	addi	x0,x0,0
    2ccc:	00000013          	addi	x0,x0,0
    2cd0:	00000013          	addi	x0,x0,0
    2cd4:	00000013          	addi	x0,x0,0
    2cd8:	00000013          	addi	x0,x0,0
    2cdc:	00000013          	addi	x0,x0,0
    2ce0:	00014097          	auipc	x1,0x14
    2ce4:	524080e7          	jalr	x1,1316(x1) # 17204 <rvmodel_io_write_str>
    2ce8:	00003617          	auipc	x12,0x3
    2cec:	fb860613          	addi	x12,x12,-72 # 5ca0 <csr_context_ret_addr>
    2cf0:	00062083          	lw	x1,0(x12)
    2cf4:	00008067          	jalr	x0,0(x1)

00002cf8 <failedtest_hex_to_str>:
    2cf8:	00000013          	addi	x0,x0,0
    2cfc:	00000013          	addi	x0,x0,0
    2d00:	00003617          	auipc	x12,0x3
    2d04:	fc860613          	addi	x12,x12,-56 # 5cc8 <ascii_buffer>
    2d08:	00000013          	addi	x0,x0,0
    2d0c:	00000013          	addi	x0,x0,0
    2d10:	00000013          	addi	x0,x0,0
    2d14:	00000013          	addi	x0,x0,0
    2d18:	00000013          	addi	x0,x0,0
    2d1c:	00000013          	addi	x0,x0,0
    2d20:	03000693          	addi	x13,x0,48
    2d24:	00d60023          	sb	x13,0(x12)
    2d28:	07800693          	addi	x13,x0,120
    2d2c:	00d600a3          	sb	x13,1(x12)
    2d30:	00260613          	addi	x12,x12,2
    2d34:	00058693          	addi	x13,x11,0

00002d38 <failedtest_hex_to_str_loop>:
    2d38:	ffc68693          	addi	x13,x13,-4
    2d3c:	00d55733          	srl	x14,x10,x13
    2d40:	00f77713          	andi	x14,x14,15
    2d44:	00a00793          	addi	x15,x0,10
    2d48:	00f74663          	blt	x14,x15,2d54 <failedtest_hex_to_str_digit>
    2d4c:	05770713          	addi	x14,x14,87
    2d50:	0080006f          	jal	x0,2d58 <failedtest_hex_to_str_write>

00002d54 <failedtest_hex_to_str_digit>:
    2d54:	03070713          	addi	x14,x14,48

00002d58 <failedtest_hex_to_str_write>:
    2d58:	00e60023          	sb	x14,0(x12)
    2d5c:	00160613          	addi	x12,x12,1
    2d60:	fc069ce3          	bne	x13,x0,2d38 <failedtest_hex_to_str_loop>
    2d64:	00a00693          	addi	x13,x0,10
    2d68:	00d60023          	sb	x13,0(x12)
    2d6c:	000600a3          	sb	x0,1(x12)
    2d70:	00008067          	jalr	x0,0(x1)

00002d74 <failedtest_dec_to_str>:
    2d74:	00a00693          	addi	x13,x0,10
    2d78:	02d54663          	blt	x10,x13,2da4 <failedtest_dec_to_str+0x30>
    2d7c:	ff650513          	addi	x10,x10,-10
    2d80:	03100713          	addi	x14,x0,49
    2d84:	00d54c63          	blt	x10,x13,2d9c <failedtest_dec_to_str+0x28>
    2d88:	ff650513          	addi	x10,x10,-10
    2d8c:	03200713          	addi	x14,x0,50
    2d90:	00d54663          	blt	x10,x13,2d9c <failedtest_dec_to_str+0x28>
    2d94:	ff650513          	addi	x10,x10,-10
    2d98:	03300713          	addi	x14,x0,51
    2d9c:	00e60023          	sb	x14,0(x12)
    2da0:	00160613          	addi	x12,x12,1
    2da4:	03050513          	addi	x10,x10,48
    2da8:	00a60023          	sb	x10,0(x12)
    2dac:	00a00693          	addi	x13,x0,10
    2db0:	00d600a3          	sb	x13,1(x12)
    2db4:	00060123          	sb	x0,2(x12)
    2db8:	00008067          	jalr	x0,0(x1)
    2dbc:	00000013          	addi	x0,x0,0

Disassembly of section .text.rvmodel:

00017000 <rvmodel_boot>:
   17000:	feedc0b7          	lui	x1,0xfeedc
   17004:	ead08093          	addi	x1,x1,-339 # feedbead <absimm+0x8f911ba4>
   17008:	01909793          	slli	x15,x1,0x19
   1700c:	0070d113          	srli	x2,x1,0x7
   17010:	00f16133          	or	x2,x2,x15
   17014:	01911793          	slli	x15,x2,0x19
   17018:	00715193          	srli	x3,x2,0x7
   1701c:	00f1e1b3          	or	x3,x3,x15
   17020:	01919793          	slli	x15,x3,0x19
   17024:	0071d213          	srli	x4,x3,0x7
   17028:	00f26233          	or	x4,x4,x15
   1702c:	01921793          	slli	x15,x4,0x19
   17030:	00725293          	srli	x5,x4,0x7
   17034:	00f2e2b3          	or	x5,x5,x15
   17038:	01929793          	slli	x15,x5,0x19
   1703c:	0072d313          	srli	x6,x5,0x7
   17040:	00f36333          	or	x6,x6,x15
   17044:	01931793          	slli	x15,x6,0x19
   17048:	00735393          	srli	x7,x6,0x7
   1704c:	00f3e3b3          	or	x7,x7,x15
   17050:	01939793          	slli	x15,x7,0x19
   17054:	0073d413          	srli	x8,x7,0x7
   17058:	00f46433          	or	x8,x8,x15
   1705c:	01941793          	slli	x15,x8,0x19
   17060:	00745493          	srli	x9,x8,0x7
   17064:	00f4e4b3          	or	x9,x9,x15
   17068:	01949793          	slli	x15,x9,0x19
   1706c:	0074d513          	srli	x10,x9,0x7
   17070:	00f56533          	or	x10,x10,x15
   17074:	01951793          	slli	x15,x10,0x19
   17078:	00755593          	srli	x11,x10,0x7
   1707c:	00f5e5b3          	or	x11,x11,x15
   17080:	01959793          	slli	x15,x11,0x19
   17084:	0075d613          	srli	x12,x11,0x7
   17088:	00f66633          	or	x12,x12,x15
   1708c:	01961793          	slli	x15,x12,0x19
   17090:	00765693          	srli	x13,x12,0x7
   17094:	00f6e6b3          	or	x13,x13,x15
   17098:	01969793          	slli	x15,x13,0x19
   1709c:	0076d713          	srli	x14,x13,0x7
   170a0:	00f76733          	or	x14,x14,x15
   170a4:	fab807b7          	lui	x15,0xfab80
   170a8:	bb678793          	addi	x15,x15,-1098 # fab7fbb6 <absimm+0x8b5b58ad>
   170ac:	7d5c0837          	lui	x16,0x7d5c0
   170b0:	ddb80813          	addi	x16,x16,-549 # 7d5bfddb <absimm+0xdff5ad2>
   170b4:	01981793          	slli	x15,x16,0x19
   170b8:	00785893          	srli	x17,x16,0x7
   170bc:	00f8e8b3          	or	x17,x17,x15
   170c0:	01989793          	slli	x15,x17,0x19
   170c4:	0078d913          	srli	x18,x17,0x7
   170c8:	00f96933          	or	x18,x18,x15
   170cc:	01991793          	slli	x15,x18,0x19
   170d0:	00795993          	srli	x19,x18,0x7
   170d4:	00f9e9b3          	or	x19,x19,x15
   170d8:	01999793          	slli	x15,x19,0x19
   170dc:	0079da13          	srli	x20,x19,0x7
   170e0:	00fa6a33          	or	x20,x20,x15
   170e4:	019a1793          	slli	x15,x20,0x19
   170e8:	007a5a93          	srli	x21,x20,0x7
   170ec:	00faeab3          	or	x21,x21,x15
   170f0:	019a9793          	slli	x15,x21,0x19
   170f4:	007adb13          	srli	x22,x21,0x7
   170f8:	00fb6b33          	or	x22,x22,x15
   170fc:	019b1793          	slli	x15,x22,0x19
   17100:	007b5b93          	srli	x23,x22,0x7
   17104:	00fbebb3          	or	x23,x23,x15
   17108:	019b9793          	slli	x15,x23,0x19
   1710c:	007bdc13          	srli	x24,x23,0x7
   17110:	00fc6c33          	or	x24,x24,x15
   17114:	019c1793          	slli	x15,x24,0x19
   17118:	007c5c93          	srli	x25,x24,0x7
   1711c:	00fcecb3          	or	x25,x25,x15
   17120:	019c9793          	slli	x15,x25,0x19
   17124:	007cdd13          	srli	x26,x25,0x7
   17128:	00fd6d33          	or	x26,x26,x15
   1712c:	019d1793          	slli	x15,x26,0x19
   17130:	007d5d93          	srli	x27,x26,0x7
   17134:	00fdedb3          	or	x27,x27,x15
   17138:	019d9793          	slli	x15,x27,0x19
   1713c:	007dde13          	srli	x28,x27,0x7
   17140:	00fe6e33          	or	x28,x28,x15
   17144:	019e1793          	slli	x15,x28,0x19
   17148:	007e5e93          	srli	x29,x28,0x7
   1714c:	00feeeb3          	or	x29,x29,x15
   17150:	019e9793          	slli	x15,x29,0x19
   17154:	007edf13          	srli	x30,x29,0x7
   17158:	00ff6f33          	or	x30,x30,x15
   1715c:	019f1793          	slli	x15,x30,0x19
   17160:	007f5f93          	srli	x31,x30,0x7
   17164:	00ffefb3          	or	x31,x31,x15
   17168:	00000013          	addi	x0,x0,0
   1716c:	00000013          	addi	x0,x0,0
   17170:	00000013          	addi	x0,x0,0
   17174:	00000013          	addi	x0,x0,0
   17178:	00000013          	addi	x0,x0,0
   1717c:	00000013          	addi	x0,x0,0
   17180:	ffff0117          	auipc	x2,0xffff0
   17184:	68010113          	addi	x2,x2,1664 # 7800 <begin_signature>
   17188:	00000013          	addi	x0,x0,0
   1718c:	00000013          	addi	x0,x0,0
   17190:	00000013          	addi	x0,x0,0
   17194:	00000013          	addi	x0,x0,0
   17198:	00000013          	addi	x0,x0,0
   1719c:	00000013          	addi	x0,x0,0

000171a0 <canary_check>:
   171a0:	6f5ca337          	lui	x6,0x6f5ca
   171a4:	30930313          	addi	x6,x6,777 # 6f5ca309 <absimm>
   171a8:	00012203          	lw	x4,0(x2)
   171ac:	00620863          	beq	x4,x6,171bc <canary_check+0x1c>
   171b0:	98cea2ef          	jal	x5,133c <failedtest_x5_x4>
   171b4:	000171a0          	.word	0x000171a0
   171b8:	00006d78          	.word	0x00006d78
   171bc:	00410113          	addi	x2,x2,4
   171c0:	fffed197          	auipc	x3,0xfffed
   171c4:	f5018193          	addi	x3,x3,-176 # 4110 <rvtest_data_begin>
   171c8:	00000013          	addi	x0,x0,0
   171cc:	00000013          	addi	x0,x0,0
   171d0:	00000013          	addi	x0,x0,0
   171d4:	00000013          	addi	x0,x0,0
   171d8:	00000013          	addi	x0,x0,0
   171dc:	00000013          	addi	x0,x0,0
   171e0:	fffe9317          	auipc	x6,0xfffe9
   171e4:	e6030313          	addi	x6,x6,-416 # 40 <rvtest_code_begin>
   171e8:	00000013          	addi	x0,x0,0
   171ec:	00000013          	addi	x0,x0,0
   171f0:	00000013          	addi	x0,x0,0
   171f4:	00000013          	addi	x0,x0,0
   171f8:	00000013          	addi	x0,x0,0
   171fc:	00000013          	addi	x0,x0,0
   17200:	00030067          	jalr	x0,0(x6)

00017204 <rvmodel_io_write_str>:
   17204:	00008067          	jalr	x0,0(x1)

00017208 <rvmodel_halt_pass>:
   17208:	00000513          	addi	x10,x0,0
   1720c:	00000073          	ecall
   17210:	0000006f          	jal	x0,17210 <rvmodel_halt_pass+0x8>

00017214 <rvmodel_halt_fail>:
   17214:	00100513          	addi	x10,x0,1
   17218:	00000073          	ecall
   1721c:	0000006f          	jal	x0,1721c <rvmodel_halt_fail+0x8>
   17220:	00000013          	addi	x0,x0,0
   17224:	00000013          	addi	x0,x0,0
   17228:	00000013          	addi	x0,x0,0
   1722c:	00000013          	addi	x0,x0,0
   17230:	00000013          	addi	x0,x0,0
   17234:	00000013          	addi	x0,x0,0
   17238:	00000013          	addi	x0,x0,0
   1723c:	00000013          	addi	x0,x0,0
