
/home/dev/github/clones/riscv-arch-test/work/rv32i-core/elfs/rv32i/I/I-or-00.elf:     file format elf32-littleriscv
/home/dev/github/clones/riscv-arch-test/work/rv32i-core/elfs/rv32i/I/I-or-00.elf
architecture: riscv:rv32, flags 0x00000112:
EXEC_P, HAS_SYMS, D_PAGED
start address 0x00000000

Program Header:
0x70000003 off    0x0001f240 vaddr 0x00000000 paddr 0x00000000 align 2**0
         filesz 0x00000033 memsz 0x00000000 flags r--
    LOAD off    0x00001000 vaddr 0x00000000 paddr 0x00000000 align 2**12
         filesz 0x00005f40 memsz 0x00005f40 flags r-x
    LOAD off    0x00007000 vaddr 0x00008000 paddr 0x00008000 align 2**12
         filesz 0x00018240 memsz 0x00018240 flags rwx

Sections:
Idx Name          Size      VMA       LMA       File off  Algn
  0 .text.init    00000040  00000000  00000000  00001000  2**5
                  CONTENTS, ALLOC, LOAD, READONLY, CODE
  1 .text.rvtest  00005f00  00000040  00000040  00001040  2**5
                  CONTENTS, ALLOC, LOAD, READONLY, CODE
  2 .data         00017be0  00008000  00008000  00007000  2**8
                  CONTENTS, ALLOC, LOAD, DATA
  3 .text.rvmodel 00000240  00020000  00020000  0001f000  2**5
                  CONTENTS, ALLOC, LOAD, READONLY, CODE
  4 .riscv.attributes 00000033  00000000  00000000  0001f240  2**0
                  CONTENTS, READONLY
  5 .debug_line   00002664  00000000  00000000  0001f273  2**0
                  CONTENTS, READONLY, DEBUGGING, OCTETS
  6 .debug_line_str 00000068  00000000  00000000  000218d7  2**0
                  CONTENTS, READONLY, DEBUGGING, OCTETS
  7 .debug_info   00000023  00000000  00000000  0002193f  2**0
                  CONTENTS, READONLY, DEBUGGING, OCTETS
  8 .debug_abbrev 00000012  00000000  00000000  00021962  2**0
                  CONTENTS, READONLY, DEBUGGING, OCTETS
  9 .debug_aranges 00000028  00000000  00000000  00021978  2**3
                  CONTENTS, READONLY, DEBUGGING, OCTETS
 10 .debug_str    00000074  00000000  00000000  000219a0  2**0
                  CONTENTS, READONLY, DEBUGGING, OCTETS
 11 .debug_rnglists 0000001b  00000000  00000000  00021a14  2**0
                  CONTENTS, READONLY, DEBUGGING, OCTETS
SYMBOL TABLE:
00000000 l    d  .text.init	00000000 .text.init
00000040 l    d  .text.rvtest	00000000 .text.rvtest
00008000 l    d  .data	00000000 .data
00020000 l    d  .text.rvmodel	00000000 .text.rvmodel
00000000 l    d  .riscv.attributes	00000000 .riscv.attributes
00000000 l    d  .debug_line	00000000 .debug_line
00000000 l    d  .debug_line_str	00000000 .debug_line_str
00000000 l    d  .debug_info	00000000 .debug_info
00000000 l    d  .debug_abbrev	00000000 .debug_abbrev
00000000 l    d  .debug_aranges	00000000 .debug_aranges
00000000 l    d  .debug_str	00000000 .debug_str
00000000 l    d  .debug_rnglists	00000000 .debug_rnglists
00000000 l    df *ABS*	00000000 cc5vaAps.o
00000003 l       *ABS*	00000000 MMODE_SIG
00000001 l       *ABS*	00000000 SMODE_SIG
00000001 l       *ABS*	00000000 HMODE_SIG
00000002 l       *ABS*	00000000 VMODE_SIG
00020000 l       .text.rvmodel	00000000 rvmodel_boot
00000050 l       .text.rvtest	00000000 I_or_cg_cp_rs1_b0
000044bc l       .text.rvtest	00000000 failedtest_x5_x4
00008d50 l       .data	00000000 I_or_cg_cp_rs1_b0_str
0000007c l       .text.rvtest	00000000 I_or_cg_cp_rs1_b1
00008d7c l       .data	00000000 I_or_cg_cp_rs1_b1_str
000000ac l       .text.rvtest	00000000 I_or_cg_cp_rs1_b2
00008da8 l       .data	00000000 I_or_cg_cp_rs1_b2_str
000000dc l       .text.rvtest	00000000 I_or_cg_cp_rs1_b3
00008dd4 l       .data	00000000 I_or_cg_cp_rs1_b3_str
00000110 l       .text.rvtest	00000000 I_or_cg_cp_rs1_b4
000044fc l       .text.rvtest	00000000 failedtest_x14_x13
00008e00 l       .data	00000000 I_or_cg_cp_rs1_b4_str
0000013c l       .text.rvtest	00000000 I_or_cg_cp_rs1_b5
00008e2c l       .data	00000000 I_or_cg_cp_rs1_b5_str
00000168 l       .text.rvtest	00000000 I_or_cg_cp_rs1_b6
00008e58 l       .data	00000000 I_or_cg_cp_rs1_b6_str
00000194 l       .text.rvtest	00000000 I_or_cg_cp_rs1_b7
00008e84 l       .data	00000000 I_or_cg_cp_rs1_b7_str
000001c0 l       .text.rvtest	00000000 I_or_cg_cp_rs1_b8
00008eb0 l       .data	00000000 I_or_cg_cp_rs1_b8_str
000001ec l       .text.rvtest	00000000 I_or_cg_cp_rs1_b9
00008edc l       .data	00000000 I_or_cg_cp_rs1_b9_str
00000218 l       .text.rvtest	00000000 I_or_cg_cp_rs1_b10
00008f09 l       .data	00000000 I_or_cg_cp_rs1_b10_str
00000244 l       .text.rvtest	00000000 I_or_cg_cp_rs1_b11
00008f37 l       .data	00000000 I_or_cg_cp_rs1_b11_str
00000270 l       .text.rvtest	00000000 I_or_cg_cp_rs1_b12
00008f65 l       .data	00000000 I_or_cg_cp_rs1_b12_str
000002a4 l       .text.rvtest	00000000 I_or_cg_cp_rs1_b13
00008f93 l       .data	00000000 I_or_cg_cp_rs1_b13_str
000002d0 l       .text.rvtest	00000000 I_or_cg_cp_rs1_b14
00008fc1 l       .data	00000000 I_or_cg_cp_rs1_b14_str
000002fc l       .text.rvtest	00000000 I_or_cg_cp_rs1_b15
00008fef l       .data	00000000 I_or_cg_cp_rs1_b15_str
00000328 l       .text.rvtest	00000000 I_or_cg_cp_rs1_b16
0000901d l       .data	00000000 I_or_cg_cp_rs1_b16_str
00000354 l       .text.rvtest	00000000 I_or_cg_cp_rs1_b17
0000904b l       .data	00000000 I_or_cg_cp_rs1_b17_str
00000380 l       .text.rvtest	00000000 I_or_cg_cp_rs1_b18
00009079 l       .data	00000000 I_or_cg_cp_rs1_b18_str
000003ac l       .text.rvtest	00000000 I_or_cg_cp_rs1_b19
000090a7 l       .data	00000000 I_or_cg_cp_rs1_b19_str
000003d8 l       .text.rvtest	00000000 I_or_cg_cp_rs1_b20
000090d5 l       .data	00000000 I_or_cg_cp_rs1_b20_str
00000404 l       .text.rvtest	00000000 I_or_cg_cp_rs1_b21
00009103 l       .data	00000000 I_or_cg_cp_rs1_b21_str
00000430 l       .text.rvtest	00000000 I_or_cg_cp_rs1_b22
00009131 l       .data	00000000 I_or_cg_cp_rs1_b22_str
0000045c l       .text.rvtest	00000000 I_or_cg_cp_rs1_b23
0000915f l       .data	00000000 I_or_cg_cp_rs1_b23_str
00000488 l       .text.rvtest	00000000 I_or_cg_cp_rs1_b24
0000918d l       .data	00000000 I_or_cg_cp_rs1_b24_str
000004b4 l       .text.rvtest	00000000 I_or_cg_cp_rs1_b25
000091bb l       .data	00000000 I_or_cg_cp_rs1_b25_str
000004e4 l       .text.rvtest	00000000 I_or_cg_cp_rs1_b26
000091e9 l       .data	00000000 I_or_cg_cp_rs1_b26_str
00000514 l       .text.rvtest	00000000 I_or_cg_cp_rs1_b27
00009217 l       .data	00000000 I_or_cg_cp_rs1_b27_str
00000540 l       .text.rvtest	00000000 I_or_cg_cp_rs1_b28
00009245 l       .data	00000000 I_or_cg_cp_rs1_b28_str
0000056c l       .text.rvtest	00000000 I_or_cg_cp_rs1_b29
00009273 l       .data	00000000 I_or_cg_cp_rs1_b29_str
00000598 l       .text.rvtest	00000000 I_or_cg_cp_rs1_b30
000092a1 l       .data	00000000 I_or_cg_cp_rs1_b30_str
000005c4 l       .text.rvtest	00000000 I_or_cg_cp_rs1_b31
000092cf l       .data	00000000 I_or_cg_cp_rs1_b31_str
000005f0 l       .text.rvtest	00000000 I_or_cg_cp_rs2_b0
000092fd l       .data	00000000 I_or_cg_cp_rs2_b0_str
00000620 l       .text.rvtest	00000000 I_or_cg_cp_rs2_b1
0000932a l       .data	00000000 I_or_cg_cp_rs2_b1_str
0000064c l       .text.rvtest	00000000 I_or_cg_cp_rs2_b2
00009357 l       .data	00000000 I_or_cg_cp_rs2_b2_str
00000678 l       .text.rvtest	00000000 I_or_cg_cp_rs2_b3
00009384 l       .data	00000000 I_or_cg_cp_rs2_b3_str
000006ac l       .text.rvtest	00000000 I_or_cg_cp_rs2_b4
000093b1 l       .data	00000000 I_or_cg_cp_rs2_b4_str
000006d8 l       .text.rvtest	00000000 I_or_cg_cp_rs2_b5
000093de l       .data	00000000 I_or_cg_cp_rs2_b5_str
00000704 l       .text.rvtest	00000000 I_or_cg_cp_rs2_b6
0000940b l       .data	00000000 I_or_cg_cp_rs2_b6_str
00000730 l       .text.rvtest	00000000 I_or_cg_cp_rs2_b7
00009438 l       .data	00000000 I_or_cg_cp_rs2_b7_str
0000075c l       .text.rvtest	00000000 I_or_cg_cp_rs2_b8
00009465 l       .data	00000000 I_or_cg_cp_rs2_b8_str
00000788 l       .text.rvtest	00000000 I_or_cg_cp_rs2_b9
00009492 l       .data	00000000 I_or_cg_cp_rs2_b9_str
000007b4 l       .text.rvtest	00000000 I_or_cg_cp_rs2_b10
000094bf l       .data	00000000 I_or_cg_cp_rs2_b10_str
000007e4 l       .text.rvtest	00000000 I_or_cg_cp_rs2_b11
000094ed l       .data	00000000 I_or_cg_cp_rs2_b11_str
00000810 l       .text.rvtest	00000000 I_or_cg_cp_rs2_b12
0000951b l       .data	00000000 I_or_cg_cp_rs2_b12_str
00000844 l       .text.rvtest	00000000 I_or_cg_cp_rs2_b13
000044d4 l       .text.rvtest	00000000 failedtest_x8_x7
00009549 l       .data	00000000 I_or_cg_cp_rs2_b13_str
00000870 l       .text.rvtest	00000000 I_or_cg_cp_rs2_b14
00009577 l       .data	00000000 I_or_cg_cp_rs2_b14_str
0000089c l       .text.rvtest	00000000 I_or_cg_cp_rs2_b15
000095a5 l       .data	00000000 I_or_cg_cp_rs2_b15_str
000008c8 l       .text.rvtest	00000000 I_or_cg_cp_rs2_b16
000095d3 l       .data	00000000 I_or_cg_cp_rs2_b16_str
000008f4 l       .text.rvtest	00000000 I_or_cg_cp_rs2_b17
00009601 l       .data	00000000 I_or_cg_cp_rs2_b17_str
00000920 l       .text.rvtest	00000000 I_or_cg_cp_rs2_b18
0000962f l       .data	00000000 I_or_cg_cp_rs2_b18_str
0000094c l       .text.rvtest	00000000 I_or_cg_cp_rs2_b19
0000965d l       .data	00000000 I_or_cg_cp_rs2_b19_str
00000978 l       .text.rvtest	00000000 I_or_cg_cp_rs2_b20
0000968b l       .data	00000000 I_or_cg_cp_rs2_b20_str
000009a4 l       .text.rvtest	00000000 I_or_cg_cp_rs2_b21
000096b9 l       .data	00000000 I_or_cg_cp_rs2_b21_str
000009d0 l       .text.rvtest	00000000 I_or_cg_cp_rs2_b22
000096e7 l       .data	00000000 I_or_cg_cp_rs2_b22_str
000009fc l       .text.rvtest	00000000 I_or_cg_cp_rs2_b23
00009715 l       .data	00000000 I_or_cg_cp_rs2_b23_str
00000a28 l       .text.rvtest	00000000 I_or_cg_cp_rs2_b24
00009743 l       .data	00000000 I_or_cg_cp_rs2_b24_str
00000a58 l       .text.rvtest	00000000 I_or_cg_cp_rs2_b25
00009771 l       .data	00000000 I_or_cg_cp_rs2_b25_str
00000a84 l       .text.rvtest	00000000 I_or_cg_cp_rs2_b26
0000979f l       .data	00000000 I_or_cg_cp_rs2_b26_str
00000ab0 l       .text.rvtest	00000000 I_or_cg_cp_rs2_b27
000097cd l       .data	00000000 I_or_cg_cp_rs2_b27_str
00000adc l       .text.rvtest	00000000 I_or_cg_cp_rs2_b28
000097fb l       .data	00000000 I_or_cg_cp_rs2_b28_str
00000b08 l       .text.rvtest	00000000 I_or_cg_cp_rs2_b29
00009829 l       .data	00000000 I_or_cg_cp_rs2_b29_str
00000b34 l       .text.rvtest	00000000 I_or_cg_cp_rs2_b30
00009857 l       .data	00000000 I_or_cg_cp_rs2_b30_str
00000b64 l       .text.rvtest	00000000 I_or_cg_cp_rs2_b31
00009885 l       .data	00000000 I_or_cg_cp_rs2_b31_str
00000b90 l       .text.rvtest	00000000 I_or_cg_cp_rd_b0
000098b3 l       .data	00000000 I_or_cg_cp_rd_b0_str
00000bbc l       .text.rvtest	00000000 I_or_cg_cp_rd_b1
000098df l       .data	00000000 I_or_cg_cp_rd_b1_str
00000bec l       .text.rvtest	00000000 I_or_cg_cp_rd_b2
0000990b l       .data	00000000 I_or_cg_cp_rd_b2_str
00000c18 l       .text.rvtest	00000000 I_or_cg_cp_rd_b3
00009937 l       .data	00000000 I_or_cg_cp_rd_b3_str
00000c44 l       .text.rvtest	00000000 I_or_cg_cp_rd_b4
00009963 l       .data	00000000 I_or_cg_cp_rd_b4_str
00000c70 l       .text.rvtest	00000000 I_or_cg_cp_rd_b5
0000998f l       .data	00000000 I_or_cg_cp_rd_b5_str
00000c9c l       .text.rvtest	00000000 I_or_cg_cp_rd_b6
000099bb l       .data	00000000 I_or_cg_cp_rd_b6_str
00000cd0 l       .text.rvtest	00000000 I_or_cg_cp_rd_b7
000099e7 l       .data	00000000 I_or_cg_cp_rd_b7_str
00000cfc l       .text.rvtest	00000000 I_or_cg_cp_rd_b8
00009a13 l       .data	00000000 I_or_cg_cp_rd_b8_str
00000d28 l       .text.rvtest	00000000 I_or_cg_cp_rd_b9
00009a3f l       .data	00000000 I_or_cg_cp_rd_b9_str
00000d54 l       .text.rvtest	00000000 I_or_cg_cp_rd_b10
00009a6b l       .data	00000000 I_or_cg_cp_rd_b10_str
00000d84 l       .text.rvtest	00000000 I_or_cg_cp_rd_b11
00009a98 l       .data	00000000 I_or_cg_cp_rd_b11_str
00000db4 l       .text.rvtest	00000000 I_or_cg_cp_rd_b12
00009ac5 l       .data	00000000 I_or_cg_cp_rd_b12_str
00000de8 l       .text.rvtest	00000000 I_or_cg_cp_rd_b13
00009af2 l       .data	00000000 I_or_cg_cp_rd_b13_str
00000e14 l       .text.rvtest	00000000 I_or_cg_cp_rd_b14
00009b1f l       .data	00000000 I_or_cg_cp_rd_b14_str
00000e40 l       .text.rvtest	00000000 I_or_cg_cp_rd_b15
00009b4c l       .data	00000000 I_or_cg_cp_rd_b15_str
00000e6c l       .text.rvtest	00000000 I_or_cg_cp_rd_b16
00009b79 l       .data	00000000 I_or_cg_cp_rd_b16_str
00000e98 l       .text.rvtest	00000000 I_or_cg_cp_rd_b17
00009ba6 l       .data	00000000 I_or_cg_cp_rd_b17_str
00000ec4 l       .text.rvtest	00000000 I_or_cg_cp_rd_b18
00009bd3 l       .data	00000000 I_or_cg_cp_rd_b18_str
00000ef0 l       .text.rvtest	00000000 I_or_cg_cp_rd_b19
00009c00 l       .data	00000000 I_or_cg_cp_rd_b19_str
00000f20 l       .text.rvtest	00000000 I_or_cg_cp_rd_b20
00009c2d l       .data	00000000 I_or_cg_cp_rd_b20_str
00000f4c l       .text.rvtest	00000000 I_or_cg_cp_rd_b21
00009c5a l       .data	00000000 I_or_cg_cp_rd_b21_str
00000f78 l       .text.rvtest	00000000 I_or_cg_cp_rd_b22
00009c87 l       .data	00000000 I_or_cg_cp_rd_b22_str
00000fa8 l       .text.rvtest	00000000 I_or_cg_cp_rd_b23
00009cb4 l       .data	00000000 I_or_cg_cp_rd_b23_str
00000fd4 l       .text.rvtest	00000000 I_or_cg_cp_rd_b24
00009ce1 l       .data	00000000 I_or_cg_cp_rd_b24_str
00001000 l       .text.rvtest	00000000 I_or_cg_cp_rd_b25
00009d0e l       .data	00000000 I_or_cg_cp_rd_b25_str
0000102c l       .text.rvtest	00000000 I_or_cg_cp_rd_b26
00009d3b l       .data	00000000 I_or_cg_cp_rd_b26_str
00001058 l       .text.rvtest	00000000 I_or_cg_cp_rd_b27
00009d68 l       .data	00000000 I_or_cg_cp_rd_b27_str
00001084 l       .text.rvtest	00000000 I_or_cg_cp_rd_b28
00009d95 l       .data	00000000 I_or_cg_cp_rd_b28_str
000010b0 l       .text.rvtest	00000000 I_or_cg_cp_rd_b29
00009dc2 l       .data	00000000 I_or_cg_cp_rd_b29_str
000010e0 l       .text.rvtest	00000000 I_or_cg_cp_rd_b30
00009def l       .data	00000000 I_or_cg_cp_rd_b30_str
0000110c l       .text.rvtest	00000000 I_or_cg_cp_rd_b31
00009e1c l       .data	00000000 I_or_cg_cp_rd_b31_str
00001138 l       .text.rvtest	00000000 I_or_cg_cp_rs1_edges_0x0
00009e49 l       .data	00000000 I_or_cg_cp_rs1_edges_0x0_str
00001164 l       .text.rvtest	00000000 I_or_cg_cp_rs1_edges_0x1
00009e7d l       .data	00000000 I_or_cg_cp_rs1_edges_0x1_str
00001190 l       .text.rvtest	00000000 I_or_cg_cp_rs1_edges_0x2
00009eb1 l       .data	00000000 I_or_cg_cp_rs1_edges_0x2_str
000011bc l       .text.rvtest	00000000 I_or_cg_cp_rs1_edges_0x80000000
00009ee5 l       .data	00000000 I_or_cg_cp_rs1_edges_0x80000000_str
000011e8 l       .text.rvtest	00000000 I_or_cg_cp_rs1_edges_0x80000001
00009f21 l       .data	00000000 I_or_cg_cp_rs1_edges_0x80000001_str
00001214 l       .text.rvtest	00000000 I_or_cg_cp_rs1_edges_0x7fffffff
00009f5d l       .data	00000000 I_or_cg_cp_rs1_edges_0x7fffffff_str
00001240 l       .text.rvtest	00000000 I_or_cg_cp_rs1_edges_0x7ffffffe
00009f99 l       .data	00000000 I_or_cg_cp_rs1_edges_0x7ffffffe_str
0000126c l       .text.rvtest	00000000 I_or_cg_cp_rs1_edges_0xffffffff
00009fd5 l       .data	00000000 I_or_cg_cp_rs1_edges_0xffffffff_str
00001298 l       .text.rvtest	00000000 I_or_cg_cp_rs1_edges_0xfffffffe
0000a011 l       .data	00000000 I_or_cg_cp_rs1_edges_0xfffffffe_str
000012c4 l       .text.rvtest	00000000 I_or_cg_cp_rs1_edges_0x5bbc8872
0000a04d l       .data	00000000 I_or_cg_cp_rs1_edges_0x5bbc8872_str
000012f0 l       .text.rvtest	00000000 I_or_cg_cp_rs1_edges_0xaaaaaaaa
0000a089 l       .data	00000000 I_or_cg_cp_rs1_edges_0xaaaaaaaa_str
0000131c l       .text.rvtest	00000000 I_or_cg_cp_rs1_edges_0x55555555
0000a0c5 l       .data	00000000 I_or_cg_cp_rs1_edges_0x55555555_str
00001348 l       .text.rvtest	00000000 I_or_cg_cp_rs2_edges_0x0
0000a101 l       .data	00000000 I_or_cg_cp_rs2_edges_0x0_str
00001374 l       .text.rvtest	00000000 I_or_cg_cp_rs2_edges_0x1
0000a136 l       .data	00000000 I_or_cg_cp_rs2_edges_0x1_str
000013a0 l       .text.rvtest	00000000 I_or_cg_cp_rs2_edges_0x2
0000a16b l       .data	00000000 I_or_cg_cp_rs2_edges_0x2_str
000013cc l       .text.rvtest	00000000 I_or_cg_cp_rs2_edges_0x80000000
0000a1a0 l       .data	00000000 I_or_cg_cp_rs2_edges_0x80000000_str
000013f8 l       .text.rvtest	00000000 I_or_cg_cp_rs2_edges_0x80000001
0000a1dc l       .data	00000000 I_or_cg_cp_rs2_edges_0x80000001_str
00001424 l       .text.rvtest	00000000 I_or_cg_cp_rs2_edges_0x7fffffff
0000a218 l       .data	00000000 I_or_cg_cp_rs2_edges_0x7fffffff_str
00001450 l       .text.rvtest	00000000 I_or_cg_cp_rs2_edges_0x7ffffffe
0000a254 l       .data	00000000 I_or_cg_cp_rs2_edges_0x7ffffffe_str
0000147c l       .text.rvtest	00000000 I_or_cg_cp_rs2_edges_0xffffffff
0000a290 l       .data	00000000 I_or_cg_cp_rs2_edges_0xffffffff_str
000014a8 l       .text.rvtest	00000000 I_or_cg_cp_rs2_edges_0xfffffffe
0000a2cc l       .data	00000000 I_or_cg_cp_rs2_edges_0xfffffffe_str
000014d4 l       .text.rvtest	00000000 I_or_cg_cp_rs2_edges_0x5bbc8872
0000a308 l       .data	00000000 I_or_cg_cp_rs2_edges_0x5bbc8872_str
00001500 l       .text.rvtest	00000000 I_or_cg_cp_rs2_edges_0xaaaaaaaa
0000a344 l       .data	00000000 I_or_cg_cp_rs2_edges_0xaaaaaaaa_str
0000152c l       .text.rvtest	00000000 I_or_cg_cp_rs2_edges_0x55555555
0000a380 l       .data	00000000 I_or_cg_cp_rs2_edges_0x55555555_str
00001558 l       .text.rvtest	00000000 I_or_cg_cr_rs1_rs2_edges_rs1val_0x0_rs2val_0x0
0000a3bc l       .data	00000000 I_or_cg_cr_rs1_rs2_edges_rs1val_0x0_rs2val_0x0_str
00001584 l       .text.rvtest	00000000 I_or_cg_cr_rs1_rs2_edges_rs1val_0x0_rs2val_0x1
0000a408 l       .data	00000000 I_or_cg_cr_rs1_rs2_edges_rs1val_0x0_rs2val_0x1_str
000015b0 l       .text.rvtest	00000000 I_or_cg_cr_rs1_rs2_edges_rs1val_0x0_rs2val_0x2
0000a454 l       .data	00000000 I_or_cg_cr_rs1_rs2_edges_rs1val_0x0_rs2val_0x2_str
000015dc l       .text.rvtest	00000000 I_or_cg_cr_rs1_rs2_edges_rs1val_0x0_rs2val_0x80000000
0000a4a0 l       .data	00000000 I_or_cg_cr_rs1_rs2_edges_rs1val_0x0_rs2val_0x80000000_str
00001608 l       .text.rvtest	00000000 I_or_cg_cr_rs1_rs2_edges_rs1val_0x0_rs2val_0x80000001
0000a4f3 l       .data	00000000 I_or_cg_cr_rs1_rs2_edges_rs1val_0x0_rs2val_0x80000001_str
00001634 l       .text.rvtest	00000000 I_or_cg_cr_rs1_rs2_edges_rs1val_0x0_rs2val_0x7fffffff
0000a546 l       .data	00000000 I_or_cg_cr_rs1_rs2_edges_rs1val_0x0_rs2val_0x7fffffff_str
00001660 l       .text.rvtest	00000000 I_or_cg_cr_rs1_rs2_edges_rs1val_0x0_rs2val_0x7ffffffe
0000a599 l       .data	00000000 I_or_cg_cr_rs1_rs2_edges_rs1val_0x0_rs2val_0x7ffffffe_str
0000168c l       .text.rvtest	00000000 I_or_cg_cr_rs1_rs2_edges_rs1val_0x0_rs2val_0xffffffff
0000a5ec l       .data	00000000 I_or_cg_cr_rs1_rs2_edges_rs1val_0x0_rs2val_0xffffffff_str
000016b8 l       .text.rvtest	00000000 I_or_cg_cr_rs1_rs2_edges_rs1val_0x0_rs2val_0xfffffffe
0000a63f l       .data	00000000 I_or_cg_cr_rs1_rs2_edges_rs1val_0x0_rs2val_0xfffffffe_str
000016e4 l       .text.rvtest	00000000 I_or_cg_cr_rs1_rs2_edges_rs1val_0x0_rs2val_0x5bbc8872
0000a692 l       .data	00000000 I_or_cg_cr_rs1_rs2_edges_rs1val_0x0_rs2val_0x5bbc8872_str
00001710 l       .text.rvtest	00000000 I_or_cg_cr_rs1_rs2_edges_rs1val_0x0_rs2val_0xaaaaaaaa
0000a6e5 l       .data	00000000 I_or_cg_cr_rs1_rs2_edges_rs1val_0x0_rs2val_0xaaaaaaaa_str
0000173c l       .text.rvtest	00000000 I_or_cg_cr_rs1_rs2_edges_rs1val_0x0_rs2val_0x55555555
0000a738 l       .data	00000000 I_or_cg_cr_rs1_rs2_edges_rs1val_0x0_rs2val_0x55555555_str
00001768 l       .text.rvtest	00000000 I_or_cg_cr_rs1_rs2_edges_rs1val_0x1_rs2val_0x0
0000a78b l       .data	00000000 I_or_cg_cr_rs1_rs2_edges_rs1val_0x1_rs2val_0x0_str
00001794 l       .text.rvtest	00000000 I_or_cg_cr_rs1_rs2_edges_rs1val_0x1_rs2val_0x1
0000a7d7 l       .data	00000000 I_or_cg_cr_rs1_rs2_edges_rs1val_0x1_rs2val_0x1_str
000017c0 l       .text.rvtest	00000000 I_or_cg_cr_rs1_rs2_edges_rs1val_0x1_rs2val_0x2
0000a823 l       .data	00000000 I_or_cg_cr_rs1_rs2_edges_rs1val_0x1_rs2val_0x2_str
000017ec l       .text.rvtest	00000000 I_or_cg_cr_rs1_rs2_edges_rs1val_0x1_rs2val_0x80000000
0000a86f l       .data	00000000 I_or_cg_cr_rs1_rs2_edges_rs1val_0x1_rs2val_0x80000000_str
00001818 l       .text.rvtest	00000000 I_or_cg_cr_rs1_rs2_edges_rs1val_0x1_rs2val_0x80000001
0000a8c2 l       .data	00000000 I_or_cg_cr_rs1_rs2_edges_rs1val_0x1_rs2val_0x80000001_str
00001844 l       .text.rvtest	00000000 I_or_cg_cr_rs1_rs2_edges_rs1val_0x1_rs2val_0x7fffffff
0000a915 l       .data	00000000 I_or_cg_cr_rs1_rs2_edges_rs1val_0x1_rs2val_0x7fffffff_str
00001870 l       .text.rvtest	00000000 I_or_cg_cr_rs1_rs2_edges_rs1val_0x1_rs2val_0x7ffffffe
0000a968 l       .data	00000000 I_or_cg_cr_rs1_rs2_edges_rs1val_0x1_rs2val_0x7ffffffe_str
0000189c l       .text.rvtest	00000000 I_or_cg_cr_rs1_rs2_edges_rs1val_0x1_rs2val_0xffffffff
0000a9bb l       .data	00000000 I_or_cg_cr_rs1_rs2_edges_rs1val_0x1_rs2val_0xffffffff_str
000018c8 l       .text.rvtest	00000000 I_or_cg_cr_rs1_rs2_edges_rs1val_0x1_rs2val_0xfffffffe
0000aa0e l       .data	00000000 I_or_cg_cr_rs1_rs2_edges_rs1val_0x1_rs2val_0xfffffffe_str
000018f4 l       .text.rvtest	00000000 I_or_cg_cr_rs1_rs2_edges_rs1val_0x1_rs2val_0x5bbc8872
0000aa61 l       .data	00000000 I_or_cg_cr_rs1_rs2_edges_rs1val_0x1_rs2val_0x5bbc8872_str
00001920 l       .text.rvtest	00000000 I_or_cg_cr_rs1_rs2_edges_rs1val_0x1_rs2val_0xaaaaaaaa
0000aab4 l       .data	00000000 I_or_cg_cr_rs1_rs2_edges_rs1val_0x1_rs2val_0xaaaaaaaa_str
0000194c l       .text.rvtest	00000000 I_or_cg_cr_rs1_rs2_edges_rs1val_0x1_rs2val_0x55555555
0000ab07 l       .data	00000000 I_or_cg_cr_rs1_rs2_edges_rs1val_0x1_rs2val_0x55555555_str
00001978 l       .text.rvtest	00000000 I_or_cg_cr_rs1_rs2_edges_rs1val_0x2_rs2val_0x0
0000ab5a l       .data	00000000 I_or_cg_cr_rs1_rs2_edges_rs1val_0x2_rs2val_0x0_str
000019a4 l       .text.rvtest	00000000 I_or_cg_cr_rs1_rs2_edges_rs1val_0x2_rs2val_0x1
0000aba6 l       .data	00000000 I_or_cg_cr_rs1_rs2_edges_rs1val_0x2_rs2val_0x1_str
000019d0 l       .text.rvtest	00000000 I_or_cg_cr_rs1_rs2_edges_rs1val_0x2_rs2val_0x2
0000abf2 l       .data	00000000 I_or_cg_cr_rs1_rs2_edges_rs1val_0x2_rs2val_0x2_str
000019fc l       .text.rvtest	00000000 I_or_cg_cr_rs1_rs2_edges_rs1val_0x2_rs2val_0x80000000
0000ac3e l       .data	00000000 I_or_cg_cr_rs1_rs2_edges_rs1val_0x2_rs2val_0x80000000_str
00001a28 l       .text.rvtest	00000000 I_or_cg_cr_rs1_rs2_edges_rs1val_0x2_rs2val_0x80000001
0000ac91 l       .data	00000000 I_or_cg_cr_rs1_rs2_edges_rs1val_0x2_rs2val_0x80000001_str
00001a54 l       .text.rvtest	00000000 I_or_cg_cr_rs1_rs2_edges_rs1val_0x2_rs2val_0x7fffffff
0000ace4 l       .data	00000000 I_or_cg_cr_rs1_rs2_edges_rs1val_0x2_rs2val_0x7fffffff_str
00001a80 l       .text.rvtest	00000000 I_or_cg_cr_rs1_rs2_edges_rs1val_0x2_rs2val_0x7ffffffe
0000ad37 l       .data	00000000 I_or_cg_cr_rs1_rs2_edges_rs1val_0x2_rs2val_0x7ffffffe_str
00001aac l       .text.rvtest	00000000 I_or_cg_cr_rs1_rs2_edges_rs1val_0x2_rs2val_0xffffffff
0000ad8a l       .data	00000000 I_or_cg_cr_rs1_rs2_edges_rs1val_0x2_rs2val_0xffffffff_str
00001ad8 l       .text.rvtest	00000000 I_or_cg_cr_rs1_rs2_edges_rs1val_0x2_rs2val_0xfffffffe
0000addd l       .data	00000000 I_or_cg_cr_rs1_rs2_edges_rs1val_0x2_rs2val_0xfffffffe_str
00001b04 l       .text.rvtest	00000000 I_or_cg_cr_rs1_rs2_edges_rs1val_0x2_rs2val_0x5bbc8872
0000ae30 l       .data	00000000 I_or_cg_cr_rs1_rs2_edges_rs1val_0x2_rs2val_0x5bbc8872_str
00001b30 l       .text.rvtest	00000000 I_or_cg_cr_rs1_rs2_edges_rs1val_0x2_rs2val_0xaaaaaaaa
0000ae83 l       .data	00000000 I_or_cg_cr_rs1_rs2_edges_rs1val_0x2_rs2val_0xaaaaaaaa_str
00001b5c l       .text.rvtest	00000000 I_or_cg_cr_rs1_rs2_edges_rs1val_0x2_rs2val_0x55555555
0000aed6 l       .data	00000000 I_or_cg_cr_rs1_rs2_edges_rs1val_0x2_rs2val_0x55555555_str
00001b88 l       .text.rvtest	00000000 I_or_cg_cr_rs1_rs2_edges_rs1val_0x80000000_rs2val_0x0
0000af29 l       .data	00000000 I_or_cg_cr_rs1_rs2_edges_rs1val_0x80000000_rs2val_0x0_str
00001bb4 l       .text.rvtest	00000000 I_or_cg_cr_rs1_rs2_edges_rs1val_0x80000000_rs2val_0x1
0000af7c l       .data	00000000 I_or_cg_cr_rs1_rs2_edges_rs1val_0x80000000_rs2val_0x1_str
00001be0 l       .text.rvtest	00000000 I_or_cg_cr_rs1_rs2_edges_rs1val_0x80000000_rs2val_0x2
0000afcf l       .data	00000000 I_or_cg_cr_rs1_rs2_edges_rs1val_0x80000000_rs2val_0x2_str
00001c0c l       .text.rvtest	00000000 I_or_cg_cr_rs1_rs2_edges_rs1val_0x80000000_rs2val_0x80000000
0000b022 l       .data	00000000 I_or_cg_cr_rs1_rs2_edges_rs1val_0x80000000_rs2val_0x80000000_str
00001c38 l       .text.rvtest	00000000 I_or_cg_cr_rs1_rs2_edges_rs1val_0x80000000_rs2val_0x80000001
0000b07c l       .data	00000000 I_or_cg_cr_rs1_rs2_edges_rs1val_0x80000000_rs2val_0x80000001_str
00001c64 l       .text.rvtest	00000000 I_or_cg_cr_rs1_rs2_edges_rs1val_0x80000000_rs2val_0x7fffffff
0000b0d6 l       .data	00000000 I_or_cg_cr_rs1_rs2_edges_rs1val_0x80000000_rs2val_0x7fffffff_str
00001c90 l       .text.rvtest	00000000 I_or_cg_cr_rs1_rs2_edges_rs1val_0x80000000_rs2val_0x7ffffffe
0000b130 l       .data	00000000 I_or_cg_cr_rs1_rs2_edges_rs1val_0x80000000_rs2val_0x7ffffffe_str
00001cbc l       .text.rvtest	00000000 I_or_cg_cr_rs1_rs2_edges_rs1val_0x80000000_rs2val_0xffffffff
0000b18a l       .data	00000000 I_or_cg_cr_rs1_rs2_edges_rs1val_0x80000000_rs2val_0xffffffff_str
00001ce8 l       .text.rvtest	00000000 I_or_cg_cr_rs1_rs2_edges_rs1val_0x80000000_rs2val_0xfffffffe
0000b1e4 l       .data	00000000 I_or_cg_cr_rs1_rs2_edges_rs1val_0x80000000_rs2val_0xfffffffe_str
00001d14 l       .text.rvtest	00000000 I_or_cg_cr_rs1_rs2_edges_rs1val_0x80000000_rs2val_0x5bbc8872
0000b23e l       .data	00000000 I_or_cg_cr_rs1_rs2_edges_rs1val_0x80000000_rs2val_0x5bbc8872_str
00001d40 l       .text.rvtest	00000000 I_or_cg_cr_rs1_rs2_edges_rs1val_0x80000000_rs2val_0xaaaaaaaa
0000b298 l       .data	00000000 I_or_cg_cr_rs1_rs2_edges_rs1val_0x80000000_rs2val_0xaaaaaaaa_str
00001d6c l       .text.rvtest	00000000 I_or_cg_cr_rs1_rs2_edges_rs1val_0x80000000_rs2val_0x55555555
0000b2f2 l       .data	00000000 I_or_cg_cr_rs1_rs2_edges_rs1val_0x80000000_rs2val_0x55555555_str
00001d98 l       .text.rvtest	00000000 I_or_cg_cr_rs1_rs2_edges_rs1val_0x80000001_rs2val_0x0
0000b34c l       .data	00000000 I_or_cg_cr_rs1_rs2_edges_rs1val_0x80000001_rs2val_0x0_str
00001dc4 l       .text.rvtest	00000000 I_or_cg_cr_rs1_rs2_edges_rs1val_0x80000001_rs2val_0x1
0000b39f l       .data	00000000 I_or_cg_cr_rs1_rs2_edges_rs1val_0x80000001_rs2val_0x1_str
00001df0 l       .text.rvtest	00000000 I_or_cg_cr_rs1_rs2_edges_rs1val_0x80000001_rs2val_0x2
0000b3f2 l       .data	00000000 I_or_cg_cr_rs1_rs2_edges_rs1val_0x80000001_rs2val_0x2_str
00001e1c l       .text.rvtest	00000000 I_or_cg_cr_rs1_rs2_edges_rs1val_0x80000001_rs2val_0x80000000
0000b445 l       .data	00000000 I_or_cg_cr_rs1_rs2_edges_rs1val_0x80000001_rs2val_0x80000000_str
00001e48 l       .text.rvtest	00000000 I_or_cg_cr_rs1_rs2_edges_rs1val_0x80000001_rs2val_0x80000001
0000b49f l       .data	00000000 I_or_cg_cr_rs1_rs2_edges_rs1val_0x80000001_rs2val_0x80000001_str
00001e74 l       .text.rvtest	00000000 I_or_cg_cr_rs1_rs2_edges_rs1val_0x80000001_rs2val_0x7fffffff
0000b4f9 l       .data	00000000 I_or_cg_cr_rs1_rs2_edges_rs1val_0x80000001_rs2val_0x7fffffff_str
00001ea0 l       .text.rvtest	00000000 I_or_cg_cr_rs1_rs2_edges_rs1val_0x80000001_rs2val_0x7ffffffe
0000b553 l       .data	00000000 I_or_cg_cr_rs1_rs2_edges_rs1val_0x80000001_rs2val_0x7ffffffe_str
00001ecc l       .text.rvtest	00000000 I_or_cg_cr_rs1_rs2_edges_rs1val_0x80000001_rs2val_0xffffffff
0000b5ad l       .data	00000000 I_or_cg_cr_rs1_rs2_edges_rs1val_0x80000001_rs2val_0xffffffff_str
00001ef8 l       .text.rvtest	00000000 I_or_cg_cr_rs1_rs2_edges_rs1val_0x80000001_rs2val_0xfffffffe
0000b607 l       .data	00000000 I_or_cg_cr_rs1_rs2_edges_rs1val_0x80000001_rs2val_0xfffffffe_str
00001f24 l       .text.rvtest	00000000 I_or_cg_cr_rs1_rs2_edges_rs1val_0x80000001_rs2val_0x5bbc8872
0000b661 l       .data	00000000 I_or_cg_cr_rs1_rs2_edges_rs1val_0x80000001_rs2val_0x5bbc8872_str
00001f50 l       .text.rvtest	00000000 I_or_cg_cr_rs1_rs2_edges_rs1val_0x80000001_rs2val_0xaaaaaaaa
0000b6bb l       .data	00000000 I_or_cg_cr_rs1_rs2_edges_rs1val_0x80000001_rs2val_0xaaaaaaaa_str
00001f7c l       .text.rvtest	00000000 I_or_cg_cr_rs1_rs2_edges_rs1val_0x80000001_rs2val_0x55555555
0000b715 l       .data	00000000 I_or_cg_cr_rs1_rs2_edges_rs1val_0x80000001_rs2val_0x55555555_str
00001fa8 l       .text.rvtest	00000000 I_or_cg_cr_rs1_rs2_edges_rs1val_0x7fffffff_rs2val_0x0
0000b76f l       .data	00000000 I_or_cg_cr_rs1_rs2_edges_rs1val_0x7fffffff_rs2val_0x0_str
00001fd4 l       .text.rvtest	00000000 I_or_cg_cr_rs1_rs2_edges_rs1val_0x7fffffff_rs2val_0x1
0000b7c2 l       .data	00000000 I_or_cg_cr_rs1_rs2_edges_rs1val_0x7fffffff_rs2val_0x1_str
00002000 l       .text.rvtest	00000000 I_or_cg_cr_rs1_rs2_edges_rs1val_0x7fffffff_rs2val_0x2
0000b815 l       .data	00000000 I_or_cg_cr_rs1_rs2_edges_rs1val_0x7fffffff_rs2val_0x2_str
0000202c l       .text.rvtest	00000000 I_or_cg_cr_rs1_rs2_edges_rs1val_0x7fffffff_rs2val_0x80000000
0000b868 l       .data	00000000 I_or_cg_cr_rs1_rs2_edges_rs1val_0x7fffffff_rs2val_0x80000000_str
00002058 l       .text.rvtest	00000000 I_or_cg_cr_rs1_rs2_edges_rs1val_0x7fffffff_rs2val_0x80000001
0000b8c2 l       .data	00000000 I_or_cg_cr_rs1_rs2_edges_rs1val_0x7fffffff_rs2val_0x80000001_str
00002084 l       .text.rvtest	00000000 I_or_cg_cr_rs1_rs2_edges_rs1val_0x7fffffff_rs2val_0x7fffffff
0000b91c l       .data	00000000 I_or_cg_cr_rs1_rs2_edges_rs1val_0x7fffffff_rs2val_0x7fffffff_str
000020b0 l       .text.rvtest	00000000 I_or_cg_cr_rs1_rs2_edges_rs1val_0x7fffffff_rs2val_0x7ffffffe
0000b976 l       .data	00000000 I_or_cg_cr_rs1_rs2_edges_rs1val_0x7fffffff_rs2val_0x7ffffffe_str
000020dc l       .text.rvtest	00000000 I_or_cg_cr_rs1_rs2_edges_rs1val_0x7fffffff_rs2val_0xffffffff
0000b9d0 l       .data	00000000 I_or_cg_cr_rs1_rs2_edges_rs1val_0x7fffffff_rs2val_0xffffffff_str
00002108 l       .text.rvtest	00000000 I_or_cg_cr_rs1_rs2_edges_rs1val_0x7fffffff_rs2val_0xfffffffe
0000ba2a l       .data	00000000 I_or_cg_cr_rs1_rs2_edges_rs1val_0x7fffffff_rs2val_0xfffffffe_str
00002134 l       .text.rvtest	00000000 I_or_cg_cr_rs1_rs2_edges_rs1val_0x7fffffff_rs2val_0x5bbc8872
0000ba84 l       .data	00000000 I_or_cg_cr_rs1_rs2_edges_rs1val_0x7fffffff_rs2val_0x5bbc8872_str
00002160 l       .text.rvtest	00000000 I_or_cg_cr_rs1_rs2_edges_rs1val_0x7fffffff_rs2val_0xaaaaaaaa
0000bade l       .data	00000000 I_or_cg_cr_rs1_rs2_edges_rs1val_0x7fffffff_rs2val_0xaaaaaaaa_str
0000218c l       .text.rvtest	00000000 I_or_cg_cr_rs1_rs2_edges_rs1val_0x7fffffff_rs2val_0x55555555
0000bb38 l       .data	00000000 I_or_cg_cr_rs1_rs2_edges_rs1val_0x7fffffff_rs2val_0x55555555_str
000021b8 l       .text.rvtest	00000000 I_or_cg_cr_rs1_rs2_edges_rs1val_0x7ffffffe_rs2val_0x0
0000bb92 l       .data	00000000 I_or_cg_cr_rs1_rs2_edges_rs1val_0x7ffffffe_rs2val_0x0_str
000021e4 l       .text.rvtest	00000000 I_or_cg_cr_rs1_rs2_edges_rs1val_0x7ffffffe_rs2val_0x1
0000bbe5 l       .data	00000000 I_or_cg_cr_rs1_rs2_edges_rs1val_0x7ffffffe_rs2val_0x1_str
00002210 l       .text.rvtest	00000000 I_or_cg_cr_rs1_rs2_edges_rs1val_0x7ffffffe_rs2val_0x2
0000bc38 l       .data	00000000 I_or_cg_cr_rs1_rs2_edges_rs1val_0x7ffffffe_rs2val_0x2_str
0000223c l       .text.rvtest	00000000 I_or_cg_cr_rs1_rs2_edges_rs1val_0x7ffffffe_rs2val_0x80000000
0000bc8b l       .data	00000000 I_or_cg_cr_rs1_rs2_edges_rs1val_0x7ffffffe_rs2val_0x80000000_str
00002268 l       .text.rvtest	00000000 I_or_cg_cr_rs1_rs2_edges_rs1val_0x7ffffffe_rs2val_0x80000001
0000bce5 l       .data	00000000 I_or_cg_cr_rs1_rs2_edges_rs1val_0x7ffffffe_rs2val_0x80000001_str
00002294 l       .text.rvtest	00000000 I_or_cg_cr_rs1_rs2_edges_rs1val_0x7ffffffe_rs2val_0x7fffffff
0000bd3f l       .data	00000000 I_or_cg_cr_rs1_rs2_edges_rs1val_0x7ffffffe_rs2val_0x7fffffff_str
000022c0 l       .text.rvtest	00000000 I_or_cg_cr_rs1_rs2_edges_rs1val_0x7ffffffe_rs2val_0x7ffffffe
0000bd99 l       .data	00000000 I_or_cg_cr_rs1_rs2_edges_rs1val_0x7ffffffe_rs2val_0x7ffffffe_str
000022ec l       .text.rvtest	00000000 I_or_cg_cr_rs1_rs2_edges_rs1val_0x7ffffffe_rs2val_0xffffffff
0000bdf3 l       .data	00000000 I_or_cg_cr_rs1_rs2_edges_rs1val_0x7ffffffe_rs2val_0xffffffff_str
00002318 l       .text.rvtest	00000000 I_or_cg_cr_rs1_rs2_edges_rs1val_0x7ffffffe_rs2val_0xfffffffe
0000be4d l       .data	00000000 I_or_cg_cr_rs1_rs2_edges_rs1val_0x7ffffffe_rs2val_0xfffffffe_str
00002344 l       .text.rvtest	00000000 I_or_cg_cr_rs1_rs2_edges_rs1val_0x7ffffffe_rs2val_0x5bbc8872
0000bea7 l       .data	00000000 I_or_cg_cr_rs1_rs2_edges_rs1val_0x7ffffffe_rs2val_0x5bbc8872_str
00002370 l       .text.rvtest	00000000 I_or_cg_cr_rs1_rs2_edges_rs1val_0x7ffffffe_rs2val_0xaaaaaaaa
0000bf01 l       .data	00000000 I_or_cg_cr_rs1_rs2_edges_rs1val_0x7ffffffe_rs2val_0xaaaaaaaa_str
0000239c l       .text.rvtest	00000000 I_or_cg_cr_rs1_rs2_edges_rs1val_0x7ffffffe_rs2val_0x55555555
0000bf5b l       .data	00000000 I_or_cg_cr_rs1_rs2_edges_rs1val_0x7ffffffe_rs2val_0x55555555_str
000023c8 l       .text.rvtest	00000000 I_or_cg_cr_rs1_rs2_edges_rs1val_0xffffffff_rs2val_0x0
0000bfb5 l       .data	00000000 I_or_cg_cr_rs1_rs2_edges_rs1val_0xffffffff_rs2val_0x0_str
000023f4 l       .text.rvtest	00000000 I_or_cg_cr_rs1_rs2_edges_rs1val_0xffffffff_rs2val_0x1
0000c008 l       .data	00000000 I_or_cg_cr_rs1_rs2_edges_rs1val_0xffffffff_rs2val_0x1_str
00002420 l       .text.rvtest	00000000 I_or_cg_cr_rs1_rs2_edges_rs1val_0xffffffff_rs2val_0x2
0000c05b l       .data	00000000 I_or_cg_cr_rs1_rs2_edges_rs1val_0xffffffff_rs2val_0x2_str
0000244c l       .text.rvtest	00000000 I_or_cg_cr_rs1_rs2_edges_rs1val_0xffffffff_rs2val_0x80000000
0000c0ae l       .data	00000000 I_or_cg_cr_rs1_rs2_edges_rs1val_0xffffffff_rs2val_0x80000000_str
00002478 l       .text.rvtest	00000000 I_or_cg_cr_rs1_rs2_edges_rs1val_0xffffffff_rs2val_0x80000001
0000c108 l       .data	00000000 I_or_cg_cr_rs1_rs2_edges_rs1val_0xffffffff_rs2val_0x80000001_str
000024a4 l       .text.rvtest	00000000 I_or_cg_cr_rs1_rs2_edges_rs1val_0xffffffff_rs2val_0x7fffffff
0000c162 l       .data	00000000 I_or_cg_cr_rs1_rs2_edges_rs1val_0xffffffff_rs2val_0x7fffffff_str
000024d0 l       .text.rvtest	00000000 I_or_cg_cr_rs1_rs2_edges_rs1val_0xffffffff_rs2val_0x7ffffffe
0000c1bc l       .data	00000000 I_or_cg_cr_rs1_rs2_edges_rs1val_0xffffffff_rs2val_0x7ffffffe_str
000024fc l       .text.rvtest	00000000 I_or_cg_cr_rs1_rs2_edges_rs1val_0xffffffff_rs2val_0xffffffff
0000c216 l       .data	00000000 I_or_cg_cr_rs1_rs2_edges_rs1val_0xffffffff_rs2val_0xffffffff_str
00002528 l       .text.rvtest	00000000 I_or_cg_cr_rs1_rs2_edges_rs1val_0xffffffff_rs2val_0xfffffffe
0000c270 l       .data	00000000 I_or_cg_cr_rs1_rs2_edges_rs1val_0xffffffff_rs2val_0xfffffffe_str
00002554 l       .text.rvtest	00000000 I_or_cg_cr_rs1_rs2_edges_rs1val_0xffffffff_rs2val_0x5bbc8872
0000c2ca l       .data	00000000 I_or_cg_cr_rs1_rs2_edges_rs1val_0xffffffff_rs2val_0x5bbc8872_str
00002580 l       .text.rvtest	00000000 I_or_cg_cr_rs1_rs2_edges_rs1val_0xffffffff_rs2val_0xaaaaaaaa
0000c324 l       .data	00000000 I_or_cg_cr_rs1_rs2_edges_rs1val_0xffffffff_rs2val_0xaaaaaaaa_str
000025ac l       .text.rvtest	00000000 I_or_cg_cr_rs1_rs2_edges_rs1val_0xffffffff_rs2val_0x55555555
0000c37e l       .data	00000000 I_or_cg_cr_rs1_rs2_edges_rs1val_0xffffffff_rs2val_0x55555555_str
000025d8 l       .text.rvtest	00000000 I_or_cg_cr_rs1_rs2_edges_rs1val_0xfffffffe_rs2val_0x0
0000c3d8 l       .data	00000000 I_or_cg_cr_rs1_rs2_edges_rs1val_0xfffffffe_rs2val_0x0_str
00002604 l       .text.rvtest	00000000 I_or_cg_cr_rs1_rs2_edges_rs1val_0xfffffffe_rs2val_0x1
0000c42b l       .data	00000000 I_or_cg_cr_rs1_rs2_edges_rs1val_0xfffffffe_rs2val_0x1_str
00002630 l       .text.rvtest	00000000 I_or_cg_cr_rs1_rs2_edges_rs1val_0xfffffffe_rs2val_0x2
0000c47e l       .data	00000000 I_or_cg_cr_rs1_rs2_edges_rs1val_0xfffffffe_rs2val_0x2_str
0000265c l       .text.rvtest	00000000 I_or_cg_cr_rs1_rs2_edges_rs1val_0xfffffffe_rs2val_0x80000000
0000c4d1 l       .data	00000000 I_or_cg_cr_rs1_rs2_edges_rs1val_0xfffffffe_rs2val_0x80000000_str
00002688 l       .text.rvtest	00000000 I_or_cg_cr_rs1_rs2_edges_rs1val_0xfffffffe_rs2val_0x80000001
0000c52b l       .data	00000000 I_or_cg_cr_rs1_rs2_edges_rs1val_0xfffffffe_rs2val_0x80000001_str
000026b4 l       .text.rvtest	00000000 I_or_cg_cr_rs1_rs2_edges_rs1val_0xfffffffe_rs2val_0x7fffffff
0000c585 l       .data	00000000 I_or_cg_cr_rs1_rs2_edges_rs1val_0xfffffffe_rs2val_0x7fffffff_str
000026e0 l       .text.rvtest	00000000 I_or_cg_cr_rs1_rs2_edges_rs1val_0xfffffffe_rs2val_0x7ffffffe
0000c5df l       .data	00000000 I_or_cg_cr_rs1_rs2_edges_rs1val_0xfffffffe_rs2val_0x7ffffffe_str
0000270c l       .text.rvtest	00000000 I_or_cg_cr_rs1_rs2_edges_rs1val_0xfffffffe_rs2val_0xffffffff
0000c639 l       .data	00000000 I_or_cg_cr_rs1_rs2_edges_rs1val_0xfffffffe_rs2val_0xffffffff_str
00002738 l       .text.rvtest	00000000 I_or_cg_cr_rs1_rs2_edges_rs1val_0xfffffffe_rs2val_0xfffffffe
0000c693 l       .data	00000000 I_or_cg_cr_rs1_rs2_edges_rs1val_0xfffffffe_rs2val_0xfffffffe_str
00002764 l       .text.rvtest	00000000 I_or_cg_cr_rs1_rs2_edges_rs1val_0xfffffffe_rs2val_0x5bbc8872
0000c6ed l       .data	00000000 I_or_cg_cr_rs1_rs2_edges_rs1val_0xfffffffe_rs2val_0x5bbc8872_str
00002790 l       .text.rvtest	00000000 I_or_cg_cr_rs1_rs2_edges_rs1val_0xfffffffe_rs2val_0xaaaaaaaa
0000c747 l       .data	00000000 I_or_cg_cr_rs1_rs2_edges_rs1val_0xfffffffe_rs2val_0xaaaaaaaa_str
000027bc l       .text.rvtest	00000000 I_or_cg_cr_rs1_rs2_edges_rs1val_0xfffffffe_rs2val_0x55555555
0000c7a1 l       .data	00000000 I_or_cg_cr_rs1_rs2_edges_rs1val_0xfffffffe_rs2val_0x55555555_str
000027e8 l       .text.rvtest	00000000 I_or_cg_cr_rs1_rs2_edges_rs1val_0x5bbc8872_rs2val_0x0
0000c7fb l       .data	00000000 I_or_cg_cr_rs1_rs2_edges_rs1val_0x5bbc8872_rs2val_0x0_str
00002814 l       .text.rvtest	00000000 I_or_cg_cr_rs1_rs2_edges_rs1val_0x5bbc8872_rs2val_0x1
0000c84e l       .data	00000000 I_or_cg_cr_rs1_rs2_edges_rs1val_0x5bbc8872_rs2val_0x1_str
00002840 l       .text.rvtest	00000000 I_or_cg_cr_rs1_rs2_edges_rs1val_0x5bbc8872_rs2val_0x2
0000c8a1 l       .data	00000000 I_or_cg_cr_rs1_rs2_edges_rs1val_0x5bbc8872_rs2val_0x2_str
0000286c l       .text.rvtest	00000000 I_or_cg_cr_rs1_rs2_edges_rs1val_0x5bbc8872_rs2val_0x80000000
0000c8f4 l       .data	00000000 I_or_cg_cr_rs1_rs2_edges_rs1val_0x5bbc8872_rs2val_0x80000000_str
00002898 l       .text.rvtest	00000000 I_or_cg_cr_rs1_rs2_edges_rs1val_0x5bbc8872_rs2val_0x80000001
0000c94e l       .data	00000000 I_or_cg_cr_rs1_rs2_edges_rs1val_0x5bbc8872_rs2val_0x80000001_str
000028c4 l       .text.rvtest	00000000 I_or_cg_cr_rs1_rs2_edges_rs1val_0x5bbc8872_rs2val_0x7fffffff
0000c9a8 l       .data	00000000 I_or_cg_cr_rs1_rs2_edges_rs1val_0x5bbc8872_rs2val_0x7fffffff_str
000028f0 l       .text.rvtest	00000000 I_or_cg_cr_rs1_rs2_edges_rs1val_0x5bbc8872_rs2val_0x7ffffffe
0000ca02 l       .data	00000000 I_or_cg_cr_rs1_rs2_edges_rs1val_0x5bbc8872_rs2val_0x7ffffffe_str
0000291c l       .text.rvtest	00000000 I_or_cg_cr_rs1_rs2_edges_rs1val_0x5bbc8872_rs2val_0xffffffff
0000ca5c l       .data	00000000 I_or_cg_cr_rs1_rs2_edges_rs1val_0x5bbc8872_rs2val_0xffffffff_str
00002948 l       .text.rvtest	00000000 I_or_cg_cr_rs1_rs2_edges_rs1val_0x5bbc8872_rs2val_0xfffffffe
0000cab6 l       .data	00000000 I_or_cg_cr_rs1_rs2_edges_rs1val_0x5bbc8872_rs2val_0xfffffffe_str
00002974 l       .text.rvtest	00000000 I_or_cg_cr_rs1_rs2_edges_rs1val_0x5bbc8872_rs2val_0x5bbc8872
0000cb10 l       .data	00000000 I_or_cg_cr_rs1_rs2_edges_rs1val_0x5bbc8872_rs2val_0x5bbc8872_str
000029a0 l       .text.rvtest	00000000 I_or_cg_cr_rs1_rs2_edges_rs1val_0x5bbc8872_rs2val_0xaaaaaaaa
0000cb6a l       .data	00000000 I_or_cg_cr_rs1_rs2_edges_rs1val_0x5bbc8872_rs2val_0xaaaaaaaa_str
000029cc l       .text.rvtest	00000000 I_or_cg_cr_rs1_rs2_edges_rs1val_0x5bbc8872_rs2val_0x55555555
0000cbc4 l       .data	00000000 I_or_cg_cr_rs1_rs2_edges_rs1val_0x5bbc8872_rs2val_0x55555555_str
000029f8 l       .text.rvtest	00000000 I_or_cg_cr_rs1_rs2_edges_rs1val_0xaaaaaaaa_rs2val_0x0
0000cc1e l       .data	00000000 I_or_cg_cr_rs1_rs2_edges_rs1val_0xaaaaaaaa_rs2val_0x0_str
00002a24 l       .text.rvtest	00000000 I_or_cg_cr_rs1_rs2_edges_rs1val_0xaaaaaaaa_rs2val_0x1
0000cc71 l       .data	00000000 I_or_cg_cr_rs1_rs2_edges_rs1val_0xaaaaaaaa_rs2val_0x1_str
00002a50 l       .text.rvtest	00000000 I_or_cg_cr_rs1_rs2_edges_rs1val_0xaaaaaaaa_rs2val_0x2
0000ccc4 l       .data	00000000 I_or_cg_cr_rs1_rs2_edges_rs1val_0xaaaaaaaa_rs2val_0x2_str
00002a7c l       .text.rvtest	00000000 I_or_cg_cr_rs1_rs2_edges_rs1val_0xaaaaaaaa_rs2val_0x80000000
0000cd17 l       .data	00000000 I_or_cg_cr_rs1_rs2_edges_rs1val_0xaaaaaaaa_rs2val_0x80000000_str
00002aa8 l       .text.rvtest	00000000 I_or_cg_cr_rs1_rs2_edges_rs1val_0xaaaaaaaa_rs2val_0x80000001
0000cd71 l       .data	00000000 I_or_cg_cr_rs1_rs2_edges_rs1val_0xaaaaaaaa_rs2val_0x80000001_str
00002ad4 l       .text.rvtest	00000000 I_or_cg_cr_rs1_rs2_edges_rs1val_0xaaaaaaaa_rs2val_0x7fffffff
0000cdcb l       .data	00000000 I_or_cg_cr_rs1_rs2_edges_rs1val_0xaaaaaaaa_rs2val_0x7fffffff_str
00002b00 l       .text.rvtest	00000000 I_or_cg_cr_rs1_rs2_edges_rs1val_0xaaaaaaaa_rs2val_0x7ffffffe
0000ce25 l       .data	00000000 I_or_cg_cr_rs1_rs2_edges_rs1val_0xaaaaaaaa_rs2val_0x7ffffffe_str
00002b2c l       .text.rvtest	00000000 I_or_cg_cr_rs1_rs2_edges_rs1val_0xaaaaaaaa_rs2val_0xffffffff
0000ce7f l       .data	00000000 I_or_cg_cr_rs1_rs2_edges_rs1val_0xaaaaaaaa_rs2val_0xffffffff_str
00002b58 l       .text.rvtest	00000000 I_or_cg_cr_rs1_rs2_edges_rs1val_0xaaaaaaaa_rs2val_0xfffffffe
0000ced9 l       .data	00000000 I_or_cg_cr_rs1_rs2_edges_rs1val_0xaaaaaaaa_rs2val_0xfffffffe_str
00002b84 l       .text.rvtest	00000000 I_or_cg_cr_rs1_rs2_edges_rs1val_0xaaaaaaaa_rs2val_0x5bbc8872
0000cf33 l       .data	00000000 I_or_cg_cr_rs1_rs2_edges_rs1val_0xaaaaaaaa_rs2val_0x5bbc8872_str
00002bb0 l       .text.rvtest	00000000 I_or_cg_cr_rs1_rs2_edges_rs1val_0xaaaaaaaa_rs2val_0xaaaaaaaa
0000cf8d l       .data	00000000 I_or_cg_cr_rs1_rs2_edges_rs1val_0xaaaaaaaa_rs2val_0xaaaaaaaa_str
00002bdc l       .text.rvtest	00000000 I_or_cg_cr_rs1_rs2_edges_rs1val_0xaaaaaaaa_rs2val_0x55555555
0000cfe7 l       .data	00000000 I_or_cg_cr_rs1_rs2_edges_rs1val_0xaaaaaaaa_rs2val_0x55555555_str
00002c08 l       .text.rvtest	00000000 I_or_cg_cr_rs1_rs2_edges_rs1val_0x55555555_rs2val_0x0
0000d041 l       .data	00000000 I_or_cg_cr_rs1_rs2_edges_rs1val_0x55555555_rs2val_0x0_str
00002c34 l       .text.rvtest	00000000 I_or_cg_cr_rs1_rs2_edges_rs1val_0x55555555_rs2val_0x1
0000d094 l       .data	00000000 I_or_cg_cr_rs1_rs2_edges_rs1val_0x55555555_rs2val_0x1_str
00002c60 l       .text.rvtest	00000000 I_or_cg_cr_rs1_rs2_edges_rs1val_0x55555555_rs2val_0x2
0000d0e7 l       .data	00000000 I_or_cg_cr_rs1_rs2_edges_rs1val_0x55555555_rs2val_0x2_str
00002c8c l       .text.rvtest	00000000 I_or_cg_cr_rs1_rs2_edges_rs1val_0x55555555_rs2val_0x80000000
0000d13a l       .data	00000000 I_or_cg_cr_rs1_rs2_edges_rs1val_0x55555555_rs2val_0x80000000_str
00002cb8 l       .text.rvtest	00000000 I_or_cg_cr_rs1_rs2_edges_rs1val_0x55555555_rs2val_0x80000001
0000d194 l       .data	00000000 I_or_cg_cr_rs1_rs2_edges_rs1val_0x55555555_rs2val_0x80000001_str
00002ce4 l       .text.rvtest	00000000 I_or_cg_cr_rs1_rs2_edges_rs1val_0x55555555_rs2val_0x7fffffff
0000d1ee l       .data	00000000 I_or_cg_cr_rs1_rs2_edges_rs1val_0x55555555_rs2val_0x7fffffff_str
00002d10 l       .text.rvtest	00000000 I_or_cg_cr_rs1_rs2_edges_rs1val_0x55555555_rs2val_0x7ffffffe
0000d248 l       .data	00000000 I_or_cg_cr_rs1_rs2_edges_rs1val_0x55555555_rs2val_0x7ffffffe_str
00002d3c l       .text.rvtest	00000000 I_or_cg_cr_rs1_rs2_edges_rs1val_0x55555555_rs2val_0xffffffff
0000d2a2 l       .data	00000000 I_or_cg_cr_rs1_rs2_edges_rs1val_0x55555555_rs2val_0xffffffff_str
00002d68 l       .text.rvtest	00000000 I_or_cg_cr_rs1_rs2_edges_rs1val_0x55555555_rs2val_0xfffffffe
0000d2fc l       .data	00000000 I_or_cg_cr_rs1_rs2_edges_rs1val_0x55555555_rs2val_0xfffffffe_str
00002d94 l       .text.rvtest	00000000 I_or_cg_cr_rs1_rs2_edges_rs1val_0x55555555_rs2val_0x5bbc8872
0000d356 l       .data	00000000 I_or_cg_cr_rs1_rs2_edges_rs1val_0x55555555_rs2val_0x5bbc8872_str
00002dc0 l       .text.rvtest	00000000 I_or_cg_cr_rs1_rs2_edges_rs1val_0x55555555_rs2val_0xaaaaaaaa
0000d3b0 l       .data	00000000 I_or_cg_cr_rs1_rs2_edges_rs1val_0x55555555_rs2val_0xaaaaaaaa_str
00002dec l       .text.rvtest	00000000 I_or_cg_cr_rs1_rs2_edges_rs1val_0x55555555_rs2val_0x55555555
0000d40a l       .data	00000000 I_or_cg_cr_rs1_rs2_edges_rs1val_0x55555555_rs2val_0x55555555_str
00002e18 l       .text.rvtest	00000000 I_or_cg_cmp_rs1_rs2_b0
0000d464 l       .data	00000000 I_or_cg_cmp_rs1_rs2_b0_str
00002e44 l       .text.rvtest	00000000 I_or_cg_cmp_rs1_rs2_b1
0000d497 l       .data	00000000 I_or_cg_cmp_rs1_rs2_b1_str
00002e70 l       .text.rvtest	00000000 I_or_cg_cmp_rs1_rs2_b2
0000d4ca l       .data	00000000 I_or_cg_cmp_rs1_rs2_b2_str
00002e9c l       .text.rvtest	00000000 I_or_cg_cmp_rs1_rs2_b3
0000d4fd l       .data	00000000 I_or_cg_cmp_rs1_rs2_b3_str
00002ed0 l       .text.rvtest	00000000 I_or_cg_cmp_rs1_rs2_b4
0000d530 l       .data	00000000 I_or_cg_cmp_rs1_rs2_b4_str
00002efc l       .text.rvtest	00000000 I_or_cg_cmp_rs1_rs2_b5
0000d563 l       .data	00000000 I_or_cg_cmp_rs1_rs2_b5_str
00002f28 l       .text.rvtest	00000000 I_or_cg_cmp_rs1_rs2_b6
0000d596 l       .data	00000000 I_or_cg_cmp_rs1_rs2_b6_str
00002f54 l       .text.rvtest	00000000 I_or_cg_cmp_rs1_rs2_b7
0000d5c9 l       .data	00000000 I_or_cg_cmp_rs1_rs2_b7_str
00002f80 l       .text.rvtest	00000000 I_or_cg_cmp_rs1_rs2_b8
0000d5fc l       .data	00000000 I_or_cg_cmp_rs1_rs2_b8_str
00002fac l       .text.rvtest	00000000 I_or_cg_cmp_rs1_rs2_b9
0000d62f l       .data	00000000 I_or_cg_cmp_rs1_rs2_b9_str
00002fd8 l       .text.rvtest	00000000 I_or_cg_cmp_rs1_rs2_b10
0000d662 l       .data	00000000 I_or_cg_cmp_rs1_rs2_b10_str
00003008 l       .text.rvtest	00000000 I_or_cg_cmp_rs1_rs2_b11
0000d696 l       .data	00000000 I_or_cg_cmp_rs1_rs2_b11_str
00003034 l       .text.rvtest	00000000 I_or_cg_cmp_rs1_rs2_b12
0000d6ca l       .data	00000000 I_or_cg_cmp_rs1_rs2_b12_str
00003068 l       .text.rvtest	00000000 I_or_cg_cmp_rs1_rs2_b13
0000d6fe l       .data	00000000 I_or_cg_cmp_rs1_rs2_b13_str
00003094 l       .text.rvtest	00000000 I_or_cg_cmp_rs1_rs2_b14
0000d732 l       .data	00000000 I_or_cg_cmp_rs1_rs2_b14_str
000030c0 l       .text.rvtest	00000000 I_or_cg_cmp_rs1_rs2_b15
0000d766 l       .data	00000000 I_or_cg_cmp_rs1_rs2_b15_str
000030ec l       .text.rvtest	00000000 I_or_cg_cmp_rs1_rs2_b16
0000d79a l       .data	00000000 I_or_cg_cmp_rs1_rs2_b16_str
00003118 l       .text.rvtest	00000000 I_or_cg_cmp_rs1_rs2_b17
0000d7ce l       .data	00000000 I_or_cg_cmp_rs1_rs2_b17_str
00003144 l       .text.rvtest	00000000 I_or_cg_cmp_rs1_rs2_b18
0000d802 l       .data	00000000 I_or_cg_cmp_rs1_rs2_b18_str
00003170 l       .text.rvtest	00000000 I_or_cg_cmp_rs1_rs2_b19
0000d836 l       .data	00000000 I_or_cg_cmp_rs1_rs2_b19_str
0000319c l       .text.rvtest	00000000 I_or_cg_cmp_rs1_rs2_b20
0000d86a l       .data	00000000 I_or_cg_cmp_rs1_rs2_b20_str
000031c8 l       .text.rvtest	00000000 I_or_cg_cmp_rs1_rs2_b21
0000d89e l       .data	00000000 I_or_cg_cmp_rs1_rs2_b21_str
000031f8 l       .text.rvtest	00000000 I_or_cg_cmp_rs1_rs2_b22
0000d8d2 l       .data	00000000 I_or_cg_cmp_rs1_rs2_b22_str
00003224 l       .text.rvtest	00000000 I_or_cg_cmp_rs1_rs2_b23
0000d906 l       .data	00000000 I_or_cg_cmp_rs1_rs2_b23_str
00003254 l       .text.rvtest	00000000 I_or_cg_cmp_rs1_rs2_b24
0000d93a l       .data	00000000 I_or_cg_cmp_rs1_rs2_b24_str
00003280 l       .text.rvtest	00000000 I_or_cg_cmp_rs1_rs2_b25
0000d96e l       .data	00000000 I_or_cg_cmp_rs1_rs2_b25_str
000032b0 l       .text.rvtest	00000000 I_or_cg_cmp_rs1_rs2_b26
0000d9a2 l       .data	00000000 I_or_cg_cmp_rs1_rs2_b26_str
000032dc l       .text.rvtest	00000000 I_or_cg_cmp_rs1_rs2_b27
0000d9d6 l       .data	00000000 I_or_cg_cmp_rs1_rs2_b27_str
00003308 l       .text.rvtest	00000000 I_or_cg_cmp_rs1_rs2_b28
0000da0a l       .data	00000000 I_or_cg_cmp_rs1_rs2_b28_str
00003334 l       .text.rvtest	00000000 I_or_cg_cmp_rs1_rs2_b29
0000da3e l       .data	00000000 I_or_cg_cmp_rs1_rs2_b29_str
00003360 l       .text.rvtest	00000000 I_or_cg_cmp_rs1_rs2_b30
0000da72 l       .data	00000000 I_or_cg_cmp_rs1_rs2_b30_str
0000338c l       .text.rvtest	00000000 I_or_cg_cmp_rs1_rs2_b31
0000daa6 l       .data	00000000 I_or_cg_cmp_rs1_rs2_b31_str
000033b8 l       .text.rvtest	00000000 I_or_cg_cmp_rd_rs1_b0
0000dada l       .data	00000000 I_or_cg_cmp_rd_rs1_b0_str
000033e8 l       .text.rvtest	00000000 I_or_cg_cmp_rd_rs1_b1
0000db0c l       .data	00000000 I_or_cg_cmp_rd_rs1_b1_str
00003414 l       .text.rvtest	00000000 I_or_cg_cmp_rd_rs1_b2
0000db3e l       .data	00000000 I_or_cg_cmp_rd_rs1_b2_str
00003440 l       .text.rvtest	00000000 I_or_cg_cmp_rd_rs1_b3
0000db70 l       .data	00000000 I_or_cg_cmp_rd_rs1_b3_str
00003474 l       .text.rvtest	00000000 I_or_cg_cmp_rd_rs1_b4
0000dba2 l       .data	00000000 I_or_cg_cmp_rd_rs1_b4_str
000034a0 l       .text.rvtest	00000000 I_or_cg_cmp_rd_rs1_b5
0000dbd4 l       .data	00000000 I_or_cg_cmp_rd_rs1_b5_str
000034cc l       .text.rvtest	00000000 I_or_cg_cmp_rd_rs1_b6
0000dc06 l       .data	00000000 I_or_cg_cmp_rd_rs1_b6_str
000034f8 l       .text.rvtest	00000000 I_or_cg_cmp_rd_rs1_b7
0000dc38 l       .data	00000000 I_or_cg_cmp_rd_rs1_b7_str
00003524 l       .text.rvtest	00000000 I_or_cg_cmp_rd_rs1_b8
0000dc6a l       .data	00000000 I_or_cg_cmp_rd_rs1_b8_str
00003550 l       .text.rvtest	00000000 I_or_cg_cmp_rd_rs1_b9
0000dc9c l       .data	00000000 I_or_cg_cmp_rd_rs1_b9_str
0000357c l       .text.rvtest	00000000 I_or_cg_cmp_rd_rs1_b10
0000dcce l       .data	00000000 I_or_cg_cmp_rd_rs1_b10_str
000035ac l       .text.rvtest	00000000 I_or_cg_cmp_rd_rs1_b11
0000dd01 l       .data	00000000 I_or_cg_cmp_rd_rs1_b11_str
000035d8 l       .text.rvtest	00000000 I_or_cg_cmp_rd_rs1_b12
0000dd34 l       .data	00000000 I_or_cg_cmp_rd_rs1_b12_str
0000360c l       .text.rvtest	00000000 I_or_cg_cmp_rd_rs1_b13
0000dd67 l       .data	00000000 I_or_cg_cmp_rd_rs1_b13_str
00003638 l       .text.rvtest	00000000 I_or_cg_cmp_rd_rs1_b14
0000dd9a l       .data	00000000 I_or_cg_cmp_rd_rs1_b14_str
00003664 l       .text.rvtest	00000000 I_or_cg_cmp_rd_rs1_b15
0000ddcd l       .data	00000000 I_or_cg_cmp_rd_rs1_b15_str
00003690 l       .text.rvtest	00000000 I_or_cg_cmp_rd_rs1_b16
0000de00 l       .data	00000000 I_or_cg_cmp_rd_rs1_b16_str
000036bc l       .text.rvtest	00000000 I_or_cg_cmp_rd_rs1_b17
0000de33 l       .data	00000000 I_or_cg_cmp_rd_rs1_b17_str
000036e8 l       .text.rvtest	00000000 I_or_cg_cmp_rd_rs1_b18
0000de66 l       .data	00000000 I_or_cg_cmp_rd_rs1_b18_str
00003714 l       .text.rvtest	00000000 I_or_cg_cmp_rd_rs1_b19
0000de99 l       .data	00000000 I_or_cg_cmp_rd_rs1_b19_str
00003740 l       .text.rvtest	00000000 I_or_cg_cmp_rd_rs1_b20
0000decc l       .data	00000000 I_or_cg_cmp_rd_rs1_b20_str
0000376c l       .text.rvtest	00000000 I_or_cg_cmp_rd_rs1_b21
0000deff l       .data	00000000 I_or_cg_cmp_rd_rs1_b21_str
00003798 l       .text.rvtest	00000000 I_or_cg_cmp_rd_rs1_b22
0000df32 l       .data	00000000 I_or_cg_cmp_rd_rs1_b22_str
000037c8 l       .text.rvtest	00000000 I_or_cg_cmp_rd_rs1_b23
0000df65 l       .data	00000000 I_or_cg_cmp_rd_rs1_b23_str
000037f4 l       .text.rvtest	00000000 I_or_cg_cmp_rd_rs1_b24
0000df98 l       .data	00000000 I_or_cg_cmp_rd_rs1_b24_str
00003820 l       .text.rvtest	00000000 I_or_cg_cmp_rd_rs1_b25
0000dfcb l       .data	00000000 I_or_cg_cmp_rd_rs1_b25_str
0000384c l       .text.rvtest	00000000 I_or_cg_cmp_rd_rs1_b26
0000dffe l       .data	00000000 I_or_cg_cmp_rd_rs1_b26_str
00003878 l       .text.rvtest	00000000 I_or_cg_cmp_rd_rs1_b27
0000e031 l       .data	00000000 I_or_cg_cmp_rd_rs1_b27_str
000038a4 l       .text.rvtest	00000000 I_or_cg_cmp_rd_rs1_b28
0000e064 l       .data	00000000 I_or_cg_cmp_rd_rs1_b28_str
000038d4 l       .text.rvtest	00000000 I_or_cg_cmp_rd_rs1_b29
0000e097 l       .data	00000000 I_or_cg_cmp_rd_rs1_b29_str
00003900 l       .text.rvtest	00000000 I_or_cg_cmp_rd_rs1_b30
0000e0ca l       .data	00000000 I_or_cg_cmp_rd_rs1_b30_str
0000392c l       .text.rvtest	00000000 I_or_cg_cmp_rd_rs1_b31
0000e0fd l       .data	00000000 I_or_cg_cmp_rd_rs1_b31_str
00003958 l       .text.rvtest	00000000 I_or_cg_cmp_rd_rs2_b0
0000e130 l       .data	00000000 I_or_cg_cmp_rd_rs2_b0_str
00003984 l       .text.rvtest	00000000 I_or_cg_cmp_rd_rs2_b1
0000e162 l       .data	00000000 I_or_cg_cmp_rd_rs2_b1_str
000039b0 l       .text.rvtest	00000000 I_or_cg_cmp_rd_rs2_b2
0000e194 l       .data	00000000 I_or_cg_cmp_rd_rs2_b2_str
000039dc l       .text.rvtest	00000000 I_or_cg_cmp_rd_rs2_b3
0000e1c6 l       .data	00000000 I_or_cg_cmp_rd_rs2_b3_str
00003a08 l       .text.rvtest	00000000 I_or_cg_cmp_rd_rs2_b4
0000e1f8 l       .data	00000000 I_or_cg_cmp_rd_rs2_b4_str
00003a34 l       .text.rvtest	00000000 I_or_cg_cmp_rd_rs2_b5
0000e22a l       .data	00000000 I_or_cg_cmp_rd_rs2_b5_str
00003a60 l       .text.rvtest	00000000 I_or_cg_cmp_rd_rs2_b6
0000e25c l       .data	00000000 I_or_cg_cmp_rd_rs2_b6_str
00003a94 l       .text.rvtest	00000000 I_or_cg_cmp_rd_rs2_b7
0000e28e l       .data	00000000 I_or_cg_cmp_rd_rs2_b7_str
00003ac0 l       .text.rvtest	00000000 I_or_cg_cmp_rd_rs2_b8
0000e2c0 l       .data	00000000 I_or_cg_cmp_rd_rs2_b8_str
00003aec l       .text.rvtest	00000000 I_or_cg_cmp_rd_rs2_b9
0000e2f2 l       .data	00000000 I_or_cg_cmp_rd_rs2_b9_str
00003b18 l       .text.rvtest	00000000 I_or_cg_cmp_rd_rs2_b10
0000e324 l       .data	00000000 I_or_cg_cmp_rd_rs2_b10_str
00003b44 l       .text.rvtest	00000000 I_or_cg_cmp_rd_rs2_b11
0000e357 l       .data	00000000 I_or_cg_cmp_rd_rs2_b11_str
00003b70 l       .text.rvtest	00000000 I_or_cg_cmp_rd_rs2_b12
0000e38a l       .data	00000000 I_or_cg_cmp_rd_rs2_b12_str
00003ba4 l       .text.rvtest	00000000 I_or_cg_cmp_rd_rs2_b13
0000e3bd l       .data	00000000 I_or_cg_cmp_rd_rs2_b13_str
00003bd0 l       .text.rvtest	00000000 I_or_cg_cmp_rd_rs2_b14
0000e3f0 l       .data	00000000 I_or_cg_cmp_rd_rs2_b14_str
00003bfc l       .text.rvtest	00000000 I_or_cg_cmp_rd_rs2_b15
0000e423 l       .data	00000000 I_or_cg_cmp_rd_rs2_b15_str
00003c2c l       .text.rvtest	00000000 I_or_cg_cmp_rd_rs2_b16
0000e456 l       .data	00000000 I_or_cg_cmp_rd_rs2_b16_str
00003c5c l       .text.rvtest	00000000 I_or_cg_cmp_rd_rs2_b17
0000e489 l       .data	00000000 I_or_cg_cmp_rd_rs2_b17_str
00003c88 l       .text.rvtest	00000000 I_or_cg_cmp_rd_rs2_b18
0000e4bc l       .data	00000000 I_or_cg_cmp_rd_rs2_b18_str
00003cb4 l       .text.rvtest	00000000 I_or_cg_cmp_rd_rs2_b19
0000e4ef l       .data	00000000 I_or_cg_cmp_rd_rs2_b19_str
00003ce0 l       .text.rvtest	00000000 I_or_cg_cmp_rd_rs2_b20
0000e522 l       .data	00000000 I_or_cg_cmp_rd_rs2_b20_str
00003d0c l       .text.rvtest	00000000 I_or_cg_cmp_rd_rs2_b21
0000e555 l       .data	00000000 I_or_cg_cmp_rd_rs2_b21_str
00003d38 l       .text.rvtest	00000000 I_or_cg_cmp_rd_rs2_b22
0000e588 l       .data	00000000 I_or_cg_cmp_rd_rs2_b22_str
00003d64 l       .text.rvtest	00000000 I_or_cg_cmp_rd_rs2_b23
0000e5bb l       .data	00000000 I_or_cg_cmp_rd_rs2_b23_str
00003d90 l       .text.rvtest	00000000 I_or_cg_cmp_rd_rs2_b24
0000e5ee l       .data	00000000 I_or_cg_cmp_rd_rs2_b24_str
00003dbc l       .text.rvtest	00000000 I_or_cg_cmp_rd_rs2_b25
0000e621 l       .data	00000000 I_or_cg_cmp_rd_rs2_b25_str
00003de8 l       .text.rvtest	00000000 I_or_cg_cmp_rd_rs2_b26
0000e654 l       .data	00000000 I_or_cg_cmp_rd_rs2_b26_str
00003e14 l       .text.rvtest	00000000 I_or_cg_cmp_rd_rs2_b27
0000e687 l       .data	00000000 I_or_cg_cmp_rd_rs2_b27_str
00003e40 l       .text.rvtest	00000000 I_or_cg_cmp_rd_rs2_b28
0000e6ba l       .data	00000000 I_or_cg_cmp_rd_rs2_b28_str
00003e6c l       .text.rvtest	00000000 I_or_cg_cmp_rd_rs2_b29
0000e6ed l       .data	00000000 I_or_cg_cmp_rd_rs2_b29_str
00003e98 l       .text.rvtest	00000000 I_or_cg_cmp_rd_rs2_b30
0000e720 l       .data	00000000 I_or_cg_cmp_rd_rs2_b30_str
00003ec4 l       .text.rvtest	00000000 I_or_cg_cmp_rd_rs2_b31
0000e753 l       .data	00000000 I_or_cg_cmp_rd_rs2_b31_str
00003ef0 l       .text.rvtest	00000000 I_or_cg_cmp_rd_rs1_rs2_b0
0000e786 l       .data	00000000 I_or_cg_cmp_rd_rs1_rs2_b0_str
00003f1c l       .text.rvtest	00000000 I_or_cg_cmp_rd_rs1_rs2_b1
0000e7bc l       .data	00000000 I_or_cg_cmp_rd_rs1_rs2_b1_str
00003f4c l       .text.rvtest	00000000 I_or_cg_cmp_rd_rs1_rs2_b2
0000e7f2 l       .data	00000000 I_or_cg_cmp_rd_rs1_rs2_b2_str
00003f78 l       .text.rvtest	00000000 I_or_cg_cmp_rd_rs1_rs2_b3
0000e828 l       .data	00000000 I_or_cg_cmp_rd_rs1_rs2_b3_str
00003fa4 l       .text.rvtest	00000000 I_or_cg_cmp_rd_rs1_rs2_b4
0000e85e l       .data	00000000 I_or_cg_cmp_rd_rs1_rs2_b4_str
00003fd0 l       .text.rvtest	00000000 I_or_cg_cmp_rd_rs1_rs2_b5
0000e894 l       .data	00000000 I_or_cg_cmp_rd_rs1_rs2_b5_str
00003ffc l       .text.rvtest	00000000 I_or_cg_cmp_rd_rs1_rs2_b6
0000e8ca l       .data	00000000 I_or_cg_cmp_rd_rs1_rs2_b6_str
00004030 l       .text.rvtest	00000000 I_or_cg_cmp_rd_rs1_rs2_b7
0000e900 l       .data	00000000 I_or_cg_cmp_rd_rs1_rs2_b7_str
0000405c l       .text.rvtest	00000000 I_or_cg_cmp_rd_rs1_rs2_b8
0000e936 l       .data	00000000 I_or_cg_cmp_rd_rs1_rs2_b8_str
00004088 l       .text.rvtest	00000000 I_or_cg_cmp_rd_rs1_rs2_b9
0000e96c l       .data	00000000 I_or_cg_cmp_rd_rs1_rs2_b9_str
000040b4 l       .text.rvtest	00000000 I_or_cg_cmp_rd_rs1_rs2_b10
0000e9a2 l       .data	00000000 I_or_cg_cmp_rd_rs1_rs2_b10_str
000040e4 l       .text.rvtest	00000000 I_or_cg_cmp_rd_rs1_rs2_b11
0000e9d9 l       .data	00000000 I_or_cg_cmp_rd_rs1_rs2_b11_str
00004110 l       .text.rvtest	00000000 I_or_cg_cmp_rd_rs1_rs2_b12
0000ea10 l       .data	00000000 I_or_cg_cmp_rd_rs1_rs2_b12_str
0000413c l       .text.rvtest	00000000 I_or_cg_cmp_rd_rs1_rs2_b13
0000ea47 l       .data	00000000 I_or_cg_cmp_rd_rs1_rs2_b13_str
00004168 l       .text.rvtest	00000000 I_or_cg_cmp_rd_rs1_rs2_b14
0000ea7e l       .data	00000000 I_or_cg_cmp_rd_rs1_rs2_b14_str
00004194 l       .text.rvtest	00000000 I_or_cg_cmp_rd_rs1_rs2_b15
0000eab5 l       .data	00000000 I_or_cg_cmp_rd_rs1_rs2_b15_str
000041c0 l       .text.rvtest	00000000 I_or_cg_cmp_rd_rs1_rs2_b16
0000eaec l       .data	00000000 I_or_cg_cmp_rd_rs1_rs2_b16_str
000041f0 l       .text.rvtest	00000000 I_or_cg_cmp_rd_rs1_rs2_b17
0000eb23 l       .data	00000000 I_or_cg_cmp_rd_rs1_rs2_b17_str
0000421c l       .text.rvtest	00000000 I_or_cg_cmp_rd_rs1_rs2_b18
0000eb5a l       .data	00000000 I_or_cg_cmp_rd_rs1_rs2_b18_str
00004248 l       .text.rvtest	00000000 I_or_cg_cmp_rd_rs1_rs2_b19
0000eb91 l       .data	00000000 I_or_cg_cmp_rd_rs1_rs2_b19_str
00004274 l       .text.rvtest	00000000 I_or_cg_cmp_rd_rs1_rs2_b20
0000ebc8 l       .data	00000000 I_or_cg_cmp_rd_rs1_rs2_b20_str
000042a0 l       .text.rvtest	00000000 I_or_cg_cmp_rd_rs1_rs2_b21
0000ebff l       .data	00000000 I_or_cg_cmp_rd_rs1_rs2_b21_str
000042d0 l       .text.rvtest	00000000 I_or_cg_cmp_rd_rs1_rs2_b22
0000ec36 l       .data	00000000 I_or_cg_cmp_rd_rs1_rs2_b22_str
000042fc l       .text.rvtest	00000000 I_or_cg_cmp_rd_rs1_rs2_b23
0000ec6d l       .data	00000000 I_or_cg_cmp_rd_rs1_rs2_b23_str
00004328 l       .text.rvtest	00000000 I_or_cg_cmp_rd_rs1_rs2_b24
0000eca4 l       .data	00000000 I_or_cg_cmp_rd_rs1_rs2_b24_str
00004354 l       .text.rvtest	00000000 I_or_cg_cmp_rd_rs1_rs2_b25
0000ecdb l       .data	00000000 I_or_cg_cmp_rd_rs1_rs2_b25_str
00004380 l       .text.rvtest	00000000 I_or_cg_cmp_rd_rs1_rs2_b26
0000ed12 l       .data	00000000 I_or_cg_cmp_rd_rs1_rs2_b26_str
000043ac l       .text.rvtest	00000000 I_or_cg_cmp_rd_rs1_rs2_b27
0000ed49 l       .data	00000000 I_or_cg_cmp_rd_rs1_rs2_b27_str
000043d8 l       .text.rvtest	00000000 I_or_cg_cmp_rd_rs1_rs2_b28
0000ed80 l       .data	00000000 I_or_cg_cmp_rd_rs1_rs2_b28_str
00004404 l       .text.rvtest	00000000 I_or_cg_cmp_rd_rs1_rs2_b29
0000edb7 l       .data	00000000 I_or_cg_cmp_rd_rs1_rs2_b29_str
00004430 l       .text.rvtest	00000000 I_or_cg_cmp_rd_rs1_rs2_b30
0000edee l       .data	00000000 I_or_cg_cmp_rd_rs1_rs2_b30_str
0000445c l       .text.rvtest	00000000 I_or_cg_cmp_rd_rs1_rs2_b31
0000ee25 l       .data	00000000 I_or_cg_cmp_rd_rs1_rs2_b31_str
0000447c l       .text.rvtest	00000000 exit_cleanup
0000f4c4 l       .data	00000000 successstr
00020204 l       .text.rvmodel	00000000 rvmodel_io_write_str
00020208 l       .text.rvmodel	00000000 rvmodel_halt_pass
000044b0 l       .text.rvtest	00000000 abort_test
6f5ca309 l       *ABS*	00000000 immx
6f5ca309 l       *ABS*	00000000 absimm
00000000 l       *ABS*	00000000 cry
00000309 l       *ABS*	00000000 imm12
0000ee60 l       .data	00000000 begin_failure_scratch
00004580 l       .text.rvtest	00000000 failedtest_saveregs
00004524 l       .text.rvtest	00000000 failedtest_trap_x7_x9
0000efd0 l       .data	00000000 saved_mcause
0000efd8 l       .data	00000000 saved_mtval
0000efe0 l       .data	00000000 saved_mstatus
000045f0 l       .text.rvtest	00000000 failedtest_saveresults
0000ee60 l       .data	00000000 failure_type
0000466c l       .text.rvtest	00000000 failedtest_saveresults_trap
00004600 l       .text.rvtest	00000000 failedtest_saveresults_int
00004a40 l       .text.rvtest	00000000 failedtest_saveresults_common
0000efb8 l       .data	00000000 trap_diag_fail_str_ptr
0000f688 l       .data	00000000 trap_sig_offset_mismatch
00004920 l       .text.rvtest	00000000 trap_diag_offset_mismatch
0000ef90 l       .data	00000000 trap_diag_subtype
0000f6ec l       .data	00000000 sv_Mvect_str
000049a0 l       .text.rvtest	00000000 trap_diag_field_identified
0000f7ee l       .data	00000000 sv_Mcause_str
0000f8e9 l       .data	00000000 sv_Mepc_str
0000f9dc l       .data	00000000 sv_Mtval_str
0000fb4f l       .data	00000000 sv_Mip_str
0000fad3 l       .data	00000000 sv_Mtval2_str
0000fb11 l       .data	00000000 sv_Mtinst_str
0000f72c l       .data	00000000 sv_Svect_str
0000f82c l       .data	00000000 sv_Scause_str
0000f925 l       .data	00000000 sv_Sepc_str
0000fa19 l       .data	00000000 sv_Stval_str
0000fb8a l       .data	00000000 sv_Sip_str
0000f76c l       .data	00000000 sv_Hvect_str
0000f86a l       .data	00000000 sv_Hcause_str
0000f961 l       .data	00000000 sv_Hepc_str
0000fa56 l       .data	00000000 sv_Htval_str
0000fbc5 l       .data	00000000 sv_Hip_str
0000f7ad l       .data	00000000 sv_Vvect_str
0000f8a9 l       .data	00000000 sv_Vcause_str
0000f99e l       .data	00000000 sv_Vepc_str
0000fa94 l       .data	00000000 sv_Vtval_str
0000fc01 l       .data	00000000 sv_Vip_str
0000fc3e l       .data	00000000 Mclr_Mext_int_str
0000fc8d l       .data	00000000 Mclr_Sext_int_str
0000fd88 l       .data	00000000 Sclr_Sext_int_str
0000fe84 l       .data	00000000 Hclr_Sext_int_str
00004a30 l       .text.rvtest	00000000 trap_diag_generic_report
0000efa8 l       .data	00000000 trap_diag_actual_offset
0000efb0 l       .data	00000000 trap_diag_expected_offset
0000ef94 l       .data	00000000 trap_diag_mode
0000ef98 l       .data	00000000 trap_diag_actual_value
0000efa0 l       .data	00000000 trap_diag_expected_value
00004a70 l       .text.rvtest	00000000 failedtest_report
00004a70 l       .text.rvtest	00000000 print_failstr
0000f4f9 l       .data	00000000 failstr
00004aa8 l       .text.rvtest	00000000 print_testnamestr
0000f58b l       .data	00000000 testnamestr
00004ae8 l       .text.rvtest	00000000 print_failure_test_name_str
0000ef80 l       .data	00000000 failure_string_ptr
00004af8 l       .text.rvtest	00000000 print_newline_str
0000f59d l       .data	00000000 newlinestr
00004f2c l       .text.rvtest	00000000 failedtest_report_trap_detailed
0000f59f l       .data	00000000 inststr
0000ef60 l       .data	00000000 failing_instruction
00005e78 l       .text.rvtest	00000000 failedtest_hex_to_str
0000efe8 l       .data	00000000 ascii_buffer
0000f5b3 l       .data	00000000 addrstr
0000ef68 l       .data	00000000 failing_addr
00010030 l       .data	00000000 regstr
00004cd8 l       .text.rvtest	00000000 failedtest_report_not_intreg
0000ef64 l       .data	00000000 failing_reg
00005ef4 l       .text.rvtest	00000000 failedtest_dec_to_str
00004db4 l       .text.rvtest	00000000 failedtest_report_print_regstr
00004d2c l       .text.rvtest	00000000 failedtest_report_fpreg
00004d78 l       .text.rvtest	00000000 failedtest_report_vecreg
00010090 l       .data	00000000 fflagsstr
00004de8 l       .text.rvtest	00000000 failedtest_report_after_reg
00010041 l       .data	00000000 badvalstr
00004e4c l       .text.rvtest	00000000 failedtest_report_badval_not_fp
0000ef70 l       .data	00000000 failing_value
00004e5c l       .text.rvtest	00000000 failedtest_report_badval_done
00010058 l       .data	00000000 expvalstr
00004eec l       .text.rvtest	00000000 failedtest_report_expval_not_fp
0000ef78 l       .data	00000000 expected_value
00004efc l       .text.rvtest	00000000 failedtest_report_expval_done
00005c24 l       .text.rvtest	00000000 failedtest_report_end
000100bc l       .data	00000000 trap_diag_header_str
000100e8 l       .data	00000000 trap_diag_origstr_label
00005000 l       .text.rvtest	00000000 trap_report_offset_mismatch
00005ab0 l       .text.rvtest	00000000 trap_report_generic
00005374 l       .text.rvtest	00000000 trap_report_field_mismatch
000100f8 l       .data	00000000 trap_diag_count_mismatch_str
00010159 l       .data	00000000 trap_diag_expected_offset_str
00010180 l       .data	00000000 trap_diag_actual_offset_str
00005254 l       .text.rvtest	00000000 trap_report_missing_traps
0000513c l       .text.rvtest	00000000 trap_report_extra_traps
000101a7 l       .data	00000000 trap_diag_extra_traps_str
0001022c l       .data	00000000 trap_diag_extra_bytes_str
00010257 l       .data	00000000 trap_diag_extra_hint_str
00005c70 l       .text.rvtest	00000000 failedtest_print_csr_context
000101e1 l       .data	00000000 trap_diag_missing_traps_str
0001033f l       .data	00000000 trap_diag_missing_hint_str
00010426 l       .data	00000000 trap_diag_handler_mode_str
00005404 l       .text.rvtest	00000000 trap_mode_m
00005444 l       .text.rvtest	00000000 trap_mode_s
00005484 l       .text.rvtest	00000000 trap_mode_h
000054c4 l       .text.rvtest	00000000 trap_mode_v
00010462 l       .data	00000000 trap_diag_mode_unknown_str
00005500 l       .text.rvtest	00000000 trap_mode_print
00010440 l       .data	00000000 trap_diag_mode_m_str
00010448 l       .data	00000000 trap_diag_mode_s_str
00010450 l       .data	00000000 trap_diag_mode_hs_str
00010459 l       .data	00000000 trap_diag_mode_vs_str
0001046b l       .data	00000000 trap_diag_field_str
000055c4 l       .text.rvtest	00000000 trap_field_vect
00005604 l       .text.rvtest	00000000 trap_field_cause
00005644 l       .text.rvtest	00000000 trap_field_epc
00005684 l       .text.rvtest	00000000 trap_field_tval
000056c4 l       .text.rvtest	00000000 trap_field_ip
00005704 l       .text.rvtest	00000000 trap_field_tval2
00005744 l       .text.rvtest	00000000 trap_field_tinst
00005784 l       .text.rvtest	00000000 trap_field_intid
000105c2 l       .data	00000000 trap_diag_field_unknown_str
000057c0 l       .text.rvtest	00000000 trap_field_print
00010485 l       .data	00000000 trap_diag_field_vect_str
000104b6 l       .data	00000000 trap_diag_field_cause_str
000104d6 l       .data	00000000 trap_diag_field_epc_str
000104f4 l       .data	00000000 trap_diag_field_tval_str
00010513 l       .data	00000000 trap_diag_field_ip_str
0001053b l       .data	00000000 trap_diag_field_tval2_str
00010567 l       .data	00000000 trap_diag_field_tinst_str
00010593 l       .data	00000000 trap_diag_field_intid_str
000105d1 l       .data	00000000 trap_diag_expected_str
000105e8 l       .data	00000000 trap_diag_actual_str
0000595c l       .text.rvtest	00000000 trap_field_not_cause
000105ff l       .data	00000000 trap_diag_expected_cause_name_str
00005b94 l       .text.rvtest	00000000 trap_cause_to_str
00010616 l       .data	00000000 trap_diag_actual_cause_name_str
0000595c l       .text.rvtest	00000000 trap_field_not_epc
0001068c l       .data	00000000 trap_diag_hint_vect_str
00010762 l       .data	00000000 trap_diag_hint_cause_str
00010855 l       .data	00000000 trap_diag_hint_epc_str
00010950 l       .data	00000000 trap_diag_hint_tval_str
00010a37 l       .data	00000000 trap_diag_hint_ip_str
00010644 l       .data	00000000 trap_diag_generic_str
0000efc8 l       .data	00000000 saved_mepc
0000f627 l       .data	00000000 xepcinstrstr
00005bb8 l       .text.rvtest	00000000 trap_cause_interrupt
00005b98 l       .text.rvtest	00000000 trap_cause_exception
00005be4 l       .text.rvtest	00000000 trap_cause_unknown
0000f010 l       .data	00000000 trap_excpt_name_tbl
0000f070 l       .data	00000000 trap_int_name_tbl
0000f4ae l       .data	00000000 trap_cause_unknown_str
0001006f l       .data	00000000 endstr
00005c68 l       .text.rvtest	00000000 failedtest_terminate
00020214 l       .text.rvmodel	00000000 rvmodel_halt_fail
0000efc0 l       .data	00000000 csr_context_ret_addr
0000f648 l       .data	00000000 mepcstr
0000f658 l       .data	00000000 mcausestr
0000f668 l       .data	00000000 mtvalstr
0000f678 l       .data	00000000 mstatusstr
00005eb8 l       .text.rvtest	00000000 failedtest_hex_to_str_loop
00005ed4 l       .text.rvtest	00000000 failedtest_hex_to_str_digit
00005ed8 l       .text.rvtest	00000000 failedtest_hex_to_str_write
00020000 l       .text.rvmodel	00000000 rvtest_boot_to_mmode
00020000 l       .text.rvmodel	00000000 rvtest_init_regs
00010b20 l       .data	00000000 signature_base
000201a0 l       .text.rvmodel	00000000 canary_check
00010098 l       .data	00000000 canary_mismatch
00008000 l       .data	00000000 scratch
0000f010 l       .data	00000000 end_failure_scratch
0000f0b0 l       .data	00000000 trap_excpt_name_0
0000f0d0 l       .data	00000000 trap_excpt_name_1
0000f0ea l       .data	00000000 trap_excpt_name_2
0000f0ff l       .data	00000000 trap_excpt_name_3
0000f10b l       .data	00000000 trap_excpt_name_4
0000f124 l       .data	00000000 trap_excpt_name_5
0000f137 l       .data	00000000 trap_excpt_name_6
0000f155 l       .data	00000000 trap_excpt_name_7
0000f16d l       .data	00000000 trap_excpt_name_8
0000f18b l       .data	00000000 trap_excpt_name_9
0000f1a9 l       .data	00000000 trap_excpt_name_10
0000f1c8 l       .data	00000000 trap_excpt_name_11
0000f1e6 l       .data	00000000 trap_excpt_name_12
0000f1fe l       .data	00000000 trap_excpt_name_13
0000f20f l       .data	00000000 trap_excpt_name_14
0000f21e l       .data	00000000 trap_excpt_name_15
0000f234 l       .data	00000000 trap_excpt_name_16
0000f241 l       .data	00000000 trap_excpt_name_17
0000f250 l       .data	00000000 trap_excpt_name_18
0000f260 l       .data	00000000 trap_excpt_name_19
0000f270 l       .data	00000000 trap_excpt_name_20
0000f28e l       .data	00000000 trap_excpt_name_21
0000f2a5 l       .data	00000000 trap_excpt_name_22
0000f2ba l       .data	00000000 trap_excpt_name_23
0000f2d6 l       .data	00000000 trap_int_name_0
0000f2ee l       .data	00000000 trap_int_name_1
0000f30d l       .data	00000000 trap_int_name_2
0000f334 l       .data	00000000 trap_int_name_3
0000f350 l       .data	00000000 trap_int_name_4
0000f368 l       .data	00000000 trap_int_name_5
0000f384 l       .data	00000000 trap_int_name_6
0000f3a8 l       .data	00000000 trap_int_name_7
0000f3c1 l       .data	00000000 trap_int_name_8
0000f3d9 l       .data	00000000 trap_int_name_9
0000f3f8 l       .data	00000000 trap_int_name_10
0000f41f l       .data	00000000 trap_int_name_11
0000f43b l       .data	00000000 trap_int_name_12
0000f460 l       .data	00000000 trap_int_name_13
0000f47c l       .data	00000000 trap_int_name_14
0000f495 l       .data	00000000 trap_int_name_15
0000f54d l       .data	00000000 abortstr
0000f5f4 l       .data	00000000 xepcstr
0000fcdf l       .data	00000000 Mclr_Vext_int_str
0000fd39 l       .data	00000000 Sclr_Mext_int_str
0000fdda l       .data	00000000 Sclr_Vext_int_str
0000fe34 l       .data	00000000 Hclr_Mext_int_str
0000fed7 l       .data	00000000 Hclr_Vext_int_str
0000ff32 l       .data	00000000 Vclr_Mext_int_str
0000ff82 l       .data	00000000 Vclr_Sext_int_str
0000ffd5 l       .data	00000000 Vclr_Vext_int_str
0001062d l       .data	00000000 trap_diag_curr_xepc_str
00011170 l       .data	00000000 trap_sigptr
0001fbe0 g       .data	00000000 end_signature
0001fbe0 g       .data	00000000 rvtest_sig_end
00000000 g       .text.init	00000000 rvtest_entry_point
00010b20 g       .data	00000000 begin_signature
0000447c g       .text.rvtest	00000000 rvtest_code_end
00000040 g       .text.rvtest	00000000 rvtest_code_begin
00010b20 g       .data	00000000 rvtest_sig_begin
00008110 g       .data	00000000 rvtest_data_begin
00010b1c g       .data	00000000 rvtest_data_end
0000447c g       .text.rvtest	00000000 cleanup_epilogs
00021000 g       .text.rvmodel	00000000 _end



Disassembly of section .text.init:

00000000 <rvtest_entry_point>:

// Include framework macros
#include "riscv_arch_test.h"

// Set up test environment and declare main entry point
RVTEST_BEGIN
   0:	00020097          	auipc	x1,0x20
   4:	00008093          	addi	x1,x1,0 # 20000 <rvmodel_boot>
   8:	00000013          	addi	x0,x0,0
   c:	00000013          	addi	x0,x0,0
  10:	00000013          	addi	x0,x0,0
  14:	00000013          	addi	x0,x0,0
  18:	00000013          	addi	x0,x0,0
  1c:	00000013          	addi	x0,x0,0
  20:	000080e7          	jalr	x1,0(x1)
  24:	00000013          	addi	x0,x0,0
  28:	00000013          	addi	x0,x0,0
  2c:	00000013          	addi	x0,x0,0
  30:	00000013          	addi	x0,x0,0
  34:	00000013          	addi	x0,x0,0
  38:	00000013          	addi	x0,x0,0
  3c:	00000013          	addi	x0,x0,0

Disassembly of section .text.rvtest:

00000040 <rvtest_code_begin>:
/////////////////////////////////
// cp_rs1
/////////////////////////////////

# Testcase cp_rs1 (Test source rs1 = x0)
  RVTEST_TESTDATA_LOAD_INT(x3, x0) # load rs1: x0 = 0xcf873aea
      40:	0001a003          	lw	x0,0(x3)
      44:	00418193          	addi	x3,x3,4
  RVTEST_TESTDATA_LOAD_INT(x3, x6) # load rs2: x6 = 0x3828146d
      48:	0001a303          	lw	x6,0(x3)
      4c:	00418193          	addi	x3,x3,4

00000050 <I_or_cg_cp_rs1_b0>:
I_or_cg_cp_rs1_b0:
  or x22, x0, x6 # perform operation
      50:	00606b33          	or	x22,x0,x6
  # Check if x22 contains the expected result. x2 is the signature ptr, x5 is the link ptr, x4 is a temp reg.
  RVTEST_SIGUPD(x2, x5, x4, x22, I_or_cg_cp_rs1_b0, I_or_cg_cp_rs1_b0_str)
      54:	00012203          	lw	x4,0(x2)
      58:	01620863          	beq	x4,x22,68 <I_or_cg_cp_rs1_b0+0x18>
      5c:	460042ef          	jal	x5,44bc <failedtest_x5_x4>
      60:	00000050          	.word	0x00000050
      64:	00008d50          	.word	0x00008d50
      68:	00410113          	addi	x2,x2,4

# Testcase cp_rs1 (Test source rs1 = x1)
  RVTEST_TESTDATA_LOAD_INT(x3, x1) # load rs1: x1 = 0x7a81765d
      6c:	0001a083          	lw	x1,0(x3)
      70:	00418193          	addi	x3,x3,4
  RVTEST_TESTDATA_LOAD_INT(x3, x23) # load rs2: x23 = 0x23a17fb3
      74:	0001ab83          	lw	x23,0(x3)
      78:	00418193          	addi	x3,x3,4

0000007c <I_or_cg_cp_rs1_b1>:
I_or_cg_cp_rs1_b1:
  or x13, x1, x23 # perform operation
      7c:	0170e6b3          	or	x13,x1,x23
  # Check if x13 contains the expected result. x2 is the signature ptr, x5 is the link ptr, x4 is a temp reg.
  RVTEST_SIGUPD(x2, x5, x4, x13, I_or_cg_cp_rs1_b1, I_or_cg_cp_rs1_b1_str)
      80:	00012203          	lw	x4,0(x2)
      84:	00d20863          	beq	x4,x13,94 <I_or_cg_cp_rs1_b1+0x18>
      88:	434042ef          	jal	x5,44bc <failedtest_x5_x4>
      8c:	0000007c          	.word	0x0000007c
      90:	00008d7c          	.word	0x00008d7c
      94:	00410113          	addi	x2,x2,4

  mv x27, x2 # switch signature pointer register to avoid conflict with test
      98:	00010d93          	addi	x27,x2,0
# Testcase cp_rs1 (Test source rs1 = x2)
  RVTEST_TESTDATA_LOAD_INT(x3, x2) # load rs1: x2 = 0x11585c0b
      9c:	0001a103          	lw	x2,0(x3)
      a0:	00418193          	addi	x3,x3,4
  RVTEST_TESTDATA_LOAD_INT(x3, x8) # load rs2: x8 = 0x85fe3c92
      a4:	0001a403          	lw	x8,0(x3)
      a8:	00418193          	addi	x3,x3,4

000000ac <I_or_cg_cp_rs1_b2>:
I_or_cg_cp_rs1_b2:
  or x15, x2, x8 # perform operation
      ac:	008167b3          	or	x15,x2,x8
  # Check if x15 contains the expected result. x27 is the signature ptr, x5 is the link ptr, x4 is a temp reg.
  RVTEST_SIGUPD(x27, x5, x4, x15, I_or_cg_cp_rs1_b2, I_or_cg_cp_rs1_b2_str)
      b0:	000da203          	lw	x4,0(x27)
      b4:	00f20863          	beq	x4,x15,c4 <I_or_cg_cp_rs1_b2+0x18>
      b8:	404042ef          	jal	x5,44bc <failedtest_x5_x4>
      bc:	000000ac          	.word	0x000000ac
      c0:	00008da8          	.word	0x00008da8
      c4:	004d8d93          	addi	x27,x27,4

  mv x26, x3 # switch data pointer register to avoid conflict with test
      c8:	00018d13          	addi	x26,x3,0
# Testcase cp_rs1 (Test source rs1 = x3)
  RVTEST_TESTDATA_LOAD_INT(x26, x3) # load rs1: x3 = 0x570aeaa9
      cc:	000d2183          	lw	x3,0(x26)
      d0:	004d0d13          	addi	x26,x26,4
  RVTEST_TESTDATA_LOAD_INT(x26, x23) # load rs2: x23 = 0xea4de81c
      d4:	000d2b83          	lw	x23,0(x26)
      d8:	004d0d13          	addi	x26,x26,4

000000dc <I_or_cg_cp_rs1_b3>:
I_or_cg_cp_rs1_b3:
  or x17, x3, x23 # perform operation
      dc:	0171e8b3          	or	x17,x3,x23
  # Check if x17 contains the expected result. x27 is the signature ptr, x5 is the link ptr, x4 is a temp reg.
  RVTEST_SIGUPD(x27, x5, x4, x17, I_or_cg_cp_rs1_b3, I_or_cg_cp_rs1_b3_str)
      e0:	000da203          	lw	x4,0(x27)
      e4:	01120863          	beq	x4,x17,f4 <I_or_cg_cp_rs1_b3+0x18>
      e8:	3d4042ef          	jal	x5,44bc <failedtest_x5_x4>
      ec:	000000dc          	.word	0x000000dc
      f0:	00008dd4          	.word	0x00008dd4
      f4:	004d8d93          	addi	x27,x27,4

  mv x13, x4 # switch temp register to avoid conflict with test
      f8:	00020693          	addi	x13,x4,0 # 0 <rvtest_entry_point>
  mv x14, x5 # switch link pointer register to avoid conflict with test
      fc:	00028713          	addi	x14,x5,0
# Testcase cp_rs1 (Test source rs1 = x4)
  RVTEST_TESTDATA_LOAD_INT(x26, x4) # load rs1: x4 = 0x5d87b3b9
     100:	000d2203          	lw	x4,0(x26)
     104:	004d0d13          	addi	x26,x26,4
  RVTEST_TESTDATA_LOAD_INT(x26, x31) # load rs2: x31 = 0x96e6e961
     108:	000d2f83          	lw	x31,0(x26)
     10c:	004d0d13          	addi	x26,x26,4

00000110 <I_or_cg_cp_rs1_b4>:
I_or_cg_cp_rs1_b4:
  or x12, x4, x31 # perform operation
     110:	01f26633          	or	x12,x4,x31
  # Check if x12 contains the expected result. x27 is the signature ptr, x14 is the link ptr, x13 is a temp reg.
  RVTEST_SIGUPD(x27, x14, x13, x12, I_or_cg_cp_rs1_b4, I_or_cg_cp_rs1_b4_str)
     114:	000da683          	lw	x13,0(x27)
     118:	00c68863          	beq	x13,x12,128 <I_or_cg_cp_rs1_b4+0x18>
     11c:	3e00476f          	jal	x14,44fc <failedtest_x14_x13>
     120:	00000110          	.word	0x00000110
     124:	00008e00          	.word	0x00008e00
     128:	004d8d93          	addi	x27,x27,4

# Testcase cp_rs1 (Test source rs1 = x5)
  RVTEST_TESTDATA_LOAD_INT(x26, x5) # load rs1: x5 = 0x3395aa2e
     12c:	000d2283          	lw	x5,0(x26)
     130:	004d0d13          	addi	x26,x26,4
  RVTEST_TESTDATA_LOAD_INT(x26, x22) # load rs2: x22 = 0x8564e24a
     134:	000d2b03          	lw	x22,0(x26)
     138:	004d0d13          	addi	x26,x26,4

0000013c <I_or_cg_cp_rs1_b5>:
I_or_cg_cp_rs1_b5:
  or x24, x5, x22 # perform operation
     13c:	0162ec33          	or	x24,x5,x22
  # Check if x24 contains the expected result. x27 is the signature ptr, x14 is the link ptr, x13 is a temp reg.
  RVTEST_SIGUPD(x27, x14, x13, x24, I_or_cg_cp_rs1_b5, I_or_cg_cp_rs1_b5_str)
     140:	000da683          	lw	x13,0(x27)
     144:	01868863          	beq	x13,x24,154 <I_or_cg_cp_rs1_b5+0x18>
     148:	3b40476f          	jal	x14,44fc <failedtest_x14_x13>
     14c:	0000013c          	.word	0x0000013c
     150:	00008e2c          	.word	0x00008e2c
     154:	004d8d93          	addi	x27,x27,4

# Testcase cp_rs1 (Test source rs1 = x6)
  RVTEST_TESTDATA_LOAD_INT(x26, x6) # load rs1: x6 = 0x42d6eeb2
     158:	000d2303          	lw	x6,0(x26)
     15c:	004d0d13          	addi	x26,x26,4
  RVTEST_TESTDATA_LOAD_INT(x26, x20) # load rs2: x20 = 0x67700fe2
     160:	000d2a03          	lw	x20,0(x26)
     164:	004d0d13          	addi	x26,x26,4

00000168 <I_or_cg_cp_rs1_b6>:
I_or_cg_cp_rs1_b6:
  or x25, x6, x20 # perform operation
     168:	01436cb3          	or	x25,x6,x20
  # Check if x25 contains the expected result. x27 is the signature ptr, x14 is the link ptr, x13 is a temp reg.
  RVTEST_SIGUPD(x27, x14, x13, x25, I_or_cg_cp_rs1_b6, I_or_cg_cp_rs1_b6_str)
     16c:	000da683          	lw	x13,0(x27)
     170:	01968863          	beq	x13,x25,180 <I_or_cg_cp_rs1_b6+0x18>
     174:	3880476f          	jal	x14,44fc <failedtest_x14_x13>
     178:	00000168          	.word	0x00000168
     17c:	00008e58          	.word	0x00008e58
     180:	004d8d93          	addi	x27,x27,4

# Testcase cp_rs1 (Test source rs1 = x7)
  RVTEST_TESTDATA_LOAD_INT(x26, x7) # load rs1: x7 = 0x8ea90643
     184:	000d2383          	lw	x7,0(x26)
     188:	004d0d13          	addi	x26,x26,4
  RVTEST_TESTDATA_LOAD_INT(x26, x10) # load rs2: x10 = 0x0d6c16a0
     18c:	000d2503          	lw	x10,0(x26)
     190:	004d0d13          	addi	x26,x26,4

00000194 <I_or_cg_cp_rs1_b7>:
I_or_cg_cp_rs1_b7:
  or x15, x7, x10 # perform operation
     194:	00a3e7b3          	or	x15,x7,x10
  # Check if x15 contains the expected result. x27 is the signature ptr, x14 is the link ptr, x13 is a temp reg.
  RVTEST_SIGUPD(x27, x14, x13, x15, I_or_cg_cp_rs1_b7, I_or_cg_cp_rs1_b7_str)
     198:	000da683          	lw	x13,0(x27)
     19c:	00f68863          	beq	x13,x15,1ac <I_or_cg_cp_rs1_b7+0x18>
     1a0:	35c0476f          	jal	x14,44fc <failedtest_x14_x13>
     1a4:	00000194          	.word	0x00000194
     1a8:	00008e84          	.word	0x00008e84
     1ac:	004d8d93          	addi	x27,x27,4

# Testcase cp_rs1 (Test source rs1 = x8)
  RVTEST_TESTDATA_LOAD_INT(x26, x8) # load rs1: x8 = 0x3a7ea037
     1b0:	000d2403          	lw	x8,0(x26)
     1b4:	004d0d13          	addi	x26,x26,4
  RVTEST_TESTDATA_LOAD_INT(x26, x0) # load rs2: x0 = 0xb274a85a
     1b8:	000d2003          	lw	x0,0(x26)
     1bc:	004d0d13          	addi	x26,x26,4

000001c0 <I_or_cg_cp_rs1_b8>:
I_or_cg_cp_rs1_b8:
  or x21, x8, x0 # perform operation
     1c0:	00046ab3          	or	x21,x8,x0
  # Check if x21 contains the expected result. x27 is the signature ptr, x14 is the link ptr, x13 is a temp reg.
  RVTEST_SIGUPD(x27, x14, x13, x21, I_or_cg_cp_rs1_b8, I_or_cg_cp_rs1_b8_str)
     1c4:	000da683          	lw	x13,0(x27)
     1c8:	01568863          	beq	x13,x21,1d8 <I_or_cg_cp_rs1_b8+0x18>
     1cc:	3300476f          	jal	x14,44fc <failedtest_x14_x13>
     1d0:	000001c0          	.word	0x000001c0
     1d4:	00008eb0          	.word	0x00008eb0
     1d8:	004d8d93          	addi	x27,x27,4

# Testcase cp_rs1 (Test source rs1 = x9)
  RVTEST_TESTDATA_LOAD_INT(x26, x9) # load rs1: x9 = 0x8e4c6930
     1dc:	000d2483          	lw	x9,0(x26)
     1e0:	004d0d13          	addi	x26,x26,4
  RVTEST_TESTDATA_LOAD_INT(x26, x16) # load rs2: x16 = 0xec909a43
     1e4:	000d2803          	lw	x16,0(x26)
     1e8:	004d0d13          	addi	x26,x26,4

000001ec <I_or_cg_cp_rs1_b9>:
I_or_cg_cp_rs1_b9:
  or x2, x9, x16 # perform operation
     1ec:	0104e133          	or	x2,x9,x16
  # Check if x2 contains the expected result. x27 is the signature ptr, x14 is the link ptr, x13 is a temp reg.
  RVTEST_SIGUPD(x27, x14, x13, x2, I_or_cg_cp_rs1_b9, I_or_cg_cp_rs1_b9_str)
     1f0:	000da683          	lw	x13,0(x27)
     1f4:	00268863          	beq	x13,x2,204 <I_or_cg_cp_rs1_b9+0x18>
     1f8:	3040476f          	jal	x14,44fc <failedtest_x14_x13>
     1fc:	000001ec          	.word	0x000001ec
     200:	00008edc          	.word	0x00008edc
     204:	004d8d93          	addi	x27,x27,4

# Testcase cp_rs1 (Test source rs1 = x10)
  RVTEST_TESTDATA_LOAD_INT(x26, x10) # load rs1: x10 = 0xc7bf5b80
     208:	000d2503          	lw	x10,0(x26)
     20c:	004d0d13          	addi	x26,x26,4
  RVTEST_TESTDATA_LOAD_INT(x26, x2) # load rs2: x2 = 0x69915cd7
     210:	000d2103          	lw	x2,0(x26)
     214:	004d0d13          	addi	x26,x26,4

00000218 <I_or_cg_cp_rs1_b10>:
I_or_cg_cp_rs1_b10:
  or x21, x10, x2 # perform operation
     218:	00256ab3          	or	x21,x10,x2
  # Check if x21 contains the expected result. x27 is the signature ptr, x14 is the link ptr, x13 is a temp reg.
  RVTEST_SIGUPD(x27, x14, x13, x21, I_or_cg_cp_rs1_b10, I_or_cg_cp_rs1_b10_str)
     21c:	000da683          	lw	x13,0(x27)
     220:	01568863          	beq	x13,x21,230 <I_or_cg_cp_rs1_b10+0x18>
     224:	2d80476f          	jal	x14,44fc <failedtest_x14_x13>
     228:	00000218          	.word	0x00000218
     22c:	00008f09          	.word	0x00008f09
     230:	004d8d93          	addi	x27,x27,4

# Testcase cp_rs1 (Test source rs1 = x11)
  RVTEST_TESTDATA_LOAD_INT(x26, x11) # load rs1: x11 = 0xecd79a88
     234:	000d2583          	lw	x11,0(x26)
     238:	004d0d13          	addi	x26,x26,4
  RVTEST_TESTDATA_LOAD_INT(x26, x16) # load rs2: x16 = 0x13e9dee4
     23c:	000d2803          	lw	x16,0(x26)
     240:	004d0d13          	addi	x26,x26,4

00000244 <I_or_cg_cp_rs1_b11>:
I_or_cg_cp_rs1_b11:
  or x22, x11, x16 # perform operation
     244:	0105eb33          	or	x22,x11,x16
  # Check if x22 contains the expected result. x27 is the signature ptr, x14 is the link ptr, x13 is a temp reg.
  RVTEST_SIGUPD(x27, x14, x13, x22, I_or_cg_cp_rs1_b11, I_or_cg_cp_rs1_b11_str)
     248:	000da683          	lw	x13,0(x27)
     24c:	01668863          	beq	x13,x22,25c <I_or_cg_cp_rs1_b11+0x18>
     250:	2ac0476f          	jal	x14,44fc <failedtest_x14_x13>
     254:	00000244          	.word	0x00000244
     258:	00008f37          	.word	0x00008f37
     25c:	004d8d93          	addi	x27,x27,4

# Testcase cp_rs1 (Test source rs1 = x12)
  RVTEST_TESTDATA_LOAD_INT(x26, x12) # load rs1: x12 = 0x22388f7a
     260:	000d2603          	lw	x12,0(x26)
     264:	004d0d13          	addi	x26,x26,4
  RVTEST_TESTDATA_LOAD_INT(x26, x15) # load rs2: x15 = 0x3ea6556b
     268:	000d2783          	lw	x15,0(x26)
     26c:	004d0d13          	addi	x26,x26,4

00000270 <I_or_cg_cp_rs1_b12>:
I_or_cg_cp_rs1_b12:
  or x5, x12, x15 # perform operation
     270:	00f662b3          	or	x5,x12,x15
  # Check if x5 contains the expected result. x27 is the signature ptr, x14 is the link ptr, x13 is a temp reg.
  RVTEST_SIGUPD(x27, x14, x13, x5, I_or_cg_cp_rs1_b12, I_or_cg_cp_rs1_b12_str)
     274:	000da683          	lw	x13,0(x27)
     278:	00568863          	beq	x13,x5,288 <I_or_cg_cp_rs1_b12+0x18>
     27c:	2800476f          	jal	x14,44fc <failedtest_x14_x13>
     280:	00000270          	.word	0x00000270
     284:	00008f65          	.word	0x00008f65
     288:	004d8d93          	addi	x27,x27,4

  mv x4, x13 # switch temp register to avoid conflict with test
     28c:	00068213          	addi	x4,x13,0
  mv x5, x14 # switch link pointer register to avoid conflict with test
     290:	00070293          	addi	x5,x14,0
# Testcase cp_rs1 (Test source rs1 = x13)
  RVTEST_TESTDATA_LOAD_INT(x26, x13) # load rs1: x13 = 0xdbc6102f
     294:	000d2683          	lw	x13,0(x26)
     298:	004d0d13          	addi	x26,x26,4
  RVTEST_TESTDATA_LOAD_INT(x26, x11) # load rs2: x11 = 0x991ea306
     29c:	000d2583          	lw	x11,0(x26)
     2a0:	004d0d13          	addi	x26,x26,4

000002a4 <I_or_cg_cp_rs1_b13>:
I_or_cg_cp_rs1_b13:
  or x15, x13, x11 # perform operation
     2a4:	00b6e7b3          	or	x15,x13,x11
  # Check if x15 contains the expected result. x27 is the signature ptr, x5 is the link ptr, x4 is a temp reg.
  RVTEST_SIGUPD(x27, x5, x4, x15, I_or_cg_cp_rs1_b13, I_or_cg_cp_rs1_b13_str)
     2a8:	000da203          	lw	x4,0(x27)
     2ac:	00f20863          	beq	x4,x15,2bc <I_or_cg_cp_rs1_b13+0x18>
     2b0:	20c042ef          	jal	x5,44bc <failedtest_x5_x4>
     2b4:	000002a4          	.word	0x000002a4
     2b8:	00008f93          	.word	0x00008f93
     2bc:	004d8d93          	addi	x27,x27,4

# Testcase cp_rs1 (Test source rs1 = x14)
  RVTEST_TESTDATA_LOAD_INT(x26, x14) # load rs1: x14 = 0x3a06e15f
     2c0:	000d2703          	lw	x14,0(x26)
     2c4:	004d0d13          	addi	x26,x26,4
  RVTEST_TESTDATA_LOAD_INT(x26, x3) # load rs2: x3 = 0xc6d1efc2
     2c8:	000d2183          	lw	x3,0(x26)
     2cc:	004d0d13          	addi	x26,x26,4

000002d0 <I_or_cg_cp_rs1_b14>:
I_or_cg_cp_rs1_b14:
  or x20, x14, x3 # perform operation
     2d0:	00376a33          	or	x20,x14,x3
  # Check if x20 contains the expected result. x27 is the signature ptr, x5 is the link ptr, x4 is a temp reg.
  RVTEST_SIGUPD(x27, x5, x4, x20, I_or_cg_cp_rs1_b14, I_or_cg_cp_rs1_b14_str)
     2d4:	000da203          	lw	x4,0(x27)
     2d8:	01420863          	beq	x4,x20,2e8 <I_or_cg_cp_rs1_b14+0x18>
     2dc:	1e0042ef          	jal	x5,44bc <failedtest_x5_x4>
     2e0:	000002d0          	.word	0x000002d0
     2e4:	00008fc1          	.word	0x00008fc1
     2e8:	004d8d93          	addi	x27,x27,4

# Testcase cp_rs1 (Test source rs1 = x15)
  RVTEST_TESTDATA_LOAD_INT(x26, x15) # load rs1: x15 = 0x0d114205
     2ec:	000d2783          	lw	x15,0(x26)
     2f0:	004d0d13          	addi	x26,x26,4
  RVTEST_TESTDATA_LOAD_INT(x26, x20) # load rs2: x20 = 0x65ec99bb
     2f4:	000d2a03          	lw	x20,0(x26)
     2f8:	004d0d13          	addi	x26,x26,4

000002fc <I_or_cg_cp_rs1_b15>:
I_or_cg_cp_rs1_b15:
  or x6, x15, x20 # perform operation
     2fc:	0147e333          	or	x6,x15,x20
  # Check if x6 contains the expected result. x27 is the signature ptr, x5 is the link ptr, x4 is a temp reg.
  RVTEST_SIGUPD(x27, x5, x4, x6, I_or_cg_cp_rs1_b15, I_or_cg_cp_rs1_b15_str)
     300:	000da203          	lw	x4,0(x27)
     304:	00620863          	beq	x4,x6,314 <imm12+0xb>
     308:	1b4042ef          	jal	x5,44bc <failedtest_x5_x4>
     30c:	000002fc          	.word	0x000002fc
     310:	00008fef          	.word	0x00008fef
     314:	004d8d93          	addi	x27,x27,4

# Testcase cp_rs1 (Test source rs1 = x16)
  RVTEST_TESTDATA_LOAD_INT(x26, x16) # load rs1: x16 = 0xc6fcca10
     318:	000d2803          	lw	x16,0(x26)
     31c:	004d0d13          	addi	x26,x26,4
  RVTEST_TESTDATA_LOAD_INT(x26, x18) # load rs2: x18 = 0x25554ad0
     320:	000d2903          	lw	x18,0(x26)
     324:	004d0d13          	addi	x26,x26,4

00000328 <I_or_cg_cp_rs1_b16>:
I_or_cg_cp_rs1_b16:
  or x31, x16, x18 # perform operation
     328:	01286fb3          	or	x31,x16,x18
  # Check if x31 contains the expected result. x27 is the signature ptr, x5 is the link ptr, x4 is a temp reg.
  RVTEST_SIGUPD(x27, x5, x4, x31, I_or_cg_cp_rs1_b16, I_or_cg_cp_rs1_b16_str)
     32c:	000da203          	lw	x4,0(x27)
     330:	01f20863          	beq	x4,x31,340 <I_or_cg_cp_rs1_b16+0x18>
     334:	188042ef          	jal	x5,44bc <failedtest_x5_x4>
     338:	00000328          	.word	0x00000328
     33c:	0000901d          	.word	0x0000901d
     340:	004d8d93          	addi	x27,x27,4

# Testcase cp_rs1 (Test source rs1 = x17)
  RVTEST_TESTDATA_LOAD_INT(x26, x17) # load rs1: x17 = 0xcd019d53
     344:	000d2883          	lw	x17,0(x26)
     348:	004d0d13          	addi	x26,x26,4
  RVTEST_TESTDATA_LOAD_INT(x26, x11) # load rs2: x11 = 0x7780d9cf
     34c:	000d2583          	lw	x11,0(x26)
     350:	004d0d13          	addi	x26,x26,4

00000354 <I_or_cg_cp_rs1_b17>:
I_or_cg_cp_rs1_b17:
  or x12, x17, x11 # perform operation
     354:	00b8e633          	or	x12,x17,x11
  # Check if x12 contains the expected result. x27 is the signature ptr, x5 is the link ptr, x4 is a temp reg.
  RVTEST_SIGUPD(x27, x5, x4, x12, I_or_cg_cp_rs1_b17, I_or_cg_cp_rs1_b17_str)
     358:	000da203          	lw	x4,0(x27)
     35c:	00c20863          	beq	x4,x12,36c <I_or_cg_cp_rs1_b17+0x18>
     360:	15c042ef          	jal	x5,44bc <failedtest_x5_x4>
     364:	00000354          	.word	0x00000354
     368:	0000904b          	.word	0x0000904b
     36c:	004d8d93          	addi	x27,x27,4

# Testcase cp_rs1 (Test source rs1 = x18)
  RVTEST_TESTDATA_LOAD_INT(x26, x18) # load rs1: x18 = 0x561b6ccc
     370:	000d2903          	lw	x18,0(x26)
     374:	004d0d13          	addi	x26,x26,4
  RVTEST_TESTDATA_LOAD_INT(x26, x3) # load rs2: x3 = 0xdd1a5dff
     378:	000d2183          	lw	x3,0(x26)
     37c:	004d0d13          	addi	x26,x26,4

00000380 <I_or_cg_cp_rs1_b18>:
I_or_cg_cp_rs1_b18:
  or x20, x18, x3 # perform operation
     380:	00396a33          	or	x20,x18,x3
  # Check if x20 contains the expected result. x27 is the signature ptr, x5 is the link ptr, x4 is a temp reg.
  RVTEST_SIGUPD(x27, x5, x4, x20, I_or_cg_cp_rs1_b18, I_or_cg_cp_rs1_b18_str)
     384:	000da203          	lw	x4,0(x27)
     388:	01420863          	beq	x4,x20,398 <I_or_cg_cp_rs1_b18+0x18>
     38c:	130042ef          	jal	x5,44bc <failedtest_x5_x4>
     390:	00000380          	.word	0x00000380
     394:	00009079          	.word	0x00009079
     398:	004d8d93          	addi	x27,x27,4

# Testcase cp_rs1 (Test source rs1 = x19)
  RVTEST_TESTDATA_LOAD_INT(x26, x19) # load rs1: x19 = 0x25bb15f3
     39c:	000d2983          	lw	x19,0(x26)
     3a0:	004d0d13          	addi	x26,x26,4
  RVTEST_TESTDATA_LOAD_INT(x26, x23) # load rs2: x23 = 0xb75dd76f
     3a4:	000d2b83          	lw	x23,0(x26)
     3a8:	004d0d13          	addi	x26,x26,4

000003ac <I_or_cg_cp_rs1_b19>:
I_or_cg_cp_rs1_b19:
  or x20, x19, x23 # perform operation
     3ac:	0179ea33          	or	x20,x19,x23
  # Check if x20 contains the expected result. x27 is the signature ptr, x5 is the link ptr, x4 is a temp reg.
  RVTEST_SIGUPD(x27, x5, x4, x20, I_or_cg_cp_rs1_b19, I_or_cg_cp_rs1_b19_str)
     3b0:	000da203          	lw	x4,0(x27)
     3b4:	01420863          	beq	x4,x20,3c4 <I_or_cg_cp_rs1_b19+0x18>
     3b8:	104042ef          	jal	x5,44bc <failedtest_x5_x4>
     3bc:	000003ac          	.word	0x000003ac
     3c0:	000090a7          	.word	0x000090a7
     3c4:	004d8d93          	addi	x27,x27,4

# Testcase cp_rs1 (Test source rs1 = x20)
  RVTEST_TESTDATA_LOAD_INT(x26, x20) # load rs1: x20 = 0x754540bb
     3c8:	000d2a03          	lw	x20,0(x26)
     3cc:	004d0d13          	addi	x26,x26,4
  RVTEST_TESTDATA_LOAD_INT(x26, x1) # load rs2: x1 = 0xb0f01411
     3d0:	000d2083          	lw	x1,0(x26)
     3d4:	004d0d13          	addi	x26,x26,4

000003d8 <I_or_cg_cp_rs1_b20>:
I_or_cg_cp_rs1_b20:
  or x2, x20, x1 # perform operation
     3d8:	001a6133          	or	x2,x20,x1
  # Check if x2 contains the expected result. x27 is the signature ptr, x5 is the link ptr, x4 is a temp reg.
  RVTEST_SIGUPD(x27, x5, x4, x2, I_or_cg_cp_rs1_b20, I_or_cg_cp_rs1_b20_str)
     3dc:	000da203          	lw	x4,0(x27)
     3e0:	00220863          	beq	x4,x2,3f0 <I_or_cg_cp_rs1_b20+0x18>
     3e4:	0d8042ef          	jal	x5,44bc <failedtest_x5_x4>
     3e8:	000003d8          	.word	0x000003d8
     3ec:	000090d5          	.word	0x000090d5
     3f0:	004d8d93          	addi	x27,x27,4

# Testcase cp_rs1 (Test source rs1 = x21)
  RVTEST_TESTDATA_LOAD_INT(x26, x21) # load rs1: x21 = 0x23f1c987
     3f4:	000d2a83          	lw	x21,0(x26)
     3f8:	004d0d13          	addi	x26,x26,4
  RVTEST_TESTDATA_LOAD_INT(x26, x17) # load rs2: x17 = 0x35899b84
     3fc:	000d2883          	lw	x17,0(x26)
     400:	004d0d13          	addi	x26,x26,4

00000404 <I_or_cg_cp_rs1_b21>:
I_or_cg_cp_rs1_b21:
  or x28, x21, x17 # perform operation
     404:	011aee33          	or	x28,x21,x17
  # Check if x28 contains the expected result. x27 is the signature ptr, x5 is the link ptr, x4 is a temp reg.
  RVTEST_SIGUPD(x27, x5, x4, x28, I_or_cg_cp_rs1_b21, I_or_cg_cp_rs1_b21_str)
     408:	000da203          	lw	x4,0(x27)
     40c:	01c20863          	beq	x4,x28,41c <I_or_cg_cp_rs1_b21+0x18>
     410:	0ac042ef          	jal	x5,44bc <failedtest_x5_x4>
     414:	00000404          	.word	0x00000404
     418:	00009103          	.word	0x00009103
     41c:	004d8d93          	addi	x27,x27,4

# Testcase cp_rs1 (Test source rs1 = x22)
  RVTEST_TESTDATA_LOAD_INT(x26, x22) # load rs1: x22 = 0xd2550d77
     420:	000d2b03          	lw	x22,0(x26)
     424:	004d0d13          	addi	x26,x26,4
  RVTEST_TESTDATA_LOAD_INT(x26, x3) # load rs2: x3 = 0x510d0538
     428:	000d2183          	lw	x3,0(x26)
     42c:	004d0d13          	addi	x26,x26,4

00000430 <I_or_cg_cp_rs1_b22>:
I_or_cg_cp_rs1_b22:
  or x20, x22, x3 # perform operation
     430:	003b6a33          	or	x20,x22,x3
  # Check if x20 contains the expected result. x27 is the signature ptr, x5 is the link ptr, x4 is a temp reg.
  RVTEST_SIGUPD(x27, x5, x4, x20, I_or_cg_cp_rs1_b22, I_or_cg_cp_rs1_b22_str)
     434:	000da203          	lw	x4,0(x27)
     438:	01420863          	beq	x4,x20,448 <I_or_cg_cp_rs1_b22+0x18>
     43c:	080042ef          	jal	x5,44bc <failedtest_x5_x4>
     440:	00000430          	.word	0x00000430
     444:	00009131          	.word	0x00009131
     448:	004d8d93          	addi	x27,x27,4

# Testcase cp_rs1 (Test source rs1 = x23)
  RVTEST_TESTDATA_LOAD_INT(x26, x23) # load rs1: x23 = 0x7ecc6491
     44c:	000d2b83          	lw	x23,0(x26)
     450:	004d0d13          	addi	x26,x26,4
  RVTEST_TESTDATA_LOAD_INT(x26, x30) # load rs2: x30 = 0x25be2455
     454:	000d2f03          	lw	x30,0(x26)
     458:	004d0d13          	addi	x26,x26,4

0000045c <I_or_cg_cp_rs1_b23>:
I_or_cg_cp_rs1_b23:
  or x8, x23, x30 # perform operation
     45c:	01ebe433          	or	x8,x23,x30
  # Check if x8 contains the expected result. x27 is the signature ptr, x5 is the link ptr, x4 is a temp reg.
  RVTEST_SIGUPD(x27, x5, x4, x8, I_or_cg_cp_rs1_b23, I_or_cg_cp_rs1_b23_str)
     460:	000da203          	lw	x4,0(x27)
     464:	00820863          	beq	x4,x8,474 <I_or_cg_cp_rs1_b23+0x18>
     468:	054042ef          	jal	x5,44bc <failedtest_x5_x4>
     46c:	0000045c          	.word	0x0000045c
     470:	0000915f          	.word	0x0000915f
     474:	004d8d93          	addi	x27,x27,4

# Testcase cp_rs1 (Test source rs1 = x24)
  RVTEST_TESTDATA_LOAD_INT(x26, x24) # load rs1: x24 = 0xdb728da2
     478:	000d2c03          	lw	x24,0(x26)
     47c:	004d0d13          	addi	x26,x26,4
  RVTEST_TESTDATA_LOAD_INT(x26, x3) # load rs2: x3 = 0xd532ab3e
     480:	000d2183          	lw	x3,0(x26)
     484:	004d0d13          	addi	x26,x26,4

00000488 <I_or_cg_cp_rs1_b24>:
I_or_cg_cp_rs1_b24:
  or x19, x24, x3 # perform operation
     488:	003c69b3          	or	x19,x24,x3
  # Check if x19 contains the expected result. x27 is the signature ptr, x5 is the link ptr, x4 is a temp reg.
  RVTEST_SIGUPD(x27, x5, x4, x19, I_or_cg_cp_rs1_b24, I_or_cg_cp_rs1_b24_str)
     48c:	000da203          	lw	x4,0(x27)
     490:	01320863          	beq	x4,x19,4a0 <I_or_cg_cp_rs1_b24+0x18>
     494:	028042ef          	jal	x5,44bc <failedtest_x5_x4>
     498:	00000488          	.word	0x00000488
     49c:	0000918d          	.word	0x0000918d
     4a0:	004d8d93          	addi	x27,x27,4

# Testcase cp_rs1 (Test source rs1 = x25)
  RVTEST_TESTDATA_LOAD_INT(x26, x25) # load rs1: x25 = 0xb8fa217f
     4a4:	000d2c83          	lw	x25,0(x26)
     4a8:	004d0d13          	addi	x26,x26,4
  RVTEST_TESTDATA_LOAD_INT(x26, x6) # load rs2: x6 = 0x06f4e471
     4ac:	000d2303          	lw	x6,0(x26)
     4b0:	004d0d13          	addi	x26,x26,4

000004b4 <I_or_cg_cp_rs1_b25>:
I_or_cg_cp_rs1_b25:
  or x10, x25, x6 # perform operation
     4b4:	006ce533          	or	x10,x25,x6
  # Check if x10 contains the expected result. x27 is the signature ptr, x5 is the link ptr, x4 is a temp reg.
  RVTEST_SIGUPD(x27, x5, x4, x10, I_or_cg_cp_rs1_b25, I_or_cg_cp_rs1_b25_str)
     4b8:	000da203          	lw	x4,0(x27)
     4bc:	00a20863          	beq	x4,x10,4cc <I_or_cg_cp_rs1_b25+0x18>
     4c0:	7fd032ef          	jal	x5,44bc <failedtest_x5_x4>
     4c4:	000004b4          	.word	0x000004b4
     4c8:	000091bb          	.word	0x000091bb
     4cc:	004d8d93          	addi	x27,x27,4

  mv x25, x26 # switch data pointer register to avoid conflict with test
     4d0:	000d0c93          	addi	x25,x26,0
# Testcase cp_rs1 (Test source rs1 = x26)
  RVTEST_TESTDATA_LOAD_INT(x25, x26) # load rs1: x26 = 0xd3deec64
     4d4:	000cad03          	lw	x26,0(x25)
     4d8:	004c8c93          	addi	x25,x25,4
  RVTEST_TESTDATA_LOAD_INT(x25, x17) # load rs2: x17 = 0xc93ce1b3
     4dc:	000ca883          	lw	x17,0(x25)
     4e0:	004c8c93          	addi	x25,x25,4

000004e4 <I_or_cg_cp_rs1_b26>:
I_or_cg_cp_rs1_b26:
  or x11, x26, x17 # perform operation
     4e4:	011d65b3          	or	x11,x26,x17
  # Check if x11 contains the expected result. x27 is the signature ptr, x5 is the link ptr, x4 is a temp reg.
  RVTEST_SIGUPD(x27, x5, x4, x11, I_or_cg_cp_rs1_b26, I_or_cg_cp_rs1_b26_str)
     4e8:	000da203          	lw	x4,0(x27)
     4ec:	00b20863          	beq	x4,x11,4fc <I_or_cg_cp_rs1_b26+0x18>
     4f0:	7cd032ef          	jal	x5,44bc <failedtest_x5_x4>
     4f4:	000004e4          	.word	0x000004e4
     4f8:	000091e9          	.word	0x000091e9
     4fc:	004d8d93          	addi	x27,x27,4

  mv x1, x27 # switch signature pointer register to avoid conflict with test
     500:	000d8093          	addi	x1,x27,0
# Testcase cp_rs1 (Test source rs1 = x27)
  RVTEST_TESTDATA_LOAD_INT(x25, x27) # load rs1: x27 = 0x555f0d2a
     504:	000cad83          	lw	x27,0(x25)
     508:	004c8c93          	addi	x25,x25,4
  RVTEST_TESTDATA_LOAD_INT(x25, x17) # load rs2: x17 = 0x7ae6e9b5
     50c:	000ca883          	lw	x17,0(x25)
     510:	004c8c93          	addi	x25,x25,4

00000514 <I_or_cg_cp_rs1_b27>:
I_or_cg_cp_rs1_b27:
  or x21, x27, x17 # perform operation
     514:	011deab3          	or	x21,x27,x17
  # Check if x21 contains the expected result. x1 is the signature ptr, x5 is the link ptr, x4 is a temp reg.
  RVTEST_SIGUPD(x1, x5, x4, x21, I_or_cg_cp_rs1_b27, I_or_cg_cp_rs1_b27_str)
     518:	0000a203          	lw	x4,0(x1)
     51c:	01520863          	beq	x4,x21,52c <I_or_cg_cp_rs1_b27+0x18>
     520:	79d032ef          	jal	x5,44bc <failedtest_x5_x4>
     524:	00000514          	.word	0x00000514
     528:	00009217          	.word	0x00009217
     52c:	00408093          	addi	x1,x1,4

# Testcase cp_rs1 (Test source rs1 = x28)
  RVTEST_TESTDATA_LOAD_INT(x25, x28) # load rs1: x28 = 0x964b6fc0
     530:	000cae03          	lw	x28,0(x25)
     534:	004c8c93          	addi	x25,x25,4
  RVTEST_TESTDATA_LOAD_INT(x25, x14) # load rs2: x14 = 0x59ab34ff
     538:	000ca703          	lw	x14,0(x25)
     53c:	004c8c93          	addi	x25,x25,4

00000540 <I_or_cg_cp_rs1_b28>:
I_or_cg_cp_rs1_b28:
  or x7, x28, x14 # perform operation
     540:	00ee63b3          	or	x7,x28,x14
  # Check if x7 contains the expected result. x1 is the signature ptr, x5 is the link ptr, x4 is a temp reg.
  RVTEST_SIGUPD(x1, x5, x4, x7, I_or_cg_cp_rs1_b28, I_or_cg_cp_rs1_b28_str)
     544:	0000a203          	lw	x4,0(x1)
     548:	00720863          	beq	x4,x7,558 <I_or_cg_cp_rs1_b28+0x18>
     54c:	771032ef          	jal	x5,44bc <failedtest_x5_x4>
     550:	00000540          	.word	0x00000540
     554:	00009245          	.word	0x00009245
     558:	00408093          	addi	x1,x1,4

# Testcase cp_rs1 (Test source rs1 = x29)
  RVTEST_TESTDATA_LOAD_INT(x25, x29) # load rs1: x29 = 0xe4b6f558
     55c:	000cae83          	lw	x29,0(x25)
     560:	004c8c93          	addi	x25,x25,4
  RVTEST_TESTDATA_LOAD_INT(x25, x19) # load rs2: x19 = 0x36e7129c
     564:	000ca983          	lw	x19,0(x25)
     568:	004c8c93          	addi	x25,x25,4

0000056c <I_or_cg_cp_rs1_b29>:
I_or_cg_cp_rs1_b29:
  or x11, x29, x19 # perform operation
     56c:	013ee5b3          	or	x11,x29,x19
  # Check if x11 contains the expected result. x1 is the signature ptr, x5 is the link ptr, x4 is a temp reg.
  RVTEST_SIGUPD(x1, x5, x4, x11, I_or_cg_cp_rs1_b29, I_or_cg_cp_rs1_b29_str)
     570:	0000a203          	lw	x4,0(x1)
     574:	00b20863          	beq	x4,x11,584 <I_or_cg_cp_rs1_b29+0x18>
     578:	745032ef          	jal	x5,44bc <failedtest_x5_x4>
     57c:	0000056c          	.word	0x0000056c
     580:	00009273          	.word	0x00009273
     584:	00408093          	addi	x1,x1,4

# Testcase cp_rs1 (Test source rs1 = x30)
  RVTEST_TESTDATA_LOAD_INT(x25, x30) # load rs1: x30 = 0xff7019a2
     588:	000caf03          	lw	x30,0(x25)
     58c:	004c8c93          	addi	x25,x25,4
  RVTEST_TESTDATA_LOAD_INT(x25, x22) # load rs2: x22 = 0x2a292362
     590:	000cab03          	lw	x22,0(x25)
     594:	004c8c93          	addi	x25,x25,4

00000598 <I_or_cg_cp_rs1_b30>:
I_or_cg_cp_rs1_b30:
  or x10, x30, x22 # perform operation
     598:	016f6533          	or	x10,x30,x22
  # Check if x10 contains the expected result. x1 is the signature ptr, x5 is the link ptr, x4 is a temp reg.
  RVTEST_SIGUPD(x1, x5, x4, x10, I_or_cg_cp_rs1_b30, I_or_cg_cp_rs1_b30_str)
     59c:	0000a203          	lw	x4,0(x1)
     5a0:	00a20863          	beq	x4,x10,5b0 <I_or_cg_cp_rs1_b30+0x18>
     5a4:	719032ef          	jal	x5,44bc <failedtest_x5_x4>
     5a8:	00000598          	.word	0x00000598
     5ac:	000092a1          	.word	0x000092a1
     5b0:	00408093          	addi	x1,x1,4

# Testcase cp_rs1 (Test source rs1 = x31)
  RVTEST_TESTDATA_LOAD_INT(x25, x31) # load rs1: x31 = 0x786d8e81
     5b4:	000caf83          	lw	x31,0(x25)
     5b8:	004c8c93          	addi	x25,x25,4
  RVTEST_TESTDATA_LOAD_INT(x25, x17) # load rs2: x17 = 0x5208ddd6
     5bc:	000ca883          	lw	x17,0(x25)
     5c0:	004c8c93          	addi	x25,x25,4

000005c4 <I_or_cg_cp_rs1_b31>:
I_or_cg_cp_rs1_b31:
  or x22, x31, x17 # perform operation
     5c4:	011feb33          	or	x22,x31,x17
  # Check if x22 contains the expected result. x1 is the signature ptr, x5 is the link ptr, x4 is a temp reg.
  RVTEST_SIGUPD(x1, x5, x4, x22, I_or_cg_cp_rs1_b31, I_or_cg_cp_rs1_b31_str)
     5c8:	0000a203          	lw	x4,0(x1)
     5cc:	01620863          	beq	x4,x22,5dc <I_or_cg_cp_rs1_b31+0x18>
     5d0:	6ed032ef          	jal	x5,44bc <failedtest_x5_x4>
     5d4:	000005c4          	.word	0x000005c4
     5d8:	000092cf          	.word	0x000092cf
     5dc:	00408093          	addi	x1,x1,4
/////////////////////////////////
// cp_rs2
/////////////////////////////////

# Testcase cp_rs2 (Test source rs2 = x0)
  RVTEST_TESTDATA_LOAD_INT(x25, x7) # load rs1: x7 = 0x95c830b6
     5e0:	000ca383          	lw	x7,0(x25)
     5e4:	004c8c93          	addi	x25,x25,4
  RVTEST_TESTDATA_LOAD_INT(x25, x0) # load rs2: x0 = 0xbc457ab3
     5e8:	000ca003          	lw	x0,0(x25)
     5ec:	004c8c93          	addi	x25,x25,4

000005f0 <I_or_cg_cp_rs2_b0>:
I_or_cg_cp_rs2_b0:
  or x8, x7, x0 # perform operation
     5f0:	0003e433          	or	x8,x7,x0
  # Check if x8 contains the expected result. x1 is the signature ptr, x5 is the link ptr, x4 is a temp reg.
  RVTEST_SIGUPD(x1, x5, x4, x8, I_or_cg_cp_rs2_b0, I_or_cg_cp_rs2_b0_str)
     5f4:	0000a203          	lw	x4,0(x1)
     5f8:	00820863          	beq	x4,x8,608 <I_or_cg_cp_rs2_b0+0x18>
     5fc:	6c1032ef          	jal	x5,44bc <failedtest_x5_x4>
     600:	000005f0          	.word	0x000005f0
     604:	000092fd          	.word	0x000092fd
     608:	00408093          	addi	x1,x1,4

  mv x11, x1 # switch signature pointer register to avoid conflict with test
     60c:	00008593          	addi	x11,x1,0
# Testcase cp_rs2 (Test source rs2 = x1)
  RVTEST_TESTDATA_LOAD_INT(x25, x20) # load rs1: x20 = 0x1feed6d7
     610:	000caa03          	lw	x20,0(x25)
     614:	004c8c93          	addi	x25,x25,4
  RVTEST_TESTDATA_LOAD_INT(x25, x1) # load rs2: x1 = 0xca944d60
     618:	000ca083          	lw	x1,0(x25)
     61c:	004c8c93          	addi	x25,x25,4

00000620 <I_or_cg_cp_rs2_b1>:
I_or_cg_cp_rs2_b1:
  or x15, x20, x1 # perform operation
     620:	001a67b3          	or	x15,x20,x1
  # Check if x15 contains the expected result. x11 is the signature ptr, x5 is the link ptr, x4 is a temp reg.
  RVTEST_SIGUPD(x11, x5, x4, x15, I_or_cg_cp_rs2_b1, I_or_cg_cp_rs2_b1_str)
     624:	0005a203          	lw	x4,0(x11)
     628:	00f20863          	beq	x4,x15,638 <I_or_cg_cp_rs2_b1+0x18>
     62c:	691032ef          	jal	x5,44bc <failedtest_x5_x4>
     630:	00000620          	.word	0x00000620
     634:	0000932a          	.word	0x0000932a
     638:	00458593          	addi	x11,x11,4

# Testcase cp_rs2 (Test source rs2 = x2)
  RVTEST_TESTDATA_LOAD_INT(x25, x15) # load rs1: x15 = 0x25d4edb8
     63c:	000ca783          	lw	x15,0(x25)
     640:	004c8c93          	addi	x25,x25,4
  RVTEST_TESTDATA_LOAD_INT(x25, x2) # load rs2: x2 = 0x912d1b8d
     644:	000ca103          	lw	x2,0(x25)
     648:	004c8c93          	addi	x25,x25,4

0000064c <I_or_cg_cp_rs2_b2>:
I_or_cg_cp_rs2_b2:
  or x13, x15, x2 # perform operation
     64c:	0027e6b3          	or	x13,x15,x2
  # Check if x13 contains the expected result. x11 is the signature ptr, x5 is the link ptr, x4 is a temp reg.
  RVTEST_SIGUPD(x11, x5, x4, x13, I_or_cg_cp_rs2_b2, I_or_cg_cp_rs2_b2_str)
     650:	0005a203          	lw	x4,0(x11)
     654:	00d20863          	beq	x4,x13,664 <I_or_cg_cp_rs2_b2+0x18>
     658:	665032ef          	jal	x5,44bc <failedtest_x5_x4>
     65c:	0000064c          	.word	0x0000064c
     660:	00009357          	.word	0x00009357
     664:	00458593          	addi	x11,x11,4

# Testcase cp_rs2 (Test source rs2 = x3)
  RVTEST_TESTDATA_LOAD_INT(x25, x23) # load rs1: x23 = 0x46b3683d
     668:	000cab83          	lw	x23,0(x25)
     66c:	004c8c93          	addi	x25,x25,4
  RVTEST_TESTDATA_LOAD_INT(x25, x3) # load rs2: x3 = 0x09d1c9ac
     670:	000ca183          	lw	x3,0(x25)
     674:	004c8c93          	addi	x25,x25,4

00000678 <I_or_cg_cp_rs2_b3>:
I_or_cg_cp_rs2_b3:
  or x6, x23, x3 # perform operation
     678:	003be333          	or	x6,x23,x3
  # Check if x6 contains the expected result. x11 is the signature ptr, x5 is the link ptr, x4 is a temp reg.
  RVTEST_SIGUPD(x11, x5, x4, x6, I_or_cg_cp_rs2_b3, I_or_cg_cp_rs2_b3_str)
     67c:	0005a203          	lw	x4,0(x11)
     680:	00620863          	beq	x4,x6,690 <I_or_cg_cp_rs2_b3+0x18>
     684:	639032ef          	jal	x5,44bc <failedtest_x5_x4>
     688:	00000678          	.word	0x00000678
     68c:	00009384          	.word	0x00009384
     690:	00458593          	addi	x11,x11,4

  mv x13, x4 # switch temp register to avoid conflict with test
     694:	00020693          	addi	x13,x4,0 # 0 <rvtest_entry_point>
  mv x14, x5 # switch link pointer register to avoid conflict with test
     698:	00028713          	addi	x14,x5,0
# Testcase cp_rs2 (Test source rs2 = x4)
  RVTEST_TESTDATA_LOAD_INT(x25, x20) # load rs1: x20 = 0x13556adc
     69c:	000caa03          	lw	x20,0(x25)
     6a0:	004c8c93          	addi	x25,x25,4
  RVTEST_TESTDATA_LOAD_INT(x25, x4) # load rs2: x4 = 0x7f7942b6
     6a4:	000ca203          	lw	x4,0(x25)
     6a8:	004c8c93          	addi	x25,x25,4

000006ac <I_or_cg_cp_rs2_b4>:
I_or_cg_cp_rs2_b4:
  or x29, x20, x4 # perform operation
     6ac:	004a6eb3          	or	x29,x20,x4
  # Check if x29 contains the expected result. x11 is the signature ptr, x14 is the link ptr, x13 is a temp reg.
  RVTEST_SIGUPD(x11, x14, x13, x29, I_or_cg_cp_rs2_b4, I_or_cg_cp_rs2_b4_str)
     6b0:	0005a683          	lw	x13,0(x11)
     6b4:	01d68863          	beq	x13,x29,6c4 <I_or_cg_cp_rs2_b4+0x18>
     6b8:	6450376f          	jal	x14,44fc <failedtest_x14_x13>
     6bc:	000006ac          	.word	0x000006ac
     6c0:	000093b1          	.word	0x000093b1
     6c4:	00458593          	addi	x11,x11,4

# Testcase cp_rs2 (Test source rs2 = x5)
  RVTEST_TESTDATA_LOAD_INT(x25, x20) # load rs1: x20 = 0xd53821e7
     6c8:	000caa03          	lw	x20,0(x25)
     6cc:	004c8c93          	addi	x25,x25,4
  RVTEST_TESTDATA_LOAD_INT(x25, x5) # load rs2: x5 = 0x3bc12b40
     6d0:	000ca283          	lw	x5,0(x25)
     6d4:	004c8c93          	addi	x25,x25,4

000006d8 <I_or_cg_cp_rs2_b5>:
I_or_cg_cp_rs2_b5:
  or x30, x20, x5 # perform operation
     6d8:	005a6f33          	or	x30,x20,x5
  # Check if x30 contains the expected result. x11 is the signature ptr, x14 is the link ptr, x13 is a temp reg.
  RVTEST_SIGUPD(x11, x14, x13, x30, I_or_cg_cp_rs2_b5, I_or_cg_cp_rs2_b5_str)
     6dc:	0005a683          	lw	x13,0(x11)
     6e0:	01e68863          	beq	x13,x30,6f0 <I_or_cg_cp_rs2_b5+0x18>
     6e4:	6190376f          	jal	x14,44fc <failedtest_x14_x13>
     6e8:	000006d8          	.word	0x000006d8
     6ec:	000093de          	.word	0x000093de
     6f0:	00458593          	addi	x11,x11,4

# Testcase cp_rs2 (Test source rs2 = x6)
  RVTEST_TESTDATA_LOAD_INT(x25, x5) # load rs1: x5 = 0xe1b81083
     6f4:	000ca283          	lw	x5,0(x25)
     6f8:	004c8c93          	addi	x25,x25,4
  RVTEST_TESTDATA_LOAD_INT(x25, x6) # load rs2: x6 = 0xd90ff356
     6fc:	000ca303          	lw	x6,0(x25)
     700:	004c8c93          	addi	x25,x25,4

00000704 <I_or_cg_cp_rs2_b6>:
I_or_cg_cp_rs2_b6:
  or x27, x5, x6 # perform operation
     704:	0062edb3          	or	x27,x5,x6
  # Check if x27 contains the expected result. x11 is the signature ptr, x14 is the link ptr, x13 is a temp reg.
  RVTEST_SIGUPD(x11, x14, x13, x27, I_or_cg_cp_rs2_b6, I_or_cg_cp_rs2_b6_str)
     708:	0005a683          	lw	x13,0(x11)
     70c:	01b68863          	beq	x13,x27,71c <I_or_cg_cp_rs2_b6+0x18>
     710:	5ed0376f          	jal	x14,44fc <failedtest_x14_x13>
     714:	00000704          	.word	0x00000704
     718:	0000940b          	.word	0x0000940b
     71c:	00458593          	addi	x11,x11,4

# Testcase cp_rs2 (Test source rs2 = x7)
  RVTEST_TESTDATA_LOAD_INT(x25, x0) # load rs1: x0 = 0x869f9432
     720:	000ca003          	lw	x0,0(x25)
     724:	004c8c93          	addi	x25,x25,4
  RVTEST_TESTDATA_LOAD_INT(x25, x7) # load rs2: x7 = 0xc865d39a
     728:	000ca383          	lw	x7,0(x25)
     72c:	004c8c93          	addi	x25,x25,4

00000730 <I_or_cg_cp_rs2_b7>:
I_or_cg_cp_rs2_b7:
  or x9, x0, x7 # perform operation
     730:	007064b3          	or	x9,x0,x7
  # Check if x9 contains the expected result. x11 is the signature ptr, x14 is the link ptr, x13 is a temp reg.
  RVTEST_SIGUPD(x11, x14, x13, x9, I_or_cg_cp_rs2_b7, I_or_cg_cp_rs2_b7_str)
     734:	0005a683          	lw	x13,0(x11)
     738:	00968863          	beq	x13,x9,748 <I_or_cg_cp_rs2_b7+0x18>
     73c:	5c10376f          	jal	x14,44fc <failedtest_x14_x13>
     740:	00000730          	.word	0x00000730
     744:	00009438          	.word	0x00009438
     748:	00458593          	addi	x11,x11,4

# Testcase cp_rs2 (Test source rs2 = x8)
  RVTEST_TESTDATA_LOAD_INT(x25, x2) # load rs1: x2 = 0x16b9b068
     74c:	000ca103          	lw	x2,0(x25)
     750:	004c8c93          	addi	x25,x25,4
  RVTEST_TESTDATA_LOAD_INT(x25, x8) # load rs2: x8 = 0xbe378bd5
     754:	000ca403          	lw	x8,0(x25)
     758:	004c8c93          	addi	x25,x25,4

0000075c <I_or_cg_cp_rs2_b8>:
I_or_cg_cp_rs2_b8:
  or x17, x2, x8 # perform operation
     75c:	008168b3          	or	x17,x2,x8
  # Check if x17 contains the expected result. x11 is the signature ptr, x14 is the link ptr, x13 is a temp reg.
  RVTEST_SIGUPD(x11, x14, x13, x17, I_or_cg_cp_rs2_b8, I_or_cg_cp_rs2_b8_str)
     760:	0005a683          	lw	x13,0(x11)
     764:	01168863          	beq	x13,x17,774 <I_or_cg_cp_rs2_b8+0x18>
     768:	5950376f          	jal	x14,44fc <failedtest_x14_x13>
     76c:	0000075c          	.word	0x0000075c
     770:	00009465          	.word	0x00009465
     774:	00458593          	addi	x11,x11,4

# Testcase cp_rs2 (Test source rs2 = x9)
  RVTEST_TESTDATA_LOAD_INT(x25, x26) # load rs1: x26 = 0x9505276a
     778:	000cad03          	lw	x26,0(x25)
     77c:	004c8c93          	addi	x25,x25,4
  RVTEST_TESTDATA_LOAD_INT(x25, x9) # load rs2: x9 = 0x725a635f
     780:	000ca483          	lw	x9,0(x25)
     784:	004c8c93          	addi	x25,x25,4

00000788 <I_or_cg_cp_rs2_b9>:
I_or_cg_cp_rs2_b9:
  or x3, x26, x9 # perform operation
     788:	009d61b3          	or	x3,x26,x9
  # Check if x3 contains the expected result. x11 is the signature ptr, x14 is the link ptr, x13 is a temp reg.
  RVTEST_SIGUPD(x11, x14, x13, x3, I_or_cg_cp_rs2_b9, I_or_cg_cp_rs2_b9_str)
     78c:	0005a683          	lw	x13,0(x11)
     790:	00368863          	beq	x13,x3,7a0 <I_or_cg_cp_rs2_b9+0x18>
     794:	5690376f          	jal	x14,44fc <failedtest_x14_x13>
     798:	00000788          	.word	0x00000788
     79c:	00009492          	.word	0x00009492
     7a0:	00458593          	addi	x11,x11,4

# Testcase cp_rs2 (Test source rs2 = x10)
  RVTEST_TESTDATA_LOAD_INT(x25, x16) # load rs1: x16 = 0x5c283c20
     7a4:	000ca803          	lw	x16,0(x25)
     7a8:	004c8c93          	addi	x25,x25,4
  RVTEST_TESTDATA_LOAD_INT(x25, x10) # load rs2: x10 = 0x2c9f85dc
     7ac:	000ca503          	lw	x10,0(x25)
     7b0:	004c8c93          	addi	x25,x25,4

000007b4 <I_or_cg_cp_rs2_b10>:
I_or_cg_cp_rs2_b10:
  or x5, x16, x10 # perform operation
     7b4:	00a862b3          	or	x5,x16,x10
  # Check if x5 contains the expected result. x11 is the signature ptr, x14 is the link ptr, x13 is a temp reg.
  RVTEST_SIGUPD(x11, x14, x13, x5, I_or_cg_cp_rs2_b10, I_or_cg_cp_rs2_b10_str)
     7b8:	0005a683          	lw	x13,0(x11)
     7bc:	00568863          	beq	x13,x5,7cc <I_or_cg_cp_rs2_b10+0x18>
     7c0:	53d0376f          	jal	x14,44fc <failedtest_x14_x13>
     7c4:	000007b4          	.word	0x000007b4
     7c8:	000094bf          	.word	0x000094bf
     7cc:	00458593          	addi	x11,x11,4

  mv x31, x11 # switch signature pointer register to avoid conflict with test
     7d0:	00058f93          	addi	x31,x11,0
# Testcase cp_rs2 (Test source rs2 = x11)
  RVTEST_TESTDATA_LOAD_INT(x25, x26) # load rs1: x26 = 0x5fa5fda0
     7d4:	000cad03          	lw	x26,0(x25)
     7d8:	004c8c93          	addi	x25,x25,4
  RVTEST_TESTDATA_LOAD_INT(x25, x11) # load rs2: x11 = 0xe960aada
     7dc:	000ca583          	lw	x11,0(x25)
     7e0:	004c8c93          	addi	x25,x25,4

000007e4 <I_or_cg_cp_rs2_b11>:
I_or_cg_cp_rs2_b11:
  or x6, x26, x11 # perform operation
     7e4:	00bd6333          	or	x6,x26,x11
  # Check if x6 contains the expected result. x31 is the signature ptr, x14 is the link ptr, x13 is a temp reg.
  RVTEST_SIGUPD(x31, x14, x13, x6, I_or_cg_cp_rs2_b11, I_or_cg_cp_rs2_b11_str)
     7e8:	000fa683          	lw	x13,0(x31)
     7ec:	00668863          	beq	x13,x6,7fc <I_or_cg_cp_rs2_b11+0x18>
     7f0:	50d0376f          	jal	x14,44fc <failedtest_x14_x13>
     7f4:	000007e4          	.word	0x000007e4
     7f8:	000094ed          	.word	0x000094ed
     7fc:	004f8f93          	addi	x31,x31,4

# Testcase cp_rs2 (Test source rs2 = x12)
  RVTEST_TESTDATA_LOAD_INT(x25, x0) # load rs1: x0 = 0xbf51b129
     800:	000ca003          	lw	x0,0(x25)
     804:	004c8c93          	addi	x25,x25,4
  RVTEST_TESTDATA_LOAD_INT(x25, x12) # load rs2: x12 = 0xd4772424
     808:	000ca603          	lw	x12,0(x25)
     80c:	004c8c93          	addi	x25,x25,4

00000810 <I_or_cg_cp_rs2_b12>:
I_or_cg_cp_rs2_b12:
  or x18, x0, x12 # perform operation
     810:	00c06933          	or	x18,x0,x12
  # Check if x18 contains the expected result. x31 is the signature ptr, x14 is the link ptr, x13 is a temp reg.
  RVTEST_SIGUPD(x31, x14, x13, x18, I_or_cg_cp_rs2_b12, I_or_cg_cp_rs2_b12_str)
     814:	000fa683          	lw	x13,0(x31)
     818:	01268863          	beq	x13,x18,828 <I_or_cg_cp_rs2_b12+0x18>
     81c:	4e10376f          	jal	x14,44fc <failedtest_x14_x13>
     820:	00000810          	.word	0x00000810
     824:	0000951b          	.word	0x0000951b
     828:	004f8f93          	addi	x31,x31,4

  mv x7, x13 # switch temp register to avoid conflict with test
     82c:	00068393          	addi	x7,x13,0
  mv x8, x14 # switch link pointer register to avoid conflict with test
     830:	00070413          	addi	x8,x14,0
# Testcase cp_rs2 (Test source rs2 = x13)
  RVTEST_TESTDATA_LOAD_INT(x25, x15) # load rs1: x15 = 0x85f97327
     834:	000ca783          	lw	x15,0(x25)
     838:	004c8c93          	addi	x25,x25,4
  RVTEST_TESTDATA_LOAD_INT(x25, x13) # load rs2: x13 = 0x9c6cf0e8
     83c:	000ca683          	lw	x13,0(x25)
     840:	004c8c93          	addi	x25,x25,4

00000844 <I_or_cg_cp_rs2_b13>:
I_or_cg_cp_rs2_b13:
  or x10, x15, x13 # perform operation
     844:	00d7e533          	or	x10,x15,x13
  # Check if x10 contains the expected result. x31 is the signature ptr, x8 is the link ptr, x7 is a temp reg.
  RVTEST_SIGUPD(x31, x8, x7, x10, I_or_cg_cp_rs2_b13, I_or_cg_cp_rs2_b13_str)
     848:	000fa383          	lw	x7,0(x31)
     84c:	00a38863          	beq	x7,x10,85c <I_or_cg_cp_rs2_b13+0x18>
     850:	4850346f          	jal	x8,44d4 <failedtest_x8_x7>
     854:	00000844          	.word	0x00000844
     858:	00009549          	.word	0x00009549
     85c:	004f8f93          	addi	x31,x31,4

# Testcase cp_rs2 (Test source rs2 = x14)
  RVTEST_TESTDATA_LOAD_INT(x25, x13) # load rs1: x13 = 0x81e2fb83
     860:	000ca683          	lw	x13,0(x25)
     864:	004c8c93          	addi	x25,x25,4
  RVTEST_TESTDATA_LOAD_INT(x25, x14) # load rs2: x14 = 0x8582821e
     868:	000ca703          	lw	x14,0(x25)
     86c:	004c8c93          	addi	x25,x25,4

00000870 <I_or_cg_cp_rs2_b14>:
I_or_cg_cp_rs2_b14:
  or x17, x13, x14 # perform operation
     870:	00e6e8b3          	or	x17,x13,x14
  # Check if x17 contains the expected result. x31 is the signature ptr, x8 is the link ptr, x7 is a temp reg.
  RVTEST_SIGUPD(x31, x8, x7, x17, I_or_cg_cp_rs2_b14, I_or_cg_cp_rs2_b14_str)
     874:	000fa383          	lw	x7,0(x31)
     878:	01138863          	beq	x7,x17,888 <I_or_cg_cp_rs2_b14+0x18>
     87c:	4590346f          	jal	x8,44d4 <failedtest_x8_x7>
     880:	00000870          	.word	0x00000870
     884:	00009577          	.word	0x00009577
     888:	004f8f93          	addi	x31,x31,4

# Testcase cp_rs2 (Test source rs2 = x15)
  RVTEST_TESTDATA_LOAD_INT(x25, x0) # load rs1: x0 = 0x6365a002
     88c:	000ca003          	lw	x0,0(x25)
     890:	004c8c93          	addi	x25,x25,4
  RVTEST_TESTDATA_LOAD_INT(x25, x15) # load rs2: x15 = 0x768853c2
     894:	000ca783          	lw	x15,0(x25)
     898:	004c8c93          	addi	x25,x25,4

0000089c <I_or_cg_cp_rs2_b15>:
I_or_cg_cp_rs2_b15:
  or x4, x0, x15 # perform operation
     89c:	00f06233          	or	x4,x0,x15
  # Check if x4 contains the expected result. x31 is the signature ptr, x8 is the link ptr, x7 is a temp reg.
  RVTEST_SIGUPD(x31, x8, x7, x4, I_or_cg_cp_rs2_b15, I_or_cg_cp_rs2_b15_str)
     8a0:	000fa383          	lw	x7,0(x31)
     8a4:	00438863          	beq	x7,x4,8b4 <I_or_cg_cp_rs2_b15+0x18>
     8a8:	42d0346f          	jal	x8,44d4 <failedtest_x8_x7>
     8ac:	0000089c          	.word	0x0000089c
     8b0:	000095a5          	.word	0x000095a5
     8b4:	004f8f93          	addi	x31,x31,4

# Testcase cp_rs2 (Test source rs2 = x16)
  RVTEST_TESTDATA_LOAD_INT(x25, x18) # load rs1: x18 = 0x49bc028a
     8b8:	000ca903          	lw	x18,0(x25)
     8bc:	004c8c93          	addi	x25,x25,4
  RVTEST_TESTDATA_LOAD_INT(x25, x16) # load rs2: x16 = 0x98c961ec
     8c0:	000ca803          	lw	x16,0(x25)
     8c4:	004c8c93          	addi	x25,x25,4

000008c8 <I_or_cg_cp_rs2_b16>:
I_or_cg_cp_rs2_b16:
  or x28, x18, x16 # perform operation
     8c8:	01096e33          	or	x28,x18,x16
  # Check if x28 contains the expected result. x31 is the signature ptr, x8 is the link ptr, x7 is a temp reg.
  RVTEST_SIGUPD(x31, x8, x7, x28, I_or_cg_cp_rs2_b16, I_or_cg_cp_rs2_b16_str)
     8cc:	000fa383          	lw	x7,0(x31)
     8d0:	01c38863          	beq	x7,x28,8e0 <I_or_cg_cp_rs2_b16+0x18>
     8d4:	4010346f          	jal	x8,44d4 <failedtest_x8_x7>
     8d8:	000008c8          	.word	0x000008c8
     8dc:	000095d3          	.word	0x000095d3
     8e0:	004f8f93          	addi	x31,x31,4

# Testcase cp_rs2 (Test source rs2 = x17)
  RVTEST_TESTDATA_LOAD_INT(x25, x9) # load rs1: x9 = 0x49ee4c2c
     8e4:	000ca483          	lw	x9,0(x25)
     8e8:	004c8c93          	addi	x25,x25,4
  RVTEST_TESTDATA_LOAD_INT(x25, x17) # load rs2: x17 = 0x54976187
     8ec:	000ca883          	lw	x17,0(x25)
     8f0:	004c8c93          	addi	x25,x25,4

000008f4 <I_or_cg_cp_rs2_b17>:
I_or_cg_cp_rs2_b17:
  or x30, x9, x17 # perform operation
     8f4:	0114ef33          	or	x30,x9,x17
  # Check if x30 contains the expected result. x31 is the signature ptr, x8 is the link ptr, x7 is a temp reg.
  RVTEST_SIGUPD(x31, x8, x7, x30, I_or_cg_cp_rs2_b17, I_or_cg_cp_rs2_b17_str)
     8f8:	000fa383          	lw	x7,0(x31)
     8fc:	01e38863          	beq	x7,x30,90c <I_or_cg_cp_rs2_b17+0x18>
     900:	3d50346f          	jal	x8,44d4 <failedtest_x8_x7>
     904:	000008f4          	.word	0x000008f4
     908:	00009601          	.word	0x00009601
     90c:	004f8f93          	addi	x31,x31,4

# Testcase cp_rs2 (Test source rs2 = x18)
  RVTEST_TESTDATA_LOAD_INT(x25, x26) # load rs1: x26 = 0xec3c54ba
     910:	000cad03          	lw	x26,0(x25)
     914:	004c8c93          	addi	x25,x25,4
  RVTEST_TESTDATA_LOAD_INT(x25, x18) # load rs2: x18 = 0x9e1401c2
     918:	000ca903          	lw	x18,0(x25)
     91c:	004c8c93          	addi	x25,x25,4

00000920 <I_or_cg_cp_rs2_b18>:
I_or_cg_cp_rs2_b18:
  or x27, x26, x18 # perform operation
     920:	012d6db3          	or	x27,x26,x18
  # Check if x27 contains the expected result. x31 is the signature ptr, x8 is the link ptr, x7 is a temp reg.
  RVTEST_SIGUPD(x31, x8, x7, x27, I_or_cg_cp_rs2_b18, I_or_cg_cp_rs2_b18_str)
     924:	000fa383          	lw	x7,0(x31)
     928:	01b38863          	beq	x7,x27,938 <I_or_cg_cp_rs2_b18+0x18>
     92c:	3a90346f          	jal	x8,44d4 <failedtest_x8_x7>
     930:	00000920          	.word	0x00000920
     934:	0000962f          	.word	0x0000962f
     938:	004f8f93          	addi	x31,x31,4

# Testcase cp_rs2 (Test source rs2 = x19)
  RVTEST_TESTDATA_LOAD_INT(x25, x11) # load rs1: x11 = 0x18216b81
     93c:	000ca583          	lw	x11,0(x25)
     940:	004c8c93          	addi	x25,x25,4
  RVTEST_TESTDATA_LOAD_INT(x25, x19) # load rs2: x19 = 0xedb3db9b
     944:	000ca983          	lw	x19,0(x25)
     948:	004c8c93          	addi	x25,x25,4

0000094c <I_or_cg_cp_rs2_b19>:
I_or_cg_cp_rs2_b19:
  or x20, x11, x19 # perform operation
     94c:	0135ea33          	or	x20,x11,x19
  # Check if x20 contains the expected result. x31 is the signature ptr, x8 is the link ptr, x7 is a temp reg.
  RVTEST_SIGUPD(x31, x8, x7, x20, I_or_cg_cp_rs2_b19, I_or_cg_cp_rs2_b19_str)
     950:	000fa383          	lw	x7,0(x31)
     954:	01438863          	beq	x7,x20,964 <I_or_cg_cp_rs2_b19+0x18>
     958:	37d0346f          	jal	x8,44d4 <failedtest_x8_x7>
     95c:	0000094c          	.word	0x0000094c
     960:	0000965d          	.word	0x0000965d
     964:	004f8f93          	addi	x31,x31,4

# Testcase cp_rs2 (Test source rs2 = x20)
  RVTEST_TESTDATA_LOAD_INT(x25, x0) # load rs1: x0 = 0x6f663f72
     968:	000ca003          	lw	x0,0(x25)
     96c:	004c8c93          	addi	x25,x25,4
  RVTEST_TESTDATA_LOAD_INT(x25, x20) # load rs2: x20 = 0x5a539f84
     970:	000caa03          	lw	x20,0(x25)
     974:	004c8c93          	addi	x25,x25,4

00000978 <I_or_cg_cp_rs2_b20>:
I_or_cg_cp_rs2_b20:
  or x6, x0, x20 # perform operation
     978:	01406333          	or	x6,x0,x20
  # Check if x6 contains the expected result. x31 is the signature ptr, x8 is the link ptr, x7 is a temp reg.
  RVTEST_SIGUPD(x31, x8, x7, x6, I_or_cg_cp_rs2_b20, I_or_cg_cp_rs2_b20_str)
     97c:	000fa383          	lw	x7,0(x31)
     980:	00638863          	beq	x7,x6,990 <I_or_cg_cp_rs2_b20+0x18>
     984:	3510346f          	jal	x8,44d4 <failedtest_x8_x7>
     988:	00000978          	.word	0x00000978
     98c:	0000968b          	.word	0x0000968b
     990:	004f8f93          	addi	x31,x31,4

# Testcase cp_rs2 (Test source rs2 = x21)
  RVTEST_TESTDATA_LOAD_INT(x25, x13) # load rs1: x13 = 0x406d85a2
     994:	000ca683          	lw	x13,0(x25)
     998:	004c8c93          	addi	x25,x25,4
  RVTEST_TESTDATA_LOAD_INT(x25, x21) # load rs2: x21 = 0x31c2ad5e
     99c:	000caa83          	lw	x21,0(x25)
     9a0:	004c8c93          	addi	x25,x25,4

000009a4 <I_or_cg_cp_rs2_b21>:
I_or_cg_cp_rs2_b21:
  or x24, x13, x21 # perform operation
     9a4:	0156ec33          	or	x24,x13,x21
  # Check if x24 contains the expected result. x31 is the signature ptr, x8 is the link ptr, x7 is a temp reg.
  RVTEST_SIGUPD(x31, x8, x7, x24, I_or_cg_cp_rs2_b21, I_or_cg_cp_rs2_b21_str)
     9a8:	000fa383          	lw	x7,0(x31)
     9ac:	01838863          	beq	x7,x24,9bc <I_or_cg_cp_rs2_b21+0x18>
     9b0:	3250346f          	jal	x8,44d4 <failedtest_x8_x7>
     9b4:	000009a4          	.word	0x000009a4
     9b8:	000096b9          	.word	0x000096b9
     9bc:	004f8f93          	addi	x31,x31,4

# Testcase cp_rs2 (Test source rs2 = x22)
  RVTEST_TESTDATA_LOAD_INT(x25, x26) # load rs1: x26 = 0xdc636135
     9c0:	000cad03          	lw	x26,0(x25)
     9c4:	004c8c93          	addi	x25,x25,4
  RVTEST_TESTDATA_LOAD_INT(x25, x22) # load rs2: x22 = 0x5d8bb05d
     9c8:	000cab03          	lw	x22,0(x25)
     9cc:	004c8c93          	addi	x25,x25,4

000009d0 <I_or_cg_cp_rs2_b22>:
I_or_cg_cp_rs2_b22:
  or x14, x26, x22 # perform operation
     9d0:	016d6733          	or	x14,x26,x22
  # Check if x14 contains the expected result. x31 is the signature ptr, x8 is the link ptr, x7 is a temp reg.
  RVTEST_SIGUPD(x31, x8, x7, x14, I_or_cg_cp_rs2_b22, I_or_cg_cp_rs2_b22_str)
     9d4:	000fa383          	lw	x7,0(x31)
     9d8:	00e38863          	beq	x7,x14,9e8 <I_or_cg_cp_rs2_b22+0x18>
     9dc:	2f90346f          	jal	x8,44d4 <failedtest_x8_x7>
     9e0:	000009d0          	.word	0x000009d0
     9e4:	000096e7          	.word	0x000096e7
     9e8:	004f8f93          	addi	x31,x31,4

# Testcase cp_rs2 (Test source rs2 = x23)
  RVTEST_TESTDATA_LOAD_INT(x25, x18) # load rs1: x18 = 0x26f3c035
     9ec:	000ca903          	lw	x18,0(x25)
     9f0:	004c8c93          	addi	x25,x25,4
  RVTEST_TESTDATA_LOAD_INT(x25, x23) # load rs2: x23 = 0xd0056076
     9f4:	000cab83          	lw	x23,0(x25)
     9f8:	004c8c93          	addi	x25,x25,4

000009fc <I_or_cg_cp_rs2_b23>:
I_or_cg_cp_rs2_b23:
  or x27, x18, x23 # perform operation
     9fc:	01796db3          	or	x27,x18,x23
  # Check if x27 contains the expected result. x31 is the signature ptr, x8 is the link ptr, x7 is a temp reg.
  RVTEST_SIGUPD(x31, x8, x7, x27, I_or_cg_cp_rs2_b23, I_or_cg_cp_rs2_b23_str)
     a00:	000fa383          	lw	x7,0(x31)
     a04:	01b38863          	beq	x7,x27,a14 <I_or_cg_cp_rs2_b23+0x18>
     a08:	2cd0346f          	jal	x8,44d4 <failedtest_x8_x7>
     a0c:	000009fc          	.word	0x000009fc
     a10:	00009715          	.word	0x00009715
     a14:	004f8f93          	addi	x31,x31,4

# Testcase cp_rs2 (Test source rs2 = x24)
  RVTEST_TESTDATA_LOAD_INT(x25, x16) # load rs1: x16 = 0x510ac653
     a18:	000ca803          	lw	x16,0(x25)
     a1c:	004c8c93          	addi	x25,x25,4
  RVTEST_TESTDATA_LOAD_INT(x25, x24) # load rs2: x24 = 0x6495716b
     a20:	000cac03          	lw	x24,0(x25)
     a24:	004c8c93          	addi	x25,x25,4

00000a28 <I_or_cg_cp_rs2_b24>:
I_or_cg_cp_rs2_b24:
  or x3, x16, x24 # perform operation
     a28:	018861b3          	or	x3,x16,x24
  # Check if x3 contains the expected result. x31 is the signature ptr, x8 is the link ptr, x7 is a temp reg.
  RVTEST_SIGUPD(x31, x8, x7, x3, I_or_cg_cp_rs2_b24, I_or_cg_cp_rs2_b24_str)
     a2c:	000fa383          	lw	x7,0(x31)
     a30:	00338863          	beq	x7,x3,a40 <I_or_cg_cp_rs2_b24+0x18>
     a34:	2a10346f          	jal	x8,44d4 <failedtest_x8_x7>
     a38:	00000a28          	.word	0x00000a28
     a3c:	00009743          	.word	0x00009743
     a40:	004f8f93          	addi	x31,x31,4

  mv x11, x25 # switch data pointer register to avoid conflict with test
     a44:	000c8593          	addi	x11,x25,0
# Testcase cp_rs2 (Test source rs2 = x25)
  RVTEST_TESTDATA_LOAD_INT(x11, x20) # load rs1: x20 = 0xa0ebe75b
     a48:	0005aa03          	lw	x20,0(x11)
     a4c:	00458593          	addi	x11,x11,4
  RVTEST_TESTDATA_LOAD_INT(x11, x25) # load rs2: x25 = 0x2b98edd7
     a50:	0005ac83          	lw	x25,0(x11)
     a54:	00458593          	addi	x11,x11,4

00000a58 <I_or_cg_cp_rs2_b25>:
I_or_cg_cp_rs2_b25:
  or x18, x20, x25 # perform operation
     a58:	019a6933          	or	x18,x20,x25
  # Check if x18 contains the expected result. x31 is the signature ptr, x8 is the link ptr, x7 is a temp reg.
  RVTEST_SIGUPD(x31, x8, x7, x18, I_or_cg_cp_rs2_b25, I_or_cg_cp_rs2_b25_str)
     a5c:	000fa383          	lw	x7,0(x31)
     a60:	01238863          	beq	x7,x18,a70 <I_or_cg_cp_rs2_b25+0x18>
     a64:	2710346f          	jal	x8,44d4 <failedtest_x8_x7>
     a68:	00000a58          	.word	0x00000a58
     a6c:	00009771          	.word	0x00009771
     a70:	004f8f93          	addi	x31,x31,4

# Testcase cp_rs2 (Test source rs2 = x26)
  RVTEST_TESTDATA_LOAD_INT(x11, x17) # load rs1: x17 = 0xf02eea43
     a74:	0005a883          	lw	x17,0(x11)
     a78:	00458593          	addi	x11,x11,4
  RVTEST_TESTDATA_LOAD_INT(x11, x26) # load rs2: x26 = 0x2c298d80
     a7c:	0005ad03          	lw	x26,0(x11)
     a80:	00458593          	addi	x11,x11,4

00000a84 <I_or_cg_cp_rs2_b26>:
I_or_cg_cp_rs2_b26:
  or x25, x17, x26 # perform operation
     a84:	01a8ecb3          	or	x25,x17,x26
  # Check if x25 contains the expected result. x31 is the signature ptr, x8 is the link ptr, x7 is a temp reg.
  RVTEST_SIGUPD(x31, x8, x7, x25, I_or_cg_cp_rs2_b26, I_or_cg_cp_rs2_b26_str)
     a88:	000fa383          	lw	x7,0(x31)
     a8c:	01938863          	beq	x7,x25,a9c <I_or_cg_cp_rs2_b26+0x18>
     a90:	2450346f          	jal	x8,44d4 <failedtest_x8_x7>
     a94:	00000a84          	.word	0x00000a84
     a98:	0000979f          	.word	0x0000979f
     a9c:	004f8f93          	addi	x31,x31,4

# Testcase cp_rs2 (Test source rs2 = x27)
  RVTEST_TESTDATA_LOAD_INT(x11, x0) # load rs1: x0 = 0x16c6dbae
     aa0:	0005a003          	lw	x0,0(x11)
     aa4:	00458593          	addi	x11,x11,4
  RVTEST_TESTDATA_LOAD_INT(x11, x27) # load rs2: x27 = 0xbb7eb5d7
     aa8:	0005ad83          	lw	x27,0(x11)
     aac:	00458593          	addi	x11,x11,4

00000ab0 <I_or_cg_cp_rs2_b27>:
I_or_cg_cp_rs2_b27:
  or x26, x0, x27 # perform operation
     ab0:	01b06d33          	or	x26,x0,x27
  # Check if x26 contains the expected result. x31 is the signature ptr, x8 is the link ptr, x7 is a temp reg.
  RVTEST_SIGUPD(x31, x8, x7, x26, I_or_cg_cp_rs2_b27, I_or_cg_cp_rs2_b27_str)
     ab4:	000fa383          	lw	x7,0(x31)
     ab8:	01a38863          	beq	x7,x26,ac8 <I_or_cg_cp_rs2_b27+0x18>
     abc:	2190346f          	jal	x8,44d4 <failedtest_x8_x7>
     ac0:	00000ab0          	.word	0x00000ab0
     ac4:	000097cd          	.word	0x000097cd
     ac8:	004f8f93          	addi	x31,x31,4

# Testcase cp_rs2 (Test source rs2 = x28)
  RVTEST_TESTDATA_LOAD_INT(x11, x27) # load rs1: x27 = 0xa87a0140
     acc:	0005ad83          	lw	x27,0(x11)
     ad0:	00458593          	addi	x11,x11,4
  RVTEST_TESTDATA_LOAD_INT(x11, x28) # load rs2: x28 = 0xc23af90c
     ad4:	0005ae03          	lw	x28,0(x11)
     ad8:	00458593          	addi	x11,x11,4

00000adc <I_or_cg_cp_rs2_b28>:
I_or_cg_cp_rs2_b28:
  or x30, x27, x28 # perform operation
     adc:	01cdef33          	or	x30,x27,x28
  # Check if x30 contains the expected result. x31 is the signature ptr, x8 is the link ptr, x7 is a temp reg.
  RVTEST_SIGUPD(x31, x8, x7, x30, I_or_cg_cp_rs2_b28, I_or_cg_cp_rs2_b28_str)
     ae0:	000fa383          	lw	x7,0(x31)
     ae4:	01e38863          	beq	x7,x30,af4 <I_or_cg_cp_rs2_b28+0x18>
     ae8:	1ed0346f          	jal	x8,44d4 <failedtest_x8_x7>
     aec:	00000adc          	.word	0x00000adc
     af0:	000097fb          	.word	0x000097fb
     af4:	004f8f93          	addi	x31,x31,4

# Testcase cp_rs2 (Test source rs2 = x29)
  RVTEST_TESTDATA_LOAD_INT(x11, x16) # load rs1: x16 = 0x6037eacc
     af8:	0005a803          	lw	x16,0(x11)
     afc:	00458593          	addi	x11,x11,4
  RVTEST_TESTDATA_LOAD_INT(x11, x29) # load rs2: x29 = 0x35b844a6
     b00:	0005ae83          	lw	x29,0(x11)
     b04:	00458593          	addi	x11,x11,4

00000b08 <I_or_cg_cp_rs2_b29>:
I_or_cg_cp_rs2_b29:
  or x12, x16, x29 # perform operation
     b08:	01d86633          	or	x12,x16,x29
  # Check if x12 contains the expected result. x31 is the signature ptr, x8 is the link ptr, x7 is a temp reg.
  RVTEST_SIGUPD(x31, x8, x7, x12, I_or_cg_cp_rs2_b29, I_or_cg_cp_rs2_b29_str)
     b0c:	000fa383          	lw	x7,0(x31)
     b10:	00c38863          	beq	x7,x12,b20 <I_or_cg_cp_rs2_b29+0x18>
     b14:	1c10346f          	jal	x8,44d4 <failedtest_x8_x7>
     b18:	00000b08          	.word	0x00000b08
     b1c:	00009829          	.word	0x00009829
     b20:	004f8f93          	addi	x31,x31,4

# Testcase cp_rs2 (Test source rs2 = x30)
  RVTEST_TESTDATA_LOAD_INT(x11, x29) # load rs1: x29 = 0x7c582ba4
     b24:	0005ae83          	lw	x29,0(x11)
     b28:	00458593          	addi	x11,x11,4
  RVTEST_TESTDATA_LOAD_INT(x11, x30) # load rs2: x30 = 0x52cc8992
     b2c:	0005af03          	lw	x30,0(x11)
     b30:	00458593          	addi	x11,x11,4

00000b34 <I_or_cg_cp_rs2_b30>:
I_or_cg_cp_rs2_b30:
  or x6, x29, x30 # perform operation
     b34:	01eee333          	or	x6,x29,x30
  # Check if x6 contains the expected result. x31 is the signature ptr, x8 is the link ptr, x7 is a temp reg.
  RVTEST_SIGUPD(x31, x8, x7, x6, I_or_cg_cp_rs2_b30, I_or_cg_cp_rs2_b30_str)
     b38:	000fa383          	lw	x7,0(x31)
     b3c:	00638863          	beq	x7,x6,b4c <I_or_cg_cp_rs2_b30+0x18>
     b40:	1950346f          	jal	x8,44d4 <failedtest_x8_x7>
     b44:	00000b34          	.word	0x00000b34
     b48:	00009857          	.word	0x00009857
     b4c:	004f8f93          	addi	x31,x31,4

  mv x2, x31 # switch signature pointer register to avoid conflict with test
     b50:	000f8113          	addi	x2,x31,0
# Testcase cp_rs2 (Test source rs2 = x31)
  RVTEST_TESTDATA_LOAD_INT(x11, x23) # load rs1: x23 = 0xd8a353e8
     b54:	0005ab83          	lw	x23,0(x11)
     b58:	00458593          	addi	x11,x11,4
  RVTEST_TESTDATA_LOAD_INT(x11, x31) # load rs2: x31 = 0x2e793475
     b5c:	0005af83          	lw	x31,0(x11)
     b60:	00458593          	addi	x11,x11,4

00000b64 <I_or_cg_cp_rs2_b31>:
I_or_cg_cp_rs2_b31:
  or x28, x23, x31 # perform operation
     b64:	01fbee33          	or	x28,x23,x31
  # Check if x28 contains the expected result. x2 is the signature ptr, x8 is the link ptr, x7 is a temp reg.
  RVTEST_SIGUPD(x2, x8, x7, x28, I_or_cg_cp_rs2_b31, I_or_cg_cp_rs2_b31_str)
     b68:	00012383          	lw	x7,0(x2)
     b6c:	01c38863          	beq	x7,x28,b7c <I_or_cg_cp_rs2_b31+0x18>
     b70:	1650346f          	jal	x8,44d4 <failedtest_x8_x7>
     b74:	00000b64          	.word	0x00000b64
     b78:	00009885          	.word	0x00009885
     b7c:	00410113          	addi	x2,x2,4
/////////////////////////////////
// cp_rd
/////////////////////////////////

# Testcase cp_rd (Test destination rd = x0)
  RVTEST_TESTDATA_LOAD_INT(x11, x21) # load rs1: x21 = 0xa554d23f
     b80:	0005aa83          	lw	x21,0(x11)
     b84:	00458593          	addi	x11,x11,4
  RVTEST_TESTDATA_LOAD_INT(x11, x4) # load rs2: x4 = 0xafa72acf
     b88:	0005a203          	lw	x4,0(x11)
     b8c:	00458593          	addi	x11,x11,4

00000b90 <I_or_cg_cp_rd_b0>:
I_or_cg_cp_rd_b0:
  or x0, x21, x4 # perform operation
     b90:	004ae033          	or	x0,x21,x4
  # Check if x0 contains the expected result. x2 is the signature ptr, x8 is the link ptr, x7 is a temp reg.
  RVTEST_SIGUPD(x2, x8, x7, x0, I_or_cg_cp_rd_b0, I_or_cg_cp_rd_b0_str)
     b94:	00012383          	lw	x7,0(x2)
     b98:	00038863          	beq	x7,x0,ba8 <I_or_cg_cp_rd_b0+0x18>
     b9c:	1390346f          	jal	x8,44d4 <failedtest_x8_x7>
     ba0:	00000b90          	.word	0x00000b90
     ba4:	000098b3          	.word	0x000098b3
     ba8:	00410113          	addi	x2,x2,4

# Testcase cp_rd (Test destination rd = x1)
  RVTEST_TESTDATA_LOAD_INT(x11, x0) # load rs1: x0 = 0x7aed1212
     bac:	0005a003          	lw	x0,0(x11)
     bb0:	00458593          	addi	x11,x11,4
  RVTEST_TESTDATA_LOAD_INT(x11, x5) # load rs2: x5 = 0xd04f26b8
     bb4:	0005a283          	lw	x5,0(x11)
     bb8:	00458593          	addi	x11,x11,4

00000bbc <I_or_cg_cp_rd_b1>:
I_or_cg_cp_rd_b1:
  or x1, x0, x5 # perform operation
     bbc:	005060b3          	or	x1,x0,x5
  # Check if x1 contains the expected result. x2 is the signature ptr, x8 is the link ptr, x7 is a temp reg.
  RVTEST_SIGUPD(x2, x8, x7, x1, I_or_cg_cp_rd_b1, I_or_cg_cp_rd_b1_str)
     bc0:	00012383          	lw	x7,0(x2)
     bc4:	00138863          	beq	x7,x1,bd4 <I_or_cg_cp_rd_b1+0x18>
     bc8:	10d0346f          	jal	x8,44d4 <failedtest_x8_x7>
     bcc:	00000bbc          	.word	0x00000bbc
     bd0:	000098df          	.word	0x000098df
     bd4:	00410113          	addi	x2,x2,4

  mv x12, x2 # switch signature pointer register to avoid conflict with test
     bd8:	00010613          	addi	x12,x2,0
# Testcase cp_rd (Test destination rd = x2)
  RVTEST_TESTDATA_LOAD_INT(x11, x31) # load rs1: x31 = 0x346f1ef1
     bdc:	0005af83          	lw	x31,0(x11)
     be0:	00458593          	addi	x11,x11,4
  RVTEST_TESTDATA_LOAD_INT(x11, x13) # load rs2: x13 = 0x4df6d591
     be4:	0005a683          	lw	x13,0(x11)
     be8:	00458593          	addi	x11,x11,4

00000bec <I_or_cg_cp_rd_b2>:
I_or_cg_cp_rd_b2:
  or x2, x31, x13 # perform operation
     bec:	00dfe133          	or	x2,x31,x13
  # Check if x2 contains the expected result. x12 is the signature ptr, x8 is the link ptr, x7 is a temp reg.
  RVTEST_SIGUPD(x12, x8, x7, x2, I_or_cg_cp_rd_b2, I_or_cg_cp_rd_b2_str)
     bf0:	00062383          	lw	x7,0(x12)
     bf4:	00238863          	beq	x7,x2,c04 <I_or_cg_cp_rd_b2+0x18>
     bf8:	0dd0346f          	jal	x8,44d4 <failedtest_x8_x7>
     bfc:	00000bec          	.word	0x00000bec
     c00:	0000990b          	.word	0x0000990b
     c04:	00460613          	addi	x12,x12,4

# Testcase cp_rd (Test destination rd = x3)
  RVTEST_TESTDATA_LOAD_INT(x11, x31) # load rs1: x31 = 0x4fbec34b
     c08:	0005af83          	lw	x31,0(x11)
     c0c:	00458593          	addi	x11,x11,4
  RVTEST_TESTDATA_LOAD_INT(x11, x29) # load rs2: x29 = 0x696b05c8
     c10:	0005ae83          	lw	x29,0(x11)
     c14:	00458593          	addi	x11,x11,4

00000c18 <I_or_cg_cp_rd_b3>:
I_or_cg_cp_rd_b3:
  or x3, x31, x29 # perform operation
     c18:	01dfe1b3          	or	x3,x31,x29
  # Check if x3 contains the expected result. x12 is the signature ptr, x8 is the link ptr, x7 is a temp reg.
  RVTEST_SIGUPD(x12, x8, x7, x3, I_or_cg_cp_rd_b3, I_or_cg_cp_rd_b3_str)
     c1c:	00062383          	lw	x7,0(x12)
     c20:	00338863          	beq	x7,x3,c30 <I_or_cg_cp_rd_b3+0x18>
     c24:	0b10346f          	jal	x8,44d4 <failedtest_x8_x7>
     c28:	00000c18          	.word	0x00000c18
     c2c:	00009937          	.word	0x00009937
     c30:	00460613          	addi	x12,x12,4

# Testcase cp_rd (Test destination rd = x4)
  RVTEST_TESTDATA_LOAD_INT(x11, x1) # load rs1: x1 = 0xc1f2422c
     c34:	0005a083          	lw	x1,0(x11)
     c38:	00458593          	addi	x11,x11,4
  RVTEST_TESTDATA_LOAD_INT(x11, x21) # load rs2: x21 = 0x1f717314
     c3c:	0005aa83          	lw	x21,0(x11)
     c40:	00458593          	addi	x11,x11,4

00000c44 <I_or_cg_cp_rd_b4>:
I_or_cg_cp_rd_b4:
  or x4, x1, x21 # perform operation
     c44:	0150e233          	or	x4,x1,x21
  # Check if x4 contains the expected result. x12 is the signature ptr, x8 is the link ptr, x7 is a temp reg.
  RVTEST_SIGUPD(x12, x8, x7, x4, I_or_cg_cp_rd_b4, I_or_cg_cp_rd_b4_str)
     c48:	00062383          	lw	x7,0(x12)
     c4c:	00438863          	beq	x7,x4,c5c <I_or_cg_cp_rd_b4+0x18>
     c50:	0850346f          	jal	x8,44d4 <failedtest_x8_x7>
     c54:	00000c44          	.word	0x00000c44
     c58:	00009963          	.word	0x00009963
     c5c:	00460613          	addi	x12,x12,4

# Testcase cp_rd (Test destination rd = x5)
  RVTEST_TESTDATA_LOAD_INT(x11, x25) # load rs1: x25 = 0x60fbac85
     c60:	0005ac83          	lw	x25,0(x11)
     c64:	00458593          	addi	x11,x11,4
  RVTEST_TESTDATA_LOAD_INT(x11, x0) # load rs2: x0 = 0x5da1865a
     c68:	0005a003          	lw	x0,0(x11)
     c6c:	00458593          	addi	x11,x11,4

00000c70 <I_or_cg_cp_rd_b5>:
I_or_cg_cp_rd_b5:
  or x5, x25, x0 # perform operation
     c70:	000ce2b3          	or	x5,x25,x0
  # Check if x5 contains the expected result. x12 is the signature ptr, x8 is the link ptr, x7 is a temp reg.
  RVTEST_SIGUPD(x12, x8, x7, x5, I_or_cg_cp_rd_b5, I_or_cg_cp_rd_b5_str)
     c74:	00062383          	lw	x7,0(x12)
     c78:	00538863          	beq	x7,x5,c88 <I_or_cg_cp_rd_b5+0x18>
     c7c:	0590346f          	jal	x8,44d4 <failedtest_x8_x7>
     c80:	00000c70          	.word	0x00000c70
     c84:	0000998f          	.word	0x0000998f
     c88:	00460613          	addi	x12,x12,4

# Testcase cp_rd (Test destination rd = x6)
  RVTEST_TESTDATA_LOAD_INT(x11, x10) # load rs1: x10 = 0x14621ec8
     c8c:	0005a503          	lw	x10,0(x11)
     c90:	00458593          	addi	x11,x11,4
  RVTEST_TESTDATA_LOAD_INT(x11, x24) # load rs2: x24 = 0x85b4c357
     c94:	0005ac03          	lw	x24,0(x11)
     c98:	00458593          	addi	x11,x11,4

00000c9c <I_or_cg_cp_rd_b6>:
I_or_cg_cp_rd_b6:
  or x6, x10, x24 # perform operation
     c9c:	01856333          	or	x6,x10,x24
  # Check if x6 contains the expected result. x12 is the signature ptr, x8 is the link ptr, x7 is a temp reg.
  RVTEST_SIGUPD(x12, x8, x7, x6, I_or_cg_cp_rd_b6, I_or_cg_cp_rd_b6_str)
     ca0:	00062383          	lw	x7,0(x12)
     ca4:	00638863          	beq	x7,x6,cb4 <I_or_cg_cp_rd_b6+0x18>
     ca8:	02d0346f          	jal	x8,44d4 <failedtest_x8_x7>
     cac:	00000c9c          	.word	0x00000c9c
     cb0:	000099bb          	.word	0x000099bb
     cb4:	00460613          	addi	x12,x12,4

  mv x13, x7 # switch temp register to avoid conflict with test
     cb8:	00038693          	addi	x13,x7,0
  mv x14, x8 # switch link pointer register to avoid conflict with test
     cbc:	00040713          	addi	x14,x8,0
# Testcase cp_rd (Test destination rd = x7)
  RVTEST_TESTDATA_LOAD_INT(x11, x26) # load rs1: x26 = 0xb31bdd68
     cc0:	0005ad03          	lw	x26,0(x11)
     cc4:	00458593          	addi	x11,x11,4
  RVTEST_TESTDATA_LOAD_INT(x11, x10) # load rs2: x10 = 0xe717f83c
     cc8:	0005a503          	lw	x10,0(x11)
     ccc:	00458593          	addi	x11,x11,4

00000cd0 <I_or_cg_cp_rd_b7>:
I_or_cg_cp_rd_b7:
  or x7, x26, x10 # perform operation
     cd0:	00ad63b3          	or	x7,x26,x10
  # Check if x7 contains the expected result. x12 is the signature ptr, x14 is the link ptr, x13 is a temp reg.
  RVTEST_SIGUPD(x12, x14, x13, x7, I_or_cg_cp_rd_b7, I_or_cg_cp_rd_b7_str)
     cd4:	00062683          	lw	x13,0(x12)
     cd8:	00768863          	beq	x13,x7,ce8 <I_or_cg_cp_rd_b7+0x18>
     cdc:	0210376f          	jal	x14,44fc <failedtest_x14_x13>
     ce0:	00000cd0          	.word	0x00000cd0
     ce4:	000099e7          	.word	0x000099e7
     ce8:	00460613          	addi	x12,x12,4

# Testcase cp_rd (Test destination rd = x8)
  RVTEST_TESTDATA_LOAD_INT(x11, x20) # load rs1: x20 = 0xb66c951e
     cec:	0005aa03          	lw	x20,0(x11)
     cf0:	00458593          	addi	x11,x11,4
  RVTEST_TESTDATA_LOAD_INT(x11, x9) # load rs2: x9 = 0x9a6bd328
     cf4:	0005a483          	lw	x9,0(x11)
     cf8:	00458593          	addi	x11,x11,4

00000cfc <I_or_cg_cp_rd_b8>:
I_or_cg_cp_rd_b8:
  or x8, x20, x9 # perform operation
     cfc:	009a6433          	or	x8,x20,x9
  # Check if x8 contains the expected result. x12 is the signature ptr, x14 is the link ptr, x13 is a temp reg.
  RVTEST_SIGUPD(x12, x14, x13, x8, I_or_cg_cp_rd_b8, I_or_cg_cp_rd_b8_str)
     d00:	00062683          	lw	x13,0(x12)
     d04:	00868863          	beq	x13,x8,d14 <I_or_cg_cp_rd_b8+0x18>
     d08:	7f40376f          	jal	x14,44fc <failedtest_x14_x13>
     d0c:	00000cfc          	.word	0x00000cfc
     d10:	00009a13          	.word	0x00009a13
     d14:	00460613          	addi	x12,x12,4

# Testcase cp_rd (Test destination rd = x9)
  RVTEST_TESTDATA_LOAD_INT(x11, x24) # load rs1: x24 = 0x0f840215
     d18:	0005ac03          	lw	x24,0(x11)
     d1c:	00458593          	addi	x11,x11,4
  RVTEST_TESTDATA_LOAD_INT(x11, x30) # load rs2: x30 = 0x780a551c
     d20:	0005af03          	lw	x30,0(x11)
     d24:	00458593          	addi	x11,x11,4

00000d28 <I_or_cg_cp_rd_b9>:
I_or_cg_cp_rd_b9:
  or x9, x24, x30 # perform operation
     d28:	01ec64b3          	or	x9,x24,x30
  # Check if x9 contains the expected result. x12 is the signature ptr, x14 is the link ptr, x13 is a temp reg.
  RVTEST_SIGUPD(x12, x14, x13, x9, I_or_cg_cp_rd_b9, I_or_cg_cp_rd_b9_str)
     d2c:	00062683          	lw	x13,0(x12)
     d30:	00968863          	beq	x13,x9,d40 <I_or_cg_cp_rd_b9+0x18>
     d34:	7c80376f          	jal	x14,44fc <failedtest_x14_x13>
     d38:	00000d28          	.word	0x00000d28
     d3c:	00009a3f          	.word	0x00009a3f
     d40:	00460613          	addi	x12,x12,4

# Testcase cp_rd (Test destination rd = x10)
  RVTEST_TESTDATA_LOAD_INT(x11, x8) # load rs1: x8 = 0x5611f61b
     d44:	0005a403          	lw	x8,0(x11)
     d48:	00458593          	addi	x11,x11,4
  RVTEST_TESTDATA_LOAD_INT(x11, x6) # load rs2: x6 = 0x107e6e32
     d4c:	0005a303          	lw	x6,0(x11)
     d50:	00458593          	addi	x11,x11,4

00000d54 <I_or_cg_cp_rd_b10>:
I_or_cg_cp_rd_b10:
  or x10, x8, x6 # perform operation
     d54:	00646533          	or	x10,x8,x6
  # Check if x10 contains the expected result. x12 is the signature ptr, x14 is the link ptr, x13 is a temp reg.
  RVTEST_SIGUPD(x12, x14, x13, x10, I_or_cg_cp_rd_b10, I_or_cg_cp_rd_b10_str)
     d58:	00062683          	lw	x13,0(x12)
     d5c:	00a68863          	beq	x13,x10,d6c <I_or_cg_cp_rd_b10+0x18>
     d60:	79c0376f          	jal	x14,44fc <failedtest_x14_x13>
     d64:	00000d54          	.word	0x00000d54
     d68:	00009a6b          	.word	0x00009a6b
     d6c:	00460613          	addi	x12,x12,4

  mv x20, x11 # switch data pointer register to avoid conflict with test
     d70:	00058a13          	addi	x20,x11,0
# Testcase cp_rd (Test destination rd = x11)
  RVTEST_TESTDATA_LOAD_INT(x20, x31) # load rs1: x31 = 0xac74dd38
     d74:	000a2f83          	lw	x31,0(x20)
     d78:	004a0a13          	addi	x20,x20,4
  RVTEST_TESTDATA_LOAD_INT(x20, x26) # load rs2: x26 = 0xd3515028
     d7c:	000a2d03          	lw	x26,0(x20)
     d80:	004a0a13          	addi	x20,x20,4

00000d84 <I_or_cg_cp_rd_b11>:
I_or_cg_cp_rd_b11:
  or x11, x31, x26 # perform operation
     d84:	01afe5b3          	or	x11,x31,x26
  # Check if x11 contains the expected result. x12 is the signature ptr, x14 is the link ptr, x13 is a temp reg.
  RVTEST_SIGUPD(x12, x14, x13, x11, I_or_cg_cp_rd_b11, I_or_cg_cp_rd_b11_str)
     d88:	00062683          	lw	x13,0(x12)
     d8c:	00b68863          	beq	x13,x11,d9c <I_or_cg_cp_rd_b11+0x18>
     d90:	76c0376f          	jal	x14,44fc <failedtest_x14_x13>
     d94:	00000d84          	.word	0x00000d84
     d98:	00009a98          	.word	0x00009a98
     d9c:	00460613          	addi	x12,x12,4

  mv x23, x12 # switch signature pointer register to avoid conflict with test
     da0:	00060b93          	addi	x23,x12,0
# Testcase cp_rd (Test destination rd = x12)
  RVTEST_TESTDATA_LOAD_INT(x20, x28) # load rs1: x28 = 0x693bebfc
     da4:	000a2e03          	lw	x28,0(x20)
     da8:	004a0a13          	addi	x20,x20,4
  RVTEST_TESTDATA_LOAD_INT(x20, x6) # load rs2: x6 = 0x1e9d3612
     dac:	000a2303          	lw	x6,0(x20)
     db0:	004a0a13          	addi	x20,x20,4

00000db4 <I_or_cg_cp_rd_b12>:
I_or_cg_cp_rd_b12:
  or x12, x28, x6 # perform operation
     db4:	006e6633          	or	x12,x28,x6
  # Check if x12 contains the expected result. x23 is the signature ptr, x14 is the link ptr, x13 is a temp reg.
  RVTEST_SIGUPD(x23, x14, x13, x12, I_or_cg_cp_rd_b12, I_or_cg_cp_rd_b12_str)
     db8:	000ba683          	lw	x13,0(x23)
     dbc:	00c68863          	beq	x13,x12,dcc <I_or_cg_cp_rd_b12+0x18>
     dc0:	73c0376f          	jal	x14,44fc <failedtest_x14_x13>
     dc4:	00000db4          	.word	0x00000db4
     dc8:	00009ac5          	.word	0x00009ac5
     dcc:	004b8b93          	addi	x23,x23,4

  mv x4, x13 # switch temp register to avoid conflict with test
     dd0:	00068213          	addi	x4,x13,0
  mv x5, x14 # switch link pointer register to avoid conflict with test
     dd4:	00070293          	addi	x5,x14,0
# Testcase cp_rd (Test destination rd = x13)
  RVTEST_TESTDATA_LOAD_INT(x20, x18) # load rs1: x18 = 0xbeaea789
     dd8:	000a2903          	lw	x18,0(x20)
     ddc:	004a0a13          	addi	x20,x20,4
  RVTEST_TESTDATA_LOAD_INT(x20, x10) # load rs2: x10 = 0x3d392ca5
     de0:	000a2503          	lw	x10,0(x20)
     de4:	004a0a13          	addi	x20,x20,4

00000de8 <I_or_cg_cp_rd_b13>:
I_or_cg_cp_rd_b13:
  or x13, x18, x10 # perform operation
     de8:	00a966b3          	or	x13,x18,x10
  # Check if x13 contains the expected result. x23 is the signature ptr, x5 is the link ptr, x4 is a temp reg.
  RVTEST_SIGUPD(x23, x5, x4, x13, I_or_cg_cp_rd_b13, I_or_cg_cp_rd_b13_str)
     dec:	000ba203          	lw	x4,0(x23)
     df0:	00d20863          	beq	x4,x13,e00 <I_or_cg_cp_rd_b13+0x18>
     df4:	6c8032ef          	jal	x5,44bc <failedtest_x5_x4>
     df8:	00000de8          	.word	0x00000de8
     dfc:	00009af2          	.word	0x00009af2
     e00:	004b8b93          	addi	x23,x23,4

# Testcase cp_rd (Test destination rd = x14)
  RVTEST_TESTDATA_LOAD_INT(x20, x3) # load rs1: x3 = 0xdc3bdd00
     e04:	000a2183          	lw	x3,0(x20)
     e08:	004a0a13          	addi	x20,x20,4
  RVTEST_TESTDATA_LOAD_INT(x20, x28) # load rs2: x28 = 0xa62afa47
     e0c:	000a2e03          	lw	x28,0(x20)
     e10:	004a0a13          	addi	x20,x20,4

00000e14 <I_or_cg_cp_rd_b14>:
I_or_cg_cp_rd_b14:
  or x14, x3, x28 # perform operation
     e14:	01c1e733          	or	x14,x3,x28
  # Check if x14 contains the expected result. x23 is the signature ptr, x5 is the link ptr, x4 is a temp reg.
  RVTEST_SIGUPD(x23, x5, x4, x14, I_or_cg_cp_rd_b14, I_or_cg_cp_rd_b14_str)
     e18:	000ba203          	lw	x4,0(x23)
     e1c:	00e20863          	beq	x4,x14,e2c <I_or_cg_cp_rd_b14+0x18>
     e20:	69c032ef          	jal	x5,44bc <failedtest_x5_x4>
     e24:	00000e14          	.word	0x00000e14
     e28:	00009b1f          	.word	0x00009b1f
     e2c:	004b8b93          	addi	x23,x23,4

# Testcase cp_rd (Test destination rd = x15)
  RVTEST_TESTDATA_LOAD_INT(x20, x12) # load rs1: x12 = 0xf04a6f9e
     e30:	000a2603          	lw	x12,0(x20)
     e34:	004a0a13          	addi	x20,x20,4
  RVTEST_TESTDATA_LOAD_INT(x20, x29) # load rs2: x29 = 0x29fc82db
     e38:	000a2e83          	lw	x29,0(x20)
     e3c:	004a0a13          	addi	x20,x20,4

00000e40 <I_or_cg_cp_rd_b15>:
I_or_cg_cp_rd_b15:
  or x15, x12, x29 # perform operation
     e40:	01d667b3          	or	x15,x12,x29
  # Check if x15 contains the expected result. x23 is the signature ptr, x5 is the link ptr, x4 is a temp reg.
  RVTEST_SIGUPD(x23, x5, x4, x15, I_or_cg_cp_rd_b15, I_or_cg_cp_rd_b15_str)
     e44:	000ba203          	lw	x4,0(x23)
     e48:	00f20863          	beq	x4,x15,e58 <I_or_cg_cp_rd_b15+0x18>
     e4c:	670032ef          	jal	x5,44bc <failedtest_x5_x4>
     e50:	00000e40          	.word	0x00000e40
     e54:	00009b4c          	.word	0x00009b4c
     e58:	004b8b93          	addi	x23,x23,4

# Testcase cp_rd (Test destination rd = x16)
  RVTEST_TESTDATA_LOAD_INT(x20, x2) # load rs1: x2 = 0x19d5d244
     e5c:	000a2103          	lw	x2,0(x20)
     e60:	004a0a13          	addi	x20,x20,4
  RVTEST_TESTDATA_LOAD_INT(x20, x8) # load rs2: x8 = 0xe93820dc
     e64:	000a2403          	lw	x8,0(x20)
     e68:	004a0a13          	addi	x20,x20,4

00000e6c <I_or_cg_cp_rd_b16>:
I_or_cg_cp_rd_b16:
  or x16, x2, x8 # perform operation
     e6c:	00816833          	or	x16,x2,x8
  # Check if x16 contains the expected result. x23 is the signature ptr, x5 is the link ptr, x4 is a temp reg.
  RVTEST_SIGUPD(x23, x5, x4, x16, I_or_cg_cp_rd_b16, I_or_cg_cp_rd_b16_str)
     e70:	000ba203          	lw	x4,0(x23)
     e74:	01020863          	beq	x4,x16,e84 <I_or_cg_cp_rd_b16+0x18>
     e78:	644032ef          	jal	x5,44bc <failedtest_x5_x4>
     e7c:	00000e6c          	.word	0x00000e6c
     e80:	00009b79          	.word	0x00009b79
     e84:	004b8b93          	addi	x23,x23,4

# Testcase cp_rd (Test destination rd = x17)
  RVTEST_TESTDATA_LOAD_INT(x20, x25) # load rs1: x25 = 0x3274429f
     e88:	000a2c83          	lw	x25,0(x20)
     e8c:	004a0a13          	addi	x20,x20,4
  RVTEST_TESTDATA_LOAD_INT(x20, x16) # load rs2: x16 = 0xf0dcb139
     e90:	000a2803          	lw	x16,0(x20)
     e94:	004a0a13          	addi	x20,x20,4

00000e98 <I_or_cg_cp_rd_b17>:
I_or_cg_cp_rd_b17:
  or x17, x25, x16 # perform operation
     e98:	010ce8b3          	or	x17,x25,x16
  # Check if x17 contains the expected result. x23 is the signature ptr, x5 is the link ptr, x4 is a temp reg.
  RVTEST_SIGUPD(x23, x5, x4, x17, I_or_cg_cp_rd_b17, I_or_cg_cp_rd_b17_str)
     e9c:	000ba203          	lw	x4,0(x23)
     ea0:	01120863          	beq	x4,x17,eb0 <I_or_cg_cp_rd_b17+0x18>
     ea4:	618032ef          	jal	x5,44bc <failedtest_x5_x4>
     ea8:	00000e98          	.word	0x00000e98
     eac:	00009ba6          	.word	0x00009ba6
     eb0:	004b8b93          	addi	x23,x23,4

# Testcase cp_rd (Test destination rd = x18)
  RVTEST_TESTDATA_LOAD_INT(x20, x2) # load rs1: x2 = 0x14c341ba
     eb4:	000a2103          	lw	x2,0(x20)
     eb8:	004a0a13          	addi	x20,x20,4
  RVTEST_TESTDATA_LOAD_INT(x20, x17) # load rs2: x17 = 0x54224bb0
     ebc:	000a2883          	lw	x17,0(x20)
     ec0:	004a0a13          	addi	x20,x20,4

00000ec4 <I_or_cg_cp_rd_b18>:
I_or_cg_cp_rd_b18:
  or x18, x2, x17 # perform operation
     ec4:	01116933          	or	x18,x2,x17
  # Check if x18 contains the expected result. x23 is the signature ptr, x5 is the link ptr, x4 is a temp reg.
  RVTEST_SIGUPD(x23, x5, x4, x18, I_or_cg_cp_rd_b18, I_or_cg_cp_rd_b18_str)
     ec8:	000ba203          	lw	x4,0(x23)
     ecc:	01220863          	beq	x4,x18,edc <I_or_cg_cp_rd_b18+0x18>
     ed0:	5ec032ef          	jal	x5,44bc <failedtest_x5_x4>
     ed4:	00000ec4          	.word	0x00000ec4
     ed8:	00009bd3          	.word	0x00009bd3
     edc:	004b8b93          	addi	x23,x23,4

# Testcase cp_rd (Test destination rd = x19)
  RVTEST_TESTDATA_LOAD_INT(x20, x7) # load rs1: x7 = 0x78ef5385
     ee0:	000a2383          	lw	x7,0(x20)
     ee4:	004a0a13          	addi	x20,x20,4
  RVTEST_TESTDATA_LOAD_INT(x20, x18) # load rs2: x18 = 0x91ed1259
     ee8:	000a2903          	lw	x18,0(x20)
     eec:	004a0a13          	addi	x20,x20,4

00000ef0 <I_or_cg_cp_rd_b19>:
I_or_cg_cp_rd_b19:
  or x19, x7, x18 # perform operation
     ef0:	0123e9b3          	or	x19,x7,x18
  # Check if x19 contains the expected result. x23 is the signature ptr, x5 is the link ptr, x4 is a temp reg.
  RVTEST_SIGUPD(x23, x5, x4, x19, I_or_cg_cp_rd_b19, I_or_cg_cp_rd_b19_str)
     ef4:	000ba203          	lw	x4,0(x23)
     ef8:	01320863          	beq	x4,x19,f08 <I_or_cg_cp_rd_b19+0x18>
     efc:	5c0032ef          	jal	x5,44bc <failedtest_x5_x4>
     f00:	00000ef0          	.word	0x00000ef0
     f04:	00009c00          	.word	0x00009c00
     f08:	004b8b93          	addi	x23,x23,4

  mv x30, x20 # switch data pointer register to avoid conflict with test
     f0c:	000a0f13          	addi	x30,x20,0
# Testcase cp_rd (Test destination rd = x20)
  RVTEST_TESTDATA_LOAD_INT(x30, x24) # load rs1: x24 = 0x858815ff
     f10:	000f2c03          	lw	x24,0(x30)
     f14:	004f0f13          	addi	x30,x30,4
  RVTEST_TESTDATA_LOAD_INT(x30, x9) # load rs2: x9 = 0x572d4ccb
     f18:	000f2483          	lw	x9,0(x30)
     f1c:	004f0f13          	addi	x30,x30,4

00000f20 <I_or_cg_cp_rd_b20>:
I_or_cg_cp_rd_b20:
  or x20, x24, x9 # perform operation
     f20:	009c6a33          	or	x20,x24,x9
  # Check if x20 contains the expected result. x23 is the signature ptr, x5 is the link ptr, x4 is a temp reg.
  RVTEST_SIGUPD(x23, x5, x4, x20, I_or_cg_cp_rd_b20, I_or_cg_cp_rd_b20_str)
     f24:	000ba203          	lw	x4,0(x23)
     f28:	01420863          	beq	x4,x20,f38 <I_or_cg_cp_rd_b20+0x18>
     f2c:	590032ef          	jal	x5,44bc <failedtest_x5_x4>
     f30:	00000f20          	.word	0x00000f20
     f34:	00009c2d          	.word	0x00009c2d
     f38:	004b8b93          	addi	x23,x23,4

# Testcase cp_rd (Test destination rd = x21)
  RVTEST_TESTDATA_LOAD_INT(x30, x2) # load rs1: x2 = 0xf8962e39
     f3c:	000f2103          	lw	x2,0(x30)
     f40:	004f0f13          	addi	x30,x30,4
  RVTEST_TESTDATA_LOAD_INT(x30, x18) # load rs2: x18 = 0x8e584118
     f44:	000f2903          	lw	x18,0(x30)
     f48:	004f0f13          	addi	x30,x30,4

00000f4c <I_or_cg_cp_rd_b21>:
I_or_cg_cp_rd_b21:
  or x21, x2, x18 # perform operation
     f4c:	01216ab3          	or	x21,x2,x18
  # Check if x21 contains the expected result. x23 is the signature ptr, x5 is the link ptr, x4 is a temp reg.
  RVTEST_SIGUPD(x23, x5, x4, x21, I_or_cg_cp_rd_b21, I_or_cg_cp_rd_b21_str)
     f50:	000ba203          	lw	x4,0(x23)
     f54:	01520863          	beq	x4,x21,f64 <I_or_cg_cp_rd_b21+0x18>
     f58:	564032ef          	jal	x5,44bc <failedtest_x5_x4>
     f5c:	00000f4c          	.word	0x00000f4c
     f60:	00009c5a          	.word	0x00009c5a
     f64:	004b8b93          	addi	x23,x23,4

# Testcase cp_rd (Test destination rd = x22)
  RVTEST_TESTDATA_LOAD_INT(x30, x13) # load rs1: x13 = 0x8a70e249
     f68:	000f2683          	lw	x13,0(x30)
     f6c:	004f0f13          	addi	x30,x30,4
  RVTEST_TESTDATA_LOAD_INT(x30, x20) # load rs2: x20 = 0x587c8791
     f70:	000f2a03          	lw	x20,0(x30)
     f74:	004f0f13          	addi	x30,x30,4

00000f78 <I_or_cg_cp_rd_b22>:
I_or_cg_cp_rd_b22:
  or x22, x13, x20 # perform operation
     f78:	0146eb33          	or	x22,x13,x20
  # Check if x22 contains the expected result. x23 is the signature ptr, x5 is the link ptr, x4 is a temp reg.
  RVTEST_SIGUPD(x23, x5, x4, x22, I_or_cg_cp_rd_b22, I_or_cg_cp_rd_b22_str)
     f7c:	000ba203          	lw	x4,0(x23)
     f80:	01620863          	beq	x4,x22,f90 <I_or_cg_cp_rd_b22+0x18>
     f84:	538032ef          	jal	x5,44bc <failedtest_x5_x4>
     f88:	00000f78          	.word	0x00000f78
     f8c:	00009c87          	.word	0x00009c87
     f90:	004b8b93          	addi	x23,x23,4

  mv x11, x23 # switch signature pointer register to avoid conflict with test
     f94:	000b8593          	addi	x11,x23,0
# Testcase cp_rd (Test destination rd = x23)
  RVTEST_TESTDATA_LOAD_INT(x30, x18) # load rs1: x18 = 0xc2500ff6
     f98:	000f2903          	lw	x18,0(x30)
     f9c:	004f0f13          	addi	x30,x30,4
  RVTEST_TESTDATA_LOAD_INT(x30, x3) # load rs2: x3 = 0x67d5b263
     fa0:	000f2183          	lw	x3,0(x30)
     fa4:	004f0f13          	addi	x30,x30,4

00000fa8 <I_or_cg_cp_rd_b23>:
I_or_cg_cp_rd_b23:
  or x23, x18, x3 # perform operation
     fa8:	00396bb3          	or	x23,x18,x3
  # Check if x23 contains the expected result. x11 is the signature ptr, x5 is the link ptr, x4 is a temp reg.
  RVTEST_SIGUPD(x11, x5, x4, x23, I_or_cg_cp_rd_b23, I_or_cg_cp_rd_b23_str)
     fac:	0005a203          	lw	x4,0(x11)
     fb0:	01720863          	beq	x4,x23,fc0 <I_or_cg_cp_rd_b23+0x18>
     fb4:	508032ef          	jal	x5,44bc <failedtest_x5_x4>
     fb8:	00000fa8          	.word	0x00000fa8
     fbc:	00009cb4          	.word	0x00009cb4
     fc0:	00458593          	addi	x11,x11,4

# Testcase cp_rd (Test destination rd = x24)
  RVTEST_TESTDATA_LOAD_INT(x30, x22) # load rs1: x22 = 0x2ad75928
     fc4:	000f2b03          	lw	x22,0(x30)
     fc8:	004f0f13          	addi	x30,x30,4
  RVTEST_TESTDATA_LOAD_INT(x30, x27) # load rs2: x27 = 0x7a19940d
     fcc:	000f2d83          	lw	x27,0(x30)
     fd0:	004f0f13          	addi	x30,x30,4

00000fd4 <I_or_cg_cp_rd_b24>:
I_or_cg_cp_rd_b24:
  or x24, x22, x27 # perform operation
     fd4:	01bb6c33          	or	x24,x22,x27
  # Check if x24 contains the expected result. x11 is the signature ptr, x5 is the link ptr, x4 is a temp reg.
  RVTEST_SIGUPD(x11, x5, x4, x24, I_or_cg_cp_rd_b24, I_or_cg_cp_rd_b24_str)
     fd8:	0005a203          	lw	x4,0(x11)
     fdc:	01820863          	beq	x4,x24,fec <I_or_cg_cp_rd_b24+0x18>
     fe0:	4dc032ef          	jal	x5,44bc <failedtest_x5_x4>
     fe4:	00000fd4          	.word	0x00000fd4
     fe8:	00009ce1          	.word	0x00009ce1
     fec:	00458593          	addi	x11,x11,4

# Testcase cp_rd (Test destination rd = x25)
  RVTEST_TESTDATA_LOAD_INT(x30, x26) # load rs1: x26 = 0x8d5242bf
     ff0:	000f2d03          	lw	x26,0(x30)
     ff4:	004f0f13          	addi	x30,x30,4
  RVTEST_TESTDATA_LOAD_INT(x30, x0) # load rs2: x0 = 0xa59b002b
     ff8:	000f2003          	lw	x0,0(x30)
     ffc:	004f0f13          	addi	x30,x30,4

00001000 <I_or_cg_cp_rd_b25>:
I_or_cg_cp_rd_b25:
  or x25, x26, x0 # perform operation
    1000:	000d6cb3          	or	x25,x26,x0
  # Check if x25 contains the expected result. x11 is the signature ptr, x5 is the link ptr, x4 is a temp reg.
  RVTEST_SIGUPD(x11, x5, x4, x25, I_or_cg_cp_rd_b25, I_or_cg_cp_rd_b25_str)
    1004:	0005a203          	lw	x4,0(x11)
    1008:	01920863          	beq	x4,x25,1018 <I_or_cg_cp_rd_b25+0x18>
    100c:	4b0032ef          	jal	x5,44bc <failedtest_x5_x4>
    1010:	00001000          	.word	0x00001000
    1014:	00009d0e          	.word	0x00009d0e
    1018:	00458593          	addi	x11,x11,4

# Testcase cp_rd (Test destination rd = x26)
  RVTEST_TESTDATA_LOAD_INT(x30, x23) # load rs1: x23 = 0xbc2e6870
    101c:	000f2b83          	lw	x23,0(x30)
    1020:	004f0f13          	addi	x30,x30,4
  RVTEST_TESTDATA_LOAD_INT(x30, x27) # load rs2: x27 = 0xb4bdb61a
    1024:	000f2d83          	lw	x27,0(x30)
    1028:	004f0f13          	addi	x30,x30,4

0000102c <I_or_cg_cp_rd_b26>:
I_or_cg_cp_rd_b26:
  or x26, x23, x27 # perform operation
    102c:	01bbed33          	or	x26,x23,x27
  # Check if x26 contains the expected result. x11 is the signature ptr, x5 is the link ptr, x4 is a temp reg.
  RVTEST_SIGUPD(x11, x5, x4, x26, I_or_cg_cp_rd_b26, I_or_cg_cp_rd_b26_str)
    1030:	0005a203          	lw	x4,0(x11)
    1034:	01a20863          	beq	x4,x26,1044 <I_or_cg_cp_rd_b26+0x18>
    1038:	484032ef          	jal	x5,44bc <failedtest_x5_x4>
    103c:	0000102c          	.word	0x0000102c
    1040:	00009d3b          	.word	0x00009d3b
    1044:	00458593          	addi	x11,x11,4

# Testcase cp_rd (Test destination rd = x27)
  RVTEST_TESTDATA_LOAD_INT(x30, x26) # load rs1: x26 = 0x083cb269
    1048:	000f2d03          	lw	x26,0(x30)
    104c:	004f0f13          	addi	x30,x30,4
  RVTEST_TESTDATA_LOAD_INT(x30, x12) # load rs2: x12 = 0x495ca3f0
    1050:	000f2603          	lw	x12,0(x30)
    1054:	004f0f13          	addi	x30,x30,4

00001058 <I_or_cg_cp_rd_b27>:
I_or_cg_cp_rd_b27:
  or x27, x26, x12 # perform operation
    1058:	00cd6db3          	or	x27,x26,x12
  # Check if x27 contains the expected result. x11 is the signature ptr, x5 is the link ptr, x4 is a temp reg.
  RVTEST_SIGUPD(x11, x5, x4, x27, I_or_cg_cp_rd_b27, I_or_cg_cp_rd_b27_str)
    105c:	0005a203          	lw	x4,0(x11)
    1060:	01b20863          	beq	x4,x27,1070 <I_or_cg_cp_rd_b27+0x18>
    1064:	458032ef          	jal	x5,44bc <failedtest_x5_x4>
    1068:	00001058          	.word	0x00001058
    106c:	00009d68          	.word	0x00009d68
    1070:	00458593          	addi	x11,x11,4

# Testcase cp_rd (Test destination rd = x28)
  RVTEST_TESTDATA_LOAD_INT(x30, x12) # load rs1: x12 = 0x2e2c8471
    1074:	000f2603          	lw	x12,0(x30)
    1078:	004f0f13          	addi	x30,x30,4
  RVTEST_TESTDATA_LOAD_INT(x30, x1) # load rs2: x1 = 0x2c7460c8
    107c:	000f2083          	lw	x1,0(x30)
    1080:	004f0f13          	addi	x30,x30,4

00001084 <I_or_cg_cp_rd_b28>:
I_or_cg_cp_rd_b28:
  or x28, x12, x1 # perform operation
    1084:	00166e33          	or	x28,x12,x1
  # Check if x28 contains the expected result. x11 is the signature ptr, x5 is the link ptr, x4 is a temp reg.
  RVTEST_SIGUPD(x11, x5, x4, x28, I_or_cg_cp_rd_b28, I_or_cg_cp_rd_b28_str)
    1088:	0005a203          	lw	x4,0(x11)
    108c:	01c20863          	beq	x4,x28,109c <I_or_cg_cp_rd_b28+0x18>
    1090:	42c032ef          	jal	x5,44bc <failedtest_x5_x4>
    1094:	00001084          	.word	0x00001084
    1098:	00009d95          	.word	0x00009d95
    109c:	00458593          	addi	x11,x11,4

# Testcase cp_rd (Test destination rd = x29)
  RVTEST_TESTDATA_LOAD_INT(x30, x22) # load rs1: x22 = 0x31e3d13c
    10a0:	000f2b03          	lw	x22,0(x30)
    10a4:	004f0f13          	addi	x30,x30,4
  RVTEST_TESTDATA_LOAD_INT(x30, x1) # load rs2: x1 = 0x201e18e6
    10a8:	000f2083          	lw	x1,0(x30)
    10ac:	004f0f13          	addi	x30,x30,4

000010b0 <I_or_cg_cp_rd_b29>:
I_or_cg_cp_rd_b29:
  or x29, x22, x1 # perform operation
    10b0:	001b6eb3          	or	x29,x22,x1
  # Check if x29 contains the expected result. x11 is the signature ptr, x5 is the link ptr, x4 is a temp reg.
  RVTEST_SIGUPD(x11, x5, x4, x29, I_or_cg_cp_rd_b29, I_or_cg_cp_rd_b29_str)
    10b4:	0005a203          	lw	x4,0(x11)
    10b8:	01d20863          	beq	x4,x29,10c8 <I_or_cg_cp_rd_b29+0x18>
    10bc:	400032ef          	jal	x5,44bc <failedtest_x5_x4>
    10c0:	000010b0          	.word	0x000010b0
    10c4:	00009dc2          	.word	0x00009dc2
    10c8:	00458593          	addi	x11,x11,4

  mv x24, x30 # switch data pointer register to avoid conflict with test
    10cc:	000f0c13          	addi	x24,x30,0
# Testcase cp_rd (Test destination rd = x30)
  RVTEST_TESTDATA_LOAD_INT(x24, x0) # load rs1: x0 = 0x2d48b1ca
    10d0:	000c2003          	lw	x0,0(x24)
    10d4:	004c0c13          	addi	x24,x24,4
  RVTEST_TESTDATA_LOAD_INT(x24, x7) # load rs2: x7 = 0x33d2351f
    10d8:	000c2383          	lw	x7,0(x24)
    10dc:	004c0c13          	addi	x24,x24,4

000010e0 <I_or_cg_cp_rd_b30>:
I_or_cg_cp_rd_b30:
  or x30, x0, x7 # perform operation
    10e0:	00706f33          	or	x30,x0,x7
  # Check if x30 contains the expected result. x11 is the signature ptr, x5 is the link ptr, x4 is a temp reg.
  RVTEST_SIGUPD(x11, x5, x4, x30, I_or_cg_cp_rd_b30, I_or_cg_cp_rd_b30_str)
    10e4:	0005a203          	lw	x4,0(x11)
    10e8:	01e20863          	beq	x4,x30,10f8 <I_or_cg_cp_rd_b30+0x18>
    10ec:	3d0032ef          	jal	x5,44bc <failedtest_x5_x4>
    10f0:	000010e0          	.word	0x000010e0
    10f4:	00009def          	.word	0x00009def
    10f8:	00458593          	addi	x11,x11,4

# Testcase cp_rd (Test destination rd = x31)
  RVTEST_TESTDATA_LOAD_INT(x24, x27) # load rs1: x27 = 0xd4c73327
    10fc:	000c2d83          	lw	x27,0(x24)
    1100:	004c0c13          	addi	x24,x24,4
  RVTEST_TESTDATA_LOAD_INT(x24, x19) # load rs2: x19 = 0x037bbb6f
    1104:	000c2983          	lw	x19,0(x24)
    1108:	004c0c13          	addi	x24,x24,4

0000110c <I_or_cg_cp_rd_b31>:
I_or_cg_cp_rd_b31:
  or x31, x27, x19 # perform operation
    110c:	013defb3          	or	x31,x27,x19
  # Check if x31 contains the expected result. x11 is the signature ptr, x5 is the link ptr, x4 is a temp reg.
  RVTEST_SIGUPD(x11, x5, x4, x31, I_or_cg_cp_rd_b31, I_or_cg_cp_rd_b31_str)
    1110:	0005a203          	lw	x4,0(x11)
    1114:	01f20863          	beq	x4,x31,1124 <I_or_cg_cp_rd_b31+0x18>
    1118:	3a4032ef          	jal	x5,44bc <failedtest_x5_x4>
    111c:	0000110c          	.word	0x0000110c
    1120:	00009e1c          	.word	0x00009e1c
    1124:	00458593          	addi	x11,x11,4
/////////////////////////////////
// cp_rs1_edges
/////////////////////////////////

# Testcase cp_rs1_edges (Test source rs1 value = 0x00000000)
  RVTEST_TESTDATA_LOAD_INT(x24, x10) # load rs1: x10 = 0x00000000
    1128:	000c2503          	lw	x10,0(x24)
    112c:	004c0c13          	addi	x24,x24,4
  RVTEST_TESTDATA_LOAD_INT(x24, x13) # load rs2: x13 = 0xee4e61dc
    1130:	000c2683          	lw	x13,0(x24)
    1134:	004c0c13          	addi	x24,x24,4

00001138 <I_or_cg_cp_rs1_edges_0x0>:
I_or_cg_cp_rs1_edges_0x0:
  or x31, x10, x13 # perform operation
    1138:	00d56fb3          	or	x31,x10,x13
  # Check if x31 contains the expected result. x11 is the signature ptr, x5 is the link ptr, x4 is a temp reg.
  RVTEST_SIGUPD(x11, x5, x4, x31, I_or_cg_cp_rs1_edges_0x0, I_or_cg_cp_rs1_edges_0x0_str)
    113c:	0005a203          	lw	x4,0(x11)
    1140:	01f20863          	beq	x4,x31,1150 <I_or_cg_cp_rs1_edges_0x0+0x18>
    1144:	378032ef          	jal	x5,44bc <failedtest_x5_x4>
    1148:	00001138          	.word	0x00001138
    114c:	00009e49          	.word	0x00009e49
    1150:	00458593          	addi	x11,x11,4

# Testcase cp_rs1_edges (Test source rs1 value = 0x00000001)
  RVTEST_TESTDATA_LOAD_INT(x24, x10) # load rs1: x10 = 0x00000001
    1154:	000c2503          	lw	x10,0(x24)
    1158:	004c0c13          	addi	x24,x24,4
  RVTEST_TESTDATA_LOAD_INT(x24, x26) # load rs2: x26 = 0xe49ad658
    115c:	000c2d03          	lw	x26,0(x24)
    1160:	004c0c13          	addi	x24,x24,4

00001164 <I_or_cg_cp_rs1_edges_0x1>:
I_or_cg_cp_rs1_edges_0x1:
  or x14, x10, x26 # perform operation
    1164:	01a56733          	or	x14,x10,x26
  # Check if x14 contains the expected result. x11 is the signature ptr, x5 is the link ptr, x4 is a temp reg.
  RVTEST_SIGUPD(x11, x5, x4, x14, I_or_cg_cp_rs1_edges_0x1, I_or_cg_cp_rs1_edges_0x1_str)
    1168:	0005a203          	lw	x4,0(x11)
    116c:	00e20863          	beq	x4,x14,117c <I_or_cg_cp_rs1_edges_0x1+0x18>
    1170:	34c032ef          	jal	x5,44bc <failedtest_x5_x4>
    1174:	00001164          	.word	0x00001164
    1178:	00009e7d          	.word	0x00009e7d
    117c:	00458593          	addi	x11,x11,4

# Testcase cp_rs1_edges (Test source rs1 value = 0x00000002)
  RVTEST_TESTDATA_LOAD_INT(x24, x22) # load rs1: x22 = 0x00000002
    1180:	000c2b03          	lw	x22,0(x24)
    1184:	004c0c13          	addi	x24,x24,4
  RVTEST_TESTDATA_LOAD_INT(x24, x15) # load rs2: x15 = 0x5140795c
    1188:	000c2783          	lw	x15,0(x24)
    118c:	004c0c13          	addi	x24,x24,4

00001190 <I_or_cg_cp_rs1_edges_0x2>:
I_or_cg_cp_rs1_edges_0x2:
  or x16, x22, x15 # perform operation
    1190:	00fb6833          	or	x16,x22,x15
  # Check if x16 contains the expected result. x11 is the signature ptr, x5 is the link ptr, x4 is a temp reg.
  RVTEST_SIGUPD(x11, x5, x4, x16, I_or_cg_cp_rs1_edges_0x2, I_or_cg_cp_rs1_edges_0x2_str)
    1194:	0005a203          	lw	x4,0(x11)
    1198:	01020863          	beq	x4,x16,11a8 <I_or_cg_cp_rs1_edges_0x2+0x18>
    119c:	320032ef          	jal	x5,44bc <failedtest_x5_x4>
    11a0:	00001190          	.word	0x00001190
    11a4:	00009eb1          	.word	0x00009eb1
    11a8:	00458593          	addi	x11,x11,4

# Testcase cp_rs1_edges (Test source rs1 value = 0x80000000)
  RVTEST_TESTDATA_LOAD_INT(x24, x12) # load rs1: x12 = 0x80000000
    11ac:	000c2603          	lw	x12,0(x24)
    11b0:	004c0c13          	addi	x24,x24,4
  RVTEST_TESTDATA_LOAD_INT(x24, x13) # load rs2: x13 = 0xb441d46d
    11b4:	000c2683          	lw	x13,0(x24)
    11b8:	004c0c13          	addi	x24,x24,4

000011bc <I_or_cg_cp_rs1_edges_0x80000000>:
I_or_cg_cp_rs1_edges_0x80000000:
  or x28, x12, x13 # perform operation
    11bc:	00d66e33          	or	x28,x12,x13
  # Check if x28 contains the expected result. x11 is the signature ptr, x5 is the link ptr, x4 is a temp reg.
  RVTEST_SIGUPD(x11, x5, x4, x28, I_or_cg_cp_rs1_edges_0x80000000, I_or_cg_cp_rs1_edges_0x80000000_str)
    11c0:	0005a203          	lw	x4,0(x11)
    11c4:	01c20863          	beq	x4,x28,11d4 <I_or_cg_cp_rs1_edges_0x80000000+0x18>
    11c8:	2f4032ef          	jal	x5,44bc <failedtest_x5_x4>
    11cc:	000011bc          	.word	0x000011bc
    11d0:	00009ee5          	.word	0x00009ee5
    11d4:	00458593          	addi	x11,x11,4

# Testcase cp_rs1_edges (Test source rs1 value = 0x80000001)
  RVTEST_TESTDATA_LOAD_INT(x24, x31) # load rs1: x31 = 0x80000001
    11d8:	000c2f83          	lw	x31,0(x24)
    11dc:	004c0c13          	addi	x24,x24,4
  RVTEST_TESTDATA_LOAD_INT(x24, x20) # load rs2: x20 = 0xb27dbe95
    11e0:	000c2a03          	lw	x20,0(x24)
    11e4:	004c0c13          	addi	x24,x24,4

000011e8 <I_or_cg_cp_rs1_edges_0x80000001>:
I_or_cg_cp_rs1_edges_0x80000001:
  or x18, x31, x20 # perform operation
    11e8:	014fe933          	or	x18,x31,x20
  # Check if x18 contains the expected result. x11 is the signature ptr, x5 is the link ptr, x4 is a temp reg.
  RVTEST_SIGUPD(x11, x5, x4, x18, I_or_cg_cp_rs1_edges_0x80000001, I_or_cg_cp_rs1_edges_0x80000001_str)
    11ec:	0005a203          	lw	x4,0(x11)
    11f0:	01220863          	beq	x4,x18,1200 <I_or_cg_cp_rs1_edges_0x80000001+0x18>
    11f4:	2c8032ef          	jal	x5,44bc <failedtest_x5_x4>
    11f8:	000011e8          	.word	0x000011e8
    11fc:	00009f21          	.word	0x00009f21
    1200:	00458593          	addi	x11,x11,4

# Testcase cp_rs1_edges (Test source rs1 value = 0x7fffffff)
  RVTEST_TESTDATA_LOAD_INT(x24, x19) # load rs1: x19 = 0x7fffffff
    1204:	000c2983          	lw	x19,0(x24)
    1208:	004c0c13          	addi	x24,x24,4
  RVTEST_TESTDATA_LOAD_INT(x24, x27) # load rs2: x27 = 0xdfcaf62c
    120c:	000c2d83          	lw	x27,0(x24)
    1210:	004c0c13          	addi	x24,x24,4

00001214 <I_or_cg_cp_rs1_edges_0x7fffffff>:
I_or_cg_cp_rs1_edges_0x7fffffff:
  or x9, x19, x27 # perform operation
    1214:	01b9e4b3          	or	x9,x19,x27
  # Check if x9 contains the expected result. x11 is the signature ptr, x5 is the link ptr, x4 is a temp reg.
  RVTEST_SIGUPD(x11, x5, x4, x9, I_or_cg_cp_rs1_edges_0x7fffffff, I_or_cg_cp_rs1_edges_0x7fffffff_str)
    1218:	0005a203          	lw	x4,0(x11)
    121c:	00920863          	beq	x4,x9,122c <I_or_cg_cp_rs1_edges_0x7fffffff+0x18>
    1220:	29c032ef          	jal	x5,44bc <failedtest_x5_x4>
    1224:	00001214          	.word	0x00001214
    1228:	00009f5d          	.word	0x00009f5d
    122c:	00458593          	addi	x11,x11,4

# Testcase cp_rs1_edges (Test source rs1 value = 0x7ffffffe)
  RVTEST_TESTDATA_LOAD_INT(x24, x8) # load rs1: x8 = 0x7ffffffe
    1230:	000c2403          	lw	x8,0(x24)
    1234:	004c0c13          	addi	x24,x24,4
  RVTEST_TESTDATA_LOAD_INT(x24, x25) # load rs2: x25 = 0x7782084c
    1238:	000c2c83          	lw	x25,0(x24)
    123c:	004c0c13          	addi	x24,x24,4

00001240 <I_or_cg_cp_rs1_edges_0x7ffffffe>:
I_or_cg_cp_rs1_edges_0x7ffffffe:
  or x28, x8, x25 # perform operation
    1240:	01946e33          	or	x28,x8,x25
  # Check if x28 contains the expected result. x11 is the signature ptr, x5 is the link ptr, x4 is a temp reg.
  RVTEST_SIGUPD(x11, x5, x4, x28, I_or_cg_cp_rs1_edges_0x7ffffffe, I_or_cg_cp_rs1_edges_0x7ffffffe_str)
    1244:	0005a203          	lw	x4,0(x11)
    1248:	01c20863          	beq	x4,x28,1258 <I_or_cg_cp_rs1_edges_0x7ffffffe+0x18>
    124c:	270032ef          	jal	x5,44bc <failedtest_x5_x4>
    1250:	00001240          	.word	0x00001240
    1254:	00009f99          	.word	0x00009f99
    1258:	00458593          	addi	x11,x11,4

# Testcase cp_rs1_edges (Test source rs1 value = 0xffffffff)
  RVTEST_TESTDATA_LOAD_INT(x24, x10) # load rs1: x10 = 0xffffffff
    125c:	000c2503          	lw	x10,0(x24)
    1260:	004c0c13          	addi	x24,x24,4
  RVTEST_TESTDATA_LOAD_INT(x24, x9) # load rs2: x9 = 0xcdce9425
    1264:	000c2483          	lw	x9,0(x24)
    1268:	004c0c13          	addi	x24,x24,4

0000126c <I_or_cg_cp_rs1_edges_0xffffffff>:
I_or_cg_cp_rs1_edges_0xffffffff:
  or x20, x10, x9 # perform operation
    126c:	00956a33          	or	x20,x10,x9
  # Check if x20 contains the expected result. x11 is the signature ptr, x5 is the link ptr, x4 is a temp reg.
  RVTEST_SIGUPD(x11, x5, x4, x20, I_or_cg_cp_rs1_edges_0xffffffff, I_or_cg_cp_rs1_edges_0xffffffff_str)
    1270:	0005a203          	lw	x4,0(x11)
    1274:	01420863          	beq	x4,x20,1284 <I_or_cg_cp_rs1_edges_0xffffffff+0x18>
    1278:	244032ef          	jal	x5,44bc <failedtest_x5_x4>
    127c:	0000126c          	.word	0x0000126c
    1280:	00009fd5          	.word	0x00009fd5
    1284:	00458593          	addi	x11,x11,4

# Testcase cp_rs1_edges (Test source rs1 value = 0xfffffffe)
  RVTEST_TESTDATA_LOAD_INT(x24, x6) # load rs1: x6 = 0xfffffffe
    1288:	000c2303          	lw	x6,0(x24)
    128c:	004c0c13          	addi	x24,x24,4
  RVTEST_TESTDATA_LOAD_INT(x24, x30) # load rs2: x30 = 0x9883781d
    1290:	000c2f03          	lw	x30,0(x24)
    1294:	004c0c13          	addi	x24,x24,4

00001298 <I_or_cg_cp_rs1_edges_0xfffffffe>:
I_or_cg_cp_rs1_edges_0xfffffffe:
  or x18, x6, x30 # perform operation
    1298:	01e36933          	or	x18,x6,x30
  # Check if x18 contains the expected result. x11 is the signature ptr, x5 is the link ptr, x4 is a temp reg.
  RVTEST_SIGUPD(x11, x5, x4, x18, I_or_cg_cp_rs1_edges_0xfffffffe, I_or_cg_cp_rs1_edges_0xfffffffe_str)
    129c:	0005a203          	lw	x4,0(x11)
    12a0:	01220863          	beq	x4,x18,12b0 <I_or_cg_cp_rs1_edges_0xfffffffe+0x18>
    12a4:	218032ef          	jal	x5,44bc <failedtest_x5_x4>
    12a8:	00001298          	.word	0x00001298
    12ac:	0000a011          	.word	0x0000a011
    12b0:	00458593          	addi	x11,x11,4

# Testcase cp_rs1_edges (Test source rs1 value = 0x5bbc8872)
  RVTEST_TESTDATA_LOAD_INT(x24, x3) # load rs1: x3 = 0x5bbc8872
    12b4:	000c2183          	lw	x3,0(x24)
    12b8:	004c0c13          	addi	x24,x24,4
  RVTEST_TESTDATA_LOAD_INT(x24, x15) # load rs2: x15 = 0x3c262ff0
    12bc:	000c2783          	lw	x15,0(x24)
    12c0:	004c0c13          	addi	x24,x24,4

000012c4 <I_or_cg_cp_rs1_edges_0x5bbc8872>:
I_or_cg_cp_rs1_edges_0x5bbc8872:
  or x8, x3, x15 # perform operation
    12c4:	00f1e433          	or	x8,x3,x15
  # Check if x8 contains the expected result. x11 is the signature ptr, x5 is the link ptr, x4 is a temp reg.
  RVTEST_SIGUPD(x11, x5, x4, x8, I_or_cg_cp_rs1_edges_0x5bbc8872, I_or_cg_cp_rs1_edges_0x5bbc8872_str)
    12c8:	0005a203          	lw	x4,0(x11)
    12cc:	00820863          	beq	x4,x8,12dc <I_or_cg_cp_rs1_edges_0x5bbc8872+0x18>
    12d0:	1ec032ef          	jal	x5,44bc <failedtest_x5_x4>
    12d4:	000012c4          	.word	0x000012c4
    12d8:	0000a04d          	.word	0x0000a04d
    12dc:	00458593          	addi	x11,x11,4

# Testcase cp_rs1_edges (Test source rs1 value = 0xaaaaaaaa)
  RVTEST_TESTDATA_LOAD_INT(x24, x2) # load rs1: x2 = 0xaaaaaaaa
    12e0:	000c2103          	lw	x2,0(x24)
    12e4:	004c0c13          	addi	x24,x24,4
  RVTEST_TESTDATA_LOAD_INT(x24, x18) # load rs2: x18 = 0xacbef5f8
    12e8:	000c2903          	lw	x18,0(x24)
    12ec:	004c0c13          	addi	x24,x24,4

000012f0 <I_or_cg_cp_rs1_edges_0xaaaaaaaa>:
I_or_cg_cp_rs1_edges_0xaaaaaaaa:
  or x30, x2, x18 # perform operation
    12f0:	01216f33          	or	x30,x2,x18
  # Check if x30 contains the expected result. x11 is the signature ptr, x5 is the link ptr, x4 is a temp reg.
  RVTEST_SIGUPD(x11, x5, x4, x30, I_or_cg_cp_rs1_edges_0xaaaaaaaa, I_or_cg_cp_rs1_edges_0xaaaaaaaa_str)
    12f4:	0005a203          	lw	x4,0(x11)
    12f8:	01e20863          	beq	x4,x30,1308 <I_or_cg_cp_rs1_edges_0xaaaaaaaa+0x18>
    12fc:	1c0032ef          	jal	x5,44bc <failedtest_x5_x4>
    1300:	000012f0          	.word	0x000012f0
    1304:	0000a089          	.word	0x0000a089
    1308:	00458593          	addi	x11,x11,4

# Testcase cp_rs1_edges (Test source rs1 value = 0x55555555)
  RVTEST_TESTDATA_LOAD_INT(x24, x8) # load rs1: x8 = 0x55555555
    130c:	000c2403          	lw	x8,0(x24)
    1310:	004c0c13          	addi	x24,x24,4
  RVTEST_TESTDATA_LOAD_INT(x24, x27) # load rs2: x27 = 0xa52952f9
    1314:	000c2d83          	lw	x27,0(x24)
    1318:	004c0c13          	addi	x24,x24,4

0000131c <I_or_cg_cp_rs1_edges_0x55555555>:
I_or_cg_cp_rs1_edges_0x55555555:
  or x30, x8, x27 # perform operation
    131c:	01b46f33          	or	x30,x8,x27
  # Check if x30 contains the expected result. x11 is the signature ptr, x5 is the link ptr, x4 is a temp reg.
  RVTEST_SIGUPD(x11, x5, x4, x30, I_or_cg_cp_rs1_edges_0x55555555, I_or_cg_cp_rs1_edges_0x55555555_str)
    1320:	0005a203          	lw	x4,0(x11)
    1324:	01e20863          	beq	x4,x30,1334 <I_or_cg_cp_rs1_edges_0x55555555+0x18>
    1328:	194032ef          	jal	x5,44bc <failedtest_x5_x4>
    132c:	0000131c          	.word	0x0000131c
    1330:	0000a0c5          	.word	0x0000a0c5
    1334:	00458593          	addi	x11,x11,4
/////////////////////////////////
// cp_rs2_edges
/////////////////////////////////

# Testcase cp_rs2_edges (Test source rs2 value = 0x00000000)
  RVTEST_TESTDATA_LOAD_INT(x24, x10) # load rs1: x10 = 0xe523f12f
    1338:	000c2503          	lw	x10,0(x24)
    133c:	004c0c13          	addi	x24,x24,4
  RVTEST_TESTDATA_LOAD_INT(x24, x8) # load rs2: x8 = 0x00000000
    1340:	000c2403          	lw	x8,0(x24)
    1344:	004c0c13          	addi	x24,x24,4

00001348 <I_or_cg_cp_rs2_edges_0x0>:
I_or_cg_cp_rs2_edges_0x0:
  or x28, x10, x8 # perform operation
    1348:	00856e33          	or	x28,x10,x8
  # Check if x28 contains the expected result. x11 is the signature ptr, x5 is the link ptr, x4 is a temp reg.
  RVTEST_SIGUPD(x11, x5, x4, x28, I_or_cg_cp_rs2_edges_0x0, I_or_cg_cp_rs2_edges_0x0_str)
    134c:	0005a203          	lw	x4,0(x11)
    1350:	01c20863          	beq	x4,x28,1360 <I_or_cg_cp_rs2_edges_0x0+0x18>
    1354:	168032ef          	jal	x5,44bc <failedtest_x5_x4>
    1358:	00001348          	.word	0x00001348
    135c:	0000a101          	.word	0x0000a101
    1360:	00458593          	addi	x11,x11,4

# Testcase cp_rs2_edges (Test source rs2 value = 0x00000001)
  RVTEST_TESTDATA_LOAD_INT(x24, x17) # load rs1: x17 = 0x4271426d
    1364:	000c2883          	lw	x17,0(x24)
    1368:	004c0c13          	addi	x24,x24,4
  RVTEST_TESTDATA_LOAD_INT(x24, x14) # load rs2: x14 = 0x00000001
    136c:	000c2703          	lw	x14,0(x24)
    1370:	004c0c13          	addi	x24,x24,4

00001374 <I_or_cg_cp_rs2_edges_0x1>:
I_or_cg_cp_rs2_edges_0x1:
  or x12, x17, x14 # perform operation
    1374:	00e8e633          	or	x12,x17,x14
  # Check if x12 contains the expected result. x11 is the signature ptr, x5 is the link ptr, x4 is a temp reg.
  RVTEST_SIGUPD(x11, x5, x4, x12, I_or_cg_cp_rs2_edges_0x1, I_or_cg_cp_rs2_edges_0x1_str)
    1378:	0005a203          	lw	x4,0(x11)
    137c:	00c20863          	beq	x4,x12,138c <I_or_cg_cp_rs2_edges_0x1+0x18>
    1380:	13c032ef          	jal	x5,44bc <failedtest_x5_x4>
    1384:	00001374          	.word	0x00001374
    1388:	0000a136          	.word	0x0000a136
    138c:	00458593          	addi	x11,x11,4

# Testcase cp_rs2_edges (Test source rs2 value = 0x00000002)
  RVTEST_TESTDATA_LOAD_INT(x24, x15) # load rs1: x15 = 0xc7fd3f9c
    1390:	000c2783          	lw	x15,0(x24)
    1394:	004c0c13          	addi	x24,x24,4
  RVTEST_TESTDATA_LOAD_INT(x24, x13) # load rs2: x13 = 0x00000002
    1398:	000c2683          	lw	x13,0(x24)
    139c:	004c0c13          	addi	x24,x24,4

000013a0 <I_or_cg_cp_rs2_edges_0x2>:
I_or_cg_cp_rs2_edges_0x2:
  or x22, x15, x13 # perform operation
    13a0:	00d7eb33          	or	x22,x15,x13
  # Check if x22 contains the expected result. x11 is the signature ptr, x5 is the link ptr, x4 is a temp reg.
  RVTEST_SIGUPD(x11, x5, x4, x22, I_or_cg_cp_rs2_edges_0x2, I_or_cg_cp_rs2_edges_0x2_str)
    13a4:	0005a203          	lw	x4,0(x11)
    13a8:	01620863          	beq	x4,x22,13b8 <I_or_cg_cp_rs2_edges_0x2+0x18>
    13ac:	110032ef          	jal	x5,44bc <failedtest_x5_x4>
    13b0:	000013a0          	.word	0x000013a0
    13b4:	0000a16b          	.word	0x0000a16b
    13b8:	00458593          	addi	x11,x11,4

# Testcase cp_rs2_edges (Test source rs2 value = 0x80000000)
  RVTEST_TESTDATA_LOAD_INT(x24, x3) # load rs1: x3 = 0x685ecd6b
    13bc:	000c2183          	lw	x3,0(x24)
    13c0:	004c0c13          	addi	x24,x24,4
  RVTEST_TESTDATA_LOAD_INT(x24, x29) # load rs2: x29 = 0x80000000
    13c4:	000c2e83          	lw	x29,0(x24)
    13c8:	004c0c13          	addi	x24,x24,4

000013cc <I_or_cg_cp_rs2_edges_0x80000000>:
I_or_cg_cp_rs2_edges_0x80000000:
  or x27, x3, x29 # perform operation
    13cc:	01d1edb3          	or	x27,x3,x29
  # Check if x27 contains the expected result. x11 is the signature ptr, x5 is the link ptr, x4 is a temp reg.
  RVTEST_SIGUPD(x11, x5, x4, x27, I_or_cg_cp_rs2_edges_0x80000000, I_or_cg_cp_rs2_edges_0x80000000_str)
    13d0:	0005a203          	lw	x4,0(x11)
    13d4:	01b20863          	beq	x4,x27,13e4 <I_or_cg_cp_rs2_edges_0x80000000+0x18>
    13d8:	0e4032ef          	jal	x5,44bc <failedtest_x5_x4>
    13dc:	000013cc          	.word	0x000013cc
    13e0:	0000a1a0          	.word	0x0000a1a0
    13e4:	00458593          	addi	x11,x11,4

# Testcase cp_rs2_edges (Test source rs2 value = 0x80000001)
  RVTEST_TESTDATA_LOAD_INT(x24, x29) # load rs1: x29 = 0xc17cc2d3
    13e8:	000c2e83          	lw	x29,0(x24)
    13ec:	004c0c13          	addi	x24,x24,4
  RVTEST_TESTDATA_LOAD_INT(x24, x7) # load rs2: x7 = 0x80000001
    13f0:	000c2383          	lw	x7,0(x24)
    13f4:	004c0c13          	addi	x24,x24,4

000013f8 <I_or_cg_cp_rs2_edges_0x80000001>:
I_or_cg_cp_rs2_edges_0x80000001:
  or x8, x29, x7 # perform operation
    13f8:	007ee433          	or	x8,x29,x7
  # Check if x8 contains the expected result. x11 is the signature ptr, x5 is the link ptr, x4 is a temp reg.
  RVTEST_SIGUPD(x11, x5, x4, x8, I_or_cg_cp_rs2_edges_0x80000001, I_or_cg_cp_rs2_edges_0x80000001_str)
    13fc:	0005a203          	lw	x4,0(x11)
    1400:	00820863          	beq	x4,x8,1410 <I_or_cg_cp_rs2_edges_0x80000001+0x18>
    1404:	0b8032ef          	jal	x5,44bc <failedtest_x5_x4>
    1408:	000013f8          	.word	0x000013f8
    140c:	0000a1dc          	.word	0x0000a1dc
    1410:	00458593          	addi	x11,x11,4

# Testcase cp_rs2_edges (Test source rs2 value = 0x7fffffff)
  RVTEST_TESTDATA_LOAD_INT(x24, x22) # load rs1: x22 = 0x079b7ddf
    1414:	000c2b03          	lw	x22,0(x24)
    1418:	004c0c13          	addi	x24,x24,4
  RVTEST_TESTDATA_LOAD_INT(x24, x21) # load rs2: x21 = 0x7fffffff
    141c:	000c2a83          	lw	x21,0(x24)
    1420:	004c0c13          	addi	x24,x24,4

00001424 <I_or_cg_cp_rs2_edges_0x7fffffff>:
I_or_cg_cp_rs2_edges_0x7fffffff:
  or x25, x22, x21 # perform operation
    1424:	015b6cb3          	or	x25,x22,x21
  # Check if x25 contains the expected result. x11 is the signature ptr, x5 is the link ptr, x4 is a temp reg.
  RVTEST_SIGUPD(x11, x5, x4, x25, I_or_cg_cp_rs2_edges_0x7fffffff, I_or_cg_cp_rs2_edges_0x7fffffff_str)
    1428:	0005a203          	lw	x4,0(x11)
    142c:	01920863          	beq	x4,x25,143c <I_or_cg_cp_rs2_edges_0x7fffffff+0x18>
    1430:	08c032ef          	jal	x5,44bc <failedtest_x5_x4>
    1434:	00001424          	.word	0x00001424
    1438:	0000a218          	.word	0x0000a218
    143c:	00458593          	addi	x11,x11,4

# Testcase cp_rs2_edges (Test source rs2 value = 0x7ffffffe)
  RVTEST_TESTDATA_LOAD_INT(x24, x26) # load rs1: x26 = 0x58d4e2f8
    1440:	000c2d03          	lw	x26,0(x24)
    1444:	004c0c13          	addi	x24,x24,4
  RVTEST_TESTDATA_LOAD_INT(x24, x29) # load rs2: x29 = 0x7ffffffe
    1448:	000c2e83          	lw	x29,0(x24)
    144c:	004c0c13          	addi	x24,x24,4

00001450 <I_or_cg_cp_rs2_edges_0x7ffffffe>:
I_or_cg_cp_rs2_edges_0x7ffffffe:
  or x22, x26, x29 # perform operation
    1450:	01dd6b33          	or	x22,x26,x29
  # Check if x22 contains the expected result. x11 is the signature ptr, x5 is the link ptr, x4 is a temp reg.
  RVTEST_SIGUPD(x11, x5, x4, x22, I_or_cg_cp_rs2_edges_0x7ffffffe, I_or_cg_cp_rs2_edges_0x7ffffffe_str)
    1454:	0005a203          	lw	x4,0(x11)
    1458:	01620863          	beq	x4,x22,1468 <I_or_cg_cp_rs2_edges_0x7ffffffe+0x18>
    145c:	060032ef          	jal	x5,44bc <failedtest_x5_x4>
    1460:	00001450          	.word	0x00001450
    1464:	0000a254          	.word	0x0000a254
    1468:	00458593          	addi	x11,x11,4

# Testcase cp_rs2_edges (Test source rs2 value = 0xffffffff)
  RVTEST_TESTDATA_LOAD_INT(x24, x12) # load rs1: x12 = 0xd036f469
    146c:	000c2603          	lw	x12,0(x24)
    1470:	004c0c13          	addi	x24,x24,4
  RVTEST_TESTDATA_LOAD_INT(x24, x7) # load rs2: x7 = 0xffffffff
    1474:	000c2383          	lw	x7,0(x24)
    1478:	004c0c13          	addi	x24,x24,4

0000147c <I_or_cg_cp_rs2_edges_0xffffffff>:
I_or_cg_cp_rs2_edges_0xffffffff:
  or x14, x12, x7 # perform operation
    147c:	00766733          	or	x14,x12,x7
  # Check if x14 contains the expected result. x11 is the signature ptr, x5 is the link ptr, x4 is a temp reg.
  RVTEST_SIGUPD(x11, x5, x4, x14, I_or_cg_cp_rs2_edges_0xffffffff, I_or_cg_cp_rs2_edges_0xffffffff_str)
    1480:	0005a203          	lw	x4,0(x11)
    1484:	00e20863          	beq	x4,x14,1494 <I_or_cg_cp_rs2_edges_0xffffffff+0x18>
    1488:	034032ef          	jal	x5,44bc <failedtest_x5_x4>
    148c:	0000147c          	.word	0x0000147c
    1490:	0000a290          	.word	0x0000a290
    1494:	00458593          	addi	x11,x11,4

# Testcase cp_rs2_edges (Test source rs2 value = 0xfffffffe)
  RVTEST_TESTDATA_LOAD_INT(x24, x9) # load rs1: x9 = 0xf5eac55b
    1498:	000c2483          	lw	x9,0(x24)
    149c:	004c0c13          	addi	x24,x24,4
  RVTEST_TESTDATA_LOAD_INT(x24, x31) # load rs2: x31 = 0xfffffffe
    14a0:	000c2f83          	lw	x31,0(x24)
    14a4:	004c0c13          	addi	x24,x24,4

000014a8 <I_or_cg_cp_rs2_edges_0xfffffffe>:
I_or_cg_cp_rs2_edges_0xfffffffe:
  or x7, x9, x31 # perform operation
    14a8:	01f4e3b3          	or	x7,x9,x31
  # Check if x7 contains the expected result. x11 is the signature ptr, x5 is the link ptr, x4 is a temp reg.
  RVTEST_SIGUPD(x11, x5, x4, x7, I_or_cg_cp_rs2_edges_0xfffffffe, I_or_cg_cp_rs2_edges_0xfffffffe_str)
    14ac:	0005a203          	lw	x4,0(x11)
    14b0:	00720863          	beq	x4,x7,14c0 <I_or_cg_cp_rs2_edges_0xfffffffe+0x18>
    14b4:	008032ef          	jal	x5,44bc <failedtest_x5_x4>
    14b8:	000014a8          	.word	0x000014a8
    14bc:	0000a2cc          	.word	0x0000a2cc
    14c0:	00458593          	addi	x11,x11,4

# Testcase cp_rs2_edges (Test source rs2 value = 0x5bbc8872)
  RVTEST_TESTDATA_LOAD_INT(x24, x15) # load rs1: x15 = 0x85b236f4
    14c4:	000c2783          	lw	x15,0(x24)
    14c8:	004c0c13          	addi	x24,x24,4
  RVTEST_TESTDATA_LOAD_INT(x24, x14) # load rs2: x14 = 0x5bbc8872
    14cc:	000c2703          	lw	x14,0(x24)
    14d0:	004c0c13          	addi	x24,x24,4

000014d4 <I_or_cg_cp_rs2_edges_0x5bbc8872>:
I_or_cg_cp_rs2_edges_0x5bbc8872:
  or x7, x15, x14 # perform operation
    14d4:	00e7e3b3          	or	x7,x15,x14
  # Check if x7 contains the expected result. x11 is the signature ptr, x5 is the link ptr, x4 is a temp reg.
  RVTEST_SIGUPD(x11, x5, x4, x7, I_or_cg_cp_rs2_edges_0x5bbc8872, I_or_cg_cp_rs2_edges_0x5bbc8872_str)
    14d8:	0005a203          	lw	x4,0(x11)
    14dc:	00720863          	beq	x4,x7,14ec <I_or_cg_cp_rs2_edges_0x5bbc8872+0x18>
    14e0:	7dd022ef          	jal	x5,44bc <failedtest_x5_x4>
    14e4:	000014d4          	.word	0x000014d4
    14e8:	0000a308          	.word	0x0000a308
    14ec:	00458593          	addi	x11,x11,4

# Testcase cp_rs2_edges (Test source rs2 value = 0xaaaaaaaa)
  RVTEST_TESTDATA_LOAD_INT(x24, x29) # load rs1: x29 = 0x1d805f5c
    14f0:	000c2e83          	lw	x29,0(x24)
    14f4:	004c0c13          	addi	x24,x24,4
  RVTEST_TESTDATA_LOAD_INT(x24, x15) # load rs2: x15 = 0xaaaaaaaa
    14f8:	000c2783          	lw	x15,0(x24)
    14fc:	004c0c13          	addi	x24,x24,4

00001500 <I_or_cg_cp_rs2_edges_0xaaaaaaaa>:
I_or_cg_cp_rs2_edges_0xaaaaaaaa:
  or x30, x29, x15 # perform operation
    1500:	00feef33          	or	x30,x29,x15
  # Check if x30 contains the expected result. x11 is the signature ptr, x5 is the link ptr, x4 is a temp reg.
  RVTEST_SIGUPD(x11, x5, x4, x30, I_or_cg_cp_rs2_edges_0xaaaaaaaa, I_or_cg_cp_rs2_edges_0xaaaaaaaa_str)
    1504:	0005a203          	lw	x4,0(x11)
    1508:	01e20863          	beq	x4,x30,1518 <I_or_cg_cp_rs2_edges_0xaaaaaaaa+0x18>
    150c:	7b1022ef          	jal	x5,44bc <failedtest_x5_x4>
    1510:	00001500          	.word	0x00001500
    1514:	0000a344          	.word	0x0000a344
    1518:	00458593          	addi	x11,x11,4

# Testcase cp_rs2_edges (Test source rs2 value = 0x55555555)
  RVTEST_TESTDATA_LOAD_INT(x24, x27) # load rs1: x27 = 0xb4560e6f
    151c:	000c2d83          	lw	x27,0(x24)
    1520:	004c0c13          	addi	x24,x24,4
  RVTEST_TESTDATA_LOAD_INT(x24, x29) # load rs2: x29 = 0x55555555
    1524:	000c2e83          	lw	x29,0(x24)
    1528:	004c0c13          	addi	x24,x24,4

0000152c <I_or_cg_cp_rs2_edges_0x55555555>:
I_or_cg_cp_rs2_edges_0x55555555:
  or x25, x27, x29 # perform operation
    152c:	01ddecb3          	or	x25,x27,x29
  # Check if x25 contains the expected result. x11 is the signature ptr, x5 is the link ptr, x4 is a temp reg.
  RVTEST_SIGUPD(x11, x5, x4, x25, I_or_cg_cp_rs2_edges_0x55555555, I_or_cg_cp_rs2_edges_0x55555555_str)
    1530:	0005a203          	lw	x4,0(x11)
    1534:	01920863          	beq	x4,x25,1544 <I_or_cg_cp_rs2_edges_0x55555555+0x18>
    1538:	785022ef          	jal	x5,44bc <failedtest_x5_x4>
    153c:	0000152c          	.word	0x0000152c
    1540:	0000a380          	.word	0x0000a380
    1544:	00458593          	addi	x11,x11,4
/////////////////////////////////
// cr_rs1_rs2_edges
/////////////////////////////////

# Testcase cr_rs1_rs2_edges (Test source rs1 = 0x00000000 rs2 = 0x00000000)
  RVTEST_TESTDATA_LOAD_INT(x24, x12) # load rs1: x12 = 0x00000000
    1548:	000c2603          	lw	x12,0(x24)
    154c:	004c0c13          	addi	x24,x24,4
  RVTEST_TESTDATA_LOAD_INT(x24, x19) # load rs2: x19 = 0x00000000
    1550:	000c2983          	lw	x19,0(x24)
    1554:	004c0c13          	addi	x24,x24,4

00001558 <I_or_cg_cr_rs1_rs2_edges_rs1val_0x0_rs2val_0x0>:
I_or_cg_cr_rs1_rs2_edges_rs1val_0x0_rs2val_0x0:
  or x14, x12, x19 # perform operation
    1558:	01366733          	or	x14,x12,x19
  # Check if x14 contains the expected result. x11 is the signature ptr, x5 is the link ptr, x4 is a temp reg.
  RVTEST_SIGUPD(x11, x5, x4, x14, I_or_cg_cr_rs1_rs2_edges_rs1val_0x0_rs2val_0x0, I_or_cg_cr_rs1_rs2_edges_rs1val_0x0_rs2val_0x0_str)
    155c:	0005a203          	lw	x4,0(x11)
    1560:	00e20863          	beq	x4,x14,1570 <I_or_cg_cr_rs1_rs2_edges_rs1val_0x0_rs2val_0x0+0x18>
    1564:	759022ef          	jal	x5,44bc <failedtest_x5_x4>
    1568:	00001558          	.word	0x00001558
    156c:	0000a3bc          	.word	0x0000a3bc
    1570:	00458593          	addi	x11,x11,4

# Testcase cr_rs1_rs2_edges (Test source rs1 = 0x00000000 rs2 = 0x00000001)
  RVTEST_TESTDATA_LOAD_INT(x24, x28) # load rs1: x28 = 0x00000000
    1574:	000c2e03          	lw	x28,0(x24)
    1578:	004c0c13          	addi	x24,x24,4
  RVTEST_TESTDATA_LOAD_INT(x24, x21) # load rs2: x21 = 0x00000001
    157c:	000c2a83          	lw	x21,0(x24)
    1580:	004c0c13          	addi	x24,x24,4

00001584 <I_or_cg_cr_rs1_rs2_edges_rs1val_0x0_rs2val_0x1>:
I_or_cg_cr_rs1_rs2_edges_rs1val_0x0_rs2val_0x1:
  or x17, x28, x21 # perform operation
    1584:	015e68b3          	or	x17,x28,x21
  # Check if x17 contains the expected result. x11 is the signature ptr, x5 is the link ptr, x4 is a temp reg.
  RVTEST_SIGUPD(x11, x5, x4, x17, I_or_cg_cr_rs1_rs2_edges_rs1val_0x0_rs2val_0x1, I_or_cg_cr_rs1_rs2_edges_rs1val_0x0_rs2val_0x1_str)
    1588:	0005a203          	lw	x4,0(x11)
    158c:	01120863          	beq	x4,x17,159c <I_or_cg_cr_rs1_rs2_edges_rs1val_0x0_rs2val_0x1+0x18>
    1590:	72d022ef          	jal	x5,44bc <failedtest_x5_x4>
    1594:	00001584          	.word	0x00001584
    1598:	0000a408          	.word	0x0000a408
    159c:	00458593          	addi	x11,x11,4

# Testcase cr_rs1_rs2_edges (Test source rs1 = 0x00000000 rs2 = 0x00000002)
  RVTEST_TESTDATA_LOAD_INT(x24, x25) # load rs1: x25 = 0x00000000
    15a0:	000c2c83          	lw	x25,0(x24)
    15a4:	004c0c13          	addi	x24,x24,4
  RVTEST_TESTDATA_LOAD_INT(x24, x23) # load rs2: x23 = 0x00000002
    15a8:	000c2b83          	lw	x23,0(x24)
    15ac:	004c0c13          	addi	x24,x24,4

000015b0 <I_or_cg_cr_rs1_rs2_edges_rs1val_0x0_rs2val_0x2>:
I_or_cg_cr_rs1_rs2_edges_rs1val_0x0_rs2val_0x2:
  or x13, x25, x23 # perform operation
    15b0:	017ce6b3          	or	x13,x25,x23
  # Check if x13 contains the expected result. x11 is the signature ptr, x5 is the link ptr, x4 is a temp reg.
  RVTEST_SIGUPD(x11, x5, x4, x13, I_or_cg_cr_rs1_rs2_edges_rs1val_0x0_rs2val_0x2, I_or_cg_cr_rs1_rs2_edges_rs1val_0x0_rs2val_0x2_str)
    15b4:	0005a203          	lw	x4,0(x11)
    15b8:	00d20863          	beq	x4,x13,15c8 <I_or_cg_cr_rs1_rs2_edges_rs1val_0x0_rs2val_0x2+0x18>
    15bc:	701022ef          	jal	x5,44bc <failedtest_x5_x4>
    15c0:	000015b0          	.word	0x000015b0
    15c4:	0000a454          	.word	0x0000a454
    15c8:	00458593          	addi	x11,x11,4

# Testcase cr_rs1_rs2_edges (Test source rs1 = 0x00000000 rs2 = 0x80000000)
  RVTEST_TESTDATA_LOAD_INT(x24, x7) # load rs1: x7 = 0x00000000
    15cc:	000c2383          	lw	x7,0(x24)
    15d0:	004c0c13          	addi	x24,x24,4
  RVTEST_TESTDATA_LOAD_INT(x24, x31) # load rs2: x31 = 0x80000000
    15d4:	000c2f83          	lw	x31,0(x24)
    15d8:	004c0c13          	addi	x24,x24,4

000015dc <I_or_cg_cr_rs1_rs2_edges_rs1val_0x0_rs2val_0x80000000>:
I_or_cg_cr_rs1_rs2_edges_rs1val_0x0_rs2val_0x80000000:
  or x2, x7, x31 # perform operation
    15dc:	01f3e133          	or	x2,x7,x31
  # Check if x2 contains the expected result. x11 is the signature ptr, x5 is the link ptr, x4 is a temp reg.
  RVTEST_SIGUPD(x11, x5, x4, x2, I_or_cg_cr_rs1_rs2_edges_rs1val_0x0_rs2val_0x80000000, I_or_cg_cr_rs1_rs2_edges_rs1val_0x0_rs2val_0x80000000_str)
    15e0:	0005a203          	lw	x4,0(x11)
    15e4:	00220863          	beq	x4,x2,15f4 <I_or_cg_cr_rs1_rs2_edges_rs1val_0x0_rs2val_0x80000000+0x18>
    15e8:	6d5022ef          	jal	x5,44bc <failedtest_x5_x4>
    15ec:	000015dc          	.word	0x000015dc
    15f0:	0000a4a0          	.word	0x0000a4a0
    15f4:	00458593          	addi	x11,x11,4

# Testcase cr_rs1_rs2_edges (Test source rs1 = 0x00000000 rs2 = 0x80000001)
  RVTEST_TESTDATA_LOAD_INT(x24, x29) # load rs1: x29 = 0x00000000
    15f8:	000c2e83          	lw	x29,0(x24)
    15fc:	004c0c13          	addi	x24,x24,4
  RVTEST_TESTDATA_LOAD_INT(x24, x28) # load rs2: x28 = 0x80000001
    1600:	000c2e03          	lw	x28,0(x24)
    1604:	004c0c13          	addi	x24,x24,4

00001608 <I_or_cg_cr_rs1_rs2_edges_rs1val_0x0_rs2val_0x80000001>:
I_or_cg_cr_rs1_rs2_edges_rs1val_0x0_rs2val_0x80000001:
  or x17, x29, x28 # perform operation
    1608:	01cee8b3          	or	x17,x29,x28
  # Check if x17 contains the expected result. x11 is the signature ptr, x5 is the link ptr, x4 is a temp reg.
  RVTEST_SIGUPD(x11, x5, x4, x17, I_or_cg_cr_rs1_rs2_edges_rs1val_0x0_rs2val_0x80000001, I_or_cg_cr_rs1_rs2_edges_rs1val_0x0_rs2val_0x80000001_str)
    160c:	0005a203          	lw	x4,0(x11)
    1610:	01120863          	beq	x4,x17,1620 <I_or_cg_cr_rs1_rs2_edges_rs1val_0x0_rs2val_0x80000001+0x18>
    1614:	6a9022ef          	jal	x5,44bc <failedtest_x5_x4>
    1618:	00001608          	.word	0x00001608
    161c:	0000a4f3          	.word	0x0000a4f3
    1620:	00458593          	addi	x11,x11,4

# Testcase cr_rs1_rs2_edges (Test source rs1 = 0x00000000 rs2 = 0x7fffffff)
  RVTEST_TESTDATA_LOAD_INT(x24, x29) # load rs1: x29 = 0x00000000
    1624:	000c2e83          	lw	x29,0(x24)
    1628:	004c0c13          	addi	x24,x24,4
  RVTEST_TESTDATA_LOAD_INT(x24, x30) # load rs2: x30 = 0x7fffffff
    162c:	000c2f03          	lw	x30,0(x24)
    1630:	004c0c13          	addi	x24,x24,4

00001634 <I_or_cg_cr_rs1_rs2_edges_rs1val_0x0_rs2val_0x7fffffff>:
I_or_cg_cr_rs1_rs2_edges_rs1val_0x0_rs2val_0x7fffffff:
  or x12, x29, x30 # perform operation
    1634:	01eee633          	or	x12,x29,x30
  # Check if x12 contains the expected result. x11 is the signature ptr, x5 is the link ptr, x4 is a temp reg.
  RVTEST_SIGUPD(x11, x5, x4, x12, I_or_cg_cr_rs1_rs2_edges_rs1val_0x0_rs2val_0x7fffffff, I_or_cg_cr_rs1_rs2_edges_rs1val_0x0_rs2val_0x7fffffff_str)
    1638:	0005a203          	lw	x4,0(x11)
    163c:	00c20863          	beq	x4,x12,164c <I_or_cg_cr_rs1_rs2_edges_rs1val_0x0_rs2val_0x7fffffff+0x18>
    1640:	67d022ef          	jal	x5,44bc <failedtest_x5_x4>
    1644:	00001634          	.word	0x00001634
    1648:	0000a546          	.word	0x0000a546
    164c:	00458593          	addi	x11,x11,4

# Testcase cr_rs1_rs2_edges (Test source rs1 = 0x00000000 rs2 = 0x7ffffffe)
  RVTEST_TESTDATA_LOAD_INT(x24, x31) # load rs1: x31 = 0x00000000
    1650:	000c2f83          	lw	x31,0(x24)
    1654:	004c0c13          	addi	x24,x24,4
  RVTEST_TESTDATA_LOAD_INT(x24, x20) # load rs2: x20 = 0x7ffffffe
    1658:	000c2a03          	lw	x20,0(x24)
    165c:	004c0c13          	addi	x24,x24,4

00001660 <I_or_cg_cr_rs1_rs2_edges_rs1val_0x0_rs2val_0x7ffffffe>:
I_or_cg_cr_rs1_rs2_edges_rs1val_0x0_rs2val_0x7ffffffe:
  or x28, x31, x20 # perform operation
    1660:	014fee33          	or	x28,x31,x20
  # Check if x28 contains the expected result. x11 is the signature ptr, x5 is the link ptr, x4 is a temp reg.
  RVTEST_SIGUPD(x11, x5, x4, x28, I_or_cg_cr_rs1_rs2_edges_rs1val_0x0_rs2val_0x7ffffffe, I_or_cg_cr_rs1_rs2_edges_rs1val_0x0_rs2val_0x7ffffffe_str)
    1664:	0005a203          	lw	x4,0(x11)
    1668:	01c20863          	beq	x4,x28,1678 <I_or_cg_cr_rs1_rs2_edges_rs1val_0x0_rs2val_0x7ffffffe+0x18>
    166c:	651022ef          	jal	x5,44bc <failedtest_x5_x4>
    1670:	00001660          	.word	0x00001660
    1674:	0000a599          	.word	0x0000a599
    1678:	00458593          	addi	x11,x11,4

# Testcase cr_rs1_rs2_edges (Test source rs1 = 0x00000000 rs2 = 0xffffffff)
  RVTEST_TESTDATA_LOAD_INT(x24, x13) # load rs1: x13 = 0x00000000
    167c:	000c2683          	lw	x13,0(x24)
    1680:	004c0c13          	addi	x24,x24,4
  RVTEST_TESTDATA_LOAD_INT(x24, x22) # load rs2: x22 = 0xffffffff
    1684:	000c2b03          	lw	x22,0(x24)
    1688:	004c0c13          	addi	x24,x24,4

0000168c <I_or_cg_cr_rs1_rs2_edges_rs1val_0x0_rs2val_0xffffffff>:
I_or_cg_cr_rs1_rs2_edges_rs1val_0x0_rs2val_0xffffffff:
  or x9, x13, x22 # perform operation
    168c:	0166e4b3          	or	x9,x13,x22
  # Check if x9 contains the expected result. x11 is the signature ptr, x5 is the link ptr, x4 is a temp reg.
  RVTEST_SIGUPD(x11, x5, x4, x9, I_or_cg_cr_rs1_rs2_edges_rs1val_0x0_rs2val_0xffffffff, I_or_cg_cr_rs1_rs2_edges_rs1val_0x0_rs2val_0xffffffff_str)
    1690:	0005a203          	lw	x4,0(x11)
    1694:	00920863          	beq	x4,x9,16a4 <I_or_cg_cr_rs1_rs2_edges_rs1val_0x0_rs2val_0xffffffff+0x18>
    1698:	625022ef          	jal	x5,44bc <failedtest_x5_x4>
    169c:	0000168c          	.word	0x0000168c
    16a0:	0000a5ec          	.word	0x0000a5ec
    16a4:	00458593          	addi	x11,x11,4

# Testcase cr_rs1_rs2_edges (Test source rs1 = 0x00000000 rs2 = 0xfffffffe)
  RVTEST_TESTDATA_LOAD_INT(x24, x19) # load rs1: x19 = 0x00000000
    16a8:	000c2983          	lw	x19,0(x24)
    16ac:	004c0c13          	addi	x24,x24,4
  RVTEST_TESTDATA_LOAD_INT(x24, x1) # load rs2: x1 = 0xfffffffe
    16b0:	000c2083          	lw	x1,0(x24)
    16b4:	004c0c13          	addi	x24,x24,4

000016b8 <I_or_cg_cr_rs1_rs2_edges_rs1val_0x0_rs2val_0xfffffffe>:
I_or_cg_cr_rs1_rs2_edges_rs1val_0x0_rs2val_0xfffffffe:
  or x29, x19, x1 # perform operation
    16b8:	0019eeb3          	or	x29,x19,x1
  # Check if x29 contains the expected result. x11 is the signature ptr, x5 is the link ptr, x4 is a temp reg.
  RVTEST_SIGUPD(x11, x5, x4, x29, I_or_cg_cr_rs1_rs2_edges_rs1val_0x0_rs2val_0xfffffffe, I_or_cg_cr_rs1_rs2_edges_rs1val_0x0_rs2val_0xfffffffe_str)
    16bc:	0005a203          	lw	x4,0(x11)
    16c0:	01d20863          	beq	x4,x29,16d0 <I_or_cg_cr_rs1_rs2_edges_rs1val_0x0_rs2val_0xfffffffe+0x18>
    16c4:	5f9022ef          	jal	x5,44bc <failedtest_x5_x4>
    16c8:	000016b8          	.word	0x000016b8
    16cc:	0000a63f          	.word	0x0000a63f
    16d0:	00458593          	addi	x11,x11,4

# Testcase cr_rs1_rs2_edges (Test source rs1 = 0x00000000 rs2 = 0x5bbc8872)
  RVTEST_TESTDATA_LOAD_INT(x24, x9) # load rs1: x9 = 0x00000000
    16d4:	000c2483          	lw	x9,0(x24)
    16d8:	004c0c13          	addi	x24,x24,4
  RVTEST_TESTDATA_LOAD_INT(x24, x12) # load rs2: x12 = 0x5bbc8872
    16dc:	000c2603          	lw	x12,0(x24)
    16e0:	004c0c13          	addi	x24,x24,4

000016e4 <I_or_cg_cr_rs1_rs2_edges_rs1val_0x0_rs2val_0x5bbc8872>:
I_or_cg_cr_rs1_rs2_edges_rs1val_0x0_rs2val_0x5bbc8872:
  or x14, x9, x12 # perform operation
    16e4:	00c4e733          	or	x14,x9,x12
  # Check if x14 contains the expected result. x11 is the signature ptr, x5 is the link ptr, x4 is a temp reg.
  RVTEST_SIGUPD(x11, x5, x4, x14, I_or_cg_cr_rs1_rs2_edges_rs1val_0x0_rs2val_0x5bbc8872, I_or_cg_cr_rs1_rs2_edges_rs1val_0x0_rs2val_0x5bbc8872_str)
    16e8:	0005a203          	lw	x4,0(x11)
    16ec:	00e20863          	beq	x4,x14,16fc <I_or_cg_cr_rs1_rs2_edges_rs1val_0x0_rs2val_0x5bbc8872+0x18>
    16f0:	5cd022ef          	jal	x5,44bc <failedtest_x5_x4>
    16f4:	000016e4          	.word	0x000016e4
    16f8:	0000a692          	.word	0x0000a692
    16fc:	00458593          	addi	x11,x11,4

# Testcase cr_rs1_rs2_edges (Test source rs1 = 0x00000000 rs2 = 0xaaaaaaaa)
  RVTEST_TESTDATA_LOAD_INT(x24, x14) # load rs1: x14 = 0x00000000
    1700:	000c2703          	lw	x14,0(x24)
    1704:	004c0c13          	addi	x24,x24,4
  RVTEST_TESTDATA_LOAD_INT(x24, x23) # load rs2: x23 = 0xaaaaaaaa
    1708:	000c2b83          	lw	x23,0(x24)
    170c:	004c0c13          	addi	x24,x24,4

00001710 <I_or_cg_cr_rs1_rs2_edges_rs1val_0x0_rs2val_0xaaaaaaaa>:
I_or_cg_cr_rs1_rs2_edges_rs1val_0x0_rs2val_0xaaaaaaaa:
  or x15, x14, x23 # perform operation
    1710:	017767b3          	or	x15,x14,x23
  # Check if x15 contains the expected result. x11 is the signature ptr, x5 is the link ptr, x4 is a temp reg.
  RVTEST_SIGUPD(x11, x5, x4, x15, I_or_cg_cr_rs1_rs2_edges_rs1val_0x0_rs2val_0xaaaaaaaa, I_or_cg_cr_rs1_rs2_edges_rs1val_0x0_rs2val_0xaaaaaaaa_str)
    1714:	0005a203          	lw	x4,0(x11)
    1718:	00f20863          	beq	x4,x15,1728 <I_or_cg_cr_rs1_rs2_edges_rs1val_0x0_rs2val_0xaaaaaaaa+0x18>
    171c:	5a1022ef          	jal	x5,44bc <failedtest_x5_x4>
    1720:	00001710          	.word	0x00001710
    1724:	0000a6e5          	.word	0x0000a6e5
    1728:	00458593          	addi	x11,x11,4

# Testcase cr_rs1_rs2_edges (Test source rs1 = 0x00000000 rs2 = 0x55555555)
  RVTEST_TESTDATA_LOAD_INT(x24, x10) # load rs1: x10 = 0x00000000
    172c:	000c2503          	lw	x10,0(x24)
    1730:	004c0c13          	addi	x24,x24,4
  RVTEST_TESTDATA_LOAD_INT(x24, x26) # load rs2: x26 = 0x55555555
    1734:	000c2d03          	lw	x26,0(x24)
    1738:	004c0c13          	addi	x24,x24,4

0000173c <I_or_cg_cr_rs1_rs2_edges_rs1val_0x0_rs2val_0x55555555>:
I_or_cg_cr_rs1_rs2_edges_rs1val_0x0_rs2val_0x55555555:
  or x23, x10, x26 # perform operation
    173c:	01a56bb3          	or	x23,x10,x26
  # Check if x23 contains the expected result. x11 is the signature ptr, x5 is the link ptr, x4 is a temp reg.
  RVTEST_SIGUPD(x11, x5, x4, x23, I_or_cg_cr_rs1_rs2_edges_rs1val_0x0_rs2val_0x55555555, I_or_cg_cr_rs1_rs2_edges_rs1val_0x0_rs2val_0x55555555_str)
    1740:	0005a203          	lw	x4,0(x11)
    1744:	01720863          	beq	x4,x23,1754 <I_or_cg_cr_rs1_rs2_edges_rs1val_0x0_rs2val_0x55555555+0x18>
    1748:	575022ef          	jal	x5,44bc <failedtest_x5_x4>
    174c:	0000173c          	.word	0x0000173c
    1750:	0000a738          	.word	0x0000a738
    1754:	00458593          	addi	x11,x11,4

# Testcase cr_rs1_rs2_edges (Test source rs1 = 0x00000001 rs2 = 0x00000000)
  RVTEST_TESTDATA_LOAD_INT(x24, x16) # load rs1: x16 = 0x00000001
    1758:	000c2803          	lw	x16,0(x24)
    175c:	004c0c13          	addi	x24,x24,4
  RVTEST_TESTDATA_LOAD_INT(x24, x10) # load rs2: x10 = 0x00000000
    1760:	000c2503          	lw	x10,0(x24)
    1764:	004c0c13          	addi	x24,x24,4

00001768 <I_or_cg_cr_rs1_rs2_edges_rs1val_0x1_rs2val_0x0>:
I_or_cg_cr_rs1_rs2_edges_rs1val_0x1_rs2val_0x0:
  or x13, x16, x10 # perform operation
    1768:	00a866b3          	or	x13,x16,x10
  # Check if x13 contains the expected result. x11 is the signature ptr, x5 is the link ptr, x4 is a temp reg.
  RVTEST_SIGUPD(x11, x5, x4, x13, I_or_cg_cr_rs1_rs2_edges_rs1val_0x1_rs2val_0x0, I_or_cg_cr_rs1_rs2_edges_rs1val_0x1_rs2val_0x0_str)
    176c:	0005a203          	lw	x4,0(x11)
    1770:	00d20863          	beq	x4,x13,1780 <I_or_cg_cr_rs1_rs2_edges_rs1val_0x1_rs2val_0x0+0x18>
    1774:	549022ef          	jal	x5,44bc <failedtest_x5_x4>
    1778:	00001768          	.word	0x00001768
    177c:	0000a78b          	.word	0x0000a78b
    1780:	00458593          	addi	x11,x11,4

# Testcase cr_rs1_rs2_edges (Test source rs1 = 0x00000001 rs2 = 0x00000001)
  RVTEST_TESTDATA_LOAD_INT(x24, x17) # load rs1: x17 = 0x00000001
    1784:	000c2883          	lw	x17,0(x24)
    1788:	004c0c13          	addi	x24,x24,4
  RVTEST_TESTDATA_LOAD_INT(x24, x15) # load rs2: x15 = 0x00000001
    178c:	000c2783          	lw	x15,0(x24)
    1790:	004c0c13          	addi	x24,x24,4

00001794 <I_or_cg_cr_rs1_rs2_edges_rs1val_0x1_rs2val_0x1>:
I_or_cg_cr_rs1_rs2_edges_rs1val_0x1_rs2val_0x1:
  or x25, x17, x15 # perform operation
    1794:	00f8ecb3          	or	x25,x17,x15
  # Check if x25 contains the expected result. x11 is the signature ptr, x5 is the link ptr, x4 is a temp reg.
  RVTEST_SIGUPD(x11, x5, x4, x25, I_or_cg_cr_rs1_rs2_edges_rs1val_0x1_rs2val_0x1, I_or_cg_cr_rs1_rs2_edges_rs1val_0x1_rs2val_0x1_str)
    1798:	0005a203          	lw	x4,0(x11)
    179c:	01920863          	beq	x4,x25,17ac <I_or_cg_cr_rs1_rs2_edges_rs1val_0x1_rs2val_0x1+0x18>
    17a0:	51d022ef          	jal	x5,44bc <failedtest_x5_x4>
    17a4:	00001794          	.word	0x00001794
    17a8:	0000a7d7          	.word	0x0000a7d7
    17ac:	00458593          	addi	x11,x11,4

# Testcase cr_rs1_rs2_edges (Test source rs1 = 0x00000001 rs2 = 0x00000002)
  RVTEST_TESTDATA_LOAD_INT(x24, x19) # load rs1: x19 = 0x00000001
    17b0:	000c2983          	lw	x19,0(x24)
    17b4:	004c0c13          	addi	x24,x24,4
  RVTEST_TESTDATA_LOAD_INT(x24, x13) # load rs2: x13 = 0x00000002
    17b8:	000c2683          	lw	x13,0(x24)
    17bc:	004c0c13          	addi	x24,x24,4

000017c0 <I_or_cg_cr_rs1_rs2_edges_rs1val_0x1_rs2val_0x2>:
I_or_cg_cr_rs1_rs2_edges_rs1val_0x1_rs2val_0x2:
  or x17, x19, x13 # perform operation
    17c0:	00d9e8b3          	or	x17,x19,x13
  # Check if x17 contains the expected result. x11 is the signature ptr, x5 is the link ptr, x4 is a temp reg.
  RVTEST_SIGUPD(x11, x5, x4, x17, I_or_cg_cr_rs1_rs2_edges_rs1val_0x1_rs2val_0x2, I_or_cg_cr_rs1_rs2_edges_rs1val_0x1_rs2val_0x2_str)
    17c4:	0005a203          	lw	x4,0(x11)
    17c8:	01120863          	beq	x4,x17,17d8 <I_or_cg_cr_rs1_rs2_edges_rs1val_0x1_rs2val_0x2+0x18>
    17cc:	4f1022ef          	jal	x5,44bc <failedtest_x5_x4>
    17d0:	000017c0          	.word	0x000017c0
    17d4:	0000a823          	.word	0x0000a823
    17d8:	00458593          	addi	x11,x11,4

# Testcase cr_rs1_rs2_edges (Test source rs1 = 0x00000001 rs2 = 0x80000000)
  RVTEST_TESTDATA_LOAD_INT(x24, x20) # load rs1: x20 = 0x00000001
    17dc:	000c2a03          	lw	x20,0(x24)
    17e0:	004c0c13          	addi	x24,x24,4
  RVTEST_TESTDATA_LOAD_INT(x24, x26) # load rs2: x26 = 0x80000000
    17e4:	000c2d03          	lw	x26,0(x24)
    17e8:	004c0c13          	addi	x24,x24,4

000017ec <I_or_cg_cr_rs1_rs2_edges_rs1val_0x1_rs2val_0x80000000>:
I_or_cg_cr_rs1_rs2_edges_rs1val_0x1_rs2val_0x80000000:
  or x28, x20, x26 # perform operation
    17ec:	01aa6e33          	or	x28,x20,x26
  # Check if x28 contains the expected result. x11 is the signature ptr, x5 is the link ptr, x4 is a temp reg.
  RVTEST_SIGUPD(x11, x5, x4, x28, I_or_cg_cr_rs1_rs2_edges_rs1val_0x1_rs2val_0x80000000, I_or_cg_cr_rs1_rs2_edges_rs1val_0x1_rs2val_0x80000000_str)
    17f0:	0005a203          	lw	x4,0(x11)
    17f4:	01c20863          	beq	x4,x28,1804 <I_or_cg_cr_rs1_rs2_edges_rs1val_0x1_rs2val_0x80000000+0x18>
    17f8:	4c5022ef          	jal	x5,44bc <failedtest_x5_x4>
    17fc:	000017ec          	.word	0x000017ec
    1800:	0000a86f          	.word	0x0000a86f
    1804:	00458593          	addi	x11,x11,4

# Testcase cr_rs1_rs2_edges (Test source rs1 = 0x00000001 rs2 = 0x80000001)
  RVTEST_TESTDATA_LOAD_INT(x24, x12) # load rs1: x12 = 0x00000001
    1808:	000c2603          	lw	x12,0(x24)
    180c:	004c0c13          	addi	x24,x24,4
  RVTEST_TESTDATA_LOAD_INT(x24, x9) # load rs2: x9 = 0x80000001
    1810:	000c2483          	lw	x9,0(x24)
    1814:	004c0c13          	addi	x24,x24,4

00001818 <I_or_cg_cr_rs1_rs2_edges_rs1val_0x1_rs2val_0x80000001>:
I_or_cg_cr_rs1_rs2_edges_rs1val_0x1_rs2val_0x80000001:
  or x7, x12, x9 # perform operation
    1818:	009663b3          	or	x7,x12,x9
  # Check if x7 contains the expected result. x11 is the signature ptr, x5 is the link ptr, x4 is a temp reg.
  RVTEST_SIGUPD(x11, x5, x4, x7, I_or_cg_cr_rs1_rs2_edges_rs1val_0x1_rs2val_0x80000001, I_or_cg_cr_rs1_rs2_edges_rs1val_0x1_rs2val_0x80000001_str)
    181c:	0005a203          	lw	x4,0(x11)
    1820:	00720863          	beq	x4,x7,1830 <I_or_cg_cr_rs1_rs2_edges_rs1val_0x1_rs2val_0x80000001+0x18>
    1824:	499022ef          	jal	x5,44bc <failedtest_x5_x4>
    1828:	00001818          	.word	0x00001818
    182c:	0000a8c2          	.word	0x0000a8c2
    1830:	00458593          	addi	x11,x11,4

# Testcase cr_rs1_rs2_edges (Test source rs1 = 0x00000001 rs2 = 0x7fffffff)
  RVTEST_TESTDATA_LOAD_INT(x24, x9) # load rs1: x9 = 0x00000001
    1834:	000c2483          	lw	x9,0(x24)
    1838:	004c0c13          	addi	x24,x24,4
  RVTEST_TESTDATA_LOAD_INT(x24, x13) # load rs2: x13 = 0x7fffffff
    183c:	000c2683          	lw	x13,0(x24)
    1840:	004c0c13          	addi	x24,x24,4

00001844 <I_or_cg_cr_rs1_rs2_edges_rs1val_0x1_rs2val_0x7fffffff>:
I_or_cg_cr_rs1_rs2_edges_rs1val_0x1_rs2val_0x7fffffff:
  or x2, x9, x13 # perform operation
    1844:	00d4e133          	or	x2,x9,x13
  # Check if x2 contains the expected result. x11 is the signature ptr, x5 is the link ptr, x4 is a temp reg.
  RVTEST_SIGUPD(x11, x5, x4, x2, I_or_cg_cr_rs1_rs2_edges_rs1val_0x1_rs2val_0x7fffffff, I_or_cg_cr_rs1_rs2_edges_rs1val_0x1_rs2val_0x7fffffff_str)
    1848:	0005a203          	lw	x4,0(x11)
    184c:	00220863          	beq	x4,x2,185c <I_or_cg_cr_rs1_rs2_edges_rs1val_0x1_rs2val_0x7fffffff+0x18>
    1850:	46d022ef          	jal	x5,44bc <failedtest_x5_x4>
    1854:	00001844          	.word	0x00001844
    1858:	0000a915          	.word	0x0000a915
    185c:	00458593          	addi	x11,x11,4

# Testcase cr_rs1_rs2_edges (Test source rs1 = 0x00000001 rs2 = 0x7ffffffe)
  RVTEST_TESTDATA_LOAD_INT(x24, x8) # load rs1: x8 = 0x00000001
    1860:	000c2403          	lw	x8,0(x24)
    1864:	004c0c13          	addi	x24,x24,4
  RVTEST_TESTDATA_LOAD_INT(x24, x17) # load rs2: x17 = 0x7ffffffe
    1868:	000c2883          	lw	x17,0(x24)
    186c:	004c0c13          	addi	x24,x24,4

00001870 <I_or_cg_cr_rs1_rs2_edges_rs1val_0x1_rs2val_0x7ffffffe>:
I_or_cg_cr_rs1_rs2_edges_rs1val_0x1_rs2val_0x7ffffffe:
  or x27, x8, x17 # perform operation
    1870:	01146db3          	or	x27,x8,x17
  # Check if x27 contains the expected result. x11 is the signature ptr, x5 is the link ptr, x4 is a temp reg.
  RVTEST_SIGUPD(x11, x5, x4, x27, I_or_cg_cr_rs1_rs2_edges_rs1val_0x1_rs2val_0x7ffffffe, I_or_cg_cr_rs1_rs2_edges_rs1val_0x1_rs2val_0x7ffffffe_str)
    1874:	0005a203          	lw	x4,0(x11)
    1878:	01b20863          	beq	x4,x27,1888 <I_or_cg_cr_rs1_rs2_edges_rs1val_0x1_rs2val_0x7ffffffe+0x18>
    187c:	441022ef          	jal	x5,44bc <failedtest_x5_x4>
    1880:	00001870          	.word	0x00001870
    1884:	0000a968          	.word	0x0000a968
    1888:	00458593          	addi	x11,x11,4

# Testcase cr_rs1_rs2_edges (Test source rs1 = 0x00000001 rs2 = 0xffffffff)
  RVTEST_TESTDATA_LOAD_INT(x24, x18) # load rs1: x18 = 0x00000001
    188c:	000c2903          	lw	x18,0(x24)
    1890:	004c0c13          	addi	x24,x24,4
  RVTEST_TESTDATA_LOAD_INT(x24, x23) # load rs2: x23 = 0xffffffff
    1894:	000c2b83          	lw	x23,0(x24)
    1898:	004c0c13          	addi	x24,x24,4

0000189c <I_or_cg_cr_rs1_rs2_edges_rs1val_0x1_rs2val_0xffffffff>:
I_or_cg_cr_rs1_rs2_edges_rs1val_0x1_rs2val_0xffffffff:
  or x3, x18, x23 # perform operation
    189c:	017961b3          	or	x3,x18,x23
  # Check if x3 contains the expected result. x11 is the signature ptr, x5 is the link ptr, x4 is a temp reg.
  RVTEST_SIGUPD(x11, x5, x4, x3, I_or_cg_cr_rs1_rs2_edges_rs1val_0x1_rs2val_0xffffffff, I_or_cg_cr_rs1_rs2_edges_rs1val_0x1_rs2val_0xffffffff_str)
    18a0:	0005a203          	lw	x4,0(x11)
    18a4:	00320863          	beq	x4,x3,18b4 <I_or_cg_cr_rs1_rs2_edges_rs1val_0x1_rs2val_0xffffffff+0x18>
    18a8:	415022ef          	jal	x5,44bc <failedtest_x5_x4>
    18ac:	0000189c          	.word	0x0000189c
    18b0:	0000a9bb          	.word	0x0000a9bb
    18b4:	00458593          	addi	x11,x11,4

# Testcase cr_rs1_rs2_edges (Test source rs1 = 0x00000001 rs2 = 0xfffffffe)
  RVTEST_TESTDATA_LOAD_INT(x24, x25) # load rs1: x25 = 0x00000001
    18b8:	000c2c83          	lw	x25,0(x24)
    18bc:	004c0c13          	addi	x24,x24,4
  RVTEST_TESTDATA_LOAD_INT(x24, x10) # load rs2: x10 = 0xfffffffe
    18c0:	000c2503          	lw	x10,0(x24)
    18c4:	004c0c13          	addi	x24,x24,4

000018c8 <I_or_cg_cr_rs1_rs2_edges_rs1val_0x1_rs2val_0xfffffffe>:
I_or_cg_cr_rs1_rs2_edges_rs1val_0x1_rs2val_0xfffffffe:
  or x28, x25, x10 # perform operation
    18c8:	00acee33          	or	x28,x25,x10
  # Check if x28 contains the expected result. x11 is the signature ptr, x5 is the link ptr, x4 is a temp reg.
  RVTEST_SIGUPD(x11, x5, x4, x28, I_or_cg_cr_rs1_rs2_edges_rs1val_0x1_rs2val_0xfffffffe, I_or_cg_cr_rs1_rs2_edges_rs1val_0x1_rs2val_0xfffffffe_str)
    18cc:	0005a203          	lw	x4,0(x11)
    18d0:	01c20863          	beq	x4,x28,18e0 <I_or_cg_cr_rs1_rs2_edges_rs1val_0x1_rs2val_0xfffffffe+0x18>
    18d4:	3e9022ef          	jal	x5,44bc <failedtest_x5_x4>
    18d8:	000018c8          	.word	0x000018c8
    18dc:	0000aa0e          	.word	0x0000aa0e
    18e0:	00458593          	addi	x11,x11,4

# Testcase cr_rs1_rs2_edges (Test source rs1 = 0x00000001 rs2 = 0x5bbc8872)
  RVTEST_TESTDATA_LOAD_INT(x24, x16) # load rs1: x16 = 0x00000001
    18e4:	000c2803          	lw	x16,0(x24)
    18e8:	004c0c13          	addi	x24,x24,4
  RVTEST_TESTDATA_LOAD_INT(x24, x15) # load rs2: x15 = 0x5bbc8872
    18ec:	000c2783          	lw	x15,0(x24)
    18f0:	004c0c13          	addi	x24,x24,4

000018f4 <I_or_cg_cr_rs1_rs2_edges_rs1val_0x1_rs2val_0x5bbc8872>:
I_or_cg_cr_rs1_rs2_edges_rs1val_0x1_rs2val_0x5bbc8872:
  or x8, x16, x15 # perform operation
    18f4:	00f86433          	or	x8,x16,x15
  # Check if x8 contains the expected result. x11 is the signature ptr, x5 is the link ptr, x4 is a temp reg.
  RVTEST_SIGUPD(x11, x5, x4, x8, I_or_cg_cr_rs1_rs2_edges_rs1val_0x1_rs2val_0x5bbc8872, I_or_cg_cr_rs1_rs2_edges_rs1val_0x1_rs2val_0x5bbc8872_str)
    18f8:	0005a203          	lw	x4,0(x11)
    18fc:	00820863          	beq	x4,x8,190c <I_or_cg_cr_rs1_rs2_edges_rs1val_0x1_rs2val_0x5bbc8872+0x18>
    1900:	3bd022ef          	jal	x5,44bc <failedtest_x5_x4>
    1904:	000018f4          	.word	0x000018f4
    1908:	0000aa61          	.word	0x0000aa61
    190c:	00458593          	addi	x11,x11,4

# Testcase cr_rs1_rs2_edges (Test source rs1 = 0x00000001 rs2 = 0xaaaaaaaa)
  RVTEST_TESTDATA_LOAD_INT(x24, x16) # load rs1: x16 = 0x00000001
    1910:	000c2803          	lw	x16,0(x24)
    1914:	004c0c13          	addi	x24,x24,4
  RVTEST_TESTDATA_LOAD_INT(x24, x8) # load rs2: x8 = 0xaaaaaaaa
    1918:	000c2403          	lw	x8,0(x24)
    191c:	004c0c13          	addi	x24,x24,4

00001920 <I_or_cg_cr_rs1_rs2_edges_rs1val_0x1_rs2val_0xaaaaaaaa>:
I_or_cg_cr_rs1_rs2_edges_rs1val_0x1_rs2val_0xaaaaaaaa:
  or x25, x16, x8 # perform operation
    1920:	00886cb3          	or	x25,x16,x8
  # Check if x25 contains the expected result. x11 is the signature ptr, x5 is the link ptr, x4 is a temp reg.
  RVTEST_SIGUPD(x11, x5, x4, x25, I_or_cg_cr_rs1_rs2_edges_rs1val_0x1_rs2val_0xaaaaaaaa, I_or_cg_cr_rs1_rs2_edges_rs1val_0x1_rs2val_0xaaaaaaaa_str)
    1924:	0005a203          	lw	x4,0(x11)
    1928:	01920863          	beq	x4,x25,1938 <I_or_cg_cr_rs1_rs2_edges_rs1val_0x1_rs2val_0xaaaaaaaa+0x18>
    192c:	391022ef          	jal	x5,44bc <failedtest_x5_x4>
    1930:	00001920          	.word	0x00001920
    1934:	0000aab4          	.word	0x0000aab4
    1938:	00458593          	addi	x11,x11,4

# Testcase cr_rs1_rs2_edges (Test source rs1 = 0x00000001 rs2 = 0x55555555)
  RVTEST_TESTDATA_LOAD_INT(x24, x17) # load rs1: x17 = 0x00000001
    193c:	000c2883          	lw	x17,0(x24)
    1940:	004c0c13          	addi	x24,x24,4
  RVTEST_TESTDATA_LOAD_INT(x24, x13) # load rs2: x13 = 0x55555555
    1944:	000c2683          	lw	x13,0(x24)
    1948:	004c0c13          	addi	x24,x24,4

0000194c <I_or_cg_cr_rs1_rs2_edges_rs1val_0x1_rs2val_0x55555555>:
I_or_cg_cr_rs1_rs2_edges_rs1val_0x1_rs2val_0x55555555:
  or x20, x17, x13 # perform operation
    194c:	00d8ea33          	or	x20,x17,x13
  # Check if x20 contains the expected result. x11 is the signature ptr, x5 is the link ptr, x4 is a temp reg.
  RVTEST_SIGUPD(x11, x5, x4, x20, I_or_cg_cr_rs1_rs2_edges_rs1val_0x1_rs2val_0x55555555, I_or_cg_cr_rs1_rs2_edges_rs1val_0x1_rs2val_0x55555555_str)
    1950:	0005a203          	lw	x4,0(x11)
    1954:	01420863          	beq	x4,x20,1964 <I_or_cg_cr_rs1_rs2_edges_rs1val_0x1_rs2val_0x55555555+0x18>
    1958:	365022ef          	jal	x5,44bc <failedtest_x5_x4>
    195c:	0000194c          	.word	0x0000194c
    1960:	0000ab07          	.word	0x0000ab07
    1964:	00458593          	addi	x11,x11,4

# Testcase cr_rs1_rs2_edges (Test source rs1 = 0x00000002 rs2 = 0x00000000)
  RVTEST_TESTDATA_LOAD_INT(x24, x18) # load rs1: x18 = 0x00000002
    1968:	000c2903          	lw	x18,0(x24)
    196c:	004c0c13          	addi	x24,x24,4
  RVTEST_TESTDATA_LOAD_INT(x24, x2) # load rs2: x2 = 0x00000000
    1970:	000c2103          	lw	x2,0(x24)
    1974:	004c0c13          	addi	x24,x24,4

00001978 <I_or_cg_cr_rs1_rs2_edges_rs1val_0x2_rs2val_0x0>:
I_or_cg_cr_rs1_rs2_edges_rs1val_0x2_rs2val_0x0:
  or x17, x18, x2 # perform operation
    1978:	002968b3          	or	x17,x18,x2
  # Check if x17 contains the expected result. x11 is the signature ptr, x5 is the link ptr, x4 is a temp reg.
  RVTEST_SIGUPD(x11, x5, x4, x17, I_or_cg_cr_rs1_rs2_edges_rs1val_0x2_rs2val_0x0, I_or_cg_cr_rs1_rs2_edges_rs1val_0x2_rs2val_0x0_str)
    197c:	0005a203          	lw	x4,0(x11)
    1980:	01120863          	beq	x4,x17,1990 <I_or_cg_cr_rs1_rs2_edges_rs1val_0x2_rs2val_0x0+0x18>
    1984:	339022ef          	jal	x5,44bc <failedtest_x5_x4>
    1988:	00001978          	.word	0x00001978
    198c:	0000ab5a          	.word	0x0000ab5a
    1990:	00458593          	addi	x11,x11,4

# Testcase cr_rs1_rs2_edges (Test source rs1 = 0x00000002 rs2 = 0x00000001)
  RVTEST_TESTDATA_LOAD_INT(x24, x20) # load rs1: x20 = 0x00000002
    1994:	000c2a03          	lw	x20,0(x24)
    1998:	004c0c13          	addi	x24,x24,4
  RVTEST_TESTDATA_LOAD_INT(x24, x14) # load rs2: x14 = 0x00000001
    199c:	000c2703          	lw	x14,0(x24)
    19a0:	004c0c13          	addi	x24,x24,4

000019a4 <I_or_cg_cr_rs1_rs2_edges_rs1val_0x2_rs2val_0x1>:
I_or_cg_cr_rs1_rs2_edges_rs1val_0x2_rs2val_0x1:
  or x18, x20, x14 # perform operation
    19a4:	00ea6933          	or	x18,x20,x14
  # Check if x18 contains the expected result. x11 is the signature ptr, x5 is the link ptr, x4 is a temp reg.
  RVTEST_SIGUPD(x11, x5, x4, x18, I_or_cg_cr_rs1_rs2_edges_rs1val_0x2_rs2val_0x1, I_or_cg_cr_rs1_rs2_edges_rs1val_0x2_rs2val_0x1_str)
    19a8:	0005a203          	lw	x4,0(x11)
    19ac:	01220863          	beq	x4,x18,19bc <I_or_cg_cr_rs1_rs2_edges_rs1val_0x2_rs2val_0x1+0x18>
    19b0:	30d022ef          	jal	x5,44bc <failedtest_x5_x4>
    19b4:	000019a4          	.word	0x000019a4
    19b8:	0000aba6          	.word	0x0000aba6
    19bc:	00458593          	addi	x11,x11,4

# Testcase cr_rs1_rs2_edges (Test source rs1 = 0x00000002 rs2 = 0x00000002)
  RVTEST_TESTDATA_LOAD_INT(x24, x19) # load rs1: x19 = 0x00000002
    19c0:	000c2983          	lw	x19,0(x24)
    19c4:	004c0c13          	addi	x24,x24,4
  RVTEST_TESTDATA_LOAD_INT(x24, x20) # load rs2: x20 = 0x00000002
    19c8:	000c2a03          	lw	x20,0(x24)
    19cc:	004c0c13          	addi	x24,x24,4

000019d0 <I_or_cg_cr_rs1_rs2_edges_rs1val_0x2_rs2val_0x2>:
I_or_cg_cr_rs1_rs2_edges_rs1val_0x2_rs2val_0x2:
  or x28, x19, x20 # perform operation
    19d0:	0149ee33          	or	x28,x19,x20
  # Check if x28 contains the expected result. x11 is the signature ptr, x5 is the link ptr, x4 is a temp reg.
  RVTEST_SIGUPD(x11, x5, x4, x28, I_or_cg_cr_rs1_rs2_edges_rs1val_0x2_rs2val_0x2, I_or_cg_cr_rs1_rs2_edges_rs1val_0x2_rs2val_0x2_str)
    19d4:	0005a203          	lw	x4,0(x11)
    19d8:	01c20863          	beq	x4,x28,19e8 <I_or_cg_cr_rs1_rs2_edges_rs1val_0x2_rs2val_0x2+0x18>
    19dc:	2e1022ef          	jal	x5,44bc <failedtest_x5_x4>
    19e0:	000019d0          	.word	0x000019d0
    19e4:	0000abf2          	.word	0x0000abf2
    19e8:	00458593          	addi	x11,x11,4

# Testcase cr_rs1_rs2_edges (Test source rs1 = 0x00000002 rs2 = 0x80000000)
  RVTEST_TESTDATA_LOAD_INT(x24, x13) # load rs1: x13 = 0x00000002
    19ec:	000c2683          	lw	x13,0(x24)
    19f0:	004c0c13          	addi	x24,x24,4
  RVTEST_TESTDATA_LOAD_INT(x24, x2) # load rs2: x2 = 0x80000000
    19f4:	000c2103          	lw	x2,0(x24)
    19f8:	004c0c13          	addi	x24,x24,4

000019fc <I_or_cg_cr_rs1_rs2_edges_rs1val_0x2_rs2val_0x80000000>:
I_or_cg_cr_rs1_rs2_edges_rs1val_0x2_rs2val_0x80000000:
  or x12, x13, x2 # perform operation
    19fc:	0026e633          	or	x12,x13,x2
  # Check if x12 contains the expected result. x11 is the signature ptr, x5 is the link ptr, x4 is a temp reg.
  RVTEST_SIGUPD(x11, x5, x4, x12, I_or_cg_cr_rs1_rs2_edges_rs1val_0x2_rs2val_0x80000000, I_or_cg_cr_rs1_rs2_edges_rs1val_0x2_rs2val_0x80000000_str)
    1a00:	0005a203          	lw	x4,0(x11)
    1a04:	00c20863          	beq	x4,x12,1a14 <I_or_cg_cr_rs1_rs2_edges_rs1val_0x2_rs2val_0x80000000+0x18>
    1a08:	2b5022ef          	jal	x5,44bc <failedtest_x5_x4>
    1a0c:	000019fc          	.word	0x000019fc
    1a10:	0000ac3e          	.word	0x0000ac3e
    1a14:	00458593          	addi	x11,x11,4

# Testcase cr_rs1_rs2_edges (Test source rs1 = 0x00000002 rs2 = 0x80000001)
  RVTEST_TESTDATA_LOAD_INT(x24, x9) # load rs1: x9 = 0x00000002
    1a18:	000c2483          	lw	x9,0(x24)
    1a1c:	004c0c13          	addi	x24,x24,4
  RVTEST_TESTDATA_LOAD_INT(x24, x22) # load rs2: x22 = 0x80000001
    1a20:	000c2b03          	lw	x22,0(x24)
    1a24:	004c0c13          	addi	x24,x24,4

00001a28 <I_or_cg_cr_rs1_rs2_edges_rs1val_0x2_rs2val_0x80000001>:
I_or_cg_cr_rs1_rs2_edges_rs1val_0x2_rs2val_0x80000001:
  or x19, x9, x22 # perform operation
    1a28:	0164e9b3          	or	x19,x9,x22
  # Check if x19 contains the expected result. x11 is the signature ptr, x5 is the link ptr, x4 is a temp reg.
  RVTEST_SIGUPD(x11, x5, x4, x19, I_or_cg_cr_rs1_rs2_edges_rs1val_0x2_rs2val_0x80000001, I_or_cg_cr_rs1_rs2_edges_rs1val_0x2_rs2val_0x80000001_str)
    1a2c:	0005a203          	lw	x4,0(x11)
    1a30:	01320863          	beq	x4,x19,1a40 <I_or_cg_cr_rs1_rs2_edges_rs1val_0x2_rs2val_0x80000001+0x18>
    1a34:	289022ef          	jal	x5,44bc <failedtest_x5_x4>
    1a38:	00001a28          	.word	0x00001a28
    1a3c:	0000ac91          	.word	0x0000ac91
    1a40:	00458593          	addi	x11,x11,4

# Testcase cr_rs1_rs2_edges (Test source rs1 = 0x00000002 rs2 = 0x7fffffff)
  RVTEST_TESTDATA_LOAD_INT(x24, x10) # load rs1: x10 = 0x00000002
    1a44:	000c2503          	lw	x10,0(x24)
    1a48:	004c0c13          	addi	x24,x24,4
  RVTEST_TESTDATA_LOAD_INT(x24, x12) # load rs2: x12 = 0x7fffffff
    1a4c:	000c2603          	lw	x12,0(x24)
    1a50:	004c0c13          	addi	x24,x24,4

00001a54 <I_or_cg_cr_rs1_rs2_edges_rs1val_0x2_rs2val_0x7fffffff>:
I_or_cg_cr_rs1_rs2_edges_rs1val_0x2_rs2val_0x7fffffff:
  or x18, x10, x12 # perform operation
    1a54:	00c56933          	or	x18,x10,x12
  # Check if x18 contains the expected result. x11 is the signature ptr, x5 is the link ptr, x4 is a temp reg.
  RVTEST_SIGUPD(x11, x5, x4, x18, I_or_cg_cr_rs1_rs2_edges_rs1val_0x2_rs2val_0x7fffffff, I_or_cg_cr_rs1_rs2_edges_rs1val_0x2_rs2val_0x7fffffff_str)
    1a58:	0005a203          	lw	x4,0(x11)
    1a5c:	01220863          	beq	x4,x18,1a6c <I_or_cg_cr_rs1_rs2_edges_rs1val_0x2_rs2val_0x7fffffff+0x18>
    1a60:	25d022ef          	jal	x5,44bc <failedtest_x5_x4>
    1a64:	00001a54          	.word	0x00001a54
    1a68:	0000ace4          	.word	0x0000ace4
    1a6c:	00458593          	addi	x11,x11,4

# Testcase cr_rs1_rs2_edges (Test source rs1 = 0x00000002 rs2 = 0x7ffffffe)
  RVTEST_TESTDATA_LOAD_INT(x24, x14) # load rs1: x14 = 0x00000002
    1a70:	000c2703          	lw	x14,0(x24)
    1a74:	004c0c13          	addi	x24,x24,4
  RVTEST_TESTDATA_LOAD_INT(x24, x17) # load rs2: x17 = 0x7ffffffe
    1a78:	000c2883          	lw	x17,0(x24)
    1a7c:	004c0c13          	addi	x24,x24,4

00001a80 <I_or_cg_cr_rs1_rs2_edges_rs1val_0x2_rs2val_0x7ffffffe>:
I_or_cg_cr_rs1_rs2_edges_rs1val_0x2_rs2val_0x7ffffffe:
  or x7, x14, x17 # perform operation
    1a80:	011763b3          	or	x7,x14,x17
  # Check if x7 contains the expected result. x11 is the signature ptr, x5 is the link ptr, x4 is a temp reg.
  RVTEST_SIGUPD(x11, x5, x4, x7, I_or_cg_cr_rs1_rs2_edges_rs1val_0x2_rs2val_0x7ffffffe, I_or_cg_cr_rs1_rs2_edges_rs1val_0x2_rs2val_0x7ffffffe_str)
    1a84:	0005a203          	lw	x4,0(x11)
    1a88:	00720863          	beq	x4,x7,1a98 <I_or_cg_cr_rs1_rs2_edges_rs1val_0x2_rs2val_0x7ffffffe+0x18>
    1a8c:	231022ef          	jal	x5,44bc <failedtest_x5_x4>
    1a90:	00001a80          	.word	0x00001a80
    1a94:	0000ad37          	.word	0x0000ad37
    1a98:	00458593          	addi	x11,x11,4

# Testcase cr_rs1_rs2_edges (Test source rs1 = 0x00000002 rs2 = 0xffffffff)
  RVTEST_TESTDATA_LOAD_INT(x24, x26) # load rs1: x26 = 0x00000002
    1a9c:	000c2d03          	lw	x26,0(x24)
    1aa0:	004c0c13          	addi	x24,x24,4
  RVTEST_TESTDATA_LOAD_INT(x24, x1) # load rs2: x1 = 0xffffffff
    1aa4:	000c2083          	lw	x1,0(x24)
    1aa8:	004c0c13          	addi	x24,x24,4

00001aac <I_or_cg_cr_rs1_rs2_edges_rs1val_0x2_rs2val_0xffffffff>:
I_or_cg_cr_rs1_rs2_edges_rs1val_0x2_rs2val_0xffffffff:
  or x30, x26, x1 # perform operation
    1aac:	001d6f33          	or	x30,x26,x1
  # Check if x30 contains the expected result. x11 is the signature ptr, x5 is the link ptr, x4 is a temp reg.
  RVTEST_SIGUPD(x11, x5, x4, x30, I_or_cg_cr_rs1_rs2_edges_rs1val_0x2_rs2val_0xffffffff, I_or_cg_cr_rs1_rs2_edges_rs1val_0x2_rs2val_0xffffffff_str)
    1ab0:	0005a203          	lw	x4,0(x11)
    1ab4:	01e20863          	beq	x4,x30,1ac4 <I_or_cg_cr_rs1_rs2_edges_rs1val_0x2_rs2val_0xffffffff+0x18>
    1ab8:	205022ef          	jal	x5,44bc <failedtest_x5_x4>
    1abc:	00001aac          	.word	0x00001aac
    1ac0:	0000ad8a          	.word	0x0000ad8a
    1ac4:	00458593          	addi	x11,x11,4

# Testcase cr_rs1_rs2_edges (Test source rs1 = 0x00000002 rs2 = 0xfffffffe)
  RVTEST_TESTDATA_LOAD_INT(x24, x20) # load rs1: x20 = 0x00000002
    1ac8:	000c2a03          	lw	x20,0(x24)
    1acc:	004c0c13          	addi	x24,x24,4
  RVTEST_TESTDATA_LOAD_INT(x24, x22) # load rs2: x22 = 0xfffffffe
    1ad0:	000c2b03          	lw	x22,0(x24)
    1ad4:	004c0c13          	addi	x24,x24,4

00001ad8 <I_or_cg_cr_rs1_rs2_edges_rs1val_0x2_rs2val_0xfffffffe>:
I_or_cg_cr_rs1_rs2_edges_rs1val_0x2_rs2val_0xfffffffe:
  or x9, x20, x22 # perform operation
    1ad8:	016a64b3          	or	x9,x20,x22
  # Check if x9 contains the expected result. x11 is the signature ptr, x5 is the link ptr, x4 is a temp reg.
  RVTEST_SIGUPD(x11, x5, x4, x9, I_or_cg_cr_rs1_rs2_edges_rs1val_0x2_rs2val_0xfffffffe, I_or_cg_cr_rs1_rs2_edges_rs1val_0x2_rs2val_0xfffffffe_str)
    1adc:	0005a203          	lw	x4,0(x11)
    1ae0:	00920863          	beq	x4,x9,1af0 <I_or_cg_cr_rs1_rs2_edges_rs1val_0x2_rs2val_0xfffffffe+0x18>
    1ae4:	1d9022ef          	jal	x5,44bc <failedtest_x5_x4>
    1ae8:	00001ad8          	.word	0x00001ad8
    1aec:	0000addd          	.word	0x0000addd
    1af0:	00458593          	addi	x11,x11,4

# Testcase cr_rs1_rs2_edges (Test source rs1 = 0x00000002 rs2 = 0x5bbc8872)
  RVTEST_TESTDATA_LOAD_INT(x24, x10) # load rs1: x10 = 0x00000002
    1af4:	000c2503          	lw	x10,0(x24)
    1af8:	004c0c13          	addi	x24,x24,4
  RVTEST_TESTDATA_LOAD_INT(x24, x28) # load rs2: x28 = 0x5bbc8872
    1afc:	000c2e03          	lw	x28,0(x24)
    1b00:	004c0c13          	addi	x24,x24,4

00001b04 <I_or_cg_cr_rs1_rs2_edges_rs1val_0x2_rs2val_0x5bbc8872>:
I_or_cg_cr_rs1_rs2_edges_rs1val_0x2_rs2val_0x5bbc8872:
  or x30, x10, x28 # perform operation
    1b04:	01c56f33          	or	x30,x10,x28
  # Check if x30 contains the expected result. x11 is the signature ptr, x5 is the link ptr, x4 is a temp reg.
  RVTEST_SIGUPD(x11, x5, x4, x30, I_or_cg_cr_rs1_rs2_edges_rs1val_0x2_rs2val_0x5bbc8872, I_or_cg_cr_rs1_rs2_edges_rs1val_0x2_rs2val_0x5bbc8872_str)
    1b08:	0005a203          	lw	x4,0(x11)
    1b0c:	01e20863          	beq	x4,x30,1b1c <I_or_cg_cr_rs1_rs2_edges_rs1val_0x2_rs2val_0x5bbc8872+0x18>
    1b10:	1ad022ef          	jal	x5,44bc <failedtest_x5_x4>
    1b14:	00001b04          	.word	0x00001b04
    1b18:	0000ae30          	.word	0x0000ae30
    1b1c:	00458593          	addi	x11,x11,4

# Testcase cr_rs1_rs2_edges (Test source rs1 = 0x00000002 rs2 = 0xaaaaaaaa)
  RVTEST_TESTDATA_LOAD_INT(x24, x15) # load rs1: x15 = 0x00000002
    1b20:	000c2783          	lw	x15,0(x24)
    1b24:	004c0c13          	addi	x24,x24,4
  RVTEST_TESTDATA_LOAD_INT(x24, x22) # load rs2: x22 = 0xaaaaaaaa
    1b28:	000c2b03          	lw	x22,0(x24)
    1b2c:	004c0c13          	addi	x24,x24,4

00001b30 <I_or_cg_cr_rs1_rs2_edges_rs1val_0x2_rs2val_0xaaaaaaaa>:
I_or_cg_cr_rs1_rs2_edges_rs1val_0x2_rs2val_0xaaaaaaaa:
  or x10, x15, x22 # perform operation
    1b30:	0167e533          	or	x10,x15,x22
  # Check if x10 contains the expected result. x11 is the signature ptr, x5 is the link ptr, x4 is a temp reg.
  RVTEST_SIGUPD(x11, x5, x4, x10, I_or_cg_cr_rs1_rs2_edges_rs1val_0x2_rs2val_0xaaaaaaaa, I_or_cg_cr_rs1_rs2_edges_rs1val_0x2_rs2val_0xaaaaaaaa_str)
    1b34:	0005a203          	lw	x4,0(x11)
    1b38:	00a20863          	beq	x4,x10,1b48 <I_or_cg_cr_rs1_rs2_edges_rs1val_0x2_rs2val_0xaaaaaaaa+0x18>
    1b3c:	181022ef          	jal	x5,44bc <failedtest_x5_x4>
    1b40:	00001b30          	.word	0x00001b30
    1b44:	0000ae83          	.word	0x0000ae83
    1b48:	00458593          	addi	x11,x11,4

# Testcase cr_rs1_rs2_edges (Test source rs1 = 0x00000002 rs2 = 0x55555555)
  RVTEST_TESTDATA_LOAD_INT(x24, x29) # load rs1: x29 = 0x00000002
    1b4c:	000c2e83          	lw	x29,0(x24)
    1b50:	004c0c13          	addi	x24,x24,4
  RVTEST_TESTDATA_LOAD_INT(x24, x15) # load rs2: x15 = 0x55555555
    1b54:	000c2783          	lw	x15,0(x24)
    1b58:	004c0c13          	addi	x24,x24,4

00001b5c <I_or_cg_cr_rs1_rs2_edges_rs1val_0x2_rs2val_0x55555555>:
I_or_cg_cr_rs1_rs2_edges_rs1val_0x2_rs2val_0x55555555:
  or x28, x29, x15 # perform operation
    1b5c:	00feee33          	or	x28,x29,x15
  # Check if x28 contains the expected result. x11 is the signature ptr, x5 is the link ptr, x4 is a temp reg.
  RVTEST_SIGUPD(x11, x5, x4, x28, I_or_cg_cr_rs1_rs2_edges_rs1val_0x2_rs2val_0x55555555, I_or_cg_cr_rs1_rs2_edges_rs1val_0x2_rs2val_0x55555555_str)
    1b60:	0005a203          	lw	x4,0(x11)
    1b64:	01c20863          	beq	x4,x28,1b74 <I_or_cg_cr_rs1_rs2_edges_rs1val_0x2_rs2val_0x55555555+0x18>
    1b68:	155022ef          	jal	x5,44bc <failedtest_x5_x4>
    1b6c:	00001b5c          	.word	0x00001b5c
    1b70:	0000aed6          	.word	0x0000aed6
    1b74:	00458593          	addi	x11,x11,4

# Testcase cr_rs1_rs2_edges (Test source rs1 = 0x80000000 rs2 = 0x00000000)
  RVTEST_TESTDATA_LOAD_INT(x24, x15) # load rs1: x15 = 0x80000000
    1b78:	000c2783          	lw	x15,0(x24)
    1b7c:	004c0c13          	addi	x24,x24,4
  RVTEST_TESTDATA_LOAD_INT(x24, x16) # load rs2: x16 = 0x00000000
    1b80:	000c2803          	lw	x16,0(x24)
    1b84:	004c0c13          	addi	x24,x24,4

00001b88 <I_or_cg_cr_rs1_rs2_edges_rs1val_0x80000000_rs2val_0x0>:
I_or_cg_cr_rs1_rs2_edges_rs1val_0x80000000_rs2val_0x0:
  or x28, x15, x16 # perform operation
    1b88:	0107ee33          	or	x28,x15,x16
  # Check if x28 contains the expected result. x11 is the signature ptr, x5 is the link ptr, x4 is a temp reg.
  RVTEST_SIGUPD(x11, x5, x4, x28, I_or_cg_cr_rs1_rs2_edges_rs1val_0x80000000_rs2val_0x0, I_or_cg_cr_rs1_rs2_edges_rs1val_0x80000000_rs2val_0x0_str)
    1b8c:	0005a203          	lw	x4,0(x11)
    1b90:	01c20863          	beq	x4,x28,1ba0 <I_or_cg_cr_rs1_rs2_edges_rs1val_0x80000000_rs2val_0x0+0x18>
    1b94:	129022ef          	jal	x5,44bc <failedtest_x5_x4>
    1b98:	00001b88          	.word	0x00001b88
    1b9c:	0000af29          	.word	0x0000af29
    1ba0:	00458593          	addi	x11,x11,4

# Testcase cr_rs1_rs2_edges (Test source rs1 = 0x80000000 rs2 = 0x00000001)
  RVTEST_TESTDATA_LOAD_INT(x24, x22) # load rs1: x22 = 0x80000000
    1ba4:	000c2b03          	lw	x22,0(x24)
    1ba8:	004c0c13          	addi	x24,x24,4
  RVTEST_TESTDATA_LOAD_INT(x24, x27) # load rs2: x27 = 0x00000001
    1bac:	000c2d83          	lw	x27,0(x24)
    1bb0:	004c0c13          	addi	x24,x24,4

00001bb4 <I_or_cg_cr_rs1_rs2_edges_rs1val_0x80000000_rs2val_0x1>:
I_or_cg_cr_rs1_rs2_edges_rs1val_0x80000000_rs2val_0x1:
  or x28, x22, x27 # perform operation
    1bb4:	01bb6e33          	or	x28,x22,x27
  # Check if x28 contains the expected result. x11 is the signature ptr, x5 is the link ptr, x4 is a temp reg.
  RVTEST_SIGUPD(x11, x5, x4, x28, I_or_cg_cr_rs1_rs2_edges_rs1val_0x80000000_rs2val_0x1, I_or_cg_cr_rs1_rs2_edges_rs1val_0x80000000_rs2val_0x1_str)
    1bb8:	0005a203          	lw	x4,0(x11)
    1bbc:	01c20863          	beq	x4,x28,1bcc <I_or_cg_cr_rs1_rs2_edges_rs1val_0x80000000_rs2val_0x1+0x18>
    1bc0:	0fd022ef          	jal	x5,44bc <failedtest_x5_x4>
    1bc4:	00001bb4          	.word	0x00001bb4
    1bc8:	0000af7c          	.word	0x0000af7c
    1bcc:	00458593          	addi	x11,x11,4

# Testcase cr_rs1_rs2_edges (Test source rs1 = 0x80000000 rs2 = 0x00000002)
  RVTEST_TESTDATA_LOAD_INT(x24, x19) # load rs1: x19 = 0x80000000
    1bd0:	000c2983          	lw	x19,0(x24)
    1bd4:	004c0c13          	addi	x24,x24,4
  RVTEST_TESTDATA_LOAD_INT(x24, x16) # load rs2: x16 = 0x00000002
    1bd8:	000c2803          	lw	x16,0(x24)
    1bdc:	004c0c13          	addi	x24,x24,4

00001be0 <I_or_cg_cr_rs1_rs2_edges_rs1val_0x80000000_rs2val_0x2>:
I_or_cg_cr_rs1_rs2_edges_rs1val_0x80000000_rs2val_0x2:
  or x2, x19, x16 # perform operation
    1be0:	0109e133          	or	x2,x19,x16
  # Check if x2 contains the expected result. x11 is the signature ptr, x5 is the link ptr, x4 is a temp reg.
  RVTEST_SIGUPD(x11, x5, x4, x2, I_or_cg_cr_rs1_rs2_edges_rs1val_0x80000000_rs2val_0x2, I_or_cg_cr_rs1_rs2_edges_rs1val_0x80000000_rs2val_0x2_str)
    1be4:	0005a203          	lw	x4,0(x11)
    1be8:	00220863          	beq	x4,x2,1bf8 <I_or_cg_cr_rs1_rs2_edges_rs1val_0x80000000_rs2val_0x2+0x18>
    1bec:	0d1022ef          	jal	x5,44bc <failedtest_x5_x4>
    1bf0:	00001be0          	.word	0x00001be0
    1bf4:	0000afcf          	.word	0x0000afcf
    1bf8:	00458593          	addi	x11,x11,4

# Testcase cr_rs1_rs2_edges (Test source rs1 = 0x80000000 rs2 = 0x80000000)
  RVTEST_TESTDATA_LOAD_INT(x24, x21) # load rs1: x21 = 0x80000000
    1bfc:	000c2a83          	lw	x21,0(x24)
    1c00:	004c0c13          	addi	x24,x24,4
  RVTEST_TESTDATA_LOAD_INT(x24, x13) # load rs2: x13 = 0x80000000
    1c04:	000c2683          	lw	x13,0(x24)
    1c08:	004c0c13          	addi	x24,x24,4

00001c0c <I_or_cg_cr_rs1_rs2_edges_rs1val_0x80000000_rs2val_0x80000000>:
I_or_cg_cr_rs1_rs2_edges_rs1val_0x80000000_rs2val_0x80000000:
  or x3, x21, x13 # perform operation
    1c0c:	00dae1b3          	or	x3,x21,x13
  # Check if x3 contains the expected result. x11 is the signature ptr, x5 is the link ptr, x4 is a temp reg.
  RVTEST_SIGUPD(x11, x5, x4, x3, I_or_cg_cr_rs1_rs2_edges_rs1val_0x80000000_rs2val_0x80000000, I_or_cg_cr_rs1_rs2_edges_rs1val_0x80000000_rs2val_0x80000000_str)
    1c10:	0005a203          	lw	x4,0(x11)
    1c14:	00320863          	beq	x4,x3,1c24 <I_or_cg_cr_rs1_rs2_edges_rs1val_0x80000000_rs2val_0x80000000+0x18>
    1c18:	0a5022ef          	jal	x5,44bc <failedtest_x5_x4>
    1c1c:	00001c0c          	.word	0x00001c0c
    1c20:	0000b022          	.word	0x0000b022
    1c24:	00458593          	addi	x11,x11,4

# Testcase cr_rs1_rs2_edges (Test source rs1 = 0x80000000 rs2 = 0x80000001)
  RVTEST_TESTDATA_LOAD_INT(x24, x6) # load rs1: x6 = 0x80000000
    1c28:	000c2303          	lw	x6,0(x24)
    1c2c:	004c0c13          	addi	x24,x24,4
  RVTEST_TESTDATA_LOAD_INT(x24, x27) # load rs2: x27 = 0x80000001
    1c30:	000c2d83          	lw	x27,0(x24)
    1c34:	004c0c13          	addi	x24,x24,4

00001c38 <I_or_cg_cr_rs1_rs2_edges_rs1val_0x80000000_rs2val_0x80000001>:
I_or_cg_cr_rs1_rs2_edges_rs1val_0x80000000_rs2val_0x80000001:
  or x19, x6, x27 # perform operation
    1c38:	01b369b3          	or	x19,x6,x27
  # Check if x19 contains the expected result. x11 is the signature ptr, x5 is the link ptr, x4 is a temp reg.
  RVTEST_SIGUPD(x11, x5, x4, x19, I_or_cg_cr_rs1_rs2_edges_rs1val_0x80000000_rs2val_0x80000001, I_or_cg_cr_rs1_rs2_edges_rs1val_0x80000000_rs2val_0x80000001_str)
    1c3c:	0005a203          	lw	x4,0(x11)
    1c40:	01320863          	beq	x4,x19,1c50 <I_or_cg_cr_rs1_rs2_edges_rs1val_0x80000000_rs2val_0x80000001+0x18>
    1c44:	079022ef          	jal	x5,44bc <failedtest_x5_x4>
    1c48:	00001c38          	.word	0x00001c38
    1c4c:	0000b07c          	.word	0x0000b07c
    1c50:	00458593          	addi	x11,x11,4

# Testcase cr_rs1_rs2_edges (Test source rs1 = 0x80000000 rs2 = 0x7fffffff)
  RVTEST_TESTDATA_LOAD_INT(x24, x8) # load rs1: x8 = 0x80000000
    1c54:	000c2403          	lw	x8,0(x24)
    1c58:	004c0c13          	addi	x24,x24,4
  RVTEST_TESTDATA_LOAD_INT(x24, x31) # load rs2: x31 = 0x7fffffff
    1c5c:	000c2f83          	lw	x31,0(x24)
    1c60:	004c0c13          	addi	x24,x24,4

00001c64 <I_or_cg_cr_rs1_rs2_edges_rs1val_0x80000000_rs2val_0x7fffffff>:
I_or_cg_cr_rs1_rs2_edges_rs1val_0x80000000_rs2val_0x7fffffff:
  or x27, x8, x31 # perform operation
    1c64:	01f46db3          	or	x27,x8,x31
  # Check if x27 contains the expected result. x11 is the signature ptr, x5 is the link ptr, x4 is a temp reg.
  RVTEST_SIGUPD(x11, x5, x4, x27, I_or_cg_cr_rs1_rs2_edges_rs1val_0x80000000_rs2val_0x7fffffff, I_or_cg_cr_rs1_rs2_edges_rs1val_0x80000000_rs2val_0x7fffffff_str)
    1c68:	0005a203          	lw	x4,0(x11)
    1c6c:	01b20863          	beq	x4,x27,1c7c <I_or_cg_cr_rs1_rs2_edges_rs1val_0x80000000_rs2val_0x7fffffff+0x18>
    1c70:	04d022ef          	jal	x5,44bc <failedtest_x5_x4>
    1c74:	00001c64          	.word	0x00001c64
    1c78:	0000b0d6          	.word	0x0000b0d6
    1c7c:	00458593          	addi	x11,x11,4

# Testcase cr_rs1_rs2_edges (Test source rs1 = 0x80000000 rs2 = 0x7ffffffe)
  RVTEST_TESTDATA_LOAD_INT(x24, x13) # load rs1: x13 = 0x80000000
    1c80:	000c2683          	lw	x13,0(x24)
    1c84:	004c0c13          	addi	x24,x24,4
  RVTEST_TESTDATA_LOAD_INT(x24, x22) # load rs2: x22 = 0x7ffffffe
    1c88:	000c2b03          	lw	x22,0(x24)
    1c8c:	004c0c13          	addi	x24,x24,4

00001c90 <I_or_cg_cr_rs1_rs2_edges_rs1val_0x80000000_rs2val_0x7ffffffe>:
I_or_cg_cr_rs1_rs2_edges_rs1val_0x80000000_rs2val_0x7ffffffe:
  or x21, x13, x22 # perform operation
    1c90:	0166eab3          	or	x21,x13,x22
  # Check if x21 contains the expected result. x11 is the signature ptr, x5 is the link ptr, x4 is a temp reg.
  RVTEST_SIGUPD(x11, x5, x4, x21, I_or_cg_cr_rs1_rs2_edges_rs1val_0x80000000_rs2val_0x7ffffffe, I_or_cg_cr_rs1_rs2_edges_rs1val_0x80000000_rs2val_0x7ffffffe_str)
    1c94:	0005a203          	lw	x4,0(x11)
    1c98:	01520863          	beq	x4,x21,1ca8 <I_or_cg_cr_rs1_rs2_edges_rs1val_0x80000000_rs2val_0x7ffffffe+0x18>
    1c9c:	021022ef          	jal	x5,44bc <failedtest_x5_x4>
    1ca0:	00001c90          	.word	0x00001c90
    1ca4:	0000b130          	.word	0x0000b130
    1ca8:	00458593          	addi	x11,x11,4

# Testcase cr_rs1_rs2_edges (Test source rs1 = 0x80000000 rs2 = 0xffffffff)
  RVTEST_TESTDATA_LOAD_INT(x24, x6) # load rs1: x6 = 0x80000000
    1cac:	000c2303          	lw	x6,0(x24)
    1cb0:	004c0c13          	addi	x24,x24,4
  RVTEST_TESTDATA_LOAD_INT(x24, x3) # load rs2: x3 = 0xffffffff
    1cb4:	000c2183          	lw	x3,0(x24)
    1cb8:	004c0c13          	addi	x24,x24,4

00001cbc <I_or_cg_cr_rs1_rs2_edges_rs1val_0x80000000_rs2val_0xffffffff>:
I_or_cg_cr_rs1_rs2_edges_rs1val_0x80000000_rs2val_0xffffffff:
  or x17, x6, x3 # perform operation
    1cbc:	003368b3          	or	x17,x6,x3
  # Check if x17 contains the expected result. x11 is the signature ptr, x5 is the link ptr, x4 is a temp reg.
  RVTEST_SIGUPD(x11, x5, x4, x17, I_or_cg_cr_rs1_rs2_edges_rs1val_0x80000000_rs2val_0xffffffff, I_or_cg_cr_rs1_rs2_edges_rs1val_0x80000000_rs2val_0xffffffff_str)
    1cc0:	0005a203          	lw	x4,0(x11)
    1cc4:	01120863          	beq	x4,x17,1cd4 <I_or_cg_cr_rs1_rs2_edges_rs1val_0x80000000_rs2val_0xffffffff+0x18>
    1cc8:	7f4022ef          	jal	x5,44bc <failedtest_x5_x4>
    1ccc:	00001cbc          	.word	0x00001cbc
    1cd0:	0000b18a          	.word	0x0000b18a
    1cd4:	00458593          	addi	x11,x11,4

# Testcase cr_rs1_rs2_edges (Test source rs1 = 0x80000000 rs2 = 0xfffffffe)
  RVTEST_TESTDATA_LOAD_INT(x24, x8) # load rs1: x8 = 0x80000000
    1cd8:	000c2403          	lw	x8,0(x24)
    1cdc:	004c0c13          	addi	x24,x24,4
  RVTEST_TESTDATA_LOAD_INT(x24, x26) # load rs2: x26 = 0xfffffffe
    1ce0:	000c2d03          	lw	x26,0(x24)
    1ce4:	004c0c13          	addi	x24,x24,4

00001ce8 <I_or_cg_cr_rs1_rs2_edges_rs1val_0x80000000_rs2val_0xfffffffe>:
I_or_cg_cr_rs1_rs2_edges_rs1val_0x80000000_rs2val_0xfffffffe:
  or x14, x8, x26 # perform operation
    1ce8:	01a46733          	or	x14,x8,x26
  # Check if x14 contains the expected result. x11 is the signature ptr, x5 is the link ptr, x4 is a temp reg.
  RVTEST_SIGUPD(x11, x5, x4, x14, I_or_cg_cr_rs1_rs2_edges_rs1val_0x80000000_rs2val_0xfffffffe, I_or_cg_cr_rs1_rs2_edges_rs1val_0x80000000_rs2val_0xfffffffe_str)
    1cec:	0005a203          	lw	x4,0(x11)
    1cf0:	00e20863          	beq	x4,x14,1d00 <I_or_cg_cr_rs1_rs2_edges_rs1val_0x80000000_rs2val_0xfffffffe+0x18>
    1cf4:	7c8022ef          	jal	x5,44bc <failedtest_x5_x4>
    1cf8:	00001ce8          	.word	0x00001ce8
    1cfc:	0000b1e4          	.word	0x0000b1e4
    1d00:	00458593          	addi	x11,x11,4

# Testcase cr_rs1_rs2_edges (Test source rs1 = 0x80000000 rs2 = 0x5bbc8872)
  RVTEST_TESTDATA_LOAD_INT(x24, x26) # load rs1: x26 = 0x80000000
    1d04:	000c2d03          	lw	x26,0(x24)
    1d08:	004c0c13          	addi	x24,x24,4
  RVTEST_TESTDATA_LOAD_INT(x24, x31) # load rs2: x31 = 0x5bbc8872
    1d0c:	000c2f83          	lw	x31,0(x24)
    1d10:	004c0c13          	addi	x24,x24,4

