
/home/dev/github/clones/riscv-arch-test/work/rv32i-core/elfs/rv32i/I/I-ori-00.elf:     file format elf32-littleriscv
/home/dev/github/clones/riscv-arch-test/work/rv32i-core/elfs/rv32i/I/I-ori-00.elf
architecture: riscv:rv32, flags 0x00000112:
EXEC_P, HAS_SYMS, D_PAGED
start address 0x00000000

Program Header:
0x70000003 off    0x0001e240 vaddr 0x00000000 paddr 0x00000000 align 2**0
         filesz 0x00000033 memsz 0x00000000 flags r--
    LOAD off    0x00001000 vaddr 0x00000000 paddr 0x00000000 align 2**12
         filesz 0x00004f20 memsz 0x00004f20 flags r-x
    LOAD off    0x00006000 vaddr 0x00008000 paddr 0x00008000 align 2**12
         filesz 0x00018240 memsz 0x00018240 flags rwx

Sections:
Idx Name          Size      VMA       LMA       File off  Algn
  0 .text.init    00000040  00000000  00000000  00001000  2**5
                  CONTENTS, ALLOC, LOAD, READONLY, CODE
  1 .text.rvtest  00004ee0  00000040  00000040  00001040  2**5
                  CONTENTS, ALLOC, LOAD, READONLY, CODE
  2 .data         00017b20  00008000  00008000  00006000  2**8
                  CONTENTS, ALLOC, LOAD, DATA
  3 .text.rvmodel 00000240  00020000  00020000  0001e000  2**5
                  CONTENTS, ALLOC, LOAD, READONLY, CODE
  4 .riscv.attributes 00000033  00000000  00000000  0001e240  2**0
                  CONTENTS, READONLY
  5 .debug_line   00001ac4  00000000  00000000  0001e273  2**0
                  CONTENTS, READONLY, DEBUGGING, OCTETS
  6 .debug_line_str 00000069  00000000  00000000  0001fd37  2**0
                  CONTENTS, READONLY, DEBUGGING, OCTETS
  7 .debug_info   00000023  00000000  00000000  0001fda0  2**0
                  CONTENTS, READONLY, DEBUGGING, OCTETS
  8 .debug_abbrev 00000012  00000000  00000000  0001fdc3  2**0
                  CONTENTS, READONLY, DEBUGGING, OCTETS
  9 .debug_aranges 00000028  00000000  00000000  0001fdd8  2**3
                  CONTENTS, READONLY, DEBUGGING, OCTETS
 10 .debug_str    00000075  00000000  00000000  0001fe00  2**0
                  CONTENTS, READONLY, DEBUGGING, OCTETS
 11 .debug_rnglists 0000001b  00000000  00000000  0001fe75  2**0
                  CONTENTS, READONLY, DEBUGGING, OCTETS
SYMBOL TABLE:
00000000 l    d  .text.init	00000000 .text.init
00000040 l    d  .text.rvtest	00000000 .text.rvtest
00008000 l    d  .data	00000000 .data
00020000 l    d  .text.rvmodel	00000000 .text.rvmodel
00000000 l    d  .riscv.attributes	00000000 .riscv.attributes
00000000 l    d  .debug_line	00000000 .debug_line
00000000 l    d  .debug_line_str	00000000 .debug_line_str
00000000 l    d  .debug_info	00000000 .debug_info
00000000 l    d  .debug_abbrev	00000000 .debug_abbrev
00000000 l    d  .debug_aranges	00000000 .debug_aranges
00000000 l    d  .debug_str	00000000 .debug_str
00000000 l    d  .debug_rnglists	00000000 .debug_rnglists
00000000 l    df *ABS*	00000000 ccHl9mvg.o
00000003 l       *ABS*	00000000 MMODE_SIG
00000001 l       *ABS*	00000000 SMODE_SIG
00000001 l       *ABS*	00000000 HMODE_SIG
00000002 l       *ABS*	00000000 VMODE_SIG
00020000 l       .text.rvmodel	00000000 rvmodel_boot
00000048 l       .text.rvtest	00000000 I_ori_cg_cp_rs1_b0
0000349c l       .text.rvtest	00000000 failedtest_x5_x4
000086d0 l       .data	00000000 I_ori_cg_cp_rs1_b0_str
0000006c l       .text.rvtest	00000000 I_ori_cg_cp_rs1_b1
000086fd l       .data	00000000 I_ori_cg_cp_rs1_b1_str
00000094 l       .text.rvtest	00000000 I_ori_cg_cp_rs1_b2
0000872a l       .data	00000000 I_ori_cg_cp_rs1_b2_str
000000bc l       .text.rvtest	00000000 I_ori_cg_cp_rs1_b3
00008757 l       .data	00000000 I_ori_cg_cp_rs1_b3_str
000000e8 l       .text.rvtest	00000000 I_ori_cg_cp_rs1_b4
000034b4 l       .text.rvtest	00000000 failedtest_x8_x7
00008784 l       .data	00000000 I_ori_cg_cp_rs1_b4_str
0000010c l       .text.rvtest	00000000 I_ori_cg_cp_rs1_b5
000087b1 l       .data	00000000 I_ori_cg_cp_rs1_b5_str
00000130 l       .text.rvtest	00000000 I_ori_cg_cp_rs1_b6
000087de l       .data	00000000 I_ori_cg_cp_rs1_b6_str
0000015c l       .text.rvtest	00000000 I_ori_cg_cp_rs1_b7
0000880b l       .data	00000000 I_ori_cg_cp_rs1_b7_str
00000180 l       .text.rvtest	00000000 I_ori_cg_cp_rs1_b8
00008838 l       .data	00000000 I_ori_cg_cp_rs1_b8_str
000001a8 l       .text.rvtest	00000000 I_ori_cg_cp_rs1_b9
00008865 l       .data	00000000 I_ori_cg_cp_rs1_b9_str
000001cc l       .text.rvtest	00000000 I_ori_cg_cp_rs1_b10
00008893 l       .data	00000000 I_ori_cg_cp_rs1_b10_str
000001f0 l       .text.rvtest	00000000 I_ori_cg_cp_rs1_b11
000088c2 l       .data	00000000 I_ori_cg_cp_rs1_b11_str
00000214 l       .text.rvtest	00000000 I_ori_cg_cp_rs1_b12
000088f1 l       .data	00000000 I_ori_cg_cp_rs1_b12_str
00000238 l       .text.rvtest	00000000 I_ori_cg_cp_rs1_b13
00008920 l       .data	00000000 I_ori_cg_cp_rs1_b13_str
0000025c l       .text.rvtest	00000000 I_ori_cg_cp_rs1_b14
0000894f l       .data	00000000 I_ori_cg_cp_rs1_b14_str
00000280 l       .text.rvtest	00000000 I_ori_cg_cp_rs1_b15
0000897e l       .data	00000000 I_ori_cg_cp_rs1_b15_str
000002a4 l       .text.rvtest	00000000 I_ori_cg_cp_rs1_b16
000089ad l       .data	00000000 I_ori_cg_cp_rs1_b16_str
000002c8 l       .text.rvtest	00000000 I_ori_cg_cp_rs1_b17
000089dc l       .data	00000000 I_ori_cg_cp_rs1_b17_str
000002ec l       .text.rvtest	00000000 I_ori_cg_cp_rs1_b18
00008a0b l       .data	00000000 I_ori_cg_cp_rs1_b18_str
00000314 l       .text.rvtest	00000000 I_ori_cg_cp_rs1_b19
00008a3a l       .data	00000000 I_ori_cg_cp_rs1_b19_str
00000338 l       .text.rvtest	00000000 I_ori_cg_cp_rs1_b20
00008a69 l       .data	00000000 I_ori_cg_cp_rs1_b20_str
0000035c l       .text.rvtest	00000000 I_ori_cg_cp_rs1_b21
00008a98 l       .data	00000000 I_ori_cg_cp_rs1_b21_str
00000380 l       .text.rvtest	00000000 I_ori_cg_cp_rs1_b22
00008ac7 l       .data	00000000 I_ori_cg_cp_rs1_b22_str
000003a4 l       .text.rvtest	00000000 I_ori_cg_cp_rs1_b23
00008af6 l       .data	00000000 I_ori_cg_cp_rs1_b23_str
000003cc l       .text.rvtest	00000000 I_ori_cg_cp_rs1_b24
00008b25 l       .data	00000000 I_ori_cg_cp_rs1_b24_str
000003f0 l       .text.rvtest	00000000 I_ori_cg_cp_rs1_b25
00008b54 l       .data	00000000 I_ori_cg_cp_rs1_b25_str
00000414 l       .text.rvtest	00000000 I_ori_cg_cp_rs1_b26
00008b83 l       .data	00000000 I_ori_cg_cp_rs1_b26_str
00000438 l       .text.rvtest	00000000 I_ori_cg_cp_rs1_b27
00008bb2 l       .data	00000000 I_ori_cg_cp_rs1_b27_str
0000045c l       .text.rvtest	00000000 I_ori_cg_cp_rs1_b28
00008be1 l       .data	00000000 I_ori_cg_cp_rs1_b28_str
00000480 l       .text.rvtest	00000000 I_ori_cg_cp_rs1_b29
00008c10 l       .data	00000000 I_ori_cg_cp_rs1_b29_str
000004a8 l       .text.rvtest	00000000 I_ori_cg_cp_rs1_b30
00008c3f l       .data	00000000 I_ori_cg_cp_rs1_b30_str
000004cc l       .text.rvtest	00000000 I_ori_cg_cp_rs1_b31
00008c6e l       .data	00000000 I_ori_cg_cp_rs1_b31_str
000004f0 l       .text.rvtest	00000000 I_ori_cg_cp_rd_b0
00008c9d l       .data	00000000 I_ori_cg_cp_rd_b0_str
00000514 l       .text.rvtest	00000000 I_ori_cg_cp_rd_b1
00008cca l       .data	00000000 I_ori_cg_cp_rd_b1_str
00000538 l       .text.rvtest	00000000 I_ori_cg_cp_rd_b2
00008cf7 l       .data	00000000 I_ori_cg_cp_rd_b2_str
0000055c l       .text.rvtest	00000000 I_ori_cg_cp_rd_b3
00008d24 l       .data	00000000 I_ori_cg_cp_rd_b3_str
00000588 l       .text.rvtest	00000000 I_ori_cg_cp_rd_b4
000034dc l       .text.rvtest	00000000 failedtest_x14_x13
00008d51 l       .data	00000000 I_ori_cg_cp_rd_b4_str
000005ac l       .text.rvtest	00000000 I_ori_cg_cp_rd_b5
00008d7e l       .data	00000000 I_ori_cg_cp_rd_b5_str
000005d0 l       .text.rvtest	00000000 I_ori_cg_cp_rd_b6
00008dab l       .data	00000000 I_ori_cg_cp_rd_b6_str
000005f4 l       .text.rvtest	00000000 I_ori_cg_cp_rd_b7
00008dd8 l       .data	00000000 I_ori_cg_cp_rd_b7_str
00000618 l       .text.rvtest	00000000 I_ori_cg_cp_rd_b8
00008e05 l       .data	00000000 I_ori_cg_cp_rd_b8_str
0000063c l       .text.rvtest	00000000 I_ori_cg_cp_rd_b9
00008e32 l       .data	00000000 I_ori_cg_cp_rd_b9_str
00000660 l       .text.rvtest	00000000 I_ori_cg_cp_rd_b10
00008e5f l       .data	00000000 I_ori_cg_cp_rd_b10_str
00000684 l       .text.rvtest	00000000 I_ori_cg_cp_rd_b11
00008e8d l       .data	00000000 I_ori_cg_cp_rd_b11_str
000006ac l       .text.rvtest	00000000 I_ori_cg_cp_rd_b12
00008ebb l       .data	00000000 I_ori_cg_cp_rd_b12_str
000006d8 l       .text.rvtest	00000000 I_ori_cg_cp_rd_b13
00008ee9 l       .data	00000000 I_ori_cg_cp_rd_b13_str
000006fc l       .text.rvtest	00000000 I_ori_cg_cp_rd_b14
00008f17 l       .data	00000000 I_ori_cg_cp_rd_b14_str
00000720 l       .text.rvtest	00000000 I_ori_cg_cp_rd_b15
00008f45 l       .data	00000000 I_ori_cg_cp_rd_b15_str
00000744 l       .text.rvtest	00000000 I_ori_cg_cp_rd_b16
00008f73 l       .data	00000000 I_ori_cg_cp_rd_b16_str
0000076c l       .text.rvtest	00000000 I_ori_cg_cp_rd_b17
00008fa1 l       .data	00000000 I_ori_cg_cp_rd_b17_str
00000790 l       .text.rvtest	00000000 I_ori_cg_cp_rd_b18
00008fcf l       .data	00000000 I_ori_cg_cp_rd_b18_str
000007b4 l       .text.rvtest	00000000 I_ori_cg_cp_rd_b19
00008ffd l       .data	00000000 I_ori_cg_cp_rd_b19_str
000007d8 l       .text.rvtest	00000000 I_ori_cg_cp_rd_b20
0000902b l       .data	00000000 I_ori_cg_cp_rd_b20_str
00000800 l       .text.rvtest	00000000 I_ori_cg_cp_rd_b21
00009059 l       .data	00000000 I_ori_cg_cp_rd_b21_str
00000824 l       .text.rvtest	00000000 I_ori_cg_cp_rd_b22
00009087 l       .data	00000000 I_ori_cg_cp_rd_b22_str
00000848 l       .text.rvtest	00000000 I_ori_cg_cp_rd_b23
000090b5 l       .data	00000000 I_ori_cg_cp_rd_b23_str
0000086c l       .text.rvtest	00000000 I_ori_cg_cp_rd_b24
000090e3 l       .data	00000000 I_ori_cg_cp_rd_b24_str
00000890 l       .text.rvtest	00000000 I_ori_cg_cp_rd_b25
00009111 l       .data	00000000 I_ori_cg_cp_rd_b25_str
000008b4 l       .text.rvtest	00000000 I_ori_cg_cp_rd_b26
0000913f l       .data	00000000 I_ori_cg_cp_rd_b26_str
000008d8 l       .text.rvtest	00000000 I_ori_cg_cp_rd_b27
0000916d l       .data	00000000 I_ori_cg_cp_rd_b27_str
000008fc l       .text.rvtest	00000000 I_ori_cg_cp_rd_b28
0000919b l       .data	00000000 I_ori_cg_cp_rd_b28_str
00000920 l       .text.rvtest	00000000 I_ori_cg_cp_rd_b29
000091c9 l       .data	00000000 I_ori_cg_cp_rd_b29_str
00000944 l       .text.rvtest	00000000 I_ori_cg_cp_rd_b30
000091f7 l       .data	00000000 I_ori_cg_cp_rd_b30_str
00000968 l       .text.rvtest	00000000 I_ori_cg_cp_rd_b31
00009225 l       .data	00000000 I_ori_cg_cp_rd_b31_str
0000098c l       .text.rvtest	00000000 I_ori_cg_cp_rs1_edges_0x0
00009253 l       .data	00000000 I_ori_cg_cp_rs1_edges_0x0_str
000009b0 l       .text.rvtest	00000000 I_ori_cg_cp_rs1_edges_0x1
00009288 l       .data	00000000 I_ori_cg_cp_rs1_edges_0x1_str
000009d4 l       .text.rvtest	00000000 I_ori_cg_cp_rs1_edges_0x2
000092bd l       .data	00000000 I_ori_cg_cp_rs1_edges_0x2_str
000009f8 l       .text.rvtest	00000000 I_ori_cg_cp_rs1_edges_0x80000000
000092f2 l       .data	00000000 I_ori_cg_cp_rs1_edges_0x80000000_str
00000a1c l       .text.rvtest	00000000 I_ori_cg_cp_rs1_edges_0x80000001
0000932e l       .data	00000000 I_ori_cg_cp_rs1_edges_0x80000001_str
00000a40 l       .text.rvtest	00000000 I_ori_cg_cp_rs1_edges_0x7fffffff
0000936a l       .data	00000000 I_ori_cg_cp_rs1_edges_0x7fffffff_str
00000a64 l       .text.rvtest	00000000 I_ori_cg_cp_rs1_edges_0x7ffffffe
000093a6 l       .data	00000000 I_ori_cg_cp_rs1_edges_0x7ffffffe_str
00000a88 l       .text.rvtest	00000000 I_ori_cg_cp_rs1_edges_0xffffffff
000093e2 l       .data	00000000 I_ori_cg_cp_rs1_edges_0xffffffff_str
00000aac l       .text.rvtest	00000000 I_ori_cg_cp_rs1_edges_0xfffffffe
0000941e l       .data	00000000 I_ori_cg_cp_rs1_edges_0xfffffffe_str
00000ad0 l       .text.rvtest	00000000 I_ori_cg_cp_rs1_edges_0x5bbc8872
0000945a l       .data	00000000 I_ori_cg_cp_rs1_edges_0x5bbc8872_str
00000af4 l       .text.rvtest	00000000 I_ori_cg_cp_rs1_edges_0xaaaaaaaa
00009496 l       .data	00000000 I_ori_cg_cp_rs1_edges_0xaaaaaaaa_str
00000b18 l       .text.rvtest	00000000 I_ori_cg_cp_rs1_edges_0x55555555
000094d2 l       .data	00000000 I_ori_cg_cp_rs1_edges_0x55555555_str
00000b3c l       .text.rvtest	00000000 I_ori_cg_cr_rs1_imm_edges_rs1val_0x0_immval_0x0
0000950e l       .data	00000000 I_ori_cg_cr_rs1_imm_edges_rs1val_0x0_immval_0x0_str
00000b60 l       .text.rvtest	00000000 I_ori_cg_cr_rs1_imm_edges_rs1val_0x0_immval_0x1
0000955a l       .data	00000000 I_ori_cg_cr_rs1_imm_edges_rs1val_0x0_immval_0x1_str
00000b84 l       .text.rvtest	00000000 I_ori_cg_cr_rs1_imm_edges_rs1val_0x0_immval_0x2
000095a6 l       .data	00000000 I_ori_cg_cr_rs1_imm_edges_rs1val_0x0_immval_0x2_str
00000ba8 l       .text.rvtest	00000000 I_ori_cg_cr_rs1_imm_edges_rs1val_0x0_immval_0x3
000095f2 l       .data	00000000 I_ori_cg_cr_rs1_imm_edges_rs1val_0x0_immval_0x3_str
00000bcc l       .text.rvtest	00000000 I_ori_cg_cr_rs1_imm_edges_rs1val_0x0_immval_0x4
0000963e l       .data	00000000 I_ori_cg_cr_rs1_imm_edges_rs1val_0x0_immval_0x4_str
00000bf0 l       .text.rvtest	00000000 I_ori_cg_cr_rs1_imm_edges_rs1val_0x0_immval_0x8
0000968a l       .data	00000000 I_ori_cg_cr_rs1_imm_edges_rs1val_0x0_immval_0x8_str
00000c14 l       .text.rvtest	00000000 I_ori_cg_cr_rs1_imm_edges_rs1val_0x0_immval_0x10
000096d6 l       .data	00000000 I_ori_cg_cr_rs1_imm_edges_rs1val_0x0_immval_0x10_str
00000c38 l       .text.rvtest	00000000 I_ori_cg_cr_rs1_imm_edges_rs1val_0x0_immval_0x20
00009723 l       .data	00000000 I_ori_cg_cr_rs1_imm_edges_rs1val_0x0_immval_0x20_str
00000c5c l       .text.rvtest	00000000 I_ori_cg_cr_rs1_imm_edges_rs1val_0x0_immval_0x40
00009770 l       .data	00000000 I_ori_cg_cr_rs1_imm_edges_rs1val_0x0_immval_0x40_str
00000c80 l       .text.rvtest	00000000 I_ori_cg_cr_rs1_imm_edges_rs1val_0x0_immval_0x80
000097bd l       .data	00000000 I_ori_cg_cr_rs1_imm_edges_rs1val_0x0_immval_0x80_str
00000ca4 l       .text.rvtest	00000000 I_ori_cg_cr_rs1_imm_edges_rs1val_0x0_immval_0x100
0000980a l       .data	00000000 I_ori_cg_cr_rs1_imm_edges_rs1val_0x0_immval_0x100_str
00000cc8 l       .text.rvtest	00000000 I_ori_cg_cr_rs1_imm_edges_rs1val_0x0_immval_0x200
00009858 l       .data	00000000 I_ori_cg_cr_rs1_imm_edges_rs1val_0x0_immval_0x200_str
00000cec l       .text.rvtest	00000000 I_ori_cg_cr_rs1_imm_edges_rs1val_0x0_immval_0x3ff
000098a6 l       .data	00000000 I_ori_cg_cr_rs1_imm_edges_rs1val_0x0_immval_0x3ff_str
00000d10 l       .text.rvtest	00000000 I_ori_cg_cr_rs1_imm_edges_rs1val_0x0_immval_0x400
000098f4 l       .data	00000000 I_ori_cg_cr_rs1_imm_edges_rs1val_0x0_immval_0x400_str
00000d34 l       .text.rvtest	00000000 I_ori_cg_cr_rs1_imm_edges_rs1val_0x0_immval_0x703
00009942 l       .data	00000000 I_ori_cg_cr_rs1_imm_edges_rs1val_0x0_immval_0x703_str
00000d58 l       .text.rvtest	00000000 I_ori_cg_cr_rs1_imm_edges_rs1val_0x0_immval_0x7ff
00009990 l       .data	00000000 I_ori_cg_cr_rs1_imm_edges_rs1val_0x0_immval_0x7ff_str
00000d7c l       .text.rvtest	00000000 I_ori_cg_cr_rs1_imm_edges_rs1val_0x0_immval_m0x800
000099de l       .data	00000000 I_ori_cg_cr_rs1_imm_edges_rs1val_0x0_immval_m0x800_str
00000da0 l       .text.rvtest	00000000 I_ori_cg_cr_rs1_imm_edges_rs1val_0x0_immval_m0x7ff
00009a2d l       .data	00000000 I_ori_cg_cr_rs1_imm_edges_rs1val_0x0_immval_m0x7ff_str
00000dc4 l       .text.rvtest	00000000 I_ori_cg_cr_rs1_imm_edges_rs1val_0x0_immval_m0x2
00009a7c l       .data	00000000 I_ori_cg_cr_rs1_imm_edges_rs1val_0x0_immval_m0x2_str
00000de8 l       .text.rvtest	00000000 I_ori_cg_cr_rs1_imm_edges_rs1val_0x0_immval_m0x1
00009ac9 l       .data	00000000 I_ori_cg_cr_rs1_imm_edges_rs1val_0x0_immval_m0x1_str
00000e0c l       .text.rvtest	00000000 I_ori_cg_cr_rs1_imm_edges_rs1val_0x1_immval_0x0
00009b16 l       .data	00000000 I_ori_cg_cr_rs1_imm_edges_rs1val_0x1_immval_0x0_str
00000e30 l       .text.rvtest	00000000 I_ori_cg_cr_rs1_imm_edges_rs1val_0x1_immval_0x1
00009b62 l       .data	00000000 I_ori_cg_cr_rs1_imm_edges_rs1val_0x1_immval_0x1_str
00000e54 l       .text.rvtest	00000000 I_ori_cg_cr_rs1_imm_edges_rs1val_0x1_immval_0x2
00009bae l       .data	00000000 I_ori_cg_cr_rs1_imm_edges_rs1val_0x1_immval_0x2_str
00000e78 l       .text.rvtest	00000000 I_ori_cg_cr_rs1_imm_edges_rs1val_0x1_immval_0x3
00009bfa l       .data	00000000 I_ori_cg_cr_rs1_imm_edges_rs1val_0x1_immval_0x3_str
00000e9c l       .text.rvtest	00000000 I_ori_cg_cr_rs1_imm_edges_rs1val_0x1_immval_0x4
00009c47 l       .data	00000000 I_ori_cg_cr_rs1_imm_edges_rs1val_0x1_immval_0x4_str
00000ec0 l       .text.rvtest	00000000 I_ori_cg_cr_rs1_imm_edges_rs1val_0x1_immval_0x8
00009c94 l       .data	00000000 I_ori_cg_cr_rs1_imm_edges_rs1val_0x1_immval_0x8_str
00000ee4 l       .text.rvtest	00000000 I_ori_cg_cr_rs1_imm_edges_rs1val_0x1_immval_0x10
00009ce1 l       .data	00000000 I_ori_cg_cr_rs1_imm_edges_rs1val_0x1_immval_0x10_str
00000f08 l       .text.rvtest	00000000 I_ori_cg_cr_rs1_imm_edges_rs1val_0x1_immval_0x20
00009d2f l       .data	00000000 I_ori_cg_cr_rs1_imm_edges_rs1val_0x1_immval_0x20_str
00000f2c l       .text.rvtest	00000000 I_ori_cg_cr_rs1_imm_edges_rs1val_0x1_immval_0x40
00009d7d l       .data	00000000 I_ori_cg_cr_rs1_imm_edges_rs1val_0x1_immval_0x40_str
00000f50 l       .text.rvtest	00000000 I_ori_cg_cr_rs1_imm_edges_rs1val_0x1_immval_0x80
00009dcb l       .data	00000000 I_ori_cg_cr_rs1_imm_edges_rs1val_0x1_immval_0x80_str
00000f74 l       .text.rvtest	00000000 I_ori_cg_cr_rs1_imm_edges_rs1val_0x1_immval_0x100
00009e19 l       .data	00000000 I_ori_cg_cr_rs1_imm_edges_rs1val_0x1_immval_0x100_str
00000f98 l       .text.rvtest	00000000 I_ori_cg_cr_rs1_imm_edges_rs1val_0x1_immval_0x200
00009e68 l       .data	00000000 I_ori_cg_cr_rs1_imm_edges_rs1val_0x1_immval_0x200_str
00000fbc l       .text.rvtest	00000000 I_ori_cg_cr_rs1_imm_edges_rs1val_0x1_immval_0x3ff
00009eb7 l       .data	00000000 I_ori_cg_cr_rs1_imm_edges_rs1val_0x1_immval_0x3ff_str
00000fe0 l       .text.rvtest	00000000 I_ori_cg_cr_rs1_imm_edges_rs1val_0x1_immval_0x400
00009f06 l       .data	00000000 I_ori_cg_cr_rs1_imm_edges_rs1val_0x1_immval_0x400_str
00001004 l       .text.rvtest	00000000 I_ori_cg_cr_rs1_imm_edges_rs1val_0x1_immval_0x703
00009f55 l       .data	00000000 I_ori_cg_cr_rs1_imm_edges_rs1val_0x1_immval_0x703_str
00001028 l       .text.rvtest	00000000 I_ori_cg_cr_rs1_imm_edges_rs1val_0x1_immval_0x7ff
00009fa4 l       .data	00000000 I_ori_cg_cr_rs1_imm_edges_rs1val_0x1_immval_0x7ff_str
0000104c l       .text.rvtest	00000000 I_ori_cg_cr_rs1_imm_edges_rs1val_0x1_immval_m0x800
00009ff3 l       .data	00000000 I_ori_cg_cr_rs1_imm_edges_rs1val_0x1_immval_m0x800_str
00001070 l       .text.rvtest	00000000 I_ori_cg_cr_rs1_imm_edges_rs1val_0x1_immval_m0x7ff
0000a043 l       .data	00000000 I_ori_cg_cr_rs1_imm_edges_rs1val_0x1_immval_m0x7ff_str
00001094 l       .text.rvtest	00000000 I_ori_cg_cr_rs1_imm_edges_rs1val_0x1_immval_m0x2
0000a093 l       .data	00000000 I_ori_cg_cr_rs1_imm_edges_rs1val_0x1_immval_m0x2_str
000010b8 l       .text.rvtest	00000000 I_ori_cg_cr_rs1_imm_edges_rs1val_0x1_immval_m0x1
0000a0e1 l       .data	00000000 I_ori_cg_cr_rs1_imm_edges_rs1val_0x1_immval_m0x1_str
000010dc l       .text.rvtest	00000000 I_ori_cg_cr_rs1_imm_edges_rs1val_0x2_immval_0x0
0000a12f l       .data	00000000 I_ori_cg_cr_rs1_imm_edges_rs1val_0x2_immval_0x0_str
00001100 l       .text.rvtest	00000000 I_ori_cg_cr_rs1_imm_edges_rs1val_0x2_immval_0x1
0000a17c l       .data	00000000 I_ori_cg_cr_rs1_imm_edges_rs1val_0x2_immval_0x1_str
00001124 l       .text.rvtest	00000000 I_ori_cg_cr_rs1_imm_edges_rs1val_0x2_immval_0x2
0000a1c9 l       .data	00000000 I_ori_cg_cr_rs1_imm_edges_rs1val_0x2_immval_0x2_str
00001148 l       .text.rvtest	00000000 I_ori_cg_cr_rs1_imm_edges_rs1val_0x2_immval_0x3
0000a216 l       .data	00000000 I_ori_cg_cr_rs1_imm_edges_rs1val_0x2_immval_0x3_str
0000116c l       .text.rvtest	00000000 I_ori_cg_cr_rs1_imm_edges_rs1val_0x2_immval_0x4
0000a263 l       .data	00000000 I_ori_cg_cr_rs1_imm_edges_rs1val_0x2_immval_0x4_str
00001190 l       .text.rvtest	00000000 I_ori_cg_cr_rs1_imm_edges_rs1val_0x2_immval_0x8
0000a2b0 l       .data	00000000 I_ori_cg_cr_rs1_imm_edges_rs1val_0x2_immval_0x8_str
000011b4 l       .text.rvtest	00000000 I_ori_cg_cr_rs1_imm_edges_rs1val_0x2_immval_0x10
0000a2fd l       .data	00000000 I_ori_cg_cr_rs1_imm_edges_rs1val_0x2_immval_0x10_str
000011d8 l       .text.rvtest	00000000 I_ori_cg_cr_rs1_imm_edges_rs1val_0x2_immval_0x20
0000a34b l       .data	00000000 I_ori_cg_cr_rs1_imm_edges_rs1val_0x2_immval_0x20_str
000011fc l       .text.rvtest	00000000 I_ori_cg_cr_rs1_imm_edges_rs1val_0x2_immval_0x40
0000a399 l       .data	00000000 I_ori_cg_cr_rs1_imm_edges_rs1val_0x2_immval_0x40_str
00001220 l       .text.rvtest	00000000 I_ori_cg_cr_rs1_imm_edges_rs1val_0x2_immval_0x80
0000a3e7 l       .data	00000000 I_ori_cg_cr_rs1_imm_edges_rs1val_0x2_immval_0x80_str
00001244 l       .text.rvtest	00000000 I_ori_cg_cr_rs1_imm_edges_rs1val_0x2_immval_0x100
0000a435 l       .data	00000000 I_ori_cg_cr_rs1_imm_edges_rs1val_0x2_immval_0x100_str
00001268 l       .text.rvtest	00000000 I_ori_cg_cr_rs1_imm_edges_rs1val_0x2_immval_0x200
0000a484 l       .data	00000000 I_ori_cg_cr_rs1_imm_edges_rs1val_0x2_immval_0x200_str
0000128c l       .text.rvtest	00000000 I_ori_cg_cr_rs1_imm_edges_rs1val_0x2_immval_0x3ff
0000a4d3 l       .data	00000000 I_ori_cg_cr_rs1_imm_edges_rs1val_0x2_immval_0x3ff_str
000012b0 l       .text.rvtest	00000000 I_ori_cg_cr_rs1_imm_edges_rs1val_0x2_immval_0x400
0000a522 l       .data	00000000 I_ori_cg_cr_rs1_imm_edges_rs1val_0x2_immval_0x400_str
000012d4 l       .text.rvtest	00000000 I_ori_cg_cr_rs1_imm_edges_rs1val_0x2_immval_0x703
0000a571 l       .data	00000000 I_ori_cg_cr_rs1_imm_edges_rs1val_0x2_immval_0x703_str
000012f8 l       .text.rvtest	00000000 I_ori_cg_cr_rs1_imm_edges_rs1val_0x2_immval_0x7ff
0000a5c0 l       .data	00000000 I_ori_cg_cr_rs1_imm_edges_rs1val_0x2_immval_0x7ff_str
0000131c l       .text.rvtest	00000000 I_ori_cg_cr_rs1_imm_edges_rs1val_0x2_immval_m0x800
0000a60f l       .data	00000000 I_ori_cg_cr_rs1_imm_edges_rs1val_0x2_immval_m0x800_str
00001340 l       .text.rvtest	00000000 I_ori_cg_cr_rs1_imm_edges_rs1val_0x2_immval_m0x7ff
0000a65f l       .data	00000000 I_ori_cg_cr_rs1_imm_edges_rs1val_0x2_immval_m0x7ff_str
00001364 l       .text.rvtest	00000000 I_ori_cg_cr_rs1_imm_edges_rs1val_0x2_immval_m0x2
0000a6af l       .data	00000000 I_ori_cg_cr_rs1_imm_edges_rs1val_0x2_immval_m0x2_str
00001388 l       .text.rvtest	00000000 I_ori_cg_cr_rs1_imm_edges_rs1val_0x2_immval_m0x1
0000a6fd l       .data	00000000 I_ori_cg_cr_rs1_imm_edges_rs1val_0x2_immval_m0x1_str
000013ac l       .text.rvtest	00000000 I_ori_cg_cr_rs1_imm_edges_rs1val_0x80000000_immval_0x0
0000a74b l       .data	00000000 I_ori_cg_cr_rs1_imm_edges_rs1val_0x80000000_immval_0x0_str
000013d0 l       .text.rvtest	00000000 I_ori_cg_cr_rs1_imm_edges_rs1val_0x80000000_immval_0x1
0000a79f l       .data	00000000 I_ori_cg_cr_rs1_imm_edges_rs1val_0x80000000_immval_0x1_str
000013f4 l       .text.rvtest	00000000 I_ori_cg_cr_rs1_imm_edges_rs1val_0x80000000_immval_0x2
0000a7f3 l       .data	00000000 I_ori_cg_cr_rs1_imm_edges_rs1val_0x80000000_immval_0x2_str
00001418 l       .text.rvtest	00000000 I_ori_cg_cr_rs1_imm_edges_rs1val_0x80000000_immval_0x3
0000a847 l       .data	00000000 I_ori_cg_cr_rs1_imm_edges_rs1val_0x80000000_immval_0x3_str
0000143c l       .text.rvtest	00000000 I_ori_cg_cr_rs1_imm_edges_rs1val_0x80000000_immval_0x4
0000a89b l       .data	00000000 I_ori_cg_cr_rs1_imm_edges_rs1val_0x80000000_immval_0x4_str
00001460 l       .text.rvtest	00000000 I_ori_cg_cr_rs1_imm_edges_rs1val_0x80000000_immval_0x8
0000a8ef l       .data	00000000 I_ori_cg_cr_rs1_imm_edges_rs1val_0x80000000_immval_0x8_str
00001484 l       .text.rvtest	00000000 I_ori_cg_cr_rs1_imm_edges_rs1val_0x80000000_immval_0x10
0000a943 l       .data	00000000 I_ori_cg_cr_rs1_imm_edges_rs1val_0x80000000_immval_0x10_str
000014a8 l       .text.rvtest	00000000 I_ori_cg_cr_rs1_imm_edges_rs1val_0x80000000_immval_0x20
0000a998 l       .data	00000000 I_ori_cg_cr_rs1_imm_edges_rs1val_0x80000000_immval_0x20_str
000014cc l       .text.rvtest	00000000 I_ori_cg_cr_rs1_imm_edges_rs1val_0x80000000_immval_0x40
0000a9ed l       .data	00000000 I_ori_cg_cr_rs1_imm_edges_rs1val_0x80000000_immval_0x40_str
000014f0 l       .text.rvtest	00000000 I_ori_cg_cr_rs1_imm_edges_rs1val_0x80000000_immval_0x80
0000aa42 l       .data	00000000 I_ori_cg_cr_rs1_imm_edges_rs1val_0x80000000_immval_0x80_str
00001514 l       .text.rvtest	00000000 I_ori_cg_cr_rs1_imm_edges_rs1val_0x80000000_immval_0x100
0000aa97 l       .data	00000000 I_ori_cg_cr_rs1_imm_edges_rs1val_0x80000000_immval_0x100_str
00001538 l       .text.rvtest	00000000 I_ori_cg_cr_rs1_imm_edges_rs1val_0x80000000_immval_0x200
0000aaed l       .data	00000000 I_ori_cg_cr_rs1_imm_edges_rs1val_0x80000000_immval_0x200_str
0000155c l       .text.rvtest	00000000 I_ori_cg_cr_rs1_imm_edges_rs1val_0x80000000_immval_0x3ff
0000ab43 l       .data	00000000 I_ori_cg_cr_rs1_imm_edges_rs1val_0x80000000_immval_0x3ff_str
00001580 l       .text.rvtest	00000000 I_ori_cg_cr_rs1_imm_edges_rs1val_0x80000000_immval_0x400
0000ab99 l       .data	00000000 I_ori_cg_cr_rs1_imm_edges_rs1val_0x80000000_immval_0x400_str
000015a4 l       .text.rvtest	00000000 I_ori_cg_cr_rs1_imm_edges_rs1val_0x80000000_immval_0x703
0000abef l       .data	00000000 I_ori_cg_cr_rs1_imm_edges_rs1val_0x80000000_immval_0x703_str
000015c8 l       .text.rvtest	00000000 I_ori_cg_cr_rs1_imm_edges_rs1val_0x80000000_immval_0x7ff
0000ac45 l       .data	00000000 I_ori_cg_cr_rs1_imm_edges_rs1val_0x80000000_immval_0x7ff_str
000015ec l       .text.rvtest	00000000 I_ori_cg_cr_rs1_imm_edges_rs1val_0x80000000_immval_m0x800
0000ac9b l       .data	00000000 I_ori_cg_cr_rs1_imm_edges_rs1val_0x80000000_immval_m0x800_str
00001610 l       .text.rvtest	00000000 I_ori_cg_cr_rs1_imm_edges_rs1val_0x80000000_immval_m0x7ff
0000acf2 l       .data	00000000 I_ori_cg_cr_rs1_imm_edges_rs1val_0x80000000_immval_m0x7ff_str
00001634 l       .text.rvtest	00000000 I_ori_cg_cr_rs1_imm_edges_rs1val_0x80000000_immval_m0x2
0000ad49 l       .data	00000000 I_ori_cg_cr_rs1_imm_edges_rs1val_0x80000000_immval_m0x2_str
00001658 l       .text.rvtest	00000000 I_ori_cg_cr_rs1_imm_edges_rs1val_0x80000000_immval_m0x1
0000ad9e l       .data	00000000 I_ori_cg_cr_rs1_imm_edges_rs1val_0x80000000_immval_m0x1_str
0000167c l       .text.rvtest	00000000 I_ori_cg_cr_rs1_imm_edges_rs1val_0x80000001_immval_0x0
0000adf3 l       .data	00000000 I_ori_cg_cr_rs1_imm_edges_rs1val_0x80000001_immval_0x0_str
000016a0 l       .text.rvtest	00000000 I_ori_cg_cr_rs1_imm_edges_rs1val_0x80000001_immval_0x1
0000ae47 l       .data	00000000 I_ori_cg_cr_rs1_imm_edges_rs1val_0x80000001_immval_0x1_str
000016c4 l       .text.rvtest	00000000 I_ori_cg_cr_rs1_imm_edges_rs1val_0x80000001_immval_0x2
0000ae9b l       .data	00000000 I_ori_cg_cr_rs1_imm_edges_rs1val_0x80000001_immval_0x2_str
000016e8 l       .text.rvtest	00000000 I_ori_cg_cr_rs1_imm_edges_rs1val_0x80000001_immval_0x3
0000aeef l       .data	00000000 I_ori_cg_cr_rs1_imm_edges_rs1val_0x80000001_immval_0x3_str
0000170c l       .text.rvtest	00000000 I_ori_cg_cr_rs1_imm_edges_rs1val_0x80000001_immval_0x4
0000af43 l       .data	00000000 I_ori_cg_cr_rs1_imm_edges_rs1val_0x80000001_immval_0x4_str
00001730 l       .text.rvtest	00000000 I_ori_cg_cr_rs1_imm_edges_rs1val_0x80000001_immval_0x8
0000af97 l       .data	00000000 I_ori_cg_cr_rs1_imm_edges_rs1val_0x80000001_immval_0x8_str
00001754 l       .text.rvtest	00000000 I_ori_cg_cr_rs1_imm_edges_rs1val_0x80000001_immval_0x10
0000afeb l       .data	00000000 I_ori_cg_cr_rs1_imm_edges_rs1val_0x80000001_immval_0x10_str
00001778 l       .text.rvtest	00000000 I_ori_cg_cr_rs1_imm_edges_rs1val_0x80000001_immval_0x20
0000b040 l       .data	00000000 I_ori_cg_cr_rs1_imm_edges_rs1val_0x80000001_immval_0x20_str
0000179c l       .text.rvtest	00000000 I_ori_cg_cr_rs1_imm_edges_rs1val_0x80000001_immval_0x40
0000b095 l       .data	00000000 I_ori_cg_cr_rs1_imm_edges_rs1val_0x80000001_immval_0x40_str
000017c0 l       .text.rvtest	00000000 I_ori_cg_cr_rs1_imm_edges_rs1val_0x80000001_immval_0x80
0000b0ea l       .data	00000000 I_ori_cg_cr_rs1_imm_edges_rs1val_0x80000001_immval_0x80_str
000017e4 l       .text.rvtest	00000000 I_ori_cg_cr_rs1_imm_edges_rs1val_0x80000001_immval_0x100
0000b13f l       .data	00000000 I_ori_cg_cr_rs1_imm_edges_rs1val_0x80000001_immval_0x100_str
00001808 l       .text.rvtest	00000000 I_ori_cg_cr_rs1_imm_edges_rs1val_0x80000001_immval_0x200
0000b195 l       .data	00000000 I_ori_cg_cr_rs1_imm_edges_rs1val_0x80000001_immval_0x200_str
0000182c l       .text.rvtest	00000000 I_ori_cg_cr_rs1_imm_edges_rs1val_0x80000001_immval_0x3ff
0000b1eb l       .data	00000000 I_ori_cg_cr_rs1_imm_edges_rs1val_0x80000001_immval_0x3ff_str
00001850 l       .text.rvtest	00000000 I_ori_cg_cr_rs1_imm_edges_rs1val_0x80000001_immval_0x400
0000b241 l       .data	00000000 I_ori_cg_cr_rs1_imm_edges_rs1val_0x80000001_immval_0x400_str
00001874 l       .text.rvtest	00000000 I_ori_cg_cr_rs1_imm_edges_rs1val_0x80000001_immval_0x703
0000b297 l       .data	00000000 I_ori_cg_cr_rs1_imm_edges_rs1val_0x80000001_immval_0x703_str
00001898 l       .text.rvtest	00000000 I_ori_cg_cr_rs1_imm_edges_rs1val_0x80000001_immval_0x7ff
0000b2ed l       .data	00000000 I_ori_cg_cr_rs1_imm_edges_rs1val_0x80000001_immval_0x7ff_str
000018bc l       .text.rvtest	00000000 I_ori_cg_cr_rs1_imm_edges_rs1val_0x80000001_immval_m0x800
0000b343 l       .data	00000000 I_ori_cg_cr_rs1_imm_edges_rs1val_0x80000001_immval_m0x800_str
000018e0 l       .text.rvtest	00000000 I_ori_cg_cr_rs1_imm_edges_rs1val_0x80000001_immval_m0x7ff
0000b39a l       .data	00000000 I_ori_cg_cr_rs1_imm_edges_rs1val_0x80000001_immval_m0x7ff_str
00001904 l       .text.rvtest	00000000 I_ori_cg_cr_rs1_imm_edges_rs1val_0x80000001_immval_m0x2
0000b3f1 l       .data	00000000 I_ori_cg_cr_rs1_imm_edges_rs1val_0x80000001_immval_m0x2_str
00001928 l       .text.rvtest	00000000 I_ori_cg_cr_rs1_imm_edges_rs1val_0x80000001_immval_m0x1
0000b446 l       .data	00000000 I_ori_cg_cr_rs1_imm_edges_rs1val_0x80000001_immval_m0x1_str
0000194c l       .text.rvtest	00000000 I_ori_cg_cr_rs1_imm_edges_rs1val_0x7fffffff_immval_0x0
0000b49b l       .data	00000000 I_ori_cg_cr_rs1_imm_edges_rs1val_0x7fffffff_immval_0x0_str
00001970 l       .text.rvtest	00000000 I_ori_cg_cr_rs1_imm_edges_rs1val_0x7fffffff_immval_0x1
0000b4ef l       .data	00000000 I_ori_cg_cr_rs1_imm_edges_rs1val_0x7fffffff_immval_0x1_str
00001994 l       .text.rvtest	00000000 I_ori_cg_cr_rs1_imm_edges_rs1val_0x7fffffff_immval_0x2
0000b543 l       .data	00000000 I_ori_cg_cr_rs1_imm_edges_rs1val_0x7fffffff_immval_0x2_str
000019b8 l       .text.rvtest	00000000 I_ori_cg_cr_rs1_imm_edges_rs1val_0x7fffffff_immval_0x3
0000b597 l       .data	00000000 I_ori_cg_cr_rs1_imm_edges_rs1val_0x7fffffff_immval_0x3_str
000019dc l       .text.rvtest	00000000 I_ori_cg_cr_rs1_imm_edges_rs1val_0x7fffffff_immval_0x4
0000b5eb l       .data	00000000 I_ori_cg_cr_rs1_imm_edges_rs1val_0x7fffffff_immval_0x4_str
00001a00 l       .text.rvtest	00000000 I_ori_cg_cr_rs1_imm_edges_rs1val_0x7fffffff_immval_0x8
0000b63f l       .data	00000000 I_ori_cg_cr_rs1_imm_edges_rs1val_0x7fffffff_immval_0x8_str
00001a24 l       .text.rvtest	00000000 I_ori_cg_cr_rs1_imm_edges_rs1val_0x7fffffff_immval_0x10
0000b693 l       .data	00000000 I_ori_cg_cr_rs1_imm_edges_rs1val_0x7fffffff_immval_0x10_str
00001a48 l       .text.rvtest	00000000 I_ori_cg_cr_rs1_imm_edges_rs1val_0x7fffffff_immval_0x20
0000b6e8 l       .data	00000000 I_ori_cg_cr_rs1_imm_edges_rs1val_0x7fffffff_immval_0x20_str
00001a6c l       .text.rvtest	00000000 I_ori_cg_cr_rs1_imm_edges_rs1val_0x7fffffff_immval_0x40
0000b73d l       .data	00000000 I_ori_cg_cr_rs1_imm_edges_rs1val_0x7fffffff_immval_0x40_str
00001a90 l       .text.rvtest	00000000 I_ori_cg_cr_rs1_imm_edges_rs1val_0x7fffffff_immval_0x80
0000b792 l       .data	00000000 I_ori_cg_cr_rs1_imm_edges_rs1val_0x7fffffff_immval_0x80_str
00001ab4 l       .text.rvtest	00000000 I_ori_cg_cr_rs1_imm_edges_rs1val_0x7fffffff_immval_0x100
0000b7e7 l       .data	00000000 I_ori_cg_cr_rs1_imm_edges_rs1val_0x7fffffff_immval_0x100_str
00001ad8 l       .text.rvtest	00000000 I_ori_cg_cr_rs1_imm_edges_rs1val_0x7fffffff_immval_0x200
0000b83d l       .data	00000000 I_ori_cg_cr_rs1_imm_edges_rs1val_0x7fffffff_immval_0x200_str
00001afc l       .text.rvtest	00000000 I_ori_cg_cr_rs1_imm_edges_rs1val_0x7fffffff_immval_0x3ff
0000b893 l       .data	00000000 I_ori_cg_cr_rs1_imm_edges_rs1val_0x7fffffff_immval_0x3ff_str
00001b20 l       .text.rvtest	00000000 I_ori_cg_cr_rs1_imm_edges_rs1val_0x7fffffff_immval_0x400
0000b8e9 l       .data	00000000 I_ori_cg_cr_rs1_imm_edges_rs1val_0x7fffffff_immval_0x400_str
00001b44 l       .text.rvtest	00000000 I_ori_cg_cr_rs1_imm_edges_rs1val_0x7fffffff_immval_0x703
0000b93f l       .data	00000000 I_ori_cg_cr_rs1_imm_edges_rs1val_0x7fffffff_immval_0x703_str
00001b68 l       .text.rvtest	00000000 I_ori_cg_cr_rs1_imm_edges_rs1val_0x7fffffff_immval_0x7ff
0000b995 l       .data	00000000 I_ori_cg_cr_rs1_imm_edges_rs1val_0x7fffffff_immval_0x7ff_str
00001b8c l       .text.rvtest	00000000 I_ori_cg_cr_rs1_imm_edges_rs1val_0x7fffffff_immval_m0x800
0000b9eb l       .data	00000000 I_ori_cg_cr_rs1_imm_edges_rs1val_0x7fffffff_immval_m0x800_str
00001bb0 l       .text.rvtest	00000000 I_ori_cg_cr_rs1_imm_edges_rs1val_0x7fffffff_immval_m0x7ff
0000ba42 l       .data	00000000 I_ori_cg_cr_rs1_imm_edges_rs1val_0x7fffffff_immval_m0x7ff_str
00001bd4 l       .text.rvtest	00000000 I_ori_cg_cr_rs1_imm_edges_rs1val_0x7fffffff_immval_m0x2
0000ba99 l       .data	00000000 I_ori_cg_cr_rs1_imm_edges_rs1val_0x7fffffff_immval_m0x2_str
00001bf8 l       .text.rvtest	00000000 I_ori_cg_cr_rs1_imm_edges_rs1val_0x7fffffff_immval_m0x1
0000baee l       .data	00000000 I_ori_cg_cr_rs1_imm_edges_rs1val_0x7fffffff_immval_m0x1_str
00001c1c l       .text.rvtest	00000000 I_ori_cg_cr_rs1_imm_edges_rs1val_0x7ffffffe_immval_0x0
0000bb43 l       .data	00000000 I_ori_cg_cr_rs1_imm_edges_rs1val_0x7ffffffe_immval_0x0_str
00001c40 l       .text.rvtest	00000000 I_ori_cg_cr_rs1_imm_edges_rs1val_0x7ffffffe_immval_0x1
0000bb97 l       .data	00000000 I_ori_cg_cr_rs1_imm_edges_rs1val_0x7ffffffe_immval_0x1_str
00001c64 l       .text.rvtest	00000000 I_ori_cg_cr_rs1_imm_edges_rs1val_0x7ffffffe_immval_0x2
0000bbeb l       .data	00000000 I_ori_cg_cr_rs1_imm_edges_rs1val_0x7ffffffe_immval_0x2_str
00001c88 l       .text.rvtest	00000000 I_ori_cg_cr_rs1_imm_edges_rs1val_0x7ffffffe_immval_0x3
0000bc3f l       .data	00000000 I_ori_cg_cr_rs1_imm_edges_rs1val_0x7ffffffe_immval_0x3_str
00001cac l       .text.rvtest	00000000 I_ori_cg_cr_rs1_imm_edges_rs1val_0x7ffffffe_immval_0x4
0000bc93 l       .data	00000000 I_ori_cg_cr_rs1_imm_edges_rs1val_0x7ffffffe_immval_0x4_str
00001cd0 l       .text.rvtest	00000000 I_ori_cg_cr_rs1_imm_edges_rs1val_0x7ffffffe_immval_0x8
0000bce7 l       .data	00000000 I_ori_cg_cr_rs1_imm_edges_rs1val_0x7ffffffe_immval_0x8_str
00001cf4 l       .text.rvtest	00000000 I_ori_cg_cr_rs1_imm_edges_rs1val_0x7ffffffe_immval_0x10
0000bd3b l       .data	00000000 I_ori_cg_cr_rs1_imm_edges_rs1val_0x7ffffffe_immval_0x10_str
00001d18 l       .text.rvtest	00000000 I_ori_cg_cr_rs1_imm_edges_rs1val_0x7ffffffe_immval_0x20
0000bd90 l       .data	00000000 I_ori_cg_cr_rs1_imm_edges_rs1val_0x7ffffffe_immval_0x20_str
00001d3c l       .text.rvtest	00000000 I_ori_cg_cr_rs1_imm_edges_rs1val_0x7ffffffe_immval_0x40
0000bde5 l       .data	00000000 I_ori_cg_cr_rs1_imm_edges_rs1val_0x7ffffffe_immval_0x40_str
00001d60 l       .text.rvtest	00000000 I_ori_cg_cr_rs1_imm_edges_rs1val_0x7ffffffe_immval_0x80
0000be3a l       .data	00000000 I_ori_cg_cr_rs1_imm_edges_rs1val_0x7ffffffe_immval_0x80_str
00001d84 l       .text.rvtest	00000000 I_ori_cg_cr_rs1_imm_edges_rs1val_0x7ffffffe_immval_0x100
0000be8f l       .data	00000000 I_ori_cg_cr_rs1_imm_edges_rs1val_0x7ffffffe_immval_0x100_str
00001da8 l       .text.rvtest	00000000 I_ori_cg_cr_rs1_imm_edges_rs1val_0x7ffffffe_immval_0x200
0000bee5 l       .data	00000000 I_ori_cg_cr_rs1_imm_edges_rs1val_0x7ffffffe_immval_0x200_str
00001dcc l       .text.rvtest	00000000 I_ori_cg_cr_rs1_imm_edges_rs1val_0x7ffffffe_immval_0x3ff
0000bf3b l       .data	00000000 I_ori_cg_cr_rs1_imm_edges_rs1val_0x7ffffffe_immval_0x3ff_str
00001df0 l       .text.rvtest	00000000 I_ori_cg_cr_rs1_imm_edges_rs1val_0x7ffffffe_immval_0x400
0000bf91 l       .data	00000000 I_ori_cg_cr_rs1_imm_edges_rs1val_0x7ffffffe_immval_0x400_str
00001e14 l       .text.rvtest	00000000 I_ori_cg_cr_rs1_imm_edges_rs1val_0x7ffffffe_immval_0x703
0000bfe7 l       .data	00000000 I_ori_cg_cr_rs1_imm_edges_rs1val_0x7ffffffe_immval_0x703_str
00001e38 l       .text.rvtest	00000000 I_ori_cg_cr_rs1_imm_edges_rs1val_0x7ffffffe_immval_0x7ff
0000c03d l       .data	00000000 I_ori_cg_cr_rs1_imm_edges_rs1val_0x7ffffffe_immval_0x7ff_str
00001e5c l       .text.rvtest	00000000 I_ori_cg_cr_rs1_imm_edges_rs1val_0x7ffffffe_immval_m0x800
0000c093 l       .data	00000000 I_ori_cg_cr_rs1_imm_edges_rs1val_0x7ffffffe_immval_m0x800_str
00001e80 l       .text.rvtest	00000000 I_ori_cg_cr_rs1_imm_edges_rs1val_0x7ffffffe_immval_m0x7ff
0000c0ea l       .data	00000000 I_ori_cg_cr_rs1_imm_edges_rs1val_0x7ffffffe_immval_m0x7ff_str
00001ea4 l       .text.rvtest	00000000 I_ori_cg_cr_rs1_imm_edges_rs1val_0x7ffffffe_immval_m0x2
0000c141 l       .data	00000000 I_ori_cg_cr_rs1_imm_edges_rs1val_0x7ffffffe_immval_m0x2_str
00001ec8 l       .text.rvtest	00000000 I_ori_cg_cr_rs1_imm_edges_rs1val_0x7ffffffe_immval_m0x1
0000c196 l       .data	00000000 I_ori_cg_cr_rs1_imm_edges_rs1val_0x7ffffffe_immval_m0x1_str
00001eec l       .text.rvtest	00000000 I_ori_cg_cr_rs1_imm_edges_rs1val_0xffffffff_immval_0x0
0000c1eb l       .data	00000000 I_ori_cg_cr_rs1_imm_edges_rs1val_0xffffffff_immval_0x0_str
00001f10 l       .text.rvtest	00000000 I_ori_cg_cr_rs1_imm_edges_rs1val_0xffffffff_immval_0x1
0000c23f l       .data	00000000 I_ori_cg_cr_rs1_imm_edges_rs1val_0xffffffff_immval_0x1_str
00001f34 l       .text.rvtest	00000000 I_ori_cg_cr_rs1_imm_edges_rs1val_0xffffffff_immval_0x2
0000c293 l       .data	00000000 I_ori_cg_cr_rs1_imm_edges_rs1val_0xffffffff_immval_0x2_str
00001f58 l       .text.rvtest	00000000 I_ori_cg_cr_rs1_imm_edges_rs1val_0xffffffff_immval_0x3
0000c2e7 l       .data	00000000 I_ori_cg_cr_rs1_imm_edges_rs1val_0xffffffff_immval_0x3_str
00001f7c l       .text.rvtest	00000000 I_ori_cg_cr_rs1_imm_edges_rs1val_0xffffffff_immval_0x4
0000c33b l       .data	00000000 I_ori_cg_cr_rs1_imm_edges_rs1val_0xffffffff_immval_0x4_str
00001fa0 l       .text.rvtest	00000000 I_ori_cg_cr_rs1_imm_edges_rs1val_0xffffffff_immval_0x8
0000c38f l       .data	00000000 I_ori_cg_cr_rs1_imm_edges_rs1val_0xffffffff_immval_0x8_str
00001fc4 l       .text.rvtest	00000000 I_ori_cg_cr_rs1_imm_edges_rs1val_0xffffffff_immval_0x10
0000c3e3 l       .data	00000000 I_ori_cg_cr_rs1_imm_edges_rs1val_0xffffffff_immval_0x10_str
00001fe8 l       .text.rvtest	00000000 I_ori_cg_cr_rs1_imm_edges_rs1val_0xffffffff_immval_0x20
0000c438 l       .data	00000000 I_ori_cg_cr_rs1_imm_edges_rs1val_0xffffffff_immval_0x20_str
0000200c l       .text.rvtest	00000000 I_ori_cg_cr_rs1_imm_edges_rs1val_0xffffffff_immval_0x40
0000c48d l       .data	00000000 I_ori_cg_cr_rs1_imm_edges_rs1val_0xffffffff_immval_0x40_str
00002030 l       .text.rvtest	00000000 I_ori_cg_cr_rs1_imm_edges_rs1val_0xffffffff_immval_0x80
0000c4e2 l       .data	00000000 I_ori_cg_cr_rs1_imm_edges_rs1val_0xffffffff_immval_0x80_str
00002054 l       .text.rvtest	00000000 I_ori_cg_cr_rs1_imm_edges_rs1val_0xffffffff_immval_0x100
0000c537 l       .data	00000000 I_ori_cg_cr_rs1_imm_edges_rs1val_0xffffffff_immval_0x100_str
00002078 l       .text.rvtest	00000000 I_ori_cg_cr_rs1_imm_edges_rs1val_0xffffffff_immval_0x200
0000c58d l       .data	00000000 I_ori_cg_cr_rs1_imm_edges_rs1val_0xffffffff_immval_0x200_str
0000209c l       .text.rvtest	00000000 I_ori_cg_cr_rs1_imm_edges_rs1val_0xffffffff_immval_0x3ff
0000c5e3 l       .data	00000000 I_ori_cg_cr_rs1_imm_edges_rs1val_0xffffffff_immval_0x3ff_str
000020c0 l       .text.rvtest	00000000 I_ori_cg_cr_rs1_imm_edges_rs1val_0xffffffff_immval_0x400
0000c639 l       .data	00000000 I_ori_cg_cr_rs1_imm_edges_rs1val_0xffffffff_immval_0x400_str
000020e4 l       .text.rvtest	00000000 I_ori_cg_cr_rs1_imm_edges_rs1val_0xffffffff_immval_0x703
0000c68f l       .data	00000000 I_ori_cg_cr_rs1_imm_edges_rs1val_0xffffffff_immval_0x703_str
00002108 l       .text.rvtest	00000000 I_ori_cg_cr_rs1_imm_edges_rs1val_0xffffffff_immval_0x7ff
0000c6e5 l       .data	00000000 I_ori_cg_cr_rs1_imm_edges_rs1val_0xffffffff_immval_0x7ff_str
0000212c l       .text.rvtest	00000000 I_ori_cg_cr_rs1_imm_edges_rs1val_0xffffffff_immval_m0x800
0000c73b l       .data	00000000 I_ori_cg_cr_rs1_imm_edges_rs1val_0xffffffff_immval_m0x800_str
00002150 l       .text.rvtest	00000000 I_ori_cg_cr_rs1_imm_edges_rs1val_0xffffffff_immval_m0x7ff
0000c792 l       .data	00000000 I_ori_cg_cr_rs1_imm_edges_rs1val_0xffffffff_immval_m0x7ff_str
00002174 l       .text.rvtest	00000000 I_ori_cg_cr_rs1_imm_edges_rs1val_0xffffffff_immval_m0x2
0000c7e9 l       .data	00000000 I_ori_cg_cr_rs1_imm_edges_rs1val_0xffffffff_immval_m0x2_str
00002198 l       .text.rvtest	00000000 I_ori_cg_cr_rs1_imm_edges_rs1val_0xffffffff_immval_m0x1
0000c83e l       .data	00000000 I_ori_cg_cr_rs1_imm_edges_rs1val_0xffffffff_immval_m0x1_str
000021bc l       .text.rvtest	00000000 I_ori_cg_cr_rs1_imm_edges_rs1val_0xfffffffe_immval_0x0
0000c893 l       .data	00000000 I_ori_cg_cr_rs1_imm_edges_rs1val_0xfffffffe_immval_0x0_str
000021e0 l       .text.rvtest	00000000 I_ori_cg_cr_rs1_imm_edges_rs1val_0xfffffffe_immval_0x1
0000c8e7 l       .data	00000000 I_ori_cg_cr_rs1_imm_edges_rs1val_0xfffffffe_immval_0x1_str
00002204 l       .text.rvtest	00000000 I_ori_cg_cr_rs1_imm_edges_rs1val_0xfffffffe_immval_0x2
0000c93b l       .data	00000000 I_ori_cg_cr_rs1_imm_edges_rs1val_0xfffffffe_immval_0x2_str
00002228 l       .text.rvtest	00000000 I_ori_cg_cr_rs1_imm_edges_rs1val_0xfffffffe_immval_0x3
0000c98f l       .data	00000000 I_ori_cg_cr_rs1_imm_edges_rs1val_0xfffffffe_immval_0x3_str
0000224c l       .text.rvtest	00000000 I_ori_cg_cr_rs1_imm_edges_rs1val_0xfffffffe_immval_0x4
0000c9e3 l       .data	00000000 I_ori_cg_cr_rs1_imm_edges_rs1val_0xfffffffe_immval_0x4_str
00002270 l       .text.rvtest	00000000 I_ori_cg_cr_rs1_imm_edges_rs1val_0xfffffffe_immval_0x8
0000ca37 l       .data	00000000 I_ori_cg_cr_rs1_imm_edges_rs1val_0xfffffffe_immval_0x8_str
00002294 l       .text.rvtest	00000000 I_ori_cg_cr_rs1_imm_edges_rs1val_0xfffffffe_immval_0x10
0000ca8b l       .data	00000000 I_ori_cg_cr_rs1_imm_edges_rs1val_0xfffffffe_immval_0x10_str
000022b8 l       .text.rvtest	00000000 I_ori_cg_cr_rs1_imm_edges_rs1val_0xfffffffe_immval_0x20
0000cae0 l       .data	00000000 I_ori_cg_cr_rs1_imm_edges_rs1val_0xfffffffe_immval_0x20_str
000022dc l       .text.rvtest	00000000 I_ori_cg_cr_rs1_imm_edges_rs1val_0xfffffffe_immval_0x40
0000cb35 l       .data	00000000 I_ori_cg_cr_rs1_imm_edges_rs1val_0xfffffffe_immval_0x40_str
00002300 l       .text.rvtest	00000000 I_ori_cg_cr_rs1_imm_edges_rs1val_0xfffffffe_immval_0x80
0000cb8a l       .data	00000000 I_ori_cg_cr_rs1_imm_edges_rs1val_0xfffffffe_immval_0x80_str
00002324 l       .text.rvtest	00000000 I_ori_cg_cr_rs1_imm_edges_rs1val_0xfffffffe_immval_0x100
0000cbdf l       .data	00000000 I_ori_cg_cr_rs1_imm_edges_rs1val_0xfffffffe_immval_0x100_str
00002348 l       .text.rvtest	00000000 I_ori_cg_cr_rs1_imm_edges_rs1val_0xfffffffe_immval_0x200
0000cc35 l       .data	00000000 I_ori_cg_cr_rs1_imm_edges_rs1val_0xfffffffe_immval_0x200_str
0000236c l       .text.rvtest	00000000 I_ori_cg_cr_rs1_imm_edges_rs1val_0xfffffffe_immval_0x3ff
0000cc8b l       .data	00000000 I_ori_cg_cr_rs1_imm_edges_rs1val_0xfffffffe_immval_0x3ff_str
00002390 l       .text.rvtest	00000000 I_ori_cg_cr_rs1_imm_edges_rs1val_0xfffffffe_immval_0x400
0000cce1 l       .data	00000000 I_ori_cg_cr_rs1_imm_edges_rs1val_0xfffffffe_immval_0x400_str
000023b4 l       .text.rvtest	00000000 I_ori_cg_cr_rs1_imm_edges_rs1val_0xfffffffe_immval_0x703
0000cd37 l       .data	00000000 I_ori_cg_cr_rs1_imm_edges_rs1val_0xfffffffe_immval_0x703_str
000023d8 l       .text.rvtest	00000000 I_ori_cg_cr_rs1_imm_edges_rs1val_0xfffffffe_immval_0x7ff
0000cd8d l       .data	00000000 I_ori_cg_cr_rs1_imm_edges_rs1val_0xfffffffe_immval_0x7ff_str
000023fc l       .text.rvtest	00000000 I_ori_cg_cr_rs1_imm_edges_rs1val_0xfffffffe_immval_m0x800
0000cde3 l       .data	00000000 I_ori_cg_cr_rs1_imm_edges_rs1val_0xfffffffe_immval_m0x800_str
00002420 l       .text.rvtest	00000000 I_ori_cg_cr_rs1_imm_edges_rs1val_0xfffffffe_immval_m0x7ff
0000ce3a l       .data	00000000 I_ori_cg_cr_rs1_imm_edges_rs1val_0xfffffffe_immval_m0x7ff_str
00002444 l       .text.rvtest	00000000 I_ori_cg_cr_rs1_imm_edges_rs1val_0xfffffffe_immval_m0x2
0000ce91 l       .data	00000000 I_ori_cg_cr_rs1_imm_edges_rs1val_0xfffffffe_immval_m0x2_str
00002468 l       .text.rvtest	00000000 I_ori_cg_cr_rs1_imm_edges_rs1val_0xfffffffe_immval_m0x1
0000cee6 l       .data	00000000 I_ori_cg_cr_rs1_imm_edges_rs1val_0xfffffffe_immval_m0x1_str
0000248c l       .text.rvtest	00000000 I_ori_cg_cr_rs1_imm_edges_rs1val_0x5bbc8872_immval_0x0
0000cf3b l       .data	00000000 I_ori_cg_cr_rs1_imm_edges_rs1val_0x5bbc8872_immval_0x0_str
000024b0 l       .text.rvtest	00000000 I_ori_cg_cr_rs1_imm_edges_rs1val_0x5bbc8872_immval_0x1
0000cf8f l       .data	00000000 I_ori_cg_cr_rs1_imm_edges_rs1val_0x5bbc8872_immval_0x1_str
000024d4 l       .text.rvtest	00000000 I_ori_cg_cr_rs1_imm_edges_rs1val_0x5bbc8872_immval_0x2
0000cfe3 l       .data	00000000 I_ori_cg_cr_rs1_imm_edges_rs1val_0x5bbc8872_immval_0x2_str
000024f8 l       .text.rvtest	00000000 I_ori_cg_cr_rs1_imm_edges_rs1val_0x5bbc8872_immval_0x3
0000d037 l       .data	00000000 I_ori_cg_cr_rs1_imm_edges_rs1val_0x5bbc8872_immval_0x3_str
0000251c l       .text.rvtest	00000000 I_ori_cg_cr_rs1_imm_edges_rs1val_0x5bbc8872_immval_0x4
0000d08b l       .data	00000000 I_ori_cg_cr_rs1_imm_edges_rs1val_0x5bbc8872_immval_0x4_str
00002540 l       .text.rvtest	00000000 I_ori_cg_cr_rs1_imm_edges_rs1val_0x5bbc8872_immval_0x8
0000d0df l       .data	00000000 I_ori_cg_cr_rs1_imm_edges_rs1val_0x5bbc8872_immval_0x8_str
00002564 l       .text.rvtest	00000000 I_ori_cg_cr_rs1_imm_edges_rs1val_0x5bbc8872_immval_0x10
0000d133 l       .data	00000000 I_ori_cg_cr_rs1_imm_edges_rs1val_0x5bbc8872_immval_0x10_str
00002588 l       .text.rvtest	00000000 I_ori_cg_cr_rs1_imm_edges_rs1val_0x5bbc8872_immval_0x20
0000d188 l       .data	00000000 I_ori_cg_cr_rs1_imm_edges_rs1val_0x5bbc8872_immval_0x20_str
000025ac l       .text.rvtest	00000000 I_ori_cg_cr_rs1_imm_edges_rs1val_0x5bbc8872_immval_0x40
0000d1dd l       .data	00000000 I_ori_cg_cr_rs1_imm_edges_rs1val_0x5bbc8872_immval_0x40_str
000025d0 l       .text.rvtest	00000000 I_ori_cg_cr_rs1_imm_edges_rs1val_0x5bbc8872_immval_0x80
0000d232 l       .data	00000000 I_ori_cg_cr_rs1_imm_edges_rs1val_0x5bbc8872_immval_0x80_str
000025f4 l       .text.rvtest	00000000 I_ori_cg_cr_rs1_imm_edges_rs1val_0x5bbc8872_immval_0x100
0000d287 l       .data	00000000 I_ori_cg_cr_rs1_imm_edges_rs1val_0x5bbc8872_immval_0x100_str
00002618 l       .text.rvtest	00000000 I_ori_cg_cr_rs1_imm_edges_rs1val_0x5bbc8872_immval_0x200
0000d2dd l       .data	00000000 I_ori_cg_cr_rs1_imm_edges_rs1val_0x5bbc8872_immval_0x200_str
0000263c l       .text.rvtest	00000000 I_ori_cg_cr_rs1_imm_edges_rs1val_0x5bbc8872_immval_0x3ff
0000d333 l       .data	00000000 I_ori_cg_cr_rs1_imm_edges_rs1val_0x5bbc8872_immval_0x3ff_str
00002660 l       .text.rvtest	00000000 I_ori_cg_cr_rs1_imm_edges_rs1val_0x5bbc8872_immval_0x400
0000d389 l       .data	00000000 I_ori_cg_cr_rs1_imm_edges_rs1val_0x5bbc8872_immval_0x400_str
00002684 l       .text.rvtest	00000000 I_ori_cg_cr_rs1_imm_edges_rs1val_0x5bbc8872_immval_0x703
0000d3df l       .data	00000000 I_ori_cg_cr_rs1_imm_edges_rs1val_0x5bbc8872_immval_0x703_str
000026a8 l       .text.rvtest	00000000 I_ori_cg_cr_rs1_imm_edges_rs1val_0x5bbc8872_immval_0x7ff
0000d435 l       .data	00000000 I_ori_cg_cr_rs1_imm_edges_rs1val_0x5bbc8872_immval_0x7ff_str
000026cc l       .text.rvtest	00000000 I_ori_cg_cr_rs1_imm_edges_rs1val_0x5bbc8872_immval_m0x800
0000d48b l       .data	00000000 I_ori_cg_cr_rs1_imm_edges_rs1val_0x5bbc8872_immval_m0x800_str
000026f0 l       .text.rvtest	00000000 I_ori_cg_cr_rs1_imm_edges_rs1val_0x5bbc8872_immval_m0x7ff
0000d4e2 l       .data	00000000 I_ori_cg_cr_rs1_imm_edges_rs1val_0x5bbc8872_immval_m0x7ff_str
00002714 l       .text.rvtest	00000000 I_ori_cg_cr_rs1_imm_edges_rs1val_0x5bbc8872_immval_m0x2
0000d539 l       .data	00000000 I_ori_cg_cr_rs1_imm_edges_rs1val_0x5bbc8872_immval_m0x2_str
00002738 l       .text.rvtest	00000000 I_ori_cg_cr_rs1_imm_edges_rs1val_0x5bbc8872_immval_m0x1
0000d58e l       .data	00000000 I_ori_cg_cr_rs1_imm_edges_rs1val_0x5bbc8872_immval_m0x1_str
0000275c l       .text.rvtest	00000000 I_ori_cg_cr_rs1_imm_edges_rs1val_0xaaaaaaaa_immval_0x0
0000d5e3 l       .data	00000000 I_ori_cg_cr_rs1_imm_edges_rs1val_0xaaaaaaaa_immval_0x0_str
00002780 l       .text.rvtest	00000000 I_ori_cg_cr_rs1_imm_edges_rs1val_0xaaaaaaaa_immval_0x1
0000d637 l       .data	00000000 I_ori_cg_cr_rs1_imm_edges_rs1val_0xaaaaaaaa_immval_0x1_str
000027a4 l       .text.rvtest	00000000 I_ori_cg_cr_rs1_imm_edges_rs1val_0xaaaaaaaa_immval_0x2
0000d68b l       .data	00000000 I_ori_cg_cr_rs1_imm_edges_rs1val_0xaaaaaaaa_immval_0x2_str
000027c8 l       .text.rvtest	00000000 I_ori_cg_cr_rs1_imm_edges_rs1val_0xaaaaaaaa_immval_0x3
0000d6df l       .data	00000000 I_ori_cg_cr_rs1_imm_edges_rs1val_0xaaaaaaaa_immval_0x3_str
000027ec l       .text.rvtest	00000000 I_ori_cg_cr_rs1_imm_edges_rs1val_0xaaaaaaaa_immval_0x4
0000d733 l       .data	00000000 I_ori_cg_cr_rs1_imm_edges_rs1val_0xaaaaaaaa_immval_0x4_str
00002810 l       .text.rvtest	00000000 I_ori_cg_cr_rs1_imm_edges_rs1val_0xaaaaaaaa_immval_0x8
0000d787 l       .data	00000000 I_ori_cg_cr_rs1_imm_edges_rs1val_0xaaaaaaaa_immval_0x8_str
00002834 l       .text.rvtest	00000000 I_ori_cg_cr_rs1_imm_edges_rs1val_0xaaaaaaaa_immval_0x10
0000d7db l       .data	00000000 I_ori_cg_cr_rs1_imm_edges_rs1val_0xaaaaaaaa_immval_0x10_str
00002858 l       .text.rvtest	00000000 I_ori_cg_cr_rs1_imm_edges_rs1val_0xaaaaaaaa_immval_0x20
0000d830 l       .data	00000000 I_ori_cg_cr_rs1_imm_edges_rs1val_0xaaaaaaaa_immval_0x20_str
0000287c l       .text.rvtest	00000000 I_ori_cg_cr_rs1_imm_edges_rs1val_0xaaaaaaaa_immval_0x40
0000d885 l       .data	00000000 I_ori_cg_cr_rs1_imm_edges_rs1val_0xaaaaaaaa_immval_0x40_str
000028a0 l       .text.rvtest	00000000 I_ori_cg_cr_rs1_imm_edges_rs1val_0xaaaaaaaa_immval_0x80
0000d8da l       .data	00000000 I_ori_cg_cr_rs1_imm_edges_rs1val_0xaaaaaaaa_immval_0x80_str
000028c4 l       .text.rvtest	00000000 I_ori_cg_cr_rs1_imm_edges_rs1val_0xaaaaaaaa_immval_0x100
0000d92f l       .data	00000000 I_ori_cg_cr_rs1_imm_edges_rs1val_0xaaaaaaaa_immval_0x100_str
000028e8 l       .text.rvtest	00000000 I_ori_cg_cr_rs1_imm_edges_rs1val_0xaaaaaaaa_immval_0x200
0000d985 l       .data	00000000 I_ori_cg_cr_rs1_imm_edges_rs1val_0xaaaaaaaa_immval_0x200_str
0000290c l       .text.rvtest	00000000 I_ori_cg_cr_rs1_imm_edges_rs1val_0xaaaaaaaa_immval_0x3ff
0000d9db l       .data	00000000 I_ori_cg_cr_rs1_imm_edges_rs1val_0xaaaaaaaa_immval_0x3ff_str
00002930 l       .text.rvtest	00000000 I_ori_cg_cr_rs1_imm_edges_rs1val_0xaaaaaaaa_immval_0x400
0000da31 l       .data	00000000 I_ori_cg_cr_rs1_imm_edges_rs1val_0xaaaaaaaa_immval_0x400_str
00002954 l       .text.rvtest	00000000 I_ori_cg_cr_rs1_imm_edges_rs1val_0xaaaaaaaa_immval_0x703
0000da87 l       .data	00000000 I_ori_cg_cr_rs1_imm_edges_rs1val_0xaaaaaaaa_immval_0x703_str
00002978 l       .text.rvtest	00000000 I_ori_cg_cr_rs1_imm_edges_rs1val_0xaaaaaaaa_immval_0x7ff
0000dadd l       .data	00000000 I_ori_cg_cr_rs1_imm_edges_rs1val_0xaaaaaaaa_immval_0x7ff_str
0000299c l       .text.rvtest	00000000 I_ori_cg_cr_rs1_imm_edges_rs1val_0xaaaaaaaa_immval_m0x800
0000db33 l       .data	00000000 I_ori_cg_cr_rs1_imm_edges_rs1val_0xaaaaaaaa_immval_m0x800_str
000029c0 l       .text.rvtest	00000000 I_ori_cg_cr_rs1_imm_edges_rs1val_0xaaaaaaaa_immval_m0x7ff
0000db8a l       .data	00000000 I_ori_cg_cr_rs1_imm_edges_rs1val_0xaaaaaaaa_immval_m0x7ff_str
000029e4 l       .text.rvtest	00000000 I_ori_cg_cr_rs1_imm_edges_rs1val_0xaaaaaaaa_immval_m0x2
0000dbe1 l       .data	00000000 I_ori_cg_cr_rs1_imm_edges_rs1val_0xaaaaaaaa_immval_m0x2_str
00002a08 l       .text.rvtest	00000000 I_ori_cg_cr_rs1_imm_edges_rs1val_0xaaaaaaaa_immval_m0x1
0000dc36 l       .data	00000000 I_ori_cg_cr_rs1_imm_edges_rs1val_0xaaaaaaaa_immval_m0x1_str
00002a2c l       .text.rvtest	00000000 I_ori_cg_cr_rs1_imm_edges_rs1val_0x55555555_immval_0x0
0000dc8b l       .data	00000000 I_ori_cg_cr_rs1_imm_edges_rs1val_0x55555555_immval_0x0_str
00002a50 l       .text.rvtest	00000000 I_ori_cg_cr_rs1_imm_edges_rs1val_0x55555555_immval_0x1
0000dcdf l       .data	00000000 I_ori_cg_cr_rs1_imm_edges_rs1val_0x55555555_immval_0x1_str
00002a74 l       .text.rvtest	00000000 I_ori_cg_cr_rs1_imm_edges_rs1val_0x55555555_immval_0x2
0000dd33 l       .data	00000000 I_ori_cg_cr_rs1_imm_edges_rs1val_0x55555555_immval_0x2_str
00002a98 l       .text.rvtest	00000000 I_ori_cg_cr_rs1_imm_edges_rs1val_0x55555555_immval_0x3
0000dd87 l       .data	00000000 I_ori_cg_cr_rs1_imm_edges_rs1val_0x55555555_immval_0x3_str
00002abc l       .text.rvtest	00000000 I_ori_cg_cr_rs1_imm_edges_rs1val_0x55555555_immval_0x4
0000dddb l       .data	00000000 I_ori_cg_cr_rs1_imm_edges_rs1val_0x55555555_immval_0x4_str
00002ae0 l       .text.rvtest	00000000 I_ori_cg_cr_rs1_imm_edges_rs1val_0x55555555_immval_0x8
0000de2f l       .data	00000000 I_ori_cg_cr_rs1_imm_edges_rs1val_0x55555555_immval_0x8_str
00002b04 l       .text.rvtest	00000000 I_ori_cg_cr_rs1_imm_edges_rs1val_0x55555555_immval_0x10
0000de83 l       .data	00000000 I_ori_cg_cr_rs1_imm_edges_rs1val_0x55555555_immval_0x10_str
00002b28 l       .text.rvtest	00000000 I_ori_cg_cr_rs1_imm_edges_rs1val_0x55555555_immval_0x20
0000ded8 l       .data	00000000 I_ori_cg_cr_rs1_imm_edges_rs1val_0x55555555_immval_0x20_str
00002b4c l       .text.rvtest	00000000 I_ori_cg_cr_rs1_imm_edges_rs1val_0x55555555_immval_0x40
0000df2d l       .data	00000000 I_ori_cg_cr_rs1_imm_edges_rs1val_0x55555555_immval_0x40_str
00002b70 l       .text.rvtest	00000000 I_ori_cg_cr_rs1_imm_edges_rs1val_0x55555555_immval_0x80
0000df82 l       .data	00000000 I_ori_cg_cr_rs1_imm_edges_rs1val_0x55555555_immval_0x80_str
00002b94 l       .text.rvtest	00000000 I_ori_cg_cr_rs1_imm_edges_rs1val_0x55555555_immval_0x100
0000dfd7 l       .data	00000000 I_ori_cg_cr_rs1_imm_edges_rs1val_0x55555555_immval_0x100_str
00002bb8 l       .text.rvtest	00000000 I_ori_cg_cr_rs1_imm_edges_rs1val_0x55555555_immval_0x200
0000e02d l       .data	00000000 I_ori_cg_cr_rs1_imm_edges_rs1val_0x55555555_immval_0x200_str
00002bdc l       .text.rvtest	00000000 I_ori_cg_cr_rs1_imm_edges_rs1val_0x55555555_immval_0x3ff
0000e083 l       .data	00000000 I_ori_cg_cr_rs1_imm_edges_rs1val_0x55555555_immval_0x3ff_str
00002c00 l       .text.rvtest	00000000 I_ori_cg_cr_rs1_imm_edges_rs1val_0x55555555_immval_0x400
0000e0d9 l       .data	00000000 I_ori_cg_cr_rs1_imm_edges_rs1val_0x55555555_immval_0x400_str
00002c24 l       .text.rvtest	00000000 I_ori_cg_cr_rs1_imm_edges_rs1val_0x55555555_immval_0x703
0000e12f l       .data	00000000 I_ori_cg_cr_rs1_imm_edges_rs1val_0x55555555_immval_0x703_str
00002c48 l       .text.rvtest	00000000 I_ori_cg_cr_rs1_imm_edges_rs1val_0x55555555_immval_0x7ff
0000e185 l       .data	00000000 I_ori_cg_cr_rs1_imm_edges_rs1val_0x55555555_immval_0x7ff_str
00002c6c l       .text.rvtest	00000000 I_ori_cg_cr_rs1_imm_edges_rs1val_0x55555555_immval_m0x800
0000e1db l       .data	00000000 I_ori_cg_cr_rs1_imm_edges_rs1val_0x55555555_immval_m0x800_str
00002c90 l       .text.rvtest	00000000 I_ori_cg_cr_rs1_imm_edges_rs1val_0x55555555_immval_m0x7ff
0000e232 l       .data	00000000 I_ori_cg_cr_rs1_imm_edges_rs1val_0x55555555_immval_m0x7ff_str
00002cb4 l       .text.rvtest	00000000 I_ori_cg_cr_rs1_imm_edges_rs1val_0x55555555_immval_m0x2
0000e289 l       .data	00000000 I_ori_cg_cr_rs1_imm_edges_rs1val_0x55555555_immval_m0x2_str
00002cd8 l       .text.rvtest	00000000 I_ori_cg_cr_rs1_imm_edges_rs1val_0x55555555_immval_m0x1
0000e2de l       .data	00000000 I_ori_cg_cr_rs1_imm_edges_rs1val_0x55555555_immval_m0x1_str
00002cfc l       .text.rvtest	00000000 I_ori_cg_cmp_rd_rs1_b0
0000e333 l       .data	00000000 I_ori_cg_cmp_rd_rs1_b0_str
00002d24 l       .text.rvtest	00000000 I_ori_cg_cmp_rd_rs1_b1
0000e366 l       .data	00000000 I_ori_cg_cmp_rd_rs1_b1_str
00002d48 l       .text.rvtest	00000000 I_ori_cg_cmp_rd_rs1_b2
0000e399 l       .data	00000000 I_ori_cg_cmp_rd_rs1_b2_str
00002d6c l       .text.rvtest	00000000 I_ori_cg_cmp_rd_rs1_b3
0000e3cc l       .data	00000000 I_ori_cg_cmp_rd_rs1_b3_str
00002d90 l       .text.rvtest	00000000 I_ori_cg_cmp_rd_rs1_b4
0000e3ff l       .data	00000000 I_ori_cg_cmp_rd_rs1_b4_str
00002db4 l       .text.rvtest	00000000 I_ori_cg_cmp_rd_rs1_b5
0000e432 l       .data	00000000 I_ori_cg_cmp_rd_rs1_b5_str
00002dd8 l       .text.rvtest	00000000 I_ori_cg_cmp_rd_rs1_b6
0000e465 l       .data	00000000 I_ori_cg_cmp_rd_rs1_b6_str
00002e04 l       .text.rvtest	00000000 I_ori_cg_cmp_rd_rs1_b7
0000e498 l       .data	00000000 I_ori_cg_cmp_rd_rs1_b7_str
00002e28 l       .text.rvtest	00000000 I_ori_cg_cmp_rd_rs1_b8
0000e4cb l       .data	00000000 I_ori_cg_cmp_rd_rs1_b8_str
00002e4c l       .text.rvtest	00000000 I_ori_cg_cmp_rd_rs1_b9
0000e4fe l       .data	00000000 I_ori_cg_cmp_rd_rs1_b9_str
00002e70 l       .text.rvtest	00000000 I_ori_cg_cmp_rd_rs1_b10
0000e531 l       .data	00000000 I_ori_cg_cmp_rd_rs1_b10_str
00002e94 l       .text.rvtest	00000000 I_ori_cg_cmp_rd_rs1_b11
0000e565 l       .data	00000000 I_ori_cg_cmp_rd_rs1_b11_str
00002ebc l       .text.rvtest	00000000 I_ori_cg_cmp_rd_rs1_b12
0000e599 l       .data	00000000 I_ori_cg_cmp_rd_rs1_b12_str
00002ee0 l       .text.rvtest	00000000 I_ori_cg_cmp_rd_rs1_b13
0000e5cd l       .data	00000000 I_ori_cg_cmp_rd_rs1_b13_str
00002f04 l       .text.rvtest	00000000 I_ori_cg_cmp_rd_rs1_b14
0000e601 l       .data	00000000 I_ori_cg_cmp_rd_rs1_b14_str
00002f2c l       .text.rvtest	00000000 I_ori_cg_cmp_rd_rs1_b15
0000e635 l       .data	00000000 I_ori_cg_cmp_rd_rs1_b15_str
00002f50 l       .text.rvtest	00000000 I_ori_cg_cmp_rd_rs1_b16
0000e669 l       .data	00000000 I_ori_cg_cmp_rd_rs1_b16_str
00002f74 l       .text.rvtest	00000000 I_ori_cg_cmp_rd_rs1_b17
0000e69d l       .data	00000000 I_ori_cg_cmp_rd_rs1_b17_str
00002f98 l       .text.rvtest	00000000 I_ori_cg_cmp_rd_rs1_b18
0000e6d1 l       .data	00000000 I_ori_cg_cmp_rd_rs1_b18_str
00002fbc l       .text.rvtest	00000000 I_ori_cg_cmp_rd_rs1_b19
0000e705 l       .data	00000000 I_ori_cg_cmp_rd_rs1_b19_str
00002fe0 l       .text.rvtest	00000000 I_ori_cg_cmp_rd_rs1_b20
0000e739 l       .data	00000000 I_ori_cg_cmp_rd_rs1_b20_str
00003004 l       .text.rvtest	00000000 I_ori_cg_cmp_rd_rs1_b21
0000e76d l       .data	00000000 I_ori_cg_cmp_rd_rs1_b21_str
00003028 l       .text.rvtest	00000000 I_ori_cg_cmp_rd_rs1_b22
0000e7a1 l       .data	00000000 I_ori_cg_cmp_rd_rs1_b22_str
0000304c l       .text.rvtest	00000000 I_ori_cg_cmp_rd_rs1_b23
0000e7d5 l       .data	00000000 I_ori_cg_cmp_rd_rs1_b23_str
00003070 l       .text.rvtest	00000000 I_ori_cg_cmp_rd_rs1_b24
0000e809 l       .data	00000000 I_ori_cg_cmp_rd_rs1_b24_str
00003094 l       .text.rvtest	00000000 I_ori_cg_cmp_rd_rs1_b25
0000e83d l       .data	00000000 I_ori_cg_cmp_rd_rs1_b25_str
000030b8 l       .text.rvtest	00000000 I_ori_cg_cmp_rd_rs1_b26
0000e871 l       .data	00000000 I_ori_cg_cmp_rd_rs1_b26_str
000030dc l       .text.rvtest	00000000 I_ori_cg_cmp_rd_rs1_b27
0000e8a5 l       .data	00000000 I_ori_cg_cmp_rd_rs1_b27_str
00003100 l       .text.rvtest	00000000 I_ori_cg_cmp_rd_rs1_b28
0000e8d9 l       .data	00000000 I_ori_cg_cmp_rd_rs1_b28_str
00003124 l       .text.rvtest	00000000 I_ori_cg_cmp_rd_rs1_b29
0000e90d l       .data	00000000 I_ori_cg_cmp_rd_rs1_b29_str
00003148 l       .text.rvtest	00000000 I_ori_cg_cmp_rd_rs1_b30
0000e941 l       .data	00000000 I_ori_cg_cmp_rd_rs1_b30_str
0000316c l       .text.rvtest	00000000 I_ori_cg_cmp_rd_rs1_b31
0000e975 l       .data	00000000 I_ori_cg_cmp_rd_rs1_b31_str
00003190 l       .text.rvtest	00000000 I_ori_cg_cp_imm_edges_0x0
0000e9a9 l       .data	00000000 I_ori_cg_cp_imm_edges_0x0_str
000031b4 l       .text.rvtest	00000000 I_ori_cg_cp_imm_edges_0x1
0000e9df l       .data	00000000 I_ori_cg_cp_imm_edges_0x1_str
000031d8 l       .text.rvtest	00000000 I_ori_cg_cp_imm_edges_0x2
0000ea15 l       .data	00000000 I_ori_cg_cp_imm_edges_0x2_str
000031fc l       .text.rvtest	00000000 I_ori_cg_cp_imm_edges_0x3
0000ea4b l       .data	00000000 I_ori_cg_cp_imm_edges_0x3_str
00003220 l       .text.rvtest	00000000 I_ori_cg_cp_imm_edges_0x4
0000ea81 l       .data	00000000 I_ori_cg_cp_imm_edges_0x4_str
00003244 l       .text.rvtest	00000000 I_ori_cg_cp_imm_edges_0x8
0000eab7 l       .data	00000000 I_ori_cg_cp_imm_edges_0x8_str
00003268 l       .text.rvtest	00000000 I_ori_cg_cp_imm_edges_0x10
0000eaed l       .data	00000000 I_ori_cg_cp_imm_edges_0x10_str
0000328c l       .text.rvtest	00000000 I_ori_cg_cp_imm_edges_0x20
0000eb24 l       .data	00000000 I_ori_cg_cp_imm_edges_0x20_str
000032b0 l       .text.rvtest	00000000 I_ori_cg_cp_imm_edges_0x40
0000eb5b l       .data	00000000 I_ori_cg_cp_imm_edges_0x40_str
000032d4 l       .text.rvtest	00000000 I_ori_cg_cp_imm_edges_0x80
0000eb92 l       .data	00000000 I_ori_cg_cp_imm_edges_0x80_str
000032f8 l       .text.rvtest	00000000 I_ori_cg_cp_imm_edges_0x100
0000ebc9 l       .data	00000000 I_ori_cg_cp_imm_edges_0x100_str
0000331c l       .text.rvtest	00000000 I_ori_cg_cp_imm_edges_0x200
0000ec01 l       .data	00000000 I_ori_cg_cp_imm_edges_0x200_str
00003340 l       .text.rvtest	00000000 I_ori_cg_cp_imm_edges_0x3ff
0000ec39 l       .data	00000000 I_ori_cg_cp_imm_edges_0x3ff_str
00003364 l       .text.rvtest	00000000 I_ori_cg_cp_imm_edges_0x400
0000ec71 l       .data	00000000 I_ori_cg_cp_imm_edges_0x400_str
00003388 l       .text.rvtest	00000000 I_ori_cg_cp_imm_edges_0x703
0000eca9 l       .data	00000000 I_ori_cg_cp_imm_edges_0x703_str
000033ac l       .text.rvtest	00000000 I_ori_cg_cp_imm_edges_0x7ff
0000ece1 l       .data	00000000 I_ori_cg_cp_imm_edges_0x7ff_str
000033d0 l       .text.rvtest	00000000 I_ori_cg_cp_imm_edges_m0x800
0000ed19 l       .data	00000000 I_ori_cg_cp_imm_edges_m0x800_str
000033f4 l       .text.rvtest	00000000 I_ori_cg_cp_imm_edges_m0x7ff
0000ed52 l       .data	00000000 I_ori_cg_cp_imm_edges_m0x7ff_str
00003418 l       .text.rvtest	00000000 I_ori_cg_cp_imm_edges_m0x2
0000ed8b l       .data	00000000 I_ori_cg_cp_imm_edges_m0x2_str
0000343c l       .text.rvtest	00000000 I_ori_cg_cp_imm_edges_m0x1
0000edc2 l       .data	00000000 I_ori_cg_cp_imm_edges_m0x1_str
0000345c l       .text.rvtest	00000000 exit_cleanup
0000f464 l       .data	00000000 successstr
00020204 l       .text.rvmodel	00000000 rvmodel_io_write_str
00020208 l       .text.rvmodel	00000000 rvmodel_halt_pass
00003490 l       .text.rvtest	00000000 abort_test
6f5ca309 l       *ABS*	00000000 immx
6f5ca309 l       *ABS*	00000000 absimm
00000000 l       *ABS*	00000000 cry
00000309 l       *ABS*	00000000 imm12
0000ee00 l       .data	00000000 begin_failure_scratch
00003560 l       .text.rvtest	00000000 failedtest_saveregs
00003504 l       .text.rvtest	00000000 failedtest_trap_x7_x9
0000ef70 l       .data	00000000 saved_mcause
0000ef78 l       .data	00000000 saved_mtval
0000ef80 l       .data	00000000 saved_mstatus
000035d0 l       .text.rvtest	00000000 failedtest_saveresults
0000ee00 l       .data	00000000 failure_type
0000364c l       .text.rvtest	00000000 failedtest_saveresults_trap
000035e0 l       .text.rvtest	00000000 failedtest_saveresults_int
00003a20 l       .text.rvtest	00000000 failedtest_saveresults_common
0000ef58 l       .data	00000000 trap_diag_fail_str_ptr
0000f62a l       .data	00000000 trap_sig_offset_mismatch
00003900 l       .text.rvtest	00000000 trap_diag_offset_mismatch
0000ef30 l       .data	00000000 trap_diag_subtype
0000f68e l       .data	00000000 sv_Mvect_str
00003980 l       .text.rvtest	00000000 trap_diag_field_identified
0000f790 l       .data	00000000 sv_Mcause_str
0000f88b l       .data	00000000 sv_Mepc_str
0000f97e l       .data	00000000 sv_Mtval_str
0000faf1 l       .data	00000000 sv_Mip_str
0000fa75 l       .data	00000000 sv_Mtval2_str
0000fab3 l       .data	00000000 sv_Mtinst_str
0000f6ce l       .data	00000000 sv_Svect_str
0000f7ce l       .data	00000000 sv_Scause_str
0000f8c7 l       .data	00000000 sv_Sepc_str
0000f9bb l       .data	00000000 sv_Stval_str
0000fb2c l       .data	00000000 sv_Sip_str
0000f70e l       .data	00000000 sv_Hvect_str
0000f80c l       .data	00000000 sv_Hcause_str
0000f903 l       .data	00000000 sv_Hepc_str
0000f9f8 l       .data	00000000 sv_Htval_str
0000fb67 l       .data	00000000 sv_Hip_str
0000f74f l       .data	00000000 sv_Vvect_str
0000f84b l       .data	00000000 sv_Vcause_str
0000f940 l       .data	00000000 sv_Vepc_str
0000fa36 l       .data	00000000 sv_Vtval_str
0000fba3 l       .data	00000000 sv_Vip_str
0000fbe0 l       .data	00000000 Mclr_Mext_int_str
0000fc2f l       .data	00000000 Mclr_Sext_int_str
0000fd2a l       .data	00000000 Sclr_Sext_int_str
0000fe26 l       .data	00000000 Hclr_Sext_int_str
00003a10 l       .text.rvtest	00000000 trap_diag_generic_report
0000ef48 l       .data	00000000 trap_diag_actual_offset
0000ef50 l       .data	00000000 trap_diag_expected_offset
0000ef34 l       .data	00000000 trap_diag_mode
0000ef38 l       .data	00000000 trap_diag_actual_value
0000ef40 l       .data	00000000 trap_diag_expected_value
00003a50 l       .text.rvtest	00000000 failedtest_report
00003a50 l       .text.rvtest	00000000 print_failstr
0000f49a l       .data	00000000 failstr
00003a88 l       .text.rvtest	00000000 print_testnamestr
0000f52d l       .data	00000000 testnamestr
00003ac8 l       .text.rvtest	00000000 print_failure_test_name_str
0000ef20 l       .data	00000000 failure_string_ptr
00003ad8 l       .text.rvtest	00000000 print_newline_str
0000f53f l       .data	00000000 newlinestr
00003f0c l       .text.rvtest	00000000 failedtest_report_trap_detailed
0000f541 l       .data	00000000 inststr
0000ef00 l       .data	00000000 failing_instruction
00004e58 l       .text.rvtest	00000000 failedtest_hex_to_str
0000ef88 l       .data	00000000 ascii_buffer
0000f555 l       .data	00000000 addrstr
0000ef08 l       .data	00000000 failing_addr
0000ffd2 l       .data	00000000 regstr
00003cb8 l       .text.rvtest	00000000 failedtest_report_not_intreg
0000ef04 l       .data	00000000 failing_reg
00004ed4 l       .text.rvtest	00000000 failedtest_dec_to_str
00003d94 l       .text.rvtest	00000000 failedtest_report_print_regstr
00003d0c l       .text.rvtest	00000000 failedtest_report_fpreg
00003d58 l       .text.rvtest	00000000 failedtest_report_vecreg
00010032 l       .data	00000000 fflagsstr
00003dc8 l       .text.rvtest	00000000 failedtest_report_after_reg
0000ffe3 l       .data	00000000 badvalstr
00003e2c l       .text.rvtest	00000000 failedtest_report_badval_not_fp
0000ef10 l       .data	00000000 failing_value
00003e3c l       .text.rvtest	00000000 failedtest_report_badval_done
0000fffa l       .data	00000000 expvalstr
00003ecc l       .text.rvtest	00000000 failedtest_report_expval_not_fp
0000ef18 l       .data	00000000 expected_value
00003edc l       .text.rvtest	00000000 failedtest_report_expval_done
00004c04 l       .text.rvtest	00000000 failedtest_report_end
0001005e l       .data	00000000 trap_diag_header_str
0001008a l       .data	00000000 trap_diag_origstr_label
00003fe0 l       .text.rvtest	00000000 trap_report_offset_mismatch
00004a90 l       .text.rvtest	00000000 trap_report_generic
00004354 l       .text.rvtest	00000000 trap_report_field_mismatch
0001009a l       .data	00000000 trap_diag_count_mismatch_str
000100fb l       .data	00000000 trap_diag_expected_offset_str
00010122 l       .data	00000000 trap_diag_actual_offset_str
00004234 l       .text.rvtest	00000000 trap_report_missing_traps
0000411c l       .text.rvtest	00000000 trap_report_extra_traps
00010149 l       .data	00000000 trap_diag_extra_traps_str
000101ce l       .data	00000000 trap_diag_extra_bytes_str
000101f9 l       .data	00000000 trap_diag_extra_hint_str
00004c50 l       .text.rvtest	00000000 failedtest_print_csr_context
00010183 l       .data	00000000 trap_diag_missing_traps_str
000102e1 l       .data	00000000 trap_diag_missing_hint_str
000103c8 l       .data	00000000 trap_diag_handler_mode_str
000043e4 l       .text.rvtest	00000000 trap_mode_m
00004424 l       .text.rvtest	00000000 trap_mode_s
00004464 l       .text.rvtest	00000000 trap_mode_h
000044a4 l       .text.rvtest	00000000 trap_mode_v
00010404 l       .data	00000000 trap_diag_mode_unknown_str
000044e0 l       .text.rvtest	00000000 trap_mode_print
000103e2 l       .data	00000000 trap_diag_mode_m_str
000103ea l       .data	00000000 trap_diag_mode_s_str
000103f2 l       .data	00000000 trap_diag_mode_hs_str
000103fb l       .data	00000000 trap_diag_mode_vs_str
0001040d l       .data	00000000 trap_diag_field_str
000045a4 l       .text.rvtest	00000000 trap_field_vect
000045e4 l       .text.rvtest	00000000 trap_field_cause
00004624 l       .text.rvtest	00000000 trap_field_epc
00004664 l       .text.rvtest	00000000 trap_field_tval
000046a4 l       .text.rvtest	00000000 trap_field_ip
000046e4 l       .text.rvtest	00000000 trap_field_tval2
00004724 l       .text.rvtest	00000000 trap_field_tinst
00004764 l       .text.rvtest	00000000 trap_field_intid
00010564 l       .data	00000000 trap_diag_field_unknown_str
000047a0 l       .text.rvtest	00000000 trap_field_print
00010427 l       .data	00000000 trap_diag_field_vect_str
00010458 l       .data	00000000 trap_diag_field_cause_str
00010478 l       .data	00000000 trap_diag_field_epc_str
00010496 l       .data	00000000 trap_diag_field_tval_str
000104b5 l       .data	00000000 trap_diag_field_ip_str
000104dd l       .data	00000000 trap_diag_field_tval2_str
00010509 l       .data	00000000 trap_diag_field_tinst_str
00010535 l       .data	00000000 trap_diag_field_intid_str
00010573 l       .data	00000000 trap_diag_expected_str
0001058a l       .data	00000000 trap_diag_actual_str
0000493c l       .text.rvtest	00000000 trap_field_not_cause
000105a1 l       .data	00000000 trap_diag_expected_cause_name_str
00004b74 l       .text.rvtest	00000000 trap_cause_to_str
000105b8 l       .data	00000000 trap_diag_actual_cause_name_str
0000493c l       .text.rvtest	00000000 trap_field_not_epc
0001062e l       .data	00000000 trap_diag_hint_vect_str
00010704 l       .data	00000000 trap_diag_hint_cause_str
000107f7 l       .data	00000000 trap_diag_hint_epc_str
000108f2 l       .data	00000000 trap_diag_hint_tval_str
000109d9 l       .data	00000000 trap_diag_hint_ip_str
000105e6 l       .data	00000000 trap_diag_generic_str
0000ef68 l       .data	00000000 saved_mepc
0000f5c9 l       .data	00000000 xepcinstrstr
00004b98 l       .text.rvtest	00000000 trap_cause_interrupt
00004b78 l       .text.rvtest	00000000 trap_cause_exception
00004bc4 l       .text.rvtest	00000000 trap_cause_unknown
0000efb0 l       .data	00000000 trap_excpt_name_tbl
0000f010 l       .data	00000000 trap_int_name_tbl
0000f44e l       .data	00000000 trap_cause_unknown_str
00010011 l       .data	00000000 endstr
00004c48 l       .text.rvtest	00000000 failedtest_terminate
00020214 l       .text.rvmodel	00000000 rvmodel_halt_fail
0000ef60 l       .data	00000000 csr_context_ret_addr
0000f5ea l       .data	00000000 mepcstr
0000f5fa l       .data	00000000 mcausestr
0000f60a l       .data	00000000 mtvalstr
0000f61a l       .data	00000000 mstatusstr
00004e98 l       .text.rvtest	00000000 failedtest_hex_to_str_loop
00004eb4 l       .text.rvtest	00000000 failedtest_hex_to_str_digit
00004eb8 l       .text.rvtest	00000000 failedtest_hex_to_str_write
00020000 l       .text.rvmodel	00000000 rvtest_boot_to_mmode
00020000 l       .text.rvmodel	00000000 rvtest_init_regs
00010ac0 l       .data	00000000 signature_base
000201a0 l       .text.rvmodel	00000000 canary_check
0001003a l       .data	00000000 canary_mismatch
00008000 l       .data	00000000 scratch
0000efb0 l       .data	00000000 end_failure_scratch
0000f050 l       .data	00000000 trap_excpt_name_0
0000f070 l       .data	00000000 trap_excpt_name_1
0000f08a l       .data	00000000 trap_excpt_name_2
0000f09f l       .data	00000000 trap_excpt_name_3
0000f0ab l       .data	00000000 trap_excpt_name_4
0000f0c4 l       .data	00000000 trap_excpt_name_5
0000f0d7 l       .data	00000000 trap_excpt_name_6
0000f0f5 l       .data	00000000 trap_excpt_name_7
0000f10d l       .data	00000000 trap_excpt_name_8
0000f12b l       .data	00000000 trap_excpt_name_9
0000f149 l       .data	00000000 trap_excpt_name_10
0000f168 l       .data	00000000 trap_excpt_name_11
0000f186 l       .data	00000000 trap_excpt_name_12
0000f19e l       .data	00000000 trap_excpt_name_13
0000f1af l       .data	00000000 trap_excpt_name_14
0000f1be l       .data	00000000 trap_excpt_name_15
0000f1d4 l       .data	00000000 trap_excpt_name_16
0000f1e1 l       .data	00000000 trap_excpt_name_17
0000f1f0 l       .data	00000000 trap_excpt_name_18
0000f200 l       .data	00000000 trap_excpt_name_19
0000f210 l       .data	00000000 trap_excpt_name_20
0000f22e l       .data	00000000 trap_excpt_name_21
0000f245 l       .data	00000000 trap_excpt_name_22
0000f25a l       .data	00000000 trap_excpt_name_23
0000f276 l       .data	00000000 trap_int_name_0
0000f28e l       .data	00000000 trap_int_name_1
0000f2ad l       .data	00000000 trap_int_name_2
0000f2d4 l       .data	00000000 trap_int_name_3
0000f2f0 l       .data	00000000 trap_int_name_4
0000f308 l       .data	00000000 trap_int_name_5
0000f324 l       .data	00000000 trap_int_name_6
0000f348 l       .data	00000000 trap_int_name_7
0000f361 l       .data	00000000 trap_int_name_8
0000f379 l       .data	00000000 trap_int_name_9
0000f398 l       .data	00000000 trap_int_name_10
0000f3bf l       .data	00000000 trap_int_name_11
0000f3db l       .data	00000000 trap_int_name_12
0000f400 l       .data	00000000 trap_int_name_13
0000f41c l       .data	00000000 trap_int_name_14
0000f435 l       .data	00000000 trap_int_name_15
0000f4ef l       .data	00000000 abortstr
0000f596 l       .data	00000000 xepcstr
0000fc81 l       .data	00000000 Mclr_Vext_int_str
0000fcdb l       .data	00000000 Sclr_Mext_int_str
0000fd7c l       .data	00000000 Sclr_Vext_int_str
0000fdd6 l       .data	00000000 Hclr_Mext_int_str
0000fe79 l       .data	00000000 Hclr_Vext_int_str
0000fed4 l       .data	00000000 Vclr_Mext_int_str
0000ff24 l       .data	00000000 Vclr_Sext_int_str
0000ff77 l       .data	00000000 Vclr_Vext_int_str
000105cf l       .data	00000000 trap_diag_curr_xepc_str
000110b0 l       .data	00000000 trap_sigptr
0001fb20 g       .data	00000000 end_signature
0001fb20 g       .data	00000000 rvtest_sig_end
00000000 g       .text.init	00000000 rvtest_entry_point
00010ac0 g       .data	00000000 begin_signature
0000345c g       .text.rvtest	00000000 rvtest_code_end
00000040 g       .text.rvtest	00000000 rvtest_code_begin
00010ac0 g       .data	00000000 rvtest_sig_begin
00008110 g       .data	00000000 rvtest_data_begin
00010abe g       .data	00000000 rvtest_data_end
0000345c g       .text.rvtest	00000000 cleanup_epilogs
00021000 g       .text.rvmodel	00000000 _end



Disassembly of section .text.init:

00000000 <rvtest_entry_point>:

// Include framework macros
#include "riscv_arch_test.h"

// Set up test environment and declare main entry point
RVTEST_BEGIN
   0:	00020097          	auipc	x1,0x20
   4:	00008093          	addi	x1,x1,0 # 20000 <rvmodel_boot>
   8:	00000013          	addi	x0,x0,0
   c:	00000013          	addi	x0,x0,0
  10:	00000013          	addi	x0,x0,0
  14:	00000013          	addi	x0,x0,0
  18:	00000013          	addi	x0,x0,0
  1c:	00000013          	addi	x0,x0,0
  20:	000080e7          	jalr	x1,0(x1)
  24:	00000013          	addi	x0,x0,0
  28:	00000013          	addi	x0,x0,0
  2c:	00000013          	addi	x0,x0,0
  30:	00000013          	addi	x0,x0,0
  34:	00000013          	addi	x0,x0,0
  38:	00000013          	addi	x0,x0,0
  3c:	00000013          	addi	x0,x0,0

Disassembly of section .text.rvtest:

00000040 <rvtest_code_begin>:
/////////////////////////////////
// cp_rs1
/////////////////////////////////

# Testcase cp_rs1 (Test source rs1 = x0)
  RVTEST_TESTDATA_LOAD_INT(x3, x0) # load rs1: x0 = 0xdff53bba
      40:	0001a003          	lw	x0,0(x3)
      44:	00418193          	addi	x3,x3,4

00000048 <I_ori_cg_cp_rs1_b0>:
I_ori_cg_cp_rs1_b0:
  ori x16, x0, 1717 # perform operation
      48:	6b506813          	ori	x16,x0,1717
  # Check if x16 contains the expected result. x2 is the signature ptr, x5 is the link ptr, x4 is a temp reg.
  RVTEST_SIGUPD(x2, x5, x4, x16, I_ori_cg_cp_rs1_b0, I_ori_cg_cp_rs1_b0_str)
      4c:	00012203          	lw	x4,0(x2)
      50:	01020863          	beq	x4,x16,60 <I_ori_cg_cp_rs1_b0+0x18>
      54:	448032ef          	jal	x5,349c <failedtest_x5_x4>
      58:	00000048          	.word	0x00000048
      5c:	000086d0          	.word	0x000086d0
      60:	00410113          	addi	x2,x2,4

# Testcase cp_rs1 (Test source rs1 = x1)
  RVTEST_TESTDATA_LOAD_INT(x3, x1) # load rs1: x1 = 0x59335e52
      64:	0001a083          	lw	x1,0(x3)
      68:	00418193          	addi	x3,x3,4

0000006c <I_ori_cg_cp_rs1_b1>:
I_ori_cg_cp_rs1_b1:
  ori x31, x1, 801 # perform operation
      6c:	3210ef93          	ori	x31,x1,801
  # Check if x31 contains the expected result. x2 is the signature ptr, x5 is the link ptr, x4 is a temp reg.
  RVTEST_SIGUPD(x2, x5, x4, x31, I_ori_cg_cp_rs1_b1, I_ori_cg_cp_rs1_b1_str)
      70:	00012203          	lw	x4,0(x2)
      74:	01f20863          	beq	x4,x31,84 <I_ori_cg_cp_rs1_b1+0x18>
      78:	424032ef          	jal	x5,349c <failedtest_x5_x4>
      7c:	0000006c          	.word	0x0000006c
      80:	000086fd          	.word	0x000086fd
      84:	00410113          	addi	x2,x2,4

  mv x24, x2 # switch signature pointer register to avoid conflict with test
      88:	00010c13          	addi	x24,x2,0
# Testcase cp_rs1 (Test source rs1 = x2)
  RVTEST_TESTDATA_LOAD_INT(x3, x2) # load rs1: x2 = 0x02b1c130
      8c:	0001a103          	lw	x2,0(x3)
      90:	00418193          	addi	x3,x3,4

00000094 <I_ori_cg_cp_rs1_b2>:
I_ori_cg_cp_rs1_b2:
  ori x17, x2, -67 # perform operation
      94:	fbd16893          	ori	x17,x2,-67
  # Check if x17 contains the expected result. x24 is the signature ptr, x5 is the link ptr, x4 is a temp reg.
  RVTEST_SIGUPD(x24, x5, x4, x17, I_ori_cg_cp_rs1_b2, I_ori_cg_cp_rs1_b2_str)
      98:	000c2203          	lw	x4,0(x24)
      9c:	01120863          	beq	x4,x17,ac <I_ori_cg_cp_rs1_b2+0x18>
      a0:	3fc032ef          	jal	x5,349c <failedtest_x5_x4>
      a4:	00000094          	.word	0x00000094
      a8:	0000872a          	.word	0x0000872a
      ac:	004c0c13          	addi	x24,x24,4

  mv x9, x3 # switch data pointer register to avoid conflict with test
      b0:	00018493          	addi	x9,x3,0
# Testcase cp_rs1 (Test source rs1 = x3)
  RVTEST_TESTDATA_LOAD_INT(x9, x3) # load rs1: x3 = 0x630f64c9
      b4:	0004a183          	lw	x3,0(x9)
      b8:	00448493          	addi	x9,x9,4

000000bc <I_ori_cg_cp_rs1_b3>:
I_ori_cg_cp_rs1_b3:
  ori x17, x3, 1052 # perform operation
      bc:	41c1e893          	ori	x17,x3,1052
  # Check if x17 contains the expected result. x24 is the signature ptr, x5 is the link ptr, x4 is a temp reg.
  RVTEST_SIGUPD(x24, x5, x4, x17, I_ori_cg_cp_rs1_b3, I_ori_cg_cp_rs1_b3_str)
      c0:	000c2203          	lw	x4,0(x24)
      c4:	01120863          	beq	x4,x17,d4 <I_ori_cg_cp_rs1_b3+0x18>
      c8:	3d4032ef          	jal	x5,349c <failedtest_x5_x4>
      cc:	000000bc          	.word	0x000000bc
      d0:	00008757          	.word	0x00008757
      d4:	004c0c13          	addi	x24,x24,4

  mv x7, x4 # switch temp register to avoid conflict with test
      d8:	00020393          	addi	x7,x4,0 # 0 <rvtest_entry_point>
  mv x8, x5 # switch link pointer register to avoid conflict with test
      dc:	00028413          	addi	x8,x5,0
# Testcase cp_rs1 (Test source rs1 = x4)
  RVTEST_TESTDATA_LOAD_INT(x9, x4) # load rs1: x4 = 0x359ae52c
      e0:	0004a203          	lw	x4,0(x9)
      e4:	00448493          	addi	x9,x9,4

000000e8 <I_ori_cg_cp_rs1_b4>:
I_ori_cg_cp_rs1_b4:
  ori x27, x4, -462 # perform operation
      e8:	e3226d93          	ori	x27,x4,-462
  # Check if x27 contains the expected result. x24 is the signature ptr, x8 is the link ptr, x7 is a temp reg.
  RVTEST_SIGUPD(x24, x8, x7, x27, I_ori_cg_cp_rs1_b4, I_ori_cg_cp_rs1_b4_str)
      ec:	000c2383          	lw	x7,0(x24)
      f0:	01b38863          	beq	x7,x27,100 <I_ori_cg_cp_rs1_b4+0x18>
      f4:	3c00346f          	jal	x8,34b4 <failedtest_x8_x7>
      f8:	000000e8          	.word	0x000000e8
      fc:	00008784          	.word	0x00008784
     100:	004c0c13          	addi	x24,x24,4

# Testcase cp_rs1 (Test source rs1 = x5)
  RVTEST_TESTDATA_LOAD_INT(x9, x5) # load rs1: x5 = 0x7aa4e59d
     104:	0004a283          	lw	x5,0(x9)
     108:	00448493          	addi	x9,x9,4

0000010c <I_ori_cg_cp_rs1_b5>:
I_ori_cg_cp_rs1_b5:
  ori x26, x5, 735 # perform operation
     10c:	2df2ed13          	ori	x26,x5,735
  # Check if x26 contains the expected result. x24 is the signature ptr, x8 is the link ptr, x7 is a temp reg.
  RVTEST_SIGUPD(x24, x8, x7, x26, I_ori_cg_cp_rs1_b5, I_ori_cg_cp_rs1_b5_str)
     110:	000c2383          	lw	x7,0(x24)
     114:	01a38863          	beq	x7,x26,124 <I_ori_cg_cp_rs1_b5+0x18>
     118:	39c0346f          	jal	x8,34b4 <failedtest_x8_x7>
     11c:	0000010c          	.word	0x0000010c
     120:	000087b1          	.word	0x000087b1
     124:	004c0c13          	addi	x24,x24,4

# Testcase cp_rs1 (Test source rs1 = x6)
  RVTEST_TESTDATA_LOAD_INT(x9, x6) # load rs1: x6 = 0x68041444
     128:	0004a303          	lw	x6,0(x9)
     12c:	00448493          	addi	x9,x9,4

00000130 <I_ori_cg_cp_rs1_b6>:
I_ori_cg_cp_rs1_b6:
  ori x16, x6, 284 # perform operation
     130:	11c36813          	ori	x16,x6,284
  # Check if x16 contains the expected result. x24 is the signature ptr, x8 is the link ptr, x7 is a temp reg.
  RVTEST_SIGUPD(x24, x8, x7, x16, I_ori_cg_cp_rs1_b6, I_ori_cg_cp_rs1_b6_str)
     134:	000c2383          	lw	x7,0(x24)
     138:	01038863          	beq	x7,x16,148 <I_ori_cg_cp_rs1_b6+0x18>
     13c:	3780346f          	jal	x8,34b4 <failedtest_x8_x7>
     140:	00000130          	.word	0x00000130
     144:	000087de          	.word	0x000087de
     148:	004c0c13          	addi	x24,x24,4

  mv x4, x7 # switch temp register to avoid conflict with test
     14c:	00038213          	addi	x4,x7,0
  mv x5, x8 # switch link pointer register to avoid conflict with test
     150:	00040293          	addi	x5,x8,0
# Testcase cp_rs1 (Test source rs1 = x7)
  RVTEST_TESTDATA_LOAD_INT(x9, x7) # load rs1: x7 = 0xe2e3b27a
     154:	0004a383          	lw	x7,0(x9)
     158:	00448493          	addi	x9,x9,4

0000015c <I_ori_cg_cp_rs1_b7>:
I_ori_cg_cp_rs1_b7:
  ori x12, x7, -326 # perform operation
     15c:	eba3e613          	ori	x12,x7,-326
  # Check if x12 contains the expected result. x24 is the signature ptr, x5 is the link ptr, x4 is a temp reg.
  RVTEST_SIGUPD(x24, x5, x4, x12, I_ori_cg_cp_rs1_b7, I_ori_cg_cp_rs1_b7_str)
     160:	000c2203          	lw	x4,0(x24)
     164:	00c20863          	beq	x4,x12,174 <I_ori_cg_cp_rs1_b7+0x18>
     168:	334032ef          	jal	x5,349c <failedtest_x5_x4>
     16c:	0000015c          	.word	0x0000015c
     170:	0000880b          	.word	0x0000880b
     174:	004c0c13          	addi	x24,x24,4

# Testcase cp_rs1 (Test source rs1 = x8)
  RVTEST_TESTDATA_LOAD_INT(x9, x8) # load rs1: x8 = 0x80c7a226
     178:	0004a403          	lw	x8,0(x9)
     17c:	00448493          	addi	x9,x9,4

00000180 <I_ori_cg_cp_rs1_b8>:
I_ori_cg_cp_rs1_b8:
  ori x14, x8, -379 # perform operation
     180:	e8546713          	ori	x14,x8,-379
  # Check if x14 contains the expected result. x24 is the signature ptr, x5 is the link ptr, x4 is a temp reg.
  RVTEST_SIGUPD(x24, x5, x4, x14, I_ori_cg_cp_rs1_b8, I_ori_cg_cp_rs1_b8_str)
     184:	000c2203          	lw	x4,0(x24)
     188:	00e20863          	beq	x4,x14,198 <I_ori_cg_cp_rs1_b8+0x18>
     18c:	310032ef          	jal	x5,349c <failedtest_x5_x4>
     190:	00000180          	.word	0x00000180
     194:	00008838          	.word	0x00008838
     198:	004c0c13          	addi	x24,x24,4

  mv x19, x9 # switch data pointer register to avoid conflict with test
     19c:	00048993          	addi	x19,x9,0
# Testcase cp_rs1 (Test source rs1 = x9)
  RVTEST_TESTDATA_LOAD_INT(x19, x9) # load rs1: x9 = 0xa9098f57
     1a0:	0009a483          	lw	x9,0(x19)
     1a4:	00498993          	addi	x19,x19,4

000001a8 <I_ori_cg_cp_rs1_b9>:
I_ori_cg_cp_rs1_b9:
  ori x14, x9, 1960 # perform operation
     1a8:	7a84e713          	ori	x14,x9,1960
  # Check if x14 contains the expected result. x24 is the signature ptr, x5 is the link ptr, x4 is a temp reg.
  RVTEST_SIGUPD(x24, x5, x4, x14, I_ori_cg_cp_rs1_b9, I_ori_cg_cp_rs1_b9_str)
     1ac:	000c2203          	lw	x4,0(x24)
     1b0:	00e20863          	beq	x4,x14,1c0 <I_ori_cg_cp_rs1_b9+0x18>
     1b4:	2e8032ef          	jal	x5,349c <failedtest_x5_x4>
     1b8:	000001a8          	.word	0x000001a8
     1bc:	00008865          	.word	0x00008865
     1c0:	004c0c13          	addi	x24,x24,4

# Testcase cp_rs1 (Test source rs1 = x10)
  RVTEST_TESTDATA_LOAD_INT(x19, x10) # load rs1: x10 = 0x9c527747
     1c4:	0009a503          	lw	x10,0(x19)
     1c8:	00498993          	addi	x19,x19,4

000001cc <I_ori_cg_cp_rs1_b10>:
I_ori_cg_cp_rs1_b10:
  ori x12, x10, -718 # perform operation
     1cc:	d3256613          	ori	x12,x10,-718
  # Check if x12 contains the expected result. x24 is the signature ptr, x5 is the link ptr, x4 is a temp reg.
  RVTEST_SIGUPD(x24, x5, x4, x12, I_ori_cg_cp_rs1_b10, I_ori_cg_cp_rs1_b10_str)
     1d0:	000c2203          	lw	x4,0(x24)
     1d4:	00c20863          	beq	x4,x12,1e4 <I_ori_cg_cp_rs1_b10+0x18>
     1d8:	2c4032ef          	jal	x5,349c <failedtest_x5_x4>
     1dc:	000001cc          	.word	0x000001cc
     1e0:	00008893          	.word	0x00008893
     1e4:	004c0c13          	addi	x24,x24,4

# Testcase cp_rs1 (Test source rs1 = x11)
  RVTEST_TESTDATA_LOAD_INT(x19, x11) # load rs1: x11 = 0x7a1e7cd7
     1e8:	0009a583          	lw	x11,0(x19)
     1ec:	00498993          	addi	x19,x19,4

000001f0 <I_ori_cg_cp_rs1_b11>:
I_ori_cg_cp_rs1_b11:
  ori x17, x11, 714 # perform operation
     1f0:	2ca5e893          	ori	x17,x11,714
  # Check if x17 contains the expected result. x24 is the signature ptr, x5 is the link ptr, x4 is a temp reg.
  RVTEST_SIGUPD(x24, x5, x4, x17, I_ori_cg_cp_rs1_b11, I_ori_cg_cp_rs1_b11_str)
     1f4:	000c2203          	lw	x4,0(x24)
     1f8:	01120863          	beq	x4,x17,208 <I_ori_cg_cp_rs1_b11+0x18>
     1fc:	2a0032ef          	jal	x5,349c <failedtest_x5_x4>
     200:	000001f0          	.word	0x000001f0
     204:	000088c2          	.word	0x000088c2
     208:	004c0c13          	addi	x24,x24,4

# Testcase cp_rs1 (Test source rs1 = x12)
  RVTEST_TESTDATA_LOAD_INT(x19, x12) # load rs1: x12 = 0x1f804787
     20c:	0009a603          	lw	x12,0(x19)
     210:	00498993          	addi	x19,x19,4

00000214 <I_ori_cg_cp_rs1_b12>:
I_ori_cg_cp_rs1_b12:
  ori x0, x12, 665 # perform operation
     214:	29966013          	ori	x0,x12,665
  # Check if x0 contains the expected result. x24 is the signature ptr, x5 is the link ptr, x4 is a temp reg.
  RVTEST_SIGUPD(x24, x5, x4, x0, I_ori_cg_cp_rs1_b12, I_ori_cg_cp_rs1_b12_str)
     218:	000c2203          	lw	x4,0(x24)
     21c:	00020863          	beq	x4,x0,22c <I_ori_cg_cp_rs1_b12+0x18>
     220:	27c032ef          	jal	x5,349c <failedtest_x5_x4>
     224:	00000214          	.word	0x00000214
     228:	000088f1          	.word	0x000088f1
     22c:	004c0c13          	addi	x24,x24,4

# Testcase cp_rs1 (Test source rs1 = x13)
  RVTEST_TESTDATA_LOAD_INT(x19, x13) # load rs1: x13 = 0x348ca637
     230:	0009a683          	lw	x13,0(x19)
     234:	00498993          	addi	x19,x19,4

00000238 <I_ori_cg_cp_rs1_b13>:
I_ori_cg_cp_rs1_b13:
  ori x2, x13, -614 # perform operation
     238:	d9a6e113          	ori	x2,x13,-614
  # Check if x2 contains the expected result. x24 is the signature ptr, x5 is the link ptr, x4 is a temp reg.
  RVTEST_SIGUPD(x24, x5, x4, x2, I_ori_cg_cp_rs1_b13, I_ori_cg_cp_rs1_b13_str)
     23c:	000c2203          	lw	x4,0(x24)
     240:	00220863          	beq	x4,x2,250 <I_ori_cg_cp_rs1_b13+0x18>
     244:	258032ef          	jal	x5,349c <failedtest_x5_x4>
     248:	00000238          	.word	0x00000238
     24c:	00008920          	.word	0x00008920
     250:	004c0c13          	addi	x24,x24,4

# Testcase cp_rs1 (Test source rs1 = x14)
  RVTEST_TESTDATA_LOAD_INT(x19, x14) # load rs1: x14 = 0x7e4031ce
     254:	0009a703          	lw	x14,0(x19)
     258:	00498993          	addi	x19,x19,4

0000025c <I_ori_cg_cp_rs1_b14>:
I_ori_cg_cp_rs1_b14:
  ori x6, x14, 1573 # perform operation
     25c:	62576313          	ori	x6,x14,1573
  # Check if x6 contains the expected result. x24 is the signature ptr, x5 is the link ptr, x4 is a temp reg.
  RVTEST_SIGUPD(x24, x5, x4, x6, I_ori_cg_cp_rs1_b14, I_ori_cg_cp_rs1_b14_str)
     260:	000c2203          	lw	x4,0(x24)
     264:	00620863          	beq	x4,x6,274 <I_ori_cg_cp_rs1_b14+0x18>
     268:	234032ef          	jal	x5,349c <failedtest_x5_x4>
     26c:	0000025c          	.word	0x0000025c
     270:	0000894f          	.word	0x0000894f
     274:	004c0c13          	addi	x24,x24,4

# Testcase cp_rs1 (Test source rs1 = x15)
  RVTEST_TESTDATA_LOAD_INT(x19, x15) # load rs1: x15 = 0x1cb8256d
     278:	0009a783          	lw	x15,0(x19)
     27c:	00498993          	addi	x19,x19,4

00000280 <I_ori_cg_cp_rs1_b15>:
I_ori_cg_cp_rs1_b15:
  ori x23, x15, -431 # perform operation
     280:	e517eb93          	ori	x23,x15,-431
  # Check if x23 contains the expected result. x24 is the signature ptr, x5 is the link ptr, x4 is a temp reg.
  RVTEST_SIGUPD(x24, x5, x4, x23, I_ori_cg_cp_rs1_b15, I_ori_cg_cp_rs1_b15_str)
     284:	000c2203          	lw	x4,0(x24)
     288:	01720863          	beq	x4,x23,298 <I_ori_cg_cp_rs1_b15+0x18>
     28c:	210032ef          	jal	x5,349c <failedtest_x5_x4>
     290:	00000280          	.word	0x00000280
     294:	0000897e          	.word	0x0000897e
     298:	004c0c13          	addi	x24,x24,4

# Testcase cp_rs1 (Test source rs1 = x16)
  RVTEST_TESTDATA_LOAD_INT(x19, x16) # load rs1: x16 = 0xa7b6cfe5
     29c:	0009a803          	lw	x16,0(x19)
     2a0:	00498993          	addi	x19,x19,4

000002a4 <I_ori_cg_cp_rs1_b16>:
I_ori_cg_cp_rs1_b16:
  ori x13, x16, 1976 # perform operation
     2a4:	7b886693          	ori	x13,x16,1976
  # Check if x13 contains the expected result. x24 is the signature ptr, x5 is the link ptr, x4 is a temp reg.
  RVTEST_SIGUPD(x24, x5, x4, x13, I_ori_cg_cp_rs1_b16, I_ori_cg_cp_rs1_b16_str)
     2a8:	000c2203          	lw	x4,0(x24)
     2ac:	00d20863          	beq	x4,x13,2bc <I_ori_cg_cp_rs1_b16+0x18>
     2b0:	1ec032ef          	jal	x5,349c <failedtest_x5_x4>
     2b4:	000002a4          	.word	0x000002a4
     2b8:	000089ad          	.word	0x000089ad
     2bc:	004c0c13          	addi	x24,x24,4

# Testcase cp_rs1 (Test source rs1 = x17)
  RVTEST_TESTDATA_LOAD_INT(x19, x17) # load rs1: x17 = 0x158bfb5b
     2c0:	0009a883          	lw	x17,0(x19)
     2c4:	00498993          	addi	x19,x19,4

000002c8 <I_ori_cg_cp_rs1_b17>:
I_ori_cg_cp_rs1_b17:
  ori x27, x17, 336 # perform operation
     2c8:	1508ed93          	ori	x27,x17,336
  # Check if x27 contains the expected result. x24 is the signature ptr, x5 is the link ptr, x4 is a temp reg.
  RVTEST_SIGUPD(x24, x5, x4, x27, I_ori_cg_cp_rs1_b17, I_ori_cg_cp_rs1_b17_str)
     2cc:	000c2203          	lw	x4,0(x24)
     2d0:	01b20863          	beq	x4,x27,2e0 <I_ori_cg_cp_rs1_b17+0x18>
     2d4:	1c8032ef          	jal	x5,349c <failedtest_x5_x4>
     2d8:	000002c8          	.word	0x000002c8
     2dc:	000089dc          	.word	0x000089dc
     2e0:	004c0c13          	addi	x24,x24,4

# Testcase cp_rs1 (Test source rs1 = x18)
  RVTEST_TESTDATA_LOAD_INT(x19, x18) # load rs1: x18 = 0xe99a0f19
     2e4:	0009a903          	lw	x18,0(x19)
     2e8:	00498993          	addi	x19,x19,4

000002ec <I_ori_cg_cp_rs1_b18>:
I_ori_cg_cp_rs1_b18:
  ori x31, x18, 1846 # perform operation
     2ec:	73696f93          	ori	x31,x18,1846
  # Check if x31 contains the expected result. x24 is the signature ptr, x5 is the link ptr, x4 is a temp reg.
  RVTEST_SIGUPD(x24, x5, x4, x31, I_ori_cg_cp_rs1_b18, I_ori_cg_cp_rs1_b18_str)
     2f0:	000c2203          	lw	x4,0(x24)
     2f4:	01f20863          	beq	x4,x31,304 <I_ori_cg_cp_rs1_b18+0x18>
     2f8:	1a4032ef          	jal	x5,349c <failedtest_x5_x4>
     2fc:	000002ec          	.word	0x000002ec
     300:	00008a0b          	.word	0x00008a0b
     304:	004c0c13          	addi	x24,x24,4

  mv x30, x19 # switch data pointer register to avoid conflict with test
     308:	00098f13          	addi	x30,x19,0
# Testcase cp_rs1 (Test source rs1 = x19)
  RVTEST_TESTDATA_LOAD_INT(x30, x19) # load rs1: x19 = 0x0656b4e4
     30c:	000f2983          	lw	x19,0(x30)
     310:	004f0f13          	addi	x30,x30,4

00000314 <I_ori_cg_cp_rs1_b19>:
I_ori_cg_cp_rs1_b19:
  ori x6, x19, -839 # perform operation
     314:	cb99e313          	ori	x6,x19,-839
  # Check if x6 contains the expected result. x24 is the signature ptr, x5 is the link ptr, x4 is a temp reg.
  RVTEST_SIGUPD(x24, x5, x4, x6, I_ori_cg_cp_rs1_b19, I_ori_cg_cp_rs1_b19_str)
     318:	000c2203          	lw	x4,0(x24)
     31c:	00620863          	beq	x4,x6,32c <I_ori_cg_cp_rs1_b19+0x18>
     320:	17c032ef          	jal	x5,349c <failedtest_x5_x4>
     324:	00000314          	.word	0x00000314
     328:	00008a3a          	.word	0x00008a3a
     32c:	004c0c13          	addi	x24,x24,4

# Testcase cp_rs1 (Test source rs1 = x20)
  RVTEST_TESTDATA_LOAD_INT(x30, x20) # load rs1: x20 = 0xfee101b1
     330:	000f2a03          	lw	x20,0(x30)
     334:	004f0f13          	addi	x30,x30,4

00000338 <I_ori_cg_cp_rs1_b20>:
I_ori_cg_cp_rs1_b20:
  ori x15, x20, 1252 # perform operation
     338:	4e4a6793          	ori	x15,x20,1252
  # Check if x15 contains the expected result. x24 is the signature ptr, x5 is the link ptr, x4 is a temp reg.
  RVTEST_SIGUPD(x24, x5, x4, x15, I_ori_cg_cp_rs1_b20, I_ori_cg_cp_rs1_b20_str)
     33c:	000c2203          	lw	x4,0(x24)
     340:	00f20863          	beq	x4,x15,350 <I_ori_cg_cp_rs1_b20+0x18>
     344:	158032ef          	jal	x5,349c <failedtest_x5_x4>
     348:	00000338          	.word	0x00000338
     34c:	00008a69          	.word	0x00008a69
     350:	004c0c13          	addi	x24,x24,4

# Testcase cp_rs1 (Test source rs1 = x21)
  RVTEST_TESTDATA_LOAD_INT(x30, x21) # load rs1: x21 = 0x2fcaf10a
     354:	000f2a83          	lw	x21,0(x30)
     358:	004f0f13          	addi	x30,x30,4

0000035c <I_ori_cg_cp_rs1_b21>:
I_ori_cg_cp_rs1_b21:
  ori x13, x21, -2016 # perform operation
     35c:	820ae693          	ori	x13,x21,-2016
  # Check if x13 contains the expected result. x24 is the signature ptr, x5 is the link ptr, x4 is a temp reg.
  RVTEST_SIGUPD(x24, x5, x4, x13, I_ori_cg_cp_rs1_b21, I_ori_cg_cp_rs1_b21_str)
     360:	000c2203          	lw	x4,0(x24)
     364:	00d20863          	beq	x4,x13,374 <I_ori_cg_cp_rs1_b21+0x18>
     368:	134032ef          	jal	x5,349c <failedtest_x5_x4>
     36c:	0000035c          	.word	0x0000035c
     370:	00008a98          	.word	0x00008a98
     374:	004c0c13          	addi	x24,x24,4

# Testcase cp_rs1 (Test source rs1 = x22)
  RVTEST_TESTDATA_LOAD_INT(x30, x22) # load rs1: x22 = 0x876f092c
     378:	000f2b03          	lw	x22,0(x30)
     37c:	004f0f13          	addi	x30,x30,4

00000380 <I_ori_cg_cp_rs1_b22>:
I_ori_cg_cp_rs1_b22:
  ori x8, x22, -1118 # perform operation
     380:	ba2b6413          	ori	x8,x22,-1118
  # Check if x8 contains the expected result. x24 is the signature ptr, x5 is the link ptr, x4 is a temp reg.
  RVTEST_SIGUPD(x24, x5, x4, x8, I_ori_cg_cp_rs1_b22, I_ori_cg_cp_rs1_b22_str)
     384:	000c2203          	lw	x4,0(x24)
     388:	00820863          	beq	x4,x8,398 <I_ori_cg_cp_rs1_b22+0x18>
     38c:	110032ef          	jal	x5,349c <failedtest_x5_x4>
     390:	00000380          	.word	0x00000380
     394:	00008ac7          	.word	0x00008ac7
     398:	004c0c13          	addi	x24,x24,4

# Testcase cp_rs1 (Test source rs1 = x23)
  RVTEST_TESTDATA_LOAD_INT(x30, x23) # load rs1: x23 = 0xeddcbe31
     39c:	000f2b83          	lw	x23,0(x30)
     3a0:	004f0f13          	addi	x30,x30,4

000003a4 <I_ori_cg_cp_rs1_b23>:
I_ori_cg_cp_rs1_b23:
  ori x11, x23, -1722 # perform operation
     3a4:	946be593          	ori	x11,x23,-1722
  # Check if x11 contains the expected result. x24 is the signature ptr, x5 is the link ptr, x4 is a temp reg.
  RVTEST_SIGUPD(x24, x5, x4, x11, I_ori_cg_cp_rs1_b23, I_ori_cg_cp_rs1_b23_str)
     3a8:	000c2203          	lw	x4,0(x24)
     3ac:	00b20863          	beq	x4,x11,3bc <I_ori_cg_cp_rs1_b23+0x18>
     3b0:	0ec032ef          	jal	x5,349c <failedtest_x5_x4>
     3b4:	000003a4          	.word	0x000003a4
     3b8:	00008af6          	.word	0x00008af6
     3bc:	004c0c13          	addi	x24,x24,4

  mv x17, x24 # switch signature pointer register to avoid conflict with test
     3c0:	000c0893          	addi	x17,x24,0
# Testcase cp_rs1 (Test source rs1 = x24)
  RVTEST_TESTDATA_LOAD_INT(x30, x24) # load rs1: x24 = 0x9ff21c8f
     3c4:	000f2c03          	lw	x24,0(x30)
     3c8:	004f0f13          	addi	x30,x30,4

000003cc <I_ori_cg_cp_rs1_b24>:
I_ori_cg_cp_rs1_b24:
  ori x16, x24, -998 # perform operation
     3cc:	c1ac6813          	ori	x16,x24,-998
  # Check if x16 contains the expected result. x17 is the signature ptr, x5 is the link ptr, x4 is a temp reg.
  RVTEST_SIGUPD(x17, x5, x4, x16, I_ori_cg_cp_rs1_b24, I_ori_cg_cp_rs1_b24_str)
     3d0:	0008a203          	lw	x4,0(x17)
     3d4:	01020863          	beq	x4,x16,3e4 <I_ori_cg_cp_rs1_b24+0x18>
     3d8:	0c4032ef          	jal	x5,349c <failedtest_x5_x4>
     3dc:	000003cc          	.word	0x000003cc
     3e0:	00008b25          	.word	0x00008b25
     3e4:	00488893          	addi	x17,x17,4

# Testcase cp_rs1 (Test source rs1 = x25)
  RVTEST_TESTDATA_LOAD_INT(x30, x25) # load rs1: x25 = 0x3109e098
     3e8:	000f2c83          	lw	x25,0(x30)
     3ec:	004f0f13          	addi	x30,x30,4

000003f0 <I_ori_cg_cp_rs1_b25>:
I_ori_cg_cp_rs1_b25:
  ori x24, x25, -2 # perform operation
     3f0:	ffecec13          	ori	x24,x25,-2
  # Check if x24 contains the expected result. x17 is the signature ptr, x5 is the link ptr, x4 is a temp reg.
  RVTEST_SIGUPD(x17, x5, x4, x24, I_ori_cg_cp_rs1_b25, I_ori_cg_cp_rs1_b25_str)
     3f4:	0008a203          	lw	x4,0(x17)
     3f8:	01820863          	beq	x4,x24,408 <I_ori_cg_cp_rs1_b25+0x18>
     3fc:	0a0032ef          	jal	x5,349c <failedtest_x5_x4>
     400:	000003f0          	.word	0x000003f0
     404:	00008b54          	.word	0x00008b54
     408:	00488893          	addi	x17,x17,4

# Testcase cp_rs1 (Test source rs1 = x26)
  RVTEST_TESTDATA_LOAD_INT(x30, x26) # load rs1: x26 = 0x09b8cb13
     40c:	000f2d03          	lw	x26,0(x30)
     410:	004f0f13          	addi	x30,x30,4

00000414 <I_ori_cg_cp_rs1_b26>:
I_ori_cg_cp_rs1_b26:
  ori x29, x26, -201 # perform operation
     414:	f37d6e93          	ori	x29,x26,-201
  # Check if x29 contains the expected result. x17 is the signature ptr, x5 is the link ptr, x4 is a temp reg.
  RVTEST_SIGUPD(x17, x5, x4, x29, I_ori_cg_cp_rs1_b26, I_ori_cg_cp_rs1_b26_str)
     418:	0008a203          	lw	x4,0(x17)
     41c:	01d20863          	beq	x4,x29,42c <I_ori_cg_cp_rs1_b26+0x18>
     420:	07c032ef          	jal	x5,349c <failedtest_x5_x4>
     424:	00000414          	.word	0x00000414
     428:	00008b83          	.word	0x00008b83
     42c:	00488893          	addi	x17,x17,4

# Testcase cp_rs1 (Test source rs1 = x27)
  RVTEST_TESTDATA_LOAD_INT(x30, x27) # load rs1: x27 = 0x2c1a998b
     430:	000f2d83          	lw	x27,0(x30)
     434:	004f0f13          	addi	x30,x30,4

00000438 <I_ori_cg_cp_rs1_b27>:
I_ori_cg_cp_rs1_b27:
  ori x26, x27, -282 # perform operation
     438:	ee6ded13          	ori	x26,x27,-282
  # Check if x26 contains the expected result. x17 is the signature ptr, x5 is the link ptr, x4 is a temp reg.
  RVTEST_SIGUPD(x17, x5, x4, x26, I_ori_cg_cp_rs1_b27, I_ori_cg_cp_rs1_b27_str)
     43c:	0008a203          	lw	x4,0(x17)
     440:	01a20863          	beq	x4,x26,450 <I_ori_cg_cp_rs1_b27+0x18>
     444:	058032ef          	jal	x5,349c <failedtest_x5_x4>
     448:	00000438          	.word	0x00000438
     44c:	00008bb2          	.word	0x00008bb2
     450:	00488893          	addi	x17,x17,4

# Testcase cp_rs1 (Test source rs1 = x28)
  RVTEST_TESTDATA_LOAD_INT(x30, x28) # load rs1: x28 = 0x417ea64e
     454:	000f2e03          	lw	x28,0(x30)
     458:	004f0f13          	addi	x30,x30,4

0000045c <I_ori_cg_cp_rs1_b28>:
I_ori_cg_cp_rs1_b28:
  ori x8, x28, 1287 # perform operation
     45c:	507e6413          	ori	x8,x28,1287
  # Check if x8 contains the expected result. x17 is the signature ptr, x5 is the link ptr, x4 is a temp reg.
  RVTEST_SIGUPD(x17, x5, x4, x8, I_ori_cg_cp_rs1_b28, I_ori_cg_cp_rs1_b28_str)
     460:	0008a203          	lw	x4,0(x17)
     464:	00820863          	beq	x4,x8,474 <I_ori_cg_cp_rs1_b28+0x18>
     468:	034032ef          	jal	x5,349c <failedtest_x5_x4>
     46c:	0000045c          	.word	0x0000045c
     470:	00008be1          	.word	0x00008be1
     474:	00488893          	addi	x17,x17,4

# Testcase cp_rs1 (Test source rs1 = x29)
  RVTEST_TESTDATA_LOAD_INT(x30, x29) # load rs1: x29 = 0x95a8d31d
     478:	000f2e83          	lw	x29,0(x30)
     47c:	004f0f13          	addi	x30,x30,4

00000480 <I_ori_cg_cp_rs1_b29>:
I_ori_cg_cp_rs1_b29:
  ori x1, x29, -896 # perform operation
     480:	c80ee093          	ori	x1,x29,-896
  # Check if x1 contains the expected result. x17 is the signature ptr, x5 is the link ptr, x4 is a temp reg.
  RVTEST_SIGUPD(x17, x5, x4, x1, I_ori_cg_cp_rs1_b29, I_ori_cg_cp_rs1_b29_str)
     484:	0008a203          	lw	x4,0(x17)
     488:	00120863          	beq	x4,x1,498 <I_ori_cg_cp_rs1_b29+0x18>
     48c:	010032ef          	jal	x5,349c <failedtest_x5_x4>
     490:	00000480          	.word	0x00000480
     494:	00008c10          	.word	0x00008c10
     498:	00488893          	addi	x17,x17,4

  mv x12, x30 # switch data pointer register to avoid conflict with test
     49c:	000f0613          	addi	x12,x30,0
# Testcase cp_rs1 (Test source rs1 = x30)
  RVTEST_TESTDATA_LOAD_INT(x12, x30) # load rs1: x30 = 0x4e4430e6
     4a0:	00062f03          	lw	x30,0(x12)
     4a4:	00460613          	addi	x12,x12,4

000004a8 <I_ori_cg_cp_rs1_b30>:
I_ori_cg_cp_rs1_b30:
  ori x10, x30, 1074 # perform operation
     4a8:	432f6513          	ori	x10,x30,1074
  # Check if x10 contains the expected result. x17 is the signature ptr, x5 is the link ptr, x4 is a temp reg.
  RVTEST_SIGUPD(x17, x5, x4, x10, I_ori_cg_cp_rs1_b30, I_ori_cg_cp_rs1_b30_str)
     4ac:	0008a203          	lw	x4,0(x17)
     4b0:	00a20863          	beq	x4,x10,4c0 <I_ori_cg_cp_rs1_b30+0x18>
     4b4:	7e9022ef          	jal	x5,349c <failedtest_x5_x4>
     4b8:	000004a8          	.word	0x000004a8
     4bc:	00008c3f          	.word	0x00008c3f
     4c0:	00488893          	addi	x17,x17,4

# Testcase cp_rs1 (Test source rs1 = x31)
  RVTEST_TESTDATA_LOAD_INT(x12, x31) # load rs1: x31 = 0x7eec99dd
     4c4:	00062f83          	lw	x31,0(x12)
     4c8:	00460613          	addi	x12,x12,4

000004cc <I_ori_cg_cp_rs1_b31>:
I_ori_cg_cp_rs1_b31:
  ori x7, x31, 1239 # perform operation
     4cc:	4d7fe393          	ori	x7,x31,1239
  # Check if x7 contains the expected result. x17 is the signature ptr, x5 is the link ptr, x4 is a temp reg.
  RVTEST_SIGUPD(x17, x5, x4, x7, I_ori_cg_cp_rs1_b31, I_ori_cg_cp_rs1_b31_str)
     4d0:	0008a203          	lw	x4,0(x17)
     4d4:	00720863          	beq	x4,x7,4e4 <I_ori_cg_cp_rs1_b31+0x18>
     4d8:	7c5022ef          	jal	x5,349c <failedtest_x5_x4>
     4dc:	000004cc          	.word	0x000004cc
     4e0:	00008c6e          	.word	0x00008c6e
     4e4:	00488893          	addi	x17,x17,4
/////////////////////////////////
// cp_rd
/////////////////////////////////

# Testcase cp_rd (Test destination rd = x0)
  RVTEST_TESTDATA_LOAD_INT(x12, x9) # load rs1: x9 = 0xae530a10
     4e8:	00062483          	lw	x9,0(x12)
     4ec:	00460613          	addi	x12,x12,4

000004f0 <I_ori_cg_cp_rd_b0>:
I_ori_cg_cp_rd_b0:
  ori x0, x9, 1500 # perform operation
     4f0:	5dc4e013          	ori	x0,x9,1500
  # Check if x0 contains the expected result. x17 is the signature ptr, x5 is the link ptr, x4 is a temp reg.
  RVTEST_SIGUPD(x17, x5, x4, x0, I_ori_cg_cp_rd_b0, I_ori_cg_cp_rd_b0_str)
     4f4:	0008a203          	lw	x4,0(x17)
     4f8:	00020863          	beq	x4,x0,508 <I_ori_cg_cp_rd_b0+0x18>
     4fc:	7a1022ef          	jal	x5,349c <failedtest_x5_x4>
     500:	000004f0          	.word	0x000004f0
     504:	00008c9d          	.word	0x00008c9d
     508:	00488893          	addi	x17,x17,4

# Testcase cp_rd (Test destination rd = x1)
  RVTEST_TESTDATA_LOAD_INT(x12, x20) # load rs1: x20 = 0x44423b75
     50c:	00062a03          	lw	x20,0(x12)
     510:	00460613          	addi	x12,x12,4

00000514 <I_ori_cg_cp_rd_b1>:
I_ori_cg_cp_rd_b1:
  ori x1, x20, 1104 # perform operation
     514:	450a6093          	ori	x1,x20,1104
  # Check if x1 contains the expected result. x17 is the signature ptr, x5 is the link ptr, x4 is a temp reg.
  RVTEST_SIGUPD(x17, x5, x4, x1, I_ori_cg_cp_rd_b1, I_ori_cg_cp_rd_b1_str)
     518:	0008a203          	lw	x4,0(x17)
     51c:	00120863          	beq	x4,x1,52c <I_ori_cg_cp_rd_b1+0x18>
     520:	77d022ef          	jal	x5,349c <failedtest_x5_x4>
     524:	00000514          	.word	0x00000514
     528:	00008cca          	.word	0x00008cca
     52c:	00488893          	addi	x17,x17,4

# Testcase cp_rd (Test destination rd = x2)
  RVTEST_TESTDATA_LOAD_INT(x12, x30) # load rs1: x30 = 0xa9b76327
     530:	00062f03          	lw	x30,0(x12)
     534:	00460613          	addi	x12,x12,4

00000538 <I_ori_cg_cp_rd_b2>:
I_ori_cg_cp_rd_b2:
  ori x2, x30, 1607 # perform operation
     538:	647f6113          	ori	x2,x30,1607
  # Check if x2 contains the expected result. x17 is the signature ptr, x5 is the link ptr, x4 is a temp reg.
  RVTEST_SIGUPD(x17, x5, x4, x2, I_ori_cg_cp_rd_b2, I_ori_cg_cp_rd_b2_str)
     53c:	0008a203          	lw	x4,0(x17)
     540:	00220863          	beq	x4,x2,550 <I_ori_cg_cp_rd_b2+0x18>
     544:	759022ef          	jal	x5,349c <failedtest_x5_x4>
     548:	00000538          	.word	0x00000538
     54c:	00008cf7          	.word	0x00008cf7
     550:	00488893          	addi	x17,x17,4

# Testcase cp_rd (Test destination rd = x3)
  RVTEST_TESTDATA_LOAD_INT(x12, x23) # load rs1: x23 = 0x39cf57a9
     554:	00062b83          	lw	x23,0(x12)
     558:	00460613          	addi	x12,x12,4

0000055c <I_ori_cg_cp_rd_b3>:
I_ori_cg_cp_rd_b3:
  ori x3, x23, 1966 # perform operation
     55c:	7aebe193          	ori	x3,x23,1966
  # Check if x3 contains the expected result. x17 is the signature ptr, x5 is the link ptr, x4 is a temp reg.
  RVTEST_SIGUPD(x17, x5, x4, x3, I_ori_cg_cp_rd_b3, I_ori_cg_cp_rd_b3_str)
     560:	0008a203          	lw	x4,0(x17)
     564:	00320863          	beq	x4,x3,574 <I_ori_cg_cp_rd_b3+0x18>
     568:	735022ef          	jal	x5,349c <failedtest_x5_x4>
     56c:	0000055c          	.word	0x0000055c
     570:	00008d24          	.word	0x00008d24
     574:	00488893          	addi	x17,x17,4

  mv x13, x4 # switch temp register to avoid conflict with test
     578:	00020693          	addi	x13,x4,0 # 0 <rvtest_entry_point>
  mv x14, x5 # switch link pointer register to avoid conflict with test
     57c:	00028713          	addi	x14,x5,0
# Testcase cp_rd (Test destination rd = x4)
  RVTEST_TESTDATA_LOAD_INT(x12, x31) # load rs1: x31 = 0x9e2dce6a
     580:	00062f83          	lw	x31,0(x12)
     584:	00460613          	addi	x12,x12,4

00000588 <I_ori_cg_cp_rd_b4>:
I_ori_cg_cp_rd_b4:
  ori x4, x31, 863 # perform operation
     588:	35ffe213          	ori	x4,x31,863
  # Check if x4 contains the expected result. x17 is the signature ptr, x14 is the link ptr, x13 is a temp reg.
  RVTEST_SIGUPD(x17, x14, x13, x4, I_ori_cg_cp_rd_b4, I_ori_cg_cp_rd_b4_str)
     58c:	0008a683          	lw	x13,0(x17)
     590:	00468863          	beq	x13,x4,5a0 <I_ori_cg_cp_rd_b4+0x18>
     594:	7490276f          	jal	x14,34dc <failedtest_x14_x13>
     598:	00000588          	.word	0x00000588
     59c:	00008d51          	.word	0x00008d51
     5a0:	00488893          	addi	x17,x17,4

# Testcase cp_rd (Test destination rd = x5)
  RVTEST_TESTDATA_LOAD_INT(x12, x16) # load rs1: x16 = 0xc640d057
     5a4:	00062803          	lw	x16,0(x12)
     5a8:	00460613          	addi	x12,x12,4

000005ac <I_ori_cg_cp_rd_b5>:
I_ori_cg_cp_rd_b5:
  ori x5, x16, 412 # perform operation
     5ac:	19c86293          	ori	x5,x16,412
  # Check if x5 contains the expected result. x17 is the signature ptr, x14 is the link ptr, x13 is a temp reg.
  RVTEST_SIGUPD(x17, x14, x13, x5, I_ori_cg_cp_rd_b5, I_ori_cg_cp_rd_b5_str)
     5b0:	0008a683          	lw	x13,0(x17)
     5b4:	00568863          	beq	x13,x5,5c4 <I_ori_cg_cp_rd_b5+0x18>
     5b8:	7250276f          	jal	x14,34dc <failedtest_x14_x13>
     5bc:	000005ac          	.word	0x000005ac
     5c0:	00008d7e          	.word	0x00008d7e
     5c4:	00488893          	addi	x17,x17,4

# Testcase cp_rd (Test destination rd = x6)
  RVTEST_TESTDATA_LOAD_INT(x12, x5) # load rs1: x5 = 0xf1b84808
     5c8:	00062283          	lw	x5,0(x12)
     5cc:	00460613          	addi	x12,x12,4

000005d0 <I_ori_cg_cp_rd_b6>:
I_ori_cg_cp_rd_b6:
  ori x6, x5, 231 # perform operation
     5d0:	0e72e313          	ori	x6,x5,231
  # Check if x6 contains the expected result. x17 is the signature ptr, x14 is the link ptr, x13 is a temp reg.
  RVTEST_SIGUPD(x17, x14, x13, x6, I_ori_cg_cp_rd_b6, I_ori_cg_cp_rd_b6_str)
     5d4:	0008a683          	lw	x13,0(x17)
     5d8:	00668863          	beq	x13,x6,5e8 <I_ori_cg_cp_rd_b6+0x18>
     5dc:	7010276f          	jal	x14,34dc <failedtest_x14_x13>
     5e0:	000005d0          	.word	0x000005d0
     5e4:	00008dab          	.word	0x00008dab
     5e8:	00488893          	addi	x17,x17,4

# Testcase cp_rd (Test destination rd = x7)
  RVTEST_TESTDATA_LOAD_INT(x12, x25) # load rs1: x25 = 0xb2b65d09
     5ec:	00062c83          	lw	x25,0(x12)
     5f0:	00460613          	addi	x12,x12,4

000005f4 <I_ori_cg_cp_rd_b7>:
I_ori_cg_cp_rd_b7:
  ori x7, x25, -35 # perform operation
     5f4:	fddce393          	ori	x7,x25,-35
  # Check if x7 contains the expected result. x17 is the signature ptr, x14 is the link ptr, x13 is a temp reg.
  RVTEST_SIGUPD(x17, x14, x13, x7, I_ori_cg_cp_rd_b7, I_ori_cg_cp_rd_b7_str)
     5f8:	0008a683          	lw	x13,0(x17)
     5fc:	00768863          	beq	x13,x7,60c <I_ori_cg_cp_rd_b7+0x18>
     600:	6dd0276f          	jal	x14,34dc <failedtest_x14_x13>
     604:	000005f4          	.word	0x000005f4
     608:	00008dd8          	.word	0x00008dd8
     60c:	00488893          	addi	x17,x17,4

# Testcase cp_rd (Test destination rd = x8)
  RVTEST_TESTDATA_LOAD_INT(x12, x27) # load rs1: x27 = 0xb33d323a
     610:	00062d83          	lw	x27,0(x12)
     614:	00460613          	addi	x12,x12,4

00000618 <I_ori_cg_cp_rd_b8>:
I_ori_cg_cp_rd_b8:
  ori x8, x27, -1777 # perform operation
     618:	90fde413          	ori	x8,x27,-1777
  # Check if x8 contains the expected result. x17 is the signature ptr, x14 is the link ptr, x13 is a temp reg.
  RVTEST_SIGUPD(x17, x14, x13, x8, I_ori_cg_cp_rd_b8, I_ori_cg_cp_rd_b8_str)
     61c:	0008a683          	lw	x13,0(x17)
     620:	00868863          	beq	x13,x8,630 <I_ori_cg_cp_rd_b8+0x18>
     624:	6b90276f          	jal	x14,34dc <failedtest_x14_x13>
     628:	00000618          	.word	0x00000618
     62c:	00008e05          	.word	0x00008e05
     630:	00488893          	addi	x17,x17,4

# Testcase cp_rd (Test destination rd = x9)
  RVTEST_TESTDATA_LOAD_INT(x12, x30) # load rs1: x30 = 0xfb4e6c8b
     634:	00062f03          	lw	x30,0(x12)
     638:	00460613          	addi	x12,x12,4

0000063c <I_ori_cg_cp_rd_b9>:
I_ori_cg_cp_rd_b9:
  ori x9, x30, 1658 # perform operation
     63c:	67af6493          	ori	x9,x30,1658
  # Check if x9 contains the expected result. x17 is the signature ptr, x14 is the link ptr, x13 is a temp reg.
  RVTEST_SIGUPD(x17, x14, x13, x9, I_ori_cg_cp_rd_b9, I_ori_cg_cp_rd_b9_str)
     640:	0008a683          	lw	x13,0(x17)
     644:	00968863          	beq	x13,x9,654 <I_ori_cg_cp_rd_b9+0x18>
     648:	6950276f          	jal	x14,34dc <failedtest_x14_x13>
     64c:	0000063c          	.word	0x0000063c
     650:	00008e32          	.word	0x00008e32
     654:	00488893          	addi	x17,x17,4

# Testcase cp_rd (Test destination rd = x10)
  RVTEST_TESTDATA_LOAD_INT(x12, x28) # load rs1: x28 = 0x5be4af29
     658:	00062e03          	lw	x28,0(x12)
     65c:	00460613          	addi	x12,x12,4

00000660 <I_ori_cg_cp_rd_b10>:
I_ori_cg_cp_rd_b10:
  ori x10, x28, -12 # perform operation
     660:	ff4e6513          	ori	x10,x28,-12
  # Check if x10 contains the expected result. x17 is the signature ptr, x14 is the link ptr, x13 is a temp reg.
  RVTEST_SIGUPD(x17, x14, x13, x10, I_ori_cg_cp_rd_b10, I_ori_cg_cp_rd_b10_str)
     664:	0008a683          	lw	x13,0(x17)
     668:	00a68863          	beq	x13,x10,678 <I_ori_cg_cp_rd_b10+0x18>
     66c:	6710276f          	jal	x14,34dc <failedtest_x14_x13>
     670:	00000660          	.word	0x00000660
     674:	00008e5f          	.word	0x00008e5f
     678:	00488893          	addi	x17,x17,4

# Testcase cp_rd (Test destination rd = x11)
  RVTEST_TESTDATA_LOAD_INT(x12, x22) # load rs1: x22 = 0x86d0f4ef
     67c:	00062b03          	lw	x22,0(x12)
     680:	00460613          	addi	x12,x12,4

00000684 <I_ori_cg_cp_rd_b11>:
I_ori_cg_cp_rd_b11:
  ori x11, x22, 1713 # perform operation
     684:	6b1b6593          	ori	x11,x22,1713
  # Check if x11 contains the expected result. x17 is the signature ptr, x14 is the link ptr, x13 is a temp reg.
  RVTEST_SIGUPD(x17, x14, x13, x11, I_ori_cg_cp_rd_b11, I_ori_cg_cp_rd_b11_str)
     688:	0008a683          	lw	x13,0(x17)
     68c:	00b68863          	beq	x13,x11,69c <I_ori_cg_cp_rd_b11+0x18>
     690:	64d0276f          	jal	x14,34dc <failedtest_x14_x13>
     694:	00000684          	.word	0x00000684
     698:	00008e8d          	.word	0x00008e8d
     69c:	00488893          	addi	x17,x17,4

  mv x1, x12 # switch data pointer register to avoid conflict with test
     6a0:	00060093          	addi	x1,x12,0
# Testcase cp_rd (Test destination rd = x12)
  RVTEST_TESTDATA_LOAD_INT(x1, x22) # load rs1: x22 = 0x6ae0cee2
     6a4:	0000ab03          	lw	x22,0(x1)
     6a8:	00408093          	addi	x1,x1,4

000006ac <I_ori_cg_cp_rd_b12>:
I_ori_cg_cp_rd_b12:
  ori x12, x22, 1942 # perform operation
     6ac:	796b6613          	ori	x12,x22,1942
  # Check if x12 contains the expected result. x17 is the signature ptr, x14 is the link ptr, x13 is a temp reg.
  RVTEST_SIGUPD(x17, x14, x13, x12, I_ori_cg_cp_rd_b12, I_ori_cg_cp_rd_b12_str)
     6b0:	0008a683          	lw	x13,0(x17)
     6b4:	00c68863          	beq	x13,x12,6c4 <I_ori_cg_cp_rd_b12+0x18>
     6b8:	6250276f          	jal	x14,34dc <failedtest_x14_x13>
     6bc:	000006ac          	.word	0x000006ac
     6c0:	00008ebb          	.word	0x00008ebb
     6c4:	00488893          	addi	x17,x17,4

  mv x7, x13 # switch temp register to avoid conflict with test
     6c8:	00068393          	addi	x7,x13,0
  mv x8, x14 # switch link pointer register to avoid conflict with test
     6cc:	00070413          	addi	x8,x14,0
# Testcase cp_rd (Test destination rd = x13)
  RVTEST_TESTDATA_LOAD_INT(x1, x22) # load rs1: x22 = 0xec552a30
     6d0:	0000ab03          	lw	x22,0(x1)
     6d4:	00408093          	addi	x1,x1,4

000006d8 <I_ori_cg_cp_rd_b13>:
I_ori_cg_cp_rd_b13:
  ori x13, x22, -488 # perform operation
     6d8:	e18b6693          	ori	x13,x22,-488
  # Check if x13 contains the expected result. x17 is the signature ptr, x8 is the link ptr, x7 is a temp reg.
  RVTEST_SIGUPD(x17, x8, x7, x13, I_ori_cg_cp_rd_b13, I_ori_cg_cp_rd_b13_str)
     6dc:	0008a383          	lw	x7,0(x17)
     6e0:	00d38863          	beq	x7,x13,6f0 <I_ori_cg_cp_rd_b13+0x18>
     6e4:	5d10246f          	jal	x8,34b4 <failedtest_x8_x7>
     6e8:	000006d8          	.word	0x000006d8
     6ec:	00008ee9          	.word	0x00008ee9
     6f0:	00488893          	addi	x17,x17,4

# Testcase cp_rd (Test destination rd = x14)
  RVTEST_TESTDATA_LOAD_INT(x1, x4) # load rs1: x4 = 0x0aaf15cb
     6f4:	0000a203          	lw	x4,0(x1)
     6f8:	00408093          	addi	x1,x1,4

000006fc <I_ori_cg_cp_rd_b14>:
I_ori_cg_cp_rd_b14:
  ori x14, x4, 592 # perform operation
     6fc:	25026713          	ori	x14,x4,592
  # Check if x14 contains the expected result. x17 is the signature ptr, x8 is the link ptr, x7 is a temp reg.
  RVTEST_SIGUPD(x17, x8, x7, x14, I_ori_cg_cp_rd_b14, I_ori_cg_cp_rd_b14_str)
     700:	0008a383          	lw	x7,0(x17)
     704:	00e38863          	beq	x7,x14,714 <I_ori_cg_cp_rd_b14+0x18>
     708:	5ad0246f          	jal	x8,34b4 <failedtest_x8_x7>
     70c:	000006fc          	.word	0x000006fc
     710:	00008f17          	.word	0x00008f17
     714:	00488893          	addi	x17,x17,4

# Testcase cp_rd (Test destination rd = x15)
  RVTEST_TESTDATA_LOAD_INT(x1, x28) # load rs1: x28 = 0xa597bcdd
     718:	0000ae03          	lw	x28,0(x1)
     71c:	00408093          	addi	x1,x1,4

00000720 <I_ori_cg_cp_rd_b15>:
I_ori_cg_cp_rd_b15:
  ori x15, x28, -1775 # perform operation
     720:	911e6793          	ori	x15,x28,-1775
  # Check if x15 contains the expected result. x17 is the signature ptr, x8 is the link ptr, x7 is a temp reg.
  RVTEST_SIGUPD(x17, x8, x7, x15, I_ori_cg_cp_rd_b15, I_ori_cg_cp_rd_b15_str)
     724:	0008a383          	lw	x7,0(x17)
     728:	00f38863          	beq	x7,x15,738 <I_ori_cg_cp_rd_b15+0x18>
     72c:	5890246f          	jal	x8,34b4 <failedtest_x8_x7>
     730:	00000720          	.word	0x00000720
     734:	00008f45          	.word	0x00008f45
     738:	00488893          	addi	x17,x17,4

# Testcase cp_rd (Test destination rd = x16)
  RVTEST_TESTDATA_LOAD_INT(x1, x4) # load rs1: x4 = 0x8ab4c76e
     73c:	0000a203          	lw	x4,0(x1)
     740:	00408093          	addi	x1,x1,4

00000744 <I_ori_cg_cp_rd_b16>:
I_ori_cg_cp_rd_b16:
  ori x16, x4, 1428 # perform operation
     744:	59426813          	ori	x16,x4,1428
  # Check if x16 contains the expected result. x17 is the signature ptr, x8 is the link ptr, x7 is a temp reg.
  RVTEST_SIGUPD(x17, x8, x7, x16, I_ori_cg_cp_rd_b16, I_ori_cg_cp_rd_b16_str)
     748:	0008a383          	lw	x7,0(x17)
     74c:	01038863          	beq	x7,x16,75c <I_ori_cg_cp_rd_b16+0x18>
     750:	5650246f          	jal	x8,34b4 <failedtest_x8_x7>
     754:	00000744          	.word	0x00000744
     758:	00008f73          	.word	0x00008f73
     75c:	00488893          	addi	x17,x17,4

  mv x21, x17 # switch signature pointer register to avoid conflict with test
     760:	00088a93          	addi	x21,x17,0
# Testcase cp_rd (Test destination rd = x17)
  RVTEST_TESTDATA_LOAD_INT(x1, x27) # load rs1: x27 = 0xa34fcf45
     764:	0000ad83          	lw	x27,0(x1)
     768:	00408093          	addi	x1,x1,4

0000076c <I_ori_cg_cp_rd_b17>:
I_ori_cg_cp_rd_b17:
  ori x17, x27, -702 # perform operation
     76c:	d42de893          	ori	x17,x27,-702
  # Check if x17 contains the expected result. x21 is the signature ptr, x8 is the link ptr, x7 is a temp reg.
  RVTEST_SIGUPD(x21, x8, x7, x17, I_ori_cg_cp_rd_b17, I_ori_cg_cp_rd_b17_str)
     770:	000aa383          	lw	x7,0(x21)
     774:	01138863          	beq	x7,x17,784 <I_ori_cg_cp_rd_b17+0x18>
     778:	53d0246f          	jal	x8,34b4 <failedtest_x8_x7>
     77c:	0000076c          	.word	0x0000076c
     780:	00008fa1          	.word	0x00008fa1
     784:	004a8a93          	addi	x21,x21,4

# Testcase cp_rd (Test destination rd = x18)
  RVTEST_TESTDATA_LOAD_INT(x1, x28) # load rs1: x28 = 0x043a4e2b
     788:	0000ae03          	lw	x28,0(x1)
     78c:	00408093          	addi	x1,x1,4

00000790 <I_ori_cg_cp_rd_b18>:
I_ori_cg_cp_rd_b18:
  ori x18, x28, 862 # perform operation
     790:	35ee6913          	ori	x18,x28,862
  # Check if x18 contains the expected result. x21 is the signature ptr, x8 is the link ptr, x7 is a temp reg.
  RVTEST_SIGUPD(x21, x8, x7, x18, I_ori_cg_cp_rd_b18, I_ori_cg_cp_rd_b18_str)
     794:	000aa383          	lw	x7,0(x21)
     798:	01238863          	beq	x7,x18,7a8 <I_ori_cg_cp_rd_b18+0x18>
     79c:	5190246f          	jal	x8,34b4 <failedtest_x8_x7>
     7a0:	00000790          	.word	0x00000790
     7a4:	00008fcf          	.word	0x00008fcf
     7a8:	004a8a93          	addi	x21,x21,4

# Testcase cp_rd (Test destination rd = x19)
  RVTEST_TESTDATA_LOAD_INT(x1, x6) # load rs1: x6 = 0x4b529664
     7ac:	0000a303          	lw	x6,0(x1)
     7b0:	00408093          	addi	x1,x1,4

000007b4 <I_ori_cg_cp_rd_b19>:
I_ori_cg_cp_rd_b19:
  ori x19, x6, 654 # perform operation
     7b4:	28e36993          	ori	x19,x6,654
  # Check if x19 contains the expected result. x21 is the signature ptr, x8 is the link ptr, x7 is a temp reg.
  RVTEST_SIGUPD(x21, x8, x7, x19, I_ori_cg_cp_rd_b19, I_ori_cg_cp_rd_b19_str)
     7b8:	000aa383          	lw	x7,0(x21)
     7bc:	01338863          	beq	x7,x19,7cc <I_ori_cg_cp_rd_b19+0x18>
     7c0:	4f50246f          	jal	x8,34b4 <failedtest_x8_x7>
     7c4:	000007b4          	.word	0x000007b4
     7c8:	00008ffd          	.word	0x00008ffd
     7cc:	004a8a93          	addi	x21,x21,4

# Testcase cp_rd (Test destination rd = x20)
  RVTEST_TESTDATA_LOAD_INT(x1, x9) # load rs1: x9 = 0x7f8f3731
     7d0:	0000a483          	lw	x9,0(x1)
     7d4:	00408093          	addi	x1,x1,4

000007d8 <I_ori_cg_cp_rd_b20>:
I_ori_cg_cp_rd_b20:
  ori x20, x9, -1270 # perform operation
     7d8:	b0a4ea13          	ori	x20,x9,-1270
  # Check if x20 contains the expected result. x21 is the signature ptr, x8 is the link ptr, x7 is a temp reg.
  RVTEST_SIGUPD(x21, x8, x7, x20, I_ori_cg_cp_rd_b20, I_ori_cg_cp_rd_b20_str)
     7dc:	000aa383          	lw	x7,0(x21)
     7e0:	01438863          	beq	x7,x20,7f0 <I_ori_cg_cp_rd_b20+0x18>
     7e4:	4d10246f          	jal	x8,34b4 <failedtest_x8_x7>
     7e8:	000007d8          	.word	0x000007d8
     7ec:	0000902b          	.word	0x0000902b
     7f0:	004a8a93          	addi	x21,x21,4

  mv x12, x21 # switch signature pointer register to avoid conflict with test
     7f4:	000a8613          	addi	x12,x21,0
# Testcase cp_rd (Test destination rd = x21)
  RVTEST_TESTDATA_LOAD_INT(x1, x26) # load rs1: x26 = 0xf55bfd7c
     7f8:	0000ad03          	lw	x26,0(x1)
     7fc:	00408093          	addi	x1,x1,4

00000800 <I_ori_cg_cp_rd_b21>:
I_ori_cg_cp_rd_b21:
  ori x21, x26, 84 # perform operation
     800:	054d6a93          	ori	x21,x26,84
  # Check if x21 contains the expected result. x12 is the signature ptr, x8 is the link ptr, x7 is a temp reg.
  RVTEST_SIGUPD(x12, x8, x7, x21, I_ori_cg_cp_rd_b21, I_ori_cg_cp_rd_b21_str)
     804:	00062383          	lw	x7,0(x12)
     808:	01538863          	beq	x7,x21,818 <I_ori_cg_cp_rd_b21+0x18>
     80c:	4a90246f          	jal	x8,34b4 <failedtest_x8_x7>
     810:	00000800          	.word	0x00000800
     814:	00009059          	.word	0x00009059
     818:	00460613          	addi	x12,x12,4

# Testcase cp_rd (Test destination rd = x22)
  RVTEST_TESTDATA_LOAD_INT(x1, x11) # load rs1: x11 = 0x5769d560
     81c:	0000a583          	lw	x11,0(x1)
     820:	00408093          	addi	x1,x1,4

00000824 <I_ori_cg_cp_rd_b22>:
I_ori_cg_cp_rd_b22:
  ori x22, x11, -1451 # perform operation
     824:	a555eb13          	ori	x22,x11,-1451
  # Check if x22 contains the expected result. x12 is the signature ptr, x8 is the link ptr, x7 is a temp reg.
  RVTEST_SIGUPD(x12, x8, x7, x22, I_ori_cg_cp_rd_b22, I_ori_cg_cp_rd_b22_str)
     828:	00062383          	lw	x7,0(x12)
     82c:	01638863          	beq	x7,x22,83c <I_ori_cg_cp_rd_b22+0x18>
     830:	4850246f          	jal	x8,34b4 <failedtest_x8_x7>
     834:	00000824          	.word	0x00000824
     838:	00009087          	.word	0x00009087
     83c:	00460613          	addi	x12,x12,4

# Testcase cp_rd (Test destination rd = x23)
  RVTEST_TESTDATA_LOAD_INT(x1, x5) # load rs1: x5 = 0x56d9dac1
     840:	0000a283          	lw	x5,0(x1)
     844:	00408093          	addi	x1,x1,4

00000848 <I_ori_cg_cp_rd_b23>:
I_ori_cg_cp_rd_b23:
  ori x23, x5, 1347 # perform operation
     848:	5432eb93          	ori	x23,x5,1347
  # Check if x23 contains the expected result. x12 is the signature ptr, x8 is the link ptr, x7 is a temp reg.
  RVTEST_SIGUPD(x12, x8, x7, x23, I_ori_cg_cp_rd_b23, I_ori_cg_cp_rd_b23_str)
     84c:	00062383          	lw	x7,0(x12)
     850:	01738863          	beq	x7,x23,860 <I_ori_cg_cp_rd_b23+0x18>
     854:	4610246f          	jal	x8,34b4 <failedtest_x8_x7>
     858:	00000848          	.word	0x00000848
     85c:	000090b5          	.word	0x000090b5
     860:	00460613          	addi	x12,x12,4

# Testcase cp_rd (Test destination rd = x24)
  RVTEST_TESTDATA_LOAD_INT(x1, x20) # load rs1: x20 = 0x7a78af0d
     864:	0000aa03          	lw	x20,0(x1)
     868:	00408093          	addi	x1,x1,4

0000086c <I_ori_cg_cp_rd_b24>:
I_ori_cg_cp_rd_b24:
  ori x24, x20, -1049 # perform operation
     86c:	be7a6c13          	ori	x24,x20,-1049
  # Check if x24 contains the expected result. x12 is the signature ptr, x8 is the link ptr, x7 is a temp reg.
  RVTEST_SIGUPD(x12, x8, x7, x24, I_ori_cg_cp_rd_b24, I_ori_cg_cp_rd_b24_str)
     870:	00062383          	lw	x7,0(x12)
     874:	01838863          	beq	x7,x24,884 <I_ori_cg_cp_rd_b24+0x18>
     878:	43d0246f          	jal	x8,34b4 <failedtest_x8_x7>
     87c:	0000086c          	.word	0x0000086c
     880:	000090e3          	.word	0x000090e3
     884:	00460613          	addi	x12,x12,4

# Testcase cp_rd (Test destination rd = x25)
  RVTEST_TESTDATA_LOAD_INT(x1, x16) # load rs1: x16 = 0xffc211f1
     888:	0000a803          	lw	x16,0(x1)
     88c:	00408093          	addi	x1,x1,4

00000890 <I_ori_cg_cp_rd_b25>:
I_ori_cg_cp_rd_b25:
  ori x25, x16, -837 # perform operation
     890:	cbb86c93          	ori	x25,x16,-837
  # Check if x25 contains the expected result. x12 is the signature ptr, x8 is the link ptr, x7 is a temp reg.
  RVTEST_SIGUPD(x12, x8, x7, x25, I_ori_cg_cp_rd_b25, I_ori_cg_cp_rd_b25_str)
     894:	00062383          	lw	x7,0(x12)
     898:	01938863          	beq	x7,x25,8a8 <I_ori_cg_cp_rd_b25+0x18>
     89c:	4190246f          	jal	x8,34b4 <failedtest_x8_x7>
     8a0:	00000890          	.word	0x00000890
     8a4:	00009111          	.word	0x00009111
     8a8:	00460613          	addi	x12,x12,4

# Testcase cp_rd (Test destination rd = x26)
  RVTEST_TESTDATA_LOAD_INT(x1, x5) # load rs1: x5 = 0xd1a8adb5
     8ac:	0000a283          	lw	x5,0(x1)
     8b0:	00408093          	addi	x1,x1,4

000008b4 <I_ori_cg_cp_rd_b26>:
I_ori_cg_cp_rd_b26:
  ori x26, x5, -170 # perform operation
     8b4:	f562ed13          	ori	x26,x5,-170
  # Check if x26 contains the expected result. x12 is the signature ptr, x8 is the link ptr, x7 is a temp reg.
  RVTEST_SIGUPD(x12, x8, x7, x26, I_ori_cg_cp_rd_b26, I_ori_cg_cp_rd_b26_str)
     8b8:	00062383          	lw	x7,0(x12)
     8bc:	01a38863          	beq	x7,x26,8cc <I_ori_cg_cp_rd_b26+0x18>
     8c0:	3f50246f          	jal	x8,34b4 <failedtest_x8_x7>
     8c4:	000008b4          	.word	0x000008b4
     8c8:	0000913f          	.word	0x0000913f
     8cc:	00460613          	addi	x12,x12,4

# Testcase cp_rd (Test destination rd = x27)
  RVTEST_TESTDATA_LOAD_INT(x1, x21) # load rs1: x21 = 0x95c2c133
     8d0:	0000aa83          	lw	x21,0(x1)
     8d4:	00408093          	addi	x1,x1,4

000008d8 <I_ori_cg_cp_rd_b27>:
I_ori_cg_cp_rd_b27:
  ori x27, x21, -1338 # perform operation
     8d8:	ac6aed93          	ori	x27,x21,-1338
  # Check if x27 contains the expected result. x12 is the signature ptr, x8 is the link ptr, x7 is a temp reg.
  RVTEST_SIGUPD(x12, x8, x7, x27, I_ori_cg_cp_rd_b27, I_ori_cg_cp_rd_b27_str)
     8dc:	00062383          	lw	x7,0(x12)
     8e0:	01b38863          	beq	x7,x27,8f0 <I_ori_cg_cp_rd_b27+0x18>
     8e4:	3d10246f          	jal	x8,34b4 <failedtest_x8_x7>
     8e8:	000008d8          	.word	0x000008d8
     8ec:	0000916d          	.word	0x0000916d
     8f0:	00460613          	addi	x12,x12,4

# Testcase cp_rd (Test destination rd = x28)
  RVTEST_TESTDATA_LOAD_INT(x1, x4) # load rs1: x4 = 0xf60eaaea
     8f4:	0000a203          	lw	x4,0(x1)
     8f8:	00408093          	addi	x1,x1,4

000008fc <I_ori_cg_cp_rd_b28>:
I_ori_cg_cp_rd_b28:
  ori x28, x4, -745 # perform operation
     8fc:	d1726e13          	ori	x28,x4,-745
  # Check if x28 contains the expected result. x12 is the signature ptr, x8 is the link ptr, x7 is a temp reg.
  RVTEST_SIGUPD(x12, x8, x7, x28, I_ori_cg_cp_rd_b28, I_ori_cg_cp_rd_b28_str)
     900:	00062383          	lw	x7,0(x12)
     904:	01c38863          	beq	x7,x28,914 <I_ori_cg_cp_rd_b28+0x18>
     908:	3ad0246f          	jal	x8,34b4 <failedtest_x8_x7>
     90c:	000008fc          	.word	0x000008fc
     910:	0000919b          	.word	0x0000919b
     914:	00460613          	addi	x12,x12,4

# Testcase cp_rd (Test destination rd = x29)
  RVTEST_TESTDATA_LOAD_INT(x1, x4) # load rs1: x4 = 0x912cfa23
     918:	0000a203          	lw	x4,0(x1)
     91c:	00408093          	addi	x1,x1,4

00000920 <I_ori_cg_cp_rd_b29>:
I_ori_cg_cp_rd_b29:
  ori x29, x4, 755 # perform operation
     920:	2f326e93          	ori	x29,x4,755
  # Check if x29 contains the expected result. x12 is the signature ptr, x8 is the link ptr, x7 is a temp reg.
  RVTEST_SIGUPD(x12, x8, x7, x29, I_ori_cg_cp_rd_b29, I_ori_cg_cp_rd_b29_str)
     924:	00062383          	lw	x7,0(x12)
     928:	01d38863          	beq	x7,x29,938 <I_ori_cg_cp_rd_b29+0x18>
     92c:	3890246f          	jal	x8,34b4 <failedtest_x8_x7>
     930:	00000920          	.word	0x00000920
     934:	000091c9          	.word	0x000091c9
     938:	00460613          	addi	x12,x12,4

# Testcase cp_rd (Test destination rd = x30)
  RVTEST_TESTDATA_LOAD_INT(x1, x22) # load rs1: x22 = 0x8b3a8c46
     93c:	0000ab03          	lw	x22,0(x1)
     940:	00408093          	addi	x1,x1,4

00000944 <I_ori_cg_cp_rd_b30>:
I_ori_cg_cp_rd_b30:
  ori x30, x22, -679 # perform operation
     944:	d59b6f13          	ori	x30,x22,-679
  # Check if x30 contains the expected result. x12 is the signature ptr, x8 is the link ptr, x7 is a temp reg.
  RVTEST_SIGUPD(x12, x8, x7, x30, I_ori_cg_cp_rd_b30, I_ori_cg_cp_rd_b30_str)
     948:	00062383          	lw	x7,0(x12)
     94c:	01e38863          	beq	x7,x30,95c <I_ori_cg_cp_rd_b30+0x18>
     950:	3650246f          	jal	x8,34b4 <failedtest_x8_x7>
     954:	00000944          	.word	0x00000944
     958:	000091f7          	.word	0x000091f7
     95c:	00460613          	addi	x12,x12,4

# Testcase cp_rd (Test destination rd = x31)
  RVTEST_TESTDATA_LOAD_INT(x1, x2) # load rs1: x2 = 0x8775fc02
     960:	0000a103          	lw	x2,0(x1)
     964:	00408093          	addi	x1,x1,4

00000968 <I_ori_cg_cp_rd_b31>:
I_ori_cg_cp_rd_b31:
  ori x31, x2, -1705 # perform operation
     968:	95716f93          	ori	x31,x2,-1705
  # Check if x31 contains the expected result. x12 is the signature ptr, x8 is the link ptr, x7 is a temp reg.
  RVTEST_SIGUPD(x12, x8, x7, x31, I_ori_cg_cp_rd_b31, I_ori_cg_cp_rd_b31_str)
     96c:	00062383          	lw	x7,0(x12)
     970:	01f38863          	beq	x7,x31,980 <I_ori_cg_cp_rd_b31+0x18>
     974:	3410246f          	jal	x8,34b4 <failedtest_x8_x7>
     978:	00000968          	.word	0x00000968
     97c:	00009225          	.word	0x00009225
     980:	00460613          	addi	x12,x12,4
/////////////////////////////////
// cp_rs1_edges
/////////////////////////////////

# Testcase cp_rs1_edges (Test source rs1 value = 0x00000000)
  RVTEST_TESTDATA_LOAD_INT(x1, x14) # load rs1: x14 = 0x00000000
     984:	0000a703          	lw	x14,0(x1)
     988:	00408093          	addi	x1,x1,4

0000098c <I_ori_cg_cp_rs1_edges_0x0>:
I_ori_cg_cp_rs1_edges_0x0:
  ori x11, x14, -400 # perform operation
     98c:	e7076593          	ori	x11,x14,-400
  # Check if x11 contains the expected result. x12 is the signature ptr, x8 is the link ptr, x7 is a temp reg.
  RVTEST_SIGUPD(x12, x8, x7, x11, I_ori_cg_cp_rs1_edges_0x0, I_ori_cg_cp_rs1_edges_0x0_str)
     990:	00062383          	lw	x7,0(x12)
     994:	00b38863          	beq	x7,x11,9a4 <I_ori_cg_cp_rs1_edges_0x0+0x18>
     998:	31d0246f          	jal	x8,34b4 <failedtest_x8_x7>
     99c:	0000098c          	.word	0x0000098c
     9a0:	00009253          	.word	0x00009253
     9a4:	00460613          	addi	x12,x12,4

# Testcase cp_rs1_edges (Test source rs1 value = 0x00000001)
  RVTEST_TESTDATA_LOAD_INT(x1, x24) # load rs1: x24 = 0x00000001
     9a8:	0000ac03          	lw	x24,0(x1)
     9ac:	00408093          	addi	x1,x1,4

000009b0 <I_ori_cg_cp_rs1_edges_0x1>:
I_ori_cg_cp_rs1_edges_0x1:
  ori x5, x24, 1974 # perform operation
     9b0:	7b6c6293          	ori	x5,x24,1974
  # Check if x5 contains the expected result. x12 is the signature ptr, x8 is the link ptr, x7 is a temp reg.
  RVTEST_SIGUPD(x12, x8, x7, x5, I_ori_cg_cp_rs1_edges_0x1, I_ori_cg_cp_rs1_edges_0x1_str)
     9b4:	00062383          	lw	x7,0(x12)
     9b8:	00538863          	beq	x7,x5,9c8 <I_ori_cg_cp_rs1_edges_0x1+0x18>
     9bc:	2f90246f          	jal	x8,34b4 <failedtest_x8_x7>
     9c0:	000009b0          	.word	0x000009b0
     9c4:	00009288          	.word	0x00009288
     9c8:	00460613          	addi	x12,x12,4

# Testcase cp_rs1_edges (Test source rs1 value = 0x00000002)
  RVTEST_TESTDATA_LOAD_INT(x1, x29) # load rs1: x29 = 0x00000002
     9cc:	0000ae83          	lw	x29,0(x1)
     9d0:	00408093          	addi	x1,x1,4

000009d4 <I_ori_cg_cp_rs1_edges_0x2>:
I_ori_cg_cp_rs1_edges_0x2:
  ori x24, x29, 1471 # perform operation
     9d4:	5bfeec13          	ori	x24,x29,1471
  # Check if x24 contains the expected result. x12 is the signature ptr, x8 is the link ptr, x7 is a temp reg.
  RVTEST_SIGUPD(x12, x8, x7, x24, I_ori_cg_cp_rs1_edges_0x2, I_ori_cg_cp_rs1_edges_0x2_str)
     9d8:	00062383          	lw	x7,0(x12)
     9dc:	01838863          	beq	x7,x24,9ec <I_ori_cg_cp_rs1_edges_0x2+0x18>
     9e0:	2d50246f          	jal	x8,34b4 <failedtest_x8_x7>
     9e4:	000009d4          	.word	0x000009d4
     9e8:	000092bd          	.word	0x000092bd
     9ec:	00460613          	addi	x12,x12,4

# Testcase cp_rs1_edges (Test source rs1 value = 0x80000000)
  RVTEST_TESTDATA_LOAD_INT(x1, x31) # load rs1: x31 = 0x80000000
     9f0:	0000af83          	lw	x31,0(x1)
     9f4:	00408093          	addi	x1,x1,4

000009f8 <I_ori_cg_cp_rs1_edges_0x80000000>:
I_ori_cg_cp_rs1_edges_0x80000000:
  ori x28, x31, 711 # perform operation
     9f8:	2c7fee13          	ori	x28,x31,711
  # Check if x28 contains the expected result. x12 is the signature ptr, x8 is the link ptr, x7 is a temp reg.
  RVTEST_SIGUPD(x12, x8, x7, x28, I_ori_cg_cp_rs1_edges_0x80000000, I_ori_cg_cp_rs1_edges_0x80000000_str)
     9fc:	00062383          	lw	x7,0(x12)
     a00:	01c38863          	beq	x7,x28,a10 <I_ori_cg_cp_rs1_edges_0x80000000+0x18>
     a04:	2b10246f          	jal	x8,34b4 <failedtest_x8_x7>
     a08:	000009f8          	.word	0x000009f8
     a0c:	000092f2          	.word	0x000092f2
     a10:	00460613          	addi	x12,x12,4

# Testcase cp_rs1_edges (Test source rs1 value = 0x80000001)
  RVTEST_TESTDATA_LOAD_INT(x1, x9) # load rs1: x9 = 0x80000001
     a14:	0000a483          	lw	x9,0(x1)
     a18:	00408093          	addi	x1,x1,4

00000a1c <I_ori_cg_cp_rs1_edges_0x80000001>:
I_ori_cg_cp_rs1_edges_0x80000001:
  ori x21, x9, 1544 # perform operation
     a1c:	6084ea93          	ori	x21,x9,1544
  # Check if x21 contains the expected result. x12 is the signature ptr, x8 is the link ptr, x7 is a temp reg.
  RVTEST_SIGUPD(x12, x8, x7, x21, I_ori_cg_cp_rs1_edges_0x80000001, I_ori_cg_cp_rs1_edges_0x80000001_str)
     a20:	00062383          	lw	x7,0(x12)
     a24:	01538863          	beq	x7,x21,a34 <I_ori_cg_cp_rs1_edges_0x80000001+0x18>
     a28:	28d0246f          	jal	x8,34b4 <failedtest_x8_x7>
     a2c:	00000a1c          	.word	0x00000a1c
     a30:	0000932e          	.word	0x0000932e
     a34:	00460613          	addi	x12,x12,4

# Testcase cp_rs1_edges (Test source rs1 value = 0x7fffffff)
  RVTEST_TESTDATA_LOAD_INT(x1, x17) # load rs1: x17 = 0x7fffffff
     a38:	0000a883          	lw	x17,0(x1)
     a3c:	00408093          	addi	x1,x1,4

00000a40 <I_ori_cg_cp_rs1_edges_0x7fffffff>:
I_ori_cg_cp_rs1_edges_0x7fffffff:
  ori x2, x17, -89 # perform operation
     a40:	fa78e113          	ori	x2,x17,-89
  # Check if x2 contains the expected result. x12 is the signature ptr, x8 is the link ptr, x7 is a temp reg.
  RVTEST_SIGUPD(x12, x8, x7, x2, I_ori_cg_cp_rs1_edges_0x7fffffff, I_ori_cg_cp_rs1_edges_0x7fffffff_str)
     a44:	00062383          	lw	x7,0(x12)
     a48:	00238863          	beq	x7,x2,a58 <I_ori_cg_cp_rs1_edges_0x7fffffff+0x18>
     a4c:	2690246f          	jal	x8,34b4 <failedtest_x8_x7>
     a50:	00000a40          	.word	0x00000a40
     a54:	0000936a          	.word	0x0000936a
     a58:	00460613          	addi	x12,x12,4

# Testcase cp_rs1_edges (Test source rs1 value = 0x7ffffffe)
  RVTEST_TESTDATA_LOAD_INT(x1, x28) # load rs1: x28 = 0x7ffffffe
     a5c:	0000ae03          	lw	x28,0(x1)
     a60:	00408093          	addi	x1,x1,4

00000a64 <I_ori_cg_cp_rs1_edges_0x7ffffffe>:
I_ori_cg_cp_rs1_edges_0x7ffffffe:
  ori x24, x28, -587 # perform operation
     a64:	db5e6c13          	ori	x24,x28,-587
  # Check if x24 contains the expected result. x12 is the signature ptr, x8 is the link ptr, x7 is a temp reg.
  RVTEST_SIGUPD(x12, x8, x7, x24, I_ori_cg_cp_rs1_edges_0x7ffffffe, I_ori_cg_cp_rs1_edges_0x7ffffffe_str)
     a68:	00062383          	lw	x7,0(x12)
     a6c:	01838863          	beq	x7,x24,a7c <I_ori_cg_cp_rs1_edges_0x7ffffffe+0x18>
     a70:	2450246f          	jal	x8,34b4 <failedtest_x8_x7>
     a74:	00000a64          	.word	0x00000a64
     a78:	000093a6          	.word	0x000093a6
     a7c:	00460613          	addi	x12,x12,4

# Testcase cp_rs1_edges (Test source rs1 value = 0xffffffff)
  RVTEST_TESTDATA_LOAD_INT(x1, x26) # load rs1: x26 = 0xffffffff
     a80:	0000ad03          	lw	x26,0(x1)
     a84:	00408093          	addi	x1,x1,4

00000a88 <I_ori_cg_cp_rs1_edges_0xffffffff>:
I_ori_cg_cp_rs1_edges_0xffffffff:
  ori x19, x26, 472 # perform operation
     a88:	1d8d6993          	ori	x19,x26,472
  # Check if x19 contains the expected result. x12 is the signature ptr, x8 is the link ptr, x7 is a temp reg.
  RVTEST_SIGUPD(x12, x8, x7, x19, I_ori_cg_cp_rs1_edges_0xffffffff, I_ori_cg_cp_rs1_edges_0xffffffff_str)
     a8c:	00062383          	lw	x7,0(x12)
     a90:	01338863          	beq	x7,x19,aa0 <I_ori_cg_cp_rs1_edges_0xffffffff+0x18>
     a94:	2210246f          	jal	x8,34b4 <failedtest_x8_x7>
     a98:	00000a88          	.word	0x00000a88
     a9c:	000093e2          	.word	0x000093e2
     aa0:	00460613          	addi	x12,x12,4

# Testcase cp_rs1_edges (Test source rs1 value = 0xfffffffe)
  RVTEST_TESTDATA_LOAD_INT(x1, x26) # load rs1: x26 = 0xfffffffe
     aa4:	0000ad03          	lw	x26,0(x1)
     aa8:	00408093          	addi	x1,x1,4

00000aac <I_ori_cg_cp_rs1_edges_0xfffffffe>:
I_ori_cg_cp_rs1_edges_0xfffffffe:
  ori x23, x26, -1396 # perform operation
     aac:	a8cd6b93          	ori	x23,x26,-1396
  # Check if x23 contains the expected result. x12 is the signature ptr, x8 is the link ptr, x7 is a temp reg.
  RVTEST_SIGUPD(x12, x8, x7, x23, I_ori_cg_cp_rs1_edges_0xfffffffe, I_ori_cg_cp_rs1_edges_0xfffffffe_str)
     ab0:	00062383          	lw	x7,0(x12)
     ab4:	01738863          	beq	x7,x23,ac4 <I_ori_cg_cp_rs1_edges_0xfffffffe+0x18>
     ab8:	1fd0246f          	jal	x8,34b4 <failedtest_x8_x7>
     abc:	00000aac          	.word	0x00000aac
     ac0:	0000941e          	.word	0x0000941e
     ac4:	00460613          	addi	x12,x12,4

# Testcase cp_rs1_edges (Test source rs1 value = 0x5bbc8872)
  RVTEST_TESTDATA_LOAD_INT(x1, x27) # load rs1: x27 = 0x5bbc8872
     ac8:	0000ad83          	lw	x27,0(x1)
     acc:	00408093          	addi	x1,x1,4

00000ad0 <I_ori_cg_cp_rs1_edges_0x5bbc8872>:
I_ori_cg_cp_rs1_edges_0x5bbc8872:
  ori x6, x27, 730 # perform operation
     ad0:	2dade313          	ori	x6,x27,730
  # Check if x6 contains the expected result. x12 is the signature ptr, x8 is the link ptr, x7 is a temp reg.
  RVTEST_SIGUPD(x12, x8, x7, x6, I_ori_cg_cp_rs1_edges_0x5bbc8872, I_ori_cg_cp_rs1_edges_0x5bbc8872_str)
     ad4:	00062383          	lw	x7,0(x12)
     ad8:	00638863          	beq	x7,x6,ae8 <I_ori_cg_cp_rs1_edges_0x5bbc8872+0x18>
     adc:	1d90246f          	jal	x8,34b4 <failedtest_x8_x7>
     ae0:	00000ad0          	.word	0x00000ad0
     ae4:	0000945a          	.word	0x0000945a
     ae8:	00460613          	addi	x12,x12,4

# Testcase cp_rs1_edges (Test source rs1 value = 0xaaaaaaaa)
  RVTEST_TESTDATA_LOAD_INT(x1, x18) # load rs1: x18 = 0xaaaaaaaa
     aec:	0000a903          	lw	x18,0(x1)
     af0:	00408093          	addi	x1,x1,4

00000af4 <I_ori_cg_cp_rs1_edges_0xaaaaaaaa>:
I_ori_cg_cp_rs1_edges_0xaaaaaaaa:
  ori x21, x18, 1543 # perform operation
     af4:	60796a93          	ori	x21,x18,1543
  # Check if x21 contains the expected result. x12 is the signature ptr, x8 is the link ptr, x7 is a temp reg.
  RVTEST_SIGUPD(x12, x8, x7, x21, I_ori_cg_cp_rs1_edges_0xaaaaaaaa, I_ori_cg_cp_rs1_edges_0xaaaaaaaa_str)
     af8:	00062383          	lw	x7,0(x12)
     afc:	01538863          	beq	x7,x21,b0c <I_ori_cg_cp_rs1_edges_0xaaaaaaaa+0x18>
     b00:	1b50246f          	jal	x8,34b4 <failedtest_x8_x7>
     b04:	00000af4          	.word	0x00000af4
     b08:	00009496          	.word	0x00009496
     b0c:	00460613          	addi	x12,x12,4

# Testcase cp_rs1_edges (Test source rs1 value = 0x55555555)
  RVTEST_TESTDATA_LOAD_INT(x1, x25) # load rs1: x25 = 0x55555555
     b10:	0000ac83          	lw	x25,0(x1)
     b14:	00408093          	addi	x1,x1,4

00000b18 <I_ori_cg_cp_rs1_edges_0x55555555>:
I_ori_cg_cp_rs1_edges_0x55555555:
  ori x18, x25, 1085 # perform operation
     b18:	43dce913          	ori	x18,x25,1085
  # Check if x18 contains the expected result. x12 is the signature ptr, x8 is the link ptr, x7 is a temp reg.
  RVTEST_SIGUPD(x12, x8, x7, x18, I_ori_cg_cp_rs1_edges_0x55555555, I_ori_cg_cp_rs1_edges_0x55555555_str)
     b1c:	00062383          	lw	x7,0(x12)
     b20:	01238863          	beq	x7,x18,b30 <I_ori_cg_cp_rs1_edges_0x55555555+0x18>
     b24:	1910246f          	jal	x8,34b4 <failedtest_x8_x7>
     b28:	00000b18          	.word	0x00000b18
     b2c:	000094d2          	.word	0x000094d2
     b30:	00460613          	addi	x12,x12,4
/////////////////////////////////
// cr_rs1_imm_edges
/////////////////////////////////

# Testcase cr_rs1_imm_edges (rs1 = 0x00000000, imm = 0)
  RVTEST_TESTDATA_LOAD_INT(x1, x13) # load rs1: x13 = 0x00000000
     b34:	0000a683          	lw	x13,0(x1)
     b38:	00408093          	addi	x1,x1,4

00000b3c <I_ori_cg_cr_rs1_imm_edges_rs1val_0x0_immval_0x0>:
I_ori_cg_cr_rs1_imm_edges_rs1val_0x0_immval_0x0:
  ori x28, x13, 0 # perform operation
     b3c:	0006ee13          	ori	x28,x13,0
  # Check if x28 contains the expected result. x12 is the signature ptr, x8 is the link ptr, x7 is a temp reg.
  RVTEST_SIGUPD(x12, x8, x7, x28, I_ori_cg_cr_rs1_imm_edges_rs1val_0x0_immval_0x0, I_ori_cg_cr_rs1_imm_edges_rs1val_0x0_immval_0x0_str)
     b40:	00062383          	lw	x7,0(x12)
     b44:	01c38863          	beq	x7,x28,b54 <I_ori_cg_cr_rs1_imm_edges_rs1val_0x0_immval_0x0+0x18>
     b48:	16d0246f          	jal	x8,34b4 <failedtest_x8_x7>
     b4c:	00000b3c          	.word	0x00000b3c
     b50:	0000950e          	.word	0x0000950e
     b54:	00460613          	addi	x12,x12,4

# Testcase cr_rs1_imm_edges (rs1 = 0x00000000, imm = 1)
  RVTEST_TESTDATA_LOAD_INT(x1, x4) # load rs1: x4 = 0x00000000
     b58:	0000a203          	lw	x4,0(x1)
     b5c:	00408093          	addi	x1,x1,4

00000b60 <I_ori_cg_cr_rs1_imm_edges_rs1val_0x0_immval_0x1>:
I_ori_cg_cr_rs1_imm_edges_rs1val_0x0_immval_0x1:
  ori x11, x4, 1 # perform operation
     b60:	00126593          	ori	x11,x4,1
  # Check if x11 contains the expected result. x12 is the signature ptr, x8 is the link ptr, x7 is a temp reg.
  RVTEST_SIGUPD(x12, x8, x7, x11, I_ori_cg_cr_rs1_imm_edges_rs1val_0x0_immval_0x1, I_ori_cg_cr_rs1_imm_edges_rs1val_0x0_immval_0x1_str)
     b64:	00062383          	lw	x7,0(x12)
     b68:	00b38863          	beq	x7,x11,b78 <I_ori_cg_cr_rs1_imm_edges_rs1val_0x0_immval_0x1+0x18>
     b6c:	1490246f          	jal	x8,34b4 <failedtest_x8_x7>
     b70:	00000b60          	.word	0x00000b60
     b74:	0000955a          	.word	0x0000955a
     b78:	00460613          	addi	x12,x12,4

# Testcase cr_rs1_imm_edges (rs1 = 0x00000000, imm = 2)
  RVTEST_TESTDATA_LOAD_INT(x1, x31) # load rs1: x31 = 0x00000000
     b7c:	0000af83          	lw	x31,0(x1)
     b80:	00408093          	addi	x1,x1,4

00000b84 <I_ori_cg_cr_rs1_imm_edges_rs1val_0x0_immval_0x2>:
I_ori_cg_cr_rs1_imm_edges_rs1val_0x0_immval_0x2:
  ori x17, x31, 2 # perform operation
     b84:	002fe893          	ori	x17,x31,2
  # Check if x17 contains the expected result. x12 is the signature ptr, x8 is the link ptr, x7 is a temp reg.
  RVTEST_SIGUPD(x12, x8, x7, x17, I_ori_cg_cr_rs1_imm_edges_rs1val_0x0_immval_0x2, I_ori_cg_cr_rs1_imm_edges_rs1val_0x0_immval_0x2_str)
     b88:	00062383          	lw	x7,0(x12)
     b8c:	01138863          	beq	x7,x17,b9c <I_ori_cg_cr_rs1_imm_edges_rs1val_0x0_immval_0x2+0x18>
     b90:	1250246f          	jal	x8,34b4 <failedtest_x8_x7>
     b94:	00000b84          	.word	0x00000b84
     b98:	000095a6          	.word	0x000095a6
     b9c:	00460613          	addi	x12,x12,4

# Testcase cr_rs1_imm_edges (rs1 = 0x00000000, imm = 3)
  RVTEST_TESTDATA_LOAD_INT(x1, x23) # load rs1: x23 = 0x00000000
     ba0:	0000ab83          	lw	x23,0(x1)
     ba4:	00408093          	addi	x1,x1,4

00000ba8 <I_ori_cg_cr_rs1_imm_edges_rs1val_0x0_immval_0x3>:
I_ori_cg_cr_rs1_imm_edges_rs1val_0x0_immval_0x3:
  ori x20, x23, 3 # perform operation
     ba8:	003bea13          	ori	x20,x23,3
  # Check if x20 contains the expected result. x12 is the signature ptr, x8 is the link ptr, x7 is a temp reg.
  RVTEST_SIGUPD(x12, x8, x7, x20, I_ori_cg_cr_rs1_imm_edges_rs1val_0x0_immval_0x3, I_ori_cg_cr_rs1_imm_edges_rs1val_0x0_immval_0x3_str)
     bac:	00062383          	lw	x7,0(x12)
     bb0:	01438863          	beq	x7,x20,bc0 <I_ori_cg_cr_rs1_imm_edges_rs1val_0x0_immval_0x3+0x18>
     bb4:	1010246f          	jal	x8,34b4 <failedtest_x8_x7>
     bb8:	00000ba8          	.word	0x00000ba8
     bbc:	000095f2          	.word	0x000095f2
     bc0:	00460613          	addi	x12,x12,4

# Testcase cr_rs1_imm_edges (rs1 = 0x00000000, imm = 4)
  RVTEST_TESTDATA_LOAD_INT(x1, x2) # load rs1: x2 = 0x00000000
     bc4:	0000a103          	lw	x2,0(x1)
     bc8:	00408093          	addi	x1,x1,4

00000bcc <I_ori_cg_cr_rs1_imm_edges_rs1val_0x0_immval_0x4>:
I_ori_cg_cr_rs1_imm_edges_rs1val_0x0_immval_0x4:
  ori x5, x2, 4 # perform operation
     bcc:	00416293          	ori	x5,x2,4
  # Check if x5 contains the expected result. x12 is the signature ptr, x8 is the link ptr, x7 is a temp reg.
  RVTEST_SIGUPD(x12, x8, x7, x5, I_ori_cg_cr_rs1_imm_edges_rs1val_0x0_immval_0x4, I_ori_cg_cr_rs1_imm_edges_rs1val_0x0_immval_0x4_str)
     bd0:	00062383          	lw	x7,0(x12)
     bd4:	00538863          	beq	x7,x5,be4 <I_ori_cg_cr_rs1_imm_edges_rs1val_0x0_immval_0x4+0x18>
     bd8:	0dd0246f          	jal	x8,34b4 <failedtest_x8_x7>
     bdc:	00000bcc          	.word	0x00000bcc
     be0:	0000963e          	.word	0x0000963e
     be4:	00460613          	addi	x12,x12,4

# Testcase cr_rs1_imm_edges (rs1 = 0x00000000, imm = 8)
  RVTEST_TESTDATA_LOAD_INT(x1, x31) # load rs1: x31 = 0x00000000
     be8:	0000af83          	lw	x31,0(x1)
     bec:	00408093          	addi	x1,x1,4

00000bf0 <I_ori_cg_cr_rs1_imm_edges_rs1val_0x0_immval_0x8>:
I_ori_cg_cr_rs1_imm_edges_rs1val_0x0_immval_0x8:
  ori x10, x31, 8 # perform operation
     bf0:	008fe513          	ori	x10,x31,8
  # Check if x10 contains the expected result. x12 is the signature ptr, x8 is the link ptr, x7 is a temp reg.
  RVTEST_SIGUPD(x12, x8, x7, x10, I_ori_cg_cr_rs1_imm_edges_rs1val_0x0_immval_0x8, I_ori_cg_cr_rs1_imm_edges_rs1val_0x0_immval_0x8_str)
     bf4:	00062383          	lw	x7,0(x12)
     bf8:	00a38863          	beq	x7,x10,c08 <I_ori_cg_cr_rs1_imm_edges_rs1val_0x0_immval_0x8+0x18>
     bfc:	0b90246f          	jal	x8,34b4 <failedtest_x8_x7>
     c00:	00000bf0          	.word	0x00000bf0
     c04:	0000968a          	.word	0x0000968a
     c08:	00460613          	addi	x12,x12,4

# Testcase cr_rs1_imm_edges (rs1 = 0x00000000, imm = 16)
  RVTEST_TESTDATA_LOAD_INT(x1, x6) # load rs1: x6 = 0x00000000
     c0c:	0000a303          	lw	x6,0(x1)
     c10:	00408093          	addi	x1,x1,4

00000c14 <I_ori_cg_cr_rs1_imm_edges_rs1val_0x0_immval_0x10>:
I_ori_cg_cr_rs1_imm_edges_rs1val_0x0_immval_0x10:
  ori x30, x6, 16 # perform operation
     c14:	01036f13          	ori	x30,x6,16
  # Check if x30 contains the expected result. x12 is the signature ptr, x8 is the link ptr, x7 is a temp reg.
  RVTEST_SIGUPD(x12, x8, x7, x30, I_ori_cg_cr_rs1_imm_edges_rs1val_0x0_immval_0x10, I_ori_cg_cr_rs1_imm_edges_rs1val_0x0_immval_0x10_str)
     c18:	00062383          	lw	x7,0(x12)
     c1c:	01e38863          	beq	x7,x30,c2c <I_ori_cg_cr_rs1_imm_edges_rs1val_0x0_immval_0x10+0x18>
     c20:	0950246f          	jal	x8,34b4 <failedtest_x8_x7>
     c24:	00000c14          	.word	0x00000c14
     c28:	000096d6          	.word	0x000096d6
     c2c:	00460613          	addi	x12,x12,4

# Testcase cr_rs1_imm_edges (rs1 = 0x00000000, imm = 32)
  RVTEST_TESTDATA_LOAD_INT(x1, x10) # load rs1: x10 = 0x00000000
     c30:	0000a503          	lw	x10,0(x1)
     c34:	00408093          	addi	x1,x1,4

00000c38 <I_ori_cg_cr_rs1_imm_edges_rs1val_0x0_immval_0x20>:
I_ori_cg_cr_rs1_imm_edges_rs1val_0x0_immval_0x20:
  ori x29, x10, 32 # perform operation
     c38:	02056e93          	ori	x29,x10,32
  # Check if x29 contains the expected result. x12 is the signature ptr, x8 is the link ptr, x7 is a temp reg.
  RVTEST_SIGUPD(x12, x8, x7, x29, I_ori_cg_cr_rs1_imm_edges_rs1val_0x0_immval_0x20, I_ori_cg_cr_rs1_imm_edges_rs1val_0x0_immval_0x20_str)
     c3c:	00062383          	lw	x7,0(x12)
     c40:	01d38863          	beq	x7,x29,c50 <I_ori_cg_cr_rs1_imm_edges_rs1val_0x0_immval_0x20+0x18>
     c44:	0710246f          	jal	x8,34b4 <failedtest_x8_x7>
     c48:	00000c38          	.word	0x00000c38
     c4c:	00009723          	.word	0x00009723
     c50:	00460613          	addi	x12,x12,4

# Testcase cr_rs1_imm_edges (rs1 = 0x00000000, imm = 64)
  RVTEST_TESTDATA_LOAD_INT(x1, x19) # load rs1: x19 = 0x00000000
     c54:	0000a983          	lw	x19,0(x1)
     c58:	00408093          	addi	x1,x1,4

00000c5c <I_ori_cg_cr_rs1_imm_edges_rs1val_0x0_immval_0x40>:
I_ori_cg_cr_rs1_imm_edges_rs1val_0x0_immval_0x40:
  ori x26, x19, 64 # perform operation
     c5c:	0409ed13          	ori	x26,x19,64
  # Check if x26 contains the expected result. x12 is the signature ptr, x8 is the link ptr, x7 is a temp reg.
  RVTEST_SIGUPD(x12, x8, x7, x26, I_ori_cg_cr_rs1_imm_edges_rs1val_0x0_immval_0x40, I_ori_cg_cr_rs1_imm_edges_rs1val_0x0_immval_0x40_str)
     c60:	00062383          	lw	x7,0(x12)
     c64:	01a38863          	beq	x7,x26,c74 <I_ori_cg_cr_rs1_imm_edges_rs1val_0x0_immval_0x40+0x18>
     c68:	04d0246f          	jal	x8,34b4 <failedtest_x8_x7>
     c6c:	00000c5c          	.word	0x00000c5c
     c70:	00009770          	.word	0x00009770
     c74:	00460613          	addi	x12,x12,4

# Testcase cr_rs1_imm_edges (rs1 = 0x00000000, imm = 128)
  RVTEST_TESTDATA_LOAD_INT(x1, x28) # load rs1: x28 = 0x00000000
     c78:	0000ae03          	lw	x28,0(x1)
     c7c:	00408093          	addi	x1,x1,4

00000c80 <I_ori_cg_cr_rs1_imm_edges_rs1val_0x0_immval_0x80>:
I_ori_cg_cr_rs1_imm_edges_rs1val_0x0_immval_0x80:
  ori x3, x28, 128 # perform operation
     c80:	080e6193          	ori	x3,x28,128
  # Check if x3 contains the expected result. x12 is the signature ptr, x8 is the link ptr, x7 is a temp reg.
  RVTEST_SIGUPD(x12, x8, x7, x3, I_ori_cg_cr_rs1_imm_edges_rs1val_0x0_immval_0x80, I_ori_cg_cr_rs1_imm_edges_rs1val_0x0_immval_0x80_str)
     c84:	00062383          	lw	x7,0(x12)
     c88:	00338863          	beq	x7,x3,c98 <I_ori_cg_cr_rs1_imm_edges_rs1val_0x0_immval_0x80+0x18>
     c8c:	0290246f          	jal	x8,34b4 <failedtest_x8_x7>
     c90:	00000c80          	.word	0x00000c80
     c94:	000097bd          	.word	0x000097bd
     c98:	00460613          	addi	x12,x12,4

# Testcase cr_rs1_imm_edges (rs1 = 0x00000000, imm = 256)
  RVTEST_TESTDATA_LOAD_INT(x1, x14) # load rs1: x14 = 0x00000000
     c9c:	0000a703          	lw	x14,0(x1)
     ca0:	00408093          	addi	x1,x1,4

00000ca4 <I_ori_cg_cr_rs1_imm_edges_rs1val_0x0_immval_0x100>:
I_ori_cg_cr_rs1_imm_edges_rs1val_0x0_immval_0x100:
  ori x13, x14, 256 # perform operation
     ca4:	10076693          	ori	x13,x14,256
  # Check if x13 contains the expected result. x12 is the signature ptr, x8 is the link ptr, x7 is a temp reg.
  RVTEST_SIGUPD(x12, x8, x7, x13, I_ori_cg_cr_rs1_imm_edges_rs1val_0x0_immval_0x100, I_ori_cg_cr_rs1_imm_edges_rs1val_0x0_immval_0x100_str)
     ca8:	00062383          	lw	x7,0(x12)
     cac:	00d38863          	beq	x7,x13,cbc <I_ori_cg_cr_rs1_imm_edges_rs1val_0x0_immval_0x100+0x18>
     cb0:	0050246f          	jal	x8,34b4 <failedtest_x8_x7>
     cb4:	00000ca4          	.word	0x00000ca4
     cb8:	0000980a          	.word	0x0000980a
     cbc:	00460613          	addi	x12,x12,4

# Testcase cr_rs1_imm_edges (rs1 = 0x00000000, imm = 512)
  RVTEST_TESTDATA_LOAD_INT(x1, x26) # load rs1: x26 = 0x00000000
     cc0:	0000ad03          	lw	x26,0(x1)
     cc4:	00408093          	addi	x1,x1,4

00000cc8 <I_ori_cg_cr_rs1_imm_edges_rs1val_0x0_immval_0x200>:
I_ori_cg_cr_rs1_imm_edges_rs1val_0x0_immval_0x200:
  ori x13, x26, 512 # perform operation
     cc8:	200d6693          	ori	x13,x26,512
  # Check if x13 contains the expected result. x12 is the signature ptr, x8 is the link ptr, x7 is a temp reg.
  RVTEST_SIGUPD(x12, x8, x7, x13, I_ori_cg_cr_rs1_imm_edges_rs1val_0x0_immval_0x200, I_ori_cg_cr_rs1_imm_edges_rs1val_0x0_immval_0x200_str)
     ccc:	00062383          	lw	x7,0(x12)
     cd0:	00d38863          	beq	x7,x13,ce0 <I_ori_cg_cr_rs1_imm_edges_rs1val_0x0_immval_0x200+0x18>
     cd4:	7e00246f          	jal	x8,34b4 <failedtest_x8_x7>
     cd8:	00000cc8          	.word	0x00000cc8
     cdc:	00009858          	.word	0x00009858
     ce0:	00460613          	addi	x12,x12,4

# Testcase cr_rs1_imm_edges (rs1 = 0x00000000, imm = 1023)
  RVTEST_TESTDATA_LOAD_INT(x1, x14) # load rs1: x14 = 0x00000000
     ce4:	0000a703          	lw	x14,0(x1)
     ce8:	00408093          	addi	x1,x1,4

00000cec <I_ori_cg_cr_rs1_imm_edges_rs1val_0x0_immval_0x3ff>:
I_ori_cg_cr_rs1_imm_edges_rs1val_0x0_immval_0x3ff:
  ori x11, x14, 1023 # perform operation
     cec:	3ff76593          	ori	x11,x14,1023
  # Check if x11 contains the expected result. x12 is the signature ptr, x8 is the link ptr, x7 is a temp reg.
  RVTEST_SIGUPD(x12, x8, x7, x11, I_ori_cg_cr_rs1_imm_edges_rs1val_0x0_immval_0x3ff, I_ori_cg_cr_rs1_imm_edges_rs1val_0x0_immval_0x3ff_str)
     cf0:	00062383          	lw	x7,0(x12)
     cf4:	00b38863          	beq	x7,x11,d04 <I_ori_cg_cr_rs1_imm_edges_rs1val_0x0_immval_0x3ff+0x18>
     cf8:	7bc0246f          	jal	x8,34b4 <failedtest_x8_x7>
     cfc:	00000cec          	.word	0x00000cec
     d00:	000098a6          	.word	0x000098a6
     d04:	00460613          	addi	x12,x12,4

# Testcase cr_rs1_imm_edges (rs1 = 0x00000000, imm = 1024)
  RVTEST_TESTDATA_LOAD_INT(x1, x18) # load rs1: x18 = 0x00000000
     d08:	0000a903          	lw	x18,0(x1)
     d0c:	00408093          	addi	x1,x1,4

00000d10 <I_ori_cg_cr_rs1_imm_edges_rs1val_0x0_immval_0x400>:
I_ori_cg_cr_rs1_imm_edges_rs1val_0x0_immval_0x400:
  ori x17, x18, 1024 # perform operation
     d10:	40096893          	ori	x17,x18,1024
  # Check if x17 contains the expected result. x12 is the signature ptr, x8 is the link ptr, x7 is a temp reg.
  RVTEST_SIGUPD(x12, x8, x7, x17, I_ori_cg_cr_rs1_imm_edges_rs1val_0x0_immval_0x400, I_ori_cg_cr_rs1_imm_edges_rs1val_0x0_immval_0x400_str)
     d14:	00062383          	lw	x7,0(x12)
     d18:	01138863          	beq	x7,x17,d28 <I_ori_cg_cr_rs1_imm_edges_rs1val_0x0_immval_0x400+0x18>
     d1c:	7980246f          	jal	x8,34b4 <failedtest_x8_x7>
     d20:	00000d10          	.word	0x00000d10
     d24:	000098f4          	.word	0x000098f4
     d28:	00460613          	addi	x12,x12,4

# Testcase cr_rs1_imm_edges (rs1 = 0x00000000, imm = 1795)
  RVTEST_TESTDATA_LOAD_INT(x1, x29) # load rs1: x29 = 0x00000000
     d2c:	0000ae83          	lw	x29,0(x1)
     d30:	00408093          	addi	x1,x1,4

00000d34 <I_ori_cg_cr_rs1_imm_edges_rs1val_0x0_immval_0x703>:
I_ori_cg_cr_rs1_imm_edges_rs1val_0x0_immval_0x703:
  ori x16, x29, 1795 # perform operation
     d34:	703ee813          	ori	x16,x29,1795
  # Check if x16 contains the expected result. x12 is the signature ptr, x8 is the link ptr, x7 is a temp reg.
  RVTEST_SIGUPD(x12, x8, x7, x16, I_ori_cg_cr_rs1_imm_edges_rs1val_0x0_immval_0x703, I_ori_cg_cr_rs1_imm_edges_rs1val_0x0_immval_0x703_str)
     d38:	00062383          	lw	x7,0(x12)
     d3c:	01038863          	beq	x7,x16,d4c <I_ori_cg_cr_rs1_imm_edges_rs1val_0x0_immval_0x703+0x18>
     d40:	7740246f          	jal	x8,34b4 <failedtest_x8_x7>
     d44:	00000d34          	.word	0x00000d34
     d48:	00009942          	.word	0x00009942
     d4c:	00460613          	addi	x12,x12,4

# Testcase cr_rs1_imm_edges (rs1 = 0x00000000, imm = 2047)
  RVTEST_TESTDATA_LOAD_INT(x1, x25) # load rs1: x25 = 0x00000000
     d50:	0000ac83          	lw	x25,0(x1)
     d54:	00408093          	addi	x1,x1,4

00000d58 <I_ori_cg_cr_rs1_imm_edges_rs1val_0x0_immval_0x7ff>:
I_ori_cg_cr_rs1_imm_edges_rs1val_0x0_immval_0x7ff:
  ori x16, x25, 2047 # perform operation
     d58:	7ffce813          	ori	x16,x25,2047
  # Check if x16 contains the expected result. x12 is the signature ptr, x8 is the link ptr, x7 is a temp reg.
  RVTEST_SIGUPD(x12, x8, x7, x16, I_ori_cg_cr_rs1_imm_edges_rs1val_0x0_immval_0x7ff, I_ori_cg_cr_rs1_imm_edges_rs1val_0x0_immval_0x7ff_str)
     d5c:	00062383          	lw	x7,0(x12)
     d60:	01038863          	beq	x7,x16,d70 <I_ori_cg_cr_rs1_imm_edges_rs1val_0x0_immval_0x7ff+0x18>
     d64:	7500246f          	jal	x8,34b4 <failedtest_x8_x7>
     d68:	00000d58          	.word	0x00000d58
     d6c:	00009990          	.word	0x00009990
     d70:	00460613          	addi	x12,x12,4

# Testcase cr_rs1_imm_edges (rs1 = 0x00000000, imm = -2048)
  RVTEST_TESTDATA_LOAD_INT(x1, x11) # load rs1: x11 = 0x00000000
     d74:	0000a583          	lw	x11,0(x1)
     d78:	00408093          	addi	x1,x1,4

00000d7c <I_ori_cg_cr_rs1_imm_edges_rs1val_0x0_immval_m0x800>:
I_ori_cg_cr_rs1_imm_edges_rs1val_0x0_immval_m0x800:
  ori x28, x11, -2048 # perform operation
     d7c:	8005ee13          	ori	x28,x11,-2048
  # Check if x28 contains the expected result. x12 is the signature ptr, x8 is the link ptr, x7 is a temp reg.
  RVTEST_SIGUPD(x12, x8, x7, x28, I_ori_cg_cr_rs1_imm_edges_rs1val_0x0_immval_m0x800, I_ori_cg_cr_rs1_imm_edges_rs1val_0x0_immval_m0x800_str)
     d80:	00062383          	lw	x7,0(x12)
     d84:	01c38863          	beq	x7,x28,d94 <I_ori_cg_cr_rs1_imm_edges_rs1val_0x0_immval_m0x800+0x18>
     d88:	72c0246f          	jal	x8,34b4 <failedtest_x8_x7>
     d8c:	00000d7c          	.word	0x00000d7c
     d90:	000099de          	.word	0x000099de
     d94:	00460613          	addi	x12,x12,4

# Testcase cr_rs1_imm_edges (rs1 = 0x00000000, imm = -2047)
  RVTEST_TESTDATA_LOAD_INT(x1, x21) # load rs1: x21 = 0x00000000
     d98:	0000aa83          	lw	x21,0(x1)
     d9c:	00408093          	addi	x1,x1,4

00000da0 <I_ori_cg_cr_rs1_imm_edges_rs1val_0x0_immval_m0x7ff>:
I_ori_cg_cr_rs1_imm_edges_rs1val_0x0_immval_m0x7ff:
  ori x6, x21, -2047 # perform operation
     da0:	801ae313          	ori	x6,x21,-2047
  # Check if x6 contains the expected result. x12 is the signature ptr, x8 is the link ptr, x7 is a temp reg.
  RVTEST_SIGUPD(x12, x8, x7, x6, I_ori_cg_cr_rs1_imm_edges_rs1val_0x0_immval_m0x7ff, I_ori_cg_cr_rs1_imm_edges_rs1val_0x0_immval_m0x7ff_str)
     da4:	00062383          	lw	x7,0(x12)
     da8:	00638863          	beq	x7,x6,db8 <I_ori_cg_cr_rs1_imm_edges_rs1val_0x0_immval_m0x7ff+0x18>
     dac:	7080246f          	jal	x8,34b4 <failedtest_x8_x7>
     db0:	00000da0          	.word	0x00000da0
     db4:	00009a2d          	.word	0x00009a2d
     db8:	00460613          	addi	x12,x12,4

# Testcase cr_rs1_imm_edges (rs1 = 0x00000000, imm = -2)
  RVTEST_TESTDATA_LOAD_INT(x1, x17) # load rs1: x17 = 0x00000000
     dbc:	0000a883          	lw	x17,0(x1)
     dc0:	00408093          	addi	x1,x1,4

00000dc4 <I_ori_cg_cr_rs1_imm_edges_rs1val_0x0_immval_m0x2>:
I_ori_cg_cr_rs1_imm_edges_rs1val_0x0_immval_m0x2:
  ori x13, x17, -2 # perform operation
     dc4:	ffe8e693          	ori	x13,x17,-2
  # Check if x13 contains the expected result. x12 is the signature ptr, x8 is the link ptr, x7 is a temp reg.
  RVTEST_SIGUPD(x12, x8, x7, x13, I_ori_cg_cr_rs1_imm_edges_rs1val_0x0_immval_m0x2, I_ori_cg_cr_rs1_imm_edges_rs1val_0x0_immval_m0x2_str)
     dc8:	00062383          	lw	x7,0(x12)
     dcc:	00d38863          	beq	x7,x13,ddc <I_ori_cg_cr_rs1_imm_edges_rs1val_0x0_immval_m0x2+0x18>
     dd0:	6e40246f          	jal	x8,34b4 <failedtest_x8_x7>
     dd4:	00000dc4          	.word	0x00000dc4
     dd8:	00009a7c          	.word	0x00009a7c
     ddc:	00460613          	addi	x12,x12,4

# Testcase cr_rs1_imm_edges (rs1 = 0x00000000, imm = -1)
  RVTEST_TESTDATA_LOAD_INT(x1, x15) # load rs1: x15 = 0x00000000
     de0:	0000a783          	lw	x15,0(x1)
     de4:	00408093          	addi	x1,x1,4

00000de8 <I_ori_cg_cr_rs1_imm_edges_rs1val_0x0_immval_m0x1>:
I_ori_cg_cr_rs1_imm_edges_rs1val_0x0_immval_m0x1:
  ori x9, x15, -1 # perform operation
     de8:	fff7e493          	ori	x9,x15,-1
  # Check if x9 contains the expected result. x12 is the signature ptr, x8 is the link ptr, x7 is a temp reg.
  RVTEST_SIGUPD(x12, x8, x7, x9, I_ori_cg_cr_rs1_imm_edges_rs1val_0x0_immval_m0x1, I_ori_cg_cr_rs1_imm_edges_rs1val_0x0_immval_m0x1_str)
     dec:	00062383          	lw	x7,0(x12)
     df0:	00938863          	beq	x7,x9,e00 <I_ori_cg_cr_rs1_imm_edges_rs1val_0x0_immval_m0x1+0x18>
     df4:	6c00246f          	jal	x8,34b4 <failedtest_x8_x7>
     df8:	00000de8          	.word	0x00000de8
     dfc:	00009ac9          	.word	0x00009ac9
     e00:	00460613          	addi	x12,x12,4

# Testcase cr_rs1_imm_edges (rs1 = 0x00000001, imm = 0)
  RVTEST_TESTDATA_LOAD_INT(x1, x11) # load rs1: x11 = 0x00000001
     e04:	0000a583          	lw	x11,0(x1)
     e08:	00408093          	addi	x1,x1,4

00000e0c <I_ori_cg_cr_rs1_imm_edges_rs1val_0x1_immval_0x0>:
I_ori_cg_cr_rs1_imm_edges_rs1val_0x1_immval_0x0:
  ori x26, x11, 0 # perform operation
     e0c:	0005ed13          	ori	x26,x11,0
  # Check if x26 contains the expected result. x12 is the signature ptr, x8 is the link ptr, x7 is a temp reg.
  RVTEST_SIGUPD(x12, x8, x7, x26, I_ori_cg_cr_rs1_imm_edges_rs1val_0x1_immval_0x0, I_ori_cg_cr_rs1_imm_edges_rs1val_0x1_immval_0x0_str)
     e10:	00062383          	lw	x7,0(x12)
     e14:	01a38863          	beq	x7,x26,e24 <I_ori_cg_cr_rs1_imm_edges_rs1val_0x1_immval_0x0+0x18>
     e18:	69c0246f          	jal	x8,34b4 <failedtest_x8_x7>
     e1c:	00000e0c          	.word	0x00000e0c
     e20:	00009b16          	.word	0x00009b16
     e24:	00460613          	addi	x12,x12,4

# Testcase cr_rs1_imm_edges (rs1 = 0x00000001, imm = 1)
  RVTEST_TESTDATA_LOAD_INT(x1, x27) # load rs1: x27 = 0x00000001
     e28:	0000ad83          	lw	x27,0(x1)
     e2c:	00408093          	addi	x1,x1,4

00000e30 <I_ori_cg_cr_rs1_imm_edges_rs1val_0x1_immval_0x1>:
I_ori_cg_cr_rs1_imm_edges_rs1val_0x1_immval_0x1:
  ori x11, x27, 1 # perform operation
     e30:	001de593          	ori	x11,x27,1
  # Check if x11 contains the expected result. x12 is the signature ptr, x8 is the link ptr, x7 is a temp reg.
  RVTEST_SIGUPD(x12, x8, x7, x11, I_ori_cg_cr_rs1_imm_edges_rs1val_0x1_immval_0x1, I_ori_cg_cr_rs1_imm_edges_rs1val_0x1_immval_0x1_str)
     e34:	00062383          	lw	x7,0(x12)
     e38:	00b38863          	beq	x7,x11,e48 <I_ori_cg_cr_rs1_imm_edges_rs1val_0x1_immval_0x1+0x18>
     e3c:	6780246f          	jal	x8,34b4 <failedtest_x8_x7>
     e40:	00000e30          	.word	0x00000e30
     e44:	00009b62          	.word	0x00009b62
     e48:	00460613          	addi	x12,x12,4

# Testcase cr_rs1_imm_edges (rs1 = 0x00000001, imm = 2)
  RVTEST_TESTDATA_LOAD_INT(x1, x26) # load rs1: x26 = 0x00000001
     e4c:	0000ad03          	lw	x26,0(x1)
     e50:	00408093          	addi	x1,x1,4

00000e54 <I_ori_cg_cr_rs1_imm_edges_rs1val_0x1_immval_0x2>:
I_ori_cg_cr_rs1_imm_edges_rs1val_0x1_immval_0x2:
  ori x20, x26, 2 # perform operation
     e54:	002d6a13          	ori	x20,x26,2
  # Check if x20 contains the expected result. x12 is the signature ptr, x8 is the link ptr, x7 is a temp reg.
  RVTEST_SIGUPD(x12, x8, x7, x20, I_ori_cg_cr_rs1_imm_edges_rs1val_0x1_immval_0x2, I_ori_cg_cr_rs1_imm_edges_rs1val_0x1_immval_0x2_str)
     e58:	00062383          	lw	x7,0(x12)
     e5c:	01438863          	beq	x7,x20,e6c <I_ori_cg_cr_rs1_imm_edges_rs1val_0x1_immval_0x2+0x18>
     e60:	6540246f          	jal	x8,34b4 <failedtest_x8_x7>
     e64:	00000e54          	.word	0x00000e54
     e68:	00009bae          	.word	0x00009bae
     e6c:	00460613          	addi	x12,x12,4

# Testcase cr_rs1_imm_edges (rs1 = 0x00000001, imm = 3)
  RVTEST_TESTDATA_LOAD_INT(x1, x14) # load rs1: x14 = 0x00000001
     e70:	0000a703          	lw	x14,0(x1)
     e74:	00408093          	addi	x1,x1,4

00000e78 <I_ori_cg_cr_rs1_imm_edges_rs1val_0x1_immval_0x3>:
I_ori_cg_cr_rs1_imm_edges_rs1val_0x1_immval_0x3:
  ori x20, x14, 3 # perform operation
     e78:	00376a13          	ori	x20,x14,3
  # Check if x20 contains the expected result. x12 is the signature ptr, x8 is the link ptr, x7 is a temp reg.
  RVTEST_SIGUPD(x12, x8, x7, x20, I_ori_cg_cr_rs1_imm_edges_rs1val_0x1_immval_0x3, I_ori_cg_cr_rs1_imm_edges_rs1val_0x1_immval_0x3_str)
     e7c:	00062383          	lw	x7,0(x12)
     e80:	01438863          	beq	x7,x20,e90 <I_ori_cg_cr_rs1_imm_edges_rs1val_0x1_immval_0x3+0x18>
     e84:	6300246f          	jal	x8,34b4 <failedtest_x8_x7>
     e88:	00000e78          	.word	0x00000e78
     e8c:	00009bfa          	.word	0x00009bfa
     e90:	00460613          	addi	x12,x12,4

# Testcase cr_rs1_imm_edges (rs1 = 0x00000001, imm = 4)
  RVTEST_TESTDATA_LOAD_INT(x1, x6) # load rs1: x6 = 0x00000001
     e94:	0000a303          	lw	x6,0(x1)
     e98:	00408093          	addi	x1,x1,4

00000e9c <I_ori_cg_cr_rs1_imm_edges_rs1val_0x1_immval_0x4>:
I_ori_cg_cr_rs1_imm_edges_rs1val_0x1_immval_0x4:
  ori x21, x6, 4 # perform operation
     e9c:	00436a93          	ori	x21,x6,4
  # Check if x21 contains the expected result. x12 is the signature ptr, x8 is the link ptr, x7 is a temp reg.
  RVTEST_SIGUPD(x12, x8, x7, x21, I_ori_cg_cr_rs1_imm_edges_rs1val_0x1_immval_0x4, I_ori_cg_cr_rs1_imm_edges_rs1val_0x1_immval_0x4_str)
     ea0:	00062383          	lw	x7,0(x12)
     ea4:	01538863          	beq	x7,x21,eb4 <I_ori_cg_cr_rs1_imm_edges_rs1val_0x1_immval_0x4+0x18>
     ea8:	60c0246f          	jal	x8,34b4 <failedtest_x8_x7>
     eac:	00000e9c          	.word	0x00000e9c
     eb0:	00009c47          	.word	0x00009c47
     eb4:	00460613          	addi	x12,x12,4

# Testcase cr_rs1_imm_edges (rs1 = 0x00000001, imm = 8)
  RVTEST_TESTDATA_LOAD_INT(x1, x22) # load rs1: x22 = 0x00000001
     eb8:	0000ab03          	lw	x22,0(x1)
     ebc:	00408093          	addi	x1,x1,4

00000ec0 <I_ori_cg_cr_rs1_imm_edges_rs1val_0x1_immval_0x8>:
I_ori_cg_cr_rs1_imm_edges_rs1val_0x1_immval_0x8:
  ori x17, x22, 8 # perform operation
     ec0:	008b6893          	ori	x17,x22,8
  # Check if x17 contains the expected result. x12 is the signature ptr, x8 is the link ptr, x7 is a temp reg.
  RVTEST_SIGUPD(x12, x8, x7, x17, I_ori_cg_cr_rs1_imm_edges_rs1val_0x1_immval_0x8, I_ori_cg_cr_rs1_imm_edges_rs1val_0x1_immval_0x8_str)
     ec4:	00062383          	lw	x7,0(x12)
     ec8:	01138863          	beq	x7,x17,ed8 <I_ori_cg_cr_rs1_imm_edges_rs1val_0x1_immval_0x8+0x18>
     ecc:	5e80246f          	jal	x8,34b4 <failedtest_x8_x7>
     ed0:	00000ec0          	.word	0x00000ec0
     ed4:	00009c94          	.word	0x00009c94
     ed8:	00460613          	addi	x12,x12,4

# Testcase cr_rs1_imm_edges (rs1 = 0x00000001, imm = 16)
  RVTEST_TESTDATA_LOAD_INT(x1, x2) # load rs1: x2 = 0x00000001
     edc:	0000a103          	lw	x2,0(x1)
     ee0:	00408093          	addi	x1,x1,4

00000ee4 <I_ori_cg_cr_rs1_imm_edges_rs1val_0x1_immval_0x10>:
I_ori_cg_cr_rs1_imm_edges_rs1val_0x1_immval_0x10:
  ori x27, x2, 16 # perform operation
     ee4:	01016d93          	ori	x27,x2,16
  # Check if x27 contains the expected result. x12 is the signature ptr, x8 is the link ptr, x7 is a temp reg.
  RVTEST_SIGUPD(x12, x8, x7, x27, I_ori_cg_cr_rs1_imm_edges_rs1val_0x1_immval_0x10, I_ori_cg_cr_rs1_imm_edges_rs1val_0x1_immval_0x10_str)
     ee8:	00062383          	lw	x7,0(x12)
     eec:	01b38863          	beq	x7,x27,efc <I_ori_cg_cr_rs1_imm_edges_rs1val_0x1_immval_0x10+0x18>
     ef0:	5c40246f          	jal	x8,34b4 <failedtest_x8_x7>
     ef4:	00000ee4          	.word	0x00000ee4
     ef8:	00009ce1          	.word	0x00009ce1
     efc:	00460613          	addi	x12,x12,4

# Testcase cr_rs1_imm_edges (rs1 = 0x00000001, imm = 32)
  RVTEST_TESTDATA_LOAD_INT(x1, x4) # load rs1: x4 = 0x00000001
     f00:	0000a203          	lw	x4,0(x1)
     f04:	00408093          	addi	x1,x1,4

00000f08 <I_ori_cg_cr_rs1_imm_edges_rs1val_0x1_immval_0x20>:
I_ori_cg_cr_rs1_imm_edges_rs1val_0x1_immval_0x20:
  ori x14, x4, 32 # perform operation
     f08:	02026713          	ori	x14,x4,32
  # Check if x14 contains the expected result. x12 is the signature ptr, x8 is the link ptr, x7 is a temp reg.
  RVTEST_SIGUPD(x12, x8, x7, x14, I_ori_cg_cr_rs1_imm_edges_rs1val_0x1_immval_0x20, I_ori_cg_cr_rs1_imm_edges_rs1val_0x1_immval_0x20_str)
     f0c:	00062383          	lw	x7,0(x12)
     f10:	00e38863          	beq	x7,x14,f20 <I_ori_cg_cr_rs1_imm_edges_rs1val_0x1_immval_0x20+0x18>
     f14:	5a00246f          	jal	x8,34b4 <failedtest_x8_x7>
     f18:	00000f08          	.word	0x00000f08
     f1c:	00009d2f          	.word	0x00009d2f
     f20:	00460613          	addi	x12,x12,4

# Testcase cr_rs1_imm_edges (rs1 = 0x00000001, imm = 64)
  RVTEST_TESTDATA_LOAD_INT(x1, x2) # load rs1: x2 = 0x00000001
     f24:	0000a103          	lw	x2,0(x1)
     f28:	00408093          	addi	x1,x1,4

00000f2c <I_ori_cg_cr_rs1_imm_edges_rs1val_0x1_immval_0x40>:
I_ori_cg_cr_rs1_imm_edges_rs1val_0x1_immval_0x40:
  ori x21, x2, 64 # perform operation
     f2c:	04016a93          	ori	x21,x2,64
  # Check if x21 contains the expected result. x12 is the signature ptr, x8 is the link ptr, x7 is a temp reg.
  RVTEST_SIGUPD(x12, x8, x7, x21, I_ori_cg_cr_rs1_imm_edges_rs1val_0x1_immval_0x40, I_ori_cg_cr_rs1_imm_edges_rs1val_0x1_immval_0x40_str)
     f30:	00062383          	lw	x7,0(x12)
     f34:	01538863          	beq	x7,x21,f44 <I_ori_cg_cr_rs1_imm_edges_rs1val_0x1_immval_0x40+0x18>
     f38:	57c0246f          	jal	x8,34b4 <failedtest_x8_x7>
     f3c:	00000f2c          	.word	0x00000f2c
     f40:	00009d7d          	.word	0x00009d7d
     f44:	00460613          	addi	x12,x12,4

# Testcase cr_rs1_imm_edges (rs1 = 0x00000001, imm = 128)
  RVTEST_TESTDATA_LOAD_INT(x1, x9) # load rs1: x9 = 0x00000001
     f48:	0000a483          	lw	x9,0(x1)
     f4c:	00408093          	addi	x1,x1,4

00000f50 <I_ori_cg_cr_rs1_imm_edges_rs1val_0x1_immval_0x80>:
I_ori_cg_cr_rs1_imm_edges_rs1val_0x1_immval_0x80:
  ori x22, x9, 128 # perform operation
     f50:	0804eb13          	ori	x22,x9,128
  # Check if x22 contains the expected result. x12 is the signature ptr, x8 is the link ptr, x7 is a temp reg.
  RVTEST_SIGUPD(x12, x8, x7, x22, I_ori_cg_cr_rs1_imm_edges_rs1val_0x1_immval_0x80, I_ori_cg_cr_rs1_imm_edges_rs1val_0x1_immval_0x80_str)
     f54:	00062383          	lw	x7,0(x12)
     f58:	01638863          	beq	x7,x22,f68 <I_ori_cg_cr_rs1_imm_edges_rs1val_0x1_immval_0x80+0x18>
     f5c:	5580246f          	jal	x8,34b4 <failedtest_x8_x7>
     f60:	00000f50          	.word	0x00000f50
     f64:	00009dcb          	.word	0x00009dcb
     f68:	00460613          	addi	x12,x12,4

# Testcase cr_rs1_imm_edges (rs1 = 0x00000001, imm = 256)
  RVTEST_TESTDATA_LOAD_INT(x1, x5) # load rs1: x5 = 0x00000001
     f6c:	0000a283          	lw	x5,0(x1)
     f70:	00408093          	addi	x1,x1,4

00000f74 <I_ori_cg_cr_rs1_imm_edges_rs1val_0x1_immval_0x100>:
I_ori_cg_cr_rs1_imm_edges_rs1val_0x1_immval_0x100:
  ori x9, x5, 256 # perform operation
     f74:	1002e493          	ori	x9,x5,256
  # Check if x9 contains the expected result. x12 is the signature ptr, x8 is the link ptr, x7 is a temp reg.
  RVTEST_SIGUPD(x12, x8, x7, x9, I_ori_cg_cr_rs1_imm_edges_rs1val_0x1_immval_0x100, I_ori_cg_cr_rs1_imm_edges_rs1val_0x1_immval_0x100_str)
     f78:	00062383          	lw	x7,0(x12)
     f7c:	00938863          	beq	x7,x9,f8c <I_ori_cg_cr_rs1_imm_edges_rs1val_0x1_immval_0x100+0x18>
     f80:	5340246f          	jal	x8,34b4 <failedtest_x8_x7>
     f84:	00000f74          	.word	0x00000f74
     f88:	00009e19          	.word	0x00009e19
     f8c:	00460613          	addi	x12,x12,4

# Testcase cr_rs1_imm_edges (rs1 = 0x00000001, imm = 512)
  RVTEST_TESTDATA_LOAD_INT(x1, x23) # load rs1: x23 = 0x00000001
     f90:	0000ab83          	lw	x23,0(x1)
     f94:	00408093          	addi	x1,x1,4

00000f98 <I_ori_cg_cr_rs1_imm_edges_rs1val_0x1_immval_0x200>:
I_ori_cg_cr_rs1_imm_edges_rs1val_0x1_immval_0x200:
  ori x20, x23, 512 # perform operation
     f98:	200bea13          	ori	x20,x23,512
  # Check if x20 contains the expected result. x12 is the signature ptr, x8 is the link ptr, x7 is a temp reg.
  RVTEST_SIGUPD(x12, x8, x7, x20, I_ori_cg_cr_rs1_imm_edges_rs1val_0x1_immval_0x200, I_ori_cg_cr_rs1_imm_edges_rs1val_0x1_immval_0x200_str)
     f9c:	00062383          	lw	x7,0(x12)
     fa0:	01438863          	beq	x7,x20,fb0 <I_ori_cg_cr_rs1_imm_edges_rs1val_0x1_immval_0x200+0x18>
     fa4:	5100246f          	jal	x8,34b4 <failedtest_x8_x7>
     fa8:	00000f98          	.word	0x00000f98
     fac:	00009e68          	.word	0x00009e68
     fb0:	00460613          	addi	x12,x12,4

# Testcase cr_rs1_imm_edges (rs1 = 0x00000001, imm = 1023)
  RVTEST_TESTDATA_LOAD_INT(x1, x30) # load rs1: x30 = 0x00000001
     fb4:	0000af03          	lw	x30,0(x1)
     fb8:	00408093          	addi	x1,x1,4

00000fbc <I_ori_cg_cr_rs1_imm_edges_rs1val_0x1_immval_0x3ff>:
I_ori_cg_cr_rs1_imm_edges_rs1val_0x1_immval_0x3ff:
  ori x6, x30, 1023 # perform operation
     fbc:	3fff6313          	ori	x6,x30,1023
  # Check if x6 contains the expected result. x12 is the signature ptr, x8 is the link ptr, x7 is a temp reg.
  RVTEST_SIGUPD(x12, x8, x7, x6, I_ori_cg_cr_rs1_imm_edges_rs1val_0x1_immval_0x3ff, I_ori_cg_cr_rs1_imm_edges_rs1val_0x1_immval_0x3ff_str)
     fc0:	00062383          	lw	x7,0(x12)
     fc4:	00638863          	beq	x7,x6,fd4 <I_ori_cg_cr_rs1_imm_edges_rs1val_0x1_immval_0x3ff+0x18>
     fc8:	4ec0246f          	jal	x8,34b4 <failedtest_x8_x7>
     fcc:	00000fbc          	.word	0x00000fbc
     fd0:	00009eb7          	.word	0x00009eb7
     fd4:	00460613          	addi	x12,x12,4

# Testcase cr_rs1_imm_edges (rs1 = 0x00000001, imm = 1024)
  RVTEST_TESTDATA_LOAD_INT(x1, x25) # load rs1: x25 = 0x00000001
     fd8:	0000ac83          	lw	x25,0(x1)
     fdc:	00408093          	addi	x1,x1,4

00000fe0 <I_ori_cg_cr_rs1_imm_edges_rs1val_0x1_immval_0x400>:
I_ori_cg_cr_rs1_imm_edges_rs1val_0x1_immval_0x400:
  ori x3, x25, 1024 # perform operation
     fe0:	400ce193          	ori	x3,x25,1024
  # Check if x3 contains the expected result. x12 is the signature ptr, x8 is the link ptr, x7 is a temp reg.
  RVTEST_SIGUPD(x12, x8, x7, x3, I_ori_cg_cr_rs1_imm_edges_rs1val_0x1_immval_0x400, I_ori_cg_cr_rs1_imm_edges_rs1val_0x1_immval_0x400_str)
     fe4:	00062383          	lw	x7,0(x12)
     fe8:	00338863          	beq	x7,x3,ff8 <I_ori_cg_cr_rs1_imm_edges_rs1val_0x1_immval_0x400+0x18>
     fec:	4c80246f          	jal	x8,34b4 <failedtest_x8_x7>
     ff0:	00000fe0          	.word	0x00000fe0
     ff4:	00009f06          	.word	0x00009f06
     ff8:	00460613          	addi	x12,x12,4

# Testcase cr_rs1_imm_edges (rs1 = 0x00000001, imm = 1795)
  RVTEST_TESTDATA_LOAD_INT(x1, x19) # load rs1: x19 = 0x00000001
     ffc:	0000a983          	lw	x19,0(x1)
    1000:	00408093          	addi	x1,x1,4

00001004 <I_ori_cg_cr_rs1_imm_edges_rs1val_0x1_immval_0x703>:
I_ori_cg_cr_rs1_imm_edges_rs1val_0x1_immval_0x703:
  ori x14, x19, 1795 # perform operation
    1004:	7039e713          	ori	x14,x19,1795
  # Check if x14 contains the expected result. x12 is the signature ptr, x8 is the link ptr, x7 is a temp reg.
  RVTEST_SIGUPD(x12, x8, x7, x14, I_ori_cg_cr_rs1_imm_edges_rs1val_0x1_immval_0x703, I_ori_cg_cr_rs1_imm_edges_rs1val_0x1_immval_0x703_str)
    1008:	00062383          	lw	x7,0(x12)
    100c:	00e38863          	beq	x7,x14,101c <I_ori_cg_cr_rs1_imm_edges_rs1val_0x1_immval_0x703+0x18>
    1010:	4a40246f          	jal	x8,34b4 <failedtest_x8_x7>
    1014:	00001004          	.word	0x00001004
    1018:	00009f55          	.word	0x00009f55
    101c:	00460613          	addi	x12,x12,4

# Testcase cr_rs1_imm_edges (rs1 = 0x00000001, imm = 2047)
  RVTEST_TESTDATA_LOAD_INT(x1, x19) # load rs1: x19 = 0x00000001
    1020:	0000a983          	lw	x19,0(x1)
    1024:	00408093          	addi	x1,x1,4

00001028 <I_ori_cg_cr_rs1_imm_edges_rs1val_0x1_immval_0x7ff>:
I_ori_cg_cr_rs1_imm_edges_rs1val_0x1_immval_0x7ff:
  ori x28, x19, 2047 # perform operation
    1028:	7ff9ee13          	ori	x28,x19,2047
  # Check if x28 contains the expected result. x12 is the signature ptr, x8 is the link ptr, x7 is a temp reg.
  RVTEST_SIGUPD(x12, x8, x7, x28, I_ori_cg_cr_rs1_imm_edges_rs1val_0x1_immval_0x7ff, I_ori_cg_cr_rs1_imm_edges_rs1val_0x1_immval_0x7ff_str)
    102c:	00062383          	lw	x7,0(x12)
    1030:	01c38863          	beq	x7,x28,1040 <I_ori_cg_cr_rs1_imm_edges_rs1val_0x1_immval_0x7ff+0x18>
    1034:	4800246f          	jal	x8,34b4 <failedtest_x8_x7>
    1038:	00001028          	.word	0x00001028
    103c:	00009fa4          	.word	0x00009fa4
    1040:	00460613          	addi	x12,x12,4

# Testcase cr_rs1_imm_edges (rs1 = 0x00000001, imm = -2048)
  RVTEST_TESTDATA_LOAD_INT(x1, x20) # load rs1: x20 = 0x00000001
    1044:	0000aa03          	lw	x20,0(x1)
    1048:	00408093          	addi	x1,x1,4

0000104c <I_ori_cg_cr_rs1_imm_edges_rs1val_0x1_immval_m0x800>:
I_ori_cg_cr_rs1_imm_edges_rs1val_0x1_immval_m0x800:
  ori x26, x20, -2048 # perform operation
    104c:	800a6d13          	ori	x26,x20,-2048
  # Check if x26 contains the expected result. x12 is the signature ptr, x8 is the link ptr, x7 is a temp reg.
  RVTEST_SIGUPD(x12, x8, x7, x26, I_ori_cg_cr_rs1_imm_edges_rs1val_0x1_immval_m0x800, I_ori_cg_cr_rs1_imm_edges_rs1val_0x1_immval_m0x800_str)
    1050:	00062383          	lw	x7,0(x12)
    1054:	01a38863          	beq	x7,x26,1064 <I_ori_cg_cr_rs1_imm_edges_rs1val_0x1_immval_m0x800+0x18>
    1058:	45c0246f          	jal	x8,34b4 <failedtest_x8_x7>
    105c:	0000104c          	.word	0x0000104c
    1060:	00009ff3          	.word	0x00009ff3
    1064:	00460613          	addi	x12,x12,4

# Testcase cr_rs1_imm_edges (rs1 = 0x00000001, imm = -2047)
  RVTEST_TESTDATA_LOAD_INT(x1, x5) # load rs1: x5 = 0x00000001
    1068:	0000a283          	lw	x5,0(x1)
    106c:	00408093          	addi	x1,x1,4

00001070 <I_ori_cg_cr_rs1_imm_edges_rs1val_0x1_immval_m0x7ff>:
I_ori_cg_cr_rs1_imm_edges_rs1val_0x1_immval_m0x7ff:
  ori x29, x5, -2047 # perform operation
    1070:	8012ee93          	ori	x29,x5,-2047
  # Check if x29 contains the expected result. x12 is the signature ptr, x8 is the link ptr, x7 is a temp reg.
  RVTEST_SIGUPD(x12, x8, x7, x29, I_ori_cg_cr_rs1_imm_edges_rs1val_0x1_immval_m0x7ff, I_ori_cg_cr_rs1_imm_edges_rs1val_0x1_immval_m0x7ff_str)
    1074:	00062383          	lw	x7,0(x12)
    1078:	01d38863          	beq	x7,x29,1088 <I_ori_cg_cr_rs1_imm_edges_rs1val_0x1_immval_m0x7ff+0x18>
    107c:	4380246f          	jal	x8,34b4 <failedtest_x8_x7>
    1080:	00001070          	.word	0x00001070
    1084:	0000a043          	.word	0x0000a043
    1088:	00460613          	addi	x12,x12,4

# Testcase cr_rs1_imm_edges (rs1 = 0x00000001, imm = -2)
  RVTEST_TESTDATA_LOAD_INT(x1, x19) # load rs1: x19 = 0x00000001
    108c:	0000a983          	lw	x19,0(x1)
    1090:	00408093          	addi	x1,x1,4

00001094 <I_ori_cg_cr_rs1_imm_edges_rs1val_0x1_immval_m0x2>:
I_ori_cg_cr_rs1_imm_edges_rs1val_0x1_immval_m0x2:
  ori x3, x19, -2 # perform operation
    1094:	ffe9e193          	ori	x3,x19,-2
  # Check if x3 contains the expected result. x12 is the signature ptr, x8 is the link ptr, x7 is a temp reg.
  RVTEST_SIGUPD(x12, x8, x7, x3, I_ori_cg_cr_rs1_imm_edges_rs1val_0x1_immval_m0x2, I_ori_cg_cr_rs1_imm_edges_rs1val_0x1_immval_m0x2_str)
    1098:	00062383          	lw	x7,0(x12)
    109c:	00338863          	beq	x7,x3,10ac <I_ori_cg_cr_rs1_imm_edges_rs1val_0x1_immval_m0x2+0x18>
    10a0:	4140246f          	jal	x8,34b4 <failedtest_x8_x7>
    10a4:	00001094          	.word	0x00001094
    10a8:	0000a093          	.word	0x0000a093
    10ac:	00460613          	addi	x12,x12,4

# Testcase cr_rs1_imm_edges (rs1 = 0x00000001, imm = -1)
  RVTEST_TESTDATA_LOAD_INT(x1, x27) # load rs1: x27 = 0x00000001
    10b0:	0000ad83          	lw	x27,0(x1)
    10b4:	00408093          	addi	x1,x1,4

000010b8 <I_ori_cg_cr_rs1_imm_edges_rs1val_0x1_immval_m0x1>:
I_ori_cg_cr_rs1_imm_edges_rs1val_0x1_immval_m0x1:
  ori x6, x27, -1 # perform operation
    10b8:	fffde313          	ori	x6,x27,-1
  # Check if x6 contains the expected result. x12 is the signature ptr, x8 is the link ptr, x7 is a temp reg.
  RVTEST_SIGUPD(x12, x8, x7, x6, I_ori_cg_cr_rs1_imm_edges_rs1val_0x1_immval_m0x1, I_ori_cg_cr_rs1_imm_edges_rs1val_0x1_immval_m0x1_str)
    10bc:	00062383          	lw	x7,0(x12)
    10c0:	00638863          	beq	x7,x6,10d0 <I_ori_cg_cr_rs1_imm_edges_rs1val_0x1_immval_m0x1+0x18>
    10c4:	3f00246f          	jal	x8,34b4 <failedtest_x8_x7>
    10c8:	000010b8          	.word	0x000010b8
    10cc:	0000a0e1          	.word	0x0000a0e1
    10d0:	00460613          	addi	x12,x12,4

# Testcase cr_rs1_imm_edges (rs1 = 0x00000002, imm = 0)
  RVTEST_TESTDATA_LOAD_INT(x1, x13) # load rs1: x13 = 0x00000002
    10d4:	0000a683          	lw	x13,0(x1)
    10d8:	00408093          	addi	x1,x1,4

000010dc <I_ori_cg_cr_rs1_imm_edges_rs1val_0x2_immval_0x0>:
I_ori_cg_cr_rs1_imm_edges_rs1val_0x2_immval_0x0:
  ori x3, x13, 0 # perform operation
    10dc:	0006e193          	ori	x3,x13,0
  # Check if x3 contains the expected result. x12 is the signature ptr, x8 is the link ptr, x7 is a temp reg.
  RVTEST_SIGUPD(x12, x8, x7, x3, I_ori_cg_cr_rs1_imm_edges_rs1val_0x2_immval_0x0, I_ori_cg_cr_rs1_imm_edges_rs1val_0x2_immval_0x0_str)
    10e0:	00062383          	lw	x7,0(x12)
    10e4:	00338863          	beq	x7,x3,10f4 <I_ori_cg_cr_rs1_imm_edges_rs1val_0x2_immval_0x0+0x18>
    10e8:	3cc0246f          	jal	x8,34b4 <failedtest_x8_x7>
    10ec:	000010dc          	.word	0x000010dc
    10f0:	0000a12f          	.word	0x0000a12f
    10f4:	00460613          	addi	x12,x12,4

# Testcase cr_rs1_imm_edges (rs1 = 0x00000002, imm = 1)
  RVTEST_TESTDATA_LOAD_INT(x1, x16) # load rs1: x16 = 0x00000002
    10f8:	0000a803          	lw	x16,0(x1)
    10fc:	00408093          	addi	x1,x1,4

00001100 <I_ori_cg_cr_rs1_imm_edges_rs1val_0x2_immval_0x1>:
I_ori_cg_cr_rs1_imm_edges_rs1val_0x2_immval_0x1:
  ori x29, x16, 1 # perform operation
    1100:	00186e93          	ori	x29,x16,1
  # Check if x29 contains the expected result. x12 is the signature ptr, x8 is the link ptr, x7 is a temp reg.
  RVTEST_SIGUPD(x12, x8, x7, x29, I_ori_cg_cr_rs1_imm_edges_rs1val_0x2_immval_0x1, I_ori_cg_cr_rs1_imm_edges_rs1val_0x2_immval_0x1_str)
    1104:	00062383          	lw	x7,0(x12)
    1108:	01d38863          	beq	x7,x29,1118 <I_ori_cg_cr_rs1_imm_edges_rs1val_0x2_immval_0x1+0x18>
    110c:	3a80246f          	jal	x8,34b4 <failedtest_x8_x7>
    1110:	00001100          	.word	0x00001100
    1114:	0000a17c          	.word	0x0000a17c
    1118:	00460613          	addi	x12,x12,4

# Testcase cr_rs1_imm_edges (rs1 = 0x00000002, imm = 2)
  RVTEST_TESTDATA_LOAD_INT(x1, x2) # load rs1: x2 = 0x00000002
    111c:	0000a103          	lw	x2,0(x1)
    1120:	00408093          	addi	x1,x1,4

00001124 <I_ori_cg_cr_rs1_imm_edges_rs1val_0x2_immval_0x2>:
I_ori_cg_cr_rs1_imm_edges_rs1val_0x2_immval_0x2:
  ori x27, x2, 2 # perform operation
    1124:	00216d93          	ori	x27,x2,2
  # Check if x27 contains the expected result. x12 is the signature ptr, x8 is the link ptr, x7 is a temp reg.
  RVTEST_SIGUPD(x12, x8, x7, x27, I_ori_cg_cr_rs1_imm_edges_rs1val_0x2_immval_0x2, I_ori_cg_cr_rs1_imm_edges_rs1val_0x2_immval_0x2_str)
    1128:	00062383          	lw	x7,0(x12)
    112c:	01b38863          	beq	x7,x27,113c <I_ori_cg_cr_rs1_imm_edges_rs1val_0x2_immval_0x2+0x18>
    1130:	3840246f          	jal	x8,34b4 <failedtest_x8_x7>
    1134:	00001124          	.word	0x00001124
    1138:	0000a1c9          	.word	0x0000a1c9
    113c:	00460613          	addi	x12,x12,4

# Testcase cr_rs1_imm_edges (rs1 = 0x00000002, imm = 3)
  RVTEST_TESTDATA_LOAD_INT(x1, x27) # load rs1: x27 = 0x00000002
    1140:	0000ad83          	lw	x27,0(x1)
    1144:	00408093          	addi	x1,x1,4

00001148 <I_ori_cg_cr_rs1_imm_edges_rs1val_0x2_immval_0x3>:
I_ori_cg_cr_rs1_imm_edges_rs1val_0x2_immval_0x3:
  ori x5, x27, 3 # perform operation
    1148:	003de293          	ori	x5,x27,3
  # Check if x5 contains the expected result. x12 is the signature ptr, x8 is the link ptr, x7 is a temp reg.
  RVTEST_SIGUPD(x12, x8, x7, x5, I_ori_cg_cr_rs1_imm_edges_rs1val_0x2_immval_0x3, I_ori_cg_cr_rs1_imm_edges_rs1val_0x2_immval_0x3_str)
    114c:	00062383          	lw	x7,0(x12)
    1150:	00538863          	beq	x7,x5,1160 <I_ori_cg_cr_rs1_imm_edges_rs1val_0x2_immval_0x3+0x18>
    1154:	3600246f          	jal	x8,34b4 <failedtest_x8_x7>
    1158:	00001148          	.word	0x00001148
    115c:	0000a216          	.word	0x0000a216
    1160:	00460613          	addi	x12,x12,4

# Testcase cr_rs1_imm_edges (rs1 = 0x00000002, imm = 4)
  RVTEST_TESTDATA_LOAD_INT(x1, x10) # load rs1: x10 = 0x00000002
    1164:	0000a503          	lw	x10,0(x1)
    1168:	00408093          	addi	x1,x1,4

0000116c <I_ori_cg_cr_rs1_imm_edges_rs1val_0x2_immval_0x4>:
I_ori_cg_cr_rs1_imm_edges_rs1val_0x2_immval_0x4:
  ori x20, x10, 4 # perform operation
    116c:	00456a13          	ori	x20,x10,4
  # Check if x20 contains the expected result. x12 is the signature ptr, x8 is the link ptr, x7 is a temp reg.
  RVTEST_SIGUPD(x12, x8, x7, x20, I_ori_cg_cr_rs1_imm_edges_rs1val_0x2_immval_0x4, I_ori_cg_cr_rs1_imm_edges_rs1val_0x2_immval_0x4_str)
    1170:	00062383          	lw	x7,0(x12)
    1174:	01438863          	beq	x7,x20,1184 <I_ori_cg_cr_rs1_imm_edges_rs1val_0x2_immval_0x4+0x18>
    1178:	33c0246f          	jal	x8,34b4 <failedtest_x8_x7>
    117c:	0000116c          	.word	0x0000116c
    1180:	0000a263          	.word	0x0000a263
    1184:	00460613          	addi	x12,x12,4

# Testcase cr_rs1_imm_edges (rs1 = 0x00000002, imm = 8)
  RVTEST_TESTDATA_LOAD_INT(x1, x10) # load rs1: x10 = 0x00000002
    1188:	0000a503          	lw	x10,0(x1)
    118c:	00408093          	addi	x1,x1,4

00001190 <I_ori_cg_cr_rs1_imm_edges_rs1val_0x2_immval_0x8>:
I_ori_cg_cr_rs1_imm_edges_rs1val_0x2_immval_0x8:
  ori x4, x10, 8 # perform operation
    1190:	00856213          	ori	x4,x10,8
  # Check if x4 contains the expected result. x12 is the signature ptr, x8 is the link ptr, x7 is a temp reg.
  RVTEST_SIGUPD(x12, x8, x7, x4, I_ori_cg_cr_rs1_imm_edges_rs1val_0x2_immval_0x8, I_ori_cg_cr_rs1_imm_edges_rs1val_0x2_immval_0x8_str)
    1194:	00062383          	lw	x7,0(x12)
    1198:	00438863          	beq	x7,x4,11a8 <I_ori_cg_cr_rs1_imm_edges_rs1val_0x2_immval_0x8+0x18>
    119c:	3180246f          	jal	x8,34b4 <failedtest_x8_x7>
    11a0:	00001190          	.word	0x00001190
    11a4:	0000a2b0          	.word	0x0000a2b0
    11a8:	00460613          	addi	x12,x12,4

# Testcase cr_rs1_imm_edges (rs1 = 0x00000002, imm = 16)
  RVTEST_TESTDATA_LOAD_INT(x1, x13) # load rs1: x13 = 0x00000002
    11ac:	0000a683          	lw	x13,0(x1)
    11b0:	00408093          	addi	x1,x1,4

000011b4 <I_ori_cg_cr_rs1_imm_edges_rs1val_0x2_immval_0x10>:
I_ori_cg_cr_rs1_imm_edges_rs1val_0x2_immval_0x10:
  ori x11, x13, 16 # perform operation
    11b4:	0106e593          	ori	x11,x13,16
  # Check if x11 contains the expected result. x12 is the signature ptr, x8 is the link ptr, x7 is a temp reg.
  RVTEST_SIGUPD(x12, x8, x7, x11, I_ori_cg_cr_rs1_imm_edges_rs1val_0x2_immval_0x10, I_ori_cg_cr_rs1_imm_edges_rs1val_0x2_immval_0x10_str)
    11b8:	00062383          	lw	x7,0(x12)
    11bc:	00b38863          	beq	x7,x11,11cc <I_ori_cg_cr_rs1_imm_edges_rs1val_0x2_immval_0x10+0x18>
    11c0:	2f40246f          	jal	x8,34b4 <failedtest_x8_x7>
    11c4:	000011b4          	.word	0x000011b4
    11c8:	0000a2fd          	.word	0x0000a2fd
    11cc:	00460613          	addi	x12,x12,4

# Testcase cr_rs1_imm_edges (rs1 = 0x00000002, imm = 32)
  RVTEST_TESTDATA_LOAD_INT(x1, x25) # load rs1: x25 = 0x00000002
    11d0:	0000ac83          	lw	x25,0(x1)
    11d4:	00408093          	addi	x1,x1,4

000011d8 <I_ori_cg_cr_rs1_imm_edges_rs1val_0x2_immval_0x20>:
I_ori_cg_cr_rs1_imm_edges_rs1val_0x2_immval_0x20:
  ori x14, x25, 32 # perform operation
    11d8:	020ce713          	ori	x14,x25,32
  # Check if x14 contains the expected result. x12 is the signature ptr, x8 is the link ptr, x7 is a temp reg.
  RVTEST_SIGUPD(x12, x8, x7, x14, I_ori_cg_cr_rs1_imm_edges_rs1val_0x2_immval_0x20, I_ori_cg_cr_rs1_imm_edges_rs1val_0x2_immval_0x20_str)
    11dc:	00062383          	lw	x7,0(x12)
    11e0:	00e38863          	beq	x7,x14,11f0 <I_ori_cg_cr_rs1_imm_edges_rs1val_0x2_immval_0x20+0x18>
    11e4:	2d00246f          	jal	x8,34b4 <failedtest_x8_x7>
    11e8:	000011d8          	.word	0x000011d8
    11ec:	0000a34b          	.word	0x0000a34b
    11f0:	00460613          	addi	x12,x12,4

# Testcase cr_rs1_imm_edges (rs1 = 0x00000002, imm = 64)
  RVTEST_TESTDATA_LOAD_INT(x1, x19) # load rs1: x19 = 0x00000002
    11f4:	0000a983          	lw	x19,0(x1)
    11f8:	00408093          	addi	x1,x1,4

000011fc <I_ori_cg_cr_rs1_imm_edges_rs1val_0x2_immval_0x40>:
I_ori_cg_cr_rs1_imm_edges_rs1val_0x2_immval_0x40:
  ori x28, x19, 64 # perform operation
    11fc:	0409ee13          	ori	x28,x19,64
  # Check if x28 contains the expected result. x12 is the signature ptr, x8 is the link ptr, x7 is a temp reg.
  RVTEST_SIGUPD(x12, x8, x7, x28, I_ori_cg_cr_rs1_imm_edges_rs1val_0x2_immval_0x40, I_ori_cg_cr_rs1_imm_edges_rs1val_0x2_immval_0x40_str)
    1200:	00062383          	lw	x7,0(x12)
    1204:	01c38863          	beq	x7,x28,1214 <I_ori_cg_cr_rs1_imm_edges_rs1val_0x2_immval_0x40+0x18>
    1208:	2ac0246f          	jal	x8,34b4 <failedtest_x8_x7>
    120c:	000011fc          	.word	0x000011fc
    1210:	0000a399          	.word	0x0000a399
    1214:	00460613          	addi	x12,x12,4

# Testcase cr_rs1_imm_edges (rs1 = 0x00000002, imm = 128)
  RVTEST_TESTDATA_LOAD_INT(x1, x22) # load rs1: x22 = 0x00000002
    1218:	0000ab03          	lw	x22,0(x1)
    121c:	00408093          	addi	x1,x1,4

00001220 <I_ori_cg_cr_rs1_imm_edges_rs1val_0x2_immval_0x80>:
I_ori_cg_cr_rs1_imm_edges_rs1val_0x2_immval_0x80:
  ori x13, x22, 128 # perform operation
    1220:	080b6693          	ori	x13,x22,128
  # Check if x13 contains the expected result. x12 is the signature ptr, x8 is the link ptr, x7 is a temp reg.
  RVTEST_SIGUPD(x12, x8, x7, x13, I_ori_cg_cr_rs1_imm_edges_rs1val_0x2_immval_0x80, I_ori_cg_cr_rs1_imm_edges_rs1val_0x2_immval_0x80_str)
    1224:	00062383          	lw	x7,0(x12)
    1228:	00d38863          	beq	x7,x13,1238 <I_ori_cg_cr_rs1_imm_edges_rs1val_0x2_immval_0x80+0x18>
    122c:	2880246f          	jal	x8,34b4 <failedtest_x8_x7>
    1230:	00001220          	.word	0x00001220
    1234:	0000a3e7          	.word	0x0000a3e7
    1238:	00460613          	addi	x12,x12,4

# Testcase cr_rs1_imm_edges (rs1 = 0x00000002, imm = 256)
  RVTEST_TESTDATA_LOAD_INT(x1, x18) # load rs1: x18 = 0x00000002
    123c:	0000a903          	lw	x18,0(x1)
    1240:	00408093          	addi	x1,x1,4

00001244 <I_ori_cg_cr_rs1_imm_edges_rs1val_0x2_immval_0x100>:
I_ori_cg_cr_rs1_imm_edges_rs1val_0x2_immval_0x100:
  ori x22, x18, 256 # perform operation
    1244:	10096b13          	ori	x22,x18,256
  # Check if x22 contains the expected result. x12 is the signature ptr, x8 is the link ptr, x7 is a temp reg.
  RVTEST_SIGUPD(x12, x8, x7, x22, I_ori_cg_cr_rs1_imm_edges_rs1val_0x2_immval_0x100, I_ori_cg_cr_rs1_imm_edges_rs1val_0x2_immval_0x100_str)
    1248:	00062383          	lw	x7,0(x12)
    124c:	01638863          	beq	x7,x22,125c <I_ori_cg_cr_rs1_imm_edges_rs1val_0x2_immval_0x100+0x18>
    1250:	2640246f          	jal	x8,34b4 <failedtest_x8_x7>
    1254:	00001244          	.word	0x00001244
    1258:	0000a435          	.word	0x0000a435
    125c:	00460613          	addi	x12,x12,4

# Testcase cr_rs1_imm_edges (rs1 = 0x00000002, imm = 512)
  RVTEST_TESTDATA_LOAD_INT(x1, x15) # load rs1: x15 = 0x00000002
    1260:	0000a783          	lw	x15,0(x1)
    1264:	00408093          	addi	x1,x1,4

00001268 <I_ori_cg_cr_rs1_imm_edges_rs1val_0x2_immval_0x200>:
I_ori_cg_cr_rs1_imm_edges_rs1val_0x2_immval_0x200:
  ori x18, x15, 512 # perform operation
    1268:	2007e913          	ori	x18,x15,512
  # Check if x18 contains the expected result. x12 is the signature ptr, x8 is the link ptr, x7 is a temp reg.
  RVTEST_SIGUPD(x12, x8, x7, x18, I_ori_cg_cr_rs1_imm_edges_rs1val_0x2_immval_0x200, I_ori_cg_cr_rs1_imm_edges_rs1val_0x2_immval_0x200_str)
    126c:	00062383          	lw	x7,0(x12)
    1270:	01238863          	beq	x7,x18,1280 <I_ori_cg_cr_rs1_imm_edges_rs1val_0x2_immval_0x200+0x18>
    1274:	2400246f          	jal	x8,34b4 <failedtest_x8_x7>
    1278:	00001268          	.word	0x00001268
    127c:	0000a484          	.word	0x0000a484
    1280:	00460613          	addi	x12,x12,4

# Testcase cr_rs1_imm_edges (rs1 = 0x00000002, imm = 1023)
  RVTEST_TESTDATA_LOAD_INT(x1, x29) # load rs1: x29 = 0x00000002
    1284:	0000ae83          	lw	x29,0(x1)
    1288:	00408093          	addi	x1,x1,4

0000128c <I_ori_cg_cr_rs1_imm_edges_rs1val_0x2_immval_0x3ff>:
I_ori_cg_cr_rs1_imm_edges_rs1val_0x2_immval_0x3ff:
  ori x27, x29, 1023 # perform operation
    128c:	3ffeed93          	ori	x27,x29,1023
  # Check if x27 contains the expected result. x12 is the signature ptr, x8 is the link ptr, x7 is a temp reg.
  RVTEST_SIGUPD(x12, x8, x7, x27, I_ori_cg_cr_rs1_imm_edges_rs1val_0x2_immval_0x3ff, I_ori_cg_cr_rs1_imm_edges_rs1val_0x2_immval_0x3ff_str)
    1290:	00062383          	lw	x7,0(x12)
    1294:	01b38863          	beq	x7,x27,12a4 <I_ori_cg_cr_rs1_imm_edges_rs1val_0x2_immval_0x3ff+0x18>
    1298:	21c0246f          	jal	x8,34b4 <failedtest_x8_x7>
    129c:	0000128c          	.word	0x0000128c
    12a0:	0000a4d3          	.word	0x0000a4d3
    12a4:	00460613          	addi	x12,x12,4

# Testcase cr_rs1_imm_edges (rs1 = 0x00000002, imm = 1024)
  RVTEST_TESTDATA_LOAD_INT(x1, x22) # load rs1: x22 = 0x00000002
    12a8:	0000ab03          	lw	x22,0(x1)
    12ac:	00408093          	addi	x1,x1,4

000012b0 <I_ori_cg_cr_rs1_imm_edges_rs1val_0x2_immval_0x400>:
I_ori_cg_cr_rs1_imm_edges_rs1val_0x2_immval_0x400:
  ori x24, x22, 1024 # perform operation
    12b0:	400b6c13          	ori	x24,x22,1024
  # Check if x24 contains the expected result. x12 is the signature ptr, x8 is the link ptr, x7 is a temp reg.
  RVTEST_SIGUPD(x12, x8, x7, x24, I_ori_cg_cr_rs1_imm_edges_rs1val_0x2_immval_0x400, I_ori_cg_cr_rs1_imm_edges_rs1val_0x2_immval_0x400_str)
    12b4:	00062383          	lw	x7,0(x12)
    12b8:	01838863          	beq	x7,x24,12c8 <I_ori_cg_cr_rs1_imm_edges_rs1val_0x2_immval_0x400+0x18>
    12bc:	1f80246f          	jal	x8,34b4 <failedtest_x8_x7>
    12c0:	000012b0          	.word	0x000012b0
    12c4:	0000a522          	.word	0x0000a522
    12c8:	00460613          	addi	x12,x12,4

# Testcase cr_rs1_imm_edges (rs1 = 0x00000002, imm = 1795)
  RVTEST_TESTDATA_LOAD_INT(x1, x6) # load rs1: x6 = 0x00000002
    12cc:	0000a303          	lw	x6,0(x1)
    12d0:	00408093          	addi	x1,x1,4

000012d4 <I_ori_cg_cr_rs1_imm_edges_rs1val_0x2_immval_0x703>:
I_ori_cg_cr_rs1_imm_edges_rs1val_0x2_immval_0x703:
  ori x13, x6, 1795 # perform operation
    12d4:	70336693          	ori	x13,x6,1795
  # Check if x13 contains the expected result. x12 is the signature ptr, x8 is the link ptr, x7 is a temp reg.
  RVTEST_SIGUPD(x12, x8, x7, x13, I_ori_cg_cr_rs1_imm_edges_rs1val_0x2_immval_0x703, I_ori_cg_cr_rs1_imm_edges_rs1val_0x2_immval_0x703_str)
    12d8:	00062383          	lw	x7,0(x12)
    12dc:	00d38863          	beq	x7,x13,12ec <I_ori_cg_cr_rs1_imm_edges_rs1val_0x2_immval_0x703+0x18>
    12e0:	1d40246f          	jal	x8,34b4 <failedtest_x8_x7>
    12e4:	000012d4          	.word	0x000012d4
    12e8:	0000a571          	.word	0x0000a571
    12ec:	00460613          	addi	x12,x12,4

# Testcase cr_rs1_imm_edges (rs1 = 0x00000002, imm = 2047)
  RVTEST_TESTDATA_LOAD_INT(x1, x4) # load rs1: x4 = 0x00000002
    12f0:	0000a203          	lw	x4,0(x1)
    12f4:	00408093          	addi	x1,x1,4

000012f8 <I_ori_cg_cr_rs1_imm_edges_rs1val_0x2_immval_0x7ff>:
I_ori_cg_cr_rs1_imm_edges_rs1val_0x2_immval_0x7ff:
  ori x15, x4, 2047 # perform operation
    12f8:	7ff26793          	ori	x15,x4,2047
  # Check if x15 contains the expected result. x12 is the signature ptr, x8 is the link ptr, x7 is a temp reg.
  RVTEST_SIGUPD(x12, x8, x7, x15, I_ori_cg_cr_rs1_imm_edges_rs1val_0x2_immval_0x7ff, I_ori_cg_cr_rs1_imm_edges_rs1val_0x2_immval_0x7ff_str)
    12fc:	00062383          	lw	x7,0(x12)
    1300:	00f38863          	beq	x7,x15,1310 <I_ori_cg_cr_rs1_imm_edges_rs1val_0x2_immval_0x7ff+0x18>
    1304:	1b00246f          	jal	x8,34b4 <failedtest_x8_x7>
    1308:	000012f8          	.word	0x000012f8
    130c:	0000a5c0          	.word	0x0000a5c0
    1310:	00460613          	addi	x12,x12,4

# Testcase cr_rs1_imm_edges (rs1 = 0x00000002, imm = -2048)
  RVTEST_TESTDATA_LOAD_INT(x1, x20) # load rs1: x20 = 0x00000002
    1314:	0000aa03          	lw	x20,0(x1)
    1318:	00408093          	addi	x1,x1,4

0000131c <I_ori_cg_cr_rs1_imm_edges_rs1val_0x2_immval_m0x800>:
I_ori_cg_cr_rs1_imm_edges_rs1val_0x2_immval_m0x800:
  ori x25, x20, -2048 # perform operation
    131c:	800a6c93          	ori	x25,x20,-2048
  # Check if x25 contains the expected result. x12 is the signature ptr, x8 is the link ptr, x7 is a temp reg.
  RVTEST_SIGUPD(x12, x8, x7, x25, I_ori_cg_cr_rs1_imm_edges_rs1val_0x2_immval_m0x800, I_ori_cg_cr_rs1_imm_edges_rs1val_0x2_immval_m0x800_str)
    1320:	00062383          	lw	x7,0(x12)
    1324:	01938863          	beq	x7,x25,1334 <I_ori_cg_cr_rs1_imm_edges_rs1val_0x2_immval_m0x800+0x18>
    1328:	18c0246f          	jal	x8,34b4 <failedtest_x8_x7>
    132c:	0000131c          	.word	0x0000131c
    1330:	0000a60f          	.word	0x0000a60f
    1334:	00460613          	addi	x12,x12,4

# Testcase cr_rs1_imm_edges (rs1 = 0x00000002, imm = -2047)
  RVTEST_TESTDATA_LOAD_INT(x1, x22) # load rs1: x22 = 0x00000002
    1338:	0000ab03          	lw	x22,0(x1)
    133c:	00408093          	addi	x1,x1,4

00001340 <I_ori_cg_cr_rs1_imm_edges_rs1val_0x2_immval_m0x7ff>:
I_ori_cg_cr_rs1_imm_edges_rs1val_0x2_immval_m0x7ff:
  ori x5, x22, -2047 # perform operation
    1340:	801b6293          	ori	x5,x22,-2047
  # Check if x5 contains the expected result. x12 is the signature ptr, x8 is the link ptr, x7 is a temp reg.
  RVTEST_SIGUPD(x12, x8, x7, x5, I_ori_cg_cr_rs1_imm_edges_rs1val_0x2_immval_m0x7ff, I_ori_cg_cr_rs1_imm_edges_rs1val_0x2_immval_m0x7ff_str)
    1344:	00062383          	lw	x7,0(x12)
    1348:	00538863          	beq	x7,x5,1358 <I_ori_cg_cr_rs1_imm_edges_rs1val_0x2_immval_m0x7ff+0x18>
    134c:	1680246f          	jal	x8,34b4 <failedtest_x8_x7>
    1350:	00001340          	.word	0x00001340
    1354:	0000a65f          	.word	0x0000a65f
    1358:	00460613          	addi	x12,x12,4

# Testcase cr_rs1_imm_edges (rs1 = 0x00000002, imm = -2)
  RVTEST_TESTDATA_LOAD_INT(x1, x25) # load rs1: x25 = 0x00000002
    135c:	0000ac83          	lw	x25,0(x1)
    1360:	00408093          	addi	x1,x1,4

00001364 <I_ori_cg_cr_rs1_imm_edges_rs1val_0x2_immval_m0x2>:
I_ori_cg_cr_rs1_imm_edges_rs1val_0x2_immval_m0x2:
  ori x21, x25, -2 # perform operation
    1364:	ffecea93          	ori	x21,x25,-2
  # Check if x21 contains the expected result. x12 is the signature ptr, x8 is the link ptr, x7 is a temp reg.
  RVTEST_SIGUPD(x12, x8, x7, x21, I_ori_cg_cr_rs1_imm_edges_rs1val_0x2_immval_m0x2, I_ori_cg_cr_rs1_imm_edges_rs1val_0x2_immval_m0x2_str)
    1368:	00062383          	lw	x7,0(x12)
    136c:	01538863          	beq	x7,x21,137c <I_ori_cg_cr_rs1_imm_edges_rs1val_0x2_immval_m0x2+0x18>
    1370:	1440246f          	jal	x8,34b4 <failedtest_x8_x7>
    1374:	00001364          	.word	0x00001364
    1378:	0000a6af          	.word	0x0000a6af
    137c:	00460613          	addi	x12,x12,4

# Testcase cr_rs1_imm_edges (rs1 = 0x00000002, imm = -1)
  RVTEST_TESTDATA_LOAD_INT(x1, x14) # load rs1: x14 = 0x00000002
    1380:	0000a703          	lw	x14,0(x1)
    1384:	00408093          	addi	x1,x1,4

00001388 <I_ori_cg_cr_rs1_imm_edges_rs1val_0x2_immval_m0x1>:
I_ori_cg_cr_rs1_imm_edges_rs1val_0x2_immval_m0x1:
  ori x30, x14, -1 # perform operation
    1388:	fff76f13          	ori	x30,x14,-1
  # Check if x30 contains the expected result. x12 is the signature ptr, x8 is the link ptr, x7 is a temp reg.
  RVTEST_SIGUPD(x12, x8, x7, x30, I_ori_cg_cr_rs1_imm_edges_rs1val_0x2_immval_m0x1, I_ori_cg_cr_rs1_imm_edges_rs1val_0x2_immval_m0x1_str)
    138c:	00062383          	lw	x7,0(x12)
    1390:	01e38863          	beq	x7,x30,13a0 <I_ori_cg_cr_rs1_imm_edges_rs1val_0x2_immval_m0x1+0x18>
    1394:	1200246f          	jal	x8,34b4 <failedtest_x8_x7>
    1398:	00001388          	.word	0x00001388
    139c:	0000a6fd          	.word	0x0000a6fd
    13a0:	00460613          	addi	x12,x12,4

# Testcase cr_rs1_imm_edges (rs1 = 0x80000000, imm = 0)
  RVTEST_TESTDATA_LOAD_INT(x1, x15) # load rs1: x15 = 0x80000000
    13a4:	0000a783          	lw	x15,0(x1)
    13a8:	00408093          	addi	x1,x1,4

000013ac <I_ori_cg_cr_rs1_imm_edges_rs1val_0x80000000_immval_0x0>:
I_ori_cg_cr_rs1_imm_edges_rs1val_0x80000000_immval_0x0:
  ori x28, x15, 0 # perform operation
    13ac:	0007ee13          	ori	x28,x15,0
  # Check if x28 contains the expected result. x12 is the signature ptr, x8 is the link ptr, x7 is a temp reg.
  RVTEST_SIGUPD(x12, x8, x7, x28, I_ori_cg_cr_rs1_imm_edges_rs1val_0x80000000_immval_0x0, I_ori_cg_cr_rs1_imm_edges_rs1val_0x80000000_immval_0x0_str)
    13b0:	00062383          	lw	x7,0(x12)
    13b4:	01c38863          	beq	x7,x28,13c4 <I_ori_cg_cr_rs1_imm_edges_rs1val_0x80000000_immval_0x0+0x18>
    13b8:	0fc0246f          	jal	x8,34b4 <failedtest_x8_x7>
    13bc:	000013ac          	.word	0x000013ac
    13c0:	0000a74b          	.word	0x0000a74b
    13c4:	00460613          	addi	x12,x12,4

# Testcase cr_rs1_imm_edges (rs1 = 0x80000000, imm = 1)
  RVTEST_TESTDATA_LOAD_INT(x1, x21) # load rs1: x21 = 0x80000000
    13c8:	0000aa83          	lw	x21,0(x1)
    13cc:	00408093          	addi	x1,x1,4

000013d0 <I_ori_cg_cr_rs1_imm_edges_rs1val_0x80000000_immval_0x1>:
I_ori_cg_cr_rs1_imm_edges_rs1val_0x80000000_immval_0x1:
  ori x27, x21, 1 # perform operation
    13d0:	001aed93          	ori	x27,x21,1
  # Check if x27 contains the expected result. x12 is the signature ptr, x8 is the link ptr, x7 is a temp reg.
  RVTEST_SIGUPD(x12, x8, x7, x27, I_ori_cg_cr_rs1_imm_edges_rs1val_0x80000000_immval_0x1, I_ori_cg_cr_rs1_imm_edges_rs1val_0x80000000_immval_0x1_str)
    13d4:	00062383          	lw	x7,0(x12)
    13d8:	01b38863          	beq	x7,x27,13e8 <I_ori_cg_cr_rs1_imm_edges_rs1val_0x80000000_immval_0x1+0x18>
    13dc:	0d80246f          	jal	x8,34b4 <failedtest_x8_x7>
    13e0:	000013d0          	.word	0x000013d0
    13e4:	0000a79f          	.word	0x0000a79f
    13e8:	00460613          	addi	x12,x12,4

# Testcase cr_rs1_imm_edges (rs1 = 0x80000000, imm = 2)
  RVTEST_TESTDATA_LOAD_INT(x1, x18) # load rs1: x18 = 0x80000000
    13ec:	0000a903          	lw	x18,0(x1)
    13f0:	00408093          	addi	x1,x1,4

000013f4 <I_ori_cg_cr_rs1_imm_edges_rs1val_0x80000000_immval_0x2>:
I_ori_cg_cr_rs1_imm_edges_rs1val_0x80000000_immval_0x2:
  ori x13, x18, 2 # perform operation
    13f4:	00296693          	ori	x13,x18,2
  # Check if x13 contains the expected result. x12 is the signature ptr, x8 is the link ptr, x7 is a temp reg.
  RVTEST_SIGUPD(x12, x8, x7, x13, I_ori_cg_cr_rs1_imm_edges_rs1val_0x80000000_immval_0x2, I_ori_cg_cr_rs1_imm_edges_rs1val_0x80000000_immval_0x2_str)
    13f8:	00062383          	lw	x7,0(x12)
    13fc:	00d38863          	beq	x7,x13,140c <I_ori_cg_cr_rs1_imm_edges_rs1val_0x80000000_immval_0x2+0x18>
    1400:	0b40246f          	jal	x8,34b4 <failedtest_x8_x7>
    1404:	000013f4          	.word	0x000013f4
    1408:	0000a7f3          	.word	0x0000a7f3
    140c:	00460613          	addi	x12,x12,4

# Testcase cr_rs1_imm_edges (rs1 = 0x80000000, imm = 3)
  RVTEST_TESTDATA_LOAD_INT(x1, x24) # load rs1: x24 = 0x80000000
    1410:	0000ac03          	lw	x24,0(x1)
    1414:	00408093          	addi	x1,x1,4

00001418 <I_ori_cg_cr_rs1_imm_edges_rs1val_0x80000000_immval_0x3>:
I_ori_cg_cr_rs1_imm_edges_rs1val_0x80000000_immval_0x3:
  ori x13, x24, 3 # perform operation
    1418:	003c6693          	ori	x13,x24,3
  # Check if x13 contains the expected result. x12 is the signature ptr, x8 is the link ptr, x7 is a temp reg.
  RVTEST_SIGUPD(x12, x8, x7, x13, I_ori_cg_cr_rs1_imm_edges_rs1val_0x80000000_immval_0x3, I_ori_cg_cr_rs1_imm_edges_rs1val_0x80000000_immval_0x3_str)
    141c:	00062383          	lw	x7,0(x12)
    1420:	00d38863          	beq	x7,x13,1430 <I_ori_cg_cr_rs1_imm_edges_rs1val_0x80000000_immval_0x3+0x18>
    1424:	0900246f          	jal	x8,34b4 <failedtest_x8_x7>
    1428:	00001418          	.word	0x00001418
    142c:	0000a847          	.word	0x0000a847
    1430:	00460613          	addi	x12,x12,4

# Testcase cr_rs1_imm_edges (rs1 = 0x80000000, imm = 4)
  RVTEST_TESTDATA_LOAD_INT(x1, x10) # load rs1: x10 = 0x80000000
    1434:	0000a503          	lw	x10,0(x1)
    1438:	00408093          	addi	x1,x1,4

0000143c <I_ori_cg_cr_rs1_imm_edges_rs1val_0x80000000_immval_0x4>:
I_ori_cg_cr_rs1_imm_edges_rs1val_0x80000000_immval_0x4:
  ori x16, x10, 4 # perform operation
    143c:	00456813          	ori	x16,x10,4
  # Check if x16 contains the expected result. x12 is the signature ptr, x8 is the link ptr, x7 is a temp reg.
  RVTEST_SIGUPD(x12, x8, x7, x16, I_ori_cg_cr_rs1_imm_edges_rs1val_0x80000000_immval_0x4, I_ori_cg_cr_rs1_imm_edges_rs1val_0x80000000_immval_0x4_str)
    1440:	00062383          	lw	x7,0(x12)
    1444:	01038863          	beq	x7,x16,1454 <I_ori_cg_cr_rs1_imm_edges_rs1val_0x80000000_immval_0x4+0x18>
    1448:	06c0246f          	jal	x8,34b4 <failedtest_x8_x7>
    144c:	0000143c          	.word	0x0000143c
    1450:	0000a89b          	.word	0x0000a89b
    1454:	00460613          	addi	x12,x12,4

# Testcase cr_rs1_imm_edges (rs1 = 0x80000000, imm = 8)
  RVTEST_TESTDATA_LOAD_INT(x1, x13) # load rs1: x13 = 0x80000000
    1458:	0000a683          	lw	x13,0(x1)
    145c:	00408093          	addi	x1,x1,4

00001460 <I_ori_cg_cr_rs1_imm_edges_rs1val_0x80000000_immval_0x8>:
I_ori_cg_cr_rs1_imm_edges_rs1val_0x80000000_immval_0x8:
  ori x23, x13, 8 # perform operation
    1460:	0086eb93          	ori	x23,x13,8
  # Check if x23 contains the expected result. x12 is the signature ptr, x8 is the link ptr, x7 is a temp reg.
  RVTEST_SIGUPD(x12, x8, x7, x23, I_ori_cg_cr_rs1_imm_edges_rs1val_0x80000000_immval_0x8, I_ori_cg_cr_rs1_imm_edges_rs1val_0x80000000_immval_0x8_str)
    1464:	00062383          	lw	x7,0(x12)
    1468:	01738863          	beq	x7,x23,1478 <I_ori_cg_cr_rs1_imm_edges_rs1val_0x80000000_immval_0x8+0x18>
    146c:	0480246f          	jal	x8,34b4 <failedtest_x8_x7>
    1470:	00001460          	.word	0x00001460
    1474:	0000a8ef          	.word	0x0000a8ef
    1478:	00460613          	addi	x12,x12,4

# Testcase cr_rs1_imm_edges (rs1 = 0x80000000, imm = 16)
  RVTEST_TESTDATA_LOAD_INT(x1, x11) # load rs1: x11 = 0x80000000
    147c:	0000a583          	lw	x11,0(x1)
    1480:	00408093          	addi	x1,x1,4

00001484 <I_ori_cg_cr_rs1_imm_edges_rs1val_0x80000000_immval_0x10>:
I_ori_cg_cr_rs1_imm_edges_rs1val_0x80000000_immval_0x10:
  ori x9, x11, 16 # perform operation
    1484:	0105e493          	ori	x9,x11,16
  # Check if x9 contains the expected result. x12 is the signature ptr, x8 is the link ptr, x7 is a temp reg.
  RVTEST_SIGUPD(x12, x8, x7, x9, I_ori_cg_cr_rs1_imm_edges_rs1val_0x80000000_immval_0x10, I_ori_cg_cr_rs1_imm_edges_rs1val_0x80000000_immval_0x10_str)
    1488:	00062383          	lw	x7,0(x12)
    148c:	00938863          	beq	x7,x9,149c <I_ori_cg_cr_rs1_imm_edges_rs1val_0x80000000_immval_0x10+0x18>
    1490:	0240246f          	jal	x8,34b4 <failedtest_x8_x7>
    1494:	00001484          	.word	0x00001484
    1498:	0000a943          	.word	0x0000a943
    149c:	00460613          	addi	x12,x12,4

# Testcase cr_rs1_imm_edges (rs1 = 0x80000000, imm = 32)
  RVTEST_TESTDATA_LOAD_INT(x1, x30) # load rs1: x30 = 0x80000000
    14a0:	0000af03          	lw	x30,0(x1)
    14a4:	00408093          	addi	x1,x1,4

000014a8 <I_ori_cg_cr_rs1_imm_edges_rs1val_0x80000000_immval_0x20>:
I_ori_cg_cr_rs1_imm_edges_rs1val_0x80000000_immval_0x20:
  ori x18, x30, 32 # perform operation
    14a8:	020f6913          	ori	x18,x30,32
  # Check if x18 contains the expected result. x12 is the signature ptr, x8 is the link ptr, x7 is a temp reg.
  RVTEST_SIGUPD(x12, x8, x7, x18, I_ori_cg_cr_rs1_imm_edges_rs1val_0x80000000_immval_0x20, I_ori_cg_cr_rs1_imm_edges_rs1val_0x80000000_immval_0x20_str)
    14ac:	00062383          	lw	x7,0(x12)
    14b0:	01238863          	beq	x7,x18,14c0 <I_ori_cg_cr_rs1_imm_edges_rs1val_0x80000000_immval_0x20+0x18>
    14b4:	0000246f          	jal	x8,34b4 <failedtest_x8_x7>
    14b8:	000014a8          	.word	0x000014a8
    14bc:	0000a998          	.word	0x0000a998
    14c0:	00460613          	addi	x12,x12,4

# Testcase cr_rs1_imm_edges (rs1 = 0x80000000, imm = 64)
  RVTEST_TESTDATA_LOAD_INT(x1, x11) # load rs1: x11 = 0x80000000
    14c4:	0000a583          	lw	x11,0(x1)
    14c8:	00408093          	addi	x1,x1,4

000014cc <I_ori_cg_cr_rs1_imm_edges_rs1val_0x80000000_immval_0x40>:
I_ori_cg_cr_rs1_imm_edges_rs1val_0x80000000_immval_0x40:
  ori x20, x11, 64 # perform operation
    14cc:	0405ea13          	ori	x20,x11,64
  # Check if x20 contains the expected result. x12 is the signature ptr, x8 is the link ptr, x7 is a temp reg.
  RVTEST_SIGUPD(x12, x8, x7, x20, I_ori_cg_cr_rs1_imm_edges_rs1val_0x80000000_immval_0x40, I_ori_cg_cr_rs1_imm_edges_rs1val_0x80000000_immval_0x40_str)
    14d0:	00062383          	lw	x7,0(x12)
    14d4:	01438863          	beq	x7,x20,14e4 <I_ori_cg_cr_rs1_imm_edges_rs1val_0x80000000_immval_0x40+0x18>
    14d8:	7dd0146f          	jal	x8,34b4 <failedtest_x8_x7>
    14dc:	000014cc          	.word	0x000014cc
    14e0:	0000a9ed          	.word	0x0000a9ed
    14e4:	00460613          	addi	x12,x12,4

# Testcase cr_rs1_imm_edges (rs1 = 0x80000000, imm = 128)
  RVTEST_TESTDATA_LOAD_INT(x1, x5) # load rs1: x5 = 0x80000000
    14e8:	0000a283          	lw	x5,0(x1)
    14ec:	00408093          	addi	x1,x1,4

000014f0 <I_ori_cg_cr_rs1_imm_edges_rs1val_0x80000000_immval_0x80>:
I_ori_cg_cr_rs1_imm_edges_rs1val_0x80000000_immval_0x80:
  ori x22, x5, 128 # perform operation
    14f0:	0802eb13          	ori	x22,x5,128
  # Check if x22 contains the expected result. x12 is the signature ptr, x8 is the link ptr, x7 is a temp reg.
  RVTEST_SIGUPD(x12, x8, x7, x22, I_ori_cg_cr_rs1_imm_edges_rs1val_0x80000000_immval_0x80, I_ori_cg_cr_rs1_imm_edges_rs1val_0x80000000_immval_0x80_str)
    14f4:	00062383          	lw	x7,0(x12)
    14f8:	01638863          	beq	x7,x22,1508 <I_ori_cg_cr_rs1_imm_edges_rs1val_0x80000000_immval_0x80+0x18>
    14fc:	7b90146f          	jal	x8,34b4 <failedtest_x8_x7>
    1500:	000014f0          	.word	0x000014f0
    1504:	0000aa42          	.word	0x0000aa42
    1508:	00460613          	addi	x12,x12,4

# Testcase cr_rs1_imm_edges (rs1 = 0x80000000, imm = 256)
  RVTEST_TESTDATA_LOAD_INT(x1, x16) # load rs1: x16 = 0x80000000
    150c:	0000a803          	lw	x16,0(x1)
    1510:	00408093          	addi	x1,x1,4

00001514 <I_ori_cg_cr_rs1_imm_edges_rs1val_0x80000000_immval_0x100>:
I_ori_cg_cr_rs1_imm_edges_rs1val_0x80000000_immval_0x100:
  ori x11, x16, 256 # perform operation
    1514:	10086593          	ori	x11,x16,256
  # Check if x11 contains the expected result. x12 is the signature ptr, x8 is the link ptr, x7 is a temp reg.
  RVTEST_SIGUPD(x12, x8, x7, x11, I_ori_cg_cr_rs1_imm_edges_rs1val_0x80000000_immval_0x100, I_ori_cg_cr_rs1_imm_edges_rs1val_0x80000000_immval_0x100_str)
    1518:	00062383          	lw	x7,0(x12)
    151c:	00b38863          	beq	x7,x11,152c <I_ori_cg_cr_rs1_imm_edges_rs1val_0x80000000_immval_0x100+0x18>
    1520:	7950146f          	jal	x8,34b4 <failedtest_x8_x7>
    1524:	00001514          	.word	0x00001514
    1528:	0000aa97          	.word	0x0000aa97
    152c:	00460613          	addi	x12,x12,4

# Testcase cr_rs1_imm_edges (rs1 = 0x80000000, imm = 512)
  RVTEST_TESTDATA_LOAD_INT(x1, x31) # load rs1: x31 = 0x80000000
    1530:	0000af83          	lw	x31,0(x1)
    1534:	00408093          	addi	x1,x1,4

00001538 <I_ori_cg_cr_rs1_imm_edges_rs1val_0x80000000_immval_0x200>:
I_ori_cg_cr_rs1_imm_edges_rs1val_0x80000000_immval_0x200:
  ori x30, x31, 512 # perform operation
    1538:	200fef13          	ori	x30,x31,512
  # Check if x30 contains the expected result. x12 is the signature ptr, x8 is the link ptr, x7 is a temp reg.
  RVTEST_SIGUPD(x12, x8, x7, x30, I_ori_cg_cr_rs1_imm_edges_rs1val_0x80000000_immval_0x200, I_ori_cg_cr_rs1_imm_edges_rs1val_0x80000000_immval_0x200_str)
    153c:	00062383          	lw	x7,0(x12)
    1540:	01e38863          	beq	x7,x30,1550 <I_ori_cg_cr_rs1_imm_edges_rs1val_0x80000000_immval_0x200+0x18>
    1544:	7710146f          	jal	x8,34b4 <failedtest_x8_x7>
    1548:	00001538          	.word	0x00001538
    154c:	0000aaed          	.word	0x0000aaed
    1550:	00460613          	addi	x12,x12,4

# Testcase cr_rs1_imm_edges (rs1 = 0x80000000, imm = 1023)
  RVTEST_TESTDATA_LOAD_INT(x1, x6) # load rs1: x6 = 0x80000000
    1554:	0000a303          	lw	x6,0(x1)
    1558:	00408093          	addi	x1,x1,4

0000155c <I_ori_cg_cr_rs1_imm_edges_rs1val_0x80000000_immval_0x3ff>:
I_ori_cg_cr_rs1_imm_edges_rs1val_0x80000000_immval_0x3ff:
  ori x9, x6, 1023 # perform operation
    155c:	3ff36493          	ori	x9,x6,1023
  # Check if x9 contains the expected result. x12 is the signature ptr, x8 is the link ptr, x7 is a temp reg.
  RVTEST_SIGUPD(x12, x8, x7, x9, I_ori_cg_cr_rs1_imm_edges_rs1val_0x80000000_immval_0x3ff, I_ori_cg_cr_rs1_imm_edges_rs1val_0x80000000_immval_0x3ff_str)
    1560:	00062383          	lw	x7,0(x12)
    1564:	00938863          	beq	x7,x9,1574 <I_ori_cg_cr_rs1_imm_edges_rs1val_0x80000000_immval_0x3ff+0x18>
    1568:	74d0146f          	jal	x8,34b4 <failedtest_x8_x7>
    156c:	0000155c          	.word	0x0000155c
    1570:	0000ab43          	.word	0x0000ab43
    1574:	00460613          	addi	x12,x12,4

# Testcase cr_rs1_imm_edges (rs1 = 0x80000000, imm = 1024)
  RVTEST_TESTDATA_LOAD_INT(x1, x2) # load rs1: x2 = 0x80000000
    1578:	0000a103          	lw	x2,0(x1)
    157c:	00408093          	addi	x1,x1,4

00001580 <I_ori_cg_cr_rs1_imm_edges_rs1val_0x80000000_immval_0x400>:
I_ori_cg_cr_rs1_imm_edges_rs1val_0x80000000_immval_0x400:
  ori x18, x2, 1024 # perform operation
    1580:	40016913          	ori	x18,x2,1024
  # Check if x18 contains the expected result. x12 is the signature ptr, x8 is the link ptr, x7 is a temp reg.
  RVTEST_SIGUPD(x12, x8, x7, x18, I_ori_cg_cr_rs1_imm_edges_rs1val_0x80000000_immval_0x400, I_ori_cg_cr_rs1_imm_edges_rs1val_0x80000000_immval_0x400_str)
    1584:	00062383          	lw	x7,0(x12)
    1588:	01238863          	beq	x7,x18,1598 <I_ori_cg_cr_rs1_imm_edges_rs1val_0x80000000_immval_0x400+0x18>
    158c:	7290146f          	jal	x8,34b4 <failedtest_x8_x7>
    1590:	00001580          	.word	0x00001580
    1594:	0000ab99          	.word	0x0000ab99
    1598:	00460613          	addi	x12,x12,4

# Testcase cr_rs1_imm_edges (rs1 = 0x80000000, imm = 1795)
  RVTEST_TESTDATA_LOAD_INT(x1, x25) # load rs1: x25 = 0x80000000
    159c:	0000ac83          	lw	x25,0(x1)
    15a0:	00408093          	addi	x1,x1,4

000015a4 <I_ori_cg_cr_rs1_imm_edges_rs1val_0x80000000_immval_0x703>:
I_ori_cg_cr_rs1_imm_edges_rs1val_0x80000000_immval_0x703:
  ori x2, x25, 1795 # perform operation
    15a4:	703ce113          	ori	x2,x25,1795
  # Check if x2 contains the expected result. x12 is the signature ptr, x8 is the link ptr, x7 is a temp reg.
  RVTEST_SIGUPD(x12, x8, x7, x2, I_ori_cg_cr_rs1_imm_edges_rs1val_0x80000000_immval_0x703, I_ori_cg_cr_rs1_imm_edges_rs1val_0x80000000_immval_0x703_str)
    15a8:	00062383          	lw	x7,0(x12)
    15ac:	00238863          	beq	x7,x2,15bc <I_ori_cg_cr_rs1_imm_edges_rs1val_0x80000000_immval_0x703+0x18>
    15b0:	7050146f          	jal	x8,34b4 <failedtest_x8_x7>
    15b4:	000015a4          	.word	0x000015a4
    15b8:	0000abef          	.word	0x0000abef
    15bc:	00460613          	addi	x12,x12,4

# Testcase cr_rs1_imm_edges (rs1 = 0x80000000, imm = 2047)
  RVTEST_TESTDATA_LOAD_INT(x1, x20) # load rs1: x20 = 0x80000000
    15c0:	0000aa03          	lw	x20,0(x1)
    15c4:	00408093          	addi	x1,x1,4

000015c8 <I_ori_cg_cr_rs1_imm_edges_rs1val_0x80000000_immval_0x7ff>:
I_ori_cg_cr_rs1_imm_edges_rs1val_0x80000000_immval_0x7ff:
  ori x2, x20, 2047 # perform operation
    15c8:	7ffa6113          	ori	x2,x20,2047
  # Check if x2 contains the expected result. x12 is the signature ptr, x8 is the link ptr, x7 is a temp reg.
  RVTEST_SIGUPD(x12, x8, x7, x2, I_ori_cg_cr_rs1_imm_edges_rs1val_0x80000000_immval_0x7ff, I_ori_cg_cr_rs1_imm_edges_rs1val_0x80000000_immval_0x7ff_str)
    15cc:	00062383          	lw	x7,0(x12)
    15d0:	00238863          	beq	x7,x2,15e0 <I_ori_cg_cr_rs1_imm_edges_rs1val_0x80000000_immval_0x7ff+0x18>
    15d4:	6e10146f          	jal	x8,34b4 <failedtest_x8_x7>
    15d8:	000015c8          	.word	0x000015c8
    15dc:	0000ac45          	.word	0x0000ac45
    15e0:	00460613          	addi	x12,x12,4

# Testcase cr_rs1_imm_edges (rs1 = 0x80000000, imm = -2048)
  RVTEST_TESTDATA_LOAD_INT(x1, x3) # load rs1: x3 = 0x80000000
    15e4:	0000a183          	lw	x3,0(x1)
    15e8:	00408093          	addi	x1,x1,4

000015ec <I_ori_cg_cr_rs1_imm_edges_rs1val_0x80000000_immval_m0x800>:
I_ori_cg_cr_rs1_imm_edges_rs1val_0x80000000_immval_m0x800:
  ori x11, x3, -2048 # perform operation
    15ec:	8001e593          	ori	x11,x3,-2048
  # Check if x11 contains the expected result. x12 is the signature ptr, x8 is the link ptr, x7 is a temp reg.
  RVTEST_SIGUPD(x12, x8, x7, x11, I_ori_cg_cr_rs1_imm_edges_rs1val_0x80000000_immval_m0x800, I_ori_cg_cr_rs1_imm_edges_rs1val_0x80000000_immval_m0x800_str)
    15f0:	00062383          	lw	x7,0(x12)
    15f4:	00b38863          	beq	x7,x11,1604 <I_ori_cg_cr_rs1_imm_edges_rs1val_0x80000000_immval_m0x800+0x18>
    15f8:	6bd0146f          	jal	x8,34b4 <failedtest_x8_x7>
    15fc:	000015ec          	.word	0x000015ec
    1600:	0000ac9b          	.word	0x0000ac9b
    1604:	00460613          	addi	x12,x12,4

# Testcase cr_rs1_imm_edges (rs1 = 0x80000000, imm = -2047)
  RVTEST_TESTDATA_LOAD_INT(x1, x29) # load rs1: x29 = 0x80000000
    1608:	0000ae83          	lw	x29,0(x1)
    160c:	00408093          	addi	x1,x1,4

00001610 <I_ori_cg_cr_rs1_imm_edges_rs1val_0x80000000_immval_m0x7ff>:
I_ori_cg_cr_rs1_imm_edges_rs1val_0x80000000_immval_m0x7ff:
  ori x19, x29, -2047 # perform operation
    1610:	801ee993          	ori	x19,x29,-2047
  # Check if x19 contains the expected result. x12 is the signature ptr, x8 is the link ptr, x7 is a temp reg.
  RVTEST_SIGUPD(x12, x8, x7, x19, I_ori_cg_cr_rs1_imm_edges_rs1val_0x80000000_immval_m0x7ff, I_ori_cg_cr_rs1_imm_edges_rs1val_0x80000000_immval_m0x7ff_str)
    1614:	00062383          	lw	x7,0(x12)
    1618:	01338863          	beq	x7,x19,1628 <I_ori_cg_cr_rs1_imm_edges_rs1val_0x80000000_immval_m0x7ff+0x18>
    161c:	6990146f          	jal	x8,34b4 <failedtest_x8_x7>
    1620:	00001610          	.word	0x00001610
    1624:	0000acf2          	.word	0x0000acf2
    1628:	00460613          	addi	x12,x12,4

# Testcase cr_rs1_imm_edges (rs1 = 0x80000000, imm = -2)
  RVTEST_TESTDATA_LOAD_INT(x1, x3) # load rs1: x3 = 0x80000000
    162c:	0000a183          	lw	x3,0(x1)
    1630:	00408093          	addi	x1,x1,4

00001634 <I_ori_cg_cr_rs1_imm_edges_rs1val_0x80000000_immval_m0x2>:
I_ori_cg_cr_rs1_imm_edges_rs1val_0x80000000_immval_m0x2:
  ori x16, x3, -2 # perform operation
    1634:	ffe1e813          	ori	x16,x3,-2
  # Check if x16 contains the expected result. x12 is the signature ptr, x8 is the link ptr, x7 is a temp reg.
  RVTEST_SIGUPD(x12, x8, x7, x16, I_ori_cg_cr_rs1_imm_edges_rs1val_0x80000000_immval_m0x2, I_ori_cg_cr_rs1_imm_edges_rs1val_0x80000000_immval_m0x2_str)
    1638:	00062383          	lw	x7,0(x12)
    163c:	01038863          	beq	x7,x16,164c <I_ori_cg_cr_rs1_imm_edges_rs1val_0x80000000_immval_m0x2+0x18>
    1640:	6750146f          	jal	x8,34b4 <failedtest_x8_x7>
    1644:	00001634          	.word	0x00001634
    1648:	0000ad49          	.word	0x0000ad49
    164c:	00460613          	addi	x12,x12,4

# Testcase cr_rs1_imm_edges (rs1 = 0x80000000, imm = -1)
  RVTEST_TESTDATA_LOAD_INT(x1, x31) # load rs1: x31 = 0x80000000
    1650:	0000af83          	lw	x31,0(x1)
    1654:	00408093          	addi	x1,x1,4

00001658 <I_ori_cg_cr_rs1_imm_edges_rs1val_0x80000000_immval_m0x1>:
I_ori_cg_cr_rs1_imm_edges_rs1val_0x80000000_immval_m0x1:
  ori x10, x31, -1 # perform operation
    1658:	ffffe513          	ori	x10,x31,-1
  # Check if x10 contains the expected result. x12 is the signature ptr, x8 is the link ptr, x7 is a temp reg.
  RVTEST_SIGUPD(x12, x8, x7, x10, I_ori_cg_cr_rs1_imm_edges_rs1val_0x80000000_immval_m0x1, I_ori_cg_cr_rs1_imm_edges_rs1val_0x80000000_immval_m0x1_str)
    165c:	00062383          	lw	x7,0(x12)
    1660:	00a38863          	beq	x7,x10,1670 <I_ori_cg_cr_rs1_imm_edges_rs1val_0x80000000_immval_m0x1+0x18>
    1664:	6510146f          	jal	x8,34b4 <failedtest_x8_x7>
    1668:	00001658          	.word	0x00001658
    166c:	0000ad9e          	.word	0x0000ad9e
    1670:	00460613          	addi	x12,x12,4

# Testcase cr_rs1_imm_edges (rs1 = 0x80000001, imm = 0)
  RVTEST_TESTDATA_LOAD_INT(x1, x27) # load rs1: x27 = 0x80000001
    1674:	0000ad83          	lw	x27,0(x1)
    1678:	00408093          	addi	x1,x1,4

0000167c <I_ori_cg_cr_rs1_imm_edges_rs1val_0x80000001_immval_0x0>:
I_ori_cg_cr_rs1_imm_edges_rs1val_0x80000001_immval_0x0:
  ori x17, x27, 0 # perform operation
    167c:	000de893          	ori	x17,x27,0
  # Check if x17 contains the expected result. x12 is the signature ptr, x8 is the link ptr, x7 is a temp reg.
  RVTEST_SIGUPD(x12, x8, x7, x17, I_ori_cg_cr_rs1_imm_edges_rs1val_0x80000001_immval_0x0, I_ori_cg_cr_rs1_imm_edges_rs1val_0x80000001_immval_0x0_str)
    1680:	00062383          	lw	x7,0(x12)
    1684:	01138863          	beq	x7,x17,1694 <I_ori_cg_cr_rs1_imm_edges_rs1val_0x80000001_immval_0x0+0x18>
    1688:	62d0146f          	jal	x8,34b4 <failedtest_x8_x7>
    168c:	0000167c          	.word	0x0000167c
    1690:	0000adf3          	.word	0x0000adf3
    1694:	00460613          	addi	x12,x12,4

# Testcase cr_rs1_imm_edges (rs1 = 0x80000001, imm = 1)
  RVTEST_TESTDATA_LOAD_INT(x1, x19) # load rs1: x19 = 0x80000001
    1698:	0000a983          	lw	x19,0(x1)
    169c:	00408093          	addi	x1,x1,4

000016a0 <I_ori_cg_cr_rs1_imm_edges_rs1val_0x80000001_immval_0x1>:
I_ori_cg_cr_rs1_imm_edges_rs1val_0x80000001_immval_0x1:
  ori x27, x19, 1 # perform operation
    16a0:	0019ed93          	ori	x27,x19,1
  # Check if x27 contains the expected result. x12 is the signature ptr, x8 is the link ptr, x7 is a temp reg.
  RVTEST_SIGUPD(x12, x8, x7, x27, I_ori_cg_cr_rs1_imm_edges_rs1val_0x80000001_immval_0x1, I_ori_cg_cr_rs1_imm_edges_rs1val_0x80000001_immval_0x1_str)
    16a4:	00062383          	lw	x7,0(x12)
    16a8:	01b38863          	beq	x7,x27,16b8 <I_ori_cg_cr_rs1_imm_edges_rs1val_0x80000001_immval_0x1+0x18>
    16ac:	6090146f          	jal	x8,34b4 <failedtest_x8_x7>
    16b0:	000016a0          	.word	0x000016a0
    16b4:	0000ae47          	.word	0x0000ae47
    16b8:	00460613          	addi	x12,x12,4

# Testcase cr_rs1_imm_edges (rs1 = 0x80000001, imm = 2)
  RVTEST_TESTDATA_LOAD_INT(x1, x25) # load rs1: x25 = 0x80000001
    16bc:	0000ac83          	lw	x25,0(x1)
    16c0:	00408093          	addi	x1,x1,4

000016c4 <I_ori_cg_cr_rs1_imm_edges_rs1val_0x80000001_immval_0x2>:
I_ori_cg_cr_rs1_imm_edges_rs1val_0x80000001_immval_0x2:
  ori x30, x25, 2 # perform operation
    16c4:	002cef13          	ori	x30,x25,2
  # Check if x30 contains the expected result. x12 is the signature ptr, x8 is the link ptr, x7 is a temp reg.
  RVTEST_SIGUPD(x12, x8, x7, x30, I_ori_cg_cr_rs1_imm_edges_rs1val_0x80000001_immval_0x2, I_ori_cg_cr_rs1_imm_edges_rs1val_0x80000001_immval_0x2_str)
    16c8:	00062383          	lw	x7,0(x12)
    16cc:	01e38863          	beq	x7,x30,16dc <I_ori_cg_cr_rs1_imm_edges_rs1val_0x80000001_immval_0x2+0x18>
    16d0:	5e50146f          	jal	x8,34b4 <failedtest_x8_x7>
    16d4:	000016c4          	.word	0x000016c4
    16d8:	0000ae9b          	.word	0x0000ae9b
    16dc:	00460613          	addi	x12,x12,4

# Testcase cr_rs1_imm_edges (rs1 = 0x80000001, imm = 3)
  RVTEST_TESTDATA_LOAD_INT(x1, x19) # load rs1: x19 = 0x80000001
    16e0:	0000a983          	lw	x19,0(x1)
    16e4:	00408093          	addi	x1,x1,4

000016e8 <I_ori_cg_cr_rs1_imm_edges_rs1val_0x80000001_immval_0x3>:
I_ori_cg_cr_rs1_imm_edges_rs1val_0x80000001_immval_0x3:
  ori x5, x19, 3 # perform operation
    16e8:	0039e293          	ori	x5,x19,3
  # Check if x5 contains the expected result. x12 is the signature ptr, x8 is the link ptr, x7 is a temp reg.
  RVTEST_SIGUPD(x12, x8, x7, x5, I_ori_cg_cr_rs1_imm_edges_rs1val_0x80000001_immval_0x3, I_ori_cg_cr_rs1_imm_edges_rs1val_0x80000001_immval_0x3_str)
    16ec:	00062383          	lw	x7,0(x12)
    16f0:	00538863          	beq	x7,x5,1700 <I_ori_cg_cr_rs1_imm_edges_rs1val_0x80000001_immval_0x3+0x18>
    16f4:	5c10146f          	jal	x8,34b4 <failedtest_x8_x7>
    16f8:	000016e8          	.word	0x000016e8
    16fc:	0000aeef          	.word	0x0000aeef
    1700:	00460613          	addi	x12,x12,4

# Testcase cr_rs1_imm_edges (rs1 = 0x80000001, imm = 4)
  RVTEST_TESTDATA_LOAD_INT(x1, x2) # load rs1: x2 = 0x80000001
    1704:	0000a103          	lw	x2,0(x1)
    1708:	00408093          	addi	x1,x1,4

0000170c <I_ori_cg_cr_rs1_imm_edges_rs1val_0x80000001_immval_0x4>:
I_ori_cg_cr_rs1_imm_edges_rs1val_0x80000001_immval_0x4:
  ori x21, x2, 4 # perform operation
    170c:	00416a93          	ori	x21,x2,4
  # Check if x21 contains the expected result. x12 is the signature ptr, x8 is the link ptr, x7 is a temp reg.
  RVTEST_SIGUPD(x12, x8, x7, x21, I_ori_cg_cr_rs1_imm_edges_rs1val_0x80000001_immval_0x4, I_ori_cg_cr_rs1_imm_edges_rs1val_0x80000001_immval_0x4_str)
    1710:	00062383          	lw	x7,0(x12)
    1714:	01538863          	beq	x7,x21,1724 <I_ori_cg_cr_rs1_imm_edges_rs1val_0x80000001_immval_0x4+0x18>
    1718:	59d0146f          	jal	x8,34b4 <failedtest_x8_x7>
    171c:	0000170c          	.word	0x0000170c
    1720:	0000af43          	.word	0x0000af43
    1724:	00460613          	addi	x12,x12,4

# Testcase cr_rs1_imm_edges (rs1 = 0x80000001, imm = 8)
  RVTEST_TESTDATA_LOAD_INT(x1, x13) # load rs1: x13 = 0x80000001
    1728:	0000a683          	lw	x13,0(x1)
    172c:	00408093          	addi	x1,x1,4

00001730 <I_ori_cg_cr_rs1_imm_edges_rs1val_0x80000001_immval_0x8>:
I_ori_cg_cr_rs1_imm_edges_rs1val_0x80000001_immval_0x8:
  ori x14, x13, 8 # perform operation
    1730:	0086e713          	ori	x14,x13,8
  # Check if x14 contains the expected result. x12 is the signature ptr, x8 is the link ptr, x7 is a temp reg.
  RVTEST_SIGUPD(x12, x8, x7, x14, I_ori_cg_cr_rs1_imm_edges_rs1val_0x80000001_immval_0x8, I_ori_cg_cr_rs1_imm_edges_rs1val_0x80000001_immval_0x8_str)
    1734:	00062383          	lw	x7,0(x12)
    1738:	00e38863          	beq	x7,x14,1748 <I_ori_cg_cr_rs1_imm_edges_rs1val_0x80000001_immval_0x8+0x18>
    173c:	5790146f          	jal	x8,34b4 <failedtest_x8_x7>
    1740:	00001730          	.word	0x00001730
    1744:	0000af97          	.word	0x0000af97
    1748:	00460613          	addi	x12,x12,4

# Testcase cr_rs1_imm_edges (rs1 = 0x80000001, imm = 16)
  RVTEST_TESTDATA_LOAD_INT(x1, x15) # load rs1: x15 = 0x80000001
    174c:	0000a783          	lw	x15,0(x1)
    1750:	00408093          	addi	x1,x1,4

00001754 <I_ori_cg_cr_rs1_imm_edges_rs1val_0x80000001_immval_0x10>:
I_ori_cg_cr_rs1_imm_edges_rs1val_0x80000001_immval_0x10:
  ori x22, x15, 16 # perform operation
    1754:	0107eb13          	ori	x22,x15,16
  # Check if x22 contains the expected result. x12 is the signature ptr, x8 is the link ptr, x7 is a temp reg.
  RVTEST_SIGUPD(x12, x8, x7, x22, I_ori_cg_cr_rs1_imm_edges_rs1val_0x80000001_immval_0x10, I_ori_cg_cr_rs1_imm_edges_rs1val_0x80000001_immval_0x10_str)
    1758:	00062383          	lw	x7,0(x12)
    175c:	01638863          	beq	x7,x22,176c <I_ori_cg_cr_rs1_imm_edges_rs1val_0x80000001_immval_0x10+0x18>
    1760:	5550146f          	jal	x8,34b4 <failedtest_x8_x7>
    1764:	00001754          	.word	0x00001754
    1768:	0000afeb          	.word	0x0000afeb
    176c:	00460613          	addi	x12,x12,4

# Testcase cr_rs1_imm_edges (rs1 = 0x80000001, imm = 32)
  RVTEST_TESTDATA_LOAD_INT(x1, x2) # load rs1: x2 = 0x80000001
    1770:	0000a103          	lw	x2,0(x1)
    1774:	00408093          	addi	x1,x1,4

00001778 <I_ori_cg_cr_rs1_imm_edges_rs1val_0x80000001_immval_0x20>:
I_ori_cg_cr_rs1_imm_edges_rs1val_0x80000001_immval_0x20:
  ori x20, x2, 32 # perform operation
    1778:	02016a13          	ori	x20,x2,32
  # Check if x20 contains the expected result. x12 is the signature ptr, x8 is the link ptr, x7 is a temp reg.
  RVTEST_SIGUPD(x12, x8, x7, x20, I_ori_cg_cr_rs1_imm_edges_rs1val_0x80000001_immval_0x20, I_ori_cg_cr_rs1_imm_edges_rs1val_0x80000001_immval_0x20_str)
    177c:	00062383          	lw	x7,0(x12)
    1780:	01438863          	beq	x7,x20,1790 <I_ori_cg_cr_rs1_imm_edges_rs1val_0x80000001_immval_0x20+0x18>
    1784:	5310146f          	jal	x8,34b4 <failedtest_x8_x7>
    1788:	00001778          	.word	0x00001778
    178c:	0000b040          	.word	0x0000b040
    1790:	00460613          	addi	x12,x12,4

# Testcase cr_rs1_imm_edges (rs1 = 0x80000001, imm = 64)
  RVTEST_TESTDATA_LOAD_INT(x1, x10) # load rs1: x10 = 0x80000001
    1794:	0000a503          	lw	x10,0(x1)
    1798:	00408093          	addi	x1,x1,4

0000179c <I_ori_cg_cr_rs1_imm_edges_rs1val_0x80000001_immval_0x40>:
I_ori_cg_cr_rs1_imm_edges_rs1val_0x80000001_immval_0x40:
  ori x23, x10, 64 # perform operation
    179c:	04056b93          	ori	x23,x10,64
  # Check if x23 contains the expected result. x12 is the signature ptr, x8 is the link ptr, x7 is a temp reg.
  RVTEST_SIGUPD(x12, x8, x7, x23, I_ori_cg_cr_rs1_imm_edges_rs1val_0x80000001_immval_0x40, I_ori_cg_cr_rs1_imm_edges_rs1val_0x80000001_immval_0x40_str)
    17a0:	00062383          	lw	x7,0(x12)
    17a4:	01738863          	beq	x7,x23,17b4 <I_ori_cg_cr_rs1_imm_edges_rs1val_0x80000001_immval_0x40+0x18>
    17a8:	50d0146f          	jal	x8,34b4 <failedtest_x8_x7>
    17ac:	0000179c          	.word	0x0000179c
    17b0:	0000b095          	.word	0x0000b095
    17b4:	00460613          	addi	x12,x12,4

# Testcase cr_rs1_imm_edges (rs1 = 0x80000001, imm = 128)
  RVTEST_TESTDATA_LOAD_INT(x1, x30) # load rs1: x30 = 0x80000001
    17b8:	0000af03          	lw	x30,0(x1)
    17bc:	00408093          	addi	x1,x1,4

000017c0 <I_ori_cg_cr_rs1_imm_edges_rs1val_0x80000001_immval_0x80>:
I_ori_cg_cr_rs1_imm_edges_rs1val_0x80000001_immval_0x80:
  ori x6, x30, 128 # perform operation
    17c0:	080f6313          	ori	x6,x30,128
  # Check if x6 contains the expected result. x12 is the signature ptr, x8 is the link ptr, x7 is a temp reg.
  RVTEST_SIGUPD(x12, x8, x7, x6, I_ori_cg_cr_rs1_imm_edges_rs1val_0x80000001_immval_0x80, I_ori_cg_cr_rs1_imm_edges_rs1val_0x80000001_immval_0x80_str)
    17c4:	00062383          	lw	x7,0(x12)
    17c8:	00638863          	beq	x7,x6,17d8 <I_ori_cg_cr_rs1_imm_edges_rs1val_0x80000001_immval_0x80+0x18>
    17cc:	4e90146f          	jal	x8,34b4 <failedtest_x8_x7>
    17d0:	000017c0          	.word	0x000017c0
    17d4:	0000b0ea          	.word	0x0000b0ea
    17d8:	00460613          	addi	x12,x12,4

# Testcase cr_rs1_imm_edges (rs1 = 0x80000001, imm = 256)
  RVTEST_TESTDATA_LOAD_INT(x1, x6) # load rs1: x6 = 0x80000001
    17dc:	0000a303          	lw	x6,0(x1)
    17e0:	00408093          	addi	x1,x1,4

000017e4 <I_ori_cg_cr_rs1_imm_edges_rs1val_0x80000001_immval_0x100>:
I_ori_cg_cr_rs1_imm_edges_rs1val_0x80000001_immval_0x100:
  ori x21, x6, 256 # perform operation
    17e4:	10036a93          	ori	x21,x6,256
  # Check if x21 contains the expected result. x12 is the signature ptr, x8 is the link ptr, x7 is a temp reg.
  RVTEST_SIGUPD(x12, x8, x7, x21, I_ori_cg_cr_rs1_imm_edges_rs1val_0x80000001_immval_0x100, I_ori_cg_cr_rs1_imm_edges_rs1val_0x80000001_immval_0x100_str)
    17e8:	00062383          	lw	x7,0(x12)
    17ec:	01538863          	beq	x7,x21,17fc <I_ori_cg_cr_rs1_imm_edges_rs1val_0x80000001_immval_0x100+0x18>
    17f0:	4c50146f          	jal	x8,34b4 <failedtest_x8_x7>
    17f4:	000017e4          	.word	0x000017e4
    17f8:	0000b13f          	.word	0x0000b13f
    17fc:	00460613          	addi	x12,x12,4

# Testcase cr_rs1_imm_edges (rs1 = 0x80000001, imm = 512)
  RVTEST_TESTDATA_LOAD_INT(x1, x14) # load rs1: x14 = 0x80000001
    1800:	0000a703          	lw	x14,0(x1)
    1804:	00408093          	addi	x1,x1,4

00001808 <I_ori_cg_cr_rs1_imm_edges_rs1val_0x80000001_immval_0x200>:
I_ori_cg_cr_rs1_imm_edges_rs1val_0x80000001_immval_0x200:
  ori x22, x14, 512 # perform operation
    1808:	20076b13          	ori	x22,x14,512
  # Check if x22 contains the expected result. x12 is the signature ptr, x8 is the link ptr, x7 is a temp reg.
  RVTEST_SIGUPD(x12, x8, x7, x22, I_ori_cg_cr_rs1_imm_edges_rs1val_0x80000001_immval_0x200, I_ori_cg_cr_rs1_imm_edges_rs1val_0x80000001_immval_0x200_str)
    180c:	00062383          	lw	x7,0(x12)
    1810:	01638863          	beq	x7,x22,1820 <I_ori_cg_cr_rs1_imm_edges_rs1val_0x80000001_immval_0x200+0x18>
    1814:	4a10146f          	jal	x8,34b4 <failedtest_x8_x7>
    1818:	00001808          	.word	0x00001808
    181c:	0000b195          	.word	0x0000b195
    1820:	00460613          	addi	x12,x12,4

# Testcase cr_rs1_imm_edges (rs1 = 0x80000001, imm = 1023)
  RVTEST_TESTDATA_LOAD_INT(x1, x15) # load rs1: x15 = 0x80000001
    1824:	0000a783          	lw	x15,0(x1)
    1828:	00408093          	addi	x1,x1,4

0000182c <I_ori_cg_cr_rs1_imm_edges_rs1val_0x80000001_immval_0x3ff>:
I_ori_cg_cr_rs1_imm_edges_rs1val_0x80000001_immval_0x3ff:
  ori x25, x15, 1023 # perform operation
    182c:	3ff7ec93          	ori	x25,x15,1023
  # Check if x25 contains the expected result. x12 is the signature ptr, x8 is the link ptr, x7 is a temp reg.
  RVTEST_SIGUPD(x12, x8, x7, x25, I_ori_cg_cr_rs1_imm_edges_rs1val_0x80000001_immval_0x3ff, I_ori_cg_cr_rs1_imm_edges_rs1val_0x80000001_immval_0x3ff_str)
    1830:	00062383          	lw	x7,0(x12)
    1834:	01938863          	beq	x7,x25,1844 <I_ori_cg_cr_rs1_imm_edges_rs1val_0x80000001_immval_0x3ff+0x18>
    1838:	47d0146f          	jal	x8,34b4 <failedtest_x8_x7>
    183c:	0000182c          	.word	0x0000182c
    1840:	0000b1eb          	.word	0x0000b1eb
    1844:	00460613          	addi	x12,x12,4

# Testcase cr_rs1_imm_edges (rs1 = 0x80000001, imm = 1024)
  RVTEST_TESTDATA_LOAD_INT(x1, x14) # load rs1: x14 = 0x80000001
    1848:	0000a703          	lw	x14,0(x1)
    184c:	00408093          	addi	x1,x1,4

00001850 <I_ori_cg_cr_rs1_imm_edges_rs1val_0x80000001_immval_0x400>:
I_ori_cg_cr_rs1_imm_edges_rs1val_0x80000001_immval_0x400:
  ori x3, x14, 1024 # perform operation
    1850:	40076193          	ori	x3,x14,1024
  # Check if x3 contains the expected result. x12 is the signature ptr, x8 is the link ptr, x7 is a temp reg.
  RVTEST_SIGUPD(x12, x8, x7, x3, I_ori_cg_cr_rs1_imm_edges_rs1val_0x80000001_immval_0x400, I_ori_cg_cr_rs1_imm_edges_rs1val_0x80000001_immval_0x400_str)
    1854:	00062383          	lw	x7,0(x12)
    1858:	00338863          	beq	x7,x3,1868 <I_ori_cg_cr_rs1_imm_edges_rs1val_0x80000001_immval_0x400+0x18>
    185c:	4590146f          	jal	x8,34b4 <failedtest_x8_x7>
    1860:	00001850          	.word	0x00001850
    1864:	0000b241          	.word	0x0000b241
    1868:	00460613          	addi	x12,x12,4

# Testcase cr_rs1_imm_edges (rs1 = 0x80000001, imm = 1795)
  RVTEST_TESTDATA_LOAD_INT(x1, x17) # load rs1: x17 = 0x80000001
    186c:	0000a883          	lw	x17,0(x1)
    1870:	00408093          	addi	x1,x1,4

00001874 <I_ori_cg_cr_rs1_imm_edges_rs1val_0x80000001_immval_0x703>:
I_ori_cg_cr_rs1_imm_edges_rs1val_0x80000001_immval_0x703:
  ori x9, x17, 1795 # perform operation
    1874:	7038e493          	ori	x9,x17,1795
  # Check if x9 contains the expected result. x12 is the signature ptr, x8 is the link ptr, x7 is a temp reg.
  RVTEST_SIGUPD(x12, x8, x7, x9, I_ori_cg_cr_rs1_imm_edges_rs1val_0x80000001_immval_0x703, I_ori_cg_cr_rs1_imm_edges_rs1val_0x80000001_immval_0x703_str)
    1878:	00062383          	lw	x7,0(x12)
    187c:	00938863          	beq	x7,x9,188c <I_ori_cg_cr_rs1_imm_edges_rs1val_0x80000001_immval_0x703+0x18>
    1880:	4350146f          	jal	x8,34b4 <failedtest_x8_x7>
    1884:	00001874          	.word	0x00001874
    1888:	0000b297          	.word	0x0000b297
    188c:	00460613          	addi	x12,x12,4

# Testcase cr_rs1_imm_edges (rs1 = 0x80000001, imm = 2047)
  RVTEST_TESTDATA_LOAD_INT(x1, x9) # load rs1: x9 = 0x80000001
    1890:	0000a483          	lw	x9,0(x1)
    1894:	00408093          	addi	x1,x1,4

00001898 <I_ori_cg_cr_rs1_imm_edges_rs1val_0x80000001_immval_0x7ff>:
I_ori_cg_cr_rs1_imm_edges_rs1val_0x80000001_immval_0x7ff:
  ori x25, x9, 2047 # perform operation
    1898:	7ff4ec93          	ori	x25,x9,2047
  # Check if x25 contains the expected result. x12 is the signature ptr, x8 is the link ptr, x7 is a temp reg.
  RVTEST_SIGUPD(x12, x8, x7, x25, I_ori_cg_cr_rs1_imm_edges_rs1val_0x80000001_immval_0x7ff, I_ori_cg_cr_rs1_imm_edges_rs1val_0x80000001_immval_0x7ff_str)
    189c:	00062383          	lw	x7,0(x12)
    18a0:	01938863          	beq	x7,x25,18b0 <I_ori_cg_cr_rs1_imm_edges_rs1val_0x80000001_immval_0x7ff+0x18>
    18a4:	4110146f          	jal	x8,34b4 <failedtest_x8_x7>
    18a8:	00001898          	.word	0x00001898
    18ac:	0000b2ed          	.word	0x0000b2ed
    18b0:	00460613          	addi	x12,x12,4

# Testcase cr_rs1_imm_edges (rs1 = 0x80000001, imm = -2048)
  RVTEST_TESTDATA_LOAD_INT(x1, x21) # load rs1: x21 = 0x80000001
    18b4:	0000aa83          	lw	x21,0(x1)
    18b8:	00408093          	addi	x1,x1,4

000018bc <I_ori_cg_cr_rs1_imm_edges_rs1val_0x80000001_immval_m0x800>:
I_ori_cg_cr_rs1_imm_edges_rs1val_0x80000001_immval_m0x800:
  ori x18, x21, -2048 # perform operation
    18bc:	800ae913          	ori	x18,x21,-2048
  # Check if x18 contains the expected result. x12 is the signature ptr, x8 is the link ptr, x7 is a temp reg.
  RVTEST_SIGUPD(x12, x8, x7, x18, I_ori_cg_cr_rs1_imm_edges_rs1val_0x80000001_immval_m0x800, I_ori_cg_cr_rs1_imm_edges_rs1val_0x80000001_immval_m0x800_str)
    18c0:	00062383          	lw	x7,0(x12)
    18c4:	01238863          	beq	x7,x18,18d4 <I_ori_cg_cr_rs1_imm_edges_rs1val_0x80000001_immval_m0x800+0x18>
    18c8:	3ed0146f          	jal	x8,34b4 <failedtest_x8_x7>
    18cc:	000018bc          	.word	0x000018bc
    18d0:	0000b343          	.word	0x0000b343
    18d4:	00460613          	addi	x12,x12,4

# Testcase cr_rs1_imm_edges (rs1 = 0x80000001, imm = -2047)
  RVTEST_TESTDATA_LOAD_INT(x1, x24) # load rs1: x24 = 0x80000001
    18d8:	0000ac03          	lw	x24,0(x1)
    18dc:	00408093          	addi	x1,x1,4

000018e0 <I_ori_cg_cr_rs1_imm_edges_rs1val_0x80000001_immval_m0x7ff>:
I_ori_cg_cr_rs1_imm_edges_rs1val_0x80000001_immval_m0x7ff:
  ori x20, x24, -2047 # perform operation
    18e0:	801c6a13          	ori	x20,x24,-2047
  # Check if x20 contains the expected result. x12 is the signature ptr, x8 is the link ptr, x7 is a temp reg.
  RVTEST_SIGUPD(x12, x8, x7, x20, I_ori_cg_cr_rs1_imm_edges_rs1val_0x80000001_immval_m0x7ff, I_ori_cg_cr_rs1_imm_edges_rs1val_0x80000001_immval_m0x7ff_str)
    18e4:	00062383          	lw	x7,0(x12)
    18e8:	01438863          	beq	x7,x20,18f8 <I_ori_cg_cr_rs1_imm_edges_rs1val_0x80000001_immval_m0x7ff+0x18>
    18ec:	3c90146f          	jal	x8,34b4 <failedtest_x8_x7>
    18f0:	000018e0          	.word	0x000018e0
    18f4:	0000b39a          	.word	0x0000b39a
    18f8:	00460613          	addi	x12,x12,4

# Testcase cr_rs1_imm_edges (rs1 = 0x80000001, imm = -2)
  RVTEST_TESTDATA_LOAD_INT(x1, x9) # load rs1: x9 = 0x80000001
    18fc:	0000a483          	lw	x9,0(x1)
    1900:	00408093          	addi	x1,x1,4

00001904 <I_ori_cg_cr_rs1_imm_edges_rs1val_0x80000001_immval_m0x2>:
I_ori_cg_cr_rs1_imm_edges_rs1val_0x80000001_immval_m0x2:
  ori x5, x9, -2 # perform operation
    1904:	ffe4e293          	ori	x5,x9,-2
  # Check if x5 contains the expected result. x12 is the signature ptr, x8 is the link ptr, x7 is a temp reg.
  RVTEST_SIGUPD(x12, x8, x7, x5, I_ori_cg_cr_rs1_imm_edges_rs1val_0x80000001_immval_m0x2, I_ori_cg_cr_rs1_imm_edges_rs1val_0x80000001_immval_m0x2_str)
    1908:	00062383          	lw	x7,0(x12)
    190c:	00538863          	beq	x7,x5,191c <I_ori_cg_cr_rs1_imm_edges_rs1val_0x80000001_immval_m0x2+0x18>
    1910:	3a50146f          	jal	x8,34b4 <failedtest_x8_x7>
    1914:	00001904          	.word	0x00001904
    1918:	0000b3f1          	.word	0x0000b3f1
    191c:	00460613          	addi	x12,x12,4

# Testcase cr_rs1_imm_edges (rs1 = 0x80000001, imm = -1)
  RVTEST_TESTDATA_LOAD_INT(x1, x17) # load rs1: x17 = 0x80000001
    1920:	0000a883          	lw	x17,0(x1)
    1924:	00408093          	addi	x1,x1,4

00001928 <I_ori_cg_cr_rs1_imm_edges_rs1val_0x80000001_immval_m0x1>:
I_ori_cg_cr_rs1_imm_edges_rs1val_0x80000001_immval_m0x1:
  ori x14, x17, -1 # perform operation
    1928:	fff8e713          	ori	x14,x17,-1
  # Check if x14 contains the expected result. x12 is the signature ptr, x8 is the link ptr, x7 is a temp reg.
  RVTEST_SIGUPD(x12, x8, x7, x14, I_ori_cg_cr_rs1_imm_edges_rs1val_0x80000001_immval_m0x1, I_ori_cg_cr_rs1_imm_edges_rs1val_0x80000001_immval_m0x1_str)
    192c:	00062383          	lw	x7,0(x12)
    1930:	00e38863          	beq	x7,x14,1940 <I_ori_cg_cr_rs1_imm_edges_rs1val_0x80000001_immval_m0x1+0x18>
    1934:	3810146f          	jal	x8,34b4 <failedtest_x8_x7>
    1938:	00001928          	.word	0x00001928
    193c:	0000b446          	.word	0x0000b446
    1940:	00460613          	addi	x12,x12,4

# Testcase cr_rs1_imm_edges (rs1 = 0x7fffffff, imm = 0)
  RVTEST_TESTDATA_LOAD_INT(x1, x30) # load rs1: x30 = 0x7fffffff
    1944:	0000af03          	lw	x30,0(x1)
    1948:	00408093          	addi	x1,x1,4

0000194c <I_ori_cg_cr_rs1_imm_edges_rs1val_0x7fffffff_immval_0x0>:
I_ori_cg_cr_rs1_imm_edges_rs1val_0x7fffffff_immval_0x0:
  ori x29, x30, 0 # perform operation
    194c:	000f6e93          	ori	x29,x30,0
  # Check if x29 contains the expected result. x12 is the signature ptr, x8 is the link ptr, x7 is a temp reg.
  RVTEST_SIGUPD(x12, x8, x7, x29, I_ori_cg_cr_rs1_imm_edges_rs1val_0x7fffffff_immval_0x0, I_ori_cg_cr_rs1_imm_edges_rs1val_0x7fffffff_immval_0x0_str)
    1950:	00062383          	lw	x7,0(x12)
    1954:	01d38863          	beq	x7,x29,1964 <I_ori_cg_cr_rs1_imm_edges_rs1val_0x7fffffff_immval_0x0+0x18>
    1958:	35d0146f          	jal	x8,34b4 <failedtest_x8_x7>
    195c:	0000194c          	.word	0x0000194c
    1960:	0000b49b          	.word	0x0000b49b
    1964:	00460613          	addi	x12,x12,4

# Testcase cr_rs1_imm_edges (rs1 = 0x7fffffff, imm = 1)
  RVTEST_TESTDATA_LOAD_INT(x1, x9) # load rs1: x9 = 0x7fffffff
    1968:	0000a483          	lw	x9,0(x1)
    196c:	00408093          	addi	x1,x1,4

00001970 <I_ori_cg_cr_rs1_imm_edges_rs1val_0x7fffffff_immval_0x1>:
I_ori_cg_cr_rs1_imm_edges_rs1val_0x7fffffff_immval_0x1:
  ori x25, x9, 1 # perform operation
    1970:	0014ec93          	ori	x25,x9,1
  # Check if x25 contains the expected result. x12 is the signature ptr, x8 is the link ptr, x7 is a temp reg.
  RVTEST_SIGUPD(x12, x8, x7, x25, I_ori_cg_cr_rs1_imm_edges_rs1val_0x7fffffff_immval_0x1, I_ori_cg_cr_rs1_imm_edges_rs1val_0x7fffffff_immval_0x1_str)
    1974:	00062383          	lw	x7,0(x12)
    1978:	01938863          	beq	x7,x25,1988 <I_ori_cg_cr_rs1_imm_edges_rs1val_0x7fffffff_immval_0x1+0x18>
    197c:	3390146f          	jal	x8,34b4 <failedtest_x8_x7>
    1980:	00001970          	.word	0x00001970
    1984:	0000b4ef          	.word	0x0000b4ef
    1988:	00460613          	addi	x12,x12,4

# Testcase cr_rs1_imm_edges (rs1 = 0x7fffffff, imm = 2)
  RVTEST_TESTDATA_LOAD_INT(x1, x28) # load rs1: x28 = 0x7fffffff
    198c:	0000ae03          	lw	x28,0(x1)
    1990:	00408093          	addi	x1,x1,4

00001994 <I_ori_cg_cr_rs1_imm_edges_rs1val_0x7fffffff_immval_0x2>:
I_ori_cg_cr_rs1_imm_edges_rs1val_0x7fffffff_immval_0x2:
  ori x13, x28, 2 # perform operation
    1994:	002e6693          	ori	x13,x28,2
  # Check if x13 contains the expected result. x12 is the signature ptr, x8 is the link ptr, x7 is a temp reg.
  RVTEST_SIGUPD(x12, x8, x7, x13, I_ori_cg_cr_rs1_imm_edges_rs1val_0x7fffffff_immval_0x2, I_ori_cg_cr_rs1_imm_edges_rs1val_0x7fffffff_immval_0x2_str)
    1998:	00062383          	lw	x7,0(x12)
    199c:	00d38863          	beq	x7,x13,19ac <I_ori_cg_cr_rs1_imm_edges_rs1val_0x7fffffff_immval_0x2+0x18>
    19a0:	3150146f          	jal	x8,34b4 <failedtest_x8_x7>
    19a4:	00001994          	.word	0x00001994
    19a8:	0000b543          	.word	0x0000b543
    19ac:	00460613          	addi	x12,x12,4

# Testcase cr_rs1_imm_edges (rs1 = 0x7fffffff, imm = 3)
  RVTEST_TESTDATA_LOAD_INT(x1, x15) # load rs1: x15 = 0x7fffffff
    19b0:	0000a783          	lw	x15,0(x1)
    19b4:	00408093          	addi	x1,x1,4

000019b8 <I_ori_cg_cr_rs1_imm_edges_rs1val_0x7fffffff_immval_0x3>:
I_ori_cg_cr_rs1_imm_edges_rs1val_0x7fffffff_immval_0x3:
  ori x28, x15, 3 # perform operation
    19b8:	0037ee13          	ori	x28,x15,3
  # Check if x28 contains the expected result. x12 is the signature ptr, x8 is the link ptr, x7 is a temp reg.
  RVTEST_SIGUPD(x12, x8, x7, x28, I_ori_cg_cr_rs1_imm_edges_rs1val_0x7fffffff_immval_0x3, I_ori_cg_cr_rs1_imm_edges_rs1val_0x7fffffff_immval_0x3_str)
    19bc:	00062383          	lw	x7,0(x12)
    19c0:	01c38863          	beq	x7,x28,19d0 <I_ori_cg_cr_rs1_imm_edges_rs1val_0x7fffffff_immval_0x3+0x18>
    19c4:	2f10146f          	jal	x8,34b4 <failedtest_x8_x7>
    19c8:	000019b8          	.word	0x000019b8
    19cc:	0000b597          	.word	0x0000b597
    19d0:	00460613          	addi	x12,x12,4

# Testcase cr_rs1_imm_edges (rs1 = 0x7fffffff, imm = 4)
  RVTEST_TESTDATA_LOAD_INT(x1, x9) # load rs1: x9 = 0x7fffffff
    19d4:	0000a483          	lw	x9,0(x1)
    19d8:	00408093          	addi	x1,x1,4

000019dc <I_ori_cg_cr_rs1_imm_edges_rs1val_0x7fffffff_immval_0x4>:
I_ori_cg_cr_rs1_imm_edges_rs1val_0x7fffffff_immval_0x4:
  ori x22, x9, 4 # perform operation
    19dc:	0044eb13          	ori	x22,x9,4
  # Check if x22 contains the expected result. x12 is the signature ptr, x8 is the link ptr, x7 is a temp reg.
  RVTEST_SIGUPD(x12, x8, x7, x22, I_ori_cg_cr_rs1_imm_edges_rs1val_0x7fffffff_immval_0x4, I_ori_cg_cr_rs1_imm_edges_rs1val_0x7fffffff_immval_0x4_str)
    19e0:	00062383          	lw	x7,0(x12)
    19e4:	01638863          	beq	x7,x22,19f4 <I_ori_cg_cr_rs1_imm_edges_rs1val_0x7fffffff_immval_0x4+0x18>
    19e8:	2cd0146f          	jal	x8,34b4 <failedtest_x8_x7>
    19ec:	000019dc          	.word	0x000019dc
    19f0:	0000b5eb          	.word	0x0000b5eb
    19f4:	00460613          	addi	x12,x12,4

# Testcase cr_rs1_imm_edges (rs1 = 0x7fffffff, imm = 8)
  RVTEST_TESTDATA_LOAD_INT(x1, x29) # load rs1: x29 = 0x7fffffff
    19f8:	0000ae83          	lw	x29,0(x1)
    19fc:	00408093          	addi	x1,x1,4

00001a00 <I_ori_cg_cr_rs1_imm_edges_rs1val_0x7fffffff_immval_0x8>:
I_ori_cg_cr_rs1_imm_edges_rs1val_0x7fffffff_immval_0x8:
  ori x20, x29, 8 # perform operation
    1a00:	008eea13          	ori	x20,x29,8
  # Check if x20 contains the expected result. x12 is the signature ptr, x8 is the link ptr, x7 is a temp reg.
  RVTEST_SIGUPD(x12, x8, x7, x20, I_ori_cg_cr_rs1_imm_edges_rs1val_0x7fffffff_immval_0x8, I_ori_cg_cr_rs1_imm_edges_rs1val_0x7fffffff_immval_0x8_str)
    1a04:	00062383          	lw	x7,0(x12)
    1a08:	01438863          	beq	x7,x20,1a18 <I_ori_cg_cr_rs1_imm_edges_rs1val_0x7fffffff_immval_0x8+0x18>
    1a0c:	2a90146f          	jal	x8,34b4 <failedtest_x8_x7>
    1a10:	00001a00          	.word	0x00001a00
    1a14:	0000b63f          	.word	0x0000b63f
    1a18:	00460613          	addi	x12,x12,4

# Testcase cr_rs1_imm_edges (rs1 = 0x7fffffff, imm = 16)
  RVTEST_TESTDATA_LOAD_INT(x1, x23) # load rs1: x23 = 0x7fffffff
    1a1c:	0000ab83          	lw	x23,0(x1)
    1a20:	00408093          	addi	x1,x1,4

00001a24 <I_ori_cg_cr_rs1_imm_edges_rs1val_0x7fffffff_immval_0x10>:
I_ori_cg_cr_rs1_imm_edges_rs1val_0x7fffffff_immval_0x10:
  ori x9, x23, 16 # perform operation
    1a24:	010be493          	ori	x9,x23,16
  # Check if x9 contains the expected result. x12 is the signature ptr, x8 is the link ptr, x7 is a temp reg.
  RVTEST_SIGUPD(x12, x8, x7, x9, I_ori_cg_cr_rs1_imm_edges_rs1val_0x7fffffff_immval_0x10, I_ori_cg_cr_rs1_imm_edges_rs1val_0x7fffffff_immval_0x10_str)
    1a28:	00062383          	lw	x7,0(x12)
    1a2c:	00938863          	beq	x7,x9,1a3c <I_ori_cg_cr_rs1_imm_edges_rs1val_0x7fffffff_immval_0x10+0x18>
    1a30:	2850146f          	jal	x8,34b4 <failedtest_x8_x7>
    1a34:	00001a24          	.word	0x00001a24
