
/home/dev/github/clones/riscv-arch-test/work/rv32i-core/elfs/rv32i/I/I-ori-00.elf:     file format elf32-littleriscv
/home/dev/github/clones/riscv-arch-test/work/rv32i-core/elfs/rv32i/I/I-ori-00.elf
architecture: riscv:rv32, flags 0x00000112:
EXEC_P, HAS_SYMS, D_PAGED
start address 0x00000000

Program Header:
0x70000003 off    0x0001e240 vaddr 0x00000000 paddr 0x00000000 align 2**0
         filesz 0x00000033 memsz 0x00000000 flags r--
    LOAD off    0x00001000 vaddr 0x00000000 paddr 0x00000000 align 2**12
         filesz 0x00004f20 memsz 0x00004f20 flags r-x
    LOAD off    0x00006000 vaddr 0x00008000 paddr 0x00008000 align 2**12
         filesz 0x00018240 memsz 0x00018240 flags rwx

Sections:
Idx Name          Size      VMA       LMA       File off  Algn
  0 .text.init    00000040  00000000  00000000  00001000  2**5
                  CONTENTS, ALLOC, LOAD, READONLY, CODE
  1 .text.rvtest  00004ee0  00000040  00000040  00001040  2**5
                  CONTENTS, ALLOC, LOAD, READONLY, CODE
  2 .data         00017b20  00008000  00008000  00006000  2**8
                  CONTENTS, ALLOC, LOAD, DATA
  3 .text.rvmodel 00000240  00020000  00020000  0001e000  2**5
                  CONTENTS, ALLOC, LOAD, READONLY, CODE
  4 .riscv.attributes 00000033  00000000  00000000  0001e240  2**0
                  CONTENTS, READONLY
  5 .debug_line   00001ac4  00000000  00000000  0001e273  2**0
                  CONTENTS, READONLY, DEBUGGING, OCTETS
  6 .debug_line_str 00000069  00000000  00000000  0001fd37  2**0
                  CONTENTS, READONLY, DEBUGGING, OCTETS
  7 .debug_info   00000023  00000000  00000000  0001fda0  2**0
                  CONTENTS, READONLY, DEBUGGING, OCTETS
  8 .debug_abbrev 00000012  00000000  00000000  0001fdc3  2**0
                  CONTENTS, READONLY, DEBUGGING, OCTETS
  9 .debug_aranges 00000028  00000000  00000000  0001fdd8  2**3
                  CONTENTS, READONLY, DEBUGGING, OCTETS
 10 .debug_str    00000075  00000000  00000000  0001fe00  2**0
                  CONTENTS, READONLY, DEBUGGING, OCTETS
 11 .debug_rnglists 0000001b  00000000  00000000  0001fe75  2**0
                  CONTENTS, READONLY, DEBUGGING, OCTETS
SYMBOL TABLE:
00000000 l    d  .text.init	00000000 .text.init
00000040 l    d  .text.rvtest	00000000 .text.rvtest
00008000 l    d  .data	00000000 .data
00020000 l    d  .text.rvmodel	00000000 .text.rvmodel
00000000 l    d  .riscv.attributes	00000000 .riscv.attributes
00000000 l    d  .debug_line	00000000 .debug_line
00000000 l    d  .debug_line_str	00000000 .debug_line_str
00000000 l    d  .debug_info	00000000 .debug_info
00000000 l    d  .debug_abbrev	00000000 .debug_abbrev
00000000 l    d  .debug_aranges	00000000 .debug_aranges
00000000 l    d  .debug_str	00000000 .debug_str
00000000 l    d  .debug_rnglists	00000000 .debug_rnglists
00000000 l    df *ABS*	00000000 ccHl9mvg.o
00000003 l       *ABS*	00000000 MMODE_SIG
00000001 l       *ABS*	00000000 SMODE_SIG
00000001 l       *ABS*	00000000 HMODE_SIG
00000002 l       *ABS*	00000000 VMODE_SIG
00020000 l       .text.rvmodel	00000000 rvmodel_boot
00000048 l       .text.rvtest	00000000 I_ori_cg_cp_rs1_b0
0000349c l       .text.rvtest	00000000 failedtest_x5_x4
000086d0 l       .data	00000000 I_ori_cg_cp_rs1_b0_str
0000006c l       .text.rvtest	00000000 I_ori_cg_cp_rs1_b1
000086fd l       .data	00000000 I_ori_cg_cp_rs1_b1_str
00000094 l       .text.rvtest	00000000 I_ori_cg_cp_rs1_b2
0000872a l       .data	00000000 I_ori_cg_cp_rs1_b2_str
000000bc l       .text.rvtest	00000000 I_ori_cg_cp_rs1_b3
00008757 l       .data	00000000 I_ori_cg_cp_rs1_b3_str
000000e8 l       .text.rvtest	00000000 I_ori_cg_cp_rs1_b4
000034b4 l       .text.rvtest	00000000 failedtest_x8_x7
00008784 l       .data	00000000 I_ori_cg_cp_rs1_b4_str
0000010c l       .text.rvtest	00000000 I_ori_cg_cp_rs1_b5
000087b1 l       .data	00000000 I_ori_cg_cp_rs1_b5_str
00000130 l       .text.rvtest	00000000 I_ori_cg_cp_rs1_b6
000087de l       .data	00000000 I_ori_cg_cp_rs1_b6_str
0000015c l       .text.rvtest	00000000 I_ori_cg_cp_rs1_b7
0000880b l       .data	00000000 I_ori_cg_cp_rs1_b7_str
00000180 l       .text.rvtest	00000000 I_ori_cg_cp_rs1_b8
00008838 l       .data	00000000 I_ori_cg_cp_rs1_b8_str
000001a8 l       .text.rvtest	00000000 I_ori_cg_cp_rs1_b9
00008865 l       .data	00000000 I_ori_cg_cp_rs1_b9_str
000001cc l       .text.rvtest	00000000 I_ori_cg_cp_rs1_b10
00008893 l       .data	00000000 I_ori_cg_cp_rs1_b10_str
000001f0 l       .text.rvtest	00000000 I_ori_cg_cp_rs1_b11
000088c2 l       .data	00000000 I_ori_cg_cp_rs1_b11_str
00000214 l       .text.rvtest	00000000 I_ori_cg_cp_rs1_b12
000088f1 l       .data	00000000 I_ori_cg_cp_rs1_b12_str
00000238 l       .text.rvtest	00000000 I_ori_cg_cp_rs1_b13
00008920 l       .data	00000000 I_ori_cg_cp_rs1_b13_str
0000025c l       .text.rvtest	00000000 I_ori_cg_cp_rs1_b14
0000894f l       .data	00000000 I_ori_cg_cp_rs1_b14_str
00000280 l       .text.rvtest	00000000 I_ori_cg_cp_rs1_b15
0000897e l       .data	00000000 I_ori_cg_cp_rs1_b15_str
000002a4 l       .text.rvtest	00000000 I_ori_cg_cp_rs1_b16
000089ad l       .data	00000000 I_ori_cg_cp_rs1_b16_str
000002c8 l       .text.rvtest	00000000 I_ori_cg_cp_rs1_b17
000089dc l       .data	00000000 I_ori_cg_cp_rs1_b17_str
000002ec l       .text.rvtest	00000000 I_ori_cg_cp_rs1_b18
00008a0b l       .data	00000000 I_ori_cg_cp_rs1_b18_str
00000314 l       .text.rvtest	00000000 I_ori_cg_cp_rs1_b19
00008a3a l       .data	00000000 I_ori_cg_cp_rs1_b19_str
00000338 l       .text.rvtest	00000000 I_ori_cg_cp_rs1_b20
00008a69 l       .data	00000000 I_ori_cg_cp_rs1_b20_str
0000035c l       .text.rvtest	00000000 I_ori_cg_cp_rs1_b21
00008a98 l       .data	00000000 I_ori_cg_cp_rs1_b21_str
00000380 l       .text.rvtest	00000000 I_ori_cg_cp_rs1_b22
00008ac7 l       .data	00000000 I_ori_cg_cp_rs1_b22_str
000003a4 l       .text.rvtest	00000000 I_ori_cg_cp_rs1_b23
00008af6 l       .data	00000000 I_ori_cg_cp_rs1_b23_str
000003cc l       .text.rvtest	00000000 I_ori_cg_cp_rs1_b24
00008b25 l       .data	00000000 I_ori_cg_cp_rs1_b24_str
000003f0 l       .text.rvtest	00000000 I_ori_cg_cp_rs1_b25
00008b54 l       .data	00000000 I_ori_cg_cp_rs1_b25_str
00000414 l       .text.rvtest	00000000 I_ori_cg_cp_rs1_b26
00008b83 l       .data	00000000 I_ori_cg_cp_rs1_b26_str
00000438 l       .text.rvtest	00000000 I_ori_cg_cp_rs1_b27
00008bb2 l       .data	00000000 I_ori_cg_cp_rs1_b27_str
0000045c l       .text.rvtest	00000000 I_ori_cg_cp_rs1_b28
00008be1 l       .data	00000000 I_ori_cg_cp_rs1_b28_str
00000480 l       .text.rvtest	00000000 I_ori_cg_cp_rs1_b29
00008c10 l       .data	00000000 I_ori_cg_cp_rs1_b29_str
000004a8 l       .text.rvtest	00000000 I_ori_cg_cp_rs1_b30
00008c3f l       .data	00000000 I_ori_cg_cp_rs1_b30_str
000004cc l       .text.rvtest	00000000 I_ori_cg_cp_rs1_b31
00008c6e l       .data	00000000 I_ori_cg_cp_rs1_b31_str
000004f0 l       .text.rvtest	00000000 I_ori_cg_cp_rd_b0
00008c9d l       .data	00000000 I_ori_cg_cp_rd_b0_str
00000514 l       .text.rvtest	00000000 I_ori_cg_cp_rd_b1
00008cca l       .data	00000000 I_ori_cg_cp_rd_b1_str
00000538 l       .text.rvtest	00000000 I_ori_cg_cp_rd_b2
00008cf7 l       .data	00000000 I_ori_cg_cp_rd_b2_str
0000055c l       .text.rvtest	00000000 I_ori_cg_cp_rd_b3
00008d24 l       .data	00000000 I_ori_cg_cp_rd_b3_str
00000588 l       .text.rvtest	00000000 I_ori_cg_cp_rd_b4
000034dc l       .text.rvtest	00000000 failedtest_x14_x13
00008d51 l       .data	00000000 I_ori_cg_cp_rd_b4_str
000005ac l       .text.rvtest	00000000 I_ori_cg_cp_rd_b5
00008d7e l       .data	00000000 I_ori_cg_cp_rd_b5_str
000005d0 l       .text.rvtest	00000000 I_ori_cg_cp_rd_b6
00008dab l       .data	00000000 I_ori_cg_cp_rd_b6_str
000005f4 l       .text.rvtest	00000000 I_ori_cg_cp_rd_b7
00008dd8 l       .data	00000000 I_ori_cg_cp_rd_b7_str
00000618 l       .text.rvtest	00000000 I_ori_cg_cp_rd_b8
00008e05 l       .data	00000000 I_ori_cg_cp_rd_b8_str
0000063c l       .text.rvtest	00000000 I_ori_cg_cp_rd_b9
00008e32 l       .data	00000000 I_ori_cg_cp_rd_b9_str
00000660 l       .text.rvtest	00000000 I_ori_cg_cp_rd_b10
00008e5f l       .data	00000000 I_ori_cg_cp_rd_b10_str
00000684 l       .text.rvtest	00000000 I_ori_cg_cp_rd_b11
00008e8d l       .data	00000000 I_ori_cg_cp_rd_b11_str
000006ac l       .text.rvtest	00000000 I_ori_cg_cp_rd_b12
00008ebb l       .data	00000000 I_ori_cg_cp_rd_b12_str
000006d8 l       .text.rvtest	00000000 I_ori_cg_cp_rd_b13
00008ee9 l       .data	00000000 I_ori_cg_cp_rd_b13_str
000006fc l       .text.rvtest	00000000 I_ori_cg_cp_rd_b14
00008f17 l       .data	00000000 I_ori_cg_cp_rd_b14_str
00000720 l       .text.rvtest	00000000 I_ori_cg_cp_rd_b15
00008f45 l       .data	00000000 I_ori_cg_cp_rd_b15_str
00000744 l       .text.rvtest	00000000 I_ori_cg_cp_rd_b16
00008f73 l       .data	00000000 I_ori_cg_cp_rd_b16_str
0000076c l       .text.rvtest	00000000 I_ori_cg_cp_rd_b17
00008fa1 l       .data	00000000 I_ori_cg_cp_rd_b17_str
00000790 l       .text.rvtest	00000000 I_ori_cg_cp_rd_b18
00008fcf l       .data	00000000 I_ori_cg_cp_rd_b18_str
000007b4 l       .text.rvtest	00000000 I_ori_cg_cp_rd_b19
00008ffd l       .data	00000000 I_ori_cg_cp_rd_b19_str
000007d8 l       .text.rvtest	00000000 I_ori_cg_cp_rd_b20
0000902b l       .data	00000000 I_ori_cg_cp_rd_b20_str
00000800 l       .text.rvtest	00000000 I_ori_cg_cp_rd_b21
00009059 l       .data	00000000 I_ori_cg_cp_rd_b21_str
00000824 l       .text.rvtest	00000000 I_ori_cg_cp_rd_b22
00009087 l       .data	00000000 I_ori_cg_cp_rd_b22_str
00000848 l       .text.rvtest	00000000 I_ori_cg_cp_rd_b23
000090b5 l       .data	00000000 I_ori_cg_cp_rd_b23_str
0000086c l       .text.rvtest	00000000 I_ori_cg_cp_rd_b24
000090e3 l       .data	00000000 I_ori_cg_cp_rd_b24_str
00000890 l       .text.rvtest	00000000 I_ori_cg_cp_rd_b25
00009111 l       .data	00000000 I_ori_cg_cp_rd_b25_str
000008b4 l       .text.rvtest	00000000 I_ori_cg_cp_rd_b26
0000913f l       .data	00000000 I_ori_cg_cp_rd_b26_str
000008d8 l       .text.rvtest	00000000 I_ori_cg_cp_rd_b27
0000916d l       .data	00000000 I_ori_cg_cp_rd_b27_str
000008fc l       .text.rvtest	00000000 I_ori_cg_cp_rd_b28
0000919b l       .data	00000000 I_ori_cg_cp_rd_b28_str
00000920 l       .text.rvtest	00000000 I_ori_cg_cp_rd_b29
000091c9 l       .data	00000000 I_ori_cg_cp_rd_b29_str
00000944 l       .text.rvtest	00000000 I_ori_cg_cp_rd_b30
000091f7 l       .data	00000000 I_ori_cg_cp_rd_b30_str
00000968 l       .text.rvtest	00000000 I_ori_cg_cp_rd_b31
00009225 l       .data	00000000 I_ori_cg_cp_rd_b31_str
0000098c l       .text.rvtest	00000000 I_ori_cg_cp_rs1_edges_0x0
00009253 l       .data	00000000 I_ori_cg_cp_rs1_edges_0x0_str
000009b0 l       .text.rvtest	00000000 I_ori_cg_cp_rs1_edges_0x1
00009288 l       .data	00000000 I_ori_cg_cp_rs1_edges_0x1_str
000009d4 l       .text.rvtest	00000000 I_ori_cg_cp_rs1_edges_0x2
000092bd l       .data	00000000 I_ori_cg_cp_rs1_edges_0x2_str
000009f8 l       .text.rvtest	00000000 I_ori_cg_cp_rs1_edges_0x80000000
000092f2 l       .data	00000000 I_ori_cg_cp_rs1_edges_0x80000000_str
00000a1c l       .text.rvtest	00000000 I_ori_cg_cp_rs1_edges_0x80000001
0000932e l       .data	00000000 I_ori_cg_cp_rs1_edges_0x80000001_str
00000a40 l       .text.rvtest	00000000 I_ori_cg_cp_rs1_edges_0x7fffffff
0000936a l       .data	00000000 I_ori_cg_cp_rs1_edges_0x7fffffff_str
00000a64 l       .text.rvtest	00000000 I_ori_cg_cp_rs1_edges_0x7ffffffe
000093a6 l       .data	00000000 I_ori_cg_cp_rs1_edges_0x7ffffffe_str
00000a88 l       .text.rvtest	00000000 I_ori_cg_cp_rs1_edges_0xffffffff
000093e2 l       .data	00000000 I_ori_cg_cp_rs1_edges_0xffffffff_str
00000aac l       .text.rvtest	00000000 I_ori_cg_cp_rs1_edges_0xfffffffe
0000941e l       .data	00000000 I_ori_cg_cp_rs1_edges_0xfffffffe_str
00000ad0 l       .text.rvtest	00000000 I_ori_cg_cp_rs1_edges_0x5bbc8872
0000945a l       .data	00000000 I_ori_cg_cp_rs1_edges_0x5bbc8872_str
00000af4 l       .text.rvtest	00000000 I_ori_cg_cp_rs1_edges_0xaaaaaaaa
00009496 l       .data	00000000 I_ori_cg_cp_rs1_edges_0xaaaaaaaa_str
00000b18 l       .text.rvtest	00000000 I_ori_cg_cp_rs1_edges_0x55555555
000094d2 l       .data	00000000 I_ori_cg_cp_rs1_edges_0x55555555_str
00000b3c l       .text.rvtest	00000000 I_ori_cg_cr_rs1_imm_edges_rs1val_0x0_immval_0x0
0000950e l       .data	00000000 I_ori_cg_cr_rs1_imm_edges_rs1val_0x0_immval_0x0_str
00000b60 l       .text.rvtest	00000000 I_ori_cg_cr_rs1_imm_edges_rs1val_0x0_immval_0x1
0000955a l       .data	00000000 I_ori_cg_cr_rs1_imm_edges_rs1val_0x0_immval_0x1_str
00000b84 l       .text.rvtest	00000000 I_ori_cg_cr_rs1_imm_edges_rs1val_0x0_immval_0x2
000095a6 l       .data	00000000 I_ori_cg_cr_rs1_imm_edges_rs1val_0x0_immval_0x2_str
00000ba8 l       .text.rvtest	00000000 I_ori_cg_cr_rs1_imm_edges_rs1val_0x0_immval_0x3
000095f2 l       .data	00000000 I_ori_cg_cr_rs1_imm_edges_rs1val_0x0_immval_0x3_str
00000bcc l       .text.rvtest	00000000 I_ori_cg_cr_rs1_imm_edges_rs1val_0x0_immval_0x4
0000963e l       .data	00000000 I_ori_cg_cr_rs1_imm_edges_rs1val_0x0_immval_0x4_str
00000bf0 l       .text.rvtest	00000000 I_ori_cg_cr_rs1_imm_edges_rs1val_0x0_immval_0x8
0000968a l       .data	00000000 I_ori_cg_cr_rs1_imm_edges_rs1val_0x0_immval_0x8_str
00000c14 l       .text.rvtest	00000000 I_ori_cg_cr_rs1_imm_edges_rs1val_0x0_immval_0x10
000096d6 l       .data	00000000 I_ori_cg_cr_rs1_imm_edges_rs1val_0x0_immval_0x10_str
00000c38 l       .text.rvtest	00000000 I_ori_cg_cr_rs1_imm_edges_rs1val_0x0_immval_0x20
00009723 l       .data	00000000 I_ori_cg_cr_rs1_imm_edges_rs1val_0x0_immval_0x20_str
00000c5c l       .text.rvtest	00000000 I_ori_cg_cr_rs1_imm_edges_rs1val_0x0_immval_0x40
00009770 l       .data	00000000 I_ori_cg_cr_rs1_imm_edges_rs1val_0x0_immval_0x40_str
00000c80 l       .text.rvtest	00000000 I_ori_cg_cr_rs1_imm_edges_rs1val_0x0_immval_0x80
000097bd l       .data	00000000 I_ori_cg_cr_rs1_imm_edges_rs1val_0x0_immval_0x80_str
00000ca4 l       .text.rvtest	00000000 I_ori_cg_cr_rs1_imm_edges_rs1val_0x0_immval_0x100
0000980a l       .data	00000000 I_ori_cg_cr_rs1_imm_edges_rs1val_0x0_immval_0x100_str
00000cc8 l       .text.rvtest	00000000 I_ori_cg_cr_rs1_imm_edges_rs1val_0x0_immval_0x200
00009858 l       .data	00000000 I_ori_cg_cr_rs1_imm_edges_rs1val_0x0_immval_0x200_str
00000cec l       .text.rvtest	00000000 I_ori_cg_cr_rs1_imm_edges_rs1val_0x0_immval_0x3ff
000098a6 l       .data	00000000 I_ori_cg_cr_rs1_imm_edges_rs1val_0x0_immval_0x3ff_str
00000d10 l       .text.rvtest	00000000 I_ori_cg_cr_rs1_imm_edges_rs1val_0x0_immval_0x400
000098f4 l       .data	00000000 I_ori_cg_cr_rs1_imm_edges_rs1val_0x0_immval_0x400_str
00000d34 l       .text.rvtest	00000000 I_ori_cg_cr_rs1_imm_edges_rs1val_0x0_immval_0x703
00009942 l       .data	00000000 I_ori_cg_cr_rs1_imm_edges_rs1val_0x0_immval_0x703_str
00000d58 l       .text.rvtest	00000000 I_ori_cg_cr_rs1_imm_edges_rs1val_0x0_immval_0x7ff
00009990 l       .data	00000000 I_ori_cg_cr_rs1_imm_edges_rs1val_0x0_immval_0x7ff_str
00000d7c l       .text.rvtest	00000000 I_ori_cg_cr_rs1_imm_edges_rs1val_0x0_immval_m0x800
000099de l       .data	00000000 I_ori_cg_cr_rs1_imm_edges_rs1val_0x0_immval_m0x800_str
00000da0 l       .text.rvtest	00000000 I_ori_cg_cr_rs1_imm_edges_rs1val_0x0_immval_m0x7ff
00009a2d l       .data	00000000 I_ori_cg_cr_rs1_imm_edges_rs1val_0x0_immval_m0x7ff_str
00000dc4 l       .text.rvtest	00000000 I_ori_cg_cr_rs1_imm_edges_rs1val_0x0_immval_m0x2
00009a7c l       .data	00000000 I_ori_cg_cr_rs1_imm_edges_rs1val_0x0_immval_m0x2_str
00000de8 l       .text.rvtest	00000000 I_ori_cg_cr_rs1_imm_edges_rs1val_0x0_immval_m0x1
00009ac9 l       .data	00000000 I_ori_cg_cr_rs1_imm_edges_rs1val_0x0_immval_m0x1_str
00000e0c l       .text.rvtest	00000000 I_ori_cg_cr_rs1_imm_edges_rs1val_0x1_immval_0x0
00009b16 l       .data	00000000 I_ori_cg_cr_rs1_imm_edges_rs1val_0x1_immval_0x0_str
00000e30 l       .text.rvtest	00000000 I_ori_cg_cr_rs1_imm_edges_rs1val_0x1_immval_0x1
00009b62 l       .data	00000000 I_ori_cg_cr_rs1_imm_edges_rs1val_0x1_immval_0x1_str
00000e54 l       .text.rvtest	00000000 I_ori_cg_cr_rs1_imm_edges_rs1val_0x1_immval_0x2
00009bae l       .data	00000000 I_ori_cg_cr_rs1_imm_edges_rs1val_0x1_immval_0x2_str
00000e78 l       .text.rvtest	00000000 I_ori_cg_cr_rs1_imm_edges_rs1val_0x1_immval_0x3
00009bfa l       .data	00000000 I_ori_cg_cr_rs1_imm_edges_rs1val_0x1_immval_0x3_str
00000e9c l       .text.rvtest	00000000 I_ori_cg_cr_rs1_imm_edges_rs1val_0x1_immval_0x4
00009c47 l       .data	00000000 I_ori_cg_cr_rs1_imm_edges_rs1val_0x1_immval_0x4_str
00000ec0 l       .text.rvtest	00000000 I_ori_cg_cr_rs1_imm_edges_rs1val_0x1_immval_0x8
00009c94 l       .data	00000000 I_ori_cg_cr_rs1_imm_edges_rs1val_0x1_immval_0x8_str
00000ee4 l       .text.rvtest	00000000 I_ori_cg_cr_rs1_imm_edges_rs1val_0x1_immval_0x10
00009ce1 l       .data	00000000 I_ori_cg_cr_rs1_imm_edges_rs1val_0x1_immval_0x10_str
00000f08 l       .text.rvtest	00000000 I_ori_cg_cr_rs1_imm_edges_rs1val_0x1_immval_0x20
00009d2f l       .data	00000000 I_ori_cg_cr_rs1_imm_edges_rs1val_0x1_immval_0x20_str
00000f2c l       .text.rvtest	00000000 I_ori_cg_cr_rs1_imm_edges_rs1val_0x1_immval_0x40
00009d7d l       .data	00000000 I_ori_cg_cr_rs1_imm_edges_rs1val_0x1_immval_0x40_str
00000f50 l       .text.rvtest	00000000 I_ori_cg_cr_rs1_imm_edges_rs1val_0x1_immval_0x80
00009dcb l       .data	00000000 I_ori_cg_cr_rs1_imm_edges_rs1val_0x1_immval_0x80_str
00000f74 l       .text.rvtest	00000000 I_ori_cg_cr_rs1_imm_edges_rs1val_0x1_immval_0x100
00009e19 l       .data	00000000 I_ori_cg_cr_rs1_imm_edges_rs1val_0x1_immval_0x100_str
00000f98 l       .text.rvtest	00000000 I_ori_cg_cr_rs1_imm_edges_rs1val_0x1_immval_0x200
00009e68 l       .data	00000000 I_ori_cg_cr_rs1_imm_edges_rs1val_0x1_immval_0x200_str
00000fbc l       .text.rvtest	00000000 I_ori_cg_cr_rs1_imm_edges_rs1val_0x1_immval_0x3ff
00009eb7 l       .data	00000000 I_ori_cg_cr_rs1_imm_edges_rs1val_0x1_immval_0x3ff_str
00000fe0 l       .text.rvtest	00000000 I_ori_cg_cr_rs1_imm_edges_rs1val_0x1_immval_0x400
00009f06 l       .data	00000000 I_ori_cg_cr_rs1_imm_edges_rs1val_0x1_immval_0x400_str
00001004 l       .text.rvtest	00000000 I_ori_cg_cr_rs1_imm_edges_rs1val_0x1_immval_0x703
00009f55 l       .data	00000000 I_ori_cg_cr_rs1_imm_edges_rs1val_0x1_immval_0x703_str
00001028 l       .text.rvtest	00000000 I_ori_cg_cr_rs1_imm_edges_rs1val_0x1_immval_0x7ff
00009fa4 l       .data	00000000 I_ori_cg_cr_rs1_imm_edges_rs1val_0x1_immval_0x7ff_str
0000104c l       .text.rvtest	00000000 I_ori_cg_cr_rs1_imm_edges_rs1val_0x1_immval_m0x800
00009ff3 l       .data	00000000 I_ori_cg_cr_rs1_imm_edges_rs1val_0x1_immval_m0x800_str
00001070 l       .text.rvtest	00000000 I_ori_cg_cr_rs1_imm_edges_rs1val_0x1_immval_m0x7ff
0000a043 l       .data	00000000 I_ori_cg_cr_rs1_imm_edges_rs1val_0x1_immval_m0x7ff_str
00001094 l       .text.rvtest	00000000 I_ori_cg_cr_rs1_imm_edges_rs1val_0x1_immval_m0x2
0000a093 l       .data	00000000 I_ori_cg_cr_rs1_imm_edges_rs1val_0x1_immval_m0x2_str
000010b8 l       .text.rvtest	00000000 I_ori_cg_cr_rs1_imm_edges_rs1val_0x1_immval_m0x1
0000a0e1 l       .data	00000000 I_ori_cg_cr_rs1_imm_edges_rs1val_0x1_immval_m0x1_str
000010dc l       .text.rvtest	00000000 I_ori_cg_cr_rs1_imm_edges_rs1val_0x2_immval_0x0
0000a12f l       .data	00000000 I_ori_cg_cr_rs1_imm_edges_rs1val_0x2_immval_0x0_str
00001100 l       .text.rvtest	00000000 I_ori_cg_cr_rs1_imm_edges_rs1val_0x2_immval_0x1
0000a17c l       .data	00000000 I_ori_cg_cr_rs1_imm_edges_rs1val_0x2_immval_0x1_str
00001124 l       .text.rvtest	00000000 I_ori_cg_cr_rs1_imm_edges_rs1val_0x2_immval_0x2
0000a1c9 l       .data	00000000 I_ori_cg_cr_rs1_imm_edges_rs1val_0x2_immval_0x2_str
00001148 l       .text.rvtest	00000000 I_ori_cg_cr_rs1_imm_edges_rs1val_0x2_immval_0x3
0000a216 l       .data	00000000 I_ori_cg_cr_rs1_imm_edges_rs1val_0x2_immval_0x3_str
0000116c l       .text.rvtest	00000000 I_ori_cg_cr_rs1_imm_edges_rs1val_0x2_immval_0x4
0000a263 l       .data	00000000 I_ori_cg_cr_rs1_imm_edges_rs1val_0x2_immval_0x4_str
00001190 l       .text.rvtest	00000000 I_ori_cg_cr_rs1_imm_edges_rs1val_0x2_immval_0x8
0000a2b0 l       .data	00000000 I_ori_cg_cr_rs1_imm_edges_rs1val_0x2_immval_0x8_str
000011b4 l       .text.rvtest	00000000 I_ori_cg_cr_rs1_imm_edges_rs1val_0x2_immval_0x10
0000a2fd l       .data	00000000 I_ori_cg_cr_rs1_imm_edges_rs1val_0x2_immval_0x10_str
000011d8 l       .text.rvtest	00000000 I_ori_cg_cr_rs1_imm_edges_rs1val_0x2_immval_0x20
0000a34b l       .data	00000000 I_ori_cg_cr_rs1_imm_edges_rs1val_0x2_immval_0x20_str
000011fc l       .text.rvtest	00000000 I_ori_cg_cr_rs1_imm_edges_rs1val_0x2_immval_0x40
0000a399 l       .data	00000000 I_ori_cg_cr_rs1_imm_edges_rs1val_0x2_immval_0x40_str
00001220 l       .text.rvtest	00000000 I_ori_cg_cr_rs1_imm_edges_rs1val_0x2_immval_0x80
0000a3e7 l       .data	00000000 I_ori_cg_cr_rs1_imm_edges_rs1val_0x2_immval_0x80_str
00001244 l       .text.rvtest	00000000 I_ori_cg_cr_rs1_imm_edges_rs1val_0x2_immval_0x100
0000a435 l       .data	00000000 I_ori_cg_cr_rs1_imm_edges_rs1val_0x2_immval_0x100_str
00001268 l       .text.rvtest	00000000 I_ori_cg_cr_rs1_imm_edges_rs1val_0x2_immval_0x200
0000a484 l       .data	00000000 I_ori_cg_cr_rs1_imm_edges_rs1val_0x2_immval_0x200_str
0000128c l       .text.rvtest	00000000 I_ori_cg_cr_rs1_imm_edges_rs1val_0x2_immval_0x3ff
0000a4d3 l       .data	00000000 I_ori_cg_cr_rs1_imm_edges_rs1val_0x2_immval_0x3ff_str
000012b0 l       .text.rvtest	00000000 I_ori_cg_cr_rs1_imm_edges_rs1val_0x2_immval_0x400
0000a522 l       .data	00000000 I_ori_cg_cr_rs1_imm_edges_rs1val_0x2_immval_0x400_str
000012d4 l       .text.rvtest	00000000 I_ori_cg_cr_rs1_imm_edges_rs1val_0x2_immval_0x703
0000a571 l       .data	00000000 I_ori_cg_cr_rs1_imm_edges_rs1val_0x2_immval_0x703_str
000012f8 l       .text.rvtest	00000000 I_ori_cg_cr_rs1_imm_edges_rs1val_0x2_immval_0x7ff
0000a5c0 l       .data	00000000 I_ori_cg_cr_rs1_imm_edges_rs1val_0x2_immval_0x7ff_str
0000131c l       .text.rvtest	00000000 I_ori_cg_cr_rs1_imm_edges_rs1val_0x2_immval_m0x800
0000a60f l       .data	00000000 I_ori_cg_cr_rs1_imm_edges_rs1val_0x2_immval_m0x800_str
00001340 l       .text.rvtest	00000000 I_ori_cg_cr_rs1_imm_edges_rs1val_0x2_immval_m0x7ff
0000a65f l       .data	00000000 I_ori_cg_cr_rs1_imm_edges_rs1val_0x2_immval_m0x7ff_str
00001364 l       .text.rvtest	00000000 I_ori_cg_cr_rs1_imm_edges_rs1val_0x2_immval_m0x2
0000a6af l       .data	00000000 I_ori_cg_cr_rs1_imm_edges_rs1val_0x2_immval_m0x2_str
00001388 l       .text.rvtest	00000000 I_ori_cg_cr_rs1_imm_edges_rs1val_0x2_immval_m0x1
0000a6fd l       .data	00000000 I_ori_cg_cr_rs1_imm_edges_rs1val_0x2_immval_m0x1_str
000013ac l       .text.rvtest	00000000 I_ori_cg_cr_rs1_imm_edges_rs1val_0x80000000_immval_0x0
0000a74b l       .data	00000000 I_ori_cg_cr_rs1_imm_edges_rs1val_0x80000000_immval_0x0_str
000013d0 l       .text.rvtest	00000000 I_ori_cg_cr_rs1_imm_edges_rs1val_0x80000000_immval_0x1
0000a79f l       .data	00000000 I_ori_cg_cr_rs1_imm_edges_rs1val_0x80000000_immval_0x1_str
000013f4 l       .text.rvtest	00000000 I_ori_cg_cr_rs1_imm_edges_rs1val_0x80000000_immval_0x2
0000a7f3 l       .data	00000000 I_ori_cg_cr_rs1_imm_edges_rs1val_0x80000000_immval_0x2_str
00001418 l       .text.rvtest	00000000 I_ori_cg_cr_rs1_imm_edges_rs1val_0x80000000_immval_0x3
0000a847 l       .data	00000000 I_ori_cg_cr_rs1_imm_edges_rs1val_0x80000000_immval_0x3_str
0000143c l       .text.rvtest	00000000 I_ori_cg_cr_rs1_imm_edges_rs1val_0x80000000_immval_0x4
0000a89b l       .data	00000000 I_ori_cg_cr_rs1_imm_edges_rs1val_0x80000000_immval_0x4_str
00001460 l       .text.rvtest	00000000 I_ori_cg_cr_rs1_imm_edges_rs1val_0x80000000_immval_0x8
0000a8ef l       .data	00000000 I_ori_cg_cr_rs1_imm_edges_rs1val_0x80000000_immval_0x8_str
00001484 l       .text.rvtest	00000000 I_ori_cg_cr_rs1_imm_edges_rs1val_0x80000000_immval_0x10
0000a943 l       .data	00000000 I_ori_cg_cr_rs1_imm_edges_rs1val_0x80000000_immval_0x10_str
000014a8 l       .text.rvtest	00000000 I_ori_cg_cr_rs1_imm_edges_rs1val_0x80000000_immval_0x20
0000a998 l       .data	00000000 I_ori_cg_cr_rs1_imm_edges_rs1val_0x80000000_immval_0x20_str
000014cc l       .text.rvtest	00000000 I_ori_cg_cr_rs1_imm_edges_rs1val_0x80000000_immval_0x40
0000a9ed l       .data	00000000 I_ori_cg_cr_rs1_imm_edges_rs1val_0x80000000_immval_0x40_str
000014f0 l       .text.rvtest	00000000 I_ori_cg_cr_rs1_imm_edges_rs1val_0x80000000_immval_0x80
0000aa42 l       .data	00000000 I_ori_cg_cr_rs1_imm_edges_rs1val_0x80000000_immval_0x80_str
00001514 l       .text.rvtest	00000000 I_ori_cg_cr_rs1_imm_edges_rs1val_0x80000000_immval_0x100
0000aa97 l       .data	00000000 I_ori_cg_cr_rs1_imm_edges_rs1val_0x80000000_immval_0x100_str
00001538 l       .text.rvtest	00000000 I_ori_cg_cr_rs1_imm_edges_rs1val_0x80000000_immval_0x200
0000aaed l       .data	00000000 I_ori_cg_cr_rs1_imm_edges_rs1val_0x80000000_immval_0x200_str
0000155c l       .text.rvtest	00000000 I_ori_cg_cr_rs1_imm_edges_rs1val_0x80000000_immval_0x3ff
0000ab43 l       .data	00000000 I_ori_cg_cr_rs1_imm_edges_rs1val_0x80000000_immval_0x3ff_str
00001580 l       .text.rvtest	00000000 I_ori_cg_cr_rs1_imm_edges_rs1val_0x80000000_immval_0x400
0000ab99 l       .data	00000000 I_ori_cg_cr_rs1_imm_edges_rs1val_0x80000000_immval_0x400_str
000015a4 l       .text.rvtest	00000000 I_ori_cg_cr_rs1_imm_edges_rs1val_0x80000000_immval_0x703
0000abef l       .data	00000000 I_ori_cg_cr_rs1_imm_edges_rs1val_0x80000000_immval_0x703_str
000015c8 l       .text.rvtest	00000000 I_ori_cg_cr_rs1_imm_edges_rs1val_0x80000000_immval_0x7ff
0000ac45 l       .data	00000000 I_ori_cg_cr_rs1_imm_edges_rs1val_0x80000000_immval_0x7ff_str
000015ec l       .text.rvtest	00000000 I_ori_cg_cr_rs1_imm_edges_rs1val_0x80000000_immval_m0x800
0000ac9b l       .data	00000000 I_ori_cg_cr_rs1_imm_edges_rs1val_0x80000000_immval_m0x800_str
00001610 l       .text.rvtest	00000000 I_ori_cg_cr_rs1_imm_edges_rs1val_0x80000000_immval_m0x7ff
0000acf2 l       .data	00000000 I_ori_cg_cr_rs1_imm_edges_rs1val_0x80000000_immval_m0x7ff_str
00001634 l       .text.rvtest	00000000 I_ori_cg_cr_rs1_imm_edges_rs1val_0x80000000_immval_m0x2
0000ad49 l       .data	00000000 I_ori_cg_cr_rs1_imm_edges_rs1val_0x80000000_immval_m0x2_str
00001658 l       .text.rvtest	00000000 I_ori_cg_cr_rs1_imm_edges_rs1val_0x80000000_immval_m0x1
0000ad9e l       .data	00000000 I_ori_cg_cr_rs1_imm_edges_rs1val_0x80000000_immval_m0x1_str
0000167c l       .text.rvtest	00000000 I_ori_cg_cr_rs1_imm_edges_rs1val_0x80000001_immval_0x0
0000adf3 l       .data	00000000 I_ori_cg_cr_rs1_imm_edges_rs1val_0x80000001_immval_0x0_str
000016a0 l       .text.rvtest	00000000 I_ori_cg_cr_rs1_imm_edges_rs1val_0x80000001_immval_0x1
0000ae47 l       .data	00000000 I_ori_cg_cr_rs1_imm_edges_rs1val_0x80000001_immval_0x1_str
000016c4 l       .text.rvtest	00000000 I_ori_cg_cr_rs1_imm_edges_rs1val_0x80000001_immval_0x2
0000ae9b l       .data	00000000 I_ori_cg_cr_rs1_imm_edges_rs1val_0x80000001_immval_0x2_str
000016e8 l       .text.rvtest	00000000 I_ori_cg_cr_rs1_imm_edges_rs1val_0x80000001_immval_0x3
0000aeef l       .data	00000000 I_ori_cg_cr_rs1_imm_edges_rs1val_0x80000001_immval_0x3_str
0000170c l       .text.rvtest	00000000 I_ori_cg_cr_rs1_imm_edges_rs1val_0x80000001_immval_0x4
0000af43 l       .data	00000000 I_ori_cg_cr_rs1_imm_edges_rs1val_0x80000001_immval_0x4_str
00001730 l       .text.rvtest	00000000 I_ori_cg_cr_rs1_imm_edges_rs1val_0x80000001_immval_0x8
0000af97 l       .data	00000000 I_ori_cg_cr_rs1_imm_edges_rs1val_0x80000001_immval_0x8_str
00001754 l       .text.rvtest	00000000 I_ori_cg_cr_rs1_imm_edges_rs1val_0x80000001_immval_0x10
0000afeb l       .data	00000000 I_ori_cg_cr_rs1_imm_edges_rs1val_0x80000001_immval_0x10_str
00001778 l       .text.rvtest	00000000 I_ori_cg_cr_rs1_imm_edges_rs1val_0x80000001_immval_0x20
0000b040 l       .data	00000000 I_ori_cg_cr_rs1_imm_edges_rs1val_0x80000001_immval_0x20_str
0000179c l       .text.rvtest	00000000 I_ori_cg_cr_rs1_imm_edges_rs1val_0x80000001_immval_0x40
0000b095 l       .data	00000000 I_ori_cg_cr_rs1_imm_edges_rs1val_0x80000001_immval_0x40_str
000017c0 l       .text.rvtest	00000000 I_ori_cg_cr_rs1_imm_edges_rs1val_0x80000001_immval_0x80
0000b0ea l       .data	00000000 I_ori_cg_cr_rs1_imm_edges_rs1val_0x80000001_immval_0x80_str
000017e4 l       .text.rvtest	00000000 I_ori_cg_cr_rs1_imm_edges_rs1val_0x80000001_immval_0x100
0000b13f l       .data	00000000 I_ori_cg_cr_rs1_imm_edges_rs1val_0x80000001_immval_0x100_str
00001808 l       .text.rvtest	00000000 I_ori_cg_cr_rs1_imm_edges_rs1val_0x80000001_immval_0x200
0000b195 l       .data	00000000 I_ori_cg_cr_rs1_imm_edges_rs1val_0x80000001_immval_0x200_str
0000182c l       .text.rvtest	00000000 I_ori_cg_cr_rs1_imm_edges_rs1val_0x80000001_immval_0x3ff
0000b1eb l       .data	00000000 I_ori_cg_cr_rs1_imm_edges_rs1val_0x80000001_immval_0x3ff_str
00001850 l       .text.rvtest	00000000 I_ori_cg_cr_rs1_imm_edges_rs1val_0x80000001_immval_0x400
0000b241 l       .data	00000000 I_ori_cg_cr_rs1_imm_edges_rs1val_0x80000001_immval_0x400_str
00001874 l       .text.rvtest	00000000 I_ori_cg_cr_rs1_imm_edges_rs1val_0x80000001_immval_0x703
0000b297 l       .data	00000000 I_ori_cg_cr_rs1_imm_edges_rs1val_0x80000001_immval_0x703_str
00001898 l       .text.rvtest	00000000 I_ori_cg_cr_rs1_imm_edges_rs1val_0x80000001_immval_0x7ff
0000b2ed l       .data	00000000 I_ori_cg_cr_rs1_imm_edges_rs1val_0x80000001_immval_0x7ff_str
000018bc l       .text.rvtest	00000000 I_ori_cg_cr_rs1_imm_edges_rs1val_0x80000001_immval_m0x800
0000b343 l       .data	00000000 I_ori_cg_cr_rs1_imm_edges_rs1val_0x80000001_immval_m0x800_str
000018e0 l       .text.rvtest	00000000 I_ori_cg_cr_rs1_imm_edges_rs1val_0x80000001_immval_m0x7ff
0000b39a l       .data	00000000 I_ori_cg_cr_rs1_imm_edges_rs1val_0x80000001_immval_m0x7ff_str
00001904 l       .text.rvtest	00000000 I_ori_cg_cr_rs1_imm_edges_rs1val_0x80000001_immval_m0x2
0000b3f1 l       .data	00000000 I_ori_cg_cr_rs1_imm_edges_rs1val_0x80000001_immval_m0x2_str
00001928 l       .text.rvtest	00000000 I_ori_cg_cr_rs1_imm_edges_rs1val_0x80000001_immval_m0x1
0000b446 l       .data	00000000 I_ori_cg_cr_rs1_imm_edges_rs1val_0x80000001_immval_m0x1_str
0000194c l       .text.rvtest	00000000 I_ori_cg_cr_rs1_imm_edges_rs1val_0x7fffffff_immval_0x0
0000b49b l       .data	00000000 I_ori_cg_cr_rs1_imm_edges_rs1val_0x7fffffff_immval_0x0_str
00001970 l       .text.rvtest	00000000 I_ori_cg_cr_rs1_imm_edges_rs1val_0x7fffffff_immval_0x1
0000b4ef l       .data	00000000 I_ori_cg_cr_rs1_imm_edges_rs1val_0x7fffffff_immval_0x1_str
00001994 l       .text.rvtest	00000000 I_ori_cg_cr_rs1_imm_edges_rs1val_0x7fffffff_immval_0x2
0000b543 l       .data	00000000 I_ori_cg_cr_rs1_imm_edges_rs1val_0x7fffffff_immval_0x2_str
000019b8 l       .text.rvtest	00000000 I_ori_cg_cr_rs1_imm_edges_rs1val_0x7fffffff_immval_0x3
0000b597 l       .data	00000000 I_ori_cg_cr_rs1_imm_edges_rs1val_0x7fffffff_immval_0x3_str
000019dc l       .text.rvtest	00000000 I_ori_cg_cr_rs1_imm_edges_rs1val_0x7fffffff_immval_0x4
0000b5eb l       .data	00000000 I_ori_cg_cr_rs1_imm_edges_rs1val_0x7fffffff_immval_0x4_str
00001a00 l       .text.rvtest	00000000 I_ori_cg_cr_rs1_imm_edges_rs1val_0x7fffffff_immval_0x8
0000b63f l       .data	00000000 I_ori_cg_cr_rs1_imm_edges_rs1val_0x7fffffff_immval_0x8_str
00001a24 l       .text.rvtest	00000000 I_ori_cg_cr_rs1_imm_edges_rs1val_0x7fffffff_immval_0x10
0000b693 l       .data	00000000 I_ori_cg_cr_rs1_imm_edges_rs1val_0x7fffffff_immval_0x10_str
00001a48 l       .text.rvtest	00000000 I_ori_cg_cr_rs1_imm_edges_rs1val_0x7fffffff_immval_0x20
0000b6e8 l       .data	00000000 I_ori_cg_cr_rs1_imm_edges_rs1val_0x7fffffff_immval_0x20_str
00001a6c l       .text.rvtest	00000000 I_ori_cg_cr_rs1_imm_edges_rs1val_0x7fffffff_immval_0x40
0000b73d l       .data	00000000 I_ori_cg_cr_rs1_imm_edges_rs1val_0x7fffffff_immval_0x40_str
00001a90 l       .text.rvtest	00000000 I_ori_cg_cr_rs1_imm_edges_rs1val_0x7fffffff_immval_0x80
0000b792 l       .data	00000000 I_ori_cg_cr_rs1_imm_edges_rs1val_0x7fffffff_immval_0x80_str
00001ab4 l       .text.rvtest	00000000 I_ori_cg_cr_rs1_imm_edges_rs1val_0x7fffffff_immval_0x100
0000b7e7 l       .data	00000000 I_ori_cg_cr_rs1_imm_edges_rs1val_0x7fffffff_immval_0x100_str
00001ad8 l       .text.rvtest	00000000 I_ori_cg_cr_rs1_imm_edges_rs1val_0x7fffffff_immval_0x200
0000b83d l       .data	00000000 I_ori_cg_cr_rs1_imm_edges_rs1val_0x7fffffff_immval_0x200_str
00001afc l       .text.rvtest	00000000 I_ori_cg_cr_rs1_imm_edges_rs1val_0x7fffffff_immval_0x3ff
0000b893 l       .data	00000000 I_ori_cg_cr_rs1_imm_edges_rs1val_0x7fffffff_immval_0x3ff_str
00001b20 l       .text.rvtest	00000000 I_ori_cg_cr_rs1_imm_edges_rs1val_0x7fffffff_immval_0x400
0000b8e9 l       .data	00000000 I_ori_cg_cr_rs1_imm_edges_rs1val_0x7fffffff_immval_0x400_str
00001b44 l       .text.rvtest	00000000 I_ori_cg_cr_rs1_imm_edges_rs1val_0x7fffffff_immval_0x703
0000b93f l       .data	00000000 I_ori_cg_cr_rs1_imm_edges_rs1val_0x7fffffff_immval_0x703_str
00001b68 l       .text.rvtest	00000000 I_ori_cg_cr_rs1_imm_edges_rs1val_0x7fffffff_immval_0x7ff
0000b995 l       .data	00000000 I_ori_cg_cr_rs1_imm_edges_rs1val_0x7fffffff_immval_0x7ff_str
00001b8c l       .text.rvtest	00000000 I_ori_cg_cr_rs1_imm_edges_rs1val_0x7fffffff_immval_m0x800
0000b9eb l       .data	00000000 I_ori_cg_cr_rs1_imm_edges_rs1val_0x7fffffff_immval_m0x800_str
00001bb0 l       .text.rvtest	00000000 I_ori_cg_cr_rs1_imm_edges_rs1val_0x7fffffff_immval_m0x7ff
0000ba42 l       .data	00000000 I_ori_cg_cr_rs1_imm_edges_rs1val_0x7fffffff_immval_m0x7ff_str
00001bd4 l       .text.rvtest	00000000 I_ori_cg_cr_rs1_imm_edges_rs1val_0x7fffffff_immval_m0x2
0000ba99 l       .data	00000000 I_ori_cg_cr_rs1_imm_edges_rs1val_0x7fffffff_immval_m0x2_str
00001bf8 l       .text.rvtest	00000000 I_ori_cg_cr_rs1_imm_edges_rs1val_0x7fffffff_immval_m0x1
0000baee l       .data	00000000 I_ori_cg_cr_rs1_imm_edges_rs1val_0x7fffffff_immval_m0x1_str
00001c1c l       .text.rvtest	00000000 I_ori_cg_cr_rs1_imm_edges_rs1val_0x7ffffffe_immval_0x0
0000bb43 l       .data	00000000 I_ori_cg_cr_rs1_imm_edges_rs1val_0x7ffffffe_immval_0x0_str
00001c40 l       .text.rvtest	00000000 I_ori_cg_cr_rs1_imm_edges_rs1val_0x7ffffffe_immval_0x1
0000bb97 l       .data	00000000 I_ori_cg_cr_rs1_imm_edges_rs1val_0x7ffffffe_immval_0x1_str
00001c64 l       .text.rvtest	00000000 I_ori_cg_cr_rs1_imm_edges_rs1val_0x7ffffffe_immval_0x2
0000bbeb l       .data	00000000 I_ori_cg_cr_rs1_imm_edges_rs1val_0x7ffffffe_immval_0x2_str
00001c88 l       .text.rvtest	00000000 I_ori_cg_cr_rs1_imm_edges_rs1val_0x7ffffffe_immval_0x3
0000bc3f l       .data	00000000 I_ori_cg_cr_rs1_imm_edges_rs1val_0x7ffffffe_immval_0x3_str
00001cac l       .text.rvtest	00000000 I_ori_cg_cr_rs1_imm_edges_rs1val_0x7ffffffe_immval_0x4
0000bc93 l       .data	00000000 I_ori_cg_cr_rs1_imm_edges_rs1val_0x7ffffffe_immval_0x4_str
00001cd0 l       .text.rvtest	00000000 I_ori_cg_cr_rs1_imm_edges_rs1val_0x7ffffffe_immval_0x8
0000bce7 l       .data	00000000 I_ori_cg_cr_rs1_imm_edges_rs1val_0x7ffffffe_immval_0x8_str
00001cf4 l       .text.rvtest	00000000 I_ori_cg_cr_rs1_imm_edges_rs1val_0x7ffffffe_immval_0x10
0000bd3b l       .data	00000000 I_ori_cg_cr_rs1_imm_edges_rs1val_0x7ffffffe_immval_0x10_str
00001d18 l       .text.rvtest	00000000 I_ori_cg_cr_rs1_imm_edges_rs1val_0x7ffffffe_immval_0x20
0000bd90 l       .data	00000000 I_ori_cg_cr_rs1_imm_edges_rs1val_0x7ffffffe_immval_0x20_str
00001d3c l       .text.rvtest	00000000 I_ori_cg_cr_rs1_imm_edges_rs1val_0x7ffffffe_immval_0x40
0000bde5 l       .data	00000000 I_ori_cg_cr_rs1_imm_edges_rs1val_0x7ffffffe_immval_0x40_str
00001d60 l       .text.rvtest	00000000 I_ori_cg_cr_rs1_imm_edges_rs1val_0x7ffffffe_immval_0x80
0000be3a l       .data	00000000 I_ori_cg_cr_rs1_imm_edges_rs1val_0x7ffffffe_immval_0x80_str
00001d84 l       .text.rvtest	00000000 I_ori_cg_cr_rs1_imm_edges_rs1val_0x7ffffffe_immval_0x100
0000be8f l       .data	00000000 I_ori_cg_cr_rs1_imm_edges_rs1val_0x7ffffffe_immval_0x100_str
00001da8 l       .text.rvtest	00000000 I_ori_cg_cr_rs1_imm_edges_rs1val_0x7ffffffe_immval_0x200
0000bee5 l       .data	00000000 I_ori_cg_cr_rs1_imm_edges_rs1val_0x7ffffffe_immval_0x200_str
00001dcc l       .text.rvtest	00000000 I_ori_cg_cr_rs1_imm_edges_rs1val_0x7ffffffe_immval_0x3ff
0000bf3b l       .data	00000000 I_ori_cg_cr_rs1_imm_edges_rs1val_0x7ffffffe_immval_0x3ff_str
00001df0 l       .text.rvtest	00000000 I_ori_cg_cr_rs1_imm_edges_rs1val_0x7ffffffe_immval_0x400
0000bf91 l       .data	00000000 I_ori_cg_cr_rs1_imm_edges_rs1val_0x7ffffffe_immval_0x400_str
00001e14 l       .text.rvtest	00000000 I_ori_cg_cr_rs1_imm_edges_rs1val_0x7ffffffe_immval_0x703
0000bfe7 l       .data	00000000 I_ori_cg_cr_rs1_imm_edges_rs1val_0x7ffffffe_immval_0x703_str
00001e38 l       .text.rvtest	00000000 I_ori_cg_cr_rs1_imm_edges_rs1val_0x7ffffffe_immval_0x7ff
0000c03d l       .data	00000000 I_ori_cg_cr_rs1_imm_edges_rs1val_0x7ffffffe_immval_0x7ff_str
00001e5c l       .text.rvtest	00000000 I_ori_cg_cr_rs1_imm_edges_rs1val_0x7ffffffe_immval_m0x800
0000c093 l       .data	00000000 I_ori_cg_cr_rs1_imm_edges_rs1val_0x7ffffffe_immval_m0x800_str
00001e80 l       .text.rvtest	00000000 I_ori_cg_cr_rs1_imm_edges_rs1val_0x7ffffffe_immval_m0x7ff
0000c0ea l       .data	00000000 I_ori_cg_cr_rs1_imm_edges_rs1val_0x7ffffffe_immval_m0x7ff_str
00001ea4 l       .text.rvtest	00000000 I_ori_cg_cr_rs1_imm_edges_rs1val_0x7ffffffe_immval_m0x2
0000c141 l       .data	00000000 I_ori_cg_cr_rs1_imm_edges_rs1val_0x7ffffffe_immval_m0x2_str
00001ec8 l       .text.rvtest	00000000 I_ori_cg_cr_rs1_imm_edges_rs1val_0x7ffffffe_immval_m0x1
0000c196 l       .data	00000000 I_ori_cg_cr_rs1_imm_edges_rs1val_0x7ffffffe_immval_m0x1_str
00001eec l       .text.rvtest	00000000 I_ori_cg_cr_rs1_imm_edges_rs1val_0xffffffff_immval_0x0
0000c1eb l       .data	00000000 I_ori_cg_cr_rs1_imm_edges_rs1val_0xffffffff_immval_0x0_str
00001f10 l       .text.rvtest	00000000 I_ori_cg_cr_rs1_imm_edges_rs1val_0xffffffff_immval_0x1
0000c23f l       .data	00000000 I_ori_cg_cr_rs1_imm_edges_rs1val_0xffffffff_immval_0x1_str
00001f34 l       .text.rvtest	00000000 I_ori_cg_cr_rs1_imm_edges_rs1val_0xffffffff_immval_0x2
0000c293 l       .data	00000000 I_ori_cg_cr_rs1_imm_edges_rs1val_0xffffffff_immval_0x2_str
00001f58 l       .text.rvtest	00000000 I_ori_cg_cr_rs1_imm_edges_rs1val_0xffffffff_immval_0x3
0000c2e7 l       .data	00000000 I_ori_cg_cr_rs1_imm_edges_rs1val_0xffffffff_immval_0x3_str
00001f7c l       .text.rvtest	00000000 I_ori_cg_cr_rs1_imm_edges_rs1val_0xffffffff_immval_0x4
0000c33b l       .data	00000000 I_ori_cg_cr_rs1_imm_edges_rs1val_0xffffffff_immval_0x4_str
00001fa0 l       .text.rvtest	00000000 I_ori_cg_cr_rs1_imm_edges_rs1val_0xffffffff_immval_0x8
0000c38f l       .data	00000000 I_ori_cg_cr_rs1_imm_edges_rs1val_0xffffffff_immval_0x8_str
00001fc4 l       .text.rvtest	00000000 I_ori_cg_cr_rs1_imm_edges_rs1val_0xffffffff_immval_0x10
0000c3e3 l       .data	00000000 I_ori_cg_cr_rs1_imm_edges_rs1val_0xffffffff_immval_0x10_str
00001fe8 l       .text.rvtest	00000000 I_ori_cg_cr_rs1_imm_edges_rs1val_0xffffffff_immval_0x20
0000c438 l       .data	00000000 I_ori_cg_cr_rs1_imm_edges_rs1val_0xffffffff_immval_0x20_str
0000200c l       .text.rvtest	00000000 I_ori_cg_cr_rs1_imm_edges_rs1val_0xffffffff_immval_0x40
0000c48d l       .data	00000000 I_ori_cg_cr_rs1_imm_edges_rs1val_0xffffffff_immval_0x40_str
00002030 l       .text.rvtest	00000000 I_ori_cg_cr_rs1_imm_edges_rs1val_0xffffffff_immval_0x80
0000c4e2 l       .data	00000000 I_ori_cg_cr_rs1_imm_edges_rs1val_0xffffffff_immval_0x80_str
00002054 l       .text.rvtest	00000000 I_ori_cg_cr_rs1_imm_edges_rs1val_0xffffffff_immval_0x100
0000c537 l       .data	00000000 I_ori_cg_cr_rs1_imm_edges_rs1val_0xffffffff_immval_0x100_str
00002078 l       .text.rvtest	00000000 I_ori_cg_cr_rs1_imm_edges_rs1val_0xffffffff_immval_0x200
0000c58d l       .data	00000000 I_ori_cg_cr_rs1_imm_edges_rs1val_0xffffffff_immval_0x200_str
0000209c l       .text.rvtest	00000000 I_ori_cg_cr_rs1_imm_edges_rs1val_0xffffffff_immval_0x3ff
0000c5e3 l       .data	00000000 I_ori_cg_cr_rs1_imm_edges_rs1val_0xffffffff_immval_0x3ff_str
000020c0 l       .text.rvtest	00000000 I_ori_cg_cr_rs1_imm_edges_rs1val_0xffffffff_immval_0x400
0000c639 l       .data	00000000 I_ori_cg_cr_rs1_imm_edges_rs1val_0xffffffff_immval_0x400_str
000020e4 l       .text.rvtest	00000000 I_ori_cg_cr_rs1_imm_edges_rs1val_0xffffffff_immval_0x703
0000c68f l       .data	00000000 I_ori_cg_cr_rs1_imm_edges_rs1val_0xffffffff_immval_0x703_str
00002108 l       .text.rvtest	00000000 I_ori_cg_cr_rs1_imm_edges_rs1val_0xffffffff_immval_0x7ff
0000c6e5 l       .data	00000000 I_ori_cg_cr_rs1_imm_edges_rs1val_0xffffffff_immval_0x7ff_str
0000212c l       .text.rvtest	00000000 I_ori_cg_cr_rs1_imm_edges_rs1val_0xffffffff_immval_m0x800
0000c73b l       .data	00000000 I_ori_cg_cr_rs1_imm_edges_rs1val_0xffffffff_immval_m0x800_str
00002150 l       .text.rvtest	00000000 I_ori_cg_cr_rs1_imm_edges_rs1val_0xffffffff_immval_m0x7ff
0000c792 l       .data	00000000 I_ori_cg_cr_rs1_imm_edges_rs1val_0xffffffff_immval_m0x7ff_str
00002174 l       .text.rvtest	00000000 I_ori_cg_cr_rs1_imm_edges_rs1val_0xffffffff_immval_m0x2
0000c7e9 l       .data	00000000 I_ori_cg_cr_rs1_imm_edges_rs1val_0xffffffff_immval_m0x2_str
00002198 l       .text.rvtest	00000000 I_ori_cg_cr_rs1_imm_edges_rs1val_0xffffffff_immval_m0x1
0000c83e l       .data	00000000 I_ori_cg_cr_rs1_imm_edges_rs1val_0xffffffff_immval_m0x1_str
000021bc l       .text.rvtest	00000000 I_ori_cg_cr_rs1_imm_edges_rs1val_0xfffffffe_immval_0x0
0000c893 l       .data	00000000 I_ori_cg_cr_rs1_imm_edges_rs1val_0xfffffffe_immval_0x0_str
000021e0 l       .text.rvtest	00000000 I_ori_cg_cr_rs1_imm_edges_rs1val_0xfffffffe_immval_0x1
0000c8e7 l       .data	00000000 I_ori_cg_cr_rs1_imm_edges_rs1val_0xfffffffe_immval_0x1_str
00002204 l       .text.rvtest	00000000 I_ori_cg_cr_rs1_imm_edges_rs1val_0xfffffffe_immval_0x2
0000c93b l       .data	00000000 I_ori_cg_cr_rs1_imm_edges_rs1val_0xfffffffe_immval_0x2_str
00002228 l       .text.rvtest	00000000 I_ori_cg_cr_rs1_imm_edges_rs1val_0xfffffffe_immval_0x3
0000c98f l       .data	00000000 I_ori_cg_cr_rs1_imm_edges_rs1val_0xfffffffe_immval_0x3_str
0000224c l       .text.rvtest	00000000 I_ori_cg_cr_rs1_imm_edges_rs1val_0xfffffffe_immval_0x4
0000c9e3 l       .data	00000000 I_ori_cg_cr_rs1_imm_edges_rs1val_0xfffffffe_immval_0x4_str
00002270 l       .text.rvtest	00000000 I_ori_cg_cr_rs1_imm_edges_rs1val_0xfffffffe_immval_0x8
0000ca37 l       .data	00000000 I_ori_cg_cr_rs1_imm_edges_rs1val_0xfffffffe_immval_0x8_str
00002294 l       .text.rvtest	00000000 I_ori_cg_cr_rs1_imm_edges_rs1val_0xfffffffe_immval_0x10
0000ca8b l       .data	00000000 I_ori_cg_cr_rs1_imm_edges_rs1val_0xfffffffe_immval_0x10_str
000022b8 l       .text.rvtest	00000000 I_ori_cg_cr_rs1_imm_edges_rs1val_0xfffffffe_immval_0x20
0000cae0 l       .data	00000000 I_ori_cg_cr_rs1_imm_edges_rs1val_0xfffffffe_immval_0x20_str
000022dc l       .text.rvtest	00000000 I_ori_cg_cr_rs1_imm_edges_rs1val_0xfffffffe_immval_0x40
0000cb35 l       .data	00000000 I_ori_cg_cr_rs1_imm_edges_rs1val_0xfffffffe_immval_0x40_str
00002300 l       .text.rvtest	00000000 I_ori_cg_cr_rs1_imm_edges_rs1val_0xfffffffe_immval_0x80
0000cb8a l       .data	00000000 I_ori_cg_cr_rs1_imm_edges_rs1val_0xfffffffe_immval_0x80_str
00002324 l       .text.rvtest	00000000 I_ori_cg_cr_rs1_imm_edges_rs1val_0xfffffffe_immval_0x100
0000cbdf l       .data	00000000 I_ori_cg_cr_rs1_imm_edges_rs1val_0xfffffffe_immval_0x100_str
00002348 l       .text.rvtest	00000000 I_ori_cg_cr_rs1_imm_edges_rs1val_0xfffffffe_immval_0x200
0000cc35 l       .data	00000000 I_ori_cg_cr_rs1_imm_edges_rs1val_0xfffffffe_immval_0x200_str
0000236c l       .text.rvtest	00000000 I_ori_cg_cr_rs1_imm_edges_rs1val_0xfffffffe_immval_0x3ff
0000cc8b l       .data	00000000 I_ori_cg_cr_rs1_imm_edges_rs1val_0xfffffffe_immval_0x3ff_str
00002390 l       .text.rvtest	00000000 I_ori_cg_cr_rs1_imm_edges_rs1val_0xfffffffe_immval_0x400
0000cce1 l       .data	00000000 I_ori_cg_cr_rs1_imm_edges_rs1val_0xfffffffe_immval_0x400_str
000023b4 l       .text.rvtest	00000000 I_ori_cg_cr_rs1_imm_edges_rs1val_0xfffffffe_immval_0x703
0000cd37 l       .data	00000000 I_ori_cg_cr_rs1_imm_edges_rs1val_0xfffffffe_immval_0x703_str
000023d8 l       .text.rvtest	00000000 I_ori_cg_cr_rs1_imm_edges_rs1val_0xfffffffe_immval_0x7ff
0000cd8d l       .data	00000000 I_ori_cg_cr_rs1_imm_edges_rs1val_0xfffffffe_immval_0x7ff_str
000023fc l       .text.rvtest	00000000 I_ori_cg_cr_rs1_imm_edges_rs1val_0xfffffffe_immval_m0x800
0000cde3 l       .data	00000000 I_ori_cg_cr_rs1_imm_edges_rs1val_0xfffffffe_immval_m0x800_str
00002420 l       .text.rvtest	00000000 I_ori_cg_cr_rs1_imm_edges_rs1val_0xfffffffe_immval_m0x7ff
0000ce3a l       .data	00000000 I_ori_cg_cr_rs1_imm_edges_rs1val_0xfffffffe_immval_m0x7ff_str
00002444 l       .text.rvtest	00000000 I_ori_cg_cr_rs1_imm_edges_rs1val_0xfffffffe_immval_m0x2
0000ce91 l       .data	00000000 I_ori_cg_cr_rs1_imm_edges_rs1val_0xfffffffe_immval_m0x2_str
00002468 l       .text.rvtest	00000000 I_ori_cg_cr_rs1_imm_edges_rs1val_0xfffffffe_immval_m0x1
0000cee6 l       .data	00000000 I_ori_cg_cr_rs1_imm_edges_rs1val_0xfffffffe_immval_m0x1_str
0000248c l       .text.rvtest	00000000 I_ori_cg_cr_rs1_imm_edges_rs1val_0x5bbc8872_immval_0x0
0000cf3b l       .data	00000000 I_ori_cg_cr_rs1_imm_edges_rs1val_0x5bbc8872_immval_0x0_str
000024b0 l       .text.rvtest	00000000 I_ori_cg_cr_rs1_imm_edges_rs1val_0x5bbc8872_immval_0x1
0000cf8f l       .data	00000000 I_ori_cg_cr_rs1_imm_edges_rs1val_0x5bbc8872_immval_0x1_str
000024d4 l       .text.rvtest	00000000 I_ori_cg_cr_rs1_imm_edges_rs1val_0x5bbc8872_immval_0x2
0000cfe3 l       .data	00000000 I_ori_cg_cr_rs1_imm_edges_rs1val_0x5bbc8872_immval_0x2_str
000024f8 l       .text.rvtest	00000000 I_ori_cg_cr_rs1_imm_edges_rs1val_0x5bbc8872_immval_0x3
0000d037 l       .data	00000000 I_ori_cg_cr_rs1_imm_edges_rs1val_0x5bbc8872_immval_0x3_str
0000251c l       .text.rvtest	00000000 I_ori_cg_cr_rs1_imm_edges_rs1val_0x5bbc8872_immval_0x4
0000d08b l       .data	00000000 I_ori_cg_cr_rs1_imm_edges_rs1val_0x5bbc8872_immval_0x4_str
00002540 l       .text.rvtest	00000000 I_ori_cg_cr_rs1_imm_edges_rs1val_0x5bbc8872_immval_0x8
0000d0df l       .data	00000000 I_ori_cg_cr_rs1_imm_edges_rs1val_0x5bbc8872_immval_0x8_str
00002564 l       .text.rvtest	00000000 I_ori_cg_cr_rs1_imm_edges_rs1val_0x5bbc8872_immval_0x10
0000d133 l       .data	00000000 I_ori_cg_cr_rs1_imm_edges_rs1val_0x5bbc8872_immval_0x10_str
00002588 l       .text.rvtest	00000000 I_ori_cg_cr_rs1_imm_edges_rs1val_0x5bbc8872_immval_0x20
0000d188 l       .data	00000000 I_ori_cg_cr_rs1_imm_edges_rs1val_0x5bbc8872_immval_0x20_str
000025ac l       .text.rvtest	00000000 I_ori_cg_cr_rs1_imm_edges_rs1val_0x5bbc8872_immval_0x40
0000d1dd l       .data	00000000 I_ori_cg_cr_rs1_imm_edges_rs1val_0x5bbc8872_immval_0x40_str
000025d0 l       .text.rvtest	00000000 I_ori_cg_cr_rs1_imm_edges_rs1val_0x5bbc8872_immval_0x80
0000d232 l       .data	00000000 I_ori_cg_cr_rs1_imm_edges_rs1val_0x5bbc8872_immval_0x80_str
000025f4 l       .text.rvtest	00000000 I_ori_cg_cr_rs1_imm_edges_rs1val_0x5bbc8872_immval_0x100
0000d287 l       .data	00000000 I_ori_cg_cr_rs1_imm_edges_rs1val_0x5bbc8872_immval_0x100_str
00002618 l       .text.rvtest	00000000 I_ori_cg_cr_rs1_imm_edges_rs1val_0x5bbc8872_immval_0x200
0000d2dd l       .data	00000000 I_ori_cg_cr_rs1_imm_edges_rs1val_0x5bbc8872_immval_0x200_str
0000263c l       .text.rvtest	00000000 I_ori_cg_cr_rs1_imm_edges_rs1val_0x5bbc8872_immval_0x3ff
0000d333 l       .data	00000000 I_ori_cg_cr_rs1_imm_edges_rs1val_0x5bbc8872_immval_0x3ff_str
00002660 l       .text.rvtest	00000000 I_ori_cg_cr_rs1_imm_edges_rs1val_0x5bbc8872_immval_0x400
0000d389 l       .data	00000000 I_ori_cg_cr_rs1_imm_edges_rs1val_0x5bbc8872_immval_0x400_str
00002684 l       .text.rvtest	00000000 I_ori_cg_cr_rs1_imm_edges_rs1val_0x5bbc8872_immval_0x703
0000d3df l       .data	00000000 I_ori_cg_cr_rs1_imm_edges_rs1val_0x5bbc8872_immval_0x703_str
000026a8 l       .text.rvtest	00000000 I_ori_cg_cr_rs1_imm_edges_rs1val_0x5bbc8872_immval_0x7ff
0000d435 l       .data	00000000 I_ori_cg_cr_rs1_imm_edges_rs1val_0x5bbc8872_immval_0x7ff_str
000026cc l       .text.rvtest	00000000 I_ori_cg_cr_rs1_imm_edges_rs1val_0x5bbc8872_immval_m0x800
0000d48b l       .data	00000000 I_ori_cg_cr_rs1_imm_edges_rs1val_0x5bbc8872_immval_m0x800_str
000026f0 l       .text.rvtest	00000000 I_ori_cg_cr_rs1_imm_edges_rs1val_0x5bbc8872_immval_m0x7ff
0000d4e2 l       .data	00000000 I_ori_cg_cr_rs1_imm_edges_rs1val_0x5bbc8872_immval_m0x7ff_str
00002714 l       .text.rvtest	00000000 I_ori_cg_cr_rs1_imm_edges_rs1val_0x5bbc8872_immval_m0x2
0000d539 l       .data	00000000 I_ori_cg_cr_rs1_imm_edges_rs1val_0x5bbc8872_immval_m0x2_str
00002738 l       .text.rvtest	00000000 I_ori_cg_cr_rs1_imm_edges_rs1val_0x5bbc8872_immval_m0x1
0000d58e l       .data	00000000 I_ori_cg_cr_rs1_imm_edges_rs1val_0x5bbc8872_immval_m0x1_str
0000275c l       .text.rvtest	00000000 I_ori_cg_cr_rs1_imm_edges_rs1val_0xaaaaaaaa_immval_0x0
0000d5e3 l       .data	00000000 I_ori_cg_cr_rs1_imm_edges_rs1val_0xaaaaaaaa_immval_0x0_str
00002780 l       .text.rvtest	00000000 I_ori_cg_cr_rs1_imm_edges_rs1val_0xaaaaaaaa_immval_0x1
0000d637 l       .data	00000000 I_ori_cg_cr_rs1_imm_edges_rs1val_0xaaaaaaaa_immval_0x1_str
000027a4 l       .text.rvtest	00000000 I_ori_cg_cr_rs1_imm_edges_rs1val_0xaaaaaaaa_immval_0x2
0000d68b l       .data	00000000 I_ori_cg_cr_rs1_imm_edges_rs1val_0xaaaaaaaa_immval_0x2_str
000027c8 l       .text.rvtest	00000000 I_ori_cg_cr_rs1_imm_edges_rs1val_0xaaaaaaaa_immval_0x3
0000d6df l       .data	00000000 I_ori_cg_cr_rs1_imm_edges_rs1val_0xaaaaaaaa_immval_0x3_str
000027ec l       .text.rvtest	00000000 I_ori_cg_cr_rs1_imm_edges_rs1val_0xaaaaaaaa_immval_0x4
0000d733 l       .data	00000000 I_ori_cg_cr_rs1_imm_edges_rs1val_0xaaaaaaaa_immval_0x4_str
00002810 l       .text.rvtest	00000000 I_ori_cg_cr_rs1_imm_edges_rs1val_0xaaaaaaaa_immval_0x8
0000d787 l       .data	00000000 I_ori_cg_cr_rs1_imm_edges_rs1val_0xaaaaaaaa_immval_0x8_str
00002834 l       .text.rvtest	00000000 I_ori_cg_cr_rs1_imm_edges_rs1val_0xaaaaaaaa_immval_0x10
0000d7db l       .data	00000000 I_ori_cg_cr_rs1_imm_edges_rs1val_0xaaaaaaaa_immval_0x10_str
00002858 l       .text.rvtest	00000000 I_ori_cg_cr_rs1_imm_edges_rs1val_0xaaaaaaaa_immval_0x20
0000d830 l       .data	00000000 I_ori_cg_cr_rs1_imm_edges_rs1val_0xaaaaaaaa_immval_0x20_str
0000287c l       .text.rvtest	00000000 I_ori_cg_cr_rs1_imm_edges_rs1val_0xaaaaaaaa_immval_0x40
0000d885 l       .data	00000000 I_ori_cg_cr_rs1_imm_edges_rs1val_0xaaaaaaaa_immval_0x40_str
000028a0 l       .text.rvtest	00000000 I_ori_cg_cr_rs1_imm_edges_rs1val_0xaaaaaaaa_immval_0x80
0000d8da l       .data	00000000 I_ori_cg_cr_rs1_imm_edges_rs1val_0xaaaaaaaa_immval_0x80_str
000028c4 l       .text.rvtest	00000000 I_ori_cg_cr_rs1_imm_edges_rs1val_0xaaaaaaaa_immval_0x100
0000d92f l       .data	00000000 I_ori_cg_cr_rs1_imm_edges_rs1val_0xaaaaaaaa_immval_0x100_str
000028e8 l       .text.rvtest	00000000 I_ori_cg_cr_rs1_imm_edges_rs1val_0xaaaaaaaa_immval_0x200
0000d985 l       .data	00000000 I_ori_cg_cr_rs1_imm_edges_rs1val_0xaaaaaaaa_immval_0x200_str
0000290c l       .text.rvtest	00000000 I_ori_cg_cr_rs1_imm_edges_rs1val_0xaaaaaaaa_immval_0x3ff
0000d9db l       .data	00000000 I_ori_cg_cr_rs1_imm_edges_rs1val_0xaaaaaaaa_immval_0x3ff_str
00002930 l       .text.rvtest	00000000 I_ori_cg_cr_rs1_imm_edges_rs1val_0xaaaaaaaa_immval_0x400
0000da31 l       .data	00000000 I_ori_cg_cr_rs1_imm_edges_rs1val_0xaaaaaaaa_immval_0x400_str
00002954 l       .text.rvtest	00000000 I_ori_cg_cr_rs1_imm_edges_rs1val_0xaaaaaaaa_immval_0x703
0000da87 l       .data	00000000 I_ori_cg_cr_rs1_imm_edges_rs1val_0xaaaaaaaa_immval_0x703_str
00002978 l       .text.rvtest	00000000 I_ori_cg_cr_rs1_imm_edges_rs1val_0xaaaaaaaa_immval_0x7ff
0000dadd l       .data	00000000 I_ori_cg_cr_rs1_imm_edges_rs1val_0xaaaaaaaa_immval_0x7ff_str
0000299c l       .text.rvtest	00000000 I_ori_cg_cr_rs1_imm_edges_rs1val_0xaaaaaaaa_immval_m0x800
0000db33 l       .data	00000000 I_ori_cg_cr_rs1_imm_edges_rs1val_0xaaaaaaaa_immval_m0x800_str
000029c0 l       .text.rvtest	00000000 I_ori_cg_cr_rs1_imm_edges_rs1val_0xaaaaaaaa_immval_m0x7ff
0000db8a l       .data	00000000 I_ori_cg_cr_rs1_imm_edges_rs1val_0xaaaaaaaa_immval_m0x7ff_str
000029e4 l       .text.rvtest	00000000 I_ori_cg_cr_rs1_imm_edges_rs1val_0xaaaaaaaa_immval_m0x2
0000dbe1 l       .data	00000000 I_ori_cg_cr_rs1_imm_edges_rs1val_0xaaaaaaaa_immval_m0x2_str
00002a08 l       .text.rvtest	00000000 I_ori_cg_cr_rs1_imm_edges_rs1val_0xaaaaaaaa_immval_m0x1
0000dc36 l       .data	00000000 I_ori_cg_cr_rs1_imm_edges_rs1val_0xaaaaaaaa_immval_m0x1_str
00002a2c l       .text.rvtest	00000000 I_ori_cg_cr_rs1_imm_edges_rs1val_0x55555555_immval_0x0
0000dc8b l       .data	00000000 I_ori_cg_cr_rs1_imm_edges_rs1val_0x55555555_immval_0x0_str
00002a50 l       .text.rvtest	00000000 I_ori_cg_cr_rs1_imm_edges_rs1val_0x55555555_immval_0x1
0000dcdf l       .data	00000000 I_ori_cg_cr_rs1_imm_edges_rs1val_0x55555555_immval_0x1_str
00002a74 l       .text.rvtest	00000000 I_ori_cg_cr_rs1_imm_edges_rs1val_0x55555555_immval_0x2
0000dd33 l       .data	00000000 I_ori_cg_cr_rs1_imm_edges_rs1val_0x55555555_immval_0x2_str
00002a98 l       .text.rvtest	00000000 I_ori_cg_cr_rs1_imm_edges_rs1val_0x55555555_immval_0x3
0000dd87 l       .data	00000000 I_ori_cg_cr_rs1_imm_edges_rs1val_0x55555555_immval_0x3_str
00002abc l       .text.rvtest	00000000 I_ori_cg_cr_rs1_imm_edges_rs1val_0x55555555_immval_0x4
0000dddb l       .data	00000000 I_ori_cg_cr_rs1_imm_edges_rs1val_0x55555555_immval_0x4_str
00002ae0 l       .text.rvtest	00000000 I_ori_cg_cr_rs1_imm_edges_rs1val_0x55555555_immval_0x8
0000de2f l       .data	00000000 I_ori_cg_cr_rs1_imm_edges_rs1val_0x55555555_immval_0x8_str
00002b04 l       .text.rvtest	00000000 I_ori_cg_cr_rs1_imm_edges_rs1val_0x55555555_immval_0x10
0000de83 l       .data	00000000 I_ori_cg_cr_rs1_imm_edges_rs1val_0x55555555_immval_0x10_str
00002b28 l       .text.rvtest	00000000 I_ori_cg_cr_rs1_imm_edges_rs1val_0x55555555_immval_0x20
0000ded8 l       .data	00000000 I_ori_cg_cr_rs1_imm_edges_rs1val_0x55555555_immval_0x20_str
00002b4c l       .text.rvtest	00000000 I_ori_cg_cr_rs1_imm_edges_rs1val_0x55555555_immval_0x40
0000df2d l       .data	00000000 I_ori_cg_cr_rs1_imm_edges_rs1val_0x55555555_immval_0x40_str
00002b70 l       .text.rvtest	00000000 I_ori_cg_cr_rs1_imm_edges_rs1val_0x55555555_immval_0x80
0000df82 l       .data	00000000 I_ori_cg_cr_rs1_imm_edges_rs1val_0x55555555_immval_0x80_str
00002b94 l       .text.rvtest	00000000 I_ori_cg_cr_rs1_imm_edges_rs1val_0x55555555_immval_0x100
0000dfd7 l       .data	00000000 I_ori_cg_cr_rs1_imm_edges_rs1val_0x55555555_immval_0x100_str
00002bb8 l       .text.rvtest	00000000 I_ori_cg_cr_rs1_imm_edges_rs1val_0x55555555_immval_0x200
0000e02d l       .data	00000000 I_ori_cg_cr_rs1_imm_edges_rs1val_0x55555555_immval_0x200_str
00002bdc l       .text.rvtest	00000000 I_ori_cg_cr_rs1_imm_edges_rs1val_0x55555555_immval_0x3ff
0000e083 l       .data	00000000 I_ori_cg_cr_rs1_imm_edges_rs1val_0x55555555_immval_0x3ff_str
00002c00 l       .text.rvtest	00000000 I_ori_cg_cr_rs1_imm_edges_rs1val_0x55555555_immval_0x400
0000e0d9 l       .data	00000000 I_ori_cg_cr_rs1_imm_edges_rs1val_0x55555555_immval_0x400_str
00002c24 l       .text.rvtest	00000000 I_ori_cg_cr_rs1_imm_edges_rs1val_0x55555555_immval_0x703
0000e12f l       .data	00000000 I_ori_cg_cr_rs1_imm_edges_rs1val_0x55555555_immval_0x703_str
00002c48 l       .text.rvtest	00000000 I_ori_cg_cr_rs1_imm_edges_rs1val_0x55555555_immval_0x7ff
0000e185 l       .data	00000000 I_ori_cg_cr_rs1_imm_edges_rs1val_0x55555555_immval_0x7ff_str
00002c6c l       .text.rvtest	00000000 I_ori_cg_cr_rs1_imm_edges_rs1val_0x55555555_immval_m0x800
0000e1db l       .data	00000000 I_ori_cg_cr_rs1_imm_edges_rs1val_0x55555555_immval_m0x800_str
00002c90 l       .text.rvtest	00000000 I_ori_cg_cr_rs1_imm_edges_rs1val_0x55555555_immval_m0x7ff
0000e232 l       .data	00000000 I_ori_cg_cr_rs1_imm_edges_rs1val_0x55555555_immval_m0x7ff_str
00002cb4 l       .text.rvtest	00000000 I_ori_cg_cr_rs1_imm_edges_rs1val_0x55555555_immval_m0x2
0000e289 l       .data	00000000 I_ori_cg_cr_rs1_imm_edges_rs1val_0x55555555_immval_m0x2_str
00002cd8 l       .text.rvtest	00000000 I_ori_cg_cr_rs1_imm_edges_rs1val_0x55555555_immval_m0x1
0000e2de l       .data	00000000 I_ori_cg_cr_rs1_imm_edges_rs1val_0x55555555_immval_m0x1_str
00002cfc l       .text.rvtest	00000000 I_ori_cg_cmp_rd_rs1_b0
0000e333 l       .data	00000000 I_ori_cg_cmp_rd_rs1_b0_str
00002d24 l       .text.rvtest	00000000 I_ori_cg_cmp_rd_rs1_b1
0000e366 l       .data	00000000 I_ori_cg_cmp_rd_rs1_b1_str
00002d48 l       .text.rvtest	00000000 I_ori_cg_cmp_rd_rs1_b2
0000e399 l       .data	00000000 I_ori_cg_cmp_rd_rs1_b2_str
00002d6c l       .text.rvtest	00000000 I_ori_cg_cmp_rd_rs1_b3
0000e3cc l       .data	00000000 I_ori_cg_cmp_rd_rs1_b3_str
00002d90 l       .text.rvtest	00000000 I_ori_cg_cmp_rd_rs1_b4
0000e3ff l       .data	00000000 I_ori_cg_cmp_rd_rs1_b4_str
00002db4 l       .text.rvtest	00000000 I_ori_cg_cmp_rd_rs1_b5
0000e432 l       .data	00000000 I_ori_cg_cmp_rd_rs1_b5_str
00002dd8 l       .text.rvtest	00000000 I_ori_cg_cmp_rd_rs1_b6
0000e465 l       .data	00000000 I_ori_cg_cmp_rd_rs1_b6_str
00002e04 l       .text.rvtest	00000000 I_ori_cg_cmp_rd_rs1_b7
0000e498 l       .data	00000000 I_ori_cg_cmp_rd_rs1_b7_str
00002e28 l       .text.rvtest	00000000 I_ori_cg_cmp_rd_rs1_b8
0000e4cb l       .data	00000000 I_ori_cg_cmp_rd_rs1_b8_str
00002e4c l       .text.rvtest	00000000 I_ori_cg_cmp_rd_rs1_b9
0000e4fe l       .data	00000000 I_ori_cg_cmp_rd_rs1_b9_str
00002e70 l       .text.rvtest	00000000 I_ori_cg_cmp_rd_rs1_b10
0000e531 l       .data	00000000 I_ori_cg_cmp_rd_rs1_b10_str
00002e94 l       .text.rvtest	00000000 I_ori_cg_cmp_rd_rs1_b11
0000e565 l       .data	00000000 I_ori_cg_cmp_rd_rs1_b11_str
00002ebc l       .text.rvtest	00000000 I_ori_cg_cmp_rd_rs1_b12
0000e599 l       .data	00000000 I_ori_cg_cmp_rd_rs1_b12_str
00002ee0 l       .text.rvtest	00000000 I_ori_cg_cmp_rd_rs1_b13
0000e5cd l       .data	00000000 I_ori_cg_cmp_rd_rs1_b13_str
00002f04 l       .text.rvtest	00000000 I_ori_cg_cmp_rd_rs1_b14
0000e601 l       .data	00000000 I_ori_cg_cmp_rd_rs1_b14_str
00002f2c l       .text.rvtest	00000000 I_ori_cg_cmp_rd_rs1_b15
0000e635 l       .data	00000000 I_ori_cg_cmp_rd_rs1_b15_str
00002f50 l       .text.rvtest	00000000 I_ori_cg_cmp_rd_rs1_b16
0000e669 l       .data	00000000 I_ori_cg_cmp_rd_rs1_b16_str
00002f74 l       .text.rvtest	00000000 I_ori_cg_cmp_rd_rs1_b17
0000e69d l       .data	00000000 I_ori_cg_cmp_rd_rs1_b17_str
00002f98 l       .text.rvtest	00000000 I_ori_cg_cmp_rd_rs1_b18
0000e6d1 l       .data	00000000 I_ori_cg_cmp_rd_rs1_b18_str
00002fbc l       .text.rvtest	00000000 I_ori_cg_cmp_rd_rs1_b19
0000e705 l       .data	00000000 I_ori_cg_cmp_rd_rs1_b19_str
00002fe0 l       .text.rvtest	00000000 I_ori_cg_cmp_rd_rs1_b20
0000e739 l       .data	00000000 I_ori_cg_cmp_rd_rs1_b20_str
00003004 l       .text.rvtest	00000000 I_ori_cg_cmp_rd_rs1_b21
0000e76d l       .data	00000000 I_ori_cg_cmp_rd_rs1_b21_str
00003028 l       .text.rvtest	00000000 I_ori_cg_cmp_rd_rs1_b22
0000e7a1 l       .data	00000000 I_ori_cg_cmp_rd_rs1_b22_str
0000304c l       .text.rvtest	00000000 I_ori_cg_cmp_rd_rs1_b23
0000e7d5 l       .data	00000000 I_ori_cg_cmp_rd_rs1_b23_str
00003070 l       .text.rvtest	00000000 I_ori_cg_cmp_rd_rs1_b24
0000e809 l       .data	00000000 I_ori_cg_cmp_rd_rs1_b24_str
00003094 l       .text.rvtest	00000000 I_ori_cg_cmp_rd_rs1_b25
0000e83d l       .data	00000000 I_ori_cg_cmp_rd_rs1_b25_str
000030b8 l       .text.rvtest	00000000 I_ori_cg_cmp_rd_rs1_b26
0000e871 l       .data	00000000 I_ori_cg_cmp_rd_rs1_b26_str
000030dc l       .text.rvtest	00000000 I_ori_cg_cmp_rd_rs1_b27
0000e8a5 l       .data	00000000 I_ori_cg_cmp_rd_rs1_b27_str
00003100 l       .text.rvtest	00000000 I_ori_cg_cmp_rd_rs1_b28
0000e8d9 l       .data	00000000 I_ori_cg_cmp_rd_rs1_b28_str
00003124 l       .text.rvtest	00000000 I_ori_cg_cmp_rd_rs1_b29
0000e90d l       .data	00000000 I_ori_cg_cmp_rd_rs1_b29_str
00003148 l       .text.rvtest	00000000 I_ori_cg_cmp_rd_rs1_b30
0000e941 l       .data	00000000 I_ori_cg_cmp_rd_rs1_b30_str
0000316c l       .text.rvtest	00000000 I_ori_cg_cmp_rd_rs1_b31
0000e975 l       .data	00000000 I_ori_cg_cmp_rd_rs1_b31_str
00003190 l       .text.rvtest	00000000 I_ori_cg_cp_imm_edges_0x0
0000e9a9 l       .data	00000000 I_ori_cg_cp_imm_edges_0x0_str
000031b4 l       .text.rvtest	00000000 I_ori_cg_cp_imm_edges_0x1
0000e9df l       .data	00000000 I_ori_cg_cp_imm_edges_0x1_str
000031d8 l       .text.rvtest	00000000 I_ori_cg_cp_imm_edges_0x2
0000ea15 l       .data	00000000 I_ori_cg_cp_imm_edges_0x2_str
000031fc l       .text.rvtest	00000000 I_ori_cg_cp_imm_edges_0x3
0000ea4b l       .data	00000000 I_ori_cg_cp_imm_edges_0x3_str
00003220 l       .text.rvtest	00000000 I_ori_cg_cp_imm_edges_0x4
0000ea81 l       .data	00000000 I_ori_cg_cp_imm_edges_0x4_str
00003244 l       .text.rvtest	00000000 I_ori_cg_cp_imm_edges_0x8
0000eab7 l       .data	00000000 I_ori_cg_cp_imm_edges_0x8_str
00003268 l       .text.rvtest	00000000 I_ori_cg_cp_imm_edges_0x10
0000eaed l       .data	00000000 I_ori_cg_cp_imm_edges_0x10_str
0000328c l       .text.rvtest	00000000 I_ori_cg_cp_imm_edges_0x20
0000eb24 l       .data	00000000 I_ori_cg_cp_imm_edges_0x20_str
000032b0 l       .text.rvtest	00000000 I_ori_cg_cp_imm_edges_0x40
0000eb5b l       .data	00000000 I_ori_cg_cp_imm_edges_0x40_str
000032d4 l       .text.rvtest	00000000 I_ori_cg_cp_imm_edges_0x80
0000eb92 l       .data	00000000 I_ori_cg_cp_imm_edges_0x80_str
000032f8 l       .text.rvtest	00000000 I_ori_cg_cp_imm_edges_0x100
0000ebc9 l       .data	00000000 I_ori_cg_cp_imm_edges_0x100_str
0000331c l       .text.rvtest	00000000 I_ori_cg_cp_imm_edges_0x200
0000ec01 l       .data	00000000 I_ori_cg_cp_imm_edges_0x200_str
00003340 l       .text.rvtest	00000000 I_ori_cg_cp_imm_edges_0x3ff
0000ec39 l       .data	00000000 I_ori_cg_cp_imm_edges_0x3ff_str
00003364 l       .text.rvtest	00000000 I_ori_cg_cp_imm_edges_0x400
0000ec71 l       .data	00000000 I_ori_cg_cp_imm_edges_0x400_str
00003388 l       .text.rvtest	00000000 I_ori_cg_cp_imm_edges_0x703
0000eca9 l       .data	00000000 I_ori_cg_cp_imm_edges_0x703_str
000033ac l       .text.rvtest	00000000 I_ori_cg_cp_imm_edges_0x7ff
0000ece1 l       .data	00000000 I_ori_cg_cp_imm_edges_0x7ff_str
000033d0 l       .text.rvtest	00000000 I_ori_cg_cp_imm_edges_m0x800
0000ed19 l       .data	00000000 I_ori_cg_cp_imm_edges_m0x800_str
000033f4 l       .text.rvtest	00000000 I_ori_cg_cp_imm_edges_m0x7ff
0000ed52 l       .data	00000000 I_ori_cg_cp_imm_edges_m0x7ff_str
00003418 l       .text.rvtest	00000000 I_ori_cg_cp_imm_edges_m0x2
0000ed8b l       .data	00000000 I_ori_cg_cp_imm_edges_m0x2_str
0000343c l       .text.rvtest	00000000 I_ori_cg_cp_imm_edges_m0x1
0000edc2 l       .data	00000000 I_ori_cg_cp_imm_edges_m0x1_str
0000345c l       .text.rvtest	00000000 exit_cleanup
0000f464 l       .data	00000000 successstr
00020204 l       .text.rvmodel	00000000 rvmodel_io_write_str
00020208 l       .text.rvmodel	00000000 rvmodel_halt_pass
00003490 l       .text.rvtest	00000000 abort_test
6f5ca309 l       *ABS*	00000000 immx
6f5ca309 l       *ABS*	00000000 absimm
00000000 l       *ABS*	00000000 cry
00000309 l       *ABS*	00000000 imm12
0000ee00 l       .data	00000000 begin_failure_scratch
00003560 l       .text.rvtest	00000000 failedtest_saveregs
00003504 l       .text.rvtest	00000000 failedtest_trap_x7_x9
0000ef70 l       .data	00000000 saved_mcause
0000ef78 l       .data	00000000 saved_mtval
0000ef80 l       .data	00000000 saved_mstatus
000035d0 l       .text.rvtest	00000000 failedtest_saveresults
0000ee00 l       .data	00000000 failure_type
0000364c l       .text.rvtest	00000000 failedtest_saveresults_trap
000035e0 l       .text.rvtest	00000000 failedtest_saveresults_int
00003a20 l       .text.rvtest	00000000 failedtest_saveresults_common
0000ef58 l       .data	00000000 trap_diag_fail_str_ptr
0000f62a l       .data	00000000 trap_sig_offset_mismatch
00003900 l       .text.rvtest	00000000 trap_diag_offset_mismatch
0000ef30 l       .data	00000000 trap_diag_subtype
0000f68e l       .data	00000000 sv_Mvect_str
00003980 l       .text.rvtest	00000000 trap_diag_field_identified
0000f790 l       .data	00000000 sv_Mcause_str
0000f88b l       .data	00000000 sv_Mepc_str
0000f97e l       .data	00000000 sv_Mtval_str
0000faf1 l       .data	00000000 sv_Mip_str
0000fa75 l       .data	00000000 sv_Mtval2_str
0000fab3 l       .data	00000000 sv_Mtinst_str
0000f6ce l       .data	00000000 sv_Svect_str
0000f7ce l       .data	00000000 sv_Scause_str
0000f8c7 l       .data	00000000 sv_Sepc_str
0000f9bb l       .data	00000000 sv_Stval_str
0000fb2c l       .data	00000000 sv_Sip_str
0000f70e l       .data	00000000 sv_Hvect_str
0000f80c l       .data	00000000 sv_Hcause_str
0000f903 l       .data	00000000 sv_Hepc_str
0000f9f8 l       .data	00000000 sv_Htval_str
0000fb67 l       .data	00000000 sv_Hip_str
0000f74f l       .data	00000000 sv_Vvect_str
0000f84b l       .data	00000000 sv_Vcause_str
0000f940 l       .data	00000000 sv_Vepc_str
0000fa36 l       .data	00000000 sv_Vtval_str
0000fba3 l       .data	00000000 sv_Vip_str
0000fbe0 l       .data	00000000 Mclr_Mext_int_str
0000fc2f l       .data	00000000 Mclr_Sext_int_str
0000fd2a l       .data	00000000 Sclr_Sext_int_str
0000fe26 l       .data	00000000 Hclr_Sext_int_str
00003a10 l       .text.rvtest	00000000 trap_diag_generic_report
0000ef48 l       .data	00000000 trap_diag_actual_offset
0000ef50 l       .data	00000000 trap_diag_expected_offset
0000ef34 l       .data	00000000 trap_diag_mode
0000ef38 l       .data	00000000 trap_diag_actual_value
0000ef40 l       .data	00000000 trap_diag_expected_value
00003a50 l       .text.rvtest	00000000 failedtest_report
00003a50 l       .text.rvtest	00000000 print_failstr
0000f49a l       .data	00000000 failstr
00003a88 l       .text.rvtest	00000000 print_testnamestr
0000f52d l       .data	00000000 testnamestr
00003ac8 l       .text.rvtest	00000000 print_failure_test_name_str
0000ef20 l       .data	00000000 failure_string_ptr
00003ad8 l       .text.rvtest	00000000 print_newline_str
0000f53f l       .data	00000000 newlinestr
00003f0c l       .text.rvtest	00000000 failedtest_report_trap_detailed
0000f541 l       .data	00000000 inststr
0000ef00 l       .data	00000000 failing_instruction
00004e58 l       .text.rvtest	00000000 failedtest_hex_to_str
0000ef88 l       .data	00000000 ascii_buffer
0000f555 l       .data	00000000 addrstr
0000ef08 l       .data	00000000 failing_addr
0000ffd2 l       .data	00000000 regstr
00003cb8 l       .text.rvtest	00000000 failedtest_report_not_intreg
0000ef04 l       .data	00000000 failing_reg
00004ed4 l       .text.rvtest	00000000 failedtest_dec_to_str
00003d94 l       .text.rvtest	00000000 failedtest_report_print_regstr
00003d0c l       .text.rvtest	00000000 failedtest_report_fpreg
00003d58 l       .text.rvtest	00000000 failedtest_report_vecreg
00010032 l       .data	00000000 fflagsstr
00003dc8 l       .text.rvtest	00000000 failedtest_report_after_reg
0000ffe3 l       .data	00000000 badvalstr
00003e2c l       .text.rvtest	00000000 failedtest_report_badval_not_fp
0000ef10 l       .data	00000000 failing_value
00003e3c l       .text.rvtest	00000000 failedtest_report_badval_done
0000fffa l       .data	00000000 expvalstr
00003ecc l       .text.rvtest	00000000 failedtest_report_expval_not_fp
0000ef18 l       .data	00000000 expected_value
00003edc l       .text.rvtest	00000000 failedtest_report_expval_done
00004c04 l       .text.rvtest	00000000 failedtest_report_end
0001005e l       .data	00000000 trap_diag_header_str
0001008a l       .data	00000000 trap_diag_origstr_label
00003fe0 l       .text.rvtest	00000000 trap_report_offset_mismatch
00004a90 l       .text.rvtest	00000000 trap_report_generic
00004354 l       .text.rvtest	00000000 trap_report_field_mismatch
0001009a l       .data	00000000 trap_diag_count_mismatch_str
000100fb l       .data	00000000 trap_diag_expected_offset_str
00010122 l       .data	00000000 trap_diag_actual_offset_str
00004234 l       .text.rvtest	00000000 trap_report_missing_traps
0000411c l       .text.rvtest	00000000 trap_report_extra_traps
00010149 l       .data	00000000 trap_diag_extra_traps_str
000101ce l       .data	00000000 trap_diag_extra_bytes_str
000101f9 l       .data	00000000 trap_diag_extra_hint_str
00004c50 l       .text.rvtest	00000000 failedtest_print_csr_context
00010183 l       .data	00000000 trap_diag_missing_traps_str
000102e1 l       .data	00000000 trap_diag_missing_hint_str
000103c8 l       .data	00000000 trap_diag_handler_mode_str
000043e4 l       .text.rvtest	00000000 trap_mode_m
00004424 l       .text.rvtest	00000000 trap_mode_s
00004464 l       .text.rvtest	00000000 trap_mode_h
000044a4 l       .text.rvtest	00000000 trap_mode_v
00010404 l       .data	00000000 trap_diag_mode_unknown_str
000044e0 l       .text.rvtest	00000000 trap_mode_print
000103e2 l       .data	00000000 trap_diag_mode_m_str
000103ea l       .data	00000000 trap_diag_mode_s_str
000103f2 l       .data	00000000 trap_diag_mode_hs_str
000103fb l       .data	00000000 trap_diag_mode_vs_str
0001040d l       .data	00000000 trap_diag_field_str
000045a4 l       .text.rvtest	00000000 trap_field_vect
000045e4 l       .text.rvtest	00000000 trap_field_cause
00004624 l       .text.rvtest	00000000 trap_field_epc
00004664 l       .text.rvtest	00000000 trap_field_tval
000046a4 l       .text.rvtest	00000000 trap_field_ip
000046e4 l       .text.rvtest	00000000 trap_field_tval2
00004724 l       .text.rvtest	00000000 trap_field_tinst
00004764 l       .text.rvtest	00000000 trap_field_intid
00010564 l       .data	00000000 trap_diag_field_unknown_str
000047a0 l       .text.rvtest	00000000 trap_field_print
00010427 l       .data	00000000 trap_diag_field_vect_str
00010458 l       .data	00000000 trap_diag_field_cause_str
00010478 l       .data	00000000 trap_diag_field_epc_str
00010496 l       .data	00000000 trap_diag_field_tval_str
000104b5 l       .data	00000000 trap_diag_field_ip_str
000104dd l       .data	00000000 trap_diag_field_tval2_str
00010509 l       .data	00000000 trap_diag_field_tinst_str
00010535 l       .data	00000000 trap_diag_field_intid_str
00010573 l       .data	00000000 trap_diag_expected_str
0001058a l       .data	00000000 trap_diag_actual_str
0000493c l       .text.rvtest	00000000 trap_field_not_cause
000105a1 l       .data	00000000 trap_diag_expected_cause_name_str
00004b74 l       .text.rvtest	00000000 trap_cause_to_str
000105b8 l       .data	00000000 trap_diag_actual_cause_name_str
0000493c l       .text.rvtest	00000000 trap_field_not_epc
0001062e l       .data	00000000 trap_diag_hint_vect_str
00010704 l       .data	00000000 trap_diag_hint_cause_str
000107f7 l       .data	00000000 trap_diag_hint_epc_str
000108f2 l       .data	00000000 trap_diag_hint_tval_str
000109d9 l       .data	00000000 trap_diag_hint_ip_str
000105e6 l       .data	00000000 trap_diag_generic_str
0000ef68 l       .data	00000000 saved_mepc
0000f5c9 l       .data	00000000 xepcinstrstr
00004b98 l       .text.rvtest	00000000 trap_cause_interrupt
00004b78 l       .text.rvtest	00000000 trap_cause_exception
00004bc4 l       .text.rvtest	00000000 trap_cause_unknown
0000efb0 l       .data	00000000 trap_excpt_name_tbl
0000f010 l       .data	00000000 trap_int_name_tbl
0000f44e l       .data	00000000 trap_cause_unknown_str
00010011 l       .data	00000000 endstr
00004c48 l       .text.rvtest	00000000 failedtest_terminate
00020214 l       .text.rvmodel	00000000 rvmodel_halt_fail
0000ef60 l       .data	00000000 csr_context_ret_addr
0000f5ea l       .data	00000000 mepcstr
0000f5fa l       .data	00000000 mcausestr
0000f60a l       .data	00000000 mtvalstr
0000f61a l       .data	00000000 mstatusstr
00004e98 l       .text.rvtest	00000000 failedtest_hex_to_str_loop
00004eb4 l       .text.rvtest	00000000 failedtest_hex_to_str_digit
00004eb8 l       .text.rvtest	00000000 failedtest_hex_to_str_write
00020000 l       .text.rvmodel	00000000 rvtest_boot_to_mmode
00020000 l       .text.rvmodel	00000000 rvtest_init_regs
00010ac0 l       .data	00000000 signature_base
000201a0 l       .text.rvmodel	00000000 canary_check
0001003a l       .data	00000000 canary_mismatch
00008000 l       .data	00000000 scratch
0000efb0 l       .data	00000000 end_failure_scratch
0000f050 l       .data	00000000 trap_excpt_name_0
0000f070 l       .data	00000000 trap_excpt_name_1
0000f08a l       .data	00000000 trap_excpt_name_2
0000f09f l       .data	00000000 trap_excpt_name_3
0000f0ab l       .data	00000000 trap_excpt_name_4
0000f0c4 l       .data	00000000 trap_excpt_name_5
0000f0d7 l       .data	00000000 trap_excpt_name_6
0000f0f5 l       .data	00000000 trap_excpt_name_7
0000f10d l       .data	00000000 trap_excpt_name_8
0000f12b l       .data	00000000 trap_excpt_name_9
0000f149 l       .data	00000000 trap_excpt_name_10
0000f168 l       .data	00000000 trap_excpt_name_11
0000f186 l       .data	00000000 trap_excpt_name_12
0000f19e l       .data	00000000 trap_excpt_name_13
0000f1af l       .data	00000000 trap_excpt_name_14
0000f1be l       .data	00000000 trap_excpt_name_15
0000f1d4 l       .data	00000000 trap_excpt_name_16
0000f1e1 l       .data	00000000 trap_excpt_name_17
0000f1f0 l       .data	00000000 trap_excpt_name_18
0000f200 l       .data	00000000 trap_excpt_name_19
0000f210 l       .data	00000000 trap_excpt_name_20
0000f22e l       .data	00000000 trap_excpt_name_21
0000f245 l       .data	00000000 trap_excpt_name_22
0000f25a l       .data	00000000 trap_excpt_name_23
0000f276 l       .data	00000000 trap_int_name_0
0000f28e l       .data	00000000 trap_int_name_1
0000f2ad l       .data	00000000 trap_int_name_2
0000f2d4 l       .data	00000000 trap_int_name_3
0000f2f0 l       .data	00000000 trap_int_name_4
0000f308 l       .data	00000000 trap_int_name_5
0000f324 l       .data	00000000 trap_int_name_6
0000f348 l       .data	00000000 trap_int_name_7
0000f361 l       .data	00000000 trap_int_name_8
0000f379 l       .data	00000000 trap_int_name_9
0000f398 l       .data	00000000 trap_int_name_10
0000f3bf l       .data	00000000 trap_int_name_11
0000f3db l       .data	00000000 trap_int_name_12
0000f400 l       .data	00000000 trap_int_name_13
0000f41c l       .data	00000000 trap_int_name_14
0000f435 l       .data	00000000 trap_int_name_15
0000f4ef l       .data	00000000 abortstr
0000f596 l       .data	00000000 xepcstr
0000fc81 l       .data	00000000 Mclr_Vext_int_str
0000fcdb l       .data	00000000 Sclr_Mext_int_str
0000fd7c l       .data	00000000 Sclr_Vext_int_str
0000fdd6 l       .data	00000000 Hclr_Mext_int_str
0000fe79 l       .data	00000000 Hclr_Vext_int_str
0000fed4 l       .data	00000000 Vclr_Mext_int_str
0000ff24 l       .data	00000000 Vclr_Sext_int_str
0000ff77 l       .data	00000000 Vclr_Vext_int_str
000105cf l       .data	00000000 trap_diag_curr_xepc_str
000110b0 l       .data	00000000 trap_sigptr
0001fb20 g       .data	00000000 end_signature
0001fb20 g       .data	00000000 rvtest_sig_end
00000000 g       .text.init	00000000 rvtest_entry_point
00010ac0 g       .data	00000000 begin_signature
0000345c g       .text.rvtest	00000000 rvtest_code_end
00000040 g       .text.rvtest	00000000 rvtest_code_begin
00010ac0 g       .data	00000000 rvtest_sig_begin
00008110 g       .data	00000000 rvtest_data_begin
00010abe g       .data	00000000 rvtest_data_end
0000345c g       .text.rvtest	00000000 cleanup_epilogs
00021000 g       .text.rvmodel	00000000 _end



Disassembly of section .text.init:

00000000 <rvtest_entry_point>:

// Include framework macros
#include "riscv_arch_test.h"

// Set up test environment and declare main entry point
RVTEST_BEGIN
   0:	00020097          	auipc	x1,0x20
   4:	00008093          	addi	x1,x1,0 # 20000 <rvmodel_boot>
   8:	00000013          	addi	x0,x0,0
   c:	00000013          	addi	x0,x0,0
  10:	00000013          	addi	x0,x0,0
  14:	00000013          	addi	x0,x0,0
  18:	00000013          	addi	x0,x0,0
  1c:	00000013          	addi	x0,x0,0
  20:	000080e7          	jalr	x1,0(x1)
  24:	00000013          	addi	x0,x0,0
  28:	00000013          	addi	x0,x0,0
  2c:	00000013          	addi	x0,x0,0
  30:	00000013          	addi	x0,x0,0
  34:	00000013          	addi	x0,x0,0
  38:	00000013          	addi	x0,x0,0
  3c:	00000013          	addi	x0,x0,0

Disassembly of section .text.rvtest:

00000040 <rvtest_code_begin>:
/////////////////////////////////
// cp_rs1
/////////////////////////////////

# Testcase cp_rs1 (Test source rs1 = x0)
  RVTEST_TESTDATA_LOAD_INT(x3, x0) # load rs1: x0 = 0xdff53bba
      40:	0001a003          	lw	x0,0(x3)
      44:	00418193          	addi	x3,x3,4

00000048 <I_ori_cg_cp_rs1_b0>:
I_ori_cg_cp_rs1_b0:
  ori x16, x0, 1717 # perform operation
      48:	6b506813          	ori	x16,x0,1717
  # Check if x16 contains the expected result. x2 is the signature ptr, x5 is the link ptr, x4 is a temp reg.
  RVTEST_SIGUPD(x2, x5, x4, x16, I_ori_cg_cp_rs1_b0, I_ori_cg_cp_rs1_b0_str)
      4c:	00012203          	lw	x4,0(x2)
      50:	01020863          	beq	x4,x16,60 <I_ori_cg_cp_rs1_b0+0x18>
      54:	448032ef          	jal	x5,349c <failedtest_x5_x4>
      58:	00000048          	.word	0x00000048
      5c:	000086d0          	.word	0x000086d0
      60:	00410113          	addi	x2,x2,4

# Testcase cp_rs1 (Test source rs1 = x1)
  RVTEST_TESTDATA_LOAD_INT(x3, x1) # load rs1: x1 = 0x59335e52
      64:	0001a083          	lw	x1,0(x3)
      68:	00418193          	addi	x3,x3,4

0000006c <I_ori_cg_cp_rs1_b1>:
I_ori_cg_cp_rs1_b1:
  ori x31, x1, 801 # perform operation
      6c:	3210ef93          	ori	x31,x1,801
  # Check if x31 contains the expected result. x2 is the signature ptr, x5 is the link ptr, x4 is a temp reg.
  RVTEST_SIGUPD(x2, x5, x4, x31, I_ori_cg_cp_rs1_b1, I_ori_cg_cp_rs1_b1_str)
      70:	00012203          	lw	x4,0(x2)
      74:	01f20863          	beq	x4,x31,84 <I_ori_cg_cp_rs1_b1+0x18>
      78:	424032ef          	jal	x5,349c <failedtest_x5_x4>
      7c:	0000006c          	.word	0x0000006c
      80:	000086fd          	.word	0x000086fd
      84:	00410113          	addi	x2,x2,4

  mv x24, x2 # switch signature pointer register to avoid conflict with test
      88:	00010c13          	addi	x24,x2,0
# Testcase cp_rs1 (Test source rs1 = x2)
  RVTEST_TESTDATA_LOAD_INT(x3, x2) # load rs1: x2 = 0x02b1c130
      8c:	0001a103          	lw	x2,0(x3)
      90:	00418193          	addi	x3,x3,4

00000094 <I_ori_cg_cp_rs1_b2>:
I_ori_cg_cp_rs1_b2:
  ori x17, x2, -67 # perform operation
      94:	fbd16893          	ori	x17,x2,-67
  # Check if x17 contains the expected result. x24 is the signature ptr, x5 is the link ptr, x4 is a temp reg.
  RVTEST_SIGUPD(x24, x5, x4, x17, I_ori_cg_cp_rs1_b2, I_ori_cg_cp_rs1_b2_str)
      98:	000c2203          	lw	x4,0(x24)
      9c:	01120863          	beq	x4,x17,ac <I_ori_cg_cp_rs1_b2+0x18>
      a0:	3fc032ef          	jal	x5,349c <failedtest_x5_x4>
      a4:	00000094          	.word	0x00000094
      a8:	0000872a          	.word	0x0000872a
      ac:	004c0c13          	addi	x24,x24,4

  mv x9, x3 # switch data pointer register to avoid conflict with test
      b0:	00018493          	addi	x9,x3,0
# Testcase cp_rs1 (Test source rs1 = x3)
  RVTEST_TESTDATA_LOAD_INT(x9, x3) # load rs1: x3 = 0x630f64c9
      b4:	0004a183          	lw	x3,0(x9)
      b8:	00448493          	addi	x9,x9,4

000000bc <I_ori_cg_cp_rs1_b3>:
I_ori_cg_cp_rs1_b3:
  ori x17, x3, 1052 # perform operation
      bc:	41c1e893          	ori	x17,x3,1052
  # Check if x17 contains the expected result. x24 is the signature ptr, x5 is the link ptr, x4 is a temp reg.
  RVTEST_SIGUPD(x24, x5, x4, x17, I_ori_cg_cp_rs1_b3, I_ori_cg_cp_rs1_b3_str)
      c0:	000c2203          	lw	x4,0(x24)
      c4:	01120863          	beq	x4,x17,d4 <I_ori_cg_cp_rs1_b3+0x18>
      c8:	3d4032ef          	jal	x5,349c <failedtest_x5_x4>
      cc:	000000bc          	.word	0x000000bc
      d0:	00008757          	.word	0x00008757
      d4:	004c0c13          	addi	x24,x24,4

  mv x7, x4 # switch temp register to avoid conflict with test
      d8:	00020393          	addi	x7,x4,0 # 0 <rvtest_entry_point>
  mv x8, x5 # switch link pointer register to avoid conflict with test
      dc:	00028413          	addi	x8,x5,0
# Testcase cp_rs1 (Test source rs1 = x4)
  RVTEST_TESTDATA_LOAD_INT(x9, x4) # load rs1: x4 = 0x359ae52c
      e0:	0004a203          	lw	x4,0(x9)
      e4:	00448493          	addi	x9,x9,4

000000e8 <I_ori_cg_cp_rs1_b4>:
I_ori_cg_cp_rs1_b4:
  ori x27, x4, -462 # perform operation
      e8:	e3226d93          	ori	x27,x4,-462
  # Check if x27 contains the expected result. x24 is the signature ptr, x8 is the link ptr, x7 is a temp reg.
  RVTEST_SIGUPD(x24, x8, x7, x27, I_ori_cg_cp_rs1_b4, I_ori_cg_cp_rs1_b4_str)
      ec:	000c2383          	lw	x7,0(x24)
      f0:	01b38863          	beq	x7,x27,100 <I_ori_cg_cp_rs1_b4+0x18>
      f4:	3c00346f          	jal	x8,34b4 <failedtest_x8_x7>
      f8:	000000e8          	.word	0x000000e8
      fc:	00008784          	.word	0x00008784
     100:	004c0c13          	addi	x24,x24,4

# Testcase cp_rs1 (Test source rs1 = x5)
  RVTEST_TESTDATA_LOAD_INT(x9, x5) # load rs1: x5 = 0x7aa4e59d
     104:	0004a283          	lw	x5,0(x9)
     108:	00448493          	addi	x9,x9,4

0000010c <I_ori_cg_cp_rs1_b5>:
I_ori_cg_cp_rs1_b5:
  ori x26, x5, 735 # perform operation
     10c:	2df2ed13          	ori	x26,x5,735
  # Check if x26 contains the expected result. x24 is the signature ptr, x8 is the link ptr, x7 is a temp reg.
  RVTEST_SIGUPD(x24, x8, x7, x26, I_ori_cg_cp_rs1_b5, I_ori_cg_cp_rs1_b5_str)
     110:	000c2383          	lw	x7,0(x24)
     114:	01a38863          	beq	x7,x26,124 <I_ori_cg_cp_rs1_b5+0x18>
     118:	39c0346f          	jal	x8,34b4 <failedtest_x8_x7>
     11c:	0000010c          	.word	0x0000010c
     120:	000087b1          	.word	0x000087b1
     124:	004c0c13          	addi	x24,x24,4

# Testcase cp_rs1 (Test source rs1 = x6)
  RVTEST_TESTDATA_LOAD_INT(x9, x6) # load rs1: x6 = 0x68041444
     128:	0004a303          	lw	x6,0(x9)
     12c:	00448493          	addi	x9,x9,4

00000130 <I_ori_cg_cp_rs1_b6>:
I_ori_cg_cp_rs1_b6:
  ori x16, x6, 284 # perform operation
     130:	11c36813          	ori	x16,x6,284
  # Check if x16 contains the expected result. x24 is the signature ptr, x8 is the link ptr, x7 is a temp reg.
  RVTEST_SIGUPD(x24, x8, x7, x16, I_ori_cg_cp_rs1_b6, I_ori_cg_cp_rs1_b6_str)
     134:	000c2383          	lw	x7,0(x24)
     138:	01038863          	beq	x7,x16,148 <I_ori_cg_cp_rs1_b6+0x18>
     13c:	3780346f          	jal	x8,34b4 <failedtest_x8_x7>
     140:	00000130          	.word	0x00000130
     144:	000087de          	.word	0x000087de
     148:	004c0c13          	addi	x24,x24,4

  mv x4, x7 # switch temp register to avoid conflict with test
     14c:	00038213          	addi	x4,x7,0
  mv x5, x8 # switch link pointer register to avoid conflict with test
     150:	00040293          	addi	x5,x8,0
# Testcase cp_rs1 (Test source rs1 = x7)
  RVTEST_TESTDATA_LOAD_INT(x9, x7) # load rs1: x7 = 0xe2e3b27a
     154:	0004a383          	lw	x7,0(x9)
     158:	00448493          	addi	x9,x9,4

0000015c <I_ori_cg_cp_rs1_b7>:
I_ori_cg_cp_rs1_b7:
  ori x12, x7, -326 # perform operation
     15c:	eba3e613          	ori	x12,x7,-326
  # Check if x12 contains the expected result. x24 is the signature ptr, x5 is the link ptr, x4 is a temp reg.
  RVTEST_SIGUPD(x24, x5, x4, x12, I_ori_cg_cp_rs1_b7, I_ori_cg_cp_rs1_b7_str)
     160:	000c2203          	lw	x4,0(x24)
     164:	00c20863          	beq	x4,x12,174 <I_ori_cg_cp_rs1_b7+0x18>
     168:	334032ef          	jal	x5,349c <failedtest_x5_x4>
     16c:	0000015c          	.word	0x0000015c
     170:	0000880b          	.word	0x0000880b
     174:	004c0c13          	addi	x24,x24,4

# Testcase cp_rs1 (Test source rs1 = x8)
  RVTEST_TESTDATA_LOAD_INT(x9, x8) # load rs1: x8 = 0x80c7a226
     178:	0004a403          	lw	x8,0(x9)
     17c:	00448493          	addi	x9,x9,4

00000180 <I_ori_cg_cp_rs1_b8>:
I_ori_cg_cp_rs1_b8:
  ori x14, x8, -379 # perform operation
     180:	e8546713          	ori	x14,x8,-379
  # Check if x14 contains the expected result. x24 is the signature ptr, x5 is the link ptr, x4 is a temp reg.
  RVTEST_SIGUPD(x24, x5, x4, x14, I_ori_cg_cp_rs1_b8, I_ori_cg_cp_rs1_b8_str)
     184:	000c2203          	lw	x4,0(x24)
     188:	00e20863          	beq	x4,x14,198 <I_ori_cg_cp_rs1_b8+0x18>
     18c:	310032ef          	jal	x5,349c <failedtest_x5_x4>
     190:	00000180          	.word	0x00000180
     194:	00008838          	.word	0x00008838
     198:	004c0c13          	addi	x24,x24,4

  mv x19, x9 # switch data pointer register to avoid conflict with test
     19c:	00048993          	addi	x19,x9,0
# Testcase cp_rs1 (Test source rs1 = x9)
  RVTEST_TESTDATA_LOAD_INT(x19, x9) # load rs1: x9 = 0xa9098f57
     1a0:	0009a483          	lw	x9,0(x19)
     1a4:	00498993          	addi	x19,x19,4

000001a8 <I_ori_cg_cp_rs1_b9>:
I_ori_cg_cp_rs1_b9:
  ori x14, x9, 1960 # perform operation
     1a8:	7a84e713          	ori	x14,x9,1960
  # Check if x14 contains the expected result. x24 is the signature ptr, x5 is the link ptr, x4 is a temp reg.
  RVTEST_SIGUPD(x24, x5, x4, x14, I_ori_cg_cp_rs1_b9, I_ori_cg_cp_rs1_b9_str)
     1ac:	000c2203          	lw	x4,0(x24)
     1b0:	00e20863          	beq	x4,x14,1c0 <I_ori_cg_cp_rs1_b9+0x18>
     1b4:	2e8032ef          	jal	x5,349c <failedtest_x5_x4>
     1b8:	000001a8          	.word	0x000001a8
     1bc:	00008865          	.word	0x00008865
     1c0:	004c0c13          	addi	x24,x24,4

# Testcase cp_rs1 (Test source rs1 = x10)
  RVTEST_TESTDATA_LOAD_INT(x19, x10) # load rs1: x10 = 0x9c527747
     1c4:	0009a503          	lw	x10,0(x19)
     1c8:	00498993          	addi	x19,x19,4

000001cc <I_ori_cg_cp_rs1_b10>:
I_ori_cg_cp_rs1_b10:
  ori x12, x10, -718 # perform operation
     1cc:	d3256613          	ori	x12,x10,-718
  # Check if x12 contains the expected result. x24 is the signature ptr, x5 is the link ptr, x4 is a temp reg.
  RVTEST_SIGUPD(x24, x5, x4, x12, I_ori_cg_cp_rs1_b10, I_ori_cg_cp_rs1_b10_str)
     1d0:	000c2203          	lw	x4,0(x24)
     1d4:	00c20863          	beq	x4,x12,1e4 <I_ori_cg_cp_rs1_b10+0x18>
     1d8:	2c4032ef          	jal	x5,349c <failedtest_x5_x4>
     1dc:	000001cc          	.word	0x000001cc
     1e0:	00008893          	.word	0x00008893
     1e4:	004c0c13          	addi	x24,x24,4

# Testcase cp_rs1 (Test source rs1 = x11)
  RVTEST_TESTDATA_LOAD_INT(x19, x11) # load rs1: x11 = 0x7a1e7cd7
     1e8:	0009a583          	lw	x11,0(x19)
     1ec:	00498993          	addi	x19,x19,4

000001f0 <I_ori_cg_cp_rs1_b11>:
I_ori_cg_cp_rs1_b11:
  ori x17, x11, 714 # perform operation
     1f0:	2ca5e893          	ori	x17,x11,714
  # Check if x17 contains the expected result. x24 is the signature ptr, x5 is the link ptr, x4 is a temp reg.
  RVTEST_SIGUPD(x24, x5, x4, x17, I_ori_cg_cp_rs1_b11, I_ori_cg_cp_rs1_b11_str)
     1f4:	000c2203          	lw	x4,0(x24)
     1f8:	01120863          	beq	x4,x17,208 <I_ori_cg_cp_rs1_b11+0x18>
     1fc:	2a0032ef          	jal	x5,349c <failedtest_x5_x4>
     200:	000001f0          	.word	0x000001f0
     204:	000088c2          	.word	0x000088c2
     208:	004c0c13          	addi	x24,x24,4

# Testcase cp_rs1 (Test source rs1 = x12)
  RVTEST_TESTDATA_LOAD_INT(x19, x12) # load rs1: x12 = 0x1f804787
     20c:	0009a603          	lw	x12,0(x19)
     210:	00498993          	addi	x19,x19,4

00000214 <I_ori_cg_cp_rs1_b12>:
I_ori_cg_cp_rs1_b12:
  ori x0, x12, 665 # perform operation
     214:	29966013          	ori	x0,x12,665
  # Check if x0 contains the expected result. x24 is the signature ptr, x5 is the link ptr, x4 is a temp reg.
  RVTEST_SIGUPD(x24, x5, x4, x0, I_ori_cg_cp_rs1_b12, I_ori_cg_cp_rs1_b12_str)
     218:	000c2203          	lw	x4,0(x24)
     21c:	00020863          	beq	x4,x0,22c <I_ori_cg_cp_rs1_b12+0x18>
     220:	27c032ef          	jal	x5,349c <failedtest_x5_x4>
     224:	00000214          	.word	0x00000214
     228:	000088f1          	.word	0x000088f1
     22c:	004c0c13          	addi	x24,x24,4

# Testcase cp_rs1 (Test source rs1 = x13)
  RVTEST_TESTDATA_LOAD_INT(x19, x13) # load rs1: x13 = 0x348ca637
     230:	0009a683          	lw	x13,0(x19)
     234:	00498993          	addi	x19,x19,4

00000238 <I_ori_cg_cp_rs1_b13>:
I_ori_cg_cp_rs1_b13:
  ori x2, x13, -614 # perform operation
     238:	d9a6e113          	ori	x2,x13,-614
  # Check if x2 contains the expected result. x24 is the signature ptr, x5 is the link ptr, x4 is a temp reg.
  RVTEST_SIGUPD(x24, x5, x4, x2, I_ori_cg_cp_rs1_b13, I_ori_cg_cp_rs1_b13_str)
     23c:	000c2203          	lw	x4,0(x24)
     240:	00220863          	beq	x4,x2,250 <I_ori_cg_cp_rs1_b13+0x18>
     244:	258032ef          	jal	x5,349c <failedtest_x5_x4>
     248:	00000238          	.word	0x00000238
     24c:	00008920          	.word	0x00008920
     250:	004c0c13          	addi	x24,x24,4

# Testcase cp_rs1 (Test source rs1 = x14)
  RVTEST_TESTDATA_LOAD_INT(x19, x14) # load rs1: x14 = 0x7e4031ce
     254:	0009a703          	lw	x14,0(x19)
     258:	00498993          	addi	x19,x19,4

0000025c <I_ori_cg_cp_rs1_b14>:
I_ori_cg_cp_rs1_b14:
  ori x6, x14, 1573 # perform operation
     25c:	62576313          	ori	x6,x14,1573
  # Check if x6 contains the expected result. x24 is the signature ptr, x5 is the link ptr, x4 is a temp reg.
  RVTEST_SIGUPD(x24, x5, x4, x6, I_ori_cg_cp_rs1_b14, I_ori_cg_cp_rs1_b14_str)
     260:	000c2203          	lw	x4,0(x24)
     264:	00620863          	beq	x4,x6,274 <I_ori_cg_cp_rs1_b14+0x18>
     268:	234032ef          	jal	x5,349c <failedtest_x5_x4>
     26c:	0000025c          	.word	0x0000025c
     270:	0000894f          	.word	0x0000894f
     274:	004c0c13          	addi	x24,x24,4

# Testcase cp_rs1 (Test source rs1 = x15)
  RVTEST_TESTDATA_LOAD_INT(x19, x15) # load rs1: x15 = 0x1cb8256d
     278:	0009a783          	lw	x15,0(x19)
     27c:	00498993          	addi	x19,x19,4

00000280 <I_ori_cg_cp_rs1_b15>:
I_ori_cg_cp_rs1_b15:
  ori x23, x15, -431 # perform operation
     280:	e517eb93          	ori	x23,x15,-431
  # Check if x23 contains the expected result. x24 is the signature ptr, x5 is the link ptr, x4 is a temp reg.
  RVTEST_SIGUPD(x24, x5, x4, x23, I_ori_cg_cp_rs1_b15, I_ori_cg_cp_rs1_b15_str)
     284:	000c2203          	lw	x4,0(x24)
     288:	01720863          	beq	x4,x23,298 <I_ori_cg_cp_rs1_b15+0x18>
     28c:	210032ef          	jal	x5,349c <failedtest_x5_x4>
     290:	00000280          	.word	0x00000280
     294:	0000897e          	.word	0x0000897e
     298:	004c0c13          	addi	x24,x24,4

# Testcase cp_rs1 (Test source rs1 = x16)
  RVTEST_TESTDATA_LOAD_INT(x19, x16) # load rs1: x16 = 0xa7b6cfe5
     29c:	0009a803          	lw	x16,0(x19)
     2a0:	00498993          	addi	x19,x19,4

000002a4 <I_ori_cg_cp_rs1_b16>:
I_ori_cg_cp_rs1_b16:
  ori x13, x16, 1976 # perform operation
     2a4:	7b886693          	ori	x13,x16,1976
  # Check if x13 contains the expected result. x24 is the signature ptr, x5 is the link ptr, x4 is a temp reg.
  RVTEST_SIGUPD(x24, x5, x4, x13, I_ori_cg_cp_rs1_b16, I_ori_cg_cp_rs1_b16_str)
     2a8:	000c2203          	lw	x4,0(x24)
     2ac:	00d20863          	beq	x4,x13,2bc <I_ori_cg_cp_rs1_b16+0x18>
     2b0:	1ec032ef          	jal	x5,349c <failedtest_x5_x4>
     2b4:	000002a4          	.word	0x000002a4
     2b8:	000089ad          	.word	0x000089ad
     2bc:	004c0c13          	addi	x24,x24,4

# Testcase cp_rs1 (Test source rs1 = x17)
  RVTEST_TESTDATA_LOAD_INT(x19, x17) # load rs1: x17 = 0x158bfb5b
     2c0:	0009a883          	lw	x17,0(x19)
     2c4:	00498993          	addi	x19,x19,4

000002c8 <I_ori_cg_cp_rs1_b17>:
I_ori_cg_cp_rs1_b17:
  ori x27, x17, 336 # perform operation
     2c8:	1508ed93          	ori	x27,x17,336
  # Check if x27 contains the expected result. x24 is the signature ptr, x5 is the link ptr, x4 is a temp reg.
  RVTEST_SIGUPD(x24, x5, x4, x27, I_ori_cg_cp_rs1_b17, I_ori_cg_cp_rs1_b17_str)
     2cc:	000c2203          	lw	x4,0(x24)
     2d0:	01b20863          	beq	x4,x27,2e0 <I_ori_cg_cp_rs1_b17+0x18>
     2d4:	1c8032ef          	jal	x5,349c <failedtest_x5_x4>
     2d8:	000002c8          	.word	0x000002c8
     2dc:	000089dc          	.word	0x000089dc
     2e0:	004c0c13          	addi	x24,x24,4

# Testcase cp_rs1 (Test source rs1 = x18)
  RVTEST_TESTDATA_LOAD_INT(x19, x18) # load rs1: x18 = 0xe99a0f19
     2e4:	0009a903          	lw	x18,0(x19)
     2e8:	00498993          	addi	x19,x19,4

000002ec <I_ori_cg_cp_rs1_b18>:
I_ori_cg_cp_rs1_b18:
  ori x31, x18, 1846 # perform operation
     2ec:	73696f93          	ori	x31,x18,1846
  # Check if x31 contains the expected result. x24 is the signature ptr, x5 is the link ptr, x4 is a temp reg.
  RVTEST_SIGUPD(x24, x5, x4, x31, I_ori_cg_cp_rs1_b18, I_ori_cg_cp_rs1_b18_str)
     2f0:	000c2203          	lw	x4,0(x24)
     2f4:	01f20863          	beq	x4,x31,304 <I_ori_cg_cp_rs1_b18+0x18>
     2f8:	1a4032ef          	jal	x5,349c <failedtest_x5_x4>
     2fc:	000002ec          	.word	0x000002ec
     300:	00008a0b          	.word	0x00008a0b
     304:	004c0c13          	addi	x24,x24,4

  mv x30, x19 # switch data pointer register to avoid conflict with test
     308:	00098f13          	addi	x30,x19,0
# Testcase cp_rs1 (Test source rs1 = x19)
  RVTEST_TESTDATA_LOAD_INT(x30, x19) # load rs1: x19 = 0x0656b4e4
     30c:	000f2983          	lw	x19,0(x30)
     310:	004f0f13          	addi	x30,x30,4

00000314 <I_ori_cg_cp_rs1_b19>:
I_ori_cg_cp_rs1_b19:
  ori x6, x19, -839 # perform operation
     314:	cb99e313          	ori	x6,x19,-839
  # Check if x6 contains the expected result. x24 is the signature ptr, x5 is the link ptr, x4 is a temp reg.
  RVTEST_SIGUPD(x24, x5, x4, x6, I_ori_cg_cp_rs1_b19, I_ori_cg_cp_rs1_b19_str)
     318:	000c2203          	lw	x4,0(x24)
     31c:	00620863          	beq	x4,x6,32c <I_ori_cg_cp_rs1_b19+0x18>
     320:	17c032ef          	jal	x5,349c <failedtest_x5_x4>
     324:	00000314          	.word	0x00000314
     328:	00008a3a          	.word	0x00008a3a
     32c:	004c0c13          	addi	x24,x24,4

# Testcase cp_rs1 (Test source rs1 = x20)
  RVTEST_TESTDATA_LOAD_INT(x30, x20) # load rs1: x20 = 0xfee101b1
     330:	000f2a03          	lw	x20,0(x30)
     334:	004f0f13          	addi	x30,x30,4

00000338 <I_ori_cg_cp_rs1_b20>:
I_ori_cg_cp_rs1_b20:
  ori x15, x20, 1252 # perform operation
     338:	4e4a6793          	ori	x15,x20,1252
  # Check if x15 contains the expected result. x24 is the signature ptr, x5 is the link ptr, x4 is a temp reg.
  RVTEST_SIGUPD(x24, x5, x4, x15, I_ori_cg_cp_rs1_b20, I_ori_cg_cp_rs1_b20_str)
     33c:	000c2203          	lw	x4,0(x24)
     340:	00f20863          	beq	x4,x15,350 <I_ori_cg_cp_rs1_b20+0x18>
     344:	158032ef          	jal	x5,349c <failedtest_x5_x4>
     348:	00000338          	.word	0x00000338
     34c:	00008a69          	.word	0x00008a69
     350:	004c0c13          	addi	x24,x24,4

# Testcase cp_rs1 (Test source rs1 = x21)
  RVTEST_TESTDATA_LOAD_INT(x30, x21) # load rs1: x21 = 0x2fcaf10a
     354:	000f2a83          	lw	x21,0(x30)
     358:	004f0f13          	addi	x30,x30,4

0000035c <I_ori_cg_cp_rs1_b21>:
I_ori_cg_cp_rs1_b21:
  ori x13, x21, -2016 # perform operation
     35c:	820ae693          	ori	x13,x21,-2016
  # Check if x13 contains the expected result. x24 is the signature ptr, x5 is the link ptr, x4 is a temp reg.
  RVTEST_SIGUPD(x24, x5, x4, x13, I_ori_cg_cp_rs1_b21, I_ori_cg_cp_rs1_b21_str)
     360:	000c2203          	lw	x4,0(x24)
     364:	00d20863          	beq	x4,x13,374 <I_ori_cg_cp_rs1_b21+0x18>
     368:	134032ef          	jal	x5,349c <failedtest_x5_x4>
     36c:	0000035c          	.word	0x0000035c
     370:	00008a98          	.word	0x00008a98
     374:	004c0c13          	addi	x24,x24,4

# Testcase cp_rs1 (Test source rs1 = x22)
  RVTEST_TESTDATA_LOAD_INT(x30, x22) # load rs1: x22 = 0x876f092c
     378:	000f2b03          	lw	x22,0(x30)
     37c:	004f0f13          	addi	x30,x30,4

00000380 <I_ori_cg_cp_rs1_b22>:
I_ori_cg_cp_rs1_b22:
  ori x8, x22, -1118 # perform operation
     380:	ba2b6413          	ori	x8,x22,-1118
  # Check if x8 contains the expected result. x24 is the signature ptr, x5 is the link ptr, x4 is a temp reg.
  RVTEST_SIGUPD(x24, x5, x4, x8, I_ori_cg_cp_rs1_b22, I_ori_cg_cp_rs1_b22_str)
     384:	000c2203          	lw	x4,0(x24)
     388:	00820863          	beq	x4,x8,398 <I_ori_cg_cp_rs1_b22+0x18>
     38c:	110032ef          	jal	x5,349c <failedtest_x5_x4>
     390:	00000380          	.word	0x00000380
     394:	00008ac7          	.word	0x00008ac7
     398:	004c0c13          	addi	x24,x24,4

# Testcase cp_rs1 (Test source rs1 = x23)
  RVTEST_TESTDATA_LOAD_INT(x30, x23) # load rs1: x23 = 0xeddcbe31
     39c:	000f2b83          	lw	x23,0(x30)
     3a0:	004f0f13          	addi	x30,x30,4

000003a4 <I_ori_cg_cp_rs1_b23>:
I_ori_cg_cp_rs1_b23:
  ori x11, x23, -1722 # perform operation
     3a4:	946be593          	ori	x11,x23,-1722
  # Check if x11 contains the expected result. x24 is the signature ptr, x5 is the link ptr, x4 is a temp reg.
  RVTEST_SIGUPD(x24, x5, x4, x11, I_ori_cg_cp_rs1_b23, I_ori_cg_cp_rs1_b23_str)
     3a8:	000c2203          	lw	x4,0(x24)
     3ac:	00b20863          	beq	x4,x11,3bc <I_ori_cg_cp_rs1_b23+0x18>
     3b0:	0ec032ef          	jal	x5,349c <failedtest_x5_x4>
     3b4:	000003a4          	.word	0x000003a4
     3b8:	00008af6          	.word	0x00008af6
     3bc:	004c0c13          	addi	x24,x24,4

  mv x17, x24 # switch signature pointer register to avoid conflict with test
     3c0:	000c0893          	addi	x17,x24,0
# Testcase cp_rs1 (Test source rs1 = x24)
  RVTEST_TESTDATA_LOAD_INT(x30, x24) # load rs1: x24 = 0x9ff21c8f
     3c4:	000f2c03          	lw	x24,0(x30)
     3c8:	004f0f13          	addi	x30,x30,4

000003cc <I_ori_cg_cp_rs1_b24>:
I_ori_cg_cp_rs1_b24:
  ori x16, x24, -998 # perform operation
     3cc:	c1ac6813          	ori	x16,x24,-998
  # Check if x16 contains the expected result. x17 is the signature ptr, x5 is the link ptr, x4 is a temp reg.
  RVTEST_SIGUPD(x17, x5, x4, x16, I_ori_cg_cp_rs1_b24, I_ori_cg_cp_rs1_b24_str)
     3d0:	0008a203          	lw	x4,0(x17)
     3d4:	01020863          	beq	x4,x16,3e4 <I_ori_cg_cp_rs1_b24+0x18>
     3d8:	0c4032ef          	jal	x5,349c <failedtest_x5_x4>
     3dc:	000003cc          	.word	0x000003cc
     3e0:	00008b25          	.word	0x00008b25
     3e4:	00488893          	addi	x17,x17,4

# Testcase cp_rs1 (Test source rs1 = x25)
  RVTEST_TESTDATA_LOAD_INT(x30, x25) # load rs1: x25 = 0x3109e098
     3e8:	000f2c83          	lw	x25,0(x30)
     3ec:	004f0f13          	addi	x30,x30,4

000003f0 <I_ori_cg_cp_rs1_b25>:
I_ori_cg_cp_rs1_b25:
  ori x24, x25, -2 # perform operation
     3f0:	ffecec13          	ori	x24,x25,-2
  # Check if x24 contains the expected result. x17 is the signature ptr, x5 is the link ptr, x4 is a temp reg.
  RVTEST_SIGUPD(x17, x5, x4, x24, I_ori_cg_cp_rs1_b25, I_ori_cg_cp_rs1_b25_str)
     3f4:	0008a203          	lw	x4,0(x17)
     3f8:	01820863          	beq	x4,x24,408 <I_ori_cg_cp_rs1_b25+0x18>
     3fc:	0a0032ef          	jal	x5,349c <failedtest_x5_x4>
     400:	000003f0          	.word	0x000003f0
     404:	00008b54          	.word	0x00008b54
     408:	00488893          	addi	x17,x17,4

# Testcase cp_rs1 (Test source rs1 = x26)
  RVTEST_TESTDATA_LOAD_INT(x30, x26) # load rs1: x26 = 0x09b8cb13
     40c:	000f2d03          	lw	x26,0(x30)
     410:	004f0f13          	addi	x30,x30,4

00000414 <I_ori_cg_cp_rs1_b26>:
I_ori_cg_cp_rs1_b26:
  ori x29, x26, -201 # perform operation
     414:	f37d6e93          	ori	x29,x26,-201
  # Check if x29 contains the expected result. x17 is the signature ptr, x5 is the link ptr, x4 is a temp reg.
  RVTEST_SIGUPD(x17, x5, x4, x29, I_ori_cg_cp_rs1_b26, I_ori_cg_cp_rs1_b26_str)
     418:	0008a203          	lw	x4,0(x17)
     41c:	01d20863          	beq	x4,x29,42c <I_ori_cg_cp_rs1_b26+0x18>
     420:	07c032ef          	jal	x5,349c <failedtest_x5_x4>
     424:	00000414          	.word	0x00000414
     428:	00008b83          	.word	0x00008b83
     42c:	00488893          	addi	x17,x17,4

# Testcase cp_rs1 (Test source rs1 = x27)
  RVTEST_TESTDATA_LOAD_INT(x30, x27) # load rs1: x27 = 0x2c1a998b
     430:	000f2d83          	lw	x27,0(x30)
     434:	004f0f13          	addi	x30,x30,4

00000438 <I_ori_cg_cp_rs1_b27>:
I_ori_cg_cp_rs1_b27:
  ori x26, x27, -282 # perform operation
     438:	ee6ded13          	ori	x26,x27,-282
  # Check if x26 contains the expected result. x17 is the signature ptr, x5 is the link ptr, x4 is a temp reg.
  RVTEST_SIGUPD(x17, x5, x4, x26, I_ori_cg_cp_rs1_b27, I_ori_cg_cp_rs1_b27_str)
     43c:	0008a203          	lw	x4,0(x17)
     440:	01a20863          	beq	x4,x26,450 <I_ori_cg_cp_rs1_b27+0x18>
     444:	058032ef          	jal	x5,349c <failedtest_x5_x4>
     448:	00000438          	.word	0x00000438
     44c:	00008bb2          	.word	0x00008bb2
     450:	00488893          	addi	x17,x17,4

# Testcase cp_rs1 (Test source rs1 = x28)
  RVTEST_TESTDATA_LOAD_INT(x30, x28) # load rs1: x28 = 0x417ea64e
     454:	000f2e03          	lw	x28,0(x30)
     458:	004f0f13          	addi	x30,x30,4

0000045c <I_ori_cg_cp_rs1_b28>:
I_ori_cg_cp_rs1_b28:
  ori x8, x28, 1287 # perform operation
     45c:	507e6413          	ori	x8,x28,1287
  # Check if x8 contains the expected result. x17 is the signature ptr, x5 is the link ptr, x4 is a temp reg.
  RVTEST_SIGUPD(x17, x5, x4, x8, I_ori_cg_cp_rs1_b28, I_ori_cg_cp_rs1_b28_str)
     460:	0008a203          	lw	x4,0(x17)
     464:	00820863          	beq	x4,x8,474 <I_ori_cg_cp_rs1_b28+0x18>
     468:	034032ef          	jal	x5,349c <failedtest_x5_x4>
     46c:	0000045c          	.word	0x0000045c
     470:	00008be1          	.word	0x00008be1
     474:	00488893          	addi	x17,x17,4

# Testcase cp_rs1 (Test source rs1 = x29)
  RVTEST_TESTDATA_LOAD_INT(x30, x29) # load rs1: x29 = 0x95a8d31d
     478:	000f2e83          	lw	x29,0(x30)
     47c:	004f0f13          	addi	x30,x30,4

00000480 <I_ori_cg_cp_rs1_b29>:
I_ori_cg_cp_rs1_b29:
  ori x1, x29, -896 # perform operation
     480:	c80ee093          	ori	x1,x29,-896
  # Check if x1 contains the expected result. x17 is the signature ptr, x5 is the link ptr, x4 is a temp reg.
  RVTEST_SIGUPD(x17, x5, x4, x1, I_ori_cg_cp_rs1_b29, I_ori_cg_cp_rs1_b29_str)
     484:	0008a203          	lw	x4,0(x17)
     488:	00120863          	beq	x4,x1,498 <I_ori_cg_cp_rs1_b29+0x18>
     48c:	010032ef          	jal	x5,349c <failedtest_x5_x4>
     490:	00000480          	.word	0x00000480
     494:	00008c10          	.word	0x00008c10
     498:	00488893          	addi	x17,x17,4

  mv x12, x30 # switch data pointer register to avoid conflict with test
     49c:	000f0613          	addi	x12,x30,0
# Testcase cp_rs1 (Test source rs1 = x30)
  RVTEST_TESTDATA_LOAD_INT(x12, x30) # load rs1: x30 = 0x4e4430e6
     4a0:	00062f03          	lw	x30,0(x12)
     4a4:	00460613          	addi	x12,x12,4

000004a8 <I_ori_cg_cp_rs1_b30>:
I_ori_cg_cp_rs1_b30:
  ori x10, x30, 1074 # perform operation
     4a8:	432f6513          	ori	x10,x30,1074
  # Check if x10 contains the expected result. x17 is the signature ptr, x5 is the link ptr, x4 is a temp reg.
  RVTEST_SIGUPD(x17, x5, x4, x10, I_ori_cg_cp_rs1_b30, I_ori_cg_cp_rs1_b30_str)
     4ac:	0008a203          	lw	x4,0(x17)
     4b0:	00a20863          	beq	x4,x10,4c0 <I_ori_cg_cp_rs1_b30+0x18>
     4b4:	7e9022ef          	jal	x5,349c <failedtest_x5_x4>
     4b8:	000004a8          	.word	0x000004a8
     4bc:	00008c3f          	.word	0x00008c3f
     4c0:	00488893          	addi	x17,x17,4

# Testcase cp_rs1 (Test source rs1 = x31)
  RVTEST_TESTDATA_LOAD_INT(x12, x31) # load rs1: x31 = 0x7eec99dd
     4c4:	00062f83          	lw	x31,0(x12)
     4c8:	00460613          	addi	x12,x12,4

000004cc <I_ori_cg_cp_rs1_b31>:
I_ori_cg_cp_rs1_b31:
  ori x7, x31, 1239 # perform operation
     4cc:	4d7fe393          	ori	x7,x31,1239
  # Check if x7 contains the expected result. x17 is the signature ptr, x5 is the link ptr, x4 is a temp reg.
  RVTEST_SIGUPD(x17, x5, x4, x7, I_ori_cg_cp_rs1_b31, I_ori_cg_cp_rs1_b31_str)
     4d0:	0008a203          	lw	x4,0(x17)
     4d4:	00720863          	beq	x4,x7,4e4 <I_ori_cg_cp_rs1_b31+0x18>
     4d8:	7c5022ef          	jal	x5,349c <failedtest_x5_x4>
     4dc:	000004cc          	.word	0x000004cc
     4e0:	00008c6e          	.word	0x00008c6e
     4e4:	00488893          	addi	x17,x17,4
/////////////////////////////////
// cp_rd
/////////////////////////////////

# Testcase cp_rd (Test destination rd = x0)
  RVTEST_TESTDATA_LOAD_INT(x12, x9) # load rs1: x9 = 0xae530a10
     4e8:	00062483          	lw	x9,0(x12)
     4ec:	00460613          	addi	x12,x12,4

000004f0 <I_ori_cg_cp_rd_b0>:
I_ori_cg_cp_rd_b0:
  ori x0, x9, 1500 # perform operation
     4f0:	5dc4e013          	ori	x0,x9,1500
  # Check if x0 contains the expected result. x17 is the signature ptr, x5 is the link ptr, x4 is a temp reg.
  RVTEST_SIGUPD(x17, x5, x4, x0, I_ori_cg_cp_rd_b0, I_ori_cg_cp_rd_b0_str)
     4f4:	0008a203          	lw	x4,0(x17)
     4f8:	00020863          	beq	x4,x0,508 <I_ori_cg_cp_rd_b0+0x18>
     4fc:	7a1022ef          	jal	x5,349c <failedtest_x5_x4>
     500:	000004f0          	.word	0x000004f0
     504:	00008c9d          	.word	0x00008c9d
     508:	00488893          	addi	x17,x17,4

# Testcase cp_rd (Test destination rd = x1)
  RVTEST_TESTDATA_LOAD_INT(x12, x20) # load rs1: x20 = 0x44423b75
     50c:	00062a03          	lw	x20,0(x12)
     510:	00460613          	addi	x12,x12,4

00000514 <I_ori_cg_cp_rd_b1>:
I_ori_cg_cp_rd_b1:
  ori x1, x20, 1104 # perform operation
     514:	450a6093          	ori	x1,x20,1104
  # Check if x1 contains the expected result. x17 is the signature ptr, x5 is the link ptr, x4 is a temp reg.
  RVTEST_SIGUPD(x17, x5, x4, x1, I_ori_cg_cp_rd_b1, I_ori_cg_cp_rd_b1_str)
     518:	0008a203          	lw	x4,0(x17)
     51c:	00120863          	beq	x4,x1,52c <I_ori_cg_cp_rd_b1+0x18>
     520:	77d022ef          	jal	x5,349c <failedtest_x5_x4>
     524:	00000514          	.word	0x00000514
     528:	00008cca          	.word	0x00008cca
     52c:	00488893          	addi	x17,x17,4

# Testcase cp_rd (Test destination rd = x2)
  RVTEST_TESTDATA_LOAD_INT(x12, x30) # load rs1: x30 = 0xa9b76327
     530:	00062f03          	lw	x30,0(x12)
     534:	00460613          	addi	x12,x12,4

00000538 <I_ori_cg_cp_rd_b2>:
I_ori_cg_cp_rd_b2:
  ori x2, x30, 1607 # perform operation
     538:	647f6113          	ori	x2,x30,1607
  # Check if x2 contains the expected result. x17 is the signature ptr, x5 is the link ptr, x4 is a temp reg.
  RVTEST_SIGUPD(x17, x5, x4, x2, I_ori_cg_cp_rd_b2, I_ori_cg_cp_rd_b2_str)
     53c:	0008a203          	lw	x4,0(x17)
     540:	00220863          	beq	x4,x2,550 <I_ori_cg_cp_rd_b2+0x18>
     544:	759022ef          	jal	x5,349c <failedtest_x5_x4>
     548:	00000538          	.word	0x00000538
     54c:	00008cf7          	.word	0x00008cf7
     550:	00488893          	addi	x17,x17,4

# Testcase cp_rd (Test destination rd = x3)
  RVTEST_TESTDATA_LOAD_INT(x12, x23) # load rs1: x23 = 0x39cf57a9
     554:	00062b83          	lw	x23,0(x12)
     558:	00460613          	addi	x12,x12,4

0000055c <I_ori_cg_cp_rd_b3>:
I_ori_cg_cp_rd_b3:
  ori x3, x23, 1966 # perform operation
     55c:	7aebe193          	ori	x3,x23,1966
  # Check if x3 contains the expected result. x17 is the signature ptr, x5 is the link ptr, x4 is a temp reg.
  RVTEST_SIGUPD(x17, x5, x4, x3, I_ori_cg_cp_rd_b3, I_ori_cg_cp_rd_b3_str)
     560:	0008a203          	lw	x4,0(x17)
     564:	00320863          	beq	x4,x3,574 <I_ori_cg_cp_rd_b3+0x18>
     568:	735022ef          	jal	x5,349c <failedtest_x5_x4>
     56c:	0000055c          	.word	0x0000055c
     570:	00008d24          	.word	0x00008d24
     574:	00488893          	addi	x17,x17,4

  mv x13, x4 # switch temp register to avoid conflict with test
     578:	00020693          	addi	x13,x4,0 # 0 <rvtest_entry_point>
  mv x14, x5 # switch link pointer register to avoid conflict with test
     57c:	00028713          	addi	x14,x5,0
# Testcase cp_rd (Test destination rd = x4)
  RVTEST_TESTDATA_LOAD_INT(x12, x31) # load rs1: x31 = 0x9e2dce6a
     580:	00062f83          	lw	x31,0(x12)
     584:	00460613          	addi	x12,x12,4

00000588 <I_ori_cg_cp_rd_b4>:
I_ori_cg_cp_rd_b4:
  ori x4, x31, 863 # perform operation
     588:	35ffe213          	ori	x4,x31,863
  # Check if x4 contains the expected result. x17 is the signature ptr, x14 is the link ptr, x13 is a temp reg.
  RVTEST_SIGUPD(x17, x14, x13, x4, I_ori_cg_cp_rd_b4, I_ori_cg_cp_rd_b4_str)
     58c:	0008a683          	lw	x13,0(x17)
     590:	00468863          	beq	x13,x4,5a0 <I_ori_cg_cp_rd_b4+0x18>
     594:	7490276f          	jal	x14,34dc <failedtest_x14_x13>
     598:	00000588          	.word	0x00000588
     59c:	00008d51          	.word	0x00008d51
     5a0:	00488893          	addi	x17,x17,4

# Testcase cp_rd (Test destination rd = x5)
  RVTEST_TESTDATA_LOAD_INT(x12, x16) # load rs1: x16 = 0xc640d057
     5a4:	00062803          	lw	x16,0(x12)
     5a8:	00460613          	addi	x12,x12,4

000005ac <I_ori_cg_cp_rd_b5>:
I_ori_cg_cp_rd_b5:
  ori x5, x16, 412 # perform operation
     5ac:	19c86293          	ori	x5,x16,412
  # Check if x5 contains the expected result. x17 is the signature ptr, x14 is the link ptr, x13 is a temp reg.
  RVTEST_SIGUPD(x17, x14, x13, x5, I_ori_cg_cp_rd_b5, I_ori_cg_cp_rd_b5_str)
     5b0:	0008a683          	lw	x13,0(x17)
     5b4:	00568863          	beq	x13,x5,5c4 <I_ori_cg_cp_rd_b5+0x18>
     5b8:	7250276f          	jal	x14,34dc <failedtest_x14_x13>
     5bc:	000005ac          	.word	0x000005ac
     5c0:	00008d7e          	.word	0x00008d7e
     5c4:	00488893          	addi	x17,x17,4

# Testcase cp_rd (Test destination rd = x6)
  RVTEST_TESTDATA_LOAD_INT(x12, x5) # load rs1: x5 = 0xf1b84808
     5c8:	00062283          	lw	x5,0(x12)
     5cc:	00460613          	addi	x12,x12,4

000005d0 <I_ori_cg_cp_rd_b6>:
I_ori_cg_cp_rd_b6:
  ori x6, x5, 231 # perform operation
     5d0:	0e72e313          	ori	x6,x5,231
  # Check if x6 contains the expected result. x17 is the signature ptr, x14 is the link ptr, x13 is a temp reg.
  RVTEST_SIGUPD(x17, x14, x13, x6, I_ori_cg_cp_rd_b6, I_ori_cg_cp_rd_b6_str)
     5d4:	0008a683          	lw	x13,0(x17)
     5d8:	00668863          	beq	x13,x6,5e8 <I_ori_cg_cp_rd_b6+0x18>
     5dc:	7010276f          	jal	x14,34dc <failedtest_x14_x13>
     5e0:	000005d0          	.word	0x000005d0
     5e4:	00008dab          	.word	0x00008dab
     5e8:	00488893          	addi	x17,x17,4

# Testcase cp_rd (Test destination rd = x7)
  RVTEST_TESTDATA_LOAD_INT(x12, x25) # load rs1: x25 = 0xb2b65d09
     5ec:	00062c83          	lw	x25,0(x12)
     5f0:	00460613          	addi	x12,x12,4

000005f4 <I_ori_cg_cp_rd_b7>:
I_ori_cg_cp_rd_b7:
  ori x7, x25, -35 # perform operation
     5f4:	fddce393          	ori	x7,x25,-35
  # Check if x7 contains the expected result. x17 is the signature ptr, x14 is the link ptr, x13 is a temp reg.
  RVTEST_SIGUPD(x17, x14, x13, x7, I_ori_cg_cp_rd_b7, I_ori_cg_cp_rd_b7_str)
     5f8:	0008a683          	lw	x13,0(x17)
     5fc:	00768863          	beq	x13,x7,60c <I_ori_cg_cp_rd_b7+0x18>
     600:	6dd0276f          	jal	x14,34dc <failedtest_x14_x13>
     604:	000005f4          	.word	0x000005f4
     608:	00008dd8          	.word	0x00008dd8
     60c:	00488893          	addi	x17,x17,4

# Testcase cp_rd (Test destination rd = x8)
  RVTEST_TESTDATA_LOAD_INT(x12, x27) # load rs1: x27 = 0xb33d323a
     610:	00062d83          	lw	x27,0(x12)
     614:	00460613          	addi	x12,x12,4

00000618 <I_ori_cg_cp_rd_b8>:
I_ori_cg_cp_rd_b8:
  ori x8, x27, -1777 # perform operation
     618:	90fde413          	ori	x8,x27,-1777
  # Check if x8 contains the expected result. x17 is the signature ptr, x14 is the link ptr, x13 is a temp reg.
  RVTEST_SIGUPD(x17, x14, x13, x8, I_ori_cg_cp_rd_b8, I_ori_cg_cp_rd_b8_str)
     61c:	0008a683          	lw	x13,0(x17)
     620:	00868863          	beq	x13,x8,630 <I_ori_cg_cp_rd_b8+0x18>
     624:	6b90276f          	jal	x14,34dc <failedtest_x14_x13>
     628:	00000618          	.word	0x00000618
     62c:	00008e05          	.word	0x00008e05
     630:	00488893          	addi	x17,x17,4

# Testcase cp_rd (Test destination rd = x9)
  RVTEST_TESTDATA_LOAD_INT(x12, x30) # load rs1: x30 = 0xfb4e6c8b
     634:	00062f03          	lw	x30,0(x12)
     638:	00460613          	addi	x12,x12,4

0000063c <I_ori_cg_cp_rd_b9>:
I_ori_cg_cp_rd_b9:
  ori x9, x30, 1658 # perform operation
     63c:	67af6493          	ori	x9,x30,1658
  # Check if x9 contains the expected result. x17 is the signature ptr, x14 is the link ptr, x13 is a temp reg.
  RVTEST_SIGUPD(x17, x14, x13, x9, I_ori_cg_cp_rd_b9, I_ori_cg_cp_rd_b9_str)
     640:	0008a683          	lw	x13,0(x17)
     644:	00968863          	beq	x13,x9,654 <I_ori_cg_cp_rd_b9+0x18>
     648:	6950276f          	jal	x14,34dc <failedtest_x14_x13>
     64c:	0000063c          	.word	0x0000063c
     650:	00008e32          	.word	0x00008e32
     654:	00488893          	addi	x17,x17,4

# Testcase cp_rd (Test destination rd = x10)
  RVTEST_TESTDATA_LOAD_INT(x12, x28) # load rs1: x28 = 0x5be4af29
     658:	00062e03          	lw	x28,0(x12)
     65c:	00460613          	addi	x12,x12,4

00000660 <I_ori_cg_cp_rd_b10>:
I_ori_cg_cp_rd_b10:
  ori x10, x28, -12 # perform operation
     660:	ff4e6513          	ori	x10,x28,-12
  # Check if x10 contains the expected result. x17 is the signature ptr, x14 is the link ptr, x13 is a temp reg.
  RVTEST_SIGUPD(x17, x14, x13, x10, I_ori_cg_cp_rd_b10, I_ori_cg_cp_rd_b10_str)
     664:	0008a683          	lw	x13,0(x17)
     668:	00a68863          	beq	x13,x10,678 <I_ori_cg_cp_rd_b10+0x18>
     66c:	6710276f          	jal	x14,34dc <failedtest_x14_x13>
     670:	00000660          	.word	0x00000660
     674:	00008e5f          	.word	0x00008e5f
     678:	00488893          	addi	x17,x17,4

# Testcase cp_rd (Test destination rd = x11)
  RVTEST_TESTDATA_LOAD_INT(x12, x22) # load rs1: x22 = 0x86d0f4ef
     67c:	00062b03          	lw	x22,0(x12)
     680:	00460613          	addi	x12,x12,4

00000684 <I_ori_cg_cp_rd_b11>:
I_ori_cg_cp_rd_b11:
  ori x11, x22, 1713 # perform operation
     684:	6b1b6593          	ori	x11,x22,1713
  # Check if x11 contains the expected result. x17 is the signature ptr, x14 is the link ptr, x13 is a temp reg.
  RVTEST_SIGUPD(x17, x14, x13, x11, I_ori_cg_cp_rd_b11, I_ori_cg_cp_rd_b11_str)
     688:	0008a683          	lw	x13,0(x17)
     68c:	00b68863          	beq	x13,x11,69c <I_ori_cg_cp_rd_b11+0x18>
     690:	64d0276f          	jal	x14,34dc <failedtest_x14_x13>
     694:	00000684          	.word	0x00000684
     698:	00008e8d          	.word	0x00008e8d
     69c:	00488893          	addi	x17,x17,4

  mv x1, x12 # switch data pointer register to avoid conflict with test
     6a0:	00060093          	addi	x1,x12,0
# Testcase cp_rd (Test destination rd = x12)
  RVTEST_TESTDATA_LOAD_INT(x1, x22) # load rs1: x22 = 0x6ae0cee2
     6a4:	0000ab03          	lw	x22,0(x1)
     6a8:	00408093          	addi	x1,x1,4

000006ac <I_ori_cg_cp_rd_b12>:
I_ori_cg_cp_rd_b12:
  ori x12, x22, 1942 # perform operation
     6ac:	796b6613          	ori	x12,x22,1942
  # Check if x12 contains the expected result. x17 is the signature ptr, x14 is the link ptr, x13 is a temp reg.
  RVTEST_SIGUPD(x17, x14, x13, x12, I_ori_cg_cp_rd_b12, I_ori_cg_cp_rd_b12_str)
     6b0:	0008a683          	lw	x13,0(x17)
     6b4:	00c68863          	beq	x13,x12,6c4 <I_ori_cg_cp_rd_b12+0x18>
     6b8:	6250276f          	jal	x14,34dc <failedtest_x14_x13>
     6bc:	000006ac          	.word	0x000006ac
     6c0:	00008ebb          	.word	0x00008ebb
     6c4:	00488893          	addi	x17,x17,4

  mv x7, x13 # switch temp register to avoid conflict with test
     6c8:	00068393          	addi	x7,x13,0
  mv x8, x14 # switch link pointer register to avoid conflict with test
     6cc:	00070413          	addi	x8,x14,0
# Testcase cp_rd (Test destination rd = x13)
  RVTEST_TESTDATA_LOAD_INT(x1, x22) # load rs1: x22 = 0xec552a30
     6d0:	0000ab03          	lw	x22,0(x1)
     6d4:	00408093          	addi	x1,x1,4

000006d8 <I_ori_cg_cp_rd_b13>:
I_ori_cg_cp_rd_b13:
  ori x13, x22, -488 # perform operation
     6d8:	e18b6693          	ori	x13,x22,-488
  # Check if x13 contains the expected result. x17 is the signature ptr, x8 is the link ptr, x7 is a temp reg.
  RVTEST_SIGUPD(x17, x8, x7, x13, I_ori_cg_cp_rd_b13, I_ori_cg_cp_rd_b13_str)
     6dc:	0008a383          	lw	x7,0(x17)
     6e0:	00d38863          	beq	x7,x13,6f0 <I_ori_cg_cp_rd_b13+0x18>
     6e4:	5d10246f          	jal	x8,34b4 <failedtest_x8_x7>
     6e8:	000006d8          	.word	0x000006d8
     6ec:	00008ee9          	.word	0x00008ee9
     6f0:	00488893          	addi	x17,x17,4

# Testcase cp_rd (Test destination rd = x14)
  RVTEST_TESTDATA_LOAD_INT(x1, x4) # load rs1: x4 = 0x0aaf15cb
     6f4:	0000a203          	lw	x4,0(x1)
     6f8:	00408093          	addi	x1,x1,4

000006fc <I_ori_cg_cp_rd_b14>:
I_ori_cg_cp_rd_b14:
  ori x14, x4, 592 # perform operation
     6fc:	25026713          	ori	x14,x4,592
  # Check if x14 contains the expected result. x17 is the signature ptr, x8 is the link ptr, x7 is a temp reg.
  RVTEST_SIGUPD(x17, x8, x7, x14, I_ori_cg_cp_rd_b14, I_ori_cg_cp_rd_b14_str)
     700:	0008a383          	lw	x7,0(x17)
     704:	00e38863          	beq	x7,x14,714 <I_ori_cg_cp_rd_b14+0x18>
     708:	5ad0246f          	jal	x8,34b4 <failedtest_x8_x7>
     70c:	000006fc          	.word	0x000006fc
     710:	00008f17          	.word	0x00008f17
     714:	00488893          	addi	x17,x17,4

# Testcase cp_rd (Test destination rd = x15)
  RVTEST_TESTDATA_LOAD_INT(x1, x28) # load rs1: x28 = 0xa597bcdd
     718:	0000ae03          	lw	x28,0(x1)
     71c:	00408093          	addi	x1,x1,4

00000720 <I_ori_cg_cp_rd_b15>:
I_ori_cg_cp_rd_b15:
  ori x15, x28, -1775 # perform operation
     720:	911e6793          	ori	x15,x28,-1775
  # Check if x15 contains the expected result. x17 is the signature ptr, x8 is the link ptr, x7 is a temp reg.
  RVTEST_SIGUPD(x17, x8, x7, x15, I_ori_cg_cp_rd_b15, I_ori_cg_cp_rd_b15_str)
     724:	0008a383          	lw	x7,0(x17)
     728:	00f38863          	beq	x7,x15,738 <I_ori_cg_cp_rd_b15+0x18>
     72c:	5890246f          	jal	x8,34b4 <failedtest_x8_x7>
     730:	00000720          	.word	0x00000720
     734:	00008f45          	.word	0x00008f45
     738:	00488893          	addi	x17,x17,4

# Testcase cp_rd (Test destination rd = x16)
  RVTEST_TESTDATA_LOAD_INT(x1, x4) # load rs1: x4 = 0x8ab4c76e
     73c:	0000a203          	lw	x4,0(x1)
     740:	00408093          	addi	x1,x1,4

00000744 <I_ori_cg_cp_rd_b16>:
I_ori_cg_cp_rd_b16:
  ori x16, x4, 1428 # perform operation
     744:	59426813          	ori	x16,x4,1428
  # Check if x16 contains the expected result. x17 is the signature ptr, x8 is the link ptr, x7 is a temp reg.
  RVTEST_SIGUPD(x17, x8, x7, x16, I_ori_cg_cp_rd_b16, I_ori_cg_cp_rd_b16_str)
     748:	0008a383          	lw	x7,0(x17)
     74c:	01038863          	beq	x7,x16,75c <I_ori_cg_cp_rd_b16+0x18>
     750:	5650246f          	jal	x8,34b4 <failedtest_x8_x7>
     754:	00000744          	.word	0x00000744
     758:	00008f73          	.word	0x00008f73
     75c:	00488893          	addi	x17,x17,4

  mv x21, x17 # switch signature pointer register to avoid conflict with test
     760:	00088a93          	addi	x21,x17,0
# Testcase cp_rd (Test destination rd = x17)
  RVTEST_TESTDATA_LOAD_INT(x1, x27) # load rs1: x27 = 0xa34fcf45
     764:	0000ad83          	lw	x27,0(x1)
     768:	00408093          	addi	x1,x1,4

0000076c <I_ori_cg_cp_rd_b17>:
I_ori_cg_cp_rd_b17:
  ori x17, x27, -702 # perform operation
     76c:	d42de893          	ori	x17,x27,-702
  # Check if x17 contains the expected result. x21 is the signature ptr, x8 is the link ptr, x7 is a temp reg.
  RVTEST_SIGUPD(x21, x8, x7, x17, I_ori_cg_cp_rd_b17, I_ori_cg_cp_rd_b17_str)
     770:	000aa383          	lw	x7,0(x21)
     774:	01138863          	beq	x7,x17,784 <I_ori_cg_cp_rd_b17+0x18>
     778:	53d0246f          	jal	x8,34b4 <failedtest_x8_x7>
     77c:	0000076c          	.word	0x0000076c
     780:	00008fa1          	.word	0x00008fa1
     784:	004a8a93          	addi	x21,x21,4

# Testcase cp_rd (Test destination rd = x18)
  RVTEST_TESTDATA_LOAD_INT(x1, x28) # load rs1: x28 = 0x043a4e2b
     788:	0000ae03          	lw	x28,0(x1)
     78c:	00408093          	addi	x1,x1,4

00000790 <I_ori_cg_cp_rd_b18>:
I_ori_cg_cp_rd_b18:
  ori x18, x28, 862 # perform operation
     790:	35ee6913          	ori	x18,x28,862
  # Check if x18 contains the expected result. x21 is the signature ptr, x8 is the link ptr, x7 is a temp reg.
  RVTEST_SIGUPD(x21, x8, x7, x18, I_ori_cg_cp_rd_b18, I_ori_cg_cp_rd_b18_str)
     794:	000aa383          	lw	x7,0(x21)
     798:	01238863          	beq	x7,x18,7a8 <I_ori_cg_cp_rd_b18+0x18>
     79c:	5190246f          	jal	x8,34b4 <failedtest_x8_x7>
     7a0:	00000790          	.word	0x00000790
     7a4:	00008fcf          	.word	0x00008fcf
     7a8:	004a8a93          	addi	x21,x21,4

# Testcase cp_rd (Test destination rd = x19)
  RVTEST_TESTDATA_LOAD_INT(x1, x6) # load rs1: x6 = 0x4b529664
     7ac:	0000a303          	lw	x6,0(x1)
     7b0:	00408093          	addi	x1,x1,4

000007b4 <I_ori_cg_cp_rd_b19>:
I_ori_cg_cp_rd_b19:
  ori x19, x6, 654 # perform operation
     7b4:	28e36993          	ori	x19,x6,654
  # Check if x19 contains the expected result. x21 is the signature ptr, x8 is the link ptr, x7 is a temp reg.
  RVTEST_SIGUPD(x21, x8, x7, x19, I_ori_cg_cp_rd_b19, I_ori_cg_cp_rd_b19_str)
     7b8:	000aa383          	lw	x7,0(x21)
     7bc:	01338863          	beq	x7,x19,7cc <I_ori_cg_cp_rd_b19+0x18>
     7c0:	4f50246f          	jal	x8,34b4 <failedtest_x8_x7>
     7c4:	000007b4          	.word	0x000007b4
     7c8:	00008ffd          	.word	0x00008ffd
     7cc:	004a8a93          	addi	x21,x21,4

# Testcase cp_rd (Test destination rd = x20)
  RVTEST_TESTDATA_LOAD_INT(x1, x9) # load rs1: x9 = 0x7f8f3731
     7d0:	0000a483          	lw	x9,0(x1)
     7d4:	00408093          	addi	x1,x1,4

000007d8 <I_ori_cg_cp_rd_b20>:
I_ori_cg_cp_rd_b20:
  ori x20, x9, -1270 # perform operation
     7d8:	b0a4ea13          	ori	x20,x9,-1270
  # Check if x20 contains the expected result. x21 is the signature ptr, x8 is the link ptr, x7 is a temp reg.
  RVTEST_SIGUPD(x21, x8, x7, x20, I_ori_cg_cp_rd_b20, I_ori_cg_cp_rd_b20_str)
     7dc:	000aa383          	lw	x7,0(x21)
     7e0:	01438863          	beq	x7,x20,7f0 <I_ori_cg_cp_rd_b20+0x18>
     7e4:	4d10246f          	jal	x8,34b4 <failedtest_x8_x7>
     7e8:	000007d8          	.word	0x000007d8
     7ec:	0000902b          	.word	0x0000902b
     7f0:	004a8a93          	addi	x21,x21,4

  mv x12, x21 # switch signature pointer register to avoid conflict with test
     7f4:	000a8613          	addi	x12,x21,0
# Testcase cp_rd (Test destination rd = x21)
  RVTEST_TESTDATA_LOAD_INT(x1, x26) # load rs1: x26 = 0xf55bfd7c
     7f8:	0000ad03          	lw	x26,0(x1)
     7fc:	00408093          	addi	x1,x1,4

00000800 <I_ori_cg_cp_rd_b21>:
I_ori_cg_cp_rd_b21:
  ori x21, x26, 84 # perform operation
     800:	054d6a93          	ori	x21,x26,84
  # Check if x21 contains the expected result. x12 is the signature ptr, x8 is the link ptr, x7 is a temp reg.
  RVTEST_SIGUPD(x12, x8, x7, x21, I_ori_cg_cp_rd_b21, I_ori_cg_cp_rd_b21_str)
     804:	00062383          	lw	x7,0(x12)
     808:	01538863          	beq	x7,x21,818 <I_ori_cg_cp_rd_b21+0x18>
     80c:	4a90246f          	jal	x8,34b4 <failedtest_x8_x7>
     810:	00000800          	.word	0x00000800
     814:	00009059          	.word	0x00009059
     818:	00460613          	addi	x12,x12,4

# Testcase cp_rd (Test destination rd = x22)
  RVTEST_TESTDATA_LOAD_INT(x1, x11) # load rs1: x11 = 0x5769d560
     81c:	0000a583          	lw	x11,0(x1)
     820:	00408093          	addi	x1,x1,4

00000824 <I_ori_cg_cp_rd_b22>:
I_ori_cg_cp_rd_b22:
  ori x22, x11, -1451 # perform operation
     824:	a555eb13          	ori	x22,x11,-1451
  # Check if x22 contains the expected result. x12 is the signature ptr, x8 is the link ptr, x7 is a temp reg.
  RVTEST_SIGUPD(x12, x8, x7, x22, I_ori_cg_cp_rd_b22, I_ori_cg_cp_rd_b22_str)
     828:	00062383          	lw	x7,0(x12)
     82c:	01638863          	beq	x7,x22,83c <I_ori_cg_cp_rd_b22+0x18>
     830:	4850246f          	jal	x8,34b4 <failedtest_x8_x7>
     834:	00000824          	.word	0x00000824
     838:	00009087          	.word	0x00009087
     83c:	00460613          	addi	x12,x12,4

# Testcase cp_rd (Test destination rd = x23)
  RVTEST_TESTDATA_LOAD_INT(x1, x5) # load rs1: x5 = 0x56d9dac1
     840:	0000a283          	lw	x5,0(x1)
     844:	00408093          	addi	x1,x1,4

00000848 <I_ori_cg_cp_rd_b23>:
I_ori_cg_cp_rd_b23:
  ori x23, x5, 1347 # perform operation
     848:	5432eb93          	ori	x23,x5,1347
  # Check if x23 contains the expected result. x12 is the signature ptr, x8 is the link ptr, x7 is a temp reg.
  RVTEST_SIGUPD(x12, x8, x7, x23, I_ori_cg_cp_rd_b23, I_ori_cg_cp_rd_b23_str)
     84c:	00062383          	lw	x7,0(x12)
     850:	01738863          	beq	x7,x23,860 <I_ori_cg_cp_rd_b23+0x18>
     854:	4610246f          	jal	x8,34b4 <failedtest_x8_x7>
     858:	00000848          	.word	0x00000848
     85c:	000090b5          	.word	0x000090b5
     860:	00460613          	addi	x12,x12,4

# Testcase cp_rd (Test destination rd = x24)
  RVTEST_TESTDATA_LOAD_INT(x1, x20) # load rs1: x20 = 0x7a78af0d
     864:	0000aa03          	lw	x20,0(x1)
     868:	00408093          	addi	x1,x1,4

0000086c <I_ori_cg_cp_rd_b24>:
I_ori_cg_cp_rd_b24:
  ori x24, x20, -1049 # perform operation
     86c:	be7a6c13          	ori	x24,x20,-1049
  # Check if x24 contains the expected result. x12 is the signature ptr, x8 is the link ptr, x7 is a temp reg.
  RVTEST_SIGUPD(x12, x8, x7, x24, I_ori_cg_cp_rd_b24, I_ori_cg_cp_rd_b24_str)
     870:	00062383          	lw	x7,0(x12)
     874:	01838863          	beq	x7,x24,884 <I_ori_cg_cp_rd_b24+0x18>
     878:	43d0246f          	jal	x8,34b4 <failedtest_x8_x7>
     87c:	0000086c          	.word	0x0000086c
     880:	000090e3          	.word	0x000090e3
     884:	00460613          	addi	x12,x12,4

# Testcase cp_rd (Test destination rd = x25)
  RVTEST_TESTDATA_LOAD_INT(x1, x16) # load rs1: x16 = 0xffc211f1
     888:	0000a803          	lw	x16,0(x1)
     88c:	00408093          	addi	x1,x1,4

00000890 <I_ori_cg_cp_rd_b25>:
I_ori_cg_cp_rd_b25:
  ori x25, x16, -837 # perform operation
     890:	cbb86c93          	ori	x25,x16,-837
  # Check if x25 contains the expected result. x12 is the signature ptr, x8 is the link ptr, x7 is a temp reg.
  RVTEST_SIGUPD(x12, x8, x7, x25, I_ori_cg_cp_rd_b25, I_ori_cg_cp_rd_b25_str)
     894:	00062383          	lw	x7,0(x12)
     898:	01938863          	beq	x7,x25,8a8 <I_ori_cg_cp_rd_b25+0x18>
     89c:	4190246f          	jal	x8,34b4 <failedtest_x8_x7>
     8a0:	00000890          	.word	0x00000890
     8a4:	00009111          	.word	0x00009111
     8a8:	00460613          	addi	x12,x12,4

# Testcase cp_rd (Test destination rd = x26)
  RVTEST_TESTDATA_LOAD_INT(x1, x5) # load rs1: x5 = 0xd1a8adb5
     8ac:	0000a283          	lw	x5,0(x1)
     8b0:	00408093          	addi	x1,x1,4

000008b4 <I_ori_cg_cp_rd_b26>:
I_ori_cg_cp_rd_b26:
  ori x26, x5, -170 # perform operation
     8b4:	f562ed13          	ori	x26,x5,-170
  # Check if x26 contains the expected result. x12 is the signature ptr, x8 is the link ptr, x7 is a temp reg.
  RVTEST_SIGUPD(x12, x8, x7, x26, I_ori_cg_cp_rd_b26, I_ori_cg_cp_rd_b26_str)
     8b8:	00062383          	lw	x7,0(x12)
     8bc:	01a38863          	beq	x7,x26,8cc <I_ori_cg_cp_rd_b26+0x18>
     8c0:	3f50246f          	jal	x8,34b4 <failedtest_x8_x7>
     8c4:	000008b4          	.word	0x000008b4
     8c8:	0000913f          	.word	0x0000913f
     8cc:	00460613          	addi	x12,x12,4

# Testcase cp_rd (Test destination rd = x27)
  RVTEST_TESTDATA_LOAD_INT(x1, x21) # load rs1: x21 = 0x95c2c133
     8d0:	0000aa83          	lw	x21,0(x1)
     8d4:	00408093          	addi	x1,x1,4

000008d8 <I_ori_cg_cp_rd_b27>:
I_ori_cg_cp_rd_b27:
  ori x27, x21, -1338 # perform operation
     8d8:	ac6aed93          	ori	x27,x21,-1338
  # Check if x27 contains the expected result. x12 is the signature ptr, x8 is the link ptr, x7 is a temp reg.
  RVTEST_SIGUPD(x12, x8, x7, x27, I_ori_cg_cp_rd_b27, I_ori_cg_cp_rd_b27_str)
     8dc:	00062383          	lw	x7,0(x12)
     8e0:	01b38863          	beq	x7,x27,8f0 <I_ori_cg_cp_rd_b27+0x18>
     8e4:	3d10246f          	jal	x8,34b4 <failedtest_x8_x7>
     8e8:	000008d8          	.word	0x000008d8
     8ec:	0000916d          	.word	0x0000916d
     8f0:	00460613          	addi	x12,x12,4

# Testcase cp_rd (Test destination rd = x28)
  RVTEST_TESTDATA_LOAD_INT(x1, x4) # load rs1: x4 = 0xf60eaaea
     8f4:	0000a203          	lw	x4,0(x1)
     8f8:	00408093          	addi	x1,x1,4

000008fc <I_ori_cg_cp_rd_b28>:
I_ori_cg_cp_rd_b28:
  ori x28, x4, -745 # perform operation
     8fc:	d1726e13          	ori	x28,x4,-745
  # Check if x28 contains the expected result. x12 is the signature ptr, x8 is the link ptr, x7 is a temp reg.
  RVTEST_SIGUPD(x12, x8, x7, x28, I_ori_cg_cp_rd_b28, I_ori_cg_cp_rd_b28_str)
     900:	00062383          	lw	x7,0(x12)
     904:	01c38863          	beq	x7,x28,914 <I_ori_cg_cp_rd_b28+0x18>
     908:	3ad0246f          	jal	x8,34b4 <failedtest_x8_x7>
     90c:	000008fc          	.word	0x000008fc
     910:	0000919b          	.word	0x0000919b
     914:	00460613          	addi	x12,x12,4

# Testcase cp_rd (Test destination rd = x29)
  RVTEST_TESTDATA_LOAD_INT(x1, x4) # load rs1: x4 = 0x912cfa23
     918:	0000a203          	lw	x4,0(x1)
     91c:	00408093          	addi	x1,x1,4

00000920 <I_ori_cg_cp_rd_b29>:
I_ori_cg_cp_rd_b29:
  ori x29, x4, 755 # perform operation
     920:	2f326e93          	ori	x29,x4,755
  # Check if x29 contains the expected result. x12 is the signature ptr, x8 is the link ptr, x7 is a temp reg.
  RVTEST_SIGUPD(x12, x8, x7, x29, I_ori_cg_cp_rd_b29, I_ori_cg_cp_rd_b29_str)
     924:	00062383          	lw	x7,0(x12)
     928:	01d38863          	beq	x7,x29,938 <I_ori_cg_cp_rd_b29+0x18>
     92c:	3890246f          	jal	x8,34b4 <failedtest_x8_x7>
     930:	00000920          	.word	0x00000920
     934:	000091c9          	.word	0x000091c9
     938:	00460613          	addi	x12,x12,4

# Testcase cp_rd (Test destination rd = x30)
  RVTEST_TESTDATA_LOAD_INT(x1, x22) # load rs1: x22 = 0x8b3a8c46
     93c:	0000ab03          	lw	x22,0(x1)
     940:	00408093          	addi	x1,x1,4

00000944 <I_ori_cg_cp_rd_b30>:
I_ori_cg_cp_rd_b30:
  ori x30, x22, -679 # perform operation
     944:	d59b6f13          	ori	x30,x22,-679
  # Check if x30 contains the expected result. x12 is the signature ptr, x8 is the link ptr, x7 is a temp reg.
  RVTEST_SIGUPD(x12, x8, x7, x30, I_ori_cg_cp_rd_b30, I_ori_cg_cp_rd_b30_str)
     948:	00062383          	lw	x7,0(x12)
     94c:	01e38863          	beq	x7,x30,95c <I_ori_cg_cp_rd_b30+0x18>
     950:	3650246f          	jal	x8,34b4 <failedtest_x8_x7>
     954:	00000944          	.word	0x00000944
     958:	000091f7          	.word	0x000091f7
     95c:	00460613          	addi	x12,x12,4

# Testcase cp_rd (Test destination rd = x31)
  RVTEST_TESTDATA_LOAD_INT(x1, x2) # load rs1: x2 = 0x8775fc02
     960:	0000a103          	lw	x2,0(x1)
     964:	00408093          	addi	x1,x1,4

00000968 <I_ori_cg_cp_rd_b31>:
I_ori_cg_cp_rd_b31:
  ori x31, x2, -1705 # perform operation
     968:	95716f93          	ori	x31,x2,-1705
  # Check if x31 contains the expected result. x12 is the signature ptr, x8 is the link ptr, x7 is a temp reg.
  RVTEST_SIGUPD(x12, x8, x7, x31, I_ori_cg_cp_rd_b31, I_ori_cg_cp_rd_b31_str)
     96c:	00062383          	lw	x7,0(x12)
     970:	01f38863          	beq	x7,x31,980 <I_ori_cg_cp_rd_b31+0x18>
     974:	3410246f          	jal	x8,34b4 <failedtest_x8_x7>
     978:	00000968          	.word	0x00000968
     97c:	00009225          	.word	0x00009225
     980:	00460613          	addi	x12,x12,4
/////////////////////////////////
// cp_rs1_edges
/////////////////////////////////

# Testcase cp_rs1_edges (Test source rs1 value = 0x00000000)
  RVTEST_TESTDATA_LOAD_INT(x1, x14) # load rs1: x14 = 0x00000000
     984:	0000a703          	lw	x14,0(x1)
     988:	00408093          	addi	x1,x1,4

0000098c <I_ori_cg_cp_rs1_edges_0x0>:
I_ori_cg_cp_rs1_edges_0x0:
  ori x11, x14, -400 # perform operation
     98c:	e7076593          	ori	x11,x14,-400
  # Check if x11 contains the expected result. x12 is the signature ptr, x8 is the link ptr, x7 is a temp reg.
  RVTEST_SIGUPD(x12, x8, x7, x11, I_ori_cg_cp_rs1_edges_0x0, I_ori_cg_cp_rs1_edges_0x0_str)
     990:	00062383          	lw	x7,0(x12)
     994:	00b38863          	beq	x7,x11,9a4 <I_ori_cg_cp_rs1_edges_0x0+0x18>
     998:	31d0246f          	jal	x8,34b4 <failedtest_x8_x7>
     99c:	0000098c          	.word	0x0000098c
     9a0:	00009253          	.word	0x00009253
     9a4:	00460613          	addi	x12,x12,4

# Testcase cp_rs1_edges (Test source rs1 value = 0x00000001)
  RVTEST_TESTDATA_LOAD_INT(x1, x24) # load rs1: x24 = 0x00000001
     9a8:	0000ac03          	lw	x24,0(x1)
     9ac:	00408093          	addi	x1,x1,4

000009b0 <I_ori_cg_cp_rs1_edges_0x1>:
I_ori_cg_cp_rs1_edges_0x1:
  ori x5, x24, 1974 # perform operation
     9b0:	7b6c6293          	ori	x5,x24,1974
  # Check if x5 contains the expected result. x12 is the signature ptr, x8 is the link ptr, x7 is a temp reg.
  RVTEST_SIGUPD(x12, x8, x7, x5, I_ori_cg_cp_rs1_edges_0x1, I_ori_cg_cp_rs1_edges_0x1_str)
     9b4:	00062383          	lw	x7,0(x12)
     9b8:	00538863          	beq	x7,x5,9c8 <I_ori_cg_cp_rs1_edges_0x1+0x18>
     9bc:	2f90246f          	jal	x8,34b4 <failedtest_x8_x7>
     9c0:	000009b0          	.word	0x000009b0
     9c4:	00009288          	.word	0x00009288
     9c8:	00460613          	addi	x12,x12,4

# Testcase cp_rs1_edges (Test source rs1 value = 0x00000002)
  RVTEST_TESTDATA_LOAD_INT(x1, x29) # load rs1: x29 = 0x00000002
     9cc:	0000ae83          	lw	x29,0(x1)
     9d0:	00408093          	addi	x1,x1,4

000009d4 <I_ori_cg_cp_rs1_edges_0x2>:
I_ori_cg_cp_rs1_edges_0x2:
  ori x24, x29, 1471 # perform operation
     9d4:	5bfeec13          	ori	x24,x29,1471
  # Check if x24 contains the expected result. x12 is the signature ptr, x8 is the link ptr, x7 is a temp reg.
  RVTEST_SIGUPD(x12, x8, x7, x24, I_ori_cg_cp_rs1_edges_0x2, I_ori_cg_cp_rs1_edges_0x2_str)
     9d8:	00062383          	lw	x7,0(x12)
     9dc:	01838863          	beq	x7,x24,9ec <I_ori_cg_cp_rs1_edges_0x2+0x18>
     9e0:	2d50246f          	jal	x8,34b4 <failedtest_x8_x7>
     9e4:	000009d4          	.word	0x000009d4
     9e8:	000092bd          	.word	0x000092bd
     9ec:	00460613          	addi	x12,x12,4

# Testcase cp_rs1_edges (Test source rs1 value = 0x80000000)
  RVTEST_TESTDATA_LOAD_INT(x1, x31) # load rs1: x31 = 0x80000000
     9f0:	0000af83          	lw	x31,0(x1)
     9f4:	00408093          	addi	x1,x1,4

000009f8 <I_ori_cg_cp_rs1_edges_0x80000000>:
I_ori_cg_cp_rs1_edges_0x80000000:
  ori x28, x31, 711 # perform operation
     9f8:	2c7fee13          	ori	x28,x31,711
  # Check if x28 contains the expected result. x12 is the signature ptr, x8 is the link ptr, x7 is a temp reg.
  RVTEST_SIGUPD(x12, x8, x7, x28, I_ori_cg_cp_rs1_edges_0x80000000, I_ori_cg_cp_rs1_edges_0x80000000_str)
     9fc:	00062383          	lw	x7,0(x12)
     a00:	01c38863          	beq	x7,x28,a10 <I_ori_cg_cp_rs1_edges_0x80000000+0x18>
     a04:	2b10246f          	jal	x8,34b4 <failedtest_x8_x7>
     a08:	000009f8          	.word	0x000009f8
     a0c:	000092f2          	.word	0x000092f2
     a10:	00460613          	addi	x12,x12,4

# Testcase cp_rs1_edges (Test source rs1 value = 0x80000001)
  RVTEST_TESTDATA_LOAD_INT(x1, x9) # load rs1: x9 = 0x80000001
     a14:	0000a483          	lw	x9,0(x1)
     a18:	00408093          	addi	x1,x1,4

00000a1c <I_ori_cg_cp_rs1_edges_0x80000001>:
I_ori_cg_cp_rs1_edges_0x80000001:
  ori x21, x9, 1544 # perform operation
     a1c:	6084ea93          	ori	x21,x9,1544
  # Check if x21 contains the expected result. x12 is the signature ptr, x8 is the link ptr, x7 is a temp reg.
  RVTEST_SIGUPD(x12, x8, x7, x21, I_ori_cg_cp_rs1_edges_0x80000001, I_ori_cg_cp_rs1_edges_0x80000001_str)
     a20:	00062383          	lw	x7,0(x12)
     a24:	01538863          	beq	x7,x21,a34 <I_ori_cg_cp_rs1_edges_0x80000001+0x18>
     a28:	28d0246f          	jal	x8,34b4 <failedtest_x8_x7>
     a2c:	00000a1c          	.word	0x00000a1c
     a30:	0000932e          	.word	0x0000932e
     a34:	00460613          	addi	x12,x12,4

# Testcase cp_rs1_edges (Test source rs1 value = 0x7fffffff)
  RVTEST_TESTDATA_LOAD_INT(x1, x17) # load rs1: x17 = 0x7fffffff
     a38:	0000a883          	lw	x17,0(x1)
     a3c:	00408093          	addi	x1,x1,4

00000a40 <I_ori_cg_cp_rs1_edges_0x7fffffff>:
I_ori_cg_cp_rs1_edges_0x7fffffff:
  ori x2, x17, -89 # perform operation
     a40:	fa78e113          	ori	x2,x17,-89
  # Check if x2 contains the expected result. x12 is the signature ptr, x8 is the link ptr, x7 is a temp reg.
  RVTEST_SIGUPD(x12, x8, x7, x2, I_ori_cg_cp_rs1_edges_0x7fffffff, I_ori_cg_cp_rs1_edges_0x7fffffff_str)
     a44:	00062383          	lw	x7,0(x12)
     a48:	00238863          	beq	x7,x2,a58 <I_ori_cg_cp_rs1_edges_0x7fffffff+0x18>
     a4c:	2690246f          	jal	x8,34b4 <failedtest_x8_x7>
     a50:	00000a40          	.word	0x00000a40
     a54:	0000936a          	.word	0x0000936a
     a58:	00460613          	addi	x12,x12,4

# Testcase cp_rs1_edges (Test source rs1 value = 0x7ffffffe)
  RVTEST_TESTDATA_LOAD_INT(x1, x28) # load rs1: x28 = 0x7ffffffe
     a5c:	0000ae03          	lw	x28,0(x1)
     a60:	00408093          	addi	x1,x1,4

00000a64 <I_ori_cg_cp_rs1_edges_0x7ffffffe>:
I_ori_cg_cp_rs1_edges_0x7ffffffe:
  ori x24, x28, -587 # perform operation
     a64:	db5e6c13          	ori	x24,x28,-587
  # Check if x24 contains the expected result. x12 is the signature ptr, x8 is the link ptr, x7 is a temp reg.
  RVTEST_SIGUPD(x12, x8, x7, x24, I_ori_cg_cp_rs1_edges_0x7ffffffe, I_ori_cg_cp_rs1_edges_0x7ffffffe_str)
     a68:	00062383          	lw	x7,0(x12)
     a6c:	01838863          	beq	x7,x24,a7c <I_ori_cg_cp_rs1_edges_0x7ffffffe+0x18>
     a70:	2450246f          	jal	x8,34b4 <failedtest_x8_x7>
     a74:	00000a64          	.word	0x00000a64
     a78:	000093a6          	.word	0x000093a6
     a7c:	00460613          	addi	x12,x12,4

# Testcase cp_rs1_edges (Test source rs1 value = 0xffffffff)
  RVTEST_TESTDATA_LOAD_INT(x1, x26) # load rs1: x26 = 0xffffffff
     a80:	0000ad03          	lw	x26,0(x1)
     a84:	00408093          	addi	x1,x1,4

00000a88 <I_ori_cg_cp_rs1_edges_0xffffffff>:
I_ori_cg_cp_rs1_edges_0xffffffff:
  ori x19, x26, 472 # perform operation
     a88:	1d8d6993          	ori	x19,x26,472
  # Check if x19 contains the expected result. x12 is the signature ptr, x8 is the link ptr, x7 is a temp reg.
  RVTEST_SIGUPD(x12, x8, x7, x19, I_ori_cg_cp_rs1_edges_0xffffffff, I_ori_cg_cp_rs1_edges_0xffffffff_str)
     a8c:	00062383          	lw	x7,0(x12)
     a90:	01338863          	beq	x7,x19,aa0 <I_ori_cg_cp_rs1_edges_0xffffffff+0x18>
     a94:	2210246f          	jal	x8,34b4 <failedtest_x8_x7>
     a98:	00000a88          	.word	0x00000a88
     a9c:	000093e2          	.word	0x000093e2
     aa0:	00460613          	addi	x12,x12,4

# Testcase cp_rs1_edges (Test source rs1 value = 0xfffffffe)
  RVTEST_TESTDATA_LOAD_INT(x1, x26) # load rs1: x26 = 0xfffffffe
     aa4:	0000ad03          	lw	x26,0(x1)
     aa8:	00408093          	addi	x1,x1,4

00000aac <I_ori_cg_cp_rs1_edges_0xfffffffe>:
I_ori_cg_cp_rs1_edges_0xfffffffe:
  ori x23, x26, -1396 # perform operation
     aac:	a8cd6b93          	ori	x23,x26,-1396
  # Check if x23 contains the expected result. x12 is the signature ptr, x8 is the link ptr, x7 is a temp reg.
  RVTEST_SIGUPD(x12, x8, x7, x23, I_ori_cg_cp_rs1_edges_0xfffffffe, I_ori_cg_cp_rs1_edges_0xfffffffe_str)
     ab0:	00062383          	lw	x7,0(x12)
     ab4:	01738863          	beq	x7,x23,ac4 <I_ori_cg_cp_rs1_edges_0xfffffffe+0x18>
     ab8:	1fd0246f          	jal	x8,34b4 <failedtest_x8_x7>
     abc:	00000aac          	.word	0x00000aac
     ac0:	0000941e          	.word	0x0000941e
     ac4:	00460613          	addi	x12,x12,4

# Testcase cp_rs1_edges (Test source rs1 value = 0x5bbc8872)
  RVTEST_TESTDATA_LOAD_INT(x1, x27) # load rs1: x27 = 0x5bbc8872
     ac8:	0000ad83          	lw	x27,0(x1)
     acc:	00408093          	addi	x1,x1,4

00000ad0 <I_ori_cg_cp_rs1_edges_0x5bbc8872>:
I_ori_cg_cp_rs1_edges_0x5bbc8872:
  ori x6, x27, 730 # perform operation
     ad0:	2dade313          	ori	x6,x27,730
  # Check if x6 contains the expected result. x12 is the signature ptr, x8 is the link ptr, x7 is a temp reg.
  RVTEST_SIGUPD(x12, x8, x7, x6, I_ori_cg_cp_rs1_edges_0x5bbc8872, I_ori_cg_cp_rs1_edges_0x5bbc8872_str)
     ad4:	00062383          	lw	x7,0(x12)
     ad8:	00638863          	beq	x7,x6,ae8 <I_ori_cg_cp_rs1_edges_0x5bbc8872+0x18>
     adc:	1d90246f          	jal	x8,34b4 <failedtest_x8_x7>
     ae0:	00000ad0          	.word	0x00000ad0
     ae4:	0000945a          	.word	0x0000945a
     ae8:	00460613          	addi	x12,x12,4

# Testcase cp_rs1_edges (Test source rs1 value = 0xaaaaaaaa)
  RVTEST_TESTDATA_LOAD_INT(x1, x18) # load rs1: x18 = 0xaaaaaaaa
     aec:	0000a903          	lw	x18,0(x1)
     af0:	00408093          	addi	x1,x1,4

00000af4 <I_ori_cg_cp_rs1_edges_0xaaaaaaaa>:
I_ori_cg_cp_rs1_edges_0xaaaaaaaa:
  ori x21, x18, 1543 # perform operation
     af4:	60796a93          	ori	x21,x18,1543
  # Check if x21 contains the expected result. x12 is the signature ptr, x8 is the link ptr, x7 is a temp reg.
  RVTEST_SIGUPD(x12, x8, x7, x21, I_ori_cg_cp_rs1_edges_0xaaaaaaaa, I_ori_cg_cp_rs1_edges_0xaaaaaaaa_str)
     af8:	00062383          	lw	x7,0(x12)
     afc:	01538863          	beq	x7,x21,b0c <I_ori_cg_cp_rs1_edges_0xaaaaaaaa+0x18>
     b00:	1b50246f          	jal	x8,34b4 <failedtest_x8_x7>
     b04:	00000af4          	.word	0x00000af4
     b08:	00009496          	.word	0x00009496
     b0c:	00460613          	addi	x12,x12,4

# Testcase cp_rs1_edges (Test source rs1 value = 0x55555555)
  RVTEST_TESTDATA_LOAD_INT(x1, x25) # load rs1: x25 = 0x55555555
     b10:	0000ac83          	lw	x25,0(x1)
     b14:	00408093          	addi	x1,x1,4

00000b18 <I_ori_cg_cp_rs1_edges_0x55555555>:
I_ori_cg_cp_rs1_edges_0x55555555:
  ori x18, x25, 1085 # perform operation
     b18:	43dce913          	ori	x18,x25,1085
  # Check if x18 contains the expected result. x12 is the signature ptr, x8 is the link ptr, x7 is a temp reg.
  RVTEST_SIGUPD(x12, x8, x7, x18, I_ori_cg_cp_rs1_edges_0x55555555, I_ori_cg_cp_rs1_edges_0x55555555_str)
     b1c:	00062383          	lw	x7,0(x12)
     b20:	01238863          	beq	x7,x18,b30 <I_ori_cg_cp_rs1_edges_0x55555555+0x18>
     b24:	1910246f          	jal	x8,34b4 <failedtest_x8_x7>
     b28:	00000b18          	.word	0x00000b18
     b2c:	000094d2          	.word	0x000094d2
     b30:	00460613          	addi	x12,x12,4
/////////////////////////////////
// cr_rs1_imm_edges
/////////////////////////////////

# Testcase cr_rs1_imm_edges (rs1 = 0x00000000, imm = 0)
  RVTEST_TESTDATA_LOAD_INT(x1, x13) # load rs1: x13 = 0x00000000
     b34:	0000a683          	lw	x13,0(x1)
     b38:	00408093          	addi	x1,x1,4

00000b3c <I_ori_cg_cr_rs1_imm_edges_rs1val_0x0_immval_0x0>:
I_ori_cg_cr_rs1_imm_edges_rs1val_0x0_immval_0x0:
  ori x28, x13, 0 # perform operation
     b3c:	0006ee13          	ori	x28,x13,0
  # Check if x28 contains the expected result. x12 is the signature ptr, x8 is the link ptr, x7 is a temp reg.
  RVTEST_SIGUPD(x12, x8, x7, x28, I_ori_cg_cr_rs1_imm_edges_rs1val_0x0_immval_0x0, I_ori_cg_cr_rs1_imm_edges_rs1val_0x0_immval_0x0_str)
     b40:	00062383          	lw	x7,0(x12)
     b44:	01c38863          	beq	x7,x28,b54 <I_ori_cg_cr_rs1_imm_edges_rs1val_0x0_immval_0x0+0x18>
     b48:	16d0246f          	jal	x8,34b4 <failedtest_x8_x7>
     b4c:	00000b3c          	.word	0x00000b3c
     b50:	0000950e          	.word	0x0000950e
     b54:	00460613          	addi	x12,x12,4

# Testcase cr_rs1_imm_edges (rs1 = 0x00000000, imm = 1)
  RVTEST_TESTDATA_LOAD_INT(x1, x4) # load rs1: x4 = 0x00000000
     b58:	0000a203          	lw	x4,0(x1)
     b5c:	00408093          	addi	x1,x1,4

00000b60 <I_ori_cg_cr_rs1_imm_edges_rs1val_0x0_immval_0x1>:
I_ori_cg_cr_rs1_imm_edges_rs1val_0x0_immval_0x1:
  ori x11, x4, 1 # perform operation
     b60:	00126593          	ori	x11,x4,1
  # Check if x11 contains the expected result. x12 is the signature ptr, x8 is the link ptr, x7 is a temp reg.
  RVTEST_SIGUPD(x12, x8, x7, x11, I_ori_cg_cr_rs1_imm_edges_rs1val_0x0_immval_0x1, I_ori_cg_cr_rs1_imm_edges_rs1val_0x0_immval_0x1_str)
     b64:	00062383          	lw	x7,0(x12)
     b68:	00b38863          	beq	x7,x11,b78 <I_ori_cg_cr_rs1_imm_edges_rs1val_0x0_immval_0x1+0x18>
     b6c:	1490246f          	jal	x8,34b4 <failedtest_x8_x7>
     b70:	00000b60          	.word	0x00000b60
     b74:	0000955a          	.word	0x0000955a
     b78:	00460613          	addi	x12,x12,4

# Testcase cr_rs1_imm_edges (rs1 = 0x00000000, imm = 2)
  RVTEST_TESTDATA_LOAD_INT(x1, x31) # load rs1: x31 = 0x00000000
     b7c:	0000af83          	lw	x31,0(x1)
     b80:	00408093          	addi	x1,x1,4

00000b84 <I_ori_cg_cr_rs1_imm_edges_rs1val_0x0_immval_0x2>:
I_ori_cg_cr_rs1_imm_edges_rs1val_0x0_immval_0x2:
  ori x17, x31, 2 # perform operation
     b84:	002fe893          	ori	x17,x31,2
  # Check if x17 contains the expected result. x12 is the signature ptr, x8 is the link ptr, x7 is a temp reg.
  RVTEST_SIGUPD(x12, x8, x7, x17, I_ori_cg_cr_rs1_imm_edges_rs1val_0x0_immval_0x2, I_ori_cg_cr_rs1_imm_edges_rs1val_0x0_immval_0x2_str)
     b88:	00062383          	lw	x7,0(x12)
     b8c:	01138863          	beq	x7,x17,b9c <I_ori_cg_cr_rs1_imm_edges_rs1val_0x0_immval_0x2+0x18>
     b90:	1250246f          	jal	x8,34b4 <failedtest_x8_x7>
     b94:	00000b84          	.word	0x00000b84
     b98:	000095a6          	.word	0x000095a6
     b9c:	00460613          	addi	x12,x12,4

# Testcase cr_rs1_imm_edges (rs1 = 0x00000000, imm = 3)
  RVTEST_TESTDATA_LOAD_INT(x1, x23) # load rs1: x23 = 0x00000000
     ba0:	0000ab83          	lw	x23,0(x1)
     ba4:	00408093          	addi	x1,x1,4

00000ba8 <I_ori_cg_cr_rs1_imm_edges_rs1val_0x0_immval_0x3>:
I_ori_cg_cr_rs1_imm_edges_rs1val_0x0_immval_0x3:
  ori x20, x23, 3 # perform operation
     ba8:	003bea13          	ori	x20,x23,3
  # Check if x20 contains the expected result. x12 is the signature ptr, x8 is the link ptr, x7 is a temp reg.
  RVTEST_SIGUPD(x12, x8, x7, x20, I_ori_cg_cr_rs1_imm_edges_rs1val_0x0_immval_0x3, I_ori_cg_cr_rs1_imm_edges_rs1val_0x0_immval_0x3_str)
     bac:	00062383          	lw	x7,0(x12)
     bb0:	01438863          	beq	x7,x20,bc0 <I_ori_cg_cr_rs1_imm_edges_rs1val_0x0_immval_0x3+0x18>
     bb4:	1010246f          	jal	x8,34b4 <failedtest_x8_x7>
     bb8:	00000ba8          	.word	0x00000ba8
     bbc:	000095f2          	.word	0x000095f2
     bc0:	00460613          	addi	x12,x12,4

# Testcase cr_rs1_imm_edges (rs1 = 0x00000000, imm = 4)
  RVTEST_TESTDATA_LOAD_INT(x1, x2) # load rs1: x2 = 0x00000000
     bc4:	0000a103          	lw	x2,0(x1)
     bc8:	00408093          	addi	x1,x1,4

00000bcc <I_ori_cg_cr_rs1_imm_edges_rs1val_0x0_immval_0x4>:
I_ori_cg_cr_rs1_imm_edges_rs1val_0x0_immval_0x4:
  ori x5, x2, 4 # perform operation
     bcc:	00416293          	ori	x5,x2,4
  # Check if x5 contains the expected result. x12 is the signature ptr, x8 is the link ptr, x7 is a temp reg.
  RVTEST_SIGUPD(x12, x8, x7, x5, I_ori_cg_cr_rs1_imm_edges_rs1val_0x0_immval_0x4, I_ori_cg_cr_rs1_imm_edges_rs1val_0x0_immval_0x4_str)
     bd0:	00062383          	lw	x7,0(x12)
     bd4:	00538863          	beq	x7,x5,be4 <I_ori_cg_cr_rs1_imm_edges_rs1val_0x0_immval_0x4+0x18>
     bd8:	0dd0246f          	jal	x8,34b4 <failedtest_x8_x7>
     bdc:	00000bcc          	.word	0x00000bcc
     be0:	0000963e          	.word	0x0000963e
     be4:	00460613          	addi	x12,x12,4

# Testcase cr_rs1_imm_edges (rs1 = 0x00000000, imm = 8)
  RVTEST_TESTDATA_LOAD_INT(x1, x31) # load rs1: x31 = 0x00000000
     be8:	0000af83          	lw	x31,0(x1)
     bec:	00408093          	addi	x1,x1,4

00000bf0 <I_ori_cg_cr_rs1_imm_edges_rs1val_0x0_immval_0x8>:
I_ori_cg_cr_rs1_imm_edges_rs1val_0x0_immval_0x8:
  ori x10, x31, 8 # perform operation
     bf0:	008fe513          	ori	x10,x31,8
  # Check if x10 contains the expected result. x12 is the signature ptr, x8 is the link ptr, x7 is a temp reg.
  RVTEST_SIGUPD(x12, x8, x7, x10, I_ori_cg_cr_rs1_imm_edges_rs1val_0x0_immval_0x8, I_ori_cg_cr_rs1_imm_edges_rs1val_0x0_immval_0x8_str)
     bf4:	00062383          	lw	x7,0(x12)
     bf8:	00a38863          	beq	x7,x10,c08 <I_ori_cg_cr_rs1_imm_edges_rs1val_0x0_immval_0x8+0x18>
     bfc:	0b90246f          	jal	x8,34b4 <failedtest_x8_x7>
     c00:	00000bf0          	.word	0x00000bf0
     c04:	0000968a          	.word	0x0000968a
     c08:	00460613          	addi	x12,x12,4

# Testcase cr_rs1_imm_edges (rs1 = 0x00000000, imm = 16)
  RVTEST_TESTDATA_LOAD_INT(x1, x6) # load rs1: x6 = 0x00000000
     c0c:	0000a303          	lw	x6,0(x1)
     c10:	00408093          	addi	x1,x1,4

00000c14 <I_ori_cg_cr_rs1_imm_edges_rs1val_0x0_immval_0x10>:
I_ori_cg_cr_rs1_imm_edges_rs1val_0x0_immval_0x10:
  ori x30, x6, 16 # perform operation
     c14:	01036f13          	ori	x30,x6,16
  # Check if x30 contains the expected result. x12 is the signature ptr, x8 is the link ptr, x7 is a temp reg.
  RVTEST_SIGUPD(x12, x8, x7, x30, I_ori_cg_cr_rs1_imm_edges_rs1val_0x0_immval_0x10, I_ori_cg_cr_rs1_imm_edges_rs1val_0x0_immval_0x10_str)
     c18:	00062383          	lw	x7,0(x12)
     c1c:	01e38863          	beq	x7,x30,c2c <I_ori_cg_cr_rs1_imm_edges_rs1val_0x0_immval_0x10+0x18>
     c20:	0950246f          	jal	x8,34b4 <failedtest_x8_x7>
     c24:	00000c14          	.word	0x00000c14
     c28:	000096d6          	.word	0x000096d6
     c2c:	00460613          	addi	x12,x12,4

# Testcase cr_rs1_imm_edges (rs1 = 0x00000000, imm = 32)
  RVTEST_TESTDATA_LOAD_INT(x1, x10) # load rs1: x10 = 0x00000000
     c30:	0000a503          	lw	x10,0(x1)
     c34:	00408093          	addi	x1,x1,4

00000c38 <I_ori_cg_cr_rs1_imm_edges_rs1val_0x0_immval_0x20>:
I_ori_cg_cr_rs1_imm_edges_rs1val_0x0_immval_0x20:
  ori x29, x10, 32 # perform operation
     c38:	02056e93          	ori	x29,x10,32
  # Check if x29 contains the expected result. x12 is the signature ptr, x8 is the link ptr, x7 is a temp reg.
  RVTEST_SIGUPD(x12, x8, x7, x29, I_ori_cg_cr_rs1_imm_edges_rs1val_0x0_immval_0x20, I_ori_cg_cr_rs1_imm_edges_rs1val_0x0_immval_0x20_str)
     c3c:	00062383          	lw	x7,0(x12)
     c40:	01d38863          	beq	x7,x29,c50 <I_ori_cg_cr_rs1_imm_edges_rs1val_0x0_immval_0x20+0x18>
     c44:	0710246f          	jal	x8,34b4 <failedtest_x8_x7>
     c48:	00000c38          	.word	0x00000c38
     c4c:	00009723          	.word	0x00009723
     c50:	00460613          	addi	x12,x12,4

# Testcase cr_rs1_imm_edges (rs1 = 0x00000000, imm = 64)
  RVTEST_TESTDATA_LOAD_INT(x1, x19) # load rs1: x19 = 0x00000000
     c54:	0000a983          	lw	x19,0(x1)
     c58:	00408093          	addi	x1,x1,4

00000c5c <I_ori_cg_cr_rs1_imm_edges_rs1val_0x0_immval_0x40>:
I_ori_cg_cr_rs1_imm_edges_rs1val_0x0_immval_0x40:
  ori x26, x19, 64 # perform operation
     c5c:	0409ed13          	ori	x26,x19,64
  # Check if x26 contains the expected result. x12 is the signature ptr, x8 is the link ptr, x7 is a temp reg.
  RVTEST_SIGUPD(x12, x8, x7, x26, I_ori_cg_cr_rs1_imm_edges_rs1val_0x0_immval_0x40, I_ori_cg_cr_rs1_imm_edges_rs1val_0x0_immval_0x40_str)
     c60:	00062383          	lw	x7,0(x12)
     c64:	01a38863          	beq	x7,x26,c74 <I_ori_cg_cr_rs1_imm_edges_rs1val_0x0_immval_0x40+0x18>
     c68:	04d0246f          	jal	x8,34b4 <failedtest_x8_x7>
     c6c:	00000c5c          	.word	0x00000c5c
     c70:	00009770          	.word	0x00009770
     c74:	00460613          	addi	x12,x12,4

# Testcase cr_rs1_imm_edges (rs1 = 0x00000000, imm = 128)
  RVTEST_TESTDATA_LOAD_INT(x1, x28) # load rs1: x28 = 0x00000000
     c78:	0000ae03          	lw	x28,0(x1)
     c7c:	00408093          	addi	x1,x1,4

00000c80 <I_ori_cg_cr_rs1_imm_edges_rs1val_0x0_immval_0x80>:
I_ori_cg_cr_rs1_imm_edges_rs1val_0x0_immval_0x80:
  ori x3, x28, 128 # perform operation
     c80:	080e6193          	ori	x3,x28,128
  # Check if x3 contains the expected result. x12 is the signature ptr, x8 is the link ptr, x7 is a temp reg.
  RVTEST_SIGUPD(x12, x8, x7, x3, I_ori_cg_cr_rs1_imm_edges_rs1val_0x0_immval_0x80, I_ori_cg_cr_rs1_imm_edges_rs1val_0x0_immval_0x80_str)
     c84:	00062383          	lw	x7,0(x12)
     c88:	00338863          	beq	x7,x3,c98 <I_ori_cg_cr_rs1_imm_edges_rs1val_0x0_immval_0x80+0x18>
     c8c:	0290246f          	jal	x8,34b4 <failedtest_x8_x7>
     c90:	00000c80          	.word	0x00000c80
     c94:	000097bd          	.word	0x000097bd
     c98:	00460613          	addi	x12,x12,4

# Testcase cr_rs1_imm_edges (rs1 = 0x00000000, imm = 256)
  RVTEST_TESTDATA_LOAD_INT(x1, x14) # load rs1: x14 = 0x00000000
     c9c:	0000a703          	lw	x14,0(x1)
     ca0:	00408093          	addi	x1,x1,4

00000ca4 <I_ori_cg_cr_rs1_imm_edges_rs1val_0x0_immval_0x100>:
I_ori_cg_cr_rs1_imm_edges_rs1val_0x0_immval_0x100:
  ori x13, x14, 256 # perform operation
     ca4:	10076693          	ori	x13,x14,256
  # Check if x13 contains the expected result. x12 is the signature ptr, x8 is the link ptr, x7 is a temp reg.
  RVTEST_SIGUPD(x12, x8, x7, x13, I_ori_cg_cr_rs1_imm_edges_rs1val_0x0_immval_0x100, I_ori_cg_cr_rs1_imm_edges_rs1val_0x0_immval_0x100_str)
     ca8:	00062383          	lw	x7,0(x12)
     cac:	00d38863          	beq	x7,x13,cbc <I_ori_cg_cr_rs1_imm_edges_rs1val_0x0_immval_0x100+0x18>
     cb0:	0050246f          	jal	x8,34b4 <failedtest_x8_x7>
     cb4:	00000ca4          	.word	0x00000ca4
     cb8:	0000980a          	.word	0x0000980a
     cbc:	00460613          	addi	x12,x12,4

# Testcase cr_rs1_imm_edges (rs1 = 0x00000000, imm = 512)
  RVTEST_TESTDATA_LOAD_INT(x1, x26) # load rs1: x26 = 0x00000000
     cc0:	0000ad03          	lw	x26,0(x1)
     cc4:	00408093          	addi	x1,x1,4

00000cc8 <I_ori_cg_cr_rs1_imm_edges_rs1val_0x0_immval_0x200>:
I_ori_cg_cr_rs1_imm_edges_rs1val_0x0_immval_0x200:
  ori x13, x26, 512 # perform operation
     cc8:	200d6693          	ori	x13,x26,512
  # Check if x13 contains the expected result. x12 is the signature ptr, x8 is the link ptr, x7 is a temp reg.
  RVTEST_SIGUPD(x12, x8, x7, x13, I_ori_cg_cr_rs1_imm_edges_rs1val_0x0_immval_0x200, I_ori_cg_cr_rs1_imm_edges_rs1val_0x0_immval_0x200_str)
     ccc:	00062383          	lw	x7,0(x12)
     cd0:	00d38863          	beq	x7,x13,ce0 <I_ori_cg_cr_rs1_imm_edges_rs1val_0x0_immval_0x200+0x18>
     cd4:	7e00246f          	jal	x8,34b4 <failedtest_x8_x7>
     cd8:	00000cc8          	.word	0x00000cc8
     cdc:	00009858          	.word	0x00009858
     ce0:	00460613          	addi	x12,x12,4

# Testcase cr_rs1_imm_edges (rs1 = 0x00000000, imm = 1023)
  RVTEST_TESTDATA_LOAD_INT(x1, x14) # load rs1: x14 = 0x00000000
     ce4:	0000a703          	lw	x14,0(x1)
     ce8:	00408093          	addi	x1,x1,4

00000cec <I_ori_cg_cr_rs1_imm_edges_rs1val_0x0_immval_0x3ff>:
I_ori_cg_cr_rs1_imm_edges_rs1val_0x0_immval_0x3ff:
  ori x11, x14, 1023 # perform operation
     cec:	3ff76593          	ori	x11,x14,1023
  # Check if x11 contains the expected result. x12 is the signature ptr, x8 is the link ptr, x7 is a temp reg.
  RVTEST_SIGUPD(x12, x8, x7, x11, I_ori_cg_cr_rs1_imm_edges_rs1val_0x0_immval_0x3ff, I_ori_cg_cr_rs1_imm_edges_rs1val_0x0_immval_0x3ff_str)
     cf0:	00062383          	lw	x7,0(x12)
     cf4:	00b38863          	beq	x7,x11,d04 <I_ori_cg_cr_rs1_imm_edges_rs1val_0x0_immval_0x3ff+0x18>
     cf8:	7bc0246f          	jal	x8,34b4 <failedtest_x8_x7>
     cfc:	00000cec          	.word	0x00000cec
     d00:	000098a6          	.word	0x000098a6
     d04:	00460613          	addi	x12,x12,4

# Testcase cr_rs1_imm_edges (rs1 = 0x00000000, imm = 1024)
  RVTEST_TESTDATA_LOAD_INT(x1, x18) # load rs1: x18 = 0x00000000
     d08:	0000a903          	lw	x18,0(x1)
     d0c:	00408093          	addi	x1,x1,4

00000d10 <I_ori_cg_cr_rs1_imm_edges_rs1val_0x0_immval_0x400>:
I_ori_cg_cr_rs1_imm_edges_rs1val_0x0_immval_0x400:
  ori x17, x18, 1024 # perform operation
     d10:	40096893          	ori	x17,x18,1024
  # Check if x17 contains the expected result. x12 is the signature ptr, x8 is the link ptr, x7 is a temp reg.
  RVTEST_SIGUPD(x12, x8, x7, x17, I_ori_cg_cr_rs1_imm_edges_rs1val_0x0_immval_0x400, I_ori_cg_cr_rs1_imm_edges_rs1val_0x0_immval_0x400_str)
     d14:	00062383          	lw	x7,0(x12)
     d18:	01138863          	beq	x7,x17,d28 <I_ori_cg_cr_rs1_imm_edges_rs1val_0x0_immval_0x400+0x18>
     d1c:	7980246f          	jal	x8,34b4 <failedtest_x8_x7>
     d20:	00000d10          	.word	0x00000d10
     d24:	000098f4          	.word	0x000098f4
     d28:	00460613          	addi	x12,x12,4

# Testcase cr_rs1_imm_edges (rs1 = 0x00000000, imm = 1795)
  RVTEST_TESTDATA_LOAD_INT(x1, x29) # load rs1: x29 = 0x00000000
     d2c:	0000ae83          	lw	x29,0(x1)
     d30:	00408093          	addi	x1,x1,4

00000d34 <I_ori_cg_cr_rs1_imm_edges_rs1val_0x0_immval_0x703>:
I_ori_cg_cr_rs1_imm_edges_rs1val_0x0_immval_0x703:
  ori x16, x29, 1795 # perform operation
     d34:	703ee813          	ori	x16,x29,1795
  # Check if x16 contains the expected result. x12 is the signature ptr, x8 is the link ptr, x7 is a temp reg.
  RVTEST_SIGUPD(x12, x8, x7, x16, I_ori_cg_cr_rs1_imm_edges_rs1val_0x0_immval_0x703, I_ori_cg_cr_rs1_imm_edges_rs1val_0x0_immval_0x703_str)
     d38:	00062383          	lw	x7,0(x12)
     d3c:	01038863          	beq	x7,x16,d4c <I_ori_cg_cr_rs1_imm_edges_rs1val_0x0_immval_0x703+0x18>
     d40:	7740246f          	jal	x8,34b4 <failedtest_x8_x7>
     d44:	00000d34          	.word	0x00000d34
     d48:	00009942          	.word	0x00009942
     d4c:	00460613          	addi	x12,x12,4

# Testcase cr_rs1_imm_edges (rs1 = 0x00000000, imm = 2047)
  RVTEST_TESTDATA_LOAD_INT(x1, x25) # load rs1: x25 = 0x00000000
     d50:	0000ac83          	lw	x25,0(x1)
     d54:	00408093          	addi	x1,x1,4

00000d58 <I_ori_cg_cr_rs1_imm_edges_rs1val_0x0_immval_0x7ff>:
I_ori_cg_cr_rs1_imm_edges_rs1val_0x0_immval_0x7ff:
  ori x16, x25, 2047 # perform operation
     d58:	7ffce813          	ori	x16,x25,2047
  # Check if x16 contains the expected result. x12 is the signature ptr, x8 is the link ptr, x7 is a temp reg.
  RVTEST_SIGUPD(x12, x8, x7, x16, I_ori_cg_cr_rs1_imm_edges_rs1val_0x0_immval_0x7ff, I_ori_cg_cr_rs1_imm_edges_rs1val_0x0_immval_0x7ff_str)
     d5c:	00062383          	lw	x7,0(x12)
     d60:	01038863          	beq	x7,x16,d70 <I_ori_cg_cr_rs1_imm_edges_rs1val_0x0_immval_0x7ff+0x18>
     d64:	7500246f          	jal	x8,34b4 <failedtest_x8_x7>
     d68:	00000d58          	.word	0x00000d58
     d6c:	00009990          	.word	0x00009990
     d70:	00460613          	addi	x12,x12,4

# Testcase cr_rs1_imm_edges (rs1 = 0x00000000, imm = -2048)
  RVTEST_TESTDATA_LOAD_INT(x1, x11) # load rs1: x11 = 0x00000000
     d74:	0000a583          	lw	x11,0(x1)
     d78:	00408093          	addi	x1,x1,4

00000d7c <I_ori_cg_cr_rs1_imm_edges_rs1val_0x0_immval_m0x800>:
I_ori_cg_cr_rs1_imm_edges_rs1val_0x0_immval_m0x800:
  ori x28, x11, -2048 # perform operation
     d7c:	8005ee13          	ori	x28,x11,-2048
  # Check if x28 contains the expected result. x12 is the signature ptr, x8 is the link ptr, x7 is a temp reg.
  RVTEST_SIGUPD(x12, x8, x7, x28, I_ori_cg_cr_rs1_imm_edges_rs1val_0x0_immval_m0x800, I_ori_cg_cr_rs1_imm_edges_rs1val_0x0_immval_m0x800_str)
     d80:	00062383          	lw	x7,0(x12)
     d84:	01c38863          	beq	x7,x28,d94 <I_ori_cg_cr_rs1_imm_edges_rs1val_0x0_immval_m0x800+0x18>
     d88:	72c0246f          	jal	x8,34b4 <failedtest_x8_x7>
     d8c:	00000d7c          	.word	0x00000d7c
     d90:	000099de          	.word	0x000099de
     d94:	00460613          	addi	x12,x12,4

# Testcase cr_rs1_imm_edges (rs1 = 0x00000000, imm = -2047)
  RVTEST_TESTDATA_LOAD_INT(x1, x21) # load rs1: x21 = 0x00000000
     d98:	0000aa83          	lw	x21,0(x1)
     d9c:	00408093          	addi	x1,x1,4

00000da0 <I_ori_cg_cr_rs1_imm_edges_rs1val_0x0_immval_m0x7ff>:
I_ori_cg_cr_rs1_imm_edges_rs1val_0x0_immval_m0x7ff:
  ori x6, x21, -2047 # perform operation
     da0:	801ae313          	ori	x6,x21,-2047
  # Check if x6 contains the expected result. x12 is the signature ptr, x8 is the link ptr, x7 is a temp reg.
  RVTEST_SIGUPD(x12, x8, x7, x6, I_ori_cg_cr_rs1_imm_edges_rs1val_0x0_immval_m0x7ff, I_ori_cg_cr_rs1_imm_edges_rs1val_0x0_immval_m0x7ff_str)
     da4:	00062383          	lw	x7,0(x12)
     da8:	00638863          	beq	x7,x6,db8 <I_ori_cg_cr_rs1_imm_edges_rs1val_0x0_immval_m0x7ff+0x18>
     dac:	7080246f          	jal	x8,34b4 <failedtest_x8_x7>
     db0:	00000da0          	.word	0x00000da0
     db4:	00009a2d          	.word	0x00009a2d
     db8:	00460613          	addi	x12,x12,4

# Testcase cr_rs1_imm_edges (rs1 = 0x00000000, imm = -2)
  RVTEST_TESTDATA_LOAD_INT(x1, x17) # load rs1: x17 = 0x00000000
     dbc:	0000a883          	lw	x17,0(x1)
     dc0:	00408093          	addi	x1,x1,4

00000dc4 <I_ori_cg_cr_rs1_imm_edges_rs1val_0x0_immval_m0x2>:
I_ori_cg_cr_rs1_imm_edges_rs1val_0x0_immval_m0x2:
  ori x13, x17, -2 # perform operation
     dc4:	ffe8e693          	ori	x13,x17,-2
  # Check if x13 contains the expected result. x12 is the signature ptr, x8 is the link ptr, x7 is a temp reg.
  RVTEST_SIGUPD(x12, x8, x7, x13, I_ori_cg_cr_rs1_imm_edges_rs1val_0x0_immval_m0x2, I_ori_cg_cr_rs1_imm_edges_rs1val_0x0_immval_m0x2_str)
     dc8:	00062383          	lw	x7,0(x12)
     dcc:	00d38863          	beq	x7,x13,ddc <I_ori_cg_cr_rs1_imm_edges_rs1val_0x0_immval_m0x2+0x18>
     dd0:	6e40246f          	jal	x8,34b4 <failedtest_x8_x7>
     dd4:	00000dc4          	.word	0x00000dc4
     dd8:	00009a7c          	.word	0x00009a7c
     ddc:	00460613          	addi	x12,x12,4

# Testcase cr_rs1_imm_edges (rs1 = 0x00000000, imm = -1)
  RVTEST_TESTDATA_LOAD_INT(x1, x15) # load rs1: x15 = 0x00000000
     de0:	0000a783          	lw	x15,0(x1)
     de4:	00408093          	addi	x1,x1,4

00000de8 <I_ori_cg_cr_rs1_imm_edges_rs1val_0x0_immval_m0x1>:
I_ori_cg_cr_rs1_imm_edges_rs1val_0x0_immval_m0x1:
  ori x9, x15, -1 # perform operation
     de8:	fff7e493          	ori	x9,x15,-1
  # Check if x9 contains the expected result. x12 is the signature ptr, x8 is the link ptr, x7 is a temp reg.
  RVTEST_SIGUPD(x12, x8, x7, x9, I_ori_cg_cr_rs1_imm_edges_rs1val_0x0_immval_m0x1, I_ori_cg_cr_rs1_imm_edges_rs1val_0x0_immval_m0x1_str)
     dec:	00062383          	lw	x7,0(x12)
     df0:	00938863          	beq	x7,x9,e00 <I_ori_cg_cr_rs1_imm_edges_rs1val_0x0_immval_m0x1+0x18>
     df4:	6c00246f          	jal	x8,34b4 <failedtest_x8_x7>
     df8:	00000de8          	.word	0x00000de8
     dfc:	00009ac9          	.word	0x00009ac9
     e00:	00460613          	addi	x12,x12,4

# Testcase cr_rs1_imm_edges (rs1 = 0x00000001, imm = 0)
  RVTEST_TESTDATA_LOAD_INT(x1, x11) # load rs1: x11 = 0x00000001
     e04:	0000a583          	lw	x11,0(x1)
     e08:	00408093          	addi	x1,x1,4

00000e0c <I_ori_cg_cr_rs1_imm_edges_rs1val_0x1_immval_0x0>:
I_ori_cg_cr_rs1_imm_edges_rs1val_0x1_immval_0x0:
  ori x26, x11, 0 # perform operation
     e0c:	0005ed13          	ori	x26,x11,0
  # Check if x26 contains the expected result. x12 is the signature ptr, x8 is the link ptr, x7 is a temp reg.
  RVTEST_SIGUPD(x12, x8, x7, x26, I_ori_cg_cr_rs1_imm_edges_rs1val_0x1_immval_0x0, I_ori_cg_cr_rs1_imm_edges_rs1val_0x1_immval_0x0_str)
     e10:	00062383          	lw	x7,0(x12)
     e14:	01a38863          	beq	x7,x26,e24 <I_ori_cg_cr_rs1_imm_edges_rs1val_0x1_immval_0x0+0x18>
     e18:	69c0246f          	jal	x8,34b4 <failedtest_x8_x7>
     e1c:	00000e0c          	.word	0x00000e0c
     e20:	00009b16          	.word	0x00009b16
     e24:	00460613          	addi	x12,x12,4

# Testcase cr_rs1_imm_edges (rs1 = 0x00000001, imm = 1)
  RVTEST_TESTDATA_LOAD_INT(x1, x27) # load rs1: x27 = 0x00000001
     e28:	0000ad83          	lw	x27,0(x1)
     e2c:	00408093          	addi	x1,x1,4

00000e30 <I_ori_cg_cr_rs1_imm_edges_rs1val_0x1_immval_0x1>:
I_ori_cg_cr_rs1_imm_edges_rs1val_0x1_immval_0x1:
  ori x11, x27, 1 # perform operation
     e30:	001de593          	ori	x11,x27,1
  # Check if x11 contains the expected result. x12 is the signature ptr, x8 is the link ptr, x7 is a temp reg.
  RVTEST_SIGUPD(x12, x8, x7, x11, I_ori_cg_cr_rs1_imm_edges_rs1val_0x1_immval_0x1, I_ori_cg_cr_rs1_imm_edges_rs1val_0x1_immval_0x1_str)
     e34:	00062383          	lw	x7,0(x12)
     e38:	00b38863          	beq	x7,x11,e48 <I_ori_cg_cr_rs1_imm_edges_rs1val_0x1_immval_0x1+0x18>
     e3c:	6780246f          	jal	x8,34b4 <failedtest_x8_x7>
     e40:	00000e30          	.word	0x00000e30
     e44:	00009b62          	.word	0x00009b62
     e48:	00460613          	addi	x12,x12,4

# Testcase cr_rs1_imm_edges (rs1 = 0x00000001, imm = 2)
  RVTEST_TESTDATA_LOAD_INT(x1, x26) # load rs1: x26 = 0x00000001
     e4c:	0000ad03          	lw	x26,0(x1)
     e50:	00408093          	addi	x1,x1,4

00000e54 <I_ori_cg_cr_rs1_imm_edges_rs1val_0x1_immval_0x2>:
I_ori_cg_cr_rs1_imm_edges_rs1val_0x1_immval_0x2:
  ori x20, x26, 2 # perform operation
     e54:	002d6a13          	ori	x20,x26,2
  # Check if x20 contains the expected result. x12 is the signature ptr, x8 is the link ptr, x7 is a temp reg.
  RVTEST_SIGUPD(x12, x8, x7, x20, I_ori_cg_cr_rs1_imm_edges_rs1val_0x1_immval_0x2, I_ori_cg_cr_rs1_imm_edges_rs1val_0x1_immval_0x2_str)
     e58:	00062383          	lw	x7,0(x12)
     e5c:	01438863          	beq	x7,x20,e6c <I_ori_cg_cr_rs1_imm_edges_rs1val_0x1_immval_0x2+0x18>
     e60:	6540246f          	jal	x8,34b4 <failedtest_x8_x7>
     e64:	00000e54          	.word	0x00000e54
     e68:	00009bae          	.word	0x00009bae
     e6c:	00460613          	addi	x12,x12,4

# Testcase cr_rs1_imm_edges (rs1 = 0x00000001, imm = 3)
  RVTEST_TESTDATA_LOAD_INT(x1, x14) # load rs1: x14 = 0x00000001
     e70:	0000a703          	lw	x14,0(x1)
     e74:	00408093          	addi	x1,x1,4

00000e78 <I_ori_cg_cr_rs1_imm_edges_rs1val_0x1_immval_0x3>:
I_ori_cg_cr_rs1_imm_edges_rs1val_0x1_immval_0x3:
  ori x20, x14, 3 # perform operation
     e78:	00376a13          	ori	x20,x14,3
  # Check if x20 contains the expected result. x12 is the signature ptr, x8 is the link ptr, x7 is a temp reg.
  RVTEST_SIGUPD(x12, x8, x7, x20, I_ori_cg_cr_rs1_imm_edges_rs1val_0x1_immval_0x3, I_ori_cg_cr_rs1_imm_edges_rs1val_0x1_immval_0x3_str)
     e7c:	00062383          	lw	x7,0(x12)
     e80:	01438863          	beq	x7,x20,e90 <I_ori_cg_cr_rs1_imm_edges_rs1val_0x1_immval_0x3+0x18>
     e84:	6300246f          	jal	x8,34b4 <failedtest_x8_x7>
     e88:	00000e78          	.word	0x00000e78
     e8c:	00009bfa          	.word	0x00009bfa
     e90:	00460613          	addi	x12,x12,4

# Testcase cr_rs1_imm_edges (rs1 = 0x00000001, imm = 4)
  RVTEST_TESTDATA_LOAD_INT(x1, x6) # load rs1: x6 = 0x00000001
     e94:	0000a303          	lw	x6,0(x1)
     e98:	00408093          	addi	x1,x1,4

00000e9c <I_ori_cg_cr_rs1_imm_edges_rs1val_0x1_immval_0x4>:
I_ori_cg_cr_rs1_imm_edges_rs1val_0x1_immval_0x4:
  ori x21, x6, 4 # perform operation
     e9c:	00436a93          	ori	x21,x6,4
  # Check if x21 contains the expected result. x12 is the signature ptr, x8 is the link ptr, x7 is a temp reg.
  RVTEST_SIGUPD(x12, x8, x7, x21, I_ori_cg_cr_rs1_imm_edges_rs1val_0x1_immval_0x4, I_ori_cg_cr_rs1_imm_edges_rs1val_0x1_immval_0x4_str)
     ea0:	00062383          	lw	x7,0(x12)
     ea4:	01538863          	beq	x7,x21,eb4 <I_ori_cg_cr_rs1_imm_edges_rs1val_0x1_immval_0x4+0x18>
     ea8:	60c0246f          	jal	x8,34b4 <failedtest_x8_x7>
     eac:	00000e9c          	.word	0x00000e9c
     eb0:	00009c47          	.word	0x00009c47
     eb4:	00460613          	addi	x12,x12,4

# Testcase cr_rs1_imm_edges (rs1 = 0x00000001, imm = 8)
  RVTEST_TESTDATA_LOAD_INT(x1, x22) # load rs1: x22 = 0x00000001
     eb8:	0000ab03          	lw	x22,0(x1)
     ebc:	00408093          	addi	x1,x1,4

00000ec0 <I_ori_cg_cr_rs1_imm_edges_rs1val_0x1_immval_0x8>:
I_ori_cg_cr_rs1_imm_edges_rs1val_0x1_immval_0x8:
  ori x17, x22, 8 # perform operation
     ec0:	008b6893          	ori	x17,x22,8
  # Check if x17 contains the expected result. x12 is the signature ptr, x8 is the link ptr, x7 is a temp reg.
  RVTEST_SIGUPD(x12, x8, x7, x17, I_ori_cg_cr_rs1_imm_edges_rs1val_0x1_immval_0x8, I_ori_cg_cr_rs1_imm_edges_rs1val_0x1_immval_0x8_str)
     ec4:	00062383          	lw	x7,0(x12)
     ec8:	01138863          	beq	x7,x17,ed8 <I_ori_cg_cr_rs1_imm_edges_rs1val_0x1_immval_0x8+0x18>
     ecc:	5e80246f          	jal	x8,34b4 <failedtest_x8_x7>
     ed0:	00000ec0          	.word	0x00000ec0
     ed4:	00009c94          	.word	0x00009c94
     ed8:	00460613          	addi	x12,x12,4

# Testcase cr_rs1_imm_edges (rs1 = 0x00000001, imm = 16)
  RVTEST_TESTDATA_LOAD_INT(x1, x2) # load rs1: x2 = 0x00000001
     edc:	0000a103          	lw	x2,0(x1)
     ee0:	00408093          	addi	x1,x1,4

00000ee4 <I_ori_cg_cr_rs1_imm_edges_rs1val_0x1_immval_0x10>:
I_ori_cg_cr_rs1_imm_edges_rs1val_0x1_immval_0x10:
  ori x27, x2, 16 # perform operation
     ee4:	01016d93          	ori	x27,x2,16
  # Check if x27 contains the expected result. x12 is the signature ptr, x8 is the link ptr, x7 is a temp reg.
  RVTEST_SIGUPD(x12, x8, x7, x27, I_ori_cg_cr_rs1_imm_edges_rs1val_0x1_immval_0x10, I_ori_cg_cr_rs1_imm_edges_rs1val_0x1_immval_0x10_str)
     ee8:	00062383          	lw	x7,0(x12)
     eec:	01b38863          	beq	x7,x27,efc <I_ori_cg_cr_rs1_imm_edges_rs1val_0x1_immval_0x10+0x18>
     ef0:	5c40246f          	jal	x8,34b4 <failedtest_x8_x7>
     ef4:	00000ee4          	.word	0x00000ee4
     ef8:	00009ce1          	.word	0x00009ce1
     efc:	00460613          	addi	x12,x12,4

# Testcase cr_rs1_imm_edges (rs1 = 0x00000001, imm = 32)
  RVTEST_TESTDATA_LOAD_INT(x1, x4) # load rs1: x4 = 0x00000001
     f00:	0000a203          	lw	x4,0(x1)
     f04:	00408093          	addi	x1,x1,4

00000f08 <I_ori_cg_cr_rs1_imm_edges_rs1val_0x1_immval_0x20>:
I_ori_cg_cr_rs1_imm_edges_rs1val_0x1_immval_0x20:
  ori x14, x4, 32 # perform operation
     f08:	02026713          	ori	x14,x4,32
  # Check if x14 contains the expected result. x12 is the signature ptr, x8 is the link ptr, x7 is a temp reg.
  RVTEST_SIGUPD(x12, x8, x7, x14, I_ori_cg_cr_rs1_imm_edges_rs1val_0x1_immval_0x20, I_ori_cg_cr_rs1_imm_edges_rs1val_0x1_immval_0x20_str)
     f0c:	00062383          	lw	x7,0(x12)
     f10:	00e38863          	beq	x7,x14,f20 <I_ori_cg_cr_rs1_imm_edges_rs1val_0x1_immval_0x20+0x18>
     f14:	5a00246f          	jal	x8,34b4 <failedtest_x8_x7>
     f18:	00000f08          	.word	0x00000f08
     f1c:	00009d2f          	.word	0x00009d2f
     f20:	00460613          	addi	x12,x12,4

# Testcase cr_rs1_imm_edges (rs1 = 0x00000001, imm = 64)
  RVTEST_TESTDATA_LOAD_INT(x1, x2) # load rs1: x2 = 0x00000001
     f24:	0000a103          	lw	x2,0(x1)
     f28:	00408093          	addi	x1,x1,4

00000f2c <I_ori_cg_cr_rs1_imm_edges_rs1val_0x1_immval_0x40>:
I_ori_cg_cr_rs1_imm_edges_rs1val_0x1_immval_0x40:
  ori x21, x2, 64 # perform operation
     f2c:	04016a93          	ori	x21,x2,64
  # Check if x21 contains the expected result. x12 is the signature ptr, x8 is the link ptr, x7 is a temp reg.
  RVTEST_SIGUPD(x12, x8, x7, x21, I_ori_cg_cr_rs1_imm_edges_rs1val_0x1_immval_0x40, I_ori_cg_cr_rs1_imm_edges_rs1val_0x1_immval_0x40_str)
     f30:	00062383          	lw	x7,0(x12)
     f34:	01538863          	beq	x7,x21,f44 <I_ori_cg_cr_rs1_imm_edges_rs1val_0x1_immval_0x40+0x18>
     f38:	57c0246f          	jal	x8,34b4 <failedtest_x8_x7>
     f3c:	00000f2c          	.word	0x00000f2c
     f40:	00009d7d          	.word	0x00009d7d
     f44:	00460613          	addi	x12,x12,4

# Testcase cr_rs1_imm_edges (rs1 = 0x00000001, imm = 128)
  RVTEST_TESTDATA_LOAD_INT(x1, x9) # load rs1: x9 = 0x00000001
     f48:	0000a483          	lw	x9,0(x1)
     f4c:	00408093          	addi	x1,x1,4

00000f50 <I_ori_cg_cr_rs1_imm_edges_rs1val_0x1_immval_0x80>:
I_ori_cg_cr_rs1_imm_edges_rs1val_0x1_immval_0x80:
  ori x22, x9, 128 # perform operation
     f50:	0804eb13          	ori	x22,x9,128
  # Check if x22 contains the expected result. x12 is the signature ptr, x8 is the link ptr, x7 is a temp reg.
  RVTEST_SIGUPD(x12, x8, x7, x22, I_ori_cg_cr_rs1_imm_edges_rs1val_0x1_immval_0x80, I_ori_cg_cr_rs1_imm_edges_rs1val_0x1_immval_0x80_str)
     f54:	00062383          	lw	x7,0(x12)
     f58:	01638863          	beq	x7,x22,f68 <I_ori_cg_cr_rs1_imm_edges_rs1val_0x1_immval_0x80+0x18>
     f5c:	5580246f          	jal	x8,34b4 <failedtest_x8_x7>
     f60:	00000f50          	.word	0x00000f50
     f64:	00009dcb          	.word	0x00009dcb
     f68:	00460613          	addi	x12,x12,4

# Testcase cr_rs1_imm_edges (rs1 = 0x00000001, imm = 256)
  RVTEST_TESTDATA_LOAD_INT(x1, x5) # load rs1: x5 = 0x00000001
     f6c:	0000a283          	lw	x5,0(x1)
     f70:	00408093          	addi	x1,x1,4

00000f74 <I_ori_cg_cr_rs1_imm_edges_rs1val_0x1_immval_0x100>:
I_ori_cg_cr_rs1_imm_edges_rs1val_0x1_immval_0x100:
  ori x9, x5, 256 # perform operation
     f74:	1002e493          	ori	x9,x5,256
  # Check if x9 contains the expected result. x12 is the signature ptr, x8 is the link ptr, x7 is a temp reg.
  RVTEST_SIGUPD(x12, x8, x7, x9, I_ori_cg_cr_rs1_imm_edges_rs1val_0x1_immval_0x100, I_ori_cg_cr_rs1_imm_edges_rs1val_0x1_immval_0x100_str)
     f78:	00062383          	lw	x7,0(x12)
     f7c:	00938863          	beq	x7,x9,f8c <I_ori_cg_cr_rs1_imm_edges_rs1val_0x1_immval_0x100+0x18>
     f80:	5340246f          	jal	x8,34b4 <failedtest_x8_x7>
     f84:	00000f74          	.word	0x00000f74
     f88:	00009e19          	.word	0x00009e19
     f8c:	00460613          	addi	x12,x12,4

# Testcase cr_rs1_imm_edges (rs1 = 0x00000001, imm = 512)
  RVTEST_TESTDATA_LOAD_INT(x1, x23) # load rs1: x23 = 0x00000001
     f90:	0000ab83          	lw	x23,0(x1)
     f94:	00408093          	addi	x1,x1,4

00000f98 <I_ori_cg_cr_rs1_imm_edges_rs1val_0x1_immval_0x200>:
I_ori_cg_cr_rs1_imm_edges_rs1val_0x1_immval_0x200:
  ori x20, x23, 512 # perform operation
     f98:	200bea13          	ori	x20,x23,512
  # Check if x20 contains the expected result. x12 is the signature ptr, x8 is the link ptr, x7 is a temp reg.
  RVTEST_SIGUPD(x12, x8, x7, x20, I_ori_cg_cr_rs1_imm_edges_rs1val_0x1_immval_0x200, I_ori_cg_cr_rs1_imm_edges_rs1val_0x1_immval_0x200_str)
     f9c:	00062383          	lw	x7,0(x12)
     fa0:	01438863          	beq	x7,x20,fb0 <I_ori_cg_cr_rs1_imm_edges_rs1val_0x1_immval_0x200+0x18>
     fa4:	5100246f          	jal	x8,34b4 <failedtest_x8_x7>
     fa8:	00000f98          	.word	0x00000f98
     fac:	00009e68          	.word	0x00009e68
     fb0:	00460613          	addi	x12,x12,4

# Testcase cr_rs1_imm_edges (rs1 = 0x00000001, imm = 1023)
  RVTEST_TESTDATA_LOAD_INT(x1, x30) # load rs1: x30 = 0x00000001
     fb4:	0000af03          	lw	x30,0(x1)
     fb8:	00408093          	addi	x1,x1,4

00000fbc <I_ori_cg_cr_rs1_imm_edges_rs1val_0x1_immval_0x3ff>:
I_ori_cg_cr_rs1_imm_edges_rs1val_0x1_immval_0x3ff:
  ori x6, x30, 1023 # perform operation
     fbc:	3fff6313          	ori	x6,x30,1023
  # Check if x6 contains the expected result. x12 is the signature ptr, x8 is the link ptr, x7 is a temp reg.
  RVTEST_SIGUPD(x12, x8, x7, x6, I_ori_cg_cr_rs1_imm_edges_rs1val_0x1_immval_0x3ff, I_ori_cg_cr_rs1_imm_edges_rs1val_0x1_immval_0x3ff_str)
     fc0:	00062383          	lw	x7,0(x12)
     fc4:	00638863          	beq	x7,x6,fd4 <I_ori_cg_cr_rs1_imm_edges_rs1val_0x1_immval_0x3ff+0x18>
     fc8:	4ec0246f          	jal	x8,34b4 <failedtest_x8_x7>
     fcc:	00000fbc          	.word	0x00000fbc
     fd0:	00009eb7          	.word	0x00009eb7
     fd4:	00460613          	addi	x12,x12,4

# Testcase cr_rs1_imm_edges (rs1 = 0x00000001, imm = 1024)
  RVTEST_TESTDATA_LOAD_INT(x1, x25) # load rs1: x25 = 0x00000001
     fd8:	0000ac83          	lw	x25,0(x1)
     fdc:	00408093          	addi	x1,x1,4

00000fe0 <I_ori_cg_cr_rs1_imm_edges_rs1val_0x1_immval_0x400>:
I_ori_cg_cr_rs1_imm_edges_rs1val_0x1_immval_0x400:
  ori x3, x25, 1024 # perform operation
     fe0:	400ce193          	ori	x3,x25,1024
  # Check if x3 contains the expected result. x12 is the signature ptr, x8 is the link ptr, x7 is a temp reg.
  RVTEST_SIGUPD(x12, x8, x7, x3, I_ori_cg_cr_rs1_imm_edges_rs1val_0x1_immval_0x400, I_ori_cg_cr_rs1_imm_edges_rs1val_0x1_immval_0x400_str)
     fe4:	00062383          	lw	x7,0(x12)
     fe8:	00338863          	beq	x7,x3,ff8 <I_ori_cg_cr_rs1_imm_edges_rs1val_0x1_immval_0x400+0x18>
     fec:	4c80246f          	jal	x8,34b4 <failedtest_x8_x7>
     ff0:	00000fe0          	.word	0x00000fe0
     ff4:	00009f06          	.word	0x00009f06
     ff8:	00460613          	addi	x12,x12,4

# Testcase cr_rs1_imm_edges (rs1 = 0x00000001, imm = 1795)
  RVTEST_TESTDATA_LOAD_INT(x1, x19) # load rs1: x19 = 0x00000001
     ffc:	0000a983          	lw	x19,0(x1)
    1000:	00408093          	addi	x1,x1,4

00001004 <I_ori_cg_cr_rs1_imm_edges_rs1val_0x1_immval_0x703>:
I_ori_cg_cr_rs1_imm_edges_rs1val_0x1_immval_0x703:
  ori x14, x19, 1795 # perform operation
    1004:	7039e713          	ori	x14,x19,1795
  # Check if x14 contains the expected result. x12 is the signature ptr, x8 is the link ptr, x7 is a temp reg.
  RVTEST_SIGUPD(x12, x8, x7, x14, I_ori_cg_cr_rs1_imm_edges_rs1val_0x1_immval_0x703, I_ori_cg_cr_rs1_imm_edges_rs1val_0x1_immval_0x703_str)
    1008:	00062383          	lw	x7,0(x12)
    100c:	00e38863          	beq	x7,x14,101c <I_ori_cg_cr_rs1_imm_edges_rs1val_0x1_immval_0x703+0x18>
    1010:	4a40246f          	jal	x8,34b4 <failedtest_x8_x7>
    1014:	00001004          	.word	0x00001004
    1018:	00009f55          	.word	0x00009f55
    101c:	00460613          	addi	x12,x12,4

# Testcase cr_rs1_imm_edges (rs1 = 0x00000001, imm = 2047)
  RVTEST_TESTDATA_LOAD_INT(x1, x19) # load rs1: x19 = 0x00000001
    1020:	0000a983          	lw	x19,0(x1)
    1024:	00408093          	addi	x1,x1,4

00001028 <I_ori_cg_cr_rs1_imm_edges_rs1val_0x1_immval_0x7ff>:
I_ori_cg_cr_rs1_imm_edges_rs1val_0x1_immval_0x7ff:
  ori x28, x19, 2047 # perform operation
    1028:	7ff9ee13          	ori	x28,x19,2047
  # Check if x28 contains the expected result. x12 is the signature ptr, x8 is the link ptr, x7 is a temp reg.
  RVTEST_SIGUPD(x12, x8, x7, x28, I_ori_cg_cr_rs1_imm_edges_rs1val_0x1_immval_0x7ff, I_ori_cg_cr_rs1_imm_edges_rs1val_0x1_immval_0x7ff_str)
    102c:	00062383          	lw	x7,0(x12)
    1030:	01c38863          	beq	x7,x28,1040 <I_ori_cg_cr_rs1_imm_edges_rs1val_0x1_immval_0x7ff+0x18>
    1034:	4800246f          	jal	x8,34b4 <failedtest_x8_x7>
    1038:	00001028          	.word	0x00001028
    103c:	00009fa4          	.word	0x00009fa4
    1040:	00460613          	addi	x12,x12,4

# Testcase cr_rs1_imm_edges (rs1 = 0x00000001, imm = -2048)
  RVTEST_TESTDATA_LOAD_INT(x1, x20) # load rs1: x20 = 0x00000001
    1044:	0000aa03          	lw	x20,0(x1)
    1048:	00408093          	addi	x1,x1,4

0000104c <I_ori_cg_cr_rs1_imm_edges_rs1val_0x1_immval_m0x800>:
I_ori_cg_cr_rs1_imm_edges_rs1val_0x1_immval_m0x800:
  ori x26, x20, -2048 # perform operation
    104c:	800a6d13          	ori	x26,x20,-2048
  # Check if x26 contains the expected result. x12 is the signature ptr, x8 is the link ptr, x7 is a temp reg.
  RVTEST_SIGUPD(x12, x8, x7, x26, I_ori_cg_cr_rs1_imm_edges_rs1val_0x1_immval_m0x800, I_ori_cg_cr_rs1_imm_edges_rs1val_0x1_immval_m0x800_str)
    1050:	00062383          	lw	x7,0(x12)
    1054:	01a38863          	beq	x7,x26,1064 <I_ori_cg_cr_rs1_imm_edges_rs1val_0x1_immval_m0x800+0x18>
    1058:	45c0246f          	jal	x8,34b4 <failedtest_x8_x7>
    105c:	0000104c          	.word	0x0000104c
    1060:	00009ff3          	.word	0x00009ff3
    1064:	00460613          	addi	x12,x12,4

# Testcase cr_rs1_imm_edges (rs1 = 0x00000001, imm = -2047)
  RVTEST_TESTDATA_LOAD_INT(x1, x5) # load rs1: x5 = 0x00000001
    1068:	0000a283          	lw	x5,0(x1)
    106c:	00408093          	addi	x1,x1,4

00001070 <I_ori_cg_cr_rs1_imm_edges_rs1val_0x1_immval_m0x7ff>:
I_ori_cg_cr_rs1_imm_edges_rs1val_0x1_immval_m0x7ff:
  ori x29, x5, -2047 # perform operation
    1070:	8012ee93          	ori	x29,x5,-2047
  # Check if x29 contains the expected result. x12 is the signature ptr, x8 is the link ptr, x7 is a temp reg.
  RVTEST_SIGUPD(x12, x8, x7, x29, I_ori_cg_cr_rs1_imm_edges_rs1val_0x1_immval_m0x7ff, I_ori_cg_cr_rs1_imm_edges_rs1val_0x1_immval_m0x7ff_str)
    1074:	00062383          	lw	x7,0(x12)
    1078:	01d38863          	beq	x7,x29,1088 <I_ori_cg_cr_rs1_imm_edges_rs1val_0x1_immval_m0x7ff+0x18>
    107c:	4380246f          	jal	x8,34b4 <failedtest_x8_x7>
    1080:	00001070          	.word	0x00001070
    1084:	0000a043          	.word	0x0000a043
    1088:	00460613          	addi	x12,x12,4

# Testcase cr_rs1_imm_edges (rs1 = 0x00000001, imm = -2)
  RVTEST_TESTDATA_LOAD_INT(x1, x19) # load rs1: x19 = 0x00000001
    108c:	0000a983          	lw	x19,0(x1)
    1090:	00408093          	addi	x1,x1,4

00001094 <I_ori_cg_cr_rs1_imm_edges_rs1val_0x1_immval_m0x2>:
I_ori_cg_cr_rs1_imm_edges_rs1val_0x1_immval_m0x2:
  ori x3, x19, -2 # perform operation
    1094:	ffe9e193          	ori	x3,x19,-2
  # Check if x3 contains the expected result. x12 is the signature ptr, x8 is the link ptr, x7 is a temp reg.
  RVTEST_SIGUPD(x12, x8, x7, x3, I_ori_cg_cr_rs1_imm_edges_rs1val_0x1_immval_m0x2, I_ori_cg_cr_rs1_imm_edges_rs1val_0x1_immval_m0x2_str)
    1098:	00062383          	lw	x7,0(x12)
    109c:	00338863          	beq	x7,x3,10ac <I_ori_cg_cr_rs1_imm_edges_rs1val_0x1_immval_m0x2+0x18>
    10a0:	4140246f          	jal	x8,34b4 <failedtest_x8_x7>
    10a4:	00001094          	.word	0x00001094
    10a8:	0000a093          	.word	0x0000a093
    10ac:	00460613          	addi	x12,x12,4

# Testcase cr_rs1_imm_edges (rs1 = 0x00000001, imm = -1)
  RVTEST_TESTDATA_LOAD_INT(x1, x27) # load rs1: x27 = 0x00000001
    10b0:	0000ad83          	lw	x27,0(x1)
    10b4:	00408093          	addi	x1,x1,4

000010b8 <I_ori_cg_cr_rs1_imm_edges_rs1val_0x1_immval_m0x1>:
I_ori_cg_cr_rs1_imm_edges_rs1val_0x1_immval_m0x1:
  ori x6, x27, -1 # perform operation
    10b8:	fffde313          	ori	x6,x27,-1
  # Check if x6 contains the expected result. x12 is the signature ptr, x8 is the link ptr, x7 is a temp reg.
  RVTEST_SIGUPD(x12, x8, x7, x6, I_ori_cg_cr_rs1_imm_edges_rs1val_0x1_immval_m0x1, I_ori_cg_cr_rs1_imm_edges_rs1val_0x1_immval_m0x1_str)
    10bc:	00062383          	lw	x7,0(x12)
    10c0:	00638863          	beq	x7,x6,10d0 <I_ori_cg_cr_rs1_imm_edges_rs1val_0x1_immval_m0x1+0x18>
    10c4:	3f00246f          	jal	x8,34b4 <failedtest_x8_x7>
    10c8:	000010b8          	.word	0x000010b8
    10cc:	0000a0e1          	.word	0x0000a0e1
    10d0:	00460613          	addi	x12,x12,4

# Testcase cr_rs1_imm_edges (rs1 = 0x00000002, imm = 0)
  RVTEST_TESTDATA_LOAD_INT(x1, x13) # load rs1: x13 = 0x00000002
    10d4:	0000a683          	lw	x13,0(x1)
    10d8:	00408093          	addi	x1,x1,4

000010dc <I_ori_cg_cr_rs1_imm_edges_rs1val_0x2_immval_0x0>:
I_ori_cg_cr_rs1_imm_edges_rs1val_0x2_immval_0x0:
  ori x3, x13, 0 # perform operation
    10dc:	0006e193          	ori	x3,x13,0
  # Check if x3 contains the expected result. x12 is the signature ptr, x8 is the link ptr, x7 is a temp reg.
  RVTEST_SIGUPD(x12, x8, x7, x3, I_ori_cg_cr_rs1_imm_edges_rs1val_0x2_immval_0x0, I_ori_cg_cr_rs1_imm_edges_rs1val_0x2_immval_0x0_str)
    10e0:	00062383          	lw	x7,0(x12)
    10e4:	00338863          	beq	x7,x3,10f4 <I_ori_cg_cr_rs1_imm_edges_rs1val_0x2_immval_0x0+0x18>
    10e8:	3cc0246f          	jal	x8,34b4 <failedtest_x8_x7>
    10ec:	000010dc          	.word	0x000010dc
    10f0:	0000a12f          	.word	0x0000a12f
    10f4:	00460613          	addi	x12,x12,4

# Testcase cr_rs1_imm_edges (rs1 = 0x00000002, imm = 1)
  RVTEST_TESTDATA_LOAD_INT(x1, x16) # load rs1: x16 = 0x00000002
    10f8:	0000a803          	lw	x16,0(x1)
    10fc:	00408093          	addi	x1,x1,4

00001100 <I_ori_cg_cr_rs1_imm_edges_rs1val_0x2_immval_0x1>:
I_ori_cg_cr_rs1_imm_edges_rs1val_0x2_immval_0x1:
  ori x29, x16, 1 # perform operation
    1100:	00186e93          	ori	x29,x16,1
  # Check if x29 contains the expected result. x12 is the signature ptr, x8 is the link ptr, x7 is a temp reg.
  RVTEST_SIGUPD(x12, x8, x7, x29, I_ori_cg_cr_rs1_imm_edges_rs1val_0x2_immval_0x1, I_ori_cg_cr_rs1_imm_edges_rs1val_0x2_immval_0x1_str)
    1104:	00062383          	lw	x7,0(x12)
    1108:	01d38863          	beq	x7,x29,1118 <I_ori_cg_cr_rs1_imm_edges_rs1val_0x2_immval_0x1+0x18>
    110c:	3a80246f          	jal	x8,34b4 <failedtest_x8_x7>
    1110:	00001100          	.word	0x00001100
    1114:	0000a17c          	.word	0x0000a17c
    1118:	00460613          	addi	x12,x12,4

# Testcase cr_rs1_imm_edges (rs1 = 0x00000002, imm = 2)
  RVTEST_TESTDATA_LOAD_INT(x1, x2) # load rs1: x2 = 0x00000002
    111c:	0000a103          	lw	x2,0(x1)
    1120:	00408093          	addi	x1,x1,4

00001124 <I_ori_cg_cr_rs1_imm_edges_rs1val_0x2_immval_0x2>:
I_ori_cg_cr_rs1_imm_edges_rs1val_0x2_immval_0x2:
  ori x27, x2, 2 # perform operation
    1124:	00216d93          	ori	x27,x2,2
  # Check if x27 contains the expected result. x12 is the signature ptr, x8 is the link ptr, x7 is a temp reg.
  RVTEST_SIGUPD(x12, x8, x7, x27, I_ori_cg_cr_rs1_imm_edges_rs1val_0x2_immval_0x2, I_ori_cg_cr_rs1_imm_edges_rs1val_0x2_immval_0x2_str)
    1128:	00062383          	lw	x7,0(x12)
    112c:	01b38863          	beq	x7,x27,113c <I_ori_cg_cr_rs1_imm_edges_rs1val_0x2_immval_0x2+0x18>
    1130:	3840246f          	jal	x8,34b4 <failedtest_x8_x7>
    1134:	00001124          	.word	0x00001124
    1138:	0000a1c9          	.word	0x0000a1c9
    113c:	00460613          	addi	x12,x12,4

# Testcase cr_rs1_imm_edges (rs1 = 0x00000002, imm = 3)
  RVTEST_TESTDATA_LOAD_INT(x1, x27) # load rs1: x27 = 0x00000002
    1140:	0000ad83          	lw	x27,0(x1)
    1144:	00408093          	addi	x1,x1,4

00001148 <I_ori_cg_cr_rs1_imm_edges_rs1val_0x2_immval_0x3>:
I_ori_cg_cr_rs1_imm_edges_rs1val_0x2_immval_0x3:
  ori x5, x27, 3 # perform operation
    1148:	003de293          	ori	x5,x27,3
  # Check if x5 contains the expected result. x12 is the signature ptr, x8 is the link ptr, x7 is a temp reg.
  RVTEST_SIGUPD(x12, x8, x7, x5, I_ori_cg_cr_rs1_imm_edges_rs1val_0x2_immval_0x3, I_ori_cg_cr_rs1_imm_edges_rs1val_0x2_immval_0x3_str)
    114c:	00062383          	lw	x7,0(x12)
    1150:	00538863          	beq	x7,x5,1160 <I_ori_cg_cr_rs1_imm_edges_rs1val_0x2_immval_0x3+0x18>
    1154:	3600246f          	jal	x8,34b4 <failedtest_x8_x7>
    1158:	00001148          	.word	0x00001148
    115c:	0000a216          	.word	0x0000a216
    1160:	00460613          	addi	x12,x12,4

# Testcase cr_rs1_imm_edges (rs1 = 0x00000002, imm = 4)
  RVTEST_TESTDATA_LOAD_INT(x1, x10) # load rs1: x10 = 0x00000002
    1164:	0000a503          	lw	x10,0(x1)
    1168:	00408093          	addi	x1,x1,4

0000116c <I_ori_cg_cr_rs1_imm_edges_rs1val_0x2_immval_0x4>:
I_ori_cg_cr_rs1_imm_edges_rs1val_0x2_immval_0x4:
  ori x20, x10, 4 # perform operation
    116c:	00456a13          	ori	x20,x10,4
  # Check if x20 contains the expected result. x12 is the signature ptr, x8 is the link ptr, x7 is a temp reg.
  RVTEST_SIGUPD(x12, x8, x7, x20, I_ori_cg_cr_rs1_imm_edges_rs1val_0x2_immval_0x4, I_ori_cg_cr_rs1_imm_edges_rs1val_0x2_immval_0x4_str)
    1170:	00062383          	lw	x7,0(x12)
    1174:	01438863          	beq	x7,x20,1184 <I_ori_cg_cr_rs1_imm_edges_rs1val_0x2_immval_0x4+0x18>
    1178:	33c0246f          	jal	x8,34b4 <failedtest_x8_x7>
    117c:	0000116c          	.word	0x0000116c
    1180:	0000a263          	.word	0x0000a263
    1184:	00460613          	addi	x12,x12,4

# Testcase cr_rs1_imm_edges (rs1 = 0x00000002, imm = 8)
  RVTEST_TESTDATA_LOAD_INT(x1, x10) # load rs1: x10 = 0x00000002
    1188:	0000a503          	lw	x10,0(x1)
    118c:	00408093          	addi	x1,x1,4

00001190 <I_ori_cg_cr_rs1_imm_edges_rs1val_0x2_immval_0x8>:
I_ori_cg_cr_rs1_imm_edges_rs1val_0x2_immval_0x8:
  ori x4, x10, 8 # perform operation
    1190:	00856213          	ori	x4,x10,8
  # Check if x4 contains the expected result. x12 is the signature ptr, x8 is the link ptr, x7 is a temp reg.
  RVTEST_SIGUPD(x12, x8, x7, x4, I_ori_cg_cr_rs1_imm_edges_rs1val_0x2_immval_0x8, I_ori_cg_cr_rs1_imm_edges_rs1val_0x2_immval_0x8_str)
    1194:	00062383          	lw	x7,0(x12)
    1198:	00438863          	beq	x7,x4,11a8 <I_ori_cg_cr_rs1_imm_edges_rs1val_0x2_immval_0x8+0x18>
    119c:	3180246f          	jal	x8,34b4 <failedtest_x8_x7>
    11a0:	00001190          	.word	0x00001190
    11a4:	0000a2b0          	.word	0x0000a2b0
    11a8:	00460613          	addi	x12,x12,4

# Testcase cr_rs1_imm_edges (rs1 = 0x00000002, imm = 16)
  RVTEST_TESTDATA_LOAD_INT(x1, x13) # load rs1: x13 = 0x00000002
    11ac:	0000a683          	lw	x13,0(x1)
    11b0:	00408093          	addi	x1,x1,4

000011b4 <I_ori_cg_cr_rs1_imm_edges_rs1val_0x2_immval_0x10>:
I_ori_cg_cr_rs1_imm_edges_rs1val_0x2_immval_0x10:
  ori x11, x13, 16 # perform operation
    11b4:	0106e593          	ori	x11,x13,16
  # Check if x11 contains the expected result. x12 is the signature ptr, x8 is the link ptr, x7 is a temp reg.
  RVTEST_SIGUPD(x12, x8, x7, x11, I_ori_cg_cr_rs1_imm_edges_rs1val_0x2_immval_0x10, I_ori_cg_cr_rs1_imm_edges_rs1val_0x2_immval_0x10_str)
    11b8:	00062383          	lw	x7,0(x12)
    11bc:	00b38863          	beq	x7,x11,11cc <I_ori_cg_cr_rs1_imm_edges_rs1val_0x2_immval_0x10+0x18>
    11c0:	2f40246f          	jal	x8,34b4 <failedtest_x8_x7>
    11c4:	000011b4          	.word	0x000011b4
    11c8:	0000a2fd          	.word	0x0000a2fd
    11cc:	00460613          	addi	x12,x12,4

# Testcase cr_rs1_imm_edges (rs1 = 0x00000002, imm = 32)
  RVTEST_TESTDATA_LOAD_INT(x1, x25) # load rs1: x25 = 0x00000002
    11d0:	0000ac83          	lw	x25,0(x1)
    11d4:	00408093          	addi	x1,x1,4

000011d8 <I_ori_cg_cr_rs1_imm_edges_rs1val_0x2_immval_0x20>:
I_ori_cg_cr_rs1_imm_edges_rs1val_0x2_immval_0x20:
  ori x14, x25, 32 # perform operation
    11d8:	020ce713          	ori	x14,x25,32
  # Check if x14 contains the expected result. x12 is the signature ptr, x8 is the link ptr, x7 is a temp reg.
  RVTEST_SIGUPD(x12, x8, x7, x14, I_ori_cg_cr_rs1_imm_edges_rs1val_0x2_immval_0x20, I_ori_cg_cr_rs1_imm_edges_rs1val_0x2_immval_0x20_str)
    11dc:	00062383          	lw	x7,0(x12)
    11e0:	00e38863          	beq	x7,x14,11f0 <I_ori_cg_cr_rs1_imm_edges_rs1val_0x2_immval_0x20+0x18>
    11e4:	2d00246f          	jal	x8,34b4 <failedtest_x8_x7>
    11e8:	000011d8          	.word	0x000011d8
    11ec:	0000a34b          	.word	0x0000a34b
    11f0:	00460613          	addi	x12,x12,4

# Testcase cr_rs1_imm_edges (rs1 = 0x00000002, imm = 64)
  RVTEST_TESTDATA_LOAD_INT(x1, x19) # load rs1: x19 = 0x00000002
    11f4:	0000a983          	lw	x19,0(x1)
    11f8:	00408093          	addi	x1,x1,4

000011fc <I_ori_cg_cr_rs1_imm_edges_rs1val_0x2_immval_0x40>:
I_ori_cg_cr_rs1_imm_edges_rs1val_0x2_immval_0x40:
  ori x28, x19, 64 # perform operation
    11fc:	0409ee13          	ori	x28,x19,64
  # Check if x28 contains the expected result. x12 is the signature ptr, x8 is the link ptr, x7 is a temp reg.
  RVTEST_SIGUPD(x12, x8, x7, x28, I_ori_cg_cr_rs1_imm_edges_rs1val_0x2_immval_0x40, I_ori_cg_cr_rs1_imm_edges_rs1val_0x2_immval_0x40_str)
    1200:	00062383          	lw	x7,0(x12)
    1204:	01c38863          	beq	x7,x28,1214 <I_ori_cg_cr_rs1_imm_edges_rs1val_0x2_immval_0x40+0x18>
    1208:	2ac0246f          	jal	x8,34b4 <failedtest_x8_x7>
    120c:	000011fc          	.word	0x000011fc
    1210:	0000a399          	.word	0x0000a399
    1214:	00460613          	addi	x12,x12,4

# Testcase cr_rs1_imm_edges (rs1 = 0x00000002, imm = 128)
  RVTEST_TESTDATA_LOAD_INT(x1, x22) # load rs1: x22 = 0x00000002
    1218:	0000ab03          	lw	x22,0(x1)
    121c:	00408093          	addi	x1,x1,4

00001220 <I_ori_cg_cr_rs1_imm_edges_rs1val_0x2_immval_0x80>:
I_ori_cg_cr_rs1_imm_edges_rs1val_0x2_immval_0x80:
  ori x13, x22, 128 # perform operation
    1220:	080b6693          	ori	x13,x22,128
  # Check if x13 contains the expected result. x12 is the signature ptr, x8 is the link ptr, x7 is a temp reg.
  RVTEST_SIGUPD(x12, x8, x7, x13, I_ori_cg_cr_rs1_imm_edges_rs1val_0x2_immval_0x80, I_ori_cg_cr_rs1_imm_edges_rs1val_0x2_immval_0x80_str)
    1224:	00062383          	lw	x7,0(x12)
    1228:	00d38863          	beq	x7,x13,1238 <I_ori_cg_cr_rs1_imm_edges_rs1val_0x2_immval_0x80+0x18>
    122c:	2880246f          	jal	x8,34b4 <failedtest_x8_x7>
    1230:	00001220          	.word	0x00001220
    1234:	0000a3e7          	.word	0x0000a3e7
    1238:	00460613          	addi	x12,x12,4

# Testcase cr_rs1_imm_edges (rs1 = 0x00000002, imm = 256)
  RVTEST_TESTDATA_LOAD_INT(x1, x18) # load rs1: x18 = 0x00000002
    123c:	0000a903          	lw	x18,0(x1)
    1240:	00408093          	addi	x1,x1,4

00001244 <I_ori_cg_cr_rs1_imm_edges_rs1val_0x2_immval_0x100>:
I_ori_cg_cr_rs1_imm_edges_rs1val_0x2_immval_0x100:
  ori x22, x18, 256 # perform operation
    1244:	10096b13          	ori	x22,x18,256
  # Check if x22 contains the expected result. x12 is the signature ptr, x8 is the link ptr, x7 is a temp reg.
  RVTEST_SIGUPD(x12, x8, x7, x22, I_ori_cg_cr_rs1_imm_edges_rs1val_0x2_immval_0x100, I_ori_cg_cr_rs1_imm_edges_rs1val_0x2_immval_0x100_str)
    1248:	00062383          	lw	x7,0(x12)
    124c:	01638863          	beq	x7,x22,125c <I_ori_cg_cr_rs1_imm_edges_rs1val_0x2_immval_0x100+0x18>
    1250:	2640246f          	jal	x8,34b4 <failedtest_x8_x7>
    1254:	00001244          	.word	0x00001244
    1258:	0000a435          	.word	0x0000a435
    125c:	00460613          	addi	x12,x12,4

# Testcase cr_rs1_imm_edges (rs1 = 0x00000002, imm = 512)
  RVTEST_TESTDATA_LOAD_INT(x1, x15) # load rs1: x15 = 0x00000002
    1260:	0000a783          	lw	x15,0(x1)
    1264:	00408093          	addi	x1,x1,4

00001268 <I_ori_cg_cr_rs1_imm_edges_rs1val_0x2_immval_0x200>:
I_ori_cg_cr_rs1_imm_edges_rs1val_0x2_immval_0x200:
  ori x18, x15, 512 # perform operation
    1268:	2007e913          	ori	x18,x15,512
  # Check if x18 contains the expected result. x12 is the signature ptr, x8 is the link ptr, x7 is a temp reg.
  RVTEST_SIGUPD(x12, x8, x7, x18, I_ori_cg_cr_rs1_imm_edges_rs1val_0x2_immval_0x200, I_ori_cg_cr_rs1_imm_edges_rs1val_0x2_immval_0x200_str)
    126c:	00062383          	lw	x7,0(x12)
    1270:	01238863          	beq	x7,x18,1280 <I_ori_cg_cr_rs1_imm_edges_rs1val_0x2_immval_0x200+0x18>
    1274:	2400246f          	jal	x8,34b4 <failedtest_x8_x7>
    1278:	00001268          	.word	0x00001268
    127c:	0000a484          	.word	0x0000a484
    1280:	00460613          	addi	x12,x12,4

# Testcase cr_rs1_imm_edges (rs1 = 0x00000002, imm = 1023)
  RVTEST_TESTDATA_LOAD_INT(x1, x29) # load rs1: x29 = 0x00000002
    1284:	0000ae83          	lw	x29,0(x1)
    1288:	00408093          	addi	x1,x1,4

0000128c <I_ori_cg_cr_rs1_imm_edges_rs1val_0x2_immval_0x3ff>:
I_ori_cg_cr_rs1_imm_edges_rs1val_0x2_immval_0x3ff:
  ori x27, x29, 1023 # perform operation
    128c:	3ffeed93          	ori	x27,x29,1023
  # Check if x27 contains the expected result. x12 is the signature ptr, x8 is the link ptr, x7 is a temp reg.
  RVTEST_SIGUPD(x12, x8, x7, x27, I_ori_cg_cr_rs1_imm_edges_rs1val_0x2_immval_0x3ff, I_ori_cg_cr_rs1_imm_edges_rs1val_0x2_immval_0x3ff_str)
    1290:	00062383          	lw	x7,0(x12)
    1294:	01b38863          	beq	x7,x27,12a4 <I_ori_cg_cr_rs1_imm_edges_rs1val_0x2_immval_0x3ff+0x18>
    1298:	21c0246f          	jal	x8,34b4 <failedtest_x8_x7>
    129c:	0000128c          	.word	0x0000128c
    12a0:	0000a4d3          	.word	0x0000a4d3
    12a4:	00460613          	addi	x12,x12,4

# Testcase cr_rs1_imm_edges (rs1 = 0x00000002, imm = 1024)
  RVTEST_TESTDATA_LOAD_INT(x1, x22) # load rs1: x22 = 0x00000002
    12a8:	0000ab03          	lw	x22,0(x1)
    12ac:	00408093          	addi	x1,x1,4

000012b0 <I_ori_cg_cr_rs1_imm_edges_rs1val_0x2_immval_0x400>:
I_ori_cg_cr_rs1_imm_edges_rs1val_0x2_immval_0x400:
  ori x24, x22, 1024 # perform operation
    12b0:	400b6c13          	ori	x24,x22,1024
  # Check if x24 contains the expected result. x12 is the signature ptr, x8 is the link ptr, x7 is a temp reg.
  RVTEST_SIGUPD(x12, x8, x7, x24, I_ori_cg_cr_rs1_imm_edges_rs1val_0x2_immval_0x400, I_ori_cg_cr_rs1_imm_edges_rs1val_0x2_immval_0x400_str)
    12b4:	00062383          	lw	x7,0(x12)
    12b8:	01838863          	beq	x7,x24,12c8 <I_ori_cg_cr_rs1_imm_edges_rs1val_0x2_immval_0x400+0x18>
    12bc:	1f80246f          	jal	x8,34b4 <failedtest_x8_x7>
    12c0:	000012b0          	.word	0x000012b0
    12c4:	0000a522          	.word	0x0000a522
    12c8:	00460613          	addi	x12,x12,4

# Testcase cr_rs1_imm_edges (rs1 = 0x00000002, imm = 1795)
  RVTEST_TESTDATA_LOAD_INT(x1, x6) # load rs1: x6 = 0x00000002
    12cc:	0000a303          	lw	x6,0(x1)
    12d0:	00408093          	addi	x1,x1,4

000012d4 <I_ori_cg_cr_rs1_imm_edges_rs1val_0x2_immval_0x703>:
I_ori_cg_cr_rs1_imm_edges_rs1val_0x2_immval_0x703:
  ori x13, x6, 1795 # perform operation
    12d4:	70336693          	ori	x13,x6,1795
  # Check if x13 contains the expected result. x12 is the signature ptr, x8 is the link ptr, x7 is a temp reg.
  RVTEST_SIGUPD(x12, x8, x7, x13, I_ori_cg_cr_rs1_imm_edges_rs1val_0x2_immval_0x703, I_ori_cg_cr_rs1_imm_edges_rs1val_0x2_immval_0x703_str)
    12d8:	00062383          	lw	x7,0(x12)
    12dc:	00d38863          	beq	x7,x13,12ec <I_ori_cg_cr_rs1_imm_edges_rs1val_0x2_immval_0x703+0x18>
    12e0:	1d40246f          	jal	x8,34b4 <failedtest_x8_x7>
    12e4:	000012d4          	.word	0x000012d4
    12e8:	0000a571          	.word	0x0000a571
    12ec:	00460613          	addi	x12,x12,4

# Testcase cr_rs1_imm_edges (rs1 = 0x00000002, imm = 2047)
  RVTEST_TESTDATA_LOAD_INT(x1, x4) # load rs1: x4 = 0x00000002
    12f0:	0000a203          	lw	x4,0(x1)
    12f4:	00408093          	addi	x1,x1,4

000012f8 <I_ori_cg_cr_rs1_imm_edges_rs1val_0x2_immval_0x7ff>:
I_ori_cg_cr_rs1_imm_edges_rs1val_0x2_immval_0x7ff:
  ori x15, x4, 2047 # perform operation
    12f8:	7ff26793          	ori	x15,x4,2047
  # Check if x15 contains the expected result. x12 is the signature ptr, x8 is the link ptr, x7 is a temp reg.
  RVTEST_SIGUPD(x12, x8, x7, x15, I_ori_cg_cr_rs1_imm_edges_rs1val_0x2_immval_0x7ff, I_ori_cg_cr_rs1_imm_edges_rs1val_0x2_immval_0x7ff_str)
    12fc:	00062383          	lw	x7,0(x12)
    1300:	00f38863          	beq	x7,x15,1310 <I_ori_cg_cr_rs1_imm_edges_rs1val_0x2_immval_0x7ff+0x18>
    1304:	1b00246f          	jal	x8,34b4 <failedtest_x8_x7>
    1308:	000012f8          	.word	0x000012f8
    130c:	0000a5c0          	.word	0x0000a5c0
    1310:	00460613          	addi	x12,x12,4

# Testcase cr_rs1_imm_edges (rs1 = 0x00000002, imm = -2048)
  RVTEST_TESTDATA_LOAD_INT(x1, x20) # load rs1: x20 = 0x00000002
    1314:	0000aa03          	lw	x20,0(x1)
    1318:	00408093          	addi	x1,x1,4

0000131c <I_ori_cg_cr_rs1_imm_edges_rs1val_0x2_immval_m0x800>:
I_ori_cg_cr_rs1_imm_edges_rs1val_0x2_immval_m0x800:
  ori x25, x20, -2048 # perform operation
    131c:	800a6c93          	ori	x25,x20,-2048
  # Check if x25 contains the expected result. x12 is the signature ptr, x8 is the link ptr, x7 is a temp reg.
  RVTEST_SIGUPD(x12, x8, x7, x25, I_ori_cg_cr_rs1_imm_edges_rs1val_0x2_immval_m0x800, I_ori_cg_cr_rs1_imm_edges_rs1val_0x2_immval_m0x800_str)
    1320:	00062383          	lw	x7,0(x12)
    1324:	01938863          	beq	x7,x25,1334 <I_ori_cg_cr_rs1_imm_edges_rs1val_0x2_immval_m0x800+0x18>
    1328:	18c0246f          	jal	x8,34b4 <failedtest_x8_x7>
    132c:	0000131c          	.word	0x0000131c
    1330:	0000a60f          	.word	0x0000a60f
    1334:	00460613          	addi	x12,x12,4

# Testcase cr_rs1_imm_edges (rs1 = 0x00000002, imm = -2047)
  RVTEST_TESTDATA_LOAD_INT(x1, x22) # load rs1: x22 = 0x00000002
    1338:	0000ab03          	lw	x22,0(x1)
    133c:	00408093          	addi	x1,x1,4

00001340 <I_ori_cg_cr_rs1_imm_edges_rs1val_0x2_immval_m0x7ff>:
I_ori_cg_cr_rs1_imm_edges_rs1val_0x2_immval_m0x7ff:
  ori x5, x22, -2047 # perform operation
    1340:	801b6293          	ori	x5,x22,-2047
  # Check if x5 contains the expected result. x12 is the signature ptr, x8 is the link ptr, x7 is a temp reg.
  RVTEST_SIGUPD(x12, x8, x7, x5, I_ori_cg_cr_rs1_imm_edges_rs1val_0x2_immval_m0x7ff, I_ori_cg_cr_rs1_imm_edges_rs1val_0x2_immval_m0x7ff_str)
    1344:	00062383          	lw	x7,0(x12)
    1348:	00538863          	beq	x7,x5,1358 <I_ori_cg_cr_rs1_imm_edges_rs1val_0x2_immval_m0x7ff+0x18>
    134c:	1680246f          	jal	x8,34b4 <failedtest_x8_x7>
    1350:	00001340          	.word	0x00001340
    1354:	0000a65f          	.word	0x0000a65f
    1358:	00460613          	addi	x12,x12,4

# Testcase cr_rs1_imm_edges (rs1 = 0x00000002, imm = -2)
  RVTEST_TESTDATA_LOAD_INT(x1, x25) # load rs1: x25 = 0x00000002
    135c:	0000ac83          	lw	x25,0(x1)
    1360:	00408093          	addi	x1,x1,4

00001364 <I_ori_cg_cr_rs1_imm_edges_rs1val_0x2_immval_m0x2>:
I_ori_cg_cr_rs1_imm_edges_rs1val_0x2_immval_m0x2:
  ori x21, x25, -2 # perform operation
    1364:	ffecea93          	ori	x21,x25,-2
  # Check if x21 contains the expected result. x12 is the signature ptr, x8 is the link ptr, x7 is a temp reg.
  RVTEST_SIGUPD(x12, x8, x7, x21, I_ori_cg_cr_rs1_imm_edges_rs1val_0x2_immval_m0x2, I_ori_cg_cr_rs1_imm_edges_rs1val_0x2_immval_m0x2_str)
    1368:	00062383          	lw	x7,0(x12)
    136c:	01538863          	beq	x7,x21,137c <I_ori_cg_cr_rs1_imm_edges_rs1val_0x2_immval_m0x2+0x18>
    1370:	1440246f          	jal	x8,34b4 <failedtest_x8_x7>
    1374:	00001364          	.word	0x00001364
    1378:	0000a6af          	.word	0x0000a6af
    137c:	00460613          	addi	x12,x12,4

# Testcase cr_rs1_imm_edges (rs1 = 0x00000002, imm = -1)
  RVTEST_TESTDATA_LOAD_INT(x1, x14) # load rs1: x14 = 0x00000002
    1380:	0000a703          	lw	x14,0(x1)
    1384:	00408093          	addi	x1,x1,4

00001388 <I_ori_cg_cr_rs1_imm_edges_rs1val_0x2_immval_m0x1>:
I_ori_cg_cr_rs1_imm_edges_rs1val_0x2_immval_m0x1:
  ori x30, x14, -1 # perform operation
    1388:	fff76f13          	ori	x30,x14,-1
  # Check if x30 contains the expected result. x12 is the signature ptr, x8 is the link ptr, x7 is a temp reg.
  RVTEST_SIGUPD(x12, x8, x7, x30, I_ori_cg_cr_rs1_imm_edges_rs1val_0x2_immval_m0x1, I_ori_cg_cr_rs1_imm_edges_rs1val_0x2_immval_m0x1_str)
    138c:	00062383          	lw	x7,0(x12)
    1390:	01e38863          	beq	x7,x30,13a0 <I_ori_cg_cr_rs1_imm_edges_rs1val_0x2_immval_m0x1+0x18>
    1394:	1200246f          	jal	x8,34b4 <failedtest_x8_x7>
    1398:	00001388          	.word	0x00001388
    139c:	0000a6fd          	.word	0x0000a6fd
    13a0:	00460613          	addi	x12,x12,4

# Testcase cr_rs1_imm_edges (rs1 = 0x80000000, imm = 0)
  RVTEST_TESTDATA_LOAD_INT(x1, x15) # load rs1: x15 = 0x80000000
    13a4:	0000a783          	lw	x15,0(x1)
    13a8:	00408093          	addi	x1,x1,4

000013ac <I_ori_cg_cr_rs1_imm_edges_rs1val_0x80000000_immval_0x0>:
I_ori_cg_cr_rs1_imm_edges_rs1val_0x80000000_immval_0x0:
  ori x28, x15, 0 # perform operation
    13ac:	0007ee13          	ori	x28,x15,0
  # Check if x28 contains the expected result. x12 is the signature ptr, x8 is the link ptr, x7 is a temp reg.
  RVTEST_SIGUPD(x12, x8, x7, x28, I_ori_cg_cr_rs1_imm_edges_rs1val_0x80000000_immval_0x0, I_ori_cg_cr_rs1_imm_edges_rs1val_0x80000000_immval_0x0_str)
    13b0:	00062383          	lw	x7,0(x12)
    13b4:	01c38863          	beq	x7,x28,13c4 <I_ori_cg_cr_rs1_imm_edges_rs1val_0x80000000_immval_0x0+0x18>
    13b8:	0fc0246f          	jal	x8,34b4 <failedtest_x8_x7>
    13bc:	000013ac          	.word	0x000013ac
    13c0:	0000a74b          	.word	0x0000a74b
    13c4:	00460613          	addi	x12,x12,4

# Testcase cr_rs1_imm_edges (rs1 = 0x80000000, imm = 1)
  RVTEST_TESTDATA_LOAD_INT(x1, x21) # load rs1: x21 = 0x80000000
    13c8:	0000aa83          	lw	x21,0(x1)
    13cc:	00408093          	addi	x1,x1,4

000013d0 <I_ori_cg_cr_rs1_imm_edges_rs1val_0x80000000_immval_0x1>:
I_ori_cg_cr_rs1_imm_edges_rs1val_0x80000000_immval_0x1:
  ori x27, x21, 1 # perform operation
    13d0:	001aed93          	ori	x27,x21,1
  # Check if x27 contains the expected result. x12 is the signature ptr, x8 is the link ptr, x7 is a temp reg.
  RVTEST_SIGUPD(x12, x8, x7, x27, I_ori_cg_cr_rs1_imm_edges_rs1val_0x80000000_immval_0x1, I_ori_cg_cr_rs1_imm_edges_rs1val_0x80000000_immval_0x1_str)
    13d4:	00062383          	lw	x7,0(x12)
    13d8:	01b38863          	beq	x7,x27,13e8 <I_ori_cg_cr_rs1_imm_edges_rs1val_0x80000000_immval_0x1+0x18>
    13dc:	0d80246f          	jal	x8,34b4 <failedtest_x8_x7>
    13e0:	000013d0          	.word	0x000013d0
    13e4:	0000a79f          	.word	0x0000a79f
    13e8:	00460613          	addi	x12,x12,4

# Testcase cr_rs1_imm_edges (rs1 = 0x80000000, imm = 2)
  RVTEST_TESTDATA_LOAD_INT(x1, x18) # load rs1: x18 = 0x80000000
    13ec:	0000a903          	lw	x18,0(x1)
    13f0:	00408093          	addi	x1,x1,4

000013f4 <I_ori_cg_cr_rs1_imm_edges_rs1val_0x80000000_immval_0x2>:
I_ori_cg_cr_rs1_imm_edges_rs1val_0x80000000_immval_0x2:
  ori x13, x18, 2 # perform operation
    13f4:	00296693          	ori	x13,x18,2
  # Check if x13 contains the expected result. x12 is the signature ptr, x8 is the link ptr, x7 is a temp reg.
  RVTEST_SIGUPD(x12, x8, x7, x13, I_ori_cg_cr_rs1_imm_edges_rs1val_0x80000000_immval_0x2, I_ori_cg_cr_rs1_imm_edges_rs1val_0x80000000_immval_0x2_str)
    13f8:	00062383          	lw	x7,0(x12)
    13fc:	00d38863          	beq	x7,x13,140c <I_ori_cg_cr_rs1_imm_edges_rs1val_0x80000000_immval_0x2+0x18>
    1400:	0b40246f          	jal	x8,34b4 <failedtest_x8_x7>
    1404:	000013f4          	.word	0x000013f4
    1408:	0000a7f3          	.word	0x0000a7f3
    140c:	00460613          	addi	x12,x12,4

# Testcase cr_rs1_imm_edges (rs1 = 0x80000000, imm = 3)
  RVTEST_TESTDATA_LOAD_INT(x1, x24) # load rs1: x24 = 0x80000000
    1410:	0000ac03          	lw	x24,0(x1)
    1414:	00408093          	addi	x1,x1,4

00001418 <I_ori_cg_cr_rs1_imm_edges_rs1val_0x80000000_immval_0x3>:
I_ori_cg_cr_rs1_imm_edges_rs1val_0x80000000_immval_0x3:
  ori x13, x24, 3 # perform operation
    1418:	003c6693          	ori	x13,x24,3
  # Check if x13 contains the expected result. x12 is the signature ptr, x8 is the link ptr, x7 is a temp reg.
  RVTEST_SIGUPD(x12, x8, x7, x13, I_ori_cg_cr_rs1_imm_edges_rs1val_0x80000000_immval_0x3, I_ori_cg_cr_rs1_imm_edges_rs1val_0x80000000_immval_0x3_str)
    141c:	00062383          	lw	x7,0(x12)
    1420:	00d38863          	beq	x7,x13,1430 <I_ori_cg_cr_rs1_imm_edges_rs1val_0x80000000_immval_0x3+0x18>
    1424:	0900246f          	jal	x8,34b4 <failedtest_x8_x7>
    1428:	00001418          	.word	0x00001418
    142c:	0000a847          	.word	0x0000a847
    1430:	00460613          	addi	x12,x12,4

# Testcase cr_rs1_imm_edges (rs1 = 0x80000000, imm = 4)
  RVTEST_TESTDATA_LOAD_INT(x1, x10) # load rs1: x10 = 0x80000000
    1434:	0000a503          	lw	x10,0(x1)
    1438:	00408093          	addi	x1,x1,4

0000143c <I_ori_cg_cr_rs1_imm_edges_rs1val_0x80000000_immval_0x4>:
I_ori_cg_cr_rs1_imm_edges_rs1val_0x80000000_immval_0x4:
  ori x16, x10, 4 # perform operation
    143c:	00456813          	ori	x16,x10,4
  # Check if x16 contains the expected result. x12 is the signature ptr, x8 is the link ptr, x7 is a temp reg.
  RVTEST_SIGUPD(x12, x8, x7, x16, I_ori_cg_cr_rs1_imm_edges_rs1val_0x80000000_immval_0x4, I_ori_cg_cr_rs1_imm_edges_rs1val_0x80000000_immval_0x4_str)
    1440:	00062383          	lw	x7,0(x12)
    1444:	01038863          	beq	x7,x16,1454 <I_ori_cg_cr_rs1_imm_edges_rs1val_0x80000000_immval_0x4+0x18>
    1448:	06c0246f          	jal	x8,34b4 <failedtest_x8_x7>
    144c:	0000143c          	.word	0x0000143c
    1450:	0000a89b          	.word	0x0000a89b
    1454:	00460613          	addi	x12,x12,4

# Testcase cr_rs1_imm_edges (rs1 = 0x80000000, imm = 8)
  RVTEST_TESTDATA_LOAD_INT(x1, x13) # load rs1: x13 = 0x80000000
    1458:	0000a683          	lw	x13,0(x1)
    145c:	00408093          	addi	x1,x1,4

00001460 <I_ori_cg_cr_rs1_imm_edges_rs1val_0x80000000_immval_0x8>:
I_ori_cg_cr_rs1_imm_edges_rs1val_0x80000000_immval_0x8:
  ori x23, x13, 8 # perform operation
    1460:	0086eb93          	ori	x23,x13,8
  # Check if x23 contains the expected result. x12 is the signature ptr, x8 is the link ptr, x7 is a temp reg.
  RVTEST_SIGUPD(x12, x8, x7, x23, I_ori_cg_cr_rs1_imm_edges_rs1val_0x80000000_immval_0x8, I_ori_cg_cr_rs1_imm_edges_rs1val_0x80000000_immval_0x8_str)
    1464:	00062383          	lw	x7,0(x12)
    1468:	01738863          	beq	x7,x23,1478 <I_ori_cg_cr_rs1_imm_edges_rs1val_0x80000000_immval_0x8+0x18>
    146c:	0480246f          	jal	x8,34b4 <failedtest_x8_x7>
    1470:	00001460          	.word	0x00001460
    1474:	0000a8ef          	.word	0x0000a8ef
    1478:	00460613          	addi	x12,x12,4

# Testcase cr_rs1_imm_edges (rs1 = 0x80000000, imm = 16)
  RVTEST_TESTDATA_LOAD_INT(x1, x11) # load rs1: x11 = 0x80000000
    147c:	0000a583          	lw	x11,0(x1)
    1480:	00408093          	addi	x1,x1,4

00001484 <I_ori_cg_cr_rs1_imm_edges_rs1val_0x80000000_immval_0x10>:
I_ori_cg_cr_rs1_imm_edges_rs1val_0x80000000_immval_0x10:
  ori x9, x11, 16 # perform operation
    1484:	0105e493          	ori	x9,x11,16
  # Check if x9 contains the expected result. x12 is the signature ptr, x8 is the link ptr, x7 is a temp reg.
  RVTEST_SIGUPD(x12, x8, x7, x9, I_ori_cg_cr_rs1_imm_edges_rs1val_0x80000000_immval_0x10, I_ori_cg_cr_rs1_imm_edges_rs1val_0x80000000_immval_0x10_str)
    1488:	00062383          	lw	x7,0(x12)
    148c:	00938863          	beq	x7,x9,149c <I_ori_cg_cr_rs1_imm_edges_rs1val_0x80000000_immval_0x10+0x18>
    1490:	0240246f          	jal	x8,34b4 <failedtest_x8_x7>
    1494:	00001484          	.word	0x00001484
    1498:	0000a943          	.word	0x0000a943
    149c:	00460613          	addi	x12,x12,4

# Testcase cr_rs1_imm_edges (rs1 = 0x80000000, imm = 32)
  RVTEST_TESTDATA_LOAD_INT(x1, x30) # load rs1: x30 = 0x80000000
    14a0:	0000af03          	lw	x30,0(x1)
    14a4:	00408093          	addi	x1,x1,4

000014a8 <I_ori_cg_cr_rs1_imm_edges_rs1val_0x80000000_immval_0x20>:
I_ori_cg_cr_rs1_imm_edges_rs1val_0x80000000_immval_0x20:
  ori x18, x30, 32 # perform operation
    14a8:	020f6913          	ori	x18,x30,32
  # Check if x18 contains the expected result. x12 is the signature ptr, x8 is the link ptr, x7 is a temp reg.
  RVTEST_SIGUPD(x12, x8, x7, x18, I_ori_cg_cr_rs1_imm_edges_rs1val_0x80000000_immval_0x20, I_ori_cg_cr_rs1_imm_edges_rs1val_0x80000000_immval_0x20_str)
    14ac:	00062383          	lw	x7,0(x12)
    14b0:	01238863          	beq	x7,x18,14c0 <I_ori_cg_cr_rs1_imm_edges_rs1val_0x80000000_immval_0x20+0x18>
    14b4:	0000246f          	jal	x8,34b4 <failedtest_x8_x7>
    14b8:	000014a8          	.word	0x000014a8
    14bc:	0000a998          	.word	0x0000a998
    14c0:	00460613          	addi	x12,x12,4

# Testcase cr_rs1_imm_edges (rs1 = 0x80000000, imm = 64)
  RVTEST_TESTDATA_LOAD_INT(x1, x11) # load rs1: x11 = 0x80000000
    14c4:	0000a583          	lw	x11,0(x1)
    14c8:	00408093          	addi	x1,x1,4

000014cc <I_ori_cg_cr_rs1_imm_edges_rs1val_0x80000000_immval_0x40>:
I_ori_cg_cr_rs1_imm_edges_rs1val_0x80000000_immval_0x40:
  ori x20, x11, 64 # perform operation
    14cc:	0405ea13          	ori	x20,x11,64
  # Check if x20 contains the expected result. x12 is the signature ptr, x8 is the link ptr, x7 is a temp reg.
  RVTEST_SIGUPD(x12, x8, x7, x20, I_ori_cg_cr_rs1_imm_edges_rs1val_0x80000000_immval_0x40, I_ori_cg_cr_rs1_imm_edges_rs1val_0x80000000_immval_0x40_str)
    14d0:	00062383          	lw	x7,0(x12)
    14d4:	01438863          	beq	x7,x20,14e4 <I_ori_cg_cr_rs1_imm_edges_rs1val_0x80000000_immval_0x40+0x18>
    14d8:	7dd0146f          	jal	x8,34b4 <failedtest_x8_x7>
    14dc:	000014cc          	.word	0x000014cc
    14e0:	0000a9ed          	.word	0x0000a9ed
    14e4:	00460613          	addi	x12,x12,4

# Testcase cr_rs1_imm_edges (rs1 = 0x80000000, imm = 128)
  RVTEST_TESTDATA_LOAD_INT(x1, x5) # load rs1: x5 = 0x80000000
    14e8:	0000a283          	lw	x5,0(x1)
    14ec:	00408093          	addi	x1,x1,4

000014f0 <I_ori_cg_cr_rs1_imm_edges_rs1val_0x80000000_immval_0x80>:
I_ori_cg_cr_rs1_imm_edges_rs1val_0x80000000_immval_0x80:
  ori x22, x5, 128 # perform operation
    14f0:	0802eb13          	ori	x22,x5,128
  # Check if x22 contains the expected result. x12 is the signature ptr, x8 is the link ptr, x7 is a temp reg.
  RVTEST_SIGUPD(x12, x8, x7, x22, I_ori_cg_cr_rs1_imm_edges_rs1val_0x80000000_immval_0x80, I_ori_cg_cr_rs1_imm_edges_rs1val_0x80000000_immval_0x80_str)
    14f4:	00062383          	lw	x7,0(x12)
    14f8:	01638863          	beq	x7,x22,1508 <I_ori_cg_cr_rs1_imm_edges_rs1val_0x80000000_immval_0x80+0x18>
    14fc:	7b90146f          	jal	x8,34b4 <failedtest_x8_x7>
    1500:	000014f0          	.word	0x000014f0
    1504:	0000aa42          	.word	0x0000aa42
    1508:	00460613          	addi	x12,x12,4

# Testcase cr_rs1_imm_edges (rs1 = 0x80000000, imm = 256)
  RVTEST_TESTDATA_LOAD_INT(x1, x16) # load rs1: x16 = 0x80000000
    150c:	0000a803          	lw	x16,0(x1)
    1510:	00408093          	addi	x1,x1,4

00001514 <I_ori_cg_cr_rs1_imm_edges_rs1val_0x80000000_immval_0x100>:
I_ori_cg_cr_rs1_imm_edges_rs1val_0x80000000_immval_0x100:
  ori x11, x16, 256 # perform operation
    1514:	10086593          	ori	x11,x16,256
  # Check if x11 contains the expected result. x12 is the signature ptr, x8 is the link ptr, x7 is a temp reg.
  RVTEST_SIGUPD(x12, x8, x7, x11, I_ori_cg_cr_rs1_imm_edges_rs1val_0x80000000_immval_0x100, I_ori_cg_cr_rs1_imm_edges_rs1val_0x80000000_immval_0x100_str)
    1518:	00062383          	lw	x7,0(x12)
    151c:	00b38863          	beq	x7,x11,152c <I_ori_cg_cr_rs1_imm_edges_rs1val_0x80000000_immval_0x100+0x18>
    1520:	7950146f          	jal	x8,34b4 <failedtest_x8_x7>
    1524:	00001514          	.word	0x00001514
    1528:	0000aa97          	.word	0x0000aa97
    152c:	00460613          	addi	x12,x12,4

# Testcase cr_rs1_imm_edges (rs1 = 0x80000000, imm = 512)
  RVTEST_TESTDATA_LOAD_INT(x1, x31) # load rs1: x31 = 0x80000000
    1530:	0000af83          	lw	x31,0(x1)
    1534:	00408093          	addi	x1,x1,4

00001538 <I_ori_cg_cr_rs1_imm_edges_rs1val_0x80000000_immval_0x200>:
I_ori_cg_cr_rs1_imm_edges_rs1val_0x80000000_immval_0x200:
  ori x30, x31, 512 # perform operation
    1538:	200fef13          	ori	x30,x31,512
  # Check if x30 contains the expected result. x12 is the signature ptr, x8 is the link ptr, x7 is a temp reg.
  RVTEST_SIGUPD(x12, x8, x7, x30, I_ori_cg_cr_rs1_imm_edges_rs1val_0x80000000_immval_0x200, I_ori_cg_cr_rs1_imm_edges_rs1val_0x80000000_immval_0x200_str)
    153c:	00062383          	lw	x7,0(x12)
    1540:	01e38863          	beq	x7,x30,1550 <I_ori_cg_cr_rs1_imm_edges_rs1val_0x80000000_immval_0x200+0x18>
    1544:	7710146f          	jal	x8,34b4 <failedtest_x8_x7>
    1548:	00001538          	.word	0x00001538
    154c:	0000aaed          	.word	0x0000aaed
    1550:	00460613          	addi	x12,x12,4

# Testcase cr_rs1_imm_edges (rs1 = 0x80000000, imm = 1023)
  RVTEST_TESTDATA_LOAD_INT(x1, x6) # load rs1: x6 = 0x80000000
    1554:	0000a303          	lw	x6,0(x1)
    1558:	00408093          	addi	x1,x1,4

0000155c <I_ori_cg_cr_rs1_imm_edges_rs1val_0x80000000_immval_0x3ff>:
I_ori_cg_cr_rs1_imm_edges_rs1val_0x80000000_immval_0x3ff:
  ori x9, x6, 1023 # perform operation
    155c:	3ff36493          	ori	x9,x6,1023
  # Check if x9 contains the expected result. x12 is the signature ptr, x8 is the link ptr, x7 is a temp reg.
  RVTEST_SIGUPD(x12, x8, x7, x9, I_ori_cg_cr_rs1_imm_edges_rs1val_0x80000000_immval_0x3ff, I_ori_cg_cr_rs1_imm_edges_rs1val_0x80000000_immval_0x3ff_str)
    1560:	00062383          	lw	x7,0(x12)
    1564:	00938863          	beq	x7,x9,1574 <I_ori_cg_cr_rs1_imm_edges_rs1val_0x80000000_immval_0x3ff+0x18>
    1568:	74d0146f          	jal	x8,34b4 <failedtest_x8_x7>
    156c:	0000155c          	.word	0x0000155c
    1570:	0000ab43          	.word	0x0000ab43
    1574:	00460613          	addi	x12,x12,4

# Testcase cr_rs1_imm_edges (rs1 = 0x80000000, imm = 1024)
  RVTEST_TESTDATA_LOAD_INT(x1, x2) # load rs1: x2 = 0x80000000
    1578:	0000a103          	lw	x2,0(x1)
    157c:	00408093          	addi	x1,x1,4

00001580 <I_ori_cg_cr_rs1_imm_edges_rs1val_0x80000000_immval_0x400>:
I_ori_cg_cr_rs1_imm_edges_rs1val_0x80000000_immval_0x400:
  ori x18, x2, 1024 # perform operation
    1580:	40016913          	ori	x18,x2,1024
  # Check if x18 contains the expected result. x12 is the signature ptr, x8 is the link ptr, x7 is a temp reg.
  RVTEST_SIGUPD(x12, x8, x7, x18, I_ori_cg_cr_rs1_imm_edges_rs1val_0x80000000_immval_0x400, I_ori_cg_cr_rs1_imm_edges_rs1val_0x80000000_immval_0x400_str)
    1584:	00062383          	lw	x7,0(x12)
    1588:	01238863          	beq	x7,x18,1598 <I_ori_cg_cr_rs1_imm_edges_rs1val_0x80000000_immval_0x400+0x18>
    158c:	7290146f          	jal	x8,34b4 <failedtest_x8_x7>
    1590:	00001580          	.word	0x00001580
    1594:	0000ab99          	.word	0x0000ab99
    1598:	00460613          	addi	x12,x12,4

# Testcase cr_rs1_imm_edges (rs1 = 0x80000000, imm = 1795)
  RVTEST_TESTDATA_LOAD_INT(x1, x25) # load rs1: x25 = 0x80000000
    159c:	0000ac83          	lw	x25,0(x1)
    15a0:	00408093          	addi	x1,x1,4

000015a4 <I_ori_cg_cr_rs1_imm_edges_rs1val_0x80000000_immval_0x703>:
I_ori_cg_cr_rs1_imm_edges_rs1val_0x80000000_immval_0x703:
  ori x2, x25, 1795 # perform operation
    15a4:	703ce113          	ori	x2,x25,1795
  # Check if x2 contains the expected result. x12 is the signature ptr, x8 is the link ptr, x7 is a temp reg.
  RVTEST_SIGUPD(x12, x8, x7, x2, I_ori_cg_cr_rs1_imm_edges_rs1val_0x80000000_immval_0x703, I_ori_cg_cr_rs1_imm_edges_rs1val_0x80000000_immval_0x703_str)
    15a8:	00062383          	lw	x7,0(x12)
    15ac:	00238863          	beq	x7,x2,15bc <I_ori_cg_cr_rs1_imm_edges_rs1val_0x80000000_immval_0x703+0x18>
    15b0:	7050146f          	jal	x8,34b4 <failedtest_x8_x7>
    15b4:	000015a4          	.word	0x000015a4
    15b8:	0000abef          	.word	0x0000abef
    15bc:	00460613          	addi	x12,x12,4

# Testcase cr_rs1_imm_edges (rs1 = 0x80000000, imm = 2047)
  RVTEST_TESTDATA_LOAD_INT(x1, x20) # load rs1: x20 = 0x80000000
    15c0:	0000aa03          	lw	x20,0(x1)
    15c4:	00408093          	addi	x1,x1,4

000015c8 <I_ori_cg_cr_rs1_imm_edges_rs1val_0x80000000_immval_0x7ff>:
I_ori_cg_cr_rs1_imm_edges_rs1val_0x80000000_immval_0x7ff:
  ori x2, x20, 2047 # perform operation
    15c8:	7ffa6113          	ori	x2,x20,2047
  # Check if x2 contains the expected result. x12 is the signature ptr, x8 is the link ptr, x7 is a temp reg.
  RVTEST_SIGUPD(x12, x8, x7, x2, I_ori_cg_cr_rs1_imm_edges_rs1val_0x80000000_immval_0x7ff, I_ori_cg_cr_rs1_imm_edges_rs1val_0x80000000_immval_0x7ff_str)
    15cc:	00062383          	lw	x7,0(x12)
    15d0:	00238863          	beq	x7,x2,15e0 <I_ori_cg_cr_rs1_imm_edges_rs1val_0x80000000_immval_0x7ff+0x18>
    15d4:	6e10146f          	jal	x8,34b4 <failedtest_x8_x7>
    15d8:	000015c8          	.word	0x000015c8
    15dc:	0000ac45          	.word	0x0000ac45
    15e0:	00460613          	addi	x12,x12,4

# Testcase cr_rs1_imm_edges (rs1 = 0x80000000, imm = -2048)
  RVTEST_TESTDATA_LOAD_INT(x1, x3) # load rs1: x3 = 0x80000000
    15e4:	0000a183          	lw	x3,0(x1)
    15e8:	00408093          	addi	x1,x1,4

000015ec <I_ori_cg_cr_rs1_imm_edges_rs1val_0x80000000_immval_m0x800>:
I_ori_cg_cr_rs1_imm_edges_rs1val_0x80000000_immval_m0x800:
  ori x11, x3, -2048 # perform operation
    15ec:	8001e593          	ori	x11,x3,-2048
  # Check if x11 contains the expected result. x12 is the signature ptr, x8 is the link ptr, x7 is a temp reg.
  RVTEST_SIGUPD(x12, x8, x7, x11, I_ori_cg_cr_rs1_imm_edges_rs1val_0x80000000_immval_m0x800, I_ori_cg_cr_rs1_imm_edges_rs1val_0x80000000_immval_m0x800_str)
    15f0:	00062383          	lw	x7,0(x12)
    15f4:	00b38863          	beq	x7,x11,1604 <I_ori_cg_cr_rs1_imm_edges_rs1val_0x80000000_immval_m0x800+0x18>
    15f8:	6bd0146f          	jal	x8,34b4 <failedtest_x8_x7>
    15fc:	000015ec          	.word	0x000015ec
    1600:	0000ac9b          	.word	0x0000ac9b
    1604:	00460613          	addi	x12,x12,4

# Testcase cr_rs1_imm_edges (rs1 = 0x80000000, imm = -2047)
  RVTEST_TESTDATA_LOAD_INT(x1, x29) # load rs1: x29 = 0x80000000
    1608:	0000ae83          	lw	x29,0(x1)
    160c:	00408093          	addi	x1,x1,4

00001610 <I_ori_cg_cr_rs1_imm_edges_rs1val_0x80000000_immval_m0x7ff>:
I_ori_cg_cr_rs1_imm_edges_rs1val_0x80000000_immval_m0x7ff:
  ori x19, x29, -2047 # perform operation
    1610:	801ee993          	ori	x19,x29,-2047
  # Check if x19 contains the expected result. x12 is the signature ptr, x8 is the link ptr, x7 is a temp reg.
  RVTEST_SIGUPD(x12, x8, x7, x19, I_ori_cg_cr_rs1_imm_edges_rs1val_0x80000000_immval_m0x7ff, I_ori_cg_cr_rs1_imm_edges_rs1val_0x80000000_immval_m0x7ff_str)
    1614:	00062383          	lw	x7,0(x12)
    1618:	01338863          	beq	x7,x19,1628 <I_ori_cg_cr_rs1_imm_edges_rs1val_0x80000000_immval_m0x7ff+0x18>
    161c:	6990146f          	jal	x8,34b4 <failedtest_x8_x7>
    1620:	00001610          	.word	0x00001610
    1624:	0000acf2          	.word	0x0000acf2
    1628:	00460613          	addi	x12,x12,4

# Testcase cr_rs1_imm_edges (rs1 = 0x80000000, imm = -2)
  RVTEST_TESTDATA_LOAD_INT(x1, x3) # load rs1: x3 = 0x80000000
    162c:	0000a183          	lw	x3,0(x1)
    1630:	00408093          	addi	x1,x1,4

00001634 <I_ori_cg_cr_rs1_imm_edges_rs1val_0x80000000_immval_m0x2>:
I_ori_cg_cr_rs1_imm_edges_rs1val_0x80000000_immval_m0x2:
  ori x16, x3, -2 # perform operation
    1634:	ffe1e813          	ori	x16,x3,-2
  # Check if x16 contains the expected result. x12 is the signature ptr, x8 is the link ptr, x7 is a temp reg.
  RVTEST_SIGUPD(x12, x8, x7, x16, I_ori_cg_cr_rs1_imm_edges_rs1val_0x80000000_immval_m0x2, I_ori_cg_cr_rs1_imm_edges_rs1val_0x80000000_immval_m0x2_str)
    1638:	00062383          	lw	x7,0(x12)
    163c:	01038863          	beq	x7,x16,164c <I_ori_cg_cr_rs1_imm_edges_rs1val_0x80000000_immval_m0x2+0x18>
    1640:	6750146f          	jal	x8,34b4 <failedtest_x8_x7>
    1644:	00001634          	.word	0x00001634
    1648:	0000ad49          	.word	0x0000ad49
    164c:	00460613          	addi	x12,x12,4

# Testcase cr_rs1_imm_edges (rs1 = 0x80000000, imm = -1)
  RVTEST_TESTDATA_LOAD_INT(x1, x31) # load rs1: x31 = 0x80000000
    1650:	0000af83          	lw	x31,0(x1)
    1654:	00408093          	addi	x1,x1,4

00001658 <I_ori_cg_cr_rs1_imm_edges_rs1val_0x80000000_immval_m0x1>:
I_ori_cg_cr_rs1_imm_edges_rs1val_0x80000000_immval_m0x1:
  ori x10, x31, -1 # perform operation
    1658:	ffffe513          	ori	x10,x31,-1
  # Check if x10 contains the expected result. x12 is the signature ptr, x8 is the link ptr, x7 is a temp reg.
  RVTEST_SIGUPD(x12, x8, x7, x10, I_ori_cg_cr_rs1_imm_edges_rs1val_0x80000000_immval_m0x1, I_ori_cg_cr_rs1_imm_edges_rs1val_0x80000000_immval_m0x1_str)
    165c:	00062383          	lw	x7,0(x12)
    1660:	00a38863          	beq	x7,x10,1670 <I_ori_cg_cr_rs1_imm_edges_rs1val_0x80000000_immval_m0x1+0x18>
    1664:	6510146f          	jal	x8,34b4 <failedtest_x8_x7>
    1668:	00001658          	.word	0x00001658
    166c:	0000ad9e          	.word	0x0000ad9e
    1670:	00460613          	addi	x12,x12,4

# Testcase cr_rs1_imm_edges (rs1 = 0x80000001, imm = 0)
  RVTEST_TESTDATA_LOAD_INT(x1, x27) # load rs1: x27 = 0x80000001
    1674:	0000ad83          	lw	x27,0(x1)
    1678:	00408093          	addi	x1,x1,4

0000167c <I_ori_cg_cr_rs1_imm_edges_rs1val_0x80000001_immval_0x0>:
I_ori_cg_cr_rs1_imm_edges_rs1val_0x80000001_immval_0x0:
  ori x17, x27, 0 # perform operation
    167c:	000de893          	ori	x17,x27,0
  # Check if x17 contains the expected result. x12 is the signature ptr, x8 is the link ptr, x7 is a temp reg.
  RVTEST_SIGUPD(x12, x8, x7, x17, I_ori_cg_cr_rs1_imm_edges_rs1val_0x80000001_immval_0x0, I_ori_cg_cr_rs1_imm_edges_rs1val_0x80000001_immval_0x0_str)
    1680:	00062383          	lw	x7,0(x12)
    1684:	01138863          	beq	x7,x17,1694 <I_ori_cg_cr_rs1_imm_edges_rs1val_0x80000001_immval_0x0+0x18>
    1688:	62d0146f          	jal	x8,34b4 <failedtest_x8_x7>
    168c:	0000167c          	.word	0x0000167c
    1690:	0000adf3          	.word	0x0000adf3
    1694:	00460613          	addi	x12,x12,4

# Testcase cr_rs1_imm_edges (rs1 = 0x80000001, imm = 1)
  RVTEST_TESTDATA_LOAD_INT(x1, x19) # load rs1: x19 = 0x80000001
    1698:	0000a983          	lw	x19,0(x1)
    169c:	00408093          	addi	x1,x1,4

000016a0 <I_ori_cg_cr_rs1_imm_edges_rs1val_0x80000001_immval_0x1>:
I_ori_cg_cr_rs1_imm_edges_rs1val_0x80000001_immval_0x1:
  ori x27, x19, 1 # perform operation
    16a0:	0019ed93          	ori	x27,x19,1
  # Check if x27 contains the expected result. x12 is the signature ptr, x8 is the link ptr, x7 is a temp reg.
  RVTEST_SIGUPD(x12, x8, x7, x27, I_ori_cg_cr_rs1_imm_edges_rs1val_0x80000001_immval_0x1, I_ori_cg_cr_rs1_imm_edges_rs1val_0x80000001_immval_0x1_str)
    16a4:	00062383          	lw	x7,0(x12)
    16a8:	01b38863          	beq	x7,x27,16b8 <I_ori_cg_cr_rs1_imm_edges_rs1val_0x80000001_immval_0x1+0x18>
    16ac:	6090146f          	jal	x8,34b4 <failedtest_x8_x7>
    16b0:	000016a0          	.word	0x000016a0
    16b4:	0000ae47          	.word	0x0000ae47
    16b8:	00460613          	addi	x12,x12,4

# Testcase cr_rs1_imm_edges (rs1 = 0x80000001, imm = 2)
  RVTEST_TESTDATA_LOAD_INT(x1, x25) # load rs1: x25 = 0x80000001
    16bc:	0000ac83          	lw	x25,0(x1)
    16c0:	00408093          	addi	x1,x1,4

000016c4 <I_ori_cg_cr_rs1_imm_edges_rs1val_0x80000001_immval_0x2>:
I_ori_cg_cr_rs1_imm_edges_rs1val_0x80000001_immval_0x2:
  ori x30, x25, 2 # perform operation
    16c4:	002cef13          	ori	x30,x25,2
  # Check if x30 contains the expected result. x12 is the signature ptr, x8 is the link ptr, x7 is a temp reg.
  RVTEST_SIGUPD(x12, x8, x7, x30, I_ori_cg_cr_rs1_imm_edges_rs1val_0x80000001_immval_0x2, I_ori_cg_cr_rs1_imm_edges_rs1val_0x80000001_immval_0x2_str)
    16c8:	00062383          	lw	x7,0(x12)
    16cc:	01e38863          	beq	x7,x30,16dc <I_ori_cg_cr_rs1_imm_edges_rs1val_0x80000001_immval_0x2+0x18>
    16d0:	5e50146f          	jal	x8,34b4 <failedtest_x8_x7>
    16d4:	000016c4          	.word	0x000016c4
    16d8:	0000ae9b          	.word	0x0000ae9b
    16dc:	00460613          	addi	x12,x12,4

# Testcase cr_rs1_imm_edges (rs1 = 0x80000001, imm = 3)
  RVTEST_TESTDATA_LOAD_INT(x1, x19) # load rs1: x19 = 0x80000001
    16e0:	0000a983          	lw	x19,0(x1)
    16e4:	00408093          	addi	x1,x1,4

000016e8 <I_ori_cg_cr_rs1_imm_edges_rs1val_0x80000001_immval_0x3>:
I_ori_cg_cr_rs1_imm_edges_rs1val_0x80000001_immval_0x3:
  ori x5, x19, 3 # perform operation
    16e8:	0039e293          	ori	x5,x19,3
  # Check if x5 contains the expected result. x12 is the signature ptr, x8 is the link ptr, x7 is a temp reg.
  RVTEST_SIGUPD(x12, x8, x7, x5, I_ori_cg_cr_rs1_imm_edges_rs1val_0x80000001_immval_0x3, I_ori_cg_cr_rs1_imm_edges_rs1val_0x80000001_immval_0x3_str)
    16ec:	00062383          	lw	x7,0(x12)
    16f0:	00538863          	beq	x7,x5,1700 <I_ori_cg_cr_rs1_imm_edges_rs1val_0x80000001_immval_0x3+0x18>
    16f4:	5c10146f          	jal	x8,34b4 <failedtest_x8_x7>
    16f8:	000016e8          	.word	0x000016e8
    16fc:	0000aeef          	.word	0x0000aeef
    1700:	00460613          	addi	x12,x12,4

# Testcase cr_rs1_imm_edges (rs1 = 0x80000001, imm = 4)
  RVTEST_TESTDATA_LOAD_INT(x1, x2) # load rs1: x2 = 0x80000001
    1704:	0000a103          	lw	x2,0(x1)
    1708:	00408093          	addi	x1,x1,4

0000170c <I_ori_cg_cr_rs1_imm_edges_rs1val_0x80000001_immval_0x4>:
I_ori_cg_cr_rs1_imm_edges_rs1val_0x80000001_immval_0x4:
  ori x21, x2, 4 # perform operation
    170c:	00416a93          	ori	x21,x2,4
  # Check if x21 contains the expected result. x12 is the signature ptr, x8 is the link ptr, x7 is a temp reg.
  RVTEST_SIGUPD(x12, x8, x7, x21, I_ori_cg_cr_rs1_imm_edges_rs1val_0x80000001_immval_0x4, I_ori_cg_cr_rs1_imm_edges_rs1val_0x80000001_immval_0x4_str)
    1710:	00062383          	lw	x7,0(x12)
    1714:	01538863          	beq	x7,x21,1724 <I_ori_cg_cr_rs1_imm_edges_rs1val_0x80000001_immval_0x4+0x18>
    1718:	59d0146f          	jal	x8,34b4 <failedtest_x8_x7>
    171c:	0000170c          	.word	0x0000170c
    1720:	0000af43          	.word	0x0000af43
    1724:	00460613          	addi	x12,x12,4

# Testcase cr_rs1_imm_edges (rs1 = 0x80000001, imm = 8)
  RVTEST_TESTDATA_LOAD_INT(x1, x13) # load rs1: x13 = 0x80000001
    1728:	0000a683          	lw	x13,0(x1)
    172c:	00408093          	addi	x1,x1,4

00001730 <I_ori_cg_cr_rs1_imm_edges_rs1val_0x80000001_immval_0x8>:
I_ori_cg_cr_rs1_imm_edges_rs1val_0x80000001_immval_0x8:
  ori x14, x13, 8 # perform operation
    1730:	0086e713          	ori	x14,x13,8
  # Check if x14 contains the expected result. x12 is the signature ptr, x8 is the link ptr, x7 is a temp reg.
  RVTEST_SIGUPD(x12, x8, x7, x14, I_ori_cg_cr_rs1_imm_edges_rs1val_0x80000001_immval_0x8, I_ori_cg_cr_rs1_imm_edges_rs1val_0x80000001_immval_0x8_str)
    1734:	00062383          	lw	x7,0(x12)
    1738:	00e38863          	beq	x7,x14,1748 <I_ori_cg_cr_rs1_imm_edges_rs1val_0x80000001_immval_0x8+0x18>
    173c:	5790146f          	jal	x8,34b4 <failedtest_x8_x7>
    1740:	00001730          	.word	0x00001730
    1744:	0000af97          	.word	0x0000af97
    1748:	00460613          	addi	x12,x12,4

# Testcase cr_rs1_imm_edges (rs1 = 0x80000001, imm = 16)
  RVTEST_TESTDATA_LOAD_INT(x1, x15) # load rs1: x15 = 0x80000001
    174c:	0000a783          	lw	x15,0(x1)
    1750:	00408093          	addi	x1,x1,4

00001754 <I_ori_cg_cr_rs1_imm_edges_rs1val_0x80000001_immval_0x10>:
I_ori_cg_cr_rs1_imm_edges_rs1val_0x80000001_immval_0x10:
  ori x22, x15, 16 # perform operation
    1754:	0107eb13          	ori	x22,x15,16
  # Check if x22 contains the expected result. x12 is the signature ptr, x8 is the link ptr, x7 is a temp reg.
  RVTEST_SIGUPD(x12, x8, x7, x22, I_ori_cg_cr_rs1_imm_edges_rs1val_0x80000001_immval_0x10, I_ori_cg_cr_rs1_imm_edges_rs1val_0x80000001_immval_0x10_str)
    1758:	00062383          	lw	x7,0(x12)
    175c:	01638863          	beq	x7,x22,176c <I_ori_cg_cr_rs1_imm_edges_rs1val_0x80000001_immval_0x10+0x18>
    1760:	5550146f          	jal	x8,34b4 <failedtest_x8_x7>
    1764:	00001754          	.word	0x00001754
    1768:	0000afeb          	.word	0x0000afeb
    176c:	00460613          	addi	x12,x12,4

# Testcase cr_rs1_imm_edges (rs1 = 0x80000001, imm = 32)
  RVTEST_TESTDATA_LOAD_INT(x1, x2) # load rs1: x2 = 0x80000001
    1770:	0000a103          	lw	x2,0(x1)
    1774:	00408093          	addi	x1,x1,4

00001778 <I_ori_cg_cr_rs1_imm_edges_rs1val_0x80000001_immval_0x20>:
I_ori_cg_cr_rs1_imm_edges_rs1val_0x80000001_immval_0x20:
  ori x20, x2, 32 # perform operation
    1778:	02016a13          	ori	x20,x2,32
  # Check if x20 contains the expected result. x12 is the signature ptr, x8 is the link ptr, x7 is a temp reg.
  RVTEST_SIGUPD(x12, x8, x7, x20, I_ori_cg_cr_rs1_imm_edges_rs1val_0x80000001_immval_0x20, I_ori_cg_cr_rs1_imm_edges_rs1val_0x80000001_immval_0x20_str)
    177c:	00062383          	lw	x7,0(x12)
    1780:	01438863          	beq	x7,x20,1790 <I_ori_cg_cr_rs1_imm_edges_rs1val_0x80000001_immval_0x20+0x18>
    1784:	5310146f          	jal	x8,34b4 <failedtest_x8_x7>
    1788:	00001778          	.word	0x00001778
    178c:	0000b040          	.word	0x0000b040
    1790:	00460613          	addi	x12,x12,4

# Testcase cr_rs1_imm_edges (rs1 = 0x80000001, imm = 64)
  RVTEST_TESTDATA_LOAD_INT(x1, x10) # load rs1: x10 = 0x80000001
    1794:	0000a503          	lw	x10,0(x1)
    1798:	00408093          	addi	x1,x1,4

0000179c <I_ori_cg_cr_rs1_imm_edges_rs1val_0x80000001_immval_0x40>:
I_ori_cg_cr_rs1_imm_edges_rs1val_0x80000001_immval_0x40:
  ori x23, x10, 64 # perform operation
    179c:	04056b93          	ori	x23,x10,64
  # Check if x23 contains the expected result. x12 is the signature ptr, x8 is the link ptr, x7 is a temp reg.
  RVTEST_SIGUPD(x12, x8, x7, x23, I_ori_cg_cr_rs1_imm_edges_rs1val_0x80000001_immval_0x40, I_ori_cg_cr_rs1_imm_edges_rs1val_0x80000001_immval_0x40_str)
    17a0:	00062383          	lw	x7,0(x12)
    17a4:	01738863          	beq	x7,x23,17b4 <I_ori_cg_cr_rs1_imm_edges_rs1val_0x80000001_immval_0x40+0x18>
    17a8:	50d0146f          	jal	x8,34b4 <failedtest_x8_x7>
    17ac:	0000179c          	.word	0x0000179c
    17b0:	0000b095          	.word	0x0000b095
    17b4:	00460613          	addi	x12,x12,4

# Testcase cr_rs1_imm_edges (rs1 = 0x80000001, imm = 128)
  RVTEST_TESTDATA_LOAD_INT(x1, x30) # load rs1: x30 = 0x80000001
    17b8:	0000af03          	lw	x30,0(x1)
    17bc:	00408093          	addi	x1,x1,4

000017c0 <I_ori_cg_cr_rs1_imm_edges_rs1val_0x80000001_immval_0x80>:
I_ori_cg_cr_rs1_imm_edges_rs1val_0x80000001_immval_0x80:
  ori x6, x30, 128 # perform operation
    17c0:	080f6313          	ori	x6,x30,128
  # Check if x6 contains the expected result. x12 is the signature ptr, x8 is the link ptr, x7 is a temp reg.
  RVTEST_SIGUPD(x12, x8, x7, x6, I_ori_cg_cr_rs1_imm_edges_rs1val_0x80000001_immval_0x80, I_ori_cg_cr_rs1_imm_edges_rs1val_0x80000001_immval_0x80_str)
    17c4:	00062383          	lw	x7,0(x12)
    17c8:	00638863          	beq	x7,x6,17d8 <I_ori_cg_cr_rs1_imm_edges_rs1val_0x80000001_immval_0x80+0x18>
    17cc:	4e90146f          	jal	x8,34b4 <failedtest_x8_x7>
    17d0:	000017c0          	.word	0x000017c0
    17d4:	0000b0ea          	.word	0x0000b0ea
    17d8:	00460613          	addi	x12,x12,4

# Testcase cr_rs1_imm_edges (rs1 = 0x80000001, imm = 256)
  RVTEST_TESTDATA_LOAD_INT(x1, x6) # load rs1: x6 = 0x80000001
    17dc:	0000a303          	lw	x6,0(x1)
    17e0:	00408093          	addi	x1,x1,4

000017e4 <I_ori_cg_cr_rs1_imm_edges_rs1val_0x80000001_immval_0x100>:
I_ori_cg_cr_rs1_imm_edges_rs1val_0x80000001_immval_0x100:
  ori x21, x6, 256 # perform operation
    17e4:	10036a93          	ori	x21,x6,256
  # Check if x21 contains the expected result. x12 is the signature ptr, x8 is the link ptr, x7 is a temp reg.
  RVTEST_SIGUPD(x12, x8, x7, x21, I_ori_cg_cr_rs1_imm_edges_rs1val_0x80000001_immval_0x100, I_ori_cg_cr_rs1_imm_edges_rs1val_0x80000001_immval_0x100_str)
    17e8:	00062383          	lw	x7,0(x12)
    17ec:	01538863          	beq	x7,x21,17fc <I_ori_cg_cr_rs1_imm_edges_rs1val_0x80000001_immval_0x100+0x18>
    17f0:	4c50146f          	jal	x8,34b4 <failedtest_x8_x7>
    17f4:	000017e4          	.word	0x000017e4
    17f8:	0000b13f          	.word	0x0000b13f
    17fc:	00460613          	addi	x12,x12,4

# Testcase cr_rs1_imm_edges (rs1 = 0x80000001, imm = 512)
  RVTEST_TESTDATA_LOAD_INT(x1, x14) # load rs1: x14 = 0x80000001
    1800:	0000a703          	lw	x14,0(x1)
    1804:	00408093          	addi	x1,x1,4

00001808 <I_ori_cg_cr_rs1_imm_edges_rs1val_0x80000001_immval_0x200>:
I_ori_cg_cr_rs1_imm_edges_rs1val_0x80000001_immval_0x200:
  ori x22, x14, 512 # perform operation
    1808:	20076b13          	ori	x22,x14,512
  # Check if x22 contains the expected result. x12 is the signature ptr, x8 is the link ptr, x7 is a temp reg.
  RVTEST_SIGUPD(x12, x8, x7, x22, I_ori_cg_cr_rs1_imm_edges_rs1val_0x80000001_immval_0x200, I_ori_cg_cr_rs1_imm_edges_rs1val_0x80000001_immval_0x200_str)
    180c:	00062383          	lw	x7,0(x12)
    1810:	01638863          	beq	x7,x22,1820 <I_ori_cg_cr_rs1_imm_edges_rs1val_0x80000001_immval_0x200+0x18>
    1814:	4a10146f          	jal	x8,34b4 <failedtest_x8_x7>
    1818:	00001808          	.word	0x00001808
    181c:	0000b195          	.word	0x0000b195
    1820:	00460613          	addi	x12,x12,4

# Testcase cr_rs1_imm_edges (rs1 = 0x80000001, imm = 1023)
  RVTEST_TESTDATA_LOAD_INT(x1, x15) # load rs1: x15 = 0x80000001
    1824:	0000a783          	lw	x15,0(x1)
    1828:	00408093          	addi	x1,x1,4

0000182c <I_ori_cg_cr_rs1_imm_edges_rs1val_0x80000001_immval_0x3ff>:
I_ori_cg_cr_rs1_imm_edges_rs1val_0x80000001_immval_0x3ff:
  ori x25, x15, 1023 # perform operation
    182c:	3ff7ec93          	ori	x25,x15,1023
  # Check if x25 contains the expected result. x12 is the signature ptr, x8 is the link ptr, x7 is a temp reg.
  RVTEST_SIGUPD(x12, x8, x7, x25, I_ori_cg_cr_rs1_imm_edges_rs1val_0x80000001_immval_0x3ff, I_ori_cg_cr_rs1_imm_edges_rs1val_0x80000001_immval_0x3ff_str)
    1830:	00062383          	lw	x7,0(x12)
    1834:	01938863          	beq	x7,x25,1844 <I_ori_cg_cr_rs1_imm_edges_rs1val_0x80000001_immval_0x3ff+0x18>
    1838:	47d0146f          	jal	x8,34b4 <failedtest_x8_x7>
    183c:	0000182c          	.word	0x0000182c
    1840:	0000b1eb          	.word	0x0000b1eb
    1844:	00460613          	addi	x12,x12,4

# Testcase cr_rs1_imm_edges (rs1 = 0x80000001, imm = 1024)
  RVTEST_TESTDATA_LOAD_INT(x1, x14) # load rs1: x14 = 0x80000001
    1848:	0000a703          	lw	x14,0(x1)
    184c:	00408093          	addi	x1,x1,4

00001850 <I_ori_cg_cr_rs1_imm_edges_rs1val_0x80000001_immval_0x400>:
I_ori_cg_cr_rs1_imm_edges_rs1val_0x80000001_immval_0x400:
  ori x3, x14, 1024 # perform operation
    1850:	40076193          	ori	x3,x14,1024
  # Check if x3 contains the expected result. x12 is the signature ptr, x8 is the link ptr, x7 is a temp reg.
  RVTEST_SIGUPD(x12, x8, x7, x3, I_ori_cg_cr_rs1_imm_edges_rs1val_0x80000001_immval_0x400, I_ori_cg_cr_rs1_imm_edges_rs1val_0x80000001_immval_0x400_str)
    1854:	00062383          	lw	x7,0(x12)
    1858:	00338863          	beq	x7,x3,1868 <I_ori_cg_cr_rs1_imm_edges_rs1val_0x80000001_immval_0x400+0x18>
    185c:	4590146f          	jal	x8,34b4 <failedtest_x8_x7>
    1860:	00001850          	.word	0x00001850
    1864:	0000b241          	.word	0x0000b241
    1868:	00460613          	addi	x12,x12,4

# Testcase cr_rs1_imm_edges (rs1 = 0x80000001, imm = 1795)
  RVTEST_TESTDATA_LOAD_INT(x1, x17) # load rs1: x17 = 0x80000001
    186c:	0000a883          	lw	x17,0(x1)
    1870:	00408093          	addi	x1,x1,4

00001874 <I_ori_cg_cr_rs1_imm_edges_rs1val_0x80000001_immval_0x703>:
I_ori_cg_cr_rs1_imm_edges_rs1val_0x80000001_immval_0x703:
  ori x9, x17, 1795 # perform operation
    1874:	7038e493          	ori	x9,x17,1795
  # Check if x9 contains the expected result. x12 is the signature ptr, x8 is the link ptr, x7 is a temp reg.
  RVTEST_SIGUPD(x12, x8, x7, x9, I_ori_cg_cr_rs1_imm_edges_rs1val_0x80000001_immval_0x703, I_ori_cg_cr_rs1_imm_edges_rs1val_0x80000001_immval_0x703_str)
    1878:	00062383          	lw	x7,0(x12)
    187c:	00938863          	beq	x7,x9,188c <I_ori_cg_cr_rs1_imm_edges_rs1val_0x80000001_immval_0x703+0x18>
    1880:	4350146f          	jal	x8,34b4 <failedtest_x8_x7>
    1884:	00001874          	.word	0x00001874
    1888:	0000b297          	.word	0x0000b297
    188c:	00460613          	addi	x12,x12,4

# Testcase cr_rs1_imm_edges (rs1 = 0x80000001, imm = 2047)
  RVTEST_TESTDATA_LOAD_INT(x1, x9) # load rs1: x9 = 0x80000001
    1890:	0000a483          	lw	x9,0(x1)
    1894:	00408093          	addi	x1,x1,4

00001898 <I_ori_cg_cr_rs1_imm_edges_rs1val_0x80000001_immval_0x7ff>:
I_ori_cg_cr_rs1_imm_edges_rs1val_0x80000001_immval_0x7ff:
  ori x25, x9, 2047 # perform operation
    1898:	7ff4ec93          	ori	x25,x9,2047
  # Check if x25 contains the expected result. x12 is the signature ptr, x8 is the link ptr, x7 is a temp reg.
  RVTEST_SIGUPD(x12, x8, x7, x25, I_ori_cg_cr_rs1_imm_edges_rs1val_0x80000001_immval_0x7ff, I_ori_cg_cr_rs1_imm_edges_rs1val_0x80000001_immval_0x7ff_str)
    189c:	00062383          	lw	x7,0(x12)
    18a0:	01938863          	beq	x7,x25,18b0 <I_ori_cg_cr_rs1_imm_edges_rs1val_0x80000001_immval_0x7ff+0x18>
    18a4:	4110146f          	jal	x8,34b4 <failedtest_x8_x7>
    18a8:	00001898          	.word	0x00001898
    18ac:	0000b2ed          	.word	0x0000b2ed
    18b0:	00460613          	addi	x12,x12,4

# Testcase cr_rs1_imm_edges (rs1 = 0x80000001, imm = -2048)
  RVTEST_TESTDATA_LOAD_INT(x1, x21) # load rs1: x21 = 0x80000001
    18b4:	0000aa83          	lw	x21,0(x1)
    18b8:	00408093          	addi	x1,x1,4

000018bc <I_ori_cg_cr_rs1_imm_edges_rs1val_0x80000001_immval_m0x800>:
I_ori_cg_cr_rs1_imm_edges_rs1val_0x80000001_immval_m0x800:
  ori x18, x21, -2048 # perform operation
    18bc:	800ae913          	ori	x18,x21,-2048
  # Check if x18 contains the expected result. x12 is the signature ptr, x8 is the link ptr, x7 is a temp reg.
  RVTEST_SIGUPD(x12, x8, x7, x18, I_ori_cg_cr_rs1_imm_edges_rs1val_0x80000001_immval_m0x800, I_ori_cg_cr_rs1_imm_edges_rs1val_0x80000001_immval_m0x800_str)
    18c0:	00062383          	lw	x7,0(x12)
    18c4:	01238863          	beq	x7,x18,18d4 <I_ori_cg_cr_rs1_imm_edges_rs1val_0x80000001_immval_m0x800+0x18>
    18c8:	3ed0146f          	jal	x8,34b4 <failedtest_x8_x7>
    18cc:	000018bc          	.word	0x000018bc
    18d0:	0000b343          	.word	0x0000b343
    18d4:	00460613          	addi	x12,x12,4

# Testcase cr_rs1_imm_edges (rs1 = 0x80000001, imm = -2047)
  RVTEST_TESTDATA_LOAD_INT(x1, x24) # load rs1: x24 = 0x80000001
    18d8:	0000ac03          	lw	x24,0(x1)
    18dc:	00408093          	addi	x1,x1,4

000018e0 <I_ori_cg_cr_rs1_imm_edges_rs1val_0x80000001_immval_m0x7ff>:
I_ori_cg_cr_rs1_imm_edges_rs1val_0x80000001_immval_m0x7ff:
  ori x20, x24, -2047 # perform operation
    18e0:	801c6a13          	ori	x20,x24,-2047
  # Check if x20 contains the expected result. x12 is the signature ptr, x8 is the link ptr, x7 is a temp reg.
  RVTEST_SIGUPD(x12, x8, x7, x20, I_ori_cg_cr_rs1_imm_edges_rs1val_0x80000001_immval_m0x7ff, I_ori_cg_cr_rs1_imm_edges_rs1val_0x80000001_immval_m0x7ff_str)
    18e4:	00062383          	lw	x7,0(x12)
    18e8:	01438863          	beq	x7,x20,18f8 <I_ori_cg_cr_rs1_imm_edges_rs1val_0x80000001_immval_m0x7ff+0x18>
    18ec:	3c90146f          	jal	x8,34b4 <failedtest_x8_x7>
    18f0:	000018e0          	.word	0x000018e0
    18f4:	0000b39a          	.word	0x0000b39a
    18f8:	00460613          	addi	x12,x12,4

# Testcase cr_rs1_imm_edges (rs1 = 0x80000001, imm = -2)
  RVTEST_TESTDATA_LOAD_INT(x1, x9) # load rs1: x9 = 0x80000001
    18fc:	0000a483          	lw	x9,0(x1)
    1900:	00408093          	addi	x1,x1,4

00001904 <I_ori_cg_cr_rs1_imm_edges_rs1val_0x80000001_immval_m0x2>:
I_ori_cg_cr_rs1_imm_edges_rs1val_0x80000001_immval_m0x2:
  ori x5, x9, -2 # perform operation
    1904:	ffe4e293          	ori	x5,x9,-2
  # Check if x5 contains the expected result. x12 is the signature ptr, x8 is the link ptr, x7 is a temp reg.
  RVTEST_SIGUPD(x12, x8, x7, x5, I_ori_cg_cr_rs1_imm_edges_rs1val_0x80000001_immval_m0x2, I_ori_cg_cr_rs1_imm_edges_rs1val_0x80000001_immval_m0x2_str)
    1908:	00062383          	lw	x7,0(x12)
    190c:	00538863          	beq	x7,x5,191c <I_ori_cg_cr_rs1_imm_edges_rs1val_0x80000001_immval_m0x2+0x18>
    1910:	3a50146f          	jal	x8,34b4 <failedtest_x8_x7>
    1914:	00001904          	.word	0x00001904
    1918:	0000b3f1          	.word	0x0000b3f1
    191c:	00460613          	addi	x12,x12,4

# Testcase cr_rs1_imm_edges (rs1 = 0x80000001, imm = -1)
  RVTEST_TESTDATA_LOAD_INT(x1, x17) # load rs1: x17 = 0x80000001
    1920:	0000a883          	lw	x17,0(x1)
    1924:	00408093          	addi	x1,x1,4

00001928 <I_ori_cg_cr_rs1_imm_edges_rs1val_0x80000001_immval_m0x1>:
I_ori_cg_cr_rs1_imm_edges_rs1val_0x80000001_immval_m0x1:
  ori x14, x17, -1 # perform operation
    1928:	fff8e713          	ori	x14,x17,-1
  # Check if x14 contains the expected result. x12 is the signature ptr, x8 is the link ptr, x7 is a temp reg.
  RVTEST_SIGUPD(x12, x8, x7, x14, I_ori_cg_cr_rs1_imm_edges_rs1val_0x80000001_immval_m0x1, I_ori_cg_cr_rs1_imm_edges_rs1val_0x80000001_immval_m0x1_str)
    192c:	00062383          	lw	x7,0(x12)
    1930:	00e38863          	beq	x7,x14,1940 <I_ori_cg_cr_rs1_imm_edges_rs1val_0x80000001_immval_m0x1+0x18>
    1934:	3810146f          	jal	x8,34b4 <failedtest_x8_x7>
    1938:	00001928          	.word	0x00001928
    193c:	0000b446          	.word	0x0000b446
    1940:	00460613          	addi	x12,x12,4

# Testcase cr_rs1_imm_edges (rs1 = 0x7fffffff, imm = 0)
  RVTEST_TESTDATA_LOAD_INT(x1, x30) # load rs1: x30 = 0x7fffffff
    1944:	0000af03          	lw	x30,0(x1)
    1948:	00408093          	addi	x1,x1,4

0000194c <I_ori_cg_cr_rs1_imm_edges_rs1val_0x7fffffff_immval_0x0>:
I_ori_cg_cr_rs1_imm_edges_rs1val_0x7fffffff_immval_0x0:
  ori x29, x30, 0 # perform operation
    194c:	000f6e93          	ori	x29,x30,0
  # Check if x29 contains the expected result. x12 is the signature ptr, x8 is the link ptr, x7 is a temp reg.
  RVTEST_SIGUPD(x12, x8, x7, x29, I_ori_cg_cr_rs1_imm_edges_rs1val_0x7fffffff_immval_0x0, I_ori_cg_cr_rs1_imm_edges_rs1val_0x7fffffff_immval_0x0_str)
    1950:	00062383          	lw	x7,0(x12)
    1954:	01d38863          	beq	x7,x29,1964 <I_ori_cg_cr_rs1_imm_edges_rs1val_0x7fffffff_immval_0x0+0x18>
    1958:	35d0146f          	jal	x8,34b4 <failedtest_x8_x7>
    195c:	0000194c          	.word	0x0000194c
    1960:	0000b49b          	.word	0x0000b49b
    1964:	00460613          	addi	x12,x12,4

# Testcase cr_rs1_imm_edges (rs1 = 0x7fffffff, imm = 1)
  RVTEST_TESTDATA_LOAD_INT(x1, x9) # load rs1: x9 = 0x7fffffff
    1968:	0000a483          	lw	x9,0(x1)
    196c:	00408093          	addi	x1,x1,4

00001970 <I_ori_cg_cr_rs1_imm_edges_rs1val_0x7fffffff_immval_0x1>:
I_ori_cg_cr_rs1_imm_edges_rs1val_0x7fffffff_immval_0x1:
  ori x25, x9, 1 # perform operation
    1970:	0014ec93          	ori	x25,x9,1
  # Check if x25 contains the expected result. x12 is the signature ptr, x8 is the link ptr, x7 is a temp reg.
  RVTEST_SIGUPD(x12, x8, x7, x25, I_ori_cg_cr_rs1_imm_edges_rs1val_0x7fffffff_immval_0x1, I_ori_cg_cr_rs1_imm_edges_rs1val_0x7fffffff_immval_0x1_str)
    1974:	00062383          	lw	x7,0(x12)
    1978:	01938863          	beq	x7,x25,1988 <I_ori_cg_cr_rs1_imm_edges_rs1val_0x7fffffff_immval_0x1+0x18>
    197c:	3390146f          	jal	x8,34b4 <failedtest_x8_x7>
    1980:	00001970          	.word	0x00001970
    1984:	0000b4ef          	.word	0x0000b4ef
    1988:	00460613          	addi	x12,x12,4

# Testcase cr_rs1_imm_edges (rs1 = 0x7fffffff, imm = 2)
  RVTEST_TESTDATA_LOAD_INT(x1, x28) # load rs1: x28 = 0x7fffffff
    198c:	0000ae03          	lw	x28,0(x1)
    1990:	00408093          	addi	x1,x1,4

00001994 <I_ori_cg_cr_rs1_imm_edges_rs1val_0x7fffffff_immval_0x2>:
I_ori_cg_cr_rs1_imm_edges_rs1val_0x7fffffff_immval_0x2:
  ori x13, x28, 2 # perform operation
    1994:	002e6693          	ori	x13,x28,2
  # Check if x13 contains the expected result. x12 is the signature ptr, x8 is the link ptr, x7 is a temp reg.
  RVTEST_SIGUPD(x12, x8, x7, x13, I_ori_cg_cr_rs1_imm_edges_rs1val_0x7fffffff_immval_0x2, I_ori_cg_cr_rs1_imm_edges_rs1val_0x7fffffff_immval_0x2_str)
    1998:	00062383          	lw	x7,0(x12)
    199c:	00d38863          	beq	x7,x13,19ac <I_ori_cg_cr_rs1_imm_edges_rs1val_0x7fffffff_immval_0x2+0x18>
    19a0:	3150146f          	jal	x8,34b4 <failedtest_x8_x7>
    19a4:	00001994          	.word	0x00001994
    19a8:	0000b543          	.word	0x0000b543
    19ac:	00460613          	addi	x12,x12,4

# Testcase cr_rs1_imm_edges (rs1 = 0x7fffffff, imm = 3)
  RVTEST_TESTDATA_LOAD_INT(x1, x15) # load rs1: x15 = 0x7fffffff
    19b0:	0000a783          	lw	x15,0(x1)
    19b4:	00408093          	addi	x1,x1,4

000019b8 <I_ori_cg_cr_rs1_imm_edges_rs1val_0x7fffffff_immval_0x3>:
I_ori_cg_cr_rs1_imm_edges_rs1val_0x7fffffff_immval_0x3:
  ori x28, x15, 3 # perform operation
    19b8:	0037ee13          	ori	x28,x15,3
  # Check if x28 contains the expected result. x12 is the signature ptr, x8 is the link ptr, x7 is a temp reg.
  RVTEST_SIGUPD(x12, x8, x7, x28, I_ori_cg_cr_rs1_imm_edges_rs1val_0x7fffffff_immval_0x3, I_ori_cg_cr_rs1_imm_edges_rs1val_0x7fffffff_immval_0x3_str)
    19bc:	00062383          	lw	x7,0(x12)
    19c0:	01c38863          	beq	x7,x28,19d0 <I_ori_cg_cr_rs1_imm_edges_rs1val_0x7fffffff_immval_0x3+0x18>
    19c4:	2f10146f          	jal	x8,34b4 <failedtest_x8_x7>
    19c8:	000019b8          	.word	0x000019b8
    19cc:	0000b597          	.word	0x0000b597
    19d0:	00460613          	addi	x12,x12,4

# Testcase cr_rs1_imm_edges (rs1 = 0x7fffffff, imm = 4)
  RVTEST_TESTDATA_LOAD_INT(x1, x9) # load rs1: x9 = 0x7fffffff
    19d4:	0000a483          	lw	x9,0(x1)
    19d8:	00408093          	addi	x1,x1,4

000019dc <I_ori_cg_cr_rs1_imm_edges_rs1val_0x7fffffff_immval_0x4>:
I_ori_cg_cr_rs1_imm_edges_rs1val_0x7fffffff_immval_0x4:
  ori x22, x9, 4 # perform operation
    19dc:	0044eb13          	ori	x22,x9,4
  # Check if x22 contains the expected result. x12 is the signature ptr, x8 is the link ptr, x7 is a temp reg.
  RVTEST_SIGUPD(x12, x8, x7, x22, I_ori_cg_cr_rs1_imm_edges_rs1val_0x7fffffff_immval_0x4, I_ori_cg_cr_rs1_imm_edges_rs1val_0x7fffffff_immval_0x4_str)
    19e0:	00062383          	lw	x7,0(x12)
    19e4:	01638863          	beq	x7,x22,19f4 <I_ori_cg_cr_rs1_imm_edges_rs1val_0x7fffffff_immval_0x4+0x18>
    19e8:	2cd0146f          	jal	x8,34b4 <failedtest_x8_x7>
    19ec:	000019dc          	.word	0x000019dc
    19f0:	0000b5eb          	.word	0x0000b5eb
    19f4:	00460613          	addi	x12,x12,4

# Testcase cr_rs1_imm_edges (rs1 = 0x7fffffff, imm = 8)
  RVTEST_TESTDATA_LOAD_INT(x1, x29) # load rs1: x29 = 0x7fffffff
    19f8:	0000ae83          	lw	x29,0(x1)
    19fc:	00408093          	addi	x1,x1,4

00001a00 <I_ori_cg_cr_rs1_imm_edges_rs1val_0x7fffffff_immval_0x8>:
I_ori_cg_cr_rs1_imm_edges_rs1val_0x7fffffff_immval_0x8:
  ori x20, x29, 8 # perform operation
    1a00:	008eea13          	ori	x20,x29,8
  # Check if x20 contains the expected result. x12 is the signature ptr, x8 is the link ptr, x7 is a temp reg.
  RVTEST_SIGUPD(x12, x8, x7, x20, I_ori_cg_cr_rs1_imm_edges_rs1val_0x7fffffff_immval_0x8, I_ori_cg_cr_rs1_imm_edges_rs1val_0x7fffffff_immval_0x8_str)
    1a04:	00062383          	lw	x7,0(x12)
    1a08:	01438863          	beq	x7,x20,1a18 <I_ori_cg_cr_rs1_imm_edges_rs1val_0x7fffffff_immval_0x8+0x18>
    1a0c:	2a90146f          	jal	x8,34b4 <failedtest_x8_x7>
    1a10:	00001a00          	.word	0x00001a00
    1a14:	0000b63f          	.word	0x0000b63f
    1a18:	00460613          	addi	x12,x12,4

# Testcase cr_rs1_imm_edges (rs1 = 0x7fffffff, imm = 16)
  RVTEST_TESTDATA_LOAD_INT(x1, x23) # load rs1: x23 = 0x7fffffff
    1a1c:	0000ab83          	lw	x23,0(x1)
    1a20:	00408093          	addi	x1,x1,4

00001a24 <I_ori_cg_cr_rs1_imm_edges_rs1val_0x7fffffff_immval_0x10>:
I_ori_cg_cr_rs1_imm_edges_rs1val_0x7fffffff_immval_0x10:
  ori x9, x23, 16 # perform operation
    1a24:	010be493          	ori	x9,x23,16
  # Check if x9 contains the expected result. x12 is the signature ptr, x8 is the link ptr, x7 is a temp reg.
  RVTEST_SIGUPD(x12, x8, x7, x9, I_ori_cg_cr_rs1_imm_edges_rs1val_0x7fffffff_immval_0x10, I_ori_cg_cr_rs1_imm_edges_rs1val_0x7fffffff_immval_0x10_str)
    1a28:	00062383          	lw	x7,0(x12)
    1a2c:	00938863          	beq	x7,x9,1a3c <I_ori_cg_cr_rs1_imm_edges_rs1val_0x7fffffff_immval_0x10+0x18>
    1a30:	2850146f          	jal	x8,34b4 <failedtest_x8_x7>
    1a34:	00001a24          	.word	0x00001a24
    1a38:	0000b693          	.word	0x0000b693
    1a3c:	00460613          	addi	x12,x12,4

# Testcase cr_rs1_imm_edges (rs1 = 0x7fffffff, imm = 32)
  RVTEST_TESTDATA_LOAD_INT(x1, x11) # load rs1: x11 = 0x7fffffff
    1a40:	0000a583          	lw	x11,0(x1)
    1a44:	00408093          	addi	x1,x1,4

00001a48 <I_ori_cg_cr_rs1_imm_edges_rs1val_0x7fffffff_immval_0x20>:
I_ori_cg_cr_rs1_imm_edges_rs1val_0x7fffffff_immval_0x20:
  ori x27, x11, 32 # perform operation
    1a48:	0205ed93          	ori	x27,x11,32
  # Check if x27 contains the expected result. x12 is the signature ptr, x8 is the link ptr, x7 is a temp reg.
  RVTEST_SIGUPD(x12, x8, x7, x27, I_ori_cg_cr_rs1_imm_edges_rs1val_0x7fffffff_immval_0x20, I_ori_cg_cr_rs1_imm_edges_rs1val_0x7fffffff_immval_0x20_str)
    1a4c:	00062383          	lw	x7,0(x12)
    1a50:	01b38863          	beq	x7,x27,1a60 <I_ori_cg_cr_rs1_imm_edges_rs1val_0x7fffffff_immval_0x20+0x18>
    1a54:	2610146f          	jal	x8,34b4 <failedtest_x8_x7>
    1a58:	00001a48          	.word	0x00001a48
    1a5c:	0000b6e8          	.word	0x0000b6e8
    1a60:	00460613          	addi	x12,x12,4

# Testcase cr_rs1_imm_edges (rs1 = 0x7fffffff, imm = 64)
  RVTEST_TESTDATA_LOAD_INT(x1, x29) # load rs1: x29 = 0x7fffffff
    1a64:	0000ae83          	lw	x29,0(x1)
    1a68:	00408093          	addi	x1,x1,4

00001a6c <I_ori_cg_cr_rs1_imm_edges_rs1val_0x7fffffff_immval_0x40>:
I_ori_cg_cr_rs1_imm_edges_rs1val_0x7fffffff_immval_0x40:
  ori x2, x29, 64 # perform operation
    1a6c:	040ee113          	ori	x2,x29,64
  # Check if x2 contains the expected result. x12 is the signature ptr, x8 is the link ptr, x7 is a temp reg.
  RVTEST_SIGUPD(x12, x8, x7, x2, I_ori_cg_cr_rs1_imm_edges_rs1val_0x7fffffff_immval_0x40, I_ori_cg_cr_rs1_imm_edges_rs1val_0x7fffffff_immval_0x40_str)
    1a70:	00062383          	lw	x7,0(x12)
    1a74:	00238863          	beq	x7,x2,1a84 <I_ori_cg_cr_rs1_imm_edges_rs1val_0x7fffffff_immval_0x40+0x18>
    1a78:	23d0146f          	jal	x8,34b4 <failedtest_x8_x7>
    1a7c:	00001a6c          	.word	0x00001a6c
    1a80:	0000b73d          	.word	0x0000b73d
    1a84:	00460613          	addi	x12,x12,4

# Testcase cr_rs1_imm_edges (rs1 = 0x7fffffff, imm = 128)
  RVTEST_TESTDATA_LOAD_INT(x1, x11) # load rs1: x11 = 0x7fffffff
    1a88:	0000a583          	lw	x11,0(x1)
    1a8c:	00408093          	addi	x1,x1,4

00001a90 <I_ori_cg_cr_rs1_imm_edges_rs1val_0x7fffffff_immval_0x80>:
I_ori_cg_cr_rs1_imm_edges_rs1val_0x7fffffff_immval_0x80:
  ori x14, x11, 128 # perform operation
    1a90:	0805e713          	ori	x14,x11,128
  # Check if x14 contains the expected result. x12 is the signature ptr, x8 is the link ptr, x7 is a temp reg.
  RVTEST_SIGUPD(x12, x8, x7, x14, I_ori_cg_cr_rs1_imm_edges_rs1val_0x7fffffff_immval_0x80, I_ori_cg_cr_rs1_imm_edges_rs1val_0x7fffffff_immval_0x80_str)
    1a94:	00062383          	lw	x7,0(x12)
    1a98:	00e38863          	beq	x7,x14,1aa8 <I_ori_cg_cr_rs1_imm_edges_rs1val_0x7fffffff_immval_0x80+0x18>
    1a9c:	2190146f          	jal	x8,34b4 <failedtest_x8_x7>
    1aa0:	00001a90          	.word	0x00001a90
    1aa4:	0000b792          	.word	0x0000b792
    1aa8:	00460613          	addi	x12,x12,4

# Testcase cr_rs1_imm_edges (rs1 = 0x7fffffff, imm = 256)
  RVTEST_TESTDATA_LOAD_INT(x1, x4) # load rs1: x4 = 0x7fffffff
    1aac:	0000a203          	lw	x4,0(x1)
    1ab0:	00408093          	addi	x1,x1,4

00001ab4 <I_ori_cg_cr_rs1_imm_edges_rs1val_0x7fffffff_immval_0x100>:
I_ori_cg_cr_rs1_imm_edges_rs1val_0x7fffffff_immval_0x100:
  ori x30, x4, 256 # perform operation
    1ab4:	10026f13          	ori	x30,x4,256
  # Check if x30 contains the expected result. x12 is the signature ptr, x8 is the link ptr, x7 is a temp reg.
  RVTEST_SIGUPD(x12, x8, x7, x30, I_ori_cg_cr_rs1_imm_edges_rs1val_0x7fffffff_immval_0x100, I_ori_cg_cr_rs1_imm_edges_rs1val_0x7fffffff_immval_0x100_str)
    1ab8:	00062383          	lw	x7,0(x12)
    1abc:	01e38863          	beq	x7,x30,1acc <I_ori_cg_cr_rs1_imm_edges_rs1val_0x7fffffff_immval_0x100+0x18>
    1ac0:	1f50146f          	jal	x8,34b4 <failedtest_x8_x7>
    1ac4:	00001ab4          	.word	0x00001ab4
    1ac8:	0000b7e7          	.word	0x0000b7e7
    1acc:	00460613          	addi	x12,x12,4

# Testcase cr_rs1_imm_edges (rs1 = 0x7fffffff, imm = 512)
  RVTEST_TESTDATA_LOAD_INT(x1, x23) # load rs1: x23 = 0x7fffffff
    1ad0:	0000ab83          	lw	x23,0(x1)
    1ad4:	00408093          	addi	x1,x1,4

00001ad8 <I_ori_cg_cr_rs1_imm_edges_rs1val_0x7fffffff_immval_0x200>:
I_ori_cg_cr_rs1_imm_edges_rs1val_0x7fffffff_immval_0x200:
  ori x26, x23, 512 # perform operation
    1ad8:	200bed13          	ori	x26,x23,512
  # Check if x26 contains the expected result. x12 is the signature ptr, x8 is the link ptr, x7 is a temp reg.
  RVTEST_SIGUPD(x12, x8, x7, x26, I_ori_cg_cr_rs1_imm_edges_rs1val_0x7fffffff_immval_0x200, I_ori_cg_cr_rs1_imm_edges_rs1val_0x7fffffff_immval_0x200_str)
    1adc:	00062383          	lw	x7,0(x12)
    1ae0:	01a38863          	beq	x7,x26,1af0 <I_ori_cg_cr_rs1_imm_edges_rs1val_0x7fffffff_immval_0x200+0x18>
    1ae4:	1d10146f          	jal	x8,34b4 <failedtest_x8_x7>
    1ae8:	00001ad8          	.word	0x00001ad8
    1aec:	0000b83d          	.word	0x0000b83d
    1af0:	00460613          	addi	x12,x12,4

# Testcase cr_rs1_imm_edges (rs1 = 0x7fffffff, imm = 1023)
  RVTEST_TESTDATA_LOAD_INT(x1, x25) # load rs1: x25 = 0x7fffffff
    1af4:	0000ac83          	lw	x25,0(x1)
    1af8:	00408093          	addi	x1,x1,4

00001afc <I_ori_cg_cr_rs1_imm_edges_rs1val_0x7fffffff_immval_0x3ff>:
I_ori_cg_cr_rs1_imm_edges_rs1val_0x7fffffff_immval_0x3ff:
  ori x27, x25, 1023 # perform operation
    1afc:	3ffced93          	ori	x27,x25,1023
  # Check if x27 contains the expected result. x12 is the signature ptr, x8 is the link ptr, x7 is a temp reg.
  RVTEST_SIGUPD(x12, x8, x7, x27, I_ori_cg_cr_rs1_imm_edges_rs1val_0x7fffffff_immval_0x3ff, I_ori_cg_cr_rs1_imm_edges_rs1val_0x7fffffff_immval_0x3ff_str)
    1b00:	00062383          	lw	x7,0(x12)
    1b04:	01b38863          	beq	x7,x27,1b14 <I_ori_cg_cr_rs1_imm_edges_rs1val_0x7fffffff_immval_0x3ff+0x18>
    1b08:	1ad0146f          	jal	x8,34b4 <failedtest_x8_x7>
    1b0c:	00001afc          	.word	0x00001afc
    1b10:	0000b893          	.word	0x0000b893
    1b14:	00460613          	addi	x12,x12,4

# Testcase cr_rs1_imm_edges (rs1 = 0x7fffffff, imm = 1024)
  RVTEST_TESTDATA_LOAD_INT(x1, x4) # load rs1: x4 = 0x7fffffff
    1b18:	0000a203          	lw	x4,0(x1)
    1b1c:	00408093          	addi	x1,x1,4

00001b20 <I_ori_cg_cr_rs1_imm_edges_rs1val_0x7fffffff_immval_0x400>:
I_ori_cg_cr_rs1_imm_edges_rs1val_0x7fffffff_immval_0x400:
  ori x10, x4, 1024 # perform operation
    1b20:	40026513          	ori	x10,x4,1024
  # Check if x10 contains the expected result. x12 is the signature ptr, x8 is the link ptr, x7 is a temp reg.
  RVTEST_SIGUPD(x12, x8, x7, x10, I_ori_cg_cr_rs1_imm_edges_rs1val_0x7fffffff_immval_0x400, I_ori_cg_cr_rs1_imm_edges_rs1val_0x7fffffff_immval_0x400_str)
    1b24:	00062383          	lw	x7,0(x12)
    1b28:	00a38863          	beq	x7,x10,1b38 <I_ori_cg_cr_rs1_imm_edges_rs1val_0x7fffffff_immval_0x400+0x18>
    1b2c:	1890146f          	jal	x8,34b4 <failedtest_x8_x7>
    1b30:	00001b20          	.word	0x00001b20
    1b34:	0000b8e9          	.word	0x0000b8e9
    1b38:	00460613          	addi	x12,x12,4

# Testcase cr_rs1_imm_edges (rs1 = 0x7fffffff, imm = 1795)
  RVTEST_TESTDATA_LOAD_INT(x1, x9) # load rs1: x9 = 0x7fffffff
    1b3c:	0000a483          	lw	x9,0(x1)
    1b40:	00408093          	addi	x1,x1,4

00001b44 <I_ori_cg_cr_rs1_imm_edges_rs1val_0x7fffffff_immval_0x703>:
I_ori_cg_cr_rs1_imm_edges_rs1val_0x7fffffff_immval_0x703:
  ori x4, x9, 1795 # perform operation
    1b44:	7034e213          	ori	x4,x9,1795
  # Check if x4 contains the expected result. x12 is the signature ptr, x8 is the link ptr, x7 is a temp reg.
  RVTEST_SIGUPD(x12, x8, x7, x4, I_ori_cg_cr_rs1_imm_edges_rs1val_0x7fffffff_immval_0x703, I_ori_cg_cr_rs1_imm_edges_rs1val_0x7fffffff_immval_0x703_str)
    1b48:	00062383          	lw	x7,0(x12)
    1b4c:	00438863          	beq	x7,x4,1b5c <I_ori_cg_cr_rs1_imm_edges_rs1val_0x7fffffff_immval_0x703+0x18>
    1b50:	1650146f          	jal	x8,34b4 <failedtest_x8_x7>
    1b54:	00001b44          	.word	0x00001b44
    1b58:	0000b93f          	.word	0x0000b93f
    1b5c:	00460613          	addi	x12,x12,4

# Testcase cr_rs1_imm_edges (rs1 = 0x7fffffff, imm = 2047)
  RVTEST_TESTDATA_LOAD_INT(x1, x11) # load rs1: x11 = 0x7fffffff
    1b60:	0000a583          	lw	x11,0(x1)
    1b64:	00408093          	addi	x1,x1,4

00001b68 <I_ori_cg_cr_rs1_imm_edges_rs1val_0x7fffffff_immval_0x7ff>:
I_ori_cg_cr_rs1_imm_edges_rs1val_0x7fffffff_immval_0x7ff:
  ori x4, x11, 2047 # perform operation
    1b68:	7ff5e213          	ori	x4,x11,2047
  # Check if x4 contains the expected result. x12 is the signature ptr, x8 is the link ptr, x7 is a temp reg.
  RVTEST_SIGUPD(x12, x8, x7, x4, I_ori_cg_cr_rs1_imm_edges_rs1val_0x7fffffff_immval_0x7ff, I_ori_cg_cr_rs1_imm_edges_rs1val_0x7fffffff_immval_0x7ff_str)
    1b6c:	00062383          	lw	x7,0(x12)
    1b70:	00438863          	beq	x7,x4,1b80 <I_ori_cg_cr_rs1_imm_edges_rs1val_0x7fffffff_immval_0x7ff+0x18>
    1b74:	1410146f          	jal	x8,34b4 <failedtest_x8_x7>
    1b78:	00001b68          	.word	0x00001b68
    1b7c:	0000b995          	.word	0x0000b995
    1b80:	00460613          	addi	x12,x12,4

# Testcase cr_rs1_imm_edges (rs1 = 0x7fffffff, imm = -2048)
  RVTEST_TESTDATA_LOAD_INT(x1, x31) # load rs1: x31 = 0x7fffffff
    1b84:	0000af83          	lw	x31,0(x1)
    1b88:	00408093          	addi	x1,x1,4

00001b8c <I_ori_cg_cr_rs1_imm_edges_rs1val_0x7fffffff_immval_m0x800>:
I_ori_cg_cr_rs1_imm_edges_rs1val_0x7fffffff_immval_m0x800:
  ori x27, x31, -2048 # perform operation
    1b8c:	800fed93          	ori	x27,x31,-2048
  # Check if x27 contains the expected result. x12 is the signature ptr, x8 is the link ptr, x7 is a temp reg.
  RVTEST_SIGUPD(x12, x8, x7, x27, I_ori_cg_cr_rs1_imm_edges_rs1val_0x7fffffff_immval_m0x800, I_ori_cg_cr_rs1_imm_edges_rs1val_0x7fffffff_immval_m0x800_str)
    1b90:	00062383          	lw	x7,0(x12)
    1b94:	01b38863          	beq	x7,x27,1ba4 <I_ori_cg_cr_rs1_imm_edges_rs1val_0x7fffffff_immval_m0x800+0x18>
    1b98:	11d0146f          	jal	x8,34b4 <failedtest_x8_x7>
    1b9c:	00001b8c          	.word	0x00001b8c
    1ba0:	0000b9eb          	.word	0x0000b9eb
    1ba4:	00460613          	addi	x12,x12,4

# Testcase cr_rs1_imm_edges (rs1 = 0x7fffffff, imm = -2047)
  RVTEST_TESTDATA_LOAD_INT(x1, x17) # load rs1: x17 = 0x7fffffff
    1ba8:	0000a883          	lw	x17,0(x1)
    1bac:	00408093          	addi	x1,x1,4

00001bb0 <I_ori_cg_cr_rs1_imm_edges_rs1val_0x7fffffff_immval_m0x7ff>:
I_ori_cg_cr_rs1_imm_edges_rs1val_0x7fffffff_immval_m0x7ff:
  ori x9, x17, -2047 # perform operation
    1bb0:	8018e493          	ori	x9,x17,-2047
  # Check if x9 contains the expected result. x12 is the signature ptr, x8 is the link ptr, x7 is a temp reg.
  RVTEST_SIGUPD(x12, x8, x7, x9, I_ori_cg_cr_rs1_imm_edges_rs1val_0x7fffffff_immval_m0x7ff, I_ori_cg_cr_rs1_imm_edges_rs1val_0x7fffffff_immval_m0x7ff_str)
    1bb4:	00062383          	lw	x7,0(x12)
    1bb8:	00938863          	beq	x7,x9,1bc8 <I_ori_cg_cr_rs1_imm_edges_rs1val_0x7fffffff_immval_m0x7ff+0x18>
    1bbc:	0f90146f          	jal	x8,34b4 <failedtest_x8_x7>
    1bc0:	00001bb0          	.word	0x00001bb0
    1bc4:	0000ba42          	.word	0x0000ba42
    1bc8:	00460613          	addi	x12,x12,4

# Testcase cr_rs1_imm_edges (rs1 = 0x7fffffff, imm = -2)
  RVTEST_TESTDATA_LOAD_INT(x1, x23) # load rs1: x23 = 0x7fffffff
    1bcc:	0000ab83          	lw	x23,0(x1)
    1bd0:	00408093          	addi	x1,x1,4

00001bd4 <I_ori_cg_cr_rs1_imm_edges_rs1val_0x7fffffff_immval_m0x2>:
I_ori_cg_cr_rs1_imm_edges_rs1val_0x7fffffff_immval_m0x2:
  ori x31, x23, -2 # perform operation
    1bd4:	ffebef93          	ori	x31,x23,-2
  # Check if x31 contains the expected result. x12 is the signature ptr, x8 is the link ptr, x7 is a temp reg.
  RVTEST_SIGUPD(x12, x8, x7, x31, I_ori_cg_cr_rs1_imm_edges_rs1val_0x7fffffff_immval_m0x2, I_ori_cg_cr_rs1_imm_edges_rs1val_0x7fffffff_immval_m0x2_str)
    1bd8:	00062383          	lw	x7,0(x12)
    1bdc:	01f38863          	beq	x7,x31,1bec <I_ori_cg_cr_rs1_imm_edges_rs1val_0x7fffffff_immval_m0x2+0x18>
    1be0:	0d50146f          	jal	x8,34b4 <failedtest_x8_x7>
    1be4:	00001bd4          	.word	0x00001bd4
    1be8:	0000ba99          	.word	0x0000ba99
    1bec:	00460613          	addi	x12,x12,4

# Testcase cr_rs1_imm_edges (rs1 = 0x7fffffff, imm = -1)
  RVTEST_TESTDATA_LOAD_INT(x1, x16) # load rs1: x16 = 0x7fffffff
    1bf0:	0000a803          	lw	x16,0(x1)
    1bf4:	00408093          	addi	x1,x1,4

00001bf8 <I_ori_cg_cr_rs1_imm_edges_rs1val_0x7fffffff_immval_m0x1>:
I_ori_cg_cr_rs1_imm_edges_rs1val_0x7fffffff_immval_m0x1:
  ori x21, x16, -1 # perform operation
    1bf8:	fff86a93          	ori	x21,x16,-1
  # Check if x21 contains the expected result. x12 is the signature ptr, x8 is the link ptr, x7 is a temp reg.
  RVTEST_SIGUPD(x12, x8, x7, x21, I_ori_cg_cr_rs1_imm_edges_rs1val_0x7fffffff_immval_m0x1, I_ori_cg_cr_rs1_imm_edges_rs1val_0x7fffffff_immval_m0x1_str)
    1bfc:	00062383          	lw	x7,0(x12)
    1c00:	01538863          	beq	x7,x21,1c10 <I_ori_cg_cr_rs1_imm_edges_rs1val_0x7fffffff_immval_m0x1+0x18>
    1c04:	0b10146f          	jal	x8,34b4 <failedtest_x8_x7>
    1c08:	00001bf8          	.word	0x00001bf8
    1c0c:	0000baee          	.word	0x0000baee
    1c10:	00460613          	addi	x12,x12,4

# Testcase cr_rs1_imm_edges (rs1 = 0x7ffffffe, imm = 0)
  RVTEST_TESTDATA_LOAD_INT(x1, x9) # load rs1: x9 = 0x7ffffffe
    1c14:	0000a483          	lw	x9,0(x1)
    1c18:	00408093          	addi	x1,x1,4

00001c1c <I_ori_cg_cr_rs1_imm_edges_rs1val_0x7ffffffe_immval_0x0>:
I_ori_cg_cr_rs1_imm_edges_rs1val_0x7ffffffe_immval_0x0:
  ori x2, x9, 0 # perform operation
    1c1c:	0004e113          	ori	x2,x9,0
  # Check if x2 contains the expected result. x12 is the signature ptr, x8 is the link ptr, x7 is a temp reg.
  RVTEST_SIGUPD(x12, x8, x7, x2, I_ori_cg_cr_rs1_imm_edges_rs1val_0x7ffffffe_immval_0x0, I_ori_cg_cr_rs1_imm_edges_rs1val_0x7ffffffe_immval_0x0_str)
    1c20:	00062383          	lw	x7,0(x12)
    1c24:	00238863          	beq	x7,x2,1c34 <I_ori_cg_cr_rs1_imm_edges_rs1val_0x7ffffffe_immval_0x0+0x18>
    1c28:	08d0146f          	jal	x8,34b4 <failedtest_x8_x7>
    1c2c:	00001c1c          	.word	0x00001c1c
    1c30:	0000bb43          	.word	0x0000bb43
    1c34:	00460613          	addi	x12,x12,4

# Testcase cr_rs1_imm_edges (rs1 = 0x7ffffffe, imm = 1)
  RVTEST_TESTDATA_LOAD_INT(x1, x23) # load rs1: x23 = 0x7ffffffe
    1c38:	0000ab83          	lw	x23,0(x1)
    1c3c:	00408093          	addi	x1,x1,4

00001c40 <I_ori_cg_cr_rs1_imm_edges_rs1val_0x7ffffffe_immval_0x1>:
I_ori_cg_cr_rs1_imm_edges_rs1val_0x7ffffffe_immval_0x1:
  ori x28, x23, 1 # perform operation
    1c40:	001bee13          	ori	x28,x23,1
  # Check if x28 contains the expected result. x12 is the signature ptr, x8 is the link ptr, x7 is a temp reg.
  RVTEST_SIGUPD(x12, x8, x7, x28, I_ori_cg_cr_rs1_imm_edges_rs1val_0x7ffffffe_immval_0x1, I_ori_cg_cr_rs1_imm_edges_rs1val_0x7ffffffe_immval_0x1_str)
    1c44:	00062383          	lw	x7,0(x12)
    1c48:	01c38863          	beq	x7,x28,1c58 <I_ori_cg_cr_rs1_imm_edges_rs1val_0x7ffffffe_immval_0x1+0x18>
    1c4c:	0690146f          	jal	x8,34b4 <failedtest_x8_x7>
    1c50:	00001c40          	.word	0x00001c40
    1c54:	0000bb97          	.word	0x0000bb97
    1c58:	00460613          	addi	x12,x12,4

# Testcase cr_rs1_imm_edges (rs1 = 0x7ffffffe, imm = 2)
  RVTEST_TESTDATA_LOAD_INT(x1, x19) # load rs1: x19 = 0x7ffffffe
    1c5c:	0000a983          	lw	x19,0(x1)
    1c60:	00408093          	addi	x1,x1,4

00001c64 <I_ori_cg_cr_rs1_imm_edges_rs1val_0x7ffffffe_immval_0x2>:
I_ori_cg_cr_rs1_imm_edges_rs1val_0x7ffffffe_immval_0x2:
  ori x15, x19, 2 # perform operation
    1c64:	0029e793          	ori	x15,x19,2
  # Check if x15 contains the expected result. x12 is the signature ptr, x8 is the link ptr, x7 is a temp reg.
  RVTEST_SIGUPD(x12, x8, x7, x15, I_ori_cg_cr_rs1_imm_edges_rs1val_0x7ffffffe_immval_0x2, I_ori_cg_cr_rs1_imm_edges_rs1val_0x7ffffffe_immval_0x2_str)
    1c68:	00062383          	lw	x7,0(x12)
    1c6c:	00f38863          	beq	x7,x15,1c7c <I_ori_cg_cr_rs1_imm_edges_rs1val_0x7ffffffe_immval_0x2+0x18>
    1c70:	0450146f          	jal	x8,34b4 <failedtest_x8_x7>
    1c74:	00001c64          	.word	0x00001c64
    1c78:	0000bbeb          	.word	0x0000bbeb
    1c7c:	00460613          	addi	x12,x12,4

# Testcase cr_rs1_imm_edges (rs1 = 0x7ffffffe, imm = 3)
  RVTEST_TESTDATA_LOAD_INT(x1, x2) # load rs1: x2 = 0x7ffffffe
    1c80:	0000a103          	lw	x2,0(x1)
    1c84:	00408093          	addi	x1,x1,4

00001c88 <I_ori_cg_cr_rs1_imm_edges_rs1val_0x7ffffffe_immval_0x3>:
I_ori_cg_cr_rs1_imm_edges_rs1val_0x7ffffffe_immval_0x3:
  ori x3, x2, 3 # perform operation
    1c88:	00316193          	ori	x3,x2,3
  # Check if x3 contains the expected result. x12 is the signature ptr, x8 is the link ptr, x7 is a temp reg.
  RVTEST_SIGUPD(x12, x8, x7, x3, I_ori_cg_cr_rs1_imm_edges_rs1val_0x7ffffffe_immval_0x3, I_ori_cg_cr_rs1_imm_edges_rs1val_0x7ffffffe_immval_0x3_str)
    1c8c:	00062383          	lw	x7,0(x12)
    1c90:	00338863          	beq	x7,x3,1ca0 <I_ori_cg_cr_rs1_imm_edges_rs1val_0x7ffffffe_immval_0x3+0x18>
    1c94:	0210146f          	jal	x8,34b4 <failedtest_x8_x7>
    1c98:	00001c88          	.word	0x00001c88
    1c9c:	0000bc3f          	.word	0x0000bc3f
    1ca0:	00460613          	addi	x12,x12,4

# Testcase cr_rs1_imm_edges (rs1 = 0x7ffffffe, imm = 4)
  RVTEST_TESTDATA_LOAD_INT(x1, x28) # load rs1: x28 = 0x7ffffffe
    1ca4:	0000ae03          	lw	x28,0(x1)
    1ca8:	00408093          	addi	x1,x1,4

00001cac <I_ori_cg_cr_rs1_imm_edges_rs1val_0x7ffffffe_immval_0x4>:
I_ori_cg_cr_rs1_imm_edges_rs1val_0x7ffffffe_immval_0x4:
  ori x18, x28, 4 # perform operation
    1cac:	004e6913          	ori	x18,x28,4
  # Check if x18 contains the expected result. x12 is the signature ptr, x8 is the link ptr, x7 is a temp reg.
  RVTEST_SIGUPD(x12, x8, x7, x18, I_ori_cg_cr_rs1_imm_edges_rs1val_0x7ffffffe_immval_0x4, I_ori_cg_cr_rs1_imm_edges_rs1val_0x7ffffffe_immval_0x4_str)
    1cb0:	00062383          	lw	x7,0(x12)
    1cb4:	01238863          	beq	x7,x18,1cc4 <I_ori_cg_cr_rs1_imm_edges_rs1val_0x7ffffffe_immval_0x4+0x18>
    1cb8:	7fc0146f          	jal	x8,34b4 <failedtest_x8_x7>
    1cbc:	00001cac          	.word	0x00001cac
    1cc0:	0000bc93          	.word	0x0000bc93
    1cc4:	00460613          	addi	x12,x12,4

# Testcase cr_rs1_imm_edges (rs1 = 0x7ffffffe, imm = 8)
  RVTEST_TESTDATA_LOAD_INT(x1, x26) # load rs1: x26 = 0x7ffffffe
    1cc8:	0000ad03          	lw	x26,0(x1)
    1ccc:	00408093          	addi	x1,x1,4

00001cd0 <I_ori_cg_cr_rs1_imm_edges_rs1val_0x7ffffffe_immval_0x8>:
I_ori_cg_cr_rs1_imm_edges_rs1val_0x7ffffffe_immval_0x8:
  ori x13, x26, 8 # perform operation
    1cd0:	008d6693          	ori	x13,x26,8
  # Check if x13 contains the expected result. x12 is the signature ptr, x8 is the link ptr, x7 is a temp reg.
  RVTEST_SIGUPD(x12, x8, x7, x13, I_ori_cg_cr_rs1_imm_edges_rs1val_0x7ffffffe_immval_0x8, I_ori_cg_cr_rs1_imm_edges_rs1val_0x7ffffffe_immval_0x8_str)
    1cd4:	00062383          	lw	x7,0(x12)
    1cd8:	00d38863          	beq	x7,x13,1ce8 <I_ori_cg_cr_rs1_imm_edges_rs1val_0x7ffffffe_immval_0x8+0x18>
    1cdc:	7d80146f          	jal	x8,34b4 <failedtest_x8_x7>
    1ce0:	00001cd0          	.word	0x00001cd0
    1ce4:	0000bce7          	.word	0x0000bce7
    1ce8:	00460613          	addi	x12,x12,4

# Testcase cr_rs1_imm_edges (rs1 = 0x7ffffffe, imm = 16)
  RVTEST_TESTDATA_LOAD_INT(x1, x11) # load rs1: x11 = 0x7ffffffe
    1cec:	0000a583          	lw	x11,0(x1)
    1cf0:	00408093          	addi	x1,x1,4

00001cf4 <I_ori_cg_cr_rs1_imm_edges_rs1val_0x7ffffffe_immval_0x10>:
I_ori_cg_cr_rs1_imm_edges_rs1val_0x7ffffffe_immval_0x10:
  ori x19, x11, 16 # perform operation
    1cf4:	0105e993          	ori	x19,x11,16
  # Check if x19 contains the expected result. x12 is the signature ptr, x8 is the link ptr, x7 is a temp reg.
  RVTEST_SIGUPD(x12, x8, x7, x19, I_ori_cg_cr_rs1_imm_edges_rs1val_0x7ffffffe_immval_0x10, I_ori_cg_cr_rs1_imm_edges_rs1val_0x7ffffffe_immval_0x10_str)
    1cf8:	00062383          	lw	x7,0(x12)
    1cfc:	01338863          	beq	x7,x19,1d0c <I_ori_cg_cr_rs1_imm_edges_rs1val_0x7ffffffe_immval_0x10+0x18>
    1d00:	7b40146f          	jal	x8,34b4 <failedtest_x8_x7>
    1d04:	00001cf4          	.word	0x00001cf4
    1d08:	0000bd3b          	.word	0x0000bd3b
    1d0c:	00460613          	addi	x12,x12,4

# Testcase cr_rs1_imm_edges (rs1 = 0x7ffffffe, imm = 32)
  RVTEST_TESTDATA_LOAD_INT(x1, x20) # load rs1: x20 = 0x7ffffffe
    1d10:	0000aa03          	lw	x20,0(x1)
    1d14:	00408093          	addi	x1,x1,4

00001d18 <I_ori_cg_cr_rs1_imm_edges_rs1val_0x7ffffffe_immval_0x20>:
I_ori_cg_cr_rs1_imm_edges_rs1val_0x7ffffffe_immval_0x20:
  ori x31, x20, 32 # perform operation
    1d18:	020a6f93          	ori	x31,x20,32
  # Check if x31 contains the expected result. x12 is the signature ptr, x8 is the link ptr, x7 is a temp reg.
  RVTEST_SIGUPD(x12, x8, x7, x31, I_ori_cg_cr_rs1_imm_edges_rs1val_0x7ffffffe_immval_0x20, I_ori_cg_cr_rs1_imm_edges_rs1val_0x7ffffffe_immval_0x20_str)
    1d1c:	00062383          	lw	x7,0(x12)
    1d20:	01f38863          	beq	x7,x31,1d30 <I_ori_cg_cr_rs1_imm_edges_rs1val_0x7ffffffe_immval_0x20+0x18>
    1d24:	7900146f          	jal	x8,34b4 <failedtest_x8_x7>
    1d28:	00001d18          	.word	0x00001d18
    1d2c:	0000bd90          	.word	0x0000bd90
    1d30:	00460613          	addi	x12,x12,4

# Testcase cr_rs1_imm_edges (rs1 = 0x7ffffffe, imm = 64)
  RVTEST_TESTDATA_LOAD_INT(x1, x31) # load rs1: x31 = 0x7ffffffe
    1d34:	0000af83          	lw	x31,0(x1)
    1d38:	00408093          	addi	x1,x1,4

00001d3c <I_ori_cg_cr_rs1_imm_edges_rs1val_0x7ffffffe_immval_0x40>:
I_ori_cg_cr_rs1_imm_edges_rs1val_0x7ffffffe_immval_0x40:
  ori x13, x31, 64 # perform operation
    1d3c:	040fe693          	ori	x13,x31,64
  # Check if x13 contains the expected result. x12 is the signature ptr, x8 is the link ptr, x7 is a temp reg.
  RVTEST_SIGUPD(x12, x8, x7, x13, I_ori_cg_cr_rs1_imm_edges_rs1val_0x7ffffffe_immval_0x40, I_ori_cg_cr_rs1_imm_edges_rs1val_0x7ffffffe_immval_0x40_str)
    1d40:	00062383          	lw	x7,0(x12)
    1d44:	00d38863          	beq	x7,x13,1d54 <I_ori_cg_cr_rs1_imm_edges_rs1val_0x7ffffffe_immval_0x40+0x18>
    1d48:	76c0146f          	jal	x8,34b4 <failedtest_x8_x7>
    1d4c:	00001d3c          	.word	0x00001d3c
    1d50:	0000bde5          	.word	0x0000bde5
    1d54:	00460613          	addi	x12,x12,4

# Testcase cr_rs1_imm_edges (rs1 = 0x7ffffffe, imm = 128)
  RVTEST_TESTDATA_LOAD_INT(x1, x10) # load rs1: x10 = 0x7ffffffe
    1d58:	0000a503          	lw	x10,0(x1)
    1d5c:	00408093          	addi	x1,x1,4

00001d60 <I_ori_cg_cr_rs1_imm_edges_rs1val_0x7ffffffe_immval_0x80>:
I_ori_cg_cr_rs1_imm_edges_rs1val_0x7ffffffe_immval_0x80:
  ori x30, x10, 128 # perform operation
    1d60:	08056f13          	ori	x30,x10,128
  # Check if x30 contains the expected result. x12 is the signature ptr, x8 is the link ptr, x7 is a temp reg.
  RVTEST_SIGUPD(x12, x8, x7, x30, I_ori_cg_cr_rs1_imm_edges_rs1val_0x7ffffffe_immval_0x80, I_ori_cg_cr_rs1_imm_edges_rs1val_0x7ffffffe_immval_0x80_str)
    1d64:	00062383          	lw	x7,0(x12)
    1d68:	01e38863          	beq	x7,x30,1d78 <I_ori_cg_cr_rs1_imm_edges_rs1val_0x7ffffffe_immval_0x80+0x18>
    1d6c:	7480146f          	jal	x8,34b4 <failedtest_x8_x7>
    1d70:	00001d60          	.word	0x00001d60
    1d74:	0000be3a          	.word	0x0000be3a
    1d78:	00460613          	addi	x12,x12,4

# Testcase cr_rs1_imm_edges (rs1 = 0x7ffffffe, imm = 256)
  RVTEST_TESTDATA_LOAD_INT(x1, x31) # load rs1: x31 = 0x7ffffffe
    1d7c:	0000af83          	lw	x31,0(x1)
    1d80:	00408093          	addi	x1,x1,4

00001d84 <I_ori_cg_cr_rs1_imm_edges_rs1val_0x7ffffffe_immval_0x100>:
I_ori_cg_cr_rs1_imm_edges_rs1val_0x7ffffffe_immval_0x100:
  ori x6, x31, 256 # perform operation
    1d84:	100fe313          	ori	x6,x31,256
  # Check if x6 contains the expected result. x12 is the signature ptr, x8 is the link ptr, x7 is a temp reg.
  RVTEST_SIGUPD(x12, x8, x7, x6, I_ori_cg_cr_rs1_imm_edges_rs1val_0x7ffffffe_immval_0x100, I_ori_cg_cr_rs1_imm_edges_rs1val_0x7ffffffe_immval_0x100_str)
    1d88:	00062383          	lw	x7,0(x12)
    1d8c:	00638863          	beq	x7,x6,1d9c <I_ori_cg_cr_rs1_imm_edges_rs1val_0x7ffffffe_immval_0x100+0x18>
    1d90:	7240146f          	jal	x8,34b4 <failedtest_x8_x7>
    1d94:	00001d84          	.word	0x00001d84
    1d98:	0000be8f          	.word	0x0000be8f
    1d9c:	00460613          	addi	x12,x12,4

# Testcase cr_rs1_imm_edges (rs1 = 0x7ffffffe, imm = 512)
  RVTEST_TESTDATA_LOAD_INT(x1, x6) # load rs1: x6 = 0x7ffffffe
    1da0:	0000a303          	lw	x6,0(x1)
    1da4:	00408093          	addi	x1,x1,4

00001da8 <I_ori_cg_cr_rs1_imm_edges_rs1val_0x7ffffffe_immval_0x200>:
I_ori_cg_cr_rs1_imm_edges_rs1val_0x7ffffffe_immval_0x200:
  ori x29, x6, 512 # perform operation
    1da8:	20036e93          	ori	x29,x6,512
  # Check if x29 contains the expected result. x12 is the signature ptr, x8 is the link ptr, x7 is a temp reg.
  RVTEST_SIGUPD(x12, x8, x7, x29, I_ori_cg_cr_rs1_imm_edges_rs1val_0x7ffffffe_immval_0x200, I_ori_cg_cr_rs1_imm_edges_rs1val_0x7ffffffe_immval_0x200_str)
    1dac:	00062383          	lw	x7,0(x12)
    1db0:	01d38863          	beq	x7,x29,1dc0 <I_ori_cg_cr_rs1_imm_edges_rs1val_0x7ffffffe_immval_0x200+0x18>
    1db4:	7000146f          	jal	x8,34b4 <failedtest_x8_x7>
    1db8:	00001da8          	.word	0x00001da8
    1dbc:	0000bee5          	.word	0x0000bee5
    1dc0:	00460613          	addi	x12,x12,4

# Testcase cr_rs1_imm_edges (rs1 = 0x7ffffffe, imm = 1023)
  RVTEST_TESTDATA_LOAD_INT(x1, x23) # load rs1: x23 = 0x7ffffffe
    1dc4:	0000ab83          	lw	x23,0(x1)
    1dc8:	00408093          	addi	x1,x1,4

00001dcc <I_ori_cg_cr_rs1_imm_edges_rs1val_0x7ffffffe_immval_0x3ff>:
I_ori_cg_cr_rs1_imm_edges_rs1val_0x7ffffffe_immval_0x3ff:
  ori x6, x23, 1023 # perform operation
    1dcc:	3ffbe313          	ori	x6,x23,1023
  # Check if x6 contains the expected result. x12 is the signature ptr, x8 is the link ptr, x7 is a temp reg.
  RVTEST_SIGUPD(x12, x8, x7, x6, I_ori_cg_cr_rs1_imm_edges_rs1val_0x7ffffffe_immval_0x3ff, I_ori_cg_cr_rs1_imm_edges_rs1val_0x7ffffffe_immval_0x3ff_str)
    1dd0:	00062383          	lw	x7,0(x12)
    1dd4:	00638863          	beq	x7,x6,1de4 <I_ori_cg_cr_rs1_imm_edges_rs1val_0x7ffffffe_immval_0x3ff+0x18>
    1dd8:	6dc0146f          	jal	x8,34b4 <failedtest_x8_x7>
    1ddc:	00001dcc          	.word	0x00001dcc
    1de0:	0000bf3b          	.word	0x0000bf3b
    1de4:	00460613          	addi	x12,x12,4

# Testcase cr_rs1_imm_edges (rs1 = 0x7ffffffe, imm = 1024)
  RVTEST_TESTDATA_LOAD_INT(x1, x25) # load rs1: x25 = 0x7ffffffe
    1de8:	0000ac83          	lw	x25,0(x1)
    1dec:	00408093          	addi	x1,x1,4

00001df0 <I_ori_cg_cr_rs1_imm_edges_rs1val_0x7ffffffe_immval_0x400>:
I_ori_cg_cr_rs1_imm_edges_rs1val_0x7ffffffe_immval_0x400:
  ori x2, x25, 1024 # perform operation
    1df0:	400ce113          	ori	x2,x25,1024
  # Check if x2 contains the expected result. x12 is the signature ptr, x8 is the link ptr, x7 is a temp reg.
  RVTEST_SIGUPD(x12, x8, x7, x2, I_ori_cg_cr_rs1_imm_edges_rs1val_0x7ffffffe_immval_0x400, I_ori_cg_cr_rs1_imm_edges_rs1val_0x7ffffffe_immval_0x400_str)
    1df4:	00062383          	lw	x7,0(x12)
    1df8:	00238863          	beq	x7,x2,1e08 <I_ori_cg_cr_rs1_imm_edges_rs1val_0x7ffffffe_immval_0x400+0x18>
    1dfc:	6b80146f          	jal	x8,34b4 <failedtest_x8_x7>
    1e00:	00001df0          	.word	0x00001df0
    1e04:	0000bf91          	.word	0x0000bf91
    1e08:	00460613          	addi	x12,x12,4

# Testcase cr_rs1_imm_edges (rs1 = 0x7ffffffe, imm = 1795)
  RVTEST_TESTDATA_LOAD_INT(x1, x25) # load rs1: x25 = 0x7ffffffe
    1e0c:	0000ac83          	lw	x25,0(x1)
    1e10:	00408093          	addi	x1,x1,4

00001e14 <I_ori_cg_cr_rs1_imm_edges_rs1val_0x7ffffffe_immval_0x703>:
I_ori_cg_cr_rs1_imm_edges_rs1val_0x7ffffffe_immval_0x703:
  ori x9, x25, 1795 # perform operation
    1e14:	703ce493          	ori	x9,x25,1795
  # Check if x9 contains the expected result. x12 is the signature ptr, x8 is the link ptr, x7 is a temp reg.
  RVTEST_SIGUPD(x12, x8, x7, x9, I_ori_cg_cr_rs1_imm_edges_rs1val_0x7ffffffe_immval_0x703, I_ori_cg_cr_rs1_imm_edges_rs1val_0x7ffffffe_immval_0x703_str)
    1e18:	00062383          	lw	x7,0(x12)
    1e1c:	00938863          	beq	x7,x9,1e2c <I_ori_cg_cr_rs1_imm_edges_rs1val_0x7ffffffe_immval_0x703+0x18>
    1e20:	6940146f          	jal	x8,34b4 <failedtest_x8_x7>
    1e24:	00001e14          	.word	0x00001e14
    1e28:	0000bfe7          	.word	0x0000bfe7
    1e2c:	00460613          	addi	x12,x12,4

# Testcase cr_rs1_imm_edges (rs1 = 0x7ffffffe, imm = 2047)
  RVTEST_TESTDATA_LOAD_INT(x1, x22) # load rs1: x22 = 0x7ffffffe
    1e30:	0000ab03          	lw	x22,0(x1)
    1e34:	00408093          	addi	x1,x1,4

00001e38 <I_ori_cg_cr_rs1_imm_edges_rs1val_0x7ffffffe_immval_0x7ff>:
I_ori_cg_cr_rs1_imm_edges_rs1val_0x7ffffffe_immval_0x7ff:
  ori x13, x22, 2047 # perform operation
    1e38:	7ffb6693          	ori	x13,x22,2047
  # Check if x13 contains the expected result. x12 is the signature ptr, x8 is the link ptr, x7 is a temp reg.
  RVTEST_SIGUPD(x12, x8, x7, x13, I_ori_cg_cr_rs1_imm_edges_rs1val_0x7ffffffe_immval_0x7ff, I_ori_cg_cr_rs1_imm_edges_rs1val_0x7ffffffe_immval_0x7ff_str)
    1e3c:	00062383          	lw	x7,0(x12)
    1e40:	00d38863          	beq	x7,x13,1e50 <I_ori_cg_cr_rs1_imm_edges_rs1val_0x7ffffffe_immval_0x7ff+0x18>
    1e44:	6700146f          	jal	x8,34b4 <failedtest_x8_x7>
    1e48:	00001e38          	.word	0x00001e38
    1e4c:	0000c03d          	.word	0x0000c03d
    1e50:	00460613          	addi	x12,x12,4

# Testcase cr_rs1_imm_edges (rs1 = 0x7ffffffe, imm = -2048)
  RVTEST_TESTDATA_LOAD_INT(x1, x18) # load rs1: x18 = 0x7ffffffe
    1e54:	0000a903          	lw	x18,0(x1)
    1e58:	00408093          	addi	x1,x1,4

00001e5c <I_ori_cg_cr_rs1_imm_edges_rs1val_0x7ffffffe_immval_m0x800>:
I_ori_cg_cr_rs1_imm_edges_rs1val_0x7ffffffe_immval_m0x800:
  ori x21, x18, -2048 # perform operation
    1e5c:	80096a93          	ori	x21,x18,-2048
  # Check if x21 contains the expected result. x12 is the signature ptr, x8 is the link ptr, x7 is a temp reg.
  RVTEST_SIGUPD(x12, x8, x7, x21, I_ori_cg_cr_rs1_imm_edges_rs1val_0x7ffffffe_immval_m0x800, I_ori_cg_cr_rs1_imm_edges_rs1val_0x7ffffffe_immval_m0x800_str)
    1e60:	00062383          	lw	x7,0(x12)
    1e64:	01538863          	beq	x7,x21,1e74 <I_ori_cg_cr_rs1_imm_edges_rs1val_0x7ffffffe_immval_m0x800+0x18>
    1e68:	64c0146f          	jal	x8,34b4 <failedtest_x8_x7>
    1e6c:	00001e5c          	.word	0x00001e5c
    1e70:	0000c093          	.word	0x0000c093
    1e74:	00460613          	addi	x12,x12,4

# Testcase cr_rs1_imm_edges (rs1 = 0x7ffffffe, imm = -2047)
  RVTEST_TESTDATA_LOAD_INT(x1, x17) # load rs1: x17 = 0x7ffffffe
    1e78:	0000a883          	lw	x17,0(x1)
    1e7c:	00408093          	addi	x1,x1,4

00001e80 <I_ori_cg_cr_rs1_imm_edges_rs1val_0x7ffffffe_immval_m0x7ff>:
I_ori_cg_cr_rs1_imm_edges_rs1val_0x7ffffffe_immval_m0x7ff:
  ori x22, x17, -2047 # perform operation
    1e80:	8018eb13          	ori	x22,x17,-2047
  # Check if x22 contains the expected result. x12 is the signature ptr, x8 is the link ptr, x7 is a temp reg.
  RVTEST_SIGUPD(x12, x8, x7, x22, I_ori_cg_cr_rs1_imm_edges_rs1val_0x7ffffffe_immval_m0x7ff, I_ori_cg_cr_rs1_imm_edges_rs1val_0x7ffffffe_immval_m0x7ff_str)
    1e84:	00062383          	lw	x7,0(x12)
    1e88:	01638863          	beq	x7,x22,1e98 <I_ori_cg_cr_rs1_imm_edges_rs1val_0x7ffffffe_immval_m0x7ff+0x18>
    1e8c:	6280146f          	jal	x8,34b4 <failedtest_x8_x7>
    1e90:	00001e80          	.word	0x00001e80
    1e94:	0000c0ea          	.word	0x0000c0ea
    1e98:	00460613          	addi	x12,x12,4

# Testcase cr_rs1_imm_edges (rs1 = 0x7ffffffe, imm = -2)
  RVTEST_TESTDATA_LOAD_INT(x1, x26) # load rs1: x26 = 0x7ffffffe
    1e9c:	0000ad03          	lw	x26,0(x1)
    1ea0:	00408093          	addi	x1,x1,4

00001ea4 <I_ori_cg_cr_rs1_imm_edges_rs1val_0x7ffffffe_immval_m0x2>:
I_ori_cg_cr_rs1_imm_edges_rs1val_0x7ffffffe_immval_m0x2:
  ori x30, x26, -2 # perform operation
    1ea4:	ffed6f13          	ori	x30,x26,-2
  # Check if x30 contains the expected result. x12 is the signature ptr, x8 is the link ptr, x7 is a temp reg.
  RVTEST_SIGUPD(x12, x8, x7, x30, I_ori_cg_cr_rs1_imm_edges_rs1val_0x7ffffffe_immval_m0x2, I_ori_cg_cr_rs1_imm_edges_rs1val_0x7ffffffe_immval_m0x2_str)
    1ea8:	00062383          	lw	x7,0(x12)
    1eac:	01e38863          	beq	x7,x30,1ebc <I_ori_cg_cr_rs1_imm_edges_rs1val_0x7ffffffe_immval_m0x2+0x18>
    1eb0:	6040146f          	jal	x8,34b4 <failedtest_x8_x7>
    1eb4:	00001ea4          	.word	0x00001ea4
    1eb8:	0000c141          	.word	0x0000c141
    1ebc:	00460613          	addi	x12,x12,4

# Testcase cr_rs1_imm_edges (rs1 = 0x7ffffffe, imm = -1)
  RVTEST_TESTDATA_LOAD_INT(x1, x3) # load rs1: x3 = 0x7ffffffe
    1ec0:	0000a183          	lw	x3,0(x1)
    1ec4:	00408093          	addi	x1,x1,4

00001ec8 <I_ori_cg_cr_rs1_imm_edges_rs1val_0x7ffffffe_immval_m0x1>:
I_ori_cg_cr_rs1_imm_edges_rs1val_0x7ffffffe_immval_m0x1:
  ori x16, x3, -1 # perform operation
    1ec8:	fff1e813          	ori	x16,x3,-1
  # Check if x16 contains the expected result. x12 is the signature ptr, x8 is the link ptr, x7 is a temp reg.
  RVTEST_SIGUPD(x12, x8, x7, x16, I_ori_cg_cr_rs1_imm_edges_rs1val_0x7ffffffe_immval_m0x1, I_ori_cg_cr_rs1_imm_edges_rs1val_0x7ffffffe_immval_m0x1_str)
    1ecc:	00062383          	lw	x7,0(x12)
    1ed0:	01038863          	beq	x7,x16,1ee0 <I_ori_cg_cr_rs1_imm_edges_rs1val_0x7ffffffe_immval_m0x1+0x18>
    1ed4:	5e00146f          	jal	x8,34b4 <failedtest_x8_x7>
    1ed8:	00001ec8          	.word	0x00001ec8
    1edc:	0000c196          	.word	0x0000c196
    1ee0:	00460613          	addi	x12,x12,4

# Testcase cr_rs1_imm_edges (rs1 = 0xffffffff, imm = 0)
  RVTEST_TESTDATA_LOAD_INT(x1, x10) # load rs1: x10 = 0xffffffff
    1ee4:	0000a503          	lw	x10,0(x1)
    1ee8:	00408093          	addi	x1,x1,4

00001eec <I_ori_cg_cr_rs1_imm_edges_rs1val_0xffffffff_immval_0x0>:
I_ori_cg_cr_rs1_imm_edges_rs1val_0xffffffff_immval_0x0:
  ori x14, x10, 0 # perform operation
    1eec:	00056713          	ori	x14,x10,0
  # Check if x14 contains the expected result. x12 is the signature ptr, x8 is the link ptr, x7 is a temp reg.
  RVTEST_SIGUPD(x12, x8, x7, x14, I_ori_cg_cr_rs1_imm_edges_rs1val_0xffffffff_immval_0x0, I_ori_cg_cr_rs1_imm_edges_rs1val_0xffffffff_immval_0x0_str)
    1ef0:	00062383          	lw	x7,0(x12)
    1ef4:	00e38863          	beq	x7,x14,1f04 <I_ori_cg_cr_rs1_imm_edges_rs1val_0xffffffff_immval_0x0+0x18>
    1ef8:	5bc0146f          	jal	x8,34b4 <failedtest_x8_x7>
    1efc:	00001eec          	.word	0x00001eec
    1f00:	0000c1eb          	.word	0x0000c1eb
    1f04:	00460613          	addi	x12,x12,4

# Testcase cr_rs1_imm_edges (rs1 = 0xffffffff, imm = 1)
  RVTEST_TESTDATA_LOAD_INT(x1, x27) # load rs1: x27 = 0xffffffff
    1f08:	0000ad83          	lw	x27,0(x1)
    1f0c:	00408093          	addi	x1,x1,4

00001f10 <I_ori_cg_cr_rs1_imm_edges_rs1val_0xffffffff_immval_0x1>:
I_ori_cg_cr_rs1_imm_edges_rs1val_0xffffffff_immval_0x1:
  ori x17, x27, 1 # perform operation
    1f10:	001de893          	ori	x17,x27,1
  # Check if x17 contains the expected result. x12 is the signature ptr, x8 is the link ptr, x7 is a temp reg.
  RVTEST_SIGUPD(x12, x8, x7, x17, I_ori_cg_cr_rs1_imm_edges_rs1val_0xffffffff_immval_0x1, I_ori_cg_cr_rs1_imm_edges_rs1val_0xffffffff_immval_0x1_str)
    1f14:	00062383          	lw	x7,0(x12)
    1f18:	01138863          	beq	x7,x17,1f28 <I_ori_cg_cr_rs1_imm_edges_rs1val_0xffffffff_immval_0x1+0x18>
    1f1c:	5980146f          	jal	x8,34b4 <failedtest_x8_x7>
    1f20:	00001f10          	.word	0x00001f10
    1f24:	0000c23f          	.word	0x0000c23f
    1f28:	00460613          	addi	x12,x12,4

# Testcase cr_rs1_imm_edges (rs1 = 0xffffffff, imm = 2)
  RVTEST_TESTDATA_LOAD_INT(x1, x25) # load rs1: x25 = 0xffffffff
    1f2c:	0000ac83          	lw	x25,0(x1)
    1f30:	00408093          	addi	x1,x1,4

00001f34 <I_ori_cg_cr_rs1_imm_edges_rs1val_0xffffffff_immval_0x2>:
I_ori_cg_cr_rs1_imm_edges_rs1val_0xffffffff_immval_0x2:
  ori x11, x25, 2 # perform operation
    1f34:	002ce593          	ori	x11,x25,2
  # Check if x11 contains the expected result. x12 is the signature ptr, x8 is the link ptr, x7 is a temp reg.
  RVTEST_SIGUPD(x12, x8, x7, x11, I_ori_cg_cr_rs1_imm_edges_rs1val_0xffffffff_immval_0x2, I_ori_cg_cr_rs1_imm_edges_rs1val_0xffffffff_immval_0x2_str)
    1f38:	00062383          	lw	x7,0(x12)
    1f3c:	00b38863          	beq	x7,x11,1f4c <I_ori_cg_cr_rs1_imm_edges_rs1val_0xffffffff_immval_0x2+0x18>
    1f40:	5740146f          	jal	x8,34b4 <failedtest_x8_x7>
    1f44:	00001f34          	.word	0x00001f34
    1f48:	0000c293          	.word	0x0000c293
    1f4c:	00460613          	addi	x12,x12,4

# Testcase cr_rs1_imm_edges (rs1 = 0xffffffff, imm = 3)
  RVTEST_TESTDATA_LOAD_INT(x1, x6) # load rs1: x6 = 0xffffffff
    1f50:	0000a303          	lw	x6,0(x1)
    1f54:	00408093          	addi	x1,x1,4

00001f58 <I_ori_cg_cr_rs1_imm_edges_rs1val_0xffffffff_immval_0x3>:
I_ori_cg_cr_rs1_imm_edges_rs1val_0xffffffff_immval_0x3:
  ori x17, x6, 3 # perform operation
    1f58:	00336893          	ori	x17,x6,3
  # Check if x17 contains the expected result. x12 is the signature ptr, x8 is the link ptr, x7 is a temp reg.
  RVTEST_SIGUPD(x12, x8, x7, x17, I_ori_cg_cr_rs1_imm_edges_rs1val_0xffffffff_immval_0x3, I_ori_cg_cr_rs1_imm_edges_rs1val_0xffffffff_immval_0x3_str)
    1f5c:	00062383          	lw	x7,0(x12)
    1f60:	01138863          	beq	x7,x17,1f70 <I_ori_cg_cr_rs1_imm_edges_rs1val_0xffffffff_immval_0x3+0x18>
    1f64:	5500146f          	jal	x8,34b4 <failedtest_x8_x7>
    1f68:	00001f58          	.word	0x00001f58
    1f6c:	0000c2e7          	.word	0x0000c2e7
    1f70:	00460613          	addi	x12,x12,4

# Testcase cr_rs1_imm_edges (rs1 = 0xffffffff, imm = 4)
  RVTEST_TESTDATA_LOAD_INT(x1, x24) # load rs1: x24 = 0xffffffff
    1f74:	0000ac03          	lw	x24,0(x1)
    1f78:	00408093          	addi	x1,x1,4

00001f7c <I_ori_cg_cr_rs1_imm_edges_rs1val_0xffffffff_immval_0x4>:
I_ori_cg_cr_rs1_imm_edges_rs1val_0xffffffff_immval_0x4:
  ori x4, x24, 4 # perform operation
    1f7c:	004c6213          	ori	x4,x24,4
  # Check if x4 contains the expected result. x12 is the signature ptr, x8 is the link ptr, x7 is a temp reg.
  RVTEST_SIGUPD(x12, x8, x7, x4, I_ori_cg_cr_rs1_imm_edges_rs1val_0xffffffff_immval_0x4, I_ori_cg_cr_rs1_imm_edges_rs1val_0xffffffff_immval_0x4_str)
    1f80:	00062383          	lw	x7,0(x12)
    1f84:	00438863          	beq	x7,x4,1f94 <I_ori_cg_cr_rs1_imm_edges_rs1val_0xffffffff_immval_0x4+0x18>
    1f88:	52c0146f          	jal	x8,34b4 <failedtest_x8_x7>
    1f8c:	00001f7c          	.word	0x00001f7c
    1f90:	0000c33b          	.word	0x0000c33b
    1f94:	00460613          	addi	x12,x12,4

# Testcase cr_rs1_imm_edges (rs1 = 0xffffffff, imm = 8)
  RVTEST_TESTDATA_LOAD_INT(x1, x26) # load rs1: x26 = 0xffffffff
    1f98:	0000ad03          	lw	x26,0(x1)
    1f9c:	00408093          	addi	x1,x1,4

00001fa0 <I_ori_cg_cr_rs1_imm_edges_rs1val_0xffffffff_immval_0x8>:
I_ori_cg_cr_rs1_imm_edges_rs1val_0xffffffff_immval_0x8:
  ori x30, x26, 8 # perform operation
    1fa0:	008d6f13          	ori	x30,x26,8
  # Check if x30 contains the expected result. x12 is the signature ptr, x8 is the link ptr, x7 is a temp reg.
  RVTEST_SIGUPD(x12, x8, x7, x30, I_ori_cg_cr_rs1_imm_edges_rs1val_0xffffffff_immval_0x8, I_ori_cg_cr_rs1_imm_edges_rs1val_0xffffffff_immval_0x8_str)
    1fa4:	00062383          	lw	x7,0(x12)
    1fa8:	01e38863          	beq	x7,x30,1fb8 <I_ori_cg_cr_rs1_imm_edges_rs1val_0xffffffff_immval_0x8+0x18>
    1fac:	5080146f          	jal	x8,34b4 <failedtest_x8_x7>
    1fb0:	00001fa0          	.word	0x00001fa0
    1fb4:	0000c38f          	.word	0x0000c38f
    1fb8:	00460613          	addi	x12,x12,4

# Testcase cr_rs1_imm_edges (rs1 = 0xffffffff, imm = 16)
  RVTEST_TESTDATA_LOAD_INT(x1, x14) # load rs1: x14 = 0xffffffff
    1fbc:	0000a703          	lw	x14,0(x1)
    1fc0:	00408093          	addi	x1,x1,4

00001fc4 <I_ori_cg_cr_rs1_imm_edges_rs1val_0xffffffff_immval_0x10>:
I_ori_cg_cr_rs1_imm_edges_rs1val_0xffffffff_immval_0x10:
  ori x31, x14, 16 # perform operation
    1fc4:	01076f93          	ori	x31,x14,16
  # Check if x31 contains the expected result. x12 is the signature ptr, x8 is the link ptr, x7 is a temp reg.
  RVTEST_SIGUPD(x12, x8, x7, x31, I_ori_cg_cr_rs1_imm_edges_rs1val_0xffffffff_immval_0x10, I_ori_cg_cr_rs1_imm_edges_rs1val_0xffffffff_immval_0x10_str)
    1fc8:	00062383          	lw	x7,0(x12)
    1fcc:	01f38863          	beq	x7,x31,1fdc <I_ori_cg_cr_rs1_imm_edges_rs1val_0xffffffff_immval_0x10+0x18>
    1fd0:	4e40146f          	jal	x8,34b4 <failedtest_x8_x7>
    1fd4:	00001fc4          	.word	0x00001fc4
    1fd8:	0000c3e3          	.word	0x0000c3e3
    1fdc:	00460613          	addi	x12,x12,4

# Testcase cr_rs1_imm_edges (rs1 = 0xffffffff, imm = 32)
  RVTEST_TESTDATA_LOAD_INT(x1, x16) # load rs1: x16 = 0xffffffff
    1fe0:	0000a803          	lw	x16,0(x1)
    1fe4:	00408093          	addi	x1,x1,4

00001fe8 <I_ori_cg_cr_rs1_imm_edges_rs1val_0xffffffff_immval_0x20>:
I_ori_cg_cr_rs1_imm_edges_rs1val_0xffffffff_immval_0x20:
  ori x22, x16, 32 # perform operation
    1fe8:	02086b13          	ori	x22,x16,32
  # Check if x22 contains the expected result. x12 is the signature ptr, x8 is the link ptr, x7 is a temp reg.
  RVTEST_SIGUPD(x12, x8, x7, x22, I_ori_cg_cr_rs1_imm_edges_rs1val_0xffffffff_immval_0x20, I_ori_cg_cr_rs1_imm_edges_rs1val_0xffffffff_immval_0x20_str)
    1fec:	00062383          	lw	x7,0(x12)
    1ff0:	01638863          	beq	x7,x22,2000 <I_ori_cg_cr_rs1_imm_edges_rs1val_0xffffffff_immval_0x20+0x18>
    1ff4:	4c00146f          	jal	x8,34b4 <failedtest_x8_x7>
    1ff8:	00001fe8          	.word	0x00001fe8
    1ffc:	0000c438          	.word	0x0000c438
    2000:	00460613          	addi	x12,x12,4

# Testcase cr_rs1_imm_edges (rs1 = 0xffffffff, imm = 64)
  RVTEST_TESTDATA_LOAD_INT(x1, x25) # load rs1: x25 = 0xffffffff
    2004:	0000ac83          	lw	x25,0(x1)
    2008:	00408093          	addi	x1,x1,4

0000200c <I_ori_cg_cr_rs1_imm_edges_rs1val_0xffffffff_immval_0x40>:
I_ori_cg_cr_rs1_imm_edges_rs1val_0xffffffff_immval_0x40:
  ori x17, x25, 64 # perform operation
    200c:	040ce893          	ori	x17,x25,64
  # Check if x17 contains the expected result. x12 is the signature ptr, x8 is the link ptr, x7 is a temp reg.
  RVTEST_SIGUPD(x12, x8, x7, x17, I_ori_cg_cr_rs1_imm_edges_rs1val_0xffffffff_immval_0x40, I_ori_cg_cr_rs1_imm_edges_rs1val_0xffffffff_immval_0x40_str)
    2010:	00062383          	lw	x7,0(x12)
    2014:	01138863          	beq	x7,x17,2024 <I_ori_cg_cr_rs1_imm_edges_rs1val_0xffffffff_immval_0x40+0x18>
    2018:	49c0146f          	jal	x8,34b4 <failedtest_x8_x7>
    201c:	0000200c          	.word	0x0000200c
    2020:	0000c48d          	.word	0x0000c48d
    2024:	00460613          	addi	x12,x12,4

# Testcase cr_rs1_imm_edges (rs1 = 0xffffffff, imm = 128)
  RVTEST_TESTDATA_LOAD_INT(x1, x16) # load rs1: x16 = 0xffffffff
    2028:	0000a803          	lw	x16,0(x1)
    202c:	00408093          	addi	x1,x1,4

00002030 <I_ori_cg_cr_rs1_imm_edges_rs1val_0xffffffff_immval_0x80>:
I_ori_cg_cr_rs1_imm_edges_rs1val_0xffffffff_immval_0x80:
  ori x19, x16, 128 # perform operation
    2030:	08086993          	ori	x19,x16,128
  # Check if x19 contains the expected result. x12 is the signature ptr, x8 is the link ptr, x7 is a temp reg.
  RVTEST_SIGUPD(x12, x8, x7, x19, I_ori_cg_cr_rs1_imm_edges_rs1val_0xffffffff_immval_0x80, I_ori_cg_cr_rs1_imm_edges_rs1val_0xffffffff_immval_0x80_str)
    2034:	00062383          	lw	x7,0(x12)
    2038:	01338863          	beq	x7,x19,2048 <I_ori_cg_cr_rs1_imm_edges_rs1val_0xffffffff_immval_0x80+0x18>
    203c:	4780146f          	jal	x8,34b4 <failedtest_x8_x7>
    2040:	00002030          	.word	0x00002030
    2044:	0000c4e2          	.word	0x0000c4e2
    2048:	00460613          	addi	x12,x12,4

# Testcase cr_rs1_imm_edges (rs1 = 0xffffffff, imm = 256)
  RVTEST_TESTDATA_LOAD_INT(x1, x10) # load rs1: x10 = 0xffffffff
    204c:	0000a503          	lw	x10,0(x1)
    2050:	00408093          	addi	x1,x1,4

00002054 <I_ori_cg_cr_rs1_imm_edges_rs1val_0xffffffff_immval_0x100>:
I_ori_cg_cr_rs1_imm_edges_rs1val_0xffffffff_immval_0x100:
  ori x16, x10, 256 # perform operation
    2054:	10056813          	ori	x16,x10,256
  # Check if x16 contains the expected result. x12 is the signature ptr, x8 is the link ptr, x7 is a temp reg.
  RVTEST_SIGUPD(x12, x8, x7, x16, I_ori_cg_cr_rs1_imm_edges_rs1val_0xffffffff_immval_0x100, I_ori_cg_cr_rs1_imm_edges_rs1val_0xffffffff_immval_0x100_str)
    2058:	00062383          	lw	x7,0(x12)
    205c:	01038863          	beq	x7,x16,206c <I_ori_cg_cr_rs1_imm_edges_rs1val_0xffffffff_immval_0x100+0x18>
    2060:	4540146f          	jal	x8,34b4 <failedtest_x8_x7>
    2064:	00002054          	.word	0x00002054
    2068:	0000c537          	.word	0x0000c537
    206c:	00460613          	addi	x12,x12,4

# Testcase cr_rs1_imm_edges (rs1 = 0xffffffff, imm = 512)
  RVTEST_TESTDATA_LOAD_INT(x1, x21) # load rs1: x21 = 0xffffffff
    2070:	0000aa83          	lw	x21,0(x1)
    2074:	00408093          	addi	x1,x1,4

00002078 <I_ori_cg_cr_rs1_imm_edges_rs1val_0xffffffff_immval_0x200>:
I_ori_cg_cr_rs1_imm_edges_rs1val_0xffffffff_immval_0x200:
  ori x13, x21, 512 # perform operation
    2078:	200ae693          	ori	x13,x21,512
  # Check if x13 contains the expected result. x12 is the signature ptr, x8 is the link ptr, x7 is a temp reg.
  RVTEST_SIGUPD(x12, x8, x7, x13, I_ori_cg_cr_rs1_imm_edges_rs1val_0xffffffff_immval_0x200, I_ori_cg_cr_rs1_imm_edges_rs1val_0xffffffff_immval_0x200_str)
    207c:	00062383          	lw	x7,0(x12)
    2080:	00d38863          	beq	x7,x13,2090 <I_ori_cg_cr_rs1_imm_edges_rs1val_0xffffffff_immval_0x200+0x18>
    2084:	4300146f          	jal	x8,34b4 <failedtest_x8_x7>
    2088:	00002078          	.word	0x00002078
    208c:	0000c58d          	.word	0x0000c58d
    2090:	00460613          	addi	x12,x12,4

# Testcase cr_rs1_imm_edges (rs1 = 0xffffffff, imm = 1023)
  RVTEST_TESTDATA_LOAD_INT(x1, x9) # load rs1: x9 = 0xffffffff
    2094:	0000a483          	lw	x9,0(x1)
    2098:	00408093          	addi	x1,x1,4

0000209c <I_ori_cg_cr_rs1_imm_edges_rs1val_0xffffffff_immval_0x3ff>:
I_ori_cg_cr_rs1_imm_edges_rs1val_0xffffffff_immval_0x3ff:
  ori x2, x9, 1023 # perform operation
    209c:	3ff4e113          	ori	x2,x9,1023
  # Check if x2 contains the expected result. x12 is the signature ptr, x8 is the link ptr, x7 is a temp reg.
  RVTEST_SIGUPD(x12, x8, x7, x2, I_ori_cg_cr_rs1_imm_edges_rs1val_0xffffffff_immval_0x3ff, I_ori_cg_cr_rs1_imm_edges_rs1val_0xffffffff_immval_0x3ff_str)
    20a0:	00062383          	lw	x7,0(x12)
    20a4:	00238863          	beq	x7,x2,20b4 <I_ori_cg_cr_rs1_imm_edges_rs1val_0xffffffff_immval_0x3ff+0x18>
    20a8:	40c0146f          	jal	x8,34b4 <failedtest_x8_x7>
    20ac:	0000209c          	.word	0x0000209c
    20b0:	0000c5e3          	.word	0x0000c5e3
    20b4:	00460613          	addi	x12,x12,4

# Testcase cr_rs1_imm_edges (rs1 = 0xffffffff, imm = 1024)
  RVTEST_TESTDATA_LOAD_INT(x1, x11) # load rs1: x11 = 0xffffffff
    20b8:	0000a583          	lw	x11,0(x1)
    20bc:	00408093          	addi	x1,x1,4

000020c0 <I_ori_cg_cr_rs1_imm_edges_rs1val_0xffffffff_immval_0x400>:
I_ori_cg_cr_rs1_imm_edges_rs1val_0xffffffff_immval_0x400:
  ori x18, x11, 1024 # perform operation
    20c0:	4005e913          	ori	x18,x11,1024
  # Check if x18 contains the expected result. x12 is the signature ptr, x8 is the link ptr, x7 is a temp reg.
  RVTEST_SIGUPD(x12, x8, x7, x18, I_ori_cg_cr_rs1_imm_edges_rs1val_0xffffffff_immval_0x400, I_ori_cg_cr_rs1_imm_edges_rs1val_0xffffffff_immval_0x400_str)
    20c4:	00062383          	lw	x7,0(x12)
    20c8:	01238863          	beq	x7,x18,20d8 <I_ori_cg_cr_rs1_imm_edges_rs1val_0xffffffff_immval_0x400+0x18>
    20cc:	3e80146f          	jal	x8,34b4 <failedtest_x8_x7>
    20d0:	000020c0          	.word	0x000020c0
    20d4:	0000c639          	.word	0x0000c639
    20d8:	00460613          	addi	x12,x12,4

# Testcase cr_rs1_imm_edges (rs1 = 0xffffffff, imm = 1795)
  RVTEST_TESTDATA_LOAD_INT(x1, x18) # load rs1: x18 = 0xffffffff
    20dc:	0000a903          	lw	x18,0(x1)
    20e0:	00408093          	addi	x1,x1,4

000020e4 <I_ori_cg_cr_rs1_imm_edges_rs1val_0xffffffff_immval_0x703>:
I_ori_cg_cr_rs1_imm_edges_rs1val_0xffffffff_immval_0x703:
  ori x29, x18, 1795 # perform operation
    20e4:	70396e93          	ori	x29,x18,1795
  # Check if x29 contains the expected result. x12 is the signature ptr, x8 is the link ptr, x7 is a temp reg.
  RVTEST_SIGUPD(x12, x8, x7, x29, I_ori_cg_cr_rs1_imm_edges_rs1val_0xffffffff_immval_0x703, I_ori_cg_cr_rs1_imm_edges_rs1val_0xffffffff_immval_0x703_str)
    20e8:	00062383          	lw	x7,0(x12)
    20ec:	01d38863          	beq	x7,x29,20fc <I_ori_cg_cr_rs1_imm_edges_rs1val_0xffffffff_immval_0x703+0x18>
    20f0:	3c40146f          	jal	x8,34b4 <failedtest_x8_x7>
    20f4:	000020e4          	.word	0x000020e4
    20f8:	0000c68f          	.word	0x0000c68f
    20fc:	00460613          	addi	x12,x12,4

# Testcase cr_rs1_imm_edges (rs1 = 0xffffffff, imm = 2047)
  RVTEST_TESTDATA_LOAD_INT(x1, x26) # load rs1: x26 = 0xffffffff
    2100:	0000ad03          	lw	x26,0(x1)
    2104:	00408093          	addi	x1,x1,4

00002108 <I_ori_cg_cr_rs1_imm_edges_rs1val_0xffffffff_immval_0x7ff>:
I_ori_cg_cr_rs1_imm_edges_rs1val_0xffffffff_immval_0x7ff:
  ori x27, x26, 2047 # perform operation
    2108:	7ffd6d93          	ori	x27,x26,2047
  # Check if x27 contains the expected result. x12 is the signature ptr, x8 is the link ptr, x7 is a temp reg.
  RVTEST_SIGUPD(x12, x8, x7, x27, I_ori_cg_cr_rs1_imm_edges_rs1val_0xffffffff_immval_0x7ff, I_ori_cg_cr_rs1_imm_edges_rs1val_0xffffffff_immval_0x7ff_str)
    210c:	00062383          	lw	x7,0(x12)
    2110:	01b38863          	beq	x7,x27,2120 <I_ori_cg_cr_rs1_imm_edges_rs1val_0xffffffff_immval_0x7ff+0x18>
    2114:	3a00146f          	jal	x8,34b4 <failedtest_x8_x7>
    2118:	00002108          	.word	0x00002108
    211c:	0000c6e5          	.word	0x0000c6e5
    2120:	00460613          	addi	x12,x12,4

# Testcase cr_rs1_imm_edges (rs1 = 0xffffffff, imm = -2048)
  RVTEST_TESTDATA_LOAD_INT(x1, x21) # load rs1: x21 = 0xffffffff
    2124:	0000aa83          	lw	x21,0(x1)
    2128:	00408093          	addi	x1,x1,4

0000212c <I_ori_cg_cr_rs1_imm_edges_rs1val_0xffffffff_immval_m0x800>:
I_ori_cg_cr_rs1_imm_edges_rs1val_0xffffffff_immval_m0x800:
  ori x3, x21, -2048 # perform operation
    212c:	800ae193          	ori	x3,x21,-2048
  # Check if x3 contains the expected result. x12 is the signature ptr, x8 is the link ptr, x7 is a temp reg.
  RVTEST_SIGUPD(x12, x8, x7, x3, I_ori_cg_cr_rs1_imm_edges_rs1val_0xffffffff_immval_m0x800, I_ori_cg_cr_rs1_imm_edges_rs1val_0xffffffff_immval_m0x800_str)
    2130:	00062383          	lw	x7,0(x12)
    2134:	00338863          	beq	x7,x3,2144 <I_ori_cg_cr_rs1_imm_edges_rs1val_0xffffffff_immval_m0x800+0x18>
    2138:	37c0146f          	jal	x8,34b4 <failedtest_x8_x7>
    213c:	0000212c          	.word	0x0000212c
    2140:	0000c73b          	.word	0x0000c73b
    2144:	00460613          	addi	x12,x12,4

# Testcase cr_rs1_imm_edges (rs1 = 0xffffffff, imm = -2047)
  RVTEST_TESTDATA_LOAD_INT(x1, x15) # load rs1: x15 = 0xffffffff
    2148:	0000a783          	lw	x15,0(x1)
    214c:	00408093          	addi	x1,x1,4

00002150 <I_ori_cg_cr_rs1_imm_edges_rs1val_0xffffffff_immval_m0x7ff>:
I_ori_cg_cr_rs1_imm_edges_rs1val_0xffffffff_immval_m0x7ff:
  ori x17, x15, -2047 # perform operation
    2150:	8017e893          	ori	x17,x15,-2047
  # Check if x17 contains the expected result. x12 is the signature ptr, x8 is the link ptr, x7 is a temp reg.
  RVTEST_SIGUPD(x12, x8, x7, x17, I_ori_cg_cr_rs1_imm_edges_rs1val_0xffffffff_immval_m0x7ff, I_ori_cg_cr_rs1_imm_edges_rs1val_0xffffffff_immval_m0x7ff_str)
    2154:	00062383          	lw	x7,0(x12)
    2158:	01138863          	beq	x7,x17,2168 <I_ori_cg_cr_rs1_imm_edges_rs1val_0xffffffff_immval_m0x7ff+0x18>
    215c:	3580146f          	jal	x8,34b4 <failedtest_x8_x7>
    2160:	00002150          	.word	0x00002150
    2164:	0000c792          	.word	0x0000c792
    2168:	00460613          	addi	x12,x12,4

# Testcase cr_rs1_imm_edges (rs1 = 0xffffffff, imm = -2)
  RVTEST_TESTDATA_LOAD_INT(x1, x13) # load rs1: x13 = 0xffffffff
    216c:	0000a683          	lw	x13,0(x1)
    2170:	00408093          	addi	x1,x1,4

00002174 <I_ori_cg_cr_rs1_imm_edges_rs1val_0xffffffff_immval_m0x2>:
I_ori_cg_cr_rs1_imm_edges_rs1val_0xffffffff_immval_m0x2:
  ori x21, x13, -2 # perform operation
    2174:	ffe6ea93          	ori	x21,x13,-2
  # Check if x21 contains the expected result. x12 is the signature ptr, x8 is the link ptr, x7 is a temp reg.
  RVTEST_SIGUPD(x12, x8, x7, x21, I_ori_cg_cr_rs1_imm_edges_rs1val_0xffffffff_immval_m0x2, I_ori_cg_cr_rs1_imm_edges_rs1val_0xffffffff_immval_m0x2_str)
    2178:	00062383          	lw	x7,0(x12)
    217c:	01538863          	beq	x7,x21,218c <I_ori_cg_cr_rs1_imm_edges_rs1val_0xffffffff_immval_m0x2+0x18>
    2180:	3340146f          	jal	x8,34b4 <failedtest_x8_x7>
    2184:	00002174          	.word	0x00002174
    2188:	0000c7e9          	.word	0x0000c7e9
    218c:	00460613          	addi	x12,x12,4

# Testcase cr_rs1_imm_edges (rs1 = 0xffffffff, imm = -1)
  RVTEST_TESTDATA_LOAD_INT(x1, x27) # load rs1: x27 = 0xffffffff
    2190:	0000ad83          	lw	x27,0(x1)
    2194:	00408093          	addi	x1,x1,4

00002198 <I_ori_cg_cr_rs1_imm_edges_rs1val_0xffffffff_immval_m0x1>:
I_ori_cg_cr_rs1_imm_edges_rs1val_0xffffffff_immval_m0x1:
  ori x26, x27, -1 # perform operation
    2198:	fffded13          	ori	x26,x27,-1
  # Check if x26 contains the expected result. x12 is the signature ptr, x8 is the link ptr, x7 is a temp reg.
  RVTEST_SIGUPD(x12, x8, x7, x26, I_ori_cg_cr_rs1_imm_edges_rs1val_0xffffffff_immval_m0x1, I_ori_cg_cr_rs1_imm_edges_rs1val_0xffffffff_immval_m0x1_str)
    219c:	00062383          	lw	x7,0(x12)
    21a0:	01a38863          	beq	x7,x26,21b0 <I_ori_cg_cr_rs1_imm_edges_rs1val_0xffffffff_immval_m0x1+0x18>
    21a4:	3100146f          	jal	x8,34b4 <failedtest_x8_x7>
    21a8:	00002198          	.word	0x00002198
    21ac:	0000c83e          	.word	0x0000c83e
    21b0:	00460613          	addi	x12,x12,4

# Testcase cr_rs1_imm_edges (rs1 = 0xfffffffe, imm = 0)
  RVTEST_TESTDATA_LOAD_INT(x1, x24) # load rs1: x24 = 0xfffffffe
    21b4:	0000ac03          	lw	x24,0(x1)
    21b8:	00408093          	addi	x1,x1,4

000021bc <I_ori_cg_cr_rs1_imm_edges_rs1val_0xfffffffe_immval_0x0>:
I_ori_cg_cr_rs1_imm_edges_rs1val_0xfffffffe_immval_0x0:
  ori x30, x24, 0 # perform operation
    21bc:	000c6f13          	ori	x30,x24,0
  # Check if x30 contains the expected result. x12 is the signature ptr, x8 is the link ptr, x7 is a temp reg.
  RVTEST_SIGUPD(x12, x8, x7, x30, I_ori_cg_cr_rs1_imm_edges_rs1val_0xfffffffe_immval_0x0, I_ori_cg_cr_rs1_imm_edges_rs1val_0xfffffffe_immval_0x0_str)
    21c0:	00062383          	lw	x7,0(x12)
    21c4:	01e38863          	beq	x7,x30,21d4 <I_ori_cg_cr_rs1_imm_edges_rs1val_0xfffffffe_immval_0x0+0x18>
    21c8:	2ec0146f          	jal	x8,34b4 <failedtest_x8_x7>
    21cc:	000021bc          	.word	0x000021bc
    21d0:	0000c893          	.word	0x0000c893
    21d4:	00460613          	addi	x12,x12,4

# Testcase cr_rs1_imm_edges (rs1 = 0xfffffffe, imm = 1)
  RVTEST_TESTDATA_LOAD_INT(x1, x28) # load rs1: x28 = 0xfffffffe
    21d8:	0000ae03          	lw	x28,0(x1)
    21dc:	00408093          	addi	x1,x1,4

000021e0 <I_ori_cg_cr_rs1_imm_edges_rs1val_0xfffffffe_immval_0x1>:
I_ori_cg_cr_rs1_imm_edges_rs1val_0xfffffffe_immval_0x1:
  ori x10, x28, 1 # perform operation
    21e0:	001e6513          	ori	x10,x28,1
  # Check if x10 contains the expected result. x12 is the signature ptr, x8 is the link ptr, x7 is a temp reg.
  RVTEST_SIGUPD(x12, x8, x7, x10, I_ori_cg_cr_rs1_imm_edges_rs1val_0xfffffffe_immval_0x1, I_ori_cg_cr_rs1_imm_edges_rs1val_0xfffffffe_immval_0x1_str)
    21e4:	00062383          	lw	x7,0(x12)
    21e8:	00a38863          	beq	x7,x10,21f8 <I_ori_cg_cr_rs1_imm_edges_rs1val_0xfffffffe_immval_0x1+0x18>
    21ec:	2c80146f          	jal	x8,34b4 <failedtest_x8_x7>
    21f0:	000021e0          	.word	0x000021e0
    21f4:	0000c8e7          	.word	0x0000c8e7
    21f8:	00460613          	addi	x12,x12,4

# Testcase cr_rs1_imm_edges (rs1 = 0xfffffffe, imm = 2)
  RVTEST_TESTDATA_LOAD_INT(x1, x21) # load rs1: x21 = 0xfffffffe
    21fc:	0000aa83          	lw	x21,0(x1)
    2200:	00408093          	addi	x1,x1,4

00002204 <I_ori_cg_cr_rs1_imm_edges_rs1val_0xfffffffe_immval_0x2>:
I_ori_cg_cr_rs1_imm_edges_rs1val_0xfffffffe_immval_0x2:
  ori x6, x21, 2 # perform operation
    2204:	002ae313          	ori	x6,x21,2
  # Check if x6 contains the expected result. x12 is the signature ptr, x8 is the link ptr, x7 is a temp reg.
  RVTEST_SIGUPD(x12, x8, x7, x6, I_ori_cg_cr_rs1_imm_edges_rs1val_0xfffffffe_immval_0x2, I_ori_cg_cr_rs1_imm_edges_rs1val_0xfffffffe_immval_0x2_str)
    2208:	00062383          	lw	x7,0(x12)
    220c:	00638863          	beq	x7,x6,221c <I_ori_cg_cr_rs1_imm_edges_rs1val_0xfffffffe_immval_0x2+0x18>
    2210:	2a40146f          	jal	x8,34b4 <failedtest_x8_x7>
    2214:	00002204          	.word	0x00002204
    2218:	0000c93b          	.word	0x0000c93b
    221c:	00460613          	addi	x12,x12,4

# Testcase cr_rs1_imm_edges (rs1 = 0xfffffffe, imm = 3)
  RVTEST_TESTDATA_LOAD_INT(x1, x24) # load rs1: x24 = 0xfffffffe
    2220:	0000ac03          	lw	x24,0(x1)
    2224:	00408093          	addi	x1,x1,4

00002228 <I_ori_cg_cr_rs1_imm_edges_rs1val_0xfffffffe_immval_0x3>:
I_ori_cg_cr_rs1_imm_edges_rs1val_0xfffffffe_immval_0x3:
  ori x20, x24, 3 # perform operation
    2228:	003c6a13          	ori	x20,x24,3
  # Check if x20 contains the expected result. x12 is the signature ptr, x8 is the link ptr, x7 is a temp reg.
  RVTEST_SIGUPD(x12, x8, x7, x20, I_ori_cg_cr_rs1_imm_edges_rs1val_0xfffffffe_immval_0x3, I_ori_cg_cr_rs1_imm_edges_rs1val_0xfffffffe_immval_0x3_str)
    222c:	00062383          	lw	x7,0(x12)
    2230:	01438863          	beq	x7,x20,2240 <I_ori_cg_cr_rs1_imm_edges_rs1val_0xfffffffe_immval_0x3+0x18>
    2234:	2800146f          	jal	x8,34b4 <failedtest_x8_x7>
    2238:	00002228          	.word	0x00002228
    223c:	0000c98f          	.word	0x0000c98f
    2240:	00460613          	addi	x12,x12,4

# Testcase cr_rs1_imm_edges (rs1 = 0xfffffffe, imm = 4)
  RVTEST_TESTDATA_LOAD_INT(x1, x15) # load rs1: x15 = 0xfffffffe
    2244:	0000a783          	lw	x15,0(x1)
    2248:	00408093          	addi	x1,x1,4

0000224c <I_ori_cg_cr_rs1_imm_edges_rs1val_0xfffffffe_immval_0x4>:
I_ori_cg_cr_rs1_imm_edges_rs1val_0xfffffffe_immval_0x4:
  ori x24, x15, 4 # perform operation
    224c:	0047ec13          	ori	x24,x15,4
  # Check if x24 contains the expected result. x12 is the signature ptr, x8 is the link ptr, x7 is a temp reg.
  RVTEST_SIGUPD(x12, x8, x7, x24, I_ori_cg_cr_rs1_imm_edges_rs1val_0xfffffffe_immval_0x4, I_ori_cg_cr_rs1_imm_edges_rs1val_0xfffffffe_immval_0x4_str)
    2250:	00062383          	lw	x7,0(x12)
    2254:	01838863          	beq	x7,x24,2264 <I_ori_cg_cr_rs1_imm_edges_rs1val_0xfffffffe_immval_0x4+0x18>
    2258:	25c0146f          	jal	x8,34b4 <failedtest_x8_x7>
    225c:	0000224c          	.word	0x0000224c
    2260:	0000c9e3          	.word	0x0000c9e3
    2264:	00460613          	addi	x12,x12,4

# Testcase cr_rs1_imm_edges (rs1 = 0xfffffffe, imm = 8)
  RVTEST_TESTDATA_LOAD_INT(x1, x30) # load rs1: x30 = 0xfffffffe
    2268:	0000af03          	lw	x30,0(x1)
    226c:	00408093          	addi	x1,x1,4

00002270 <I_ori_cg_cr_rs1_imm_edges_rs1val_0xfffffffe_immval_0x8>:
I_ori_cg_cr_rs1_imm_edges_rs1val_0xfffffffe_immval_0x8:
  ori x27, x30, 8 # perform operation
    2270:	008f6d93          	ori	x27,x30,8
  # Check if x27 contains the expected result. x12 is the signature ptr, x8 is the link ptr, x7 is a temp reg.
  RVTEST_SIGUPD(x12, x8, x7, x27, I_ori_cg_cr_rs1_imm_edges_rs1val_0xfffffffe_immval_0x8, I_ori_cg_cr_rs1_imm_edges_rs1val_0xfffffffe_immval_0x8_str)
    2274:	00062383          	lw	x7,0(x12)
    2278:	01b38863          	beq	x7,x27,2288 <I_ori_cg_cr_rs1_imm_edges_rs1val_0xfffffffe_immval_0x8+0x18>
    227c:	2380146f          	jal	x8,34b4 <failedtest_x8_x7>
    2280:	00002270          	.word	0x00002270
    2284:	0000ca37          	.word	0x0000ca37
    2288:	00460613          	addi	x12,x12,4

# Testcase cr_rs1_imm_edges (rs1 = 0xfffffffe, imm = 16)
  RVTEST_TESTDATA_LOAD_INT(x1, x9) # load rs1: x9 = 0xfffffffe
    228c:	0000a483          	lw	x9,0(x1)
    2290:	00408093          	addi	x1,x1,4

00002294 <I_ori_cg_cr_rs1_imm_edges_rs1val_0xfffffffe_immval_0x10>:
I_ori_cg_cr_rs1_imm_edges_rs1val_0xfffffffe_immval_0x10:
  ori x31, x9, 16 # perform operation
    2294:	0104ef93          	ori	x31,x9,16
  # Check if x31 contains the expected result. x12 is the signature ptr, x8 is the link ptr, x7 is a temp reg.
  RVTEST_SIGUPD(x12, x8, x7, x31, I_ori_cg_cr_rs1_imm_edges_rs1val_0xfffffffe_immval_0x10, I_ori_cg_cr_rs1_imm_edges_rs1val_0xfffffffe_immval_0x10_str)
    2298:	00062383          	lw	x7,0(x12)
    229c:	01f38863          	beq	x7,x31,22ac <I_ori_cg_cr_rs1_imm_edges_rs1val_0xfffffffe_immval_0x10+0x18>
    22a0:	2140146f          	jal	x8,34b4 <failedtest_x8_x7>
    22a4:	00002294          	.word	0x00002294
    22a8:	0000ca8b          	.word	0x0000ca8b
    22ac:	00460613          	addi	x12,x12,4

# Testcase cr_rs1_imm_edges (rs1 = 0xfffffffe, imm = 32)
  RVTEST_TESTDATA_LOAD_INT(x1, x11) # load rs1: x11 = 0xfffffffe
    22b0:	0000a583          	lw	x11,0(x1)
    22b4:	00408093          	addi	x1,x1,4

000022b8 <I_ori_cg_cr_rs1_imm_edges_rs1val_0xfffffffe_immval_0x20>:
I_ori_cg_cr_rs1_imm_edges_rs1val_0xfffffffe_immval_0x20:
  ori x13, x11, 32 # perform operation
    22b8:	0205e693          	ori	x13,x11,32
  # Check if x13 contains the expected result. x12 is the signature ptr, x8 is the link ptr, x7 is a temp reg.
  RVTEST_SIGUPD(x12, x8, x7, x13, I_ori_cg_cr_rs1_imm_edges_rs1val_0xfffffffe_immval_0x20, I_ori_cg_cr_rs1_imm_edges_rs1val_0xfffffffe_immval_0x20_str)
    22bc:	00062383          	lw	x7,0(x12)
    22c0:	00d38863          	beq	x7,x13,22d0 <I_ori_cg_cr_rs1_imm_edges_rs1val_0xfffffffe_immval_0x20+0x18>
    22c4:	1f00146f          	jal	x8,34b4 <failedtest_x8_x7>
    22c8:	000022b8          	.word	0x000022b8
    22cc:	0000cae0          	.word	0x0000cae0
    22d0:	00460613          	addi	x12,x12,4

# Testcase cr_rs1_imm_edges (rs1 = 0xfffffffe, imm = 64)
  RVTEST_TESTDATA_LOAD_INT(x1, x24) # load rs1: x24 = 0xfffffffe
    22d4:	0000ac03          	lw	x24,0(x1)
    22d8:	00408093          	addi	x1,x1,4

000022dc <I_ori_cg_cr_rs1_imm_edges_rs1val_0xfffffffe_immval_0x40>:
I_ori_cg_cr_rs1_imm_edges_rs1val_0xfffffffe_immval_0x40:
  ori x13, x24, 64 # perform operation
    22dc:	040c6693          	ori	x13,x24,64
  # Check if x13 contains the expected result. x12 is the signature ptr, x8 is the link ptr, x7 is a temp reg.
  RVTEST_SIGUPD(x12, x8, x7, x13, I_ori_cg_cr_rs1_imm_edges_rs1val_0xfffffffe_immval_0x40, I_ori_cg_cr_rs1_imm_edges_rs1val_0xfffffffe_immval_0x40_str)
    22e0:	00062383          	lw	x7,0(x12)
    22e4:	00d38863          	beq	x7,x13,22f4 <I_ori_cg_cr_rs1_imm_edges_rs1val_0xfffffffe_immval_0x40+0x18>
    22e8:	1cc0146f          	jal	x8,34b4 <failedtest_x8_x7>
    22ec:	000022dc          	.word	0x000022dc
    22f0:	0000cb35          	.word	0x0000cb35
    22f4:	00460613          	addi	x12,x12,4

# Testcase cr_rs1_imm_edges (rs1 = 0xfffffffe, imm = 128)
  RVTEST_TESTDATA_LOAD_INT(x1, x14) # load rs1: x14 = 0xfffffffe
    22f8:	0000a703          	lw	x14,0(x1)
    22fc:	00408093          	addi	x1,x1,4

00002300 <I_ori_cg_cr_rs1_imm_edges_rs1val_0xfffffffe_immval_0x80>:
I_ori_cg_cr_rs1_imm_edges_rs1val_0xfffffffe_immval_0x80:
  ori x26, x14, 128 # perform operation
    2300:	08076d13          	ori	x26,x14,128
  # Check if x26 contains the expected result. x12 is the signature ptr, x8 is the link ptr, x7 is a temp reg.
  RVTEST_SIGUPD(x12, x8, x7, x26, I_ori_cg_cr_rs1_imm_edges_rs1val_0xfffffffe_immval_0x80, I_ori_cg_cr_rs1_imm_edges_rs1val_0xfffffffe_immval_0x80_str)
    2304:	00062383          	lw	x7,0(x12)
    2308:	01a38863          	beq	x7,x26,2318 <I_ori_cg_cr_rs1_imm_edges_rs1val_0xfffffffe_immval_0x80+0x18>
    230c:	1a80146f          	jal	x8,34b4 <failedtest_x8_x7>
    2310:	00002300          	.word	0x00002300
    2314:	0000cb8a          	.word	0x0000cb8a
    2318:	00460613          	addi	x12,x12,4

# Testcase cr_rs1_imm_edges (rs1 = 0xfffffffe, imm = 256)
  RVTEST_TESTDATA_LOAD_INT(x1, x28) # load rs1: x28 = 0xfffffffe
    231c:	0000ae03          	lw	x28,0(x1)
    2320:	00408093          	addi	x1,x1,4

00002324 <I_ori_cg_cr_rs1_imm_edges_rs1val_0xfffffffe_immval_0x100>:
I_ori_cg_cr_rs1_imm_edges_rs1val_0xfffffffe_immval_0x100:
  ori x11, x28, 256 # perform operation
    2324:	100e6593          	ori	x11,x28,256
  # Check if x11 contains the expected result. x12 is the signature ptr, x8 is the link ptr, x7 is a temp reg.
  RVTEST_SIGUPD(x12, x8, x7, x11, I_ori_cg_cr_rs1_imm_edges_rs1val_0xfffffffe_immval_0x100, I_ori_cg_cr_rs1_imm_edges_rs1val_0xfffffffe_immval_0x100_str)
    2328:	00062383          	lw	x7,0(x12)
    232c:	00b38863          	beq	x7,x11,233c <I_ori_cg_cr_rs1_imm_edges_rs1val_0xfffffffe_immval_0x100+0x18>
    2330:	1840146f          	jal	x8,34b4 <failedtest_x8_x7>
    2334:	00002324          	.word	0x00002324
    2338:	0000cbdf          	.word	0x0000cbdf
    233c:	00460613          	addi	x12,x12,4

# Testcase cr_rs1_imm_edges (rs1 = 0xfffffffe, imm = 512)
  RVTEST_TESTDATA_LOAD_INT(x1, x14) # load rs1: x14 = 0xfffffffe
    2340:	0000a703          	lw	x14,0(x1)
    2344:	00408093          	addi	x1,x1,4

00002348 <I_ori_cg_cr_rs1_imm_edges_rs1val_0xfffffffe_immval_0x200>:
I_ori_cg_cr_rs1_imm_edges_rs1val_0xfffffffe_immval_0x200:
  ori x23, x14, 512 # perform operation
    2348:	20076b93          	ori	x23,x14,512
  # Check if x23 contains the expected result. x12 is the signature ptr, x8 is the link ptr, x7 is a temp reg.
  RVTEST_SIGUPD(x12, x8, x7, x23, I_ori_cg_cr_rs1_imm_edges_rs1val_0xfffffffe_immval_0x200, I_ori_cg_cr_rs1_imm_edges_rs1val_0xfffffffe_immval_0x200_str)
    234c:	00062383          	lw	x7,0(x12)
    2350:	01738863          	beq	x7,x23,2360 <I_ori_cg_cr_rs1_imm_edges_rs1val_0xfffffffe_immval_0x200+0x18>
    2354:	1600146f          	jal	x8,34b4 <failedtest_x8_x7>
    2358:	00002348          	.word	0x00002348
    235c:	0000cc35          	.word	0x0000cc35
    2360:	00460613          	addi	x12,x12,4

# Testcase cr_rs1_imm_edges (rs1 = 0xfffffffe, imm = 1023)
  RVTEST_TESTDATA_LOAD_INT(x1, x22) # load rs1: x22 = 0xfffffffe
    2364:	0000ab03          	lw	x22,0(x1)
    2368:	00408093          	addi	x1,x1,4

0000236c <I_ori_cg_cr_rs1_imm_edges_rs1val_0xfffffffe_immval_0x3ff>:
I_ori_cg_cr_rs1_imm_edges_rs1val_0xfffffffe_immval_0x3ff:
  ori x15, x22, 1023 # perform operation
    236c:	3ffb6793          	ori	x15,x22,1023
  # Check if x15 contains the expected result. x12 is the signature ptr, x8 is the link ptr, x7 is a temp reg.
  RVTEST_SIGUPD(x12, x8, x7, x15, I_ori_cg_cr_rs1_imm_edges_rs1val_0xfffffffe_immval_0x3ff, I_ori_cg_cr_rs1_imm_edges_rs1val_0xfffffffe_immval_0x3ff_str)
    2370:	00062383          	lw	x7,0(x12)
    2374:	00f38863          	beq	x7,x15,2384 <I_ori_cg_cr_rs1_imm_edges_rs1val_0xfffffffe_immval_0x3ff+0x18>
    2378:	13c0146f          	jal	x8,34b4 <failedtest_x8_x7>
    237c:	0000236c          	.word	0x0000236c
    2380:	0000cc8b          	.word	0x0000cc8b
    2384:	00460613          	addi	x12,x12,4

# Testcase cr_rs1_imm_edges (rs1 = 0xfffffffe, imm = 1024)
  RVTEST_TESTDATA_LOAD_INT(x1, x16) # load rs1: x16 = 0xfffffffe
    2388:	0000a803          	lw	x16,0(x1)
    238c:	00408093          	addi	x1,x1,4

00002390 <I_ori_cg_cr_rs1_imm_edges_rs1val_0xfffffffe_immval_0x400>:
I_ori_cg_cr_rs1_imm_edges_rs1val_0xfffffffe_immval_0x400:
  ori x18, x16, 1024 # perform operation
    2390:	40086913          	ori	x18,x16,1024
  # Check if x18 contains the expected result. x12 is the signature ptr, x8 is the link ptr, x7 is a temp reg.
  RVTEST_SIGUPD(x12, x8, x7, x18, I_ori_cg_cr_rs1_imm_edges_rs1val_0xfffffffe_immval_0x400, I_ori_cg_cr_rs1_imm_edges_rs1val_0xfffffffe_immval_0x400_str)
    2394:	00062383          	lw	x7,0(x12)
    2398:	01238863          	beq	x7,x18,23a8 <I_ori_cg_cr_rs1_imm_edges_rs1val_0xfffffffe_immval_0x400+0x18>
    239c:	1180146f          	jal	x8,34b4 <failedtest_x8_x7>
    23a0:	00002390          	.word	0x00002390
    23a4:	0000cce1          	.word	0x0000cce1
    23a8:	00460613          	addi	x12,x12,4

# Testcase cr_rs1_imm_edges (rs1 = 0xfffffffe, imm = 1795)
  RVTEST_TESTDATA_LOAD_INT(x1, x24) # load rs1: x24 = 0xfffffffe
    23ac:	0000ac03          	lw	x24,0(x1)
    23b0:	00408093          	addi	x1,x1,4

000023b4 <I_ori_cg_cr_rs1_imm_edges_rs1val_0xfffffffe_immval_0x703>:
I_ori_cg_cr_rs1_imm_edges_rs1val_0xfffffffe_immval_0x703:
  ori x2, x24, 1795 # perform operation
    23b4:	703c6113          	ori	x2,x24,1795
  # Check if x2 contains the expected result. x12 is the signature ptr, x8 is the link ptr, x7 is a temp reg.
  RVTEST_SIGUPD(x12, x8, x7, x2, I_ori_cg_cr_rs1_imm_edges_rs1val_0xfffffffe_immval_0x703, I_ori_cg_cr_rs1_imm_edges_rs1val_0xfffffffe_immval_0x703_str)
    23b8:	00062383          	lw	x7,0(x12)
    23bc:	00238863          	beq	x7,x2,23cc <I_ori_cg_cr_rs1_imm_edges_rs1val_0xfffffffe_immval_0x703+0x18>
    23c0:	0f40146f          	jal	x8,34b4 <failedtest_x8_x7>
    23c4:	000023b4          	.word	0x000023b4
    23c8:	0000cd37          	.word	0x0000cd37
    23cc:	00460613          	addi	x12,x12,4

# Testcase cr_rs1_imm_edges (rs1 = 0xfffffffe, imm = 2047)
  RVTEST_TESTDATA_LOAD_INT(x1, x19) # load rs1: x19 = 0xfffffffe
    23d0:	0000a983          	lw	x19,0(x1)
    23d4:	00408093          	addi	x1,x1,4

000023d8 <I_ori_cg_cr_rs1_imm_edges_rs1val_0xfffffffe_immval_0x7ff>:
I_ori_cg_cr_rs1_imm_edges_rs1val_0xfffffffe_immval_0x7ff:
  ori x28, x19, 2047 # perform operation
    23d8:	7ff9ee13          	ori	x28,x19,2047
  # Check if x28 contains the expected result. x12 is the signature ptr, x8 is the link ptr, x7 is a temp reg.
  RVTEST_SIGUPD(x12, x8, x7, x28, I_ori_cg_cr_rs1_imm_edges_rs1val_0xfffffffe_immval_0x7ff, I_ori_cg_cr_rs1_imm_edges_rs1val_0xfffffffe_immval_0x7ff_str)
    23dc:	00062383          	lw	x7,0(x12)
    23e0:	01c38863          	beq	x7,x28,23f0 <I_ori_cg_cr_rs1_imm_edges_rs1val_0xfffffffe_immval_0x7ff+0x18>
    23e4:	0d00146f          	jal	x8,34b4 <failedtest_x8_x7>
    23e8:	000023d8          	.word	0x000023d8
    23ec:	0000cd8d          	.word	0x0000cd8d
    23f0:	00460613          	addi	x12,x12,4

# Testcase cr_rs1_imm_edges (rs1 = 0xfffffffe, imm = -2048)
  RVTEST_TESTDATA_LOAD_INT(x1, x25) # load rs1: x25 = 0xfffffffe
    23f4:	0000ac83          	lw	x25,0(x1)
    23f8:	00408093          	addi	x1,x1,4

000023fc <I_ori_cg_cr_rs1_imm_edges_rs1val_0xfffffffe_immval_m0x800>:
I_ori_cg_cr_rs1_imm_edges_rs1val_0xfffffffe_immval_m0x800:
  ori x23, x25, -2048 # perform operation
    23fc:	800ceb93          	ori	x23,x25,-2048
  # Check if x23 contains the expected result. x12 is the signature ptr, x8 is the link ptr, x7 is a temp reg.
  RVTEST_SIGUPD(x12, x8, x7, x23, I_ori_cg_cr_rs1_imm_edges_rs1val_0xfffffffe_immval_m0x800, I_ori_cg_cr_rs1_imm_edges_rs1val_0xfffffffe_immval_m0x800_str)
    2400:	00062383          	lw	x7,0(x12)
    2404:	01738863          	beq	x7,x23,2414 <I_ori_cg_cr_rs1_imm_edges_rs1val_0xfffffffe_immval_m0x800+0x18>
    2408:	0ac0146f          	jal	x8,34b4 <failedtest_x8_x7>
    240c:	000023fc          	.word	0x000023fc
    2410:	0000cde3          	.word	0x0000cde3
    2414:	00460613          	addi	x12,x12,4

# Testcase cr_rs1_imm_edges (rs1 = 0xfffffffe, imm = -2047)
  RVTEST_TESTDATA_LOAD_INT(x1, x19) # load rs1: x19 = 0xfffffffe
    2418:	0000a983          	lw	x19,0(x1)
    241c:	00408093          	addi	x1,x1,4

00002420 <I_ori_cg_cr_rs1_imm_edges_rs1val_0xfffffffe_immval_m0x7ff>:
I_ori_cg_cr_rs1_imm_edges_rs1val_0xfffffffe_immval_m0x7ff:
  ori x11, x19, -2047 # perform operation
    2420:	8019e593          	ori	x11,x19,-2047
  # Check if x11 contains the expected result. x12 is the signature ptr, x8 is the link ptr, x7 is a temp reg.
  RVTEST_SIGUPD(x12, x8, x7, x11, I_ori_cg_cr_rs1_imm_edges_rs1val_0xfffffffe_immval_m0x7ff, I_ori_cg_cr_rs1_imm_edges_rs1val_0xfffffffe_immval_m0x7ff_str)
    2424:	00062383          	lw	x7,0(x12)
    2428:	00b38863          	beq	x7,x11,2438 <I_ori_cg_cr_rs1_imm_edges_rs1val_0xfffffffe_immval_m0x7ff+0x18>
    242c:	0880146f          	jal	x8,34b4 <failedtest_x8_x7>
    2430:	00002420          	.word	0x00002420
    2434:	0000ce3a          	.word	0x0000ce3a
    2438:	00460613          	addi	x12,x12,4

# Testcase cr_rs1_imm_edges (rs1 = 0xfffffffe, imm = -2)
  RVTEST_TESTDATA_LOAD_INT(x1, x2) # load rs1: x2 = 0xfffffffe
    243c:	0000a103          	lw	x2,0(x1)
    2440:	00408093          	addi	x1,x1,4

00002444 <I_ori_cg_cr_rs1_imm_edges_rs1val_0xfffffffe_immval_m0x2>:
I_ori_cg_cr_rs1_imm_edges_rs1val_0xfffffffe_immval_m0x2:
  ori x18, x2, -2 # perform operation
    2444:	ffe16913          	ori	x18,x2,-2
  # Check if x18 contains the expected result. x12 is the signature ptr, x8 is the link ptr, x7 is a temp reg.
  RVTEST_SIGUPD(x12, x8, x7, x18, I_ori_cg_cr_rs1_imm_edges_rs1val_0xfffffffe_immval_m0x2, I_ori_cg_cr_rs1_imm_edges_rs1val_0xfffffffe_immval_m0x2_str)
    2448:	00062383          	lw	x7,0(x12)
    244c:	01238863          	beq	x7,x18,245c <I_ori_cg_cr_rs1_imm_edges_rs1val_0xfffffffe_immval_m0x2+0x18>
    2450:	0640146f          	jal	x8,34b4 <failedtest_x8_x7>
    2454:	00002444          	.word	0x00002444
    2458:	0000ce91          	.word	0x0000ce91
    245c:	00460613          	addi	x12,x12,4

# Testcase cr_rs1_imm_edges (rs1 = 0xfffffffe, imm = -1)
  RVTEST_TESTDATA_LOAD_INT(x1, x4) # load rs1: x4 = 0xfffffffe
    2460:	0000a203          	lw	x4,0(x1)
    2464:	00408093          	addi	x1,x1,4

00002468 <I_ori_cg_cr_rs1_imm_edges_rs1val_0xfffffffe_immval_m0x1>:
I_ori_cg_cr_rs1_imm_edges_rs1val_0xfffffffe_immval_m0x1:
  ori x13, x4, -1 # perform operation
    2468:	fff26693          	ori	x13,x4,-1
  # Check if x13 contains the expected result. x12 is the signature ptr, x8 is the link ptr, x7 is a temp reg.
  RVTEST_SIGUPD(x12, x8, x7, x13, I_ori_cg_cr_rs1_imm_edges_rs1val_0xfffffffe_immval_m0x1, I_ori_cg_cr_rs1_imm_edges_rs1val_0xfffffffe_immval_m0x1_str)
    246c:	00062383          	lw	x7,0(x12)
    2470:	00d38863          	beq	x7,x13,2480 <I_ori_cg_cr_rs1_imm_edges_rs1val_0xfffffffe_immval_m0x1+0x18>
    2474:	0400146f          	jal	x8,34b4 <failedtest_x8_x7>
    2478:	00002468          	.word	0x00002468
    247c:	0000cee6          	.word	0x0000cee6
    2480:	00460613          	addi	x12,x12,4

# Testcase cr_rs1_imm_edges (rs1 = 0x5bbc8872, imm = 0)
  RVTEST_TESTDATA_LOAD_INT(x1, x4) # load rs1: x4 = 0x5bbc8872
    2484:	0000a203          	lw	x4,0(x1)
    2488:	00408093          	addi	x1,x1,4

0000248c <I_ori_cg_cr_rs1_imm_edges_rs1val_0x5bbc8872_immval_0x0>:
I_ori_cg_cr_rs1_imm_edges_rs1val_0x5bbc8872_immval_0x0:
  ori x15, x4, 0 # perform operation
    248c:	00026793          	ori	x15,x4,0
  # Check if x15 contains the expected result. x12 is the signature ptr, x8 is the link ptr, x7 is a temp reg.
  RVTEST_SIGUPD(x12, x8, x7, x15, I_ori_cg_cr_rs1_imm_edges_rs1val_0x5bbc8872_immval_0x0, I_ori_cg_cr_rs1_imm_edges_rs1val_0x5bbc8872_immval_0x0_str)
    2490:	00062383          	lw	x7,0(x12)
    2494:	00f38863          	beq	x7,x15,24a4 <I_ori_cg_cr_rs1_imm_edges_rs1val_0x5bbc8872_immval_0x0+0x18>
    2498:	01c0146f          	jal	x8,34b4 <failedtest_x8_x7>
    249c:	0000248c          	.word	0x0000248c
    24a0:	0000cf3b          	.word	0x0000cf3b
    24a4:	00460613          	addi	x12,x12,4

# Testcase cr_rs1_imm_edges (rs1 = 0x5bbc8872, imm = 1)
  RVTEST_TESTDATA_LOAD_INT(x1, x20) # load rs1: x20 = 0x5bbc8872
    24a8:	0000aa03          	lw	x20,0(x1)
    24ac:	00408093          	addi	x1,x1,4

000024b0 <I_ori_cg_cr_rs1_imm_edges_rs1val_0x5bbc8872_immval_0x1>:
I_ori_cg_cr_rs1_imm_edges_rs1val_0x5bbc8872_immval_0x1:
  ori x16, x20, 1 # perform operation
    24b0:	001a6813          	ori	x16,x20,1
  # Check if x16 contains the expected result. x12 is the signature ptr, x8 is the link ptr, x7 is a temp reg.
  RVTEST_SIGUPD(x12, x8, x7, x16, I_ori_cg_cr_rs1_imm_edges_rs1val_0x5bbc8872_immval_0x1, I_ori_cg_cr_rs1_imm_edges_rs1val_0x5bbc8872_immval_0x1_str)
    24b4:	00062383          	lw	x7,0(x12)
    24b8:	01038863          	beq	x7,x16,24c8 <I_ori_cg_cr_rs1_imm_edges_rs1val_0x5bbc8872_immval_0x1+0x18>
    24bc:	7f90046f          	jal	x8,34b4 <failedtest_x8_x7>
    24c0:	000024b0          	.word	0x000024b0
    24c4:	0000cf8f          	.word	0x0000cf8f
    24c8:	00460613          	addi	x12,x12,4

# Testcase cr_rs1_imm_edges (rs1 = 0x5bbc8872, imm = 2)
  RVTEST_TESTDATA_LOAD_INT(x1, x22) # load rs1: x22 = 0x5bbc8872
    24cc:	0000ab03          	lw	x22,0(x1)
    24d0:	00408093          	addi	x1,x1,4

000024d4 <I_ori_cg_cr_rs1_imm_edges_rs1val_0x5bbc8872_immval_0x2>:
I_ori_cg_cr_rs1_imm_edges_rs1val_0x5bbc8872_immval_0x2:
  ori x27, x22, 2 # perform operation
    24d4:	002b6d93          	ori	x27,x22,2
  # Check if x27 contains the expected result. x12 is the signature ptr, x8 is the link ptr, x7 is a temp reg.
  RVTEST_SIGUPD(x12, x8, x7, x27, I_ori_cg_cr_rs1_imm_edges_rs1val_0x5bbc8872_immval_0x2, I_ori_cg_cr_rs1_imm_edges_rs1val_0x5bbc8872_immval_0x2_str)
    24d8:	00062383          	lw	x7,0(x12)
    24dc:	01b38863          	beq	x7,x27,24ec <I_ori_cg_cr_rs1_imm_edges_rs1val_0x5bbc8872_immval_0x2+0x18>
    24e0:	7d50046f          	jal	x8,34b4 <failedtest_x8_x7>
    24e4:	000024d4          	.word	0x000024d4
    24e8:	0000cfe3          	.word	0x0000cfe3
    24ec:	00460613          	addi	x12,x12,4

# Testcase cr_rs1_imm_edges (rs1 = 0x5bbc8872, imm = 3)
  RVTEST_TESTDATA_LOAD_INT(x1, x6) # load rs1: x6 = 0x5bbc8872
    24f0:	0000a303          	lw	x6,0(x1)
    24f4:	00408093          	addi	x1,x1,4

000024f8 <I_ori_cg_cr_rs1_imm_edges_rs1val_0x5bbc8872_immval_0x3>:
I_ori_cg_cr_rs1_imm_edges_rs1val_0x5bbc8872_immval_0x3:
  ori x9, x6, 3 # perform operation
    24f8:	00336493          	ori	x9,x6,3
  # Check if x9 contains the expected result. x12 is the signature ptr, x8 is the link ptr, x7 is a temp reg.
  RVTEST_SIGUPD(x12, x8, x7, x9, I_ori_cg_cr_rs1_imm_edges_rs1val_0x5bbc8872_immval_0x3, I_ori_cg_cr_rs1_imm_edges_rs1val_0x5bbc8872_immval_0x3_str)
    24fc:	00062383          	lw	x7,0(x12)
    2500:	00938863          	beq	x7,x9,2510 <I_ori_cg_cr_rs1_imm_edges_rs1val_0x5bbc8872_immval_0x3+0x18>
    2504:	7b10046f          	jal	x8,34b4 <failedtest_x8_x7>
    2508:	000024f8          	.word	0x000024f8
    250c:	0000d037          	.word	0x0000d037
    2510:	00460613          	addi	x12,x12,4

# Testcase cr_rs1_imm_edges (rs1 = 0x5bbc8872, imm = 4)
  RVTEST_TESTDATA_LOAD_INT(x1, x31) # load rs1: x31 = 0x5bbc8872
    2514:	0000af83          	lw	x31,0(x1)
    2518:	00408093          	addi	x1,x1,4

0000251c <I_ori_cg_cr_rs1_imm_edges_rs1val_0x5bbc8872_immval_0x4>:
I_ori_cg_cr_rs1_imm_edges_rs1val_0x5bbc8872_immval_0x4:
  ori x19, x31, 4 # perform operation
    251c:	004fe993          	ori	x19,x31,4
  # Check if x19 contains the expected result. x12 is the signature ptr, x8 is the link ptr, x7 is a temp reg.
  RVTEST_SIGUPD(x12, x8, x7, x19, I_ori_cg_cr_rs1_imm_edges_rs1val_0x5bbc8872_immval_0x4, I_ori_cg_cr_rs1_imm_edges_rs1val_0x5bbc8872_immval_0x4_str)
    2520:	00062383          	lw	x7,0(x12)
    2524:	01338863          	beq	x7,x19,2534 <I_ori_cg_cr_rs1_imm_edges_rs1val_0x5bbc8872_immval_0x4+0x18>
    2528:	78d0046f          	jal	x8,34b4 <failedtest_x8_x7>
    252c:	0000251c          	.word	0x0000251c
    2530:	0000d08b          	.word	0x0000d08b
    2534:	00460613          	addi	x12,x12,4

# Testcase cr_rs1_imm_edges (rs1 = 0x5bbc8872, imm = 8)
  RVTEST_TESTDATA_LOAD_INT(x1, x26) # load rs1: x26 = 0x5bbc8872
    2538:	0000ad03          	lw	x26,0(x1)
    253c:	00408093          	addi	x1,x1,4

00002540 <I_ori_cg_cr_rs1_imm_edges_rs1val_0x5bbc8872_immval_0x8>:
I_ori_cg_cr_rs1_imm_edges_rs1val_0x5bbc8872_immval_0x8:
  ori x25, x26, 8 # perform operation
    2540:	008d6c93          	ori	x25,x26,8
  # Check if x25 contains the expected result. x12 is the signature ptr, x8 is the link ptr, x7 is a temp reg.
  RVTEST_SIGUPD(x12, x8, x7, x25, I_ori_cg_cr_rs1_imm_edges_rs1val_0x5bbc8872_immval_0x8, I_ori_cg_cr_rs1_imm_edges_rs1val_0x5bbc8872_immval_0x8_str)
    2544:	00062383          	lw	x7,0(x12)
    2548:	01938863          	beq	x7,x25,2558 <I_ori_cg_cr_rs1_imm_edges_rs1val_0x5bbc8872_immval_0x8+0x18>
    254c:	7690046f          	jal	x8,34b4 <failedtest_x8_x7>
    2550:	00002540          	.word	0x00002540
    2554:	0000d0df          	.word	0x0000d0df
    2558:	00460613          	addi	x12,x12,4

# Testcase cr_rs1_imm_edges (rs1 = 0x5bbc8872, imm = 16)
  RVTEST_TESTDATA_LOAD_INT(x1, x17) # load rs1: x17 = 0x5bbc8872
    255c:	0000a883          	lw	x17,0(x1)
    2560:	00408093          	addi	x1,x1,4

00002564 <I_ori_cg_cr_rs1_imm_edges_rs1val_0x5bbc8872_immval_0x10>:
I_ori_cg_cr_rs1_imm_edges_rs1val_0x5bbc8872_immval_0x10:
  ori x27, x17, 16 # perform operation
    2564:	0108ed93          	ori	x27,x17,16
  # Check if x27 contains the expected result. x12 is the signature ptr, x8 is the link ptr, x7 is a temp reg.
  RVTEST_SIGUPD(x12, x8, x7, x27, I_ori_cg_cr_rs1_imm_edges_rs1val_0x5bbc8872_immval_0x10, I_ori_cg_cr_rs1_imm_edges_rs1val_0x5bbc8872_immval_0x10_str)
    2568:	00062383          	lw	x7,0(x12)
    256c:	01b38863          	beq	x7,x27,257c <I_ori_cg_cr_rs1_imm_edges_rs1val_0x5bbc8872_immval_0x10+0x18>
    2570:	7450046f          	jal	x8,34b4 <failedtest_x8_x7>
    2574:	00002564          	.word	0x00002564
    2578:	0000d133          	.word	0x0000d133
    257c:	00460613          	addi	x12,x12,4

# Testcase cr_rs1_imm_edges (rs1 = 0x5bbc8872, imm = 32)
  RVTEST_TESTDATA_LOAD_INT(x1, x9) # load rs1: x9 = 0x5bbc8872
    2580:	0000a483          	lw	x9,0(x1)
    2584:	00408093          	addi	x1,x1,4

00002588 <I_ori_cg_cr_rs1_imm_edges_rs1val_0x5bbc8872_immval_0x20>:
I_ori_cg_cr_rs1_imm_edges_rs1val_0x5bbc8872_immval_0x20:
  ori x6, x9, 32 # perform operation
    2588:	0204e313          	ori	x6,x9,32
  # Check if x6 contains the expected result. x12 is the signature ptr, x8 is the link ptr, x7 is a temp reg.
  RVTEST_SIGUPD(x12, x8, x7, x6, I_ori_cg_cr_rs1_imm_edges_rs1val_0x5bbc8872_immval_0x20, I_ori_cg_cr_rs1_imm_edges_rs1val_0x5bbc8872_immval_0x20_str)
    258c:	00062383          	lw	x7,0(x12)
    2590:	00638863          	beq	x7,x6,25a0 <I_ori_cg_cr_rs1_imm_edges_rs1val_0x5bbc8872_immval_0x20+0x18>
    2594:	7210046f          	jal	x8,34b4 <failedtest_x8_x7>
    2598:	00002588          	.word	0x00002588
    259c:	0000d188          	.word	0x0000d188
    25a0:	00460613          	addi	x12,x12,4

# Testcase cr_rs1_imm_edges (rs1 = 0x5bbc8872, imm = 64)
  RVTEST_TESTDATA_LOAD_INT(x1, x31) # load rs1: x31 = 0x5bbc8872
    25a4:	0000af83          	lw	x31,0(x1)
    25a8:	00408093          	addi	x1,x1,4

000025ac <I_ori_cg_cr_rs1_imm_edges_rs1val_0x5bbc8872_immval_0x40>:
I_ori_cg_cr_rs1_imm_edges_rs1val_0x5bbc8872_immval_0x40:
  ori x6, x31, 64 # perform operation
    25ac:	040fe313          	ori	x6,x31,64
  # Check if x6 contains the expected result. x12 is the signature ptr, x8 is the link ptr, x7 is a temp reg.
  RVTEST_SIGUPD(x12, x8, x7, x6, I_ori_cg_cr_rs1_imm_edges_rs1val_0x5bbc8872_immval_0x40, I_ori_cg_cr_rs1_imm_edges_rs1val_0x5bbc8872_immval_0x40_str)
    25b0:	00062383          	lw	x7,0(x12)
    25b4:	00638863          	beq	x7,x6,25c4 <I_ori_cg_cr_rs1_imm_edges_rs1val_0x5bbc8872_immval_0x40+0x18>
    25b8:	6fd0046f          	jal	x8,34b4 <failedtest_x8_x7>
    25bc:	000025ac          	.word	0x000025ac
    25c0:	0000d1dd          	.word	0x0000d1dd
    25c4:	00460613          	addi	x12,x12,4

# Testcase cr_rs1_imm_edges (rs1 = 0x5bbc8872, imm = 128)
  RVTEST_TESTDATA_LOAD_INT(x1, x11) # load rs1: x11 = 0x5bbc8872
    25c8:	0000a583          	lw	x11,0(x1)
    25cc:	00408093          	addi	x1,x1,4

000025d0 <I_ori_cg_cr_rs1_imm_edges_rs1val_0x5bbc8872_immval_0x80>:
I_ori_cg_cr_rs1_imm_edges_rs1val_0x5bbc8872_immval_0x80:
  ori x6, x11, 128 # perform operation
    25d0:	0805e313          	ori	x6,x11,128
  # Check if x6 contains the expected result. x12 is the signature ptr, x8 is the link ptr, x7 is a temp reg.
  RVTEST_SIGUPD(x12, x8, x7, x6, I_ori_cg_cr_rs1_imm_edges_rs1val_0x5bbc8872_immval_0x80, I_ori_cg_cr_rs1_imm_edges_rs1val_0x5bbc8872_immval_0x80_str)
    25d4:	00062383          	lw	x7,0(x12)
    25d8:	00638863          	beq	x7,x6,25e8 <I_ori_cg_cr_rs1_imm_edges_rs1val_0x5bbc8872_immval_0x80+0x18>
    25dc:	6d90046f          	jal	x8,34b4 <failedtest_x8_x7>
    25e0:	000025d0          	.word	0x000025d0
    25e4:	0000d232          	.word	0x0000d232
    25e8:	00460613          	addi	x12,x12,4

# Testcase cr_rs1_imm_edges (rs1 = 0x5bbc8872, imm = 256)
  RVTEST_TESTDATA_LOAD_INT(x1, x23) # load rs1: x23 = 0x5bbc8872
    25ec:	0000ab83          	lw	x23,0(x1)
    25f0:	00408093          	addi	x1,x1,4

000025f4 <I_ori_cg_cr_rs1_imm_edges_rs1val_0x5bbc8872_immval_0x100>:
I_ori_cg_cr_rs1_imm_edges_rs1val_0x5bbc8872_immval_0x100:
  ori x22, x23, 256 # perform operation
    25f4:	100beb13          	ori	x22,x23,256
  # Check if x22 contains the expected result. x12 is the signature ptr, x8 is the link ptr, x7 is a temp reg.
  RVTEST_SIGUPD(x12, x8, x7, x22, I_ori_cg_cr_rs1_imm_edges_rs1val_0x5bbc8872_immval_0x100, I_ori_cg_cr_rs1_imm_edges_rs1val_0x5bbc8872_immval_0x100_str)
    25f8:	00062383          	lw	x7,0(x12)
    25fc:	01638863          	beq	x7,x22,260c <I_ori_cg_cr_rs1_imm_edges_rs1val_0x5bbc8872_immval_0x100+0x18>
    2600:	6b50046f          	jal	x8,34b4 <failedtest_x8_x7>
    2604:	000025f4          	.word	0x000025f4
    2608:	0000d287          	.word	0x0000d287
    260c:	00460613          	addi	x12,x12,4

# Testcase cr_rs1_imm_edges (rs1 = 0x5bbc8872, imm = 512)
  RVTEST_TESTDATA_LOAD_INT(x1, x21) # load rs1: x21 = 0x5bbc8872
    2610:	0000aa83          	lw	x21,0(x1)
    2614:	00408093          	addi	x1,x1,4

00002618 <I_ori_cg_cr_rs1_imm_edges_rs1val_0x5bbc8872_immval_0x200>:
I_ori_cg_cr_rs1_imm_edges_rs1val_0x5bbc8872_immval_0x200:
  ori x22, x21, 512 # perform operation
    2618:	200aeb13          	ori	x22,x21,512
  # Check if x22 contains the expected result. x12 is the signature ptr, x8 is the link ptr, x7 is a temp reg.
  RVTEST_SIGUPD(x12, x8, x7, x22, I_ori_cg_cr_rs1_imm_edges_rs1val_0x5bbc8872_immval_0x200, I_ori_cg_cr_rs1_imm_edges_rs1val_0x5bbc8872_immval_0x200_str)
    261c:	00062383          	lw	x7,0(x12)
    2620:	01638863          	beq	x7,x22,2630 <I_ori_cg_cr_rs1_imm_edges_rs1val_0x5bbc8872_immval_0x200+0x18>
    2624:	6910046f          	jal	x8,34b4 <failedtest_x8_x7>
    2628:	00002618          	.word	0x00002618
    262c:	0000d2dd          	.word	0x0000d2dd
    2630:	00460613          	addi	x12,x12,4

# Testcase cr_rs1_imm_edges (rs1 = 0x5bbc8872, imm = 1023)
  RVTEST_TESTDATA_LOAD_INT(x1, x13) # load rs1: x13 = 0x5bbc8872
    2634:	0000a683          	lw	x13,0(x1)
    2638:	00408093          	addi	x1,x1,4

0000263c <I_ori_cg_cr_rs1_imm_edges_rs1val_0x5bbc8872_immval_0x3ff>:
I_ori_cg_cr_rs1_imm_edges_rs1val_0x5bbc8872_immval_0x3ff:
  ori x2, x13, 1023 # perform operation
    263c:	3ff6e113          	ori	x2,x13,1023
  # Check if x2 contains the expected result. x12 is the signature ptr, x8 is the link ptr, x7 is a temp reg.
  RVTEST_SIGUPD(x12, x8, x7, x2, I_ori_cg_cr_rs1_imm_edges_rs1val_0x5bbc8872_immval_0x3ff, I_ori_cg_cr_rs1_imm_edges_rs1val_0x5bbc8872_immval_0x3ff_str)
    2640:	00062383          	lw	x7,0(x12)
    2644:	00238863          	beq	x7,x2,2654 <I_ori_cg_cr_rs1_imm_edges_rs1val_0x5bbc8872_immval_0x3ff+0x18>
    2648:	66d0046f          	jal	x8,34b4 <failedtest_x8_x7>
    264c:	0000263c          	.word	0x0000263c
    2650:	0000d333          	.word	0x0000d333
    2654:	00460613          	addi	x12,x12,4

# Testcase cr_rs1_imm_edges (rs1 = 0x5bbc8872, imm = 1024)
  RVTEST_TESTDATA_LOAD_INT(x1, x15) # load rs1: x15 = 0x5bbc8872
    2658:	0000a783          	lw	x15,0(x1)
    265c:	00408093          	addi	x1,x1,4

00002660 <I_ori_cg_cr_rs1_imm_edges_rs1val_0x5bbc8872_immval_0x400>:
I_ori_cg_cr_rs1_imm_edges_rs1val_0x5bbc8872_immval_0x400:
  ori x20, x15, 1024 # perform operation
    2660:	4007ea13          	ori	x20,x15,1024
  # Check if x20 contains the expected result. x12 is the signature ptr, x8 is the link ptr, x7 is a temp reg.
  RVTEST_SIGUPD(x12, x8, x7, x20, I_ori_cg_cr_rs1_imm_edges_rs1val_0x5bbc8872_immval_0x400, I_ori_cg_cr_rs1_imm_edges_rs1val_0x5bbc8872_immval_0x400_str)
    2664:	00062383          	lw	x7,0(x12)
    2668:	01438863          	beq	x7,x20,2678 <I_ori_cg_cr_rs1_imm_edges_rs1val_0x5bbc8872_immval_0x400+0x18>
    266c:	6490046f          	jal	x8,34b4 <failedtest_x8_x7>
    2670:	00002660          	.word	0x00002660
    2674:	0000d389          	.word	0x0000d389
    2678:	00460613          	addi	x12,x12,4

# Testcase cr_rs1_imm_edges (rs1 = 0x5bbc8872, imm = 1795)
  RVTEST_TESTDATA_LOAD_INT(x1, x6) # load rs1: x6 = 0x5bbc8872
    267c:	0000a303          	lw	x6,0(x1)
    2680:	00408093          	addi	x1,x1,4

00002684 <I_ori_cg_cr_rs1_imm_edges_rs1val_0x5bbc8872_immval_0x703>:
I_ori_cg_cr_rs1_imm_edges_rs1val_0x5bbc8872_immval_0x703:
  ori x20, x6, 1795 # perform operation
    2684:	70336a13          	ori	x20,x6,1795
  # Check if x20 contains the expected result. x12 is the signature ptr, x8 is the link ptr, x7 is a temp reg.
  RVTEST_SIGUPD(x12, x8, x7, x20, I_ori_cg_cr_rs1_imm_edges_rs1val_0x5bbc8872_immval_0x703, I_ori_cg_cr_rs1_imm_edges_rs1val_0x5bbc8872_immval_0x703_str)
    2688:	00062383          	lw	x7,0(x12)
    268c:	01438863          	beq	x7,x20,269c <I_ori_cg_cr_rs1_imm_edges_rs1val_0x5bbc8872_immval_0x703+0x18>
    2690:	6250046f          	jal	x8,34b4 <failedtest_x8_x7>
    2694:	00002684          	.word	0x00002684
    2698:	0000d3df          	.word	0x0000d3df
    269c:	00460613          	addi	x12,x12,4

# Testcase cr_rs1_imm_edges (rs1 = 0x5bbc8872, imm = 2047)
  RVTEST_TESTDATA_LOAD_INT(x1, x13) # load rs1: x13 = 0x5bbc8872
    26a0:	0000a683          	lw	x13,0(x1)
    26a4:	00408093          	addi	x1,x1,4

000026a8 <I_ori_cg_cr_rs1_imm_edges_rs1val_0x5bbc8872_immval_0x7ff>:
I_ori_cg_cr_rs1_imm_edges_rs1val_0x5bbc8872_immval_0x7ff:
  ori x16, x13, 2047 # perform operation
    26a8:	7ff6e813          	ori	x16,x13,2047
  # Check if x16 contains the expected result. x12 is the signature ptr, x8 is the link ptr, x7 is a temp reg.
  RVTEST_SIGUPD(x12, x8, x7, x16, I_ori_cg_cr_rs1_imm_edges_rs1val_0x5bbc8872_immval_0x7ff, I_ori_cg_cr_rs1_imm_edges_rs1val_0x5bbc8872_immval_0x7ff_str)
    26ac:	00062383          	lw	x7,0(x12)
    26b0:	01038863          	beq	x7,x16,26c0 <I_ori_cg_cr_rs1_imm_edges_rs1val_0x5bbc8872_immval_0x7ff+0x18>
    26b4:	6010046f          	jal	x8,34b4 <failedtest_x8_x7>
    26b8:	000026a8          	.word	0x000026a8
    26bc:	0000d435          	.word	0x0000d435
    26c0:	00460613          	addi	x12,x12,4

# Testcase cr_rs1_imm_edges (rs1 = 0x5bbc8872, imm = -2048)
  RVTEST_TESTDATA_LOAD_INT(x1, x20) # load rs1: x20 = 0x5bbc8872
    26c4:	0000aa03          	lw	x20,0(x1)
    26c8:	00408093          	addi	x1,x1,4

000026cc <I_ori_cg_cr_rs1_imm_edges_rs1val_0x5bbc8872_immval_m0x800>:
I_ori_cg_cr_rs1_imm_edges_rs1val_0x5bbc8872_immval_m0x800:
  ori x6, x20, -2048 # perform operation
    26cc:	800a6313          	ori	x6,x20,-2048
  # Check if x6 contains the expected result. x12 is the signature ptr, x8 is the link ptr, x7 is a temp reg.
  RVTEST_SIGUPD(x12, x8, x7, x6, I_ori_cg_cr_rs1_imm_edges_rs1val_0x5bbc8872_immval_m0x800, I_ori_cg_cr_rs1_imm_edges_rs1val_0x5bbc8872_immval_m0x800_str)
    26d0:	00062383          	lw	x7,0(x12)
    26d4:	00638863          	beq	x7,x6,26e4 <I_ori_cg_cr_rs1_imm_edges_rs1val_0x5bbc8872_immval_m0x800+0x18>
    26d8:	5dd0046f          	jal	x8,34b4 <failedtest_x8_x7>
    26dc:	000026cc          	.word	0x000026cc
    26e0:	0000d48b          	.word	0x0000d48b
    26e4:	00460613          	addi	x12,x12,4

# Testcase cr_rs1_imm_edges (rs1 = 0x5bbc8872, imm = -2047)
  RVTEST_TESTDATA_LOAD_INT(x1, x10) # load rs1: x10 = 0x5bbc8872
    26e8:	0000a503          	lw	x10,0(x1)
    26ec:	00408093          	addi	x1,x1,4

000026f0 <I_ori_cg_cr_rs1_imm_edges_rs1val_0x5bbc8872_immval_m0x7ff>:
I_ori_cg_cr_rs1_imm_edges_rs1val_0x5bbc8872_immval_m0x7ff:
  ori x28, x10, -2047 # perform operation
    26f0:	80156e13          	ori	x28,x10,-2047
  # Check if x28 contains the expected result. x12 is the signature ptr, x8 is the link ptr, x7 is a temp reg.
  RVTEST_SIGUPD(x12, x8, x7, x28, I_ori_cg_cr_rs1_imm_edges_rs1val_0x5bbc8872_immval_m0x7ff, I_ori_cg_cr_rs1_imm_edges_rs1val_0x5bbc8872_immval_m0x7ff_str)
    26f4:	00062383          	lw	x7,0(x12)
    26f8:	01c38863          	beq	x7,x28,2708 <I_ori_cg_cr_rs1_imm_edges_rs1val_0x5bbc8872_immval_m0x7ff+0x18>
    26fc:	5b90046f          	jal	x8,34b4 <failedtest_x8_x7>
    2700:	000026f0          	.word	0x000026f0
    2704:	0000d4e2          	.word	0x0000d4e2
    2708:	00460613          	addi	x12,x12,4

# Testcase cr_rs1_imm_edges (rs1 = 0x5bbc8872, imm = -2)
  RVTEST_TESTDATA_LOAD_INT(x1, x20) # load rs1: x20 = 0x5bbc8872
    270c:	0000aa03          	lw	x20,0(x1)
    2710:	00408093          	addi	x1,x1,4

00002714 <I_ori_cg_cr_rs1_imm_edges_rs1val_0x5bbc8872_immval_m0x2>:
I_ori_cg_cr_rs1_imm_edges_rs1val_0x5bbc8872_immval_m0x2:
  ori x3, x20, -2 # perform operation
    2714:	ffea6193          	ori	x3,x20,-2
  # Check if x3 contains the expected result. x12 is the signature ptr, x8 is the link ptr, x7 is a temp reg.
  RVTEST_SIGUPD(x12, x8, x7, x3, I_ori_cg_cr_rs1_imm_edges_rs1val_0x5bbc8872_immval_m0x2, I_ori_cg_cr_rs1_imm_edges_rs1val_0x5bbc8872_immval_m0x2_str)
    2718:	00062383          	lw	x7,0(x12)
    271c:	00338863          	beq	x7,x3,272c <I_ori_cg_cr_rs1_imm_edges_rs1val_0x5bbc8872_immval_m0x2+0x18>
    2720:	5950046f          	jal	x8,34b4 <failedtest_x8_x7>
    2724:	00002714          	.word	0x00002714
    2728:	0000d539          	.word	0x0000d539
    272c:	00460613          	addi	x12,x12,4

# Testcase cr_rs1_imm_edges (rs1 = 0x5bbc8872, imm = -1)
  RVTEST_TESTDATA_LOAD_INT(x1, x22) # load rs1: x22 = 0x5bbc8872
    2730:	0000ab03          	lw	x22,0(x1)
    2734:	00408093          	addi	x1,x1,4

00002738 <I_ori_cg_cr_rs1_imm_edges_rs1val_0x5bbc8872_immval_m0x1>:
I_ori_cg_cr_rs1_imm_edges_rs1val_0x5bbc8872_immval_m0x1:
  ori x14, x22, -1 # perform operation
    2738:	fffb6713          	ori	x14,x22,-1
  # Check if x14 contains the expected result. x12 is the signature ptr, x8 is the link ptr, x7 is a temp reg.
  RVTEST_SIGUPD(x12, x8, x7, x14, I_ori_cg_cr_rs1_imm_edges_rs1val_0x5bbc8872_immval_m0x1, I_ori_cg_cr_rs1_imm_edges_rs1val_0x5bbc8872_immval_m0x1_str)
    273c:	00062383          	lw	x7,0(x12)
    2740:	00e38863          	beq	x7,x14,2750 <I_ori_cg_cr_rs1_imm_edges_rs1val_0x5bbc8872_immval_m0x1+0x18>
    2744:	5710046f          	jal	x8,34b4 <failedtest_x8_x7>
    2748:	00002738          	.word	0x00002738
    274c:	0000d58e          	.word	0x0000d58e
    2750:	00460613          	addi	x12,x12,4

# Testcase cr_rs1_imm_edges (rs1 = 0xaaaaaaaa, imm = 0)
  RVTEST_TESTDATA_LOAD_INT(x1, x29) # load rs1: x29 = 0xaaaaaaaa
    2754:	0000ae83          	lw	x29,0(x1)
    2758:	00408093          	addi	x1,x1,4

0000275c <I_ori_cg_cr_rs1_imm_edges_rs1val_0xaaaaaaaa_immval_0x0>:
I_ori_cg_cr_rs1_imm_edges_rs1val_0xaaaaaaaa_immval_0x0:
  ori x13, x29, 0 # perform operation
    275c:	000ee693          	ori	x13,x29,0
  # Check if x13 contains the expected result. x12 is the signature ptr, x8 is the link ptr, x7 is a temp reg.
  RVTEST_SIGUPD(x12, x8, x7, x13, I_ori_cg_cr_rs1_imm_edges_rs1val_0xaaaaaaaa_immval_0x0, I_ori_cg_cr_rs1_imm_edges_rs1val_0xaaaaaaaa_immval_0x0_str)
    2760:	00062383          	lw	x7,0(x12)
    2764:	00d38863          	beq	x7,x13,2774 <I_ori_cg_cr_rs1_imm_edges_rs1val_0xaaaaaaaa_immval_0x0+0x18>
    2768:	54d0046f          	jal	x8,34b4 <failedtest_x8_x7>
    276c:	0000275c          	.word	0x0000275c
    2770:	0000d5e3          	.word	0x0000d5e3
    2774:	00460613          	addi	x12,x12,4

# Testcase cr_rs1_imm_edges (rs1 = 0xaaaaaaaa, imm = 1)
  RVTEST_TESTDATA_LOAD_INT(x1, x3) # load rs1: x3 = 0xaaaaaaaa
    2778:	0000a183          	lw	x3,0(x1)
    277c:	00408093          	addi	x1,x1,4

00002780 <I_ori_cg_cr_rs1_imm_edges_rs1val_0xaaaaaaaa_immval_0x1>:
I_ori_cg_cr_rs1_imm_edges_rs1val_0xaaaaaaaa_immval_0x1:
  ori x18, x3, 1 # perform operation
    2780:	0011e913          	ori	x18,x3,1
  # Check if x18 contains the expected result. x12 is the signature ptr, x8 is the link ptr, x7 is a temp reg.
  RVTEST_SIGUPD(x12, x8, x7, x18, I_ori_cg_cr_rs1_imm_edges_rs1val_0xaaaaaaaa_immval_0x1, I_ori_cg_cr_rs1_imm_edges_rs1val_0xaaaaaaaa_immval_0x1_str)
    2784:	00062383          	lw	x7,0(x12)
    2788:	01238863          	beq	x7,x18,2798 <I_ori_cg_cr_rs1_imm_edges_rs1val_0xaaaaaaaa_immval_0x1+0x18>
    278c:	5290046f          	jal	x8,34b4 <failedtest_x8_x7>
    2790:	00002780          	.word	0x00002780
    2794:	0000d637          	.word	0x0000d637
    2798:	00460613          	addi	x12,x12,4

# Testcase cr_rs1_imm_edges (rs1 = 0xaaaaaaaa, imm = 2)
  RVTEST_TESTDATA_LOAD_INT(x1, x20) # load rs1: x20 = 0xaaaaaaaa
    279c:	0000aa03          	lw	x20,0(x1)
    27a0:	00408093          	addi	x1,x1,4

000027a4 <I_ori_cg_cr_rs1_imm_edges_rs1val_0xaaaaaaaa_immval_0x2>:
I_ori_cg_cr_rs1_imm_edges_rs1val_0xaaaaaaaa_immval_0x2:
  ori x16, x20, 2 # perform operation
    27a4:	002a6813          	ori	x16,x20,2
  # Check if x16 contains the expected result. x12 is the signature ptr, x8 is the link ptr, x7 is a temp reg.
  RVTEST_SIGUPD(x12, x8, x7, x16, I_ori_cg_cr_rs1_imm_edges_rs1val_0xaaaaaaaa_immval_0x2, I_ori_cg_cr_rs1_imm_edges_rs1val_0xaaaaaaaa_immval_0x2_str)
    27a8:	00062383          	lw	x7,0(x12)
    27ac:	01038863          	beq	x7,x16,27bc <I_ori_cg_cr_rs1_imm_edges_rs1val_0xaaaaaaaa_immval_0x2+0x18>
    27b0:	5050046f          	jal	x8,34b4 <failedtest_x8_x7>
    27b4:	000027a4          	.word	0x000027a4
    27b8:	0000d68b          	.word	0x0000d68b
    27bc:	00460613          	addi	x12,x12,4

# Testcase cr_rs1_imm_edges (rs1 = 0xaaaaaaaa, imm = 3)
  RVTEST_TESTDATA_LOAD_INT(x1, x22) # load rs1: x22 = 0xaaaaaaaa
    27c0:	0000ab03          	lw	x22,0(x1)
    27c4:	00408093          	addi	x1,x1,4

000027c8 <I_ori_cg_cr_rs1_imm_edges_rs1val_0xaaaaaaaa_immval_0x3>:
I_ori_cg_cr_rs1_imm_edges_rs1val_0xaaaaaaaa_immval_0x3:
  ori x29, x22, 3 # perform operation
    27c8:	003b6e93          	ori	x29,x22,3
  # Check if x29 contains the expected result. x12 is the signature ptr, x8 is the link ptr, x7 is a temp reg.
  RVTEST_SIGUPD(x12, x8, x7, x29, I_ori_cg_cr_rs1_imm_edges_rs1val_0xaaaaaaaa_immval_0x3, I_ori_cg_cr_rs1_imm_edges_rs1val_0xaaaaaaaa_immval_0x3_str)
    27cc:	00062383          	lw	x7,0(x12)
    27d0:	01d38863          	beq	x7,x29,27e0 <I_ori_cg_cr_rs1_imm_edges_rs1val_0xaaaaaaaa_immval_0x3+0x18>
    27d4:	4e10046f          	jal	x8,34b4 <failedtest_x8_x7>
    27d8:	000027c8          	.word	0x000027c8
    27dc:	0000d6df          	.word	0x0000d6df
    27e0:	00460613          	addi	x12,x12,4

# Testcase cr_rs1_imm_edges (rs1 = 0xaaaaaaaa, imm = 4)
  RVTEST_TESTDATA_LOAD_INT(x1, x29) # load rs1: x29 = 0xaaaaaaaa
    27e4:	0000ae83          	lw	x29,0(x1)
    27e8:	00408093          	addi	x1,x1,4

000027ec <I_ori_cg_cr_rs1_imm_edges_rs1val_0xaaaaaaaa_immval_0x4>:
I_ori_cg_cr_rs1_imm_edges_rs1val_0xaaaaaaaa_immval_0x4:
  ori x3, x29, 4 # perform operation
    27ec:	004ee193          	ori	x3,x29,4
  # Check if x3 contains the expected result. x12 is the signature ptr, x8 is the link ptr, x7 is a temp reg.
  RVTEST_SIGUPD(x12, x8, x7, x3, I_ori_cg_cr_rs1_imm_edges_rs1val_0xaaaaaaaa_immval_0x4, I_ori_cg_cr_rs1_imm_edges_rs1val_0xaaaaaaaa_immval_0x4_str)
    27f0:	00062383          	lw	x7,0(x12)
    27f4:	00338863          	beq	x7,x3,2804 <I_ori_cg_cr_rs1_imm_edges_rs1val_0xaaaaaaaa_immval_0x4+0x18>
    27f8:	4bd0046f          	jal	x8,34b4 <failedtest_x8_x7>
    27fc:	000027ec          	.word	0x000027ec
    2800:	0000d733          	.word	0x0000d733
    2804:	00460613          	addi	x12,x12,4

# Testcase cr_rs1_imm_edges (rs1 = 0xaaaaaaaa, imm = 8)
  RVTEST_TESTDATA_LOAD_INT(x1, x3) # load rs1: x3 = 0xaaaaaaaa
    2808:	0000a183          	lw	x3,0(x1)
    280c:	00408093          	addi	x1,x1,4

00002810 <I_ori_cg_cr_rs1_imm_edges_rs1val_0xaaaaaaaa_immval_0x8>:
I_ori_cg_cr_rs1_imm_edges_rs1val_0xaaaaaaaa_immval_0x8:
  ori x9, x3, 8 # perform operation
    2810:	0081e493          	ori	x9,x3,8
  # Check if x9 contains the expected result. x12 is the signature ptr, x8 is the link ptr, x7 is a temp reg.
  RVTEST_SIGUPD(x12, x8, x7, x9, I_ori_cg_cr_rs1_imm_edges_rs1val_0xaaaaaaaa_immval_0x8, I_ori_cg_cr_rs1_imm_edges_rs1val_0xaaaaaaaa_immval_0x8_str)
    2814:	00062383          	lw	x7,0(x12)
    2818:	00938863          	beq	x7,x9,2828 <I_ori_cg_cr_rs1_imm_edges_rs1val_0xaaaaaaaa_immval_0x8+0x18>
    281c:	4990046f          	jal	x8,34b4 <failedtest_x8_x7>
    2820:	00002810          	.word	0x00002810
    2824:	0000d787          	.word	0x0000d787
    2828:	00460613          	addi	x12,x12,4

# Testcase cr_rs1_imm_edges (rs1 = 0xaaaaaaaa, imm = 16)
  RVTEST_TESTDATA_LOAD_INT(x1, x28) # load rs1: x28 = 0xaaaaaaaa
    282c:	0000ae03          	lw	x28,0(x1)
    2830:	00408093          	addi	x1,x1,4

00002834 <I_ori_cg_cr_rs1_imm_edges_rs1val_0xaaaaaaaa_immval_0x10>:
I_ori_cg_cr_rs1_imm_edges_rs1val_0xaaaaaaaa_immval_0x10:
  ori x16, x28, 16 # perform operation
    2834:	010e6813          	ori	x16,x28,16
  # Check if x16 contains the expected result. x12 is the signature ptr, x8 is the link ptr, x7 is a temp reg.
  RVTEST_SIGUPD(x12, x8, x7, x16, I_ori_cg_cr_rs1_imm_edges_rs1val_0xaaaaaaaa_immval_0x10, I_ori_cg_cr_rs1_imm_edges_rs1val_0xaaaaaaaa_immval_0x10_str)
    2838:	00062383          	lw	x7,0(x12)
    283c:	01038863          	beq	x7,x16,284c <I_ori_cg_cr_rs1_imm_edges_rs1val_0xaaaaaaaa_immval_0x10+0x18>
    2840:	4750046f          	jal	x8,34b4 <failedtest_x8_x7>
    2844:	00002834          	.word	0x00002834
    2848:	0000d7db          	.word	0x0000d7db
    284c:	00460613          	addi	x12,x12,4

# Testcase cr_rs1_imm_edges (rs1 = 0xaaaaaaaa, imm = 32)
  RVTEST_TESTDATA_LOAD_INT(x1, x10) # load rs1: x10 = 0xaaaaaaaa
    2850:	0000a503          	lw	x10,0(x1)
    2854:	00408093          	addi	x1,x1,4

00002858 <I_ori_cg_cr_rs1_imm_edges_rs1val_0xaaaaaaaa_immval_0x20>:
I_ori_cg_cr_rs1_imm_edges_rs1val_0xaaaaaaaa_immval_0x20:
  ori x29, x10, 32 # perform operation
    2858:	02056e93          	ori	x29,x10,32
  # Check if x29 contains the expected result. x12 is the signature ptr, x8 is the link ptr, x7 is a temp reg.
  RVTEST_SIGUPD(x12, x8, x7, x29, I_ori_cg_cr_rs1_imm_edges_rs1val_0xaaaaaaaa_immval_0x20, I_ori_cg_cr_rs1_imm_edges_rs1val_0xaaaaaaaa_immval_0x20_str)
    285c:	00062383          	lw	x7,0(x12)
    2860:	01d38863          	beq	x7,x29,2870 <I_ori_cg_cr_rs1_imm_edges_rs1val_0xaaaaaaaa_immval_0x20+0x18>
    2864:	4510046f          	jal	x8,34b4 <failedtest_x8_x7>
    2868:	00002858          	.word	0x00002858
    286c:	0000d830          	.word	0x0000d830
    2870:	00460613          	addi	x12,x12,4

# Testcase cr_rs1_imm_edges (rs1 = 0xaaaaaaaa, imm = 64)
  RVTEST_TESTDATA_LOAD_INT(x1, x9) # load rs1: x9 = 0xaaaaaaaa
    2874:	0000a483          	lw	x9,0(x1)
    2878:	00408093          	addi	x1,x1,4

0000287c <I_ori_cg_cr_rs1_imm_edges_rs1val_0xaaaaaaaa_immval_0x40>:
I_ori_cg_cr_rs1_imm_edges_rs1val_0xaaaaaaaa_immval_0x40:
  ori x24, x9, 64 # perform operation
    287c:	0404ec13          	ori	x24,x9,64
  # Check if x24 contains the expected result. x12 is the signature ptr, x8 is the link ptr, x7 is a temp reg.
  RVTEST_SIGUPD(x12, x8, x7, x24, I_ori_cg_cr_rs1_imm_edges_rs1val_0xaaaaaaaa_immval_0x40, I_ori_cg_cr_rs1_imm_edges_rs1val_0xaaaaaaaa_immval_0x40_str)
    2880:	00062383          	lw	x7,0(x12)
    2884:	01838863          	beq	x7,x24,2894 <I_ori_cg_cr_rs1_imm_edges_rs1val_0xaaaaaaaa_immval_0x40+0x18>
    2888:	42d0046f          	jal	x8,34b4 <failedtest_x8_x7>
    288c:	0000287c          	.word	0x0000287c
    2890:	0000d885          	.word	0x0000d885
    2894:	00460613          	addi	x12,x12,4

# Testcase cr_rs1_imm_edges (rs1 = 0xaaaaaaaa, imm = 128)
  RVTEST_TESTDATA_LOAD_INT(x1, x9) # load rs1: x9 = 0xaaaaaaaa
    2898:	0000a483          	lw	x9,0(x1)
    289c:	00408093          	addi	x1,x1,4

000028a0 <I_ori_cg_cr_rs1_imm_edges_rs1val_0xaaaaaaaa_immval_0x80>:
I_ori_cg_cr_rs1_imm_edges_rs1val_0xaaaaaaaa_immval_0x80:
  ori x24, x9, 128 # perform operation
    28a0:	0804ec13          	ori	x24,x9,128
  # Check if x24 contains the expected result. x12 is the signature ptr, x8 is the link ptr, x7 is a temp reg.
  RVTEST_SIGUPD(x12, x8, x7, x24, I_ori_cg_cr_rs1_imm_edges_rs1val_0xaaaaaaaa_immval_0x80, I_ori_cg_cr_rs1_imm_edges_rs1val_0xaaaaaaaa_immval_0x80_str)
    28a4:	00062383          	lw	x7,0(x12)
    28a8:	01838863          	beq	x7,x24,28b8 <I_ori_cg_cr_rs1_imm_edges_rs1val_0xaaaaaaaa_immval_0x80+0x18>
    28ac:	4090046f          	jal	x8,34b4 <failedtest_x8_x7>
    28b0:	000028a0          	.word	0x000028a0
    28b4:	0000d8da          	.word	0x0000d8da
    28b8:	00460613          	addi	x12,x12,4

# Testcase cr_rs1_imm_edges (rs1 = 0xaaaaaaaa, imm = 256)
  RVTEST_TESTDATA_LOAD_INT(x1, x14) # load rs1: x14 = 0xaaaaaaaa
    28bc:	0000a703          	lw	x14,0(x1)
    28c0:	00408093          	addi	x1,x1,4

000028c4 <I_ori_cg_cr_rs1_imm_edges_rs1val_0xaaaaaaaa_immval_0x100>:
I_ori_cg_cr_rs1_imm_edges_rs1val_0xaaaaaaaa_immval_0x100:
  ori x21, x14, 256 # perform operation
    28c4:	10076a93          	ori	x21,x14,256
  # Check if x21 contains the expected result. x12 is the signature ptr, x8 is the link ptr, x7 is a temp reg.
  RVTEST_SIGUPD(x12, x8, x7, x21, I_ori_cg_cr_rs1_imm_edges_rs1val_0xaaaaaaaa_immval_0x100, I_ori_cg_cr_rs1_imm_edges_rs1val_0xaaaaaaaa_immval_0x100_str)
    28c8:	00062383          	lw	x7,0(x12)
    28cc:	01538863          	beq	x7,x21,28dc <I_ori_cg_cr_rs1_imm_edges_rs1val_0xaaaaaaaa_immval_0x100+0x18>
    28d0:	3e50046f          	jal	x8,34b4 <failedtest_x8_x7>
    28d4:	000028c4          	.word	0x000028c4
    28d8:	0000d92f          	.word	0x0000d92f
    28dc:	00460613          	addi	x12,x12,4

# Testcase cr_rs1_imm_edges (rs1 = 0xaaaaaaaa, imm = 512)
  RVTEST_TESTDATA_LOAD_INT(x1, x6) # load rs1: x6 = 0xaaaaaaaa
    28e0:	0000a303          	lw	x6,0(x1)
    28e4:	00408093          	addi	x1,x1,4

000028e8 <I_ori_cg_cr_rs1_imm_edges_rs1val_0xaaaaaaaa_immval_0x200>:
I_ori_cg_cr_rs1_imm_edges_rs1val_0xaaaaaaaa_immval_0x200:
  ori x3, x6, 512 # perform operation
    28e8:	20036193          	ori	x3,x6,512
  # Check if x3 contains the expected result. x12 is the signature ptr, x8 is the link ptr, x7 is a temp reg.
  RVTEST_SIGUPD(x12, x8, x7, x3, I_ori_cg_cr_rs1_imm_edges_rs1val_0xaaaaaaaa_immval_0x200, I_ori_cg_cr_rs1_imm_edges_rs1val_0xaaaaaaaa_immval_0x200_str)
    28ec:	00062383          	lw	x7,0(x12)
    28f0:	00338863          	beq	x7,x3,2900 <I_ori_cg_cr_rs1_imm_edges_rs1val_0xaaaaaaaa_immval_0x200+0x18>
    28f4:	3c10046f          	jal	x8,34b4 <failedtest_x8_x7>
    28f8:	000028e8          	.word	0x000028e8
    28fc:	0000d985          	.word	0x0000d985
    2900:	00460613          	addi	x12,x12,4

# Testcase cr_rs1_imm_edges (rs1 = 0xaaaaaaaa, imm = 1023)
  RVTEST_TESTDATA_LOAD_INT(x1, x15) # load rs1: x15 = 0xaaaaaaaa
    2904:	0000a783          	lw	x15,0(x1)
    2908:	00408093          	addi	x1,x1,4

0000290c <I_ori_cg_cr_rs1_imm_edges_rs1val_0xaaaaaaaa_immval_0x3ff>:
I_ori_cg_cr_rs1_imm_edges_rs1val_0xaaaaaaaa_immval_0x3ff:
  ori x11, x15, 1023 # perform operation
    290c:	3ff7e593          	ori	x11,x15,1023
  # Check if x11 contains the expected result. x12 is the signature ptr, x8 is the link ptr, x7 is a temp reg.
  RVTEST_SIGUPD(x12, x8, x7, x11, I_ori_cg_cr_rs1_imm_edges_rs1val_0xaaaaaaaa_immval_0x3ff, I_ori_cg_cr_rs1_imm_edges_rs1val_0xaaaaaaaa_immval_0x3ff_str)
    2910:	00062383          	lw	x7,0(x12)
    2914:	00b38863          	beq	x7,x11,2924 <I_ori_cg_cr_rs1_imm_edges_rs1val_0xaaaaaaaa_immval_0x3ff+0x18>
    2918:	39d0046f          	jal	x8,34b4 <failedtest_x8_x7>
    291c:	0000290c          	.word	0x0000290c
    2920:	0000d9db          	.word	0x0000d9db
    2924:	00460613          	addi	x12,x12,4

# Testcase cr_rs1_imm_edges (rs1 = 0xaaaaaaaa, imm = 1024)
  RVTEST_TESTDATA_LOAD_INT(x1, x16) # load rs1: x16 = 0xaaaaaaaa
    2928:	0000a803          	lw	x16,0(x1)
    292c:	00408093          	addi	x1,x1,4

00002930 <I_ori_cg_cr_rs1_imm_edges_rs1val_0xaaaaaaaa_immval_0x400>:
I_ori_cg_cr_rs1_imm_edges_rs1val_0xaaaaaaaa_immval_0x400:
  ori x2, x16, 1024 # perform operation
    2930:	40086113          	ori	x2,x16,1024
  # Check if x2 contains the expected result. x12 is the signature ptr, x8 is the link ptr, x7 is a temp reg.
  RVTEST_SIGUPD(x12, x8, x7, x2, I_ori_cg_cr_rs1_imm_edges_rs1val_0xaaaaaaaa_immval_0x400, I_ori_cg_cr_rs1_imm_edges_rs1val_0xaaaaaaaa_immval_0x400_str)
    2934:	00062383          	lw	x7,0(x12)
    2938:	00238863          	beq	x7,x2,2948 <I_ori_cg_cr_rs1_imm_edges_rs1val_0xaaaaaaaa_immval_0x400+0x18>
    293c:	3790046f          	jal	x8,34b4 <failedtest_x8_x7>
    2940:	00002930          	.word	0x00002930
    2944:	0000da31          	.word	0x0000da31
    2948:	00460613          	addi	x12,x12,4

# Testcase cr_rs1_imm_edges (rs1 = 0xaaaaaaaa, imm = 1795)
  RVTEST_TESTDATA_LOAD_INT(x1, x18) # load rs1: x18 = 0xaaaaaaaa
    294c:	0000a903          	lw	x18,0(x1)
    2950:	00408093          	addi	x1,x1,4

00002954 <I_ori_cg_cr_rs1_imm_edges_rs1val_0xaaaaaaaa_immval_0x703>:
I_ori_cg_cr_rs1_imm_edges_rs1val_0xaaaaaaaa_immval_0x703:
  ori x25, x18, 1795 # perform operation
    2954:	70396c93          	ori	x25,x18,1795
  # Check if x25 contains the expected result. x12 is the signature ptr, x8 is the link ptr, x7 is a temp reg.
  RVTEST_SIGUPD(x12, x8, x7, x25, I_ori_cg_cr_rs1_imm_edges_rs1val_0xaaaaaaaa_immval_0x703, I_ori_cg_cr_rs1_imm_edges_rs1val_0xaaaaaaaa_immval_0x703_str)
    2958:	00062383          	lw	x7,0(x12)
    295c:	01938863          	beq	x7,x25,296c <I_ori_cg_cr_rs1_imm_edges_rs1val_0xaaaaaaaa_immval_0x703+0x18>
    2960:	3550046f          	jal	x8,34b4 <failedtest_x8_x7>
    2964:	00002954          	.word	0x00002954
    2968:	0000da87          	.word	0x0000da87
    296c:	00460613          	addi	x12,x12,4

# Testcase cr_rs1_imm_edges (rs1 = 0xaaaaaaaa, imm = 2047)
  RVTEST_TESTDATA_LOAD_INT(x1, x14) # load rs1: x14 = 0xaaaaaaaa
    2970:	0000a703          	lw	x14,0(x1)
    2974:	00408093          	addi	x1,x1,4

00002978 <I_ori_cg_cr_rs1_imm_edges_rs1val_0xaaaaaaaa_immval_0x7ff>:
I_ori_cg_cr_rs1_imm_edges_rs1val_0xaaaaaaaa_immval_0x7ff:
  ori x29, x14, 2047 # perform operation
    2978:	7ff76e93          	ori	x29,x14,2047
  # Check if x29 contains the expected result. x12 is the signature ptr, x8 is the link ptr, x7 is a temp reg.
  RVTEST_SIGUPD(x12, x8, x7, x29, I_ori_cg_cr_rs1_imm_edges_rs1val_0xaaaaaaaa_immval_0x7ff, I_ori_cg_cr_rs1_imm_edges_rs1val_0xaaaaaaaa_immval_0x7ff_str)
    297c:	00062383          	lw	x7,0(x12)
    2980:	01d38863          	beq	x7,x29,2990 <I_ori_cg_cr_rs1_imm_edges_rs1val_0xaaaaaaaa_immval_0x7ff+0x18>
    2984:	3310046f          	jal	x8,34b4 <failedtest_x8_x7>
    2988:	00002978          	.word	0x00002978
    298c:	0000dadd          	.word	0x0000dadd
    2990:	00460613          	addi	x12,x12,4

# Testcase cr_rs1_imm_edges (rs1 = 0xaaaaaaaa, imm = -2048)
  RVTEST_TESTDATA_LOAD_INT(x1, x3) # load rs1: x3 = 0xaaaaaaaa
    2994:	0000a183          	lw	x3,0(x1)
    2998:	00408093          	addi	x1,x1,4

0000299c <I_ori_cg_cr_rs1_imm_edges_rs1val_0xaaaaaaaa_immval_m0x800>:
I_ori_cg_cr_rs1_imm_edges_rs1val_0xaaaaaaaa_immval_m0x800:
  ori x16, x3, -2048 # perform operation
    299c:	8001e813          	ori	x16,x3,-2048
  # Check if x16 contains the expected result. x12 is the signature ptr, x8 is the link ptr, x7 is a temp reg.
  RVTEST_SIGUPD(x12, x8, x7, x16, I_ori_cg_cr_rs1_imm_edges_rs1val_0xaaaaaaaa_immval_m0x800, I_ori_cg_cr_rs1_imm_edges_rs1val_0xaaaaaaaa_immval_m0x800_str)
    29a0:	00062383          	lw	x7,0(x12)
    29a4:	01038863          	beq	x7,x16,29b4 <I_ori_cg_cr_rs1_imm_edges_rs1val_0xaaaaaaaa_immval_m0x800+0x18>
    29a8:	30d0046f          	jal	x8,34b4 <failedtest_x8_x7>
    29ac:	0000299c          	.word	0x0000299c
    29b0:	0000db33          	.word	0x0000db33
    29b4:	00460613          	addi	x12,x12,4

# Testcase cr_rs1_imm_edges (rs1 = 0xaaaaaaaa, imm = -2047)
  RVTEST_TESTDATA_LOAD_INT(x1, x14) # load rs1: x14 = 0xaaaaaaaa
    29b8:	0000a703          	lw	x14,0(x1)
    29bc:	00408093          	addi	x1,x1,4

000029c0 <I_ori_cg_cr_rs1_imm_edges_rs1val_0xaaaaaaaa_immval_m0x7ff>:
I_ori_cg_cr_rs1_imm_edges_rs1val_0xaaaaaaaa_immval_m0x7ff:
  ori x2, x14, -2047 # perform operation
    29c0:	80176113          	ori	x2,x14,-2047
  # Check if x2 contains the expected result. x12 is the signature ptr, x8 is the link ptr, x7 is a temp reg.
  RVTEST_SIGUPD(x12, x8, x7, x2, I_ori_cg_cr_rs1_imm_edges_rs1val_0xaaaaaaaa_immval_m0x7ff, I_ori_cg_cr_rs1_imm_edges_rs1val_0xaaaaaaaa_immval_m0x7ff_str)
    29c4:	00062383          	lw	x7,0(x12)
    29c8:	00238863          	beq	x7,x2,29d8 <I_ori_cg_cr_rs1_imm_edges_rs1val_0xaaaaaaaa_immval_m0x7ff+0x18>
    29cc:	2e90046f          	jal	x8,34b4 <failedtest_x8_x7>
    29d0:	000029c0          	.word	0x000029c0
    29d4:	0000db8a          	.word	0x0000db8a
    29d8:	00460613          	addi	x12,x12,4

# Testcase cr_rs1_imm_edges (rs1 = 0xaaaaaaaa, imm = -2)
  RVTEST_TESTDATA_LOAD_INT(x1, x27) # load rs1: x27 = 0xaaaaaaaa
    29dc:	0000ad83          	lw	x27,0(x1)
    29e0:	00408093          	addi	x1,x1,4

000029e4 <I_ori_cg_cr_rs1_imm_edges_rs1val_0xaaaaaaaa_immval_m0x2>:
I_ori_cg_cr_rs1_imm_edges_rs1val_0xaaaaaaaa_immval_m0x2:
  ori x26, x27, -2 # perform operation
    29e4:	ffeded13          	ori	x26,x27,-2
  # Check if x26 contains the expected result. x12 is the signature ptr, x8 is the link ptr, x7 is a temp reg.
  RVTEST_SIGUPD(x12, x8, x7, x26, I_ori_cg_cr_rs1_imm_edges_rs1val_0xaaaaaaaa_immval_m0x2, I_ori_cg_cr_rs1_imm_edges_rs1val_0xaaaaaaaa_immval_m0x2_str)
    29e8:	00062383          	lw	x7,0(x12)
    29ec:	01a38863          	beq	x7,x26,29fc <I_ori_cg_cr_rs1_imm_edges_rs1val_0xaaaaaaaa_immval_m0x2+0x18>
    29f0:	2c50046f          	jal	x8,34b4 <failedtest_x8_x7>
    29f4:	000029e4          	.word	0x000029e4
    29f8:	0000dbe1          	.word	0x0000dbe1
    29fc:	00460613          	addi	x12,x12,4

# Testcase cr_rs1_imm_edges (rs1 = 0xaaaaaaaa, imm = -1)
  RVTEST_TESTDATA_LOAD_INT(x1, x14) # load rs1: x14 = 0xaaaaaaaa
    2a00:	0000a703          	lw	x14,0(x1)
    2a04:	00408093          	addi	x1,x1,4

00002a08 <I_ori_cg_cr_rs1_imm_edges_rs1val_0xaaaaaaaa_immval_m0x1>:
I_ori_cg_cr_rs1_imm_edges_rs1val_0xaaaaaaaa_immval_m0x1:
  ori x5, x14, -1 # perform operation
    2a08:	fff76293          	ori	x5,x14,-1
  # Check if x5 contains the expected result. x12 is the signature ptr, x8 is the link ptr, x7 is a temp reg.
  RVTEST_SIGUPD(x12, x8, x7, x5, I_ori_cg_cr_rs1_imm_edges_rs1val_0xaaaaaaaa_immval_m0x1, I_ori_cg_cr_rs1_imm_edges_rs1val_0xaaaaaaaa_immval_m0x1_str)
    2a0c:	00062383          	lw	x7,0(x12)
    2a10:	00538863          	beq	x7,x5,2a20 <I_ori_cg_cr_rs1_imm_edges_rs1val_0xaaaaaaaa_immval_m0x1+0x18>
    2a14:	2a10046f          	jal	x8,34b4 <failedtest_x8_x7>
    2a18:	00002a08          	.word	0x00002a08
    2a1c:	0000dc36          	.word	0x0000dc36
    2a20:	00460613          	addi	x12,x12,4

# Testcase cr_rs1_imm_edges (rs1 = 0x55555555, imm = 0)
  RVTEST_TESTDATA_LOAD_INT(x1, x14) # load rs1: x14 = 0x55555555
    2a24:	0000a703          	lw	x14,0(x1)
    2a28:	00408093          	addi	x1,x1,4

00002a2c <I_ori_cg_cr_rs1_imm_edges_rs1val_0x55555555_immval_0x0>:
I_ori_cg_cr_rs1_imm_edges_rs1val_0x55555555_immval_0x0:
  ori x26, x14, 0 # perform operation
    2a2c:	00076d13          	ori	x26,x14,0
  # Check if x26 contains the expected result. x12 is the signature ptr, x8 is the link ptr, x7 is a temp reg.
  RVTEST_SIGUPD(x12, x8, x7, x26, I_ori_cg_cr_rs1_imm_edges_rs1val_0x55555555_immval_0x0, I_ori_cg_cr_rs1_imm_edges_rs1val_0x55555555_immval_0x0_str)
    2a30:	00062383          	lw	x7,0(x12)
    2a34:	01a38863          	beq	x7,x26,2a44 <I_ori_cg_cr_rs1_imm_edges_rs1val_0x55555555_immval_0x0+0x18>
    2a38:	27d0046f          	jal	x8,34b4 <failedtest_x8_x7>
    2a3c:	00002a2c          	.word	0x00002a2c
    2a40:	0000dc8b          	.word	0x0000dc8b
    2a44:	00460613          	addi	x12,x12,4

# Testcase cr_rs1_imm_edges (rs1 = 0x55555555, imm = 1)
  RVTEST_TESTDATA_LOAD_INT(x1, x4) # load rs1: x4 = 0x55555555
    2a48:	0000a203          	lw	x4,0(x1)
    2a4c:	00408093          	addi	x1,x1,4

00002a50 <I_ori_cg_cr_rs1_imm_edges_rs1val_0x55555555_immval_0x1>:
I_ori_cg_cr_rs1_imm_edges_rs1val_0x55555555_immval_0x1:
  ori x18, x4, 1 # perform operation
    2a50:	00126913          	ori	x18,x4,1
  # Check if x18 contains the expected result. x12 is the signature ptr, x8 is the link ptr, x7 is a temp reg.
  RVTEST_SIGUPD(x12, x8, x7, x18, I_ori_cg_cr_rs1_imm_edges_rs1val_0x55555555_immval_0x1, I_ori_cg_cr_rs1_imm_edges_rs1val_0x55555555_immval_0x1_str)
    2a54:	00062383          	lw	x7,0(x12)
    2a58:	01238863          	beq	x7,x18,2a68 <I_ori_cg_cr_rs1_imm_edges_rs1val_0x55555555_immval_0x1+0x18>
    2a5c:	2590046f          	jal	x8,34b4 <failedtest_x8_x7>
    2a60:	00002a50          	.word	0x00002a50
    2a64:	0000dcdf          	.word	0x0000dcdf
    2a68:	00460613          	addi	x12,x12,4

# Testcase cr_rs1_imm_edges (rs1 = 0x55555555, imm = 2)
  RVTEST_TESTDATA_LOAD_INT(x1, x30) # load rs1: x30 = 0x55555555
    2a6c:	0000af03          	lw	x30,0(x1)
    2a70:	00408093          	addi	x1,x1,4

00002a74 <I_ori_cg_cr_rs1_imm_edges_rs1val_0x55555555_immval_0x2>:
I_ori_cg_cr_rs1_imm_edges_rs1val_0x55555555_immval_0x2:
  ori x24, x30, 2 # perform operation
    2a74:	002f6c13          	ori	x24,x30,2
  # Check if x24 contains the expected result. x12 is the signature ptr, x8 is the link ptr, x7 is a temp reg.
  RVTEST_SIGUPD(x12, x8, x7, x24, I_ori_cg_cr_rs1_imm_edges_rs1val_0x55555555_immval_0x2, I_ori_cg_cr_rs1_imm_edges_rs1val_0x55555555_immval_0x2_str)
    2a78:	00062383          	lw	x7,0(x12)
    2a7c:	01838863          	beq	x7,x24,2a8c <I_ori_cg_cr_rs1_imm_edges_rs1val_0x55555555_immval_0x2+0x18>
    2a80:	2350046f          	jal	x8,34b4 <failedtest_x8_x7>
    2a84:	00002a74          	.word	0x00002a74
    2a88:	0000dd33          	.word	0x0000dd33
    2a8c:	00460613          	addi	x12,x12,4

# Testcase cr_rs1_imm_edges (rs1 = 0x55555555, imm = 3)
  RVTEST_TESTDATA_LOAD_INT(x1, x28) # load rs1: x28 = 0x55555555
    2a90:	0000ae03          	lw	x28,0(x1)
    2a94:	00408093          	addi	x1,x1,4

00002a98 <I_ori_cg_cr_rs1_imm_edges_rs1val_0x55555555_immval_0x3>:
I_ori_cg_cr_rs1_imm_edges_rs1val_0x55555555_immval_0x3:
  ori x4, x28, 3 # perform operation
    2a98:	003e6213          	ori	x4,x28,3
  # Check if x4 contains the expected result. x12 is the signature ptr, x8 is the link ptr, x7 is a temp reg.
  RVTEST_SIGUPD(x12, x8, x7, x4, I_ori_cg_cr_rs1_imm_edges_rs1val_0x55555555_immval_0x3, I_ori_cg_cr_rs1_imm_edges_rs1val_0x55555555_immval_0x3_str)
    2a9c:	00062383          	lw	x7,0(x12)
    2aa0:	00438863          	beq	x7,x4,2ab0 <I_ori_cg_cr_rs1_imm_edges_rs1val_0x55555555_immval_0x3+0x18>
    2aa4:	2110046f          	jal	x8,34b4 <failedtest_x8_x7>
    2aa8:	00002a98          	.word	0x00002a98
    2aac:	0000dd87          	.word	0x0000dd87
    2ab0:	00460613          	addi	x12,x12,4

# Testcase cr_rs1_imm_edges (rs1 = 0x55555555, imm = 4)
  RVTEST_TESTDATA_LOAD_INT(x1, x9) # load rs1: x9 = 0x55555555
    2ab4:	0000a483          	lw	x9,0(x1)
    2ab8:	00408093          	addi	x1,x1,4

00002abc <I_ori_cg_cr_rs1_imm_edges_rs1val_0x55555555_immval_0x4>:
I_ori_cg_cr_rs1_imm_edges_rs1val_0x55555555_immval_0x4:
  ori x27, x9, 4 # perform operation
    2abc:	0044ed93          	ori	x27,x9,4
  # Check if x27 contains the expected result. x12 is the signature ptr, x8 is the link ptr, x7 is a temp reg.
  RVTEST_SIGUPD(x12, x8, x7, x27, I_ori_cg_cr_rs1_imm_edges_rs1val_0x55555555_immval_0x4, I_ori_cg_cr_rs1_imm_edges_rs1val_0x55555555_immval_0x4_str)
    2ac0:	00062383          	lw	x7,0(x12)
    2ac4:	01b38863          	beq	x7,x27,2ad4 <I_ori_cg_cr_rs1_imm_edges_rs1val_0x55555555_immval_0x4+0x18>
    2ac8:	1ed0046f          	jal	x8,34b4 <failedtest_x8_x7>
    2acc:	00002abc          	.word	0x00002abc
    2ad0:	0000dddb          	.word	0x0000dddb
    2ad4:	00460613          	addi	x12,x12,4

# Testcase cr_rs1_imm_edges (rs1 = 0x55555555, imm = 8)
  RVTEST_TESTDATA_LOAD_INT(x1, x3) # load rs1: x3 = 0x55555555
    2ad8:	0000a183          	lw	x3,0(x1)
    2adc:	00408093          	addi	x1,x1,4

00002ae0 <I_ori_cg_cr_rs1_imm_edges_rs1val_0x55555555_immval_0x8>:
I_ori_cg_cr_rs1_imm_edges_rs1val_0x55555555_immval_0x8:
  ori x15, x3, 8 # perform operation
    2ae0:	0081e793          	ori	x15,x3,8
  # Check if x15 contains the expected result. x12 is the signature ptr, x8 is the link ptr, x7 is a temp reg.
  RVTEST_SIGUPD(x12, x8, x7, x15, I_ori_cg_cr_rs1_imm_edges_rs1val_0x55555555_immval_0x8, I_ori_cg_cr_rs1_imm_edges_rs1val_0x55555555_immval_0x8_str)
    2ae4:	00062383          	lw	x7,0(x12)
    2ae8:	00f38863          	beq	x7,x15,2af8 <I_ori_cg_cr_rs1_imm_edges_rs1val_0x55555555_immval_0x8+0x18>
    2aec:	1c90046f          	jal	x8,34b4 <failedtest_x8_x7>
    2af0:	00002ae0          	.word	0x00002ae0
    2af4:	0000de2f          	.word	0x0000de2f
    2af8:	00460613          	addi	x12,x12,4

# Testcase cr_rs1_imm_edges (rs1 = 0x55555555, imm = 16)
  RVTEST_TESTDATA_LOAD_INT(x1, x26) # load rs1: x26 = 0x55555555
    2afc:	0000ad03          	lw	x26,0(x1)
    2b00:	00408093          	addi	x1,x1,4

00002b04 <I_ori_cg_cr_rs1_imm_edges_rs1val_0x55555555_immval_0x10>:
I_ori_cg_cr_rs1_imm_edges_rs1val_0x55555555_immval_0x10:
  ori x28, x26, 16 # perform operation
    2b04:	010d6e13          	ori	x28,x26,16
  # Check if x28 contains the expected result. x12 is the signature ptr, x8 is the link ptr, x7 is a temp reg.
  RVTEST_SIGUPD(x12, x8, x7, x28, I_ori_cg_cr_rs1_imm_edges_rs1val_0x55555555_immval_0x10, I_ori_cg_cr_rs1_imm_edges_rs1val_0x55555555_immval_0x10_str)
    2b08:	00062383          	lw	x7,0(x12)
    2b0c:	01c38863          	beq	x7,x28,2b1c <I_ori_cg_cr_rs1_imm_edges_rs1val_0x55555555_immval_0x10+0x18>
    2b10:	1a50046f          	jal	x8,34b4 <failedtest_x8_x7>
    2b14:	00002b04          	.word	0x00002b04
    2b18:	0000de83          	.word	0x0000de83
    2b1c:	00460613          	addi	x12,x12,4

# Testcase cr_rs1_imm_edges (rs1 = 0x55555555, imm = 32)
  RVTEST_TESTDATA_LOAD_INT(x1, x30) # load rs1: x30 = 0x55555555
    2b20:	0000af03          	lw	x30,0(x1)
    2b24:	00408093          	addi	x1,x1,4

00002b28 <I_ori_cg_cr_rs1_imm_edges_rs1val_0x55555555_immval_0x20>:
I_ori_cg_cr_rs1_imm_edges_rs1val_0x55555555_immval_0x20:
  ori x18, x30, 32 # perform operation
    2b28:	020f6913          	ori	x18,x30,32
  # Check if x18 contains the expected result. x12 is the signature ptr, x8 is the link ptr, x7 is a temp reg.
  RVTEST_SIGUPD(x12, x8, x7, x18, I_ori_cg_cr_rs1_imm_edges_rs1val_0x55555555_immval_0x20, I_ori_cg_cr_rs1_imm_edges_rs1val_0x55555555_immval_0x20_str)
    2b2c:	00062383          	lw	x7,0(x12)
    2b30:	01238863          	beq	x7,x18,2b40 <I_ori_cg_cr_rs1_imm_edges_rs1val_0x55555555_immval_0x20+0x18>
    2b34:	1810046f          	jal	x8,34b4 <failedtest_x8_x7>
    2b38:	00002b28          	.word	0x00002b28
    2b3c:	0000ded8          	.word	0x0000ded8
    2b40:	00460613          	addi	x12,x12,4

# Testcase cr_rs1_imm_edges (rs1 = 0x55555555, imm = 64)
  RVTEST_TESTDATA_LOAD_INT(x1, x20) # load rs1: x20 = 0x55555555
    2b44:	0000aa03          	lw	x20,0(x1)
    2b48:	00408093          	addi	x1,x1,4

00002b4c <I_ori_cg_cr_rs1_imm_edges_rs1val_0x55555555_immval_0x40>:
I_ori_cg_cr_rs1_imm_edges_rs1val_0x55555555_immval_0x40:
  ori x11, x20, 64 # perform operation
    2b4c:	040a6593          	ori	x11,x20,64
  # Check if x11 contains the expected result. x12 is the signature ptr, x8 is the link ptr, x7 is a temp reg.
  RVTEST_SIGUPD(x12, x8, x7, x11, I_ori_cg_cr_rs1_imm_edges_rs1val_0x55555555_immval_0x40, I_ori_cg_cr_rs1_imm_edges_rs1val_0x55555555_immval_0x40_str)
    2b50:	00062383          	lw	x7,0(x12)
    2b54:	00b38863          	beq	x7,x11,2b64 <I_ori_cg_cr_rs1_imm_edges_rs1val_0x55555555_immval_0x40+0x18>
    2b58:	15d0046f          	jal	x8,34b4 <failedtest_x8_x7>
    2b5c:	00002b4c          	.word	0x00002b4c
    2b60:	0000df2d          	.word	0x0000df2d
    2b64:	00460613          	addi	x12,x12,4

# Testcase cr_rs1_imm_edges (rs1 = 0x55555555, imm = 128)
  RVTEST_TESTDATA_LOAD_INT(x1, x11) # load rs1: x11 = 0x55555555
    2b68:	0000a583          	lw	x11,0(x1)
    2b6c:	00408093          	addi	x1,x1,4

00002b70 <I_ori_cg_cr_rs1_imm_edges_rs1val_0x55555555_immval_0x80>:
I_ori_cg_cr_rs1_imm_edges_rs1val_0x55555555_immval_0x80:
  ori x19, x11, 128 # perform operation
    2b70:	0805e993          	ori	x19,x11,128
  # Check if x19 contains the expected result. x12 is the signature ptr, x8 is the link ptr, x7 is a temp reg.
  RVTEST_SIGUPD(x12, x8, x7, x19, I_ori_cg_cr_rs1_imm_edges_rs1val_0x55555555_immval_0x80, I_ori_cg_cr_rs1_imm_edges_rs1val_0x55555555_immval_0x80_str)
    2b74:	00062383          	lw	x7,0(x12)
    2b78:	01338863          	beq	x7,x19,2b88 <I_ori_cg_cr_rs1_imm_edges_rs1val_0x55555555_immval_0x80+0x18>
    2b7c:	1390046f          	jal	x8,34b4 <failedtest_x8_x7>
    2b80:	00002b70          	.word	0x00002b70
    2b84:	0000df82          	.word	0x0000df82
    2b88:	00460613          	addi	x12,x12,4

# Testcase cr_rs1_imm_edges (rs1 = 0x55555555, imm = 256)
  RVTEST_TESTDATA_LOAD_INT(x1, x9) # load rs1: x9 = 0x55555555
    2b8c:	0000a483          	lw	x9,0(x1)
    2b90:	00408093          	addi	x1,x1,4

00002b94 <I_ori_cg_cr_rs1_imm_edges_rs1val_0x55555555_immval_0x100>:
I_ori_cg_cr_rs1_imm_edges_rs1val_0x55555555_immval_0x100:
  ori x20, x9, 256 # perform operation
    2b94:	1004ea13          	ori	x20,x9,256
  # Check if x20 contains the expected result. x12 is the signature ptr, x8 is the link ptr, x7 is a temp reg.
  RVTEST_SIGUPD(x12, x8, x7, x20, I_ori_cg_cr_rs1_imm_edges_rs1val_0x55555555_immval_0x100, I_ori_cg_cr_rs1_imm_edges_rs1val_0x55555555_immval_0x100_str)
    2b98:	00062383          	lw	x7,0(x12)
    2b9c:	01438863          	beq	x7,x20,2bac <I_ori_cg_cr_rs1_imm_edges_rs1val_0x55555555_immval_0x100+0x18>
    2ba0:	1150046f          	jal	x8,34b4 <failedtest_x8_x7>
    2ba4:	00002b94          	.word	0x00002b94
    2ba8:	0000dfd7          	.word	0x0000dfd7
    2bac:	00460613          	addi	x12,x12,4

# Testcase cr_rs1_imm_edges (rs1 = 0x55555555, imm = 512)
  RVTEST_TESTDATA_LOAD_INT(x1, x20) # load rs1: x20 = 0x55555555
    2bb0:	0000aa03          	lw	x20,0(x1)
    2bb4:	00408093          	addi	x1,x1,4

00002bb8 <I_ori_cg_cr_rs1_imm_edges_rs1val_0x55555555_immval_0x200>:
I_ori_cg_cr_rs1_imm_edges_rs1val_0x55555555_immval_0x200:
  ori x18, x20, 512 # perform operation
    2bb8:	200a6913          	ori	x18,x20,512
  # Check if x18 contains the expected result. x12 is the signature ptr, x8 is the link ptr, x7 is a temp reg.
  RVTEST_SIGUPD(x12, x8, x7, x18, I_ori_cg_cr_rs1_imm_edges_rs1val_0x55555555_immval_0x200, I_ori_cg_cr_rs1_imm_edges_rs1val_0x55555555_immval_0x200_str)
    2bbc:	00062383          	lw	x7,0(x12)
    2bc0:	01238863          	beq	x7,x18,2bd0 <I_ori_cg_cr_rs1_imm_edges_rs1val_0x55555555_immval_0x200+0x18>
    2bc4:	0f10046f          	jal	x8,34b4 <failedtest_x8_x7>
    2bc8:	00002bb8          	.word	0x00002bb8
    2bcc:	0000e02d          	.word	0x0000e02d
    2bd0:	00460613          	addi	x12,x12,4

# Testcase cr_rs1_imm_edges (rs1 = 0x55555555, imm = 1023)
  RVTEST_TESTDATA_LOAD_INT(x1, x2) # load rs1: x2 = 0x55555555
    2bd4:	0000a103          	lw	x2,0(x1)
    2bd8:	00408093          	addi	x1,x1,4

00002bdc <I_ori_cg_cr_rs1_imm_edges_rs1val_0x55555555_immval_0x3ff>:
I_ori_cg_cr_rs1_imm_edges_rs1val_0x55555555_immval_0x3ff:
  ori x16, x2, 1023 # perform operation
    2bdc:	3ff16813          	ori	x16,x2,1023
  # Check if x16 contains the expected result. x12 is the signature ptr, x8 is the link ptr, x7 is a temp reg.
  RVTEST_SIGUPD(x12, x8, x7, x16, I_ori_cg_cr_rs1_imm_edges_rs1val_0x55555555_immval_0x3ff, I_ori_cg_cr_rs1_imm_edges_rs1val_0x55555555_immval_0x3ff_str)
    2be0:	00062383          	lw	x7,0(x12)
    2be4:	01038863          	beq	x7,x16,2bf4 <I_ori_cg_cr_rs1_imm_edges_rs1val_0x55555555_immval_0x3ff+0x18>
    2be8:	0cd0046f          	jal	x8,34b4 <failedtest_x8_x7>
    2bec:	00002bdc          	.word	0x00002bdc
    2bf0:	0000e083          	.word	0x0000e083
    2bf4:	00460613          	addi	x12,x12,4

# Testcase cr_rs1_imm_edges (rs1 = 0x55555555, imm = 1024)
  RVTEST_TESTDATA_LOAD_INT(x1, x15) # load rs1: x15 = 0x55555555
    2bf8:	0000a783          	lw	x15,0(x1)
    2bfc:	00408093          	addi	x1,x1,4

00002c00 <I_ori_cg_cr_rs1_imm_edges_rs1val_0x55555555_immval_0x400>:
I_ori_cg_cr_rs1_imm_edges_rs1val_0x55555555_immval_0x400:
  ori x28, x15, 1024 # perform operation
    2c00:	4007ee13          	ori	x28,x15,1024
  # Check if x28 contains the expected result. x12 is the signature ptr, x8 is the link ptr, x7 is a temp reg.
  RVTEST_SIGUPD(x12, x8, x7, x28, I_ori_cg_cr_rs1_imm_edges_rs1val_0x55555555_immval_0x400, I_ori_cg_cr_rs1_imm_edges_rs1val_0x55555555_immval_0x400_str)
    2c04:	00062383          	lw	x7,0(x12)
    2c08:	01c38863          	beq	x7,x28,2c18 <I_ori_cg_cr_rs1_imm_edges_rs1val_0x55555555_immval_0x400+0x18>
    2c0c:	0a90046f          	jal	x8,34b4 <failedtest_x8_x7>
    2c10:	00002c00          	.word	0x00002c00
    2c14:	0000e0d9          	.word	0x0000e0d9
    2c18:	00460613          	addi	x12,x12,4

# Testcase cr_rs1_imm_edges (rs1 = 0x55555555, imm = 1795)
  RVTEST_TESTDATA_LOAD_INT(x1, x29) # load rs1: x29 = 0x55555555
    2c1c:	0000ae83          	lw	x29,0(x1)
    2c20:	00408093          	addi	x1,x1,4

00002c24 <I_ori_cg_cr_rs1_imm_edges_rs1val_0x55555555_immval_0x703>:
I_ori_cg_cr_rs1_imm_edges_rs1val_0x55555555_immval_0x703:
  ori x16, x29, 1795 # perform operation
    2c24:	703ee813          	ori	x16,x29,1795
  # Check if x16 contains the expected result. x12 is the signature ptr, x8 is the link ptr, x7 is a temp reg.
  RVTEST_SIGUPD(x12, x8, x7, x16, I_ori_cg_cr_rs1_imm_edges_rs1val_0x55555555_immval_0x703, I_ori_cg_cr_rs1_imm_edges_rs1val_0x55555555_immval_0x703_str)
    2c28:	00062383          	lw	x7,0(x12)
    2c2c:	01038863          	beq	x7,x16,2c3c <I_ori_cg_cr_rs1_imm_edges_rs1val_0x55555555_immval_0x703+0x18>
    2c30:	0850046f          	jal	x8,34b4 <failedtest_x8_x7>
    2c34:	00002c24          	.word	0x00002c24
    2c38:	0000e12f          	.word	0x0000e12f
    2c3c:	00460613          	addi	x12,x12,4

# Testcase cr_rs1_imm_edges (rs1 = 0x55555555, imm = 2047)
  RVTEST_TESTDATA_LOAD_INT(x1, x17) # load rs1: x17 = 0x55555555
    2c40:	0000a883          	lw	x17,0(x1)
    2c44:	00408093          	addi	x1,x1,4

00002c48 <I_ori_cg_cr_rs1_imm_edges_rs1val_0x55555555_immval_0x7ff>:
I_ori_cg_cr_rs1_imm_edges_rs1val_0x55555555_immval_0x7ff:
  ori x22, x17, 2047 # perform operation
    2c48:	7ff8eb13          	ori	x22,x17,2047
  # Check if x22 contains the expected result. x12 is the signature ptr, x8 is the link ptr, x7 is a temp reg.
  RVTEST_SIGUPD(x12, x8, x7, x22, I_ori_cg_cr_rs1_imm_edges_rs1val_0x55555555_immval_0x7ff, I_ori_cg_cr_rs1_imm_edges_rs1val_0x55555555_immval_0x7ff_str)
    2c4c:	00062383          	lw	x7,0(x12)
    2c50:	01638863          	beq	x7,x22,2c60 <I_ori_cg_cr_rs1_imm_edges_rs1val_0x55555555_immval_0x7ff+0x18>
    2c54:	0610046f          	jal	x8,34b4 <failedtest_x8_x7>
    2c58:	00002c48          	.word	0x00002c48
    2c5c:	0000e185          	.word	0x0000e185
    2c60:	00460613          	addi	x12,x12,4

# Testcase cr_rs1_imm_edges (rs1 = 0x55555555, imm = -2048)
  RVTEST_TESTDATA_LOAD_INT(x1, x28) # load rs1: x28 = 0x55555555
    2c64:	0000ae03          	lw	x28,0(x1)
    2c68:	00408093          	addi	x1,x1,4

00002c6c <I_ori_cg_cr_rs1_imm_edges_rs1val_0x55555555_immval_m0x800>:
I_ori_cg_cr_rs1_imm_edges_rs1val_0x55555555_immval_m0x800:
  ori x16, x28, -2048 # perform operation
    2c6c:	800e6813          	ori	x16,x28,-2048
  # Check if x16 contains the expected result. x12 is the signature ptr, x8 is the link ptr, x7 is a temp reg.
  RVTEST_SIGUPD(x12, x8, x7, x16, I_ori_cg_cr_rs1_imm_edges_rs1val_0x55555555_immval_m0x800, I_ori_cg_cr_rs1_imm_edges_rs1val_0x55555555_immval_m0x800_str)
    2c70:	00062383          	lw	x7,0(x12)
    2c74:	01038863          	beq	x7,x16,2c84 <I_ori_cg_cr_rs1_imm_edges_rs1val_0x55555555_immval_m0x800+0x18>
    2c78:	03d0046f          	jal	x8,34b4 <failedtest_x8_x7>
    2c7c:	00002c6c          	.word	0x00002c6c
    2c80:	0000e1db          	.word	0x0000e1db
    2c84:	00460613          	addi	x12,x12,4

# Testcase cr_rs1_imm_edges (rs1 = 0x55555555, imm = -2047)
  RVTEST_TESTDATA_LOAD_INT(x1, x2) # load rs1: x2 = 0x55555555
    2c88:	0000a103          	lw	x2,0(x1)
    2c8c:	00408093          	addi	x1,x1,4

00002c90 <I_ori_cg_cr_rs1_imm_edges_rs1val_0x55555555_immval_m0x7ff>:
I_ori_cg_cr_rs1_imm_edges_rs1val_0x55555555_immval_m0x7ff:
  ori x4, x2, -2047 # perform operation
    2c90:	80116213          	ori	x4,x2,-2047
  # Check if x4 contains the expected result. x12 is the signature ptr, x8 is the link ptr, x7 is a temp reg.
  RVTEST_SIGUPD(x12, x8, x7, x4, I_ori_cg_cr_rs1_imm_edges_rs1val_0x55555555_immval_m0x7ff, I_ori_cg_cr_rs1_imm_edges_rs1val_0x55555555_immval_m0x7ff_str)
    2c94:	00062383          	lw	x7,0(x12)
    2c98:	00438863          	beq	x7,x4,2ca8 <I_ori_cg_cr_rs1_imm_edges_rs1val_0x55555555_immval_m0x7ff+0x18>
    2c9c:	0190046f          	jal	x8,34b4 <failedtest_x8_x7>
    2ca0:	00002c90          	.word	0x00002c90
    2ca4:	0000e232          	.word	0x0000e232
    2ca8:	00460613          	addi	x12,x12,4

# Testcase cr_rs1_imm_edges (rs1 = 0x55555555, imm = -2)
  RVTEST_TESTDATA_LOAD_INT(x1, x24) # load rs1: x24 = 0x55555555
    2cac:	0000ac03          	lw	x24,0(x1)
    2cb0:	00408093          	addi	x1,x1,4

00002cb4 <I_ori_cg_cr_rs1_imm_edges_rs1val_0x55555555_immval_m0x2>:
I_ori_cg_cr_rs1_imm_edges_rs1val_0x55555555_immval_m0x2:
  ori x11, x24, -2 # perform operation
    2cb4:	ffec6593          	ori	x11,x24,-2
  # Check if x11 contains the expected result. x12 is the signature ptr, x8 is the link ptr, x7 is a temp reg.
  RVTEST_SIGUPD(x12, x8, x7, x11, I_ori_cg_cr_rs1_imm_edges_rs1val_0x55555555_immval_m0x2, I_ori_cg_cr_rs1_imm_edges_rs1val_0x55555555_immval_m0x2_str)
    2cb8:	00062383          	lw	x7,0(x12)
    2cbc:	00b38863          	beq	x7,x11,2ccc <I_ori_cg_cr_rs1_imm_edges_rs1val_0x55555555_immval_m0x2+0x18>
    2cc0:	7f40046f          	jal	x8,34b4 <failedtest_x8_x7>
    2cc4:	00002cb4          	.word	0x00002cb4
    2cc8:	0000e289          	.word	0x0000e289
    2ccc:	00460613          	addi	x12,x12,4

# Testcase cr_rs1_imm_edges (rs1 = 0x55555555, imm = -1)
  RVTEST_TESTDATA_LOAD_INT(x1, x18) # load rs1: x18 = 0x55555555
    2cd0:	0000a903          	lw	x18,0(x1)
    2cd4:	00408093          	addi	x1,x1,4

00002cd8 <I_ori_cg_cr_rs1_imm_edges_rs1val_0x55555555_immval_m0x1>:
I_ori_cg_cr_rs1_imm_edges_rs1val_0x55555555_immval_m0x1:
  ori x14, x18, -1 # perform operation
    2cd8:	fff96713          	ori	x14,x18,-1
  # Check if x14 contains the expected result. x12 is the signature ptr, x8 is the link ptr, x7 is a temp reg.
  RVTEST_SIGUPD(x12, x8, x7, x14, I_ori_cg_cr_rs1_imm_edges_rs1val_0x55555555_immval_m0x1, I_ori_cg_cr_rs1_imm_edges_rs1val_0x55555555_immval_m0x1_str)
    2cdc:	00062383          	lw	x7,0(x12)
    2ce0:	00e38863          	beq	x7,x14,2cf0 <I_ori_cg_cr_rs1_imm_edges_rs1val_0x55555555_immval_m0x1+0x18>
    2ce4:	7d00046f          	jal	x8,34b4 <failedtest_x8_x7>
    2ce8:	00002cd8          	.word	0x00002cd8
    2cec:	0000e2de          	.word	0x0000e2de
    2cf0:	00460613          	addi	x12,x12,4
/////////////////////////////////
// cmp_rd_rs1
/////////////////////////////////

# Testcase cmp_rd_rs1 (Test rd = rs1 = x0)
  RVTEST_TESTDATA_LOAD_INT(x1, x0) # load rs1: x0 = 0x53bd1517
    2cf4:	0000a003          	lw	x0,0(x1)
    2cf8:	00408093          	addi	x1,x1,4

00002cfc <I_ori_cg_cmp_rd_rs1_b0>:
I_ori_cg_cmp_rd_rs1_b0:
  ori x0, x0, 690 # perform operation
    2cfc:	2b206013          	ori	x0,x0,690
  # Check if x0 contains the expected result. x12 is the signature ptr, x8 is the link ptr, x7 is a temp reg.
  RVTEST_SIGUPD(x12, x8, x7, x0, I_ori_cg_cmp_rd_rs1_b0, I_ori_cg_cmp_rd_rs1_b0_str)
    2d00:	00062383          	lw	x7,0(x12)
    2d04:	00038863          	beq	x7,x0,2d14 <I_ori_cg_cmp_rd_rs1_b0+0x18>
    2d08:	7ac0046f          	jal	x8,34b4 <failedtest_x8_x7>
    2d0c:	00002cfc          	.word	0x00002cfc
    2d10:	0000e333          	.word	0x0000e333
    2d14:	00460613          	addi	x12,x12,4

  mv x15, x1 # switch data pointer register to avoid conflict with test
    2d18:	00008793          	addi	x15,x1,0
# Testcase cmp_rd_rs1 (Test rd = rs1 = x1)
  RVTEST_TESTDATA_LOAD_INT(x15, x1) # load rs1: x1 = 0xd6b7efdd
    2d1c:	0007a083          	lw	x1,0(x15)
    2d20:	00478793          	addi	x15,x15,4

00002d24 <I_ori_cg_cmp_rd_rs1_b1>:
I_ori_cg_cmp_rd_rs1_b1:
  ori x1, x1, -1757 # perform operation
    2d24:	9230e093          	ori	x1,x1,-1757
  # Check if x1 contains the expected result. x12 is the signature ptr, x8 is the link ptr, x7 is a temp reg.
  RVTEST_SIGUPD(x12, x8, x7, x1, I_ori_cg_cmp_rd_rs1_b1, I_ori_cg_cmp_rd_rs1_b1_str)
    2d28:	00062383          	lw	x7,0(x12)
    2d2c:	00138863          	beq	x7,x1,2d3c <I_ori_cg_cmp_rd_rs1_b1+0x18>
    2d30:	7840046f          	jal	x8,34b4 <failedtest_x8_x7>
    2d34:	00002d24          	.word	0x00002d24
    2d38:	0000e366          	.word	0x0000e366
    2d3c:	00460613          	addi	x12,x12,4

# Testcase cmp_rd_rs1 (Test rd = rs1 = x2)
  RVTEST_TESTDATA_LOAD_INT(x15, x2) # load rs1: x2 = 0x528401d3
    2d40:	0007a103          	lw	x2,0(x15)
    2d44:	00478793          	addi	x15,x15,4

00002d48 <I_ori_cg_cmp_rd_rs1_b2>:
I_ori_cg_cmp_rd_rs1_b2:
  ori x2, x2, -745 # perform operation
    2d48:	d1716113          	ori	x2,x2,-745
  # Check if x2 contains the expected result. x12 is the signature ptr, x8 is the link ptr, x7 is a temp reg.
  RVTEST_SIGUPD(x12, x8, x7, x2, I_ori_cg_cmp_rd_rs1_b2, I_ori_cg_cmp_rd_rs1_b2_str)
    2d4c:	00062383          	lw	x7,0(x12)
    2d50:	00238863          	beq	x7,x2,2d60 <I_ori_cg_cmp_rd_rs1_b2+0x18>
    2d54:	7600046f          	jal	x8,34b4 <failedtest_x8_x7>
    2d58:	00002d48          	.word	0x00002d48
    2d5c:	0000e399          	.word	0x0000e399
    2d60:	00460613          	addi	x12,x12,4

# Testcase cmp_rd_rs1 (Test rd = rs1 = x3)
  RVTEST_TESTDATA_LOAD_INT(x15, x3) # load rs1: x3 = 0xfd47131b
    2d64:	0007a183          	lw	x3,0(x15)
    2d68:	00478793          	addi	x15,x15,4

00002d6c <I_ori_cg_cmp_rd_rs1_b3>:
I_ori_cg_cmp_rd_rs1_b3:
  ori x3, x3, 1604 # perform operation
    2d6c:	6441e193          	ori	x3,x3,1604
  # Check if x3 contains the expected result. x12 is the signature ptr, x8 is the link ptr, x7 is a temp reg.
  RVTEST_SIGUPD(x12, x8, x7, x3, I_ori_cg_cmp_rd_rs1_b3, I_ori_cg_cmp_rd_rs1_b3_str)
    2d70:	00062383          	lw	x7,0(x12)
    2d74:	00338863          	beq	x7,x3,2d84 <I_ori_cg_cmp_rd_rs1_b3+0x18>
    2d78:	73c0046f          	jal	x8,34b4 <failedtest_x8_x7>
    2d7c:	00002d6c          	.word	0x00002d6c
    2d80:	0000e3cc          	.word	0x0000e3cc
    2d84:	00460613          	addi	x12,x12,4

# Testcase cmp_rd_rs1 (Test rd = rs1 = x4)
  RVTEST_TESTDATA_LOAD_INT(x15, x4) # load rs1: x4 = 0xd246422d
    2d88:	0007a203          	lw	x4,0(x15)
    2d8c:	00478793          	addi	x15,x15,4

00002d90 <I_ori_cg_cmp_rd_rs1_b4>:
I_ori_cg_cmp_rd_rs1_b4:
  ori x4, x4, -1324 # perform operation
    2d90:	ad426213          	ori	x4,x4,-1324
  # Check if x4 contains the expected result. x12 is the signature ptr, x8 is the link ptr, x7 is a temp reg.
  RVTEST_SIGUPD(x12, x8, x7, x4, I_ori_cg_cmp_rd_rs1_b4, I_ori_cg_cmp_rd_rs1_b4_str)
    2d94:	00062383          	lw	x7,0(x12)
    2d98:	00438863          	beq	x7,x4,2da8 <I_ori_cg_cmp_rd_rs1_b4+0x18>
    2d9c:	7180046f          	jal	x8,34b4 <failedtest_x8_x7>
    2da0:	00002d90          	.word	0x00002d90
    2da4:	0000e3ff          	.word	0x0000e3ff
    2da8:	00460613          	addi	x12,x12,4

# Testcase cmp_rd_rs1 (Test rd = rs1 = x5)
  RVTEST_TESTDATA_LOAD_INT(x15, x5) # load rs1: x5 = 0xd78d01e9
    2dac:	0007a283          	lw	x5,0(x15)
    2db0:	00478793          	addi	x15,x15,4

00002db4 <I_ori_cg_cmp_rd_rs1_b5>:
I_ori_cg_cmp_rd_rs1_b5:
  ori x5, x5, -1836 # perform operation
    2db4:	8d42e293          	ori	x5,x5,-1836
  # Check if x5 contains the expected result. x12 is the signature ptr, x8 is the link ptr, x7 is a temp reg.
  RVTEST_SIGUPD(x12, x8, x7, x5, I_ori_cg_cmp_rd_rs1_b5, I_ori_cg_cmp_rd_rs1_b5_str)
    2db8:	00062383          	lw	x7,0(x12)
    2dbc:	00538863          	beq	x7,x5,2dcc <I_ori_cg_cmp_rd_rs1_b5+0x18>
    2dc0:	6f40046f          	jal	x8,34b4 <failedtest_x8_x7>
    2dc4:	00002db4          	.word	0x00002db4
    2dc8:	0000e432          	.word	0x0000e432
    2dcc:	00460613          	addi	x12,x12,4

# Testcase cmp_rd_rs1 (Test rd = rs1 = x6)
  RVTEST_TESTDATA_LOAD_INT(x15, x6) # load rs1: x6 = 0xd667053a
    2dd0:	0007a303          	lw	x6,0(x15)
    2dd4:	00478793          	addi	x15,x15,4

00002dd8 <I_ori_cg_cmp_rd_rs1_b6>:
I_ori_cg_cmp_rd_rs1_b6:
  ori x6, x6, -384 # perform operation
    2dd8:	e8036313          	ori	x6,x6,-384
  # Check if x6 contains the expected result. x12 is the signature ptr, x8 is the link ptr, x7 is a temp reg.
  RVTEST_SIGUPD(x12, x8, x7, x6, I_ori_cg_cmp_rd_rs1_b6, I_ori_cg_cmp_rd_rs1_b6_str)
    2ddc:	00062383          	lw	x7,0(x12)
    2de0:	00638863          	beq	x7,x6,2df0 <I_ori_cg_cmp_rd_rs1_b6+0x18>
    2de4:	6d00046f          	jal	x8,34b4 <failedtest_x8_x7>
    2de8:	00002dd8          	.word	0x00002dd8
    2dec:	0000e465          	.word	0x0000e465
    2df0:	00460613          	addi	x12,x12,4

  mv x4, x7 # switch temp register to avoid conflict with test
    2df4:	00038213          	addi	x4,x7,0
  mv x5, x8 # switch link pointer register to avoid conflict with test
    2df8:	00040293          	addi	x5,x8,0
# Testcase cmp_rd_rs1 (Test rd = rs1 = x7)
  RVTEST_TESTDATA_LOAD_INT(x15, x7) # load rs1: x7 = 0xfcab678e
    2dfc:	0007a383          	lw	x7,0(x15)
    2e00:	00478793          	addi	x15,x15,4

00002e04 <I_ori_cg_cmp_rd_rs1_b7>:
I_ori_cg_cmp_rd_rs1_b7:
  ori x7, x7, 1188 # perform operation
    2e04:	4a43e393          	ori	x7,x7,1188
  # Check if x7 contains the expected result. x12 is the signature ptr, x5 is the link ptr, x4 is a temp reg.
  RVTEST_SIGUPD(x12, x5, x4, x7, I_ori_cg_cmp_rd_rs1_b7, I_ori_cg_cmp_rd_rs1_b7_str)
    2e08:	00062203          	lw	x4,0(x12)
    2e0c:	00720863          	beq	x4,x7,2e1c <I_ori_cg_cmp_rd_rs1_b7+0x18>
    2e10:	68c002ef          	jal	x5,349c <failedtest_x5_x4>
    2e14:	00002e04          	.word	0x00002e04
    2e18:	0000e498          	.word	0x0000e498
    2e1c:	00460613          	addi	x12,x12,4

# Testcase cmp_rd_rs1 (Test rd = rs1 = x8)
  RVTEST_TESTDATA_LOAD_INT(x15, x8) # load rs1: x8 = 0x60752843
    2e20:	0007a403          	lw	x8,0(x15)
    2e24:	00478793          	addi	x15,x15,4

00002e28 <I_ori_cg_cmp_rd_rs1_b8>:
I_ori_cg_cmp_rd_rs1_b8:
  ori x8, x8, -1661 # perform operation
    2e28:	98346413          	ori	x8,x8,-1661
  # Check if x8 contains the expected result. x12 is the signature ptr, x5 is the link ptr, x4 is a temp reg.
  RVTEST_SIGUPD(x12, x5, x4, x8, I_ori_cg_cmp_rd_rs1_b8, I_ori_cg_cmp_rd_rs1_b8_str)
    2e2c:	00062203          	lw	x4,0(x12)
    2e30:	00820863          	beq	x4,x8,2e40 <I_ori_cg_cmp_rd_rs1_b8+0x18>
    2e34:	668002ef          	jal	x5,349c <failedtest_x5_x4>
    2e38:	00002e28          	.word	0x00002e28
    2e3c:	0000e4cb          	.word	0x0000e4cb
    2e40:	00460613          	addi	x12,x12,4

# Testcase cmp_rd_rs1 (Test rd = rs1 = x9)
  RVTEST_TESTDATA_LOAD_INT(x15, x9) # load rs1: x9 = 0x850975bf
    2e44:	0007a483          	lw	x9,0(x15)
    2e48:	00478793          	addi	x15,x15,4

00002e4c <I_ori_cg_cmp_rd_rs1_b9>:
I_ori_cg_cmp_rd_rs1_b9:
  ori x9, x9, 435 # perform operation
    2e4c:	1b34e493          	ori	x9,x9,435
  # Check if x9 contains the expected result. x12 is the signature ptr, x5 is the link ptr, x4 is a temp reg.
  RVTEST_SIGUPD(x12, x5, x4, x9, I_ori_cg_cmp_rd_rs1_b9, I_ori_cg_cmp_rd_rs1_b9_str)
    2e50:	00062203          	lw	x4,0(x12)
    2e54:	00920863          	beq	x4,x9,2e64 <I_ori_cg_cmp_rd_rs1_b9+0x18>
    2e58:	644002ef          	jal	x5,349c <failedtest_x5_x4>
    2e5c:	00002e4c          	.word	0x00002e4c
    2e60:	0000e4fe          	.word	0x0000e4fe
    2e64:	00460613          	addi	x12,x12,4

# Testcase cmp_rd_rs1 (Test rd = rs1 = x10)
  RVTEST_TESTDATA_LOAD_INT(x15, x10) # load rs1: x10 = 0x227ee113
    2e68:	0007a503          	lw	x10,0(x15)
    2e6c:	00478793          	addi	x15,x15,4

00002e70 <I_ori_cg_cmp_rd_rs1_b10>:
I_ori_cg_cmp_rd_rs1_b10:
  ori x10, x10, -796 # perform operation
    2e70:	ce456513          	ori	x10,x10,-796
  # Check if x10 contains the expected result. x12 is the signature ptr, x5 is the link ptr, x4 is a temp reg.
  RVTEST_SIGUPD(x12, x5, x4, x10, I_ori_cg_cmp_rd_rs1_b10, I_ori_cg_cmp_rd_rs1_b10_str)
    2e74:	00062203          	lw	x4,0(x12)
    2e78:	00a20863          	beq	x4,x10,2e88 <I_ori_cg_cmp_rd_rs1_b10+0x18>
    2e7c:	620002ef          	jal	x5,349c <failedtest_x5_x4>
    2e80:	00002e70          	.word	0x00002e70
    2e84:	0000e531          	.word	0x0000e531
    2e88:	00460613          	addi	x12,x12,4

# Testcase cmp_rd_rs1 (Test rd = rs1 = x11)
  RVTEST_TESTDATA_LOAD_INT(x15, x11) # load rs1: x11 = 0xbbdffaef
    2e8c:	0007a583          	lw	x11,0(x15)
    2e90:	00478793          	addi	x15,x15,4

00002e94 <I_ori_cg_cmp_rd_rs1_b11>:
I_ori_cg_cmp_rd_rs1_b11:
  ori x11, x11, -1074 # perform operation
    2e94:	bce5e593          	ori	x11,x11,-1074
  # Check if x11 contains the expected result. x12 is the signature ptr, x5 is the link ptr, x4 is a temp reg.
  RVTEST_SIGUPD(x12, x5, x4, x11, I_ori_cg_cmp_rd_rs1_b11, I_ori_cg_cmp_rd_rs1_b11_str)
    2e98:	00062203          	lw	x4,0(x12)
    2e9c:	00b20863          	beq	x4,x11,2eac <I_ori_cg_cmp_rd_rs1_b11+0x18>
    2ea0:	5fc002ef          	jal	x5,349c <failedtest_x5_x4>
    2ea4:	00002e94          	.word	0x00002e94
    2ea8:	0000e565          	.word	0x0000e565
    2eac:	00460613          	addi	x12,x12,4

  mv x6, x12 # switch signature pointer register to avoid conflict with test
    2eb0:	00060313          	addi	x6,x12,0
# Testcase cmp_rd_rs1 (Test rd = rs1 = x12)
  RVTEST_TESTDATA_LOAD_INT(x15, x12) # load rs1: x12 = 0x15b76f4d
    2eb4:	0007a603          	lw	x12,0(x15)
    2eb8:	00478793          	addi	x15,x15,4

00002ebc <I_ori_cg_cmp_rd_rs1_b12>:
I_ori_cg_cmp_rd_rs1_b12:
  ori x12, x12, 364 # perform operation
    2ebc:	16c66613          	ori	x12,x12,364
  # Check if x12 contains the expected result. x6 is the signature ptr, x5 is the link ptr, x4 is a temp reg.
  RVTEST_SIGUPD(x6, x5, x4, x12, I_ori_cg_cmp_rd_rs1_b12, I_ori_cg_cmp_rd_rs1_b12_str)
    2ec0:	00032203          	lw	x4,0(x6)
    2ec4:	00c20863          	beq	x4,x12,2ed4 <I_ori_cg_cmp_rd_rs1_b12+0x18>
    2ec8:	5d4002ef          	jal	x5,349c <failedtest_x5_x4>
    2ecc:	00002ebc          	.word	0x00002ebc
    2ed0:	0000e599          	.word	0x0000e599
    2ed4:	00430313          	addi	x6,x6,4

# Testcase cmp_rd_rs1 (Test rd = rs1 = x13)
  RVTEST_TESTDATA_LOAD_INT(x15, x13) # load rs1: x13 = 0x9d566c15
    2ed8:	0007a683          	lw	x13,0(x15)
    2edc:	00478793          	addi	x15,x15,4

00002ee0 <I_ori_cg_cmp_rd_rs1_b13>:
I_ori_cg_cmp_rd_rs1_b13:
  ori x13, x13, -1360 # perform operation
    2ee0:	ab06e693          	ori	x13,x13,-1360
  # Check if x13 contains the expected result. x6 is the signature ptr, x5 is the link ptr, x4 is a temp reg.
  RVTEST_SIGUPD(x6, x5, x4, x13, I_ori_cg_cmp_rd_rs1_b13, I_ori_cg_cmp_rd_rs1_b13_str)
    2ee4:	00032203          	lw	x4,0(x6)
    2ee8:	00d20863          	beq	x4,x13,2ef8 <I_ori_cg_cmp_rd_rs1_b13+0x18>
    2eec:	5b0002ef          	jal	x5,349c <failedtest_x5_x4>
    2ef0:	00002ee0          	.word	0x00002ee0
    2ef4:	0000e5cd          	.word	0x0000e5cd
    2ef8:	00430313          	addi	x6,x6,4

# Testcase cmp_rd_rs1 (Test rd = rs1 = x14)
  RVTEST_TESTDATA_LOAD_INT(x15, x14) # load rs1: x14 = 0xa67305ff
    2efc:	0007a703          	lw	x14,0(x15)
    2f00:	00478793          	addi	x15,x15,4

00002f04 <I_ori_cg_cmp_rd_rs1_b14>:
I_ori_cg_cmp_rd_rs1_b14:
  ori x14, x14, 708 # perform operation
    2f04:	2c476713          	ori	x14,x14,708
  # Check if x14 contains the expected result. x6 is the signature ptr, x5 is the link ptr, x4 is a temp reg.
  RVTEST_SIGUPD(x6, x5, x4, x14, I_ori_cg_cmp_rd_rs1_b14, I_ori_cg_cmp_rd_rs1_b14_str)
    2f08:	00032203          	lw	x4,0(x6)
    2f0c:	00e20863          	beq	x4,x14,2f1c <I_ori_cg_cmp_rd_rs1_b14+0x18>
    2f10:	58c002ef          	jal	x5,349c <failedtest_x5_x4>
    2f14:	00002f04          	.word	0x00002f04
    2f18:	0000e601          	.word	0x0000e601
    2f1c:	00430313          	addi	x6,x6,4

  mv x2, x15 # switch data pointer register to avoid conflict with test
    2f20:	00078113          	addi	x2,x15,0
# Testcase cmp_rd_rs1 (Test rd = rs1 = x15)
  RVTEST_TESTDATA_LOAD_INT(x2, x15) # load rs1: x15 = 0xec22d433
    2f24:	00012783          	lw	x15,0(x2)
    2f28:	00410113          	addi	x2,x2,4

00002f2c <I_ori_cg_cmp_rd_rs1_b15>:
I_ori_cg_cmp_rd_rs1_b15:
  ori x15, x15, -1325 # perform operation
    2f2c:	ad37e793          	ori	x15,x15,-1325
  # Check if x15 contains the expected result. x6 is the signature ptr, x5 is the link ptr, x4 is a temp reg.
  RVTEST_SIGUPD(x6, x5, x4, x15, I_ori_cg_cmp_rd_rs1_b15, I_ori_cg_cmp_rd_rs1_b15_str)
    2f30:	00032203          	lw	x4,0(x6)
    2f34:	00f20863          	beq	x4,x15,2f44 <I_ori_cg_cmp_rd_rs1_b15+0x18>
    2f38:	564002ef          	jal	x5,349c <failedtest_x5_x4>
    2f3c:	00002f2c          	.word	0x00002f2c
    2f40:	0000e635          	.word	0x0000e635
    2f44:	00430313          	addi	x6,x6,4

# Testcase cmp_rd_rs1 (Test rd = rs1 = x16)
  RVTEST_TESTDATA_LOAD_INT(x2, x16) # load rs1: x16 = 0x87fa685d
    2f48:	00012803          	lw	x16,0(x2)
    2f4c:	00410113          	addi	x2,x2,4

00002f50 <I_ori_cg_cmp_rd_rs1_b16>:
I_ori_cg_cmp_rd_rs1_b16:
  ori x16, x16, 107 # perform operation
    2f50:	06b86813          	ori	x16,x16,107
  # Check if x16 contains the expected result. x6 is the signature ptr, x5 is the link ptr, x4 is a temp reg.
  RVTEST_SIGUPD(x6, x5, x4, x16, I_ori_cg_cmp_rd_rs1_b16, I_ori_cg_cmp_rd_rs1_b16_str)
    2f54:	00032203          	lw	x4,0(x6)
    2f58:	01020863          	beq	x4,x16,2f68 <I_ori_cg_cmp_rd_rs1_b16+0x18>
    2f5c:	540002ef          	jal	x5,349c <failedtest_x5_x4>
    2f60:	00002f50          	.word	0x00002f50
    2f64:	0000e669          	.word	0x0000e669
    2f68:	00430313          	addi	x6,x6,4

# Testcase cmp_rd_rs1 (Test rd = rs1 = x17)
  RVTEST_TESTDATA_LOAD_INT(x2, x17) # load rs1: x17 = 0x4a9333d9
    2f6c:	00012883          	lw	x17,0(x2)
    2f70:	00410113          	addi	x2,x2,4

00002f74 <I_ori_cg_cmp_rd_rs1_b17>:
I_ori_cg_cmp_rd_rs1_b17:
  ori x17, x17, 666 # perform operation
    2f74:	29a8e893          	ori	x17,x17,666
  # Check if x17 contains the expected result. x6 is the signature ptr, x5 is the link ptr, x4 is a temp reg.
  RVTEST_SIGUPD(x6, x5, x4, x17, I_ori_cg_cmp_rd_rs1_b17, I_ori_cg_cmp_rd_rs1_b17_str)
    2f78:	00032203          	lw	x4,0(x6)
    2f7c:	01120863          	beq	x4,x17,2f8c <I_ori_cg_cmp_rd_rs1_b17+0x18>
    2f80:	51c002ef          	jal	x5,349c <failedtest_x5_x4>
    2f84:	00002f74          	.word	0x00002f74
    2f88:	0000e69d          	.word	0x0000e69d
    2f8c:	00430313          	addi	x6,x6,4

# Testcase cmp_rd_rs1 (Test rd = rs1 = x18)
  RVTEST_TESTDATA_LOAD_INT(x2, x18) # load rs1: x18 = 0xd74e1a73
    2f90:	00012903          	lw	x18,0(x2)
    2f94:	00410113          	addi	x2,x2,4

00002f98 <I_ori_cg_cmp_rd_rs1_b18>:
I_ori_cg_cmp_rd_rs1_b18:
  ori x18, x18, -481 # perform operation
    2f98:	e1f96913          	ori	x18,x18,-481
  # Check if x18 contains the expected result. x6 is the signature ptr, x5 is the link ptr, x4 is a temp reg.
  RVTEST_SIGUPD(x6, x5, x4, x18, I_ori_cg_cmp_rd_rs1_b18, I_ori_cg_cmp_rd_rs1_b18_str)
    2f9c:	00032203          	lw	x4,0(x6)
    2fa0:	01220863          	beq	x4,x18,2fb0 <I_ori_cg_cmp_rd_rs1_b18+0x18>
    2fa4:	4f8002ef          	jal	x5,349c <failedtest_x5_x4>
    2fa8:	00002f98          	.word	0x00002f98
    2fac:	0000e6d1          	.word	0x0000e6d1
    2fb0:	00430313          	addi	x6,x6,4

# Testcase cmp_rd_rs1 (Test rd = rs1 = x19)
  RVTEST_TESTDATA_LOAD_INT(x2, x19) # load rs1: x19 = 0x0949de63
    2fb4:	00012983          	lw	x19,0(x2)
    2fb8:	00410113          	addi	x2,x2,4

00002fbc <I_ori_cg_cmp_rd_rs1_b19>:
I_ori_cg_cmp_rd_rs1_b19:
  ori x19, x19, 1767 # perform operation
    2fbc:	6e79e993          	ori	x19,x19,1767
  # Check if x19 contains the expected result. x6 is the signature ptr, x5 is the link ptr, x4 is a temp reg.
  RVTEST_SIGUPD(x6, x5, x4, x19, I_ori_cg_cmp_rd_rs1_b19, I_ori_cg_cmp_rd_rs1_b19_str)
    2fc0:	00032203          	lw	x4,0(x6)
    2fc4:	01320863          	beq	x4,x19,2fd4 <I_ori_cg_cmp_rd_rs1_b19+0x18>
    2fc8:	4d4002ef          	jal	x5,349c <failedtest_x5_x4>
    2fcc:	00002fbc          	.word	0x00002fbc
    2fd0:	0000e705          	.word	0x0000e705
    2fd4:	00430313          	addi	x6,x6,4

# Testcase cmp_rd_rs1 (Test rd = rs1 = x20)
  RVTEST_TESTDATA_LOAD_INT(x2, x20) # load rs1: x20 = 0x2ab707c6
    2fd8:	00012a03          	lw	x20,0(x2)
    2fdc:	00410113          	addi	x2,x2,4

00002fe0 <I_ori_cg_cmp_rd_rs1_b20>:
I_ori_cg_cmp_rd_rs1_b20:
  ori x20, x20, -804 # perform operation
    2fe0:	cdca6a13          	ori	x20,x20,-804
  # Check if x20 contains the expected result. x6 is the signature ptr, x5 is the link ptr, x4 is a temp reg.
  RVTEST_SIGUPD(x6, x5, x4, x20, I_ori_cg_cmp_rd_rs1_b20, I_ori_cg_cmp_rd_rs1_b20_str)
    2fe4:	00032203          	lw	x4,0(x6)
    2fe8:	01420863          	beq	x4,x20,2ff8 <I_ori_cg_cmp_rd_rs1_b20+0x18>
    2fec:	4b0002ef          	jal	x5,349c <failedtest_x5_x4>
    2ff0:	00002fe0          	.word	0x00002fe0
    2ff4:	0000e739          	.word	0x0000e739
    2ff8:	00430313          	addi	x6,x6,4

# Testcase cmp_rd_rs1 (Test rd = rs1 = x21)
  RVTEST_TESTDATA_LOAD_INT(x2, x21) # load rs1: x21 = 0x4df3e2f0
    2ffc:	00012a83          	lw	x21,0(x2)
    3000:	00410113          	addi	x2,x2,4

00003004 <I_ori_cg_cmp_rd_rs1_b21>:
I_ori_cg_cmp_rd_rs1_b21:
  ori x21, x21, -1746 # perform operation
    3004:	92eaea93          	ori	x21,x21,-1746
  # Check if x21 contains the expected result. x6 is the signature ptr, x5 is the link ptr, x4 is a temp reg.
  RVTEST_SIGUPD(x6, x5, x4, x21, I_ori_cg_cmp_rd_rs1_b21, I_ori_cg_cmp_rd_rs1_b21_str)
    3008:	00032203          	lw	x4,0(x6)
    300c:	01520863          	beq	x4,x21,301c <I_ori_cg_cmp_rd_rs1_b21+0x18>
    3010:	48c002ef          	jal	x5,349c <failedtest_x5_x4>
    3014:	00003004          	.word	0x00003004
    3018:	0000e76d          	.word	0x0000e76d
    301c:	00430313          	addi	x6,x6,4

# Testcase cmp_rd_rs1 (Test rd = rs1 = x22)
  RVTEST_TESTDATA_LOAD_INT(x2, x22) # load rs1: x22 = 0x973f65ab
    3020:	00012b03          	lw	x22,0(x2)
    3024:	00410113          	addi	x2,x2,4

00003028 <I_ori_cg_cmp_rd_rs1_b22>:
I_ori_cg_cmp_rd_rs1_b22:
  ori x22, x22, 26 # perform operation
    3028:	01ab6b13          	ori	x22,x22,26
  # Check if x22 contains the expected result. x6 is the signature ptr, x5 is the link ptr, x4 is a temp reg.
  RVTEST_SIGUPD(x6, x5, x4, x22, I_ori_cg_cmp_rd_rs1_b22, I_ori_cg_cmp_rd_rs1_b22_str)
    302c:	00032203          	lw	x4,0(x6)
    3030:	01620863          	beq	x4,x22,3040 <I_ori_cg_cmp_rd_rs1_b22+0x18>
    3034:	468002ef          	jal	x5,349c <failedtest_x5_x4>
    3038:	00003028          	.word	0x00003028
    303c:	0000e7a1          	.word	0x0000e7a1
    3040:	00430313          	addi	x6,x6,4

# Testcase cmp_rd_rs1 (Test rd = rs1 = x23)
  RVTEST_TESTDATA_LOAD_INT(x2, x23) # load rs1: x23 = 0x5073af4c
    3044:	00012b83          	lw	x23,0(x2)
    3048:	00410113          	addi	x2,x2,4

0000304c <I_ori_cg_cmp_rd_rs1_b23>:
I_ori_cg_cmp_rd_rs1_b23:
  ori x23, x23, 1432 # perform operation
    304c:	598beb93          	ori	x23,x23,1432
  # Check if x23 contains the expected result. x6 is the signature ptr, x5 is the link ptr, x4 is a temp reg.
  RVTEST_SIGUPD(x6, x5, x4, x23, I_ori_cg_cmp_rd_rs1_b23, I_ori_cg_cmp_rd_rs1_b23_str)
    3050:	00032203          	lw	x4,0(x6)
    3054:	01720863          	beq	x4,x23,3064 <I_ori_cg_cmp_rd_rs1_b23+0x18>
    3058:	444002ef          	jal	x5,349c <failedtest_x5_x4>
    305c:	0000304c          	.word	0x0000304c
    3060:	0000e7d5          	.word	0x0000e7d5
    3064:	00430313          	addi	x6,x6,4

# Testcase cmp_rd_rs1 (Test rd = rs1 = x24)
  RVTEST_TESTDATA_LOAD_INT(x2, x24) # load rs1: x24 = 0xb848fdae
    3068:	00012c03          	lw	x24,0(x2)
    306c:	00410113          	addi	x2,x2,4

00003070 <I_ori_cg_cmp_rd_rs1_b24>:
I_ori_cg_cmp_rd_rs1_b24:
  ori x24, x24, -1865 # perform operation
    3070:	8b7c6c13          	ori	x24,x24,-1865
  # Check if x24 contains the expected result. x6 is the signature ptr, x5 is the link ptr, x4 is a temp reg.
  RVTEST_SIGUPD(x6, x5, x4, x24, I_ori_cg_cmp_rd_rs1_b24, I_ori_cg_cmp_rd_rs1_b24_str)
    3074:	00032203          	lw	x4,0(x6)
    3078:	01820863          	beq	x4,x24,3088 <I_ori_cg_cmp_rd_rs1_b24+0x18>
    307c:	420002ef          	jal	x5,349c <failedtest_x5_x4>
    3080:	00003070          	.word	0x00003070
    3084:	0000e809          	.word	0x0000e809
    3088:	00430313          	addi	x6,x6,4

# Testcase cmp_rd_rs1 (Test rd = rs1 = x25)
  RVTEST_TESTDATA_LOAD_INT(x2, x25) # load rs1: x25 = 0x42443482
    308c:	00012c83          	lw	x25,0(x2)
    3090:	00410113          	addi	x2,x2,4

00003094 <I_ori_cg_cmp_rd_rs1_b25>:
I_ori_cg_cmp_rd_rs1_b25:
  ori x25, x25, 1576 # perform operation
    3094:	628cec93          	ori	x25,x25,1576
  # Check if x25 contains the expected result. x6 is the signature ptr, x5 is the link ptr, x4 is a temp reg.
  RVTEST_SIGUPD(x6, x5, x4, x25, I_ori_cg_cmp_rd_rs1_b25, I_ori_cg_cmp_rd_rs1_b25_str)
    3098:	00032203          	lw	x4,0(x6)
    309c:	01920863          	beq	x4,x25,30ac <I_ori_cg_cmp_rd_rs1_b25+0x18>
    30a0:	3fc002ef          	jal	x5,349c <failedtest_x5_x4>
    30a4:	00003094          	.word	0x00003094
    30a8:	0000e83d          	.word	0x0000e83d
    30ac:	00430313          	addi	x6,x6,4

# Testcase cmp_rd_rs1 (Test rd = rs1 = x26)
  RVTEST_TESTDATA_LOAD_INT(x2, x26) # load rs1: x26 = 0x1c7057b9
    30b0:	00012d03          	lw	x26,0(x2)
    30b4:	00410113          	addi	x2,x2,4

000030b8 <I_ori_cg_cmp_rd_rs1_b26>:
I_ori_cg_cmp_rd_rs1_b26:
  ori x26, x26, -1324 # perform operation
    30b8:	ad4d6d13          	ori	x26,x26,-1324
  # Check if x26 contains the expected result. x6 is the signature ptr, x5 is the link ptr, x4 is a temp reg.
  RVTEST_SIGUPD(x6, x5, x4, x26, I_ori_cg_cmp_rd_rs1_b26, I_ori_cg_cmp_rd_rs1_b26_str)
    30bc:	00032203          	lw	x4,0(x6)
    30c0:	01a20863          	beq	x4,x26,30d0 <I_ori_cg_cmp_rd_rs1_b26+0x18>
    30c4:	3d8002ef          	jal	x5,349c <failedtest_x5_x4>
    30c8:	000030b8          	.word	0x000030b8
    30cc:	0000e871          	.word	0x0000e871
    30d0:	00430313          	addi	x6,x6,4

# Testcase cmp_rd_rs1 (Test rd = rs1 = x27)
  RVTEST_TESTDATA_LOAD_INT(x2, x27) # load rs1: x27 = 0x87bc807b
    30d4:	00012d83          	lw	x27,0(x2)
    30d8:	00410113          	addi	x2,x2,4

000030dc <I_ori_cg_cmp_rd_rs1_b27>:
I_ori_cg_cmp_rd_rs1_b27:
  ori x27, x27, 347 # perform operation
    30dc:	15bded93          	ori	x27,x27,347
  # Check if x27 contains the expected result. x6 is the signature ptr, x5 is the link ptr, x4 is a temp reg.
  RVTEST_SIGUPD(x6, x5, x4, x27, I_ori_cg_cmp_rd_rs1_b27, I_ori_cg_cmp_rd_rs1_b27_str)
    30e0:	00032203          	lw	x4,0(x6)
    30e4:	01b20863          	beq	x4,x27,30f4 <I_ori_cg_cmp_rd_rs1_b27+0x18>
    30e8:	3b4002ef          	jal	x5,349c <failedtest_x5_x4>
    30ec:	000030dc          	.word	0x000030dc
    30f0:	0000e8a5          	.word	0x0000e8a5
    30f4:	00430313          	addi	x6,x6,4

# Testcase cmp_rd_rs1 (Test rd = rs1 = x28)
  RVTEST_TESTDATA_LOAD_INT(x2, x28) # load rs1: x28 = 0xee0af9f0
    30f8:	00012e03          	lw	x28,0(x2)
    30fc:	00410113          	addi	x2,x2,4

00003100 <I_ori_cg_cmp_rd_rs1_b28>:
I_ori_cg_cmp_rd_rs1_b28:
  ori x28, x28, 694 # perform operation
    3100:	2b6e6e13          	ori	x28,x28,694
  # Check if x28 contains the expected result. x6 is the signature ptr, x5 is the link ptr, x4 is a temp reg.
  RVTEST_SIGUPD(x6, x5, x4, x28, I_ori_cg_cmp_rd_rs1_b28, I_ori_cg_cmp_rd_rs1_b28_str)
    3104:	00032203          	lw	x4,0(x6)
    3108:	01c20863          	beq	x4,x28,3118 <I_ori_cg_cmp_rd_rs1_b28+0x18>
    310c:	390002ef          	jal	x5,349c <failedtest_x5_x4>
    3110:	00003100          	.word	0x00003100
    3114:	0000e8d9          	.word	0x0000e8d9
    3118:	00430313          	addi	x6,x6,4

# Testcase cmp_rd_rs1 (Test rd = rs1 = x29)
  RVTEST_TESTDATA_LOAD_INT(x2, x29) # load rs1: x29 = 0x1abd7185
    311c:	00012e83          	lw	x29,0(x2)
    3120:	00410113          	addi	x2,x2,4

00003124 <I_ori_cg_cmp_rd_rs1_b29>:
I_ori_cg_cmp_rd_rs1_b29:
  ori x29, x29, 1824 # perform operation
    3124:	720eee93          	ori	x29,x29,1824
  # Check if x29 contains the expected result. x6 is the signature ptr, x5 is the link ptr, x4 is a temp reg.
  RVTEST_SIGUPD(x6, x5, x4, x29, I_ori_cg_cmp_rd_rs1_b29, I_ori_cg_cmp_rd_rs1_b29_str)
    3128:	00032203          	lw	x4,0(x6)
    312c:	01d20863          	beq	x4,x29,313c <I_ori_cg_cmp_rd_rs1_b29+0x18>
    3130:	36c002ef          	jal	x5,349c <failedtest_x5_x4>
    3134:	00003124          	.word	0x00003124
    3138:	0000e90d          	.word	0x0000e90d
    313c:	00430313          	addi	x6,x6,4

# Testcase cmp_rd_rs1 (Test rd = rs1 = x30)
  RVTEST_TESTDATA_LOAD_INT(x2, x30) # load rs1: x30 = 0x43fbc46b
    3140:	00012f03          	lw	x30,0(x2)
    3144:	00410113          	addi	x2,x2,4

00003148 <I_ori_cg_cmp_rd_rs1_b30>:
I_ori_cg_cmp_rd_rs1_b30:
  ori x30, x30, 1351 # perform operation
    3148:	547f6f13          	ori	x30,x30,1351
  # Check if x30 contains the expected result. x6 is the signature ptr, x5 is the link ptr, x4 is a temp reg.
  RVTEST_SIGUPD(x6, x5, x4, x30, I_ori_cg_cmp_rd_rs1_b30, I_ori_cg_cmp_rd_rs1_b30_str)
    314c:	00032203          	lw	x4,0(x6)
    3150:	01e20863          	beq	x4,x30,3160 <I_ori_cg_cmp_rd_rs1_b30+0x18>
    3154:	348002ef          	jal	x5,349c <failedtest_x5_x4>
    3158:	00003148          	.word	0x00003148
    315c:	0000e941          	.word	0x0000e941
    3160:	00430313          	addi	x6,x6,4

# Testcase cmp_rd_rs1 (Test rd = rs1 = x31)
  RVTEST_TESTDATA_LOAD_INT(x2, x31) # load rs1: x31 = 0x78baee2e
    3164:	00012f83          	lw	x31,0(x2)
    3168:	00410113          	addi	x2,x2,4

0000316c <I_ori_cg_cmp_rd_rs1_b31>:
I_ori_cg_cmp_rd_rs1_b31:
  ori x31, x31, -479 # perform operation
    316c:	e21fef93          	ori	x31,x31,-479
  # Check if x31 contains the expected result. x6 is the signature ptr, x5 is the link ptr, x4 is a temp reg.
  RVTEST_SIGUPD(x6, x5, x4, x31, I_ori_cg_cmp_rd_rs1_b31, I_ori_cg_cmp_rd_rs1_b31_str)
    3170:	00032203          	lw	x4,0(x6)
    3174:	01f20863          	beq	x4,x31,3184 <I_ori_cg_cmp_rd_rs1_b31+0x18>
    3178:	324002ef          	jal	x5,349c <failedtest_x5_x4>
    317c:	0000316c          	.word	0x0000316c
    3180:	0000e975          	.word	0x0000e975
    3184:	00430313          	addi	x6,x6,4
/////////////////////////////////
// cp_imm_edges
/////////////////////////////////

# Testcase cp_imm_edges (imm = 0)
  RVTEST_TESTDATA_LOAD_INT(x2, x3) # load rs1: x3 = 0x63620466
    3188:	00012183          	lw	x3,0(x2)
    318c:	00410113          	addi	x2,x2,4

00003190 <I_ori_cg_cp_imm_edges_0x0>:
I_ori_cg_cp_imm_edges_0x0:
  ori x1, x3, 0 # perform operation
    3190:	0001e093          	ori	x1,x3,0
  # Check if x1 contains the expected result. x6 is the signature ptr, x5 is the link ptr, x4 is a temp reg.
  RVTEST_SIGUPD(x6, x5, x4, x1, I_ori_cg_cp_imm_edges_0x0, I_ori_cg_cp_imm_edges_0x0_str)
    3194:	00032203          	lw	x4,0(x6)
    3198:	00120863          	beq	x4,x1,31a8 <I_ori_cg_cp_imm_edges_0x0+0x18>
    319c:	300002ef          	jal	x5,349c <failedtest_x5_x4>
    31a0:	00003190          	.word	0x00003190
    31a4:	0000e9a9          	.word	0x0000e9a9
    31a8:	00430313          	addi	x6,x6,4

# Testcase cp_imm_edges (imm = 1)
  RVTEST_TESTDATA_LOAD_INT(x2, x19) # load rs1: x19 = 0xcd1dcf77
    31ac:	00012983          	lw	x19,0(x2)
    31b0:	00410113          	addi	x2,x2,4

000031b4 <I_ori_cg_cp_imm_edges_0x1>:
I_ori_cg_cp_imm_edges_0x1:
  ori x8, x19, 1 # perform operation
    31b4:	0019e413          	ori	x8,x19,1
  # Check if x8 contains the expected result. x6 is the signature ptr, x5 is the link ptr, x4 is a temp reg.
  RVTEST_SIGUPD(x6, x5, x4, x8, I_ori_cg_cp_imm_edges_0x1, I_ori_cg_cp_imm_edges_0x1_str)
    31b8:	00032203          	lw	x4,0(x6)
    31bc:	00820863          	beq	x4,x8,31cc <I_ori_cg_cp_imm_edges_0x1+0x18>
    31c0:	2dc002ef          	jal	x5,349c <failedtest_x5_x4>
    31c4:	000031b4          	.word	0x000031b4
    31c8:	0000e9df          	.word	0x0000e9df
    31cc:	00430313          	addi	x6,x6,4

# Testcase cp_imm_edges (imm = 2)
  RVTEST_TESTDATA_LOAD_INT(x2, x3) # load rs1: x3 = 0x57be1249
    31d0:	00012183          	lw	x3,0(x2)
    31d4:	00410113          	addi	x2,x2,4

000031d8 <I_ori_cg_cp_imm_edges_0x2>:
I_ori_cg_cp_imm_edges_0x2:
  ori x10, x3, 2 # perform operation
    31d8:	0021e513          	ori	x10,x3,2
  # Check if x10 contains the expected result. x6 is the signature ptr, x5 is the link ptr, x4 is a temp reg.
  RVTEST_SIGUPD(x6, x5, x4, x10, I_ori_cg_cp_imm_edges_0x2, I_ori_cg_cp_imm_edges_0x2_str)
    31dc:	00032203          	lw	x4,0(x6)
    31e0:	00a20863          	beq	x4,x10,31f0 <I_ori_cg_cp_imm_edges_0x2+0x18>
    31e4:	2b8002ef          	jal	x5,349c <failedtest_x5_x4>
    31e8:	000031d8          	.word	0x000031d8
    31ec:	0000ea15          	.word	0x0000ea15
    31f0:	00430313          	addi	x6,x6,4

# Testcase cp_imm_edges (imm = 3)
  RVTEST_TESTDATA_LOAD_INT(x2, x21) # load rs1: x21 = 0x1825cdaa
    31f4:	00012a83          	lw	x21,0(x2)
    31f8:	00410113          	addi	x2,x2,4

000031fc <I_ori_cg_cp_imm_edges_0x3>:
I_ori_cg_cp_imm_edges_0x3:
  ori x9, x21, 3 # perform operation
    31fc:	003ae493          	ori	x9,x21,3
  # Check if x9 contains the expected result. x6 is the signature ptr, x5 is the link ptr, x4 is a temp reg.
  RVTEST_SIGUPD(x6, x5, x4, x9, I_ori_cg_cp_imm_edges_0x3, I_ori_cg_cp_imm_edges_0x3_str)
    3200:	00032203          	lw	x4,0(x6)
    3204:	00920863          	beq	x4,x9,3214 <I_ori_cg_cp_imm_edges_0x3+0x18>
    3208:	294002ef          	jal	x5,349c <failedtest_x5_x4>
    320c:	000031fc          	.word	0x000031fc
    3210:	0000ea4b          	.word	0x0000ea4b
    3214:	00430313          	addi	x6,x6,4

# Testcase cp_imm_edges (imm = 4)
  RVTEST_TESTDATA_LOAD_INT(x2, x14) # load rs1: x14 = 0x4a33e010
    3218:	00012703          	lw	x14,0(x2)
    321c:	00410113          	addi	x2,x2,4

00003220 <I_ori_cg_cp_imm_edges_0x4>:
I_ori_cg_cp_imm_edges_0x4:
  ori x8, x14, 4 # perform operation
    3220:	00476413          	ori	x8,x14,4
  # Check if x8 contains the expected result. x6 is the signature ptr, x5 is the link ptr, x4 is a temp reg.
  RVTEST_SIGUPD(x6, x5, x4, x8, I_ori_cg_cp_imm_edges_0x4, I_ori_cg_cp_imm_edges_0x4_str)
    3224:	00032203          	lw	x4,0(x6)
    3228:	00820863          	beq	x4,x8,3238 <I_ori_cg_cp_imm_edges_0x4+0x18>
    322c:	270002ef          	jal	x5,349c <failedtest_x5_x4>
    3230:	00003220          	.word	0x00003220
    3234:	0000ea81          	.word	0x0000ea81
    3238:	00430313          	addi	x6,x6,4

# Testcase cp_imm_edges (imm = 8)
  RVTEST_TESTDATA_LOAD_INT(x2, x14) # load rs1: x14 = 0xd7034430
    323c:	00012703          	lw	x14,0(x2)
    3240:	00410113          	addi	x2,x2,4

00003244 <I_ori_cg_cp_imm_edges_0x8>:
I_ori_cg_cp_imm_edges_0x8:
  ori x28, x14, 8 # perform operation
    3244:	00876e13          	ori	x28,x14,8
  # Check if x28 contains the expected result. x6 is the signature ptr, x5 is the link ptr, x4 is a temp reg.
  RVTEST_SIGUPD(x6, x5, x4, x28, I_ori_cg_cp_imm_edges_0x8, I_ori_cg_cp_imm_edges_0x8_str)
    3248:	00032203          	lw	x4,0(x6)
    324c:	01c20863          	beq	x4,x28,325c <I_ori_cg_cp_imm_edges_0x8+0x18>
    3250:	24c002ef          	jal	x5,349c <failedtest_x5_x4>
    3254:	00003244          	.word	0x00003244
    3258:	0000eab7          	.word	0x0000eab7
    325c:	00430313          	addi	x6,x6,4

# Testcase cp_imm_edges (imm = 16)
  RVTEST_TESTDATA_LOAD_INT(x2, x31) # load rs1: x31 = 0xf72a7235
    3260:	00012f83          	lw	x31,0(x2)
    3264:	00410113          	addi	x2,x2,4

00003268 <I_ori_cg_cp_imm_edges_0x10>:
I_ori_cg_cp_imm_edges_0x10:
  ori x15, x31, 16 # perform operation
    3268:	010fe793          	ori	x15,x31,16
  # Check if x15 contains the expected result. x6 is the signature ptr, x5 is the link ptr, x4 is a temp reg.
  RVTEST_SIGUPD(x6, x5, x4, x15, I_ori_cg_cp_imm_edges_0x10, I_ori_cg_cp_imm_edges_0x10_str)
    326c:	00032203          	lw	x4,0(x6)
    3270:	00f20863          	beq	x4,x15,3280 <I_ori_cg_cp_imm_edges_0x10+0x18>
    3274:	228002ef          	jal	x5,349c <failedtest_x5_x4>
    3278:	00003268          	.word	0x00003268
    327c:	0000eaed          	.word	0x0000eaed
    3280:	00430313          	addi	x6,x6,4

# Testcase cp_imm_edges (imm = 32)
  RVTEST_TESTDATA_LOAD_INT(x2, x18) # load rs1: x18 = 0xc2635032
    3284:	00012903          	lw	x18,0(x2)
    3288:	00410113          	addi	x2,x2,4

0000328c <I_ori_cg_cp_imm_edges_0x20>:
I_ori_cg_cp_imm_edges_0x20:
  ori x30, x18, 32 # perform operation
    328c:	02096f13          	ori	x30,x18,32
  # Check if x30 contains the expected result. x6 is the signature ptr, x5 is the link ptr, x4 is a temp reg.
  RVTEST_SIGUPD(x6, x5, x4, x30, I_ori_cg_cp_imm_edges_0x20, I_ori_cg_cp_imm_edges_0x20_str)
    3290:	00032203          	lw	x4,0(x6)
    3294:	01e20863          	beq	x4,x30,32a4 <I_ori_cg_cp_imm_edges_0x20+0x18>
    3298:	204002ef          	jal	x5,349c <failedtest_x5_x4>
    329c:	0000328c          	.word	0x0000328c
    32a0:	0000eb24          	.word	0x0000eb24
    32a4:	00430313          	addi	x6,x6,4

# Testcase cp_imm_edges (imm = 64)
  RVTEST_TESTDATA_LOAD_INT(x2, x30) # load rs1: x30 = 0x416ad392
    32a8:	00012f03          	lw	x30,0(x2)
    32ac:	00410113          	addi	x2,x2,4

000032b0 <I_ori_cg_cp_imm_edges_0x40>:
I_ori_cg_cp_imm_edges_0x40:
  ori x21, x30, 64 # perform operation
    32b0:	040f6a93          	ori	x21,x30,64
  # Check if x21 contains the expected result. x6 is the signature ptr, x5 is the link ptr, x4 is a temp reg.
  RVTEST_SIGUPD(x6, x5, x4, x21, I_ori_cg_cp_imm_edges_0x40, I_ori_cg_cp_imm_edges_0x40_str)
    32b4:	00032203          	lw	x4,0(x6)
    32b8:	01520863          	beq	x4,x21,32c8 <I_ori_cg_cp_imm_edges_0x40+0x18>
    32bc:	1e0002ef          	jal	x5,349c <failedtest_x5_x4>
    32c0:	000032b0          	.word	0x000032b0
    32c4:	0000eb5b          	.word	0x0000eb5b
    32c8:	00430313          	addi	x6,x6,4

# Testcase cp_imm_edges (imm = 128)
  RVTEST_TESTDATA_LOAD_INT(x2, x27) # load rs1: x27 = 0x5e5eb84f
    32cc:	00012d83          	lw	x27,0(x2)
    32d0:	00410113          	addi	x2,x2,4

000032d4 <I_ori_cg_cp_imm_edges_0x80>:
I_ori_cg_cp_imm_edges_0x80:
  ori x10, x27, 128 # perform operation
    32d4:	080de513          	ori	x10,x27,128
  # Check if x10 contains the expected result. x6 is the signature ptr, x5 is the link ptr, x4 is a temp reg.
  RVTEST_SIGUPD(x6, x5, x4, x10, I_ori_cg_cp_imm_edges_0x80, I_ori_cg_cp_imm_edges_0x80_str)
    32d8:	00032203          	lw	x4,0(x6)
    32dc:	00a20863          	beq	x4,x10,32ec <I_ori_cg_cp_imm_edges_0x80+0x18>
    32e0:	1bc002ef          	jal	x5,349c <failedtest_x5_x4>
    32e4:	000032d4          	.word	0x000032d4
    32e8:	0000eb92          	.word	0x0000eb92
    32ec:	00430313          	addi	x6,x6,4

# Testcase cp_imm_edges (imm = 256)
  RVTEST_TESTDATA_LOAD_INT(x2, x7) # load rs1: x7 = 0xf24e5766
    32f0:	00012383          	lw	x7,0(x2)
    32f4:	00410113          	addi	x2,x2,4

000032f8 <I_ori_cg_cp_imm_edges_0x100>:
I_ori_cg_cp_imm_edges_0x100:
  ori x19, x7, 256 # perform operation
    32f8:	1003e993          	ori	x19,x7,256
  # Check if x19 contains the expected result. x6 is the signature ptr, x5 is the link ptr, x4 is a temp reg.
  RVTEST_SIGUPD(x6, x5, x4, x19, I_ori_cg_cp_imm_edges_0x100, I_ori_cg_cp_imm_edges_0x100_str)
    32fc:	00032203          	lw	x4,0(x6)
    3300:	01320863          	beq	x4,x19,3310 <I_ori_cg_cp_imm_edges_0x100+0x18>
    3304:	198002ef          	jal	x5,349c <failedtest_x5_x4>
    3308:	000032f8          	.word	0x000032f8
    330c:	0000ebc9          	.word	0x0000ebc9
    3310:	00430313          	addi	x6,x6,4

# Testcase cp_imm_edges (imm = 512)
  RVTEST_TESTDATA_LOAD_INT(x2, x17) # load rs1: x17 = 0x1c5a28dd
    3314:	00012883          	lw	x17,0(x2)
    3318:	00410113          	addi	x2,x2,4

0000331c <I_ori_cg_cp_imm_edges_0x200>:
I_ori_cg_cp_imm_edges_0x200:
  ori x19, x17, 512 # perform operation
    331c:	2008e993          	ori	x19,x17,512
  # Check if x19 contains the expected result. x6 is the signature ptr, x5 is the link ptr, x4 is a temp reg.
  RVTEST_SIGUPD(x6, x5, x4, x19, I_ori_cg_cp_imm_edges_0x200, I_ori_cg_cp_imm_edges_0x200_str)
    3320:	00032203          	lw	x4,0(x6)
    3324:	01320863          	beq	x4,x19,3334 <I_ori_cg_cp_imm_edges_0x200+0x18>
    3328:	174002ef          	jal	x5,349c <failedtest_x5_x4>
    332c:	0000331c          	.word	0x0000331c
    3330:	0000ec01          	.word	0x0000ec01
    3334:	00430313          	addi	x6,x6,4

# Testcase cp_imm_edges (imm = 1023)
  RVTEST_TESTDATA_LOAD_INT(x2, x20) # load rs1: x20 = 0x2414e579
    3338:	00012a03          	lw	x20,0(x2)
    333c:	00410113          	addi	x2,x2,4

00003340 <I_ori_cg_cp_imm_edges_0x3ff>:
I_ori_cg_cp_imm_edges_0x3ff:
  ori x16, x20, 1023 # perform operation
    3340:	3ffa6813          	ori	x16,x20,1023
  # Check if x16 contains the expected result. x6 is the signature ptr, x5 is the link ptr, x4 is a temp reg.
  RVTEST_SIGUPD(x6, x5, x4, x16, I_ori_cg_cp_imm_edges_0x3ff, I_ori_cg_cp_imm_edges_0x3ff_str)
    3344:	00032203          	lw	x4,0(x6)
    3348:	01020863          	beq	x4,x16,3358 <I_ori_cg_cp_imm_edges_0x3ff+0x18>
    334c:	150002ef          	jal	x5,349c <failedtest_x5_x4>
    3350:	00003340          	.word	0x00003340
    3354:	0000ec39          	.word	0x0000ec39
    3358:	00430313          	addi	x6,x6,4

# Testcase cp_imm_edges (imm = 1024)
  RVTEST_TESTDATA_LOAD_INT(x2, x9) # load rs1: x9 = 0x1d8164ac
    335c:	00012483          	lw	x9,0(x2)
    3360:	00410113          	addi	x2,x2,4

00003364 <I_ori_cg_cp_imm_edges_0x400>:
I_ori_cg_cp_imm_edges_0x400:
  ori x1, x9, 1024 # perform operation
    3364:	4004e093          	ori	x1,x9,1024
  # Check if x1 contains the expected result. x6 is the signature ptr, x5 is the link ptr, x4 is a temp reg.
  RVTEST_SIGUPD(x6, x5, x4, x1, I_ori_cg_cp_imm_edges_0x400, I_ori_cg_cp_imm_edges_0x400_str)
    3368:	00032203          	lw	x4,0(x6)
    336c:	00120863          	beq	x4,x1,337c <I_ori_cg_cp_imm_edges_0x400+0x18>
    3370:	12c002ef          	jal	x5,349c <failedtest_x5_x4>
    3374:	00003364          	.word	0x00003364
    3378:	0000ec71          	.word	0x0000ec71
    337c:	00430313          	addi	x6,x6,4

# Testcase cp_imm_edges (imm = 1795)
  RVTEST_TESTDATA_LOAD_INT(x2, x31) # load rs1: x31 = 0x0b34bb41
    3380:	00012f83          	lw	x31,0(x2)
    3384:	00410113          	addi	x2,x2,4

00003388 <I_ori_cg_cp_imm_edges_0x703>:
I_ori_cg_cp_imm_edges_0x703:
  ori x20, x31, 1795 # perform operation
    3388:	703fea13          	ori	x20,x31,1795
  # Check if x20 contains the expected result. x6 is the signature ptr, x5 is the link ptr, x4 is a temp reg.
  RVTEST_SIGUPD(x6, x5, x4, x20, I_ori_cg_cp_imm_edges_0x703, I_ori_cg_cp_imm_edges_0x703_str)
    338c:	00032203          	lw	x4,0(x6)
    3390:	01420863          	beq	x4,x20,33a0 <I_ori_cg_cp_imm_edges_0x703+0x18>
    3394:	108002ef          	jal	x5,349c <failedtest_x5_x4>
    3398:	00003388          	.word	0x00003388
    339c:	0000eca9          	.word	0x0000eca9
    33a0:	00430313          	addi	x6,x6,4

# Testcase cp_imm_edges (imm = 2047)
  RVTEST_TESTDATA_LOAD_INT(x2, x15) # load rs1: x15 = 0x4f9e109e
    33a4:	00012783          	lw	x15,0(x2)
    33a8:	00410113          	addi	x2,x2,4

000033ac <I_ori_cg_cp_imm_edges_0x7ff>:
I_ori_cg_cp_imm_edges_0x7ff:
  ori x13, x15, 2047 # perform operation
    33ac:	7ff7e693          	ori	x13,x15,2047
  # Check if x13 contains the expected result. x6 is the signature ptr, x5 is the link ptr, x4 is a temp reg.
  RVTEST_SIGUPD(x6, x5, x4, x13, I_ori_cg_cp_imm_edges_0x7ff, I_ori_cg_cp_imm_edges_0x7ff_str)
    33b0:	00032203          	lw	x4,0(x6)
    33b4:	00d20863          	beq	x4,x13,33c4 <I_ori_cg_cp_imm_edges_0x7ff+0x18>
    33b8:	0e4002ef          	jal	x5,349c <failedtest_x5_x4>
    33bc:	000033ac          	.word	0x000033ac
    33c0:	0000ece1          	.word	0x0000ece1
    33c4:	00430313          	addi	x6,x6,4

# Testcase cp_imm_edges (imm = -2048)
  RVTEST_TESTDATA_LOAD_INT(x2, x26) # load rs1: x26 = 0xd503d0a2
    33c8:	00012d03          	lw	x26,0(x2)
    33cc:	00410113          	addi	x2,x2,4

000033d0 <I_ori_cg_cp_imm_edges_m0x800>:
I_ori_cg_cp_imm_edges_m0x800:
  ori x3, x26, -2048 # perform operation
    33d0:	800d6193          	ori	x3,x26,-2048
  # Check if x3 contains the expected result. x6 is the signature ptr, x5 is the link ptr, x4 is a temp reg.
  RVTEST_SIGUPD(x6, x5, x4, x3, I_ori_cg_cp_imm_edges_m0x800, I_ori_cg_cp_imm_edges_m0x800_str)
    33d4:	00032203          	lw	x4,0(x6)
    33d8:	00320863          	beq	x4,x3,33e8 <I_ori_cg_cp_imm_edges_m0x800+0x18>
    33dc:	0c0002ef          	jal	x5,349c <failedtest_x5_x4>
    33e0:	000033d0          	.word	0x000033d0
    33e4:	0000ed19          	.word	0x0000ed19
    33e8:	00430313          	addi	x6,x6,4

# Testcase cp_imm_edges (imm = -2047)
  RVTEST_TESTDATA_LOAD_INT(x2, x11) # load rs1: x11 = 0x580f7f4a
    33ec:	00012583          	lw	x11,0(x2)
    33f0:	00410113          	addi	x2,x2,4

000033f4 <I_ori_cg_cp_imm_edges_m0x7ff>:
I_ori_cg_cp_imm_edges_m0x7ff:
  ori x24, x11, -2047 # perform operation
    33f4:	8015ec13          	ori	x24,x11,-2047
  # Check if x24 contains the expected result. x6 is the signature ptr, x5 is the link ptr, x4 is a temp reg.
  RVTEST_SIGUPD(x6, x5, x4, x24, I_ori_cg_cp_imm_edges_m0x7ff, I_ori_cg_cp_imm_edges_m0x7ff_str)
    33f8:	00032203          	lw	x4,0(x6)
    33fc:	01820863          	beq	x4,x24,340c <I_ori_cg_cp_imm_edges_m0x7ff+0x18>
    3400:	09c002ef          	jal	x5,349c <failedtest_x5_x4>
    3404:	000033f4          	.word	0x000033f4
    3408:	0000ed52          	.word	0x0000ed52
    340c:	00430313          	addi	x6,x6,4

# Testcase cp_imm_edges (imm = -2)
  RVTEST_TESTDATA_LOAD_INT(x2, x10) # load rs1: x10 = 0xb487f12e
    3410:	00012503          	lw	x10,0(x2)
    3414:	00410113          	addi	x2,x2,4

00003418 <I_ori_cg_cp_imm_edges_m0x2>:
I_ori_cg_cp_imm_edges_m0x2:
  ori x1, x10, -2 # perform operation
    3418:	ffe56093          	ori	x1,x10,-2
  # Check if x1 contains the expected result. x6 is the signature ptr, x5 is the link ptr, x4 is a temp reg.
  RVTEST_SIGUPD(x6, x5, x4, x1, I_ori_cg_cp_imm_edges_m0x2, I_ori_cg_cp_imm_edges_m0x2_str)
    341c:	00032203          	lw	x4,0(x6)
    3420:	00120863          	beq	x4,x1,3430 <I_ori_cg_cp_imm_edges_m0x2+0x18>
    3424:	078002ef          	jal	x5,349c <failedtest_x5_x4>
    3428:	00003418          	.word	0x00003418
    342c:	0000ed8b          	.word	0x0000ed8b
    3430:	00430313          	addi	x6,x6,4

# Testcase cp_imm_edges (imm = -1)
  RVTEST_TESTDATA_LOAD_INT(x2, x30) # load rs1: x30 = 0xc5d64924
    3434:	00012f03          	lw	x30,0(x2)
    3438:	00410113          	addi	x2,x2,4

0000343c <I_ori_cg_cp_imm_edges_m0x1>:
I_ori_cg_cp_imm_edges_m0x1:
  ori x19, x30, -1 # perform operation
    343c:	ffff6993          	ori	x19,x30,-1
  # Check if x19 contains the expected result. x6 is the signature ptr, x5 is the link ptr, x4 is a temp reg.
  RVTEST_SIGUPD(x6, x5, x4, x19, I_ori_cg_cp_imm_edges_m0x1, I_ori_cg_cp_imm_edges_m0x1_str)
    3440:	00032203          	lw	x4,0(x6)
    3444:	01320863          	beq	x4,x19,3454 <I_ori_cg_cp_imm_edges_m0x1+0x18>
    3448:	054002ef          	jal	x5,349c <failedtest_x5_x4>
    344c:	0000343c          	.word	0x0000343c
    3450:	0000edc2          	.word	0x0000edc2
    3454:	00430313          	addi	x6,x6,4

  mv x2, x6 # restore signature pointer to default register for teardown
    3458:	00030113          	addi	x2,x6,0

0000345c <cleanup_epilogs>:
    345c:	00000013          	addi	x0,x0,0

// Instantiate trap handlers and other epilog code, call RVMODEL_HALT at end of test
RVTEST_CODE_END
    3460:	0000c517          	auipc	x10,0xc
    3464:	00450513          	addi	x10,x10,4 # f464 <successstr>
    3468:	00000013          	addi	x0,x0,0
    346c:	00000013          	addi	x0,x0,0
    3470:	00000013          	addi	x0,x0,0
    3474:	00000013          	addi	x0,x0,0
    3478:	00000013          	addi	x0,x0,0
    347c:	00000013          	addi	x0,x0,0
    3480:	0001d097          	auipc	x1,0x1d
    3484:	d84080e7          	jalr	x1,-636(x1) # 20204 <rvmodel_io_write_str>
    3488:	0001d097          	auipc	x1,0x1d
    348c:	d80080e7          	jalr	x1,-640(x1) # 20208 <rvmodel_halt_pass>

00003490 <abort_test>:
    3490:	bad0e737          	lui	x14,0xbad0e
    3494:	ead70713          	addi	x14,x14,-339 # bad0dead <absimm+0x4b743ba4>
    3498:	fc5ff06f          	jal	x0,345c <cleanup_epilogs>

0000349c <failedtest_x5_x4>:
    349c:	0000c217          	auipc	x4,0xc
    34a0:	96420213          	addi	x4,x4,-1692 # ee00 <begin_failure_scratch>
    34a4:	02522423          	sw	x5,40(x4) # 28 <MMODE_SIG+0x25>
    34a8:	00122423          	sw	x1,8(x4) # 8 <MMODE_SIG+0x5>
    34ac:	00022023          	sw	x0,0(x4) # 0 <rvtest_entry_point>
    34b0:	0b00006f          	jal	x0,3560 <failedtest_saveregs>

000034b4 <failedtest_x8_x7>:
    34b4:	0000c397          	auipc	x7,0xc
    34b8:	94c38393          	addi	x7,x7,-1716 # ee00 <begin_failure_scratch>
    34bc:	0483a023          	sw	x8,64(x7)
    34c0:	0243a023          	sw	x4,32(x7)
    34c4:	0253a423          	sw	x5,40(x7)
    34c8:	0013a423          	sw	x1,8(x7)
    34cc:	0003a023          	sw	x0,0(x7)
    34d0:	00038213          	addi	x4,x7,0
    34d4:	00040293          	addi	x5,x8,0
    34d8:	0880006f          	jal	x0,3560 <failedtest_saveregs>

000034dc <failedtest_x14_x13>:
    34dc:	0000c697          	auipc	x13,0xc
    34e0:	92468693          	addi	x13,x13,-1756 # ee00 <begin_failure_scratch>
    34e4:	06e6a823          	sw	x14,112(x13)
    34e8:	0246a023          	sw	x4,32(x13)
    34ec:	0256a423          	sw	x5,40(x13)
    34f0:	0016a423          	sw	x1,8(x13)
    34f4:	0006a023          	sw	x0,0(x13)
    34f8:	00068213          	addi	x4,x13,0
    34fc:	00070293          	addi	x5,x14,0
    3500:	0600006f          	jal	x0,3560 <failedtest_saveregs>

00003504 <failedtest_trap_x7_x9>:
    3504:	0000c497          	auipc	x9,0xc
    3508:	8fc48493          	addi	x9,x9,-1796 # ee00 <begin_failure_scratch>
    350c:	0674a423          	sw	x7,104(x9)
    3510:	0244a023          	sw	x4,32(x9)
    3514:	0254a423          	sw	x5,40(x9)
    3518:	0014a423          	sw	x1,8(x9)
    351c:	00300093          	addi	x1,x0,3
    3520:	0014a023          	sw	x1,0(x9)
    3524:	00048213          	addi	x4,x9,0
    3528:	00038293          	addi	x5,x7,0
    352c:	342020f3          	csrrs	x1,mcause,x0
    3530:	0000c497          	auipc	x9,0xc
    3534:	a4048493          	addi	x9,x9,-1472 # ef70 <saved_mcause>
    3538:	0014a023          	sw	x1,0(x9)
    353c:	343020f3          	csrrs	x1,mtval,x0
    3540:	0000c497          	auipc	x9,0xc
    3544:	a3848493          	addi	x9,x9,-1480 # ef78 <saved_mtval>
    3548:	0014a023          	sw	x1,0(x9)
    354c:	300020f3          	csrrs	x1,mstatus,x0
    3550:	0000c497          	auipc	x9,0xc
    3554:	a3048493          	addi	x9,x9,-1488 # ef80 <saved_mstatus>
    3558:	0014a023          	sw	x1,0(x9)
    355c:	0040006f          	jal	x0,3560 <failedtest_saveregs>

00003560 <failedtest_saveregs>:
    3560:	00222823          	sw	x2,16(x4) # 10 <MMODE_SIG+0xd>
    3564:	00322c23          	sw	x3,24(x4) # 18 <MMODE_SIG+0x15>
    3568:	02622823          	sw	x6,48(x4) # 30 <MMODE_SIG+0x2d>
    356c:	02722c23          	sw	x7,56(x4) # 38 <MMODE_SIG+0x35>
    3570:	04822023          	sw	x8,64(x4) # 40 <rvtest_code_begin>
    3574:	04922423          	sw	x9,72(x4) # 48 <I_ori_cg_cp_rs1_b0>
    3578:	04a22823          	sw	x10,80(x4) # 50 <I_ori_cg_cp_rs1_b0+0x8>
    357c:	04b22c23          	sw	x11,88(x4) # 58 <I_ori_cg_cp_rs1_b0+0x10>
    3580:	06c22023          	sw	x12,96(x4) # 60 <I_ori_cg_cp_rs1_b0+0x18>
    3584:	06d22423          	sw	x13,104(x4) # 68 <I_ori_cg_cp_rs1_b0+0x20>
    3588:	06e22823          	sw	x14,112(x4) # 70 <I_ori_cg_cp_rs1_b1+0x4>
    358c:	06f22c23          	sw	x15,120(x4) # 78 <I_ori_cg_cp_rs1_b1+0xc>
    3590:	09022023          	sw	x16,128(x4) # 80 <I_ori_cg_cp_rs1_b1+0x14>
    3594:	09122423          	sw	x17,136(x4) # 88 <I_ori_cg_cp_rs1_b1+0x1c>
    3598:	09222823          	sw	x18,144(x4) # 90 <I_ori_cg_cp_rs1_b1+0x24>
    359c:	09322c23          	sw	x19,152(x4) # 98 <I_ori_cg_cp_rs1_b2+0x4>
    35a0:	0b422023          	sw	x20,160(x4) # a0 <I_ori_cg_cp_rs1_b2+0xc>
    35a4:	0b522423          	sw	x21,168(x4) # a8 <I_ori_cg_cp_rs1_b2+0x14>
    35a8:	0b622823          	sw	x22,176(x4) # b0 <I_ori_cg_cp_rs1_b2+0x1c>
    35ac:	0b722c23          	sw	x23,184(x4) # b8 <I_ori_cg_cp_rs1_b2+0x24>
    35b0:	0d822023          	sw	x24,192(x4) # c0 <I_ori_cg_cp_rs1_b3+0x4>
    35b4:	0d922423          	sw	x25,200(x4) # c8 <I_ori_cg_cp_rs1_b3+0xc>
    35b8:	0da22823          	sw	x26,208(x4) # d0 <I_ori_cg_cp_rs1_b3+0x14>
    35bc:	0db22c23          	sw	x27,216(x4) # d8 <I_ori_cg_cp_rs1_b3+0x1c>
    35c0:	0fc22023          	sw	x28,224(x4) # e0 <I_ori_cg_cp_rs1_b3+0x24>
    35c4:	0fd22423          	sw	x29,232(x4) # e8 <I_ori_cg_cp_rs1_b4>
    35c8:	0fe22823          	sw	x30,240(x4) # f0 <I_ori_cg_cp_rs1_b4+0x8>
    35cc:	0ff22c23          	sw	x31,248(x4) # f8 <I_ori_cg_cp_rs1_b4+0x10>

000035d0 <failedtest_saveresults>:
    35d0:	0000c497          	auipc	x9,0xc
    35d4:	8304a483          	lw	x9,-2000(x9) # ee00 <begin_failure_scratch>
    35d8:	00300513          	addi	x10,x0,3
    35dc:	06a48863          	beq	x9,x10,364c <failedtest_saveresults_trap>

000035e0 <failedtest_saveresults_int>:
    35e0:	ffa2d303          	lhu	x6,-6(x5)
    35e4:	ff82d383          	lhu	x7,-8(x5)
    35e8:	01031313          	slli	x6,x6,0x10
    35ec:	00736333          	or	x6,x6,x7
    35f0:	00f35393          	srli	x7,x6,0xf
    35f4:	01f3f393          	andi	x7,x7,31
    35f8:	01435413          	srli	x8,x6,0x14
    35fc:	01f47413          	andi	x8,x8,31
    3600:	10822223          	sw	x8,260(x4) # 104 <I_ori_cg_cp_rs1_b4+0x1c>
    3604:	00341313          	slli	x6,x8,0x3
    3608:	00620333          	add	x6,x4,x6
    360c:	00032303          	lw	x6,0(x6)
    3610:	10622823          	sw	x6,272(x4) # 110 <I_ori_cg_cp_rs1_b5+0x4>
    3614:	ff62d303          	lhu	x6,-10(x5)
    3618:	ff42d383          	lhu	x7,-12(x5)
    361c:	01031313          	slli	x6,x6,0x10
    3620:	00736333          	or	x6,x6,x7
    3624:	41435393          	srai	x7,x6,0x14
    3628:	00f35313          	srli	x6,x6,0xf
    362c:	01f37313          	andi	x6,x6,31
    3630:	00331313          	slli	x6,x6,0x3
    3634:	00620333          	add	x6,x4,x6
    3638:	00032303          	lw	x6,0(x6)
    363c:	00730333          	add	x6,x6,x7
    3640:	00032303          	lw	x6,0(x6)
    3644:	10622c23          	sw	x6,280(x4) # 118 <I_ori_cg_cp_rs1_b5+0xc>
    3648:	3d80006f          	jal	x0,3a20 <failedtest_saveresults_common>

0000364c <failedtest_saveresults_trap>:
    364c:	0042a303          	lw	x6,4(x5)
    3650:	0000c817          	auipc	x16,0xc
    3654:	90880813          	addi	x16,x16,-1784 # ef58 <trap_diag_fail_str_ptr>
    3658:	00682023          	sw	x6,0(x16)
    365c:	0002a303          	lw	x6,0(x5)
    3660:	10622423          	sw	x6,264(x4) # 108 <I_ori_cg_cp_rs1_b4+0x20>
    3664:	0000c817          	auipc	x16,0xc
    3668:	8f480813          	addi	x16,x16,-1804 # ef58 <trap_diag_fail_str_ptr>
    366c:	00082303          	lw	x6,0(x16)
    3670:	0000c397          	auipc	x7,0xc
    3674:	fba38393          	addi	x7,x7,-70 # f62a <trap_sig_offset_mismatch>
    3678:	28730463          	beq	x6,x7,3900 <trap_diag_offset_mismatch>
    367c:	00000413          	addi	x8,x0,0
    3680:	0000c817          	auipc	x16,0xc
    3684:	8b080813          	addi	x16,x16,-1872 # ef30 <trap_diag_subtype>
    3688:	00882023          	sw	x8,0(x16)
    368c:	0000c397          	auipc	x7,0xc
    3690:	00238393          	addi	x7,x7,2 # f68e <sv_Mvect_str>
    3694:	00731863          	bne	x6,x7,36a4 <failedtest_saveresults_trap+0x58>
    3698:	00100413          	addi	x8,x0,1
    369c:	00000493          	addi	x9,x0,0
    36a0:	2e00006f          	jal	x0,3980 <trap_diag_field_identified>
    36a4:	0000c397          	auipc	x7,0xc
    36a8:	0ec38393          	addi	x7,x7,236 # f790 <sv_Mcause_str>
    36ac:	00731863          	bne	x6,x7,36bc <failedtest_saveresults_trap+0x70>
    36b0:	00200413          	addi	x8,x0,2
    36b4:	00000493          	addi	x9,x0,0
    36b8:	2c80006f          	jal	x0,3980 <trap_diag_field_identified>
    36bc:	0000c397          	auipc	x7,0xc
    36c0:	1cf38393          	addi	x7,x7,463 # f88b <sv_Mepc_str>
    36c4:	00731863          	bne	x6,x7,36d4 <failedtest_saveresults_trap+0x88>
    36c8:	00300413          	addi	x8,x0,3
    36cc:	00000493          	addi	x9,x0,0
    36d0:	2b00006f          	jal	x0,3980 <trap_diag_field_identified>
    36d4:	0000c397          	auipc	x7,0xc
    36d8:	2aa38393          	addi	x7,x7,682 # f97e <sv_Mtval_str>
    36dc:	00731863          	bne	x6,x7,36ec <failedtest_saveresults_trap+0xa0>
    36e0:	00400413          	addi	x8,x0,4
    36e4:	00000493          	addi	x9,x0,0
    36e8:	2980006f          	jal	x0,3980 <trap_diag_field_identified>
    36ec:	0000c397          	auipc	x7,0xc
    36f0:	40538393          	addi	x7,x7,1029 # faf1 <sv_Mip_str>
    36f4:	00731863          	bne	x6,x7,3704 <failedtest_saveresults_trap+0xb8>
    36f8:	00500413          	addi	x8,x0,5
    36fc:	00000493          	addi	x9,x0,0
    3700:	2800006f          	jal	x0,3980 <trap_diag_field_identified>
    3704:	0000c397          	auipc	x7,0xc
    3708:	37138393          	addi	x7,x7,881 # fa75 <sv_Mtval2_str>
    370c:	00731863          	bne	x6,x7,371c <failedtest_saveresults_trap+0xd0>
    3710:	00600413          	addi	x8,x0,6
    3714:	00000493          	addi	x9,x0,0
    3718:	2680006f          	jal	x0,3980 <trap_diag_field_identified>
    371c:	0000c397          	auipc	x7,0xc
    3720:	39738393          	addi	x7,x7,919 # fab3 <sv_Mtinst_str>
    3724:	00731863          	bne	x6,x7,3734 <failedtest_saveresults_trap+0xe8>
    3728:	00700413          	addi	x8,x0,7
    372c:	00000493          	addi	x9,x0,0
    3730:	2500006f          	jal	x0,3980 <trap_diag_field_identified>
    3734:	0000c397          	auipc	x7,0xc
    3738:	f9a38393          	addi	x7,x7,-102 # f6ce <sv_Svect_str>
    373c:	00731863          	bne	x6,x7,374c <failedtest_saveresults_trap+0x100>
    3740:	00100413          	addi	x8,x0,1
    3744:	00100493          	addi	x9,x0,1
    3748:	2380006f          	jal	x0,3980 <trap_diag_field_identified>
    374c:	0000c397          	auipc	x7,0xc
    3750:	08238393          	addi	x7,x7,130 # f7ce <sv_Scause_str>
    3754:	00731863          	bne	x6,x7,3764 <failedtest_saveresults_trap+0x118>
    3758:	00200413          	addi	x8,x0,2
    375c:	00100493          	addi	x9,x0,1
    3760:	2200006f          	jal	x0,3980 <trap_diag_field_identified>
    3764:	0000c397          	auipc	x7,0xc
    3768:	16338393          	addi	x7,x7,355 # f8c7 <sv_Sepc_str>
    376c:	00731863          	bne	x6,x7,377c <failedtest_saveresults_trap+0x130>
    3770:	00300413          	addi	x8,x0,3
    3774:	00100493          	addi	x9,x0,1
    3778:	2080006f          	jal	x0,3980 <trap_diag_field_identified>
    377c:	0000c397          	auipc	x7,0xc
    3780:	23f38393          	addi	x7,x7,575 # f9bb <sv_Stval_str>
    3784:	00731863          	bne	x6,x7,3794 <failedtest_saveresults_trap+0x148>
    3788:	00400413          	addi	x8,x0,4
    378c:	00100493          	addi	x9,x0,1
    3790:	1f00006f          	jal	x0,3980 <trap_diag_field_identified>
    3794:	0000c397          	auipc	x7,0xc
    3798:	39838393          	addi	x7,x7,920 # fb2c <sv_Sip_str>
    379c:	00731863          	bne	x6,x7,37ac <failedtest_saveresults_trap+0x160>
    37a0:	00500413          	addi	x8,x0,5
    37a4:	00100493          	addi	x9,x0,1
    37a8:	1d80006f          	jal	x0,3980 <trap_diag_field_identified>
    37ac:	0000c397          	auipc	x7,0xc
    37b0:	f6238393          	addi	x7,x7,-158 # f70e <sv_Hvect_str>
    37b4:	00731863          	bne	x6,x7,37c4 <failedtest_saveresults_trap+0x178>
    37b8:	00100413          	addi	x8,x0,1
    37bc:	00200493          	addi	x9,x0,2
    37c0:	1c00006f          	jal	x0,3980 <trap_diag_field_identified>
    37c4:	0000c397          	auipc	x7,0xc
    37c8:	04838393          	addi	x7,x7,72 # f80c <sv_Hcause_str>
    37cc:	00731863          	bne	x6,x7,37dc <failedtest_saveresults_trap+0x190>
    37d0:	00200413          	addi	x8,x0,2
    37d4:	00200493          	addi	x9,x0,2
    37d8:	1a80006f          	jal	x0,3980 <trap_diag_field_identified>
    37dc:	0000c397          	auipc	x7,0xc
    37e0:	12738393          	addi	x7,x7,295 # f903 <sv_Hepc_str>
    37e4:	00731863          	bne	x6,x7,37f4 <failedtest_saveresults_trap+0x1a8>
    37e8:	00300413          	addi	x8,x0,3
    37ec:	00200493          	addi	x9,x0,2
    37f0:	1900006f          	jal	x0,3980 <trap_diag_field_identified>
    37f4:	0000c397          	auipc	x7,0xc
    37f8:	20438393          	addi	x7,x7,516 # f9f8 <sv_Htval_str>
    37fc:	00731863          	bne	x6,x7,380c <failedtest_saveresults_trap+0x1c0>
    3800:	00400413          	addi	x8,x0,4
    3804:	00200493          	addi	x9,x0,2
    3808:	1780006f          	jal	x0,3980 <trap_diag_field_identified>
    380c:	0000c397          	auipc	x7,0xc
    3810:	35b38393          	addi	x7,x7,859 # fb67 <sv_Hip_str>
    3814:	00731863          	bne	x6,x7,3824 <failedtest_saveresults_trap+0x1d8>
    3818:	00500413          	addi	x8,x0,5
    381c:	00200493          	addi	x9,x0,2
    3820:	1600006f          	jal	x0,3980 <trap_diag_field_identified>
    3824:	0000c397          	auipc	x7,0xc
    3828:	f2b38393          	addi	x7,x7,-213 # f74f <sv_Vvect_str>
    382c:	00731863          	bne	x6,x7,383c <failedtest_saveresults_trap+0x1f0>
    3830:	00100413          	addi	x8,x0,1
    3834:	00300493          	addi	x9,x0,3
    3838:	1480006f          	jal	x0,3980 <trap_diag_field_identified>
    383c:	0000c397          	auipc	x7,0xc
    3840:	00f38393          	addi	x7,x7,15 # f84b <sv_Vcause_str>
    3844:	00731863          	bne	x6,x7,3854 <failedtest_saveresults_trap+0x208>
    3848:	00200413          	addi	x8,x0,2
    384c:	00300493          	addi	x9,x0,3
    3850:	1300006f          	jal	x0,3980 <trap_diag_field_identified>
    3854:	0000c397          	auipc	x7,0xc
    3858:	0ec38393          	addi	x7,x7,236 # f940 <sv_Vepc_str>
    385c:	00731863          	bne	x6,x7,386c <failedtest_saveresults_trap+0x220>
    3860:	00300413          	addi	x8,x0,3
    3864:	00300493          	addi	x9,x0,3
    3868:	1180006f          	jal	x0,3980 <trap_diag_field_identified>
    386c:	0000c397          	auipc	x7,0xc
    3870:	1ca38393          	addi	x7,x7,458 # fa36 <sv_Vtval_str>
    3874:	00731863          	bne	x6,x7,3884 <failedtest_saveresults_trap+0x238>
    3878:	00400413          	addi	x8,x0,4
    387c:	00300493          	addi	x9,x0,3
    3880:	1000006f          	jal	x0,3980 <trap_diag_field_identified>
    3884:	0000c397          	auipc	x7,0xc
    3888:	31f38393          	addi	x7,x7,799 # fba3 <sv_Vip_str>
    388c:	00731863          	bne	x6,x7,389c <failedtest_saveresults_trap+0x250>
    3890:	00500413          	addi	x8,x0,5
    3894:	00300493          	addi	x9,x0,3
    3898:	0e80006f          	jal	x0,3980 <trap_diag_field_identified>
    389c:	0000c397          	auipc	x7,0xc
    38a0:	34438393          	addi	x7,x7,836 # fbe0 <Mclr_Mext_int_str>
    38a4:	00731863          	bne	x6,x7,38b4 <failedtest_saveresults_trap+0x268>
    38a8:	00800413          	addi	x8,x0,8
    38ac:	00000493          	addi	x9,x0,0
    38b0:	0d00006f          	jal	x0,3980 <trap_diag_field_identified>
    38b4:	0000c397          	auipc	x7,0xc
    38b8:	37b38393          	addi	x7,x7,891 # fc2f <Mclr_Sext_int_str>
    38bc:	00731863          	bne	x6,x7,38cc <failedtest_saveresults_trap+0x280>
    38c0:	00800413          	addi	x8,x0,8
    38c4:	00000493          	addi	x9,x0,0
    38c8:	0b80006f          	jal	x0,3980 <trap_diag_field_identified>
    38cc:	0000c397          	auipc	x7,0xc
    38d0:	45e38393          	addi	x7,x7,1118 # fd2a <Sclr_Sext_int_str>
    38d4:	00731863          	bne	x6,x7,38e4 <failedtest_saveresults_trap+0x298>
    38d8:	00800413          	addi	x8,x0,8
    38dc:	00100493          	addi	x9,x0,1
    38e0:	0a00006f          	jal	x0,3980 <trap_diag_field_identified>
    38e4:	0000c397          	auipc	x7,0xc
    38e8:	54238393          	addi	x7,x7,1346 # fe26 <Hclr_Sext_int_str>
    38ec:	00731863          	bne	x6,x7,38fc <failedtest_saveresults_trap+0x2b0>
    38f0:	00800413          	addi	x8,x0,8
    38f4:	00200493          	addi	x9,x0,2
    38f8:	0880006f          	jal	x0,3980 <trap_diag_field_identified>
    38fc:	1140006f          	jal	x0,3a10 <trap_diag_generic_report>

00003900 <trap_diag_offset_mismatch>:
    3900:	00900413          	addi	x8,x0,9
    3904:	0000b817          	auipc	x16,0xb
    3908:	62c80813          	addi	x16,x16,1580 # ef30 <trap_diag_subtype>
    390c:	00882023          	sw	x8,0(x16)
    3910:	ffa2d303          	lhu	x6,-6(x5)
    3914:	ff82d383          	lhu	x7,-8(x5)
    3918:	01031313          	slli	x6,x6,0x10
    391c:	00736333          	or	x6,x6,x7
    3920:	01435413          	srli	x8,x6,0x14
    3924:	01f47413          	andi	x8,x8,31
    3928:	00341313          	slli	x6,x8,0x3
    392c:	00620333          	add	x6,x4,x6
    3930:	00032303          	lw	x6,0(x6)
    3934:	0000b817          	auipc	x16,0xb
    3938:	61480813          	addi	x16,x16,1556 # ef48 <trap_diag_actual_offset>
    393c:	00682023          	sw	x6,0(x16)
    3940:	ff62d303          	lhu	x6,-10(x5)
    3944:	ff42d383          	lhu	x7,-12(x5)
    3948:	01031313          	slli	x6,x6,0x10
    394c:	00736333          	or	x6,x6,x7
    3950:	41435393          	srai	x7,x6,0x14
    3954:	00f35313          	srli	x6,x6,0xf
    3958:	01f37313          	andi	x6,x6,31
    395c:	00331313          	slli	x6,x6,0x3
    3960:	00620333          	add	x6,x4,x6
    3964:	00032303          	lw	x6,0(x6)
    3968:	00730333          	add	x6,x6,x7
    396c:	00032303          	lw	x6,0(x6)
    3970:	0000b817          	auipc	x16,0xb
    3974:	5e080813          	addi	x16,x16,1504 # ef50 <trap_diag_expected_offset>
    3978:	00682023          	sw	x6,0(x16)
    397c:	0a40006f          	jal	x0,3a20 <failedtest_saveresults_common>

00003980 <trap_diag_field_identified>:
    3980:	0000b817          	auipc	x16,0xb
    3984:	5b080813          	addi	x16,x16,1456 # ef30 <trap_diag_subtype>
    3988:	00882023          	sw	x8,0(x16)
    398c:	0000b817          	auipc	x16,0xb
    3990:	5a880813          	addi	x16,x16,1448 # ef34 <trap_diag_mode>
    3994:	00982023          	sw	x9,0(x16)
    3998:	ffa2d303          	lhu	x6,-6(x5)
    399c:	ff82d383          	lhu	x7,-8(x5)
    39a0:	01031313          	slli	x6,x6,0x10
    39a4:	00736333          	or	x6,x6,x7
    39a8:	01435713          	srli	x14,x6,0x14
    39ac:	01f77713          	andi	x14,x14,31
    39b0:	00371313          	slli	x6,x14,0x3
    39b4:	00620333          	add	x6,x4,x6
    39b8:	00032303          	lw	x6,0(x6)
    39bc:	10622823          	sw	x6,272(x4) # 110 <I_ori_cg_cp_rs1_b5+0x4>
    39c0:	0000b817          	auipc	x16,0xb
    39c4:	57880813          	addi	x16,x16,1400 # ef38 <trap_diag_actual_value>
    39c8:	00682023          	sw	x6,0(x16)
    39cc:	ff62d303          	lhu	x6,-10(x5)
    39d0:	ff42d383          	lhu	x7,-12(x5)
    39d4:	01031313          	slli	x6,x6,0x10
    39d8:	00736333          	or	x6,x6,x7
    39dc:	41435393          	srai	x7,x6,0x14
    39e0:	00f35313          	srli	x6,x6,0xf
    39e4:	01f37313          	andi	x6,x6,31
    39e8:	00331313          	slli	x6,x6,0x3
    39ec:	00620333          	add	x6,x4,x6
    39f0:	00032303          	lw	x6,0(x6)
    39f4:	00730333          	add	x6,x6,x7
    39f8:	00032303          	lw	x6,0(x6)
    39fc:	10622c23          	sw	x6,280(x4) # 118 <I_ori_cg_cp_rs1_b5+0xc>
    3a00:	0000b817          	auipc	x16,0xb
    3a04:	54080813          	addi	x16,x16,1344 # ef40 <trap_diag_expected_value>
    3a08:	00682023          	sw	x6,0(x16)
    3a0c:	0140006f          	jal	x0,3a20 <failedtest_saveresults_common>

00003a10 <trap_diag_generic_report>:
    3a10:	0000b817          	auipc	x16,0xb
    3a14:	52080813          	addi	x16,x16,1312 # ef30 <trap_diag_subtype>
    3a18:	00082023          	sw	x0,0(x16)
    3a1c:	0040006f          	jal	x0,3a20 <failedtest_saveresults_common>

00003a20 <failedtest_saveresults_common>:
    3a20:	0002a303          	lw	x6,0(x5)
    3a24:	10622423          	sw	x6,264(x4) # 108 <I_ori_cg_cp_rs1_b4+0x20>
    3a28:	00035383          	lhu	x7,0(x6)
    3a2c:	0033f413          	andi	x8,x7,3
    3a30:	00300493          	addi	x9,x0,3
    3a34:	00941863          	bne	x8,x9,3a44 <failedtest_saveresults_common+0x24>
    3a38:	00235403          	lhu	x8,2(x6)
    3a3c:	01041413          	slli	x8,x8,0x10
    3a40:	0083e3b3          	or	x7,x7,x8
    3a44:	10722023          	sw	x7,256(x4) # 100 <I_ori_cg_cp_rs1_b4+0x18>
    3a48:	0042a303          	lw	x6,4(x5)
    3a4c:	12622023          	sw	x6,288(x4) # 120 <I_ori_cg_cp_rs1_b5+0x14>

00003a50 <failedtest_report>:
    3a50:	00000013          	addi	x0,x0,0
    3a54:	00000013          	addi	x0,x0,0
    3a58:	00000013          	addi	x0,x0,0
    3a5c:	00000013          	addi	x0,x0,0
    3a60:	0000c517          	auipc	x10,0xc
    3a64:	a3a50513          	addi	x10,x10,-1478 # f49a <failstr>
    3a68:	00000013          	addi	x0,x0,0
    3a6c:	00000013          	addi	x0,x0,0
    3a70:	00000013          	addi	x0,x0,0
    3a74:	00000013          	addi	x0,x0,0
    3a78:	00000013          	addi	x0,x0,0
    3a7c:	00000013          	addi	x0,x0,0
    3a80:	0001c097          	auipc	x1,0x1c
    3a84:	784080e7          	jalr	x1,1924(x1) # 20204 <rvmodel_io_write_str>

00003a88 <print_testnamestr>:
    3a88:	00000013          	addi	x0,x0,0
    3a8c:	00000013          	addi	x0,x0,0
    3a90:	00000013          	addi	x0,x0,0
    3a94:	00000013          	addi	x0,x0,0
    3a98:	00000013          	addi	x0,x0,0
    3a9c:	00000013          	addi	x0,x0,0
    3aa0:	0000c517          	auipc	x10,0xc
    3aa4:	a8d50513          	addi	x10,x10,-1395 # f52d <testnamestr>
    3aa8:	00000013          	addi	x0,x0,0
    3aac:	00000013          	addi	x0,x0,0
    3ab0:	00000013          	addi	x0,x0,0
    3ab4:	00000013          	addi	x0,x0,0
    3ab8:	00000013          	addi	x0,x0,0
    3abc:	00000013          	addi	x0,x0,0
    3ac0:	0001c097          	auipc	x1,0x1c
    3ac4:	744080e7          	jalr	x1,1860(x1) # 20204 <rvmodel_io_write_str>

00003ac8 <print_failure_test_name_str>:
    3ac8:	0000b517          	auipc	x10,0xb
    3acc:	45852503          	lw	x10,1112(x10) # ef20 <failure_string_ptr>
    3ad0:	0001c097          	auipc	x1,0x1c
    3ad4:	734080e7          	jalr	x1,1844(x1) # 20204 <rvmodel_io_write_str>

00003ad8 <print_newline_str>:
    3ad8:	00000013          	addi	x0,x0,0
    3adc:	00000013          	addi	x0,x0,0
    3ae0:	0000c517          	auipc	x10,0xc
    3ae4:	a5f50513          	addi	x10,x10,-1441 # f53f <newlinestr>
    3ae8:	00000013          	addi	x0,x0,0
    3aec:	00000013          	addi	x0,x0,0
    3af0:	00000013          	addi	x0,x0,0
    3af4:	00000013          	addi	x0,x0,0
    3af8:	00000013          	addi	x0,x0,0
    3afc:	00000013          	addi	x0,x0,0
    3b00:	0001c097          	auipc	x1,0x1c
    3b04:	704080e7          	jalr	x1,1796(x1) # 20204 <rvmodel_io_write_str>
    3b08:	0000b517          	auipc	x10,0xb
    3b0c:	2f852503          	lw	x10,760(x10) # ee00 <begin_failure_scratch>
    3b10:	00300593          	addi	x11,x0,3
    3b14:	3eb50c63          	beq	x10,x11,3f0c <failedtest_report_trap_detailed>
    3b18:	00000013          	addi	x0,x0,0
    3b1c:	00000013          	addi	x0,x0,0
    3b20:	0000c517          	auipc	x10,0xc
    3b24:	a2150513          	addi	x10,x10,-1503 # f541 <inststr>
    3b28:	00000013          	addi	x0,x0,0
    3b2c:	00000013          	addi	x0,x0,0
    3b30:	00000013          	addi	x0,x0,0
    3b34:	00000013          	addi	x0,x0,0
    3b38:	00000013          	addi	x0,x0,0
    3b3c:	00000013          	addi	x0,x0,0
    3b40:	0001c097          	auipc	x1,0x1c
    3b44:	6c4080e7          	jalr	x1,1732(x1) # 20204 <rvmodel_io_write_str>
    3b48:	0000b517          	auipc	x10,0xb
    3b4c:	3b852503          	lw	x10,952(x10) # ef00 <failing_instruction>
    3b50:	02000593          	addi	x11,x0,32
    3b54:	00357613          	andi	x12,x10,3
    3b58:	00300693          	addi	x13,x0,3
    3b5c:	00d60463          	beq	x12,x13,3b64 <print_newline_str+0x8c>
    3b60:	01000593          	addi	x11,x0,16
    3b64:	2f4010ef          	jal	x1,4e58 <failedtest_hex_to_str>
    3b68:	00000013          	addi	x0,x0,0
    3b6c:	00000013          	addi	x0,x0,0
    3b70:	00000013          	addi	x0,x0,0
    3b74:	00000013          	addi	x0,x0,0
    3b78:	00000013          	addi	x0,x0,0
    3b7c:	00000013          	addi	x0,x0,0
    3b80:	0000b517          	auipc	x10,0xb
    3b84:	40850513          	addi	x10,x10,1032 # ef88 <ascii_buffer>
    3b88:	00000013          	addi	x0,x0,0
    3b8c:	00000013          	addi	x0,x0,0
    3b90:	00000013          	addi	x0,x0,0
    3b94:	00000013          	addi	x0,x0,0
    3b98:	00000013          	addi	x0,x0,0
    3b9c:	00000013          	addi	x0,x0,0
    3ba0:	0001c097          	auipc	x1,0x1c
    3ba4:	664080e7          	jalr	x1,1636(x1) # 20204 <rvmodel_io_write_str>
    3ba8:	00000013          	addi	x0,x0,0
    3bac:	00000013          	addi	x0,x0,0
    3bb0:	00000013          	addi	x0,x0,0
    3bb4:	00000013          	addi	x0,x0,0
    3bb8:	00000013          	addi	x0,x0,0
    3bbc:	00000013          	addi	x0,x0,0
    3bc0:	0000c517          	auipc	x10,0xc
    3bc4:	99550513          	addi	x10,x10,-1643 # f555 <addrstr>
    3bc8:	00000013          	addi	x0,x0,0
    3bcc:	00000013          	addi	x0,x0,0
    3bd0:	00000013          	addi	x0,x0,0
    3bd4:	00000013          	addi	x0,x0,0
    3bd8:	00000013          	addi	x0,x0,0
    3bdc:	00000013          	addi	x0,x0,0
    3be0:	0001c097          	auipc	x1,0x1c
    3be4:	624080e7          	jalr	x1,1572(x1) # 20204 <rvmodel_io_write_str>
    3be8:	0000b517          	auipc	x10,0xb
    3bec:	32052503          	lw	x10,800(x10) # ef08 <failing_addr>
    3bf0:	02000593          	addi	x11,x0,32
    3bf4:	264010ef          	jal	x1,4e58 <failedtest_hex_to_str>
    3bf8:	00000013          	addi	x0,x0,0
    3bfc:	00000013          	addi	x0,x0,0
    3c00:	0000b517          	auipc	x10,0xb
    3c04:	38850513          	addi	x10,x10,904 # ef88 <ascii_buffer>
    3c08:	00000013          	addi	x0,x0,0
    3c0c:	00000013          	addi	x0,x0,0
    3c10:	00000013          	addi	x0,x0,0
    3c14:	00000013          	addi	x0,x0,0
    3c18:	00000013          	addi	x0,x0,0
    3c1c:	00000013          	addi	x0,x0,0
    3c20:	0001c097          	auipc	x1,0x1c
    3c24:	5e4080e7          	jalr	x1,1508(x1) # 20204 <rvmodel_io_write_str>
    3c28:	00000013          	addi	x0,x0,0
    3c2c:	00000013          	addi	x0,x0,0
    3c30:	00000013          	addi	x0,x0,0
    3c34:	00000013          	addi	x0,x0,0
    3c38:	00000013          	addi	x0,x0,0
    3c3c:	00000013          	addi	x0,x0,0
    3c40:	0000c517          	auipc	x10,0xc
    3c44:	39250513          	addi	x10,x10,914 # ffd2 <regstr>
    3c48:	00000013          	addi	x0,x0,0
    3c4c:	00000013          	addi	x0,x0,0
    3c50:	00000013          	addi	x0,x0,0
    3c54:	00000013          	addi	x0,x0,0
    3c58:	00000013          	addi	x0,x0,0
    3c5c:	00000013          	addi	x0,x0,0
    3c60:	0001c097          	auipc	x1,0x1c
    3c64:	5a4080e7          	jalr	x1,1444(x1) # 20204 <rvmodel_io_write_str>
    3c68:	0000b517          	auipc	x10,0xb
    3c6c:	19852503          	lw	x10,408(x10) # ee00 <begin_failure_scratch>
    3c70:	00050663          	beq	x10,x0,3c7c <print_newline_str+0x1a4>
    3c74:	00300593          	addi	x11,x0,3
    3c78:	04b51063          	bne	x10,x11,3cb8 <failedtest_report_not_intreg>
    3c7c:	07800593          	addi	x11,x0,120
    3c80:	0000b617          	auipc	x12,0xb
    3c84:	30860613          	addi	x12,x12,776 # ef88 <ascii_buffer>
    3c88:	00000013          	addi	x0,x0,0
    3c8c:	00000013          	addi	x0,x0,0
    3c90:	00000013          	addi	x0,x0,0
    3c94:	00000013          	addi	x0,x0,0
    3c98:	00000013          	addi	x0,x0,0
    3c9c:	00000013          	addi	x0,x0,0
    3ca0:	00b60023          	sb	x11,0(x12)
    3ca4:	00160613          	addi	x12,x12,1
    3ca8:	0000b517          	auipc	x10,0xb
    3cac:	25c52503          	lw	x10,604(x10) # ef04 <failing_reg>
    3cb0:	224010ef          	jal	x1,4ed4 <failedtest_dec_to_str>
    3cb4:	0e00006f          	jal	x0,3d94 <failedtest_report_print_regstr>

00003cb8 <failedtest_report_not_intreg>:
    3cb8:	00100593          	addi	x11,x0,1
    3cbc:	04b50863          	beq	x10,x11,3d0c <failedtest_report_fpreg>
    3cc0:	00400593          	addi	x11,x0,4
    3cc4:	08b50a63          	beq	x10,x11,3d58 <failedtest_report_vecreg>
    3cc8:	00000013          	addi	x0,x0,0
    3ccc:	00000013          	addi	x0,x0,0
    3cd0:	00000013          	addi	x0,x0,0
    3cd4:	00000013          	addi	x0,x0,0
    3cd8:	00000013          	addi	x0,x0,0
    3cdc:	00000013          	addi	x0,x0,0
    3ce0:	0000c517          	auipc	x10,0xc
    3ce4:	35250513          	addi	x10,x10,850 # 10032 <fflagsstr>
    3ce8:	00000013          	addi	x0,x0,0
    3cec:	00000013          	addi	x0,x0,0
    3cf0:	00000013          	addi	x0,x0,0
    3cf4:	00000013          	addi	x0,x0,0
    3cf8:	00000013          	addi	x0,x0,0
    3cfc:	00000013          	addi	x0,x0,0
    3d00:	0001c097          	auipc	x1,0x1c
    3d04:	504080e7          	jalr	x1,1284(x1) # 20204 <rvmodel_io_write_str>
    3d08:	0c00006f          	jal	x0,3dc8 <failedtest_report_after_reg>

00003d0c <failedtest_report_fpreg>:
    3d0c:	06600593          	addi	x11,x0,102
    3d10:	00000013          	addi	x0,x0,0
    3d14:	00000013          	addi	x0,x0,0
    3d18:	00000013          	addi	x0,x0,0
    3d1c:	00000013          	addi	x0,x0,0
    3d20:	0000b617          	auipc	x12,0xb
    3d24:	26860613          	addi	x12,x12,616 # ef88 <ascii_buffer>
    3d28:	00000013          	addi	x0,x0,0
    3d2c:	00000013          	addi	x0,x0,0
    3d30:	00000013          	addi	x0,x0,0
    3d34:	00000013          	addi	x0,x0,0
    3d38:	00000013          	addi	x0,x0,0
    3d3c:	00000013          	addi	x0,x0,0
    3d40:	00b60023          	sb	x11,0(x12)
    3d44:	00160613          	addi	x12,x12,1
    3d48:	0000b517          	auipc	x10,0xb
    3d4c:	1bc52503          	lw	x10,444(x10) # ef04 <failing_reg>
    3d50:	184010ef          	jal	x1,4ed4 <failedtest_dec_to_str>
    3d54:	0400006f          	jal	x0,3d94 <failedtest_report_print_regstr>

00003d58 <failedtest_report_vecreg>:
    3d58:	07600593          	addi	x11,x0,118
    3d5c:	00000013          	addi	x0,x0,0
    3d60:	0000b617          	auipc	x12,0xb
    3d64:	22860613          	addi	x12,x12,552 # ef88 <ascii_buffer>
    3d68:	00000013          	addi	x0,x0,0
    3d6c:	00000013          	addi	x0,x0,0
    3d70:	00000013          	addi	x0,x0,0
    3d74:	00000013          	addi	x0,x0,0
    3d78:	00000013          	addi	x0,x0,0
    3d7c:	00000013          	addi	x0,x0,0
    3d80:	00b60023          	sb	x11,0(x12)
    3d84:	00160613          	addi	x12,x12,1
    3d88:	0000b517          	auipc	x10,0xb
    3d8c:	17c52503          	lw	x10,380(x10) # ef04 <failing_reg>
    3d90:	144010ef          	jal	x1,4ed4 <failedtest_dec_to_str>

00003d94 <failedtest_report_print_regstr>:
    3d94:	00000013          	addi	x0,x0,0
    3d98:	00000013          	addi	x0,x0,0
    3d9c:	00000013          	addi	x0,x0,0
    3da0:	0000b517          	auipc	x10,0xb
    3da4:	1e850513          	addi	x10,x10,488 # ef88 <ascii_buffer>
    3da8:	00000013          	addi	x0,x0,0
    3dac:	00000013          	addi	x0,x0,0
    3db0:	00000013          	addi	x0,x0,0
    3db4:	00000013          	addi	x0,x0,0
    3db8:	00000013          	addi	x0,x0,0
    3dbc:	00000013          	addi	x0,x0,0
    3dc0:	0001c097          	auipc	x1,0x1c
    3dc4:	444080e7          	jalr	x1,1092(x1) # 20204 <rvmodel_io_write_str>

00003dc8 <failedtest_report_after_reg>:
    3dc8:	00000013          	addi	x0,x0,0
    3dcc:	00000013          	addi	x0,x0,0
    3dd0:	00000013          	addi	x0,x0,0
    3dd4:	00000013          	addi	x0,x0,0
    3dd8:	00000013          	addi	x0,x0,0
    3ddc:	00000013          	addi	x0,x0,0
    3de0:	0000c517          	auipc	x10,0xc
    3de4:	20350513          	addi	x10,x10,515 # ffe3 <badvalstr>
    3de8:	00000013          	addi	x0,x0,0
    3dec:	00000013          	addi	x0,x0,0
    3df0:	00000013          	addi	x0,x0,0
    3df4:	00000013          	addi	x0,x0,0
    3df8:	00000013          	addi	x0,x0,0
    3dfc:	00000013          	addi	x0,x0,0
    3e00:	0001c097          	auipc	x1,0x1c
    3e04:	404080e7          	jalr	x1,1028(x1) # 20204 <rvmodel_io_write_str>
    3e08:	0000b517          	auipc	x10,0xb
    3e0c:	ff852503          	lw	x10,-8(x10) # ee00 <begin_failure_scratch>
    3e10:	00100593          	addi	x11,x0,1
    3e14:	00b51c63          	bne	x10,x11,3e2c <failedtest_report_badval_not_fp>
    3e18:	0000b517          	auipc	x10,0xb
    3e1c:	0f852503          	lw	x10,248(x10) # ef10 <failing_value>
    3e20:	02000593          	addi	x11,x0,32
    3e24:	034010ef          	jal	x1,4e58 <failedtest_hex_to_str>
    3e28:	0140006f          	jal	x0,3e3c <failedtest_report_badval_done>

00003e2c <failedtest_report_badval_not_fp>:
    3e2c:	0000b517          	auipc	x10,0xb
    3e30:	0e452503          	lw	x10,228(x10) # ef10 <failing_value>
    3e34:	02000593          	addi	x11,x0,32
    3e38:	020010ef          	jal	x1,4e58 <failedtest_hex_to_str>

00003e3c <failedtest_report_badval_done>:
    3e3c:	00000013          	addi	x0,x0,0
    3e40:	0000b517          	auipc	x10,0xb
    3e44:	14850513          	addi	x10,x10,328 # ef88 <ascii_buffer>
    3e48:	00000013          	addi	x0,x0,0
    3e4c:	00000013          	addi	x0,x0,0
    3e50:	00000013          	addi	x0,x0,0
    3e54:	00000013          	addi	x0,x0,0
    3e58:	00000013          	addi	x0,x0,0
    3e5c:	00000013          	addi	x0,x0,0
    3e60:	0001c097          	auipc	x1,0x1c
    3e64:	3a4080e7          	jalr	x1,932(x1) # 20204 <rvmodel_io_write_str>
    3e68:	00000013          	addi	x0,x0,0
    3e6c:	00000013          	addi	x0,x0,0
    3e70:	00000013          	addi	x0,x0,0
    3e74:	00000013          	addi	x0,x0,0
    3e78:	00000013          	addi	x0,x0,0
    3e7c:	00000013          	addi	x0,x0,0
    3e80:	0000c517          	auipc	x10,0xc
    3e84:	17a50513          	addi	x10,x10,378 # fffa <expvalstr>
    3e88:	00000013          	addi	x0,x0,0
    3e8c:	00000013          	addi	x0,x0,0
    3e90:	00000013          	addi	x0,x0,0
    3e94:	00000013          	addi	x0,x0,0
    3e98:	00000013          	addi	x0,x0,0
    3e9c:	00000013          	addi	x0,x0,0
    3ea0:	0001c097          	auipc	x1,0x1c
    3ea4:	364080e7          	jalr	x1,868(x1) # 20204 <rvmodel_io_write_str>
    3ea8:	0000b517          	auipc	x10,0xb
    3eac:	f5852503          	lw	x10,-168(x10) # ee00 <begin_failure_scratch>
    3eb0:	00100593          	addi	x11,x0,1
    3eb4:	00b51c63          	bne	x10,x11,3ecc <failedtest_report_expval_not_fp>
    3eb8:	0000b517          	auipc	x10,0xb
    3ebc:	06052503          	lw	x10,96(x10) # ef18 <expected_value>
    3ec0:	02000593          	addi	x11,x0,32
    3ec4:	795000ef          	jal	x1,4e58 <failedtest_hex_to_str>
    3ec8:	0140006f          	jal	x0,3edc <failedtest_report_expval_done>

00003ecc <failedtest_report_expval_not_fp>:
    3ecc:	0000b517          	auipc	x10,0xb
    3ed0:	04c52503          	lw	x10,76(x10) # ef18 <expected_value>
    3ed4:	02000593          	addi	x11,x0,32
    3ed8:	781000ef          	jal	x1,4e58 <failedtest_hex_to_str>

00003edc <failedtest_report_expval_done>:
    3edc:	00000013          	addi	x0,x0,0
    3ee0:	0000b517          	auipc	x10,0xb
    3ee4:	0a850513          	addi	x10,x10,168 # ef88 <ascii_buffer>
    3ee8:	00000013          	addi	x0,x0,0
    3eec:	00000013          	addi	x0,x0,0
    3ef0:	00000013          	addi	x0,x0,0
    3ef4:	00000013          	addi	x0,x0,0
    3ef8:	00000013          	addi	x0,x0,0
    3efc:	00000013          	addi	x0,x0,0
    3f00:	0001c097          	auipc	x1,0x1c
    3f04:	304080e7          	jalr	x1,772(x1) # 20204 <rvmodel_io_write_str>
    3f08:	4fd0006f          	jal	x0,4c04 <failedtest_report_end>

00003f0c <failedtest_report_trap_detailed>:
    3f0c:	00000013          	addi	x0,x0,0
    3f10:	00000013          	addi	x0,x0,0
    3f14:	00000013          	addi	x0,x0,0
    3f18:	00000013          	addi	x0,x0,0
    3f1c:	00000013          	addi	x0,x0,0
    3f20:	0000c517          	auipc	x10,0xc
    3f24:	13e50513          	addi	x10,x10,318 # 1005e <trap_diag_header_str>
    3f28:	00000013          	addi	x0,x0,0
    3f2c:	00000013          	addi	x0,x0,0
    3f30:	00000013          	addi	x0,x0,0
    3f34:	00000013          	addi	x0,x0,0
    3f38:	00000013          	addi	x0,x0,0
    3f3c:	00000013          	addi	x0,x0,0
    3f40:	0001c097          	auipc	x1,0x1c
    3f44:	2c4080e7          	jalr	x1,708(x1) # 20204 <rvmodel_io_write_str>
    3f48:	00000013          	addi	x0,x0,0
    3f4c:	00000013          	addi	x0,x0,0
    3f50:	00000013          	addi	x0,x0,0
    3f54:	00000013          	addi	x0,x0,0
    3f58:	00000013          	addi	x0,x0,0
    3f5c:	00000013          	addi	x0,x0,0
    3f60:	0000c517          	auipc	x10,0xc
    3f64:	12a50513          	addi	x10,x10,298 # 1008a <trap_diag_origstr_label>
    3f68:	00000013          	addi	x0,x0,0
    3f6c:	00000013          	addi	x0,x0,0
    3f70:	00000013          	addi	x0,x0,0
    3f74:	00000013          	addi	x0,x0,0
    3f78:	00000013          	addi	x0,x0,0
    3f7c:	00000013          	addi	x0,x0,0
    3f80:	0001c097          	auipc	x1,0x1c
    3f84:	284080e7          	jalr	x1,644(x1) # 20204 <rvmodel_io_write_str>
    3f88:	0000b817          	auipc	x16,0xb
    3f8c:	fd080813          	addi	x16,x16,-48 # ef58 <trap_diag_fail_str_ptr>
    3f90:	00082503          	lw	x10,0(x16)
    3f94:	0001c097          	auipc	x1,0x1c
    3f98:	270080e7          	jalr	x1,624(x1) # 20204 <rvmodel_io_write_str>
    3f9c:	00000013          	addi	x0,x0,0
    3fa0:	0000b517          	auipc	x10,0xb
    3fa4:	59f50513          	addi	x10,x10,1439 # f53f <newlinestr>
    3fa8:	00000013          	addi	x0,x0,0
    3fac:	00000013          	addi	x0,x0,0
    3fb0:	00000013          	addi	x0,x0,0
    3fb4:	00000013          	addi	x0,x0,0
    3fb8:	00000013          	addi	x0,x0,0
    3fbc:	00000013          	addi	x0,x0,0
    3fc0:	0001c097          	auipc	x1,0x1c
    3fc4:	244080e7          	jalr	x1,580(x1) # 20204 <rvmodel_io_write_str>
    3fc8:	0000b417          	auipc	x8,0xb
    3fcc:	f6842403          	lw	x8,-152(x8) # ef30 <trap_diag_subtype>
    3fd0:	00900493          	addi	x9,x0,9
    3fd4:	00940663          	beq	x8,x9,3fe0 <trap_report_offset_mismatch>
    3fd8:	2a040ce3          	beq	x8,x0,4a90 <trap_report_generic>
    3fdc:	3780006f          	jal	x0,4354 <trap_report_field_mismatch>

00003fe0 <trap_report_offset_mismatch>:
    3fe0:	0000c517          	auipc	x10,0xc
    3fe4:	0ba50513          	addi	x10,x10,186 # 1009a <trap_diag_count_mismatch_str>
    3fe8:	00000013          	addi	x0,x0,0
    3fec:	00000013          	addi	x0,x0,0
    3ff0:	00000013          	addi	x0,x0,0
    3ff4:	00000013          	addi	x0,x0,0
    3ff8:	00000013          	addi	x0,x0,0
    3ffc:	00000013          	addi	x0,x0,0
    4000:	0001c097          	auipc	x1,0x1c
    4004:	204080e7          	jalr	x1,516(x1) # 20204 <rvmodel_io_write_str>
    4008:	00000013          	addi	x0,x0,0
    400c:	00000013          	addi	x0,x0,0
    4010:	00000013          	addi	x0,x0,0
    4014:	00000013          	addi	x0,x0,0
    4018:	00000013          	addi	x0,x0,0
    401c:	00000013          	addi	x0,x0,0
    4020:	0000c517          	auipc	x10,0xc
    4024:	0db50513          	addi	x10,x10,219 # 100fb <trap_diag_expected_offset_str>
    4028:	00000013          	addi	x0,x0,0
    402c:	00000013          	addi	x0,x0,0
    4030:	00000013          	addi	x0,x0,0
    4034:	00000013          	addi	x0,x0,0
    4038:	00000013          	addi	x0,x0,0
    403c:	00000013          	addi	x0,x0,0
    4040:	0001c097          	auipc	x1,0x1c
    4044:	1c4080e7          	jalr	x1,452(x1) # 20204 <rvmodel_io_write_str>
    4048:	0000b517          	auipc	x10,0xb
    404c:	f0852503          	lw	x10,-248(x10) # ef50 <trap_diag_expected_offset>
    4050:	02000593          	addi	x11,x0,32
    4054:	605000ef          	jal	x1,4e58 <failedtest_hex_to_str>
    4058:	00000013          	addi	x0,x0,0
    405c:	00000013          	addi	x0,x0,0
    4060:	0000b517          	auipc	x10,0xb
    4064:	f2850513          	addi	x10,x10,-216 # ef88 <ascii_buffer>
    4068:	00000013          	addi	x0,x0,0
    406c:	00000013          	addi	x0,x0,0
    4070:	00000013          	addi	x0,x0,0
    4074:	00000013          	addi	x0,x0,0
    4078:	00000013          	addi	x0,x0,0
    407c:	00000013          	addi	x0,x0,0
    4080:	0001c097          	auipc	x1,0x1c
    4084:	184080e7          	jalr	x1,388(x1) # 20204 <rvmodel_io_write_str>
    4088:	00000013          	addi	x0,x0,0
    408c:	00000013          	addi	x0,x0,0
    4090:	00000013          	addi	x0,x0,0
    4094:	00000013          	addi	x0,x0,0
    4098:	00000013          	addi	x0,x0,0
    409c:	00000013          	addi	x0,x0,0
    40a0:	0000c517          	auipc	x10,0xc
    40a4:	08250513          	addi	x10,x10,130 # 10122 <trap_diag_actual_offset_str>
    40a8:	00000013          	addi	x0,x0,0
    40ac:	00000013          	addi	x0,x0,0
    40b0:	00000013          	addi	x0,x0,0
    40b4:	00000013          	addi	x0,x0,0
    40b8:	00000013          	addi	x0,x0,0
    40bc:	00000013          	addi	x0,x0,0
    40c0:	0001c097          	auipc	x1,0x1c
    40c4:	144080e7          	jalr	x1,324(x1) # 20204 <rvmodel_io_write_str>
    40c8:	0000b517          	auipc	x10,0xb
    40cc:	e8052503          	lw	x10,-384(x10) # ef48 <trap_diag_actual_offset>
    40d0:	02000593          	addi	x11,x0,32
    40d4:	585000ef          	jal	x1,4e58 <failedtest_hex_to_str>
    40d8:	00000013          	addi	x0,x0,0
    40dc:	00000013          	addi	x0,x0,0
    40e0:	0000b517          	auipc	x10,0xb
    40e4:	ea850513          	addi	x10,x10,-344 # ef88 <ascii_buffer>
    40e8:	00000013          	addi	x0,x0,0
    40ec:	00000013          	addi	x0,x0,0
    40f0:	00000013          	addi	x0,x0,0
    40f4:	00000013          	addi	x0,x0,0
    40f8:	00000013          	addi	x0,x0,0
    40fc:	00000013          	addi	x0,x0,0
    4100:	0001c097          	auipc	x1,0x1c
    4104:	104080e7          	jalr	x1,260(x1) # 20204 <rvmodel_io_write_str>
    4108:	0000b317          	auipc	x6,0xb
    410c:	e4032303          	lw	x6,-448(x6) # ef48 <trap_diag_actual_offset>
    4110:	0000b397          	auipc	x7,0xb
    4114:	e403a383          	lw	x7,-448(x7) # ef50 <trap_diag_expected_offset>
    4118:	10734e63          	blt	x6,x7,4234 <trap_report_missing_traps>

0000411c <trap_report_extra_traps>:
    411c:	00000013          	addi	x0,x0,0
    4120:	0000c517          	auipc	x10,0xc
    4124:	02950513          	addi	x10,x10,41 # 10149 <trap_diag_extra_traps_str>
    4128:	00000013          	addi	x0,x0,0
    412c:	00000013          	addi	x0,x0,0
    4130:	00000013          	addi	x0,x0,0
    4134:	00000013          	addi	x0,x0,0
    4138:	00000013          	addi	x0,x0,0
    413c:	00000013          	addi	x0,x0,0
    4140:	0001c097          	auipc	x1,0x1c
    4144:	0c4080e7          	jalr	x1,196(x1) # 20204 <rvmodel_io_write_str>
    4148:	0000b317          	auipc	x6,0xb
    414c:	e0032303          	lw	x6,-512(x6) # ef48 <trap_diag_actual_offset>
    4150:	0000b397          	auipc	x7,0xb
    4154:	e003a383          	lw	x7,-512(x7) # ef50 <trap_diag_expected_offset>
    4158:	40730333          	sub	x6,x6,x7
    415c:	00235313          	srli	x6,x6,0x2
    4160:	0000c517          	auipc	x10,0xc
    4164:	06e50513          	addi	x10,x10,110 # 101ce <trap_diag_extra_bytes_str>
    4168:	00000013          	addi	x0,x0,0
    416c:	00000013          	addi	x0,x0,0
    4170:	00000013          	addi	x0,x0,0
    4174:	00000013          	addi	x0,x0,0
    4178:	00000013          	addi	x0,x0,0
    417c:	00000013          	addi	x0,x0,0
    4180:	0001c097          	auipc	x1,0x1c
    4184:	084080e7          	jalr	x1,132(x1) # 20204 <rvmodel_io_write_str>
    4188:	0000b317          	auipc	x6,0xb
    418c:	dc032303          	lw	x6,-576(x6) # ef48 <trap_diag_actual_offset>
    4190:	0000b397          	auipc	x7,0xb
    4194:	dc03a383          	lw	x7,-576(x7) # ef50 <trap_diag_expected_offset>
    4198:	40730533          	sub	x10,x6,x7
    419c:	02000593          	addi	x11,x0,32
    41a0:	4b9000ef          	jal	x1,4e58 <failedtest_hex_to_str>
    41a4:	00000013          	addi	x0,x0,0
    41a8:	00000013          	addi	x0,x0,0
    41ac:	00000013          	addi	x0,x0,0
    41b0:	00000013          	addi	x0,x0,0
    41b4:	00000013          	addi	x0,x0,0
    41b8:	00000013          	addi	x0,x0,0
    41bc:	00000013          	addi	x0,x0,0
    41c0:	0000b517          	auipc	x10,0xb
    41c4:	dc850513          	addi	x10,x10,-568 # ef88 <ascii_buffer>
    41c8:	00000013          	addi	x0,x0,0
    41cc:	00000013          	addi	x0,x0,0
    41d0:	00000013          	addi	x0,x0,0
    41d4:	00000013          	addi	x0,x0,0
    41d8:	00000013          	addi	x0,x0,0
    41dc:	00000013          	addi	x0,x0,0
    41e0:	0001c097          	auipc	x1,0x1c
    41e4:	024080e7          	jalr	x1,36(x1) # 20204 <rvmodel_io_write_str>
    41e8:	00000013          	addi	x0,x0,0
    41ec:	00000013          	addi	x0,x0,0
    41f0:	00000013          	addi	x0,x0,0
    41f4:	00000013          	addi	x0,x0,0
    41f8:	00000013          	addi	x0,x0,0
    41fc:	00000013          	addi	x0,x0,0
    4200:	0000c517          	auipc	x10,0xc
    4204:	ff950513          	addi	x10,x10,-7 # 101f9 <trap_diag_extra_hint_str>
    4208:	00000013          	addi	x0,x0,0
    420c:	00000013          	addi	x0,x0,0
    4210:	00000013          	addi	x0,x0,0
    4214:	00000013          	addi	x0,x0,0
    4218:	00000013          	addi	x0,x0,0
    421c:	00000013          	addi	x0,x0,0
    4220:	0001c097          	auipc	x1,0x1c
    4224:	fe4080e7          	jalr	x1,-28(x1) # 20204 <rvmodel_io_write_str>
    4228:	00001097          	auipc	x1,0x1
    422c:	a28080e7          	jalr	x1,-1496(x1) # 4c50 <failedtest_print_csr_context>
    4230:	1d50006f          	jal	x0,4c04 <failedtest_report_end>

00004234 <trap_report_missing_traps>:
    4234:	00000013          	addi	x0,x0,0
    4238:	00000013          	addi	x0,x0,0
    423c:	00000013          	addi	x0,x0,0
    4240:	0000c517          	auipc	x10,0xc
    4244:	f4350513          	addi	x10,x10,-189 # 10183 <trap_diag_missing_traps_str>
    4248:	00000013          	addi	x0,x0,0
    424c:	00000013          	addi	x0,x0,0
    4250:	00000013          	addi	x0,x0,0
    4254:	00000013          	addi	x0,x0,0
    4258:	00000013          	addi	x0,x0,0
    425c:	00000013          	addi	x0,x0,0
    4260:	0001c097          	auipc	x1,0x1c
    4264:	fa4080e7          	jalr	x1,-92(x1) # 20204 <rvmodel_io_write_str>
    4268:	00000013          	addi	x0,x0,0
    426c:	00000013          	addi	x0,x0,0
    4270:	00000013          	addi	x0,x0,0
    4274:	00000013          	addi	x0,x0,0
    4278:	00000013          	addi	x0,x0,0
    427c:	00000013          	addi	x0,x0,0
    4280:	0000c517          	auipc	x10,0xc
    4284:	f4e50513          	addi	x10,x10,-178 # 101ce <trap_diag_extra_bytes_str>
    4288:	00000013          	addi	x0,x0,0
    428c:	00000013          	addi	x0,x0,0
    4290:	00000013          	addi	x0,x0,0
    4294:	00000013          	addi	x0,x0,0
    4298:	00000013          	addi	x0,x0,0
    429c:	00000013          	addi	x0,x0,0
    42a0:	0001c097          	auipc	x1,0x1c
    42a4:	f64080e7          	jalr	x1,-156(x1) # 20204 <rvmodel_io_write_str>
    42a8:	0000b317          	auipc	x6,0xb
    42ac:	ca832303          	lw	x6,-856(x6) # ef50 <trap_diag_expected_offset>
    42b0:	0000b397          	auipc	x7,0xb
    42b4:	c983a383          	lw	x7,-872(x7) # ef48 <trap_diag_actual_offset>
    42b8:	40730533          	sub	x10,x6,x7
    42bc:	02000593          	addi	x11,x0,32
    42c0:	399000ef          	jal	x1,4e58 <failedtest_hex_to_str>
    42c4:	00000013          	addi	x0,x0,0
    42c8:	00000013          	addi	x0,x0,0
    42cc:	00000013          	addi	x0,x0,0
    42d0:	00000013          	addi	x0,x0,0
    42d4:	00000013          	addi	x0,x0,0
    42d8:	00000013          	addi	x0,x0,0
    42dc:	00000013          	addi	x0,x0,0
    42e0:	0000b517          	auipc	x10,0xb
    42e4:	ca850513          	addi	x10,x10,-856 # ef88 <ascii_buffer>
    42e8:	00000013          	addi	x0,x0,0
    42ec:	00000013          	addi	x0,x0,0
    42f0:	00000013          	addi	x0,x0,0
    42f4:	00000013          	addi	x0,x0,0
    42f8:	00000013          	addi	x0,x0,0
    42fc:	00000013          	addi	x0,x0,0
    4300:	0001c097          	auipc	x1,0x1c
    4304:	f04080e7          	jalr	x1,-252(x1) # 20204 <rvmodel_io_write_str>
    4308:	00000013          	addi	x0,x0,0
    430c:	00000013          	addi	x0,x0,0
    4310:	00000013          	addi	x0,x0,0
    4314:	00000013          	addi	x0,x0,0
    4318:	00000013          	addi	x0,x0,0
    431c:	00000013          	addi	x0,x0,0
    4320:	0000c517          	auipc	x10,0xc
    4324:	fc150513          	addi	x10,x10,-63 # 102e1 <trap_diag_missing_hint_str>
    4328:	00000013          	addi	x0,x0,0
    432c:	00000013          	addi	x0,x0,0
    4330:	00000013          	addi	x0,x0,0
    4334:	00000013          	addi	x0,x0,0
    4338:	00000013          	addi	x0,x0,0
    433c:	00000013          	addi	x0,x0,0
    4340:	0001c097          	auipc	x1,0x1c
    4344:	ec4080e7          	jalr	x1,-316(x1) # 20204 <rvmodel_io_write_str>
    4348:	00001097          	auipc	x1,0x1
    434c:	908080e7          	jalr	x1,-1784(x1) # 4c50 <failedtest_print_csr_context>
    4350:	0b50006f          	jal	x0,4c04 <failedtest_report_end>

00004354 <trap_report_field_mismatch>:
    4354:	00000013          	addi	x0,x0,0
    4358:	00000013          	addi	x0,x0,0
    435c:	00000013          	addi	x0,x0,0
    4360:	0000c517          	auipc	x10,0xc
    4364:	06850513          	addi	x10,x10,104 # 103c8 <trap_diag_handler_mode_str>
    4368:	00000013          	addi	x0,x0,0
    436c:	00000013          	addi	x0,x0,0
    4370:	00000013          	addi	x0,x0,0
    4374:	00000013          	addi	x0,x0,0
    4378:	00000013          	addi	x0,x0,0
    437c:	00000013          	addi	x0,x0,0
    4380:	0001c097          	auipc	x1,0x1c
    4384:	e84080e7          	jalr	x1,-380(x1) # 20204 <rvmodel_io_write_str>
    4388:	0000b517          	auipc	x10,0xb
    438c:	bac52503          	lw	x10,-1108(x10) # ef34 <trap_diag_mode>
    4390:	04050a63          	beq	x10,x0,43e4 <trap_mode_m>
    4394:	00100593          	addi	x11,x0,1
    4398:	08b50663          	beq	x10,x11,4424 <trap_mode_s>
    439c:	00200593          	addi	x11,x0,2
    43a0:	0cb50263          	beq	x10,x11,4464 <trap_mode_h>
    43a4:	00300593          	addi	x11,x0,3
    43a8:	0eb50e63          	beq	x10,x11,44a4 <trap_mode_v>
    43ac:	00000013          	addi	x0,x0,0
    43b0:	00000013          	addi	x0,x0,0
    43b4:	00000013          	addi	x0,x0,0
    43b8:	00000013          	addi	x0,x0,0
    43bc:	00000013          	addi	x0,x0,0
    43c0:	0000c517          	auipc	x10,0xc
    43c4:	04450513          	addi	x10,x10,68 # 10404 <trap_diag_mode_unknown_str>
    43c8:	00000013          	addi	x0,x0,0
    43cc:	00000013          	addi	x0,x0,0
    43d0:	00000013          	addi	x0,x0,0
    43d4:	00000013          	addi	x0,x0,0
    43d8:	00000013          	addi	x0,x0,0
    43dc:	00000013          	addi	x0,x0,0
    43e0:	1000006f          	jal	x0,44e0 <trap_mode_print>

000043e4 <trap_mode_m>:
    43e4:	00000013          	addi	x0,x0,0
    43e8:	00000013          	addi	x0,x0,0
    43ec:	00000013          	addi	x0,x0,0
    43f0:	00000013          	addi	x0,x0,0
    43f4:	00000013          	addi	x0,x0,0
    43f8:	00000013          	addi	x0,x0,0
    43fc:	00000013          	addi	x0,x0,0
    4400:	0000c517          	auipc	x10,0xc
    4404:	fe250513          	addi	x10,x10,-30 # 103e2 <trap_diag_mode_m_str>
    4408:	00000013          	addi	x0,x0,0
    440c:	00000013          	addi	x0,x0,0
    4410:	00000013          	addi	x0,x0,0
    4414:	00000013          	addi	x0,x0,0
    4418:	00000013          	addi	x0,x0,0
    441c:	00000013          	addi	x0,x0,0
    4420:	0c00006f          	jal	x0,44e0 <trap_mode_print>

00004424 <trap_mode_s>:
    4424:	00000013          	addi	x0,x0,0
    4428:	00000013          	addi	x0,x0,0
    442c:	00000013          	addi	x0,x0,0
    4430:	00000013          	addi	x0,x0,0
    4434:	00000013          	addi	x0,x0,0
    4438:	00000013          	addi	x0,x0,0
    443c:	00000013          	addi	x0,x0,0
    4440:	0000c517          	auipc	x10,0xc
    4444:	faa50513          	addi	x10,x10,-86 # 103ea <trap_diag_mode_s_str>
    4448:	00000013          	addi	x0,x0,0
    444c:	00000013          	addi	x0,x0,0
    4450:	00000013          	addi	x0,x0,0
    4454:	00000013          	addi	x0,x0,0
    4458:	00000013          	addi	x0,x0,0
    445c:	00000013          	addi	x0,x0,0
    4460:	0800006f          	jal	x0,44e0 <trap_mode_print>

00004464 <trap_mode_h>:
    4464:	00000013          	addi	x0,x0,0
    4468:	00000013          	addi	x0,x0,0
    446c:	00000013          	addi	x0,x0,0
    4470:	00000013          	addi	x0,x0,0
    4474:	00000013          	addi	x0,x0,0
    4478:	00000013          	addi	x0,x0,0
    447c:	00000013          	addi	x0,x0,0
    4480:	0000c517          	auipc	x10,0xc
    4484:	f7250513          	addi	x10,x10,-142 # 103f2 <trap_diag_mode_hs_str>
    4488:	00000013          	addi	x0,x0,0
    448c:	00000013          	addi	x0,x0,0
    4490:	00000013          	addi	x0,x0,0
    4494:	00000013          	addi	x0,x0,0
    4498:	00000013          	addi	x0,x0,0
    449c:	00000013          	addi	x0,x0,0
    44a0:	0400006f          	jal	x0,44e0 <trap_mode_print>

000044a4 <trap_mode_v>:
    44a4:	00000013          	addi	x0,x0,0
    44a8:	00000013          	addi	x0,x0,0
    44ac:	00000013          	addi	x0,x0,0
    44b0:	00000013          	addi	x0,x0,0
    44b4:	00000013          	addi	x0,x0,0
    44b8:	00000013          	addi	x0,x0,0
    44bc:	00000013          	addi	x0,x0,0
    44c0:	0000c517          	auipc	x10,0xc
    44c4:	f3b50513          	addi	x10,x10,-197 # 103fb <trap_diag_mode_vs_str>
    44c8:	00000013          	addi	x0,x0,0
    44cc:	00000013          	addi	x0,x0,0
    44d0:	00000013          	addi	x0,x0,0
    44d4:	00000013          	addi	x0,x0,0
    44d8:	00000013          	addi	x0,x0,0
    44dc:	00000013          	addi	x0,x0,0

000044e0 <trap_mode_print>:
    44e0:	0001c097          	auipc	x1,0x1c
    44e4:	d24080e7          	jalr	x1,-732(x1) # 20204 <rvmodel_io_write_str>
    44e8:	00000013          	addi	x0,x0,0
    44ec:	00000013          	addi	x0,x0,0
    44f0:	00000013          	addi	x0,x0,0
    44f4:	00000013          	addi	x0,x0,0
    44f8:	00000013          	addi	x0,x0,0
    44fc:	00000013          	addi	x0,x0,0
    4500:	0000c517          	auipc	x10,0xc
    4504:	f0d50513          	addi	x10,x10,-243 # 1040d <trap_diag_field_str>
    4508:	00000013          	addi	x0,x0,0
    450c:	00000013          	addi	x0,x0,0
    4510:	00000013          	addi	x0,x0,0
    4514:	00000013          	addi	x0,x0,0
    4518:	00000013          	addi	x0,x0,0
    451c:	00000013          	addi	x0,x0,0
    4520:	0001c097          	auipc	x1,0x1c
    4524:	ce4080e7          	jalr	x1,-796(x1) # 20204 <rvmodel_io_write_str>
    4528:	0000b517          	auipc	x10,0xb
    452c:	a0852503          	lw	x10,-1528(x10) # ef30 <trap_diag_subtype>
    4530:	00100593          	addi	x11,x0,1
    4534:	06b50863          	beq	x10,x11,45a4 <trap_field_vect>
    4538:	00200593          	addi	x11,x0,2
    453c:	0ab50463          	beq	x10,x11,45e4 <trap_field_cause>
    4540:	00300593          	addi	x11,x0,3
    4544:	0eb50063          	beq	x10,x11,4624 <trap_field_epc>
    4548:	00400593          	addi	x11,x0,4
    454c:	10b50c63          	beq	x10,x11,4664 <trap_field_tval>
    4550:	00500593          	addi	x11,x0,5
    4554:	14b50863          	beq	x10,x11,46a4 <trap_field_ip>
    4558:	00600593          	addi	x11,x0,6
    455c:	18b50463          	beq	x10,x11,46e4 <trap_field_tval2>
    4560:	00700593          	addi	x11,x0,7
    4564:	1cb50063          	beq	x10,x11,4724 <trap_field_tinst>
    4568:	00800593          	addi	x11,x0,8
    456c:	1eb50c63          	beq	x10,x11,4764 <trap_field_intid>
    4570:	00000013          	addi	x0,x0,0
    4574:	00000013          	addi	x0,x0,0
    4578:	00000013          	addi	x0,x0,0
    457c:	00000013          	addi	x0,x0,0
    4580:	0000c517          	auipc	x10,0xc
    4584:	fe450513          	addi	x10,x10,-28 # 10564 <trap_diag_field_unknown_str>
    4588:	00000013          	addi	x0,x0,0
    458c:	00000013          	addi	x0,x0,0
    4590:	00000013          	addi	x0,x0,0
    4594:	00000013          	addi	x0,x0,0
    4598:	00000013          	addi	x0,x0,0
    459c:	00000013          	addi	x0,x0,0
    45a0:	2000006f          	jal	x0,47a0 <trap_field_print>

000045a4 <trap_field_vect>:
    45a4:	00000013          	addi	x0,x0,0
    45a8:	00000013          	addi	x0,x0,0
    45ac:	00000013          	addi	x0,x0,0
    45b0:	00000013          	addi	x0,x0,0
    45b4:	00000013          	addi	x0,x0,0
    45b8:	00000013          	addi	x0,x0,0
    45bc:	00000013          	addi	x0,x0,0
    45c0:	0000c517          	auipc	x10,0xc
    45c4:	e6750513          	addi	x10,x10,-409 # 10427 <trap_diag_field_vect_str>
    45c8:	00000013          	addi	x0,x0,0
    45cc:	00000013          	addi	x0,x0,0
    45d0:	00000013          	addi	x0,x0,0
    45d4:	00000013          	addi	x0,x0,0
    45d8:	00000013          	addi	x0,x0,0
    45dc:	00000013          	addi	x0,x0,0
    45e0:	1c00006f          	jal	x0,47a0 <trap_field_print>

000045e4 <trap_field_cause>:
    45e4:	00000013          	addi	x0,x0,0
    45e8:	00000013          	addi	x0,x0,0
    45ec:	00000013          	addi	x0,x0,0
    45f0:	00000013          	addi	x0,x0,0
    45f4:	00000013          	addi	x0,x0,0
    45f8:	00000013          	addi	x0,x0,0
    45fc:	00000013          	addi	x0,x0,0
    4600:	0000c517          	auipc	x10,0xc
    4604:	e5850513          	addi	x10,x10,-424 # 10458 <trap_diag_field_cause_str>
    4608:	00000013          	addi	x0,x0,0
    460c:	00000013          	addi	x0,x0,0
    4610:	00000013          	addi	x0,x0,0
    4614:	00000013          	addi	x0,x0,0
    4618:	00000013          	addi	x0,x0,0
    461c:	00000013          	addi	x0,x0,0
    4620:	1800006f          	jal	x0,47a0 <trap_field_print>

00004624 <trap_field_epc>:
    4624:	00000013          	addi	x0,x0,0
    4628:	00000013          	addi	x0,x0,0
    462c:	00000013          	addi	x0,x0,0
    4630:	00000013          	addi	x0,x0,0
    4634:	00000013          	addi	x0,x0,0
    4638:	00000013          	addi	x0,x0,0
    463c:	00000013          	addi	x0,x0,0
    4640:	0000c517          	auipc	x10,0xc
    4644:	e3850513          	addi	x10,x10,-456 # 10478 <trap_diag_field_epc_str>
    4648:	00000013          	addi	x0,x0,0
    464c:	00000013          	addi	x0,x0,0
    4650:	00000013          	addi	x0,x0,0
    4654:	00000013          	addi	x0,x0,0
    4658:	00000013          	addi	x0,x0,0
    465c:	00000013          	addi	x0,x0,0
    4660:	1400006f          	jal	x0,47a0 <trap_field_print>

00004664 <trap_field_tval>:
    4664:	00000013          	addi	x0,x0,0
    4668:	00000013          	addi	x0,x0,0
    466c:	00000013          	addi	x0,x0,0
    4670:	00000013          	addi	x0,x0,0
    4674:	00000013          	addi	x0,x0,0
    4678:	00000013          	addi	x0,x0,0
    467c:	00000013          	addi	x0,x0,0
    4680:	0000c517          	auipc	x10,0xc
    4684:	e1650513          	addi	x10,x10,-490 # 10496 <trap_diag_field_tval_str>
    4688:	00000013          	addi	x0,x0,0
    468c:	00000013          	addi	x0,x0,0
    4690:	00000013          	addi	x0,x0,0
    4694:	00000013          	addi	x0,x0,0
    4698:	00000013          	addi	x0,x0,0
    469c:	00000013          	addi	x0,x0,0
    46a0:	1000006f          	jal	x0,47a0 <trap_field_print>

000046a4 <trap_field_ip>:
    46a4:	00000013          	addi	x0,x0,0
    46a8:	00000013          	addi	x0,x0,0
    46ac:	00000013          	addi	x0,x0,0
    46b0:	00000013          	addi	x0,x0,0
    46b4:	00000013          	addi	x0,x0,0
    46b8:	00000013          	addi	x0,x0,0
    46bc:	00000013          	addi	x0,x0,0
    46c0:	0000c517          	auipc	x10,0xc
    46c4:	df550513          	addi	x10,x10,-523 # 104b5 <trap_diag_field_ip_str>
    46c8:	00000013          	addi	x0,x0,0
    46cc:	00000013          	addi	x0,x0,0
    46d0:	00000013          	addi	x0,x0,0
    46d4:	00000013          	addi	x0,x0,0
    46d8:	00000013          	addi	x0,x0,0
    46dc:	00000013          	addi	x0,x0,0
    46e0:	0c00006f          	jal	x0,47a0 <trap_field_print>

000046e4 <trap_field_tval2>:
    46e4:	00000013          	addi	x0,x0,0
    46e8:	00000013          	addi	x0,x0,0
    46ec:	00000013          	addi	x0,x0,0
    46f0:	00000013          	addi	x0,x0,0
    46f4:	00000013          	addi	x0,x0,0
    46f8:	00000013          	addi	x0,x0,0
    46fc:	00000013          	addi	x0,x0,0
    4700:	0000c517          	auipc	x10,0xc
    4704:	ddd50513          	addi	x10,x10,-547 # 104dd <trap_diag_field_tval2_str>
    4708:	00000013          	addi	x0,x0,0
    470c:	00000013          	addi	x0,x0,0
    4710:	00000013          	addi	x0,x0,0
    4714:	00000013          	addi	x0,x0,0
    4718:	00000013          	addi	x0,x0,0
    471c:	00000013          	addi	x0,x0,0
    4720:	0800006f          	jal	x0,47a0 <trap_field_print>

00004724 <trap_field_tinst>:
    4724:	00000013          	addi	x0,x0,0
    4728:	00000013          	addi	x0,x0,0
    472c:	00000013          	addi	x0,x0,0
    4730:	00000013          	addi	x0,x0,0
    4734:	00000013          	addi	x0,x0,0
    4738:	00000013          	addi	x0,x0,0
    473c:	00000013          	addi	x0,x0,0
    4740:	0000c517          	auipc	x10,0xc
    4744:	dc950513          	addi	x10,x10,-567 # 10509 <trap_diag_field_tinst_str>
    4748:	00000013          	addi	x0,x0,0
    474c:	00000013          	addi	x0,x0,0
    4750:	00000013          	addi	x0,x0,0
    4754:	00000013          	addi	x0,x0,0
    4758:	00000013          	addi	x0,x0,0
    475c:	00000013          	addi	x0,x0,0
    4760:	0400006f          	jal	x0,47a0 <trap_field_print>

00004764 <trap_field_intid>:
    4764:	00000013          	addi	x0,x0,0
    4768:	00000013          	addi	x0,x0,0
    476c:	00000013          	addi	x0,x0,0
    4770:	00000013          	addi	x0,x0,0
    4774:	00000013          	addi	x0,x0,0
    4778:	00000013          	addi	x0,x0,0
    477c:	00000013          	addi	x0,x0,0
    4780:	0000c517          	auipc	x10,0xc
    4784:	db550513          	addi	x10,x10,-587 # 10535 <trap_diag_field_intid_str>
    4788:	00000013          	addi	x0,x0,0
    478c:	00000013          	addi	x0,x0,0
    4790:	00000013          	addi	x0,x0,0
    4794:	00000013          	addi	x0,x0,0
    4798:	00000013          	addi	x0,x0,0
    479c:	00000013          	addi	x0,x0,0

000047a0 <trap_field_print>:
    47a0:	0001c097          	auipc	x1,0x1c
    47a4:	a64080e7          	jalr	x1,-1436(x1) # 20204 <rvmodel_io_write_str>
    47a8:	00000013          	addi	x0,x0,0
    47ac:	00000013          	addi	x0,x0,0
    47b0:	00000013          	addi	x0,x0,0
    47b4:	00000013          	addi	x0,x0,0
    47b8:	00000013          	addi	x0,x0,0
    47bc:	00000013          	addi	x0,x0,0
    47c0:	0000c517          	auipc	x10,0xc
    47c4:	db350513          	addi	x10,x10,-589 # 10573 <trap_diag_expected_str>
    47c8:	00000013          	addi	x0,x0,0
    47cc:	00000013          	addi	x0,x0,0
    47d0:	00000013          	addi	x0,x0,0
    47d4:	00000013          	addi	x0,x0,0
    47d8:	00000013          	addi	x0,x0,0
    47dc:	00000013          	addi	x0,x0,0
    47e0:	0001c097          	auipc	x1,0x1c
    47e4:	a24080e7          	jalr	x1,-1500(x1) # 20204 <rvmodel_io_write_str>
    47e8:	0000a517          	auipc	x10,0xa
    47ec:	75852503          	lw	x10,1880(x10) # ef40 <trap_diag_expected_value>
    47f0:	02000593          	addi	x11,x0,32
    47f4:	664000ef          	jal	x1,4e58 <failedtest_hex_to_str>
    47f8:	00000013          	addi	x0,x0,0
    47fc:	00000013          	addi	x0,x0,0
    4800:	0000a517          	auipc	x10,0xa
    4804:	78850513          	addi	x10,x10,1928 # ef88 <ascii_buffer>
    4808:	00000013          	addi	x0,x0,0
    480c:	00000013          	addi	x0,x0,0
    4810:	00000013          	addi	x0,x0,0
    4814:	00000013          	addi	x0,x0,0
    4818:	00000013          	addi	x0,x0,0
    481c:	00000013          	addi	x0,x0,0
    4820:	0001c097          	auipc	x1,0x1c
    4824:	9e4080e7          	jalr	x1,-1564(x1) # 20204 <rvmodel_io_write_str>
    4828:	00000013          	addi	x0,x0,0
    482c:	00000013          	addi	x0,x0,0
    4830:	00000013          	addi	x0,x0,0
    4834:	00000013          	addi	x0,x0,0
    4838:	00000013          	addi	x0,x0,0
    483c:	00000013          	addi	x0,x0,0
    4840:	0000c517          	auipc	x10,0xc
    4844:	d4a50513          	addi	x10,x10,-694 # 1058a <trap_diag_actual_str>
    4848:	00000013          	addi	x0,x0,0
    484c:	00000013          	addi	x0,x0,0
    4850:	00000013          	addi	x0,x0,0
    4854:	00000013          	addi	x0,x0,0
    4858:	00000013          	addi	x0,x0,0
    485c:	00000013          	addi	x0,x0,0
    4860:	0001c097          	auipc	x1,0x1c
    4864:	9a4080e7          	jalr	x1,-1628(x1) # 20204 <rvmodel_io_write_str>
    4868:	0000a517          	auipc	x10,0xa
    486c:	6d052503          	lw	x10,1744(x10) # ef38 <trap_diag_actual_value>
    4870:	02000593          	addi	x11,x0,32
    4874:	5e4000ef          	jal	x1,4e58 <failedtest_hex_to_str>
    4878:	00000013          	addi	x0,x0,0
    487c:	00000013          	addi	x0,x0,0
    4880:	0000a517          	auipc	x10,0xa
    4884:	70850513          	addi	x10,x10,1800 # ef88 <ascii_buffer>
    4888:	00000013          	addi	x0,x0,0
    488c:	00000013          	addi	x0,x0,0
    4890:	00000013          	addi	x0,x0,0
    4894:	00000013          	addi	x0,x0,0
    4898:	00000013          	addi	x0,x0,0
    489c:	00000013          	addi	x0,x0,0
    48a0:	0001c097          	auipc	x1,0x1c
    48a4:	964080e7          	jalr	x1,-1692(x1) # 20204 <rvmodel_io_write_str>
    48a8:	0000a517          	auipc	x10,0xa
    48ac:	68852503          	lw	x10,1672(x10) # ef30 <trap_diag_subtype>
    48b0:	00200593          	addi	x11,x0,2
    48b4:	08b51463          	bne	x10,x11,493c <trap_field_not_cause>
    48b8:	00000013          	addi	x0,x0,0
    48bc:	00000013          	addi	x0,x0,0
    48c0:	0000c517          	auipc	x10,0xc
    48c4:	ce150513          	addi	x10,x10,-799 # 105a1 <trap_diag_expected_cause_name_str>
    48c8:	00000013          	addi	x0,x0,0
    48cc:	00000013          	addi	x0,x0,0
    48d0:	00000013          	addi	x0,x0,0
    48d4:	00000013          	addi	x0,x0,0
    48d8:	00000013          	addi	x0,x0,0
    48dc:	00000013          	addi	x0,x0,0
    48e0:	0001c097          	auipc	x1,0x1c
    48e4:	924080e7          	jalr	x1,-1756(x1) # 20204 <rvmodel_io_write_str>
    48e8:	0000a517          	auipc	x10,0xa
    48ec:	65852503          	lw	x10,1624(x10) # ef40 <trap_diag_expected_value>
    48f0:	284000ef          	jal	x1,4b74 <trap_cause_to_str>
    48f4:	0001c097          	auipc	x1,0x1c
    48f8:	910080e7          	jalr	x1,-1776(x1) # 20204 <rvmodel_io_write_str>
    48fc:	00000013          	addi	x0,x0,0
    4900:	0000c517          	auipc	x10,0xc
    4904:	cb850513          	addi	x10,x10,-840 # 105b8 <trap_diag_actual_cause_name_str>
    4908:	00000013          	addi	x0,x0,0
    490c:	00000013          	addi	x0,x0,0
    4910:	00000013          	addi	x0,x0,0
    4914:	00000013          	addi	x0,x0,0
    4918:	00000013          	addi	x0,x0,0
    491c:	00000013          	addi	x0,x0,0
    4920:	0001c097          	auipc	x1,0x1c
    4924:	8e4080e7          	jalr	x1,-1820(x1) # 20204 <rvmodel_io_write_str>
    4928:	0000a517          	auipc	x10,0xa
    492c:	61052503          	lw	x10,1552(x10) # ef38 <trap_diag_actual_value>
    4930:	244000ef          	jal	x1,4b74 <trap_cause_to_str>
    4934:	0001c097          	auipc	x1,0x1c
    4938:	8d0080e7          	jalr	x1,-1840(x1) # 20204 <rvmodel_io_write_str>

0000493c <trap_field_not_cause>:
    493c:	00000097          	auipc	x1,0x0
    4940:	314080e7          	jalr	x1,788(x1) # 4c50 <failedtest_print_csr_context>
    4944:	0000a517          	auipc	x10,0xa
    4948:	5ec52503          	lw	x10,1516(x10) # ef30 <trap_diag_subtype>
    494c:	00100593          	addi	x11,x0,1
    4950:	02b51e63          	bne	x10,x11,498c <trap_field_not_cause+0x50>
    4954:	00000013          	addi	x0,x0,0
    4958:	00000013          	addi	x0,x0,0
    495c:	00000013          	addi	x0,x0,0
    4960:	0000c517          	auipc	x10,0xc
    4964:	cce50513          	addi	x10,x10,-818 # 1062e <trap_diag_hint_vect_str>
    4968:	00000013          	addi	x0,x0,0
    496c:	00000013          	addi	x0,x0,0
    4970:	00000013          	addi	x0,x0,0
    4974:	00000013          	addi	x0,x0,0
    4978:	00000013          	addi	x0,x0,0
    497c:	00000013          	addi	x0,x0,0
    4980:	0001c097          	auipc	x1,0x1c
    4984:	884080e7          	jalr	x1,-1916(x1) # 20204 <rvmodel_io_write_str>
    4988:	27c0006f          	jal	x0,4c04 <failedtest_report_end>
    498c:	00200593          	addi	x11,x0,2
    4990:	02b51e63          	bne	x10,x11,49cc <trap_field_not_cause+0x90>
    4994:	00000013          	addi	x0,x0,0
    4998:	00000013          	addi	x0,x0,0
    499c:	00000013          	addi	x0,x0,0
    49a0:	0000c517          	auipc	x10,0xc
    49a4:	d6450513          	addi	x10,x10,-668 # 10704 <trap_diag_hint_cause_str>
    49a8:	00000013          	addi	x0,x0,0
    49ac:	00000013          	addi	x0,x0,0
    49b0:	00000013          	addi	x0,x0,0
    49b4:	00000013          	addi	x0,x0,0
    49b8:	00000013          	addi	x0,x0,0
    49bc:	00000013          	addi	x0,x0,0
    49c0:	0001c097          	auipc	x1,0x1c
    49c4:	844080e7          	jalr	x1,-1980(x1) # 20204 <rvmodel_io_write_str>
    49c8:	23c0006f          	jal	x0,4c04 <failedtest_report_end>
    49cc:	00300593          	addi	x11,x0,3
    49d0:	02b51e63          	bne	x10,x11,4a0c <trap_field_not_cause+0xd0>
    49d4:	00000013          	addi	x0,x0,0
    49d8:	00000013          	addi	x0,x0,0
    49dc:	00000013          	addi	x0,x0,0
    49e0:	0000c517          	auipc	x10,0xc
    49e4:	e1750513          	addi	x10,x10,-489 # 107f7 <trap_diag_hint_epc_str>
    49e8:	00000013          	addi	x0,x0,0
    49ec:	00000013          	addi	x0,x0,0
    49f0:	00000013          	addi	x0,x0,0
    49f4:	00000013          	addi	x0,x0,0
    49f8:	00000013          	addi	x0,x0,0
    49fc:	00000013          	addi	x0,x0,0
    4a00:	0001c097          	auipc	x1,0x1c
    4a04:	804080e7          	jalr	x1,-2044(x1) # 20204 <rvmodel_io_write_str>
    4a08:	1fc0006f          	jal	x0,4c04 <failedtest_report_end>
    4a0c:	00400593          	addi	x11,x0,4
    4a10:	02b51e63          	bne	x10,x11,4a4c <trap_field_not_cause+0x110>
    4a14:	00000013          	addi	x0,x0,0
    4a18:	00000013          	addi	x0,x0,0
    4a1c:	00000013          	addi	x0,x0,0
    4a20:	0000c517          	auipc	x10,0xc
    4a24:	ed250513          	addi	x10,x10,-302 # 108f2 <trap_diag_hint_tval_str>
    4a28:	00000013          	addi	x0,x0,0
    4a2c:	00000013          	addi	x0,x0,0
    4a30:	00000013          	addi	x0,x0,0
    4a34:	00000013          	addi	x0,x0,0
    4a38:	00000013          	addi	x0,x0,0
    4a3c:	00000013          	addi	x0,x0,0
    4a40:	0001b097          	auipc	x1,0x1b
    4a44:	7c4080e7          	jalr	x1,1988(x1) # 20204 <rvmodel_io_write_str>
    4a48:	1bc0006f          	jal	x0,4c04 <failedtest_report_end>
    4a4c:	00500593          	addi	x11,x0,5
    4a50:	02b51e63          	bne	x10,x11,4a8c <trap_field_not_cause+0x150>
    4a54:	00000013          	addi	x0,x0,0
    4a58:	00000013          	addi	x0,x0,0
    4a5c:	00000013          	addi	x0,x0,0
    4a60:	0000c517          	auipc	x10,0xc
    4a64:	f7950513          	addi	x10,x10,-135 # 109d9 <trap_diag_hint_ip_str>
    4a68:	00000013          	addi	x0,x0,0
    4a6c:	00000013          	addi	x0,x0,0
    4a70:	00000013          	addi	x0,x0,0
    4a74:	00000013          	addi	x0,x0,0
    4a78:	00000013          	addi	x0,x0,0
    4a7c:	00000013          	addi	x0,x0,0
    4a80:	0001b097          	auipc	x1,0x1b
    4a84:	784080e7          	jalr	x1,1924(x1) # 20204 <rvmodel_io_write_str>
    4a88:	17c0006f          	jal	x0,4c04 <failedtest_report_end>
    4a8c:	1780006f          	jal	x0,4c04 <failedtest_report_end>

00004a90 <trap_report_generic>:
    4a90:	00000013          	addi	x0,x0,0
    4a94:	00000013          	addi	x0,x0,0
    4a98:	00000013          	addi	x0,x0,0
    4a9c:	00000013          	addi	x0,x0,0
    4aa0:	0000c517          	auipc	x10,0xc
    4aa4:	b4650513          	addi	x10,x10,-1210 # 105e6 <trap_diag_generic_str>
    4aa8:	00000013          	addi	x0,x0,0
    4aac:	00000013          	addi	x0,x0,0
    4ab0:	00000013          	addi	x0,x0,0
    4ab4:	00000013          	addi	x0,x0,0
    4ab8:	00000013          	addi	x0,x0,0
    4abc:	00000013          	addi	x0,x0,0
    4ac0:	0001b097          	auipc	x1,0x1b
    4ac4:	744080e7          	jalr	x1,1860(x1) # 20204 <rvmodel_io_write_str>
    4ac8:	0000a617          	auipc	x12,0xa
    4acc:	4a062603          	lw	x12,1184(x12) # ef68 <saved_mepc>
    4ad0:	00000013          	addi	x0,x0,0
    4ad4:	00000013          	addi	x0,x0,0
    4ad8:	00000013          	addi	x0,x0,0
    4adc:	00000013          	addi	x0,x0,0
    4ae0:	0000b517          	auipc	x10,0xb
    4ae4:	ae950513          	addi	x10,x10,-1303 # f5c9 <xepcinstrstr>
    4ae8:	00000013          	addi	x0,x0,0
    4aec:	00000013          	addi	x0,x0,0
    4af0:	00000013          	addi	x0,x0,0
    4af4:	00000013          	addi	x0,x0,0
    4af8:	00000013          	addi	x0,x0,0
    4afc:	00000013          	addi	x0,x0,0
    4b00:	0001b097          	auipc	x1,0x1b
    4b04:	704080e7          	jalr	x1,1796(x1) # 20204 <rvmodel_io_write_str>
    4b08:	00065503          	lhu	x10,0(x12)
    4b0c:	01000593          	addi	x11,x0,16
    4b10:	00357413          	andi	x8,x10,3
    4b14:	00300493          	addi	x9,x0,3
    4b18:	00941a63          	bne	x8,x9,4b2c <trap_report_generic+0x9c>
    4b1c:	00265403          	lhu	x8,2(x12)
    4b20:	01041413          	slli	x8,x8,0x10
    4b24:	00856533          	or	x10,x10,x8
    4b28:	02000593          	addi	x11,x0,32
    4b2c:	32c000ef          	jal	x1,4e58 <failedtest_hex_to_str>
    4b30:	00000013          	addi	x0,x0,0
    4b34:	00000013          	addi	x0,x0,0
    4b38:	00000013          	addi	x0,x0,0
    4b3c:	00000013          	addi	x0,x0,0
    4b40:	0000a517          	auipc	x10,0xa
    4b44:	44850513          	addi	x10,x10,1096 # ef88 <ascii_buffer>
    4b48:	00000013          	addi	x0,x0,0
    4b4c:	00000013          	addi	x0,x0,0
    4b50:	00000013          	addi	x0,x0,0
    4b54:	00000013          	addi	x0,x0,0
    4b58:	00000013          	addi	x0,x0,0
    4b5c:	00000013          	addi	x0,x0,0
    4b60:	0001b097          	auipc	x1,0x1b
    4b64:	6a4080e7          	jalr	x1,1700(x1) # 20204 <rvmodel_io_write_str>
    4b68:	00000097          	auipc	x1,0x0
    4b6c:	0e8080e7          	jalr	x1,232(x1) # 4c50 <failedtest_print_csr_context>
    4b70:	0940006f          	jal	x0,4c04 <failedtest_report_end>

00004b74 <trap_cause_to_str>:
    4b74:	02054263          	blt	x10,x0,4b98 <trap_cause_interrupt>

00004b78 <trap_cause_exception>:
    4b78:	01800593          	addi	x11,x0,24
    4b7c:	04b55463          	bge	x10,x11,4bc4 <trap_cause_unknown>
    4b80:	0000a597          	auipc	x11,0xa
    4b84:	43058593          	addi	x11,x11,1072 # efb0 <end_failure_scratch>
    4b88:	00251613          	slli	x12,x10,0x2
    4b8c:	00c585b3          	add	x11,x11,x12
    4b90:	0005a503          	lw	x10,0(x11)
    4b94:	00008067          	jalr	x0,0(x1)

00004b98 <trap_cause_interrupt>:
    4b98:	00100593          	addi	x11,x0,1
    4b9c:	01f59593          	slli	x11,x11,0x1f
    4ba0:	00b54533          	xor	x10,x10,x11
    4ba4:	01000593          	addi	x11,x0,16
    4ba8:	00b55e63          	bge	x10,x11,4bc4 <trap_cause_unknown>
    4bac:	0000a597          	auipc	x11,0xa
    4bb0:	46458593          	addi	x11,x11,1124 # f010 <trap_int_name_tbl>
    4bb4:	00251613          	slli	x12,x10,0x2
    4bb8:	00c585b3          	add	x11,x11,x12
    4bbc:	0005a503          	lw	x10,0(x11)
    4bc0:	00008067          	jalr	x0,0(x1)

00004bc4 <trap_cause_unknown>:
    4bc4:	00000013          	addi	x0,x0,0
    4bc8:	00000013          	addi	x0,x0,0
    4bcc:	00000013          	addi	x0,x0,0
    4bd0:	00000013          	addi	x0,x0,0
    4bd4:	00000013          	addi	x0,x0,0
    4bd8:	00000013          	addi	x0,x0,0
    4bdc:	00000013          	addi	x0,x0,0
    4be0:	0000b517          	auipc	x10,0xb
    4be4:	86e50513          	addi	x10,x10,-1938 # f44e <trap_cause_unknown_str>
    4be8:	00000013          	addi	x0,x0,0
    4bec:	00000013          	addi	x0,x0,0
    4bf0:	00000013          	addi	x0,x0,0
    4bf4:	00000013          	addi	x0,x0,0
    4bf8:	00000013          	addi	x0,x0,0
    4bfc:	00000013          	addi	x0,x0,0
    4c00:	00008067          	jalr	x0,0(x1)

00004c04 <failedtest_report_end>:
    4c04:	00000013          	addi	x0,x0,0
    4c08:	00000013          	addi	x0,x0,0
    4c0c:	00000013          	addi	x0,x0,0
    4c10:	00000013          	addi	x0,x0,0
    4c14:	00000013          	addi	x0,x0,0
    4c18:	00000013          	addi	x0,x0,0
    4c1c:	00000013          	addi	x0,x0,0
    4c20:	0000b517          	auipc	x10,0xb
    4c24:	3f150513          	addi	x10,x10,1009 # 10011 <endstr>
    4c28:	00000013          	addi	x0,x0,0
    4c2c:	00000013          	addi	x0,x0,0
    4c30:	00000013          	addi	x0,x0,0
    4c34:	00000013          	addi	x0,x0,0
    4c38:	00000013          	addi	x0,x0,0
    4c3c:	00000013          	addi	x0,x0,0
    4c40:	0001b097          	auipc	x1,0x1b
    4c44:	5c4080e7          	jalr	x1,1476(x1) # 20204 <rvmodel_io_write_str>

00004c48 <failedtest_terminate>:
    4c48:	0001b097          	auipc	x1,0x1b
    4c4c:	5cc080e7          	jalr	x1,1484(x1) # 20214 <rvmodel_halt_fail>

00004c50 <failedtest_print_csr_context>:
    4c50:	0000a617          	auipc	x12,0xa
    4c54:	31060613          	addi	x12,x12,784 # ef60 <csr_context_ret_addr>
    4c58:	00162023          	sw	x1,0(x12)
    4c5c:	00000013          	addi	x0,x0,0
    4c60:	0000b517          	auipc	x10,0xb
    4c64:	98a50513          	addi	x10,x10,-1654 # f5ea <mepcstr>
    4c68:	00000013          	addi	x0,x0,0
    4c6c:	00000013          	addi	x0,x0,0
    4c70:	00000013          	addi	x0,x0,0
    4c74:	00000013          	addi	x0,x0,0
    4c78:	00000013          	addi	x0,x0,0
    4c7c:	00000013          	addi	x0,x0,0
    4c80:	0001b097          	auipc	x1,0x1b
    4c84:	584080e7          	jalr	x1,1412(x1) # 20204 <rvmodel_io_write_str>
    4c88:	0000a517          	auipc	x10,0xa
    4c8c:	2e052503          	lw	x10,736(x10) # ef68 <saved_mepc>
    4c90:	02000593          	addi	x11,x0,32
    4c94:	1c4000ef          	jal	x1,4e58 <failedtest_hex_to_str>
    4c98:	00000013          	addi	x0,x0,0
    4c9c:	00000013          	addi	x0,x0,0
    4ca0:	0000a517          	auipc	x10,0xa
    4ca4:	2e850513          	addi	x10,x10,744 # ef88 <ascii_buffer>
    4ca8:	00000013          	addi	x0,x0,0
    4cac:	00000013          	addi	x0,x0,0
    4cb0:	00000013          	addi	x0,x0,0
    4cb4:	00000013          	addi	x0,x0,0
    4cb8:	00000013          	addi	x0,x0,0
    4cbc:	00000013          	addi	x0,x0,0
    4cc0:	0001b097          	auipc	x1,0x1b
    4cc4:	544080e7          	jalr	x1,1348(x1) # 20204 <rvmodel_io_write_str>
    4cc8:	00000013          	addi	x0,x0,0
    4ccc:	00000013          	addi	x0,x0,0
    4cd0:	00000013          	addi	x0,x0,0
    4cd4:	00000013          	addi	x0,x0,0
    4cd8:	00000013          	addi	x0,x0,0
    4cdc:	00000013          	addi	x0,x0,0
    4ce0:	0000b517          	auipc	x10,0xb
    4ce4:	91a50513          	addi	x10,x10,-1766 # f5fa <mcausestr>
    4ce8:	00000013          	addi	x0,x0,0
    4cec:	00000013          	addi	x0,x0,0
    4cf0:	00000013          	addi	x0,x0,0
    4cf4:	00000013          	addi	x0,x0,0
    4cf8:	00000013          	addi	x0,x0,0
    4cfc:	00000013          	addi	x0,x0,0
    4d00:	0001b097          	auipc	x1,0x1b
    4d04:	504080e7          	jalr	x1,1284(x1) # 20204 <rvmodel_io_write_str>
    4d08:	0000a517          	auipc	x10,0xa
    4d0c:	26852503          	lw	x10,616(x10) # ef70 <saved_mcause>
    4d10:	02000593          	addi	x11,x0,32
    4d14:	144000ef          	jal	x1,4e58 <failedtest_hex_to_str>
    4d18:	00000013          	addi	x0,x0,0
    4d1c:	00000013          	addi	x0,x0,0
    4d20:	0000a517          	auipc	x10,0xa
    4d24:	26850513          	addi	x10,x10,616 # ef88 <ascii_buffer>
    4d28:	00000013          	addi	x0,x0,0
    4d2c:	00000013          	addi	x0,x0,0
    4d30:	00000013          	addi	x0,x0,0
    4d34:	00000013          	addi	x0,x0,0
    4d38:	00000013          	addi	x0,x0,0
    4d3c:	00000013          	addi	x0,x0,0
    4d40:	0001b097          	auipc	x1,0x1b
    4d44:	4c4080e7          	jalr	x1,1220(x1) # 20204 <rvmodel_io_write_str>
    4d48:	00000013          	addi	x0,x0,0
    4d4c:	00000013          	addi	x0,x0,0
    4d50:	00000013          	addi	x0,x0,0
    4d54:	00000013          	addi	x0,x0,0
    4d58:	00000013          	addi	x0,x0,0
    4d5c:	00000013          	addi	x0,x0,0
    4d60:	0000b517          	auipc	x10,0xb
    4d64:	8aa50513          	addi	x10,x10,-1878 # f60a <mtvalstr>
    4d68:	00000013          	addi	x0,x0,0
    4d6c:	00000013          	addi	x0,x0,0
    4d70:	00000013          	addi	x0,x0,0
    4d74:	00000013          	addi	x0,x0,0
    4d78:	00000013          	addi	x0,x0,0
    4d7c:	00000013          	addi	x0,x0,0
    4d80:	0001b097          	auipc	x1,0x1b
    4d84:	484080e7          	jalr	x1,1156(x1) # 20204 <rvmodel_io_write_str>
    4d88:	0000a517          	auipc	x10,0xa
    4d8c:	1f052503          	lw	x10,496(x10) # ef78 <saved_mtval>
    4d90:	02000593          	addi	x11,x0,32
    4d94:	0c4000ef          	jal	x1,4e58 <failedtest_hex_to_str>
    4d98:	00000013          	addi	x0,x0,0
    4d9c:	00000013          	addi	x0,x0,0
    4da0:	0000a517          	auipc	x10,0xa
    4da4:	1e850513          	addi	x10,x10,488 # ef88 <ascii_buffer>
    4da8:	00000013          	addi	x0,x0,0
    4dac:	00000013          	addi	x0,x0,0
    4db0:	00000013          	addi	x0,x0,0
    4db4:	00000013          	addi	x0,x0,0
    4db8:	00000013          	addi	x0,x0,0
    4dbc:	00000013          	addi	x0,x0,0
    4dc0:	0001b097          	auipc	x1,0x1b
    4dc4:	444080e7          	jalr	x1,1092(x1) # 20204 <rvmodel_io_write_str>
    4dc8:	00000013          	addi	x0,x0,0
    4dcc:	00000013          	addi	x0,x0,0
    4dd0:	00000013          	addi	x0,x0,0
    4dd4:	00000013          	addi	x0,x0,0
    4dd8:	00000013          	addi	x0,x0,0
    4ddc:	00000013          	addi	x0,x0,0
    4de0:	0000b517          	auipc	x10,0xb
    4de4:	83a50513          	addi	x10,x10,-1990 # f61a <mstatusstr>
    4de8:	00000013          	addi	x0,x0,0
    4dec:	00000013          	addi	x0,x0,0
    4df0:	00000013          	addi	x0,x0,0
    4df4:	00000013          	addi	x0,x0,0
    4df8:	00000013          	addi	x0,x0,0
    4dfc:	00000013          	addi	x0,x0,0
    4e00:	0001b097          	auipc	x1,0x1b
    4e04:	404080e7          	jalr	x1,1028(x1) # 20204 <rvmodel_io_write_str>
    4e08:	0000a517          	auipc	x10,0xa
    4e0c:	17852503          	lw	x10,376(x10) # ef80 <saved_mstatus>
    4e10:	02000593          	addi	x11,x0,32
    4e14:	044000ef          	jal	x1,4e58 <failedtest_hex_to_str>
    4e18:	00000013          	addi	x0,x0,0
    4e1c:	00000013          	addi	x0,x0,0
    4e20:	0000a517          	auipc	x10,0xa
    4e24:	16850513          	addi	x10,x10,360 # ef88 <ascii_buffer>
    4e28:	00000013          	addi	x0,x0,0
    4e2c:	00000013          	addi	x0,x0,0
    4e30:	00000013          	addi	x0,x0,0
    4e34:	00000013          	addi	x0,x0,0
    4e38:	00000013          	addi	x0,x0,0
    4e3c:	00000013          	addi	x0,x0,0
    4e40:	0001b097          	auipc	x1,0x1b
    4e44:	3c4080e7          	jalr	x1,964(x1) # 20204 <rvmodel_io_write_str>
    4e48:	0000a617          	auipc	x12,0xa
    4e4c:	11860613          	addi	x12,x12,280 # ef60 <csr_context_ret_addr>
    4e50:	00062083          	lw	x1,0(x12)
    4e54:	00008067          	jalr	x0,0(x1)

00004e58 <failedtest_hex_to_str>:
    4e58:	00000013          	addi	x0,x0,0
    4e5c:	00000013          	addi	x0,x0,0
    4e60:	0000a617          	auipc	x12,0xa
    4e64:	12860613          	addi	x12,x12,296 # ef88 <ascii_buffer>
    4e68:	00000013          	addi	x0,x0,0
    4e6c:	00000013          	addi	x0,x0,0
    4e70:	00000013          	addi	x0,x0,0
    4e74:	00000013          	addi	x0,x0,0
    4e78:	00000013          	addi	x0,x0,0
    4e7c:	00000013          	addi	x0,x0,0
    4e80:	03000693          	addi	x13,x0,48
    4e84:	00d60023          	sb	x13,0(x12)
    4e88:	07800693          	addi	x13,x0,120
    4e8c:	00d600a3          	sb	x13,1(x12)
    4e90:	00260613          	addi	x12,x12,2
    4e94:	00058693          	addi	x13,x11,0

00004e98 <failedtest_hex_to_str_loop>:
    4e98:	ffc68693          	addi	x13,x13,-4
    4e9c:	00d55733          	srl	x14,x10,x13
    4ea0:	00f77713          	andi	x14,x14,15
    4ea4:	00a00793          	addi	x15,x0,10
    4ea8:	00f74663          	blt	x14,x15,4eb4 <failedtest_hex_to_str_digit>
    4eac:	05770713          	addi	x14,x14,87
    4eb0:	0080006f          	jal	x0,4eb8 <failedtest_hex_to_str_write>

00004eb4 <failedtest_hex_to_str_digit>:
    4eb4:	03070713          	addi	x14,x14,48

00004eb8 <failedtest_hex_to_str_write>:
    4eb8:	00e60023          	sb	x14,0(x12)
    4ebc:	00160613          	addi	x12,x12,1
    4ec0:	fc069ce3          	bne	x13,x0,4e98 <failedtest_hex_to_str_loop>
    4ec4:	00a00693          	addi	x13,x0,10
    4ec8:	00d60023          	sb	x13,0(x12)
    4ecc:	000600a3          	sb	x0,1(x12)
    4ed0:	00008067          	jalr	x0,0(x1)

00004ed4 <failedtest_dec_to_str>:
    4ed4:	00a00693          	addi	x13,x0,10
    4ed8:	02d54663          	blt	x10,x13,4f04 <failedtest_dec_to_str+0x30>
    4edc:	ff650513          	addi	x10,x10,-10
    4ee0:	03100713          	addi	x14,x0,49
    4ee4:	00d54c63          	blt	x10,x13,4efc <failedtest_dec_to_str+0x28>
    4ee8:	ff650513          	addi	x10,x10,-10
    4eec:	03200713          	addi	x14,x0,50
    4ef0:	00d54663          	blt	x10,x13,4efc <failedtest_dec_to_str+0x28>
    4ef4:	ff650513          	addi	x10,x10,-10
    4ef8:	03300713          	addi	x14,x0,51
    4efc:	00e60023          	sb	x14,0(x12)
    4f00:	00160613          	addi	x12,x12,1
    4f04:	03050513          	addi	x10,x10,48
    4f08:	00a60023          	sb	x10,0(x12)
    4f0c:	00a00693          	addi	x13,x0,10
    4f10:	00d600a3          	sb	x13,1(x12)
    4f14:	00060123          	sb	x0,2(x12)
    4f18:	00008067          	jalr	x0,0(x1)
    4f1c:	00000013          	addi	x0,x0,0

Disassembly of section .text.rvmodel:

00020000 <rvmodel_boot>:
   20000:	feedc0b7          	lui	x1,0xfeedc
   20004:	ead08093          	addi	x1,x1,-339 # feedbead <absimm+0x8f911ba4>
   20008:	01909793          	slli	x15,x1,0x19
   2000c:	0070d113          	srli	x2,x1,0x7
   20010:	00f16133          	or	x2,x2,x15
   20014:	01911793          	slli	x15,x2,0x19
   20018:	00715193          	srli	x3,x2,0x7
   2001c:	00f1e1b3          	or	x3,x3,x15
   20020:	01919793          	slli	x15,x3,0x19
   20024:	0071d213          	srli	x4,x3,0x7
   20028:	00f26233          	or	x4,x4,x15
   2002c:	01921793          	slli	x15,x4,0x19
   20030:	00725293          	srli	x5,x4,0x7
   20034:	00f2e2b3          	or	x5,x5,x15
   20038:	01929793          	slli	x15,x5,0x19
   2003c:	0072d313          	srli	x6,x5,0x7
   20040:	00f36333          	or	x6,x6,x15
   20044:	01931793          	slli	x15,x6,0x19
   20048:	00735393          	srli	x7,x6,0x7
   2004c:	00f3e3b3          	or	x7,x7,x15
   20050:	01939793          	slli	x15,x7,0x19
   20054:	0073d413          	srli	x8,x7,0x7
   20058:	00f46433          	or	x8,x8,x15
   2005c:	01941793          	slli	x15,x8,0x19
   20060:	00745493          	srli	x9,x8,0x7
   20064:	00f4e4b3          	or	x9,x9,x15
   20068:	01949793          	slli	x15,x9,0x19
   2006c:	0074d513          	srli	x10,x9,0x7
   20070:	00f56533          	or	x10,x10,x15
   20074:	01951793          	slli	x15,x10,0x19
   20078:	00755593          	srli	x11,x10,0x7
   2007c:	00f5e5b3          	or	x11,x11,x15
   20080:	01959793          	slli	x15,x11,0x19
   20084:	0075d613          	srli	x12,x11,0x7
   20088:	00f66633          	or	x12,x12,x15
   2008c:	01961793          	slli	x15,x12,0x19
   20090:	00765693          	srli	x13,x12,0x7
   20094:	00f6e6b3          	or	x13,x13,x15
   20098:	01969793          	slli	x15,x13,0x19
   2009c:	0076d713          	srli	x14,x13,0x7
   200a0:	00f76733          	or	x14,x14,x15
   200a4:	fab807b7          	lui	x15,0xfab80
   200a8:	bb678793          	addi	x15,x15,-1098 # fab7fbb6 <absimm+0x8b5b58ad>
   200ac:	7d5c0837          	lui	x16,0x7d5c0
   200b0:	ddb80813          	addi	x16,x16,-549 # 7d5bfddb <absimm+0xdff5ad2>
   200b4:	01981793          	slli	x15,x16,0x19
   200b8:	00785893          	srli	x17,x16,0x7
   200bc:	00f8e8b3          	or	x17,x17,x15
   200c0:	01989793          	slli	x15,x17,0x19
   200c4:	0078d913          	srli	x18,x17,0x7
   200c8:	00f96933          	or	x18,x18,x15
   200cc:	01991793          	slli	x15,x18,0x19
   200d0:	00795993          	srli	x19,x18,0x7
   200d4:	00f9e9b3          	or	x19,x19,x15
   200d8:	01999793          	slli	x15,x19,0x19
   200dc:	0079da13          	srli	x20,x19,0x7
   200e0:	00fa6a33          	or	x20,x20,x15
   200e4:	019a1793          	slli	x15,x20,0x19
   200e8:	007a5a93          	srli	x21,x20,0x7
   200ec:	00faeab3          	or	x21,x21,x15
   200f0:	019a9793          	slli	x15,x21,0x19
   200f4:	007adb13          	srli	x22,x21,0x7
   200f8:	00fb6b33          	or	x22,x22,x15
   200fc:	019b1793          	slli	x15,x22,0x19
   20100:	007b5b93          	srli	x23,x22,0x7
   20104:	00fbebb3          	or	x23,x23,x15
   20108:	019b9793          	slli	x15,x23,0x19
   2010c:	007bdc13          	srli	x24,x23,0x7
   20110:	00fc6c33          	or	x24,x24,x15
   20114:	019c1793          	slli	x15,x24,0x19
   20118:	007c5c93          	srli	x25,x24,0x7
   2011c:	00fcecb3          	or	x25,x25,x15
   20120:	019c9793          	slli	x15,x25,0x19
   20124:	007cdd13          	srli	x26,x25,0x7
   20128:	00fd6d33          	or	x26,x26,x15
   2012c:	019d1793          	slli	x15,x26,0x19
   20130:	007d5d93          	srli	x27,x26,0x7
   20134:	00fdedb3          	or	x27,x27,x15
   20138:	019d9793          	slli	x15,x27,0x19
   2013c:	007dde13          	srli	x28,x27,0x7
   20140:	00fe6e33          	or	x28,x28,x15
   20144:	019e1793          	slli	x15,x28,0x19
   20148:	007e5e93          	srli	x29,x28,0x7
   2014c:	00feeeb3          	or	x29,x29,x15
   20150:	019e9793          	slli	x15,x29,0x19
   20154:	007edf13          	srli	x30,x29,0x7
   20158:	00ff6f33          	or	x30,x30,x15
   2015c:	019f1793          	slli	x15,x30,0x19
   20160:	007f5f93          	srli	x31,x30,0x7
   20164:	00ffefb3          	or	x31,x31,x15
   20168:	00000013          	addi	x0,x0,0
   2016c:	00000013          	addi	x0,x0,0
   20170:	00000013          	addi	x0,x0,0
   20174:	00000013          	addi	x0,x0,0
   20178:	00000013          	addi	x0,x0,0
   2017c:	00000013          	addi	x0,x0,0
   20180:	ffff1117          	auipc	x2,0xffff1
   20184:	94010113          	addi	x2,x2,-1728 # 10ac0 <begin_signature>
   20188:	00000013          	addi	x0,x0,0
   2018c:	00000013          	addi	x0,x0,0
   20190:	00000013          	addi	x0,x0,0
   20194:	00000013          	addi	x0,x0,0
   20198:	00000013          	addi	x0,x0,0
   2019c:	00000013          	addi	x0,x0,0

000201a0 <canary_check>:
   201a0:	6f5ca337          	lui	x6,0x6f5ca
   201a4:	30930313          	addi	x6,x6,777 # 6f5ca309 <absimm>
   201a8:	00012203          	lw	x4,0(x2)
   201ac:	00620863          	beq	x4,x6,201bc <canary_check+0x1c>
   201b0:	aece32ef          	jal	x5,349c <failedtest_x5_x4>
   201b4:	000201a0          	.word	0x000201a0
   201b8:	0001003a          	.word	0x0001003a
   201bc:	00410113          	addi	x2,x2,4
   201c0:	fffe8197          	auipc	x3,0xfffe8
   201c4:	f5018193          	addi	x3,x3,-176 # 8110 <rvtest_data_begin>
   201c8:	00000013          	addi	x0,x0,0
   201cc:	00000013          	addi	x0,x0,0
   201d0:	00000013          	addi	x0,x0,0
   201d4:	00000013          	addi	x0,x0,0
   201d8:	00000013          	addi	x0,x0,0
   201dc:	00000013          	addi	x0,x0,0
   201e0:	fffe0317          	auipc	x6,0xfffe0
   201e4:	e6030313          	addi	x6,x6,-416 # 40 <rvtest_code_begin>
   201e8:	00000013          	addi	x0,x0,0
   201ec:	00000013          	addi	x0,x0,0
   201f0:	00000013          	addi	x0,x0,0
   201f4:	00000013          	addi	x0,x0,0
   201f8:	00000013          	addi	x0,x0,0
   201fc:	00000013          	addi	x0,x0,0
   20200:	00030067          	jalr	x0,0(x6)

00020204 <rvmodel_io_write_str>:
   20204:	00008067          	jalr	x0,0(x1)

00020208 <rvmodel_halt_pass>:
   20208:	00000513          	addi	x10,x0,0
   2020c:	00000073          	ecall
   20210:	0000006f          	jal	x0,20210 <rvmodel_halt_pass+0x8>

00020214 <rvmodel_halt_fail>:
   20214:	00100513          	addi	x10,x0,1
   20218:	00000073          	ecall
   2021c:	0000006f          	jal	x0,2021c <rvmodel_halt_fail+0x8>
   20220:	00000013          	addi	x0,x0,0
   20224:	00000013          	addi	x0,x0,0
   20228:	00000013          	addi	x0,x0,0
   2022c:	00000013          	addi	x0,x0,0
   20230:	00000013          	addi	x0,x0,0
   20234:	00000013          	addi	x0,x0,0
   20238:	00000013          	addi	x0,x0,0
   2023c:	00000013          	addi	x0,x0,0
