
/home/dev/github/clones/riscv-arch-test/work/rv32i-core/elfs/rv32i/I/I-or-00.elf:     file format elf32-littleriscv
/home/dev/github/clones/riscv-arch-test/work/rv32i-core/elfs/rv32i/I/I-or-00.elf
architecture: riscv:rv32, flags 0x00000112:
EXEC_P, HAS_SYMS, D_PAGED
start address 0x00000000

Program Header:
0x70000003 off    0x0001f240 vaddr 0x00000000 paddr 0x00000000 align 2**0
         filesz 0x00000033 memsz 0x00000000 flags r--
    LOAD off    0x00001000 vaddr 0x00000000 paddr 0x00000000 align 2**12
         filesz 0x00005f40 memsz 0x00005f40 flags r-x
    LOAD off    0x00007000 vaddr 0x00008000 paddr 0x00008000 align 2**12
         filesz 0x00018240 memsz 0x00018240 flags rwx

Sections:
Idx Name          Size      VMA       LMA       File off  Algn
  0 .text.init    00000040  00000000  00000000  00001000  2**5
                  CONTENTS, ALLOC, LOAD, READONLY, CODE
  1 .text.rvtest  00005f00  00000040  00000040  00001040  2**5
                  CONTENTS, ALLOC, LOAD, READONLY, CODE
  2 .data         00017be0  00008000  00008000  00007000  2**8
                  CONTENTS, ALLOC, LOAD, DATA
  3 .text.rvmodel 00000240  00020000  00020000  0001f000  2**5
                  CONTENTS, ALLOC, LOAD, READONLY, CODE
  4 .riscv.attributes 00000033  00000000  00000000  0001f240  2**0
                  CONTENTS, READONLY
  5 .debug_line   00002664  00000000  00000000  0001f273  2**0
                  CONTENTS, READONLY, DEBUGGING, OCTETS
  6 .debug_line_str 00000068  00000000  00000000  000218d7  2**0
                  CONTENTS, READONLY, DEBUGGING, OCTETS
  7 .debug_info   00000023  00000000  00000000  0002193f  2**0
                  CONTENTS, READONLY, DEBUGGING, OCTETS
  8 .debug_abbrev 00000012  00000000  00000000  00021962  2**0
                  CONTENTS, READONLY, DEBUGGING, OCTETS
  9 .debug_aranges 00000028  00000000  00000000  00021978  2**3
                  CONTENTS, READONLY, DEBUGGING, OCTETS
 10 .debug_str    00000074  00000000  00000000  000219a0  2**0
                  CONTENTS, READONLY, DEBUGGING, OCTETS
 11 .debug_rnglists 0000001b  00000000  00000000  00021a14  2**0
                  CONTENTS, READONLY, DEBUGGING, OCTETS
SYMBOL TABLE:
00000000 l    d  .text.init	00000000 .text.init
00000040 l    d  .text.rvtest	00000000 .text.rvtest
00008000 l    d  .data	00000000 .data
00020000 l    d  .text.rvmodel	00000000 .text.rvmodel
00000000 l    d  .riscv.attributes	00000000 .riscv.attributes
00000000 l    d  .debug_line	00000000 .debug_line
00000000 l    d  .debug_line_str	00000000 .debug_line_str
00000000 l    d  .debug_info	00000000 .debug_info
00000000 l    d  .debug_abbrev	00000000 .debug_abbrev
00000000 l    d  .debug_aranges	00000000 .debug_aranges
00000000 l    d  .debug_str	00000000 .debug_str
00000000 l    d  .debug_rnglists	00000000 .debug_rnglists
00000000 l    df *ABS*	00000000 cc5vaAps.o
00000003 l       *ABS*	00000000 MMODE_SIG
00000001 l       *ABS*	00000000 SMODE_SIG
00000001 l       *ABS*	00000000 HMODE_SIG
00000002 l       *ABS*	00000000 VMODE_SIG
00020000 l       .text.rvmodel	00000000 rvmodel_boot
00000050 l       .text.rvtest	00000000 I_or_cg_cp_rs1_b0
000044bc l       .text.rvtest	00000000 failedtest_x5_x4
00008d50 l       .data	00000000 I_or_cg_cp_rs1_b0_str
0000007c l       .text.rvtest	00000000 I_or_cg_cp_rs1_b1
00008d7c l       .data	00000000 I_or_cg_cp_rs1_b1_str
000000ac l       .text.rvtest	00000000 I_or_cg_cp_rs1_b2
00008da8 l       .data	00000000 I_or_cg_cp_rs1_b2_str
000000dc l       .text.rvtest	00000000 I_or_cg_cp_rs1_b3
00008dd4 l       .data	00000000 I_or_cg_cp_rs1_b3_str
00000110 l       .text.rvtest	00000000 I_or_cg_cp_rs1_b4
000044fc l       .text.rvtest	00000000 failedtest_x14_x13
00008e00 l       .data	00000000 I_or_cg_cp_rs1_b4_str
0000013c l       .text.rvtest	00000000 I_or_cg_cp_rs1_b5
00008e2c l       .data	00000000 I_or_cg_cp_rs1_b5_str
00000168 l       .text.rvtest	00000000 I_or_cg_cp_rs1_b6
00008e58 l       .data	00000000 I_or_cg_cp_rs1_b6_str
00000194 l       .text.rvtest	00000000 I_or_cg_cp_rs1_b7
00008e84 l       .data	00000000 I_or_cg_cp_rs1_b7_str
000001c0 l       .text.rvtest	00000000 I_or_cg_cp_rs1_b8
00008eb0 l       .data	00000000 I_or_cg_cp_rs1_b8_str
000001ec l       .text.rvtest	00000000 I_or_cg_cp_rs1_b9
00008edc l       .data	00000000 I_or_cg_cp_rs1_b9_str
00000218 l       .text.rvtest	00000000 I_or_cg_cp_rs1_b10
00008f09 l       .data	00000000 I_or_cg_cp_rs1_b10_str
00000244 l       .text.rvtest	00000000 I_or_cg_cp_rs1_b11
00008f37 l       .data	00000000 I_or_cg_cp_rs1_b11_str
00000270 l       .text.rvtest	00000000 I_or_cg_cp_rs1_b12
00008f65 l       .data	00000000 I_or_cg_cp_rs1_b12_str
000002a4 l       .text.rvtest	00000000 I_or_cg_cp_rs1_b13
00008f93 l       .data	00000000 I_or_cg_cp_rs1_b13_str
000002d0 l       .text.rvtest	00000000 I_or_cg_cp_rs1_b14
00008fc1 l       .data	00000000 I_or_cg_cp_rs1_b14_str
000002fc l       .text.rvtest	00000000 I_or_cg_cp_rs1_b15
00008fef l       .data	00000000 I_or_cg_cp_rs1_b15_str
00000328 l       .text.rvtest	00000000 I_or_cg_cp_rs1_b16
0000901d l       .data	00000000 I_or_cg_cp_rs1_b16_str
00000354 l       .text.rvtest	00000000 I_or_cg_cp_rs1_b17
0000904b l       .data	00000000 I_or_cg_cp_rs1_b17_str
00000380 l       .text.rvtest	00000000 I_or_cg_cp_rs1_b18
00009079 l       .data	00000000 I_or_cg_cp_rs1_b18_str
000003ac l       .text.rvtest	00000000 I_or_cg_cp_rs1_b19
000090a7 l       .data	00000000 I_or_cg_cp_rs1_b19_str
000003d8 l       .text.rvtest	00000000 I_or_cg_cp_rs1_b20
000090d5 l       .data	00000000 I_or_cg_cp_rs1_b20_str
00000404 l       .text.rvtest	00000000 I_or_cg_cp_rs1_b21
00009103 l       .data	00000000 I_or_cg_cp_rs1_b21_str
00000430 l       .text.rvtest	00000000 I_or_cg_cp_rs1_b22
00009131 l       .data	00000000 I_or_cg_cp_rs1_b22_str
0000045c l       .text.rvtest	00000000 I_or_cg_cp_rs1_b23
0000915f l       .data	00000000 I_or_cg_cp_rs1_b23_str
00000488 l       .text.rvtest	00000000 I_or_cg_cp_rs1_b24
0000918d l       .data	00000000 I_or_cg_cp_rs1_b24_str
000004b4 l       .text.rvtest	00000000 I_or_cg_cp_rs1_b25
000091bb l       .data	00000000 I_or_cg_cp_rs1_b25_str
000004e4 l       .text.rvtest	00000000 I_or_cg_cp_rs1_b26
000091e9 l       .data	00000000 I_or_cg_cp_rs1_b26_str
00000514 l       .text.rvtest	00000000 I_or_cg_cp_rs1_b27
00009217 l       .data	00000000 I_or_cg_cp_rs1_b27_str
00000540 l       .text.rvtest	00000000 I_or_cg_cp_rs1_b28
00009245 l       .data	00000000 I_or_cg_cp_rs1_b28_str
0000056c l       .text.rvtest	00000000 I_or_cg_cp_rs1_b29
00009273 l       .data	00000000 I_or_cg_cp_rs1_b29_str
00000598 l       .text.rvtest	00000000 I_or_cg_cp_rs1_b30
000092a1 l       .data	00000000 I_or_cg_cp_rs1_b30_str
000005c4 l       .text.rvtest	00000000 I_or_cg_cp_rs1_b31
000092cf l       .data	00000000 I_or_cg_cp_rs1_b31_str
000005f0 l       .text.rvtest	00000000 I_or_cg_cp_rs2_b0
000092fd l       .data	00000000 I_or_cg_cp_rs2_b0_str
00000620 l       .text.rvtest	00000000 I_or_cg_cp_rs2_b1
0000932a l       .data	00000000 I_or_cg_cp_rs2_b1_str
0000064c l       .text.rvtest	00000000 I_or_cg_cp_rs2_b2
00009357 l       .data	00000000 I_or_cg_cp_rs2_b2_str
00000678 l       .text.rvtest	00000000 I_or_cg_cp_rs2_b3
00009384 l       .data	00000000 I_or_cg_cp_rs2_b3_str
000006ac l       .text.rvtest	00000000 I_or_cg_cp_rs2_b4
000093b1 l       .data	00000000 I_or_cg_cp_rs2_b4_str
000006d8 l       .text.rvtest	00000000 I_or_cg_cp_rs2_b5
000093de l       .data	00000000 I_or_cg_cp_rs2_b5_str
00000704 l       .text.rvtest	00000000 I_or_cg_cp_rs2_b6
0000940b l       .data	00000000 I_or_cg_cp_rs2_b6_str
00000730 l       .text.rvtest	00000000 I_or_cg_cp_rs2_b7
00009438 l       .data	00000000 I_or_cg_cp_rs2_b7_str
0000075c l       .text.rvtest	00000000 I_or_cg_cp_rs2_b8
00009465 l       .data	00000000 I_or_cg_cp_rs2_b8_str
00000788 l       .text.rvtest	00000000 I_or_cg_cp_rs2_b9
00009492 l       .data	00000000 I_or_cg_cp_rs2_b9_str
000007b4 l       .text.rvtest	00000000 I_or_cg_cp_rs2_b10
000094bf l       .data	00000000 I_or_cg_cp_rs2_b10_str
000007e4 l       .text.rvtest	00000000 I_or_cg_cp_rs2_b11
000094ed l       .data	00000000 I_or_cg_cp_rs2_b11_str
00000810 l       .text.rvtest	00000000 I_or_cg_cp_rs2_b12
0000951b l       .data	00000000 I_or_cg_cp_rs2_b12_str
00000844 l       .text.rvtest	00000000 I_or_cg_cp_rs2_b13
000044d4 l       .text.rvtest	00000000 failedtest_x8_x7
00009549 l       .data	00000000 I_or_cg_cp_rs2_b13_str
00000870 l       .text.rvtest	00000000 I_or_cg_cp_rs2_b14
00009577 l       .data	00000000 I_or_cg_cp_rs2_b14_str
0000089c l       .text.rvtest	00000000 I_or_cg_cp_rs2_b15
000095a5 l       .data	00000000 I_or_cg_cp_rs2_b15_str
000008c8 l       .text.rvtest	00000000 I_or_cg_cp_rs2_b16
000095d3 l       .data	00000000 I_or_cg_cp_rs2_b16_str
000008f4 l       .text.rvtest	00000000 I_or_cg_cp_rs2_b17
00009601 l       .data	00000000 I_or_cg_cp_rs2_b17_str
00000920 l       .text.rvtest	00000000 I_or_cg_cp_rs2_b18
0000962f l       .data	00000000 I_or_cg_cp_rs2_b18_str
0000094c l       .text.rvtest	00000000 I_or_cg_cp_rs2_b19
0000965d l       .data	00000000 I_or_cg_cp_rs2_b19_str
00000978 l       .text.rvtest	00000000 I_or_cg_cp_rs2_b20
0000968b l       .data	00000000 I_or_cg_cp_rs2_b20_str
000009a4 l       .text.rvtest	00000000 I_or_cg_cp_rs2_b21
000096b9 l       .data	00000000 I_or_cg_cp_rs2_b21_str
000009d0 l       .text.rvtest	00000000 I_or_cg_cp_rs2_b22
000096e7 l       .data	00000000 I_or_cg_cp_rs2_b22_str
000009fc l       .text.rvtest	00000000 I_or_cg_cp_rs2_b23
00009715 l       .data	00000000 I_or_cg_cp_rs2_b23_str
00000a28 l       .text.rvtest	00000000 I_or_cg_cp_rs2_b24
00009743 l       .data	00000000 I_or_cg_cp_rs2_b24_str
00000a58 l       .text.rvtest	00000000 I_or_cg_cp_rs2_b25
00009771 l       .data	00000000 I_or_cg_cp_rs2_b25_str
00000a84 l       .text.rvtest	00000000 I_or_cg_cp_rs2_b26
0000979f l       .data	00000000 I_or_cg_cp_rs2_b26_str
00000ab0 l       .text.rvtest	00000000 I_or_cg_cp_rs2_b27
000097cd l       .data	00000000 I_or_cg_cp_rs2_b27_str
00000adc l       .text.rvtest	00000000 I_or_cg_cp_rs2_b28
000097fb l       .data	00000000 I_or_cg_cp_rs2_b28_str
00000b08 l       .text.rvtest	00000000 I_or_cg_cp_rs2_b29
00009829 l       .data	00000000 I_or_cg_cp_rs2_b29_str
00000b34 l       .text.rvtest	00000000 I_or_cg_cp_rs2_b30
00009857 l       .data	00000000 I_or_cg_cp_rs2_b30_str
00000b64 l       .text.rvtest	00000000 I_or_cg_cp_rs2_b31
00009885 l       .data	00000000 I_or_cg_cp_rs2_b31_str
00000b90 l       .text.rvtest	00000000 I_or_cg_cp_rd_b0
000098b3 l       .data	00000000 I_or_cg_cp_rd_b0_str
00000bbc l       .text.rvtest	00000000 I_or_cg_cp_rd_b1
000098df l       .data	00000000 I_or_cg_cp_rd_b1_str
00000bec l       .text.rvtest	00000000 I_or_cg_cp_rd_b2
0000990b l       .data	00000000 I_or_cg_cp_rd_b2_str
00000c18 l       .text.rvtest	00000000 I_or_cg_cp_rd_b3
00009937 l       .data	00000000 I_or_cg_cp_rd_b3_str
00000c44 l       .text.rvtest	00000000 I_or_cg_cp_rd_b4
00009963 l       .data	00000000 I_or_cg_cp_rd_b4_str
00000c70 l       .text.rvtest	00000000 I_or_cg_cp_rd_b5
0000998f l       .data	00000000 I_or_cg_cp_rd_b5_str
00000c9c l       .text.rvtest	00000000 I_or_cg_cp_rd_b6
000099bb l       .data	00000000 I_or_cg_cp_rd_b6_str
00000cd0 l       .text.rvtest	00000000 I_or_cg_cp_rd_b7
000099e7 l       .data	00000000 I_or_cg_cp_rd_b7_str
00000cfc l       .text.rvtest	00000000 I_or_cg_cp_rd_b8
00009a13 l       .data	00000000 I_or_cg_cp_rd_b8_str
00000d28 l       .text.rvtest	00000000 I_or_cg_cp_rd_b9
00009a3f l       .data	00000000 I_or_cg_cp_rd_b9_str
00000d54 l       .text.rvtest	00000000 I_or_cg_cp_rd_b10
00009a6b l       .data	00000000 I_or_cg_cp_rd_b10_str
00000d84 l       .text.rvtest	00000000 I_or_cg_cp_rd_b11
00009a98 l       .data	00000000 I_or_cg_cp_rd_b11_str
00000db4 l       .text.rvtest	00000000 I_or_cg_cp_rd_b12
00009ac5 l       .data	00000000 I_or_cg_cp_rd_b12_str
00000de8 l       .text.rvtest	00000000 I_or_cg_cp_rd_b13
00009af2 l       .data	00000000 I_or_cg_cp_rd_b13_str
00000e14 l       .text.rvtest	00000000 I_or_cg_cp_rd_b14
00009b1f l       .data	00000000 I_or_cg_cp_rd_b14_str
00000e40 l       .text.rvtest	00000000 I_or_cg_cp_rd_b15
00009b4c l       .data	00000000 I_or_cg_cp_rd_b15_str
00000e6c l       .text.rvtest	00000000 I_or_cg_cp_rd_b16
00009b79 l       .data	00000000 I_or_cg_cp_rd_b16_str
00000e98 l       .text.rvtest	00000000 I_or_cg_cp_rd_b17
00009ba6 l       .data	00000000 I_or_cg_cp_rd_b17_str
00000ec4 l       .text.rvtest	00000000 I_or_cg_cp_rd_b18
00009bd3 l       .data	00000000 I_or_cg_cp_rd_b18_str
00000ef0 l       .text.rvtest	00000000 I_or_cg_cp_rd_b19
00009c00 l       .data	00000000 I_or_cg_cp_rd_b19_str
00000f20 l       .text.rvtest	00000000 I_or_cg_cp_rd_b20
00009c2d l       .data	00000000 I_or_cg_cp_rd_b20_str
00000f4c l       .text.rvtest	00000000 I_or_cg_cp_rd_b21
00009c5a l       .data	00000000 I_or_cg_cp_rd_b21_str
00000f78 l       .text.rvtest	00000000 I_or_cg_cp_rd_b22
00009c87 l       .data	00000000 I_or_cg_cp_rd_b22_str
00000fa8 l       .text.rvtest	00000000 I_or_cg_cp_rd_b23
00009cb4 l       .data	00000000 I_or_cg_cp_rd_b23_str
00000fd4 l       .text.rvtest	00000000 I_or_cg_cp_rd_b24
00009ce1 l       .data	00000000 I_or_cg_cp_rd_b24_str
00001000 l       .text.rvtest	00000000 I_or_cg_cp_rd_b25
00009d0e l       .data	00000000 I_or_cg_cp_rd_b25_str
0000102c l       .text.rvtest	00000000 I_or_cg_cp_rd_b26
00009d3b l       .data	00000000 I_or_cg_cp_rd_b26_str
00001058 l       .text.rvtest	00000000 I_or_cg_cp_rd_b27
00009d68 l       .data	00000000 I_or_cg_cp_rd_b27_str
00001084 l       .text.rvtest	00000000 I_or_cg_cp_rd_b28
00009d95 l       .data	00000000 I_or_cg_cp_rd_b28_str
000010b0 l       .text.rvtest	00000000 I_or_cg_cp_rd_b29
00009dc2 l       .data	00000000 I_or_cg_cp_rd_b29_str
000010e0 l       .text.rvtest	00000000 I_or_cg_cp_rd_b30
00009def l       .data	00000000 I_or_cg_cp_rd_b30_str
0000110c l       .text.rvtest	00000000 I_or_cg_cp_rd_b31
00009e1c l       .data	00000000 I_or_cg_cp_rd_b31_str
00001138 l       .text.rvtest	00000000 I_or_cg_cp_rs1_edges_0x0
00009e49 l       .data	00000000 I_or_cg_cp_rs1_edges_0x0_str
00001164 l       .text.rvtest	00000000 I_or_cg_cp_rs1_edges_0x1
00009e7d l       .data	00000000 I_or_cg_cp_rs1_edges_0x1_str
00001190 l       .text.rvtest	00000000 I_or_cg_cp_rs1_edges_0x2
00009eb1 l       .data	00000000 I_or_cg_cp_rs1_edges_0x2_str
000011bc l       .text.rvtest	00000000 I_or_cg_cp_rs1_edges_0x80000000
00009ee5 l       .data	00000000 I_or_cg_cp_rs1_edges_0x80000000_str
000011e8 l       .text.rvtest	00000000 I_or_cg_cp_rs1_edges_0x80000001
00009f21 l       .data	00000000 I_or_cg_cp_rs1_edges_0x80000001_str
00001214 l       .text.rvtest	00000000 I_or_cg_cp_rs1_edges_0x7fffffff
00009f5d l       .data	00000000 I_or_cg_cp_rs1_edges_0x7fffffff_str
00001240 l       .text.rvtest	00000000 I_or_cg_cp_rs1_edges_0x7ffffffe
00009f99 l       .data	00000000 I_or_cg_cp_rs1_edges_0x7ffffffe_str
0000126c l       .text.rvtest	00000000 I_or_cg_cp_rs1_edges_0xffffffff
00009fd5 l       .data	00000000 I_or_cg_cp_rs1_edges_0xffffffff_str
00001298 l       .text.rvtest	00000000 I_or_cg_cp_rs1_edges_0xfffffffe
0000a011 l       .data	00000000 I_or_cg_cp_rs1_edges_0xfffffffe_str
000012c4 l       .text.rvtest	00000000 I_or_cg_cp_rs1_edges_0x5bbc8872
0000a04d l       .data	00000000 I_or_cg_cp_rs1_edges_0x5bbc8872_str
000012f0 l       .text.rvtest	00000000 I_or_cg_cp_rs1_edges_0xaaaaaaaa
0000a089 l       .data	00000000 I_or_cg_cp_rs1_edges_0xaaaaaaaa_str
0000131c l       .text.rvtest	00000000 I_or_cg_cp_rs1_edges_0x55555555
0000a0c5 l       .data	00000000 I_or_cg_cp_rs1_edges_0x55555555_str
00001348 l       .text.rvtest	00000000 I_or_cg_cp_rs2_edges_0x0
0000a101 l       .data	00000000 I_or_cg_cp_rs2_edges_0x0_str
00001374 l       .text.rvtest	00000000 I_or_cg_cp_rs2_edges_0x1
0000a136 l       .data	00000000 I_or_cg_cp_rs2_edges_0x1_str
000013a0 l       .text.rvtest	00000000 I_or_cg_cp_rs2_edges_0x2
0000a16b l       .data	00000000 I_or_cg_cp_rs2_edges_0x2_str
000013cc l       .text.rvtest	00000000 I_or_cg_cp_rs2_edges_0x80000000
0000a1a0 l       .data	00000000 I_or_cg_cp_rs2_edges_0x80000000_str
000013f8 l       .text.rvtest	00000000 I_or_cg_cp_rs2_edges_0x80000001
0000a1dc l       .data	00000000 I_or_cg_cp_rs2_edges_0x80000001_str
00001424 l       .text.rvtest	00000000 I_or_cg_cp_rs2_edges_0x7fffffff
0000a218 l       .data	00000000 I_or_cg_cp_rs2_edges_0x7fffffff_str
00001450 l       .text.rvtest	00000000 I_or_cg_cp_rs2_edges_0x7ffffffe
0000a254 l       .data	00000000 I_or_cg_cp_rs2_edges_0x7ffffffe_str
0000147c l       .text.rvtest	00000000 I_or_cg_cp_rs2_edges_0xffffffff
0000a290 l       .data	00000000 I_or_cg_cp_rs2_edges_0xffffffff_str
000014a8 l       .text.rvtest	00000000 I_or_cg_cp_rs2_edges_0xfffffffe
0000a2cc l       .data	00000000 I_or_cg_cp_rs2_edges_0xfffffffe_str
000014d4 l       .text.rvtest	00000000 I_or_cg_cp_rs2_edges_0x5bbc8872
0000a308 l       .data	00000000 I_or_cg_cp_rs2_edges_0x5bbc8872_str
00001500 l       .text.rvtest	00000000 I_or_cg_cp_rs2_edges_0xaaaaaaaa
0000a344 l       .data	00000000 I_or_cg_cp_rs2_edges_0xaaaaaaaa_str
0000152c l       .text.rvtest	00000000 I_or_cg_cp_rs2_edges_0x55555555
0000a380 l       .data	00000000 I_or_cg_cp_rs2_edges_0x55555555_str
00001558 l       .text.rvtest	00000000 I_or_cg_cr_rs1_rs2_edges_rs1val_0x0_rs2val_0x0
0000a3bc l       .data	00000000 I_or_cg_cr_rs1_rs2_edges_rs1val_0x0_rs2val_0x0_str
00001584 l       .text.rvtest	00000000 I_or_cg_cr_rs1_rs2_edges_rs1val_0x0_rs2val_0x1
0000a408 l       .data	00000000 I_or_cg_cr_rs1_rs2_edges_rs1val_0x0_rs2val_0x1_str
000015b0 l       .text.rvtest	00000000 I_or_cg_cr_rs1_rs2_edges_rs1val_0x0_rs2val_0x2
0000a454 l       .data	00000000 I_or_cg_cr_rs1_rs2_edges_rs1val_0x0_rs2val_0x2_str
000015dc l       .text.rvtest	00000000 I_or_cg_cr_rs1_rs2_edges_rs1val_0x0_rs2val_0x80000000
0000a4a0 l       .data	00000000 I_or_cg_cr_rs1_rs2_edges_rs1val_0x0_rs2val_0x80000000_str
00001608 l       .text.rvtest	00000000 I_or_cg_cr_rs1_rs2_edges_rs1val_0x0_rs2val_0x80000001
0000a4f3 l       .data	00000000 I_or_cg_cr_rs1_rs2_edges_rs1val_0x0_rs2val_0x80000001_str
00001634 l       .text.rvtest	00000000 I_or_cg_cr_rs1_rs2_edges_rs1val_0x0_rs2val_0x7fffffff
0000a546 l       .data	00000000 I_or_cg_cr_rs1_rs2_edges_rs1val_0x0_rs2val_0x7fffffff_str
00001660 l       .text.rvtest	00000000 I_or_cg_cr_rs1_rs2_edges_rs1val_0x0_rs2val_0x7ffffffe
0000a599 l       .data	00000000 I_or_cg_cr_rs1_rs2_edges_rs1val_0x0_rs2val_0x7ffffffe_str
0000168c l       .text.rvtest	00000000 I_or_cg_cr_rs1_rs2_edges_rs1val_0x0_rs2val_0xffffffff
0000a5ec l       .data	00000000 I_or_cg_cr_rs1_rs2_edges_rs1val_0x0_rs2val_0xffffffff_str
000016b8 l       .text.rvtest	00000000 I_or_cg_cr_rs1_rs2_edges_rs1val_0x0_rs2val_0xfffffffe
0000a63f l       .data	00000000 I_or_cg_cr_rs1_rs2_edges_rs1val_0x0_rs2val_0xfffffffe_str
000016e4 l       .text.rvtest	00000000 I_or_cg_cr_rs1_rs2_edges_rs1val_0x0_rs2val_0x5bbc8872
0000a692 l       .data	00000000 I_or_cg_cr_rs1_rs2_edges_rs1val_0x0_rs2val_0x5bbc8872_str
00001710 l       .text.rvtest	00000000 I_or_cg_cr_rs1_rs2_edges_rs1val_0x0_rs2val_0xaaaaaaaa
0000a6e5 l       .data	00000000 I_or_cg_cr_rs1_rs2_edges_rs1val_0x0_rs2val_0xaaaaaaaa_str
0000173c l       .text.rvtest	00000000 I_or_cg_cr_rs1_rs2_edges_rs1val_0x0_rs2val_0x55555555
0000a738 l       .data	00000000 I_or_cg_cr_rs1_rs2_edges_rs1val_0x0_rs2val_0x55555555_str
00001768 l       .text.rvtest	00000000 I_or_cg_cr_rs1_rs2_edges_rs1val_0x1_rs2val_0x0
0000a78b l       .data	00000000 I_or_cg_cr_rs1_rs2_edges_rs1val_0x1_rs2val_0x0_str
00001794 l       .text.rvtest	00000000 I_or_cg_cr_rs1_rs2_edges_rs1val_0x1_rs2val_0x1
0000a7d7 l       .data	00000000 I_or_cg_cr_rs1_rs2_edges_rs1val_0x1_rs2val_0x1_str
000017c0 l       .text.rvtest	00000000 I_or_cg_cr_rs1_rs2_edges_rs1val_0x1_rs2val_0x2
0000a823 l       .data	00000000 I_or_cg_cr_rs1_rs2_edges_rs1val_0x1_rs2val_0x2_str
000017ec l       .text.rvtest	00000000 I_or_cg_cr_rs1_rs2_edges_rs1val_0x1_rs2val_0x80000000
0000a86f l       .data	00000000 I_or_cg_cr_rs1_rs2_edges_rs1val_0x1_rs2val_0x80000000_str
00001818 l       .text.rvtest	00000000 I_or_cg_cr_rs1_rs2_edges_rs1val_0x1_rs2val_0x80000001
0000a8c2 l       .data	00000000 I_or_cg_cr_rs1_rs2_edges_rs1val_0x1_rs2val_0x80000001_str
00001844 l       .text.rvtest	00000000 I_or_cg_cr_rs1_rs2_edges_rs1val_0x1_rs2val_0x7fffffff
0000a915 l       .data	00000000 I_or_cg_cr_rs1_rs2_edges_rs1val_0x1_rs2val_0x7fffffff_str
00001870 l       .text.rvtest	00000000 I_or_cg_cr_rs1_rs2_edges_rs1val_0x1_rs2val_0x7ffffffe
0000a968 l       .data	00000000 I_or_cg_cr_rs1_rs2_edges_rs1val_0x1_rs2val_0x7ffffffe_str
0000189c l       .text.rvtest	00000000 I_or_cg_cr_rs1_rs2_edges_rs1val_0x1_rs2val_0xffffffff
0000a9bb l       .data	00000000 I_or_cg_cr_rs1_rs2_edges_rs1val_0x1_rs2val_0xffffffff_str
000018c8 l       .text.rvtest	00000000 I_or_cg_cr_rs1_rs2_edges_rs1val_0x1_rs2val_0xfffffffe
0000aa0e l       .data	00000000 I_or_cg_cr_rs1_rs2_edges_rs1val_0x1_rs2val_0xfffffffe_str
000018f4 l       .text.rvtest	00000000 I_or_cg_cr_rs1_rs2_edges_rs1val_0x1_rs2val_0x5bbc8872
0000aa61 l       .data	00000000 I_or_cg_cr_rs1_rs2_edges_rs1val_0x1_rs2val_0x5bbc8872_str
00001920 l       .text.rvtest	00000000 I_or_cg_cr_rs1_rs2_edges_rs1val_0x1_rs2val_0xaaaaaaaa
0000aab4 l       .data	00000000 I_or_cg_cr_rs1_rs2_edges_rs1val_0x1_rs2val_0xaaaaaaaa_str
0000194c l       .text.rvtest	00000000 I_or_cg_cr_rs1_rs2_edges_rs1val_0x1_rs2val_0x55555555
0000ab07 l       .data	00000000 I_or_cg_cr_rs1_rs2_edges_rs1val_0x1_rs2val_0x55555555_str
00001978 l       .text.rvtest	00000000 I_or_cg_cr_rs1_rs2_edges_rs1val_0x2_rs2val_0x0
0000ab5a l       .data	00000000 I_or_cg_cr_rs1_rs2_edges_rs1val_0x2_rs2val_0x0_str
000019a4 l       .text.rvtest	00000000 I_or_cg_cr_rs1_rs2_edges_rs1val_0x2_rs2val_0x1
0000aba6 l       .data	00000000 I_or_cg_cr_rs1_rs2_edges_rs1val_0x2_rs2val_0x1_str
000019d0 l       .text.rvtest	00000000 I_or_cg_cr_rs1_rs2_edges_rs1val_0x2_rs2val_0x2
0000abf2 l       .data	00000000 I_or_cg_cr_rs1_rs2_edges_rs1val_0x2_rs2val_0x2_str
000019fc l       .text.rvtest	00000000 I_or_cg_cr_rs1_rs2_edges_rs1val_0x2_rs2val_0x80000000
0000ac3e l       .data	00000000 I_or_cg_cr_rs1_rs2_edges_rs1val_0x2_rs2val_0x80000000_str
00001a28 l       .text.rvtest	00000000 I_or_cg_cr_rs1_rs2_edges_rs1val_0x2_rs2val_0x80000001
0000ac91 l       .data	00000000 I_or_cg_cr_rs1_rs2_edges_rs1val_0x2_rs2val_0x80000001_str
00001a54 l       .text.rvtest	00000000 I_or_cg_cr_rs1_rs2_edges_rs1val_0x2_rs2val_0x7fffffff
0000ace4 l       .data	00000000 I_or_cg_cr_rs1_rs2_edges_rs1val_0x2_rs2val_0x7fffffff_str
00001a80 l       .text.rvtest	00000000 I_or_cg_cr_rs1_rs2_edges_rs1val_0x2_rs2val_0x7ffffffe
0000ad37 l       .data	00000000 I_or_cg_cr_rs1_rs2_edges_rs1val_0x2_rs2val_0x7ffffffe_str
00001aac l       .text.rvtest	00000000 I_or_cg_cr_rs1_rs2_edges_rs1val_0x2_rs2val_0xffffffff
0000ad8a l       .data	00000000 I_or_cg_cr_rs1_rs2_edges_rs1val_0x2_rs2val_0xffffffff_str
00001ad8 l       .text.rvtest	00000000 I_or_cg_cr_rs1_rs2_edges_rs1val_0x2_rs2val_0xfffffffe
0000addd l       .data	00000000 I_or_cg_cr_rs1_rs2_edges_rs1val_0x2_rs2val_0xfffffffe_str
00001b04 l       .text.rvtest	00000000 I_or_cg_cr_rs1_rs2_edges_rs1val_0x2_rs2val_0x5bbc8872
0000ae30 l       .data	00000000 I_or_cg_cr_rs1_rs2_edges_rs1val_0x2_rs2val_0x5bbc8872_str
00001b30 l       .text.rvtest	00000000 I_or_cg_cr_rs1_rs2_edges_rs1val_0x2_rs2val_0xaaaaaaaa
0000ae83 l       .data	00000000 I_or_cg_cr_rs1_rs2_edges_rs1val_0x2_rs2val_0xaaaaaaaa_str
00001b5c l       .text.rvtest	00000000 I_or_cg_cr_rs1_rs2_edges_rs1val_0x2_rs2val_0x55555555
0000aed6 l       .data	00000000 I_or_cg_cr_rs1_rs2_edges_rs1val_0x2_rs2val_0x55555555_str
00001b88 l       .text.rvtest	00000000 I_or_cg_cr_rs1_rs2_edges_rs1val_0x80000000_rs2val_0x0
0000af29 l       .data	00000000 I_or_cg_cr_rs1_rs2_edges_rs1val_0x80000000_rs2val_0x0_str
00001bb4 l       .text.rvtest	00000000 I_or_cg_cr_rs1_rs2_edges_rs1val_0x80000000_rs2val_0x1
0000af7c l       .data	00000000 I_or_cg_cr_rs1_rs2_edges_rs1val_0x80000000_rs2val_0x1_str
00001be0 l       .text.rvtest	00000000 I_or_cg_cr_rs1_rs2_edges_rs1val_0x80000000_rs2val_0x2
0000afcf l       .data	00000000 I_or_cg_cr_rs1_rs2_edges_rs1val_0x80000000_rs2val_0x2_str
00001c0c l       .text.rvtest	00000000 I_or_cg_cr_rs1_rs2_edges_rs1val_0x80000000_rs2val_0x80000000
0000b022 l       .data	00000000 I_or_cg_cr_rs1_rs2_edges_rs1val_0x80000000_rs2val_0x80000000_str
00001c38 l       .text.rvtest	00000000 I_or_cg_cr_rs1_rs2_edges_rs1val_0x80000000_rs2val_0x80000001
0000b07c l       .data	00000000 I_or_cg_cr_rs1_rs2_edges_rs1val_0x80000000_rs2val_0x80000001_str
00001c64 l       .text.rvtest	00000000 I_or_cg_cr_rs1_rs2_edges_rs1val_0x80000000_rs2val_0x7fffffff
0000b0d6 l       .data	00000000 I_or_cg_cr_rs1_rs2_edges_rs1val_0x80000000_rs2val_0x7fffffff_str
00001c90 l       .text.rvtest	00000000 I_or_cg_cr_rs1_rs2_edges_rs1val_0x80000000_rs2val_0x7ffffffe
0000b130 l       .data	00000000 I_or_cg_cr_rs1_rs2_edges_rs1val_0x80000000_rs2val_0x7ffffffe_str
00001cbc l       .text.rvtest	00000000 I_or_cg_cr_rs1_rs2_edges_rs1val_0x80000000_rs2val_0xffffffff
0000b18a l       .data	00000000 I_or_cg_cr_rs1_rs2_edges_rs1val_0x80000000_rs2val_0xffffffff_str
00001ce8 l       .text.rvtest	00000000 I_or_cg_cr_rs1_rs2_edges_rs1val_0x80000000_rs2val_0xfffffffe
0000b1e4 l       .data	00000000 I_or_cg_cr_rs1_rs2_edges_rs1val_0x80000000_rs2val_0xfffffffe_str
00001d14 l       .text.rvtest	00000000 I_or_cg_cr_rs1_rs2_edges_rs1val_0x80000000_rs2val_0x5bbc8872
0000b23e l       .data	00000000 I_or_cg_cr_rs1_rs2_edges_rs1val_0x80000000_rs2val_0x5bbc8872_str
00001d40 l       .text.rvtest	00000000 I_or_cg_cr_rs1_rs2_edges_rs1val_0x80000000_rs2val_0xaaaaaaaa
0000b298 l       .data	00000000 I_or_cg_cr_rs1_rs2_edges_rs1val_0x80000000_rs2val_0xaaaaaaaa_str
00001d6c l       .text.rvtest	00000000 I_or_cg_cr_rs1_rs2_edges_rs1val_0x80000000_rs2val_0x55555555
0000b2f2 l       .data	00000000 I_or_cg_cr_rs1_rs2_edges_rs1val_0x80000000_rs2val_0x55555555_str
00001d98 l       .text.rvtest	00000000 I_or_cg_cr_rs1_rs2_edges_rs1val_0x80000001_rs2val_0x0
0000b34c l       .data	00000000 I_or_cg_cr_rs1_rs2_edges_rs1val_0x80000001_rs2val_0x0_str
00001dc4 l       .text.rvtest	00000000 I_or_cg_cr_rs1_rs2_edges_rs1val_0x80000001_rs2val_0x1
0000b39f l       .data	00000000 I_or_cg_cr_rs1_rs2_edges_rs1val_0x80000001_rs2val_0x1_str
00001df0 l       .text.rvtest	00000000 I_or_cg_cr_rs1_rs2_edges_rs1val_0x80000001_rs2val_0x2
0000b3f2 l       .data	00000000 I_or_cg_cr_rs1_rs2_edges_rs1val_0x80000001_rs2val_0x2_str
00001e1c l       .text.rvtest	00000000 I_or_cg_cr_rs1_rs2_edges_rs1val_0x80000001_rs2val_0x80000000
0000b445 l       .data	00000000 I_or_cg_cr_rs1_rs2_edges_rs1val_0x80000001_rs2val_0x80000000_str
00001e48 l       .text.rvtest	00000000 I_or_cg_cr_rs1_rs2_edges_rs1val_0x80000001_rs2val_0x80000001
0000b49f l       .data	00000000 I_or_cg_cr_rs1_rs2_edges_rs1val_0x80000001_rs2val_0x80000001_str
00001e74 l       .text.rvtest	00000000 I_or_cg_cr_rs1_rs2_edges_rs1val_0x80000001_rs2val_0x7fffffff
0000b4f9 l       .data	00000000 I_or_cg_cr_rs1_rs2_edges_rs1val_0x80000001_rs2val_0x7fffffff_str
00001ea0 l       .text.rvtest	00000000 I_or_cg_cr_rs1_rs2_edges_rs1val_0x80000001_rs2val_0x7ffffffe
0000b553 l       .data	00000000 I_or_cg_cr_rs1_rs2_edges_rs1val_0x80000001_rs2val_0x7ffffffe_str
00001ecc l       .text.rvtest	00000000 I_or_cg_cr_rs1_rs2_edges_rs1val_0x80000001_rs2val_0xffffffff
0000b5ad l       .data	00000000 I_or_cg_cr_rs1_rs2_edges_rs1val_0x80000001_rs2val_0xffffffff_str
00001ef8 l       .text.rvtest	00000000 I_or_cg_cr_rs1_rs2_edges_rs1val_0x80000001_rs2val_0xfffffffe
0000b607 l       .data	00000000 I_or_cg_cr_rs1_rs2_edges_rs1val_0x80000001_rs2val_0xfffffffe_str
00001f24 l       .text.rvtest	00000000 I_or_cg_cr_rs1_rs2_edges_rs1val_0x80000001_rs2val_0x5bbc8872
0000b661 l       .data	00000000 I_or_cg_cr_rs1_rs2_edges_rs1val_0x80000001_rs2val_0x5bbc8872_str
00001f50 l       .text.rvtest	00000000 I_or_cg_cr_rs1_rs2_edges_rs1val_0x80000001_rs2val_0xaaaaaaaa
0000b6bb l       .data	00000000 I_or_cg_cr_rs1_rs2_edges_rs1val_0x80000001_rs2val_0xaaaaaaaa_str
00001f7c l       .text.rvtest	00000000 I_or_cg_cr_rs1_rs2_edges_rs1val_0x80000001_rs2val_0x55555555
0000b715 l       .data	00000000 I_or_cg_cr_rs1_rs2_edges_rs1val_0x80000001_rs2val_0x55555555_str
00001fa8 l       .text.rvtest	00000000 I_or_cg_cr_rs1_rs2_edges_rs1val_0x7fffffff_rs2val_0x0
0000b76f l       .data	00000000 I_or_cg_cr_rs1_rs2_edges_rs1val_0x7fffffff_rs2val_0x0_str
00001fd4 l       .text.rvtest	00000000 I_or_cg_cr_rs1_rs2_edges_rs1val_0x7fffffff_rs2val_0x1
0000b7c2 l       .data	00000000 I_or_cg_cr_rs1_rs2_edges_rs1val_0x7fffffff_rs2val_0x1_str
00002000 l       .text.rvtest	00000000 I_or_cg_cr_rs1_rs2_edges_rs1val_0x7fffffff_rs2val_0x2
0000b815 l       .data	00000000 I_or_cg_cr_rs1_rs2_edges_rs1val_0x7fffffff_rs2val_0x2_str
0000202c l       .text.rvtest	00000000 I_or_cg_cr_rs1_rs2_edges_rs1val_0x7fffffff_rs2val_0x80000000
0000b868 l       .data	00000000 I_or_cg_cr_rs1_rs2_edges_rs1val_0x7fffffff_rs2val_0x80000000_str
00002058 l       .text.rvtest	00000000 I_or_cg_cr_rs1_rs2_edges_rs1val_0x7fffffff_rs2val_0x80000001
0000b8c2 l       .data	00000000 I_or_cg_cr_rs1_rs2_edges_rs1val_0x7fffffff_rs2val_0x80000001_str
00002084 l       .text.rvtest	00000000 I_or_cg_cr_rs1_rs2_edges_rs1val_0x7fffffff_rs2val_0x7fffffff
0000b91c l       .data	00000000 I_or_cg_cr_rs1_rs2_edges_rs1val_0x7fffffff_rs2val_0x7fffffff_str
000020b0 l       .text.rvtest	00000000 I_or_cg_cr_rs1_rs2_edges_rs1val_0x7fffffff_rs2val_0x7ffffffe
0000b976 l       .data	00000000 I_or_cg_cr_rs1_rs2_edges_rs1val_0x7fffffff_rs2val_0x7ffffffe_str
000020dc l       .text.rvtest	00000000 I_or_cg_cr_rs1_rs2_edges_rs1val_0x7fffffff_rs2val_0xffffffff
0000b9d0 l       .data	00000000 I_or_cg_cr_rs1_rs2_edges_rs1val_0x7fffffff_rs2val_0xffffffff_str
00002108 l       .text.rvtest	00000000 I_or_cg_cr_rs1_rs2_edges_rs1val_0x7fffffff_rs2val_0xfffffffe
0000ba2a l       .data	00000000 I_or_cg_cr_rs1_rs2_edges_rs1val_0x7fffffff_rs2val_0xfffffffe_str
00002134 l       .text.rvtest	00000000 I_or_cg_cr_rs1_rs2_edges_rs1val_0x7fffffff_rs2val_0x5bbc8872
0000ba84 l       .data	00000000 I_or_cg_cr_rs1_rs2_edges_rs1val_0x7fffffff_rs2val_0x5bbc8872_str
00002160 l       .text.rvtest	00000000 I_or_cg_cr_rs1_rs2_edges_rs1val_0x7fffffff_rs2val_0xaaaaaaaa
0000bade l       .data	00000000 I_or_cg_cr_rs1_rs2_edges_rs1val_0x7fffffff_rs2val_0xaaaaaaaa_str
0000218c l       .text.rvtest	00000000 I_or_cg_cr_rs1_rs2_edges_rs1val_0x7fffffff_rs2val_0x55555555
0000bb38 l       .data	00000000 I_or_cg_cr_rs1_rs2_edges_rs1val_0x7fffffff_rs2val_0x55555555_str
000021b8 l       .text.rvtest	00000000 I_or_cg_cr_rs1_rs2_edges_rs1val_0x7ffffffe_rs2val_0x0
0000bb92 l       .data	00000000 I_or_cg_cr_rs1_rs2_edges_rs1val_0x7ffffffe_rs2val_0x0_str
000021e4 l       .text.rvtest	00000000 I_or_cg_cr_rs1_rs2_edges_rs1val_0x7ffffffe_rs2val_0x1
0000bbe5 l       .data	00000000 I_or_cg_cr_rs1_rs2_edges_rs1val_0x7ffffffe_rs2val_0x1_str
00002210 l       .text.rvtest	00000000 I_or_cg_cr_rs1_rs2_edges_rs1val_0x7ffffffe_rs2val_0x2
0000bc38 l       .data	00000000 I_or_cg_cr_rs1_rs2_edges_rs1val_0x7ffffffe_rs2val_0x2_str
0000223c l       .text.rvtest	00000000 I_or_cg_cr_rs1_rs2_edges_rs1val_0x7ffffffe_rs2val_0x80000000
0000bc8b l       .data	00000000 I_or_cg_cr_rs1_rs2_edges_rs1val_0x7ffffffe_rs2val_0x80000000_str
00002268 l       .text.rvtest	00000000 I_or_cg_cr_rs1_rs2_edges_rs1val_0x7ffffffe_rs2val_0x80000001
0000bce5 l       .data	00000000 I_or_cg_cr_rs1_rs2_edges_rs1val_0x7ffffffe_rs2val_0x80000001_str
00002294 l       .text.rvtest	00000000 I_or_cg_cr_rs1_rs2_edges_rs1val_0x7ffffffe_rs2val_0x7fffffff
0000bd3f l       .data	00000000 I_or_cg_cr_rs1_rs2_edges_rs1val_0x7ffffffe_rs2val_0x7fffffff_str
000022c0 l       .text.rvtest	00000000 I_or_cg_cr_rs1_rs2_edges_rs1val_0x7ffffffe_rs2val_0x7ffffffe
0000bd99 l       .data	00000000 I_or_cg_cr_rs1_rs2_edges_rs1val_0x7ffffffe_rs2val_0x7ffffffe_str
000022ec l       .text.rvtest	00000000 I_or_cg_cr_rs1_rs2_edges_rs1val_0x7ffffffe_rs2val_0xffffffff
0000bdf3 l       .data	00000000 I_or_cg_cr_rs1_rs2_edges_rs1val_0x7ffffffe_rs2val_0xffffffff_str
00002318 l       .text.rvtest	00000000 I_or_cg_cr_rs1_rs2_edges_rs1val_0x7ffffffe_rs2val_0xfffffffe
0000be4d l       .data	00000000 I_or_cg_cr_rs1_rs2_edges_rs1val_0x7ffffffe_rs2val_0xfffffffe_str
00002344 l       .text.rvtest	00000000 I_or_cg_cr_rs1_rs2_edges_rs1val_0x7ffffffe_rs2val_0x5bbc8872
0000bea7 l       .data	00000000 I_or_cg_cr_rs1_rs2_edges_rs1val_0x7ffffffe_rs2val_0x5bbc8872_str
00002370 l       .text.rvtest	00000000 I_or_cg_cr_rs1_rs2_edges_rs1val_0x7ffffffe_rs2val_0xaaaaaaaa
0000bf01 l       .data	00000000 I_or_cg_cr_rs1_rs2_edges_rs1val_0x7ffffffe_rs2val_0xaaaaaaaa_str
0000239c l       .text.rvtest	00000000 I_or_cg_cr_rs1_rs2_edges_rs1val_0x7ffffffe_rs2val_0x55555555
0000bf5b l       .data	00000000 I_or_cg_cr_rs1_rs2_edges_rs1val_0x7ffffffe_rs2val_0x55555555_str
000023c8 l       .text.rvtest	00000000 I_or_cg_cr_rs1_rs2_edges_rs1val_0xffffffff_rs2val_0x0
0000bfb5 l       .data	00000000 I_or_cg_cr_rs1_rs2_edges_rs1val_0xffffffff_rs2val_0x0_str
000023f4 l       .text.rvtest	00000000 I_or_cg_cr_rs1_rs2_edges_rs1val_0xffffffff_rs2val_0x1
0000c008 l       .data	00000000 I_or_cg_cr_rs1_rs2_edges_rs1val_0xffffffff_rs2val_0x1_str
00002420 l       .text.rvtest	00000000 I_or_cg_cr_rs1_rs2_edges_rs1val_0xffffffff_rs2val_0x2
0000c05b l       .data	00000000 I_or_cg_cr_rs1_rs2_edges_rs1val_0xffffffff_rs2val_0x2_str
0000244c l       .text.rvtest	00000000 I_or_cg_cr_rs1_rs2_edges_rs1val_0xffffffff_rs2val_0x80000000
0000c0ae l       .data	00000000 I_or_cg_cr_rs1_rs2_edges_rs1val_0xffffffff_rs2val_0x80000000_str
00002478 l       .text.rvtest	00000000 I_or_cg_cr_rs1_rs2_edges_rs1val_0xffffffff_rs2val_0x80000001
0000c108 l       .data	00000000 I_or_cg_cr_rs1_rs2_edges_rs1val_0xffffffff_rs2val_0x80000001_str
000024a4 l       .text.rvtest	00000000 I_or_cg_cr_rs1_rs2_edges_rs1val_0xffffffff_rs2val_0x7fffffff
0000c162 l       .data	00000000 I_or_cg_cr_rs1_rs2_edges_rs1val_0xffffffff_rs2val_0x7fffffff_str
000024d0 l       .text.rvtest	00000000 I_or_cg_cr_rs1_rs2_edges_rs1val_0xffffffff_rs2val_0x7ffffffe
0000c1bc l       .data	00000000 I_or_cg_cr_rs1_rs2_edges_rs1val_0xffffffff_rs2val_0x7ffffffe_str
000024fc l       .text.rvtest	00000000 I_or_cg_cr_rs1_rs2_edges_rs1val_0xffffffff_rs2val_0xffffffff
0000c216 l       .data	00000000 I_or_cg_cr_rs1_rs2_edges_rs1val_0xffffffff_rs2val_0xffffffff_str
00002528 l       .text.rvtest	00000000 I_or_cg_cr_rs1_rs2_edges_rs1val_0xffffffff_rs2val_0xfffffffe
0000c270 l       .data	00000000 I_or_cg_cr_rs1_rs2_edges_rs1val_0xffffffff_rs2val_0xfffffffe_str
00002554 l       .text.rvtest	00000000 I_or_cg_cr_rs1_rs2_edges_rs1val_0xffffffff_rs2val_0x5bbc8872
0000c2ca l       .data	00000000 I_or_cg_cr_rs1_rs2_edges_rs1val_0xffffffff_rs2val_0x5bbc8872_str
00002580 l       .text.rvtest	00000000 I_or_cg_cr_rs1_rs2_edges_rs1val_0xffffffff_rs2val_0xaaaaaaaa
0000c324 l       .data	00000000 I_or_cg_cr_rs1_rs2_edges_rs1val_0xffffffff_rs2val_0xaaaaaaaa_str
000025ac l       .text.rvtest	00000000 I_or_cg_cr_rs1_rs2_edges_rs1val_0xffffffff_rs2val_0x55555555
0000c37e l       .data	00000000 I_or_cg_cr_rs1_rs2_edges_rs1val_0xffffffff_rs2val_0x55555555_str
000025d8 l       .text.rvtest	00000000 I_or_cg_cr_rs1_rs2_edges_rs1val_0xfffffffe_rs2val_0x0
0000c3d8 l       .data	00000000 I_or_cg_cr_rs1_rs2_edges_rs1val_0xfffffffe_rs2val_0x0_str
00002604 l       .text.rvtest	00000000 I_or_cg_cr_rs1_rs2_edges_rs1val_0xfffffffe_rs2val_0x1
0000c42b l       .data	00000000 I_or_cg_cr_rs1_rs2_edges_rs1val_0xfffffffe_rs2val_0x1_str
00002630 l       .text.rvtest	00000000 I_or_cg_cr_rs1_rs2_edges_rs1val_0xfffffffe_rs2val_0x2
0000c47e l       .data	00000000 I_or_cg_cr_rs1_rs2_edges_rs1val_0xfffffffe_rs2val_0x2_str
0000265c l       .text.rvtest	00000000 I_or_cg_cr_rs1_rs2_edges_rs1val_0xfffffffe_rs2val_0x80000000
0000c4d1 l       .data	00000000 I_or_cg_cr_rs1_rs2_edges_rs1val_0xfffffffe_rs2val_0x80000000_str
00002688 l       .text.rvtest	00000000 I_or_cg_cr_rs1_rs2_edges_rs1val_0xfffffffe_rs2val_0x80000001
0000c52b l       .data	00000000 I_or_cg_cr_rs1_rs2_edges_rs1val_0xfffffffe_rs2val_0x80000001_str
000026b4 l       .text.rvtest	00000000 I_or_cg_cr_rs1_rs2_edges_rs1val_0xfffffffe_rs2val_0x7fffffff
0000c585 l       .data	00000000 I_or_cg_cr_rs1_rs2_edges_rs1val_0xfffffffe_rs2val_0x7fffffff_str
000026e0 l       .text.rvtest	00000000 I_or_cg_cr_rs1_rs2_edges_rs1val_0xfffffffe_rs2val_0x7ffffffe
0000c5df l       .data	00000000 I_or_cg_cr_rs1_rs2_edges_rs1val_0xfffffffe_rs2val_0x7ffffffe_str
0000270c l       .text.rvtest	00000000 I_or_cg_cr_rs1_rs2_edges_rs1val_0xfffffffe_rs2val_0xffffffff
0000c639 l       .data	00000000 I_or_cg_cr_rs1_rs2_edges_rs1val_0xfffffffe_rs2val_0xffffffff_str
00002738 l       .text.rvtest	00000000 I_or_cg_cr_rs1_rs2_edges_rs1val_0xfffffffe_rs2val_0xfffffffe
0000c693 l       .data	00000000 I_or_cg_cr_rs1_rs2_edges_rs1val_0xfffffffe_rs2val_0xfffffffe_str
00002764 l       .text.rvtest	00000000 I_or_cg_cr_rs1_rs2_edges_rs1val_0xfffffffe_rs2val_0x5bbc8872
0000c6ed l       .data	00000000 I_or_cg_cr_rs1_rs2_edges_rs1val_0xfffffffe_rs2val_0x5bbc8872_str
00002790 l       .text.rvtest	00000000 I_or_cg_cr_rs1_rs2_edges_rs1val_0xfffffffe_rs2val_0xaaaaaaaa
0000c747 l       .data	00000000 I_or_cg_cr_rs1_rs2_edges_rs1val_0xfffffffe_rs2val_0xaaaaaaaa_str
000027bc l       .text.rvtest	00000000 I_or_cg_cr_rs1_rs2_edges_rs1val_0xfffffffe_rs2val_0x55555555
0000c7a1 l       .data	00000000 I_or_cg_cr_rs1_rs2_edges_rs1val_0xfffffffe_rs2val_0x55555555_str
000027e8 l       .text.rvtest	00000000 I_or_cg_cr_rs1_rs2_edges_rs1val_0x5bbc8872_rs2val_0x0
0000c7fb l       .data	00000000 I_or_cg_cr_rs1_rs2_edges_rs1val_0x5bbc8872_rs2val_0x0_str
00002814 l       .text.rvtest	00000000 I_or_cg_cr_rs1_rs2_edges_rs1val_0x5bbc8872_rs2val_0x1
0000c84e l       .data	00000000 I_or_cg_cr_rs1_rs2_edges_rs1val_0x5bbc8872_rs2val_0x1_str
00002840 l       .text.rvtest	00000000 I_or_cg_cr_rs1_rs2_edges_rs1val_0x5bbc8872_rs2val_0x2
0000c8a1 l       .data	00000000 I_or_cg_cr_rs1_rs2_edges_rs1val_0x5bbc8872_rs2val_0x2_str
0000286c l       .text.rvtest	00000000 I_or_cg_cr_rs1_rs2_edges_rs1val_0x5bbc8872_rs2val_0x80000000
0000c8f4 l       .data	00000000 I_or_cg_cr_rs1_rs2_edges_rs1val_0x5bbc8872_rs2val_0x80000000_str
00002898 l       .text.rvtest	00000000 I_or_cg_cr_rs1_rs2_edges_rs1val_0x5bbc8872_rs2val_0x80000001
0000c94e l       .data	00000000 I_or_cg_cr_rs1_rs2_edges_rs1val_0x5bbc8872_rs2val_0x80000001_str
000028c4 l       .text.rvtest	00000000 I_or_cg_cr_rs1_rs2_edges_rs1val_0x5bbc8872_rs2val_0x7fffffff
0000c9a8 l       .data	00000000 I_or_cg_cr_rs1_rs2_edges_rs1val_0x5bbc8872_rs2val_0x7fffffff_str
000028f0 l       .text.rvtest	00000000 I_or_cg_cr_rs1_rs2_edges_rs1val_0x5bbc8872_rs2val_0x7ffffffe
0000ca02 l       .data	00000000 I_or_cg_cr_rs1_rs2_edges_rs1val_0x5bbc8872_rs2val_0x7ffffffe_str
0000291c l       .text.rvtest	00000000 I_or_cg_cr_rs1_rs2_edges_rs1val_0x5bbc8872_rs2val_0xffffffff
0000ca5c l       .data	00000000 I_or_cg_cr_rs1_rs2_edges_rs1val_0x5bbc8872_rs2val_0xffffffff_str
00002948 l       .text.rvtest	00000000 I_or_cg_cr_rs1_rs2_edges_rs1val_0x5bbc8872_rs2val_0xfffffffe
0000cab6 l       .data	00000000 I_or_cg_cr_rs1_rs2_edges_rs1val_0x5bbc8872_rs2val_0xfffffffe_str
00002974 l       .text.rvtest	00000000 I_or_cg_cr_rs1_rs2_edges_rs1val_0x5bbc8872_rs2val_0x5bbc8872
0000cb10 l       .data	00000000 I_or_cg_cr_rs1_rs2_edges_rs1val_0x5bbc8872_rs2val_0x5bbc8872_str
000029a0 l       .text.rvtest	00000000 I_or_cg_cr_rs1_rs2_edges_rs1val_0x5bbc8872_rs2val_0xaaaaaaaa
0000cb6a l       .data	00000000 I_or_cg_cr_rs1_rs2_edges_rs1val_0x5bbc8872_rs2val_0xaaaaaaaa_str
000029cc l       .text.rvtest	00000000 I_or_cg_cr_rs1_rs2_edges_rs1val_0x5bbc8872_rs2val_0x55555555
0000cbc4 l       .data	00000000 I_or_cg_cr_rs1_rs2_edges_rs1val_0x5bbc8872_rs2val_0x55555555_str
000029f8 l       .text.rvtest	00000000 I_or_cg_cr_rs1_rs2_edges_rs1val_0xaaaaaaaa_rs2val_0x0
0000cc1e l       .data	00000000 I_or_cg_cr_rs1_rs2_edges_rs1val_0xaaaaaaaa_rs2val_0x0_str
00002a24 l       .text.rvtest	00000000 I_or_cg_cr_rs1_rs2_edges_rs1val_0xaaaaaaaa_rs2val_0x1
0000cc71 l       .data	00000000 I_or_cg_cr_rs1_rs2_edges_rs1val_0xaaaaaaaa_rs2val_0x1_str
00002a50 l       .text.rvtest	00000000 I_or_cg_cr_rs1_rs2_edges_rs1val_0xaaaaaaaa_rs2val_0x2
0000ccc4 l       .data	00000000 I_or_cg_cr_rs1_rs2_edges_rs1val_0xaaaaaaaa_rs2val_0x2_str
00002a7c l       .text.rvtest	00000000 I_or_cg_cr_rs1_rs2_edges_rs1val_0xaaaaaaaa_rs2val_0x80000000
0000cd17 l       .data	00000000 I_or_cg_cr_rs1_rs2_edges_rs1val_0xaaaaaaaa_rs2val_0x80000000_str
00002aa8 l       .text.rvtest	00000000 I_or_cg_cr_rs1_rs2_edges_rs1val_0xaaaaaaaa_rs2val_0x80000001
0000cd71 l       .data	00000000 I_or_cg_cr_rs1_rs2_edges_rs1val_0xaaaaaaaa_rs2val_0x80000001_str
00002ad4 l       .text.rvtest	00000000 I_or_cg_cr_rs1_rs2_edges_rs1val_0xaaaaaaaa_rs2val_0x7fffffff
0000cdcb l       .data	00000000 I_or_cg_cr_rs1_rs2_edges_rs1val_0xaaaaaaaa_rs2val_0x7fffffff_str
00002b00 l       .text.rvtest	00000000 I_or_cg_cr_rs1_rs2_edges_rs1val_0xaaaaaaaa_rs2val_0x7ffffffe
0000ce25 l       .data	00000000 I_or_cg_cr_rs1_rs2_edges_rs1val_0xaaaaaaaa_rs2val_0x7ffffffe_str
00002b2c l       .text.rvtest	00000000 I_or_cg_cr_rs1_rs2_edges_rs1val_0xaaaaaaaa_rs2val_0xffffffff
0000ce7f l       .data	00000000 I_or_cg_cr_rs1_rs2_edges_rs1val_0xaaaaaaaa_rs2val_0xffffffff_str
00002b58 l       .text.rvtest	00000000 I_or_cg_cr_rs1_rs2_edges_rs1val_0xaaaaaaaa_rs2val_0xfffffffe
0000ced9 l       .data	00000000 I_or_cg_cr_rs1_rs2_edges_rs1val_0xaaaaaaaa_rs2val_0xfffffffe_str
00002b84 l       .text.rvtest	00000000 I_or_cg_cr_rs1_rs2_edges_rs1val_0xaaaaaaaa_rs2val_0x5bbc8872
0000cf33 l       .data	00000000 I_or_cg_cr_rs1_rs2_edges_rs1val_0xaaaaaaaa_rs2val_0x5bbc8872_str
00002bb0 l       .text.rvtest	00000000 I_or_cg_cr_rs1_rs2_edges_rs1val_0xaaaaaaaa_rs2val_0xaaaaaaaa
0000cf8d l       .data	00000000 I_or_cg_cr_rs1_rs2_edges_rs1val_0xaaaaaaaa_rs2val_0xaaaaaaaa_str
00002bdc l       .text.rvtest	00000000 I_or_cg_cr_rs1_rs2_edges_rs1val_0xaaaaaaaa_rs2val_0x55555555
0000cfe7 l       .data	00000000 I_or_cg_cr_rs1_rs2_edges_rs1val_0xaaaaaaaa_rs2val_0x55555555_str
00002c08 l       .text.rvtest	00000000 I_or_cg_cr_rs1_rs2_edges_rs1val_0x55555555_rs2val_0x0
0000d041 l       .data	00000000 I_or_cg_cr_rs1_rs2_edges_rs1val_0x55555555_rs2val_0x0_str
00002c34 l       .text.rvtest	00000000 I_or_cg_cr_rs1_rs2_edges_rs1val_0x55555555_rs2val_0x1
0000d094 l       .data	00000000 I_or_cg_cr_rs1_rs2_edges_rs1val_0x55555555_rs2val_0x1_str
00002c60 l       .text.rvtest	00000000 I_or_cg_cr_rs1_rs2_edges_rs1val_0x55555555_rs2val_0x2
0000d0e7 l       .data	00000000 I_or_cg_cr_rs1_rs2_edges_rs1val_0x55555555_rs2val_0x2_str
00002c8c l       .text.rvtest	00000000 I_or_cg_cr_rs1_rs2_edges_rs1val_0x55555555_rs2val_0x80000000
0000d13a l       .data	00000000 I_or_cg_cr_rs1_rs2_edges_rs1val_0x55555555_rs2val_0x80000000_str
00002cb8 l       .text.rvtest	00000000 I_or_cg_cr_rs1_rs2_edges_rs1val_0x55555555_rs2val_0x80000001
0000d194 l       .data	00000000 I_or_cg_cr_rs1_rs2_edges_rs1val_0x55555555_rs2val_0x80000001_str
00002ce4 l       .text.rvtest	00000000 I_or_cg_cr_rs1_rs2_edges_rs1val_0x55555555_rs2val_0x7fffffff
0000d1ee l       .data	00000000 I_or_cg_cr_rs1_rs2_edges_rs1val_0x55555555_rs2val_0x7fffffff_str
00002d10 l       .text.rvtest	00000000 I_or_cg_cr_rs1_rs2_edges_rs1val_0x55555555_rs2val_0x7ffffffe
0000d248 l       .data	00000000 I_or_cg_cr_rs1_rs2_edges_rs1val_0x55555555_rs2val_0x7ffffffe_str
00002d3c l       .text.rvtest	00000000 I_or_cg_cr_rs1_rs2_edges_rs1val_0x55555555_rs2val_0xffffffff
0000d2a2 l       .data	00000000 I_or_cg_cr_rs1_rs2_edges_rs1val_0x55555555_rs2val_0xffffffff_str
00002d68 l       .text.rvtest	00000000 I_or_cg_cr_rs1_rs2_edges_rs1val_0x55555555_rs2val_0xfffffffe
0000d2fc l       .data	00000000 I_or_cg_cr_rs1_rs2_edges_rs1val_0x55555555_rs2val_0xfffffffe_str
00002d94 l       .text.rvtest	00000000 I_or_cg_cr_rs1_rs2_edges_rs1val_0x55555555_rs2val_0x5bbc8872
0000d356 l       .data	00000000 I_or_cg_cr_rs1_rs2_edges_rs1val_0x55555555_rs2val_0x5bbc8872_str
00002dc0 l       .text.rvtest	00000000 I_or_cg_cr_rs1_rs2_edges_rs1val_0x55555555_rs2val_0xaaaaaaaa
0000d3b0 l       .data	00000000 I_or_cg_cr_rs1_rs2_edges_rs1val_0x55555555_rs2val_0xaaaaaaaa_str
00002dec l       .text.rvtest	00000000 I_or_cg_cr_rs1_rs2_edges_rs1val_0x55555555_rs2val_0x55555555
0000d40a l       .data	00000000 I_or_cg_cr_rs1_rs2_edges_rs1val_0x55555555_rs2val_0x55555555_str
00002e18 l       .text.rvtest	00000000 I_or_cg_cmp_rs1_rs2_b0
0000d464 l       .data	00000000 I_or_cg_cmp_rs1_rs2_b0_str
00002e44 l       .text.rvtest	00000000 I_or_cg_cmp_rs1_rs2_b1
0000d497 l       .data	00000000 I_or_cg_cmp_rs1_rs2_b1_str
00002e70 l       .text.rvtest	00000000 I_or_cg_cmp_rs1_rs2_b2
0000d4ca l       .data	00000000 I_or_cg_cmp_rs1_rs2_b2_str
00002e9c l       .text.rvtest	00000000 I_or_cg_cmp_rs1_rs2_b3
0000d4fd l       .data	00000000 I_or_cg_cmp_rs1_rs2_b3_str
00002ed0 l       .text.rvtest	00000000 I_or_cg_cmp_rs1_rs2_b4
0000d530 l       .data	00000000 I_or_cg_cmp_rs1_rs2_b4_str
00002efc l       .text.rvtest	00000000 I_or_cg_cmp_rs1_rs2_b5
0000d563 l       .data	00000000 I_or_cg_cmp_rs1_rs2_b5_str
00002f28 l       .text.rvtest	00000000 I_or_cg_cmp_rs1_rs2_b6
0000d596 l       .data	00000000 I_or_cg_cmp_rs1_rs2_b6_str
00002f54 l       .text.rvtest	00000000 I_or_cg_cmp_rs1_rs2_b7
0000d5c9 l       .data	00000000 I_or_cg_cmp_rs1_rs2_b7_str
00002f80 l       .text.rvtest	00000000 I_or_cg_cmp_rs1_rs2_b8
0000d5fc l       .data	00000000 I_or_cg_cmp_rs1_rs2_b8_str
00002fac l       .text.rvtest	00000000 I_or_cg_cmp_rs1_rs2_b9
0000d62f l       .data	00000000 I_or_cg_cmp_rs1_rs2_b9_str
00002fd8 l       .text.rvtest	00000000 I_or_cg_cmp_rs1_rs2_b10
0000d662 l       .data	00000000 I_or_cg_cmp_rs1_rs2_b10_str
00003008 l       .text.rvtest	00000000 I_or_cg_cmp_rs1_rs2_b11
0000d696 l       .data	00000000 I_or_cg_cmp_rs1_rs2_b11_str
00003034 l       .text.rvtest	00000000 I_or_cg_cmp_rs1_rs2_b12
0000d6ca l       .data	00000000 I_or_cg_cmp_rs1_rs2_b12_str
00003068 l       .text.rvtest	00000000 I_or_cg_cmp_rs1_rs2_b13
0000d6fe l       .data	00000000 I_or_cg_cmp_rs1_rs2_b13_str
00003094 l       .text.rvtest	00000000 I_or_cg_cmp_rs1_rs2_b14
0000d732 l       .data	00000000 I_or_cg_cmp_rs1_rs2_b14_str
000030c0 l       .text.rvtest	00000000 I_or_cg_cmp_rs1_rs2_b15
0000d766 l       .data	00000000 I_or_cg_cmp_rs1_rs2_b15_str
000030ec l       .text.rvtest	00000000 I_or_cg_cmp_rs1_rs2_b16
0000d79a l       .data	00000000 I_or_cg_cmp_rs1_rs2_b16_str
00003118 l       .text.rvtest	00000000 I_or_cg_cmp_rs1_rs2_b17
0000d7ce l       .data	00000000 I_or_cg_cmp_rs1_rs2_b17_str
00003144 l       .text.rvtest	00000000 I_or_cg_cmp_rs1_rs2_b18
0000d802 l       .data	00000000 I_or_cg_cmp_rs1_rs2_b18_str
00003170 l       .text.rvtest	00000000 I_or_cg_cmp_rs1_rs2_b19
0000d836 l       .data	00000000 I_or_cg_cmp_rs1_rs2_b19_str
0000319c l       .text.rvtest	00000000 I_or_cg_cmp_rs1_rs2_b20
0000d86a l       .data	00000000 I_or_cg_cmp_rs1_rs2_b20_str
000031c8 l       .text.rvtest	00000000 I_or_cg_cmp_rs1_rs2_b21
0000d89e l       .data	00000000 I_or_cg_cmp_rs1_rs2_b21_str
000031f8 l       .text.rvtest	00000000 I_or_cg_cmp_rs1_rs2_b22
0000d8d2 l       .data	00000000 I_or_cg_cmp_rs1_rs2_b22_str
00003224 l       .text.rvtest	00000000 I_or_cg_cmp_rs1_rs2_b23
0000d906 l       .data	00000000 I_or_cg_cmp_rs1_rs2_b23_str
00003254 l       .text.rvtest	00000000 I_or_cg_cmp_rs1_rs2_b24
0000d93a l       .data	00000000 I_or_cg_cmp_rs1_rs2_b24_str
00003280 l       .text.rvtest	00000000 I_or_cg_cmp_rs1_rs2_b25
0000d96e l       .data	00000000 I_or_cg_cmp_rs1_rs2_b25_str
000032b0 l       .text.rvtest	00000000 I_or_cg_cmp_rs1_rs2_b26
0000d9a2 l       .data	00000000 I_or_cg_cmp_rs1_rs2_b26_str
000032dc l       .text.rvtest	00000000 I_or_cg_cmp_rs1_rs2_b27
0000d9d6 l       .data	00000000 I_or_cg_cmp_rs1_rs2_b27_str
00003308 l       .text.rvtest	00000000 I_or_cg_cmp_rs1_rs2_b28
0000da0a l       .data	00000000 I_or_cg_cmp_rs1_rs2_b28_str
00003334 l       .text.rvtest	00000000 I_or_cg_cmp_rs1_rs2_b29
0000da3e l       .data	00000000 I_or_cg_cmp_rs1_rs2_b29_str
00003360 l       .text.rvtest	00000000 I_or_cg_cmp_rs1_rs2_b30
0000da72 l       .data	00000000 I_or_cg_cmp_rs1_rs2_b30_str
0000338c l       .text.rvtest	00000000 I_or_cg_cmp_rs1_rs2_b31
0000daa6 l       .data	00000000 I_or_cg_cmp_rs1_rs2_b31_str
000033b8 l       .text.rvtest	00000000 I_or_cg_cmp_rd_rs1_b0
0000dada l       .data	00000000 I_or_cg_cmp_rd_rs1_b0_str
000033e8 l       .text.rvtest	00000000 I_or_cg_cmp_rd_rs1_b1
0000db0c l       .data	00000000 I_or_cg_cmp_rd_rs1_b1_str
00003414 l       .text.rvtest	00000000 I_or_cg_cmp_rd_rs1_b2
0000db3e l       .data	00000000 I_or_cg_cmp_rd_rs1_b2_str
00003440 l       .text.rvtest	00000000 I_or_cg_cmp_rd_rs1_b3
0000db70 l       .data	00000000 I_or_cg_cmp_rd_rs1_b3_str
00003474 l       .text.rvtest	00000000 I_or_cg_cmp_rd_rs1_b4
0000dba2 l       .data	00000000 I_or_cg_cmp_rd_rs1_b4_str
000034a0 l       .text.rvtest	00000000 I_or_cg_cmp_rd_rs1_b5
0000dbd4 l       .data	00000000 I_or_cg_cmp_rd_rs1_b5_str
000034cc l       .text.rvtest	00000000 I_or_cg_cmp_rd_rs1_b6
0000dc06 l       .data	00000000 I_or_cg_cmp_rd_rs1_b6_str
000034f8 l       .text.rvtest	00000000 I_or_cg_cmp_rd_rs1_b7
0000dc38 l       .data	00000000 I_or_cg_cmp_rd_rs1_b7_str
00003524 l       .text.rvtest	00000000 I_or_cg_cmp_rd_rs1_b8
0000dc6a l       .data	00000000 I_or_cg_cmp_rd_rs1_b8_str
00003550 l       .text.rvtest	00000000 I_or_cg_cmp_rd_rs1_b9
0000dc9c l       .data	00000000 I_or_cg_cmp_rd_rs1_b9_str
0000357c l       .text.rvtest	00000000 I_or_cg_cmp_rd_rs1_b10
0000dcce l       .data	00000000 I_or_cg_cmp_rd_rs1_b10_str
000035ac l       .text.rvtest	00000000 I_or_cg_cmp_rd_rs1_b11
0000dd01 l       .data	00000000 I_or_cg_cmp_rd_rs1_b11_str
000035d8 l       .text.rvtest	00000000 I_or_cg_cmp_rd_rs1_b12
0000dd34 l       .data	00000000 I_or_cg_cmp_rd_rs1_b12_str
0000360c l       .text.rvtest	00000000 I_or_cg_cmp_rd_rs1_b13
0000dd67 l       .data	00000000 I_or_cg_cmp_rd_rs1_b13_str
00003638 l       .text.rvtest	00000000 I_or_cg_cmp_rd_rs1_b14
0000dd9a l       .data	00000000 I_or_cg_cmp_rd_rs1_b14_str
00003664 l       .text.rvtest	00000000 I_or_cg_cmp_rd_rs1_b15
0000ddcd l       .data	00000000 I_or_cg_cmp_rd_rs1_b15_str
00003690 l       .text.rvtest	00000000 I_or_cg_cmp_rd_rs1_b16
0000de00 l       .data	00000000 I_or_cg_cmp_rd_rs1_b16_str
000036bc l       .text.rvtest	00000000 I_or_cg_cmp_rd_rs1_b17
0000de33 l       .data	00000000 I_or_cg_cmp_rd_rs1_b17_str
000036e8 l       .text.rvtest	00000000 I_or_cg_cmp_rd_rs1_b18
0000de66 l       .data	00000000 I_or_cg_cmp_rd_rs1_b18_str
00003714 l       .text.rvtest	00000000 I_or_cg_cmp_rd_rs1_b19
0000de99 l       .data	00000000 I_or_cg_cmp_rd_rs1_b19_str
00003740 l       .text.rvtest	00000000 I_or_cg_cmp_rd_rs1_b20
0000decc l       .data	00000000 I_or_cg_cmp_rd_rs1_b20_str
0000376c l       .text.rvtest	00000000 I_or_cg_cmp_rd_rs1_b21
0000deff l       .data	00000000 I_or_cg_cmp_rd_rs1_b21_str
00003798 l       .text.rvtest	00000000 I_or_cg_cmp_rd_rs1_b22
0000df32 l       .data	00000000 I_or_cg_cmp_rd_rs1_b22_str
000037c8 l       .text.rvtest	00000000 I_or_cg_cmp_rd_rs1_b23
0000df65 l       .data	00000000 I_or_cg_cmp_rd_rs1_b23_str
000037f4 l       .text.rvtest	00000000 I_or_cg_cmp_rd_rs1_b24
0000df98 l       .data	00000000 I_or_cg_cmp_rd_rs1_b24_str
00003820 l       .text.rvtest	00000000 I_or_cg_cmp_rd_rs1_b25
0000dfcb l       .data	00000000 I_or_cg_cmp_rd_rs1_b25_str
0000384c l       .text.rvtest	00000000 I_or_cg_cmp_rd_rs1_b26
0000dffe l       .data	00000000 I_or_cg_cmp_rd_rs1_b26_str
00003878 l       .text.rvtest	00000000 I_or_cg_cmp_rd_rs1_b27
0000e031 l       .data	00000000 I_or_cg_cmp_rd_rs1_b27_str
000038a4 l       .text.rvtest	00000000 I_or_cg_cmp_rd_rs1_b28
0000e064 l       .data	00000000 I_or_cg_cmp_rd_rs1_b28_str
000038d4 l       .text.rvtest	00000000 I_or_cg_cmp_rd_rs1_b29
0000e097 l       .data	00000000 I_or_cg_cmp_rd_rs1_b29_str
00003900 l       .text.rvtest	00000000 I_or_cg_cmp_rd_rs1_b30
0000e0ca l       .data	00000000 I_or_cg_cmp_rd_rs1_b30_str
0000392c l       .text.rvtest	00000000 I_or_cg_cmp_rd_rs1_b31
0000e0fd l       .data	00000000 I_or_cg_cmp_rd_rs1_b31_str
00003958 l       .text.rvtest	00000000 I_or_cg_cmp_rd_rs2_b0
0000e130 l       .data	00000000 I_or_cg_cmp_rd_rs2_b0_str
00003984 l       .text.rvtest	00000000 I_or_cg_cmp_rd_rs2_b1
0000e162 l       .data	00000000 I_or_cg_cmp_rd_rs2_b1_str
000039b0 l       .text.rvtest	00000000 I_or_cg_cmp_rd_rs2_b2
0000e194 l       .data	00000000 I_or_cg_cmp_rd_rs2_b2_str
000039dc l       .text.rvtest	00000000 I_or_cg_cmp_rd_rs2_b3
0000e1c6 l       .data	00000000 I_or_cg_cmp_rd_rs2_b3_str
00003a08 l       .text.rvtest	00000000 I_or_cg_cmp_rd_rs2_b4
0000e1f8 l       .data	00000000 I_or_cg_cmp_rd_rs2_b4_str
00003a34 l       .text.rvtest	00000000 I_or_cg_cmp_rd_rs2_b5
0000e22a l       .data	00000000 I_or_cg_cmp_rd_rs2_b5_str
00003a60 l       .text.rvtest	00000000 I_or_cg_cmp_rd_rs2_b6
0000e25c l       .data	00000000 I_or_cg_cmp_rd_rs2_b6_str
00003a94 l       .text.rvtest	00000000 I_or_cg_cmp_rd_rs2_b7
0000e28e l       .data	00000000 I_or_cg_cmp_rd_rs2_b7_str
00003ac0 l       .text.rvtest	00000000 I_or_cg_cmp_rd_rs2_b8
0000e2c0 l       .data	00000000 I_or_cg_cmp_rd_rs2_b8_str
00003aec l       .text.rvtest	00000000 I_or_cg_cmp_rd_rs2_b9
0000e2f2 l       .data	00000000 I_or_cg_cmp_rd_rs2_b9_str
00003b18 l       .text.rvtest	00000000 I_or_cg_cmp_rd_rs2_b10
0000e324 l       .data	00000000 I_or_cg_cmp_rd_rs2_b10_str
00003b44 l       .text.rvtest	00000000 I_or_cg_cmp_rd_rs2_b11
0000e357 l       .data	00000000 I_or_cg_cmp_rd_rs2_b11_str
00003b70 l       .text.rvtest	00000000 I_or_cg_cmp_rd_rs2_b12
0000e38a l       .data	00000000 I_or_cg_cmp_rd_rs2_b12_str
00003ba4 l       .text.rvtest	00000000 I_or_cg_cmp_rd_rs2_b13
0000e3bd l       .data	00000000 I_or_cg_cmp_rd_rs2_b13_str
00003bd0 l       .text.rvtest	00000000 I_or_cg_cmp_rd_rs2_b14
0000e3f0 l       .data	00000000 I_or_cg_cmp_rd_rs2_b14_str
00003bfc l       .text.rvtest	00000000 I_or_cg_cmp_rd_rs2_b15
0000e423 l       .data	00000000 I_or_cg_cmp_rd_rs2_b15_str
00003c2c l       .text.rvtest	00000000 I_or_cg_cmp_rd_rs2_b16
0000e456 l       .data	00000000 I_or_cg_cmp_rd_rs2_b16_str
00003c5c l       .text.rvtest	00000000 I_or_cg_cmp_rd_rs2_b17
0000e489 l       .data	00000000 I_or_cg_cmp_rd_rs2_b17_str
00003c88 l       .text.rvtest	00000000 I_or_cg_cmp_rd_rs2_b18
0000e4bc l       .data	00000000 I_or_cg_cmp_rd_rs2_b18_str
00003cb4 l       .text.rvtest	00000000 I_or_cg_cmp_rd_rs2_b19
0000e4ef l       .data	00000000 I_or_cg_cmp_rd_rs2_b19_str
00003ce0 l       .text.rvtest	00000000 I_or_cg_cmp_rd_rs2_b20
0000e522 l       .data	00000000 I_or_cg_cmp_rd_rs2_b20_str
00003d0c l       .text.rvtest	00000000 I_or_cg_cmp_rd_rs2_b21
0000e555 l       .data	00000000 I_or_cg_cmp_rd_rs2_b21_str
00003d38 l       .text.rvtest	00000000 I_or_cg_cmp_rd_rs2_b22
0000e588 l       .data	00000000 I_or_cg_cmp_rd_rs2_b22_str
00003d64 l       .text.rvtest	00000000 I_or_cg_cmp_rd_rs2_b23
0000e5bb l       .data	00000000 I_or_cg_cmp_rd_rs2_b23_str
00003d90 l       .text.rvtest	00000000 I_or_cg_cmp_rd_rs2_b24
0000e5ee l       .data	00000000 I_or_cg_cmp_rd_rs2_b24_str
00003dbc l       .text.rvtest	00000000 I_or_cg_cmp_rd_rs2_b25
0000e621 l       .data	00000000 I_or_cg_cmp_rd_rs2_b25_str
00003de8 l       .text.rvtest	00000000 I_or_cg_cmp_rd_rs2_b26
0000e654 l       .data	00000000 I_or_cg_cmp_rd_rs2_b26_str
00003e14 l       .text.rvtest	00000000 I_or_cg_cmp_rd_rs2_b27
0000e687 l       .data	00000000 I_or_cg_cmp_rd_rs2_b27_str
00003e40 l       .text.rvtest	00000000 I_or_cg_cmp_rd_rs2_b28
0000e6ba l       .data	00000000 I_or_cg_cmp_rd_rs2_b28_str
00003e6c l       .text.rvtest	00000000 I_or_cg_cmp_rd_rs2_b29
0000e6ed l       .data	00000000 I_or_cg_cmp_rd_rs2_b29_str
00003e98 l       .text.rvtest	00000000 I_or_cg_cmp_rd_rs2_b30
0000e720 l       .data	00000000 I_or_cg_cmp_rd_rs2_b30_str
00003ec4 l       .text.rvtest	00000000 I_or_cg_cmp_rd_rs2_b31
0000e753 l       .data	00000000 I_or_cg_cmp_rd_rs2_b31_str
00003ef0 l       .text.rvtest	00000000 I_or_cg_cmp_rd_rs1_rs2_b0
0000e786 l       .data	00000000 I_or_cg_cmp_rd_rs1_rs2_b0_str
00003f1c l       .text.rvtest	00000000 I_or_cg_cmp_rd_rs1_rs2_b1
0000e7bc l       .data	00000000 I_or_cg_cmp_rd_rs1_rs2_b1_str
00003f4c l       .text.rvtest	00000000 I_or_cg_cmp_rd_rs1_rs2_b2
0000e7f2 l       .data	00000000 I_or_cg_cmp_rd_rs1_rs2_b2_str
00003f78 l       .text.rvtest	00000000 I_or_cg_cmp_rd_rs1_rs2_b3
0000e828 l       .data	00000000 I_or_cg_cmp_rd_rs1_rs2_b3_str
00003fa4 l       .text.rvtest	00000000 I_or_cg_cmp_rd_rs1_rs2_b4
0000e85e l       .data	00000000 I_or_cg_cmp_rd_rs1_rs2_b4_str
00003fd0 l       .text.rvtest	00000000 I_or_cg_cmp_rd_rs1_rs2_b5
0000e894 l       .data	00000000 I_or_cg_cmp_rd_rs1_rs2_b5_str
00003ffc l       .text.rvtest	00000000 I_or_cg_cmp_rd_rs1_rs2_b6
0000e8ca l       .data	00000000 I_or_cg_cmp_rd_rs1_rs2_b6_str
00004030 l       .text.rvtest	00000000 I_or_cg_cmp_rd_rs1_rs2_b7
0000e900 l       .data	00000000 I_or_cg_cmp_rd_rs1_rs2_b7_str
0000405c l       .text.rvtest	00000000 I_or_cg_cmp_rd_rs1_rs2_b8
0000e936 l       .data	00000000 I_or_cg_cmp_rd_rs1_rs2_b8_str
00004088 l       .text.rvtest	00000000 I_or_cg_cmp_rd_rs1_rs2_b9
0000e96c l       .data	00000000 I_or_cg_cmp_rd_rs1_rs2_b9_str
000040b4 l       .text.rvtest	00000000 I_or_cg_cmp_rd_rs1_rs2_b10
0000e9a2 l       .data	00000000 I_or_cg_cmp_rd_rs1_rs2_b10_str
000040e4 l       .text.rvtest	00000000 I_or_cg_cmp_rd_rs1_rs2_b11
0000e9d9 l       .data	00000000 I_or_cg_cmp_rd_rs1_rs2_b11_str
00004110 l       .text.rvtest	00000000 I_or_cg_cmp_rd_rs1_rs2_b12
0000ea10 l       .data	00000000 I_or_cg_cmp_rd_rs1_rs2_b12_str
0000413c l       .text.rvtest	00000000 I_or_cg_cmp_rd_rs1_rs2_b13
0000ea47 l       .data	00000000 I_or_cg_cmp_rd_rs1_rs2_b13_str
00004168 l       .text.rvtest	00000000 I_or_cg_cmp_rd_rs1_rs2_b14
0000ea7e l       .data	00000000 I_or_cg_cmp_rd_rs1_rs2_b14_str
00004194 l       .text.rvtest	00000000 I_or_cg_cmp_rd_rs1_rs2_b15
0000eab5 l       .data	00000000 I_or_cg_cmp_rd_rs1_rs2_b15_str
000041c0 l       .text.rvtest	00000000 I_or_cg_cmp_rd_rs1_rs2_b16
0000eaec l       .data	00000000 I_or_cg_cmp_rd_rs1_rs2_b16_str
000041f0 l       .text.rvtest	00000000 I_or_cg_cmp_rd_rs1_rs2_b17
0000eb23 l       .data	00000000 I_or_cg_cmp_rd_rs1_rs2_b17_str
0000421c l       .text.rvtest	00000000 I_or_cg_cmp_rd_rs1_rs2_b18
0000eb5a l       .data	00000000 I_or_cg_cmp_rd_rs1_rs2_b18_str
00004248 l       .text.rvtest	00000000 I_or_cg_cmp_rd_rs1_rs2_b19
0000eb91 l       .data	00000000 I_or_cg_cmp_rd_rs1_rs2_b19_str
00004274 l       .text.rvtest	00000000 I_or_cg_cmp_rd_rs1_rs2_b20
0000ebc8 l       .data	00000000 I_or_cg_cmp_rd_rs1_rs2_b20_str
000042a0 l       .text.rvtest	00000000 I_or_cg_cmp_rd_rs1_rs2_b21
0000ebff l       .data	00000000 I_or_cg_cmp_rd_rs1_rs2_b21_str
000042d0 l       .text.rvtest	00000000 I_or_cg_cmp_rd_rs1_rs2_b22
0000ec36 l       .data	00000000 I_or_cg_cmp_rd_rs1_rs2_b22_str
000042fc l       .text.rvtest	00000000 I_or_cg_cmp_rd_rs1_rs2_b23
0000ec6d l       .data	00000000 I_or_cg_cmp_rd_rs1_rs2_b23_str
00004328 l       .text.rvtest	00000000 I_or_cg_cmp_rd_rs1_rs2_b24
0000eca4 l       .data	00000000 I_or_cg_cmp_rd_rs1_rs2_b24_str
00004354 l       .text.rvtest	00000000 I_or_cg_cmp_rd_rs1_rs2_b25
0000ecdb l       .data	00000000 I_or_cg_cmp_rd_rs1_rs2_b25_str
00004380 l       .text.rvtest	00000000 I_or_cg_cmp_rd_rs1_rs2_b26
0000ed12 l       .data	00000000 I_or_cg_cmp_rd_rs1_rs2_b26_str
000043ac l       .text.rvtest	00000000 I_or_cg_cmp_rd_rs1_rs2_b27
0000ed49 l       .data	00000000 I_or_cg_cmp_rd_rs1_rs2_b27_str
000043d8 l       .text.rvtest	00000000 I_or_cg_cmp_rd_rs1_rs2_b28
0000ed80 l       .data	00000000 I_or_cg_cmp_rd_rs1_rs2_b28_str
00004404 l       .text.rvtest	00000000 I_or_cg_cmp_rd_rs1_rs2_b29
0000edb7 l       .data	00000000 I_or_cg_cmp_rd_rs1_rs2_b29_str
00004430 l       .text.rvtest	00000000 I_or_cg_cmp_rd_rs1_rs2_b30
0000edee l       .data	00000000 I_or_cg_cmp_rd_rs1_rs2_b30_str
0000445c l       .text.rvtest	00000000 I_or_cg_cmp_rd_rs1_rs2_b31
0000ee25 l       .data	00000000 I_or_cg_cmp_rd_rs1_rs2_b31_str
0000447c l       .text.rvtest	00000000 exit_cleanup
0000f4c4 l       .data	00000000 successstr
00020204 l       .text.rvmodel	00000000 rvmodel_io_write_str
00020208 l       .text.rvmodel	00000000 rvmodel_halt_pass
000044b0 l       .text.rvtest	00000000 abort_test
6f5ca309 l       *ABS*	00000000 immx
6f5ca309 l       *ABS*	00000000 absimm
00000000 l       *ABS*	00000000 cry
00000309 l       *ABS*	00000000 imm12
0000ee60 l       .data	00000000 begin_failure_scratch
00004580 l       .text.rvtest	00000000 failedtest_saveregs
00004524 l       .text.rvtest	00000000 failedtest_trap_x7_x9
0000efd0 l       .data	00000000 saved_mcause
0000efd8 l       .data	00000000 saved_mtval
0000efe0 l       .data	00000000 saved_mstatus
000045f0 l       .text.rvtest	00000000 failedtest_saveresults
0000ee60 l       .data	00000000 failure_type
0000466c l       .text.rvtest	00000000 failedtest_saveresults_trap
00004600 l       .text.rvtest	00000000 failedtest_saveresults_int
00004a40 l       .text.rvtest	00000000 failedtest_saveresults_common
0000efb8 l       .data	00000000 trap_diag_fail_str_ptr
0000f688 l       .data	00000000 trap_sig_offset_mismatch
00004920 l       .text.rvtest	00000000 trap_diag_offset_mismatch
0000ef90 l       .data	00000000 trap_diag_subtype
0000f6ec l       .data	00000000 sv_Mvect_str
000049a0 l       .text.rvtest	00000000 trap_diag_field_identified
0000f7ee l       .data	00000000 sv_Mcause_str
0000f8e9 l       .data	00000000 sv_Mepc_str
0000f9dc l       .data	00000000 sv_Mtval_str
0000fb4f l       .data	00000000 sv_Mip_str
0000fad3 l       .data	00000000 sv_Mtval2_str
0000fb11 l       .data	00000000 sv_Mtinst_str
0000f72c l       .data	00000000 sv_Svect_str
0000f82c l       .data	00000000 sv_Scause_str
0000f925 l       .data	00000000 sv_Sepc_str
0000fa19 l       .data	00000000 sv_Stval_str
0000fb8a l       .data	00000000 sv_Sip_str
0000f76c l       .data	00000000 sv_Hvect_str
0000f86a l       .data	00000000 sv_Hcause_str
0000f961 l       .data	00000000 sv_Hepc_str
0000fa56 l       .data	00000000 sv_Htval_str
0000fbc5 l       .data	00000000 sv_Hip_str
0000f7ad l       .data	00000000 sv_Vvect_str
0000f8a9 l       .data	00000000 sv_Vcause_str
0000f99e l       .data	00000000 sv_Vepc_str
0000fa94 l       .data	00000000 sv_Vtval_str
0000fc01 l       .data	00000000 sv_Vip_str
0000fc3e l       .data	00000000 Mclr_Mext_int_str
0000fc8d l       .data	00000000 Mclr_Sext_int_str
0000fd88 l       .data	00000000 Sclr_Sext_int_str
0000fe84 l       .data	00000000 Hclr_Sext_int_str
00004a30 l       .text.rvtest	00000000 trap_diag_generic_report
0000efa8 l       .data	00000000 trap_diag_actual_offset
0000efb0 l       .data	00000000 trap_diag_expected_offset
0000ef94 l       .data	00000000 trap_diag_mode
0000ef98 l       .data	00000000 trap_diag_actual_value
0000efa0 l       .data	00000000 trap_diag_expected_value
00004a70 l       .text.rvtest	00000000 failedtest_report
00004a70 l       .text.rvtest	00000000 print_failstr
0000f4f9 l       .data	00000000 failstr
00004aa8 l       .text.rvtest	00000000 print_testnamestr
0000f58b l       .data	00000000 testnamestr
00004ae8 l       .text.rvtest	00000000 print_failure_test_name_str
0000ef80 l       .data	00000000 failure_string_ptr
00004af8 l       .text.rvtest	00000000 print_newline_str
0000f59d l       .data	00000000 newlinestr
00004f2c l       .text.rvtest	00000000 failedtest_report_trap_detailed
0000f59f l       .data	00000000 inststr
0000ef60 l       .data	00000000 failing_instruction
00005e78 l       .text.rvtest	00000000 failedtest_hex_to_str
0000efe8 l       .data	00000000 ascii_buffer
0000f5b3 l       .data	00000000 addrstr
0000ef68 l       .data	00000000 failing_addr
00010030 l       .data	00000000 regstr
00004cd8 l       .text.rvtest	00000000 failedtest_report_not_intreg
0000ef64 l       .data	00000000 failing_reg
00005ef4 l       .text.rvtest	00000000 failedtest_dec_to_str
00004db4 l       .text.rvtest	00000000 failedtest_report_print_regstr
00004d2c l       .text.rvtest	00000000 failedtest_report_fpreg
00004d78 l       .text.rvtest	00000000 failedtest_report_vecreg
00010090 l       .data	00000000 fflagsstr
00004de8 l       .text.rvtest	00000000 failedtest_report_after_reg
00010041 l       .data	00000000 badvalstr
00004e4c l       .text.rvtest	00000000 failedtest_report_badval_not_fp
0000ef70 l       .data	00000000 failing_value
00004e5c l       .text.rvtest	00000000 failedtest_report_badval_done
00010058 l       .data	00000000 expvalstr
00004eec l       .text.rvtest	00000000 failedtest_report_expval_not_fp
0000ef78 l       .data	00000000 expected_value
00004efc l       .text.rvtest	00000000 failedtest_report_expval_done
00005c24 l       .text.rvtest	00000000 failedtest_report_end
000100bc l       .data	00000000 trap_diag_header_str
000100e8 l       .data	00000000 trap_diag_origstr_label
00005000 l       .text.rvtest	00000000 trap_report_offset_mismatch
00005ab0 l       .text.rvtest	00000000 trap_report_generic
00005374 l       .text.rvtest	00000000 trap_report_field_mismatch
000100f8 l       .data	00000000 trap_diag_count_mismatch_str
00010159 l       .data	00000000 trap_diag_expected_offset_str
00010180 l       .data	00000000 trap_diag_actual_offset_str
00005254 l       .text.rvtest	00000000 trap_report_missing_traps
0000513c l       .text.rvtest	00000000 trap_report_extra_traps
000101a7 l       .data	00000000 trap_diag_extra_traps_str
0001022c l       .data	00000000 trap_diag_extra_bytes_str
00010257 l       .data	00000000 trap_diag_extra_hint_str
00005c70 l       .text.rvtest	00000000 failedtest_print_csr_context
000101e1 l       .data	00000000 trap_diag_missing_traps_str
0001033f l       .data	00000000 trap_diag_missing_hint_str
00010426 l       .data	00000000 trap_diag_handler_mode_str
00005404 l       .text.rvtest	00000000 trap_mode_m
00005444 l       .text.rvtest	00000000 trap_mode_s
00005484 l       .text.rvtest	00000000 trap_mode_h
000054c4 l       .text.rvtest	00000000 trap_mode_v
00010462 l       .data	00000000 trap_diag_mode_unknown_str
00005500 l       .text.rvtest	00000000 trap_mode_print
00010440 l       .data	00000000 trap_diag_mode_m_str
00010448 l       .data	00000000 trap_diag_mode_s_str
00010450 l       .data	00000000 trap_diag_mode_hs_str
00010459 l       .data	00000000 trap_diag_mode_vs_str
0001046b l       .data	00000000 trap_diag_field_str
000055c4 l       .text.rvtest	00000000 trap_field_vect
00005604 l       .text.rvtest	00000000 trap_field_cause
00005644 l       .text.rvtest	00000000 trap_field_epc
00005684 l       .text.rvtest	00000000 trap_field_tval
000056c4 l       .text.rvtest	00000000 trap_field_ip
00005704 l       .text.rvtest	00000000 trap_field_tval2
00005744 l       .text.rvtest	00000000 trap_field_tinst
00005784 l       .text.rvtest	00000000 trap_field_intid
000105c2 l       .data	00000000 trap_diag_field_unknown_str
000057c0 l       .text.rvtest	00000000 trap_field_print
00010485 l       .data	00000000 trap_diag_field_vect_str
000104b6 l       .data	00000000 trap_diag_field_cause_str
000104d6 l       .data	00000000 trap_diag_field_epc_str
000104f4 l       .data	00000000 trap_diag_field_tval_str
00010513 l       .data	00000000 trap_diag_field_ip_str
0001053b l       .data	00000000 trap_diag_field_tval2_str
00010567 l       .data	00000000 trap_diag_field_tinst_str
00010593 l       .data	00000000 trap_diag_field_intid_str
000105d1 l       .data	00000000 trap_diag_expected_str
000105e8 l       .data	00000000 trap_diag_actual_str
0000595c l       .text.rvtest	00000000 trap_field_not_cause
000105ff l       .data	00000000 trap_diag_expected_cause_name_str
00005b94 l       .text.rvtest	00000000 trap_cause_to_str
00010616 l       .data	00000000 trap_diag_actual_cause_name_str
0000595c l       .text.rvtest	00000000 trap_field_not_epc
0001068c l       .data	00000000 trap_diag_hint_vect_str
00010762 l       .data	00000000 trap_diag_hint_cause_str
00010855 l       .data	00000000 trap_diag_hint_epc_str
00010950 l       .data	00000000 trap_diag_hint_tval_str
00010a37 l       .data	00000000 trap_diag_hint_ip_str
00010644 l       .data	00000000 trap_diag_generic_str
0000efc8 l       .data	00000000 saved_mepc
0000f627 l       .data	00000000 xepcinstrstr
00005bb8 l       .text.rvtest	00000000 trap_cause_interrupt
00005b98 l       .text.rvtest	00000000 trap_cause_exception
00005be4 l       .text.rvtest	00000000 trap_cause_unknown
0000f010 l       .data	00000000 trap_excpt_name_tbl
0000f070 l       .data	00000000 trap_int_name_tbl
0000f4ae l       .data	00000000 trap_cause_unknown_str
0001006f l       .data	00000000 endstr
00005c68 l       .text.rvtest	00000000 failedtest_terminate
00020214 l       .text.rvmodel	00000000 rvmodel_halt_fail
0000efc0 l       .data	00000000 csr_context_ret_addr
0000f648 l       .data	00000000 mepcstr
0000f658 l       .data	00000000 mcausestr
0000f668 l       .data	00000000 mtvalstr
0000f678 l       .data	00000000 mstatusstr
00005eb8 l       .text.rvtest	00000000 failedtest_hex_to_str_loop
00005ed4 l       .text.rvtest	00000000 failedtest_hex_to_str_digit
00005ed8 l       .text.rvtest	00000000 failedtest_hex_to_str_write
00020000 l       .text.rvmodel	00000000 rvtest_boot_to_mmode
00020000 l       .text.rvmodel	00000000 rvtest_init_regs
00010b20 l       .data	00000000 signature_base
000201a0 l       .text.rvmodel	00000000 canary_check
00010098 l       .data	00000000 canary_mismatch
00008000 l       .data	00000000 scratch
0000f010 l       .data	00000000 end_failure_scratch
0000f0b0 l       .data	00000000 trap_excpt_name_0
0000f0d0 l       .data	00000000 trap_excpt_name_1
0000f0ea l       .data	00000000 trap_excpt_name_2
0000f0ff l       .data	00000000 trap_excpt_name_3
0000f10b l       .data	00000000 trap_excpt_name_4
0000f124 l       .data	00000000 trap_excpt_name_5
0000f137 l       .data	00000000 trap_excpt_name_6
0000f155 l       .data	00000000 trap_excpt_name_7
0000f16d l       .data	00000000 trap_excpt_name_8
0000f18b l       .data	00000000 trap_excpt_name_9
0000f1a9 l       .data	00000000 trap_excpt_name_10
0000f1c8 l       .data	00000000 trap_excpt_name_11
0000f1e6 l       .data	00000000 trap_excpt_name_12
0000f1fe l       .data	00000000 trap_excpt_name_13
0000f20f l       .data	00000000 trap_excpt_name_14
0000f21e l       .data	00000000 trap_excpt_name_15
0000f234 l       .data	00000000 trap_excpt_name_16
0000f241 l       .data	00000000 trap_excpt_name_17
0000f250 l       .data	00000000 trap_excpt_name_18
0000f260 l       .data	00000000 trap_excpt_name_19
0000f270 l       .data	00000000 trap_excpt_name_20
0000f28e l       .data	00000000 trap_excpt_name_21
0000f2a5 l       .data	00000000 trap_excpt_name_22
0000f2ba l       .data	00000000 trap_excpt_name_23
0000f2d6 l       .data	00000000 trap_int_name_0
0000f2ee l       .data	00000000 trap_int_name_1
0000f30d l       .data	00000000 trap_int_name_2
0000f334 l       .data	00000000 trap_int_name_3
0000f350 l       .data	00000000 trap_int_name_4
0000f368 l       .data	00000000 trap_int_name_5
0000f384 l       .data	00000000 trap_int_name_6
0000f3a8 l       .data	00000000 trap_int_name_7
0000f3c1 l       .data	00000000 trap_int_name_8
0000f3d9 l       .data	00000000 trap_int_name_9
0000f3f8 l       .data	00000000 trap_int_name_10
0000f41f l       .data	00000000 trap_int_name_11
0000f43b l       .data	00000000 trap_int_name_12
0000f460 l       .data	00000000 trap_int_name_13
0000f47c l       .data	00000000 trap_int_name_14
0000f495 l       .data	00000000 trap_int_name_15
0000f54d l       .data	00000000 abortstr
0000f5f4 l       .data	00000000 xepcstr
0000fcdf l       .data	00000000 Mclr_Vext_int_str
0000fd39 l       .data	00000000 Sclr_Mext_int_str
0000fdda l       .data	00000000 Sclr_Vext_int_str
0000fe34 l       .data	00000000 Hclr_Mext_int_str
0000fed7 l       .data	00000000 Hclr_Vext_int_str
0000ff32 l       .data	00000000 Vclr_Mext_int_str
0000ff82 l       .data	00000000 Vclr_Sext_int_str
0000ffd5 l       .data	00000000 Vclr_Vext_int_str
0001062d l       .data	00000000 trap_diag_curr_xepc_str
00011170 l       .data	00000000 trap_sigptr
0001fbe0 g       .data	00000000 end_signature
0001fbe0 g       .data	00000000 rvtest_sig_end
00000000 g       .text.init	00000000 rvtest_entry_point
00010b20 g       .data	00000000 begin_signature
0000447c g       .text.rvtest	00000000 rvtest_code_end
00000040 g       .text.rvtest	00000000 rvtest_code_begin
00010b20 g       .data	00000000 rvtest_sig_begin
00008110 g       .data	00000000 rvtest_data_begin
00010b1c g       .data	00000000 rvtest_data_end
0000447c g       .text.rvtest	00000000 cleanup_epilogs
00021000 g       .text.rvmodel	00000000 _end



Disassembly of section .text.init:

00000000 <rvtest_entry_point>:

// Include framework macros
#include "riscv_arch_test.h"

// Set up test environment and declare main entry point
RVTEST_BEGIN
   0:	00020097          	auipc	x1,0x20
   4:	00008093          	addi	x1,x1,0 # 20000 <rvmodel_boot>
   8:	00000013          	addi	x0,x0,0
   c:	00000013          	addi	x0,x0,0
  10:	00000013          	addi	x0,x0,0
  14:	00000013          	addi	x0,x0,0
  18:	00000013          	addi	x0,x0,0
  1c:	00000013          	addi	x0,x0,0
  20:	000080e7          	jalr	x1,0(x1)
  24:	00000013          	addi	x0,x0,0
  28:	00000013          	addi	x0,x0,0
  2c:	00000013          	addi	x0,x0,0
  30:	00000013          	addi	x0,x0,0
  34:	00000013          	addi	x0,x0,0
  38:	00000013          	addi	x0,x0,0
  3c:	00000013          	addi	x0,x0,0

Disassembly of section .text.rvtest:

00000040 <rvtest_code_begin>:
/////////////////////////////////
// cp_rs1
/////////////////////////////////

# Testcase cp_rs1 (Test source rs1 = x0)
  RVTEST_TESTDATA_LOAD_INT(x3, x0) # load rs1: x0 = 0xcf873aea
      40:	0001a003          	lw	x0,0(x3)
      44:	00418193          	addi	x3,x3,4
  RVTEST_TESTDATA_LOAD_INT(x3, x6) # load rs2: x6 = 0x3828146d
      48:	0001a303          	lw	x6,0(x3)
      4c:	00418193          	addi	x3,x3,4

00000050 <I_or_cg_cp_rs1_b0>:
I_or_cg_cp_rs1_b0:
  or x22, x0, x6 # perform operation
      50:	00606b33          	or	x22,x0,x6
  # Check if x22 contains the expected result. x2 is the signature ptr, x5 is the link ptr, x4 is a temp reg.
  RVTEST_SIGUPD(x2, x5, x4, x22, I_or_cg_cp_rs1_b0, I_or_cg_cp_rs1_b0_str)
      54:	00012203          	lw	x4,0(x2)
      58:	01620863          	beq	x4,x22,68 <I_or_cg_cp_rs1_b0+0x18>
      5c:	460042ef          	jal	x5,44bc <failedtest_x5_x4>
      60:	00000050          	.word	0x00000050
      64:	00008d50          	.word	0x00008d50
      68:	00410113          	addi	x2,x2,4

# Testcase cp_rs1 (Test source rs1 = x1)
  RVTEST_TESTDATA_LOAD_INT(x3, x1) # load rs1: x1 = 0x7a81765d
      6c:	0001a083          	lw	x1,0(x3)
      70:	00418193          	addi	x3,x3,4
  RVTEST_TESTDATA_LOAD_INT(x3, x23) # load rs2: x23 = 0x23a17fb3
      74:	0001ab83          	lw	x23,0(x3)
      78:	00418193          	addi	x3,x3,4

0000007c <I_or_cg_cp_rs1_b1>:
I_or_cg_cp_rs1_b1:
  or x13, x1, x23 # perform operation
      7c:	0170e6b3          	or	x13,x1,x23
  # Check if x13 contains the expected result. x2 is the signature ptr, x5 is the link ptr, x4 is a temp reg.
  RVTEST_SIGUPD(x2, x5, x4, x13, I_or_cg_cp_rs1_b1, I_or_cg_cp_rs1_b1_str)
      80:	00012203          	lw	x4,0(x2)
      84:	00d20863          	beq	x4,x13,94 <I_or_cg_cp_rs1_b1+0x18>
      88:	434042ef          	jal	x5,44bc <failedtest_x5_x4>
      8c:	0000007c          	.word	0x0000007c
      90:	00008d7c          	.word	0x00008d7c
      94:	00410113          	addi	x2,x2,4

  mv x27, x2 # switch signature pointer register to avoid conflict with test
      98:	00010d93          	addi	x27,x2,0
# Testcase cp_rs1 (Test source rs1 = x2)
  RVTEST_TESTDATA_LOAD_INT(x3, x2) # load rs1: x2 = 0x11585c0b
      9c:	0001a103          	lw	x2,0(x3)
      a0:	00418193          	addi	x3,x3,4
  RVTEST_TESTDATA_LOAD_INT(x3, x8) # load rs2: x8 = 0x85fe3c92
      a4:	0001a403          	lw	x8,0(x3)
      a8:	00418193          	addi	x3,x3,4

000000ac <I_or_cg_cp_rs1_b2>:
I_or_cg_cp_rs1_b2:
  or x15, x2, x8 # perform operation
      ac:	008167b3          	or	x15,x2,x8
  # Check if x15 contains the expected result. x27 is the signature ptr, x5 is the link ptr, x4 is a temp reg.
  RVTEST_SIGUPD(x27, x5, x4, x15, I_or_cg_cp_rs1_b2, I_or_cg_cp_rs1_b2_str)
      b0:	000da203          	lw	x4,0(x27)
      b4:	00f20863          	beq	x4,x15,c4 <I_or_cg_cp_rs1_b2+0x18>
      b8:	404042ef          	jal	x5,44bc <failedtest_x5_x4>
      bc:	000000ac          	.word	0x000000ac
      c0:	00008da8          	.word	0x00008da8
      c4:	004d8d93          	addi	x27,x27,4

  mv x26, x3 # switch data pointer register to avoid conflict with test
      c8:	00018d13          	addi	x26,x3,0
# Testcase cp_rs1 (Test source rs1 = x3)
  RVTEST_TESTDATA_LOAD_INT(x26, x3) # load rs1: x3 = 0x570aeaa9
      cc:	000d2183          	lw	x3,0(x26)
      d0:	004d0d13          	addi	x26,x26,4
  RVTEST_TESTDATA_LOAD_INT(x26, x23) # load rs2: x23 = 0xea4de81c
      d4:	000d2b83          	lw	x23,0(x26)
      d8:	004d0d13          	addi	x26,x26,4

000000dc <I_or_cg_cp_rs1_b3>:
I_or_cg_cp_rs1_b3:
  or x17, x3, x23 # perform operation
      dc:	0171e8b3          	or	x17,x3,x23
  # Check if x17 contains the expected result. x27 is the signature ptr, x5 is the link ptr, x4 is a temp reg.
  RVTEST_SIGUPD(x27, x5, x4, x17, I_or_cg_cp_rs1_b3, I_or_cg_cp_rs1_b3_str)
      e0:	000da203          	lw	x4,0(x27)
      e4:	01120863          	beq	x4,x17,f4 <I_or_cg_cp_rs1_b3+0x18>
      e8:	3d4042ef          	jal	x5,44bc <failedtest_x5_x4>
      ec:	000000dc          	.word	0x000000dc
      f0:	00008dd4          	.word	0x00008dd4
      f4:	004d8d93          	addi	x27,x27,4

  mv x13, x4 # switch temp register to avoid conflict with test
      f8:	00020693          	addi	x13,x4,0 # 0 <rvtest_entry_point>
  mv x14, x5 # switch link pointer register to avoid conflict with test
      fc:	00028713          	addi	x14,x5,0
# Testcase cp_rs1 (Test source rs1 = x4)
  RVTEST_TESTDATA_LOAD_INT(x26, x4) # load rs1: x4 = 0x5d87b3b9
     100:	000d2203          	lw	x4,0(x26)
     104:	004d0d13          	addi	x26,x26,4
  RVTEST_TESTDATA_LOAD_INT(x26, x31) # load rs2: x31 = 0x96e6e961
     108:	000d2f83          	lw	x31,0(x26)
     10c:	004d0d13          	addi	x26,x26,4

00000110 <I_or_cg_cp_rs1_b4>:
I_or_cg_cp_rs1_b4:
  or x12, x4, x31 # perform operation
     110:	01f26633          	or	x12,x4,x31
  # Check if x12 contains the expected result. x27 is the signature ptr, x14 is the link ptr, x13 is a temp reg.
  RVTEST_SIGUPD(x27, x14, x13, x12, I_or_cg_cp_rs1_b4, I_or_cg_cp_rs1_b4_str)
     114:	000da683          	lw	x13,0(x27)
     118:	00c68863          	beq	x13,x12,128 <I_or_cg_cp_rs1_b4+0x18>
     11c:	3e00476f          	jal	x14,44fc <failedtest_x14_x13>
     120:	00000110          	.word	0x00000110
     124:	00008e00          	.word	0x00008e00
     128:	004d8d93          	addi	x27,x27,4

# Testcase cp_rs1 (Test source rs1 = x5)
  RVTEST_TESTDATA_LOAD_INT(x26, x5) # load rs1: x5 = 0x3395aa2e
     12c:	000d2283          	lw	x5,0(x26)
     130:	004d0d13          	addi	x26,x26,4
  RVTEST_TESTDATA_LOAD_INT(x26, x22) # load rs2: x22 = 0x8564e24a
     134:	000d2b03          	lw	x22,0(x26)
     138:	004d0d13          	addi	x26,x26,4

0000013c <I_or_cg_cp_rs1_b5>:
I_or_cg_cp_rs1_b5:
  or x24, x5, x22 # perform operation
     13c:	0162ec33          	or	x24,x5,x22
  # Check if x24 contains the expected result. x27 is the signature ptr, x14 is the link ptr, x13 is a temp reg.
  RVTEST_SIGUPD(x27, x14, x13, x24, I_or_cg_cp_rs1_b5, I_or_cg_cp_rs1_b5_str)
     140:	000da683          	lw	x13,0(x27)
     144:	01868863          	beq	x13,x24,154 <I_or_cg_cp_rs1_b5+0x18>
     148:	3b40476f          	jal	x14,44fc <failedtest_x14_x13>
     14c:	0000013c          	.word	0x0000013c
     150:	00008e2c          	.word	0x00008e2c
     154:	004d8d93          	addi	x27,x27,4

# Testcase cp_rs1 (Test source rs1 = x6)
  RVTEST_TESTDATA_LOAD_INT(x26, x6) # load rs1: x6 = 0x42d6eeb2
     158:	000d2303          	lw	x6,0(x26)
     15c:	004d0d13          	addi	x26,x26,4
  RVTEST_TESTDATA_LOAD_INT(x26, x20) # load rs2: x20 = 0x67700fe2
     160:	000d2a03          	lw	x20,0(x26)
     164:	004d0d13          	addi	x26,x26,4

00000168 <I_or_cg_cp_rs1_b6>:
I_or_cg_cp_rs1_b6:
  or x25, x6, x20 # perform operation
     168:	01436cb3          	or	x25,x6,x20
  # Check if x25 contains the expected result. x27 is the signature ptr, x14 is the link ptr, x13 is a temp reg.
  RVTEST_SIGUPD(x27, x14, x13, x25, I_or_cg_cp_rs1_b6, I_or_cg_cp_rs1_b6_str)
     16c:	000da683          	lw	x13,0(x27)
     170:	01968863          	beq	x13,x25,180 <I_or_cg_cp_rs1_b6+0x18>
     174:	3880476f          	jal	x14,44fc <failedtest_x14_x13>
     178:	00000168          	.word	0x00000168
     17c:	00008e58          	.word	0x00008e58
     180:	004d8d93          	addi	x27,x27,4

# Testcase cp_rs1 (Test source rs1 = x7)
  RVTEST_TESTDATA_LOAD_INT(x26, x7) # load rs1: x7 = 0x8ea90643
     184:	000d2383          	lw	x7,0(x26)
     188:	004d0d13          	addi	x26,x26,4
  RVTEST_TESTDATA_LOAD_INT(x26, x10) # load rs2: x10 = 0x0d6c16a0
     18c:	000d2503          	lw	x10,0(x26)
     190:	004d0d13          	addi	x26,x26,4

00000194 <I_or_cg_cp_rs1_b7>:
I_or_cg_cp_rs1_b7:
  or x15, x7, x10 # perform operation
     194:	00a3e7b3          	or	x15,x7,x10
  # Check if x15 contains the expected result. x27 is the signature ptr, x14 is the link ptr, x13 is a temp reg.
  RVTEST_SIGUPD(x27, x14, x13, x15, I_or_cg_cp_rs1_b7, I_or_cg_cp_rs1_b7_str)
     198:	000da683          	lw	x13,0(x27)
     19c:	00f68863          	beq	x13,x15,1ac <I_or_cg_cp_rs1_b7+0x18>
     1a0:	35c0476f          	jal	x14,44fc <failedtest_x14_x13>
     1a4:	00000194          	.word	0x00000194
     1a8:	00008e84          	.word	0x00008e84
     1ac:	004d8d93          	addi	x27,x27,4

# Testcase cp_rs1 (Test source rs1 = x8)
  RVTEST_TESTDATA_LOAD_INT(x26, x8) # load rs1: x8 = 0x3a7ea037
     1b0:	000d2403          	lw	x8,0(x26)
     1b4:	004d0d13          	addi	x26,x26,4
  RVTEST_TESTDATA_LOAD_INT(x26, x0) # load rs2: x0 = 0xb274a85a
     1b8:	000d2003          	lw	x0,0(x26)
     1bc:	004d0d13          	addi	x26,x26,4

000001c0 <I_or_cg_cp_rs1_b8>:
I_or_cg_cp_rs1_b8:
  or x21, x8, x0 # perform operation
     1c0:	00046ab3          	or	x21,x8,x0
  # Check if x21 contains the expected result. x27 is the signature ptr, x14 is the link ptr, x13 is a temp reg.
  RVTEST_SIGUPD(x27, x14, x13, x21, I_or_cg_cp_rs1_b8, I_or_cg_cp_rs1_b8_str)
     1c4:	000da683          	lw	x13,0(x27)
     1c8:	01568863          	beq	x13,x21,1d8 <I_or_cg_cp_rs1_b8+0x18>
     1cc:	3300476f          	jal	x14,44fc <failedtest_x14_x13>
     1d0:	000001c0          	.word	0x000001c0
     1d4:	00008eb0          	.word	0x00008eb0
     1d8:	004d8d93          	addi	x27,x27,4

# Testcase cp_rs1 (Test source rs1 = x9)
  RVTEST_TESTDATA_LOAD_INT(x26, x9) # load rs1: x9 = 0x8e4c6930
     1dc:	000d2483          	lw	x9,0(x26)
     1e0:	004d0d13          	addi	x26,x26,4
  RVTEST_TESTDATA_LOAD_INT(x26, x16) # load rs2: x16 = 0xec909a43
     1e4:	000d2803          	lw	x16,0(x26)
     1e8:	004d0d13          	addi	x26,x26,4

000001ec <I_or_cg_cp_rs1_b9>:
I_or_cg_cp_rs1_b9:
  or x2, x9, x16 # perform operation
     1ec:	0104e133          	or	x2,x9,x16
  # Check if x2 contains the expected result. x27 is the signature ptr, x14 is the link ptr, x13 is a temp reg.
  RVTEST_SIGUPD(x27, x14, x13, x2, I_or_cg_cp_rs1_b9, I_or_cg_cp_rs1_b9_str)
     1f0:	000da683          	lw	x13,0(x27)
     1f4:	00268863          	beq	x13,x2,204 <I_or_cg_cp_rs1_b9+0x18>
     1f8:	3040476f          	jal	x14,44fc <failedtest_x14_x13>
     1fc:	000001ec          	.word	0x000001ec
     200:	00008edc          	.word	0x00008edc
     204:	004d8d93          	addi	x27,x27,4

# Testcase cp_rs1 (Test source rs1 = x10)
  RVTEST_TESTDATA_LOAD_INT(x26, x10) # load rs1: x10 = 0xc7bf5b80
     208:	000d2503          	lw	x10,0(x26)
     20c:	004d0d13          	addi	x26,x26,4
  RVTEST_TESTDATA_LOAD_INT(x26, x2) # load rs2: x2 = 0x69915cd7
     210:	000d2103          	lw	x2,0(x26)
     214:	004d0d13          	addi	x26,x26,4

00000218 <I_or_cg_cp_rs1_b10>:
I_or_cg_cp_rs1_b10:
  or x21, x10, x2 # perform operation
     218:	00256ab3          	or	x21,x10,x2
  # Check if x21 contains the expected result. x27 is the signature ptr, x14 is the link ptr, x13 is a temp reg.
  RVTEST_SIGUPD(x27, x14, x13, x21, I_or_cg_cp_rs1_b10, I_or_cg_cp_rs1_b10_str)
     21c:	000da683          	lw	x13,0(x27)
     220:	01568863          	beq	x13,x21,230 <I_or_cg_cp_rs1_b10+0x18>
     224:	2d80476f          	jal	x14,44fc <failedtest_x14_x13>
     228:	00000218          	.word	0x00000218
     22c:	00008f09          	.word	0x00008f09
     230:	004d8d93          	addi	x27,x27,4

# Testcase cp_rs1 (Test source rs1 = x11)
  RVTEST_TESTDATA_LOAD_INT(x26, x11) # load rs1: x11 = 0xecd79a88
     234:	000d2583          	lw	x11,0(x26)
     238:	004d0d13          	addi	x26,x26,4
  RVTEST_TESTDATA_LOAD_INT(x26, x16) # load rs2: x16 = 0x13e9dee4
     23c:	000d2803          	lw	x16,0(x26)
     240:	004d0d13          	addi	x26,x26,4

00000244 <I_or_cg_cp_rs1_b11>:
I_or_cg_cp_rs1_b11:
  or x22, x11, x16 # perform operation
     244:	0105eb33          	or	x22,x11,x16
  # Check if x22 contains the expected result. x27 is the signature ptr, x14 is the link ptr, x13 is a temp reg.
  RVTEST_SIGUPD(x27, x14, x13, x22, I_or_cg_cp_rs1_b11, I_or_cg_cp_rs1_b11_str)
     248:	000da683          	lw	x13,0(x27)
     24c:	01668863          	beq	x13,x22,25c <I_or_cg_cp_rs1_b11+0x18>
     250:	2ac0476f          	jal	x14,44fc <failedtest_x14_x13>
     254:	00000244          	.word	0x00000244
     258:	00008f37          	.word	0x00008f37
     25c:	004d8d93          	addi	x27,x27,4

# Testcase cp_rs1 (Test source rs1 = x12)
  RVTEST_TESTDATA_LOAD_INT(x26, x12) # load rs1: x12 = 0x22388f7a
     260:	000d2603          	lw	x12,0(x26)
     264:	004d0d13          	addi	x26,x26,4
  RVTEST_TESTDATA_LOAD_INT(x26, x15) # load rs2: x15 = 0x3ea6556b
     268:	000d2783          	lw	x15,0(x26)
     26c:	004d0d13          	addi	x26,x26,4

00000270 <I_or_cg_cp_rs1_b12>:
I_or_cg_cp_rs1_b12:
  or x5, x12, x15 # perform operation
     270:	00f662b3          	or	x5,x12,x15
  # Check if x5 contains the expected result. x27 is the signature ptr, x14 is the link ptr, x13 is a temp reg.
  RVTEST_SIGUPD(x27, x14, x13, x5, I_or_cg_cp_rs1_b12, I_or_cg_cp_rs1_b12_str)
     274:	000da683          	lw	x13,0(x27)
     278:	00568863          	beq	x13,x5,288 <I_or_cg_cp_rs1_b12+0x18>
     27c:	2800476f          	jal	x14,44fc <failedtest_x14_x13>
     280:	00000270          	.word	0x00000270
     284:	00008f65          	.word	0x00008f65
     288:	004d8d93          	addi	x27,x27,4

  mv x4, x13 # switch temp register to avoid conflict with test
     28c:	00068213          	addi	x4,x13,0
  mv x5, x14 # switch link pointer register to avoid conflict with test
     290:	00070293          	addi	x5,x14,0
# Testcase cp_rs1 (Test source rs1 = x13)
  RVTEST_TESTDATA_LOAD_INT(x26, x13) # load rs1: x13 = 0xdbc6102f
     294:	000d2683          	lw	x13,0(x26)
     298:	004d0d13          	addi	x26,x26,4
  RVTEST_TESTDATA_LOAD_INT(x26, x11) # load rs2: x11 = 0x991ea306
     29c:	000d2583          	lw	x11,0(x26)
     2a0:	004d0d13          	addi	x26,x26,4

000002a4 <I_or_cg_cp_rs1_b13>:
I_or_cg_cp_rs1_b13:
  or x15, x13, x11 # perform operation
     2a4:	00b6e7b3          	or	x15,x13,x11
  # Check if x15 contains the expected result. x27 is the signature ptr, x5 is the link ptr, x4 is a temp reg.
  RVTEST_SIGUPD(x27, x5, x4, x15, I_or_cg_cp_rs1_b13, I_or_cg_cp_rs1_b13_str)
     2a8:	000da203          	lw	x4,0(x27)
     2ac:	00f20863          	beq	x4,x15,2bc <I_or_cg_cp_rs1_b13+0x18>
     2b0:	20c042ef          	jal	x5,44bc <failedtest_x5_x4>
     2b4:	000002a4          	.word	0x000002a4
     2b8:	00008f93          	.word	0x00008f93
     2bc:	004d8d93          	addi	x27,x27,4

# Testcase cp_rs1 (Test source rs1 = x14)
  RVTEST_TESTDATA_LOAD_INT(x26, x14) # load rs1: x14 = 0x3a06e15f
     2c0:	000d2703          	lw	x14,0(x26)
     2c4:	004d0d13          	addi	x26,x26,4
  RVTEST_TESTDATA_LOAD_INT(x26, x3) # load rs2: x3 = 0xc6d1efc2
     2c8:	000d2183          	lw	x3,0(x26)
     2cc:	004d0d13          	addi	x26,x26,4

000002d0 <I_or_cg_cp_rs1_b14>:
I_or_cg_cp_rs1_b14:
  or x20, x14, x3 # perform operation
     2d0:	00376a33          	or	x20,x14,x3
  # Check if x20 contains the expected result. x27 is the signature ptr, x5 is the link ptr, x4 is a temp reg.
  RVTEST_SIGUPD(x27, x5, x4, x20, I_or_cg_cp_rs1_b14, I_or_cg_cp_rs1_b14_str)
     2d4:	000da203          	lw	x4,0(x27)
     2d8:	01420863          	beq	x4,x20,2e8 <I_or_cg_cp_rs1_b14+0x18>
     2dc:	1e0042ef          	jal	x5,44bc <failedtest_x5_x4>
     2e0:	000002d0          	.word	0x000002d0
     2e4:	00008fc1          	.word	0x00008fc1
     2e8:	004d8d93          	addi	x27,x27,4

# Testcase cp_rs1 (Test source rs1 = x15)
  RVTEST_TESTDATA_LOAD_INT(x26, x15) # load rs1: x15 = 0x0d114205
     2ec:	000d2783          	lw	x15,0(x26)
     2f0:	004d0d13          	addi	x26,x26,4
  RVTEST_TESTDATA_LOAD_INT(x26, x20) # load rs2: x20 = 0x65ec99bb
     2f4:	000d2a03          	lw	x20,0(x26)
     2f8:	004d0d13          	addi	x26,x26,4

000002fc <I_or_cg_cp_rs1_b15>:
I_or_cg_cp_rs1_b15:
  or x6, x15, x20 # perform operation
     2fc:	0147e333          	or	x6,x15,x20
  # Check if x6 contains the expected result. x27 is the signature ptr, x5 is the link ptr, x4 is a temp reg.
  RVTEST_SIGUPD(x27, x5, x4, x6, I_or_cg_cp_rs1_b15, I_or_cg_cp_rs1_b15_str)
     300:	000da203          	lw	x4,0(x27)
     304:	00620863          	beq	x4,x6,314 <imm12+0xb>
     308:	1b4042ef          	jal	x5,44bc <failedtest_x5_x4>
     30c:	000002fc          	.word	0x000002fc
     310:	00008fef          	.word	0x00008fef
     314:	004d8d93          	addi	x27,x27,4

# Testcase cp_rs1 (Test source rs1 = x16)
  RVTEST_TESTDATA_LOAD_INT(x26, x16) # load rs1: x16 = 0xc6fcca10
     318:	000d2803          	lw	x16,0(x26)
     31c:	004d0d13          	addi	x26,x26,4
  RVTEST_TESTDATA_LOAD_INT(x26, x18) # load rs2: x18 = 0x25554ad0
     320:	000d2903          	lw	x18,0(x26)
     324:	004d0d13          	addi	x26,x26,4

00000328 <I_or_cg_cp_rs1_b16>:
I_or_cg_cp_rs1_b16:
  or x31, x16, x18 # perform operation
     328:	01286fb3          	or	x31,x16,x18
  # Check if x31 contains the expected result. x27 is the signature ptr, x5 is the link ptr, x4 is a temp reg.
  RVTEST_SIGUPD(x27, x5, x4, x31, I_or_cg_cp_rs1_b16, I_or_cg_cp_rs1_b16_str)
     32c:	000da203          	lw	x4,0(x27)
     330:	01f20863          	beq	x4,x31,340 <I_or_cg_cp_rs1_b16+0x18>
     334:	188042ef          	jal	x5,44bc <failedtest_x5_x4>
     338:	00000328          	.word	0x00000328
     33c:	0000901d          	.word	0x0000901d
     340:	004d8d93          	addi	x27,x27,4

# Testcase cp_rs1 (Test source rs1 = x17)
  RVTEST_TESTDATA_LOAD_INT(x26, x17) # load rs1: x17 = 0xcd019d53
     344:	000d2883          	lw	x17,0(x26)
     348:	004d0d13          	addi	x26,x26,4
  RVTEST_TESTDATA_LOAD_INT(x26, x11) # load rs2: x11 = 0x7780d9cf
     34c:	000d2583          	lw	x11,0(x26)
     350:	004d0d13          	addi	x26,x26,4

00000354 <I_or_cg_cp_rs1_b17>:
I_or_cg_cp_rs1_b17:
  or x12, x17, x11 # perform operation
     354:	00b8e633          	or	x12,x17,x11
  # Check if x12 contains the expected result. x27 is the signature ptr, x5 is the link ptr, x4 is a temp reg.
  RVTEST_SIGUPD(x27, x5, x4, x12, I_or_cg_cp_rs1_b17, I_or_cg_cp_rs1_b17_str)
     358:	000da203          	lw	x4,0(x27)
     35c:	00c20863          	beq	x4,x12,36c <I_or_cg_cp_rs1_b17+0x18>
     360:	15c042ef          	jal	x5,44bc <failedtest_x5_x4>
     364:	00000354          	.word	0x00000354
     368:	0000904b          	.word	0x0000904b
     36c:	004d8d93          	addi	x27,x27,4

# Testcase cp_rs1 (Test source rs1 = x18)
  RVTEST_TESTDATA_LOAD_INT(x26, x18) # load rs1: x18 = 0x561b6ccc
     370:	000d2903          	lw	x18,0(x26)
     374:	004d0d13          	addi	x26,x26,4
  RVTEST_TESTDATA_LOAD_INT(x26, x3) # load rs2: x3 = 0xdd1a5dff
     378:	000d2183          	lw	x3,0(x26)
     37c:	004d0d13          	addi	x26,x26,4

00000380 <I_or_cg_cp_rs1_b18>:
I_or_cg_cp_rs1_b18:
  or x20, x18, x3 # perform operation
     380:	00396a33          	or	x20,x18,x3
  # Check if x20 contains the expected result. x27 is the signature ptr, x5 is the link ptr, x4 is a temp reg.
  RVTEST_SIGUPD(x27, x5, x4, x20, I_or_cg_cp_rs1_b18, I_or_cg_cp_rs1_b18_str)
     384:	000da203          	lw	x4,0(x27)
     388:	01420863          	beq	x4,x20,398 <I_or_cg_cp_rs1_b18+0x18>
     38c:	130042ef          	jal	x5,44bc <failedtest_x5_x4>
     390:	00000380          	.word	0x00000380
     394:	00009079          	.word	0x00009079
     398:	004d8d93          	addi	x27,x27,4

# Testcase cp_rs1 (Test source rs1 = x19)
  RVTEST_TESTDATA_LOAD_INT(x26, x19) # load rs1: x19 = 0x25bb15f3
     39c:	000d2983          	lw	x19,0(x26)
     3a0:	004d0d13          	addi	x26,x26,4
  RVTEST_TESTDATA_LOAD_INT(x26, x23) # load rs2: x23 = 0xb75dd76f
     3a4:	000d2b83          	lw	x23,0(x26)
     3a8:	004d0d13          	addi	x26,x26,4

000003ac <I_or_cg_cp_rs1_b19>:
I_or_cg_cp_rs1_b19:
  or x20, x19, x23 # perform operation
     3ac:	0179ea33          	or	x20,x19,x23
  # Check if x20 contains the expected result. x27 is the signature ptr, x5 is the link ptr, x4 is a temp reg.
  RVTEST_SIGUPD(x27, x5, x4, x20, I_or_cg_cp_rs1_b19, I_or_cg_cp_rs1_b19_str)
     3b0:	000da203          	lw	x4,0(x27)
     3b4:	01420863          	beq	x4,x20,3c4 <I_or_cg_cp_rs1_b19+0x18>
     3b8:	104042ef          	jal	x5,44bc <failedtest_x5_x4>
     3bc:	000003ac          	.word	0x000003ac
     3c0:	000090a7          	.word	0x000090a7
     3c4:	004d8d93          	addi	x27,x27,4

# Testcase cp_rs1 (Test source rs1 = x20)
  RVTEST_TESTDATA_LOAD_INT(x26, x20) # load rs1: x20 = 0x754540bb
     3c8:	000d2a03          	lw	x20,0(x26)
     3cc:	004d0d13          	addi	x26,x26,4
  RVTEST_TESTDATA_LOAD_INT(x26, x1) # load rs2: x1 = 0xb0f01411
     3d0:	000d2083          	lw	x1,0(x26)
     3d4:	004d0d13          	addi	x26,x26,4

000003d8 <I_or_cg_cp_rs1_b20>:
I_or_cg_cp_rs1_b20:
  or x2, x20, x1 # perform operation
     3d8:	001a6133          	or	x2,x20,x1
  # Check if x2 contains the expected result. x27 is the signature ptr, x5 is the link ptr, x4 is a temp reg.
  RVTEST_SIGUPD(x27, x5, x4, x2, I_or_cg_cp_rs1_b20, I_or_cg_cp_rs1_b20_str)
     3dc:	000da203          	lw	x4,0(x27)
     3e0:	00220863          	beq	x4,x2,3f0 <I_or_cg_cp_rs1_b20+0x18>
     3e4:	0d8042ef          	jal	x5,44bc <failedtest_x5_x4>
     3e8:	000003d8          	.word	0x000003d8
     3ec:	000090d5          	.word	0x000090d5
     3f0:	004d8d93          	addi	x27,x27,4

# Testcase cp_rs1 (Test source rs1 = x21)
  RVTEST_TESTDATA_LOAD_INT(x26, x21) # load rs1: x21 = 0x23f1c987
     3f4:	000d2a83          	lw	x21,0(x26)
     3f8:	004d0d13          	addi	x26,x26,4
  RVTEST_TESTDATA_LOAD_INT(x26, x17) # load rs2: x17 = 0x35899b84
     3fc:	000d2883          	lw	x17,0(x26)
     400:	004d0d13          	addi	x26,x26,4

00000404 <I_or_cg_cp_rs1_b21>:
I_or_cg_cp_rs1_b21:
  or x28, x21, x17 # perform operation
     404:	011aee33          	or	x28,x21,x17
  # Check if x28 contains the expected result. x27 is the signature ptr, x5 is the link ptr, x4 is a temp reg.
  RVTEST_SIGUPD(x27, x5, x4, x28, I_or_cg_cp_rs1_b21, I_or_cg_cp_rs1_b21_str)
     408:	000da203          	lw	x4,0(x27)
     40c:	01c20863          	beq	x4,x28,41c <I_or_cg_cp_rs1_b21+0x18>
     410:	0ac042ef          	jal	x5,44bc <failedtest_x5_x4>
     414:	00000404          	.word	0x00000404
     418:	00009103          	.word	0x00009103
     41c:	004d8d93          	addi	x27,x27,4

# Testcase cp_rs1 (Test source rs1 = x22)
  RVTEST_TESTDATA_LOAD_INT(x26, x22) # load rs1: x22 = 0xd2550d77
     420:	000d2b03          	lw	x22,0(x26)
     424:	004d0d13          	addi	x26,x26,4
  RVTEST_TESTDATA_LOAD_INT(x26, x3) # load rs2: x3 = 0x510d0538
     428:	000d2183          	lw	x3,0(x26)
     42c:	004d0d13          	addi	x26,x26,4

00000430 <I_or_cg_cp_rs1_b22>:
I_or_cg_cp_rs1_b22:
  or x20, x22, x3 # perform operation
     430:	003b6a33          	or	x20,x22,x3
  # Check if x20 contains the expected result. x27 is the signature ptr, x5 is the link ptr, x4 is a temp reg.
  RVTEST_SIGUPD(x27, x5, x4, x20, I_or_cg_cp_rs1_b22, I_or_cg_cp_rs1_b22_str)
     434:	000da203          	lw	x4,0(x27)
     438:	01420863          	beq	x4,x20,448 <I_or_cg_cp_rs1_b22+0x18>
     43c:	080042ef          	jal	x5,44bc <failedtest_x5_x4>
     440:	00000430          	.word	0x00000430
     444:	00009131          	.word	0x00009131
     448:	004d8d93          	addi	x27,x27,4

# Testcase cp_rs1 (Test source rs1 = x23)
  RVTEST_TESTDATA_LOAD_INT(x26, x23) # load rs1: x23 = 0x7ecc6491
     44c:	000d2b83          	lw	x23,0(x26)
     450:	004d0d13          	addi	x26,x26,4
  RVTEST_TESTDATA_LOAD_INT(x26, x30) # load rs2: x30 = 0x25be2455
     454:	000d2f03          	lw	x30,0(x26)
     458:	004d0d13          	addi	x26,x26,4

0000045c <I_or_cg_cp_rs1_b23>:
I_or_cg_cp_rs1_b23:
  or x8, x23, x30 # perform operation
     45c:	01ebe433          	or	x8,x23,x30
  # Check if x8 contains the expected result. x27 is the signature ptr, x5 is the link ptr, x4 is a temp reg.
  RVTEST_SIGUPD(x27, x5, x4, x8, I_or_cg_cp_rs1_b23, I_or_cg_cp_rs1_b23_str)
     460:	000da203          	lw	x4,0(x27)
     464:	00820863          	beq	x4,x8,474 <I_or_cg_cp_rs1_b23+0x18>
     468:	054042ef          	jal	x5,44bc <failedtest_x5_x4>
     46c:	0000045c          	.word	0x0000045c
     470:	0000915f          	.word	0x0000915f
     474:	004d8d93          	addi	x27,x27,4

# Testcase cp_rs1 (Test source rs1 = x24)
  RVTEST_TESTDATA_LOAD_INT(x26, x24) # load rs1: x24 = 0xdb728da2
     478:	000d2c03          	lw	x24,0(x26)
     47c:	004d0d13          	addi	x26,x26,4
  RVTEST_TESTDATA_LOAD_INT(x26, x3) # load rs2: x3 = 0xd532ab3e
     480:	000d2183          	lw	x3,0(x26)
     484:	004d0d13          	addi	x26,x26,4

00000488 <I_or_cg_cp_rs1_b24>:
I_or_cg_cp_rs1_b24:
  or x19, x24, x3 # perform operation
     488:	003c69b3          	or	x19,x24,x3
  # Check if x19 contains the expected result. x27 is the signature ptr, x5 is the link ptr, x4 is a temp reg.
  RVTEST_SIGUPD(x27, x5, x4, x19, I_or_cg_cp_rs1_b24, I_or_cg_cp_rs1_b24_str)
     48c:	000da203          	lw	x4,0(x27)
     490:	01320863          	beq	x4,x19,4a0 <I_or_cg_cp_rs1_b24+0x18>
     494:	028042ef          	jal	x5,44bc <failedtest_x5_x4>
     498:	00000488          	.word	0x00000488
     49c:	0000918d          	.word	0x0000918d
     4a0:	004d8d93          	addi	x27,x27,4

# Testcase cp_rs1 (Test source rs1 = x25)
  RVTEST_TESTDATA_LOAD_INT(x26, x25) # load rs1: x25 = 0xb8fa217f
     4a4:	000d2c83          	lw	x25,0(x26)
     4a8:	004d0d13          	addi	x26,x26,4
  RVTEST_TESTDATA_LOAD_INT(x26, x6) # load rs2: x6 = 0x06f4e471
     4ac:	000d2303          	lw	x6,0(x26)
     4b0:	004d0d13          	addi	x26,x26,4

000004b4 <I_or_cg_cp_rs1_b25>:
I_or_cg_cp_rs1_b25:
  or x10, x25, x6 # perform operation
     4b4:	006ce533          	or	x10,x25,x6
  # Check if x10 contains the expected result. x27 is the signature ptr, x5 is the link ptr, x4 is a temp reg.
  RVTEST_SIGUPD(x27, x5, x4, x10, I_or_cg_cp_rs1_b25, I_or_cg_cp_rs1_b25_str)
     4b8:	000da203          	lw	x4,0(x27)
     4bc:	00a20863          	beq	x4,x10,4cc <I_or_cg_cp_rs1_b25+0x18>
     4c0:	7fd032ef          	jal	x5,44bc <failedtest_x5_x4>
     4c4:	000004b4          	.word	0x000004b4
     4c8:	000091bb          	.word	0x000091bb
     4cc:	004d8d93          	addi	x27,x27,4

  mv x25, x26 # switch data pointer register to avoid conflict with test
     4d0:	000d0c93          	addi	x25,x26,0
# Testcase cp_rs1 (Test source rs1 = x26)
  RVTEST_TESTDATA_LOAD_INT(x25, x26) # load rs1: x26 = 0xd3deec64
     4d4:	000cad03          	lw	x26,0(x25)
     4d8:	004c8c93          	addi	x25,x25,4
  RVTEST_TESTDATA_LOAD_INT(x25, x17) # load rs2: x17 = 0xc93ce1b3
     4dc:	000ca883          	lw	x17,0(x25)
     4e0:	004c8c93          	addi	x25,x25,4

000004e4 <I_or_cg_cp_rs1_b26>:
I_or_cg_cp_rs1_b26:
  or x11, x26, x17 # perform operation
     4e4:	011d65b3          	or	x11,x26,x17
  # Check if x11 contains the expected result. x27 is the signature ptr, x5 is the link ptr, x4 is a temp reg.
  RVTEST_SIGUPD(x27, x5, x4, x11, I_or_cg_cp_rs1_b26, I_or_cg_cp_rs1_b26_str)
     4e8:	000da203          	lw	x4,0(x27)
     4ec:	00b20863          	beq	x4,x11,4fc <I_or_cg_cp_rs1_b26+0x18>
     4f0:	7cd032ef          	jal	x5,44bc <failedtest_x5_x4>
     4f4:	000004e4          	.word	0x000004e4
     4f8:	000091e9          	.word	0x000091e9
     4fc:	004d8d93          	addi	x27,x27,4

  mv x1, x27 # switch signature pointer register to avoid conflict with test
     500:	000d8093          	addi	x1,x27,0
# Testcase cp_rs1 (Test source rs1 = x27)
  RVTEST_TESTDATA_LOAD_INT(x25, x27) # load rs1: x27 = 0x555f0d2a
     504:	000cad83          	lw	x27,0(x25)
     508:	004c8c93          	addi	x25,x25,4
  RVTEST_TESTDATA_LOAD_INT(x25, x17) # load rs2: x17 = 0x7ae6e9b5
     50c:	000ca883          	lw	x17,0(x25)
     510:	004c8c93          	addi	x25,x25,4

00000514 <I_or_cg_cp_rs1_b27>:
I_or_cg_cp_rs1_b27:
  or x21, x27, x17 # perform operation
     514:	011deab3          	or	x21,x27,x17
  # Check if x21 contains the expected result. x1 is the signature ptr, x5 is the link ptr, x4 is a temp reg.
  RVTEST_SIGUPD(x1, x5, x4, x21, I_or_cg_cp_rs1_b27, I_or_cg_cp_rs1_b27_str)
     518:	0000a203          	lw	x4,0(x1)
     51c:	01520863          	beq	x4,x21,52c <I_or_cg_cp_rs1_b27+0x18>
     520:	79d032ef          	jal	x5,44bc <failedtest_x5_x4>
     524:	00000514          	.word	0x00000514
     528:	00009217          	.word	0x00009217
     52c:	00408093          	addi	x1,x1,4

# Testcase cp_rs1 (Test source rs1 = x28)
  RVTEST_TESTDATA_LOAD_INT(x25, x28) # load rs1: x28 = 0x964b6fc0
     530:	000cae03          	lw	x28,0(x25)
     534:	004c8c93          	addi	x25,x25,4
  RVTEST_TESTDATA_LOAD_INT(x25, x14) # load rs2: x14 = 0x59ab34ff
     538:	000ca703          	lw	x14,0(x25)
     53c:	004c8c93          	addi	x25,x25,4

00000540 <I_or_cg_cp_rs1_b28>:
I_or_cg_cp_rs1_b28:
  or x7, x28, x14 # perform operation
     540:	00ee63b3          	or	x7,x28,x14
  # Check if x7 contains the expected result. x1 is the signature ptr, x5 is the link ptr, x4 is a temp reg.
  RVTEST_SIGUPD(x1, x5, x4, x7, I_or_cg_cp_rs1_b28, I_or_cg_cp_rs1_b28_str)
     544:	0000a203          	lw	x4,0(x1)
     548:	00720863          	beq	x4,x7,558 <I_or_cg_cp_rs1_b28+0x18>
     54c:	771032ef          	jal	x5,44bc <failedtest_x5_x4>
     550:	00000540          	.word	0x00000540
     554:	00009245          	.word	0x00009245
     558:	00408093          	addi	x1,x1,4

# Testcase cp_rs1 (Test source rs1 = x29)
  RVTEST_TESTDATA_LOAD_INT(x25, x29) # load rs1: x29 = 0xe4b6f558
     55c:	000cae83          	lw	x29,0(x25)
     560:	004c8c93          	addi	x25,x25,4
  RVTEST_TESTDATA_LOAD_INT(x25, x19) # load rs2: x19 = 0x36e7129c
     564:	000ca983          	lw	x19,0(x25)
     568:	004c8c93          	addi	x25,x25,4

0000056c <I_or_cg_cp_rs1_b29>:
I_or_cg_cp_rs1_b29:
  or x11, x29, x19 # perform operation
     56c:	013ee5b3          	or	x11,x29,x19
  # Check if x11 contains the expected result. x1 is the signature ptr, x5 is the link ptr, x4 is a temp reg.
  RVTEST_SIGUPD(x1, x5, x4, x11, I_or_cg_cp_rs1_b29, I_or_cg_cp_rs1_b29_str)
     570:	0000a203          	lw	x4,0(x1)
     574:	00b20863          	beq	x4,x11,584 <I_or_cg_cp_rs1_b29+0x18>
     578:	745032ef          	jal	x5,44bc <failedtest_x5_x4>
     57c:	0000056c          	.word	0x0000056c
     580:	00009273          	.word	0x00009273
     584:	00408093          	addi	x1,x1,4

# Testcase cp_rs1 (Test source rs1 = x30)
  RVTEST_TESTDATA_LOAD_INT(x25, x30) # load rs1: x30 = 0xff7019a2
     588:	000caf03          	lw	x30,0(x25)
     58c:	004c8c93          	addi	x25,x25,4
  RVTEST_TESTDATA_LOAD_INT(x25, x22) # load rs2: x22 = 0x2a292362
     590:	000cab03          	lw	x22,0(x25)
     594:	004c8c93          	addi	x25,x25,4

00000598 <I_or_cg_cp_rs1_b30>:
I_or_cg_cp_rs1_b30:
  or x10, x30, x22 # perform operation
     598:	016f6533          	or	x10,x30,x22
  # Check if x10 contains the expected result. x1 is the signature ptr, x5 is the link ptr, x4 is a temp reg.
  RVTEST_SIGUPD(x1, x5, x4, x10, I_or_cg_cp_rs1_b30, I_or_cg_cp_rs1_b30_str)
     59c:	0000a203          	lw	x4,0(x1)
     5a0:	00a20863          	beq	x4,x10,5b0 <I_or_cg_cp_rs1_b30+0x18>
     5a4:	719032ef          	jal	x5,44bc <failedtest_x5_x4>
     5a8:	00000598          	.word	0x00000598
     5ac:	000092a1          	.word	0x000092a1
     5b0:	00408093          	addi	x1,x1,4

# Testcase cp_rs1 (Test source rs1 = x31)
  RVTEST_TESTDATA_LOAD_INT(x25, x31) # load rs1: x31 = 0x786d8e81
     5b4:	000caf83          	lw	x31,0(x25)
     5b8:	004c8c93          	addi	x25,x25,4
  RVTEST_TESTDATA_LOAD_INT(x25, x17) # load rs2: x17 = 0x5208ddd6
     5bc:	000ca883          	lw	x17,0(x25)
     5c0:	004c8c93          	addi	x25,x25,4

000005c4 <I_or_cg_cp_rs1_b31>:
I_or_cg_cp_rs1_b31:
  or x22, x31, x17 # perform operation
     5c4:	011feb33          	or	x22,x31,x17
  # Check if x22 contains the expected result. x1 is the signature ptr, x5 is the link ptr, x4 is a temp reg.
  RVTEST_SIGUPD(x1, x5, x4, x22, I_or_cg_cp_rs1_b31, I_or_cg_cp_rs1_b31_str)
     5c8:	0000a203          	lw	x4,0(x1)
     5cc:	01620863          	beq	x4,x22,5dc <I_or_cg_cp_rs1_b31+0x18>
     5d0:	6ed032ef          	jal	x5,44bc <failedtest_x5_x4>
     5d4:	000005c4          	.word	0x000005c4
     5d8:	000092cf          	.word	0x000092cf
     5dc:	00408093          	addi	x1,x1,4
/////////////////////////////////
// cp_rs2
/////////////////////////////////

# Testcase cp_rs2 (Test source rs2 = x0)
  RVTEST_TESTDATA_LOAD_INT(x25, x7) # load rs1: x7 = 0x95c830b6
     5e0:	000ca383          	lw	x7,0(x25)
     5e4:	004c8c93          	addi	x25,x25,4
  RVTEST_TESTDATA_LOAD_INT(x25, x0) # load rs2: x0 = 0xbc457ab3
     5e8:	000ca003          	lw	x0,0(x25)
     5ec:	004c8c93          	addi	x25,x25,4

000005f0 <I_or_cg_cp_rs2_b0>:
I_or_cg_cp_rs2_b0:
  or x8, x7, x0 # perform operation
     5f0:	0003e433          	or	x8,x7,x0
  # Check if x8 contains the expected result. x1 is the signature ptr, x5 is the link ptr, x4 is a temp reg.
  RVTEST_SIGUPD(x1, x5, x4, x8, I_or_cg_cp_rs2_b0, I_or_cg_cp_rs2_b0_str)
     5f4:	0000a203          	lw	x4,0(x1)
     5f8:	00820863          	beq	x4,x8,608 <I_or_cg_cp_rs2_b0+0x18>
     5fc:	6c1032ef          	jal	x5,44bc <failedtest_x5_x4>
     600:	000005f0          	.word	0x000005f0
     604:	000092fd          	.word	0x000092fd
     608:	00408093          	addi	x1,x1,4

  mv x11, x1 # switch signature pointer register to avoid conflict with test
     60c:	00008593          	addi	x11,x1,0
# Testcase cp_rs2 (Test source rs2 = x1)
  RVTEST_TESTDATA_LOAD_INT(x25, x20) # load rs1: x20 = 0x1feed6d7
     610:	000caa03          	lw	x20,0(x25)
     614:	004c8c93          	addi	x25,x25,4
  RVTEST_TESTDATA_LOAD_INT(x25, x1) # load rs2: x1 = 0xca944d60
     618:	000ca083          	lw	x1,0(x25)
     61c:	004c8c93          	addi	x25,x25,4

00000620 <I_or_cg_cp_rs2_b1>:
I_or_cg_cp_rs2_b1:
  or x15, x20, x1 # perform operation
     620:	001a67b3          	or	x15,x20,x1
  # Check if x15 contains the expected result. x11 is the signature ptr, x5 is the link ptr, x4 is a temp reg.
  RVTEST_SIGUPD(x11, x5, x4, x15, I_or_cg_cp_rs2_b1, I_or_cg_cp_rs2_b1_str)
     624:	0005a203          	lw	x4,0(x11)
     628:	00f20863          	beq	x4,x15,638 <I_or_cg_cp_rs2_b1+0x18>
     62c:	691032ef          	jal	x5,44bc <failedtest_x5_x4>
     630:	00000620          	.word	0x00000620
     634:	0000932a          	.word	0x0000932a
     638:	00458593          	addi	x11,x11,4

# Testcase cp_rs2 (Test source rs2 = x2)
  RVTEST_TESTDATA_LOAD_INT(x25, x15) # load rs1: x15 = 0x25d4edb8
     63c:	000ca783          	lw	x15,0(x25)
     640:	004c8c93          	addi	x25,x25,4
  RVTEST_TESTDATA_LOAD_INT(x25, x2) # load rs2: x2 = 0x912d1b8d
     644:	000ca103          	lw	x2,0(x25)
     648:	004c8c93          	addi	x25,x25,4

0000064c <I_or_cg_cp_rs2_b2>:
I_or_cg_cp_rs2_b2:
  or x13, x15, x2 # perform operation
     64c:	0027e6b3          	or	x13,x15,x2
  # Check if x13 contains the expected result. x11 is the signature ptr, x5 is the link ptr, x4 is a temp reg.
  RVTEST_SIGUPD(x11, x5, x4, x13, I_or_cg_cp_rs2_b2, I_or_cg_cp_rs2_b2_str)
     650:	0005a203          	lw	x4,0(x11)
     654:	00d20863          	beq	x4,x13,664 <I_or_cg_cp_rs2_b2+0x18>
     658:	665032ef          	jal	x5,44bc <failedtest_x5_x4>
     65c:	0000064c          	.word	0x0000064c
     660:	00009357          	.word	0x00009357
     664:	00458593          	addi	x11,x11,4

# Testcase cp_rs2 (Test source rs2 = x3)
  RVTEST_TESTDATA_LOAD_INT(x25, x23) # load rs1: x23 = 0x46b3683d
     668:	000cab83          	lw	x23,0(x25)
     66c:	004c8c93          	addi	x25,x25,4
  RVTEST_TESTDATA_LOAD_INT(x25, x3) # load rs2: x3 = 0x09d1c9ac
     670:	000ca183          	lw	x3,0(x25)
     674:	004c8c93          	addi	x25,x25,4

00000678 <I_or_cg_cp_rs2_b3>:
I_or_cg_cp_rs2_b3:
  or x6, x23, x3 # perform operation
     678:	003be333          	or	x6,x23,x3
  # Check if x6 contains the expected result. x11 is the signature ptr, x5 is the link ptr, x4 is a temp reg.
  RVTEST_SIGUPD(x11, x5, x4, x6, I_or_cg_cp_rs2_b3, I_or_cg_cp_rs2_b3_str)
     67c:	0005a203          	lw	x4,0(x11)
     680:	00620863          	beq	x4,x6,690 <I_or_cg_cp_rs2_b3+0x18>
     684:	639032ef          	jal	x5,44bc <failedtest_x5_x4>
     688:	00000678          	.word	0x00000678
     68c:	00009384          	.word	0x00009384
     690:	00458593          	addi	x11,x11,4

  mv x13, x4 # switch temp register to avoid conflict with test
     694:	00020693          	addi	x13,x4,0 # 0 <rvtest_entry_point>
  mv x14, x5 # switch link pointer register to avoid conflict with test
     698:	00028713          	addi	x14,x5,0
# Testcase cp_rs2 (Test source rs2 = x4)
  RVTEST_TESTDATA_LOAD_INT(x25, x20) # load rs1: x20 = 0x13556adc
     69c:	000caa03          	lw	x20,0(x25)
     6a0:	004c8c93          	addi	x25,x25,4
  RVTEST_TESTDATA_LOAD_INT(x25, x4) # load rs2: x4 = 0x7f7942b6
     6a4:	000ca203          	lw	x4,0(x25)
     6a8:	004c8c93          	addi	x25,x25,4

000006ac <I_or_cg_cp_rs2_b4>:
I_or_cg_cp_rs2_b4:
  or x29, x20, x4 # perform operation
     6ac:	004a6eb3          	or	x29,x20,x4
  # Check if x29 contains the expected result. x11 is the signature ptr, x14 is the link ptr, x13 is a temp reg.
  RVTEST_SIGUPD(x11, x14, x13, x29, I_or_cg_cp_rs2_b4, I_or_cg_cp_rs2_b4_str)
     6b0:	0005a683          	lw	x13,0(x11)
     6b4:	01d68863          	beq	x13,x29,6c4 <I_or_cg_cp_rs2_b4+0x18>
     6b8:	6450376f          	jal	x14,44fc <failedtest_x14_x13>
     6bc:	000006ac          	.word	0x000006ac
     6c0:	000093b1          	.word	0x000093b1
     6c4:	00458593          	addi	x11,x11,4

# Testcase cp_rs2 (Test source rs2 = x5)
  RVTEST_TESTDATA_LOAD_INT(x25, x20) # load rs1: x20 = 0xd53821e7
     6c8:	000caa03          	lw	x20,0(x25)
     6cc:	004c8c93          	addi	x25,x25,4
  RVTEST_TESTDATA_LOAD_INT(x25, x5) # load rs2: x5 = 0x3bc12b40
     6d0:	000ca283          	lw	x5,0(x25)
     6d4:	004c8c93          	addi	x25,x25,4

000006d8 <I_or_cg_cp_rs2_b5>:
I_or_cg_cp_rs2_b5:
  or x30, x20, x5 # perform operation
     6d8:	005a6f33          	or	x30,x20,x5
  # Check if x30 contains the expected result. x11 is the signature ptr, x14 is the link ptr, x13 is a temp reg.
  RVTEST_SIGUPD(x11, x14, x13, x30, I_or_cg_cp_rs2_b5, I_or_cg_cp_rs2_b5_str)
     6dc:	0005a683          	lw	x13,0(x11)
     6e0:	01e68863          	beq	x13,x30,6f0 <I_or_cg_cp_rs2_b5+0x18>
     6e4:	6190376f          	jal	x14,44fc <failedtest_x14_x13>
     6e8:	000006d8          	.word	0x000006d8
     6ec:	000093de          	.word	0x000093de
     6f0:	00458593          	addi	x11,x11,4

# Testcase cp_rs2 (Test source rs2 = x6)
  RVTEST_TESTDATA_LOAD_INT(x25, x5) # load rs1: x5 = 0xe1b81083
     6f4:	000ca283          	lw	x5,0(x25)
     6f8:	004c8c93          	addi	x25,x25,4
  RVTEST_TESTDATA_LOAD_INT(x25, x6) # load rs2: x6 = 0xd90ff356
     6fc:	000ca303          	lw	x6,0(x25)
     700:	004c8c93          	addi	x25,x25,4

00000704 <I_or_cg_cp_rs2_b6>:
I_or_cg_cp_rs2_b6:
  or x27, x5, x6 # perform operation
     704:	0062edb3          	or	x27,x5,x6
  # Check if x27 contains the expected result. x11 is the signature ptr, x14 is the link ptr, x13 is a temp reg.
  RVTEST_SIGUPD(x11, x14, x13, x27, I_or_cg_cp_rs2_b6, I_or_cg_cp_rs2_b6_str)
     708:	0005a683          	lw	x13,0(x11)
     70c:	01b68863          	beq	x13,x27,71c <I_or_cg_cp_rs2_b6+0x18>
     710:	5ed0376f          	jal	x14,44fc <failedtest_x14_x13>
     714:	00000704          	.word	0x00000704
     718:	0000940b          	.word	0x0000940b
     71c:	00458593          	addi	x11,x11,4

# Testcase cp_rs2 (Test source rs2 = x7)
  RVTEST_TESTDATA_LOAD_INT(x25, x0) # load rs1: x0 = 0x869f9432
     720:	000ca003          	lw	x0,0(x25)
     724:	004c8c93          	addi	x25,x25,4
  RVTEST_TESTDATA_LOAD_INT(x25, x7) # load rs2: x7 = 0xc865d39a
     728:	000ca383          	lw	x7,0(x25)
     72c:	004c8c93          	addi	x25,x25,4

00000730 <I_or_cg_cp_rs2_b7>:
I_or_cg_cp_rs2_b7:
  or x9, x0, x7 # perform operation
     730:	007064b3          	or	x9,x0,x7
  # Check if x9 contains the expected result. x11 is the signature ptr, x14 is the link ptr, x13 is a temp reg.
  RVTEST_SIGUPD(x11, x14, x13, x9, I_or_cg_cp_rs2_b7, I_or_cg_cp_rs2_b7_str)
     734:	0005a683          	lw	x13,0(x11)
     738:	00968863          	beq	x13,x9,748 <I_or_cg_cp_rs2_b7+0x18>
     73c:	5c10376f          	jal	x14,44fc <failedtest_x14_x13>
     740:	00000730          	.word	0x00000730
     744:	00009438          	.word	0x00009438
     748:	00458593          	addi	x11,x11,4

# Testcase cp_rs2 (Test source rs2 = x8)
  RVTEST_TESTDATA_LOAD_INT(x25, x2) # load rs1: x2 = 0x16b9b068
     74c:	000ca103          	lw	x2,0(x25)
     750:	004c8c93          	addi	x25,x25,4
  RVTEST_TESTDATA_LOAD_INT(x25, x8) # load rs2: x8 = 0xbe378bd5
     754:	000ca403          	lw	x8,0(x25)
     758:	004c8c93          	addi	x25,x25,4

0000075c <I_or_cg_cp_rs2_b8>:
I_or_cg_cp_rs2_b8:
  or x17, x2, x8 # perform operation
     75c:	008168b3          	or	x17,x2,x8
  # Check if x17 contains the expected result. x11 is the signature ptr, x14 is the link ptr, x13 is a temp reg.
  RVTEST_SIGUPD(x11, x14, x13, x17, I_or_cg_cp_rs2_b8, I_or_cg_cp_rs2_b8_str)
     760:	0005a683          	lw	x13,0(x11)
     764:	01168863          	beq	x13,x17,774 <I_or_cg_cp_rs2_b8+0x18>
     768:	5950376f          	jal	x14,44fc <failedtest_x14_x13>
     76c:	0000075c          	.word	0x0000075c
     770:	00009465          	.word	0x00009465
     774:	00458593          	addi	x11,x11,4

# Testcase cp_rs2 (Test source rs2 = x9)
  RVTEST_TESTDATA_LOAD_INT(x25, x26) # load rs1: x26 = 0x9505276a
     778:	000cad03          	lw	x26,0(x25)
     77c:	004c8c93          	addi	x25,x25,4
  RVTEST_TESTDATA_LOAD_INT(x25, x9) # load rs2: x9 = 0x725a635f
     780:	000ca483          	lw	x9,0(x25)
     784:	004c8c93          	addi	x25,x25,4

00000788 <I_or_cg_cp_rs2_b9>:
I_or_cg_cp_rs2_b9:
  or x3, x26, x9 # perform operation
     788:	009d61b3          	or	x3,x26,x9
  # Check if x3 contains the expected result. x11 is the signature ptr, x14 is the link ptr, x13 is a temp reg.
  RVTEST_SIGUPD(x11, x14, x13, x3, I_or_cg_cp_rs2_b9, I_or_cg_cp_rs2_b9_str)
     78c:	0005a683          	lw	x13,0(x11)
     790:	00368863          	beq	x13,x3,7a0 <I_or_cg_cp_rs2_b9+0x18>
     794:	5690376f          	jal	x14,44fc <failedtest_x14_x13>
     798:	00000788          	.word	0x00000788
     79c:	00009492          	.word	0x00009492
     7a0:	00458593          	addi	x11,x11,4

# Testcase cp_rs2 (Test source rs2 = x10)
  RVTEST_TESTDATA_LOAD_INT(x25, x16) # load rs1: x16 = 0x5c283c20
     7a4:	000ca803          	lw	x16,0(x25)
     7a8:	004c8c93          	addi	x25,x25,4
  RVTEST_TESTDATA_LOAD_INT(x25, x10) # load rs2: x10 = 0x2c9f85dc
     7ac:	000ca503          	lw	x10,0(x25)
     7b0:	004c8c93          	addi	x25,x25,4

000007b4 <I_or_cg_cp_rs2_b10>:
I_or_cg_cp_rs2_b10:
  or x5, x16, x10 # perform operation
     7b4:	00a862b3          	or	x5,x16,x10
  # Check if x5 contains the expected result. x11 is the signature ptr, x14 is the link ptr, x13 is a temp reg.
  RVTEST_SIGUPD(x11, x14, x13, x5, I_or_cg_cp_rs2_b10, I_or_cg_cp_rs2_b10_str)
     7b8:	0005a683          	lw	x13,0(x11)
     7bc:	00568863          	beq	x13,x5,7cc <I_or_cg_cp_rs2_b10+0x18>
     7c0:	53d0376f          	jal	x14,44fc <failedtest_x14_x13>
     7c4:	000007b4          	.word	0x000007b4
     7c8:	000094bf          	.word	0x000094bf
     7cc:	00458593          	addi	x11,x11,4

  mv x31, x11 # switch signature pointer register to avoid conflict with test
     7d0:	00058f93          	addi	x31,x11,0
# Testcase cp_rs2 (Test source rs2 = x11)
  RVTEST_TESTDATA_LOAD_INT(x25, x26) # load rs1: x26 = 0x5fa5fda0
     7d4:	000cad03          	lw	x26,0(x25)
     7d8:	004c8c93          	addi	x25,x25,4
  RVTEST_TESTDATA_LOAD_INT(x25, x11) # load rs2: x11 = 0xe960aada
     7dc:	000ca583          	lw	x11,0(x25)
     7e0:	004c8c93          	addi	x25,x25,4

000007e4 <I_or_cg_cp_rs2_b11>:
I_or_cg_cp_rs2_b11:
  or x6, x26, x11 # perform operation
     7e4:	00bd6333          	or	x6,x26,x11
  # Check if x6 contains the expected result. x31 is the signature ptr, x14 is the link ptr, x13 is a temp reg.
  RVTEST_SIGUPD(x31, x14, x13, x6, I_or_cg_cp_rs2_b11, I_or_cg_cp_rs2_b11_str)
     7e8:	000fa683          	lw	x13,0(x31)
     7ec:	00668863          	beq	x13,x6,7fc <I_or_cg_cp_rs2_b11+0x18>
     7f0:	50d0376f          	jal	x14,44fc <failedtest_x14_x13>
     7f4:	000007e4          	.word	0x000007e4
     7f8:	000094ed          	.word	0x000094ed
     7fc:	004f8f93          	addi	x31,x31,4

# Testcase cp_rs2 (Test source rs2 = x12)
  RVTEST_TESTDATA_LOAD_INT(x25, x0) # load rs1: x0 = 0xbf51b129
     800:	000ca003          	lw	x0,0(x25)
     804:	004c8c93          	addi	x25,x25,4
  RVTEST_TESTDATA_LOAD_INT(x25, x12) # load rs2: x12 = 0xd4772424
     808:	000ca603          	lw	x12,0(x25)
     80c:	004c8c93          	addi	x25,x25,4

00000810 <I_or_cg_cp_rs2_b12>:
I_or_cg_cp_rs2_b12:
  or x18, x0, x12 # perform operation
     810:	00c06933          	or	x18,x0,x12
  # Check if x18 contains the expected result. x31 is the signature ptr, x14 is the link ptr, x13 is a temp reg.
  RVTEST_SIGUPD(x31, x14, x13, x18, I_or_cg_cp_rs2_b12, I_or_cg_cp_rs2_b12_str)
     814:	000fa683          	lw	x13,0(x31)
     818:	01268863          	beq	x13,x18,828 <I_or_cg_cp_rs2_b12+0x18>
     81c:	4e10376f          	jal	x14,44fc <failedtest_x14_x13>
     820:	00000810          	.word	0x00000810
     824:	0000951b          	.word	0x0000951b
     828:	004f8f93          	addi	x31,x31,4

  mv x7, x13 # switch temp register to avoid conflict with test
     82c:	00068393          	addi	x7,x13,0
  mv x8, x14 # switch link pointer register to avoid conflict with test
     830:	00070413          	addi	x8,x14,0
# Testcase cp_rs2 (Test source rs2 = x13)
  RVTEST_TESTDATA_LOAD_INT(x25, x15) # load rs1: x15 = 0x85f97327
     834:	000ca783          	lw	x15,0(x25)
     838:	004c8c93          	addi	x25,x25,4
  RVTEST_TESTDATA_LOAD_INT(x25, x13) # load rs2: x13 = 0x9c6cf0e8
     83c:	000ca683          	lw	x13,0(x25)
     840:	004c8c93          	addi	x25,x25,4

00000844 <I_or_cg_cp_rs2_b13>:
I_or_cg_cp_rs2_b13:
  or x10, x15, x13 # perform operation
     844:	00d7e533          	or	x10,x15,x13
  # Check if x10 contains the expected result. x31 is the signature ptr, x8 is the link ptr, x7 is a temp reg.
  RVTEST_SIGUPD(x31, x8, x7, x10, I_or_cg_cp_rs2_b13, I_or_cg_cp_rs2_b13_str)
     848:	000fa383          	lw	x7,0(x31)
     84c:	00a38863          	beq	x7,x10,85c <I_or_cg_cp_rs2_b13+0x18>
     850:	4850346f          	jal	x8,44d4 <failedtest_x8_x7>
     854:	00000844          	.word	0x00000844
     858:	00009549          	.word	0x00009549
     85c:	004f8f93          	addi	x31,x31,4

# Testcase cp_rs2 (Test source rs2 = x14)
  RVTEST_TESTDATA_LOAD_INT(x25, x13) # load rs1: x13 = 0x81e2fb83
     860:	000ca683          	lw	x13,0(x25)
     864:	004c8c93          	addi	x25,x25,4
  RVTEST_TESTDATA_LOAD_INT(x25, x14) # load rs2: x14 = 0x8582821e
     868:	000ca703          	lw	x14,0(x25)
     86c:	004c8c93          	addi	x25,x25,4

00000870 <I_or_cg_cp_rs2_b14>:
I_or_cg_cp_rs2_b14:
  or x17, x13, x14 # perform operation
     870:	00e6e8b3          	or	x17,x13,x14
  # Check if x17 contains the expected result. x31 is the signature ptr, x8 is the link ptr, x7 is a temp reg.
  RVTEST_SIGUPD(x31, x8, x7, x17, I_or_cg_cp_rs2_b14, I_or_cg_cp_rs2_b14_str)
     874:	000fa383          	lw	x7,0(x31)
     878:	01138863          	beq	x7,x17,888 <I_or_cg_cp_rs2_b14+0x18>
     87c:	4590346f          	jal	x8,44d4 <failedtest_x8_x7>
     880:	00000870          	.word	0x00000870
     884:	00009577          	.word	0x00009577
     888:	004f8f93          	addi	x31,x31,4

# Testcase cp_rs2 (Test source rs2 = x15)
  RVTEST_TESTDATA_LOAD_INT(x25, x0) # load rs1: x0 = 0x6365a002
     88c:	000ca003          	lw	x0,0(x25)
     890:	004c8c93          	addi	x25,x25,4
  RVTEST_TESTDATA_LOAD_INT(x25, x15) # load rs2: x15 = 0x768853c2
     894:	000ca783          	lw	x15,0(x25)
     898:	004c8c93          	addi	x25,x25,4

0000089c <I_or_cg_cp_rs2_b15>:
I_or_cg_cp_rs2_b15:
  or x4, x0, x15 # perform operation
     89c:	00f06233          	or	x4,x0,x15
  # Check if x4 contains the expected result. x31 is the signature ptr, x8 is the link ptr, x7 is a temp reg.
  RVTEST_SIGUPD(x31, x8, x7, x4, I_or_cg_cp_rs2_b15, I_or_cg_cp_rs2_b15_str)
     8a0:	000fa383          	lw	x7,0(x31)
     8a4:	00438863          	beq	x7,x4,8b4 <I_or_cg_cp_rs2_b15+0x18>
     8a8:	42d0346f          	jal	x8,44d4 <failedtest_x8_x7>
     8ac:	0000089c          	.word	0x0000089c
     8b0:	000095a5          	.word	0x000095a5
     8b4:	004f8f93          	addi	x31,x31,4

# Testcase cp_rs2 (Test source rs2 = x16)
  RVTEST_TESTDATA_LOAD_INT(x25, x18) # load rs1: x18 = 0x49bc028a
     8b8:	000ca903          	lw	x18,0(x25)
     8bc:	004c8c93          	addi	x25,x25,4
  RVTEST_TESTDATA_LOAD_INT(x25, x16) # load rs2: x16 = 0x98c961ec
     8c0:	000ca803          	lw	x16,0(x25)
     8c4:	004c8c93          	addi	x25,x25,4

000008c8 <I_or_cg_cp_rs2_b16>:
I_or_cg_cp_rs2_b16:
  or x28, x18, x16 # perform operation
     8c8:	01096e33          	or	x28,x18,x16
  # Check if x28 contains the expected result. x31 is the signature ptr, x8 is the link ptr, x7 is a temp reg.
  RVTEST_SIGUPD(x31, x8, x7, x28, I_or_cg_cp_rs2_b16, I_or_cg_cp_rs2_b16_str)
     8cc:	000fa383          	lw	x7,0(x31)
     8d0:	01c38863          	beq	x7,x28,8e0 <I_or_cg_cp_rs2_b16+0x18>
     8d4:	4010346f          	jal	x8,44d4 <failedtest_x8_x7>
     8d8:	000008c8          	.word	0x000008c8
     8dc:	000095d3          	.word	0x000095d3
     8e0:	004f8f93          	addi	x31,x31,4

# Testcase cp_rs2 (Test source rs2 = x17)
  RVTEST_TESTDATA_LOAD_INT(x25, x9) # load rs1: x9 = 0x49ee4c2c
     8e4:	000ca483          	lw	x9,0(x25)
     8e8:	004c8c93          	addi	x25,x25,4
  RVTEST_TESTDATA_LOAD_INT(x25, x17) # load rs2: x17 = 0x54976187
     8ec:	000ca883          	lw	x17,0(x25)
     8f0:	004c8c93          	addi	x25,x25,4

000008f4 <I_or_cg_cp_rs2_b17>:
I_or_cg_cp_rs2_b17:
  or x30, x9, x17 # perform operation
     8f4:	0114ef33          	or	x30,x9,x17
  # Check if x30 contains the expected result. x31 is the signature ptr, x8 is the link ptr, x7 is a temp reg.
  RVTEST_SIGUPD(x31, x8, x7, x30, I_or_cg_cp_rs2_b17, I_or_cg_cp_rs2_b17_str)
     8f8:	000fa383          	lw	x7,0(x31)
     8fc:	01e38863          	beq	x7,x30,90c <I_or_cg_cp_rs2_b17+0x18>
     900:	3d50346f          	jal	x8,44d4 <failedtest_x8_x7>
     904:	000008f4          	.word	0x000008f4
     908:	00009601          	.word	0x00009601
     90c:	004f8f93          	addi	x31,x31,4

# Testcase cp_rs2 (Test source rs2 = x18)
  RVTEST_TESTDATA_LOAD_INT(x25, x26) # load rs1: x26 = 0xec3c54ba
     910:	000cad03          	lw	x26,0(x25)
     914:	004c8c93          	addi	x25,x25,4
  RVTEST_TESTDATA_LOAD_INT(x25, x18) # load rs2: x18 = 0x9e1401c2
     918:	000ca903          	lw	x18,0(x25)
     91c:	004c8c93          	addi	x25,x25,4

00000920 <I_or_cg_cp_rs2_b18>:
I_or_cg_cp_rs2_b18:
  or x27, x26, x18 # perform operation
     920:	012d6db3          	or	x27,x26,x18
  # Check if x27 contains the expected result. x31 is the signature ptr, x8 is the link ptr, x7 is a temp reg.
  RVTEST_SIGUPD(x31, x8, x7, x27, I_or_cg_cp_rs2_b18, I_or_cg_cp_rs2_b18_str)
     924:	000fa383          	lw	x7,0(x31)
     928:	01b38863          	beq	x7,x27,938 <I_or_cg_cp_rs2_b18+0x18>
     92c:	3a90346f          	jal	x8,44d4 <failedtest_x8_x7>
     930:	00000920          	.word	0x00000920
     934:	0000962f          	.word	0x0000962f
     938:	004f8f93          	addi	x31,x31,4

# Testcase cp_rs2 (Test source rs2 = x19)
  RVTEST_TESTDATA_LOAD_INT(x25, x11) # load rs1: x11 = 0x18216b81
     93c:	000ca583          	lw	x11,0(x25)
     940:	004c8c93          	addi	x25,x25,4
  RVTEST_TESTDATA_LOAD_INT(x25, x19) # load rs2: x19 = 0xedb3db9b
     944:	000ca983          	lw	x19,0(x25)
     948:	004c8c93          	addi	x25,x25,4

0000094c <I_or_cg_cp_rs2_b19>:
I_or_cg_cp_rs2_b19:
  or x20, x11, x19 # perform operation
     94c:	0135ea33          	or	x20,x11,x19
  # Check if x20 contains the expected result. x31 is the signature ptr, x8 is the link ptr, x7 is a temp reg.
  RVTEST_SIGUPD(x31, x8, x7, x20, I_or_cg_cp_rs2_b19, I_or_cg_cp_rs2_b19_str)
     950:	000fa383          	lw	x7,0(x31)
     954:	01438863          	beq	x7,x20,964 <I_or_cg_cp_rs2_b19+0x18>
     958:	37d0346f          	jal	x8,44d4 <failedtest_x8_x7>
     95c:	0000094c          	.word	0x0000094c
     960:	0000965d          	.word	0x0000965d
     964:	004f8f93          	addi	x31,x31,4

# Testcase cp_rs2 (Test source rs2 = x20)
  RVTEST_TESTDATA_LOAD_INT(x25, x0) # load rs1: x0 = 0x6f663f72
     968:	000ca003          	lw	x0,0(x25)
     96c:	004c8c93          	addi	x25,x25,4
  RVTEST_TESTDATA_LOAD_INT(x25, x20) # load rs2: x20 = 0x5a539f84
     970:	000caa03          	lw	x20,0(x25)
     974:	004c8c93          	addi	x25,x25,4

00000978 <I_or_cg_cp_rs2_b20>:
I_or_cg_cp_rs2_b20:
  or x6, x0, x20 # perform operation
     978:	01406333          	or	x6,x0,x20
  # Check if x6 contains the expected result. x31 is the signature ptr, x8 is the link ptr, x7 is a temp reg.
  RVTEST_SIGUPD(x31, x8, x7, x6, I_or_cg_cp_rs2_b20, I_or_cg_cp_rs2_b20_str)
     97c:	000fa383          	lw	x7,0(x31)
     980:	00638863          	beq	x7,x6,990 <I_or_cg_cp_rs2_b20+0x18>
     984:	3510346f          	jal	x8,44d4 <failedtest_x8_x7>
     988:	00000978          	.word	0x00000978
     98c:	0000968b          	.word	0x0000968b
     990:	004f8f93          	addi	x31,x31,4

# Testcase cp_rs2 (Test source rs2 = x21)
  RVTEST_TESTDATA_LOAD_INT(x25, x13) # load rs1: x13 = 0x406d85a2
     994:	000ca683          	lw	x13,0(x25)
     998:	004c8c93          	addi	x25,x25,4
  RVTEST_TESTDATA_LOAD_INT(x25, x21) # load rs2: x21 = 0x31c2ad5e
     99c:	000caa83          	lw	x21,0(x25)
     9a0:	004c8c93          	addi	x25,x25,4

000009a4 <I_or_cg_cp_rs2_b21>:
I_or_cg_cp_rs2_b21:
  or x24, x13, x21 # perform operation
     9a4:	0156ec33          	or	x24,x13,x21
  # Check if x24 contains the expected result. x31 is the signature ptr, x8 is the link ptr, x7 is a temp reg.
  RVTEST_SIGUPD(x31, x8, x7, x24, I_or_cg_cp_rs2_b21, I_or_cg_cp_rs2_b21_str)
     9a8:	000fa383          	lw	x7,0(x31)
     9ac:	01838863          	beq	x7,x24,9bc <I_or_cg_cp_rs2_b21+0x18>
     9b0:	3250346f          	jal	x8,44d4 <failedtest_x8_x7>
     9b4:	000009a4          	.word	0x000009a4
     9b8:	000096b9          	.word	0x000096b9
     9bc:	004f8f93          	addi	x31,x31,4

# Testcase cp_rs2 (Test source rs2 = x22)
  RVTEST_TESTDATA_LOAD_INT(x25, x26) # load rs1: x26 = 0xdc636135
     9c0:	000cad03          	lw	x26,0(x25)
     9c4:	004c8c93          	addi	x25,x25,4
  RVTEST_TESTDATA_LOAD_INT(x25, x22) # load rs2: x22 = 0x5d8bb05d
     9c8:	000cab03          	lw	x22,0(x25)
     9cc:	004c8c93          	addi	x25,x25,4

000009d0 <I_or_cg_cp_rs2_b22>:
I_or_cg_cp_rs2_b22:
  or x14, x26, x22 # perform operation
     9d0:	016d6733          	or	x14,x26,x22
  # Check if x14 contains the expected result. x31 is the signature ptr, x8 is the link ptr, x7 is a temp reg.
  RVTEST_SIGUPD(x31, x8, x7, x14, I_or_cg_cp_rs2_b22, I_or_cg_cp_rs2_b22_str)
     9d4:	000fa383          	lw	x7,0(x31)
     9d8:	00e38863          	beq	x7,x14,9e8 <I_or_cg_cp_rs2_b22+0x18>
     9dc:	2f90346f          	jal	x8,44d4 <failedtest_x8_x7>
     9e0:	000009d0          	.word	0x000009d0
     9e4:	000096e7          	.word	0x000096e7
     9e8:	004f8f93          	addi	x31,x31,4

# Testcase cp_rs2 (Test source rs2 = x23)
  RVTEST_TESTDATA_LOAD_INT(x25, x18) # load rs1: x18 = 0x26f3c035
     9ec:	000ca903          	lw	x18,0(x25)
     9f0:	004c8c93          	addi	x25,x25,4
  RVTEST_TESTDATA_LOAD_INT(x25, x23) # load rs2: x23 = 0xd0056076
     9f4:	000cab83          	lw	x23,0(x25)
     9f8:	004c8c93          	addi	x25,x25,4

000009fc <I_or_cg_cp_rs2_b23>:
I_or_cg_cp_rs2_b23:
  or x27, x18, x23 # perform operation
     9fc:	01796db3          	or	x27,x18,x23
  # Check if x27 contains the expected result. x31 is the signature ptr, x8 is the link ptr, x7 is a temp reg.
  RVTEST_SIGUPD(x31, x8, x7, x27, I_or_cg_cp_rs2_b23, I_or_cg_cp_rs2_b23_str)
     a00:	000fa383          	lw	x7,0(x31)
     a04:	01b38863          	beq	x7,x27,a14 <I_or_cg_cp_rs2_b23+0x18>
     a08:	2cd0346f          	jal	x8,44d4 <failedtest_x8_x7>
     a0c:	000009fc          	.word	0x000009fc
     a10:	00009715          	.word	0x00009715
     a14:	004f8f93          	addi	x31,x31,4

# Testcase cp_rs2 (Test source rs2 = x24)
  RVTEST_TESTDATA_LOAD_INT(x25, x16) # load rs1: x16 = 0x510ac653
     a18:	000ca803          	lw	x16,0(x25)
     a1c:	004c8c93          	addi	x25,x25,4
  RVTEST_TESTDATA_LOAD_INT(x25, x24) # load rs2: x24 = 0x6495716b
     a20:	000cac03          	lw	x24,0(x25)
     a24:	004c8c93          	addi	x25,x25,4

00000a28 <I_or_cg_cp_rs2_b24>:
I_or_cg_cp_rs2_b24:
  or x3, x16, x24 # perform operation
     a28:	018861b3          	or	x3,x16,x24
  # Check if x3 contains the expected result. x31 is the signature ptr, x8 is the link ptr, x7 is a temp reg.
  RVTEST_SIGUPD(x31, x8, x7, x3, I_or_cg_cp_rs2_b24, I_or_cg_cp_rs2_b24_str)
     a2c:	000fa383          	lw	x7,0(x31)
     a30:	00338863          	beq	x7,x3,a40 <I_or_cg_cp_rs2_b24+0x18>
     a34:	2a10346f          	jal	x8,44d4 <failedtest_x8_x7>
     a38:	00000a28          	.word	0x00000a28
     a3c:	00009743          	.word	0x00009743
     a40:	004f8f93          	addi	x31,x31,4

  mv x11, x25 # switch data pointer register to avoid conflict with test
     a44:	000c8593          	addi	x11,x25,0
# Testcase cp_rs2 (Test source rs2 = x25)
  RVTEST_TESTDATA_LOAD_INT(x11, x20) # load rs1: x20 = 0xa0ebe75b
     a48:	0005aa03          	lw	x20,0(x11)
     a4c:	00458593          	addi	x11,x11,4
  RVTEST_TESTDATA_LOAD_INT(x11, x25) # load rs2: x25 = 0x2b98edd7
     a50:	0005ac83          	lw	x25,0(x11)
     a54:	00458593          	addi	x11,x11,4

00000a58 <I_or_cg_cp_rs2_b25>:
I_or_cg_cp_rs2_b25:
  or x18, x20, x25 # perform operation
     a58:	019a6933          	or	x18,x20,x25
  # Check if x18 contains the expected result. x31 is the signature ptr, x8 is the link ptr, x7 is a temp reg.
  RVTEST_SIGUPD(x31, x8, x7, x18, I_or_cg_cp_rs2_b25, I_or_cg_cp_rs2_b25_str)
     a5c:	000fa383          	lw	x7,0(x31)
     a60:	01238863          	beq	x7,x18,a70 <I_or_cg_cp_rs2_b25+0x18>
     a64:	2710346f          	jal	x8,44d4 <failedtest_x8_x7>
     a68:	00000a58          	.word	0x00000a58
     a6c:	00009771          	.word	0x00009771
     a70:	004f8f93          	addi	x31,x31,4

# Testcase cp_rs2 (Test source rs2 = x26)
  RVTEST_TESTDATA_LOAD_INT(x11, x17) # load rs1: x17 = 0xf02eea43
     a74:	0005a883          	lw	x17,0(x11)
     a78:	00458593          	addi	x11,x11,4
  RVTEST_TESTDATA_LOAD_INT(x11, x26) # load rs2: x26 = 0x2c298d80
     a7c:	0005ad03          	lw	x26,0(x11)
     a80:	00458593          	addi	x11,x11,4

00000a84 <I_or_cg_cp_rs2_b26>:
I_or_cg_cp_rs2_b26:
  or x25, x17, x26 # perform operation
     a84:	01a8ecb3          	or	x25,x17,x26
  # Check if x25 contains the expected result. x31 is the signature ptr, x8 is the link ptr, x7 is a temp reg.
  RVTEST_SIGUPD(x31, x8, x7, x25, I_or_cg_cp_rs2_b26, I_or_cg_cp_rs2_b26_str)
     a88:	000fa383          	lw	x7,0(x31)
     a8c:	01938863          	beq	x7,x25,a9c <I_or_cg_cp_rs2_b26+0x18>
     a90:	2450346f          	jal	x8,44d4 <failedtest_x8_x7>
     a94:	00000a84          	.word	0x00000a84
     a98:	0000979f          	.word	0x0000979f
     a9c:	004f8f93          	addi	x31,x31,4

# Testcase cp_rs2 (Test source rs2 = x27)
  RVTEST_TESTDATA_LOAD_INT(x11, x0) # load rs1: x0 = 0x16c6dbae
     aa0:	0005a003          	lw	x0,0(x11)
     aa4:	00458593          	addi	x11,x11,4
  RVTEST_TESTDATA_LOAD_INT(x11, x27) # load rs2: x27 = 0xbb7eb5d7
     aa8:	0005ad83          	lw	x27,0(x11)
     aac:	00458593          	addi	x11,x11,4

00000ab0 <I_or_cg_cp_rs2_b27>:
I_or_cg_cp_rs2_b27:
  or x26, x0, x27 # perform operation
     ab0:	01b06d33          	or	x26,x0,x27
  # Check if x26 contains the expected result. x31 is the signature ptr, x8 is the link ptr, x7 is a temp reg.
  RVTEST_SIGUPD(x31, x8, x7, x26, I_or_cg_cp_rs2_b27, I_or_cg_cp_rs2_b27_str)
     ab4:	000fa383          	lw	x7,0(x31)
     ab8:	01a38863          	beq	x7,x26,ac8 <I_or_cg_cp_rs2_b27+0x18>
     abc:	2190346f          	jal	x8,44d4 <failedtest_x8_x7>
     ac0:	00000ab0          	.word	0x00000ab0
     ac4:	000097cd          	.word	0x000097cd
     ac8:	004f8f93          	addi	x31,x31,4

# Testcase cp_rs2 (Test source rs2 = x28)
  RVTEST_TESTDATA_LOAD_INT(x11, x27) # load rs1: x27 = 0xa87a0140
     acc:	0005ad83          	lw	x27,0(x11)
     ad0:	00458593          	addi	x11,x11,4
  RVTEST_TESTDATA_LOAD_INT(x11, x28) # load rs2: x28 = 0xc23af90c
     ad4:	0005ae03          	lw	x28,0(x11)
     ad8:	00458593          	addi	x11,x11,4

00000adc <I_or_cg_cp_rs2_b28>:
I_or_cg_cp_rs2_b28:
  or x30, x27, x28 # perform operation
     adc:	01cdef33          	or	x30,x27,x28
  # Check if x30 contains the expected result. x31 is the signature ptr, x8 is the link ptr, x7 is a temp reg.
  RVTEST_SIGUPD(x31, x8, x7, x30, I_or_cg_cp_rs2_b28, I_or_cg_cp_rs2_b28_str)
     ae0:	000fa383          	lw	x7,0(x31)
     ae4:	01e38863          	beq	x7,x30,af4 <I_or_cg_cp_rs2_b28+0x18>
     ae8:	1ed0346f          	jal	x8,44d4 <failedtest_x8_x7>
     aec:	00000adc          	.word	0x00000adc
     af0:	000097fb          	.word	0x000097fb
     af4:	004f8f93          	addi	x31,x31,4

# Testcase cp_rs2 (Test source rs2 = x29)
  RVTEST_TESTDATA_LOAD_INT(x11, x16) # load rs1: x16 = 0x6037eacc
     af8:	0005a803          	lw	x16,0(x11)
     afc:	00458593          	addi	x11,x11,4
  RVTEST_TESTDATA_LOAD_INT(x11, x29) # load rs2: x29 = 0x35b844a6
     b00:	0005ae83          	lw	x29,0(x11)
     b04:	00458593          	addi	x11,x11,4

00000b08 <I_or_cg_cp_rs2_b29>:
I_or_cg_cp_rs2_b29:
  or x12, x16, x29 # perform operation
     b08:	01d86633          	or	x12,x16,x29
  # Check if x12 contains the expected result. x31 is the signature ptr, x8 is the link ptr, x7 is a temp reg.
  RVTEST_SIGUPD(x31, x8, x7, x12, I_or_cg_cp_rs2_b29, I_or_cg_cp_rs2_b29_str)
     b0c:	000fa383          	lw	x7,0(x31)
     b10:	00c38863          	beq	x7,x12,b20 <I_or_cg_cp_rs2_b29+0x18>
     b14:	1c10346f          	jal	x8,44d4 <failedtest_x8_x7>
     b18:	00000b08          	.word	0x00000b08
     b1c:	00009829          	.word	0x00009829
     b20:	004f8f93          	addi	x31,x31,4

# Testcase cp_rs2 (Test source rs2 = x30)
  RVTEST_TESTDATA_LOAD_INT(x11, x29) # load rs1: x29 = 0x7c582ba4
     b24:	0005ae83          	lw	x29,0(x11)
     b28:	00458593          	addi	x11,x11,4
  RVTEST_TESTDATA_LOAD_INT(x11, x30) # load rs2: x30 = 0x52cc8992
     b2c:	0005af03          	lw	x30,0(x11)
     b30:	00458593          	addi	x11,x11,4

00000b34 <I_or_cg_cp_rs2_b30>:
I_or_cg_cp_rs2_b30:
  or x6, x29, x30 # perform operation
     b34:	01eee333          	or	x6,x29,x30
  # Check if x6 contains the expected result. x31 is the signature ptr, x8 is the link ptr, x7 is a temp reg.
  RVTEST_SIGUPD(x31, x8, x7, x6, I_or_cg_cp_rs2_b30, I_or_cg_cp_rs2_b30_str)
     b38:	000fa383          	lw	x7,0(x31)
     b3c:	00638863          	beq	x7,x6,b4c <I_or_cg_cp_rs2_b30+0x18>
     b40:	1950346f          	jal	x8,44d4 <failedtest_x8_x7>
     b44:	00000b34          	.word	0x00000b34
     b48:	00009857          	.word	0x00009857
     b4c:	004f8f93          	addi	x31,x31,4

  mv x2, x31 # switch signature pointer register to avoid conflict with test
     b50:	000f8113          	addi	x2,x31,0
# Testcase cp_rs2 (Test source rs2 = x31)
  RVTEST_TESTDATA_LOAD_INT(x11, x23) # load rs1: x23 = 0xd8a353e8
     b54:	0005ab83          	lw	x23,0(x11)
     b58:	00458593          	addi	x11,x11,4
  RVTEST_TESTDATA_LOAD_INT(x11, x31) # load rs2: x31 = 0x2e793475
     b5c:	0005af83          	lw	x31,0(x11)
     b60:	00458593          	addi	x11,x11,4

00000b64 <I_or_cg_cp_rs2_b31>:
I_or_cg_cp_rs2_b31:
  or x28, x23, x31 # perform operation
     b64:	01fbee33          	or	x28,x23,x31
  # Check if x28 contains the expected result. x2 is the signature ptr, x8 is the link ptr, x7 is a temp reg.
  RVTEST_SIGUPD(x2, x8, x7, x28, I_or_cg_cp_rs2_b31, I_or_cg_cp_rs2_b31_str)
     b68:	00012383          	lw	x7,0(x2)
     b6c:	01c38863          	beq	x7,x28,b7c <I_or_cg_cp_rs2_b31+0x18>
     b70:	1650346f          	jal	x8,44d4 <failedtest_x8_x7>
     b74:	00000b64          	.word	0x00000b64
     b78:	00009885          	.word	0x00009885
     b7c:	00410113          	addi	x2,x2,4
/////////////////////////////////
// cp_rd
/////////////////////////////////

# Testcase cp_rd (Test destination rd = x0)
  RVTEST_TESTDATA_LOAD_INT(x11, x21) # load rs1: x21 = 0xa554d23f
     b80:	0005aa83          	lw	x21,0(x11)
     b84:	00458593          	addi	x11,x11,4
  RVTEST_TESTDATA_LOAD_INT(x11, x4) # load rs2: x4 = 0xafa72acf
     b88:	0005a203          	lw	x4,0(x11)
     b8c:	00458593          	addi	x11,x11,4

00000b90 <I_or_cg_cp_rd_b0>:
I_or_cg_cp_rd_b0:
  or x0, x21, x4 # perform operation
     b90:	004ae033          	or	x0,x21,x4
  # Check if x0 contains the expected result. x2 is the signature ptr, x8 is the link ptr, x7 is a temp reg.
  RVTEST_SIGUPD(x2, x8, x7, x0, I_or_cg_cp_rd_b0, I_or_cg_cp_rd_b0_str)
     b94:	00012383          	lw	x7,0(x2)
     b98:	00038863          	beq	x7,x0,ba8 <I_or_cg_cp_rd_b0+0x18>
     b9c:	1390346f          	jal	x8,44d4 <failedtest_x8_x7>
     ba0:	00000b90          	.word	0x00000b90
     ba4:	000098b3          	.word	0x000098b3
     ba8:	00410113          	addi	x2,x2,4

# Testcase cp_rd (Test destination rd = x1)
  RVTEST_TESTDATA_LOAD_INT(x11, x0) # load rs1: x0 = 0x7aed1212
     bac:	0005a003          	lw	x0,0(x11)
     bb0:	00458593          	addi	x11,x11,4
  RVTEST_TESTDATA_LOAD_INT(x11, x5) # load rs2: x5 = 0xd04f26b8
     bb4:	0005a283          	lw	x5,0(x11)
     bb8:	00458593          	addi	x11,x11,4

00000bbc <I_or_cg_cp_rd_b1>:
I_or_cg_cp_rd_b1:
  or x1, x0, x5 # perform operation
     bbc:	005060b3          	or	x1,x0,x5
  # Check if x1 contains the expected result. x2 is the signature ptr, x8 is the link ptr, x7 is a temp reg.
  RVTEST_SIGUPD(x2, x8, x7, x1, I_or_cg_cp_rd_b1, I_or_cg_cp_rd_b1_str)
     bc0:	00012383          	lw	x7,0(x2)
     bc4:	00138863          	beq	x7,x1,bd4 <I_or_cg_cp_rd_b1+0x18>
     bc8:	10d0346f          	jal	x8,44d4 <failedtest_x8_x7>
     bcc:	00000bbc          	.word	0x00000bbc
     bd0:	000098df          	.word	0x000098df
     bd4:	00410113          	addi	x2,x2,4

  mv x12, x2 # switch signature pointer register to avoid conflict with test
     bd8:	00010613          	addi	x12,x2,0
# Testcase cp_rd (Test destination rd = x2)
  RVTEST_TESTDATA_LOAD_INT(x11, x31) # load rs1: x31 = 0x346f1ef1
     bdc:	0005af83          	lw	x31,0(x11)
     be0:	00458593          	addi	x11,x11,4
  RVTEST_TESTDATA_LOAD_INT(x11, x13) # load rs2: x13 = 0x4df6d591
     be4:	0005a683          	lw	x13,0(x11)
     be8:	00458593          	addi	x11,x11,4

00000bec <I_or_cg_cp_rd_b2>:
I_or_cg_cp_rd_b2:
  or x2, x31, x13 # perform operation
     bec:	00dfe133          	or	x2,x31,x13
  # Check if x2 contains the expected result. x12 is the signature ptr, x8 is the link ptr, x7 is a temp reg.
  RVTEST_SIGUPD(x12, x8, x7, x2, I_or_cg_cp_rd_b2, I_or_cg_cp_rd_b2_str)
     bf0:	00062383          	lw	x7,0(x12)
     bf4:	00238863          	beq	x7,x2,c04 <I_or_cg_cp_rd_b2+0x18>
     bf8:	0dd0346f          	jal	x8,44d4 <failedtest_x8_x7>
     bfc:	00000bec          	.word	0x00000bec
     c00:	0000990b          	.word	0x0000990b
     c04:	00460613          	addi	x12,x12,4

# Testcase cp_rd (Test destination rd = x3)
  RVTEST_TESTDATA_LOAD_INT(x11, x31) # load rs1: x31 = 0x4fbec34b
     c08:	0005af83          	lw	x31,0(x11)
     c0c:	00458593          	addi	x11,x11,4
  RVTEST_TESTDATA_LOAD_INT(x11, x29) # load rs2: x29 = 0x696b05c8
     c10:	0005ae83          	lw	x29,0(x11)
     c14:	00458593          	addi	x11,x11,4

00000c18 <I_or_cg_cp_rd_b3>:
I_or_cg_cp_rd_b3:
  or x3, x31, x29 # perform operation
     c18:	01dfe1b3          	or	x3,x31,x29
  # Check if x3 contains the expected result. x12 is the signature ptr, x8 is the link ptr, x7 is a temp reg.
  RVTEST_SIGUPD(x12, x8, x7, x3, I_or_cg_cp_rd_b3, I_or_cg_cp_rd_b3_str)
     c1c:	00062383          	lw	x7,0(x12)
     c20:	00338863          	beq	x7,x3,c30 <I_or_cg_cp_rd_b3+0x18>
     c24:	0b10346f          	jal	x8,44d4 <failedtest_x8_x7>
     c28:	00000c18          	.word	0x00000c18
     c2c:	00009937          	.word	0x00009937
     c30:	00460613          	addi	x12,x12,4

# Testcase cp_rd (Test destination rd = x4)
  RVTEST_TESTDATA_LOAD_INT(x11, x1) # load rs1: x1 = 0xc1f2422c
     c34:	0005a083          	lw	x1,0(x11)
     c38:	00458593          	addi	x11,x11,4
  RVTEST_TESTDATA_LOAD_INT(x11, x21) # load rs2: x21 = 0x1f717314
     c3c:	0005aa83          	lw	x21,0(x11)
     c40:	00458593          	addi	x11,x11,4

00000c44 <I_or_cg_cp_rd_b4>:
I_or_cg_cp_rd_b4:
  or x4, x1, x21 # perform operation
     c44:	0150e233          	or	x4,x1,x21
  # Check if x4 contains the expected result. x12 is the signature ptr, x8 is the link ptr, x7 is a temp reg.
  RVTEST_SIGUPD(x12, x8, x7, x4, I_or_cg_cp_rd_b4, I_or_cg_cp_rd_b4_str)
     c48:	00062383          	lw	x7,0(x12)
     c4c:	00438863          	beq	x7,x4,c5c <I_or_cg_cp_rd_b4+0x18>
     c50:	0850346f          	jal	x8,44d4 <failedtest_x8_x7>
     c54:	00000c44          	.word	0x00000c44
     c58:	00009963          	.word	0x00009963
     c5c:	00460613          	addi	x12,x12,4

# Testcase cp_rd (Test destination rd = x5)
  RVTEST_TESTDATA_LOAD_INT(x11, x25) # load rs1: x25 = 0x60fbac85
     c60:	0005ac83          	lw	x25,0(x11)
     c64:	00458593          	addi	x11,x11,4
  RVTEST_TESTDATA_LOAD_INT(x11, x0) # load rs2: x0 = 0x5da1865a
     c68:	0005a003          	lw	x0,0(x11)
     c6c:	00458593          	addi	x11,x11,4

00000c70 <I_or_cg_cp_rd_b5>:
I_or_cg_cp_rd_b5:
  or x5, x25, x0 # perform operation
     c70:	000ce2b3          	or	x5,x25,x0
  # Check if x5 contains the expected result. x12 is the signature ptr, x8 is the link ptr, x7 is a temp reg.
  RVTEST_SIGUPD(x12, x8, x7, x5, I_or_cg_cp_rd_b5, I_or_cg_cp_rd_b5_str)
     c74:	00062383          	lw	x7,0(x12)
     c78:	00538863          	beq	x7,x5,c88 <I_or_cg_cp_rd_b5+0x18>
     c7c:	0590346f          	jal	x8,44d4 <failedtest_x8_x7>
     c80:	00000c70          	.word	0x00000c70
     c84:	0000998f          	.word	0x0000998f
     c88:	00460613          	addi	x12,x12,4

# Testcase cp_rd (Test destination rd = x6)
  RVTEST_TESTDATA_LOAD_INT(x11, x10) # load rs1: x10 = 0x14621ec8
     c8c:	0005a503          	lw	x10,0(x11)
     c90:	00458593          	addi	x11,x11,4
  RVTEST_TESTDATA_LOAD_INT(x11, x24) # load rs2: x24 = 0x85b4c357
     c94:	0005ac03          	lw	x24,0(x11)
     c98:	00458593          	addi	x11,x11,4

00000c9c <I_or_cg_cp_rd_b6>:
I_or_cg_cp_rd_b6:
  or x6, x10, x24 # perform operation
     c9c:	01856333          	or	x6,x10,x24
  # Check if x6 contains the expected result. x12 is the signature ptr, x8 is the link ptr, x7 is a temp reg.
  RVTEST_SIGUPD(x12, x8, x7, x6, I_or_cg_cp_rd_b6, I_or_cg_cp_rd_b6_str)
     ca0:	00062383          	lw	x7,0(x12)
     ca4:	00638863          	beq	x7,x6,cb4 <I_or_cg_cp_rd_b6+0x18>
     ca8:	02d0346f          	jal	x8,44d4 <failedtest_x8_x7>
     cac:	00000c9c          	.word	0x00000c9c
     cb0:	000099bb          	.word	0x000099bb
     cb4:	00460613          	addi	x12,x12,4

  mv x13, x7 # switch temp register to avoid conflict with test
     cb8:	00038693          	addi	x13,x7,0
  mv x14, x8 # switch link pointer register to avoid conflict with test
     cbc:	00040713          	addi	x14,x8,0
# Testcase cp_rd (Test destination rd = x7)
  RVTEST_TESTDATA_LOAD_INT(x11, x26) # load rs1: x26 = 0xb31bdd68
     cc0:	0005ad03          	lw	x26,0(x11)
     cc4:	00458593          	addi	x11,x11,4
  RVTEST_TESTDATA_LOAD_INT(x11, x10) # load rs2: x10 = 0xe717f83c
     cc8:	0005a503          	lw	x10,0(x11)
     ccc:	00458593          	addi	x11,x11,4

00000cd0 <I_or_cg_cp_rd_b7>:
I_or_cg_cp_rd_b7:
  or x7, x26, x10 # perform operation
     cd0:	00ad63b3          	or	x7,x26,x10
  # Check if x7 contains the expected result. x12 is the signature ptr, x14 is the link ptr, x13 is a temp reg.
  RVTEST_SIGUPD(x12, x14, x13, x7, I_or_cg_cp_rd_b7, I_or_cg_cp_rd_b7_str)
     cd4:	00062683          	lw	x13,0(x12)
     cd8:	00768863          	beq	x13,x7,ce8 <I_or_cg_cp_rd_b7+0x18>
     cdc:	0210376f          	jal	x14,44fc <failedtest_x14_x13>
     ce0:	00000cd0          	.word	0x00000cd0
     ce4:	000099e7          	.word	0x000099e7
     ce8:	00460613          	addi	x12,x12,4

# Testcase cp_rd (Test destination rd = x8)
  RVTEST_TESTDATA_LOAD_INT(x11, x20) # load rs1: x20 = 0xb66c951e
     cec:	0005aa03          	lw	x20,0(x11)
     cf0:	00458593          	addi	x11,x11,4
  RVTEST_TESTDATA_LOAD_INT(x11, x9) # load rs2: x9 = 0x9a6bd328
     cf4:	0005a483          	lw	x9,0(x11)
     cf8:	00458593          	addi	x11,x11,4

00000cfc <I_or_cg_cp_rd_b8>:
I_or_cg_cp_rd_b8:
  or x8, x20, x9 # perform operation
     cfc:	009a6433          	or	x8,x20,x9
  # Check if x8 contains the expected result. x12 is the signature ptr, x14 is the link ptr, x13 is a temp reg.
  RVTEST_SIGUPD(x12, x14, x13, x8, I_or_cg_cp_rd_b8, I_or_cg_cp_rd_b8_str)
     d00:	00062683          	lw	x13,0(x12)
     d04:	00868863          	beq	x13,x8,d14 <I_or_cg_cp_rd_b8+0x18>
     d08:	7f40376f          	jal	x14,44fc <failedtest_x14_x13>
     d0c:	00000cfc          	.word	0x00000cfc
     d10:	00009a13          	.word	0x00009a13
     d14:	00460613          	addi	x12,x12,4

# Testcase cp_rd (Test destination rd = x9)
  RVTEST_TESTDATA_LOAD_INT(x11, x24) # load rs1: x24 = 0x0f840215
     d18:	0005ac03          	lw	x24,0(x11)
     d1c:	00458593          	addi	x11,x11,4
  RVTEST_TESTDATA_LOAD_INT(x11, x30) # load rs2: x30 = 0x780a551c
     d20:	0005af03          	lw	x30,0(x11)
     d24:	00458593          	addi	x11,x11,4

00000d28 <I_or_cg_cp_rd_b9>:
I_or_cg_cp_rd_b9:
  or x9, x24, x30 # perform operation
     d28:	01ec64b3          	or	x9,x24,x30
  # Check if x9 contains the expected result. x12 is the signature ptr, x14 is the link ptr, x13 is a temp reg.
  RVTEST_SIGUPD(x12, x14, x13, x9, I_or_cg_cp_rd_b9, I_or_cg_cp_rd_b9_str)
     d2c:	00062683          	lw	x13,0(x12)
     d30:	00968863          	beq	x13,x9,d40 <I_or_cg_cp_rd_b9+0x18>
     d34:	7c80376f          	jal	x14,44fc <failedtest_x14_x13>
     d38:	00000d28          	.word	0x00000d28
     d3c:	00009a3f          	.word	0x00009a3f
     d40:	00460613          	addi	x12,x12,4

# Testcase cp_rd (Test destination rd = x10)
  RVTEST_TESTDATA_LOAD_INT(x11, x8) # load rs1: x8 = 0x5611f61b
     d44:	0005a403          	lw	x8,0(x11)
     d48:	00458593          	addi	x11,x11,4
  RVTEST_TESTDATA_LOAD_INT(x11, x6) # load rs2: x6 = 0x107e6e32
     d4c:	0005a303          	lw	x6,0(x11)
     d50:	00458593          	addi	x11,x11,4

00000d54 <I_or_cg_cp_rd_b10>:
I_or_cg_cp_rd_b10:
  or x10, x8, x6 # perform operation
     d54:	00646533          	or	x10,x8,x6
  # Check if x10 contains the expected result. x12 is the signature ptr, x14 is the link ptr, x13 is a temp reg.
  RVTEST_SIGUPD(x12, x14, x13, x10, I_or_cg_cp_rd_b10, I_or_cg_cp_rd_b10_str)
     d58:	00062683          	lw	x13,0(x12)
     d5c:	00a68863          	beq	x13,x10,d6c <I_or_cg_cp_rd_b10+0x18>
     d60:	79c0376f          	jal	x14,44fc <failedtest_x14_x13>
     d64:	00000d54          	.word	0x00000d54
     d68:	00009a6b          	.word	0x00009a6b
     d6c:	00460613          	addi	x12,x12,4

  mv x20, x11 # switch data pointer register to avoid conflict with test
     d70:	00058a13          	addi	x20,x11,0
# Testcase cp_rd (Test destination rd = x11)
  RVTEST_TESTDATA_LOAD_INT(x20, x31) # load rs1: x31 = 0xac74dd38
     d74:	000a2f83          	lw	x31,0(x20)
     d78:	004a0a13          	addi	x20,x20,4
  RVTEST_TESTDATA_LOAD_INT(x20, x26) # load rs2: x26 = 0xd3515028
     d7c:	000a2d03          	lw	x26,0(x20)
     d80:	004a0a13          	addi	x20,x20,4

00000d84 <I_or_cg_cp_rd_b11>:
I_or_cg_cp_rd_b11:
  or x11, x31, x26 # perform operation
     d84:	01afe5b3          	or	x11,x31,x26
  # Check if x11 contains the expected result. x12 is the signature ptr, x14 is the link ptr, x13 is a temp reg.
  RVTEST_SIGUPD(x12, x14, x13, x11, I_or_cg_cp_rd_b11, I_or_cg_cp_rd_b11_str)
     d88:	00062683          	lw	x13,0(x12)
     d8c:	00b68863          	beq	x13,x11,d9c <I_or_cg_cp_rd_b11+0x18>
     d90:	76c0376f          	jal	x14,44fc <failedtest_x14_x13>
     d94:	00000d84          	.word	0x00000d84
     d98:	00009a98          	.word	0x00009a98
     d9c:	00460613          	addi	x12,x12,4

  mv x23, x12 # switch signature pointer register to avoid conflict with test
     da0:	00060b93          	addi	x23,x12,0
# Testcase cp_rd (Test destination rd = x12)
  RVTEST_TESTDATA_LOAD_INT(x20, x28) # load rs1: x28 = 0x693bebfc
     da4:	000a2e03          	lw	x28,0(x20)
     da8:	004a0a13          	addi	x20,x20,4
  RVTEST_TESTDATA_LOAD_INT(x20, x6) # load rs2: x6 = 0x1e9d3612
     dac:	000a2303          	lw	x6,0(x20)
     db0:	004a0a13          	addi	x20,x20,4

00000db4 <I_or_cg_cp_rd_b12>:
I_or_cg_cp_rd_b12:
  or x12, x28, x6 # perform operation
     db4:	006e6633          	or	x12,x28,x6
  # Check if x12 contains the expected result. x23 is the signature ptr, x14 is the link ptr, x13 is a temp reg.
  RVTEST_SIGUPD(x23, x14, x13, x12, I_or_cg_cp_rd_b12, I_or_cg_cp_rd_b12_str)
     db8:	000ba683          	lw	x13,0(x23)
     dbc:	00c68863          	beq	x13,x12,dcc <I_or_cg_cp_rd_b12+0x18>
     dc0:	73c0376f          	jal	x14,44fc <failedtest_x14_x13>
     dc4:	00000db4          	.word	0x00000db4
     dc8:	00009ac5          	.word	0x00009ac5
     dcc:	004b8b93          	addi	x23,x23,4

  mv x4, x13 # switch temp register to avoid conflict with test
     dd0:	00068213          	addi	x4,x13,0
  mv x5, x14 # switch link pointer register to avoid conflict with test
     dd4:	00070293          	addi	x5,x14,0
# Testcase cp_rd (Test destination rd = x13)
  RVTEST_TESTDATA_LOAD_INT(x20, x18) # load rs1: x18 = 0xbeaea789
     dd8:	000a2903          	lw	x18,0(x20)
     ddc:	004a0a13          	addi	x20,x20,4
  RVTEST_TESTDATA_LOAD_INT(x20, x10) # load rs2: x10 = 0x3d392ca5
     de0:	000a2503          	lw	x10,0(x20)
     de4:	004a0a13          	addi	x20,x20,4

00000de8 <I_or_cg_cp_rd_b13>:
I_or_cg_cp_rd_b13:
  or x13, x18, x10 # perform operation
     de8:	00a966b3          	or	x13,x18,x10
  # Check if x13 contains the expected result. x23 is the signature ptr, x5 is the link ptr, x4 is a temp reg.
  RVTEST_SIGUPD(x23, x5, x4, x13, I_or_cg_cp_rd_b13, I_or_cg_cp_rd_b13_str)
     dec:	000ba203          	lw	x4,0(x23)
     df0:	00d20863          	beq	x4,x13,e00 <I_or_cg_cp_rd_b13+0x18>
     df4:	6c8032ef          	jal	x5,44bc <failedtest_x5_x4>
     df8:	00000de8          	.word	0x00000de8
     dfc:	00009af2          	.word	0x00009af2
     e00:	004b8b93          	addi	x23,x23,4

# Testcase cp_rd (Test destination rd = x14)
  RVTEST_TESTDATA_LOAD_INT(x20, x3) # load rs1: x3 = 0xdc3bdd00
     e04:	000a2183          	lw	x3,0(x20)
     e08:	004a0a13          	addi	x20,x20,4
  RVTEST_TESTDATA_LOAD_INT(x20, x28) # load rs2: x28 = 0xa62afa47
     e0c:	000a2e03          	lw	x28,0(x20)
     e10:	004a0a13          	addi	x20,x20,4

00000e14 <I_or_cg_cp_rd_b14>:
I_or_cg_cp_rd_b14:
  or x14, x3, x28 # perform operation
     e14:	01c1e733          	or	x14,x3,x28
  # Check if x14 contains the expected result. x23 is the signature ptr, x5 is the link ptr, x4 is a temp reg.
  RVTEST_SIGUPD(x23, x5, x4, x14, I_or_cg_cp_rd_b14, I_or_cg_cp_rd_b14_str)
     e18:	000ba203          	lw	x4,0(x23)
     e1c:	00e20863          	beq	x4,x14,e2c <I_or_cg_cp_rd_b14+0x18>
     e20:	69c032ef          	jal	x5,44bc <failedtest_x5_x4>
     e24:	00000e14          	.word	0x00000e14
     e28:	00009b1f          	.word	0x00009b1f
     e2c:	004b8b93          	addi	x23,x23,4

# Testcase cp_rd (Test destination rd = x15)
  RVTEST_TESTDATA_LOAD_INT(x20, x12) # load rs1: x12 = 0xf04a6f9e
     e30:	000a2603          	lw	x12,0(x20)
     e34:	004a0a13          	addi	x20,x20,4
  RVTEST_TESTDATA_LOAD_INT(x20, x29) # load rs2: x29 = 0x29fc82db
     e38:	000a2e83          	lw	x29,0(x20)
     e3c:	004a0a13          	addi	x20,x20,4

00000e40 <I_or_cg_cp_rd_b15>:
I_or_cg_cp_rd_b15:
  or x15, x12, x29 # perform operation
     e40:	01d667b3          	or	x15,x12,x29
  # Check if x15 contains the expected result. x23 is the signature ptr, x5 is the link ptr, x4 is a temp reg.
  RVTEST_SIGUPD(x23, x5, x4, x15, I_or_cg_cp_rd_b15, I_or_cg_cp_rd_b15_str)
     e44:	000ba203          	lw	x4,0(x23)
     e48:	00f20863          	beq	x4,x15,e58 <I_or_cg_cp_rd_b15+0x18>
     e4c:	670032ef          	jal	x5,44bc <failedtest_x5_x4>
     e50:	00000e40          	.word	0x00000e40
     e54:	00009b4c          	.word	0x00009b4c
     e58:	004b8b93          	addi	x23,x23,4

# Testcase cp_rd (Test destination rd = x16)
  RVTEST_TESTDATA_LOAD_INT(x20, x2) # load rs1: x2 = 0x19d5d244
     e5c:	000a2103          	lw	x2,0(x20)
     e60:	004a0a13          	addi	x20,x20,4
  RVTEST_TESTDATA_LOAD_INT(x20, x8) # load rs2: x8 = 0xe93820dc
     e64:	000a2403          	lw	x8,0(x20)
     e68:	004a0a13          	addi	x20,x20,4

00000e6c <I_or_cg_cp_rd_b16>:
I_or_cg_cp_rd_b16:
  or x16, x2, x8 # perform operation
     e6c:	00816833          	or	x16,x2,x8
  # Check if x16 contains the expected result. x23 is the signature ptr, x5 is the link ptr, x4 is a temp reg.
  RVTEST_SIGUPD(x23, x5, x4, x16, I_or_cg_cp_rd_b16, I_or_cg_cp_rd_b16_str)
     e70:	000ba203          	lw	x4,0(x23)
     e74:	01020863          	beq	x4,x16,e84 <I_or_cg_cp_rd_b16+0x18>
     e78:	644032ef          	jal	x5,44bc <failedtest_x5_x4>
     e7c:	00000e6c          	.word	0x00000e6c
     e80:	00009b79          	.word	0x00009b79
     e84:	004b8b93          	addi	x23,x23,4

# Testcase cp_rd (Test destination rd = x17)
  RVTEST_TESTDATA_LOAD_INT(x20, x25) # load rs1: x25 = 0x3274429f
     e88:	000a2c83          	lw	x25,0(x20)
     e8c:	004a0a13          	addi	x20,x20,4
  RVTEST_TESTDATA_LOAD_INT(x20, x16) # load rs2: x16 = 0xf0dcb139
     e90:	000a2803          	lw	x16,0(x20)
     e94:	004a0a13          	addi	x20,x20,4

00000e98 <I_or_cg_cp_rd_b17>:
I_or_cg_cp_rd_b17:
  or x17, x25, x16 # perform operation
     e98:	010ce8b3          	or	x17,x25,x16
  # Check if x17 contains the expected result. x23 is the signature ptr, x5 is the link ptr, x4 is a temp reg.
  RVTEST_SIGUPD(x23, x5, x4, x17, I_or_cg_cp_rd_b17, I_or_cg_cp_rd_b17_str)
     e9c:	000ba203          	lw	x4,0(x23)
     ea0:	01120863          	beq	x4,x17,eb0 <I_or_cg_cp_rd_b17+0x18>
     ea4:	618032ef          	jal	x5,44bc <failedtest_x5_x4>
     ea8:	00000e98          	.word	0x00000e98
     eac:	00009ba6          	.word	0x00009ba6
     eb0:	004b8b93          	addi	x23,x23,4

# Testcase cp_rd (Test destination rd = x18)
  RVTEST_TESTDATA_LOAD_INT(x20, x2) # load rs1: x2 = 0x14c341ba
     eb4:	000a2103          	lw	x2,0(x20)
     eb8:	004a0a13          	addi	x20,x20,4
  RVTEST_TESTDATA_LOAD_INT(x20, x17) # load rs2: x17 = 0x54224bb0
     ebc:	000a2883          	lw	x17,0(x20)
     ec0:	004a0a13          	addi	x20,x20,4

00000ec4 <I_or_cg_cp_rd_b18>:
I_or_cg_cp_rd_b18:
  or x18, x2, x17 # perform operation
     ec4:	01116933          	or	x18,x2,x17
  # Check if x18 contains the expected result. x23 is the signature ptr, x5 is the link ptr, x4 is a temp reg.
  RVTEST_SIGUPD(x23, x5, x4, x18, I_or_cg_cp_rd_b18, I_or_cg_cp_rd_b18_str)
     ec8:	000ba203          	lw	x4,0(x23)
     ecc:	01220863          	beq	x4,x18,edc <I_or_cg_cp_rd_b18+0x18>
     ed0:	5ec032ef          	jal	x5,44bc <failedtest_x5_x4>
     ed4:	00000ec4          	.word	0x00000ec4
     ed8:	00009bd3          	.word	0x00009bd3
     edc:	004b8b93          	addi	x23,x23,4

# Testcase cp_rd (Test destination rd = x19)
  RVTEST_TESTDATA_LOAD_INT(x20, x7) # load rs1: x7 = 0x78ef5385
     ee0:	000a2383          	lw	x7,0(x20)
     ee4:	004a0a13          	addi	x20,x20,4
  RVTEST_TESTDATA_LOAD_INT(x20, x18) # load rs2: x18 = 0x91ed1259
     ee8:	000a2903          	lw	x18,0(x20)
     eec:	004a0a13          	addi	x20,x20,4

00000ef0 <I_or_cg_cp_rd_b19>:
I_or_cg_cp_rd_b19:
  or x19, x7, x18 # perform operation
     ef0:	0123e9b3          	or	x19,x7,x18
  # Check if x19 contains the expected result. x23 is the signature ptr, x5 is the link ptr, x4 is a temp reg.
  RVTEST_SIGUPD(x23, x5, x4, x19, I_or_cg_cp_rd_b19, I_or_cg_cp_rd_b19_str)
     ef4:	000ba203          	lw	x4,0(x23)
     ef8:	01320863          	beq	x4,x19,f08 <I_or_cg_cp_rd_b19+0x18>
     efc:	5c0032ef          	jal	x5,44bc <failedtest_x5_x4>
     f00:	00000ef0          	.word	0x00000ef0
     f04:	00009c00          	.word	0x00009c00
     f08:	004b8b93          	addi	x23,x23,4

  mv x30, x20 # switch data pointer register to avoid conflict with test
     f0c:	000a0f13          	addi	x30,x20,0
# Testcase cp_rd (Test destination rd = x20)
  RVTEST_TESTDATA_LOAD_INT(x30, x24) # load rs1: x24 = 0x858815ff
     f10:	000f2c03          	lw	x24,0(x30)
     f14:	004f0f13          	addi	x30,x30,4
  RVTEST_TESTDATA_LOAD_INT(x30, x9) # load rs2: x9 = 0x572d4ccb
     f18:	000f2483          	lw	x9,0(x30)
     f1c:	004f0f13          	addi	x30,x30,4

00000f20 <I_or_cg_cp_rd_b20>:
I_or_cg_cp_rd_b20:
  or x20, x24, x9 # perform operation
     f20:	009c6a33          	or	x20,x24,x9
  # Check if x20 contains the expected result. x23 is the signature ptr, x5 is the link ptr, x4 is a temp reg.
  RVTEST_SIGUPD(x23, x5, x4, x20, I_or_cg_cp_rd_b20, I_or_cg_cp_rd_b20_str)
     f24:	000ba203          	lw	x4,0(x23)
     f28:	01420863          	beq	x4,x20,f38 <I_or_cg_cp_rd_b20+0x18>
     f2c:	590032ef          	jal	x5,44bc <failedtest_x5_x4>
     f30:	00000f20          	.word	0x00000f20
     f34:	00009c2d          	.word	0x00009c2d
     f38:	004b8b93          	addi	x23,x23,4

# Testcase cp_rd (Test destination rd = x21)
  RVTEST_TESTDATA_LOAD_INT(x30, x2) # load rs1: x2 = 0xf8962e39
     f3c:	000f2103          	lw	x2,0(x30)
     f40:	004f0f13          	addi	x30,x30,4
  RVTEST_TESTDATA_LOAD_INT(x30, x18) # load rs2: x18 = 0x8e584118
     f44:	000f2903          	lw	x18,0(x30)
     f48:	004f0f13          	addi	x30,x30,4

00000f4c <I_or_cg_cp_rd_b21>:
I_or_cg_cp_rd_b21:
  or x21, x2, x18 # perform operation
     f4c:	01216ab3          	or	x21,x2,x18
  # Check if x21 contains the expected result. x23 is the signature ptr, x5 is the link ptr, x4 is a temp reg.
  RVTEST_SIGUPD(x23, x5, x4, x21, I_or_cg_cp_rd_b21, I_or_cg_cp_rd_b21_str)
     f50:	000ba203          	lw	x4,0(x23)
     f54:	01520863          	beq	x4,x21,f64 <I_or_cg_cp_rd_b21+0x18>
     f58:	564032ef          	jal	x5,44bc <failedtest_x5_x4>
     f5c:	00000f4c          	.word	0x00000f4c
     f60:	00009c5a          	.word	0x00009c5a
     f64:	004b8b93          	addi	x23,x23,4

# Testcase cp_rd (Test destination rd = x22)
  RVTEST_TESTDATA_LOAD_INT(x30, x13) # load rs1: x13 = 0x8a70e249
     f68:	000f2683          	lw	x13,0(x30)
     f6c:	004f0f13          	addi	x30,x30,4
  RVTEST_TESTDATA_LOAD_INT(x30, x20) # load rs2: x20 = 0x587c8791
     f70:	000f2a03          	lw	x20,0(x30)
     f74:	004f0f13          	addi	x30,x30,4

00000f78 <I_or_cg_cp_rd_b22>:
I_or_cg_cp_rd_b22:
  or x22, x13, x20 # perform operation
     f78:	0146eb33          	or	x22,x13,x20
  # Check if x22 contains the expected result. x23 is the signature ptr, x5 is the link ptr, x4 is a temp reg.
  RVTEST_SIGUPD(x23, x5, x4, x22, I_or_cg_cp_rd_b22, I_or_cg_cp_rd_b22_str)
     f7c:	000ba203          	lw	x4,0(x23)
     f80:	01620863          	beq	x4,x22,f90 <I_or_cg_cp_rd_b22+0x18>
     f84:	538032ef          	jal	x5,44bc <failedtest_x5_x4>
     f88:	00000f78          	.word	0x00000f78
     f8c:	00009c87          	.word	0x00009c87
     f90:	004b8b93          	addi	x23,x23,4

  mv x11, x23 # switch signature pointer register to avoid conflict with test
     f94:	000b8593          	addi	x11,x23,0
# Testcase cp_rd (Test destination rd = x23)
  RVTEST_TESTDATA_LOAD_INT(x30, x18) # load rs1: x18 = 0xc2500ff6
     f98:	000f2903          	lw	x18,0(x30)
     f9c:	004f0f13          	addi	x30,x30,4
  RVTEST_TESTDATA_LOAD_INT(x30, x3) # load rs2: x3 = 0x67d5b263
     fa0:	000f2183          	lw	x3,0(x30)
     fa4:	004f0f13          	addi	x30,x30,4

00000fa8 <I_or_cg_cp_rd_b23>:
I_or_cg_cp_rd_b23:
  or x23, x18, x3 # perform operation
     fa8:	00396bb3          	or	x23,x18,x3
  # Check if x23 contains the expected result. x11 is the signature ptr, x5 is the link ptr, x4 is a temp reg.
  RVTEST_SIGUPD(x11, x5, x4, x23, I_or_cg_cp_rd_b23, I_or_cg_cp_rd_b23_str)
     fac:	0005a203          	lw	x4,0(x11)
     fb0:	01720863          	beq	x4,x23,fc0 <I_or_cg_cp_rd_b23+0x18>
     fb4:	508032ef          	jal	x5,44bc <failedtest_x5_x4>
     fb8:	00000fa8          	.word	0x00000fa8
     fbc:	00009cb4          	.word	0x00009cb4
     fc0:	00458593          	addi	x11,x11,4

# Testcase cp_rd (Test destination rd = x24)
  RVTEST_TESTDATA_LOAD_INT(x30, x22) # load rs1: x22 = 0x2ad75928
     fc4:	000f2b03          	lw	x22,0(x30)
     fc8:	004f0f13          	addi	x30,x30,4
  RVTEST_TESTDATA_LOAD_INT(x30, x27) # load rs2: x27 = 0x7a19940d
     fcc:	000f2d83          	lw	x27,0(x30)
     fd0:	004f0f13          	addi	x30,x30,4

00000fd4 <I_or_cg_cp_rd_b24>:
I_or_cg_cp_rd_b24:
  or x24, x22, x27 # perform operation
     fd4:	01bb6c33          	or	x24,x22,x27
  # Check if x24 contains the expected result. x11 is the signature ptr, x5 is the link ptr, x4 is a temp reg.
  RVTEST_SIGUPD(x11, x5, x4, x24, I_or_cg_cp_rd_b24, I_or_cg_cp_rd_b24_str)
     fd8:	0005a203          	lw	x4,0(x11)
     fdc:	01820863          	beq	x4,x24,fec <I_or_cg_cp_rd_b24+0x18>
     fe0:	4dc032ef          	jal	x5,44bc <failedtest_x5_x4>
     fe4:	00000fd4          	.word	0x00000fd4
     fe8:	00009ce1          	.word	0x00009ce1
     fec:	00458593          	addi	x11,x11,4

# Testcase cp_rd (Test destination rd = x25)
  RVTEST_TESTDATA_LOAD_INT(x30, x26) # load rs1: x26 = 0x8d5242bf
     ff0:	000f2d03          	lw	x26,0(x30)
     ff4:	004f0f13          	addi	x30,x30,4
  RVTEST_TESTDATA_LOAD_INT(x30, x0) # load rs2: x0 = 0xa59b002b
     ff8:	000f2003          	lw	x0,0(x30)
     ffc:	004f0f13          	addi	x30,x30,4

00001000 <I_or_cg_cp_rd_b25>:
I_or_cg_cp_rd_b25:
  or x25, x26, x0 # perform operation
    1000:	000d6cb3          	or	x25,x26,x0
  # Check if x25 contains the expected result. x11 is the signature ptr, x5 is the link ptr, x4 is a temp reg.
  RVTEST_SIGUPD(x11, x5, x4, x25, I_or_cg_cp_rd_b25, I_or_cg_cp_rd_b25_str)
    1004:	0005a203          	lw	x4,0(x11)
    1008:	01920863          	beq	x4,x25,1018 <I_or_cg_cp_rd_b25+0x18>
    100c:	4b0032ef          	jal	x5,44bc <failedtest_x5_x4>
    1010:	00001000          	.word	0x00001000
    1014:	00009d0e          	.word	0x00009d0e
    1018:	00458593          	addi	x11,x11,4

# Testcase cp_rd (Test destination rd = x26)
  RVTEST_TESTDATA_LOAD_INT(x30, x23) # load rs1: x23 = 0xbc2e6870
    101c:	000f2b83          	lw	x23,0(x30)
    1020:	004f0f13          	addi	x30,x30,4
  RVTEST_TESTDATA_LOAD_INT(x30, x27) # load rs2: x27 = 0xb4bdb61a
    1024:	000f2d83          	lw	x27,0(x30)
    1028:	004f0f13          	addi	x30,x30,4

0000102c <I_or_cg_cp_rd_b26>:
I_or_cg_cp_rd_b26:
  or x26, x23, x27 # perform operation
    102c:	01bbed33          	or	x26,x23,x27
  # Check if x26 contains the expected result. x11 is the signature ptr, x5 is the link ptr, x4 is a temp reg.
  RVTEST_SIGUPD(x11, x5, x4, x26, I_or_cg_cp_rd_b26, I_or_cg_cp_rd_b26_str)
    1030:	0005a203          	lw	x4,0(x11)
    1034:	01a20863          	beq	x4,x26,1044 <I_or_cg_cp_rd_b26+0x18>
    1038:	484032ef          	jal	x5,44bc <failedtest_x5_x4>
    103c:	0000102c          	.word	0x0000102c
    1040:	00009d3b          	.word	0x00009d3b
    1044:	00458593          	addi	x11,x11,4

# Testcase cp_rd (Test destination rd = x27)
  RVTEST_TESTDATA_LOAD_INT(x30, x26) # load rs1: x26 = 0x083cb269
    1048:	000f2d03          	lw	x26,0(x30)
    104c:	004f0f13          	addi	x30,x30,4
  RVTEST_TESTDATA_LOAD_INT(x30, x12) # load rs2: x12 = 0x495ca3f0
    1050:	000f2603          	lw	x12,0(x30)
    1054:	004f0f13          	addi	x30,x30,4

00001058 <I_or_cg_cp_rd_b27>:
I_or_cg_cp_rd_b27:
  or x27, x26, x12 # perform operation
    1058:	00cd6db3          	or	x27,x26,x12
  # Check if x27 contains the expected result. x11 is the signature ptr, x5 is the link ptr, x4 is a temp reg.
  RVTEST_SIGUPD(x11, x5, x4, x27, I_or_cg_cp_rd_b27, I_or_cg_cp_rd_b27_str)
    105c:	0005a203          	lw	x4,0(x11)
    1060:	01b20863          	beq	x4,x27,1070 <I_or_cg_cp_rd_b27+0x18>
    1064:	458032ef          	jal	x5,44bc <failedtest_x5_x4>
    1068:	00001058          	.word	0x00001058
    106c:	00009d68          	.word	0x00009d68
    1070:	00458593          	addi	x11,x11,4

# Testcase cp_rd (Test destination rd = x28)
  RVTEST_TESTDATA_LOAD_INT(x30, x12) # load rs1: x12 = 0x2e2c8471
    1074:	000f2603          	lw	x12,0(x30)
    1078:	004f0f13          	addi	x30,x30,4
  RVTEST_TESTDATA_LOAD_INT(x30, x1) # load rs2: x1 = 0x2c7460c8
    107c:	000f2083          	lw	x1,0(x30)
    1080:	004f0f13          	addi	x30,x30,4

00001084 <I_or_cg_cp_rd_b28>:
I_or_cg_cp_rd_b28:
  or x28, x12, x1 # perform operation
    1084:	00166e33          	or	x28,x12,x1
  # Check if x28 contains the expected result. x11 is the signature ptr, x5 is the link ptr, x4 is a temp reg.
  RVTEST_SIGUPD(x11, x5, x4, x28, I_or_cg_cp_rd_b28, I_or_cg_cp_rd_b28_str)
    1088:	0005a203          	lw	x4,0(x11)
    108c:	01c20863          	beq	x4,x28,109c <I_or_cg_cp_rd_b28+0x18>
    1090:	42c032ef          	jal	x5,44bc <failedtest_x5_x4>
    1094:	00001084          	.word	0x00001084
    1098:	00009d95          	.word	0x00009d95
    109c:	00458593          	addi	x11,x11,4

# Testcase cp_rd (Test destination rd = x29)
  RVTEST_TESTDATA_LOAD_INT(x30, x22) # load rs1: x22 = 0x31e3d13c
    10a0:	000f2b03          	lw	x22,0(x30)
    10a4:	004f0f13          	addi	x30,x30,4
  RVTEST_TESTDATA_LOAD_INT(x30, x1) # load rs2: x1 = 0x201e18e6
    10a8:	000f2083          	lw	x1,0(x30)
    10ac:	004f0f13          	addi	x30,x30,4

000010b0 <I_or_cg_cp_rd_b29>:
I_or_cg_cp_rd_b29:
  or x29, x22, x1 # perform operation
    10b0:	001b6eb3          	or	x29,x22,x1
  # Check if x29 contains the expected result. x11 is the signature ptr, x5 is the link ptr, x4 is a temp reg.
  RVTEST_SIGUPD(x11, x5, x4, x29, I_or_cg_cp_rd_b29, I_or_cg_cp_rd_b29_str)
    10b4:	0005a203          	lw	x4,0(x11)
    10b8:	01d20863          	beq	x4,x29,10c8 <I_or_cg_cp_rd_b29+0x18>
    10bc:	400032ef          	jal	x5,44bc <failedtest_x5_x4>
    10c0:	000010b0          	.word	0x000010b0
    10c4:	00009dc2          	.word	0x00009dc2
    10c8:	00458593          	addi	x11,x11,4

  mv x24, x30 # switch data pointer register to avoid conflict with test
    10cc:	000f0c13          	addi	x24,x30,0
# Testcase cp_rd (Test destination rd = x30)
  RVTEST_TESTDATA_LOAD_INT(x24, x0) # load rs1: x0 = 0x2d48b1ca
    10d0:	000c2003          	lw	x0,0(x24)
    10d4:	004c0c13          	addi	x24,x24,4
  RVTEST_TESTDATA_LOAD_INT(x24, x7) # load rs2: x7 = 0x33d2351f
    10d8:	000c2383          	lw	x7,0(x24)
    10dc:	004c0c13          	addi	x24,x24,4

000010e0 <I_or_cg_cp_rd_b30>:
I_or_cg_cp_rd_b30:
  or x30, x0, x7 # perform operation
    10e0:	00706f33          	or	x30,x0,x7
  # Check if x30 contains the expected result. x11 is the signature ptr, x5 is the link ptr, x4 is a temp reg.
  RVTEST_SIGUPD(x11, x5, x4, x30, I_or_cg_cp_rd_b30, I_or_cg_cp_rd_b30_str)
    10e4:	0005a203          	lw	x4,0(x11)
    10e8:	01e20863          	beq	x4,x30,10f8 <I_or_cg_cp_rd_b30+0x18>
    10ec:	3d0032ef          	jal	x5,44bc <failedtest_x5_x4>
    10f0:	000010e0          	.word	0x000010e0
    10f4:	00009def          	.word	0x00009def
    10f8:	00458593          	addi	x11,x11,4

# Testcase cp_rd (Test destination rd = x31)
  RVTEST_TESTDATA_LOAD_INT(x24, x27) # load rs1: x27 = 0xd4c73327
    10fc:	000c2d83          	lw	x27,0(x24)
    1100:	004c0c13          	addi	x24,x24,4
  RVTEST_TESTDATA_LOAD_INT(x24, x19) # load rs2: x19 = 0x037bbb6f
    1104:	000c2983          	lw	x19,0(x24)
    1108:	004c0c13          	addi	x24,x24,4

0000110c <I_or_cg_cp_rd_b31>:
I_or_cg_cp_rd_b31:
  or x31, x27, x19 # perform operation
    110c:	013defb3          	or	x31,x27,x19
  # Check if x31 contains the expected result. x11 is the signature ptr, x5 is the link ptr, x4 is a temp reg.
  RVTEST_SIGUPD(x11, x5, x4, x31, I_or_cg_cp_rd_b31, I_or_cg_cp_rd_b31_str)
    1110:	0005a203          	lw	x4,0(x11)
    1114:	01f20863          	beq	x4,x31,1124 <I_or_cg_cp_rd_b31+0x18>
    1118:	3a4032ef          	jal	x5,44bc <failedtest_x5_x4>
    111c:	0000110c          	.word	0x0000110c
    1120:	00009e1c          	.word	0x00009e1c
    1124:	00458593          	addi	x11,x11,4
/////////////////////////////////
// cp_rs1_edges
/////////////////////////////////

# Testcase cp_rs1_edges (Test source rs1 value = 0x00000000)
  RVTEST_TESTDATA_LOAD_INT(x24, x10) # load rs1: x10 = 0x00000000
    1128:	000c2503          	lw	x10,0(x24)
    112c:	004c0c13          	addi	x24,x24,4
  RVTEST_TESTDATA_LOAD_INT(x24, x13) # load rs2: x13 = 0xee4e61dc
    1130:	000c2683          	lw	x13,0(x24)
    1134:	004c0c13          	addi	x24,x24,4

00001138 <I_or_cg_cp_rs1_edges_0x0>:
I_or_cg_cp_rs1_edges_0x0:
  or x31, x10, x13 # perform operation
    1138:	00d56fb3          	or	x31,x10,x13
  # Check if x31 contains the expected result. x11 is the signature ptr, x5 is the link ptr, x4 is a temp reg.
  RVTEST_SIGUPD(x11, x5, x4, x31, I_or_cg_cp_rs1_edges_0x0, I_or_cg_cp_rs1_edges_0x0_str)
    113c:	0005a203          	lw	x4,0(x11)
    1140:	01f20863          	beq	x4,x31,1150 <I_or_cg_cp_rs1_edges_0x0+0x18>
    1144:	378032ef          	jal	x5,44bc <failedtest_x5_x4>
    1148:	00001138          	.word	0x00001138
    114c:	00009e49          	.word	0x00009e49
    1150:	00458593          	addi	x11,x11,4

# Testcase cp_rs1_edges (Test source rs1 value = 0x00000001)
  RVTEST_TESTDATA_LOAD_INT(x24, x10) # load rs1: x10 = 0x00000001
    1154:	000c2503          	lw	x10,0(x24)
    1158:	004c0c13          	addi	x24,x24,4
  RVTEST_TESTDATA_LOAD_INT(x24, x26) # load rs2: x26 = 0xe49ad658
    115c:	000c2d03          	lw	x26,0(x24)
    1160:	004c0c13          	addi	x24,x24,4

00001164 <I_or_cg_cp_rs1_edges_0x1>:
I_or_cg_cp_rs1_edges_0x1:
  or x14, x10, x26 # perform operation
    1164:	01a56733          	or	x14,x10,x26
  # Check if x14 contains the expected result. x11 is the signature ptr, x5 is the link ptr, x4 is a temp reg.
  RVTEST_SIGUPD(x11, x5, x4, x14, I_or_cg_cp_rs1_edges_0x1, I_or_cg_cp_rs1_edges_0x1_str)
    1168:	0005a203          	lw	x4,0(x11)
    116c:	00e20863          	beq	x4,x14,117c <I_or_cg_cp_rs1_edges_0x1+0x18>
    1170:	34c032ef          	jal	x5,44bc <failedtest_x5_x4>
    1174:	00001164          	.word	0x00001164
    1178:	00009e7d          	.word	0x00009e7d
    117c:	00458593          	addi	x11,x11,4

# Testcase cp_rs1_edges (Test source rs1 value = 0x00000002)
  RVTEST_TESTDATA_LOAD_INT(x24, x22) # load rs1: x22 = 0x00000002
    1180:	000c2b03          	lw	x22,0(x24)
    1184:	004c0c13          	addi	x24,x24,4
  RVTEST_TESTDATA_LOAD_INT(x24, x15) # load rs2: x15 = 0x5140795c
    1188:	000c2783          	lw	x15,0(x24)
    118c:	004c0c13          	addi	x24,x24,4

00001190 <I_or_cg_cp_rs1_edges_0x2>:
I_or_cg_cp_rs1_edges_0x2:
  or x16, x22, x15 # perform operation
    1190:	00fb6833          	or	x16,x22,x15
  # Check if x16 contains the expected result. x11 is the signature ptr, x5 is the link ptr, x4 is a temp reg.
  RVTEST_SIGUPD(x11, x5, x4, x16, I_or_cg_cp_rs1_edges_0x2, I_or_cg_cp_rs1_edges_0x2_str)
    1194:	0005a203          	lw	x4,0(x11)
    1198:	01020863          	beq	x4,x16,11a8 <I_or_cg_cp_rs1_edges_0x2+0x18>
    119c:	320032ef          	jal	x5,44bc <failedtest_x5_x4>
    11a0:	00001190          	.word	0x00001190
    11a4:	00009eb1          	.word	0x00009eb1
    11a8:	00458593          	addi	x11,x11,4

# Testcase cp_rs1_edges (Test source rs1 value = 0x80000000)
  RVTEST_TESTDATA_LOAD_INT(x24, x12) # load rs1: x12 = 0x80000000
    11ac:	000c2603          	lw	x12,0(x24)
    11b0:	004c0c13          	addi	x24,x24,4
  RVTEST_TESTDATA_LOAD_INT(x24, x13) # load rs2: x13 = 0xb441d46d
    11b4:	000c2683          	lw	x13,0(x24)
    11b8:	004c0c13          	addi	x24,x24,4

000011bc <I_or_cg_cp_rs1_edges_0x80000000>:
I_or_cg_cp_rs1_edges_0x80000000:
  or x28, x12, x13 # perform operation
    11bc:	00d66e33          	or	x28,x12,x13
  # Check if x28 contains the expected result. x11 is the signature ptr, x5 is the link ptr, x4 is a temp reg.
  RVTEST_SIGUPD(x11, x5, x4, x28, I_or_cg_cp_rs1_edges_0x80000000, I_or_cg_cp_rs1_edges_0x80000000_str)
    11c0:	0005a203          	lw	x4,0(x11)
    11c4:	01c20863          	beq	x4,x28,11d4 <I_or_cg_cp_rs1_edges_0x80000000+0x18>
    11c8:	2f4032ef          	jal	x5,44bc <failedtest_x5_x4>
    11cc:	000011bc          	.word	0x000011bc
    11d0:	00009ee5          	.word	0x00009ee5
    11d4:	00458593          	addi	x11,x11,4

# Testcase cp_rs1_edges (Test source rs1 value = 0x80000001)
  RVTEST_TESTDATA_LOAD_INT(x24, x31) # load rs1: x31 = 0x80000001
    11d8:	000c2f83          	lw	x31,0(x24)
    11dc:	004c0c13          	addi	x24,x24,4
  RVTEST_TESTDATA_LOAD_INT(x24, x20) # load rs2: x20 = 0xb27dbe95
    11e0:	000c2a03          	lw	x20,0(x24)
    11e4:	004c0c13          	addi	x24,x24,4

000011e8 <I_or_cg_cp_rs1_edges_0x80000001>:
I_or_cg_cp_rs1_edges_0x80000001:
  or x18, x31, x20 # perform operation
    11e8:	014fe933          	or	x18,x31,x20
  # Check if x18 contains the expected result. x11 is the signature ptr, x5 is the link ptr, x4 is a temp reg.
  RVTEST_SIGUPD(x11, x5, x4, x18, I_or_cg_cp_rs1_edges_0x80000001, I_or_cg_cp_rs1_edges_0x80000001_str)
    11ec:	0005a203          	lw	x4,0(x11)
    11f0:	01220863          	beq	x4,x18,1200 <I_or_cg_cp_rs1_edges_0x80000001+0x18>
    11f4:	2c8032ef          	jal	x5,44bc <failedtest_x5_x4>
    11f8:	000011e8          	.word	0x000011e8
    11fc:	00009f21          	.word	0x00009f21
    1200:	00458593          	addi	x11,x11,4

# Testcase cp_rs1_edges (Test source rs1 value = 0x7fffffff)
  RVTEST_TESTDATA_LOAD_INT(x24, x19) # load rs1: x19 = 0x7fffffff
    1204:	000c2983          	lw	x19,0(x24)
    1208:	004c0c13          	addi	x24,x24,4
  RVTEST_TESTDATA_LOAD_INT(x24, x27) # load rs2: x27 = 0xdfcaf62c
    120c:	000c2d83          	lw	x27,0(x24)
    1210:	004c0c13          	addi	x24,x24,4

00001214 <I_or_cg_cp_rs1_edges_0x7fffffff>:
I_or_cg_cp_rs1_edges_0x7fffffff:
  or x9, x19, x27 # perform operation
    1214:	01b9e4b3          	or	x9,x19,x27
  # Check if x9 contains the expected result. x11 is the signature ptr, x5 is the link ptr, x4 is a temp reg.
  RVTEST_SIGUPD(x11, x5, x4, x9, I_or_cg_cp_rs1_edges_0x7fffffff, I_or_cg_cp_rs1_edges_0x7fffffff_str)
    1218:	0005a203          	lw	x4,0(x11)
    121c:	00920863          	beq	x4,x9,122c <I_or_cg_cp_rs1_edges_0x7fffffff+0x18>
    1220:	29c032ef          	jal	x5,44bc <failedtest_x5_x4>
    1224:	00001214          	.word	0x00001214
    1228:	00009f5d          	.word	0x00009f5d
    122c:	00458593          	addi	x11,x11,4

# Testcase cp_rs1_edges (Test source rs1 value = 0x7ffffffe)
  RVTEST_TESTDATA_LOAD_INT(x24, x8) # load rs1: x8 = 0x7ffffffe
    1230:	000c2403          	lw	x8,0(x24)
    1234:	004c0c13          	addi	x24,x24,4
  RVTEST_TESTDATA_LOAD_INT(x24, x25) # load rs2: x25 = 0x7782084c
    1238:	000c2c83          	lw	x25,0(x24)
    123c:	004c0c13          	addi	x24,x24,4

00001240 <I_or_cg_cp_rs1_edges_0x7ffffffe>:
I_or_cg_cp_rs1_edges_0x7ffffffe:
  or x28, x8, x25 # perform operation
    1240:	01946e33          	or	x28,x8,x25
  # Check if x28 contains the expected result. x11 is the signature ptr, x5 is the link ptr, x4 is a temp reg.
  RVTEST_SIGUPD(x11, x5, x4, x28, I_or_cg_cp_rs1_edges_0x7ffffffe, I_or_cg_cp_rs1_edges_0x7ffffffe_str)
    1244:	0005a203          	lw	x4,0(x11)
    1248:	01c20863          	beq	x4,x28,1258 <I_or_cg_cp_rs1_edges_0x7ffffffe+0x18>
    124c:	270032ef          	jal	x5,44bc <failedtest_x5_x4>
    1250:	00001240          	.word	0x00001240
    1254:	00009f99          	.word	0x00009f99
    1258:	00458593          	addi	x11,x11,4

# Testcase cp_rs1_edges (Test source rs1 value = 0xffffffff)
  RVTEST_TESTDATA_LOAD_INT(x24, x10) # load rs1: x10 = 0xffffffff
    125c:	000c2503          	lw	x10,0(x24)
    1260:	004c0c13          	addi	x24,x24,4
  RVTEST_TESTDATA_LOAD_INT(x24, x9) # load rs2: x9 = 0xcdce9425
    1264:	000c2483          	lw	x9,0(x24)
    1268:	004c0c13          	addi	x24,x24,4

0000126c <I_or_cg_cp_rs1_edges_0xffffffff>:
I_or_cg_cp_rs1_edges_0xffffffff:
  or x20, x10, x9 # perform operation
    126c:	00956a33          	or	x20,x10,x9
  # Check if x20 contains the expected result. x11 is the signature ptr, x5 is the link ptr, x4 is a temp reg.
  RVTEST_SIGUPD(x11, x5, x4, x20, I_or_cg_cp_rs1_edges_0xffffffff, I_or_cg_cp_rs1_edges_0xffffffff_str)
    1270:	0005a203          	lw	x4,0(x11)
    1274:	01420863          	beq	x4,x20,1284 <I_or_cg_cp_rs1_edges_0xffffffff+0x18>
    1278:	244032ef          	jal	x5,44bc <failedtest_x5_x4>
    127c:	0000126c          	.word	0x0000126c
    1280:	00009fd5          	.word	0x00009fd5
    1284:	00458593          	addi	x11,x11,4

# Testcase cp_rs1_edges (Test source rs1 value = 0xfffffffe)
  RVTEST_TESTDATA_LOAD_INT(x24, x6) # load rs1: x6 = 0xfffffffe
    1288:	000c2303          	lw	x6,0(x24)
    128c:	004c0c13          	addi	x24,x24,4
  RVTEST_TESTDATA_LOAD_INT(x24, x30) # load rs2: x30 = 0x9883781d
    1290:	000c2f03          	lw	x30,0(x24)
    1294:	004c0c13          	addi	x24,x24,4

00001298 <I_or_cg_cp_rs1_edges_0xfffffffe>:
I_or_cg_cp_rs1_edges_0xfffffffe:
  or x18, x6, x30 # perform operation
    1298:	01e36933          	or	x18,x6,x30
  # Check if x18 contains the expected result. x11 is the signature ptr, x5 is the link ptr, x4 is a temp reg.
  RVTEST_SIGUPD(x11, x5, x4, x18, I_or_cg_cp_rs1_edges_0xfffffffe, I_or_cg_cp_rs1_edges_0xfffffffe_str)
    129c:	0005a203          	lw	x4,0(x11)
    12a0:	01220863          	beq	x4,x18,12b0 <I_or_cg_cp_rs1_edges_0xfffffffe+0x18>
    12a4:	218032ef          	jal	x5,44bc <failedtest_x5_x4>
    12a8:	00001298          	.word	0x00001298
    12ac:	0000a011          	.word	0x0000a011
    12b0:	00458593          	addi	x11,x11,4

# Testcase cp_rs1_edges (Test source rs1 value = 0x5bbc8872)
  RVTEST_TESTDATA_LOAD_INT(x24, x3) # load rs1: x3 = 0x5bbc8872
    12b4:	000c2183          	lw	x3,0(x24)
    12b8:	004c0c13          	addi	x24,x24,4
  RVTEST_TESTDATA_LOAD_INT(x24, x15) # load rs2: x15 = 0x3c262ff0
    12bc:	000c2783          	lw	x15,0(x24)
    12c0:	004c0c13          	addi	x24,x24,4

000012c4 <I_or_cg_cp_rs1_edges_0x5bbc8872>:
I_or_cg_cp_rs1_edges_0x5bbc8872:
  or x8, x3, x15 # perform operation
    12c4:	00f1e433          	or	x8,x3,x15
  # Check if x8 contains the expected result. x11 is the signature ptr, x5 is the link ptr, x4 is a temp reg.
  RVTEST_SIGUPD(x11, x5, x4, x8, I_or_cg_cp_rs1_edges_0x5bbc8872, I_or_cg_cp_rs1_edges_0x5bbc8872_str)
    12c8:	0005a203          	lw	x4,0(x11)
    12cc:	00820863          	beq	x4,x8,12dc <I_or_cg_cp_rs1_edges_0x5bbc8872+0x18>
    12d0:	1ec032ef          	jal	x5,44bc <failedtest_x5_x4>
    12d4:	000012c4          	.word	0x000012c4
    12d8:	0000a04d          	.word	0x0000a04d
    12dc:	00458593          	addi	x11,x11,4

# Testcase cp_rs1_edges (Test source rs1 value = 0xaaaaaaaa)
  RVTEST_TESTDATA_LOAD_INT(x24, x2) # load rs1: x2 = 0xaaaaaaaa
    12e0:	000c2103          	lw	x2,0(x24)
    12e4:	004c0c13          	addi	x24,x24,4
  RVTEST_TESTDATA_LOAD_INT(x24, x18) # load rs2: x18 = 0xacbef5f8
    12e8:	000c2903          	lw	x18,0(x24)
    12ec:	004c0c13          	addi	x24,x24,4

000012f0 <I_or_cg_cp_rs1_edges_0xaaaaaaaa>:
I_or_cg_cp_rs1_edges_0xaaaaaaaa:
  or x30, x2, x18 # perform operation
    12f0:	01216f33          	or	x30,x2,x18
  # Check if x30 contains the expected result. x11 is the signature ptr, x5 is the link ptr, x4 is a temp reg.
  RVTEST_SIGUPD(x11, x5, x4, x30, I_or_cg_cp_rs1_edges_0xaaaaaaaa, I_or_cg_cp_rs1_edges_0xaaaaaaaa_str)
    12f4:	0005a203          	lw	x4,0(x11)
    12f8:	01e20863          	beq	x4,x30,1308 <I_or_cg_cp_rs1_edges_0xaaaaaaaa+0x18>
    12fc:	1c0032ef          	jal	x5,44bc <failedtest_x5_x4>
    1300:	000012f0          	.word	0x000012f0
    1304:	0000a089          	.word	0x0000a089
    1308:	00458593          	addi	x11,x11,4

# Testcase cp_rs1_edges (Test source rs1 value = 0x55555555)
  RVTEST_TESTDATA_LOAD_INT(x24, x8) # load rs1: x8 = 0x55555555
    130c:	000c2403          	lw	x8,0(x24)
    1310:	004c0c13          	addi	x24,x24,4
  RVTEST_TESTDATA_LOAD_INT(x24, x27) # load rs2: x27 = 0xa52952f9
    1314:	000c2d83          	lw	x27,0(x24)
    1318:	004c0c13          	addi	x24,x24,4

0000131c <I_or_cg_cp_rs1_edges_0x55555555>:
I_or_cg_cp_rs1_edges_0x55555555:
  or x30, x8, x27 # perform operation
    131c:	01b46f33          	or	x30,x8,x27
  # Check if x30 contains the expected result. x11 is the signature ptr, x5 is the link ptr, x4 is a temp reg.
  RVTEST_SIGUPD(x11, x5, x4, x30, I_or_cg_cp_rs1_edges_0x55555555, I_or_cg_cp_rs1_edges_0x55555555_str)
    1320:	0005a203          	lw	x4,0(x11)
    1324:	01e20863          	beq	x4,x30,1334 <I_or_cg_cp_rs1_edges_0x55555555+0x18>
    1328:	194032ef          	jal	x5,44bc <failedtest_x5_x4>
    132c:	0000131c          	.word	0x0000131c
    1330:	0000a0c5          	.word	0x0000a0c5
    1334:	00458593          	addi	x11,x11,4
/////////////////////////////////
// cp_rs2_edges
/////////////////////////////////

# Testcase cp_rs2_edges (Test source rs2 value = 0x00000000)
  RVTEST_TESTDATA_LOAD_INT(x24, x10) # load rs1: x10 = 0xe523f12f
    1338:	000c2503          	lw	x10,0(x24)
    133c:	004c0c13          	addi	x24,x24,4
  RVTEST_TESTDATA_LOAD_INT(x24, x8) # load rs2: x8 = 0x00000000
    1340:	000c2403          	lw	x8,0(x24)
    1344:	004c0c13          	addi	x24,x24,4

00001348 <I_or_cg_cp_rs2_edges_0x0>:
I_or_cg_cp_rs2_edges_0x0:
  or x28, x10, x8 # perform operation
    1348:	00856e33          	or	x28,x10,x8
  # Check if x28 contains the expected result. x11 is the signature ptr, x5 is the link ptr, x4 is a temp reg.
  RVTEST_SIGUPD(x11, x5, x4, x28, I_or_cg_cp_rs2_edges_0x0, I_or_cg_cp_rs2_edges_0x0_str)
    134c:	0005a203          	lw	x4,0(x11)
    1350:	01c20863          	beq	x4,x28,1360 <I_or_cg_cp_rs2_edges_0x0+0x18>
    1354:	168032ef          	jal	x5,44bc <failedtest_x5_x4>
    1358:	00001348          	.word	0x00001348
    135c:	0000a101          	.word	0x0000a101
    1360:	00458593          	addi	x11,x11,4

# Testcase cp_rs2_edges (Test source rs2 value = 0x00000001)
  RVTEST_TESTDATA_LOAD_INT(x24, x17) # load rs1: x17 = 0x4271426d
    1364:	000c2883          	lw	x17,0(x24)
    1368:	004c0c13          	addi	x24,x24,4
  RVTEST_TESTDATA_LOAD_INT(x24, x14) # load rs2: x14 = 0x00000001
    136c:	000c2703          	lw	x14,0(x24)
    1370:	004c0c13          	addi	x24,x24,4

00001374 <I_or_cg_cp_rs2_edges_0x1>:
I_or_cg_cp_rs2_edges_0x1:
  or x12, x17, x14 # perform operation
    1374:	00e8e633          	or	x12,x17,x14
  # Check if x12 contains the expected result. x11 is the signature ptr, x5 is the link ptr, x4 is a temp reg.
  RVTEST_SIGUPD(x11, x5, x4, x12, I_or_cg_cp_rs2_edges_0x1, I_or_cg_cp_rs2_edges_0x1_str)
    1378:	0005a203          	lw	x4,0(x11)
    137c:	00c20863          	beq	x4,x12,138c <I_or_cg_cp_rs2_edges_0x1+0x18>
    1380:	13c032ef          	jal	x5,44bc <failedtest_x5_x4>
    1384:	00001374          	.word	0x00001374
    1388:	0000a136          	.word	0x0000a136
    138c:	00458593          	addi	x11,x11,4

# Testcase cp_rs2_edges (Test source rs2 value = 0x00000002)
  RVTEST_TESTDATA_LOAD_INT(x24, x15) # load rs1: x15 = 0xc7fd3f9c
    1390:	000c2783          	lw	x15,0(x24)
    1394:	004c0c13          	addi	x24,x24,4
  RVTEST_TESTDATA_LOAD_INT(x24, x13) # load rs2: x13 = 0x00000002
    1398:	000c2683          	lw	x13,0(x24)
    139c:	004c0c13          	addi	x24,x24,4

000013a0 <I_or_cg_cp_rs2_edges_0x2>:
I_or_cg_cp_rs2_edges_0x2:
  or x22, x15, x13 # perform operation
    13a0:	00d7eb33          	or	x22,x15,x13
  # Check if x22 contains the expected result. x11 is the signature ptr, x5 is the link ptr, x4 is a temp reg.
  RVTEST_SIGUPD(x11, x5, x4, x22, I_or_cg_cp_rs2_edges_0x2, I_or_cg_cp_rs2_edges_0x2_str)
    13a4:	0005a203          	lw	x4,0(x11)
    13a8:	01620863          	beq	x4,x22,13b8 <I_or_cg_cp_rs2_edges_0x2+0x18>
    13ac:	110032ef          	jal	x5,44bc <failedtest_x5_x4>
    13b0:	000013a0          	.word	0x000013a0
    13b4:	0000a16b          	.word	0x0000a16b
    13b8:	00458593          	addi	x11,x11,4

# Testcase cp_rs2_edges (Test source rs2 value = 0x80000000)
  RVTEST_TESTDATA_LOAD_INT(x24, x3) # load rs1: x3 = 0x685ecd6b
    13bc:	000c2183          	lw	x3,0(x24)
    13c0:	004c0c13          	addi	x24,x24,4
  RVTEST_TESTDATA_LOAD_INT(x24, x29) # load rs2: x29 = 0x80000000
    13c4:	000c2e83          	lw	x29,0(x24)
    13c8:	004c0c13          	addi	x24,x24,4

000013cc <I_or_cg_cp_rs2_edges_0x80000000>:
I_or_cg_cp_rs2_edges_0x80000000:
  or x27, x3, x29 # perform operation
    13cc:	01d1edb3          	or	x27,x3,x29
  # Check if x27 contains the expected result. x11 is the signature ptr, x5 is the link ptr, x4 is a temp reg.
  RVTEST_SIGUPD(x11, x5, x4, x27, I_or_cg_cp_rs2_edges_0x80000000, I_or_cg_cp_rs2_edges_0x80000000_str)
    13d0:	0005a203          	lw	x4,0(x11)
    13d4:	01b20863          	beq	x4,x27,13e4 <I_or_cg_cp_rs2_edges_0x80000000+0x18>
    13d8:	0e4032ef          	jal	x5,44bc <failedtest_x5_x4>
    13dc:	000013cc          	.word	0x000013cc
    13e0:	0000a1a0          	.word	0x0000a1a0
    13e4:	00458593          	addi	x11,x11,4

# Testcase cp_rs2_edges (Test source rs2 value = 0x80000001)
  RVTEST_TESTDATA_LOAD_INT(x24, x29) # load rs1: x29 = 0xc17cc2d3
    13e8:	000c2e83          	lw	x29,0(x24)
    13ec:	004c0c13          	addi	x24,x24,4
  RVTEST_TESTDATA_LOAD_INT(x24, x7) # load rs2: x7 = 0x80000001
    13f0:	000c2383          	lw	x7,0(x24)
    13f4:	004c0c13          	addi	x24,x24,4

000013f8 <I_or_cg_cp_rs2_edges_0x80000001>:
I_or_cg_cp_rs2_edges_0x80000001:
  or x8, x29, x7 # perform operation
    13f8:	007ee433          	or	x8,x29,x7
  # Check if x8 contains the expected result. x11 is the signature ptr, x5 is the link ptr, x4 is a temp reg.
  RVTEST_SIGUPD(x11, x5, x4, x8, I_or_cg_cp_rs2_edges_0x80000001, I_or_cg_cp_rs2_edges_0x80000001_str)
    13fc:	0005a203          	lw	x4,0(x11)
    1400:	00820863          	beq	x4,x8,1410 <I_or_cg_cp_rs2_edges_0x80000001+0x18>
    1404:	0b8032ef          	jal	x5,44bc <failedtest_x5_x4>
    1408:	000013f8          	.word	0x000013f8
    140c:	0000a1dc          	.word	0x0000a1dc
    1410:	00458593          	addi	x11,x11,4

# Testcase cp_rs2_edges (Test source rs2 value = 0x7fffffff)
  RVTEST_TESTDATA_LOAD_INT(x24, x22) # load rs1: x22 = 0x079b7ddf
    1414:	000c2b03          	lw	x22,0(x24)
    1418:	004c0c13          	addi	x24,x24,4
  RVTEST_TESTDATA_LOAD_INT(x24, x21) # load rs2: x21 = 0x7fffffff
    141c:	000c2a83          	lw	x21,0(x24)
    1420:	004c0c13          	addi	x24,x24,4

00001424 <I_or_cg_cp_rs2_edges_0x7fffffff>:
I_or_cg_cp_rs2_edges_0x7fffffff:
  or x25, x22, x21 # perform operation
    1424:	015b6cb3          	or	x25,x22,x21
  # Check if x25 contains the expected result. x11 is the signature ptr, x5 is the link ptr, x4 is a temp reg.
  RVTEST_SIGUPD(x11, x5, x4, x25, I_or_cg_cp_rs2_edges_0x7fffffff, I_or_cg_cp_rs2_edges_0x7fffffff_str)
    1428:	0005a203          	lw	x4,0(x11)
    142c:	01920863          	beq	x4,x25,143c <I_or_cg_cp_rs2_edges_0x7fffffff+0x18>
    1430:	08c032ef          	jal	x5,44bc <failedtest_x5_x4>
    1434:	00001424          	.word	0x00001424
    1438:	0000a218          	.word	0x0000a218
    143c:	00458593          	addi	x11,x11,4

# Testcase cp_rs2_edges (Test source rs2 value = 0x7ffffffe)
  RVTEST_TESTDATA_LOAD_INT(x24, x26) # load rs1: x26 = 0x58d4e2f8
    1440:	000c2d03          	lw	x26,0(x24)
    1444:	004c0c13          	addi	x24,x24,4
  RVTEST_TESTDATA_LOAD_INT(x24, x29) # load rs2: x29 = 0x7ffffffe
    1448:	000c2e83          	lw	x29,0(x24)
    144c:	004c0c13          	addi	x24,x24,4

00001450 <I_or_cg_cp_rs2_edges_0x7ffffffe>:
I_or_cg_cp_rs2_edges_0x7ffffffe:
  or x22, x26, x29 # perform operation
    1450:	01dd6b33          	or	x22,x26,x29
  # Check if x22 contains the expected result. x11 is the signature ptr, x5 is the link ptr, x4 is a temp reg.
  RVTEST_SIGUPD(x11, x5, x4, x22, I_or_cg_cp_rs2_edges_0x7ffffffe, I_or_cg_cp_rs2_edges_0x7ffffffe_str)
    1454:	0005a203          	lw	x4,0(x11)
    1458:	01620863          	beq	x4,x22,1468 <I_or_cg_cp_rs2_edges_0x7ffffffe+0x18>
    145c:	060032ef          	jal	x5,44bc <failedtest_x5_x4>
    1460:	00001450          	.word	0x00001450
    1464:	0000a254          	.word	0x0000a254
    1468:	00458593          	addi	x11,x11,4

# Testcase cp_rs2_edges (Test source rs2 value = 0xffffffff)
  RVTEST_TESTDATA_LOAD_INT(x24, x12) # load rs1: x12 = 0xd036f469
    146c:	000c2603          	lw	x12,0(x24)
    1470:	004c0c13          	addi	x24,x24,4
  RVTEST_TESTDATA_LOAD_INT(x24, x7) # load rs2: x7 = 0xffffffff
    1474:	000c2383          	lw	x7,0(x24)
    1478:	004c0c13          	addi	x24,x24,4

0000147c <I_or_cg_cp_rs2_edges_0xffffffff>:
I_or_cg_cp_rs2_edges_0xffffffff:
  or x14, x12, x7 # perform operation
    147c:	00766733          	or	x14,x12,x7
  # Check if x14 contains the expected result. x11 is the signature ptr, x5 is the link ptr, x4 is a temp reg.
  RVTEST_SIGUPD(x11, x5, x4, x14, I_or_cg_cp_rs2_edges_0xffffffff, I_or_cg_cp_rs2_edges_0xffffffff_str)
    1480:	0005a203          	lw	x4,0(x11)
    1484:	00e20863          	beq	x4,x14,1494 <I_or_cg_cp_rs2_edges_0xffffffff+0x18>
    1488:	034032ef          	jal	x5,44bc <failedtest_x5_x4>
    148c:	0000147c          	.word	0x0000147c
    1490:	0000a290          	.word	0x0000a290
    1494:	00458593          	addi	x11,x11,4

# Testcase cp_rs2_edges (Test source rs2 value = 0xfffffffe)
  RVTEST_TESTDATA_LOAD_INT(x24, x9) # load rs1: x9 = 0xf5eac55b
    1498:	000c2483          	lw	x9,0(x24)
    149c:	004c0c13          	addi	x24,x24,4
  RVTEST_TESTDATA_LOAD_INT(x24, x31) # load rs2: x31 = 0xfffffffe
    14a0:	000c2f83          	lw	x31,0(x24)
    14a4:	004c0c13          	addi	x24,x24,4

000014a8 <I_or_cg_cp_rs2_edges_0xfffffffe>:
I_or_cg_cp_rs2_edges_0xfffffffe:
  or x7, x9, x31 # perform operation
    14a8:	01f4e3b3          	or	x7,x9,x31
  # Check if x7 contains the expected result. x11 is the signature ptr, x5 is the link ptr, x4 is a temp reg.
  RVTEST_SIGUPD(x11, x5, x4, x7, I_or_cg_cp_rs2_edges_0xfffffffe, I_or_cg_cp_rs2_edges_0xfffffffe_str)
    14ac:	0005a203          	lw	x4,0(x11)
    14b0:	00720863          	beq	x4,x7,14c0 <I_or_cg_cp_rs2_edges_0xfffffffe+0x18>
    14b4:	008032ef          	jal	x5,44bc <failedtest_x5_x4>
    14b8:	000014a8          	.word	0x000014a8
    14bc:	0000a2cc          	.word	0x0000a2cc
    14c0:	00458593          	addi	x11,x11,4

# Testcase cp_rs2_edges (Test source rs2 value = 0x5bbc8872)
  RVTEST_TESTDATA_LOAD_INT(x24, x15) # load rs1: x15 = 0x85b236f4
    14c4:	000c2783          	lw	x15,0(x24)
    14c8:	004c0c13          	addi	x24,x24,4
  RVTEST_TESTDATA_LOAD_INT(x24, x14) # load rs2: x14 = 0x5bbc8872
    14cc:	000c2703          	lw	x14,0(x24)
    14d0:	004c0c13          	addi	x24,x24,4

000014d4 <I_or_cg_cp_rs2_edges_0x5bbc8872>:
I_or_cg_cp_rs2_edges_0x5bbc8872:
  or x7, x15, x14 # perform operation
    14d4:	00e7e3b3          	or	x7,x15,x14
  # Check if x7 contains the expected result. x11 is the signature ptr, x5 is the link ptr, x4 is a temp reg.
  RVTEST_SIGUPD(x11, x5, x4, x7, I_or_cg_cp_rs2_edges_0x5bbc8872, I_or_cg_cp_rs2_edges_0x5bbc8872_str)
    14d8:	0005a203          	lw	x4,0(x11)
    14dc:	00720863          	beq	x4,x7,14ec <I_or_cg_cp_rs2_edges_0x5bbc8872+0x18>
    14e0:	7dd022ef          	jal	x5,44bc <failedtest_x5_x4>
    14e4:	000014d4          	.word	0x000014d4
    14e8:	0000a308          	.word	0x0000a308
    14ec:	00458593          	addi	x11,x11,4

# Testcase cp_rs2_edges (Test source rs2 value = 0xaaaaaaaa)
  RVTEST_TESTDATA_LOAD_INT(x24, x29) # load rs1: x29 = 0x1d805f5c
    14f0:	000c2e83          	lw	x29,0(x24)
    14f4:	004c0c13          	addi	x24,x24,4
  RVTEST_TESTDATA_LOAD_INT(x24, x15) # load rs2: x15 = 0xaaaaaaaa
    14f8:	000c2783          	lw	x15,0(x24)
    14fc:	004c0c13          	addi	x24,x24,4

00001500 <I_or_cg_cp_rs2_edges_0xaaaaaaaa>:
I_or_cg_cp_rs2_edges_0xaaaaaaaa:
  or x30, x29, x15 # perform operation
    1500:	00feef33          	or	x30,x29,x15
  # Check if x30 contains the expected result. x11 is the signature ptr, x5 is the link ptr, x4 is a temp reg.
  RVTEST_SIGUPD(x11, x5, x4, x30, I_or_cg_cp_rs2_edges_0xaaaaaaaa, I_or_cg_cp_rs2_edges_0xaaaaaaaa_str)
    1504:	0005a203          	lw	x4,0(x11)
    1508:	01e20863          	beq	x4,x30,1518 <I_or_cg_cp_rs2_edges_0xaaaaaaaa+0x18>
    150c:	7b1022ef          	jal	x5,44bc <failedtest_x5_x4>
    1510:	00001500          	.word	0x00001500
    1514:	0000a344          	.word	0x0000a344
    1518:	00458593          	addi	x11,x11,4

# Testcase cp_rs2_edges (Test source rs2 value = 0x55555555)
  RVTEST_TESTDATA_LOAD_INT(x24, x27) # load rs1: x27 = 0xb4560e6f
    151c:	000c2d83          	lw	x27,0(x24)
    1520:	004c0c13          	addi	x24,x24,4
  RVTEST_TESTDATA_LOAD_INT(x24, x29) # load rs2: x29 = 0x55555555
    1524:	000c2e83          	lw	x29,0(x24)
    1528:	004c0c13          	addi	x24,x24,4

0000152c <I_or_cg_cp_rs2_edges_0x55555555>:
I_or_cg_cp_rs2_edges_0x55555555:
  or x25, x27, x29 # perform operation
    152c:	01ddecb3          	or	x25,x27,x29
  # Check if x25 contains the expected result. x11 is the signature ptr, x5 is the link ptr, x4 is a temp reg.
  RVTEST_SIGUPD(x11, x5, x4, x25, I_or_cg_cp_rs2_edges_0x55555555, I_or_cg_cp_rs2_edges_0x55555555_str)
    1530:	0005a203          	lw	x4,0(x11)
    1534:	01920863          	beq	x4,x25,1544 <I_or_cg_cp_rs2_edges_0x55555555+0x18>
    1538:	785022ef          	jal	x5,44bc <failedtest_x5_x4>
    153c:	0000152c          	.word	0x0000152c
    1540:	0000a380          	.word	0x0000a380
    1544:	00458593          	addi	x11,x11,4
/////////////////////////////////
// cr_rs1_rs2_edges
/////////////////////////////////

# Testcase cr_rs1_rs2_edges (Test source rs1 = 0x00000000 rs2 = 0x00000000)
  RVTEST_TESTDATA_LOAD_INT(x24, x12) # load rs1: x12 = 0x00000000
    1548:	000c2603          	lw	x12,0(x24)
    154c:	004c0c13          	addi	x24,x24,4
  RVTEST_TESTDATA_LOAD_INT(x24, x19) # load rs2: x19 = 0x00000000
    1550:	000c2983          	lw	x19,0(x24)
    1554:	004c0c13          	addi	x24,x24,4

00001558 <I_or_cg_cr_rs1_rs2_edges_rs1val_0x0_rs2val_0x0>:
I_or_cg_cr_rs1_rs2_edges_rs1val_0x0_rs2val_0x0:
  or x14, x12, x19 # perform operation
    1558:	01366733          	or	x14,x12,x19
  # Check if x14 contains the expected result. x11 is the signature ptr, x5 is the link ptr, x4 is a temp reg.
  RVTEST_SIGUPD(x11, x5, x4, x14, I_or_cg_cr_rs1_rs2_edges_rs1val_0x0_rs2val_0x0, I_or_cg_cr_rs1_rs2_edges_rs1val_0x0_rs2val_0x0_str)
    155c:	0005a203          	lw	x4,0(x11)
    1560:	00e20863          	beq	x4,x14,1570 <I_or_cg_cr_rs1_rs2_edges_rs1val_0x0_rs2val_0x0+0x18>
    1564:	759022ef          	jal	x5,44bc <failedtest_x5_x4>
    1568:	00001558          	.word	0x00001558
    156c:	0000a3bc          	.word	0x0000a3bc
    1570:	00458593          	addi	x11,x11,4

# Testcase cr_rs1_rs2_edges (Test source rs1 = 0x00000000 rs2 = 0x00000001)
  RVTEST_TESTDATA_LOAD_INT(x24, x28) # load rs1: x28 = 0x00000000
    1574:	000c2e03          	lw	x28,0(x24)
    1578:	004c0c13          	addi	x24,x24,4
  RVTEST_TESTDATA_LOAD_INT(x24, x21) # load rs2: x21 = 0x00000001
    157c:	000c2a83          	lw	x21,0(x24)
    1580:	004c0c13          	addi	x24,x24,4

00001584 <I_or_cg_cr_rs1_rs2_edges_rs1val_0x0_rs2val_0x1>:
I_or_cg_cr_rs1_rs2_edges_rs1val_0x0_rs2val_0x1:
  or x17, x28, x21 # perform operation
    1584:	015e68b3          	or	x17,x28,x21
  # Check if x17 contains the expected result. x11 is the signature ptr, x5 is the link ptr, x4 is a temp reg.
  RVTEST_SIGUPD(x11, x5, x4, x17, I_or_cg_cr_rs1_rs2_edges_rs1val_0x0_rs2val_0x1, I_or_cg_cr_rs1_rs2_edges_rs1val_0x0_rs2val_0x1_str)
    1588:	0005a203          	lw	x4,0(x11)
    158c:	01120863          	beq	x4,x17,159c <I_or_cg_cr_rs1_rs2_edges_rs1val_0x0_rs2val_0x1+0x18>
    1590:	72d022ef          	jal	x5,44bc <failedtest_x5_x4>
    1594:	00001584          	.word	0x00001584
    1598:	0000a408          	.word	0x0000a408
    159c:	00458593          	addi	x11,x11,4

# Testcase cr_rs1_rs2_edges (Test source rs1 = 0x00000000 rs2 = 0x00000002)
  RVTEST_TESTDATA_LOAD_INT(x24, x25) # load rs1: x25 = 0x00000000
    15a0:	000c2c83          	lw	x25,0(x24)
    15a4:	004c0c13          	addi	x24,x24,4
  RVTEST_TESTDATA_LOAD_INT(x24, x23) # load rs2: x23 = 0x00000002
    15a8:	000c2b83          	lw	x23,0(x24)
    15ac:	004c0c13          	addi	x24,x24,4

000015b0 <I_or_cg_cr_rs1_rs2_edges_rs1val_0x0_rs2val_0x2>:
I_or_cg_cr_rs1_rs2_edges_rs1val_0x0_rs2val_0x2:
  or x13, x25, x23 # perform operation
    15b0:	017ce6b3          	or	x13,x25,x23
  # Check if x13 contains the expected result. x11 is the signature ptr, x5 is the link ptr, x4 is a temp reg.
  RVTEST_SIGUPD(x11, x5, x4, x13, I_or_cg_cr_rs1_rs2_edges_rs1val_0x0_rs2val_0x2, I_or_cg_cr_rs1_rs2_edges_rs1val_0x0_rs2val_0x2_str)
    15b4:	0005a203          	lw	x4,0(x11)
    15b8:	00d20863          	beq	x4,x13,15c8 <I_or_cg_cr_rs1_rs2_edges_rs1val_0x0_rs2val_0x2+0x18>
    15bc:	701022ef          	jal	x5,44bc <failedtest_x5_x4>
    15c0:	000015b0          	.word	0x000015b0
    15c4:	0000a454          	.word	0x0000a454
    15c8:	00458593          	addi	x11,x11,4

# Testcase cr_rs1_rs2_edges (Test source rs1 = 0x00000000 rs2 = 0x80000000)
  RVTEST_TESTDATA_LOAD_INT(x24, x7) # load rs1: x7 = 0x00000000
    15cc:	000c2383          	lw	x7,0(x24)
    15d0:	004c0c13          	addi	x24,x24,4
  RVTEST_TESTDATA_LOAD_INT(x24, x31) # load rs2: x31 = 0x80000000
    15d4:	000c2f83          	lw	x31,0(x24)
    15d8:	004c0c13          	addi	x24,x24,4

000015dc <I_or_cg_cr_rs1_rs2_edges_rs1val_0x0_rs2val_0x80000000>:
I_or_cg_cr_rs1_rs2_edges_rs1val_0x0_rs2val_0x80000000:
  or x2, x7, x31 # perform operation
    15dc:	01f3e133          	or	x2,x7,x31
  # Check if x2 contains the expected result. x11 is the signature ptr, x5 is the link ptr, x4 is a temp reg.
  RVTEST_SIGUPD(x11, x5, x4, x2, I_or_cg_cr_rs1_rs2_edges_rs1val_0x0_rs2val_0x80000000, I_or_cg_cr_rs1_rs2_edges_rs1val_0x0_rs2val_0x80000000_str)
    15e0:	0005a203          	lw	x4,0(x11)
    15e4:	00220863          	beq	x4,x2,15f4 <I_or_cg_cr_rs1_rs2_edges_rs1val_0x0_rs2val_0x80000000+0x18>
    15e8:	6d5022ef          	jal	x5,44bc <failedtest_x5_x4>
    15ec:	000015dc          	.word	0x000015dc
    15f0:	0000a4a0          	.word	0x0000a4a0
    15f4:	00458593          	addi	x11,x11,4

# Testcase cr_rs1_rs2_edges (Test source rs1 = 0x00000000 rs2 = 0x80000001)
  RVTEST_TESTDATA_LOAD_INT(x24, x29) # load rs1: x29 = 0x00000000
    15f8:	000c2e83          	lw	x29,0(x24)
    15fc:	004c0c13          	addi	x24,x24,4
  RVTEST_TESTDATA_LOAD_INT(x24, x28) # load rs2: x28 = 0x80000001
    1600:	000c2e03          	lw	x28,0(x24)
    1604:	004c0c13          	addi	x24,x24,4

00001608 <I_or_cg_cr_rs1_rs2_edges_rs1val_0x0_rs2val_0x80000001>:
I_or_cg_cr_rs1_rs2_edges_rs1val_0x0_rs2val_0x80000001:
  or x17, x29, x28 # perform operation
    1608:	01cee8b3          	or	x17,x29,x28
  # Check if x17 contains the expected result. x11 is the signature ptr, x5 is the link ptr, x4 is a temp reg.
  RVTEST_SIGUPD(x11, x5, x4, x17, I_or_cg_cr_rs1_rs2_edges_rs1val_0x0_rs2val_0x80000001, I_or_cg_cr_rs1_rs2_edges_rs1val_0x0_rs2val_0x80000001_str)
    160c:	0005a203          	lw	x4,0(x11)
    1610:	01120863          	beq	x4,x17,1620 <I_or_cg_cr_rs1_rs2_edges_rs1val_0x0_rs2val_0x80000001+0x18>
    1614:	6a9022ef          	jal	x5,44bc <failedtest_x5_x4>
    1618:	00001608          	.word	0x00001608
    161c:	0000a4f3          	.word	0x0000a4f3
    1620:	00458593          	addi	x11,x11,4

# Testcase cr_rs1_rs2_edges (Test source rs1 = 0x00000000 rs2 = 0x7fffffff)
  RVTEST_TESTDATA_LOAD_INT(x24, x29) # load rs1: x29 = 0x00000000
    1624:	000c2e83          	lw	x29,0(x24)
    1628:	004c0c13          	addi	x24,x24,4
  RVTEST_TESTDATA_LOAD_INT(x24, x30) # load rs2: x30 = 0x7fffffff
    162c:	000c2f03          	lw	x30,0(x24)
    1630:	004c0c13          	addi	x24,x24,4

00001634 <I_or_cg_cr_rs1_rs2_edges_rs1val_0x0_rs2val_0x7fffffff>:
I_or_cg_cr_rs1_rs2_edges_rs1val_0x0_rs2val_0x7fffffff:
  or x12, x29, x30 # perform operation
    1634:	01eee633          	or	x12,x29,x30
  # Check if x12 contains the expected result. x11 is the signature ptr, x5 is the link ptr, x4 is a temp reg.
  RVTEST_SIGUPD(x11, x5, x4, x12, I_or_cg_cr_rs1_rs2_edges_rs1val_0x0_rs2val_0x7fffffff, I_or_cg_cr_rs1_rs2_edges_rs1val_0x0_rs2val_0x7fffffff_str)
    1638:	0005a203          	lw	x4,0(x11)
    163c:	00c20863          	beq	x4,x12,164c <I_or_cg_cr_rs1_rs2_edges_rs1val_0x0_rs2val_0x7fffffff+0x18>
    1640:	67d022ef          	jal	x5,44bc <failedtest_x5_x4>
    1644:	00001634          	.word	0x00001634
    1648:	0000a546          	.word	0x0000a546
    164c:	00458593          	addi	x11,x11,4

# Testcase cr_rs1_rs2_edges (Test source rs1 = 0x00000000 rs2 = 0x7ffffffe)
  RVTEST_TESTDATA_LOAD_INT(x24, x31) # load rs1: x31 = 0x00000000
    1650:	000c2f83          	lw	x31,0(x24)
    1654:	004c0c13          	addi	x24,x24,4
  RVTEST_TESTDATA_LOAD_INT(x24, x20) # load rs2: x20 = 0x7ffffffe
    1658:	000c2a03          	lw	x20,0(x24)
    165c:	004c0c13          	addi	x24,x24,4

00001660 <I_or_cg_cr_rs1_rs2_edges_rs1val_0x0_rs2val_0x7ffffffe>:
I_or_cg_cr_rs1_rs2_edges_rs1val_0x0_rs2val_0x7ffffffe:
  or x28, x31, x20 # perform operation
    1660:	014fee33          	or	x28,x31,x20
  # Check if x28 contains the expected result. x11 is the signature ptr, x5 is the link ptr, x4 is a temp reg.
  RVTEST_SIGUPD(x11, x5, x4, x28, I_or_cg_cr_rs1_rs2_edges_rs1val_0x0_rs2val_0x7ffffffe, I_or_cg_cr_rs1_rs2_edges_rs1val_0x0_rs2val_0x7ffffffe_str)
    1664:	0005a203          	lw	x4,0(x11)
    1668:	01c20863          	beq	x4,x28,1678 <I_or_cg_cr_rs1_rs2_edges_rs1val_0x0_rs2val_0x7ffffffe+0x18>
    166c:	651022ef          	jal	x5,44bc <failedtest_x5_x4>
    1670:	00001660          	.word	0x00001660
    1674:	0000a599          	.word	0x0000a599
    1678:	00458593          	addi	x11,x11,4

# Testcase cr_rs1_rs2_edges (Test source rs1 = 0x00000000 rs2 = 0xffffffff)
  RVTEST_TESTDATA_LOAD_INT(x24, x13) # load rs1: x13 = 0x00000000
    167c:	000c2683          	lw	x13,0(x24)
    1680:	004c0c13          	addi	x24,x24,4
  RVTEST_TESTDATA_LOAD_INT(x24, x22) # load rs2: x22 = 0xffffffff
    1684:	000c2b03          	lw	x22,0(x24)
    1688:	004c0c13          	addi	x24,x24,4

0000168c <I_or_cg_cr_rs1_rs2_edges_rs1val_0x0_rs2val_0xffffffff>:
I_or_cg_cr_rs1_rs2_edges_rs1val_0x0_rs2val_0xffffffff:
  or x9, x13, x22 # perform operation
    168c:	0166e4b3          	or	x9,x13,x22
  # Check if x9 contains the expected result. x11 is the signature ptr, x5 is the link ptr, x4 is a temp reg.
  RVTEST_SIGUPD(x11, x5, x4, x9, I_or_cg_cr_rs1_rs2_edges_rs1val_0x0_rs2val_0xffffffff, I_or_cg_cr_rs1_rs2_edges_rs1val_0x0_rs2val_0xffffffff_str)
    1690:	0005a203          	lw	x4,0(x11)
    1694:	00920863          	beq	x4,x9,16a4 <I_or_cg_cr_rs1_rs2_edges_rs1val_0x0_rs2val_0xffffffff+0x18>
    1698:	625022ef          	jal	x5,44bc <failedtest_x5_x4>
    169c:	0000168c          	.word	0x0000168c
    16a0:	0000a5ec          	.word	0x0000a5ec
    16a4:	00458593          	addi	x11,x11,4

# Testcase cr_rs1_rs2_edges (Test source rs1 = 0x00000000 rs2 = 0xfffffffe)
  RVTEST_TESTDATA_LOAD_INT(x24, x19) # load rs1: x19 = 0x00000000
    16a8:	000c2983          	lw	x19,0(x24)
    16ac:	004c0c13          	addi	x24,x24,4
  RVTEST_TESTDATA_LOAD_INT(x24, x1) # load rs2: x1 = 0xfffffffe
    16b0:	000c2083          	lw	x1,0(x24)
    16b4:	004c0c13          	addi	x24,x24,4

000016b8 <I_or_cg_cr_rs1_rs2_edges_rs1val_0x0_rs2val_0xfffffffe>:
I_or_cg_cr_rs1_rs2_edges_rs1val_0x0_rs2val_0xfffffffe:
  or x29, x19, x1 # perform operation
    16b8:	0019eeb3          	or	x29,x19,x1
  # Check if x29 contains the expected result. x11 is the signature ptr, x5 is the link ptr, x4 is a temp reg.
  RVTEST_SIGUPD(x11, x5, x4, x29, I_or_cg_cr_rs1_rs2_edges_rs1val_0x0_rs2val_0xfffffffe, I_or_cg_cr_rs1_rs2_edges_rs1val_0x0_rs2val_0xfffffffe_str)
    16bc:	0005a203          	lw	x4,0(x11)
    16c0:	01d20863          	beq	x4,x29,16d0 <I_or_cg_cr_rs1_rs2_edges_rs1val_0x0_rs2val_0xfffffffe+0x18>
    16c4:	5f9022ef          	jal	x5,44bc <failedtest_x5_x4>
    16c8:	000016b8          	.word	0x000016b8
    16cc:	0000a63f          	.word	0x0000a63f
    16d0:	00458593          	addi	x11,x11,4

# Testcase cr_rs1_rs2_edges (Test source rs1 = 0x00000000 rs2 = 0x5bbc8872)
  RVTEST_TESTDATA_LOAD_INT(x24, x9) # load rs1: x9 = 0x00000000
    16d4:	000c2483          	lw	x9,0(x24)
    16d8:	004c0c13          	addi	x24,x24,4
  RVTEST_TESTDATA_LOAD_INT(x24, x12) # load rs2: x12 = 0x5bbc8872
    16dc:	000c2603          	lw	x12,0(x24)
    16e0:	004c0c13          	addi	x24,x24,4

000016e4 <I_or_cg_cr_rs1_rs2_edges_rs1val_0x0_rs2val_0x5bbc8872>:
I_or_cg_cr_rs1_rs2_edges_rs1val_0x0_rs2val_0x5bbc8872:
  or x14, x9, x12 # perform operation
    16e4:	00c4e733          	or	x14,x9,x12
  # Check if x14 contains the expected result. x11 is the signature ptr, x5 is the link ptr, x4 is a temp reg.
  RVTEST_SIGUPD(x11, x5, x4, x14, I_or_cg_cr_rs1_rs2_edges_rs1val_0x0_rs2val_0x5bbc8872, I_or_cg_cr_rs1_rs2_edges_rs1val_0x0_rs2val_0x5bbc8872_str)
    16e8:	0005a203          	lw	x4,0(x11)
    16ec:	00e20863          	beq	x4,x14,16fc <I_or_cg_cr_rs1_rs2_edges_rs1val_0x0_rs2val_0x5bbc8872+0x18>
    16f0:	5cd022ef          	jal	x5,44bc <failedtest_x5_x4>
    16f4:	000016e4          	.word	0x000016e4
    16f8:	0000a692          	.word	0x0000a692
    16fc:	00458593          	addi	x11,x11,4

# Testcase cr_rs1_rs2_edges (Test source rs1 = 0x00000000 rs2 = 0xaaaaaaaa)
  RVTEST_TESTDATA_LOAD_INT(x24, x14) # load rs1: x14 = 0x00000000
    1700:	000c2703          	lw	x14,0(x24)
    1704:	004c0c13          	addi	x24,x24,4
  RVTEST_TESTDATA_LOAD_INT(x24, x23) # load rs2: x23 = 0xaaaaaaaa
    1708:	000c2b83          	lw	x23,0(x24)
    170c:	004c0c13          	addi	x24,x24,4

00001710 <I_or_cg_cr_rs1_rs2_edges_rs1val_0x0_rs2val_0xaaaaaaaa>:
I_or_cg_cr_rs1_rs2_edges_rs1val_0x0_rs2val_0xaaaaaaaa:
  or x15, x14, x23 # perform operation
    1710:	017767b3          	or	x15,x14,x23
  # Check if x15 contains the expected result. x11 is the signature ptr, x5 is the link ptr, x4 is a temp reg.
  RVTEST_SIGUPD(x11, x5, x4, x15, I_or_cg_cr_rs1_rs2_edges_rs1val_0x0_rs2val_0xaaaaaaaa, I_or_cg_cr_rs1_rs2_edges_rs1val_0x0_rs2val_0xaaaaaaaa_str)
    1714:	0005a203          	lw	x4,0(x11)
    1718:	00f20863          	beq	x4,x15,1728 <I_or_cg_cr_rs1_rs2_edges_rs1val_0x0_rs2val_0xaaaaaaaa+0x18>
    171c:	5a1022ef          	jal	x5,44bc <failedtest_x5_x4>
    1720:	00001710          	.word	0x00001710
    1724:	0000a6e5          	.word	0x0000a6e5
    1728:	00458593          	addi	x11,x11,4

# Testcase cr_rs1_rs2_edges (Test source rs1 = 0x00000000 rs2 = 0x55555555)
  RVTEST_TESTDATA_LOAD_INT(x24, x10) # load rs1: x10 = 0x00000000
    172c:	000c2503          	lw	x10,0(x24)
    1730:	004c0c13          	addi	x24,x24,4
  RVTEST_TESTDATA_LOAD_INT(x24, x26) # load rs2: x26 = 0x55555555
    1734:	000c2d03          	lw	x26,0(x24)
    1738:	004c0c13          	addi	x24,x24,4

0000173c <I_or_cg_cr_rs1_rs2_edges_rs1val_0x0_rs2val_0x55555555>:
I_or_cg_cr_rs1_rs2_edges_rs1val_0x0_rs2val_0x55555555:
  or x23, x10, x26 # perform operation
    173c:	01a56bb3          	or	x23,x10,x26
  # Check if x23 contains the expected result. x11 is the signature ptr, x5 is the link ptr, x4 is a temp reg.
  RVTEST_SIGUPD(x11, x5, x4, x23, I_or_cg_cr_rs1_rs2_edges_rs1val_0x0_rs2val_0x55555555, I_or_cg_cr_rs1_rs2_edges_rs1val_0x0_rs2val_0x55555555_str)
    1740:	0005a203          	lw	x4,0(x11)
    1744:	01720863          	beq	x4,x23,1754 <I_or_cg_cr_rs1_rs2_edges_rs1val_0x0_rs2val_0x55555555+0x18>
    1748:	575022ef          	jal	x5,44bc <failedtest_x5_x4>
    174c:	0000173c          	.word	0x0000173c
    1750:	0000a738          	.word	0x0000a738
    1754:	00458593          	addi	x11,x11,4

# Testcase cr_rs1_rs2_edges (Test source rs1 = 0x00000001 rs2 = 0x00000000)
  RVTEST_TESTDATA_LOAD_INT(x24, x16) # load rs1: x16 = 0x00000001
    1758:	000c2803          	lw	x16,0(x24)
    175c:	004c0c13          	addi	x24,x24,4
  RVTEST_TESTDATA_LOAD_INT(x24, x10) # load rs2: x10 = 0x00000000
    1760:	000c2503          	lw	x10,0(x24)
    1764:	004c0c13          	addi	x24,x24,4

00001768 <I_or_cg_cr_rs1_rs2_edges_rs1val_0x1_rs2val_0x0>:
I_or_cg_cr_rs1_rs2_edges_rs1val_0x1_rs2val_0x0:
  or x13, x16, x10 # perform operation
    1768:	00a866b3          	or	x13,x16,x10
  # Check if x13 contains the expected result. x11 is the signature ptr, x5 is the link ptr, x4 is a temp reg.
  RVTEST_SIGUPD(x11, x5, x4, x13, I_or_cg_cr_rs1_rs2_edges_rs1val_0x1_rs2val_0x0, I_or_cg_cr_rs1_rs2_edges_rs1val_0x1_rs2val_0x0_str)
    176c:	0005a203          	lw	x4,0(x11)
    1770:	00d20863          	beq	x4,x13,1780 <I_or_cg_cr_rs1_rs2_edges_rs1val_0x1_rs2val_0x0+0x18>
    1774:	549022ef          	jal	x5,44bc <failedtest_x5_x4>
    1778:	00001768          	.word	0x00001768
    177c:	0000a78b          	.word	0x0000a78b
    1780:	00458593          	addi	x11,x11,4

# Testcase cr_rs1_rs2_edges (Test source rs1 = 0x00000001 rs2 = 0x00000001)
  RVTEST_TESTDATA_LOAD_INT(x24, x17) # load rs1: x17 = 0x00000001
    1784:	000c2883          	lw	x17,0(x24)
    1788:	004c0c13          	addi	x24,x24,4
  RVTEST_TESTDATA_LOAD_INT(x24, x15) # load rs2: x15 = 0x00000001
    178c:	000c2783          	lw	x15,0(x24)
    1790:	004c0c13          	addi	x24,x24,4

00001794 <I_or_cg_cr_rs1_rs2_edges_rs1val_0x1_rs2val_0x1>:
I_or_cg_cr_rs1_rs2_edges_rs1val_0x1_rs2val_0x1:
  or x25, x17, x15 # perform operation
    1794:	00f8ecb3          	or	x25,x17,x15
  # Check if x25 contains the expected result. x11 is the signature ptr, x5 is the link ptr, x4 is a temp reg.
  RVTEST_SIGUPD(x11, x5, x4, x25, I_or_cg_cr_rs1_rs2_edges_rs1val_0x1_rs2val_0x1, I_or_cg_cr_rs1_rs2_edges_rs1val_0x1_rs2val_0x1_str)
    1798:	0005a203          	lw	x4,0(x11)
    179c:	01920863          	beq	x4,x25,17ac <I_or_cg_cr_rs1_rs2_edges_rs1val_0x1_rs2val_0x1+0x18>
    17a0:	51d022ef          	jal	x5,44bc <failedtest_x5_x4>
    17a4:	00001794          	.word	0x00001794
    17a8:	0000a7d7          	.word	0x0000a7d7
    17ac:	00458593          	addi	x11,x11,4

# Testcase cr_rs1_rs2_edges (Test source rs1 = 0x00000001 rs2 = 0x00000002)
  RVTEST_TESTDATA_LOAD_INT(x24, x19) # load rs1: x19 = 0x00000001
    17b0:	000c2983          	lw	x19,0(x24)
    17b4:	004c0c13          	addi	x24,x24,4
  RVTEST_TESTDATA_LOAD_INT(x24, x13) # load rs2: x13 = 0x00000002
    17b8:	000c2683          	lw	x13,0(x24)
    17bc:	004c0c13          	addi	x24,x24,4

000017c0 <I_or_cg_cr_rs1_rs2_edges_rs1val_0x1_rs2val_0x2>:
I_or_cg_cr_rs1_rs2_edges_rs1val_0x1_rs2val_0x2:
  or x17, x19, x13 # perform operation
    17c0:	00d9e8b3          	or	x17,x19,x13
  # Check if x17 contains the expected result. x11 is the signature ptr, x5 is the link ptr, x4 is a temp reg.
  RVTEST_SIGUPD(x11, x5, x4, x17, I_or_cg_cr_rs1_rs2_edges_rs1val_0x1_rs2val_0x2, I_or_cg_cr_rs1_rs2_edges_rs1val_0x1_rs2val_0x2_str)
    17c4:	0005a203          	lw	x4,0(x11)
    17c8:	01120863          	beq	x4,x17,17d8 <I_or_cg_cr_rs1_rs2_edges_rs1val_0x1_rs2val_0x2+0x18>
    17cc:	4f1022ef          	jal	x5,44bc <failedtest_x5_x4>
    17d0:	000017c0          	.word	0x000017c0
    17d4:	0000a823          	.word	0x0000a823
    17d8:	00458593          	addi	x11,x11,4

# Testcase cr_rs1_rs2_edges (Test source rs1 = 0x00000001 rs2 = 0x80000000)
  RVTEST_TESTDATA_LOAD_INT(x24, x20) # load rs1: x20 = 0x00000001
    17dc:	000c2a03          	lw	x20,0(x24)
    17e0:	004c0c13          	addi	x24,x24,4
  RVTEST_TESTDATA_LOAD_INT(x24, x26) # load rs2: x26 = 0x80000000
    17e4:	000c2d03          	lw	x26,0(x24)
    17e8:	004c0c13          	addi	x24,x24,4

000017ec <I_or_cg_cr_rs1_rs2_edges_rs1val_0x1_rs2val_0x80000000>:
I_or_cg_cr_rs1_rs2_edges_rs1val_0x1_rs2val_0x80000000:
  or x28, x20, x26 # perform operation
    17ec:	01aa6e33          	or	x28,x20,x26
  # Check if x28 contains the expected result. x11 is the signature ptr, x5 is the link ptr, x4 is a temp reg.
  RVTEST_SIGUPD(x11, x5, x4, x28, I_or_cg_cr_rs1_rs2_edges_rs1val_0x1_rs2val_0x80000000, I_or_cg_cr_rs1_rs2_edges_rs1val_0x1_rs2val_0x80000000_str)
    17f0:	0005a203          	lw	x4,0(x11)
    17f4:	01c20863          	beq	x4,x28,1804 <I_or_cg_cr_rs1_rs2_edges_rs1val_0x1_rs2val_0x80000000+0x18>
    17f8:	4c5022ef          	jal	x5,44bc <failedtest_x5_x4>
    17fc:	000017ec          	.word	0x000017ec
    1800:	0000a86f          	.word	0x0000a86f
    1804:	00458593          	addi	x11,x11,4

# Testcase cr_rs1_rs2_edges (Test source rs1 = 0x00000001 rs2 = 0x80000001)
  RVTEST_TESTDATA_LOAD_INT(x24, x12) # load rs1: x12 = 0x00000001
    1808:	000c2603          	lw	x12,0(x24)
    180c:	004c0c13          	addi	x24,x24,4
  RVTEST_TESTDATA_LOAD_INT(x24, x9) # load rs2: x9 = 0x80000001
    1810:	000c2483          	lw	x9,0(x24)
    1814:	004c0c13          	addi	x24,x24,4

00001818 <I_or_cg_cr_rs1_rs2_edges_rs1val_0x1_rs2val_0x80000001>:
I_or_cg_cr_rs1_rs2_edges_rs1val_0x1_rs2val_0x80000001:
  or x7, x12, x9 # perform operation
    1818:	009663b3          	or	x7,x12,x9
  # Check if x7 contains the expected result. x11 is the signature ptr, x5 is the link ptr, x4 is a temp reg.
  RVTEST_SIGUPD(x11, x5, x4, x7, I_or_cg_cr_rs1_rs2_edges_rs1val_0x1_rs2val_0x80000001, I_or_cg_cr_rs1_rs2_edges_rs1val_0x1_rs2val_0x80000001_str)
    181c:	0005a203          	lw	x4,0(x11)
    1820:	00720863          	beq	x4,x7,1830 <I_or_cg_cr_rs1_rs2_edges_rs1val_0x1_rs2val_0x80000001+0x18>
    1824:	499022ef          	jal	x5,44bc <failedtest_x5_x4>
    1828:	00001818          	.word	0x00001818
    182c:	0000a8c2          	.word	0x0000a8c2
    1830:	00458593          	addi	x11,x11,4

# Testcase cr_rs1_rs2_edges (Test source rs1 = 0x00000001 rs2 = 0x7fffffff)
  RVTEST_TESTDATA_LOAD_INT(x24, x9) # load rs1: x9 = 0x00000001
    1834:	000c2483          	lw	x9,0(x24)
    1838:	004c0c13          	addi	x24,x24,4
  RVTEST_TESTDATA_LOAD_INT(x24, x13) # load rs2: x13 = 0x7fffffff
    183c:	000c2683          	lw	x13,0(x24)
    1840:	004c0c13          	addi	x24,x24,4

00001844 <I_or_cg_cr_rs1_rs2_edges_rs1val_0x1_rs2val_0x7fffffff>:
I_or_cg_cr_rs1_rs2_edges_rs1val_0x1_rs2val_0x7fffffff:
  or x2, x9, x13 # perform operation
    1844:	00d4e133          	or	x2,x9,x13
  # Check if x2 contains the expected result. x11 is the signature ptr, x5 is the link ptr, x4 is a temp reg.
  RVTEST_SIGUPD(x11, x5, x4, x2, I_or_cg_cr_rs1_rs2_edges_rs1val_0x1_rs2val_0x7fffffff, I_or_cg_cr_rs1_rs2_edges_rs1val_0x1_rs2val_0x7fffffff_str)
    1848:	0005a203          	lw	x4,0(x11)
    184c:	00220863          	beq	x4,x2,185c <I_or_cg_cr_rs1_rs2_edges_rs1val_0x1_rs2val_0x7fffffff+0x18>
    1850:	46d022ef          	jal	x5,44bc <failedtest_x5_x4>
    1854:	00001844          	.word	0x00001844
    1858:	0000a915          	.word	0x0000a915
    185c:	00458593          	addi	x11,x11,4

# Testcase cr_rs1_rs2_edges (Test source rs1 = 0x00000001 rs2 = 0x7ffffffe)
  RVTEST_TESTDATA_LOAD_INT(x24, x8) # load rs1: x8 = 0x00000001
    1860:	000c2403          	lw	x8,0(x24)
    1864:	004c0c13          	addi	x24,x24,4
  RVTEST_TESTDATA_LOAD_INT(x24, x17) # load rs2: x17 = 0x7ffffffe
    1868:	000c2883          	lw	x17,0(x24)
    186c:	004c0c13          	addi	x24,x24,4

00001870 <I_or_cg_cr_rs1_rs2_edges_rs1val_0x1_rs2val_0x7ffffffe>:
I_or_cg_cr_rs1_rs2_edges_rs1val_0x1_rs2val_0x7ffffffe:
  or x27, x8, x17 # perform operation
    1870:	01146db3          	or	x27,x8,x17
  # Check if x27 contains the expected result. x11 is the signature ptr, x5 is the link ptr, x4 is a temp reg.
  RVTEST_SIGUPD(x11, x5, x4, x27, I_or_cg_cr_rs1_rs2_edges_rs1val_0x1_rs2val_0x7ffffffe, I_or_cg_cr_rs1_rs2_edges_rs1val_0x1_rs2val_0x7ffffffe_str)
    1874:	0005a203          	lw	x4,0(x11)
    1878:	01b20863          	beq	x4,x27,1888 <I_or_cg_cr_rs1_rs2_edges_rs1val_0x1_rs2val_0x7ffffffe+0x18>
    187c:	441022ef          	jal	x5,44bc <failedtest_x5_x4>
    1880:	00001870          	.word	0x00001870
    1884:	0000a968          	.word	0x0000a968
    1888:	00458593          	addi	x11,x11,4

# Testcase cr_rs1_rs2_edges (Test source rs1 = 0x00000001 rs2 = 0xffffffff)
  RVTEST_TESTDATA_LOAD_INT(x24, x18) # load rs1: x18 = 0x00000001
    188c:	000c2903          	lw	x18,0(x24)
    1890:	004c0c13          	addi	x24,x24,4
  RVTEST_TESTDATA_LOAD_INT(x24, x23) # load rs2: x23 = 0xffffffff
    1894:	000c2b83          	lw	x23,0(x24)
    1898:	004c0c13          	addi	x24,x24,4

0000189c <I_or_cg_cr_rs1_rs2_edges_rs1val_0x1_rs2val_0xffffffff>:
I_or_cg_cr_rs1_rs2_edges_rs1val_0x1_rs2val_0xffffffff:
  or x3, x18, x23 # perform operation
    189c:	017961b3          	or	x3,x18,x23
  # Check if x3 contains the expected result. x11 is the signature ptr, x5 is the link ptr, x4 is a temp reg.
  RVTEST_SIGUPD(x11, x5, x4, x3, I_or_cg_cr_rs1_rs2_edges_rs1val_0x1_rs2val_0xffffffff, I_or_cg_cr_rs1_rs2_edges_rs1val_0x1_rs2val_0xffffffff_str)
    18a0:	0005a203          	lw	x4,0(x11)
    18a4:	00320863          	beq	x4,x3,18b4 <I_or_cg_cr_rs1_rs2_edges_rs1val_0x1_rs2val_0xffffffff+0x18>
    18a8:	415022ef          	jal	x5,44bc <failedtest_x5_x4>
    18ac:	0000189c          	.word	0x0000189c
    18b0:	0000a9bb          	.word	0x0000a9bb
    18b4:	00458593          	addi	x11,x11,4

# Testcase cr_rs1_rs2_edges (Test source rs1 = 0x00000001 rs2 = 0xfffffffe)
  RVTEST_TESTDATA_LOAD_INT(x24, x25) # load rs1: x25 = 0x00000001
    18b8:	000c2c83          	lw	x25,0(x24)
    18bc:	004c0c13          	addi	x24,x24,4
  RVTEST_TESTDATA_LOAD_INT(x24, x10) # load rs2: x10 = 0xfffffffe
    18c0:	000c2503          	lw	x10,0(x24)
    18c4:	004c0c13          	addi	x24,x24,4

000018c8 <I_or_cg_cr_rs1_rs2_edges_rs1val_0x1_rs2val_0xfffffffe>:
I_or_cg_cr_rs1_rs2_edges_rs1val_0x1_rs2val_0xfffffffe:
  or x28, x25, x10 # perform operation
    18c8:	00acee33          	or	x28,x25,x10
  # Check if x28 contains the expected result. x11 is the signature ptr, x5 is the link ptr, x4 is a temp reg.
  RVTEST_SIGUPD(x11, x5, x4, x28, I_or_cg_cr_rs1_rs2_edges_rs1val_0x1_rs2val_0xfffffffe, I_or_cg_cr_rs1_rs2_edges_rs1val_0x1_rs2val_0xfffffffe_str)
    18cc:	0005a203          	lw	x4,0(x11)
    18d0:	01c20863          	beq	x4,x28,18e0 <I_or_cg_cr_rs1_rs2_edges_rs1val_0x1_rs2val_0xfffffffe+0x18>
    18d4:	3e9022ef          	jal	x5,44bc <failedtest_x5_x4>
    18d8:	000018c8          	.word	0x000018c8
    18dc:	0000aa0e          	.word	0x0000aa0e
    18e0:	00458593          	addi	x11,x11,4

# Testcase cr_rs1_rs2_edges (Test source rs1 = 0x00000001 rs2 = 0x5bbc8872)
  RVTEST_TESTDATA_LOAD_INT(x24, x16) # load rs1: x16 = 0x00000001
    18e4:	000c2803          	lw	x16,0(x24)
    18e8:	004c0c13          	addi	x24,x24,4
  RVTEST_TESTDATA_LOAD_INT(x24, x15) # load rs2: x15 = 0x5bbc8872
    18ec:	000c2783          	lw	x15,0(x24)
    18f0:	004c0c13          	addi	x24,x24,4

000018f4 <I_or_cg_cr_rs1_rs2_edges_rs1val_0x1_rs2val_0x5bbc8872>:
I_or_cg_cr_rs1_rs2_edges_rs1val_0x1_rs2val_0x5bbc8872:
  or x8, x16, x15 # perform operation
    18f4:	00f86433          	or	x8,x16,x15
  # Check if x8 contains the expected result. x11 is the signature ptr, x5 is the link ptr, x4 is a temp reg.
  RVTEST_SIGUPD(x11, x5, x4, x8, I_or_cg_cr_rs1_rs2_edges_rs1val_0x1_rs2val_0x5bbc8872, I_or_cg_cr_rs1_rs2_edges_rs1val_0x1_rs2val_0x5bbc8872_str)
    18f8:	0005a203          	lw	x4,0(x11)
    18fc:	00820863          	beq	x4,x8,190c <I_or_cg_cr_rs1_rs2_edges_rs1val_0x1_rs2val_0x5bbc8872+0x18>
    1900:	3bd022ef          	jal	x5,44bc <failedtest_x5_x4>
    1904:	000018f4          	.word	0x000018f4
    1908:	0000aa61          	.word	0x0000aa61
    190c:	00458593          	addi	x11,x11,4

# Testcase cr_rs1_rs2_edges (Test source rs1 = 0x00000001 rs2 = 0xaaaaaaaa)
  RVTEST_TESTDATA_LOAD_INT(x24, x16) # load rs1: x16 = 0x00000001
    1910:	000c2803          	lw	x16,0(x24)
    1914:	004c0c13          	addi	x24,x24,4
  RVTEST_TESTDATA_LOAD_INT(x24, x8) # load rs2: x8 = 0xaaaaaaaa
    1918:	000c2403          	lw	x8,0(x24)
    191c:	004c0c13          	addi	x24,x24,4

00001920 <I_or_cg_cr_rs1_rs2_edges_rs1val_0x1_rs2val_0xaaaaaaaa>:
I_or_cg_cr_rs1_rs2_edges_rs1val_0x1_rs2val_0xaaaaaaaa:
  or x25, x16, x8 # perform operation
    1920:	00886cb3          	or	x25,x16,x8
  # Check if x25 contains the expected result. x11 is the signature ptr, x5 is the link ptr, x4 is a temp reg.
  RVTEST_SIGUPD(x11, x5, x4, x25, I_or_cg_cr_rs1_rs2_edges_rs1val_0x1_rs2val_0xaaaaaaaa, I_or_cg_cr_rs1_rs2_edges_rs1val_0x1_rs2val_0xaaaaaaaa_str)
    1924:	0005a203          	lw	x4,0(x11)
    1928:	01920863          	beq	x4,x25,1938 <I_or_cg_cr_rs1_rs2_edges_rs1val_0x1_rs2val_0xaaaaaaaa+0x18>
    192c:	391022ef          	jal	x5,44bc <failedtest_x5_x4>
    1930:	00001920          	.word	0x00001920
    1934:	0000aab4          	.word	0x0000aab4
    1938:	00458593          	addi	x11,x11,4

# Testcase cr_rs1_rs2_edges (Test source rs1 = 0x00000001 rs2 = 0x55555555)
  RVTEST_TESTDATA_LOAD_INT(x24, x17) # load rs1: x17 = 0x00000001
    193c:	000c2883          	lw	x17,0(x24)
    1940:	004c0c13          	addi	x24,x24,4
  RVTEST_TESTDATA_LOAD_INT(x24, x13) # load rs2: x13 = 0x55555555
    1944:	000c2683          	lw	x13,0(x24)
    1948:	004c0c13          	addi	x24,x24,4

0000194c <I_or_cg_cr_rs1_rs2_edges_rs1val_0x1_rs2val_0x55555555>:
I_or_cg_cr_rs1_rs2_edges_rs1val_0x1_rs2val_0x55555555:
  or x20, x17, x13 # perform operation
    194c:	00d8ea33          	or	x20,x17,x13
  # Check if x20 contains the expected result. x11 is the signature ptr, x5 is the link ptr, x4 is a temp reg.
  RVTEST_SIGUPD(x11, x5, x4, x20, I_or_cg_cr_rs1_rs2_edges_rs1val_0x1_rs2val_0x55555555, I_or_cg_cr_rs1_rs2_edges_rs1val_0x1_rs2val_0x55555555_str)
    1950:	0005a203          	lw	x4,0(x11)
    1954:	01420863          	beq	x4,x20,1964 <I_or_cg_cr_rs1_rs2_edges_rs1val_0x1_rs2val_0x55555555+0x18>
    1958:	365022ef          	jal	x5,44bc <failedtest_x5_x4>
    195c:	0000194c          	.word	0x0000194c
    1960:	0000ab07          	.word	0x0000ab07
    1964:	00458593          	addi	x11,x11,4

# Testcase cr_rs1_rs2_edges (Test source rs1 = 0x00000002 rs2 = 0x00000000)
  RVTEST_TESTDATA_LOAD_INT(x24, x18) # load rs1: x18 = 0x00000002
    1968:	000c2903          	lw	x18,0(x24)
    196c:	004c0c13          	addi	x24,x24,4
  RVTEST_TESTDATA_LOAD_INT(x24, x2) # load rs2: x2 = 0x00000000
    1970:	000c2103          	lw	x2,0(x24)
    1974:	004c0c13          	addi	x24,x24,4

00001978 <I_or_cg_cr_rs1_rs2_edges_rs1val_0x2_rs2val_0x0>:
I_or_cg_cr_rs1_rs2_edges_rs1val_0x2_rs2val_0x0:
  or x17, x18, x2 # perform operation
    1978:	002968b3          	or	x17,x18,x2
  # Check if x17 contains the expected result. x11 is the signature ptr, x5 is the link ptr, x4 is a temp reg.
  RVTEST_SIGUPD(x11, x5, x4, x17, I_or_cg_cr_rs1_rs2_edges_rs1val_0x2_rs2val_0x0, I_or_cg_cr_rs1_rs2_edges_rs1val_0x2_rs2val_0x0_str)
    197c:	0005a203          	lw	x4,0(x11)
    1980:	01120863          	beq	x4,x17,1990 <I_or_cg_cr_rs1_rs2_edges_rs1val_0x2_rs2val_0x0+0x18>
    1984:	339022ef          	jal	x5,44bc <failedtest_x5_x4>
    1988:	00001978          	.word	0x00001978
    198c:	0000ab5a          	.word	0x0000ab5a
    1990:	00458593          	addi	x11,x11,4

# Testcase cr_rs1_rs2_edges (Test source rs1 = 0x00000002 rs2 = 0x00000001)
  RVTEST_TESTDATA_LOAD_INT(x24, x20) # load rs1: x20 = 0x00000002
    1994:	000c2a03          	lw	x20,0(x24)
    1998:	004c0c13          	addi	x24,x24,4
  RVTEST_TESTDATA_LOAD_INT(x24, x14) # load rs2: x14 = 0x00000001
    199c:	000c2703          	lw	x14,0(x24)
    19a0:	004c0c13          	addi	x24,x24,4

000019a4 <I_or_cg_cr_rs1_rs2_edges_rs1val_0x2_rs2val_0x1>:
I_or_cg_cr_rs1_rs2_edges_rs1val_0x2_rs2val_0x1:
  or x18, x20, x14 # perform operation
    19a4:	00ea6933          	or	x18,x20,x14
  # Check if x18 contains the expected result. x11 is the signature ptr, x5 is the link ptr, x4 is a temp reg.
  RVTEST_SIGUPD(x11, x5, x4, x18, I_or_cg_cr_rs1_rs2_edges_rs1val_0x2_rs2val_0x1, I_or_cg_cr_rs1_rs2_edges_rs1val_0x2_rs2val_0x1_str)
    19a8:	0005a203          	lw	x4,0(x11)
    19ac:	01220863          	beq	x4,x18,19bc <I_or_cg_cr_rs1_rs2_edges_rs1val_0x2_rs2val_0x1+0x18>
    19b0:	30d022ef          	jal	x5,44bc <failedtest_x5_x4>
    19b4:	000019a4          	.word	0x000019a4
    19b8:	0000aba6          	.word	0x0000aba6
    19bc:	00458593          	addi	x11,x11,4

# Testcase cr_rs1_rs2_edges (Test source rs1 = 0x00000002 rs2 = 0x00000002)
  RVTEST_TESTDATA_LOAD_INT(x24, x19) # load rs1: x19 = 0x00000002
    19c0:	000c2983          	lw	x19,0(x24)
    19c4:	004c0c13          	addi	x24,x24,4
  RVTEST_TESTDATA_LOAD_INT(x24, x20) # load rs2: x20 = 0x00000002
    19c8:	000c2a03          	lw	x20,0(x24)
    19cc:	004c0c13          	addi	x24,x24,4

000019d0 <I_or_cg_cr_rs1_rs2_edges_rs1val_0x2_rs2val_0x2>:
I_or_cg_cr_rs1_rs2_edges_rs1val_0x2_rs2val_0x2:
  or x28, x19, x20 # perform operation
    19d0:	0149ee33          	or	x28,x19,x20
  # Check if x28 contains the expected result. x11 is the signature ptr, x5 is the link ptr, x4 is a temp reg.
  RVTEST_SIGUPD(x11, x5, x4, x28, I_or_cg_cr_rs1_rs2_edges_rs1val_0x2_rs2val_0x2, I_or_cg_cr_rs1_rs2_edges_rs1val_0x2_rs2val_0x2_str)
    19d4:	0005a203          	lw	x4,0(x11)
    19d8:	01c20863          	beq	x4,x28,19e8 <I_or_cg_cr_rs1_rs2_edges_rs1val_0x2_rs2val_0x2+0x18>
    19dc:	2e1022ef          	jal	x5,44bc <failedtest_x5_x4>
    19e0:	000019d0          	.word	0x000019d0
    19e4:	0000abf2          	.word	0x0000abf2
    19e8:	00458593          	addi	x11,x11,4

# Testcase cr_rs1_rs2_edges (Test source rs1 = 0x00000002 rs2 = 0x80000000)
  RVTEST_TESTDATA_LOAD_INT(x24, x13) # load rs1: x13 = 0x00000002
    19ec:	000c2683          	lw	x13,0(x24)
    19f0:	004c0c13          	addi	x24,x24,4
  RVTEST_TESTDATA_LOAD_INT(x24, x2) # load rs2: x2 = 0x80000000
    19f4:	000c2103          	lw	x2,0(x24)
    19f8:	004c0c13          	addi	x24,x24,4

000019fc <I_or_cg_cr_rs1_rs2_edges_rs1val_0x2_rs2val_0x80000000>:
I_or_cg_cr_rs1_rs2_edges_rs1val_0x2_rs2val_0x80000000:
  or x12, x13, x2 # perform operation
    19fc:	0026e633          	or	x12,x13,x2
  # Check if x12 contains the expected result. x11 is the signature ptr, x5 is the link ptr, x4 is a temp reg.
  RVTEST_SIGUPD(x11, x5, x4, x12, I_or_cg_cr_rs1_rs2_edges_rs1val_0x2_rs2val_0x80000000, I_or_cg_cr_rs1_rs2_edges_rs1val_0x2_rs2val_0x80000000_str)
    1a00:	0005a203          	lw	x4,0(x11)
    1a04:	00c20863          	beq	x4,x12,1a14 <I_or_cg_cr_rs1_rs2_edges_rs1val_0x2_rs2val_0x80000000+0x18>
    1a08:	2b5022ef          	jal	x5,44bc <failedtest_x5_x4>
    1a0c:	000019fc          	.word	0x000019fc
    1a10:	0000ac3e          	.word	0x0000ac3e
    1a14:	00458593          	addi	x11,x11,4

# Testcase cr_rs1_rs2_edges (Test source rs1 = 0x00000002 rs2 = 0x80000001)
  RVTEST_TESTDATA_LOAD_INT(x24, x9) # load rs1: x9 = 0x00000002
    1a18:	000c2483          	lw	x9,0(x24)
    1a1c:	004c0c13          	addi	x24,x24,4
  RVTEST_TESTDATA_LOAD_INT(x24, x22) # load rs2: x22 = 0x80000001
    1a20:	000c2b03          	lw	x22,0(x24)
    1a24:	004c0c13          	addi	x24,x24,4

00001a28 <I_or_cg_cr_rs1_rs2_edges_rs1val_0x2_rs2val_0x80000001>:
I_or_cg_cr_rs1_rs2_edges_rs1val_0x2_rs2val_0x80000001:
  or x19, x9, x22 # perform operation
    1a28:	0164e9b3          	or	x19,x9,x22
  # Check if x19 contains the expected result. x11 is the signature ptr, x5 is the link ptr, x4 is a temp reg.
  RVTEST_SIGUPD(x11, x5, x4, x19, I_or_cg_cr_rs1_rs2_edges_rs1val_0x2_rs2val_0x80000001, I_or_cg_cr_rs1_rs2_edges_rs1val_0x2_rs2val_0x80000001_str)
    1a2c:	0005a203          	lw	x4,0(x11)
    1a30:	01320863          	beq	x4,x19,1a40 <I_or_cg_cr_rs1_rs2_edges_rs1val_0x2_rs2val_0x80000001+0x18>
    1a34:	289022ef          	jal	x5,44bc <failedtest_x5_x4>
    1a38:	00001a28          	.word	0x00001a28
    1a3c:	0000ac91          	.word	0x0000ac91
    1a40:	00458593          	addi	x11,x11,4

# Testcase cr_rs1_rs2_edges (Test source rs1 = 0x00000002 rs2 = 0x7fffffff)
  RVTEST_TESTDATA_LOAD_INT(x24, x10) # load rs1: x10 = 0x00000002
    1a44:	000c2503          	lw	x10,0(x24)
    1a48:	004c0c13          	addi	x24,x24,4
  RVTEST_TESTDATA_LOAD_INT(x24, x12) # load rs2: x12 = 0x7fffffff
    1a4c:	000c2603          	lw	x12,0(x24)
    1a50:	004c0c13          	addi	x24,x24,4

00001a54 <I_or_cg_cr_rs1_rs2_edges_rs1val_0x2_rs2val_0x7fffffff>:
I_or_cg_cr_rs1_rs2_edges_rs1val_0x2_rs2val_0x7fffffff:
  or x18, x10, x12 # perform operation
    1a54:	00c56933          	or	x18,x10,x12
  # Check if x18 contains the expected result. x11 is the signature ptr, x5 is the link ptr, x4 is a temp reg.
  RVTEST_SIGUPD(x11, x5, x4, x18, I_or_cg_cr_rs1_rs2_edges_rs1val_0x2_rs2val_0x7fffffff, I_or_cg_cr_rs1_rs2_edges_rs1val_0x2_rs2val_0x7fffffff_str)
    1a58:	0005a203          	lw	x4,0(x11)
    1a5c:	01220863          	beq	x4,x18,1a6c <I_or_cg_cr_rs1_rs2_edges_rs1val_0x2_rs2val_0x7fffffff+0x18>
    1a60:	25d022ef          	jal	x5,44bc <failedtest_x5_x4>
    1a64:	00001a54          	.word	0x00001a54
    1a68:	0000ace4          	.word	0x0000ace4
    1a6c:	00458593          	addi	x11,x11,4

# Testcase cr_rs1_rs2_edges (Test source rs1 = 0x00000002 rs2 = 0x7ffffffe)
  RVTEST_TESTDATA_LOAD_INT(x24, x14) # load rs1: x14 = 0x00000002
    1a70:	000c2703          	lw	x14,0(x24)
    1a74:	004c0c13          	addi	x24,x24,4
  RVTEST_TESTDATA_LOAD_INT(x24, x17) # load rs2: x17 = 0x7ffffffe
    1a78:	000c2883          	lw	x17,0(x24)
    1a7c:	004c0c13          	addi	x24,x24,4

00001a80 <I_or_cg_cr_rs1_rs2_edges_rs1val_0x2_rs2val_0x7ffffffe>:
I_or_cg_cr_rs1_rs2_edges_rs1val_0x2_rs2val_0x7ffffffe:
  or x7, x14, x17 # perform operation
    1a80:	011763b3          	or	x7,x14,x17
  # Check if x7 contains the expected result. x11 is the signature ptr, x5 is the link ptr, x4 is a temp reg.
  RVTEST_SIGUPD(x11, x5, x4, x7, I_or_cg_cr_rs1_rs2_edges_rs1val_0x2_rs2val_0x7ffffffe, I_or_cg_cr_rs1_rs2_edges_rs1val_0x2_rs2val_0x7ffffffe_str)
    1a84:	0005a203          	lw	x4,0(x11)
    1a88:	00720863          	beq	x4,x7,1a98 <I_or_cg_cr_rs1_rs2_edges_rs1val_0x2_rs2val_0x7ffffffe+0x18>
    1a8c:	231022ef          	jal	x5,44bc <failedtest_x5_x4>
    1a90:	00001a80          	.word	0x00001a80
    1a94:	0000ad37          	.word	0x0000ad37
    1a98:	00458593          	addi	x11,x11,4

# Testcase cr_rs1_rs2_edges (Test source rs1 = 0x00000002 rs2 = 0xffffffff)
  RVTEST_TESTDATA_LOAD_INT(x24, x26) # load rs1: x26 = 0x00000002
    1a9c:	000c2d03          	lw	x26,0(x24)
    1aa0:	004c0c13          	addi	x24,x24,4
  RVTEST_TESTDATA_LOAD_INT(x24, x1) # load rs2: x1 = 0xffffffff
    1aa4:	000c2083          	lw	x1,0(x24)
    1aa8:	004c0c13          	addi	x24,x24,4

00001aac <I_or_cg_cr_rs1_rs2_edges_rs1val_0x2_rs2val_0xffffffff>:
I_or_cg_cr_rs1_rs2_edges_rs1val_0x2_rs2val_0xffffffff:
  or x30, x26, x1 # perform operation
    1aac:	001d6f33          	or	x30,x26,x1
  # Check if x30 contains the expected result. x11 is the signature ptr, x5 is the link ptr, x4 is a temp reg.
  RVTEST_SIGUPD(x11, x5, x4, x30, I_or_cg_cr_rs1_rs2_edges_rs1val_0x2_rs2val_0xffffffff, I_or_cg_cr_rs1_rs2_edges_rs1val_0x2_rs2val_0xffffffff_str)
    1ab0:	0005a203          	lw	x4,0(x11)
    1ab4:	01e20863          	beq	x4,x30,1ac4 <I_or_cg_cr_rs1_rs2_edges_rs1val_0x2_rs2val_0xffffffff+0x18>
    1ab8:	205022ef          	jal	x5,44bc <failedtest_x5_x4>
    1abc:	00001aac          	.word	0x00001aac
    1ac0:	0000ad8a          	.word	0x0000ad8a
    1ac4:	00458593          	addi	x11,x11,4

# Testcase cr_rs1_rs2_edges (Test source rs1 = 0x00000002 rs2 = 0xfffffffe)
  RVTEST_TESTDATA_LOAD_INT(x24, x20) # load rs1: x20 = 0x00000002
    1ac8:	000c2a03          	lw	x20,0(x24)
    1acc:	004c0c13          	addi	x24,x24,4
  RVTEST_TESTDATA_LOAD_INT(x24, x22) # load rs2: x22 = 0xfffffffe
    1ad0:	000c2b03          	lw	x22,0(x24)
    1ad4:	004c0c13          	addi	x24,x24,4

00001ad8 <I_or_cg_cr_rs1_rs2_edges_rs1val_0x2_rs2val_0xfffffffe>:
I_or_cg_cr_rs1_rs2_edges_rs1val_0x2_rs2val_0xfffffffe:
  or x9, x20, x22 # perform operation
    1ad8:	016a64b3          	or	x9,x20,x22
  # Check if x9 contains the expected result. x11 is the signature ptr, x5 is the link ptr, x4 is a temp reg.
  RVTEST_SIGUPD(x11, x5, x4, x9, I_or_cg_cr_rs1_rs2_edges_rs1val_0x2_rs2val_0xfffffffe, I_or_cg_cr_rs1_rs2_edges_rs1val_0x2_rs2val_0xfffffffe_str)
    1adc:	0005a203          	lw	x4,0(x11)
    1ae0:	00920863          	beq	x4,x9,1af0 <I_or_cg_cr_rs1_rs2_edges_rs1val_0x2_rs2val_0xfffffffe+0x18>
    1ae4:	1d9022ef          	jal	x5,44bc <failedtest_x5_x4>
    1ae8:	00001ad8          	.word	0x00001ad8
    1aec:	0000addd          	.word	0x0000addd
    1af0:	00458593          	addi	x11,x11,4

# Testcase cr_rs1_rs2_edges (Test source rs1 = 0x00000002 rs2 = 0x5bbc8872)
  RVTEST_TESTDATA_LOAD_INT(x24, x10) # load rs1: x10 = 0x00000002
    1af4:	000c2503          	lw	x10,0(x24)
    1af8:	004c0c13          	addi	x24,x24,4
  RVTEST_TESTDATA_LOAD_INT(x24, x28) # load rs2: x28 = 0x5bbc8872
    1afc:	000c2e03          	lw	x28,0(x24)
    1b00:	004c0c13          	addi	x24,x24,4

00001b04 <I_or_cg_cr_rs1_rs2_edges_rs1val_0x2_rs2val_0x5bbc8872>:
I_or_cg_cr_rs1_rs2_edges_rs1val_0x2_rs2val_0x5bbc8872:
  or x30, x10, x28 # perform operation
    1b04:	01c56f33          	or	x30,x10,x28
  # Check if x30 contains the expected result. x11 is the signature ptr, x5 is the link ptr, x4 is a temp reg.
  RVTEST_SIGUPD(x11, x5, x4, x30, I_or_cg_cr_rs1_rs2_edges_rs1val_0x2_rs2val_0x5bbc8872, I_or_cg_cr_rs1_rs2_edges_rs1val_0x2_rs2val_0x5bbc8872_str)
    1b08:	0005a203          	lw	x4,0(x11)
    1b0c:	01e20863          	beq	x4,x30,1b1c <I_or_cg_cr_rs1_rs2_edges_rs1val_0x2_rs2val_0x5bbc8872+0x18>
    1b10:	1ad022ef          	jal	x5,44bc <failedtest_x5_x4>
    1b14:	00001b04          	.word	0x00001b04
    1b18:	0000ae30          	.word	0x0000ae30
    1b1c:	00458593          	addi	x11,x11,4

# Testcase cr_rs1_rs2_edges (Test source rs1 = 0x00000002 rs2 = 0xaaaaaaaa)
  RVTEST_TESTDATA_LOAD_INT(x24, x15) # load rs1: x15 = 0x00000002
    1b20:	000c2783          	lw	x15,0(x24)
    1b24:	004c0c13          	addi	x24,x24,4
  RVTEST_TESTDATA_LOAD_INT(x24, x22) # load rs2: x22 = 0xaaaaaaaa
    1b28:	000c2b03          	lw	x22,0(x24)
    1b2c:	004c0c13          	addi	x24,x24,4

00001b30 <I_or_cg_cr_rs1_rs2_edges_rs1val_0x2_rs2val_0xaaaaaaaa>:
I_or_cg_cr_rs1_rs2_edges_rs1val_0x2_rs2val_0xaaaaaaaa:
  or x10, x15, x22 # perform operation
    1b30:	0167e533          	or	x10,x15,x22
  # Check if x10 contains the expected result. x11 is the signature ptr, x5 is the link ptr, x4 is a temp reg.
  RVTEST_SIGUPD(x11, x5, x4, x10, I_or_cg_cr_rs1_rs2_edges_rs1val_0x2_rs2val_0xaaaaaaaa, I_or_cg_cr_rs1_rs2_edges_rs1val_0x2_rs2val_0xaaaaaaaa_str)
    1b34:	0005a203          	lw	x4,0(x11)
    1b38:	00a20863          	beq	x4,x10,1b48 <I_or_cg_cr_rs1_rs2_edges_rs1val_0x2_rs2val_0xaaaaaaaa+0x18>
    1b3c:	181022ef          	jal	x5,44bc <failedtest_x5_x4>
    1b40:	00001b30          	.word	0x00001b30
    1b44:	0000ae83          	.word	0x0000ae83
    1b48:	00458593          	addi	x11,x11,4

# Testcase cr_rs1_rs2_edges (Test source rs1 = 0x00000002 rs2 = 0x55555555)
  RVTEST_TESTDATA_LOAD_INT(x24, x29) # load rs1: x29 = 0x00000002
    1b4c:	000c2e83          	lw	x29,0(x24)
    1b50:	004c0c13          	addi	x24,x24,4
  RVTEST_TESTDATA_LOAD_INT(x24, x15) # load rs2: x15 = 0x55555555
    1b54:	000c2783          	lw	x15,0(x24)
    1b58:	004c0c13          	addi	x24,x24,4

00001b5c <I_or_cg_cr_rs1_rs2_edges_rs1val_0x2_rs2val_0x55555555>:
I_or_cg_cr_rs1_rs2_edges_rs1val_0x2_rs2val_0x55555555:
  or x28, x29, x15 # perform operation
    1b5c:	00feee33          	or	x28,x29,x15
  # Check if x28 contains the expected result. x11 is the signature ptr, x5 is the link ptr, x4 is a temp reg.
  RVTEST_SIGUPD(x11, x5, x4, x28, I_or_cg_cr_rs1_rs2_edges_rs1val_0x2_rs2val_0x55555555, I_or_cg_cr_rs1_rs2_edges_rs1val_0x2_rs2val_0x55555555_str)
    1b60:	0005a203          	lw	x4,0(x11)
    1b64:	01c20863          	beq	x4,x28,1b74 <I_or_cg_cr_rs1_rs2_edges_rs1val_0x2_rs2val_0x55555555+0x18>
    1b68:	155022ef          	jal	x5,44bc <failedtest_x5_x4>
    1b6c:	00001b5c          	.word	0x00001b5c
    1b70:	0000aed6          	.word	0x0000aed6
    1b74:	00458593          	addi	x11,x11,4

# Testcase cr_rs1_rs2_edges (Test source rs1 = 0x80000000 rs2 = 0x00000000)
  RVTEST_TESTDATA_LOAD_INT(x24, x15) # load rs1: x15 = 0x80000000
    1b78:	000c2783          	lw	x15,0(x24)
    1b7c:	004c0c13          	addi	x24,x24,4
  RVTEST_TESTDATA_LOAD_INT(x24, x16) # load rs2: x16 = 0x00000000
    1b80:	000c2803          	lw	x16,0(x24)
    1b84:	004c0c13          	addi	x24,x24,4

00001b88 <I_or_cg_cr_rs1_rs2_edges_rs1val_0x80000000_rs2val_0x0>:
I_or_cg_cr_rs1_rs2_edges_rs1val_0x80000000_rs2val_0x0:
  or x28, x15, x16 # perform operation
    1b88:	0107ee33          	or	x28,x15,x16
  # Check if x28 contains the expected result. x11 is the signature ptr, x5 is the link ptr, x4 is a temp reg.
  RVTEST_SIGUPD(x11, x5, x4, x28, I_or_cg_cr_rs1_rs2_edges_rs1val_0x80000000_rs2val_0x0, I_or_cg_cr_rs1_rs2_edges_rs1val_0x80000000_rs2val_0x0_str)
    1b8c:	0005a203          	lw	x4,0(x11)
    1b90:	01c20863          	beq	x4,x28,1ba0 <I_or_cg_cr_rs1_rs2_edges_rs1val_0x80000000_rs2val_0x0+0x18>
    1b94:	129022ef          	jal	x5,44bc <failedtest_x5_x4>
    1b98:	00001b88          	.word	0x00001b88
    1b9c:	0000af29          	.word	0x0000af29
    1ba0:	00458593          	addi	x11,x11,4

# Testcase cr_rs1_rs2_edges (Test source rs1 = 0x80000000 rs2 = 0x00000001)
  RVTEST_TESTDATA_LOAD_INT(x24, x22) # load rs1: x22 = 0x80000000
    1ba4:	000c2b03          	lw	x22,0(x24)
    1ba8:	004c0c13          	addi	x24,x24,4
  RVTEST_TESTDATA_LOAD_INT(x24, x27) # load rs2: x27 = 0x00000001
    1bac:	000c2d83          	lw	x27,0(x24)
    1bb0:	004c0c13          	addi	x24,x24,4

00001bb4 <I_or_cg_cr_rs1_rs2_edges_rs1val_0x80000000_rs2val_0x1>:
I_or_cg_cr_rs1_rs2_edges_rs1val_0x80000000_rs2val_0x1:
  or x28, x22, x27 # perform operation
    1bb4:	01bb6e33          	or	x28,x22,x27
  # Check if x28 contains the expected result. x11 is the signature ptr, x5 is the link ptr, x4 is a temp reg.
  RVTEST_SIGUPD(x11, x5, x4, x28, I_or_cg_cr_rs1_rs2_edges_rs1val_0x80000000_rs2val_0x1, I_or_cg_cr_rs1_rs2_edges_rs1val_0x80000000_rs2val_0x1_str)
    1bb8:	0005a203          	lw	x4,0(x11)
    1bbc:	01c20863          	beq	x4,x28,1bcc <I_or_cg_cr_rs1_rs2_edges_rs1val_0x80000000_rs2val_0x1+0x18>
    1bc0:	0fd022ef          	jal	x5,44bc <failedtest_x5_x4>
    1bc4:	00001bb4          	.word	0x00001bb4
    1bc8:	0000af7c          	.word	0x0000af7c
    1bcc:	00458593          	addi	x11,x11,4

# Testcase cr_rs1_rs2_edges (Test source rs1 = 0x80000000 rs2 = 0x00000002)
  RVTEST_TESTDATA_LOAD_INT(x24, x19) # load rs1: x19 = 0x80000000
    1bd0:	000c2983          	lw	x19,0(x24)
    1bd4:	004c0c13          	addi	x24,x24,4
  RVTEST_TESTDATA_LOAD_INT(x24, x16) # load rs2: x16 = 0x00000002
    1bd8:	000c2803          	lw	x16,0(x24)
    1bdc:	004c0c13          	addi	x24,x24,4

00001be0 <I_or_cg_cr_rs1_rs2_edges_rs1val_0x80000000_rs2val_0x2>:
I_or_cg_cr_rs1_rs2_edges_rs1val_0x80000000_rs2val_0x2:
  or x2, x19, x16 # perform operation
    1be0:	0109e133          	or	x2,x19,x16
  # Check if x2 contains the expected result. x11 is the signature ptr, x5 is the link ptr, x4 is a temp reg.
  RVTEST_SIGUPD(x11, x5, x4, x2, I_or_cg_cr_rs1_rs2_edges_rs1val_0x80000000_rs2val_0x2, I_or_cg_cr_rs1_rs2_edges_rs1val_0x80000000_rs2val_0x2_str)
    1be4:	0005a203          	lw	x4,0(x11)
    1be8:	00220863          	beq	x4,x2,1bf8 <I_or_cg_cr_rs1_rs2_edges_rs1val_0x80000000_rs2val_0x2+0x18>
    1bec:	0d1022ef          	jal	x5,44bc <failedtest_x5_x4>
    1bf0:	00001be0          	.word	0x00001be0
    1bf4:	0000afcf          	.word	0x0000afcf
    1bf8:	00458593          	addi	x11,x11,4

# Testcase cr_rs1_rs2_edges (Test source rs1 = 0x80000000 rs2 = 0x80000000)
  RVTEST_TESTDATA_LOAD_INT(x24, x21) # load rs1: x21 = 0x80000000
    1bfc:	000c2a83          	lw	x21,0(x24)
    1c00:	004c0c13          	addi	x24,x24,4
  RVTEST_TESTDATA_LOAD_INT(x24, x13) # load rs2: x13 = 0x80000000
    1c04:	000c2683          	lw	x13,0(x24)
    1c08:	004c0c13          	addi	x24,x24,4

00001c0c <I_or_cg_cr_rs1_rs2_edges_rs1val_0x80000000_rs2val_0x80000000>:
I_or_cg_cr_rs1_rs2_edges_rs1val_0x80000000_rs2val_0x80000000:
  or x3, x21, x13 # perform operation
    1c0c:	00dae1b3          	or	x3,x21,x13
  # Check if x3 contains the expected result. x11 is the signature ptr, x5 is the link ptr, x4 is a temp reg.
  RVTEST_SIGUPD(x11, x5, x4, x3, I_or_cg_cr_rs1_rs2_edges_rs1val_0x80000000_rs2val_0x80000000, I_or_cg_cr_rs1_rs2_edges_rs1val_0x80000000_rs2val_0x80000000_str)
    1c10:	0005a203          	lw	x4,0(x11)
    1c14:	00320863          	beq	x4,x3,1c24 <I_or_cg_cr_rs1_rs2_edges_rs1val_0x80000000_rs2val_0x80000000+0x18>
    1c18:	0a5022ef          	jal	x5,44bc <failedtest_x5_x4>
    1c1c:	00001c0c          	.word	0x00001c0c
    1c20:	0000b022          	.word	0x0000b022
    1c24:	00458593          	addi	x11,x11,4

# Testcase cr_rs1_rs2_edges (Test source rs1 = 0x80000000 rs2 = 0x80000001)
  RVTEST_TESTDATA_LOAD_INT(x24, x6) # load rs1: x6 = 0x80000000
    1c28:	000c2303          	lw	x6,0(x24)
    1c2c:	004c0c13          	addi	x24,x24,4
  RVTEST_TESTDATA_LOAD_INT(x24, x27) # load rs2: x27 = 0x80000001
    1c30:	000c2d83          	lw	x27,0(x24)
    1c34:	004c0c13          	addi	x24,x24,4

00001c38 <I_or_cg_cr_rs1_rs2_edges_rs1val_0x80000000_rs2val_0x80000001>:
I_or_cg_cr_rs1_rs2_edges_rs1val_0x80000000_rs2val_0x80000001:
  or x19, x6, x27 # perform operation
    1c38:	01b369b3          	or	x19,x6,x27
  # Check if x19 contains the expected result. x11 is the signature ptr, x5 is the link ptr, x4 is a temp reg.
  RVTEST_SIGUPD(x11, x5, x4, x19, I_or_cg_cr_rs1_rs2_edges_rs1val_0x80000000_rs2val_0x80000001, I_or_cg_cr_rs1_rs2_edges_rs1val_0x80000000_rs2val_0x80000001_str)
    1c3c:	0005a203          	lw	x4,0(x11)
    1c40:	01320863          	beq	x4,x19,1c50 <I_or_cg_cr_rs1_rs2_edges_rs1val_0x80000000_rs2val_0x80000001+0x18>
    1c44:	079022ef          	jal	x5,44bc <failedtest_x5_x4>
    1c48:	00001c38          	.word	0x00001c38
    1c4c:	0000b07c          	.word	0x0000b07c
    1c50:	00458593          	addi	x11,x11,4

# Testcase cr_rs1_rs2_edges (Test source rs1 = 0x80000000 rs2 = 0x7fffffff)
  RVTEST_TESTDATA_LOAD_INT(x24, x8) # load rs1: x8 = 0x80000000
    1c54:	000c2403          	lw	x8,0(x24)
    1c58:	004c0c13          	addi	x24,x24,4
  RVTEST_TESTDATA_LOAD_INT(x24, x31) # load rs2: x31 = 0x7fffffff
    1c5c:	000c2f83          	lw	x31,0(x24)
    1c60:	004c0c13          	addi	x24,x24,4

00001c64 <I_or_cg_cr_rs1_rs2_edges_rs1val_0x80000000_rs2val_0x7fffffff>:
I_or_cg_cr_rs1_rs2_edges_rs1val_0x80000000_rs2val_0x7fffffff:
  or x27, x8, x31 # perform operation
    1c64:	01f46db3          	or	x27,x8,x31
  # Check if x27 contains the expected result. x11 is the signature ptr, x5 is the link ptr, x4 is a temp reg.
  RVTEST_SIGUPD(x11, x5, x4, x27, I_or_cg_cr_rs1_rs2_edges_rs1val_0x80000000_rs2val_0x7fffffff, I_or_cg_cr_rs1_rs2_edges_rs1val_0x80000000_rs2val_0x7fffffff_str)
    1c68:	0005a203          	lw	x4,0(x11)
    1c6c:	01b20863          	beq	x4,x27,1c7c <I_or_cg_cr_rs1_rs2_edges_rs1val_0x80000000_rs2val_0x7fffffff+0x18>
    1c70:	04d022ef          	jal	x5,44bc <failedtest_x5_x4>
    1c74:	00001c64          	.word	0x00001c64
    1c78:	0000b0d6          	.word	0x0000b0d6
    1c7c:	00458593          	addi	x11,x11,4

# Testcase cr_rs1_rs2_edges (Test source rs1 = 0x80000000 rs2 = 0x7ffffffe)
  RVTEST_TESTDATA_LOAD_INT(x24, x13) # load rs1: x13 = 0x80000000
    1c80:	000c2683          	lw	x13,0(x24)
    1c84:	004c0c13          	addi	x24,x24,4
  RVTEST_TESTDATA_LOAD_INT(x24, x22) # load rs2: x22 = 0x7ffffffe
    1c88:	000c2b03          	lw	x22,0(x24)
    1c8c:	004c0c13          	addi	x24,x24,4

00001c90 <I_or_cg_cr_rs1_rs2_edges_rs1val_0x80000000_rs2val_0x7ffffffe>:
I_or_cg_cr_rs1_rs2_edges_rs1val_0x80000000_rs2val_0x7ffffffe:
  or x21, x13, x22 # perform operation
    1c90:	0166eab3          	or	x21,x13,x22
  # Check if x21 contains the expected result. x11 is the signature ptr, x5 is the link ptr, x4 is a temp reg.
  RVTEST_SIGUPD(x11, x5, x4, x21, I_or_cg_cr_rs1_rs2_edges_rs1val_0x80000000_rs2val_0x7ffffffe, I_or_cg_cr_rs1_rs2_edges_rs1val_0x80000000_rs2val_0x7ffffffe_str)
    1c94:	0005a203          	lw	x4,0(x11)
    1c98:	01520863          	beq	x4,x21,1ca8 <I_or_cg_cr_rs1_rs2_edges_rs1val_0x80000000_rs2val_0x7ffffffe+0x18>
    1c9c:	021022ef          	jal	x5,44bc <failedtest_x5_x4>
    1ca0:	00001c90          	.word	0x00001c90
    1ca4:	0000b130          	.word	0x0000b130
    1ca8:	00458593          	addi	x11,x11,4

# Testcase cr_rs1_rs2_edges (Test source rs1 = 0x80000000 rs2 = 0xffffffff)
  RVTEST_TESTDATA_LOAD_INT(x24, x6) # load rs1: x6 = 0x80000000
    1cac:	000c2303          	lw	x6,0(x24)
    1cb0:	004c0c13          	addi	x24,x24,4
  RVTEST_TESTDATA_LOAD_INT(x24, x3) # load rs2: x3 = 0xffffffff
    1cb4:	000c2183          	lw	x3,0(x24)
    1cb8:	004c0c13          	addi	x24,x24,4

00001cbc <I_or_cg_cr_rs1_rs2_edges_rs1val_0x80000000_rs2val_0xffffffff>:
I_or_cg_cr_rs1_rs2_edges_rs1val_0x80000000_rs2val_0xffffffff:
  or x17, x6, x3 # perform operation
    1cbc:	003368b3          	or	x17,x6,x3
  # Check if x17 contains the expected result. x11 is the signature ptr, x5 is the link ptr, x4 is a temp reg.
  RVTEST_SIGUPD(x11, x5, x4, x17, I_or_cg_cr_rs1_rs2_edges_rs1val_0x80000000_rs2val_0xffffffff, I_or_cg_cr_rs1_rs2_edges_rs1val_0x80000000_rs2val_0xffffffff_str)
    1cc0:	0005a203          	lw	x4,0(x11)
    1cc4:	01120863          	beq	x4,x17,1cd4 <I_or_cg_cr_rs1_rs2_edges_rs1val_0x80000000_rs2val_0xffffffff+0x18>
    1cc8:	7f4022ef          	jal	x5,44bc <failedtest_x5_x4>
    1ccc:	00001cbc          	.word	0x00001cbc
    1cd0:	0000b18a          	.word	0x0000b18a
    1cd4:	00458593          	addi	x11,x11,4

# Testcase cr_rs1_rs2_edges (Test source rs1 = 0x80000000 rs2 = 0xfffffffe)
  RVTEST_TESTDATA_LOAD_INT(x24, x8) # load rs1: x8 = 0x80000000
    1cd8:	000c2403          	lw	x8,0(x24)
    1cdc:	004c0c13          	addi	x24,x24,4
  RVTEST_TESTDATA_LOAD_INT(x24, x26) # load rs2: x26 = 0xfffffffe
    1ce0:	000c2d03          	lw	x26,0(x24)
    1ce4:	004c0c13          	addi	x24,x24,4

00001ce8 <I_or_cg_cr_rs1_rs2_edges_rs1val_0x80000000_rs2val_0xfffffffe>:
I_or_cg_cr_rs1_rs2_edges_rs1val_0x80000000_rs2val_0xfffffffe:
  or x14, x8, x26 # perform operation
    1ce8:	01a46733          	or	x14,x8,x26
  # Check if x14 contains the expected result. x11 is the signature ptr, x5 is the link ptr, x4 is a temp reg.
  RVTEST_SIGUPD(x11, x5, x4, x14, I_or_cg_cr_rs1_rs2_edges_rs1val_0x80000000_rs2val_0xfffffffe, I_or_cg_cr_rs1_rs2_edges_rs1val_0x80000000_rs2val_0xfffffffe_str)
    1cec:	0005a203          	lw	x4,0(x11)
    1cf0:	00e20863          	beq	x4,x14,1d00 <I_or_cg_cr_rs1_rs2_edges_rs1val_0x80000000_rs2val_0xfffffffe+0x18>
    1cf4:	7c8022ef          	jal	x5,44bc <failedtest_x5_x4>
    1cf8:	00001ce8          	.word	0x00001ce8
    1cfc:	0000b1e4          	.word	0x0000b1e4
    1d00:	00458593          	addi	x11,x11,4

# Testcase cr_rs1_rs2_edges (Test source rs1 = 0x80000000 rs2 = 0x5bbc8872)
  RVTEST_TESTDATA_LOAD_INT(x24, x26) # load rs1: x26 = 0x80000000
    1d04:	000c2d03          	lw	x26,0(x24)
    1d08:	004c0c13          	addi	x24,x24,4
  RVTEST_TESTDATA_LOAD_INT(x24, x31) # load rs2: x31 = 0x5bbc8872
    1d0c:	000c2f83          	lw	x31,0(x24)
    1d10:	004c0c13          	addi	x24,x24,4

00001d14 <I_or_cg_cr_rs1_rs2_edges_rs1val_0x80000000_rs2val_0x5bbc8872>:
I_or_cg_cr_rs1_rs2_edges_rs1val_0x80000000_rs2val_0x5bbc8872:
  or x15, x26, x31 # perform operation
    1d14:	01fd67b3          	or	x15,x26,x31
  # Check if x15 contains the expected result. x11 is the signature ptr, x5 is the link ptr, x4 is a temp reg.
  RVTEST_SIGUPD(x11, x5, x4, x15, I_or_cg_cr_rs1_rs2_edges_rs1val_0x80000000_rs2val_0x5bbc8872, I_or_cg_cr_rs1_rs2_edges_rs1val_0x80000000_rs2val_0x5bbc8872_str)
    1d18:	0005a203          	lw	x4,0(x11)
    1d1c:	00f20863          	beq	x4,x15,1d2c <I_or_cg_cr_rs1_rs2_edges_rs1val_0x80000000_rs2val_0x5bbc8872+0x18>
    1d20:	79c022ef          	jal	x5,44bc <failedtest_x5_x4>
    1d24:	00001d14          	.word	0x00001d14
    1d28:	0000b23e          	.word	0x0000b23e
    1d2c:	00458593          	addi	x11,x11,4

# Testcase cr_rs1_rs2_edges (Test source rs1 = 0x80000000 rs2 = 0xaaaaaaaa)
  RVTEST_TESTDATA_LOAD_INT(x24, x17) # load rs1: x17 = 0x80000000
    1d30:	000c2883          	lw	x17,0(x24)
    1d34:	004c0c13          	addi	x24,x24,4
  RVTEST_TESTDATA_LOAD_INT(x24, x23) # load rs2: x23 = 0xaaaaaaaa
    1d38:	000c2b83          	lw	x23,0(x24)
    1d3c:	004c0c13          	addi	x24,x24,4

00001d40 <I_or_cg_cr_rs1_rs2_edges_rs1val_0x80000000_rs2val_0xaaaaaaaa>:
I_or_cg_cr_rs1_rs2_edges_rs1val_0x80000000_rs2val_0xaaaaaaaa:
  or x30, x17, x23 # perform operation
    1d40:	0178ef33          	or	x30,x17,x23
  # Check if x30 contains the expected result. x11 is the signature ptr, x5 is the link ptr, x4 is a temp reg.
  RVTEST_SIGUPD(x11, x5, x4, x30, I_or_cg_cr_rs1_rs2_edges_rs1val_0x80000000_rs2val_0xaaaaaaaa, I_or_cg_cr_rs1_rs2_edges_rs1val_0x80000000_rs2val_0xaaaaaaaa_str)
    1d44:	0005a203          	lw	x4,0(x11)
    1d48:	01e20863          	beq	x4,x30,1d58 <I_or_cg_cr_rs1_rs2_edges_rs1val_0x80000000_rs2val_0xaaaaaaaa+0x18>
    1d4c:	770022ef          	jal	x5,44bc <failedtest_x5_x4>
    1d50:	00001d40          	.word	0x00001d40
    1d54:	0000b298          	.word	0x0000b298
    1d58:	00458593          	addi	x11,x11,4

# Testcase cr_rs1_rs2_edges (Test source rs1 = 0x80000000 rs2 = 0x55555555)
  RVTEST_TESTDATA_LOAD_INT(x24, x14) # load rs1: x14 = 0x80000000
    1d5c:	000c2703          	lw	x14,0(x24)
    1d60:	004c0c13          	addi	x24,x24,4
  RVTEST_TESTDATA_LOAD_INT(x24, x30) # load rs2: x30 = 0x55555555
    1d64:	000c2f03          	lw	x30,0(x24)
    1d68:	004c0c13          	addi	x24,x24,4

00001d6c <I_or_cg_cr_rs1_rs2_edges_rs1val_0x80000000_rs2val_0x55555555>:
I_or_cg_cr_rs1_rs2_edges_rs1val_0x80000000_rs2val_0x55555555:
  or x28, x14, x30 # perform operation
    1d6c:	01e76e33          	or	x28,x14,x30
  # Check if x28 contains the expected result. x11 is the signature ptr, x5 is the link ptr, x4 is a temp reg.
  RVTEST_SIGUPD(x11, x5, x4, x28, I_or_cg_cr_rs1_rs2_edges_rs1val_0x80000000_rs2val_0x55555555, I_or_cg_cr_rs1_rs2_edges_rs1val_0x80000000_rs2val_0x55555555_str)
    1d70:	0005a203          	lw	x4,0(x11)
    1d74:	01c20863          	beq	x4,x28,1d84 <I_or_cg_cr_rs1_rs2_edges_rs1val_0x80000000_rs2val_0x55555555+0x18>
    1d78:	744022ef          	jal	x5,44bc <failedtest_x5_x4>
    1d7c:	00001d6c          	.word	0x00001d6c
    1d80:	0000b2f2          	.word	0x0000b2f2
    1d84:	00458593          	addi	x11,x11,4

# Testcase cr_rs1_rs2_edges (Test source rs1 = 0x80000001 rs2 = 0x00000000)
  RVTEST_TESTDATA_LOAD_INT(x24, x10) # load rs1: x10 = 0x80000001
    1d88:	000c2503          	lw	x10,0(x24)
    1d8c:	004c0c13          	addi	x24,x24,4
  RVTEST_TESTDATA_LOAD_INT(x24, x2) # load rs2: x2 = 0x00000000
    1d90:	000c2103          	lw	x2,0(x24)
    1d94:	004c0c13          	addi	x24,x24,4

00001d98 <I_or_cg_cr_rs1_rs2_edges_rs1val_0x80000001_rs2val_0x0>:
I_or_cg_cr_rs1_rs2_edges_rs1val_0x80000001_rs2val_0x0:
  or x17, x10, x2 # perform operation
    1d98:	002568b3          	or	x17,x10,x2
  # Check if x17 contains the expected result. x11 is the signature ptr, x5 is the link ptr, x4 is a temp reg.
  RVTEST_SIGUPD(x11, x5, x4, x17, I_or_cg_cr_rs1_rs2_edges_rs1val_0x80000001_rs2val_0x0, I_or_cg_cr_rs1_rs2_edges_rs1val_0x80000001_rs2val_0x0_str)
    1d9c:	0005a203          	lw	x4,0(x11)
    1da0:	01120863          	beq	x4,x17,1db0 <I_or_cg_cr_rs1_rs2_edges_rs1val_0x80000001_rs2val_0x0+0x18>
    1da4:	718022ef          	jal	x5,44bc <failedtest_x5_x4>
    1da8:	00001d98          	.word	0x00001d98
    1dac:	0000b34c          	.word	0x0000b34c
    1db0:	00458593          	addi	x11,x11,4

# Testcase cr_rs1_rs2_edges (Test source rs1 = 0x80000001 rs2 = 0x00000001)
  RVTEST_TESTDATA_LOAD_INT(x24, x12) # load rs1: x12 = 0x80000001
    1db4:	000c2603          	lw	x12,0(x24)
    1db8:	004c0c13          	addi	x24,x24,4
  RVTEST_TESTDATA_LOAD_INT(x24, x17) # load rs2: x17 = 0x00000001
    1dbc:	000c2883          	lw	x17,0(x24)
    1dc0:	004c0c13          	addi	x24,x24,4

00001dc4 <I_or_cg_cr_rs1_rs2_edges_rs1val_0x80000001_rs2val_0x1>:
I_or_cg_cr_rs1_rs2_edges_rs1val_0x80000001_rs2val_0x1:
  or x28, x12, x17 # perform operation
    1dc4:	01166e33          	or	x28,x12,x17
  # Check if x28 contains the expected result. x11 is the signature ptr, x5 is the link ptr, x4 is a temp reg.
  RVTEST_SIGUPD(x11, x5, x4, x28, I_or_cg_cr_rs1_rs2_edges_rs1val_0x80000001_rs2val_0x1, I_or_cg_cr_rs1_rs2_edges_rs1val_0x80000001_rs2val_0x1_str)
    1dc8:	0005a203          	lw	x4,0(x11)
    1dcc:	01c20863          	beq	x4,x28,1ddc <I_or_cg_cr_rs1_rs2_edges_rs1val_0x80000001_rs2val_0x1+0x18>
    1dd0:	6ec022ef          	jal	x5,44bc <failedtest_x5_x4>
    1dd4:	00001dc4          	.word	0x00001dc4
    1dd8:	0000b39f          	.word	0x0000b39f
    1ddc:	00458593          	addi	x11,x11,4

# Testcase cr_rs1_rs2_edges (Test source rs1 = 0x80000001 rs2 = 0x00000002)
  RVTEST_TESTDATA_LOAD_INT(x24, x13) # load rs1: x13 = 0x80000001
    1de0:	000c2683          	lw	x13,0(x24)
    1de4:	004c0c13          	addi	x24,x24,4
  RVTEST_TESTDATA_LOAD_INT(x24, x16) # load rs2: x16 = 0x00000002
    1de8:	000c2803          	lw	x16,0(x24)
    1dec:	004c0c13          	addi	x24,x24,4

00001df0 <I_or_cg_cr_rs1_rs2_edges_rs1val_0x80000001_rs2val_0x2>:
I_or_cg_cr_rs1_rs2_edges_rs1val_0x80000001_rs2val_0x2:
  or x19, x13, x16 # perform operation
    1df0:	0106e9b3          	or	x19,x13,x16
  # Check if x19 contains the expected result. x11 is the signature ptr, x5 is the link ptr, x4 is a temp reg.
  RVTEST_SIGUPD(x11, x5, x4, x19, I_or_cg_cr_rs1_rs2_edges_rs1val_0x80000001_rs2val_0x2, I_or_cg_cr_rs1_rs2_edges_rs1val_0x80000001_rs2val_0x2_str)
    1df4:	0005a203          	lw	x4,0(x11)
    1df8:	01320863          	beq	x4,x19,1e08 <I_or_cg_cr_rs1_rs2_edges_rs1val_0x80000001_rs2val_0x2+0x18>
    1dfc:	6c0022ef          	jal	x5,44bc <failedtest_x5_x4>
    1e00:	00001df0          	.word	0x00001df0
    1e04:	0000b3f2          	.word	0x0000b3f2
    1e08:	00458593          	addi	x11,x11,4

# Testcase cr_rs1_rs2_edges (Test source rs1 = 0x80000001 rs2 = 0x80000000)
  RVTEST_TESTDATA_LOAD_INT(x24, x17) # load rs1: x17 = 0x80000001
    1e0c:	000c2883          	lw	x17,0(x24)
    1e10:	004c0c13          	addi	x24,x24,4
  RVTEST_TESTDATA_LOAD_INT(x24, x9) # load rs2: x9 = 0x80000000
    1e14:	000c2483          	lw	x9,0(x24)
    1e18:	004c0c13          	addi	x24,x24,4

00001e1c <I_or_cg_cr_rs1_rs2_edges_rs1val_0x80000001_rs2val_0x80000000>:
I_or_cg_cr_rs1_rs2_edges_rs1val_0x80000001_rs2val_0x80000000:
  or x27, x17, x9 # perform operation
    1e1c:	0098edb3          	or	x27,x17,x9
  # Check if x27 contains the expected result. x11 is the signature ptr, x5 is the link ptr, x4 is a temp reg.
  RVTEST_SIGUPD(x11, x5, x4, x27, I_or_cg_cr_rs1_rs2_edges_rs1val_0x80000001_rs2val_0x80000000, I_or_cg_cr_rs1_rs2_edges_rs1val_0x80000001_rs2val_0x80000000_str)
    1e20:	0005a203          	lw	x4,0(x11)
    1e24:	01b20863          	beq	x4,x27,1e34 <I_or_cg_cr_rs1_rs2_edges_rs1val_0x80000001_rs2val_0x80000000+0x18>
    1e28:	694022ef          	jal	x5,44bc <failedtest_x5_x4>
    1e2c:	00001e1c          	.word	0x00001e1c
    1e30:	0000b445          	.word	0x0000b445
    1e34:	00458593          	addi	x11,x11,4

# Testcase cr_rs1_rs2_edges (Test source rs1 = 0x80000001 rs2 = 0x80000001)
  RVTEST_TESTDATA_LOAD_INT(x24, x15) # load rs1: x15 = 0x80000001
    1e38:	000c2783          	lw	x15,0(x24)
    1e3c:	004c0c13          	addi	x24,x24,4
  RVTEST_TESTDATA_LOAD_INT(x24, x23) # load rs2: x23 = 0x80000001
    1e40:	000c2b83          	lw	x23,0(x24)
    1e44:	004c0c13          	addi	x24,x24,4

00001e48 <I_or_cg_cr_rs1_rs2_edges_rs1val_0x80000001_rs2val_0x80000001>:
I_or_cg_cr_rs1_rs2_edges_rs1val_0x80000001_rs2val_0x80000001:
  or x19, x15, x23 # perform operation
    1e48:	0177e9b3          	or	x19,x15,x23
  # Check if x19 contains the expected result. x11 is the signature ptr, x5 is the link ptr, x4 is a temp reg.
  RVTEST_SIGUPD(x11, x5, x4, x19, I_or_cg_cr_rs1_rs2_edges_rs1val_0x80000001_rs2val_0x80000001, I_or_cg_cr_rs1_rs2_edges_rs1val_0x80000001_rs2val_0x80000001_str)
    1e4c:	0005a203          	lw	x4,0(x11)
    1e50:	01320863          	beq	x4,x19,1e60 <I_or_cg_cr_rs1_rs2_edges_rs1val_0x80000001_rs2val_0x80000001+0x18>
    1e54:	668022ef          	jal	x5,44bc <failedtest_x5_x4>
    1e58:	00001e48          	.word	0x00001e48
    1e5c:	0000b49f          	.word	0x0000b49f
    1e60:	00458593          	addi	x11,x11,4

# Testcase cr_rs1_rs2_edges (Test source rs1 = 0x80000001 rs2 = 0x7fffffff)
  RVTEST_TESTDATA_LOAD_INT(x24, x2) # load rs1: x2 = 0x80000001
    1e64:	000c2103          	lw	x2,0(x24)
    1e68:	004c0c13          	addi	x24,x24,4
  RVTEST_TESTDATA_LOAD_INT(x24, x9) # load rs2: x9 = 0x7fffffff
    1e6c:	000c2483          	lw	x9,0(x24)
    1e70:	004c0c13          	addi	x24,x24,4

00001e74 <I_or_cg_cr_rs1_rs2_edges_rs1val_0x80000001_rs2val_0x7fffffff>:
I_or_cg_cr_rs1_rs2_edges_rs1val_0x80000001_rs2val_0x7fffffff:
  or x27, x2, x9 # perform operation
    1e74:	00916db3          	or	x27,x2,x9
  # Check if x27 contains the expected result. x11 is the signature ptr, x5 is the link ptr, x4 is a temp reg.
  RVTEST_SIGUPD(x11, x5, x4, x27, I_or_cg_cr_rs1_rs2_edges_rs1val_0x80000001_rs2val_0x7fffffff, I_or_cg_cr_rs1_rs2_edges_rs1val_0x80000001_rs2val_0x7fffffff_str)
    1e78:	0005a203          	lw	x4,0(x11)
    1e7c:	01b20863          	beq	x4,x27,1e8c <I_or_cg_cr_rs1_rs2_edges_rs1val_0x80000001_rs2val_0x7fffffff+0x18>
    1e80:	63c022ef          	jal	x5,44bc <failedtest_x5_x4>
    1e84:	00001e74          	.word	0x00001e74
    1e88:	0000b4f9          	.word	0x0000b4f9
    1e8c:	00458593          	addi	x11,x11,4

# Testcase cr_rs1_rs2_edges (Test source rs1 = 0x80000001 rs2 = 0x7ffffffe)
  RVTEST_TESTDATA_LOAD_INT(x24, x19) # load rs1: x19 = 0x80000001
    1e90:	000c2983          	lw	x19,0(x24)
    1e94:	004c0c13          	addi	x24,x24,4
  RVTEST_TESTDATA_LOAD_INT(x24, x26) # load rs2: x26 = 0x7ffffffe
    1e98:	000c2d03          	lw	x26,0(x24)
    1e9c:	004c0c13          	addi	x24,x24,4

00001ea0 <I_or_cg_cr_rs1_rs2_edges_rs1val_0x80000001_rs2val_0x7ffffffe>:
I_or_cg_cr_rs1_rs2_edges_rs1val_0x80000001_rs2val_0x7ffffffe:
  or x22, x19, x26 # perform operation
    1ea0:	01a9eb33          	or	x22,x19,x26
  # Check if x22 contains the expected result. x11 is the signature ptr, x5 is the link ptr, x4 is a temp reg.
  RVTEST_SIGUPD(x11, x5, x4, x22, I_or_cg_cr_rs1_rs2_edges_rs1val_0x80000001_rs2val_0x7ffffffe, I_or_cg_cr_rs1_rs2_edges_rs1val_0x80000001_rs2val_0x7ffffffe_str)
    1ea4:	0005a203          	lw	x4,0(x11)
    1ea8:	01620863          	beq	x4,x22,1eb8 <I_or_cg_cr_rs1_rs2_edges_rs1val_0x80000001_rs2val_0x7ffffffe+0x18>
    1eac:	610022ef          	jal	x5,44bc <failedtest_x5_x4>
    1eb0:	00001ea0          	.word	0x00001ea0
    1eb4:	0000b553          	.word	0x0000b553
    1eb8:	00458593          	addi	x11,x11,4

# Testcase cr_rs1_rs2_edges (Test source rs1 = 0x80000001 rs2 = 0xffffffff)
  RVTEST_TESTDATA_LOAD_INT(x24, x29) # load rs1: x29 = 0x80000001
    1ebc:	000c2e83          	lw	x29,0(x24)
    1ec0:	004c0c13          	addi	x24,x24,4
  RVTEST_TESTDATA_LOAD_INT(x24, x9) # load rs2: x9 = 0xffffffff
    1ec4:	000c2483          	lw	x9,0(x24)
    1ec8:	004c0c13          	addi	x24,x24,4

00001ecc <I_or_cg_cr_rs1_rs2_edges_rs1val_0x80000001_rs2val_0xffffffff>:
I_or_cg_cr_rs1_rs2_edges_rs1val_0x80000001_rs2val_0xffffffff:
  or x19, x29, x9 # perform operation
    1ecc:	009ee9b3          	or	x19,x29,x9
  # Check if x19 contains the expected result. x11 is the signature ptr, x5 is the link ptr, x4 is a temp reg.
  RVTEST_SIGUPD(x11, x5, x4, x19, I_or_cg_cr_rs1_rs2_edges_rs1val_0x80000001_rs2val_0xffffffff, I_or_cg_cr_rs1_rs2_edges_rs1val_0x80000001_rs2val_0xffffffff_str)
    1ed0:	0005a203          	lw	x4,0(x11)
    1ed4:	01320863          	beq	x4,x19,1ee4 <I_or_cg_cr_rs1_rs2_edges_rs1val_0x80000001_rs2val_0xffffffff+0x18>
    1ed8:	5e4022ef          	jal	x5,44bc <failedtest_x5_x4>
    1edc:	00001ecc          	.word	0x00001ecc
    1ee0:	0000b5ad          	.word	0x0000b5ad
    1ee4:	00458593          	addi	x11,x11,4

# Testcase cr_rs1_rs2_edges (Test source rs1 = 0x80000001 rs2 = 0xfffffffe)
  RVTEST_TESTDATA_LOAD_INT(x24, x6) # load rs1: x6 = 0x80000001
    1ee8:	000c2303          	lw	x6,0(x24)
    1eec:	004c0c13          	addi	x24,x24,4
  RVTEST_TESTDATA_LOAD_INT(x24, x9) # load rs2: x9 = 0xfffffffe
    1ef0:	000c2483          	lw	x9,0(x24)
    1ef4:	004c0c13          	addi	x24,x24,4

00001ef8 <I_or_cg_cr_rs1_rs2_edges_rs1val_0x80000001_rs2val_0xfffffffe>:
I_or_cg_cr_rs1_rs2_edges_rs1val_0x80000001_rs2val_0xfffffffe:
  or x26, x6, x9 # perform operation
    1ef8:	00936d33          	or	x26,x6,x9
  # Check if x26 contains the expected result. x11 is the signature ptr, x5 is the link ptr, x4 is a temp reg.
  RVTEST_SIGUPD(x11, x5, x4, x26, I_or_cg_cr_rs1_rs2_edges_rs1val_0x80000001_rs2val_0xfffffffe, I_or_cg_cr_rs1_rs2_edges_rs1val_0x80000001_rs2val_0xfffffffe_str)
    1efc:	0005a203          	lw	x4,0(x11)
    1f00:	01a20863          	beq	x4,x26,1f10 <I_or_cg_cr_rs1_rs2_edges_rs1val_0x80000001_rs2val_0xfffffffe+0x18>
    1f04:	5b8022ef          	jal	x5,44bc <failedtest_x5_x4>
    1f08:	00001ef8          	.word	0x00001ef8
    1f0c:	0000b607          	.word	0x0000b607
    1f10:	00458593          	addi	x11,x11,4

# Testcase cr_rs1_rs2_edges (Test source rs1 = 0x80000001 rs2 = 0x5bbc8872)
  RVTEST_TESTDATA_LOAD_INT(x24, x25) # load rs1: x25 = 0x80000001
    1f14:	000c2c83          	lw	x25,0(x24)
    1f18:	004c0c13          	addi	x24,x24,4
  RVTEST_TESTDATA_LOAD_INT(x24, x7) # load rs2: x7 = 0x5bbc8872
    1f1c:	000c2383          	lw	x7,0(x24)
    1f20:	004c0c13          	addi	x24,x24,4

00001f24 <I_or_cg_cr_rs1_rs2_edges_rs1val_0x80000001_rs2val_0x5bbc8872>:
I_or_cg_cr_rs1_rs2_edges_rs1val_0x80000001_rs2val_0x5bbc8872:
  or x8, x25, x7 # perform operation
    1f24:	007ce433          	or	x8,x25,x7
  # Check if x8 contains the expected result. x11 is the signature ptr, x5 is the link ptr, x4 is a temp reg.
  RVTEST_SIGUPD(x11, x5, x4, x8, I_or_cg_cr_rs1_rs2_edges_rs1val_0x80000001_rs2val_0x5bbc8872, I_or_cg_cr_rs1_rs2_edges_rs1val_0x80000001_rs2val_0x5bbc8872_str)
    1f28:	0005a203          	lw	x4,0(x11)
    1f2c:	00820863          	beq	x4,x8,1f3c <I_or_cg_cr_rs1_rs2_edges_rs1val_0x80000001_rs2val_0x5bbc8872+0x18>
    1f30:	58c022ef          	jal	x5,44bc <failedtest_x5_x4>
    1f34:	00001f24          	.word	0x00001f24
    1f38:	0000b661          	.word	0x0000b661
    1f3c:	00458593          	addi	x11,x11,4

# Testcase cr_rs1_rs2_edges (Test source rs1 = 0x80000001 rs2 = 0xaaaaaaaa)
  RVTEST_TESTDATA_LOAD_INT(x24, x9) # load rs1: x9 = 0x80000001
    1f40:	000c2483          	lw	x9,0(x24)
    1f44:	004c0c13          	addi	x24,x24,4
  RVTEST_TESTDATA_LOAD_INT(x24, x17) # load rs2: x17 = 0xaaaaaaaa
    1f48:	000c2883          	lw	x17,0(x24)
    1f4c:	004c0c13          	addi	x24,x24,4

00001f50 <I_or_cg_cr_rs1_rs2_edges_rs1val_0x80000001_rs2val_0xaaaaaaaa>:
I_or_cg_cr_rs1_rs2_edges_rs1val_0x80000001_rs2val_0xaaaaaaaa:
  or x3, x9, x17 # perform operation
    1f50:	0114e1b3          	or	x3,x9,x17
  # Check if x3 contains the expected result. x11 is the signature ptr, x5 is the link ptr, x4 is a temp reg.
  RVTEST_SIGUPD(x11, x5, x4, x3, I_or_cg_cr_rs1_rs2_edges_rs1val_0x80000001_rs2val_0xaaaaaaaa, I_or_cg_cr_rs1_rs2_edges_rs1val_0x80000001_rs2val_0xaaaaaaaa_str)
    1f54:	0005a203          	lw	x4,0(x11)
    1f58:	00320863          	beq	x4,x3,1f68 <I_or_cg_cr_rs1_rs2_edges_rs1val_0x80000001_rs2val_0xaaaaaaaa+0x18>
    1f5c:	560022ef          	jal	x5,44bc <failedtest_x5_x4>
    1f60:	00001f50          	.word	0x00001f50
    1f64:	0000b6bb          	.word	0x0000b6bb
    1f68:	00458593          	addi	x11,x11,4

# Testcase cr_rs1_rs2_edges (Test source rs1 = 0x80000001 rs2 = 0x55555555)
  RVTEST_TESTDATA_LOAD_INT(x24, x1) # load rs1: x1 = 0x80000001
    1f6c:	000c2083          	lw	x1,0(x24)
    1f70:	004c0c13          	addi	x24,x24,4
  RVTEST_TESTDATA_LOAD_INT(x24, x20) # load rs2: x20 = 0x55555555
    1f74:	000c2a03          	lw	x20,0(x24)
    1f78:	004c0c13          	addi	x24,x24,4

00001f7c <I_or_cg_cr_rs1_rs2_edges_rs1val_0x80000001_rs2val_0x55555555>:
I_or_cg_cr_rs1_rs2_edges_rs1val_0x80000001_rs2val_0x55555555:
  or x10, x1, x20 # perform operation
    1f7c:	0140e533          	or	x10,x1,x20
  # Check if x10 contains the expected result. x11 is the signature ptr, x5 is the link ptr, x4 is a temp reg.
  RVTEST_SIGUPD(x11, x5, x4, x10, I_or_cg_cr_rs1_rs2_edges_rs1val_0x80000001_rs2val_0x55555555, I_or_cg_cr_rs1_rs2_edges_rs1val_0x80000001_rs2val_0x55555555_str)
    1f80:	0005a203          	lw	x4,0(x11)
    1f84:	00a20863          	beq	x4,x10,1f94 <I_or_cg_cr_rs1_rs2_edges_rs1val_0x80000001_rs2val_0x55555555+0x18>
    1f88:	534022ef          	jal	x5,44bc <failedtest_x5_x4>
    1f8c:	00001f7c          	.word	0x00001f7c
    1f90:	0000b715          	.word	0x0000b715
    1f94:	00458593          	addi	x11,x11,4

# Testcase cr_rs1_rs2_edges (Test source rs1 = 0x7fffffff rs2 = 0x00000000)
  RVTEST_TESTDATA_LOAD_INT(x24, x29) # load rs1: x29 = 0x7fffffff
    1f98:	000c2e83          	lw	x29,0(x24)
    1f9c:	004c0c13          	addi	x24,x24,4
  RVTEST_TESTDATA_LOAD_INT(x24, x2) # load rs2: x2 = 0x00000000
    1fa0:	000c2103          	lw	x2,0(x24)
    1fa4:	004c0c13          	addi	x24,x24,4

00001fa8 <I_or_cg_cr_rs1_rs2_edges_rs1val_0x7fffffff_rs2val_0x0>:
I_or_cg_cr_rs1_rs2_edges_rs1val_0x7fffffff_rs2val_0x0:
  or x13, x29, x2 # perform operation
    1fa8:	002ee6b3          	or	x13,x29,x2
  # Check if x13 contains the expected result. x11 is the signature ptr, x5 is the link ptr, x4 is a temp reg.
  RVTEST_SIGUPD(x11, x5, x4, x13, I_or_cg_cr_rs1_rs2_edges_rs1val_0x7fffffff_rs2val_0x0, I_or_cg_cr_rs1_rs2_edges_rs1val_0x7fffffff_rs2val_0x0_str)
    1fac:	0005a203          	lw	x4,0(x11)
    1fb0:	00d20863          	beq	x4,x13,1fc0 <I_or_cg_cr_rs1_rs2_edges_rs1val_0x7fffffff_rs2val_0x0+0x18>
    1fb4:	508022ef          	jal	x5,44bc <failedtest_x5_x4>
    1fb8:	00001fa8          	.word	0x00001fa8
    1fbc:	0000b76f          	.word	0x0000b76f
    1fc0:	00458593          	addi	x11,x11,4

# Testcase cr_rs1_rs2_edges (Test source rs1 = 0x7fffffff rs2 = 0x00000001)
  RVTEST_TESTDATA_LOAD_INT(x24, x17) # load rs1: x17 = 0x7fffffff
    1fc4:	000c2883          	lw	x17,0(x24)
    1fc8:	004c0c13          	addi	x24,x24,4
  RVTEST_TESTDATA_LOAD_INT(x24, x29) # load rs2: x29 = 0x00000001
    1fcc:	000c2e83          	lw	x29,0(x24)
    1fd0:	004c0c13          	addi	x24,x24,4

00001fd4 <I_or_cg_cr_rs1_rs2_edges_rs1val_0x7fffffff_rs2val_0x1>:
I_or_cg_cr_rs1_rs2_edges_rs1val_0x7fffffff_rs2val_0x1:
  or x6, x17, x29 # perform operation
    1fd4:	01d8e333          	or	x6,x17,x29
  # Check if x6 contains the expected result. x11 is the signature ptr, x5 is the link ptr, x4 is a temp reg.
  RVTEST_SIGUPD(x11, x5, x4, x6, I_or_cg_cr_rs1_rs2_edges_rs1val_0x7fffffff_rs2val_0x1, I_or_cg_cr_rs1_rs2_edges_rs1val_0x7fffffff_rs2val_0x1_str)
    1fd8:	0005a203          	lw	x4,0(x11)
    1fdc:	00620863          	beq	x4,x6,1fec <I_or_cg_cr_rs1_rs2_edges_rs1val_0x7fffffff_rs2val_0x1+0x18>
    1fe0:	4dc022ef          	jal	x5,44bc <failedtest_x5_x4>
    1fe4:	00001fd4          	.word	0x00001fd4
    1fe8:	0000b7c2          	.word	0x0000b7c2
    1fec:	00458593          	addi	x11,x11,4

# Testcase cr_rs1_rs2_edges (Test source rs1 = 0x7fffffff rs2 = 0x00000002)
  RVTEST_TESTDATA_LOAD_INT(x24, x19) # load rs1: x19 = 0x7fffffff
    1ff0:	000c2983          	lw	x19,0(x24)
    1ff4:	004c0c13          	addi	x24,x24,4
  RVTEST_TESTDATA_LOAD_INT(x24, x31) # load rs2: x31 = 0x00000002
    1ff8:	000c2f83          	lw	x31,0(x24)
    1ffc:	004c0c13          	addi	x24,x24,4

00002000 <I_or_cg_cr_rs1_rs2_edges_rs1val_0x7fffffff_rs2val_0x2>:
I_or_cg_cr_rs1_rs2_edges_rs1val_0x7fffffff_rs2val_0x2:
  or x29, x19, x31 # perform operation
    2000:	01f9eeb3          	or	x29,x19,x31
  # Check if x29 contains the expected result. x11 is the signature ptr, x5 is the link ptr, x4 is a temp reg.
  RVTEST_SIGUPD(x11, x5, x4, x29, I_or_cg_cr_rs1_rs2_edges_rs1val_0x7fffffff_rs2val_0x2, I_or_cg_cr_rs1_rs2_edges_rs1val_0x7fffffff_rs2val_0x2_str)
    2004:	0005a203          	lw	x4,0(x11)
    2008:	01d20863          	beq	x4,x29,2018 <I_or_cg_cr_rs1_rs2_edges_rs1val_0x7fffffff_rs2val_0x2+0x18>
    200c:	4b0022ef          	jal	x5,44bc <failedtest_x5_x4>
    2010:	00002000          	.word	0x00002000
    2014:	0000b815          	.word	0x0000b815
    2018:	00458593          	addi	x11,x11,4

# Testcase cr_rs1_rs2_edges (Test source rs1 = 0x7fffffff rs2 = 0x80000000)
  RVTEST_TESTDATA_LOAD_INT(x24, x16) # load rs1: x16 = 0x7fffffff
    201c:	000c2803          	lw	x16,0(x24)
    2020:	004c0c13          	addi	x24,x24,4
  RVTEST_TESTDATA_LOAD_INT(x24, x31) # load rs2: x31 = 0x80000000
    2024:	000c2f83          	lw	x31,0(x24)
    2028:	004c0c13          	addi	x24,x24,4

0000202c <I_or_cg_cr_rs1_rs2_edges_rs1val_0x7fffffff_rs2val_0x80000000>:
I_or_cg_cr_rs1_rs2_edges_rs1val_0x7fffffff_rs2val_0x80000000:
  or x1, x16, x31 # perform operation
    202c:	01f860b3          	or	x1,x16,x31
  # Check if x1 contains the expected result. x11 is the signature ptr, x5 is the link ptr, x4 is a temp reg.
  RVTEST_SIGUPD(x11, x5, x4, x1, I_or_cg_cr_rs1_rs2_edges_rs1val_0x7fffffff_rs2val_0x80000000, I_or_cg_cr_rs1_rs2_edges_rs1val_0x7fffffff_rs2val_0x80000000_str)
    2030:	0005a203          	lw	x4,0(x11)
    2034:	00120863          	beq	x4,x1,2044 <I_or_cg_cr_rs1_rs2_edges_rs1val_0x7fffffff_rs2val_0x80000000+0x18>
    2038:	484022ef          	jal	x5,44bc <failedtest_x5_x4>
    203c:	0000202c          	.word	0x0000202c
    2040:	0000b868          	.word	0x0000b868
    2044:	00458593          	addi	x11,x11,4

# Testcase cr_rs1_rs2_edges (Test source rs1 = 0x7fffffff rs2 = 0x80000001)
  RVTEST_TESTDATA_LOAD_INT(x24, x7) # load rs1: x7 = 0x7fffffff
    2048:	000c2383          	lw	x7,0(x24)
    204c:	004c0c13          	addi	x24,x24,4
  RVTEST_TESTDATA_LOAD_INT(x24, x12) # load rs2: x12 = 0x80000001
    2050:	000c2603          	lw	x12,0(x24)
    2054:	004c0c13          	addi	x24,x24,4

00002058 <I_or_cg_cr_rs1_rs2_edges_rs1val_0x7fffffff_rs2val_0x80000001>:
I_or_cg_cr_rs1_rs2_edges_rs1val_0x7fffffff_rs2val_0x80000001:
  or x14, x7, x12 # perform operation
    2058:	00c3e733          	or	x14,x7,x12
  # Check if x14 contains the expected result. x11 is the signature ptr, x5 is the link ptr, x4 is a temp reg.
  RVTEST_SIGUPD(x11, x5, x4, x14, I_or_cg_cr_rs1_rs2_edges_rs1val_0x7fffffff_rs2val_0x80000001, I_or_cg_cr_rs1_rs2_edges_rs1val_0x7fffffff_rs2val_0x80000001_str)
    205c:	0005a203          	lw	x4,0(x11)
    2060:	00e20863          	beq	x4,x14,2070 <I_or_cg_cr_rs1_rs2_edges_rs1val_0x7fffffff_rs2val_0x80000001+0x18>
    2064:	458022ef          	jal	x5,44bc <failedtest_x5_x4>
    2068:	00002058          	.word	0x00002058
    206c:	0000b8c2          	.word	0x0000b8c2
    2070:	00458593          	addi	x11,x11,4

# Testcase cr_rs1_rs2_edges (Test source rs1 = 0x7fffffff rs2 = 0x7fffffff)
  RVTEST_TESTDATA_LOAD_INT(x24, x17) # load rs1: x17 = 0x7fffffff
    2074:	000c2883          	lw	x17,0(x24)
    2078:	004c0c13          	addi	x24,x24,4
  RVTEST_TESTDATA_LOAD_INT(x24, x21) # load rs2: x21 = 0x7fffffff
    207c:	000c2a83          	lw	x21,0(x24)
    2080:	004c0c13          	addi	x24,x24,4

00002084 <I_or_cg_cr_rs1_rs2_edges_rs1val_0x7fffffff_rs2val_0x7fffffff>:
I_or_cg_cr_rs1_rs2_edges_rs1val_0x7fffffff_rs2val_0x7fffffff:
  or x29, x17, x21 # perform operation
    2084:	0158eeb3          	or	x29,x17,x21
  # Check if x29 contains the expected result. x11 is the signature ptr, x5 is the link ptr, x4 is a temp reg.
  RVTEST_SIGUPD(x11, x5, x4, x29, I_or_cg_cr_rs1_rs2_edges_rs1val_0x7fffffff_rs2val_0x7fffffff, I_or_cg_cr_rs1_rs2_edges_rs1val_0x7fffffff_rs2val_0x7fffffff_str)
    2088:	0005a203          	lw	x4,0(x11)
    208c:	01d20863          	beq	x4,x29,209c <I_or_cg_cr_rs1_rs2_edges_rs1val_0x7fffffff_rs2val_0x7fffffff+0x18>
    2090:	42c022ef          	jal	x5,44bc <failedtest_x5_x4>
    2094:	00002084          	.word	0x00002084
    2098:	0000b91c          	.word	0x0000b91c
    209c:	00458593          	addi	x11,x11,4

# Testcase cr_rs1_rs2_edges (Test source rs1 = 0x7fffffff rs2 = 0x7ffffffe)
  RVTEST_TESTDATA_LOAD_INT(x24, x21) # load rs1: x21 = 0x7fffffff
    20a0:	000c2a83          	lw	x21,0(x24)
    20a4:	004c0c13          	addi	x24,x24,4
  RVTEST_TESTDATA_LOAD_INT(x24, x15) # load rs2: x15 = 0x7ffffffe
    20a8:	000c2783          	lw	x15,0(x24)
    20ac:	004c0c13          	addi	x24,x24,4

000020b0 <I_or_cg_cr_rs1_rs2_edges_rs1val_0x7fffffff_rs2val_0x7ffffffe>:
I_or_cg_cr_rs1_rs2_edges_rs1val_0x7fffffff_rs2val_0x7ffffffe:
  or x7, x21, x15 # perform operation
    20b0:	00fae3b3          	or	x7,x21,x15
  # Check if x7 contains the expected result. x11 is the signature ptr, x5 is the link ptr, x4 is a temp reg.
  RVTEST_SIGUPD(x11, x5, x4, x7, I_or_cg_cr_rs1_rs2_edges_rs1val_0x7fffffff_rs2val_0x7ffffffe, I_or_cg_cr_rs1_rs2_edges_rs1val_0x7fffffff_rs2val_0x7ffffffe_str)
    20b4:	0005a203          	lw	x4,0(x11)
    20b8:	00720863          	beq	x4,x7,20c8 <I_or_cg_cr_rs1_rs2_edges_rs1val_0x7fffffff_rs2val_0x7ffffffe+0x18>
    20bc:	400022ef          	jal	x5,44bc <failedtest_x5_x4>
    20c0:	000020b0          	.word	0x000020b0
    20c4:	0000b976          	.word	0x0000b976
    20c8:	00458593          	addi	x11,x11,4

# Testcase cr_rs1_rs2_edges (Test source rs1 = 0x7fffffff rs2 = 0xffffffff)
  RVTEST_TESTDATA_LOAD_INT(x24, x26) # load rs1: x26 = 0x7fffffff
    20cc:	000c2d03          	lw	x26,0(x24)
    20d0:	004c0c13          	addi	x24,x24,4
  RVTEST_TESTDATA_LOAD_INT(x24, x18) # load rs2: x18 = 0xffffffff
    20d4:	000c2903          	lw	x18,0(x24)
    20d8:	004c0c13          	addi	x24,x24,4

000020dc <I_or_cg_cr_rs1_rs2_edges_rs1val_0x7fffffff_rs2val_0xffffffff>:
I_or_cg_cr_rs1_rs2_edges_rs1val_0x7fffffff_rs2val_0xffffffff:
  or x12, x26, x18 # perform operation
    20dc:	012d6633          	or	x12,x26,x18
  # Check if x12 contains the expected result. x11 is the signature ptr, x5 is the link ptr, x4 is a temp reg.
  RVTEST_SIGUPD(x11, x5, x4, x12, I_or_cg_cr_rs1_rs2_edges_rs1val_0x7fffffff_rs2val_0xffffffff, I_or_cg_cr_rs1_rs2_edges_rs1val_0x7fffffff_rs2val_0xffffffff_str)
    20e0:	0005a203          	lw	x4,0(x11)
    20e4:	00c20863          	beq	x4,x12,20f4 <I_or_cg_cr_rs1_rs2_edges_rs1val_0x7fffffff_rs2val_0xffffffff+0x18>
    20e8:	3d4022ef          	jal	x5,44bc <failedtest_x5_x4>
    20ec:	000020dc          	.word	0x000020dc
    20f0:	0000b9d0          	.word	0x0000b9d0
    20f4:	00458593          	addi	x11,x11,4

# Testcase cr_rs1_rs2_edges (Test source rs1 = 0x7fffffff rs2 = 0xfffffffe)
  RVTEST_TESTDATA_LOAD_INT(x24, x8) # load rs1: x8 = 0x7fffffff
    20f8:	000c2403          	lw	x8,0(x24)
    20fc:	004c0c13          	addi	x24,x24,4
  RVTEST_TESTDATA_LOAD_INT(x24, x17) # load rs2: x17 = 0xfffffffe
    2100:	000c2883          	lw	x17,0(x24)
    2104:	004c0c13          	addi	x24,x24,4

00002108 <I_or_cg_cr_rs1_rs2_edges_rs1val_0x7fffffff_rs2val_0xfffffffe>:
I_or_cg_cr_rs1_rs2_edges_rs1val_0x7fffffff_rs2val_0xfffffffe:
  or x31, x8, x17 # perform operation
    2108:	01146fb3          	or	x31,x8,x17
  # Check if x31 contains the expected result. x11 is the signature ptr, x5 is the link ptr, x4 is a temp reg.
  RVTEST_SIGUPD(x11, x5, x4, x31, I_or_cg_cr_rs1_rs2_edges_rs1val_0x7fffffff_rs2val_0xfffffffe, I_or_cg_cr_rs1_rs2_edges_rs1val_0x7fffffff_rs2val_0xfffffffe_str)
    210c:	0005a203          	lw	x4,0(x11)
    2110:	01f20863          	beq	x4,x31,2120 <I_or_cg_cr_rs1_rs2_edges_rs1val_0x7fffffff_rs2val_0xfffffffe+0x18>
    2114:	3a8022ef          	jal	x5,44bc <failedtest_x5_x4>
    2118:	00002108          	.word	0x00002108
    211c:	0000ba2a          	.word	0x0000ba2a
    2120:	00458593          	addi	x11,x11,4

# Testcase cr_rs1_rs2_edges (Test source rs1 = 0x7fffffff rs2 = 0x5bbc8872)
  RVTEST_TESTDATA_LOAD_INT(x24, x13) # load rs1: x13 = 0x7fffffff
    2124:	000c2683          	lw	x13,0(x24)
    2128:	004c0c13          	addi	x24,x24,4
  RVTEST_TESTDATA_LOAD_INT(x24, x30) # load rs2: x30 = 0x5bbc8872
    212c:	000c2f03          	lw	x30,0(x24)
    2130:	004c0c13          	addi	x24,x24,4

00002134 <I_or_cg_cr_rs1_rs2_edges_rs1val_0x7fffffff_rs2val_0x5bbc8872>:
I_or_cg_cr_rs1_rs2_edges_rs1val_0x7fffffff_rs2val_0x5bbc8872:
  or x19, x13, x30 # perform operation
    2134:	01e6e9b3          	or	x19,x13,x30
  # Check if x19 contains the expected result. x11 is the signature ptr, x5 is the link ptr, x4 is a temp reg.
  RVTEST_SIGUPD(x11, x5, x4, x19, I_or_cg_cr_rs1_rs2_edges_rs1val_0x7fffffff_rs2val_0x5bbc8872, I_or_cg_cr_rs1_rs2_edges_rs1val_0x7fffffff_rs2val_0x5bbc8872_str)
    2138:	0005a203          	lw	x4,0(x11)
    213c:	01320863          	beq	x4,x19,214c <I_or_cg_cr_rs1_rs2_edges_rs1val_0x7fffffff_rs2val_0x5bbc8872+0x18>
    2140:	37c022ef          	jal	x5,44bc <failedtest_x5_x4>
    2144:	00002134          	.word	0x00002134
    2148:	0000ba84          	.word	0x0000ba84
    214c:	00458593          	addi	x11,x11,4

# Testcase cr_rs1_rs2_edges (Test source rs1 = 0x7fffffff rs2 = 0xaaaaaaaa)
  RVTEST_TESTDATA_LOAD_INT(x24, x17) # load rs1: x17 = 0x7fffffff
    2150:	000c2883          	lw	x17,0(x24)
    2154:	004c0c13          	addi	x24,x24,4
  RVTEST_TESTDATA_LOAD_INT(x24, x18) # load rs2: x18 = 0xaaaaaaaa
    2158:	000c2903          	lw	x18,0(x24)
    215c:	004c0c13          	addi	x24,x24,4

00002160 <I_or_cg_cr_rs1_rs2_edges_rs1val_0x7fffffff_rs2val_0xaaaaaaaa>:
I_or_cg_cr_rs1_rs2_edges_rs1val_0x7fffffff_rs2val_0xaaaaaaaa:
  or x13, x17, x18 # perform operation
    2160:	0128e6b3          	or	x13,x17,x18
  # Check if x13 contains the expected result. x11 is the signature ptr, x5 is the link ptr, x4 is a temp reg.
  RVTEST_SIGUPD(x11, x5, x4, x13, I_or_cg_cr_rs1_rs2_edges_rs1val_0x7fffffff_rs2val_0xaaaaaaaa, I_or_cg_cr_rs1_rs2_edges_rs1val_0x7fffffff_rs2val_0xaaaaaaaa_str)
    2164:	0005a203          	lw	x4,0(x11)
    2168:	00d20863          	beq	x4,x13,2178 <I_or_cg_cr_rs1_rs2_edges_rs1val_0x7fffffff_rs2val_0xaaaaaaaa+0x18>
    216c:	350022ef          	jal	x5,44bc <failedtest_x5_x4>
    2170:	00002160          	.word	0x00002160
    2174:	0000bade          	.word	0x0000bade
    2178:	00458593          	addi	x11,x11,4

# Testcase cr_rs1_rs2_edges (Test source rs1 = 0x7fffffff rs2 = 0x55555555)
  RVTEST_TESTDATA_LOAD_INT(x24, x1) # load rs1: x1 = 0x7fffffff
    217c:	000c2083          	lw	x1,0(x24)
    2180:	004c0c13          	addi	x24,x24,4
  RVTEST_TESTDATA_LOAD_INT(x24, x12) # load rs2: x12 = 0x55555555
    2184:	000c2603          	lw	x12,0(x24)
    2188:	004c0c13          	addi	x24,x24,4

0000218c <I_or_cg_cr_rs1_rs2_edges_rs1val_0x7fffffff_rs2val_0x55555555>:
I_or_cg_cr_rs1_rs2_edges_rs1val_0x7fffffff_rs2val_0x55555555:
  or x3, x1, x12 # perform operation
    218c:	00c0e1b3          	or	x3,x1,x12
  # Check if x3 contains the expected result. x11 is the signature ptr, x5 is the link ptr, x4 is a temp reg.
  RVTEST_SIGUPD(x11, x5, x4, x3, I_or_cg_cr_rs1_rs2_edges_rs1val_0x7fffffff_rs2val_0x55555555, I_or_cg_cr_rs1_rs2_edges_rs1val_0x7fffffff_rs2val_0x55555555_str)
    2190:	0005a203          	lw	x4,0(x11)
    2194:	00320863          	beq	x4,x3,21a4 <I_or_cg_cr_rs1_rs2_edges_rs1val_0x7fffffff_rs2val_0x55555555+0x18>
    2198:	324022ef          	jal	x5,44bc <failedtest_x5_x4>
    219c:	0000218c          	.word	0x0000218c
    21a0:	0000bb38          	.word	0x0000bb38
    21a4:	00458593          	addi	x11,x11,4

# Testcase cr_rs1_rs2_edges (Test source rs1 = 0x7ffffffe rs2 = 0x00000000)
  RVTEST_TESTDATA_LOAD_INT(x24, x17) # load rs1: x17 = 0x7ffffffe
    21a8:	000c2883          	lw	x17,0(x24)
    21ac:	004c0c13          	addi	x24,x24,4
  RVTEST_TESTDATA_LOAD_INT(x24, x26) # load rs2: x26 = 0x00000000
    21b0:	000c2d03          	lw	x26,0(x24)
    21b4:	004c0c13          	addi	x24,x24,4

000021b8 <I_or_cg_cr_rs1_rs2_edges_rs1val_0x7ffffffe_rs2val_0x0>:
I_or_cg_cr_rs1_rs2_edges_rs1val_0x7ffffffe_rs2val_0x0:
  or x8, x17, x26 # perform operation
    21b8:	01a8e433          	or	x8,x17,x26
  # Check if x8 contains the expected result. x11 is the signature ptr, x5 is the link ptr, x4 is a temp reg.
  RVTEST_SIGUPD(x11, x5, x4, x8, I_or_cg_cr_rs1_rs2_edges_rs1val_0x7ffffffe_rs2val_0x0, I_or_cg_cr_rs1_rs2_edges_rs1val_0x7ffffffe_rs2val_0x0_str)
    21bc:	0005a203          	lw	x4,0(x11)
    21c0:	00820863          	beq	x4,x8,21d0 <I_or_cg_cr_rs1_rs2_edges_rs1val_0x7ffffffe_rs2val_0x0+0x18>
    21c4:	2f8022ef          	jal	x5,44bc <failedtest_x5_x4>
    21c8:	000021b8          	.word	0x000021b8
    21cc:	0000bb92          	.word	0x0000bb92
    21d0:	00458593          	addi	x11,x11,4

# Testcase cr_rs1_rs2_edges (Test source rs1 = 0x7ffffffe rs2 = 0x00000001)
  RVTEST_TESTDATA_LOAD_INT(x24, x6) # load rs1: x6 = 0x7ffffffe
    21d4:	000c2303          	lw	x6,0(x24)
    21d8:	004c0c13          	addi	x24,x24,4
  RVTEST_TESTDATA_LOAD_INT(x24, x2) # load rs2: x2 = 0x00000001
    21dc:	000c2103          	lw	x2,0(x24)
    21e0:	004c0c13          	addi	x24,x24,4

000021e4 <I_or_cg_cr_rs1_rs2_edges_rs1val_0x7ffffffe_rs2val_0x1>:
I_or_cg_cr_rs1_rs2_edges_rs1val_0x7ffffffe_rs2val_0x1:
  or x8, x6, x2 # perform operation
    21e4:	00236433          	or	x8,x6,x2
  # Check if x8 contains the expected result. x11 is the signature ptr, x5 is the link ptr, x4 is a temp reg.
  RVTEST_SIGUPD(x11, x5, x4, x8, I_or_cg_cr_rs1_rs2_edges_rs1val_0x7ffffffe_rs2val_0x1, I_or_cg_cr_rs1_rs2_edges_rs1val_0x7ffffffe_rs2val_0x1_str)
    21e8:	0005a203          	lw	x4,0(x11)
    21ec:	00820863          	beq	x4,x8,21fc <I_or_cg_cr_rs1_rs2_edges_rs1val_0x7ffffffe_rs2val_0x1+0x18>
    21f0:	2cc022ef          	jal	x5,44bc <failedtest_x5_x4>
    21f4:	000021e4          	.word	0x000021e4
    21f8:	0000bbe5          	.word	0x0000bbe5
    21fc:	00458593          	addi	x11,x11,4

# Testcase cr_rs1_rs2_edges (Test source rs1 = 0x7ffffffe rs2 = 0x00000002)
  RVTEST_TESTDATA_LOAD_INT(x24, x7) # load rs1: x7 = 0x7ffffffe
    2200:	000c2383          	lw	x7,0(x24)
    2204:	004c0c13          	addi	x24,x24,4
  RVTEST_TESTDATA_LOAD_INT(x24, x28) # load rs2: x28 = 0x00000002
    2208:	000c2e03          	lw	x28,0(x24)
    220c:	004c0c13          	addi	x24,x24,4

00002210 <I_or_cg_cr_rs1_rs2_edges_rs1val_0x7ffffffe_rs2val_0x2>:
I_or_cg_cr_rs1_rs2_edges_rs1val_0x7ffffffe_rs2val_0x2:
  or x21, x7, x28 # perform operation
    2210:	01c3eab3          	or	x21,x7,x28
  # Check if x21 contains the expected result. x11 is the signature ptr, x5 is the link ptr, x4 is a temp reg.
  RVTEST_SIGUPD(x11, x5, x4, x21, I_or_cg_cr_rs1_rs2_edges_rs1val_0x7ffffffe_rs2val_0x2, I_or_cg_cr_rs1_rs2_edges_rs1val_0x7ffffffe_rs2val_0x2_str)
    2214:	0005a203          	lw	x4,0(x11)
    2218:	01520863          	beq	x4,x21,2228 <I_or_cg_cr_rs1_rs2_edges_rs1val_0x7ffffffe_rs2val_0x2+0x18>
    221c:	2a0022ef          	jal	x5,44bc <failedtest_x5_x4>
    2220:	00002210          	.word	0x00002210
    2224:	0000bc38          	.word	0x0000bc38
    2228:	00458593          	addi	x11,x11,4

# Testcase cr_rs1_rs2_edges (Test source rs1 = 0x7ffffffe rs2 = 0x80000000)
  RVTEST_TESTDATA_LOAD_INT(x24, x7) # load rs1: x7 = 0x7ffffffe
    222c:	000c2383          	lw	x7,0(x24)
    2230:	004c0c13          	addi	x24,x24,4
  RVTEST_TESTDATA_LOAD_INT(x24, x10) # load rs2: x10 = 0x80000000
    2234:	000c2503          	lw	x10,0(x24)
    2238:	004c0c13          	addi	x24,x24,4

0000223c <I_or_cg_cr_rs1_rs2_edges_rs1val_0x7ffffffe_rs2val_0x80000000>:
I_or_cg_cr_rs1_rs2_edges_rs1val_0x7ffffffe_rs2val_0x80000000:
  or x30, x7, x10 # perform operation
    223c:	00a3ef33          	or	x30,x7,x10
  # Check if x30 contains the expected result. x11 is the signature ptr, x5 is the link ptr, x4 is a temp reg.
  RVTEST_SIGUPD(x11, x5, x4, x30, I_or_cg_cr_rs1_rs2_edges_rs1val_0x7ffffffe_rs2val_0x80000000, I_or_cg_cr_rs1_rs2_edges_rs1val_0x7ffffffe_rs2val_0x80000000_str)
    2240:	0005a203          	lw	x4,0(x11)
    2244:	01e20863          	beq	x4,x30,2254 <I_or_cg_cr_rs1_rs2_edges_rs1val_0x7ffffffe_rs2val_0x80000000+0x18>
    2248:	274022ef          	jal	x5,44bc <failedtest_x5_x4>
    224c:	0000223c          	.word	0x0000223c
    2250:	0000bc8b          	.word	0x0000bc8b
    2254:	00458593          	addi	x11,x11,4

# Testcase cr_rs1_rs2_edges (Test source rs1 = 0x7ffffffe rs2 = 0x80000001)
  RVTEST_TESTDATA_LOAD_INT(x24, x15) # load rs1: x15 = 0x7ffffffe
    2258:	000c2783          	lw	x15,0(x24)
    225c:	004c0c13          	addi	x24,x24,4
  RVTEST_TESTDATA_LOAD_INT(x24, x27) # load rs2: x27 = 0x80000001
    2260:	000c2d83          	lw	x27,0(x24)
    2264:	004c0c13          	addi	x24,x24,4

00002268 <I_or_cg_cr_rs1_rs2_edges_rs1val_0x7ffffffe_rs2val_0x80000001>:
I_or_cg_cr_rs1_rs2_edges_rs1val_0x7ffffffe_rs2val_0x80000001:
  or x3, x15, x27 # perform operation
    2268:	01b7e1b3          	or	x3,x15,x27
  # Check if x3 contains the expected result. x11 is the signature ptr, x5 is the link ptr, x4 is a temp reg.
  RVTEST_SIGUPD(x11, x5, x4, x3, I_or_cg_cr_rs1_rs2_edges_rs1val_0x7ffffffe_rs2val_0x80000001, I_or_cg_cr_rs1_rs2_edges_rs1val_0x7ffffffe_rs2val_0x80000001_str)
    226c:	0005a203          	lw	x4,0(x11)
    2270:	00320863          	beq	x4,x3,2280 <I_or_cg_cr_rs1_rs2_edges_rs1val_0x7ffffffe_rs2val_0x80000001+0x18>
    2274:	248022ef          	jal	x5,44bc <failedtest_x5_x4>
    2278:	00002268          	.word	0x00002268
    227c:	0000bce5          	.word	0x0000bce5
    2280:	00458593          	addi	x11,x11,4

# Testcase cr_rs1_rs2_edges (Test source rs1 = 0x7ffffffe rs2 = 0x7fffffff)
  RVTEST_TESTDATA_LOAD_INT(x24, x12) # load rs1: x12 = 0x7ffffffe
    2284:	000c2603          	lw	x12,0(x24)
    2288:	004c0c13          	addi	x24,x24,4
  RVTEST_TESTDATA_LOAD_INT(x24, x20) # load rs2: x20 = 0x7fffffff
    228c:	000c2a03          	lw	x20,0(x24)
    2290:	004c0c13          	addi	x24,x24,4

00002294 <I_or_cg_cr_rs1_rs2_edges_rs1val_0x7ffffffe_rs2val_0x7fffffff>:
I_or_cg_cr_rs1_rs2_edges_rs1val_0x7ffffffe_rs2val_0x7fffffff:
  or x17, x12, x20 # perform operation
    2294:	014668b3          	or	x17,x12,x20
  # Check if x17 contains the expected result. x11 is the signature ptr, x5 is the link ptr, x4 is a temp reg.
  RVTEST_SIGUPD(x11, x5, x4, x17, I_or_cg_cr_rs1_rs2_edges_rs1val_0x7ffffffe_rs2val_0x7fffffff, I_or_cg_cr_rs1_rs2_edges_rs1val_0x7ffffffe_rs2val_0x7fffffff_str)
    2298:	0005a203          	lw	x4,0(x11)
    229c:	01120863          	beq	x4,x17,22ac <I_or_cg_cr_rs1_rs2_edges_rs1val_0x7ffffffe_rs2val_0x7fffffff+0x18>
    22a0:	21c022ef          	jal	x5,44bc <failedtest_x5_x4>
    22a4:	00002294          	.word	0x00002294
    22a8:	0000bd3f          	.word	0x0000bd3f
    22ac:	00458593          	addi	x11,x11,4

# Testcase cr_rs1_rs2_edges (Test source rs1 = 0x7ffffffe rs2 = 0x7ffffffe)
  RVTEST_TESTDATA_LOAD_INT(x24, x26) # load rs1: x26 = 0x7ffffffe
    22b0:	000c2d03          	lw	x26,0(x24)
    22b4:	004c0c13          	addi	x24,x24,4
  RVTEST_TESTDATA_LOAD_INT(x24, x31) # load rs2: x31 = 0x7ffffffe
    22b8:	000c2f83          	lw	x31,0(x24)
    22bc:	004c0c13          	addi	x24,x24,4

000022c0 <I_or_cg_cr_rs1_rs2_edges_rs1val_0x7ffffffe_rs2val_0x7ffffffe>:
I_or_cg_cr_rs1_rs2_edges_rs1val_0x7ffffffe_rs2val_0x7ffffffe:
  or x8, x26, x31 # perform operation
    22c0:	01fd6433          	or	x8,x26,x31
  # Check if x8 contains the expected result. x11 is the signature ptr, x5 is the link ptr, x4 is a temp reg.
  RVTEST_SIGUPD(x11, x5, x4, x8, I_or_cg_cr_rs1_rs2_edges_rs1val_0x7ffffffe_rs2val_0x7ffffffe, I_or_cg_cr_rs1_rs2_edges_rs1val_0x7ffffffe_rs2val_0x7ffffffe_str)
    22c4:	0005a203          	lw	x4,0(x11)
    22c8:	00820863          	beq	x4,x8,22d8 <I_or_cg_cr_rs1_rs2_edges_rs1val_0x7ffffffe_rs2val_0x7ffffffe+0x18>
    22cc:	1f0022ef          	jal	x5,44bc <failedtest_x5_x4>
    22d0:	000022c0          	.word	0x000022c0
    22d4:	0000bd99          	.word	0x0000bd99
    22d8:	00458593          	addi	x11,x11,4

# Testcase cr_rs1_rs2_edges (Test source rs1 = 0x7ffffffe rs2 = 0xffffffff)
  RVTEST_TESTDATA_LOAD_INT(x24, x17) # load rs1: x17 = 0x7ffffffe
    22dc:	000c2883          	lw	x17,0(x24)
    22e0:	004c0c13          	addi	x24,x24,4
  RVTEST_TESTDATA_LOAD_INT(x24, x7) # load rs2: x7 = 0xffffffff
    22e4:	000c2383          	lw	x7,0(x24)
    22e8:	004c0c13          	addi	x24,x24,4

000022ec <I_or_cg_cr_rs1_rs2_edges_rs1val_0x7ffffffe_rs2val_0xffffffff>:
I_or_cg_cr_rs1_rs2_edges_rs1val_0x7ffffffe_rs2val_0xffffffff:
  or x2, x17, x7 # perform operation
    22ec:	0078e133          	or	x2,x17,x7
  # Check if x2 contains the expected result. x11 is the signature ptr, x5 is the link ptr, x4 is a temp reg.
  RVTEST_SIGUPD(x11, x5, x4, x2, I_or_cg_cr_rs1_rs2_edges_rs1val_0x7ffffffe_rs2val_0xffffffff, I_or_cg_cr_rs1_rs2_edges_rs1val_0x7ffffffe_rs2val_0xffffffff_str)
    22f0:	0005a203          	lw	x4,0(x11)
    22f4:	00220863          	beq	x4,x2,2304 <I_or_cg_cr_rs1_rs2_edges_rs1val_0x7ffffffe_rs2val_0xffffffff+0x18>
    22f8:	1c4022ef          	jal	x5,44bc <failedtest_x5_x4>
    22fc:	000022ec          	.word	0x000022ec
    2300:	0000bdf3          	.word	0x0000bdf3
    2304:	00458593          	addi	x11,x11,4

# Testcase cr_rs1_rs2_edges (Test source rs1 = 0x7ffffffe rs2 = 0xfffffffe)
  RVTEST_TESTDATA_LOAD_INT(x24, x8) # load rs1: x8 = 0x7ffffffe
    2308:	000c2403          	lw	x8,0(x24)
    230c:	004c0c13          	addi	x24,x24,4
  RVTEST_TESTDATA_LOAD_INT(x24, x25) # load rs2: x25 = 0xfffffffe
    2310:	000c2c83          	lw	x25,0(x24)
    2314:	004c0c13          	addi	x24,x24,4

00002318 <I_or_cg_cr_rs1_rs2_edges_rs1val_0x7ffffffe_rs2val_0xfffffffe>:
I_or_cg_cr_rs1_rs2_edges_rs1val_0x7ffffffe_rs2val_0xfffffffe:
  or x7, x8, x25 # perform operation
    2318:	019463b3          	or	x7,x8,x25
  # Check if x7 contains the expected result. x11 is the signature ptr, x5 is the link ptr, x4 is a temp reg.
  RVTEST_SIGUPD(x11, x5, x4, x7, I_or_cg_cr_rs1_rs2_edges_rs1val_0x7ffffffe_rs2val_0xfffffffe, I_or_cg_cr_rs1_rs2_edges_rs1val_0x7ffffffe_rs2val_0xfffffffe_str)
    231c:	0005a203          	lw	x4,0(x11)
    2320:	00720863          	beq	x4,x7,2330 <I_or_cg_cr_rs1_rs2_edges_rs1val_0x7ffffffe_rs2val_0xfffffffe+0x18>
    2324:	198022ef          	jal	x5,44bc <failedtest_x5_x4>
    2328:	00002318          	.word	0x00002318
    232c:	0000be4d          	.word	0x0000be4d
    2330:	00458593          	addi	x11,x11,4

# Testcase cr_rs1_rs2_edges (Test source rs1 = 0x7ffffffe rs2 = 0x5bbc8872)
  RVTEST_TESTDATA_LOAD_INT(x24, x17) # load rs1: x17 = 0x7ffffffe
    2334:	000c2883          	lw	x17,0(x24)
    2338:	004c0c13          	addi	x24,x24,4
  RVTEST_TESTDATA_LOAD_INT(x24, x10) # load rs2: x10 = 0x5bbc8872
    233c:	000c2503          	lw	x10,0(x24)
    2340:	004c0c13          	addi	x24,x24,4

00002344 <I_or_cg_cr_rs1_rs2_edges_rs1val_0x7ffffffe_rs2val_0x5bbc8872>:
I_or_cg_cr_rs1_rs2_edges_rs1val_0x7ffffffe_rs2val_0x5bbc8872:
  or x28, x17, x10 # perform operation
    2344:	00a8ee33          	or	x28,x17,x10
  # Check if x28 contains the expected result. x11 is the signature ptr, x5 is the link ptr, x4 is a temp reg.
  RVTEST_SIGUPD(x11, x5, x4, x28, I_or_cg_cr_rs1_rs2_edges_rs1val_0x7ffffffe_rs2val_0x5bbc8872, I_or_cg_cr_rs1_rs2_edges_rs1val_0x7ffffffe_rs2val_0x5bbc8872_str)
    2348:	0005a203          	lw	x4,0(x11)
    234c:	01c20863          	beq	x4,x28,235c <I_or_cg_cr_rs1_rs2_edges_rs1val_0x7ffffffe_rs2val_0x5bbc8872+0x18>
    2350:	16c022ef          	jal	x5,44bc <failedtest_x5_x4>
    2354:	00002344          	.word	0x00002344
    2358:	0000bea7          	.word	0x0000bea7
    235c:	00458593          	addi	x11,x11,4

# Testcase cr_rs1_rs2_edges (Test source rs1 = 0x7ffffffe rs2 = 0xaaaaaaaa)
  RVTEST_TESTDATA_LOAD_INT(x24, x29) # load rs1: x29 = 0x7ffffffe
    2360:	000c2e83          	lw	x29,0(x24)
    2364:	004c0c13          	addi	x24,x24,4
  RVTEST_TESTDATA_LOAD_INT(x24, x15) # load rs2: x15 = 0xaaaaaaaa
    2368:	000c2783          	lw	x15,0(x24)
    236c:	004c0c13          	addi	x24,x24,4

00002370 <I_or_cg_cr_rs1_rs2_edges_rs1val_0x7ffffffe_rs2val_0xaaaaaaaa>:
I_or_cg_cr_rs1_rs2_edges_rs1val_0x7ffffffe_rs2val_0xaaaaaaaa:
  or x12, x29, x15 # perform operation
    2370:	00fee633          	or	x12,x29,x15
  # Check if x12 contains the expected result. x11 is the signature ptr, x5 is the link ptr, x4 is a temp reg.
  RVTEST_SIGUPD(x11, x5, x4, x12, I_or_cg_cr_rs1_rs2_edges_rs1val_0x7ffffffe_rs2val_0xaaaaaaaa, I_or_cg_cr_rs1_rs2_edges_rs1val_0x7ffffffe_rs2val_0xaaaaaaaa_str)
    2374:	0005a203          	lw	x4,0(x11)
    2378:	00c20863          	beq	x4,x12,2388 <I_or_cg_cr_rs1_rs2_edges_rs1val_0x7ffffffe_rs2val_0xaaaaaaaa+0x18>
    237c:	140022ef          	jal	x5,44bc <failedtest_x5_x4>
    2380:	00002370          	.word	0x00002370
    2384:	0000bf01          	.word	0x0000bf01
    2388:	00458593          	addi	x11,x11,4

# Testcase cr_rs1_rs2_edges (Test source rs1 = 0x7ffffffe rs2 = 0x55555555)
  RVTEST_TESTDATA_LOAD_INT(x24, x9) # load rs1: x9 = 0x7ffffffe
    238c:	000c2483          	lw	x9,0(x24)
    2390:	004c0c13          	addi	x24,x24,4
  RVTEST_TESTDATA_LOAD_INT(x24, x6) # load rs2: x6 = 0x55555555
    2394:	000c2303          	lw	x6,0(x24)
    2398:	004c0c13          	addi	x24,x24,4

0000239c <I_or_cg_cr_rs1_rs2_edges_rs1val_0x7ffffffe_rs2val_0x55555555>:
I_or_cg_cr_rs1_rs2_edges_rs1val_0x7ffffffe_rs2val_0x55555555:
  or x1, x9, x6 # perform operation
    239c:	0064e0b3          	or	x1,x9,x6
  # Check if x1 contains the expected result. x11 is the signature ptr, x5 is the link ptr, x4 is a temp reg.
  RVTEST_SIGUPD(x11, x5, x4, x1, I_or_cg_cr_rs1_rs2_edges_rs1val_0x7ffffffe_rs2val_0x55555555, I_or_cg_cr_rs1_rs2_edges_rs1val_0x7ffffffe_rs2val_0x55555555_str)
    23a0:	0005a203          	lw	x4,0(x11)
    23a4:	00120863          	beq	x4,x1,23b4 <I_or_cg_cr_rs1_rs2_edges_rs1val_0x7ffffffe_rs2val_0x55555555+0x18>
    23a8:	114022ef          	jal	x5,44bc <failedtest_x5_x4>
    23ac:	0000239c          	.word	0x0000239c
    23b0:	0000bf5b          	.word	0x0000bf5b
    23b4:	00458593          	addi	x11,x11,4

# Testcase cr_rs1_rs2_edges (Test source rs1 = 0xffffffff rs2 = 0x00000000)
  RVTEST_TESTDATA_LOAD_INT(x24, x8) # load rs1: x8 = 0xffffffff
    23b8:	000c2403          	lw	x8,0(x24)
    23bc:	004c0c13          	addi	x24,x24,4
  RVTEST_TESTDATA_LOAD_INT(x24, x3) # load rs2: x3 = 0x00000000
    23c0:	000c2183          	lw	x3,0(x24)
    23c4:	004c0c13          	addi	x24,x24,4

000023c8 <I_or_cg_cr_rs1_rs2_edges_rs1val_0xffffffff_rs2val_0x0>:
I_or_cg_cr_rs1_rs2_edges_rs1val_0xffffffff_rs2val_0x0:
  or x13, x8, x3 # perform operation
    23c8:	003466b3          	or	x13,x8,x3
  # Check if x13 contains the expected result. x11 is the signature ptr, x5 is the link ptr, x4 is a temp reg.
  RVTEST_SIGUPD(x11, x5, x4, x13, I_or_cg_cr_rs1_rs2_edges_rs1val_0xffffffff_rs2val_0x0, I_or_cg_cr_rs1_rs2_edges_rs1val_0xffffffff_rs2val_0x0_str)
    23cc:	0005a203          	lw	x4,0(x11)
    23d0:	00d20863          	beq	x4,x13,23e0 <I_or_cg_cr_rs1_rs2_edges_rs1val_0xffffffff_rs2val_0x0+0x18>
    23d4:	0e8022ef          	jal	x5,44bc <failedtest_x5_x4>
    23d8:	000023c8          	.word	0x000023c8
    23dc:	0000bfb5          	.word	0x0000bfb5
    23e0:	00458593          	addi	x11,x11,4

# Testcase cr_rs1_rs2_edges (Test source rs1 = 0xffffffff rs2 = 0x00000001)
  RVTEST_TESTDATA_LOAD_INT(x24, x22) # load rs1: x22 = 0xffffffff
    23e4:	000c2b03          	lw	x22,0(x24)
    23e8:	004c0c13          	addi	x24,x24,4
  RVTEST_TESTDATA_LOAD_INT(x24, x12) # load rs2: x12 = 0x00000001
    23ec:	000c2603          	lw	x12,0(x24)
    23f0:	004c0c13          	addi	x24,x24,4

000023f4 <I_or_cg_cr_rs1_rs2_edges_rs1val_0xffffffff_rs2val_0x1>:
I_or_cg_cr_rs1_rs2_edges_rs1val_0xffffffff_rs2val_0x1:
  or x27, x22, x12 # perform operation
    23f4:	00cb6db3          	or	x27,x22,x12
  # Check if x27 contains the expected result. x11 is the signature ptr, x5 is the link ptr, x4 is a temp reg.
  RVTEST_SIGUPD(x11, x5, x4, x27, I_or_cg_cr_rs1_rs2_edges_rs1val_0xffffffff_rs2val_0x1, I_or_cg_cr_rs1_rs2_edges_rs1val_0xffffffff_rs2val_0x1_str)
    23f8:	0005a203          	lw	x4,0(x11)
    23fc:	01b20863          	beq	x4,x27,240c <I_or_cg_cr_rs1_rs2_edges_rs1val_0xffffffff_rs2val_0x1+0x18>
    2400:	0bc022ef          	jal	x5,44bc <failedtest_x5_x4>
    2404:	000023f4          	.word	0x000023f4
    2408:	0000c008          	.word	0x0000c008
    240c:	00458593          	addi	x11,x11,4

# Testcase cr_rs1_rs2_edges (Test source rs1 = 0xffffffff rs2 = 0x00000002)
  RVTEST_TESTDATA_LOAD_INT(x24, x19) # load rs1: x19 = 0xffffffff
    2410:	000c2983          	lw	x19,0(x24)
    2414:	004c0c13          	addi	x24,x24,4
  RVTEST_TESTDATA_LOAD_INT(x24, x8) # load rs2: x8 = 0x00000002
    2418:	000c2403          	lw	x8,0(x24)
    241c:	004c0c13          	addi	x24,x24,4

00002420 <I_or_cg_cr_rs1_rs2_edges_rs1val_0xffffffff_rs2val_0x2>:
I_or_cg_cr_rs1_rs2_edges_rs1val_0xffffffff_rs2val_0x2:
  or x31, x19, x8 # perform operation
    2420:	0089efb3          	or	x31,x19,x8
  # Check if x31 contains the expected result. x11 is the signature ptr, x5 is the link ptr, x4 is a temp reg.
  RVTEST_SIGUPD(x11, x5, x4, x31, I_or_cg_cr_rs1_rs2_edges_rs1val_0xffffffff_rs2val_0x2, I_or_cg_cr_rs1_rs2_edges_rs1val_0xffffffff_rs2val_0x2_str)
    2424:	0005a203          	lw	x4,0(x11)
    2428:	01f20863          	beq	x4,x31,2438 <I_or_cg_cr_rs1_rs2_edges_rs1val_0xffffffff_rs2val_0x2+0x18>
    242c:	090022ef          	jal	x5,44bc <failedtest_x5_x4>
    2430:	00002420          	.word	0x00002420
    2434:	0000c05b          	.word	0x0000c05b
    2438:	00458593          	addi	x11,x11,4

# Testcase cr_rs1_rs2_edges (Test source rs1 = 0xffffffff rs2 = 0x80000000)
  RVTEST_TESTDATA_LOAD_INT(x24, x27) # load rs1: x27 = 0xffffffff
    243c:	000c2d83          	lw	x27,0(x24)
    2440:	004c0c13          	addi	x24,x24,4
  RVTEST_TESTDATA_LOAD_INT(x24, x15) # load rs2: x15 = 0x80000000
    2444:	000c2783          	lw	x15,0(x24)
    2448:	004c0c13          	addi	x24,x24,4

0000244c <I_or_cg_cr_rs1_rs2_edges_rs1val_0xffffffff_rs2val_0x80000000>:
I_or_cg_cr_rs1_rs2_edges_rs1val_0xffffffff_rs2val_0x80000000:
  or x1, x27, x15 # perform operation
    244c:	00fde0b3          	or	x1,x27,x15
  # Check if x1 contains the expected result. x11 is the signature ptr, x5 is the link ptr, x4 is a temp reg.
  RVTEST_SIGUPD(x11, x5, x4, x1, I_or_cg_cr_rs1_rs2_edges_rs1val_0xffffffff_rs2val_0x80000000, I_or_cg_cr_rs1_rs2_edges_rs1val_0xffffffff_rs2val_0x80000000_str)
    2450:	0005a203          	lw	x4,0(x11)
    2454:	00120863          	beq	x4,x1,2464 <I_or_cg_cr_rs1_rs2_edges_rs1val_0xffffffff_rs2val_0x80000000+0x18>
    2458:	064022ef          	jal	x5,44bc <failedtest_x5_x4>
    245c:	0000244c          	.word	0x0000244c
    2460:	0000c0ae          	.word	0x0000c0ae
    2464:	00458593          	addi	x11,x11,4

# Testcase cr_rs1_rs2_edges (Test source rs1 = 0xffffffff rs2 = 0x80000001)
  RVTEST_TESTDATA_LOAD_INT(x24, x6) # load rs1: x6 = 0xffffffff
    2468:	000c2303          	lw	x6,0(x24)
    246c:	004c0c13          	addi	x24,x24,4
  RVTEST_TESTDATA_LOAD_INT(x24, x21) # load rs2: x21 = 0x80000001
    2470:	000c2a83          	lw	x21,0(x24)
    2474:	004c0c13          	addi	x24,x24,4

00002478 <I_or_cg_cr_rs1_rs2_edges_rs1val_0xffffffff_rs2val_0x80000001>:
I_or_cg_cr_rs1_rs2_edges_rs1val_0xffffffff_rs2val_0x80000001:
  or x25, x6, x21 # perform operation
    2478:	01536cb3          	or	x25,x6,x21
  # Check if x25 contains the expected result. x11 is the signature ptr, x5 is the link ptr, x4 is a temp reg.
  RVTEST_SIGUPD(x11, x5, x4, x25, I_or_cg_cr_rs1_rs2_edges_rs1val_0xffffffff_rs2val_0x80000001, I_or_cg_cr_rs1_rs2_edges_rs1val_0xffffffff_rs2val_0x80000001_str)
    247c:	0005a203          	lw	x4,0(x11)
    2480:	01920863          	beq	x4,x25,2490 <I_or_cg_cr_rs1_rs2_edges_rs1val_0xffffffff_rs2val_0x80000001+0x18>
    2484:	038022ef          	jal	x5,44bc <failedtest_x5_x4>
    2488:	00002478          	.word	0x00002478
    248c:	0000c108          	.word	0x0000c108
    2490:	00458593          	addi	x11,x11,4

# Testcase cr_rs1_rs2_edges (Test source rs1 = 0xffffffff rs2 = 0x7fffffff)
  RVTEST_TESTDATA_LOAD_INT(x24, x17) # load rs1: x17 = 0xffffffff
    2494:	000c2883          	lw	x17,0(x24)
    2498:	004c0c13          	addi	x24,x24,4
  RVTEST_TESTDATA_LOAD_INT(x24, x28) # load rs2: x28 = 0x7fffffff
    249c:	000c2e03          	lw	x28,0(x24)
    24a0:	004c0c13          	addi	x24,x24,4

000024a4 <I_or_cg_cr_rs1_rs2_edges_rs1val_0xffffffff_rs2val_0x7fffffff>:
I_or_cg_cr_rs1_rs2_edges_rs1val_0xffffffff_rs2val_0x7fffffff:
  or x8, x17, x28 # perform operation
    24a4:	01c8e433          	or	x8,x17,x28
  # Check if x8 contains the expected result. x11 is the signature ptr, x5 is the link ptr, x4 is a temp reg.
  RVTEST_SIGUPD(x11, x5, x4, x8, I_or_cg_cr_rs1_rs2_edges_rs1val_0xffffffff_rs2val_0x7fffffff, I_or_cg_cr_rs1_rs2_edges_rs1val_0xffffffff_rs2val_0x7fffffff_str)
    24a8:	0005a203          	lw	x4,0(x11)
    24ac:	00820863          	beq	x4,x8,24bc <I_or_cg_cr_rs1_rs2_edges_rs1val_0xffffffff_rs2val_0x7fffffff+0x18>
    24b0:	00c022ef          	jal	x5,44bc <failedtest_x5_x4>
    24b4:	000024a4          	.word	0x000024a4
    24b8:	0000c162          	.word	0x0000c162
    24bc:	00458593          	addi	x11,x11,4

# Testcase cr_rs1_rs2_edges (Test source rs1 = 0xffffffff rs2 = 0x7ffffffe)
  RVTEST_TESTDATA_LOAD_INT(x24, x23) # load rs1: x23 = 0xffffffff
    24c0:	000c2b83          	lw	x23,0(x24)
    24c4:	004c0c13          	addi	x24,x24,4
  RVTEST_TESTDATA_LOAD_INT(x24, x16) # load rs2: x16 = 0x7ffffffe
    24c8:	000c2803          	lw	x16,0(x24)
    24cc:	004c0c13          	addi	x24,x24,4

000024d0 <I_or_cg_cr_rs1_rs2_edges_rs1val_0xffffffff_rs2val_0x7ffffffe>:
I_or_cg_cr_rs1_rs2_edges_rs1val_0xffffffff_rs2val_0x7ffffffe:
  or x8, x23, x16 # perform operation
    24d0:	010be433          	or	x8,x23,x16
  # Check if x8 contains the expected result. x11 is the signature ptr, x5 is the link ptr, x4 is a temp reg.
  RVTEST_SIGUPD(x11, x5, x4, x8, I_or_cg_cr_rs1_rs2_edges_rs1val_0xffffffff_rs2val_0x7ffffffe, I_or_cg_cr_rs1_rs2_edges_rs1val_0xffffffff_rs2val_0x7ffffffe_str)
    24d4:	0005a203          	lw	x4,0(x11)
    24d8:	00820863          	beq	x4,x8,24e8 <I_or_cg_cr_rs1_rs2_edges_rs1val_0xffffffff_rs2val_0x7ffffffe+0x18>
    24dc:	7e1012ef          	jal	x5,44bc <failedtest_x5_x4>
    24e0:	000024d0          	.word	0x000024d0
    24e4:	0000c1bc          	.word	0x0000c1bc
    24e8:	00458593          	addi	x11,x11,4

# Testcase cr_rs1_rs2_edges (Test source rs1 = 0xffffffff rs2 = 0xffffffff)
  RVTEST_TESTDATA_LOAD_INT(x24, x18) # load rs1: x18 = 0xffffffff
    24ec:	000c2903          	lw	x18,0(x24)
    24f0:	004c0c13          	addi	x24,x24,4
  RVTEST_TESTDATA_LOAD_INT(x24, x25) # load rs2: x25 = 0xffffffff
    24f4:	000c2c83          	lw	x25,0(x24)
    24f8:	004c0c13          	addi	x24,x24,4

000024fc <I_or_cg_cr_rs1_rs2_edges_rs1val_0xffffffff_rs2val_0xffffffff>:
I_or_cg_cr_rs1_rs2_edges_rs1val_0xffffffff_rs2val_0xffffffff:
  or x31, x18, x25 # perform operation
    24fc:	01996fb3          	or	x31,x18,x25
  # Check if x31 contains the expected result. x11 is the signature ptr, x5 is the link ptr, x4 is a temp reg.
  RVTEST_SIGUPD(x11, x5, x4, x31, I_or_cg_cr_rs1_rs2_edges_rs1val_0xffffffff_rs2val_0xffffffff, I_or_cg_cr_rs1_rs2_edges_rs1val_0xffffffff_rs2val_0xffffffff_str)
    2500:	0005a203          	lw	x4,0(x11)
    2504:	01f20863          	beq	x4,x31,2514 <I_or_cg_cr_rs1_rs2_edges_rs1val_0xffffffff_rs2val_0xffffffff+0x18>
    2508:	7b5012ef          	jal	x5,44bc <failedtest_x5_x4>
    250c:	000024fc          	.word	0x000024fc
    2510:	0000c216          	.word	0x0000c216
    2514:	00458593          	addi	x11,x11,4

# Testcase cr_rs1_rs2_edges (Test source rs1 = 0xffffffff rs2 = 0xfffffffe)
  RVTEST_TESTDATA_LOAD_INT(x24, x16) # load rs1: x16 = 0xffffffff
    2518:	000c2803          	lw	x16,0(x24)
    251c:	004c0c13          	addi	x24,x24,4
  RVTEST_TESTDATA_LOAD_INT(x24, x20) # load rs2: x20 = 0xfffffffe
    2520:	000c2a03          	lw	x20,0(x24)
    2524:	004c0c13          	addi	x24,x24,4

00002528 <I_or_cg_cr_rs1_rs2_edges_rs1val_0xffffffff_rs2val_0xfffffffe>:
I_or_cg_cr_rs1_rs2_edges_rs1val_0xffffffff_rs2val_0xfffffffe:
  or x15, x16, x20 # perform operation
    2528:	014867b3          	or	x15,x16,x20
  # Check if x15 contains the expected result. x11 is the signature ptr, x5 is the link ptr, x4 is a temp reg.
  RVTEST_SIGUPD(x11, x5, x4, x15, I_or_cg_cr_rs1_rs2_edges_rs1val_0xffffffff_rs2val_0xfffffffe, I_or_cg_cr_rs1_rs2_edges_rs1val_0xffffffff_rs2val_0xfffffffe_str)
    252c:	0005a203          	lw	x4,0(x11)
    2530:	00f20863          	beq	x4,x15,2540 <I_or_cg_cr_rs1_rs2_edges_rs1val_0xffffffff_rs2val_0xfffffffe+0x18>
    2534:	789012ef          	jal	x5,44bc <failedtest_x5_x4>
    2538:	00002528          	.word	0x00002528
    253c:	0000c270          	.word	0x0000c270
    2540:	00458593          	addi	x11,x11,4

# Testcase cr_rs1_rs2_edges (Test source rs1 = 0xffffffff rs2 = 0x5bbc8872)
  RVTEST_TESTDATA_LOAD_INT(x24, x20) # load rs1: x20 = 0xffffffff
    2544:	000c2a03          	lw	x20,0(x24)
    2548:	004c0c13          	addi	x24,x24,4
  RVTEST_TESTDATA_LOAD_INT(x24, x19) # load rs2: x19 = 0x5bbc8872
    254c:	000c2983          	lw	x19,0(x24)
    2550:	004c0c13          	addi	x24,x24,4

00002554 <I_or_cg_cr_rs1_rs2_edges_rs1val_0xffffffff_rs2val_0x5bbc8872>:
I_or_cg_cr_rs1_rs2_edges_rs1val_0xffffffff_rs2val_0x5bbc8872:
  or x1, x20, x19 # perform operation
    2554:	013a60b3          	or	x1,x20,x19
  # Check if x1 contains the expected result. x11 is the signature ptr, x5 is the link ptr, x4 is a temp reg.
  RVTEST_SIGUPD(x11, x5, x4, x1, I_or_cg_cr_rs1_rs2_edges_rs1val_0xffffffff_rs2val_0x5bbc8872, I_or_cg_cr_rs1_rs2_edges_rs1val_0xffffffff_rs2val_0x5bbc8872_str)
    2558:	0005a203          	lw	x4,0(x11)
    255c:	00120863          	beq	x4,x1,256c <I_or_cg_cr_rs1_rs2_edges_rs1val_0xffffffff_rs2val_0x5bbc8872+0x18>
    2560:	75d012ef          	jal	x5,44bc <failedtest_x5_x4>
    2564:	00002554          	.word	0x00002554
    2568:	0000c2ca          	.word	0x0000c2ca
    256c:	00458593          	addi	x11,x11,4

# Testcase cr_rs1_rs2_edges (Test source rs1 = 0xffffffff rs2 = 0xaaaaaaaa)
  RVTEST_TESTDATA_LOAD_INT(x24, x23) # load rs1: x23 = 0xffffffff
    2570:	000c2b83          	lw	x23,0(x24)
    2574:	004c0c13          	addi	x24,x24,4
  RVTEST_TESTDATA_LOAD_INT(x24, x6) # load rs2: x6 = 0xaaaaaaaa
    2578:	000c2303          	lw	x6,0(x24)
    257c:	004c0c13          	addi	x24,x24,4

00002580 <I_or_cg_cr_rs1_rs2_edges_rs1val_0xffffffff_rs2val_0xaaaaaaaa>:
I_or_cg_cr_rs1_rs2_edges_rs1val_0xffffffff_rs2val_0xaaaaaaaa:
  or x10, x23, x6 # perform operation
    2580:	006be533          	or	x10,x23,x6
  # Check if x10 contains the expected result. x11 is the signature ptr, x5 is the link ptr, x4 is a temp reg.
  RVTEST_SIGUPD(x11, x5, x4, x10, I_or_cg_cr_rs1_rs2_edges_rs1val_0xffffffff_rs2val_0xaaaaaaaa, I_or_cg_cr_rs1_rs2_edges_rs1val_0xffffffff_rs2val_0xaaaaaaaa_str)
    2584:	0005a203          	lw	x4,0(x11)
    2588:	00a20863          	beq	x4,x10,2598 <I_or_cg_cr_rs1_rs2_edges_rs1val_0xffffffff_rs2val_0xaaaaaaaa+0x18>
    258c:	731012ef          	jal	x5,44bc <failedtest_x5_x4>
    2590:	00002580          	.word	0x00002580
    2594:	0000c324          	.word	0x0000c324
    2598:	00458593          	addi	x11,x11,4

# Testcase cr_rs1_rs2_edges (Test source rs1 = 0xffffffff rs2 = 0x55555555)
  RVTEST_TESTDATA_LOAD_INT(x24, x20) # load rs1: x20 = 0xffffffff
    259c:	000c2a03          	lw	x20,0(x24)
    25a0:	004c0c13          	addi	x24,x24,4
  RVTEST_TESTDATA_LOAD_INT(x24, x17) # load rs2: x17 = 0x55555555
    25a4:	000c2883          	lw	x17,0(x24)
    25a8:	004c0c13          	addi	x24,x24,4

000025ac <I_or_cg_cr_rs1_rs2_edges_rs1val_0xffffffff_rs2val_0x55555555>:
I_or_cg_cr_rs1_rs2_edges_rs1val_0xffffffff_rs2val_0x55555555:
  or x25, x20, x17 # perform operation
    25ac:	011a6cb3          	or	x25,x20,x17
  # Check if x25 contains the expected result. x11 is the signature ptr, x5 is the link ptr, x4 is a temp reg.
  RVTEST_SIGUPD(x11, x5, x4, x25, I_or_cg_cr_rs1_rs2_edges_rs1val_0xffffffff_rs2val_0x55555555, I_or_cg_cr_rs1_rs2_edges_rs1val_0xffffffff_rs2val_0x55555555_str)
    25b0:	0005a203          	lw	x4,0(x11)
    25b4:	01920863          	beq	x4,x25,25c4 <I_or_cg_cr_rs1_rs2_edges_rs1val_0xffffffff_rs2val_0x55555555+0x18>
    25b8:	705012ef          	jal	x5,44bc <failedtest_x5_x4>
    25bc:	000025ac          	.word	0x000025ac
    25c0:	0000c37e          	.word	0x0000c37e
    25c4:	00458593          	addi	x11,x11,4

# Testcase cr_rs1_rs2_edges (Test source rs1 = 0xfffffffe rs2 = 0x00000000)
  RVTEST_TESTDATA_LOAD_INT(x24, x27) # load rs1: x27 = 0xfffffffe
    25c8:	000c2d83          	lw	x27,0(x24)
    25cc:	004c0c13          	addi	x24,x24,4
  RVTEST_TESTDATA_LOAD_INT(x24, x29) # load rs2: x29 = 0x00000000
    25d0:	000c2e83          	lw	x29,0(x24)
    25d4:	004c0c13          	addi	x24,x24,4

000025d8 <I_or_cg_cr_rs1_rs2_edges_rs1val_0xfffffffe_rs2val_0x0>:
I_or_cg_cr_rs1_rs2_edges_rs1val_0xfffffffe_rs2val_0x0:
  or x28, x27, x29 # perform operation
    25d8:	01ddee33          	or	x28,x27,x29
  # Check if x28 contains the expected result. x11 is the signature ptr, x5 is the link ptr, x4 is a temp reg.
  RVTEST_SIGUPD(x11, x5, x4, x28, I_or_cg_cr_rs1_rs2_edges_rs1val_0xfffffffe_rs2val_0x0, I_or_cg_cr_rs1_rs2_edges_rs1val_0xfffffffe_rs2val_0x0_str)
    25dc:	0005a203          	lw	x4,0(x11)
    25e0:	01c20863          	beq	x4,x28,25f0 <I_or_cg_cr_rs1_rs2_edges_rs1val_0xfffffffe_rs2val_0x0+0x18>
    25e4:	6d9012ef          	jal	x5,44bc <failedtest_x5_x4>
    25e8:	000025d8          	.word	0x000025d8
    25ec:	0000c3d8          	.word	0x0000c3d8
    25f0:	00458593          	addi	x11,x11,4

# Testcase cr_rs1_rs2_edges (Test source rs1 = 0xfffffffe rs2 = 0x00000001)
  RVTEST_TESTDATA_LOAD_INT(x24, x29) # load rs1: x29 = 0xfffffffe
    25f4:	000c2e83          	lw	x29,0(x24)
    25f8:	004c0c13          	addi	x24,x24,4
  RVTEST_TESTDATA_LOAD_INT(x24, x13) # load rs2: x13 = 0x00000001
    25fc:	000c2683          	lw	x13,0(x24)
    2600:	004c0c13          	addi	x24,x24,4

00002604 <I_or_cg_cr_rs1_rs2_edges_rs1val_0xfffffffe_rs2val_0x1>:
I_or_cg_cr_rs1_rs2_edges_rs1val_0xfffffffe_rs2val_0x1:
  or x25, x29, x13 # perform operation
    2604:	00deecb3          	or	x25,x29,x13
  # Check if x25 contains the expected result. x11 is the signature ptr, x5 is the link ptr, x4 is a temp reg.
  RVTEST_SIGUPD(x11, x5, x4, x25, I_or_cg_cr_rs1_rs2_edges_rs1val_0xfffffffe_rs2val_0x1, I_or_cg_cr_rs1_rs2_edges_rs1val_0xfffffffe_rs2val_0x1_str)
    2608:	0005a203          	lw	x4,0(x11)
    260c:	01920863          	beq	x4,x25,261c <I_or_cg_cr_rs1_rs2_edges_rs1val_0xfffffffe_rs2val_0x1+0x18>
    2610:	6ad012ef          	jal	x5,44bc <failedtest_x5_x4>
    2614:	00002604          	.word	0x00002604
    2618:	0000c42b          	.word	0x0000c42b
    261c:	00458593          	addi	x11,x11,4

# Testcase cr_rs1_rs2_edges (Test source rs1 = 0xfffffffe rs2 = 0x00000002)
  RVTEST_TESTDATA_LOAD_INT(x24, x25) # load rs1: x25 = 0xfffffffe
    2620:	000c2c83          	lw	x25,0(x24)
    2624:	004c0c13          	addi	x24,x24,4
  RVTEST_TESTDATA_LOAD_INT(x24, x10) # load rs2: x10 = 0x00000002
    2628:	000c2503          	lw	x10,0(x24)
    262c:	004c0c13          	addi	x24,x24,4

00002630 <I_or_cg_cr_rs1_rs2_edges_rs1val_0xfffffffe_rs2val_0x2>:
I_or_cg_cr_rs1_rs2_edges_rs1val_0xfffffffe_rs2val_0x2:
  or x16, x25, x10 # perform operation
    2630:	00ace833          	or	x16,x25,x10
  # Check if x16 contains the expected result. x11 is the signature ptr, x5 is the link ptr, x4 is a temp reg.
  RVTEST_SIGUPD(x11, x5, x4, x16, I_or_cg_cr_rs1_rs2_edges_rs1val_0xfffffffe_rs2val_0x2, I_or_cg_cr_rs1_rs2_edges_rs1val_0xfffffffe_rs2val_0x2_str)
    2634:	0005a203          	lw	x4,0(x11)
    2638:	01020863          	beq	x4,x16,2648 <I_or_cg_cr_rs1_rs2_edges_rs1val_0xfffffffe_rs2val_0x2+0x18>
    263c:	681012ef          	jal	x5,44bc <failedtest_x5_x4>
    2640:	00002630          	.word	0x00002630
    2644:	0000c47e          	.word	0x0000c47e
    2648:	00458593          	addi	x11,x11,4

# Testcase cr_rs1_rs2_edges (Test source rs1 = 0xfffffffe rs2 = 0x80000000)
  RVTEST_TESTDATA_LOAD_INT(x24, x15) # load rs1: x15 = 0xfffffffe
    264c:	000c2783          	lw	x15,0(x24)
    2650:	004c0c13          	addi	x24,x24,4
  RVTEST_TESTDATA_LOAD_INT(x24, x3) # load rs2: x3 = 0x80000000
    2654:	000c2183          	lw	x3,0(x24)
    2658:	004c0c13          	addi	x24,x24,4

0000265c <I_or_cg_cr_rs1_rs2_edges_rs1val_0xfffffffe_rs2val_0x80000000>:
I_or_cg_cr_rs1_rs2_edges_rs1val_0xfffffffe_rs2val_0x80000000:
  or x19, x15, x3 # perform operation
    265c:	0037e9b3          	or	x19,x15,x3
  # Check if x19 contains the expected result. x11 is the signature ptr, x5 is the link ptr, x4 is a temp reg.
  RVTEST_SIGUPD(x11, x5, x4, x19, I_or_cg_cr_rs1_rs2_edges_rs1val_0xfffffffe_rs2val_0x80000000, I_or_cg_cr_rs1_rs2_edges_rs1val_0xfffffffe_rs2val_0x80000000_str)
    2660:	0005a203          	lw	x4,0(x11)
    2664:	01320863          	beq	x4,x19,2674 <I_or_cg_cr_rs1_rs2_edges_rs1val_0xfffffffe_rs2val_0x80000000+0x18>
    2668:	655012ef          	jal	x5,44bc <failedtest_x5_x4>
    266c:	0000265c          	.word	0x0000265c
    2670:	0000c4d1          	.word	0x0000c4d1
    2674:	00458593          	addi	x11,x11,4

# Testcase cr_rs1_rs2_edges (Test source rs1 = 0xfffffffe rs2 = 0x80000001)
  RVTEST_TESTDATA_LOAD_INT(x24, x20) # load rs1: x20 = 0xfffffffe
    2678:	000c2a03          	lw	x20,0(x24)
    267c:	004c0c13          	addi	x24,x24,4
  RVTEST_TESTDATA_LOAD_INT(x24, x1) # load rs2: x1 = 0x80000001
    2680:	000c2083          	lw	x1,0(x24)
    2684:	004c0c13          	addi	x24,x24,4

00002688 <I_or_cg_cr_rs1_rs2_edges_rs1val_0xfffffffe_rs2val_0x80000001>:
I_or_cg_cr_rs1_rs2_edges_rs1val_0xfffffffe_rs2val_0x80000001:
  or x2, x20, x1 # perform operation
    2688:	001a6133          	or	x2,x20,x1
  # Check if x2 contains the expected result. x11 is the signature ptr, x5 is the link ptr, x4 is a temp reg.
  RVTEST_SIGUPD(x11, x5, x4, x2, I_or_cg_cr_rs1_rs2_edges_rs1val_0xfffffffe_rs2val_0x80000001, I_or_cg_cr_rs1_rs2_edges_rs1val_0xfffffffe_rs2val_0x80000001_str)
    268c:	0005a203          	lw	x4,0(x11)
    2690:	00220863          	beq	x4,x2,26a0 <I_or_cg_cr_rs1_rs2_edges_rs1val_0xfffffffe_rs2val_0x80000001+0x18>
    2694:	629012ef          	jal	x5,44bc <failedtest_x5_x4>
    2698:	00002688          	.word	0x00002688
    269c:	0000c52b          	.word	0x0000c52b
    26a0:	00458593          	addi	x11,x11,4

# Testcase cr_rs1_rs2_edges (Test source rs1 = 0xfffffffe rs2 = 0x7fffffff)
  RVTEST_TESTDATA_LOAD_INT(x24, x19) # load rs1: x19 = 0xfffffffe
    26a4:	000c2983          	lw	x19,0(x24)
    26a8:	004c0c13          	addi	x24,x24,4
  RVTEST_TESTDATA_LOAD_INT(x24, x20) # load rs2: x20 = 0x7fffffff
    26ac:	000c2a03          	lw	x20,0(x24)
    26b0:	004c0c13          	addi	x24,x24,4

000026b4 <I_or_cg_cr_rs1_rs2_edges_rs1val_0xfffffffe_rs2val_0x7fffffff>:
I_or_cg_cr_rs1_rs2_edges_rs1val_0xfffffffe_rs2val_0x7fffffff:
  or x29, x19, x20 # perform operation
    26b4:	0149eeb3          	or	x29,x19,x20
  # Check if x29 contains the expected result. x11 is the signature ptr, x5 is the link ptr, x4 is a temp reg.
  RVTEST_SIGUPD(x11, x5, x4, x29, I_or_cg_cr_rs1_rs2_edges_rs1val_0xfffffffe_rs2val_0x7fffffff, I_or_cg_cr_rs1_rs2_edges_rs1val_0xfffffffe_rs2val_0x7fffffff_str)
    26b8:	0005a203          	lw	x4,0(x11)
    26bc:	01d20863          	beq	x4,x29,26cc <I_or_cg_cr_rs1_rs2_edges_rs1val_0xfffffffe_rs2val_0x7fffffff+0x18>
    26c0:	5fd012ef          	jal	x5,44bc <failedtest_x5_x4>
    26c4:	000026b4          	.word	0x000026b4
    26c8:	0000c585          	.word	0x0000c585
    26cc:	00458593          	addi	x11,x11,4

# Testcase cr_rs1_rs2_edges (Test source rs1 = 0xfffffffe rs2 = 0x7ffffffe)
  RVTEST_TESTDATA_LOAD_INT(x24, x26) # load rs1: x26 = 0xfffffffe
    26d0:	000c2d03          	lw	x26,0(x24)
    26d4:	004c0c13          	addi	x24,x24,4
  RVTEST_TESTDATA_LOAD_INT(x24, x20) # load rs2: x20 = 0x7ffffffe
    26d8:	000c2a03          	lw	x20,0(x24)
    26dc:	004c0c13          	addi	x24,x24,4

000026e0 <I_or_cg_cr_rs1_rs2_edges_rs1val_0xfffffffe_rs2val_0x7ffffffe>:
I_or_cg_cr_rs1_rs2_edges_rs1val_0xfffffffe_rs2val_0x7ffffffe:
  or x21, x26, x20 # perform operation
    26e0:	014d6ab3          	or	x21,x26,x20
  # Check if x21 contains the expected result. x11 is the signature ptr, x5 is the link ptr, x4 is a temp reg.
  RVTEST_SIGUPD(x11, x5, x4, x21, I_or_cg_cr_rs1_rs2_edges_rs1val_0xfffffffe_rs2val_0x7ffffffe, I_or_cg_cr_rs1_rs2_edges_rs1val_0xfffffffe_rs2val_0x7ffffffe_str)
    26e4:	0005a203          	lw	x4,0(x11)
    26e8:	01520863          	beq	x4,x21,26f8 <I_or_cg_cr_rs1_rs2_edges_rs1val_0xfffffffe_rs2val_0x7ffffffe+0x18>
    26ec:	5d1012ef          	jal	x5,44bc <failedtest_x5_x4>
    26f0:	000026e0          	.word	0x000026e0
    26f4:	0000c5df          	.word	0x0000c5df
    26f8:	00458593          	addi	x11,x11,4

# Testcase cr_rs1_rs2_edges (Test source rs1 = 0xfffffffe rs2 = 0xffffffff)
  RVTEST_TESTDATA_LOAD_INT(x24, x20) # load rs1: x20 = 0xfffffffe
    26fc:	000c2a03          	lw	x20,0(x24)
    2700:	004c0c13          	addi	x24,x24,4
  RVTEST_TESTDATA_LOAD_INT(x24, x9) # load rs2: x9 = 0xffffffff
    2704:	000c2483          	lw	x9,0(x24)
    2708:	004c0c13          	addi	x24,x24,4

0000270c <I_or_cg_cr_rs1_rs2_edges_rs1val_0xfffffffe_rs2val_0xffffffff>:
I_or_cg_cr_rs1_rs2_edges_rs1val_0xfffffffe_rs2val_0xffffffff:
  or x7, x20, x9 # perform operation
    270c:	009a63b3          	or	x7,x20,x9
  # Check if x7 contains the expected result. x11 is the signature ptr, x5 is the link ptr, x4 is a temp reg.
  RVTEST_SIGUPD(x11, x5, x4, x7, I_or_cg_cr_rs1_rs2_edges_rs1val_0xfffffffe_rs2val_0xffffffff, I_or_cg_cr_rs1_rs2_edges_rs1val_0xfffffffe_rs2val_0xffffffff_str)
    2710:	0005a203          	lw	x4,0(x11)
    2714:	00720863          	beq	x4,x7,2724 <I_or_cg_cr_rs1_rs2_edges_rs1val_0xfffffffe_rs2val_0xffffffff+0x18>
    2718:	5a5012ef          	jal	x5,44bc <failedtest_x5_x4>
    271c:	0000270c          	.word	0x0000270c
    2720:	0000c639          	.word	0x0000c639
    2724:	00458593          	addi	x11,x11,4

# Testcase cr_rs1_rs2_edges (Test source rs1 = 0xfffffffe rs2 = 0xfffffffe)
  RVTEST_TESTDATA_LOAD_INT(x24, x17) # load rs1: x17 = 0xfffffffe
    2728:	000c2883          	lw	x17,0(x24)
    272c:	004c0c13          	addi	x24,x24,4
  RVTEST_TESTDATA_LOAD_INT(x24, x23) # load rs2: x23 = 0xfffffffe
    2730:	000c2b83          	lw	x23,0(x24)
    2734:	004c0c13          	addi	x24,x24,4

00002738 <I_or_cg_cr_rs1_rs2_edges_rs1val_0xfffffffe_rs2val_0xfffffffe>:
I_or_cg_cr_rs1_rs2_edges_rs1val_0xfffffffe_rs2val_0xfffffffe:
  or x29, x17, x23 # perform operation
    2738:	0178eeb3          	or	x29,x17,x23
  # Check if x29 contains the expected result. x11 is the signature ptr, x5 is the link ptr, x4 is a temp reg.
  RVTEST_SIGUPD(x11, x5, x4, x29, I_or_cg_cr_rs1_rs2_edges_rs1val_0xfffffffe_rs2val_0xfffffffe, I_or_cg_cr_rs1_rs2_edges_rs1val_0xfffffffe_rs2val_0xfffffffe_str)
    273c:	0005a203          	lw	x4,0(x11)
    2740:	01d20863          	beq	x4,x29,2750 <I_or_cg_cr_rs1_rs2_edges_rs1val_0xfffffffe_rs2val_0xfffffffe+0x18>
    2744:	579012ef          	jal	x5,44bc <failedtest_x5_x4>
    2748:	00002738          	.word	0x00002738
    274c:	0000c693          	.word	0x0000c693
    2750:	00458593          	addi	x11,x11,4

# Testcase cr_rs1_rs2_edges (Test source rs1 = 0xfffffffe rs2 = 0x5bbc8872)
  RVTEST_TESTDATA_LOAD_INT(x24, x7) # load rs1: x7 = 0xfffffffe
    2754:	000c2383          	lw	x7,0(x24)
    2758:	004c0c13          	addi	x24,x24,4
  RVTEST_TESTDATA_LOAD_INT(x24, x30) # load rs2: x30 = 0x5bbc8872
    275c:	000c2f03          	lw	x30,0(x24)
    2760:	004c0c13          	addi	x24,x24,4

00002764 <I_or_cg_cr_rs1_rs2_edges_rs1val_0xfffffffe_rs2val_0x5bbc8872>:
I_or_cg_cr_rs1_rs2_edges_rs1val_0xfffffffe_rs2val_0x5bbc8872:
  or x19, x7, x30 # perform operation
    2764:	01e3e9b3          	or	x19,x7,x30
  # Check if x19 contains the expected result. x11 is the signature ptr, x5 is the link ptr, x4 is a temp reg.
  RVTEST_SIGUPD(x11, x5, x4, x19, I_or_cg_cr_rs1_rs2_edges_rs1val_0xfffffffe_rs2val_0x5bbc8872, I_or_cg_cr_rs1_rs2_edges_rs1val_0xfffffffe_rs2val_0x5bbc8872_str)
    2768:	0005a203          	lw	x4,0(x11)
    276c:	01320863          	beq	x4,x19,277c <I_or_cg_cr_rs1_rs2_edges_rs1val_0xfffffffe_rs2val_0x5bbc8872+0x18>
    2770:	54d012ef          	jal	x5,44bc <failedtest_x5_x4>
    2774:	00002764          	.word	0x00002764
    2778:	0000c6ed          	.word	0x0000c6ed
    277c:	00458593          	addi	x11,x11,4

# Testcase cr_rs1_rs2_edges (Test source rs1 = 0xfffffffe rs2 = 0xaaaaaaaa)
  RVTEST_TESTDATA_LOAD_INT(x24, x9) # load rs1: x9 = 0xfffffffe
    2780:	000c2483          	lw	x9,0(x24)
    2784:	004c0c13          	addi	x24,x24,4
  RVTEST_TESTDATA_LOAD_INT(x24, x20) # load rs2: x20 = 0xaaaaaaaa
    2788:	000c2a03          	lw	x20,0(x24)
    278c:	004c0c13          	addi	x24,x24,4

00002790 <I_or_cg_cr_rs1_rs2_edges_rs1val_0xfffffffe_rs2val_0xaaaaaaaa>:
I_or_cg_cr_rs1_rs2_edges_rs1val_0xfffffffe_rs2val_0xaaaaaaaa:
  or x31, x9, x20 # perform operation
    2790:	0144efb3          	or	x31,x9,x20
  # Check if x31 contains the expected result. x11 is the signature ptr, x5 is the link ptr, x4 is a temp reg.
  RVTEST_SIGUPD(x11, x5, x4, x31, I_or_cg_cr_rs1_rs2_edges_rs1val_0xfffffffe_rs2val_0xaaaaaaaa, I_or_cg_cr_rs1_rs2_edges_rs1val_0xfffffffe_rs2val_0xaaaaaaaa_str)
    2794:	0005a203          	lw	x4,0(x11)
    2798:	01f20863          	beq	x4,x31,27a8 <I_or_cg_cr_rs1_rs2_edges_rs1val_0xfffffffe_rs2val_0xaaaaaaaa+0x18>
    279c:	521012ef          	jal	x5,44bc <failedtest_x5_x4>
    27a0:	00002790          	.word	0x00002790
    27a4:	0000c747          	.word	0x0000c747
    27a8:	00458593          	addi	x11,x11,4

# Testcase cr_rs1_rs2_edges (Test source rs1 = 0xfffffffe rs2 = 0x55555555)
  RVTEST_TESTDATA_LOAD_INT(x24, x16) # load rs1: x16 = 0xfffffffe
    27ac:	000c2803          	lw	x16,0(x24)
    27b0:	004c0c13          	addi	x24,x24,4
  RVTEST_TESTDATA_LOAD_INT(x24, x20) # load rs2: x20 = 0x55555555
    27b4:	000c2a03          	lw	x20,0(x24)
    27b8:	004c0c13          	addi	x24,x24,4

000027bc <I_or_cg_cr_rs1_rs2_edges_rs1val_0xfffffffe_rs2val_0x55555555>:
I_or_cg_cr_rs1_rs2_edges_rs1val_0xfffffffe_rs2val_0x55555555:
  or x7, x16, x20 # perform operation
    27bc:	014863b3          	or	x7,x16,x20
  # Check if x7 contains the expected result. x11 is the signature ptr, x5 is the link ptr, x4 is a temp reg.
  RVTEST_SIGUPD(x11, x5, x4, x7, I_or_cg_cr_rs1_rs2_edges_rs1val_0xfffffffe_rs2val_0x55555555, I_or_cg_cr_rs1_rs2_edges_rs1val_0xfffffffe_rs2val_0x55555555_str)
    27c0:	0005a203          	lw	x4,0(x11)
    27c4:	00720863          	beq	x4,x7,27d4 <I_or_cg_cr_rs1_rs2_edges_rs1val_0xfffffffe_rs2val_0x55555555+0x18>
    27c8:	4f5012ef          	jal	x5,44bc <failedtest_x5_x4>
    27cc:	000027bc          	.word	0x000027bc
    27d0:	0000c7a1          	.word	0x0000c7a1
    27d4:	00458593          	addi	x11,x11,4

# Testcase cr_rs1_rs2_edges (Test source rs1 = 0x5bbc8872 rs2 = 0x00000000)
  RVTEST_TESTDATA_LOAD_INT(x24, x26) # load rs1: x26 = 0x5bbc8872
    27d8:	000c2d03          	lw	x26,0(x24)
    27dc:	004c0c13          	addi	x24,x24,4
  RVTEST_TESTDATA_LOAD_INT(x24, x16) # load rs2: x16 = 0x00000000
    27e0:	000c2803          	lw	x16,0(x24)
    27e4:	004c0c13          	addi	x24,x24,4

000027e8 <I_or_cg_cr_rs1_rs2_edges_rs1val_0x5bbc8872_rs2val_0x0>:
I_or_cg_cr_rs1_rs2_edges_rs1val_0x5bbc8872_rs2val_0x0:
  or x2, x26, x16 # perform operation
    27e8:	010d6133          	or	x2,x26,x16
  # Check if x2 contains the expected result. x11 is the signature ptr, x5 is the link ptr, x4 is a temp reg.
  RVTEST_SIGUPD(x11, x5, x4, x2, I_or_cg_cr_rs1_rs2_edges_rs1val_0x5bbc8872_rs2val_0x0, I_or_cg_cr_rs1_rs2_edges_rs1val_0x5bbc8872_rs2val_0x0_str)
    27ec:	0005a203          	lw	x4,0(x11)
    27f0:	00220863          	beq	x4,x2,2800 <I_or_cg_cr_rs1_rs2_edges_rs1val_0x5bbc8872_rs2val_0x0+0x18>
    27f4:	4c9012ef          	jal	x5,44bc <failedtest_x5_x4>
    27f8:	000027e8          	.word	0x000027e8
    27fc:	0000c7fb          	.word	0x0000c7fb
    2800:	00458593          	addi	x11,x11,4

# Testcase cr_rs1_rs2_edges (Test source rs1 = 0x5bbc8872 rs2 = 0x00000001)
  RVTEST_TESTDATA_LOAD_INT(x24, x21) # load rs1: x21 = 0x5bbc8872
    2804:	000c2a83          	lw	x21,0(x24)
    2808:	004c0c13          	addi	x24,x24,4
  RVTEST_TESTDATA_LOAD_INT(x24, x29) # load rs2: x29 = 0x00000001
    280c:	000c2e83          	lw	x29,0(x24)
    2810:	004c0c13          	addi	x24,x24,4

00002814 <I_or_cg_cr_rs1_rs2_edges_rs1val_0x5bbc8872_rs2val_0x1>:
I_or_cg_cr_rs1_rs2_edges_rs1val_0x5bbc8872_rs2val_0x1:
  or x27, x21, x29 # perform operation
    2814:	01daedb3          	or	x27,x21,x29
  # Check if x27 contains the expected result. x11 is the signature ptr, x5 is the link ptr, x4 is a temp reg.
  RVTEST_SIGUPD(x11, x5, x4, x27, I_or_cg_cr_rs1_rs2_edges_rs1val_0x5bbc8872_rs2val_0x1, I_or_cg_cr_rs1_rs2_edges_rs1val_0x5bbc8872_rs2val_0x1_str)
    2818:	0005a203          	lw	x4,0(x11)
    281c:	01b20863          	beq	x4,x27,282c <I_or_cg_cr_rs1_rs2_edges_rs1val_0x5bbc8872_rs2val_0x1+0x18>
    2820:	49d012ef          	jal	x5,44bc <failedtest_x5_x4>
    2824:	00002814          	.word	0x00002814
    2828:	0000c84e          	.word	0x0000c84e
    282c:	00458593          	addi	x11,x11,4

# Testcase cr_rs1_rs2_edges (Test source rs1 = 0x5bbc8872 rs2 = 0x00000002)
  RVTEST_TESTDATA_LOAD_INT(x24, x12) # load rs1: x12 = 0x5bbc8872
    2830:	000c2603          	lw	x12,0(x24)
    2834:	004c0c13          	addi	x24,x24,4
  RVTEST_TESTDATA_LOAD_INT(x24, x20) # load rs2: x20 = 0x00000002
    2838:	000c2a03          	lw	x20,0(x24)
    283c:	004c0c13          	addi	x24,x24,4

00002840 <I_or_cg_cr_rs1_rs2_edges_rs1val_0x5bbc8872_rs2val_0x2>:
I_or_cg_cr_rs1_rs2_edges_rs1val_0x5bbc8872_rs2val_0x2:
  or x17, x12, x20 # perform operation
    2840:	014668b3          	or	x17,x12,x20
  # Check if x17 contains the expected result. x11 is the signature ptr, x5 is the link ptr, x4 is a temp reg.
  RVTEST_SIGUPD(x11, x5, x4, x17, I_or_cg_cr_rs1_rs2_edges_rs1val_0x5bbc8872_rs2val_0x2, I_or_cg_cr_rs1_rs2_edges_rs1val_0x5bbc8872_rs2val_0x2_str)
    2844:	0005a203          	lw	x4,0(x11)
    2848:	01120863          	beq	x4,x17,2858 <I_or_cg_cr_rs1_rs2_edges_rs1val_0x5bbc8872_rs2val_0x2+0x18>
    284c:	471012ef          	jal	x5,44bc <failedtest_x5_x4>
    2850:	00002840          	.word	0x00002840
    2854:	0000c8a1          	.word	0x0000c8a1
    2858:	00458593          	addi	x11,x11,4

# Testcase cr_rs1_rs2_edges (Test source rs1 = 0x5bbc8872 rs2 = 0x80000000)
  RVTEST_TESTDATA_LOAD_INT(x24, x30) # load rs1: x30 = 0x5bbc8872
    285c:	000c2f03          	lw	x30,0(x24)
    2860:	004c0c13          	addi	x24,x24,4
  RVTEST_TESTDATA_LOAD_INT(x24, x21) # load rs2: x21 = 0x80000000
    2864:	000c2a83          	lw	x21,0(x24)
    2868:	004c0c13          	addi	x24,x24,4

0000286c <I_or_cg_cr_rs1_rs2_edges_rs1val_0x5bbc8872_rs2val_0x80000000>:
I_or_cg_cr_rs1_rs2_edges_rs1val_0x5bbc8872_rs2val_0x80000000:
  or x28, x30, x21 # perform operation
    286c:	015f6e33          	or	x28,x30,x21
  # Check if x28 contains the expected result. x11 is the signature ptr, x5 is the link ptr, x4 is a temp reg.
  RVTEST_SIGUPD(x11, x5, x4, x28, I_or_cg_cr_rs1_rs2_edges_rs1val_0x5bbc8872_rs2val_0x80000000, I_or_cg_cr_rs1_rs2_edges_rs1val_0x5bbc8872_rs2val_0x80000000_str)
    2870:	0005a203          	lw	x4,0(x11)
    2874:	01c20863          	beq	x4,x28,2884 <I_or_cg_cr_rs1_rs2_edges_rs1val_0x5bbc8872_rs2val_0x80000000+0x18>
    2878:	445012ef          	jal	x5,44bc <failedtest_x5_x4>
    287c:	0000286c          	.word	0x0000286c
    2880:	0000c8f4          	.word	0x0000c8f4
    2884:	00458593          	addi	x11,x11,4

# Testcase cr_rs1_rs2_edges (Test source rs1 = 0x5bbc8872 rs2 = 0x80000001)
  RVTEST_TESTDATA_LOAD_INT(x24, x7) # load rs1: x7 = 0x5bbc8872
    2888:	000c2383          	lw	x7,0(x24)
    288c:	004c0c13          	addi	x24,x24,4
  RVTEST_TESTDATA_LOAD_INT(x24, x2) # load rs2: x2 = 0x80000001
    2890:	000c2103          	lw	x2,0(x24)
    2894:	004c0c13          	addi	x24,x24,4

00002898 <I_or_cg_cr_rs1_rs2_edges_rs1val_0x5bbc8872_rs2val_0x80000001>:
I_or_cg_cr_rs1_rs2_edges_rs1val_0x5bbc8872_rs2val_0x80000001:
  or x30, x7, x2 # perform operation
    2898:	0023ef33          	or	x30,x7,x2
  # Check if x30 contains the expected result. x11 is the signature ptr, x5 is the link ptr, x4 is a temp reg.
  RVTEST_SIGUPD(x11, x5, x4, x30, I_or_cg_cr_rs1_rs2_edges_rs1val_0x5bbc8872_rs2val_0x80000001, I_or_cg_cr_rs1_rs2_edges_rs1val_0x5bbc8872_rs2val_0x80000001_str)
    289c:	0005a203          	lw	x4,0(x11)
    28a0:	01e20863          	beq	x4,x30,28b0 <I_or_cg_cr_rs1_rs2_edges_rs1val_0x5bbc8872_rs2val_0x80000001+0x18>
    28a4:	419012ef          	jal	x5,44bc <failedtest_x5_x4>
    28a8:	00002898          	.word	0x00002898
    28ac:	0000c94e          	.word	0x0000c94e
    28b0:	00458593          	addi	x11,x11,4

# Testcase cr_rs1_rs2_edges (Test source rs1 = 0x5bbc8872 rs2 = 0x7fffffff)
  RVTEST_TESTDATA_LOAD_INT(x24, x22) # load rs1: x22 = 0x5bbc8872
    28b4:	000c2b03          	lw	x22,0(x24)
    28b8:	004c0c13          	addi	x24,x24,4
  RVTEST_TESTDATA_LOAD_INT(x24, x21) # load rs2: x21 = 0x7fffffff
    28bc:	000c2a83          	lw	x21,0(x24)
    28c0:	004c0c13          	addi	x24,x24,4

000028c4 <I_or_cg_cr_rs1_rs2_edges_rs1val_0x5bbc8872_rs2val_0x7fffffff>:
I_or_cg_cr_rs1_rs2_edges_rs1val_0x5bbc8872_rs2val_0x7fffffff:
  or x16, x22, x21 # perform operation
    28c4:	015b6833          	or	x16,x22,x21
  # Check if x16 contains the expected result. x11 is the signature ptr, x5 is the link ptr, x4 is a temp reg.
  RVTEST_SIGUPD(x11, x5, x4, x16, I_or_cg_cr_rs1_rs2_edges_rs1val_0x5bbc8872_rs2val_0x7fffffff, I_or_cg_cr_rs1_rs2_edges_rs1val_0x5bbc8872_rs2val_0x7fffffff_str)
    28c8:	0005a203          	lw	x4,0(x11)
    28cc:	01020863          	beq	x4,x16,28dc <I_or_cg_cr_rs1_rs2_edges_rs1val_0x5bbc8872_rs2val_0x7fffffff+0x18>
    28d0:	3ed012ef          	jal	x5,44bc <failedtest_x5_x4>
    28d4:	000028c4          	.word	0x000028c4
    28d8:	0000c9a8          	.word	0x0000c9a8
    28dc:	00458593          	addi	x11,x11,4

# Testcase cr_rs1_rs2_edges (Test source rs1 = 0x5bbc8872 rs2 = 0x7ffffffe)
  RVTEST_TESTDATA_LOAD_INT(x24, x13) # load rs1: x13 = 0x5bbc8872
    28e0:	000c2683          	lw	x13,0(x24)
    28e4:	004c0c13          	addi	x24,x24,4
  RVTEST_TESTDATA_LOAD_INT(x24, x22) # load rs2: x22 = 0x7ffffffe
    28e8:	000c2b03          	lw	x22,0(x24)
    28ec:	004c0c13          	addi	x24,x24,4

000028f0 <I_or_cg_cr_rs1_rs2_edges_rs1val_0x5bbc8872_rs2val_0x7ffffffe>:
I_or_cg_cr_rs1_rs2_edges_rs1val_0x5bbc8872_rs2val_0x7ffffffe:
  or x21, x13, x22 # perform operation
    28f0:	0166eab3          	or	x21,x13,x22
  # Check if x21 contains the expected result. x11 is the signature ptr, x5 is the link ptr, x4 is a temp reg.
  RVTEST_SIGUPD(x11, x5, x4, x21, I_or_cg_cr_rs1_rs2_edges_rs1val_0x5bbc8872_rs2val_0x7ffffffe, I_or_cg_cr_rs1_rs2_edges_rs1val_0x5bbc8872_rs2val_0x7ffffffe_str)
    28f4:	0005a203          	lw	x4,0(x11)
    28f8:	01520863          	beq	x4,x21,2908 <I_or_cg_cr_rs1_rs2_edges_rs1val_0x5bbc8872_rs2val_0x7ffffffe+0x18>
    28fc:	3c1012ef          	jal	x5,44bc <failedtest_x5_x4>
    2900:	000028f0          	.word	0x000028f0
    2904:	0000ca02          	.word	0x0000ca02
    2908:	00458593          	addi	x11,x11,4

# Testcase cr_rs1_rs2_edges (Test source rs1 = 0x5bbc8872 rs2 = 0xffffffff)
  RVTEST_TESTDATA_LOAD_INT(x24, x31) # load rs1: x31 = 0x5bbc8872
    290c:	000c2f83          	lw	x31,0(x24)
    2910:	004c0c13          	addi	x24,x24,4
  RVTEST_TESTDATA_LOAD_INT(x24, x8) # load rs2: x8 = 0xffffffff
    2914:	000c2403          	lw	x8,0(x24)
    2918:	004c0c13          	addi	x24,x24,4

0000291c <I_or_cg_cr_rs1_rs2_edges_rs1val_0x5bbc8872_rs2val_0xffffffff>:
I_or_cg_cr_rs1_rs2_edges_rs1val_0x5bbc8872_rs2val_0xffffffff:
  or x10, x31, x8 # perform operation
    291c:	008fe533          	or	x10,x31,x8
  # Check if x10 contains the expected result. x11 is the signature ptr, x5 is the link ptr, x4 is a temp reg.
  RVTEST_SIGUPD(x11, x5, x4, x10, I_or_cg_cr_rs1_rs2_edges_rs1val_0x5bbc8872_rs2val_0xffffffff, I_or_cg_cr_rs1_rs2_edges_rs1val_0x5bbc8872_rs2val_0xffffffff_str)
    2920:	0005a203          	lw	x4,0(x11)
    2924:	00a20863          	beq	x4,x10,2934 <I_or_cg_cr_rs1_rs2_edges_rs1val_0x5bbc8872_rs2val_0xffffffff+0x18>
    2928:	395012ef          	jal	x5,44bc <failedtest_x5_x4>
    292c:	0000291c          	.word	0x0000291c
    2930:	0000ca5c          	.word	0x0000ca5c
    2934:	00458593          	addi	x11,x11,4

# Testcase cr_rs1_rs2_edges (Test source rs1 = 0x5bbc8872 rs2 = 0xfffffffe)
  RVTEST_TESTDATA_LOAD_INT(x24, x14) # load rs1: x14 = 0x5bbc8872
    2938:	000c2703          	lw	x14,0(x24)
    293c:	004c0c13          	addi	x24,x24,4
  RVTEST_TESTDATA_LOAD_INT(x24, x29) # load rs2: x29 = 0xfffffffe
    2940:	000c2e83          	lw	x29,0(x24)
    2944:	004c0c13          	addi	x24,x24,4

00002948 <I_or_cg_cr_rs1_rs2_edges_rs1val_0x5bbc8872_rs2val_0xfffffffe>:
I_or_cg_cr_rs1_rs2_edges_rs1val_0x5bbc8872_rs2val_0xfffffffe:
  or x22, x14, x29 # perform operation
    2948:	01d76b33          	or	x22,x14,x29
  # Check if x22 contains the expected result. x11 is the signature ptr, x5 is the link ptr, x4 is a temp reg.
  RVTEST_SIGUPD(x11, x5, x4, x22, I_or_cg_cr_rs1_rs2_edges_rs1val_0x5bbc8872_rs2val_0xfffffffe, I_or_cg_cr_rs1_rs2_edges_rs1val_0x5bbc8872_rs2val_0xfffffffe_str)
    294c:	0005a203          	lw	x4,0(x11)
    2950:	01620863          	beq	x4,x22,2960 <I_or_cg_cr_rs1_rs2_edges_rs1val_0x5bbc8872_rs2val_0xfffffffe+0x18>
    2954:	369012ef          	jal	x5,44bc <failedtest_x5_x4>
    2958:	00002948          	.word	0x00002948
    295c:	0000cab6          	.word	0x0000cab6
    2960:	00458593          	addi	x11,x11,4

# Testcase cr_rs1_rs2_edges (Test source rs1 = 0x5bbc8872 rs2 = 0x5bbc8872)
  RVTEST_TESTDATA_LOAD_INT(x24, x12) # load rs1: x12 = 0x5bbc8872
    2964:	000c2603          	lw	x12,0(x24)
    2968:	004c0c13          	addi	x24,x24,4
  RVTEST_TESTDATA_LOAD_INT(x24, x30) # load rs2: x30 = 0x5bbc8872
    296c:	000c2f03          	lw	x30,0(x24)
    2970:	004c0c13          	addi	x24,x24,4

00002974 <I_or_cg_cr_rs1_rs2_edges_rs1val_0x5bbc8872_rs2val_0x5bbc8872>:
I_or_cg_cr_rs1_rs2_edges_rs1val_0x5bbc8872_rs2val_0x5bbc8872:
  or x14, x12, x30 # perform operation
    2974:	01e66733          	or	x14,x12,x30
  # Check if x14 contains the expected result. x11 is the signature ptr, x5 is the link ptr, x4 is a temp reg.
  RVTEST_SIGUPD(x11, x5, x4, x14, I_or_cg_cr_rs1_rs2_edges_rs1val_0x5bbc8872_rs2val_0x5bbc8872, I_or_cg_cr_rs1_rs2_edges_rs1val_0x5bbc8872_rs2val_0x5bbc8872_str)
    2978:	0005a203          	lw	x4,0(x11)
    297c:	00e20863          	beq	x4,x14,298c <I_or_cg_cr_rs1_rs2_edges_rs1val_0x5bbc8872_rs2val_0x5bbc8872+0x18>
    2980:	33d012ef          	jal	x5,44bc <failedtest_x5_x4>
    2984:	00002974          	.word	0x00002974
    2988:	0000cb10          	.word	0x0000cb10
    298c:	00458593          	addi	x11,x11,4

# Testcase cr_rs1_rs2_edges (Test source rs1 = 0x5bbc8872 rs2 = 0xaaaaaaaa)
  RVTEST_TESTDATA_LOAD_INT(x24, x6) # load rs1: x6 = 0x5bbc8872
    2990:	000c2303          	lw	x6,0(x24)
    2994:	004c0c13          	addi	x24,x24,4
  RVTEST_TESTDATA_LOAD_INT(x24, x12) # load rs2: x12 = 0xaaaaaaaa
    2998:	000c2603          	lw	x12,0(x24)
    299c:	004c0c13          	addi	x24,x24,4

000029a0 <I_or_cg_cr_rs1_rs2_edges_rs1val_0x5bbc8872_rs2val_0xaaaaaaaa>:
I_or_cg_cr_rs1_rs2_edges_rs1val_0x5bbc8872_rs2val_0xaaaaaaaa:
  or x20, x6, x12 # perform operation
    29a0:	00c36a33          	or	x20,x6,x12
  # Check if x20 contains the expected result. x11 is the signature ptr, x5 is the link ptr, x4 is a temp reg.
  RVTEST_SIGUPD(x11, x5, x4, x20, I_or_cg_cr_rs1_rs2_edges_rs1val_0x5bbc8872_rs2val_0xaaaaaaaa, I_or_cg_cr_rs1_rs2_edges_rs1val_0x5bbc8872_rs2val_0xaaaaaaaa_str)
    29a4:	0005a203          	lw	x4,0(x11)
    29a8:	01420863          	beq	x4,x20,29b8 <I_or_cg_cr_rs1_rs2_edges_rs1val_0x5bbc8872_rs2val_0xaaaaaaaa+0x18>
    29ac:	311012ef          	jal	x5,44bc <failedtest_x5_x4>
    29b0:	000029a0          	.word	0x000029a0
    29b4:	0000cb6a          	.word	0x0000cb6a
    29b8:	00458593          	addi	x11,x11,4

# Testcase cr_rs1_rs2_edges (Test source rs1 = 0x5bbc8872 rs2 = 0x55555555)
  RVTEST_TESTDATA_LOAD_INT(x24, x10) # load rs1: x10 = 0x5bbc8872
    29bc:	000c2503          	lw	x10,0(x24)
    29c0:	004c0c13          	addi	x24,x24,4
  RVTEST_TESTDATA_LOAD_INT(x24, x22) # load rs2: x22 = 0x55555555
    29c4:	000c2b03          	lw	x22,0(x24)
    29c8:	004c0c13          	addi	x24,x24,4

000029cc <I_or_cg_cr_rs1_rs2_edges_rs1val_0x5bbc8872_rs2val_0x55555555>:
I_or_cg_cr_rs1_rs2_edges_rs1val_0x5bbc8872_rs2val_0x55555555:
  or x18, x10, x22 # perform operation
    29cc:	01656933          	or	x18,x10,x22
  # Check if x18 contains the expected result. x11 is the signature ptr, x5 is the link ptr, x4 is a temp reg.
  RVTEST_SIGUPD(x11, x5, x4, x18, I_or_cg_cr_rs1_rs2_edges_rs1val_0x5bbc8872_rs2val_0x55555555, I_or_cg_cr_rs1_rs2_edges_rs1val_0x5bbc8872_rs2val_0x55555555_str)
    29d0:	0005a203          	lw	x4,0(x11)
    29d4:	01220863          	beq	x4,x18,29e4 <I_or_cg_cr_rs1_rs2_edges_rs1val_0x5bbc8872_rs2val_0x55555555+0x18>
    29d8:	2e5012ef          	jal	x5,44bc <failedtest_x5_x4>
    29dc:	000029cc          	.word	0x000029cc
    29e0:	0000cbc4          	.word	0x0000cbc4
    29e4:	00458593          	addi	x11,x11,4

# Testcase cr_rs1_rs2_edges (Test source rs1 = 0xaaaaaaaa rs2 = 0x00000000)
  RVTEST_TESTDATA_LOAD_INT(x24, x25) # load rs1: x25 = 0xaaaaaaaa
    29e8:	000c2c83          	lw	x25,0(x24)
    29ec:	004c0c13          	addi	x24,x24,4
  RVTEST_TESTDATA_LOAD_INT(x24, x20) # load rs2: x20 = 0x00000000
    29f0:	000c2a03          	lw	x20,0(x24)
    29f4:	004c0c13          	addi	x24,x24,4

000029f8 <I_or_cg_cr_rs1_rs2_edges_rs1val_0xaaaaaaaa_rs2val_0x0>:
I_or_cg_cr_rs1_rs2_edges_rs1val_0xaaaaaaaa_rs2val_0x0:
  or x15, x25, x20 # perform operation
    29f8:	014ce7b3          	or	x15,x25,x20
  # Check if x15 contains the expected result. x11 is the signature ptr, x5 is the link ptr, x4 is a temp reg.
  RVTEST_SIGUPD(x11, x5, x4, x15, I_or_cg_cr_rs1_rs2_edges_rs1val_0xaaaaaaaa_rs2val_0x0, I_or_cg_cr_rs1_rs2_edges_rs1val_0xaaaaaaaa_rs2val_0x0_str)
    29fc:	0005a203          	lw	x4,0(x11)
    2a00:	00f20863          	beq	x4,x15,2a10 <I_or_cg_cr_rs1_rs2_edges_rs1val_0xaaaaaaaa_rs2val_0x0+0x18>
    2a04:	2b9012ef          	jal	x5,44bc <failedtest_x5_x4>
    2a08:	000029f8          	.word	0x000029f8
    2a0c:	0000cc1e          	.word	0x0000cc1e
    2a10:	00458593          	addi	x11,x11,4

# Testcase cr_rs1_rs2_edges (Test source rs1 = 0xaaaaaaaa rs2 = 0x00000001)
  RVTEST_TESTDATA_LOAD_INT(x24, x30) # load rs1: x30 = 0xaaaaaaaa
    2a14:	000c2f03          	lw	x30,0(x24)
    2a18:	004c0c13          	addi	x24,x24,4
  RVTEST_TESTDATA_LOAD_INT(x24, x21) # load rs2: x21 = 0x00000001
    2a1c:	000c2a83          	lw	x21,0(x24)
    2a20:	004c0c13          	addi	x24,x24,4

00002a24 <I_or_cg_cr_rs1_rs2_edges_rs1val_0xaaaaaaaa_rs2val_0x1>:
I_or_cg_cr_rs1_rs2_edges_rs1val_0xaaaaaaaa_rs2val_0x1:
  or x15, x30, x21 # perform operation
    2a24:	015f67b3          	or	x15,x30,x21
  # Check if x15 contains the expected result. x11 is the signature ptr, x5 is the link ptr, x4 is a temp reg.
  RVTEST_SIGUPD(x11, x5, x4, x15, I_or_cg_cr_rs1_rs2_edges_rs1val_0xaaaaaaaa_rs2val_0x1, I_or_cg_cr_rs1_rs2_edges_rs1val_0xaaaaaaaa_rs2val_0x1_str)
    2a28:	0005a203          	lw	x4,0(x11)
    2a2c:	00f20863          	beq	x4,x15,2a3c <I_or_cg_cr_rs1_rs2_edges_rs1val_0xaaaaaaaa_rs2val_0x1+0x18>
    2a30:	28d012ef          	jal	x5,44bc <failedtest_x5_x4>
    2a34:	00002a24          	.word	0x00002a24
    2a38:	0000cc71          	.word	0x0000cc71
    2a3c:	00458593          	addi	x11,x11,4

# Testcase cr_rs1_rs2_edges (Test source rs1 = 0xaaaaaaaa rs2 = 0x00000002)
  RVTEST_TESTDATA_LOAD_INT(x24, x19) # load rs1: x19 = 0xaaaaaaaa
    2a40:	000c2983          	lw	x19,0(x24)
    2a44:	004c0c13          	addi	x24,x24,4
  RVTEST_TESTDATA_LOAD_INT(x24, x25) # load rs2: x25 = 0x00000002
    2a48:	000c2c83          	lw	x25,0(x24)
    2a4c:	004c0c13          	addi	x24,x24,4

00002a50 <I_or_cg_cr_rs1_rs2_edges_rs1val_0xaaaaaaaa_rs2val_0x2>:
I_or_cg_cr_rs1_rs2_edges_rs1val_0xaaaaaaaa_rs2val_0x2:
  or x21, x19, x25 # perform operation
    2a50:	0199eab3          	or	x21,x19,x25
  # Check if x21 contains the expected result. x11 is the signature ptr, x5 is the link ptr, x4 is a temp reg.
  RVTEST_SIGUPD(x11, x5, x4, x21, I_or_cg_cr_rs1_rs2_edges_rs1val_0xaaaaaaaa_rs2val_0x2, I_or_cg_cr_rs1_rs2_edges_rs1val_0xaaaaaaaa_rs2val_0x2_str)
    2a54:	0005a203          	lw	x4,0(x11)
    2a58:	01520863          	beq	x4,x21,2a68 <I_or_cg_cr_rs1_rs2_edges_rs1val_0xaaaaaaaa_rs2val_0x2+0x18>
    2a5c:	261012ef          	jal	x5,44bc <failedtest_x5_x4>
    2a60:	00002a50          	.word	0x00002a50
    2a64:	0000ccc4          	.word	0x0000ccc4
    2a68:	00458593          	addi	x11,x11,4

# Testcase cr_rs1_rs2_edges (Test source rs1 = 0xaaaaaaaa rs2 = 0x80000000)
  RVTEST_TESTDATA_LOAD_INT(x24, x8) # load rs1: x8 = 0xaaaaaaaa
    2a6c:	000c2403          	lw	x8,0(x24)
    2a70:	004c0c13          	addi	x24,x24,4
  RVTEST_TESTDATA_LOAD_INT(x24, x6) # load rs2: x6 = 0x80000000
    2a74:	000c2303          	lw	x6,0(x24)
    2a78:	004c0c13          	addi	x24,x24,4

00002a7c <I_or_cg_cr_rs1_rs2_edges_rs1val_0xaaaaaaaa_rs2val_0x80000000>:
I_or_cg_cr_rs1_rs2_edges_rs1val_0xaaaaaaaa_rs2val_0x80000000:
  or x1, x8, x6 # perform operation
    2a7c:	006460b3          	or	x1,x8,x6
  # Check if x1 contains the expected result. x11 is the signature ptr, x5 is the link ptr, x4 is a temp reg.
  RVTEST_SIGUPD(x11, x5, x4, x1, I_or_cg_cr_rs1_rs2_edges_rs1val_0xaaaaaaaa_rs2val_0x80000000, I_or_cg_cr_rs1_rs2_edges_rs1val_0xaaaaaaaa_rs2val_0x80000000_str)
    2a80:	0005a203          	lw	x4,0(x11)
    2a84:	00120863          	beq	x4,x1,2a94 <I_or_cg_cr_rs1_rs2_edges_rs1val_0xaaaaaaaa_rs2val_0x80000000+0x18>
    2a88:	235012ef          	jal	x5,44bc <failedtest_x5_x4>
    2a8c:	00002a7c          	.word	0x00002a7c
    2a90:	0000cd17          	.word	0x0000cd17
    2a94:	00458593          	addi	x11,x11,4

# Testcase cr_rs1_rs2_edges (Test source rs1 = 0xaaaaaaaa rs2 = 0x80000001)
  RVTEST_TESTDATA_LOAD_INT(x24, x26) # load rs1: x26 = 0xaaaaaaaa
    2a98:	000c2d03          	lw	x26,0(x24)
    2a9c:	004c0c13          	addi	x24,x24,4
  RVTEST_TESTDATA_LOAD_INT(x24, x29) # load rs2: x29 = 0x80000001
    2aa0:	000c2e83          	lw	x29,0(x24)
    2aa4:	004c0c13          	addi	x24,x24,4

00002aa8 <I_or_cg_cr_rs1_rs2_edges_rs1val_0xaaaaaaaa_rs2val_0x80000001>:
I_or_cg_cr_rs1_rs2_edges_rs1val_0xaaaaaaaa_rs2val_0x80000001:
  or x25, x26, x29 # perform operation
    2aa8:	01dd6cb3          	or	x25,x26,x29
  # Check if x25 contains the expected result. x11 is the signature ptr, x5 is the link ptr, x4 is a temp reg.
  RVTEST_SIGUPD(x11, x5, x4, x25, I_or_cg_cr_rs1_rs2_edges_rs1val_0xaaaaaaaa_rs2val_0x80000001, I_or_cg_cr_rs1_rs2_edges_rs1val_0xaaaaaaaa_rs2val_0x80000001_str)
    2aac:	0005a203          	lw	x4,0(x11)
    2ab0:	01920863          	beq	x4,x25,2ac0 <I_or_cg_cr_rs1_rs2_edges_rs1val_0xaaaaaaaa_rs2val_0x80000001+0x18>
    2ab4:	209012ef          	jal	x5,44bc <failedtest_x5_x4>
    2ab8:	00002aa8          	.word	0x00002aa8
    2abc:	0000cd71          	.word	0x0000cd71
    2ac0:	00458593          	addi	x11,x11,4

# Testcase cr_rs1_rs2_edges (Test source rs1 = 0xaaaaaaaa rs2 = 0x7fffffff)
  RVTEST_TESTDATA_LOAD_INT(x24, x29) # load rs1: x29 = 0xaaaaaaaa
    2ac4:	000c2e83          	lw	x29,0(x24)
    2ac8:	004c0c13          	addi	x24,x24,4
  RVTEST_TESTDATA_LOAD_INT(x24, x12) # load rs2: x12 = 0x7fffffff
    2acc:	000c2603          	lw	x12,0(x24)
    2ad0:	004c0c13          	addi	x24,x24,4

00002ad4 <I_or_cg_cr_rs1_rs2_edges_rs1val_0xaaaaaaaa_rs2val_0x7fffffff>:
I_or_cg_cr_rs1_rs2_edges_rs1val_0xaaaaaaaa_rs2val_0x7fffffff:
  or x21, x29, x12 # perform operation
    2ad4:	00ceeab3          	or	x21,x29,x12
  # Check if x21 contains the expected result. x11 is the signature ptr, x5 is the link ptr, x4 is a temp reg.
  RVTEST_SIGUPD(x11, x5, x4, x21, I_or_cg_cr_rs1_rs2_edges_rs1val_0xaaaaaaaa_rs2val_0x7fffffff, I_or_cg_cr_rs1_rs2_edges_rs1val_0xaaaaaaaa_rs2val_0x7fffffff_str)
    2ad8:	0005a203          	lw	x4,0(x11)
    2adc:	01520863          	beq	x4,x21,2aec <I_or_cg_cr_rs1_rs2_edges_rs1val_0xaaaaaaaa_rs2val_0x7fffffff+0x18>
    2ae0:	1dd012ef          	jal	x5,44bc <failedtest_x5_x4>
    2ae4:	00002ad4          	.word	0x00002ad4
    2ae8:	0000cdcb          	.word	0x0000cdcb
    2aec:	00458593          	addi	x11,x11,4

# Testcase cr_rs1_rs2_edges (Test source rs1 = 0xaaaaaaaa rs2 = 0x7ffffffe)
  RVTEST_TESTDATA_LOAD_INT(x24, x21) # load rs1: x21 = 0xaaaaaaaa
    2af0:	000c2a83          	lw	x21,0(x24)
    2af4:	004c0c13          	addi	x24,x24,4
  RVTEST_TESTDATA_LOAD_INT(x24, x23) # load rs2: x23 = 0x7ffffffe
    2af8:	000c2b83          	lw	x23,0(x24)
    2afc:	004c0c13          	addi	x24,x24,4

00002b00 <I_or_cg_cr_rs1_rs2_edges_rs1val_0xaaaaaaaa_rs2val_0x7ffffffe>:
I_or_cg_cr_rs1_rs2_edges_rs1val_0xaaaaaaaa_rs2val_0x7ffffffe:
  or x8, x21, x23 # perform operation
    2b00:	017ae433          	or	x8,x21,x23
  # Check if x8 contains the expected result. x11 is the signature ptr, x5 is the link ptr, x4 is a temp reg.
  RVTEST_SIGUPD(x11, x5, x4, x8, I_or_cg_cr_rs1_rs2_edges_rs1val_0xaaaaaaaa_rs2val_0x7ffffffe, I_or_cg_cr_rs1_rs2_edges_rs1val_0xaaaaaaaa_rs2val_0x7ffffffe_str)
    2b04:	0005a203          	lw	x4,0(x11)
    2b08:	00820863          	beq	x4,x8,2b18 <I_or_cg_cr_rs1_rs2_edges_rs1val_0xaaaaaaaa_rs2val_0x7ffffffe+0x18>
    2b0c:	1b1012ef          	jal	x5,44bc <failedtest_x5_x4>
    2b10:	00002b00          	.word	0x00002b00
    2b14:	0000ce25          	.word	0x0000ce25
    2b18:	00458593          	addi	x11,x11,4

# Testcase cr_rs1_rs2_edges (Test source rs1 = 0xaaaaaaaa rs2 = 0xffffffff)
  RVTEST_TESTDATA_LOAD_INT(x24, x8) # load rs1: x8 = 0xaaaaaaaa
    2b1c:	000c2403          	lw	x8,0(x24)
    2b20:	004c0c13          	addi	x24,x24,4
  RVTEST_TESTDATA_LOAD_INT(x24, x12) # load rs2: x12 = 0xffffffff
    2b24:	000c2603          	lw	x12,0(x24)
    2b28:	004c0c13          	addi	x24,x24,4

00002b2c <I_or_cg_cr_rs1_rs2_edges_rs1val_0xaaaaaaaa_rs2val_0xffffffff>:
I_or_cg_cr_rs1_rs2_edges_rs1val_0xaaaaaaaa_rs2val_0xffffffff:
  or x9, x8, x12 # perform operation
    2b2c:	00c464b3          	or	x9,x8,x12
  # Check if x9 contains the expected result. x11 is the signature ptr, x5 is the link ptr, x4 is a temp reg.
  RVTEST_SIGUPD(x11, x5, x4, x9, I_or_cg_cr_rs1_rs2_edges_rs1val_0xaaaaaaaa_rs2val_0xffffffff, I_or_cg_cr_rs1_rs2_edges_rs1val_0xaaaaaaaa_rs2val_0xffffffff_str)
    2b30:	0005a203          	lw	x4,0(x11)
    2b34:	00920863          	beq	x4,x9,2b44 <I_or_cg_cr_rs1_rs2_edges_rs1val_0xaaaaaaaa_rs2val_0xffffffff+0x18>
    2b38:	185012ef          	jal	x5,44bc <failedtest_x5_x4>
    2b3c:	00002b2c          	.word	0x00002b2c
    2b40:	0000ce7f          	.word	0x0000ce7f
    2b44:	00458593          	addi	x11,x11,4

# Testcase cr_rs1_rs2_edges (Test source rs1 = 0xaaaaaaaa rs2 = 0xfffffffe)
  RVTEST_TESTDATA_LOAD_INT(x24, x15) # load rs1: x15 = 0xaaaaaaaa
    2b48:	000c2783          	lw	x15,0(x24)
    2b4c:	004c0c13          	addi	x24,x24,4
  RVTEST_TESTDATA_LOAD_INT(x24, x12) # load rs2: x12 = 0xfffffffe
    2b50:	000c2603          	lw	x12,0(x24)
    2b54:	004c0c13          	addi	x24,x24,4

00002b58 <I_or_cg_cr_rs1_rs2_edges_rs1val_0xaaaaaaaa_rs2val_0xfffffffe>:
I_or_cg_cr_rs1_rs2_edges_rs1val_0xaaaaaaaa_rs2val_0xfffffffe:
  or x9, x15, x12 # perform operation
    2b58:	00c7e4b3          	or	x9,x15,x12
  # Check if x9 contains the expected result. x11 is the signature ptr, x5 is the link ptr, x4 is a temp reg.
  RVTEST_SIGUPD(x11, x5, x4, x9, I_or_cg_cr_rs1_rs2_edges_rs1val_0xaaaaaaaa_rs2val_0xfffffffe, I_or_cg_cr_rs1_rs2_edges_rs1val_0xaaaaaaaa_rs2val_0xfffffffe_str)
    2b5c:	0005a203          	lw	x4,0(x11)
    2b60:	00920863          	beq	x4,x9,2b70 <I_or_cg_cr_rs1_rs2_edges_rs1val_0xaaaaaaaa_rs2val_0xfffffffe+0x18>
    2b64:	159012ef          	jal	x5,44bc <failedtest_x5_x4>
    2b68:	00002b58          	.word	0x00002b58
    2b6c:	0000ced9          	.word	0x0000ced9
    2b70:	00458593          	addi	x11,x11,4

# Testcase cr_rs1_rs2_edges (Test source rs1 = 0xaaaaaaaa rs2 = 0x5bbc8872)
  RVTEST_TESTDATA_LOAD_INT(x24, x16) # load rs1: x16 = 0xaaaaaaaa
    2b74:	000c2803          	lw	x16,0(x24)
    2b78:	004c0c13          	addi	x24,x24,4
  RVTEST_TESTDATA_LOAD_INT(x24, x2) # load rs2: x2 = 0x5bbc8872
    2b7c:	000c2103          	lw	x2,0(x24)
    2b80:	004c0c13          	addi	x24,x24,4

00002b84 <I_or_cg_cr_rs1_rs2_edges_rs1val_0xaaaaaaaa_rs2val_0x5bbc8872>:
I_or_cg_cr_rs1_rs2_edges_rs1val_0xaaaaaaaa_rs2val_0x5bbc8872:
  or x1, x16, x2 # perform operation
    2b84:	002860b3          	or	x1,x16,x2
  # Check if x1 contains the expected result. x11 is the signature ptr, x5 is the link ptr, x4 is a temp reg.
  RVTEST_SIGUPD(x11, x5, x4, x1, I_or_cg_cr_rs1_rs2_edges_rs1val_0xaaaaaaaa_rs2val_0x5bbc8872, I_or_cg_cr_rs1_rs2_edges_rs1val_0xaaaaaaaa_rs2val_0x5bbc8872_str)
    2b88:	0005a203          	lw	x4,0(x11)
    2b8c:	00120863          	beq	x4,x1,2b9c <I_or_cg_cr_rs1_rs2_edges_rs1val_0xaaaaaaaa_rs2val_0x5bbc8872+0x18>
    2b90:	12d012ef          	jal	x5,44bc <failedtest_x5_x4>
    2b94:	00002b84          	.word	0x00002b84
    2b98:	0000cf33          	.word	0x0000cf33
    2b9c:	00458593          	addi	x11,x11,4

# Testcase cr_rs1_rs2_edges (Test source rs1 = 0xaaaaaaaa rs2 = 0xaaaaaaaa)
  RVTEST_TESTDATA_LOAD_INT(x24, x8) # load rs1: x8 = 0xaaaaaaaa
    2ba0:	000c2403          	lw	x8,0(x24)
    2ba4:	004c0c13          	addi	x24,x24,4
  RVTEST_TESTDATA_LOAD_INT(x24, x31) # load rs2: x31 = 0xaaaaaaaa
    2ba8:	000c2f83          	lw	x31,0(x24)
    2bac:	004c0c13          	addi	x24,x24,4

00002bb0 <I_or_cg_cr_rs1_rs2_edges_rs1val_0xaaaaaaaa_rs2val_0xaaaaaaaa>:
I_or_cg_cr_rs1_rs2_edges_rs1val_0xaaaaaaaa_rs2val_0xaaaaaaaa:
  or x10, x8, x31 # perform operation
    2bb0:	01f46533          	or	x10,x8,x31
  # Check if x10 contains the expected result. x11 is the signature ptr, x5 is the link ptr, x4 is a temp reg.
  RVTEST_SIGUPD(x11, x5, x4, x10, I_or_cg_cr_rs1_rs2_edges_rs1val_0xaaaaaaaa_rs2val_0xaaaaaaaa, I_or_cg_cr_rs1_rs2_edges_rs1val_0xaaaaaaaa_rs2val_0xaaaaaaaa_str)
    2bb4:	0005a203          	lw	x4,0(x11)
    2bb8:	00a20863          	beq	x4,x10,2bc8 <I_or_cg_cr_rs1_rs2_edges_rs1val_0xaaaaaaaa_rs2val_0xaaaaaaaa+0x18>
    2bbc:	101012ef          	jal	x5,44bc <failedtest_x5_x4>
    2bc0:	00002bb0          	.word	0x00002bb0
    2bc4:	0000cf8d          	.word	0x0000cf8d
    2bc8:	00458593          	addi	x11,x11,4

# Testcase cr_rs1_rs2_edges (Test source rs1 = 0xaaaaaaaa rs2 = 0x55555555)
  RVTEST_TESTDATA_LOAD_INT(x24, x27) # load rs1: x27 = 0xaaaaaaaa
    2bcc:	000c2d83          	lw	x27,0(x24)
    2bd0:	004c0c13          	addi	x24,x24,4
  RVTEST_TESTDATA_LOAD_INT(x24, x15) # load rs2: x15 = 0x55555555
    2bd4:	000c2783          	lw	x15,0(x24)
    2bd8:	004c0c13          	addi	x24,x24,4

00002bdc <I_or_cg_cr_rs1_rs2_edges_rs1val_0xaaaaaaaa_rs2val_0x55555555>:
I_or_cg_cr_rs1_rs2_edges_rs1val_0xaaaaaaaa_rs2val_0x55555555:
  or x14, x27, x15 # perform operation
    2bdc:	00fde733          	or	x14,x27,x15
  # Check if x14 contains the expected result. x11 is the signature ptr, x5 is the link ptr, x4 is a temp reg.
  RVTEST_SIGUPD(x11, x5, x4, x14, I_or_cg_cr_rs1_rs2_edges_rs1val_0xaaaaaaaa_rs2val_0x55555555, I_or_cg_cr_rs1_rs2_edges_rs1val_0xaaaaaaaa_rs2val_0x55555555_str)
    2be0:	0005a203          	lw	x4,0(x11)
    2be4:	00e20863          	beq	x4,x14,2bf4 <I_or_cg_cr_rs1_rs2_edges_rs1val_0xaaaaaaaa_rs2val_0x55555555+0x18>
    2be8:	0d5012ef          	jal	x5,44bc <failedtest_x5_x4>
    2bec:	00002bdc          	.word	0x00002bdc
    2bf0:	0000cfe7          	.word	0x0000cfe7
    2bf4:	00458593          	addi	x11,x11,4

# Testcase cr_rs1_rs2_edges (Test source rs1 = 0x55555555 rs2 = 0x00000000)
  RVTEST_TESTDATA_LOAD_INT(x24, x10) # load rs1: x10 = 0x55555555
    2bf8:	000c2503          	lw	x10,0(x24)
    2bfc:	004c0c13          	addi	x24,x24,4
  RVTEST_TESTDATA_LOAD_INT(x24, x18) # load rs2: x18 = 0x00000000
    2c00:	000c2903          	lw	x18,0(x24)
    2c04:	004c0c13          	addi	x24,x24,4

00002c08 <I_or_cg_cr_rs1_rs2_edges_rs1val_0x55555555_rs2val_0x0>:
I_or_cg_cr_rs1_rs2_edges_rs1val_0x55555555_rs2val_0x0:
  or x19, x10, x18 # perform operation
    2c08:	012569b3          	or	x19,x10,x18
  # Check if x19 contains the expected result. x11 is the signature ptr, x5 is the link ptr, x4 is a temp reg.
  RVTEST_SIGUPD(x11, x5, x4, x19, I_or_cg_cr_rs1_rs2_edges_rs1val_0x55555555_rs2val_0x0, I_or_cg_cr_rs1_rs2_edges_rs1val_0x55555555_rs2val_0x0_str)
    2c0c:	0005a203          	lw	x4,0(x11)
    2c10:	01320863          	beq	x4,x19,2c20 <I_or_cg_cr_rs1_rs2_edges_rs1val_0x55555555_rs2val_0x0+0x18>
    2c14:	0a9012ef          	jal	x5,44bc <failedtest_x5_x4>
    2c18:	00002c08          	.word	0x00002c08
    2c1c:	0000d041          	.word	0x0000d041
    2c20:	00458593          	addi	x11,x11,4

# Testcase cr_rs1_rs2_edges (Test source rs1 = 0x55555555 rs2 = 0x00000001)
  RVTEST_TESTDATA_LOAD_INT(x24, x7) # load rs1: x7 = 0x55555555
    2c24:	000c2383          	lw	x7,0(x24)
    2c28:	004c0c13          	addi	x24,x24,4
  RVTEST_TESTDATA_LOAD_INT(x24, x27) # load rs2: x27 = 0x00000001
    2c2c:	000c2d83          	lw	x27,0(x24)
    2c30:	004c0c13          	addi	x24,x24,4

00002c34 <I_or_cg_cr_rs1_rs2_edges_rs1val_0x55555555_rs2val_0x1>:
I_or_cg_cr_rs1_rs2_edges_rs1val_0x55555555_rs2val_0x1:
  or x3, x7, x27 # perform operation
    2c34:	01b3e1b3          	or	x3,x7,x27
  # Check if x3 contains the expected result. x11 is the signature ptr, x5 is the link ptr, x4 is a temp reg.
  RVTEST_SIGUPD(x11, x5, x4, x3, I_or_cg_cr_rs1_rs2_edges_rs1val_0x55555555_rs2val_0x1, I_or_cg_cr_rs1_rs2_edges_rs1val_0x55555555_rs2val_0x1_str)
    2c38:	0005a203          	lw	x4,0(x11)
    2c3c:	00320863          	beq	x4,x3,2c4c <I_or_cg_cr_rs1_rs2_edges_rs1val_0x55555555_rs2val_0x1+0x18>
    2c40:	07d012ef          	jal	x5,44bc <failedtest_x5_x4>
    2c44:	00002c34          	.word	0x00002c34
    2c48:	0000d094          	.word	0x0000d094
    2c4c:	00458593          	addi	x11,x11,4

# Testcase cr_rs1_rs2_edges (Test source rs1 = 0x55555555 rs2 = 0x00000002)
  RVTEST_TESTDATA_LOAD_INT(x24, x17) # load rs1: x17 = 0x55555555
    2c50:	000c2883          	lw	x17,0(x24)
    2c54:	004c0c13          	addi	x24,x24,4
  RVTEST_TESTDATA_LOAD_INT(x24, x28) # load rs2: x28 = 0x00000002
    2c58:	000c2e03          	lw	x28,0(x24)
    2c5c:	004c0c13          	addi	x24,x24,4

00002c60 <I_or_cg_cr_rs1_rs2_edges_rs1val_0x55555555_rs2val_0x2>:
I_or_cg_cr_rs1_rs2_edges_rs1val_0x55555555_rs2val_0x2:
  or x26, x17, x28 # perform operation
    2c60:	01c8ed33          	or	x26,x17,x28
  # Check if x26 contains the expected result. x11 is the signature ptr, x5 is the link ptr, x4 is a temp reg.
  RVTEST_SIGUPD(x11, x5, x4, x26, I_or_cg_cr_rs1_rs2_edges_rs1val_0x55555555_rs2val_0x2, I_or_cg_cr_rs1_rs2_edges_rs1val_0x55555555_rs2val_0x2_str)
    2c64:	0005a203          	lw	x4,0(x11)
    2c68:	01a20863          	beq	x4,x26,2c78 <I_or_cg_cr_rs1_rs2_edges_rs1val_0x55555555_rs2val_0x2+0x18>
    2c6c:	051012ef          	jal	x5,44bc <failedtest_x5_x4>
    2c70:	00002c60          	.word	0x00002c60
    2c74:	0000d0e7          	.word	0x0000d0e7
    2c78:	00458593          	addi	x11,x11,4

# Testcase cr_rs1_rs2_edges (Test source rs1 = 0x55555555 rs2 = 0x80000000)
  RVTEST_TESTDATA_LOAD_INT(x24, x3) # load rs1: x3 = 0x55555555
    2c7c:	000c2183          	lw	x3,0(x24)
    2c80:	004c0c13          	addi	x24,x24,4
  RVTEST_TESTDATA_LOAD_INT(x24, x31) # load rs2: x31 = 0x80000000
    2c84:	000c2f83          	lw	x31,0(x24)
    2c88:	004c0c13          	addi	x24,x24,4

00002c8c <I_or_cg_cr_rs1_rs2_edges_rs1val_0x55555555_rs2val_0x80000000>:
I_or_cg_cr_rs1_rs2_edges_rs1val_0x55555555_rs2val_0x80000000:
  or x28, x3, x31 # perform operation
    2c8c:	01f1ee33          	or	x28,x3,x31
  # Check if x28 contains the expected result. x11 is the signature ptr, x5 is the link ptr, x4 is a temp reg.
  RVTEST_SIGUPD(x11, x5, x4, x28, I_or_cg_cr_rs1_rs2_edges_rs1val_0x55555555_rs2val_0x80000000, I_or_cg_cr_rs1_rs2_edges_rs1val_0x55555555_rs2val_0x80000000_str)
    2c90:	0005a203          	lw	x4,0(x11)
    2c94:	01c20863          	beq	x4,x28,2ca4 <I_or_cg_cr_rs1_rs2_edges_rs1val_0x55555555_rs2val_0x80000000+0x18>
    2c98:	025012ef          	jal	x5,44bc <failedtest_x5_x4>
    2c9c:	00002c8c          	.word	0x00002c8c
    2ca0:	0000d13a          	.word	0x0000d13a
    2ca4:	00458593          	addi	x11,x11,4

# Testcase cr_rs1_rs2_edges (Test source rs1 = 0x55555555 rs2 = 0x80000001)
  RVTEST_TESTDATA_LOAD_INT(x24, x19) # load rs1: x19 = 0x55555555
    2ca8:	000c2983          	lw	x19,0(x24)
    2cac:	004c0c13          	addi	x24,x24,4
  RVTEST_TESTDATA_LOAD_INT(x24, x12) # load rs2: x12 = 0x80000001
    2cb0:	000c2603          	lw	x12,0(x24)
    2cb4:	004c0c13          	addi	x24,x24,4

00002cb8 <I_or_cg_cr_rs1_rs2_edges_rs1val_0x55555555_rs2val_0x80000001>:
I_or_cg_cr_rs1_rs2_edges_rs1val_0x55555555_rs2val_0x80000001:
  or x16, x19, x12 # perform operation
    2cb8:	00c9e833          	or	x16,x19,x12
  # Check if x16 contains the expected result. x11 is the signature ptr, x5 is the link ptr, x4 is a temp reg.
  RVTEST_SIGUPD(x11, x5, x4, x16, I_or_cg_cr_rs1_rs2_edges_rs1val_0x55555555_rs2val_0x80000001, I_or_cg_cr_rs1_rs2_edges_rs1val_0x55555555_rs2val_0x80000001_str)
    2cbc:	0005a203          	lw	x4,0(x11)
    2cc0:	01020863          	beq	x4,x16,2cd0 <I_or_cg_cr_rs1_rs2_edges_rs1val_0x55555555_rs2val_0x80000001+0x18>
    2cc4:	7f8012ef          	jal	x5,44bc <failedtest_x5_x4>
    2cc8:	00002cb8          	.word	0x00002cb8
    2ccc:	0000d194          	.word	0x0000d194
    2cd0:	00458593          	addi	x11,x11,4

# Testcase cr_rs1_rs2_edges (Test source rs1 = 0x55555555 rs2 = 0x7fffffff)
  RVTEST_TESTDATA_LOAD_INT(x24, x30) # load rs1: x30 = 0x55555555
    2cd4:	000c2f03          	lw	x30,0(x24)
    2cd8:	004c0c13          	addi	x24,x24,4
  RVTEST_TESTDATA_LOAD_INT(x24, x13) # load rs2: x13 = 0x7fffffff
    2cdc:	000c2683          	lw	x13,0(x24)
    2ce0:	004c0c13          	addi	x24,x24,4

00002ce4 <I_or_cg_cr_rs1_rs2_edges_rs1val_0x55555555_rs2val_0x7fffffff>:
I_or_cg_cr_rs1_rs2_edges_rs1val_0x55555555_rs2val_0x7fffffff:
  or x19, x30, x13 # perform operation
    2ce4:	00df69b3          	or	x19,x30,x13
  # Check if x19 contains the expected result. x11 is the signature ptr, x5 is the link ptr, x4 is a temp reg.
  RVTEST_SIGUPD(x11, x5, x4, x19, I_or_cg_cr_rs1_rs2_edges_rs1val_0x55555555_rs2val_0x7fffffff, I_or_cg_cr_rs1_rs2_edges_rs1val_0x55555555_rs2val_0x7fffffff_str)
    2ce8:	0005a203          	lw	x4,0(x11)
    2cec:	01320863          	beq	x4,x19,2cfc <I_or_cg_cr_rs1_rs2_edges_rs1val_0x55555555_rs2val_0x7fffffff+0x18>
    2cf0:	7cc012ef          	jal	x5,44bc <failedtest_x5_x4>
    2cf4:	00002ce4          	.word	0x00002ce4
    2cf8:	0000d1ee          	.word	0x0000d1ee
    2cfc:	00458593          	addi	x11,x11,4

# Testcase cr_rs1_rs2_edges (Test source rs1 = 0x55555555 rs2 = 0x7ffffffe)
  RVTEST_TESTDATA_LOAD_INT(x24, x28) # load rs1: x28 = 0x55555555
    2d00:	000c2e03          	lw	x28,0(x24)
    2d04:	004c0c13          	addi	x24,x24,4
  RVTEST_TESTDATA_LOAD_INT(x24, x16) # load rs2: x16 = 0x7ffffffe
    2d08:	000c2803          	lw	x16,0(x24)
    2d0c:	004c0c13          	addi	x24,x24,4

00002d10 <I_or_cg_cr_rs1_rs2_edges_rs1val_0x55555555_rs2val_0x7ffffffe>:
I_or_cg_cr_rs1_rs2_edges_rs1val_0x55555555_rs2val_0x7ffffffe:
  or x7, x28, x16 # perform operation
    2d10:	010e63b3          	or	x7,x28,x16
  # Check if x7 contains the expected result. x11 is the signature ptr, x5 is the link ptr, x4 is a temp reg.
  RVTEST_SIGUPD(x11, x5, x4, x7, I_or_cg_cr_rs1_rs2_edges_rs1val_0x55555555_rs2val_0x7ffffffe, I_or_cg_cr_rs1_rs2_edges_rs1val_0x55555555_rs2val_0x7ffffffe_str)
    2d14:	0005a203          	lw	x4,0(x11)
    2d18:	00720863          	beq	x4,x7,2d28 <I_or_cg_cr_rs1_rs2_edges_rs1val_0x55555555_rs2val_0x7ffffffe+0x18>
    2d1c:	7a0012ef          	jal	x5,44bc <failedtest_x5_x4>
    2d20:	00002d10          	.word	0x00002d10
    2d24:	0000d248          	.word	0x0000d248
    2d28:	00458593          	addi	x11,x11,4

# Testcase cr_rs1_rs2_edges (Test source rs1 = 0x55555555 rs2 = 0xffffffff)
  RVTEST_TESTDATA_LOAD_INT(x24, x27) # load rs1: x27 = 0x55555555
    2d2c:	000c2d83          	lw	x27,0(x24)
    2d30:	004c0c13          	addi	x24,x24,4
  RVTEST_TESTDATA_LOAD_INT(x24, x3) # load rs2: x3 = 0xffffffff
    2d34:	000c2183          	lw	x3,0(x24)
    2d38:	004c0c13          	addi	x24,x24,4

00002d3c <I_or_cg_cr_rs1_rs2_edges_rs1val_0x55555555_rs2val_0xffffffff>:
I_or_cg_cr_rs1_rs2_edges_rs1val_0x55555555_rs2val_0xffffffff:
  or x20, x27, x3 # perform operation
    2d3c:	003dea33          	or	x20,x27,x3
  # Check if x20 contains the expected result. x11 is the signature ptr, x5 is the link ptr, x4 is a temp reg.
  RVTEST_SIGUPD(x11, x5, x4, x20, I_or_cg_cr_rs1_rs2_edges_rs1val_0x55555555_rs2val_0xffffffff, I_or_cg_cr_rs1_rs2_edges_rs1val_0x55555555_rs2val_0xffffffff_str)
    2d40:	0005a203          	lw	x4,0(x11)
    2d44:	01420863          	beq	x4,x20,2d54 <I_or_cg_cr_rs1_rs2_edges_rs1val_0x55555555_rs2val_0xffffffff+0x18>
    2d48:	774012ef          	jal	x5,44bc <failedtest_x5_x4>
    2d4c:	00002d3c          	.word	0x00002d3c
    2d50:	0000d2a2          	.word	0x0000d2a2
    2d54:	00458593          	addi	x11,x11,4

# Testcase cr_rs1_rs2_edges (Test source rs1 = 0x55555555 rs2 = 0xfffffffe)
  RVTEST_TESTDATA_LOAD_INT(x24, x19) # load rs1: x19 = 0x55555555
    2d58:	000c2983          	lw	x19,0(x24)
    2d5c:	004c0c13          	addi	x24,x24,4
  RVTEST_TESTDATA_LOAD_INT(x24, x30) # load rs2: x30 = 0xfffffffe
    2d60:	000c2f03          	lw	x30,0(x24)
    2d64:	004c0c13          	addi	x24,x24,4

00002d68 <I_or_cg_cr_rs1_rs2_edges_rs1val_0x55555555_rs2val_0xfffffffe>:
I_or_cg_cr_rs1_rs2_edges_rs1val_0x55555555_rs2val_0xfffffffe:
  or x29, x19, x30 # perform operation
    2d68:	01e9eeb3          	or	x29,x19,x30
  # Check if x29 contains the expected result. x11 is the signature ptr, x5 is the link ptr, x4 is a temp reg.
  RVTEST_SIGUPD(x11, x5, x4, x29, I_or_cg_cr_rs1_rs2_edges_rs1val_0x55555555_rs2val_0xfffffffe, I_or_cg_cr_rs1_rs2_edges_rs1val_0x55555555_rs2val_0xfffffffe_str)
    2d6c:	0005a203          	lw	x4,0(x11)
    2d70:	01d20863          	beq	x4,x29,2d80 <I_or_cg_cr_rs1_rs2_edges_rs1val_0x55555555_rs2val_0xfffffffe+0x18>
    2d74:	748012ef          	jal	x5,44bc <failedtest_x5_x4>
    2d78:	00002d68          	.word	0x00002d68
    2d7c:	0000d2fc          	.word	0x0000d2fc
    2d80:	00458593          	addi	x11,x11,4

# Testcase cr_rs1_rs2_edges (Test source rs1 = 0x55555555 rs2 = 0x5bbc8872)
  RVTEST_TESTDATA_LOAD_INT(x24, x20) # load rs1: x20 = 0x55555555
    2d84:	000c2a03          	lw	x20,0(x24)
    2d88:	004c0c13          	addi	x24,x24,4
  RVTEST_TESTDATA_LOAD_INT(x24, x7) # load rs2: x7 = 0x5bbc8872
    2d8c:	000c2383          	lw	x7,0(x24)
    2d90:	004c0c13          	addi	x24,x24,4

00002d94 <I_or_cg_cr_rs1_rs2_edges_rs1val_0x55555555_rs2val_0x5bbc8872>:
I_or_cg_cr_rs1_rs2_edges_rs1val_0x55555555_rs2val_0x5bbc8872:
  or x28, x20, x7 # perform operation
    2d94:	007a6e33          	or	x28,x20,x7
  # Check if x28 contains the expected result. x11 is the signature ptr, x5 is the link ptr, x4 is a temp reg.
  RVTEST_SIGUPD(x11, x5, x4, x28, I_or_cg_cr_rs1_rs2_edges_rs1val_0x55555555_rs2val_0x5bbc8872, I_or_cg_cr_rs1_rs2_edges_rs1val_0x55555555_rs2val_0x5bbc8872_str)
    2d98:	0005a203          	lw	x4,0(x11)
    2d9c:	01c20863          	beq	x4,x28,2dac <I_or_cg_cr_rs1_rs2_edges_rs1val_0x55555555_rs2val_0x5bbc8872+0x18>
    2da0:	71c012ef          	jal	x5,44bc <failedtest_x5_x4>
    2da4:	00002d94          	.word	0x00002d94
    2da8:	0000d356          	.word	0x0000d356
    2dac:	00458593          	addi	x11,x11,4

# Testcase cr_rs1_rs2_edges (Test source rs1 = 0x55555555 rs2 = 0xaaaaaaaa)
  RVTEST_TESTDATA_LOAD_INT(x24, x21) # load rs1: x21 = 0x55555555
    2db0:	000c2a83          	lw	x21,0(x24)
    2db4:	004c0c13          	addi	x24,x24,4
  RVTEST_TESTDATA_LOAD_INT(x24, x19) # load rs2: x19 = 0xaaaaaaaa
    2db8:	000c2983          	lw	x19,0(x24)
    2dbc:	004c0c13          	addi	x24,x24,4

00002dc0 <I_or_cg_cr_rs1_rs2_edges_rs1val_0x55555555_rs2val_0xaaaaaaaa>:
I_or_cg_cr_rs1_rs2_edges_rs1val_0x55555555_rs2val_0xaaaaaaaa:
  or x28, x21, x19 # perform operation
    2dc0:	013aee33          	or	x28,x21,x19
  # Check if x28 contains the expected result. x11 is the signature ptr, x5 is the link ptr, x4 is a temp reg.
  RVTEST_SIGUPD(x11, x5, x4, x28, I_or_cg_cr_rs1_rs2_edges_rs1val_0x55555555_rs2val_0xaaaaaaaa, I_or_cg_cr_rs1_rs2_edges_rs1val_0x55555555_rs2val_0xaaaaaaaa_str)
    2dc4:	0005a203          	lw	x4,0(x11)
    2dc8:	01c20863          	beq	x4,x28,2dd8 <I_or_cg_cr_rs1_rs2_edges_rs1val_0x55555555_rs2val_0xaaaaaaaa+0x18>
    2dcc:	6f0012ef          	jal	x5,44bc <failedtest_x5_x4>
    2dd0:	00002dc0          	.word	0x00002dc0
    2dd4:	0000d3b0          	.word	0x0000d3b0
    2dd8:	00458593          	addi	x11,x11,4

# Testcase cr_rs1_rs2_edges (Test source rs1 = 0x55555555 rs2 = 0x55555555)
  RVTEST_TESTDATA_LOAD_INT(x24, x30) # load rs1: x30 = 0x55555555
    2ddc:	000c2f03          	lw	x30,0(x24)
    2de0:	004c0c13          	addi	x24,x24,4
  RVTEST_TESTDATA_LOAD_INT(x24, x23) # load rs2: x23 = 0x55555555
    2de4:	000c2b83          	lw	x23,0(x24)
    2de8:	004c0c13          	addi	x24,x24,4

00002dec <I_or_cg_cr_rs1_rs2_edges_rs1val_0x55555555_rs2val_0x55555555>:
I_or_cg_cr_rs1_rs2_edges_rs1val_0x55555555_rs2val_0x55555555:
  or x14, x30, x23 # perform operation
    2dec:	017f6733          	or	x14,x30,x23
  # Check if x14 contains the expected result. x11 is the signature ptr, x5 is the link ptr, x4 is a temp reg.
  RVTEST_SIGUPD(x11, x5, x4, x14, I_or_cg_cr_rs1_rs2_edges_rs1val_0x55555555_rs2val_0x55555555, I_or_cg_cr_rs1_rs2_edges_rs1val_0x55555555_rs2val_0x55555555_str)
    2df0:	0005a203          	lw	x4,0(x11)
    2df4:	00e20863          	beq	x4,x14,2e04 <I_or_cg_cr_rs1_rs2_edges_rs1val_0x55555555_rs2val_0x55555555+0x18>
    2df8:	6c4012ef          	jal	x5,44bc <failedtest_x5_x4>
    2dfc:	00002dec          	.word	0x00002dec
    2e00:	0000d40a          	.word	0x0000d40a
    2e04:	00458593          	addi	x11,x11,4
/////////////////////////////////
// cmp_rs1_rs2
/////////////////////////////////

# Testcase cmp_rs1_rs2 (Test rs1 = rs2 = x0)
  RVTEST_TESTDATA_LOAD_INT(x24, x0) # load rs1: x0 = 0x3d8b68c1
    2e08:	000c2003          	lw	x0,0(x24)
    2e0c:	004c0c13          	addi	x24,x24,4
  RVTEST_TESTDATA_LOAD_INT(x24, x0) # load rs2: x0 = 0x89c388ba
    2e10:	000c2003          	lw	x0,0(x24)
    2e14:	004c0c13          	addi	x24,x24,4

00002e18 <I_or_cg_cmp_rs1_rs2_b0>:
I_or_cg_cmp_rs1_rs2_b0:
  or x29, x0, x0 # perform operation
    2e18:	00006eb3          	or	x29,x0,x0
  # Check if x29 contains the expected result. x11 is the signature ptr, x5 is the link ptr, x4 is a temp reg.
  RVTEST_SIGUPD(x11, x5, x4, x29, I_or_cg_cmp_rs1_rs2_b0, I_or_cg_cmp_rs1_rs2_b0_str)
    2e1c:	0005a203          	lw	x4,0(x11)
    2e20:	01d20863          	beq	x4,x29,2e30 <I_or_cg_cmp_rs1_rs2_b0+0x18>
    2e24:	698012ef          	jal	x5,44bc <failedtest_x5_x4>
    2e28:	00002e18          	.word	0x00002e18
    2e2c:	0000d464          	.word	0x0000d464
    2e30:	00458593          	addi	x11,x11,4

# Testcase cmp_rs1_rs2 (Test rs1 = rs2 = x1)
  RVTEST_TESTDATA_LOAD_INT(x24, x1) # load rs1: x1 = 0xa6fc68dc
    2e34:	000c2083          	lw	x1,0(x24)
    2e38:	004c0c13          	addi	x24,x24,4
  RVTEST_TESTDATA_LOAD_INT(x24, x1) # load rs2: x1 = 0xf2965e40
    2e3c:	000c2083          	lw	x1,0(x24)
    2e40:	004c0c13          	addi	x24,x24,4

00002e44 <I_or_cg_cmp_rs1_rs2_b1>:
I_or_cg_cmp_rs1_rs2_b1:
  or x6, x1, x1 # perform operation
    2e44:	0010e333          	or	x6,x1,x1
  # Check if x6 contains the expected result. x11 is the signature ptr, x5 is the link ptr, x4 is a temp reg.
  RVTEST_SIGUPD(x11, x5, x4, x6, I_or_cg_cmp_rs1_rs2_b1, I_or_cg_cmp_rs1_rs2_b1_str)
    2e48:	0005a203          	lw	x4,0(x11)
    2e4c:	00620863          	beq	x4,x6,2e5c <I_or_cg_cmp_rs1_rs2_b1+0x18>
    2e50:	66c012ef          	jal	x5,44bc <failedtest_x5_x4>
    2e54:	00002e44          	.word	0x00002e44
    2e58:	0000d497          	.word	0x0000d497
    2e5c:	00458593          	addi	x11,x11,4

# Testcase cmp_rs1_rs2 (Test rs1 = rs2 = x2)
  RVTEST_TESTDATA_LOAD_INT(x24, x2) # load rs1: x2 = 0xc03c5660
    2e60:	000c2103          	lw	x2,0(x24)
    2e64:	004c0c13          	addi	x24,x24,4
  RVTEST_TESTDATA_LOAD_INT(x24, x2) # load rs2: x2 = 0xe1cb8f6f
    2e68:	000c2103          	lw	x2,0(x24)
    2e6c:	004c0c13          	addi	x24,x24,4

00002e70 <I_or_cg_cmp_rs1_rs2_b2>:
I_or_cg_cmp_rs1_rs2_b2:
  or x31, x2, x2 # perform operation
    2e70:	00216fb3          	or	x31,x2,x2
  # Check if x31 contains the expected result. x11 is the signature ptr, x5 is the link ptr, x4 is a temp reg.
  RVTEST_SIGUPD(x11, x5, x4, x31, I_or_cg_cmp_rs1_rs2_b2, I_or_cg_cmp_rs1_rs2_b2_str)
    2e74:	0005a203          	lw	x4,0(x11)
    2e78:	01f20863          	beq	x4,x31,2e88 <I_or_cg_cmp_rs1_rs2_b2+0x18>
    2e7c:	640012ef          	jal	x5,44bc <failedtest_x5_x4>
    2e80:	00002e70          	.word	0x00002e70
    2e84:	0000d4ca          	.word	0x0000d4ca
    2e88:	00458593          	addi	x11,x11,4

# Testcase cmp_rs1_rs2 (Test rs1 = rs2 = x3)
  RVTEST_TESTDATA_LOAD_INT(x24, x3) # load rs1: x3 = 0xb3f02cd0
    2e8c:	000c2183          	lw	x3,0(x24)
    2e90:	004c0c13          	addi	x24,x24,4
  RVTEST_TESTDATA_LOAD_INT(x24, x3) # load rs2: x3 = 0x261b85bb
    2e94:	000c2183          	lw	x3,0(x24)
    2e98:	004c0c13          	addi	x24,x24,4

00002e9c <I_or_cg_cmp_rs1_rs2_b3>:
I_or_cg_cmp_rs1_rs2_b3:
  or x8, x3, x3 # perform operation
    2e9c:	0031e433          	or	x8,x3,x3
  # Check if x8 contains the expected result. x11 is the signature ptr, x5 is the link ptr, x4 is a temp reg.
  RVTEST_SIGUPD(x11, x5, x4, x8, I_or_cg_cmp_rs1_rs2_b3, I_or_cg_cmp_rs1_rs2_b3_str)
    2ea0:	0005a203          	lw	x4,0(x11)
    2ea4:	00820863          	beq	x4,x8,2eb4 <I_or_cg_cmp_rs1_rs2_b3+0x18>
    2ea8:	614012ef          	jal	x5,44bc <failedtest_x5_x4>
    2eac:	00002e9c          	.word	0x00002e9c
    2eb0:	0000d4fd          	.word	0x0000d4fd
    2eb4:	00458593          	addi	x11,x11,4

  mv x13, x4 # switch temp register to avoid conflict with test
    2eb8:	00020693          	addi	x13,x4,0 # 0 <rvtest_entry_point>
  mv x14, x5 # switch link pointer register to avoid conflict with test
    2ebc:	00028713          	addi	x14,x5,0
# Testcase cmp_rs1_rs2 (Test rs1 = rs2 = x4)
  RVTEST_TESTDATA_LOAD_INT(x24, x4) # load rs1: x4 = 0xe9ff6595
    2ec0:	000c2203          	lw	x4,0(x24)
    2ec4:	004c0c13          	addi	x24,x24,4
  RVTEST_TESTDATA_LOAD_INT(x24, x4) # load rs2: x4 = 0xb05a2193
    2ec8:	000c2203          	lw	x4,0(x24)
    2ecc:	004c0c13          	addi	x24,x24,4

00002ed0 <I_or_cg_cmp_rs1_rs2_b4>:
I_or_cg_cmp_rs1_rs2_b4:
  or x15, x4, x4 # perform operation
    2ed0:	004267b3          	or	x15,x4,x4
  # Check if x15 contains the expected result. x11 is the signature ptr, x14 is the link ptr, x13 is a temp reg.
  RVTEST_SIGUPD(x11, x14, x13, x15, I_or_cg_cmp_rs1_rs2_b4, I_or_cg_cmp_rs1_rs2_b4_str)
    2ed4:	0005a683          	lw	x13,0(x11)
    2ed8:	00f68863          	beq	x13,x15,2ee8 <I_or_cg_cmp_rs1_rs2_b4+0x18>
    2edc:	6200176f          	jal	x14,44fc <failedtest_x14_x13>
    2ee0:	00002ed0          	.word	0x00002ed0
    2ee4:	0000d530          	.word	0x0000d530
    2ee8:	00458593          	addi	x11,x11,4

# Testcase cmp_rs1_rs2 (Test rs1 = rs2 = x5)
  RVTEST_TESTDATA_LOAD_INT(x24, x5) # load rs1: x5 = 0x02958bfa
    2eec:	000c2283          	lw	x5,0(x24)
    2ef0:	004c0c13          	addi	x24,x24,4
  RVTEST_TESTDATA_LOAD_INT(x24, x5) # load rs2: x5 = 0x48a7636b
    2ef4:	000c2283          	lw	x5,0(x24)
    2ef8:	004c0c13          	addi	x24,x24,4

00002efc <I_or_cg_cmp_rs1_rs2_b5>:
I_or_cg_cmp_rs1_rs2_b5:
  or x9, x5, x5 # perform operation
    2efc:	0052e4b3          	or	x9,x5,x5
  # Check if x9 contains the expected result. x11 is the signature ptr, x14 is the link ptr, x13 is a temp reg.
  RVTEST_SIGUPD(x11, x14, x13, x9, I_or_cg_cmp_rs1_rs2_b5, I_or_cg_cmp_rs1_rs2_b5_str)
    2f00:	0005a683          	lw	x13,0(x11)
    2f04:	00968863          	beq	x13,x9,2f14 <I_or_cg_cmp_rs1_rs2_b5+0x18>
    2f08:	5f40176f          	jal	x14,44fc <failedtest_x14_x13>
    2f0c:	00002efc          	.word	0x00002efc
    2f10:	0000d563          	.word	0x0000d563
    2f14:	00458593          	addi	x11,x11,4

# Testcase cmp_rs1_rs2 (Test rs1 = rs2 = x6)
  RVTEST_TESTDATA_LOAD_INT(x24, x6) # load rs1: x6 = 0x27cb3cfb
    2f18:	000c2303          	lw	x6,0(x24)
    2f1c:	004c0c13          	addi	x24,x24,4
  RVTEST_TESTDATA_LOAD_INT(x24, x6) # load rs2: x6 = 0x1f4e4c60
    2f20:	000c2303          	lw	x6,0(x24)
    2f24:	004c0c13          	addi	x24,x24,4

00002f28 <I_or_cg_cmp_rs1_rs2_b6>:
I_or_cg_cmp_rs1_rs2_b6:
  or x3, x6, x6 # perform operation
    2f28:	006361b3          	or	x3,x6,x6
  # Check if x3 contains the expected result. x11 is the signature ptr, x14 is the link ptr, x13 is a temp reg.
  RVTEST_SIGUPD(x11, x14, x13, x3, I_or_cg_cmp_rs1_rs2_b6, I_or_cg_cmp_rs1_rs2_b6_str)
    2f2c:	0005a683          	lw	x13,0(x11)
    2f30:	00368863          	beq	x13,x3,2f40 <I_or_cg_cmp_rs1_rs2_b6+0x18>
    2f34:	5c80176f          	jal	x14,44fc <failedtest_x14_x13>
    2f38:	00002f28          	.word	0x00002f28
    2f3c:	0000d596          	.word	0x0000d596
    2f40:	00458593          	addi	x11,x11,4

# Testcase cmp_rs1_rs2 (Test rs1 = rs2 = x7)
  RVTEST_TESTDATA_LOAD_INT(x24, x7) # load rs1: x7 = 0xc512b72a
    2f44:	000c2383          	lw	x7,0(x24)
    2f48:	004c0c13          	addi	x24,x24,4
  RVTEST_TESTDATA_LOAD_INT(x24, x7) # load rs2: x7 = 0xac37b643
    2f4c:	000c2383          	lw	x7,0(x24)
    2f50:	004c0c13          	addi	x24,x24,4

00002f54 <I_or_cg_cmp_rs1_rs2_b7>:
I_or_cg_cmp_rs1_rs2_b7:
  or x15, x7, x7 # perform operation
    2f54:	0073e7b3          	or	x15,x7,x7
  # Check if x15 contains the expected result. x11 is the signature ptr, x14 is the link ptr, x13 is a temp reg.
  RVTEST_SIGUPD(x11, x14, x13, x15, I_or_cg_cmp_rs1_rs2_b7, I_or_cg_cmp_rs1_rs2_b7_str)
    2f58:	0005a683          	lw	x13,0(x11)
    2f5c:	00f68863          	beq	x13,x15,2f6c <I_or_cg_cmp_rs1_rs2_b7+0x18>
    2f60:	59c0176f          	jal	x14,44fc <failedtest_x14_x13>
    2f64:	00002f54          	.word	0x00002f54
    2f68:	0000d5c9          	.word	0x0000d5c9
    2f6c:	00458593          	addi	x11,x11,4

# Testcase cmp_rs1_rs2 (Test rs1 = rs2 = x8)
  RVTEST_TESTDATA_LOAD_INT(x24, x8) # load rs1: x8 = 0x0e76e50f
    2f70:	000c2403          	lw	x8,0(x24)
    2f74:	004c0c13          	addi	x24,x24,4
  RVTEST_TESTDATA_LOAD_INT(x24, x8) # load rs2: x8 = 0xe5d3dd92
    2f78:	000c2403          	lw	x8,0(x24)
    2f7c:	004c0c13          	addi	x24,x24,4

00002f80 <I_or_cg_cmp_rs1_rs2_b8>:
I_or_cg_cmp_rs1_rs2_b8:
  or x26, x8, x8 # perform operation
    2f80:	00846d33          	or	x26,x8,x8
  # Check if x26 contains the expected result. x11 is the signature ptr, x14 is the link ptr, x13 is a temp reg.
  RVTEST_SIGUPD(x11, x14, x13, x26, I_or_cg_cmp_rs1_rs2_b8, I_or_cg_cmp_rs1_rs2_b8_str)
    2f84:	0005a683          	lw	x13,0(x11)
    2f88:	01a68863          	beq	x13,x26,2f98 <I_or_cg_cmp_rs1_rs2_b8+0x18>
    2f8c:	5700176f          	jal	x14,44fc <failedtest_x14_x13>
    2f90:	00002f80          	.word	0x00002f80
    2f94:	0000d5fc          	.word	0x0000d5fc
    2f98:	00458593          	addi	x11,x11,4

# Testcase cmp_rs1_rs2 (Test rs1 = rs2 = x9)
  RVTEST_TESTDATA_LOAD_INT(x24, x9) # load rs1: x9 = 0xaf13c03e
    2f9c:	000c2483          	lw	x9,0(x24)
    2fa0:	004c0c13          	addi	x24,x24,4
  RVTEST_TESTDATA_LOAD_INT(x24, x9) # load rs2: x9 = 0xb89b5d2d
    2fa4:	000c2483          	lw	x9,0(x24)
    2fa8:	004c0c13          	addi	x24,x24,4

00002fac <I_or_cg_cmp_rs1_rs2_b9>:
I_or_cg_cmp_rs1_rs2_b9:
  or x15, x9, x9 # perform operation
    2fac:	0094e7b3          	or	x15,x9,x9
  # Check if x15 contains the expected result. x11 is the signature ptr, x14 is the link ptr, x13 is a temp reg.
  RVTEST_SIGUPD(x11, x14, x13, x15, I_or_cg_cmp_rs1_rs2_b9, I_or_cg_cmp_rs1_rs2_b9_str)
    2fb0:	0005a683          	lw	x13,0(x11)
    2fb4:	00f68863          	beq	x13,x15,2fc4 <I_or_cg_cmp_rs1_rs2_b9+0x18>
    2fb8:	5440176f          	jal	x14,44fc <failedtest_x14_x13>
    2fbc:	00002fac          	.word	0x00002fac
    2fc0:	0000d62f          	.word	0x0000d62f
    2fc4:	00458593          	addi	x11,x11,4

# Testcase cmp_rs1_rs2 (Test rs1 = rs2 = x10)
  RVTEST_TESTDATA_LOAD_INT(x24, x10) # load rs1: x10 = 0xb0f8fbb7
    2fc8:	000c2503          	lw	x10,0(x24)
    2fcc:	004c0c13          	addi	x24,x24,4
  RVTEST_TESTDATA_LOAD_INT(x24, x10) # load rs2: x10 = 0x17d3bff0
    2fd0:	000c2503          	lw	x10,0(x24)
    2fd4:	004c0c13          	addi	x24,x24,4

00002fd8 <I_or_cg_cmp_rs1_rs2_b10>:
I_or_cg_cmp_rs1_rs2_b10:
  or x12, x10, x10 # perform operation
    2fd8:	00a56633          	or	x12,x10,x10
  # Check if x12 contains the expected result. x11 is the signature ptr, x14 is the link ptr, x13 is a temp reg.
  RVTEST_SIGUPD(x11, x14, x13, x12, I_or_cg_cmp_rs1_rs2_b10, I_or_cg_cmp_rs1_rs2_b10_str)
    2fdc:	0005a683          	lw	x13,0(x11)
    2fe0:	00c68863          	beq	x13,x12,2ff0 <I_or_cg_cmp_rs1_rs2_b10+0x18>
    2fe4:	5180176f          	jal	x14,44fc <failedtest_x14_x13>
    2fe8:	00002fd8          	.word	0x00002fd8
    2fec:	0000d662          	.word	0x0000d662
    2ff0:	00458593          	addi	x11,x11,4

  mv x22, x11 # switch signature pointer register to avoid conflict with test
    2ff4:	00058b13          	addi	x22,x11,0
# Testcase cmp_rs1_rs2 (Test rs1 = rs2 = x11)
  RVTEST_TESTDATA_LOAD_INT(x24, x11) # load rs1: x11 = 0x18f95108
    2ff8:	000c2583          	lw	x11,0(x24)
    2ffc:	004c0c13          	addi	x24,x24,4
  RVTEST_TESTDATA_LOAD_INT(x24, x11) # load rs2: x11 = 0x2bb47efc
    3000:	000c2583          	lw	x11,0(x24)
    3004:	004c0c13          	addi	x24,x24,4

00003008 <I_or_cg_cmp_rs1_rs2_b11>:
I_or_cg_cmp_rs1_rs2_b11:
  or x15, x11, x11 # perform operation
    3008:	00b5e7b3          	or	x15,x11,x11
  # Check if x15 contains the expected result. x22 is the signature ptr, x14 is the link ptr, x13 is a temp reg.
  RVTEST_SIGUPD(x22, x14, x13, x15, I_or_cg_cmp_rs1_rs2_b11, I_or_cg_cmp_rs1_rs2_b11_str)
    300c:	000b2683          	lw	x13,0(x22)
    3010:	00f68863          	beq	x13,x15,3020 <I_or_cg_cmp_rs1_rs2_b11+0x18>
    3014:	4e80176f          	jal	x14,44fc <failedtest_x14_x13>
    3018:	00003008          	.word	0x00003008
    301c:	0000d696          	.word	0x0000d696
    3020:	004b0b13          	addi	x22,x22,4

# Testcase cmp_rs1_rs2 (Test rs1 = rs2 = x12)
  RVTEST_TESTDATA_LOAD_INT(x24, x12) # load rs1: x12 = 0xa067d8b0
    3024:	000c2603          	lw	x12,0(x24)
    3028:	004c0c13          	addi	x24,x24,4
  RVTEST_TESTDATA_LOAD_INT(x24, x12) # load rs2: x12 = 0xfd7a1428
    302c:	000c2603          	lw	x12,0(x24)
    3030:	004c0c13          	addi	x24,x24,4

00003034 <I_or_cg_cmp_rs1_rs2_b12>:
I_or_cg_cmp_rs1_rs2_b12:
  or x25, x12, x12 # perform operation
    3034:	00c66cb3          	or	x25,x12,x12
  # Check if x25 contains the expected result. x22 is the signature ptr, x14 is the link ptr, x13 is a temp reg.
  RVTEST_SIGUPD(x22, x14, x13, x25, I_or_cg_cmp_rs1_rs2_b12, I_or_cg_cmp_rs1_rs2_b12_str)
    3038:	000b2683          	lw	x13,0(x22)
    303c:	01968863          	beq	x13,x25,304c <I_or_cg_cmp_rs1_rs2_b12+0x18>
    3040:	4bc0176f          	jal	x14,44fc <failedtest_x14_x13>
    3044:	00003034          	.word	0x00003034
    3048:	0000d6ca          	.word	0x0000d6ca
    304c:	004b0b13          	addi	x22,x22,4

  mv x4, x13 # switch temp register to avoid conflict with test
    3050:	00068213          	addi	x4,x13,0
  mv x5, x14 # switch link pointer register to avoid conflict with test
    3054:	00070293          	addi	x5,x14,0
# Testcase cmp_rs1_rs2 (Test rs1 = rs2 = x13)
  RVTEST_TESTDATA_LOAD_INT(x24, x13) # load rs1: x13 = 0x97693b6a
    3058:	000c2683          	lw	x13,0(x24)
    305c:	004c0c13          	addi	x24,x24,4
  RVTEST_TESTDATA_LOAD_INT(x24, x13) # load rs2: x13 = 0x3dbd58c8
    3060:	000c2683          	lw	x13,0(x24)
    3064:	004c0c13          	addi	x24,x24,4

00003068 <I_or_cg_cmp_rs1_rs2_b13>:
I_or_cg_cmp_rs1_rs2_b13:
  or x14, x13, x13 # perform operation
    3068:	00d6e733          	or	x14,x13,x13
  # Check if x14 contains the expected result. x22 is the signature ptr, x5 is the link ptr, x4 is a temp reg.
  RVTEST_SIGUPD(x22, x5, x4, x14, I_or_cg_cmp_rs1_rs2_b13, I_or_cg_cmp_rs1_rs2_b13_str)
    306c:	000b2203          	lw	x4,0(x22)
    3070:	00e20863          	beq	x4,x14,3080 <I_or_cg_cmp_rs1_rs2_b13+0x18>
    3074:	448012ef          	jal	x5,44bc <failedtest_x5_x4>
    3078:	00003068          	.word	0x00003068
    307c:	0000d6fe          	.word	0x0000d6fe
    3080:	004b0b13          	addi	x22,x22,4

# Testcase cmp_rs1_rs2 (Test rs1 = rs2 = x14)
  RVTEST_TESTDATA_LOAD_INT(x24, x14) # load rs1: x14 = 0x46029d75
    3084:	000c2703          	lw	x14,0(x24)
    3088:	004c0c13          	addi	x24,x24,4
  RVTEST_TESTDATA_LOAD_INT(x24, x14) # load rs2: x14 = 0xef950ed9
    308c:	000c2703          	lw	x14,0(x24)
    3090:	004c0c13          	addi	x24,x24,4

00003094 <I_or_cg_cmp_rs1_rs2_b14>:
I_or_cg_cmp_rs1_rs2_b14:
  or x15, x14, x14 # perform operation
    3094:	00e767b3          	or	x15,x14,x14
  # Check if x15 contains the expected result. x22 is the signature ptr, x5 is the link ptr, x4 is a temp reg.
  RVTEST_SIGUPD(x22, x5, x4, x15, I_or_cg_cmp_rs1_rs2_b14, I_or_cg_cmp_rs1_rs2_b14_str)
    3098:	000b2203          	lw	x4,0(x22)
    309c:	00f20863          	beq	x4,x15,30ac <I_or_cg_cmp_rs1_rs2_b14+0x18>
    30a0:	41c012ef          	jal	x5,44bc <failedtest_x5_x4>
    30a4:	00003094          	.word	0x00003094
    30a8:	0000d732          	.word	0x0000d732
    30ac:	004b0b13          	addi	x22,x22,4

# Testcase cmp_rs1_rs2 (Test rs1 = rs2 = x15)
  RVTEST_TESTDATA_LOAD_INT(x24, x15) # load rs1: x15 = 0xc1dc63dd
    30b0:	000c2783          	lw	x15,0(x24)
    30b4:	004c0c13          	addi	x24,x24,4
  RVTEST_TESTDATA_LOAD_INT(x24, x15) # load rs2: x15 = 0x0e7355f8
    30b8:	000c2783          	lw	x15,0(x24)
    30bc:	004c0c13          	addi	x24,x24,4

000030c0 <I_or_cg_cmp_rs1_rs2_b15>:
I_or_cg_cmp_rs1_rs2_b15:
  or x10, x15, x15 # perform operation
    30c0:	00f7e533          	or	x10,x15,x15
  # Check if x10 contains the expected result. x22 is the signature ptr, x5 is the link ptr, x4 is a temp reg.
  RVTEST_SIGUPD(x22, x5, x4, x10, I_or_cg_cmp_rs1_rs2_b15, I_or_cg_cmp_rs1_rs2_b15_str)
    30c4:	000b2203          	lw	x4,0(x22)
    30c8:	00a20863          	beq	x4,x10,30d8 <I_or_cg_cmp_rs1_rs2_b15+0x18>
    30cc:	3f0012ef          	jal	x5,44bc <failedtest_x5_x4>
    30d0:	000030c0          	.word	0x000030c0
    30d4:	0000d766          	.word	0x0000d766
    30d8:	004b0b13          	addi	x22,x22,4

# Testcase cmp_rs1_rs2 (Test rs1 = rs2 = x16)
  RVTEST_TESTDATA_LOAD_INT(x24, x16) # load rs1: x16 = 0x56d96483
    30dc:	000c2803          	lw	x16,0(x24)
    30e0:	004c0c13          	addi	x24,x24,4
  RVTEST_TESTDATA_LOAD_INT(x24, x16) # load rs2: x16 = 0x32d6d5a5
    30e4:	000c2803          	lw	x16,0(x24)
    30e8:	004c0c13          	addi	x24,x24,4

000030ec <I_or_cg_cmp_rs1_rs2_b16>:
I_or_cg_cmp_rs1_rs2_b16:
  or x7, x16, x16 # perform operation
    30ec:	010863b3          	or	x7,x16,x16
  # Check if x7 contains the expected result. x22 is the signature ptr, x5 is the link ptr, x4 is a temp reg.
  RVTEST_SIGUPD(x22, x5, x4, x7, I_or_cg_cmp_rs1_rs2_b16, I_or_cg_cmp_rs1_rs2_b16_str)
    30f0:	000b2203          	lw	x4,0(x22)
    30f4:	00720863          	beq	x4,x7,3104 <I_or_cg_cmp_rs1_rs2_b16+0x18>
    30f8:	3c4012ef          	jal	x5,44bc <failedtest_x5_x4>
    30fc:	000030ec          	.word	0x000030ec
    3100:	0000d79a          	.word	0x0000d79a
    3104:	004b0b13          	addi	x22,x22,4

# Testcase cmp_rs1_rs2 (Test rs1 = rs2 = x17)
  RVTEST_TESTDATA_LOAD_INT(x24, x17) # load rs1: x17 = 0xcef474a8
    3108:	000c2883          	lw	x17,0(x24)
    310c:	004c0c13          	addi	x24,x24,4
  RVTEST_TESTDATA_LOAD_INT(x24, x17) # load rs2: x17 = 0x43fa488a
    3110:	000c2883          	lw	x17,0(x24)
    3114:	004c0c13          	addi	x24,x24,4

00003118 <I_or_cg_cmp_rs1_rs2_b17>:
I_or_cg_cmp_rs1_rs2_b17:
  or x1, x17, x17 # perform operation
    3118:	0118e0b3          	or	x1,x17,x17
  # Check if x1 contains the expected result. x22 is the signature ptr, x5 is the link ptr, x4 is a temp reg.
  RVTEST_SIGUPD(x22, x5, x4, x1, I_or_cg_cmp_rs1_rs2_b17, I_or_cg_cmp_rs1_rs2_b17_str)
    311c:	000b2203          	lw	x4,0(x22)
    3120:	00120863          	beq	x4,x1,3130 <I_or_cg_cmp_rs1_rs2_b17+0x18>
    3124:	398012ef          	jal	x5,44bc <failedtest_x5_x4>
    3128:	00003118          	.word	0x00003118
    312c:	0000d7ce          	.word	0x0000d7ce
    3130:	004b0b13          	addi	x22,x22,4

# Testcase cmp_rs1_rs2 (Test rs1 = rs2 = x18)
  RVTEST_TESTDATA_LOAD_INT(x24, x18) # load rs1: x18 = 0xdb13a6f7
    3134:	000c2903          	lw	x18,0(x24)
    3138:	004c0c13          	addi	x24,x24,4
  RVTEST_TESTDATA_LOAD_INT(x24, x18) # load rs2: x18 = 0x6217affa
    313c:	000c2903          	lw	x18,0(x24)
    3140:	004c0c13          	addi	x24,x24,4

00003144 <I_or_cg_cmp_rs1_rs2_b18>:
I_or_cg_cmp_rs1_rs2_b18:
  or x31, x18, x18 # perform operation
    3144:	01296fb3          	or	x31,x18,x18
  # Check if x31 contains the expected result. x22 is the signature ptr, x5 is the link ptr, x4 is a temp reg.
  RVTEST_SIGUPD(x22, x5, x4, x31, I_or_cg_cmp_rs1_rs2_b18, I_or_cg_cmp_rs1_rs2_b18_str)
    3148:	000b2203          	lw	x4,0(x22)
    314c:	01f20863          	beq	x4,x31,315c <I_or_cg_cmp_rs1_rs2_b18+0x18>
    3150:	36c012ef          	jal	x5,44bc <failedtest_x5_x4>
    3154:	00003144          	.word	0x00003144
    3158:	0000d802          	.word	0x0000d802
    315c:	004b0b13          	addi	x22,x22,4

# Testcase cmp_rs1_rs2 (Test rs1 = rs2 = x19)
  RVTEST_TESTDATA_LOAD_INT(x24, x19) # load rs1: x19 = 0x00cc1a80
    3160:	000c2983          	lw	x19,0(x24)
    3164:	004c0c13          	addi	x24,x24,4
  RVTEST_TESTDATA_LOAD_INT(x24, x19) # load rs2: x19 = 0x5efc662a
    3168:	000c2983          	lw	x19,0(x24)
    316c:	004c0c13          	addi	x24,x24,4

00003170 <I_or_cg_cmp_rs1_rs2_b19>:
I_or_cg_cmp_rs1_rs2_b19:
  or x27, x19, x19 # perform operation
    3170:	0139edb3          	or	x27,x19,x19
  # Check if x27 contains the expected result. x22 is the signature ptr, x5 is the link ptr, x4 is a temp reg.
  RVTEST_SIGUPD(x22, x5, x4, x27, I_or_cg_cmp_rs1_rs2_b19, I_or_cg_cmp_rs1_rs2_b19_str)
    3174:	000b2203          	lw	x4,0(x22)
    3178:	01b20863          	beq	x4,x27,3188 <I_or_cg_cmp_rs1_rs2_b19+0x18>
    317c:	340012ef          	jal	x5,44bc <failedtest_x5_x4>
    3180:	00003170          	.word	0x00003170
    3184:	0000d836          	.word	0x0000d836
    3188:	004b0b13          	addi	x22,x22,4

# Testcase cmp_rs1_rs2 (Test rs1 = rs2 = x20)
  RVTEST_TESTDATA_LOAD_INT(x24, x20) # load rs1: x20 = 0xc092ebc2
    318c:	000c2a03          	lw	x20,0(x24)
    3190:	004c0c13          	addi	x24,x24,4
  RVTEST_TESTDATA_LOAD_INT(x24, x20) # load rs2: x20 = 0x95fbbfb1
    3194:	000c2a03          	lw	x20,0(x24)
    3198:	004c0c13          	addi	x24,x24,4

0000319c <I_or_cg_cmp_rs1_rs2_b20>:
I_or_cg_cmp_rs1_rs2_b20:
  or x10, x20, x20 # perform operation
    319c:	014a6533          	or	x10,x20,x20
  # Check if x10 contains the expected result. x22 is the signature ptr, x5 is the link ptr, x4 is a temp reg.
  RVTEST_SIGUPD(x22, x5, x4, x10, I_or_cg_cmp_rs1_rs2_b20, I_or_cg_cmp_rs1_rs2_b20_str)
    31a0:	000b2203          	lw	x4,0(x22)
    31a4:	00a20863          	beq	x4,x10,31b4 <I_or_cg_cmp_rs1_rs2_b20+0x18>
    31a8:	314012ef          	jal	x5,44bc <failedtest_x5_x4>
    31ac:	0000319c          	.word	0x0000319c
    31b0:	0000d86a          	.word	0x0000d86a
    31b4:	004b0b13          	addi	x22,x22,4

# Testcase cmp_rs1_rs2 (Test rs1 = rs2 = x21)
  RVTEST_TESTDATA_LOAD_INT(x24, x21) # load rs1: x21 = 0xdc974d16
    31b8:	000c2a83          	lw	x21,0(x24)
    31bc:	004c0c13          	addi	x24,x24,4
  RVTEST_TESTDATA_LOAD_INT(x24, x21) # load rs2: x21 = 0x88392c72
    31c0:	000c2a83          	lw	x21,0(x24)
    31c4:	004c0c13          	addi	x24,x24,4

000031c8 <I_or_cg_cmp_rs1_rs2_b21>:
I_or_cg_cmp_rs1_rs2_b21:
  or x16, x21, x21 # perform operation
    31c8:	015ae833          	or	x16,x21,x21
  # Check if x16 contains the expected result. x22 is the signature ptr, x5 is the link ptr, x4 is a temp reg.
  RVTEST_SIGUPD(x22, x5, x4, x16, I_or_cg_cmp_rs1_rs2_b21, I_or_cg_cmp_rs1_rs2_b21_str)
    31cc:	000b2203          	lw	x4,0(x22)
    31d0:	01020863          	beq	x4,x16,31e0 <I_or_cg_cmp_rs1_rs2_b21+0x18>
    31d4:	2e8012ef          	jal	x5,44bc <failedtest_x5_x4>
    31d8:	000031c8          	.word	0x000031c8
    31dc:	0000d89e          	.word	0x0000d89e
    31e0:	004b0b13          	addi	x22,x22,4

  mv x1, x22 # switch signature pointer register to avoid conflict with test
    31e4:	000b0093          	addi	x1,x22,0
# Testcase cmp_rs1_rs2 (Test rs1 = rs2 = x22)
  RVTEST_TESTDATA_LOAD_INT(x24, x22) # load rs1: x22 = 0x44778107
    31e8:	000c2b03          	lw	x22,0(x24)
    31ec:	004c0c13          	addi	x24,x24,4
  RVTEST_TESTDATA_LOAD_INT(x24, x22) # load rs2: x22 = 0x12706483
    31f0:	000c2b03          	lw	x22,0(x24)
    31f4:	004c0c13          	addi	x24,x24,4

000031f8 <I_or_cg_cmp_rs1_rs2_b22>:
I_or_cg_cmp_rs1_rs2_b22:
  or x11, x22, x22 # perform operation
    31f8:	016b65b3          	or	x11,x22,x22
  # Check if x11 contains the expected result. x1 is the signature ptr, x5 is the link ptr, x4 is a temp reg.
  RVTEST_SIGUPD(x1, x5, x4, x11, I_or_cg_cmp_rs1_rs2_b22, I_or_cg_cmp_rs1_rs2_b22_str)
    31fc:	0000a203          	lw	x4,0(x1)
    3200:	00b20863          	beq	x4,x11,3210 <I_or_cg_cmp_rs1_rs2_b22+0x18>
    3204:	2b8012ef          	jal	x5,44bc <failedtest_x5_x4>
    3208:	000031f8          	.word	0x000031f8
    320c:	0000d8d2          	.word	0x0000d8d2
    3210:	00408093          	addi	x1,x1,4

# Testcase cmp_rs1_rs2 (Test rs1 = rs2 = x23)
  RVTEST_TESTDATA_LOAD_INT(x24, x23) # load rs1: x23 = 0xb5474b3f
    3214:	000c2b83          	lw	x23,0(x24)
    3218:	004c0c13          	addi	x24,x24,4
  RVTEST_TESTDATA_LOAD_INT(x24, x23) # load rs2: x23 = 0x2cfe816b
    321c:	000c2b83          	lw	x23,0(x24)
    3220:	004c0c13          	addi	x24,x24,4

00003224 <I_or_cg_cmp_rs1_rs2_b23>:
I_or_cg_cmp_rs1_rs2_b23:
  or x6, x23, x23 # perform operation
    3224:	017be333          	or	x6,x23,x23
  # Check if x6 contains the expected result. x1 is the signature ptr, x5 is the link ptr, x4 is a temp reg.
  RVTEST_SIGUPD(x1, x5, x4, x6, I_or_cg_cmp_rs1_rs2_b23, I_or_cg_cmp_rs1_rs2_b23_str)
    3228:	0000a203          	lw	x4,0(x1)
    322c:	00620863          	beq	x4,x6,323c <I_or_cg_cmp_rs1_rs2_b23+0x18>
    3230:	28c012ef          	jal	x5,44bc <failedtest_x5_x4>
    3234:	00003224          	.word	0x00003224
    3238:	0000d906          	.word	0x0000d906
    323c:	00408093          	addi	x1,x1,4

  mv x26, x24 # switch data pointer register to avoid conflict with test
    3240:	000c0d13          	addi	x26,x24,0
# Testcase cmp_rs1_rs2 (Test rs1 = rs2 = x24)
  RVTEST_TESTDATA_LOAD_INT(x26, x24) # load rs1: x24 = 0x5ef7afb3
    3244:	000d2c03          	lw	x24,0(x26)
    3248:	004d0d13          	addi	x26,x26,4
  RVTEST_TESTDATA_LOAD_INT(x26, x24) # load rs2: x24 = 0x88d67cb0
    324c:	000d2c03          	lw	x24,0(x26)
    3250:	004d0d13          	addi	x26,x26,4

00003254 <I_or_cg_cmp_rs1_rs2_b24>:
I_or_cg_cmp_rs1_rs2_b24:
  or x20, x24, x24 # perform operation
    3254:	018c6a33          	or	x20,x24,x24
  # Check if x20 contains the expected result. x1 is the signature ptr, x5 is the link ptr, x4 is a temp reg.
  RVTEST_SIGUPD(x1, x5, x4, x20, I_or_cg_cmp_rs1_rs2_b24, I_or_cg_cmp_rs1_rs2_b24_str)
    3258:	0000a203          	lw	x4,0(x1)
    325c:	01420863          	beq	x4,x20,326c <I_or_cg_cmp_rs1_rs2_b24+0x18>
    3260:	25c012ef          	jal	x5,44bc <failedtest_x5_x4>
    3264:	00003254          	.word	0x00003254
    3268:	0000d93a          	.word	0x0000d93a
    326c:	00408093          	addi	x1,x1,4

# Testcase cmp_rs1_rs2 (Test rs1 = rs2 = x25)
  RVTEST_TESTDATA_LOAD_INT(x26, x25) # load rs1: x25 = 0x2200648b
    3270:	000d2c83          	lw	x25,0(x26)
    3274:	004d0d13          	addi	x26,x26,4
  RVTEST_TESTDATA_LOAD_INT(x26, x25) # load rs2: x25 = 0x92dada7d
    3278:	000d2c83          	lw	x25,0(x26)
    327c:	004d0d13          	addi	x26,x26,4

00003280 <I_or_cg_cmp_rs1_rs2_b25>:
I_or_cg_cmp_rs1_rs2_b25:
  or x31, x25, x25 # perform operation
    3280:	019cefb3          	or	x31,x25,x25
  # Check if x31 contains the expected result. x1 is the signature ptr, x5 is the link ptr, x4 is a temp reg.
  RVTEST_SIGUPD(x1, x5, x4, x31, I_or_cg_cmp_rs1_rs2_b25, I_or_cg_cmp_rs1_rs2_b25_str)
    3284:	0000a203          	lw	x4,0(x1)
    3288:	01f20863          	beq	x4,x31,3298 <I_or_cg_cmp_rs1_rs2_b25+0x18>
    328c:	230012ef          	jal	x5,44bc <failedtest_x5_x4>
    3290:	00003280          	.word	0x00003280
    3294:	0000d96e          	.word	0x0000d96e
    3298:	00408093          	addi	x1,x1,4

  mv x23, x26 # switch data pointer register to avoid conflict with test
    329c:	000d0b93          	addi	x23,x26,0
# Testcase cmp_rs1_rs2 (Test rs1 = rs2 = x26)
  RVTEST_TESTDATA_LOAD_INT(x23, x26) # load rs1: x26 = 0x266e6e93
    32a0:	000bad03          	lw	x26,0(x23)
    32a4:	004b8b93          	addi	x23,x23,4
  RVTEST_TESTDATA_LOAD_INT(x23, x26) # load rs2: x26 = 0x1a6f958b
    32a8:	000bad03          	lw	x26,0(x23)
    32ac:	004b8b93          	addi	x23,x23,4

000032b0 <I_or_cg_cmp_rs1_rs2_b26>:
I_or_cg_cmp_rs1_rs2_b26:
  or x24, x26, x26 # perform operation
    32b0:	01ad6c33          	or	x24,x26,x26
  # Check if x24 contains the expected result. x1 is the signature ptr, x5 is the link ptr, x4 is a temp reg.
  RVTEST_SIGUPD(x1, x5, x4, x24, I_or_cg_cmp_rs1_rs2_b26, I_or_cg_cmp_rs1_rs2_b26_str)
    32b4:	0000a203          	lw	x4,0(x1)
    32b8:	01820863          	beq	x4,x24,32c8 <I_or_cg_cmp_rs1_rs2_b26+0x18>
    32bc:	200012ef          	jal	x5,44bc <failedtest_x5_x4>
    32c0:	000032b0          	.word	0x000032b0
    32c4:	0000d9a2          	.word	0x0000d9a2
    32c8:	00408093          	addi	x1,x1,4

# Testcase cmp_rs1_rs2 (Test rs1 = rs2 = x27)
  RVTEST_TESTDATA_LOAD_INT(x23, x27) # load rs1: x27 = 0x738af807
    32cc:	000bad83          	lw	x27,0(x23)
    32d0:	004b8b93          	addi	x23,x23,4
  RVTEST_TESTDATA_LOAD_INT(x23, x27) # load rs2: x27 = 0x64d30ad0
    32d4:	000bad83          	lw	x27,0(x23)
    32d8:	004b8b93          	addi	x23,x23,4

000032dc <I_or_cg_cmp_rs1_rs2_b27>:
I_or_cg_cmp_rs1_rs2_b27:
  or x14, x27, x27 # perform operation
    32dc:	01bde733          	or	x14,x27,x27
  # Check if x14 contains the expected result. x1 is the signature ptr, x5 is the link ptr, x4 is a temp reg.
  RVTEST_SIGUPD(x1, x5, x4, x14, I_or_cg_cmp_rs1_rs2_b27, I_or_cg_cmp_rs1_rs2_b27_str)
    32e0:	0000a203          	lw	x4,0(x1)
    32e4:	00e20863          	beq	x4,x14,32f4 <I_or_cg_cmp_rs1_rs2_b27+0x18>
    32e8:	1d4012ef          	jal	x5,44bc <failedtest_x5_x4>
    32ec:	000032dc          	.word	0x000032dc
    32f0:	0000d9d6          	.word	0x0000d9d6
    32f4:	00408093          	addi	x1,x1,4

# Testcase cmp_rs1_rs2 (Test rs1 = rs2 = x28)
  RVTEST_TESTDATA_LOAD_INT(x23, x28) # load rs1: x28 = 0x8d3aaac0
    32f8:	000bae03          	lw	x28,0(x23)
    32fc:	004b8b93          	addi	x23,x23,4
  RVTEST_TESTDATA_LOAD_INT(x23, x28) # load rs2: x28 = 0xc37eeb88
    3300:	000bae03          	lw	x28,0(x23)
    3304:	004b8b93          	addi	x23,x23,4

00003308 <I_or_cg_cmp_rs1_rs2_b28>:
I_or_cg_cmp_rs1_rs2_b28:
  or x6, x28, x28 # perform operation
    3308:	01ce6333          	or	x6,x28,x28
  # Check if x6 contains the expected result. x1 is the signature ptr, x5 is the link ptr, x4 is a temp reg.
  RVTEST_SIGUPD(x1, x5, x4, x6, I_or_cg_cmp_rs1_rs2_b28, I_or_cg_cmp_rs1_rs2_b28_str)
    330c:	0000a203          	lw	x4,0(x1)
    3310:	00620863          	beq	x4,x6,3320 <I_or_cg_cmp_rs1_rs2_b28+0x18>
    3314:	1a8012ef          	jal	x5,44bc <failedtest_x5_x4>
    3318:	00003308          	.word	0x00003308
    331c:	0000da0a          	.word	0x0000da0a
    3320:	00408093          	addi	x1,x1,4

# Testcase cmp_rs1_rs2 (Test rs1 = rs2 = x29)
  RVTEST_TESTDATA_LOAD_INT(x23, x29) # load rs1: x29 = 0xd4bdd8b7
    3324:	000bae83          	lw	x29,0(x23)
    3328:	004b8b93          	addi	x23,x23,4
  RVTEST_TESTDATA_LOAD_INT(x23, x29) # load rs2: x29 = 0xd8300f4d
    332c:	000bae83          	lw	x29,0(x23)
    3330:	004b8b93          	addi	x23,x23,4

00003334 <I_or_cg_cmp_rs1_rs2_b29>:
I_or_cg_cmp_rs1_rs2_b29:
  or x22, x29, x29 # perform operation
    3334:	01deeb33          	or	x22,x29,x29
  # Check if x22 contains the expected result. x1 is the signature ptr, x5 is the link ptr, x4 is a temp reg.
  RVTEST_SIGUPD(x1, x5, x4, x22, I_or_cg_cmp_rs1_rs2_b29, I_or_cg_cmp_rs1_rs2_b29_str)
    3338:	0000a203          	lw	x4,0(x1)
    333c:	01620863          	beq	x4,x22,334c <I_or_cg_cmp_rs1_rs2_b29+0x18>
    3340:	17c012ef          	jal	x5,44bc <failedtest_x5_x4>
    3344:	00003334          	.word	0x00003334
    3348:	0000da3e          	.word	0x0000da3e
    334c:	00408093          	addi	x1,x1,4

# Testcase cmp_rs1_rs2 (Test rs1 = rs2 = x30)
  RVTEST_TESTDATA_LOAD_INT(x23, x30) # load rs1: x30 = 0x51828f44
    3350:	000baf03          	lw	x30,0(x23)
    3354:	004b8b93          	addi	x23,x23,4
  RVTEST_TESTDATA_LOAD_INT(x23, x30) # load rs2: x30 = 0xbed0a4b8
    3358:	000baf03          	lw	x30,0(x23)
    335c:	004b8b93          	addi	x23,x23,4

00003360 <I_or_cg_cmp_rs1_rs2_b30>:
I_or_cg_cmp_rs1_rs2_b30:
  or x3, x30, x30 # perform operation
    3360:	01ef61b3          	or	x3,x30,x30
  # Check if x3 contains the expected result. x1 is the signature ptr, x5 is the link ptr, x4 is a temp reg.
  RVTEST_SIGUPD(x1, x5, x4, x3, I_or_cg_cmp_rs1_rs2_b30, I_or_cg_cmp_rs1_rs2_b30_str)
    3364:	0000a203          	lw	x4,0(x1)
    3368:	00320863          	beq	x4,x3,3378 <I_or_cg_cmp_rs1_rs2_b30+0x18>
    336c:	150012ef          	jal	x5,44bc <failedtest_x5_x4>
    3370:	00003360          	.word	0x00003360
    3374:	0000da72          	.word	0x0000da72
    3378:	00408093          	addi	x1,x1,4

# Testcase cmp_rs1_rs2 (Test rs1 = rs2 = x31)
  RVTEST_TESTDATA_LOAD_INT(x23, x31) # load rs1: x31 = 0x7da91dbe
    337c:	000baf83          	lw	x31,0(x23)
    3380:	004b8b93          	addi	x23,x23,4
  RVTEST_TESTDATA_LOAD_INT(x23, x31) # load rs2: x31 = 0x23908b73
    3384:	000baf83          	lw	x31,0(x23)
    3388:	004b8b93          	addi	x23,x23,4

0000338c <I_or_cg_cmp_rs1_rs2_b31>:
I_or_cg_cmp_rs1_rs2_b31:
  or x19, x31, x31 # perform operation
    338c:	01ffe9b3          	or	x19,x31,x31
  # Check if x19 contains the expected result. x1 is the signature ptr, x5 is the link ptr, x4 is a temp reg.
  RVTEST_SIGUPD(x1, x5, x4, x19, I_or_cg_cmp_rs1_rs2_b31, I_or_cg_cmp_rs1_rs2_b31_str)
    3390:	0000a203          	lw	x4,0(x1)
    3394:	01320863          	beq	x4,x19,33a4 <I_or_cg_cmp_rs1_rs2_b31+0x18>
    3398:	124012ef          	jal	x5,44bc <failedtest_x5_x4>
    339c:	0000338c          	.word	0x0000338c
    33a0:	0000daa6          	.word	0x0000daa6
    33a4:	00408093          	addi	x1,x1,4
/////////////////////////////////
// cmp_rd_rs1
/////////////////////////////////

# Testcase cmp_rd_rs1 (Test rd = rs1 = x0)
  RVTEST_TESTDATA_LOAD_INT(x23, x0) # load rs1: x0 = 0x6653f087
    33a8:	000ba003          	lw	x0,0(x23)
    33ac:	004b8b93          	addi	x23,x23,4
  RVTEST_TESTDATA_LOAD_INT(x23, x19) # load rs2: x19 = 0xe7b19399
    33b0:	000ba983          	lw	x19,0(x23)
    33b4:	004b8b93          	addi	x23,x23,4

000033b8 <I_or_cg_cmp_rd_rs1_b0>:
I_or_cg_cmp_rd_rs1_b0:
  or x0, x0, x19 # perform operation
    33b8:	01306033          	or	x0,x0,x19
  # Check if x0 contains the expected result. x1 is the signature ptr, x5 is the link ptr, x4 is a temp reg.
  RVTEST_SIGUPD(x1, x5, x4, x0, I_or_cg_cmp_rd_rs1_b0, I_or_cg_cmp_rd_rs1_b0_str)
    33bc:	0000a203          	lw	x4,0(x1)
    33c0:	00020863          	beq	x4,x0,33d0 <I_or_cg_cmp_rd_rs1_b0+0x18>
    33c4:	0f8012ef          	jal	x5,44bc <failedtest_x5_x4>
    33c8:	000033b8          	.word	0x000033b8
    33cc:	0000dada          	.word	0x0000dada
    33d0:	00408093          	addi	x1,x1,4

  mv x11, x1 # switch signature pointer register to avoid conflict with test
    33d4:	00008593          	addi	x11,x1,0
# Testcase cmp_rd_rs1 (Test rd = rs1 = x1)
  RVTEST_TESTDATA_LOAD_INT(x23, x1) # load rs1: x1 = 0x4ea34136
    33d8:	000ba083          	lw	x1,0(x23)
    33dc:	004b8b93          	addi	x23,x23,4
  RVTEST_TESTDATA_LOAD_INT(x23, x8) # load rs2: x8 = 0xbcd09781
    33e0:	000ba403          	lw	x8,0(x23)
    33e4:	004b8b93          	addi	x23,x23,4

000033e8 <I_or_cg_cmp_rd_rs1_b1>:
I_or_cg_cmp_rd_rs1_b1:
  or x1, x1, x8 # perform operation
    33e8:	0080e0b3          	or	x1,x1,x8
  # Check if x1 contains the expected result. x11 is the signature ptr, x5 is the link ptr, x4 is a temp reg.
  RVTEST_SIGUPD(x11, x5, x4, x1, I_or_cg_cmp_rd_rs1_b1, I_or_cg_cmp_rd_rs1_b1_str)
    33ec:	0005a203          	lw	x4,0(x11)
    33f0:	00120863          	beq	x4,x1,3400 <I_or_cg_cmp_rd_rs1_b1+0x18>
    33f4:	0c8012ef          	jal	x5,44bc <failedtest_x5_x4>
    33f8:	000033e8          	.word	0x000033e8
    33fc:	0000db0c          	.word	0x0000db0c
    3400:	00458593          	addi	x11,x11,4

# Testcase cmp_rd_rs1 (Test rd = rs1 = x2)
  RVTEST_TESTDATA_LOAD_INT(x23, x2) # load rs1: x2 = 0x3b40a1ad
    3404:	000ba103          	lw	x2,0(x23)
    3408:	004b8b93          	addi	x23,x23,4
  RVTEST_TESTDATA_LOAD_INT(x23, x13) # load rs2: x13 = 0x847bf685
    340c:	000ba683          	lw	x13,0(x23)
    3410:	004b8b93          	addi	x23,x23,4

00003414 <I_or_cg_cmp_rd_rs1_b2>:
I_or_cg_cmp_rd_rs1_b2:
  or x2, x2, x13 # perform operation
    3414:	00d16133          	or	x2,x2,x13
  # Check if x2 contains the expected result. x11 is the signature ptr, x5 is the link ptr, x4 is a temp reg.
  RVTEST_SIGUPD(x11, x5, x4, x2, I_or_cg_cmp_rd_rs1_b2, I_or_cg_cmp_rd_rs1_b2_str)
    3418:	0005a203          	lw	x4,0(x11)
    341c:	00220863          	beq	x4,x2,342c <I_or_cg_cmp_rd_rs1_b2+0x18>
    3420:	09c012ef          	jal	x5,44bc <failedtest_x5_x4>
    3424:	00003414          	.word	0x00003414
    3428:	0000db3e          	.word	0x0000db3e
    342c:	00458593          	addi	x11,x11,4

# Testcase cmp_rd_rs1 (Test rd = rs1 = x3)
  RVTEST_TESTDATA_LOAD_INT(x23, x3) # load rs1: x3 = 0x5a2eef23
    3430:	000ba183          	lw	x3,0(x23)
    3434:	004b8b93          	addi	x23,x23,4
  RVTEST_TESTDATA_LOAD_INT(x23, x19) # load rs2: x19 = 0x836f5eb9
    3438:	000ba983          	lw	x19,0(x23)
    343c:	004b8b93          	addi	x23,x23,4

00003440 <I_or_cg_cmp_rd_rs1_b3>:
I_or_cg_cmp_rd_rs1_b3:
  or x3, x3, x19 # perform operation
    3440:	0131e1b3          	or	x3,x3,x19
  # Check if x3 contains the expected result. x11 is the signature ptr, x5 is the link ptr, x4 is a temp reg.
  RVTEST_SIGUPD(x11, x5, x4, x3, I_or_cg_cmp_rd_rs1_b3, I_or_cg_cmp_rd_rs1_b3_str)
    3444:	0005a203          	lw	x4,0(x11)
    3448:	00320863          	beq	x4,x3,3458 <I_or_cg_cmp_rd_rs1_b3+0x18>
    344c:	070012ef          	jal	x5,44bc <failedtest_x5_x4>
    3450:	00003440          	.word	0x00003440
    3454:	0000db70          	.word	0x0000db70
    3458:	00458593          	addi	x11,x11,4

  mv x13, x4 # switch temp register to avoid conflict with test
    345c:	00020693          	addi	x13,x4,0 # 0 <rvtest_entry_point>
  mv x14, x5 # switch link pointer register to avoid conflict with test
    3460:	00028713          	addi	x14,x5,0
# Testcase cmp_rd_rs1 (Test rd = rs1 = x4)
  RVTEST_TESTDATA_LOAD_INT(x23, x4) # load rs1: x4 = 0x61acad9f
    3464:	000ba203          	lw	x4,0(x23)
    3468:	004b8b93          	addi	x23,x23,4
  RVTEST_TESTDATA_LOAD_INT(x23, x21) # load rs2: x21 = 0x1b9f09eb
    346c:	000baa83          	lw	x21,0(x23)
    3470:	004b8b93          	addi	x23,x23,4

00003474 <I_or_cg_cmp_rd_rs1_b4>:
I_or_cg_cmp_rd_rs1_b4:
  or x4, x4, x21 # perform operation
    3474:	01526233          	or	x4,x4,x21
  # Check if x4 contains the expected result. x11 is the signature ptr, x14 is the link ptr, x13 is a temp reg.
  RVTEST_SIGUPD(x11, x14, x13, x4, I_or_cg_cmp_rd_rs1_b4, I_or_cg_cmp_rd_rs1_b4_str)
    3478:	0005a683          	lw	x13,0(x11)
    347c:	00468863          	beq	x13,x4,348c <I_or_cg_cmp_rd_rs1_b4+0x18>
    3480:	07c0176f          	jal	x14,44fc <failedtest_x14_x13>
    3484:	00003474          	.word	0x00003474
    3488:	0000dba2          	.word	0x0000dba2
    348c:	00458593          	addi	x11,x11,4

# Testcase cmp_rd_rs1 (Test rd = rs1 = x5)
  RVTEST_TESTDATA_LOAD_INT(x23, x5) # load rs1: x5 = 0x7c1a86c2
    3490:	000ba283          	lw	x5,0(x23)
    3494:	004b8b93          	addi	x23,x23,4
  RVTEST_TESTDATA_LOAD_INT(x23, x17) # load rs2: x17 = 0xaf0e48d9
    3498:	000ba883          	lw	x17,0(x23)
    349c:	004b8b93          	addi	x23,x23,4

000034a0 <I_or_cg_cmp_rd_rs1_b5>:
I_or_cg_cmp_rd_rs1_b5:
  or x5, x5, x17 # perform operation
    34a0:	0112e2b3          	or	x5,x5,x17
  # Check if x5 contains the expected result. x11 is the signature ptr, x14 is the link ptr, x13 is a temp reg.
  RVTEST_SIGUPD(x11, x14, x13, x5, I_or_cg_cmp_rd_rs1_b5, I_or_cg_cmp_rd_rs1_b5_str)
    34a4:	0005a683          	lw	x13,0(x11)
    34a8:	00568863          	beq	x13,x5,34b8 <I_or_cg_cmp_rd_rs1_b5+0x18>
    34ac:	0500176f          	jal	x14,44fc <failedtest_x14_x13>
    34b0:	000034a0          	.word	0x000034a0
    34b4:	0000dbd4          	.word	0x0000dbd4
    34b8:	00458593          	addi	x11,x11,4

# Testcase cmp_rd_rs1 (Test rd = rs1 = x6)
  RVTEST_TESTDATA_LOAD_INT(x23, x6) # load rs1: x6 = 0x84dea76d
    34bc:	000ba303          	lw	x6,0(x23)
    34c0:	004b8b93          	addi	x23,x23,4
  RVTEST_TESTDATA_LOAD_INT(x23, x26) # load rs2: x26 = 0x8f7c637e
    34c4:	000bad03          	lw	x26,0(x23)
    34c8:	004b8b93          	addi	x23,x23,4

000034cc <I_or_cg_cmp_rd_rs1_b6>:
I_or_cg_cmp_rd_rs1_b6:
  or x6, x6, x26 # perform operation
    34cc:	01a36333          	or	x6,x6,x26
  # Check if x6 contains the expected result. x11 is the signature ptr, x14 is the link ptr, x13 is a temp reg.
  RVTEST_SIGUPD(x11, x14, x13, x6, I_or_cg_cmp_rd_rs1_b6, I_or_cg_cmp_rd_rs1_b6_str)
    34d0:	0005a683          	lw	x13,0(x11)
    34d4:	00668863          	beq	x13,x6,34e4 <I_or_cg_cmp_rd_rs1_b6+0x18>
    34d8:	0240176f          	jal	x14,44fc <failedtest_x14_x13>
    34dc:	000034cc          	.word	0x000034cc
    34e0:	0000dc06          	.word	0x0000dc06
    34e4:	00458593          	addi	x11,x11,4

# Testcase cmp_rd_rs1 (Test rd = rs1 = x7)
  RVTEST_TESTDATA_LOAD_INT(x23, x7) # load rs1: x7 = 0x6e4fe9f3
    34e8:	000ba383          	lw	x7,0(x23)
    34ec:	004b8b93          	addi	x23,x23,4
  RVTEST_TESTDATA_LOAD_INT(x23, x28) # load rs2: x28 = 0xe96950ed
    34f0:	000bae03          	lw	x28,0(x23)
    34f4:	004b8b93          	addi	x23,x23,4

000034f8 <I_or_cg_cmp_rd_rs1_b7>:
I_or_cg_cmp_rd_rs1_b7:
  or x7, x7, x28 # perform operation
    34f8:	01c3e3b3          	or	x7,x7,x28
  # Check if x7 contains the expected result. x11 is the signature ptr, x14 is the link ptr, x13 is a temp reg.
  RVTEST_SIGUPD(x11, x14, x13, x7, I_or_cg_cmp_rd_rs1_b7, I_or_cg_cmp_rd_rs1_b7_str)
    34fc:	0005a683          	lw	x13,0(x11)
    3500:	00768863          	beq	x13,x7,3510 <I_or_cg_cmp_rd_rs1_b7+0x18>
    3504:	7f90076f          	jal	x14,44fc <failedtest_x14_x13>
    3508:	000034f8          	.word	0x000034f8
    350c:	0000dc38          	.word	0x0000dc38
    3510:	00458593          	addi	x11,x11,4

# Testcase cmp_rd_rs1 (Test rd = rs1 = x8)
  RVTEST_TESTDATA_LOAD_INT(x23, x8) # load rs1: x8 = 0x2b7fe27a
    3514:	000ba403          	lw	x8,0(x23)
    3518:	004b8b93          	addi	x23,x23,4
  RVTEST_TESTDATA_LOAD_INT(x23, x10) # load rs2: x10 = 0x91b5469b
    351c:	000ba503          	lw	x10,0(x23)
    3520:	004b8b93          	addi	x23,x23,4

00003524 <I_or_cg_cmp_rd_rs1_b8>:
I_or_cg_cmp_rd_rs1_b8:
  or x8, x8, x10 # perform operation
    3524:	00a46433          	or	x8,x8,x10
  # Check if x8 contains the expected result. x11 is the signature ptr, x14 is the link ptr, x13 is a temp reg.
  RVTEST_SIGUPD(x11, x14, x13, x8, I_or_cg_cmp_rd_rs1_b8, I_or_cg_cmp_rd_rs1_b8_str)
    3528:	0005a683          	lw	x13,0(x11)
    352c:	00868863          	beq	x13,x8,353c <I_or_cg_cmp_rd_rs1_b8+0x18>
    3530:	7cd0076f          	jal	x14,44fc <failedtest_x14_x13>
    3534:	00003524          	.word	0x00003524
    3538:	0000dc6a          	.word	0x0000dc6a
    353c:	00458593          	addi	x11,x11,4

# Testcase cmp_rd_rs1 (Test rd = rs1 = x9)
  RVTEST_TESTDATA_LOAD_INT(x23, x9) # load rs1: x9 = 0x44423e13
    3540:	000ba483          	lw	x9,0(x23)
    3544:	004b8b93          	addi	x23,x23,4
  RVTEST_TESTDATA_LOAD_INT(x23, x1) # load rs2: x1 = 0xefa59640
    3548:	000ba083          	lw	x1,0(x23)
    354c:	004b8b93          	addi	x23,x23,4

00003550 <I_or_cg_cmp_rd_rs1_b9>:
I_or_cg_cmp_rd_rs1_b9:
  or x9, x9, x1 # perform operation
    3550:	0014e4b3          	or	x9,x9,x1
  # Check if x9 contains the expected result. x11 is the signature ptr, x14 is the link ptr, x13 is a temp reg.
  RVTEST_SIGUPD(x11, x14, x13, x9, I_or_cg_cmp_rd_rs1_b9, I_or_cg_cmp_rd_rs1_b9_str)
    3554:	0005a683          	lw	x13,0(x11)
    3558:	00968863          	beq	x13,x9,3568 <I_or_cg_cmp_rd_rs1_b9+0x18>
    355c:	7a10076f          	jal	x14,44fc <failedtest_x14_x13>
    3560:	00003550          	.word	0x00003550
    3564:	0000dc9c          	.word	0x0000dc9c
    3568:	00458593          	addi	x11,x11,4

# Testcase cmp_rd_rs1 (Test rd = rs1 = x10)
  RVTEST_TESTDATA_LOAD_INT(x23, x10) # load rs1: x10 = 0xfa6855fe
    356c:	000ba503          	lw	x10,0(x23)
    3570:	004b8b93          	addi	x23,x23,4
  RVTEST_TESTDATA_LOAD_INT(x23, x7) # load rs2: x7 = 0x89ddaeb1
    3574:	000ba383          	lw	x7,0(x23)
    3578:	004b8b93          	addi	x23,x23,4

0000357c <I_or_cg_cmp_rd_rs1_b10>:
I_or_cg_cmp_rd_rs1_b10:
  or x10, x10, x7 # perform operation
    357c:	00756533          	or	x10,x10,x7
  # Check if x10 contains the expected result. x11 is the signature ptr, x14 is the link ptr, x13 is a temp reg.
  RVTEST_SIGUPD(x11, x14, x13, x10, I_or_cg_cmp_rd_rs1_b10, I_or_cg_cmp_rd_rs1_b10_str)
    3580:	0005a683          	lw	x13,0(x11)
    3584:	00a68863          	beq	x13,x10,3594 <I_or_cg_cmp_rd_rs1_b10+0x18>
    3588:	7750076f          	jal	x14,44fc <failedtest_x14_x13>
    358c:	0000357c          	.word	0x0000357c
    3590:	0000dcce          	.word	0x0000dcce
    3594:	00458593          	addi	x11,x11,4

  mv x29, x11 # switch signature pointer register to avoid conflict with test
    3598:	00058e93          	addi	x29,x11,0
# Testcase cmp_rd_rs1 (Test rd = rs1 = x11)
  RVTEST_TESTDATA_LOAD_INT(x23, x11) # load rs1: x11 = 0xb2d895a8
    359c:	000ba583          	lw	x11,0(x23)
    35a0:	004b8b93          	addi	x23,x23,4
  RVTEST_TESTDATA_LOAD_INT(x23, x10) # load rs2: x10 = 0xeeb4fb1e
    35a4:	000ba503          	lw	x10,0(x23)
    35a8:	004b8b93          	addi	x23,x23,4

000035ac <I_or_cg_cmp_rd_rs1_b11>:
I_or_cg_cmp_rd_rs1_b11:
  or x11, x11, x10 # perform operation
    35ac:	00a5e5b3          	or	x11,x11,x10
  # Check if x11 contains the expected result. x29 is the signature ptr, x14 is the link ptr, x13 is a temp reg.
  RVTEST_SIGUPD(x29, x14, x13, x11, I_or_cg_cmp_rd_rs1_b11, I_or_cg_cmp_rd_rs1_b11_str)
    35b0:	000ea683          	lw	x13,0(x29)
    35b4:	00b68863          	beq	x13,x11,35c4 <I_or_cg_cmp_rd_rs1_b11+0x18>
    35b8:	7450076f          	jal	x14,44fc <failedtest_x14_x13>
    35bc:	000035ac          	.word	0x000035ac
    35c0:	0000dd01          	.word	0x0000dd01
    35c4:	004e8e93          	addi	x29,x29,4

# Testcase cmp_rd_rs1 (Test rd = rs1 = x12)
  RVTEST_TESTDATA_LOAD_INT(x23, x12) # load rs1: x12 = 0xacffb0e0
    35c8:	000ba603          	lw	x12,0(x23)
    35cc:	004b8b93          	addi	x23,x23,4
  RVTEST_TESTDATA_LOAD_INT(x23, x21) # load rs2: x21 = 0x45ee0c48
    35d0:	000baa83          	lw	x21,0(x23)
    35d4:	004b8b93          	addi	x23,x23,4

000035d8 <I_or_cg_cmp_rd_rs1_b12>:
I_or_cg_cmp_rd_rs1_b12:
  or x12, x12, x21 # perform operation
    35d8:	01566633          	or	x12,x12,x21
  # Check if x12 contains the expected result. x29 is the signature ptr, x14 is the link ptr, x13 is a temp reg.
  RVTEST_SIGUPD(x29, x14, x13, x12, I_or_cg_cmp_rd_rs1_b12, I_or_cg_cmp_rd_rs1_b12_str)
    35dc:	000ea683          	lw	x13,0(x29)
    35e0:	00c68863          	beq	x13,x12,35f0 <I_or_cg_cmp_rd_rs1_b12+0x18>
    35e4:	7190076f          	jal	x14,44fc <failedtest_x14_x13>
    35e8:	000035d8          	.word	0x000035d8
    35ec:	0000dd34          	.word	0x0000dd34
    35f0:	004e8e93          	addi	x29,x29,4

  mv x7, x13 # switch temp register to avoid conflict with test
    35f4:	00068393          	addi	x7,x13,0
  mv x8, x14 # switch link pointer register to avoid conflict with test
    35f8:	00070413          	addi	x8,x14,0
# Testcase cmp_rd_rs1 (Test rd = rs1 = x13)
  RVTEST_TESTDATA_LOAD_INT(x23, x13) # load rs1: x13 = 0x0ef5b749
    35fc:	000ba683          	lw	x13,0(x23)
    3600:	004b8b93          	addi	x23,x23,4
  RVTEST_TESTDATA_LOAD_INT(x23, x14) # load rs2: x14 = 0xb716a42a
    3604:	000ba703          	lw	x14,0(x23)
    3608:	004b8b93          	addi	x23,x23,4

0000360c <I_or_cg_cmp_rd_rs1_b13>:
I_or_cg_cmp_rd_rs1_b13:
  or x13, x13, x14 # perform operation
    360c:	00e6e6b3          	or	x13,x13,x14
  # Check if x13 contains the expected result. x29 is the signature ptr, x8 is the link ptr, x7 is a temp reg.
  RVTEST_SIGUPD(x29, x8, x7, x13, I_or_cg_cmp_rd_rs1_b13, I_or_cg_cmp_rd_rs1_b13_str)
    3610:	000ea383          	lw	x7,0(x29)
    3614:	00d38863          	beq	x7,x13,3624 <I_or_cg_cmp_rd_rs1_b13+0x18>
    3618:	6bd0046f          	jal	x8,44d4 <failedtest_x8_x7>
    361c:	0000360c          	.word	0x0000360c
    3620:	0000dd67          	.word	0x0000dd67
    3624:	004e8e93          	addi	x29,x29,4

# Testcase cmp_rd_rs1 (Test rd = rs1 = x14)
  RVTEST_TESTDATA_LOAD_INT(x23, x14) # load rs1: x14 = 0xb310920f
    3628:	000ba703          	lw	x14,0(x23)
    362c:	004b8b93          	addi	x23,x23,4
  RVTEST_TESTDATA_LOAD_INT(x23, x17) # load rs2: x17 = 0xb67f433a
    3630:	000ba883          	lw	x17,0(x23)
    3634:	004b8b93          	addi	x23,x23,4

00003638 <I_or_cg_cmp_rd_rs1_b14>:
I_or_cg_cmp_rd_rs1_b14:
  or x14, x14, x17 # perform operation
    3638:	01176733          	or	x14,x14,x17
  # Check if x14 contains the expected result. x29 is the signature ptr, x8 is the link ptr, x7 is a temp reg.
  RVTEST_SIGUPD(x29, x8, x7, x14, I_or_cg_cmp_rd_rs1_b14, I_or_cg_cmp_rd_rs1_b14_str)
    363c:	000ea383          	lw	x7,0(x29)
    3640:	00e38863          	beq	x7,x14,3650 <I_or_cg_cmp_rd_rs1_b14+0x18>
    3644:	6910046f          	jal	x8,44d4 <failedtest_x8_x7>
    3648:	00003638          	.word	0x00003638
    364c:	0000dd9a          	.word	0x0000dd9a
    3650:	004e8e93          	addi	x29,x29,4

# Testcase cmp_rd_rs1 (Test rd = rs1 = x15)
  RVTEST_TESTDATA_LOAD_INT(x23, x15) # load rs1: x15 = 0x45adba20
    3654:	000ba783          	lw	x15,0(x23)
    3658:	004b8b93          	addi	x23,x23,4
  RVTEST_TESTDATA_LOAD_INT(x23, x4) # load rs2: x4 = 0x16819e0f
    365c:	000ba203          	lw	x4,0(x23)
    3660:	004b8b93          	addi	x23,x23,4

00003664 <I_or_cg_cmp_rd_rs1_b15>:
I_or_cg_cmp_rd_rs1_b15:
  or x15, x15, x4 # perform operation
    3664:	0047e7b3          	or	x15,x15,x4
  # Check if x15 contains the expected result. x29 is the signature ptr, x8 is the link ptr, x7 is a temp reg.
  RVTEST_SIGUPD(x29, x8, x7, x15, I_or_cg_cmp_rd_rs1_b15, I_or_cg_cmp_rd_rs1_b15_str)
    3668:	000ea383          	lw	x7,0(x29)
    366c:	00f38863          	beq	x7,x15,367c <I_or_cg_cmp_rd_rs1_b15+0x18>
    3670:	6650046f          	jal	x8,44d4 <failedtest_x8_x7>
    3674:	00003664          	.word	0x00003664
    3678:	0000ddcd          	.word	0x0000ddcd
    367c:	004e8e93          	addi	x29,x29,4

# Testcase cmp_rd_rs1 (Test rd = rs1 = x16)
  RVTEST_TESTDATA_LOAD_INT(x23, x16) # load rs1: x16 = 0x72b0e639
    3680:	000ba803          	lw	x16,0(x23)
    3684:	004b8b93          	addi	x23,x23,4
  RVTEST_TESTDATA_LOAD_INT(x23, x9) # load rs2: x9 = 0x4aeb0dcf
    3688:	000ba483          	lw	x9,0(x23)
    368c:	004b8b93          	addi	x23,x23,4

00003690 <I_or_cg_cmp_rd_rs1_b16>:
I_or_cg_cmp_rd_rs1_b16:
  or x16, x16, x9 # perform operation
    3690:	00986833          	or	x16,x16,x9
  # Check if x16 contains the expected result. x29 is the signature ptr, x8 is the link ptr, x7 is a temp reg.
  RVTEST_SIGUPD(x29, x8, x7, x16, I_or_cg_cmp_rd_rs1_b16, I_or_cg_cmp_rd_rs1_b16_str)
    3694:	000ea383          	lw	x7,0(x29)
    3698:	01038863          	beq	x7,x16,36a8 <I_or_cg_cmp_rd_rs1_b16+0x18>
    369c:	6390046f          	jal	x8,44d4 <failedtest_x8_x7>
    36a0:	00003690          	.word	0x00003690
    36a4:	0000de00          	.word	0x0000de00
    36a8:	004e8e93          	addi	x29,x29,4

# Testcase cmp_rd_rs1 (Test rd = rs1 = x17)
  RVTEST_TESTDATA_LOAD_INT(x23, x17) # load rs1: x17 = 0x3a14a95b
    36ac:	000ba883          	lw	x17,0(x23)
    36b0:	004b8b93          	addi	x23,x23,4
  RVTEST_TESTDATA_LOAD_INT(x23, x1) # load rs2: x1 = 0x15283537
    36b4:	000ba083          	lw	x1,0(x23)
    36b8:	004b8b93          	addi	x23,x23,4

000036bc <I_or_cg_cmp_rd_rs1_b17>:
I_or_cg_cmp_rd_rs1_b17:
  or x17, x17, x1 # perform operation
    36bc:	0018e8b3          	or	x17,x17,x1
  # Check if x17 contains the expected result. x29 is the signature ptr, x8 is the link ptr, x7 is a temp reg.
  RVTEST_SIGUPD(x29, x8, x7, x17, I_or_cg_cmp_rd_rs1_b17, I_or_cg_cmp_rd_rs1_b17_str)
    36c0:	000ea383          	lw	x7,0(x29)
    36c4:	01138863          	beq	x7,x17,36d4 <I_or_cg_cmp_rd_rs1_b17+0x18>
    36c8:	60d0046f          	jal	x8,44d4 <failedtest_x8_x7>
    36cc:	000036bc          	.word	0x000036bc
    36d0:	0000de33          	.word	0x0000de33
    36d4:	004e8e93          	addi	x29,x29,4

# Testcase cmp_rd_rs1 (Test rd = rs1 = x18)
  RVTEST_TESTDATA_LOAD_INT(x23, x18) # load rs1: x18 = 0xb7e50ac4
    36d8:	000ba903          	lw	x18,0(x23)
    36dc:	004b8b93          	addi	x23,x23,4
  RVTEST_TESTDATA_LOAD_INT(x23, x10) # load rs2: x10 = 0x889be1f9
    36e0:	000ba503          	lw	x10,0(x23)
    36e4:	004b8b93          	addi	x23,x23,4

000036e8 <I_or_cg_cmp_rd_rs1_b18>:
I_or_cg_cmp_rd_rs1_b18:
  or x18, x18, x10 # perform operation
    36e8:	00a96933          	or	x18,x18,x10
  # Check if x18 contains the expected result. x29 is the signature ptr, x8 is the link ptr, x7 is a temp reg.
  RVTEST_SIGUPD(x29, x8, x7, x18, I_or_cg_cmp_rd_rs1_b18, I_or_cg_cmp_rd_rs1_b18_str)
    36ec:	000ea383          	lw	x7,0(x29)
    36f0:	01238863          	beq	x7,x18,3700 <I_or_cg_cmp_rd_rs1_b18+0x18>
    36f4:	5e10046f          	jal	x8,44d4 <failedtest_x8_x7>
    36f8:	000036e8          	.word	0x000036e8
    36fc:	0000de66          	.word	0x0000de66
    3700:	004e8e93          	addi	x29,x29,4

# Testcase cmp_rd_rs1 (Test rd = rs1 = x19)
  RVTEST_TESTDATA_LOAD_INT(x23, x19) # load rs1: x19 = 0xd3242cfb
    3704:	000ba983          	lw	x19,0(x23)
    3708:	004b8b93          	addi	x23,x23,4
  RVTEST_TESTDATA_LOAD_INT(x23, x6) # load rs2: x6 = 0xe19191c2
    370c:	000ba303          	lw	x6,0(x23)
    3710:	004b8b93          	addi	x23,x23,4

00003714 <I_or_cg_cmp_rd_rs1_b19>:
I_or_cg_cmp_rd_rs1_b19:
  or x19, x19, x6 # perform operation
    3714:	0069e9b3          	or	x19,x19,x6
  # Check if x19 contains the expected result. x29 is the signature ptr, x8 is the link ptr, x7 is a temp reg.
  RVTEST_SIGUPD(x29, x8, x7, x19, I_or_cg_cmp_rd_rs1_b19, I_or_cg_cmp_rd_rs1_b19_str)
    3718:	000ea383          	lw	x7,0(x29)
    371c:	01338863          	beq	x7,x19,372c <I_or_cg_cmp_rd_rs1_b19+0x18>
    3720:	5b50046f          	jal	x8,44d4 <failedtest_x8_x7>
    3724:	00003714          	.word	0x00003714
    3728:	0000de99          	.word	0x0000de99
    372c:	004e8e93          	addi	x29,x29,4

# Testcase cmp_rd_rs1 (Test rd = rs1 = x20)
  RVTEST_TESTDATA_LOAD_INT(x23, x20) # load rs1: x20 = 0xa7b61b1c
    3730:	000baa03          	lw	x20,0(x23)
    3734:	004b8b93          	addi	x23,x23,4
  RVTEST_TESTDATA_LOAD_INT(x23, x24) # load rs2: x24 = 0xc80754bd
    3738:	000bac03          	lw	x24,0(x23)
    373c:	004b8b93          	addi	x23,x23,4

00003740 <I_or_cg_cmp_rd_rs1_b20>:
I_or_cg_cmp_rd_rs1_b20:
  or x20, x20, x24 # perform operation
    3740:	018a6a33          	or	x20,x20,x24
  # Check if x20 contains the expected result. x29 is the signature ptr, x8 is the link ptr, x7 is a temp reg.
  RVTEST_SIGUPD(x29, x8, x7, x20, I_or_cg_cmp_rd_rs1_b20, I_or_cg_cmp_rd_rs1_b20_str)
    3744:	000ea383          	lw	x7,0(x29)
    3748:	01438863          	beq	x7,x20,3758 <I_or_cg_cmp_rd_rs1_b20+0x18>
    374c:	5890046f          	jal	x8,44d4 <failedtest_x8_x7>
    3750:	00003740          	.word	0x00003740
    3754:	0000decc          	.word	0x0000decc
    3758:	004e8e93          	addi	x29,x29,4

# Testcase cmp_rd_rs1 (Test rd = rs1 = x21)
  RVTEST_TESTDATA_LOAD_INT(x23, x21) # load rs1: x21 = 0x71e0af86
    375c:	000baa83          	lw	x21,0(x23)
    3760:	004b8b93          	addi	x23,x23,4
  RVTEST_TESTDATA_LOAD_INT(x23, x9) # load rs2: x9 = 0x588e06a9
    3764:	000ba483          	lw	x9,0(x23)
    3768:	004b8b93          	addi	x23,x23,4

0000376c <I_or_cg_cmp_rd_rs1_b21>:
I_or_cg_cmp_rd_rs1_b21:
  or x21, x21, x9 # perform operation
    376c:	009aeab3          	or	x21,x21,x9
  # Check if x21 contains the expected result. x29 is the signature ptr, x8 is the link ptr, x7 is a temp reg.
  RVTEST_SIGUPD(x29, x8, x7, x21, I_or_cg_cmp_rd_rs1_b21, I_or_cg_cmp_rd_rs1_b21_str)
    3770:	000ea383          	lw	x7,0(x29)
    3774:	01538863          	beq	x7,x21,3784 <I_or_cg_cmp_rd_rs1_b21+0x18>
    3778:	55d0046f          	jal	x8,44d4 <failedtest_x8_x7>
    377c:	0000376c          	.word	0x0000376c
    3780:	0000deff          	.word	0x0000deff
    3784:	004e8e93          	addi	x29,x29,4

# Testcase cmp_rd_rs1 (Test rd = rs1 = x22)
  RVTEST_TESTDATA_LOAD_INT(x23, x22) # load rs1: x22 = 0x07b27d7b
    3788:	000bab03          	lw	x22,0(x23)
    378c:	004b8b93          	addi	x23,x23,4
  RVTEST_TESTDATA_LOAD_INT(x23, x27) # load rs2: x27 = 0xb4a71622
    3790:	000bad83          	lw	x27,0(x23)
    3794:	004b8b93          	addi	x23,x23,4

00003798 <I_or_cg_cmp_rd_rs1_b22>:
I_or_cg_cmp_rd_rs1_b22:
  or x22, x22, x27 # perform operation
    3798:	01bb6b33          	or	x22,x22,x27
  # Check if x22 contains the expected result. x29 is the signature ptr, x8 is the link ptr, x7 is a temp reg.
  RVTEST_SIGUPD(x29, x8, x7, x22, I_or_cg_cmp_rd_rs1_b22, I_or_cg_cmp_rd_rs1_b22_str)
    379c:	000ea383          	lw	x7,0(x29)
    37a0:	01638863          	beq	x7,x22,37b0 <I_or_cg_cmp_rd_rs1_b22+0x18>
    37a4:	5310046f          	jal	x8,44d4 <failedtest_x8_x7>
    37a8:	00003798          	.word	0x00003798
    37ac:	0000df32          	.word	0x0000df32
    37b0:	004e8e93          	addi	x29,x29,4

  mv x16, x23 # switch data pointer register to avoid conflict with test
    37b4:	000b8813          	addi	x16,x23,0
# Testcase cmp_rd_rs1 (Test rd = rs1 = x23)
  RVTEST_TESTDATA_LOAD_INT(x16, x23) # load rs1: x23 = 0x29b72e32
    37b8:	00082b83          	lw	x23,0(x16)
    37bc:	00480813          	addi	x16,x16,4
  RVTEST_TESTDATA_LOAD_INT(x16, x31) # load rs2: x31 = 0xa13ae235
    37c0:	00082f83          	lw	x31,0(x16)
    37c4:	00480813          	addi	x16,x16,4

000037c8 <I_or_cg_cmp_rd_rs1_b23>:
I_or_cg_cmp_rd_rs1_b23:
  or x23, x23, x31 # perform operation
    37c8:	01fbebb3          	or	x23,x23,x31
  # Check if x23 contains the expected result. x29 is the signature ptr, x8 is the link ptr, x7 is a temp reg.
  RVTEST_SIGUPD(x29, x8, x7, x23, I_or_cg_cmp_rd_rs1_b23, I_or_cg_cmp_rd_rs1_b23_str)
    37cc:	000ea383          	lw	x7,0(x29)
    37d0:	01738863          	beq	x7,x23,37e0 <I_or_cg_cmp_rd_rs1_b23+0x18>
    37d4:	5010046f          	jal	x8,44d4 <failedtest_x8_x7>
    37d8:	000037c8          	.word	0x000037c8
    37dc:	0000df65          	.word	0x0000df65
    37e0:	004e8e93          	addi	x29,x29,4

# Testcase cmp_rd_rs1 (Test rd = rs1 = x24)
  RVTEST_TESTDATA_LOAD_INT(x16, x24) # load rs1: x24 = 0xc2ccdef6
    37e4:	00082c03          	lw	x24,0(x16)
    37e8:	00480813          	addi	x16,x16,4
  RVTEST_TESTDATA_LOAD_INT(x16, x6) # load rs2: x6 = 0x507e5df5
    37ec:	00082303          	lw	x6,0(x16)
    37f0:	00480813          	addi	x16,x16,4

000037f4 <I_or_cg_cmp_rd_rs1_b24>:
I_or_cg_cmp_rd_rs1_b24:
  or x24, x24, x6 # perform operation
    37f4:	006c6c33          	or	x24,x24,x6
  # Check if x24 contains the expected result. x29 is the signature ptr, x8 is the link ptr, x7 is a temp reg.
  RVTEST_SIGUPD(x29, x8, x7, x24, I_or_cg_cmp_rd_rs1_b24, I_or_cg_cmp_rd_rs1_b24_str)
    37f8:	000ea383          	lw	x7,0(x29)
    37fc:	01838863          	beq	x7,x24,380c <I_or_cg_cmp_rd_rs1_b24+0x18>
    3800:	4d50046f          	jal	x8,44d4 <failedtest_x8_x7>
    3804:	000037f4          	.word	0x000037f4
    3808:	0000df98          	.word	0x0000df98
    380c:	004e8e93          	addi	x29,x29,4

# Testcase cmp_rd_rs1 (Test rd = rs1 = x25)
  RVTEST_TESTDATA_LOAD_INT(x16, x25) # load rs1: x25 = 0x86321446
    3810:	00082c83          	lw	x25,0(x16)
    3814:	00480813          	addi	x16,x16,4
  RVTEST_TESTDATA_LOAD_INT(x16, x12) # load rs2: x12 = 0x1012e035
    3818:	00082603          	lw	x12,0(x16)
    381c:	00480813          	addi	x16,x16,4

00003820 <I_or_cg_cmp_rd_rs1_b25>:
I_or_cg_cmp_rd_rs1_b25:
  or x25, x25, x12 # perform operation
    3820:	00ccecb3          	or	x25,x25,x12
  # Check if x25 contains the expected result. x29 is the signature ptr, x8 is the link ptr, x7 is a temp reg.
  RVTEST_SIGUPD(x29, x8, x7, x25, I_or_cg_cmp_rd_rs1_b25, I_or_cg_cmp_rd_rs1_b25_str)
    3824:	000ea383          	lw	x7,0(x29)
    3828:	01938863          	beq	x7,x25,3838 <I_or_cg_cmp_rd_rs1_b25+0x18>
    382c:	4a90046f          	jal	x8,44d4 <failedtest_x8_x7>
    3830:	00003820          	.word	0x00003820
    3834:	0000dfcb          	.word	0x0000dfcb
    3838:	004e8e93          	addi	x29,x29,4

# Testcase cmp_rd_rs1 (Test rd = rs1 = x26)
  RVTEST_TESTDATA_LOAD_INT(x16, x26) # load rs1: x26 = 0x493f044b
    383c:	00082d03          	lw	x26,0(x16)
    3840:	00480813          	addi	x16,x16,4
  RVTEST_TESTDATA_LOAD_INT(x16, x19) # load rs2: x19 = 0x7e94cda9
    3844:	00082983          	lw	x19,0(x16)
    3848:	00480813          	addi	x16,x16,4

0000384c <I_or_cg_cmp_rd_rs1_b26>:
I_or_cg_cmp_rd_rs1_b26:
  or x26, x26, x19 # perform operation
    384c:	013d6d33          	or	x26,x26,x19
  # Check if x26 contains the expected result. x29 is the signature ptr, x8 is the link ptr, x7 is a temp reg.
  RVTEST_SIGUPD(x29, x8, x7, x26, I_or_cg_cmp_rd_rs1_b26, I_or_cg_cmp_rd_rs1_b26_str)
    3850:	000ea383          	lw	x7,0(x29)
    3854:	01a38863          	beq	x7,x26,3864 <I_or_cg_cmp_rd_rs1_b26+0x18>
    3858:	47d0046f          	jal	x8,44d4 <failedtest_x8_x7>
    385c:	0000384c          	.word	0x0000384c
    3860:	0000dffe          	.word	0x0000dffe
    3864:	004e8e93          	addi	x29,x29,4

# Testcase cmp_rd_rs1 (Test rd = rs1 = x27)
  RVTEST_TESTDATA_LOAD_INT(x16, x27) # load rs1: x27 = 0x08d34d75
    3868:	00082d83          	lw	x27,0(x16)
    386c:	00480813          	addi	x16,x16,4
  RVTEST_TESTDATA_LOAD_INT(x16, x21) # load rs2: x21 = 0x626ff73f
    3870:	00082a83          	lw	x21,0(x16)
    3874:	00480813          	addi	x16,x16,4

00003878 <I_or_cg_cmp_rd_rs1_b27>:
I_or_cg_cmp_rd_rs1_b27:
  or x27, x27, x21 # perform operation
    3878:	015dedb3          	or	x27,x27,x21
  # Check if x27 contains the expected result. x29 is the signature ptr, x8 is the link ptr, x7 is a temp reg.
  RVTEST_SIGUPD(x29, x8, x7, x27, I_or_cg_cmp_rd_rs1_b27, I_or_cg_cmp_rd_rs1_b27_str)
    387c:	000ea383          	lw	x7,0(x29)
    3880:	01b38863          	beq	x7,x27,3890 <I_or_cg_cmp_rd_rs1_b27+0x18>
    3884:	4510046f          	jal	x8,44d4 <failedtest_x8_x7>
    3888:	00003878          	.word	0x00003878
    388c:	0000e031          	.word	0x0000e031
    3890:	004e8e93          	addi	x29,x29,4

# Testcase cmp_rd_rs1 (Test rd = rs1 = x28)
  RVTEST_TESTDATA_LOAD_INT(x16, x28) # load rs1: x28 = 0x76c67911
    3894:	00082e03          	lw	x28,0(x16)
    3898:	00480813          	addi	x16,x16,4
  RVTEST_TESTDATA_LOAD_INT(x16, x5) # load rs2: x5 = 0xde0f76fa
    389c:	00082283          	lw	x5,0(x16)
    38a0:	00480813          	addi	x16,x16,4

000038a4 <I_or_cg_cmp_rd_rs1_b28>:
I_or_cg_cmp_rd_rs1_b28:
  or x28, x28, x5 # perform operation
    38a4:	005e6e33          	or	x28,x28,x5
  # Check if x28 contains the expected result. x29 is the signature ptr, x8 is the link ptr, x7 is a temp reg.
  RVTEST_SIGUPD(x29, x8, x7, x28, I_or_cg_cmp_rd_rs1_b28, I_or_cg_cmp_rd_rs1_b28_str)
    38a8:	000ea383          	lw	x7,0(x29)
    38ac:	01c38863          	beq	x7,x28,38bc <I_or_cg_cmp_rd_rs1_b28+0x18>
    38b0:	4250046f          	jal	x8,44d4 <failedtest_x8_x7>
    38b4:	000038a4          	.word	0x000038a4
    38b8:	0000e064          	.word	0x0000e064
    38bc:	004e8e93          	addi	x29,x29,4

  mv x17, x29 # switch signature pointer register to avoid conflict with test
    38c0:	000e8893          	addi	x17,x29,0
# Testcase cmp_rd_rs1 (Test rd = rs1 = x29)
  RVTEST_TESTDATA_LOAD_INT(x16, x29) # load rs1: x29 = 0xc5c441f6
    38c4:	00082e83          	lw	x29,0(x16)
    38c8:	00480813          	addi	x16,x16,4
  RVTEST_TESTDATA_LOAD_INT(x16, x2) # load rs2: x2 = 0xed9ab82b
    38cc:	00082103          	lw	x2,0(x16)
    38d0:	00480813          	addi	x16,x16,4

000038d4 <I_or_cg_cmp_rd_rs1_b29>:
I_or_cg_cmp_rd_rs1_b29:
  or x29, x29, x2 # perform operation
    38d4:	002eeeb3          	or	x29,x29,x2
  # Check if x29 contains the expected result. x17 is the signature ptr, x8 is the link ptr, x7 is a temp reg.
  RVTEST_SIGUPD(x17, x8, x7, x29, I_or_cg_cmp_rd_rs1_b29, I_or_cg_cmp_rd_rs1_b29_str)
    38d8:	0008a383          	lw	x7,0(x17)
    38dc:	01d38863          	beq	x7,x29,38ec <I_or_cg_cmp_rd_rs1_b29+0x18>
    38e0:	3f50046f          	jal	x8,44d4 <failedtest_x8_x7>
    38e4:	000038d4          	.word	0x000038d4
    38e8:	0000e097          	.word	0x0000e097
    38ec:	00488893          	addi	x17,x17,4

# Testcase cmp_rd_rs1 (Test rd = rs1 = x30)
  RVTEST_TESTDATA_LOAD_INT(x16, x30) # load rs1: x30 = 0x434af89c
    38f0:	00082f03          	lw	x30,0(x16)
    38f4:	00480813          	addi	x16,x16,4
  RVTEST_TESTDATA_LOAD_INT(x16, x27) # load rs2: x27 = 0x19c11182
    38f8:	00082d83          	lw	x27,0(x16)
    38fc:	00480813          	addi	x16,x16,4

00003900 <I_or_cg_cmp_rd_rs1_b30>:
I_or_cg_cmp_rd_rs1_b30:
  or x30, x30, x27 # perform operation
    3900:	01bf6f33          	or	x30,x30,x27
  # Check if x30 contains the expected result. x17 is the signature ptr, x8 is the link ptr, x7 is a temp reg.
  RVTEST_SIGUPD(x17, x8, x7, x30, I_or_cg_cmp_rd_rs1_b30, I_or_cg_cmp_rd_rs1_b30_str)
    3904:	0008a383          	lw	x7,0(x17)
    3908:	01e38863          	beq	x7,x30,3918 <I_or_cg_cmp_rd_rs1_b30+0x18>
    390c:	3c90046f          	jal	x8,44d4 <failedtest_x8_x7>
    3910:	00003900          	.word	0x00003900
    3914:	0000e0ca          	.word	0x0000e0ca
    3918:	00488893          	addi	x17,x17,4

# Testcase cmp_rd_rs1 (Test rd = rs1 = x31)
  RVTEST_TESTDATA_LOAD_INT(x16, x31) # load rs1: x31 = 0x1491d5a6
    391c:	00082f83          	lw	x31,0(x16)
    3920:	00480813          	addi	x16,x16,4
  RVTEST_TESTDATA_LOAD_INT(x16, x10) # load rs2: x10 = 0xf431f620
    3924:	00082503          	lw	x10,0(x16)
    3928:	00480813          	addi	x16,x16,4

0000392c <I_or_cg_cmp_rd_rs1_b31>:
I_or_cg_cmp_rd_rs1_b31:
  or x31, x31, x10 # perform operation
    392c:	00afefb3          	or	x31,x31,x10
  # Check if x31 contains the expected result. x17 is the signature ptr, x8 is the link ptr, x7 is a temp reg.
  RVTEST_SIGUPD(x17, x8, x7, x31, I_or_cg_cmp_rd_rs1_b31, I_or_cg_cmp_rd_rs1_b31_str)
    3930:	0008a383          	lw	x7,0(x17)
    3934:	01f38863          	beq	x7,x31,3944 <I_or_cg_cmp_rd_rs1_b31+0x18>
    3938:	39d0046f          	jal	x8,44d4 <failedtest_x8_x7>
    393c:	0000392c          	.word	0x0000392c
    3940:	0000e0fd          	.word	0x0000e0fd
    3944:	00488893          	addi	x17,x17,4
/////////////////////////////////
// cmp_rd_rs2
/////////////////////////////////

# Testcase cmp_rd_rs2 (Test rd = rs2 = x0)
  RVTEST_TESTDATA_LOAD_INT(x16, x26) # load rs1: x26 = 0x241def0b
    3948:	00082d03          	lw	x26,0(x16)
    394c:	00480813          	addi	x16,x16,4
  RVTEST_TESTDATA_LOAD_INT(x16, x0) # load rs2: x0 = 0x08526904
    3950:	00082003          	lw	x0,0(x16)
    3954:	00480813          	addi	x16,x16,4

00003958 <I_or_cg_cmp_rd_rs2_b0>:
I_or_cg_cmp_rd_rs2_b0:
  or x0, x26, x0 # perform operation
    3958:	000d6033          	or	x0,x26,x0
  # Check if x0 contains the expected result. x17 is the signature ptr, x8 is the link ptr, x7 is a temp reg.
  RVTEST_SIGUPD(x17, x8, x7, x0, I_or_cg_cmp_rd_rs2_b0, I_or_cg_cmp_rd_rs2_b0_str)
    395c:	0008a383          	lw	x7,0(x17)
    3960:	00038863          	beq	x7,x0,3970 <I_or_cg_cmp_rd_rs2_b0+0x18>
    3964:	3710046f          	jal	x8,44d4 <failedtest_x8_x7>
    3968:	00003958          	.word	0x00003958
    396c:	0000e130          	.word	0x0000e130
    3970:	00488893          	addi	x17,x17,4

# Testcase cmp_rd_rs2 (Test rd = rs2 = x1)
  RVTEST_TESTDATA_LOAD_INT(x16, x15) # load rs1: x15 = 0x65427748
    3974:	00082783          	lw	x15,0(x16)
    3978:	00480813          	addi	x16,x16,4
  RVTEST_TESTDATA_LOAD_INT(x16, x1) # load rs2: x1 = 0x57420530
    397c:	00082083          	lw	x1,0(x16)
    3980:	00480813          	addi	x16,x16,4

00003984 <I_or_cg_cmp_rd_rs2_b1>:
I_or_cg_cmp_rd_rs2_b1:
  or x1, x15, x1 # perform operation
    3984:	0017e0b3          	or	x1,x15,x1
  # Check if x1 contains the expected result. x17 is the signature ptr, x8 is the link ptr, x7 is a temp reg.
  RVTEST_SIGUPD(x17, x8, x7, x1, I_or_cg_cmp_rd_rs2_b1, I_or_cg_cmp_rd_rs2_b1_str)
    3988:	0008a383          	lw	x7,0(x17)
    398c:	00138863          	beq	x7,x1,399c <I_or_cg_cmp_rd_rs2_b1+0x18>
    3990:	3450046f          	jal	x8,44d4 <failedtest_x8_x7>
    3994:	00003984          	.word	0x00003984
    3998:	0000e162          	.word	0x0000e162
    399c:	00488893          	addi	x17,x17,4

# Testcase cmp_rd_rs2 (Test rd = rs2 = x2)
  RVTEST_TESTDATA_LOAD_INT(x16, x0) # load rs1: x0 = 0x22e2d0ea
    39a0:	00082003          	lw	x0,0(x16)
    39a4:	00480813          	addi	x16,x16,4
  RVTEST_TESTDATA_LOAD_INT(x16, x2) # load rs2: x2 = 0x09851af1
    39a8:	00082103          	lw	x2,0(x16)
    39ac:	00480813          	addi	x16,x16,4

000039b0 <I_or_cg_cmp_rd_rs2_b2>:
I_or_cg_cmp_rd_rs2_b2:
  or x2, x0, x2 # perform operation
    39b0:	00206133          	or	x2,x0,x2
  # Check if x2 contains the expected result. x17 is the signature ptr, x8 is the link ptr, x7 is a temp reg.
  RVTEST_SIGUPD(x17, x8, x7, x2, I_or_cg_cmp_rd_rs2_b2, I_or_cg_cmp_rd_rs2_b2_str)
    39b4:	0008a383          	lw	x7,0(x17)
    39b8:	00238863          	beq	x7,x2,39c8 <I_or_cg_cmp_rd_rs2_b2+0x18>
    39bc:	3190046f          	jal	x8,44d4 <failedtest_x8_x7>
    39c0:	000039b0          	.word	0x000039b0
    39c4:	0000e194          	.word	0x0000e194
    39c8:	00488893          	addi	x17,x17,4

# Testcase cmp_rd_rs2 (Test rd = rs2 = x3)
  RVTEST_TESTDATA_LOAD_INT(x16, x5) # load rs1: x5 = 0xc89a2931
    39cc:	00082283          	lw	x5,0(x16)
    39d0:	00480813          	addi	x16,x16,4
  RVTEST_TESTDATA_LOAD_INT(x16, x3) # load rs2: x3 = 0x8e2faae3
    39d4:	00082183          	lw	x3,0(x16)
    39d8:	00480813          	addi	x16,x16,4

000039dc <I_or_cg_cmp_rd_rs2_b3>:
I_or_cg_cmp_rd_rs2_b3:
  or x3, x5, x3 # perform operation
    39dc:	0032e1b3          	or	x3,x5,x3
  # Check if x3 contains the expected result. x17 is the signature ptr, x8 is the link ptr, x7 is a temp reg.
  RVTEST_SIGUPD(x17, x8, x7, x3, I_or_cg_cmp_rd_rs2_b3, I_or_cg_cmp_rd_rs2_b3_str)
    39e0:	0008a383          	lw	x7,0(x17)
    39e4:	00338863          	beq	x7,x3,39f4 <I_or_cg_cmp_rd_rs2_b3+0x18>
    39e8:	2ed0046f          	jal	x8,44d4 <failedtest_x8_x7>
    39ec:	000039dc          	.word	0x000039dc
    39f0:	0000e1c6          	.word	0x0000e1c6
    39f4:	00488893          	addi	x17,x17,4

# Testcase cmp_rd_rs2 (Test rd = rs2 = x4)
  RVTEST_TESTDATA_LOAD_INT(x16, x12) # load rs1: x12 = 0x21eef13f
    39f8:	00082603          	lw	x12,0(x16)
    39fc:	00480813          	addi	x16,x16,4
  RVTEST_TESTDATA_LOAD_INT(x16, x4) # load rs2: x4 = 0x0057756d
    3a00:	00082203          	lw	x4,0(x16)
    3a04:	00480813          	addi	x16,x16,4

00003a08 <I_or_cg_cmp_rd_rs2_b4>:
I_or_cg_cmp_rd_rs2_b4:
  or x4, x12, x4 # perform operation
    3a08:	00466233          	or	x4,x12,x4
  # Check if x4 contains the expected result. x17 is the signature ptr, x8 is the link ptr, x7 is a temp reg.
  RVTEST_SIGUPD(x17, x8, x7, x4, I_or_cg_cmp_rd_rs2_b4, I_or_cg_cmp_rd_rs2_b4_str)
    3a0c:	0008a383          	lw	x7,0(x17)
    3a10:	00438863          	beq	x7,x4,3a20 <I_or_cg_cmp_rd_rs2_b4+0x18>
    3a14:	2c10046f          	jal	x8,44d4 <failedtest_x8_x7>
    3a18:	00003a08          	.word	0x00003a08
    3a1c:	0000e1f8          	.word	0x0000e1f8
    3a20:	00488893          	addi	x17,x17,4

# Testcase cmp_rd_rs2 (Test rd = rs2 = x5)
  RVTEST_TESTDATA_LOAD_INT(x16, x14) # load rs1: x14 = 0x7ba21be1
    3a24:	00082703          	lw	x14,0(x16)
    3a28:	00480813          	addi	x16,x16,4
  RVTEST_TESTDATA_LOAD_INT(x16, x5) # load rs2: x5 = 0x179666fb
    3a2c:	00082283          	lw	x5,0(x16)
    3a30:	00480813          	addi	x16,x16,4

00003a34 <I_or_cg_cmp_rd_rs2_b5>:
I_or_cg_cmp_rd_rs2_b5:
  or x5, x14, x5 # perform operation
    3a34:	005762b3          	or	x5,x14,x5
  # Check if x5 contains the expected result. x17 is the signature ptr, x8 is the link ptr, x7 is a temp reg.
  RVTEST_SIGUPD(x17, x8, x7, x5, I_or_cg_cmp_rd_rs2_b5, I_or_cg_cmp_rd_rs2_b5_str)
    3a38:	0008a383          	lw	x7,0(x17)
    3a3c:	00538863          	beq	x7,x5,3a4c <I_or_cg_cmp_rd_rs2_b5+0x18>
    3a40:	2950046f          	jal	x8,44d4 <failedtest_x8_x7>
    3a44:	00003a34          	.word	0x00003a34
    3a48:	0000e22a          	.word	0x0000e22a
    3a4c:	00488893          	addi	x17,x17,4

# Testcase cmp_rd_rs2 (Test rd = rs2 = x6)
  RVTEST_TESTDATA_LOAD_INT(x16, x20) # load rs1: x20 = 0xb74eb070
    3a50:	00082a03          	lw	x20,0(x16)
    3a54:	00480813          	addi	x16,x16,4
  RVTEST_TESTDATA_LOAD_INT(x16, x6) # load rs2: x6 = 0x32083dee
    3a58:	00082303          	lw	x6,0(x16)
    3a5c:	00480813          	addi	x16,x16,4

00003a60 <I_or_cg_cmp_rd_rs2_b6>:
I_or_cg_cmp_rd_rs2_b6:
  or x6, x20, x6 # perform operation
    3a60:	006a6333          	or	x6,x20,x6
  # Check if x6 contains the expected result. x17 is the signature ptr, x8 is the link ptr, x7 is a temp reg.
  RVTEST_SIGUPD(x17, x8, x7, x6, I_or_cg_cmp_rd_rs2_b6, I_or_cg_cmp_rd_rs2_b6_str)
    3a64:	0008a383          	lw	x7,0(x17)
    3a68:	00638863          	beq	x7,x6,3a78 <I_or_cg_cmp_rd_rs2_b6+0x18>
    3a6c:	2690046f          	jal	x8,44d4 <failedtest_x8_x7>
    3a70:	00003a60          	.word	0x00003a60
    3a74:	0000e25c          	.word	0x0000e25c
    3a78:	00488893          	addi	x17,x17,4

  mv x13, x7 # switch temp register to avoid conflict with test
    3a7c:	00038693          	addi	x13,x7,0
  mv x14, x8 # switch link pointer register to avoid conflict with test
    3a80:	00040713          	addi	x14,x8,0
# Testcase cmp_rd_rs2 (Test rd = rs2 = x7)
  RVTEST_TESTDATA_LOAD_INT(x16, x11) # load rs1: x11 = 0x92425e99
    3a84:	00082583          	lw	x11,0(x16)
    3a88:	00480813          	addi	x16,x16,4
  RVTEST_TESTDATA_LOAD_INT(x16, x7) # load rs2: x7 = 0x3895cb9e
    3a8c:	00082383          	lw	x7,0(x16)
    3a90:	00480813          	addi	x16,x16,4

00003a94 <I_or_cg_cmp_rd_rs2_b7>:
I_or_cg_cmp_rd_rs2_b7:
  or x7, x11, x7 # perform operation
    3a94:	0075e3b3          	or	x7,x11,x7
  # Check if x7 contains the expected result. x17 is the signature ptr, x14 is the link ptr, x13 is a temp reg.
  RVTEST_SIGUPD(x17, x14, x13, x7, I_or_cg_cmp_rd_rs2_b7, I_or_cg_cmp_rd_rs2_b7_str)
    3a98:	0008a683          	lw	x13,0(x17)
    3a9c:	00768863          	beq	x13,x7,3aac <I_or_cg_cmp_rd_rs2_b7+0x18>
    3aa0:	25d0076f          	jal	x14,44fc <failedtest_x14_x13>
    3aa4:	00003a94          	.word	0x00003a94
    3aa8:	0000e28e          	.word	0x0000e28e
    3aac:	00488893          	addi	x17,x17,4

# Testcase cmp_rd_rs2 (Test rd = rs2 = x8)
  RVTEST_TESTDATA_LOAD_INT(x16, x5) # load rs1: x5 = 0xbfb11172
    3ab0:	00082283          	lw	x5,0(x16)
    3ab4:	00480813          	addi	x16,x16,4
  RVTEST_TESTDATA_LOAD_INT(x16, x8) # load rs2: x8 = 0xace9584b
    3ab8:	00082403          	lw	x8,0(x16)
    3abc:	00480813          	addi	x16,x16,4

00003ac0 <I_or_cg_cmp_rd_rs2_b8>:
I_or_cg_cmp_rd_rs2_b8:
  or x8, x5, x8 # perform operation
    3ac0:	0082e433          	or	x8,x5,x8
  # Check if x8 contains the expected result. x17 is the signature ptr, x14 is the link ptr, x13 is a temp reg.
  RVTEST_SIGUPD(x17, x14, x13, x8, I_or_cg_cmp_rd_rs2_b8, I_or_cg_cmp_rd_rs2_b8_str)
    3ac4:	0008a683          	lw	x13,0(x17)
    3ac8:	00868863          	beq	x13,x8,3ad8 <I_or_cg_cmp_rd_rs2_b8+0x18>
    3acc:	2310076f          	jal	x14,44fc <failedtest_x14_x13>
    3ad0:	00003ac0          	.word	0x00003ac0
    3ad4:	0000e2c0          	.word	0x0000e2c0
    3ad8:	00488893          	addi	x17,x17,4

# Testcase cmp_rd_rs2 (Test rd = rs2 = x9)
  RVTEST_TESTDATA_LOAD_INT(x16, x21) # load rs1: x21 = 0x87a7c5d6
    3adc:	00082a83          	lw	x21,0(x16)
    3ae0:	00480813          	addi	x16,x16,4
  RVTEST_TESTDATA_LOAD_INT(x16, x9) # load rs2: x9 = 0xbb3dfeac
    3ae4:	00082483          	lw	x9,0(x16)
    3ae8:	00480813          	addi	x16,x16,4

00003aec <I_or_cg_cmp_rd_rs2_b9>:
I_or_cg_cmp_rd_rs2_b9:
  or x9, x21, x9 # perform operation
    3aec:	009ae4b3          	or	x9,x21,x9
  # Check if x9 contains the expected result. x17 is the signature ptr, x14 is the link ptr, x13 is a temp reg.
  RVTEST_SIGUPD(x17, x14, x13, x9, I_or_cg_cmp_rd_rs2_b9, I_or_cg_cmp_rd_rs2_b9_str)
    3af0:	0008a683          	lw	x13,0(x17)
    3af4:	00968863          	beq	x13,x9,3b04 <I_or_cg_cmp_rd_rs2_b9+0x18>
    3af8:	2050076f          	jal	x14,44fc <failedtest_x14_x13>
    3afc:	00003aec          	.word	0x00003aec
    3b00:	0000e2f2          	.word	0x0000e2f2
    3b04:	00488893          	addi	x17,x17,4

# Testcase cmp_rd_rs2 (Test rd = rs2 = x10)
  RVTEST_TESTDATA_LOAD_INT(x16, x31) # load rs1: x31 = 0x9f13a089
    3b08:	00082f83          	lw	x31,0(x16)
    3b0c:	00480813          	addi	x16,x16,4
  RVTEST_TESTDATA_LOAD_INT(x16, x10) # load rs2: x10 = 0x7c5ac58e
    3b10:	00082503          	lw	x10,0(x16)
    3b14:	00480813          	addi	x16,x16,4

00003b18 <I_or_cg_cmp_rd_rs2_b10>:
I_or_cg_cmp_rd_rs2_b10:
  or x10, x31, x10 # perform operation
    3b18:	00afe533          	or	x10,x31,x10
  # Check if x10 contains the expected result. x17 is the signature ptr, x14 is the link ptr, x13 is a temp reg.
  RVTEST_SIGUPD(x17, x14, x13, x10, I_or_cg_cmp_rd_rs2_b10, I_or_cg_cmp_rd_rs2_b10_str)
    3b1c:	0008a683          	lw	x13,0(x17)
    3b20:	00a68863          	beq	x13,x10,3b30 <I_or_cg_cmp_rd_rs2_b10+0x18>
    3b24:	1d90076f          	jal	x14,44fc <failedtest_x14_x13>
    3b28:	00003b18          	.word	0x00003b18
    3b2c:	0000e324          	.word	0x0000e324
    3b30:	00488893          	addi	x17,x17,4

# Testcase cmp_rd_rs2 (Test rd = rs2 = x11)
  RVTEST_TESTDATA_LOAD_INT(x16, x28) # load rs1: x28 = 0xa0693043
    3b34:	00082e03          	lw	x28,0(x16)
    3b38:	00480813          	addi	x16,x16,4
  RVTEST_TESTDATA_LOAD_INT(x16, x11) # load rs2: x11 = 0x3f9e92e9
    3b3c:	00082583          	lw	x11,0(x16)
    3b40:	00480813          	addi	x16,x16,4

00003b44 <I_or_cg_cmp_rd_rs2_b11>:
I_or_cg_cmp_rd_rs2_b11:
  or x11, x28, x11 # perform operation
    3b44:	00be65b3          	or	x11,x28,x11
  # Check if x11 contains the expected result. x17 is the signature ptr, x14 is the link ptr, x13 is a temp reg.
  RVTEST_SIGUPD(x17, x14, x13, x11, I_or_cg_cmp_rd_rs2_b11, I_or_cg_cmp_rd_rs2_b11_str)
    3b48:	0008a683          	lw	x13,0(x17)
    3b4c:	00b68863          	beq	x13,x11,3b5c <I_or_cg_cmp_rd_rs2_b11+0x18>
    3b50:	1ad0076f          	jal	x14,44fc <failedtest_x14_x13>
    3b54:	00003b44          	.word	0x00003b44
    3b58:	0000e357          	.word	0x0000e357
    3b5c:	00488893          	addi	x17,x17,4

# Testcase cmp_rd_rs2 (Test rd = rs2 = x12)
  RVTEST_TESTDATA_LOAD_INT(x16, x7) # load rs1: x7 = 0x3e0f1174
    3b60:	00082383          	lw	x7,0(x16)
    3b64:	00480813          	addi	x16,x16,4
  RVTEST_TESTDATA_LOAD_INT(x16, x12) # load rs2: x12 = 0x54433d79
    3b68:	00082603          	lw	x12,0(x16)
    3b6c:	00480813          	addi	x16,x16,4

00003b70 <I_or_cg_cmp_rd_rs2_b12>:
I_or_cg_cmp_rd_rs2_b12:
  or x12, x7, x12 # perform operation
    3b70:	00c3e633          	or	x12,x7,x12
  # Check if x12 contains the expected result. x17 is the signature ptr, x14 is the link ptr, x13 is a temp reg.
  RVTEST_SIGUPD(x17, x14, x13, x12, I_or_cg_cmp_rd_rs2_b12, I_or_cg_cmp_rd_rs2_b12_str)
    3b74:	0008a683          	lw	x13,0(x17)
    3b78:	00c68863          	beq	x13,x12,3b88 <I_or_cg_cmp_rd_rs2_b12+0x18>
    3b7c:	1810076f          	jal	x14,44fc <failedtest_x14_x13>
    3b80:	00003b70          	.word	0x00003b70
    3b84:	0000e38a          	.word	0x0000e38a
    3b88:	00488893          	addi	x17,x17,4

  mv x7, x13 # switch temp register to avoid conflict with test
    3b8c:	00068393          	addi	x7,x13,0
  mv x8, x14 # switch link pointer register to avoid conflict with test
    3b90:	00070413          	addi	x8,x14,0
# Testcase cmp_rd_rs2 (Test rd = rs2 = x13)
  RVTEST_TESTDATA_LOAD_INT(x16, x0) # load rs1: x0 = 0x27182596
    3b94:	00082003          	lw	x0,0(x16)
    3b98:	00480813          	addi	x16,x16,4
  RVTEST_TESTDATA_LOAD_INT(x16, x13) # load rs2: x13 = 0x280d862b
    3b9c:	00082683          	lw	x13,0(x16)
    3ba0:	00480813          	addi	x16,x16,4

00003ba4 <I_or_cg_cmp_rd_rs2_b13>:
I_or_cg_cmp_rd_rs2_b13:
  or x13, x0, x13 # perform operation
    3ba4:	00d066b3          	or	x13,x0,x13
  # Check if x13 contains the expected result. x17 is the signature ptr, x8 is the link ptr, x7 is a temp reg.
  RVTEST_SIGUPD(x17, x8, x7, x13, I_or_cg_cmp_rd_rs2_b13, I_or_cg_cmp_rd_rs2_b13_str)
    3ba8:	0008a383          	lw	x7,0(x17)
    3bac:	00d38863          	beq	x7,x13,3bbc <I_or_cg_cmp_rd_rs2_b13+0x18>
    3bb0:	1250046f          	jal	x8,44d4 <failedtest_x8_x7>
    3bb4:	00003ba4          	.word	0x00003ba4
    3bb8:	0000e3bd          	.word	0x0000e3bd
    3bbc:	00488893          	addi	x17,x17,4

# Testcase cmp_rd_rs2 (Test rd = rs2 = x14)
  RVTEST_TESTDATA_LOAD_INT(x16, x31) # load rs1: x31 = 0x8e225d8b
    3bc0:	00082f83          	lw	x31,0(x16)
    3bc4:	00480813          	addi	x16,x16,4
  RVTEST_TESTDATA_LOAD_INT(x16, x14) # load rs2: x14 = 0x3284ce94
    3bc8:	00082703          	lw	x14,0(x16)
    3bcc:	00480813          	addi	x16,x16,4

00003bd0 <I_or_cg_cmp_rd_rs2_b14>:
I_or_cg_cmp_rd_rs2_b14:
  or x14, x31, x14 # perform operation
    3bd0:	00efe733          	or	x14,x31,x14
  # Check if x14 contains the expected result. x17 is the signature ptr, x8 is the link ptr, x7 is a temp reg.
  RVTEST_SIGUPD(x17, x8, x7, x14, I_or_cg_cmp_rd_rs2_b14, I_or_cg_cmp_rd_rs2_b14_str)
    3bd4:	0008a383          	lw	x7,0(x17)
    3bd8:	00e38863          	beq	x7,x14,3be8 <I_or_cg_cmp_rd_rs2_b14+0x18>
    3bdc:	0f90046f          	jal	x8,44d4 <failedtest_x8_x7>
    3be0:	00003bd0          	.word	0x00003bd0
    3be4:	0000e3f0          	.word	0x0000e3f0
    3be8:	00488893          	addi	x17,x17,4

# Testcase cmp_rd_rs2 (Test rd = rs2 = x15)
  RVTEST_TESTDATA_LOAD_INT(x16, x10) # load rs1: x10 = 0x5760d375
    3bec:	00082503          	lw	x10,0(x16)
    3bf0:	00480813          	addi	x16,x16,4
  RVTEST_TESTDATA_LOAD_INT(x16, x15) # load rs2: x15 = 0x77cd0e7a
    3bf4:	00082783          	lw	x15,0(x16)
    3bf8:	00480813          	addi	x16,x16,4

00003bfc <I_or_cg_cmp_rd_rs2_b15>:
I_or_cg_cmp_rd_rs2_b15:
  or x15, x10, x15 # perform operation
    3bfc:	00f567b3          	or	x15,x10,x15
  # Check if x15 contains the expected result. x17 is the signature ptr, x8 is the link ptr, x7 is a temp reg.
  RVTEST_SIGUPD(x17, x8, x7, x15, I_or_cg_cmp_rd_rs2_b15, I_or_cg_cmp_rd_rs2_b15_str)
    3c00:	0008a383          	lw	x7,0(x17)
    3c04:	00f38863          	beq	x7,x15,3c14 <I_or_cg_cmp_rd_rs2_b15+0x18>
    3c08:	0cd0046f          	jal	x8,44d4 <failedtest_x8_x7>
    3c0c:	00003bfc          	.word	0x00003bfc
    3c10:	0000e423          	.word	0x0000e423
    3c14:	00488893          	addi	x17,x17,4

  mv x11, x16 # switch data pointer register to avoid conflict with test
    3c18:	00080593          	addi	x11,x16,0
# Testcase cmp_rd_rs2 (Test rd = rs2 = x16)
  RVTEST_TESTDATA_LOAD_INT(x11, x21) # load rs1: x21 = 0xf9b7c75d
    3c1c:	0005aa83          	lw	x21,0(x11)
    3c20:	00458593          	addi	x11,x11,4
  RVTEST_TESTDATA_LOAD_INT(x11, x16) # load rs2: x16 = 0xf4a3dde2
    3c24:	0005a803          	lw	x16,0(x11)
    3c28:	00458593          	addi	x11,x11,4

00003c2c <I_or_cg_cmp_rd_rs2_b16>:
I_or_cg_cmp_rd_rs2_b16:
  or x16, x21, x16 # perform operation
    3c2c:	010ae833          	or	x16,x21,x16
  # Check if x16 contains the expected result. x17 is the signature ptr, x8 is the link ptr, x7 is a temp reg.
  RVTEST_SIGUPD(x17, x8, x7, x16, I_or_cg_cmp_rd_rs2_b16, I_or_cg_cmp_rd_rs2_b16_str)
    3c30:	0008a383          	lw	x7,0(x17)
    3c34:	01038863          	beq	x7,x16,3c44 <I_or_cg_cmp_rd_rs2_b16+0x18>
    3c38:	09d0046f          	jal	x8,44d4 <failedtest_x8_x7>
    3c3c:	00003c2c          	.word	0x00003c2c
    3c40:	0000e456          	.word	0x0000e456
    3c44:	00488893          	addi	x17,x17,4

  mv x2, x17 # switch signature pointer register to avoid conflict with test
    3c48:	00088113          	addi	x2,x17,0
# Testcase cmp_rd_rs2 (Test rd = rs2 = x17)
  RVTEST_TESTDATA_LOAD_INT(x11, x12) # load rs1: x12 = 0x14654f1d
    3c4c:	0005a603          	lw	x12,0(x11)
    3c50:	00458593          	addi	x11,x11,4
  RVTEST_TESTDATA_LOAD_INT(x11, x17) # load rs2: x17 = 0xa77f349f
    3c54:	0005a883          	lw	x17,0(x11)
    3c58:	00458593          	addi	x11,x11,4

00003c5c <I_or_cg_cmp_rd_rs2_b17>:
I_or_cg_cmp_rd_rs2_b17:
  or x17, x12, x17 # perform operation
    3c5c:	011668b3          	or	x17,x12,x17
  # Check if x17 contains the expected result. x2 is the signature ptr, x8 is the link ptr, x7 is a temp reg.
  RVTEST_SIGUPD(x2, x8, x7, x17, I_or_cg_cmp_rd_rs2_b17, I_or_cg_cmp_rd_rs2_b17_str)
    3c60:	00012383          	lw	x7,0(x2)
    3c64:	01138863          	beq	x7,x17,3c74 <I_or_cg_cmp_rd_rs2_b17+0x18>
    3c68:	06d0046f          	jal	x8,44d4 <failedtest_x8_x7>
    3c6c:	00003c5c          	.word	0x00003c5c
    3c70:	0000e489          	.word	0x0000e489
    3c74:	00410113          	addi	x2,x2,4

# Testcase cmp_rd_rs2 (Test rd = rs2 = x18)
  RVTEST_TESTDATA_LOAD_INT(x11, x23) # load rs1: x23 = 0xbd9155fb
    3c78:	0005ab83          	lw	x23,0(x11)
    3c7c:	00458593          	addi	x11,x11,4
  RVTEST_TESTDATA_LOAD_INT(x11, x18) # load rs2: x18 = 0x99dc20d5
    3c80:	0005a903          	lw	x18,0(x11)
    3c84:	00458593          	addi	x11,x11,4

00003c88 <I_or_cg_cmp_rd_rs2_b18>:
I_or_cg_cmp_rd_rs2_b18:
  or x18, x23, x18 # perform operation
    3c88:	012be933          	or	x18,x23,x18
  # Check if x18 contains the expected result. x2 is the signature ptr, x8 is the link ptr, x7 is a temp reg.
  RVTEST_SIGUPD(x2, x8, x7, x18, I_or_cg_cmp_rd_rs2_b18, I_or_cg_cmp_rd_rs2_b18_str)
    3c8c:	00012383          	lw	x7,0(x2)
    3c90:	01238863          	beq	x7,x18,3ca0 <I_or_cg_cmp_rd_rs2_b18+0x18>
    3c94:	0410046f          	jal	x8,44d4 <failedtest_x8_x7>
    3c98:	00003c88          	.word	0x00003c88
    3c9c:	0000e4bc          	.word	0x0000e4bc
    3ca0:	00410113          	addi	x2,x2,4

# Testcase cmp_rd_rs2 (Test rd = rs2 = x19)
  RVTEST_TESTDATA_LOAD_INT(x11, x27) # load rs1: x27 = 0x45c7a154
    3ca4:	0005ad83          	lw	x27,0(x11)
    3ca8:	00458593          	addi	x11,x11,4
  RVTEST_TESTDATA_LOAD_INT(x11, x19) # load rs2: x19 = 0x17302ef8
    3cac:	0005a983          	lw	x19,0(x11)
    3cb0:	00458593          	addi	x11,x11,4

00003cb4 <I_or_cg_cmp_rd_rs2_b19>:
I_or_cg_cmp_rd_rs2_b19:
  or x19, x27, x19 # perform operation
    3cb4:	013de9b3          	or	x19,x27,x19
  # Check if x19 contains the expected result. x2 is the signature ptr, x8 is the link ptr, x7 is a temp reg.
  RVTEST_SIGUPD(x2, x8, x7, x19, I_or_cg_cmp_rd_rs2_b19, I_or_cg_cmp_rd_rs2_b19_str)
    3cb8:	00012383          	lw	x7,0(x2)
    3cbc:	01338863          	beq	x7,x19,3ccc <I_or_cg_cmp_rd_rs2_b19+0x18>
    3cc0:	0150046f          	jal	x8,44d4 <failedtest_x8_x7>
    3cc4:	00003cb4          	.word	0x00003cb4
    3cc8:	0000e4ef          	.word	0x0000e4ef
    3ccc:	00410113          	addi	x2,x2,4

# Testcase cmp_rd_rs2 (Test rd = rs2 = x20)
  RVTEST_TESTDATA_LOAD_INT(x11, x29) # load rs1: x29 = 0x4068119a
    3cd0:	0005ae83          	lw	x29,0(x11)
    3cd4:	00458593          	addi	x11,x11,4
  RVTEST_TESTDATA_LOAD_INT(x11, x20) # load rs2: x20 = 0xb0f68267
    3cd8:	0005aa03          	lw	x20,0(x11)
    3cdc:	00458593          	addi	x11,x11,4

00003ce0 <I_or_cg_cmp_rd_rs2_b20>:
I_or_cg_cmp_rd_rs2_b20:
  or x20, x29, x20 # perform operation
    3ce0:	014eea33          	or	x20,x29,x20
  # Check if x20 contains the expected result. x2 is the signature ptr, x8 is the link ptr, x7 is a temp reg.
  RVTEST_SIGUPD(x2, x8, x7, x20, I_or_cg_cmp_rd_rs2_b20, I_or_cg_cmp_rd_rs2_b20_str)
    3ce4:	00012383          	lw	x7,0(x2)
    3ce8:	01438863          	beq	x7,x20,3cf8 <I_or_cg_cmp_rd_rs2_b20+0x18>
    3cec:	7e80046f          	jal	x8,44d4 <failedtest_x8_x7>
    3cf0:	00003ce0          	.word	0x00003ce0
    3cf4:	0000e522          	.word	0x0000e522
    3cf8:	00410113          	addi	x2,x2,4

# Testcase cmp_rd_rs2 (Test rd = rs2 = x21)
  RVTEST_TESTDATA_LOAD_INT(x11, x30) # load rs1: x30 = 0x8ec17d85
    3cfc:	0005af03          	lw	x30,0(x11)
    3d00:	00458593          	addi	x11,x11,4
  RVTEST_TESTDATA_LOAD_INT(x11, x21) # load rs2: x21 = 0xa155bd2c
    3d04:	0005aa83          	lw	x21,0(x11)
    3d08:	00458593          	addi	x11,x11,4

00003d0c <I_or_cg_cmp_rd_rs2_b21>:
I_or_cg_cmp_rd_rs2_b21:
  or x21, x30, x21 # perform operation
    3d0c:	015f6ab3          	or	x21,x30,x21
  # Check if x21 contains the expected result. x2 is the signature ptr, x8 is the link ptr, x7 is a temp reg.
  RVTEST_SIGUPD(x2, x8, x7, x21, I_or_cg_cmp_rd_rs2_b21, I_or_cg_cmp_rd_rs2_b21_str)
    3d10:	00012383          	lw	x7,0(x2)
    3d14:	01538863          	beq	x7,x21,3d24 <I_or_cg_cmp_rd_rs2_b21+0x18>
    3d18:	7bc0046f          	jal	x8,44d4 <failedtest_x8_x7>
    3d1c:	00003d0c          	.word	0x00003d0c
    3d20:	0000e555          	.word	0x0000e555
    3d24:	00410113          	addi	x2,x2,4

# Testcase cmp_rd_rs2 (Test rd = rs2 = x22)
  RVTEST_TESTDATA_LOAD_INT(x11, x14) # load rs1: x14 = 0xd01930bb
    3d28:	0005a703          	lw	x14,0(x11)
    3d2c:	00458593          	addi	x11,x11,4
  RVTEST_TESTDATA_LOAD_INT(x11, x22) # load rs2: x22 = 0xe2a6159b
    3d30:	0005ab03          	lw	x22,0(x11)
    3d34:	00458593          	addi	x11,x11,4

00003d38 <I_or_cg_cmp_rd_rs2_b22>:
I_or_cg_cmp_rd_rs2_b22:
  or x22, x14, x22 # perform operation
    3d38:	01676b33          	or	x22,x14,x22
  # Check if x22 contains the expected result. x2 is the signature ptr, x8 is the link ptr, x7 is a temp reg.
  RVTEST_SIGUPD(x2, x8, x7, x22, I_or_cg_cmp_rd_rs2_b22, I_or_cg_cmp_rd_rs2_b22_str)
    3d3c:	00012383          	lw	x7,0(x2)
    3d40:	01638863          	beq	x7,x22,3d50 <I_or_cg_cmp_rd_rs2_b22+0x18>
    3d44:	7900046f          	jal	x8,44d4 <failedtest_x8_x7>
    3d48:	00003d38          	.word	0x00003d38
    3d4c:	0000e588          	.word	0x0000e588
    3d50:	00410113          	addi	x2,x2,4

# Testcase cmp_rd_rs2 (Test rd = rs2 = x23)
  RVTEST_TESTDATA_LOAD_INT(x11, x28) # load rs1: x28 = 0xc4e3204b
    3d54:	0005ae03          	lw	x28,0(x11)
    3d58:	00458593          	addi	x11,x11,4
  RVTEST_TESTDATA_LOAD_INT(x11, x23) # load rs2: x23 = 0x830ea402
    3d5c:	0005ab83          	lw	x23,0(x11)
    3d60:	00458593          	addi	x11,x11,4

00003d64 <I_or_cg_cmp_rd_rs2_b23>:
I_or_cg_cmp_rd_rs2_b23:
  or x23, x28, x23 # perform operation
    3d64:	017e6bb3          	or	x23,x28,x23
  # Check if x23 contains the expected result. x2 is the signature ptr, x8 is the link ptr, x7 is a temp reg.
  RVTEST_SIGUPD(x2, x8, x7, x23, I_or_cg_cmp_rd_rs2_b23, I_or_cg_cmp_rd_rs2_b23_str)
    3d68:	00012383          	lw	x7,0(x2)
    3d6c:	01738863          	beq	x7,x23,3d7c <I_or_cg_cmp_rd_rs2_b23+0x18>
    3d70:	7640046f          	jal	x8,44d4 <failedtest_x8_x7>
    3d74:	00003d64          	.word	0x00003d64
    3d78:	0000e5bb          	.word	0x0000e5bb
    3d7c:	00410113          	addi	x2,x2,4

# Testcase cmp_rd_rs2 (Test rd = rs2 = x24)
  RVTEST_TESTDATA_LOAD_INT(x11, x28) # load rs1: x28 = 0x9ec90586
    3d80:	0005ae03          	lw	x28,0(x11)
    3d84:	00458593          	addi	x11,x11,4
  RVTEST_TESTDATA_LOAD_INT(x11, x24) # load rs2: x24 = 0x743c774d
    3d88:	0005ac03          	lw	x24,0(x11)
    3d8c:	00458593          	addi	x11,x11,4

00003d90 <I_or_cg_cmp_rd_rs2_b24>:
I_or_cg_cmp_rd_rs2_b24:
  or x24, x28, x24 # perform operation
    3d90:	018e6c33          	or	x24,x28,x24
  # Check if x24 contains the expected result. x2 is the signature ptr, x8 is the link ptr, x7 is a temp reg.
  RVTEST_SIGUPD(x2, x8, x7, x24, I_or_cg_cmp_rd_rs2_b24, I_or_cg_cmp_rd_rs2_b24_str)
    3d94:	00012383          	lw	x7,0(x2)
    3d98:	01838863          	beq	x7,x24,3da8 <I_or_cg_cmp_rd_rs2_b24+0x18>
    3d9c:	7380046f          	jal	x8,44d4 <failedtest_x8_x7>
    3da0:	00003d90          	.word	0x00003d90
    3da4:	0000e5ee          	.word	0x0000e5ee
    3da8:	00410113          	addi	x2,x2,4

# Testcase cmp_rd_rs2 (Test rd = rs2 = x25)
  RVTEST_TESTDATA_LOAD_INT(x11, x24) # load rs1: x24 = 0xadaababd
    3dac:	0005ac03          	lw	x24,0(x11)
    3db0:	00458593          	addi	x11,x11,4
  RVTEST_TESTDATA_LOAD_INT(x11, x25) # load rs2: x25 = 0xdb61a6f2
    3db4:	0005ac83          	lw	x25,0(x11)
    3db8:	00458593          	addi	x11,x11,4

00003dbc <I_or_cg_cmp_rd_rs2_b25>:
I_or_cg_cmp_rd_rs2_b25:
  or x25, x24, x25 # perform operation
    3dbc:	019c6cb3          	or	x25,x24,x25
  # Check if x25 contains the expected result. x2 is the signature ptr, x8 is the link ptr, x7 is a temp reg.
  RVTEST_SIGUPD(x2, x8, x7, x25, I_or_cg_cmp_rd_rs2_b25, I_or_cg_cmp_rd_rs2_b25_str)
    3dc0:	00012383          	lw	x7,0(x2)
    3dc4:	01938863          	beq	x7,x25,3dd4 <I_or_cg_cmp_rd_rs2_b25+0x18>
    3dc8:	70c0046f          	jal	x8,44d4 <failedtest_x8_x7>
    3dcc:	00003dbc          	.word	0x00003dbc
    3dd0:	0000e621          	.word	0x0000e621
    3dd4:	00410113          	addi	x2,x2,4

# Testcase cmp_rd_rs2 (Test rd = rs2 = x26)
  RVTEST_TESTDATA_LOAD_INT(x11, x28) # load rs1: x28 = 0xd624a127
    3dd8:	0005ae03          	lw	x28,0(x11)
    3ddc:	00458593          	addi	x11,x11,4
  RVTEST_TESTDATA_LOAD_INT(x11, x26) # load rs2: x26 = 0x2f251c3b
    3de0:	0005ad03          	lw	x26,0(x11)
    3de4:	00458593          	addi	x11,x11,4

00003de8 <I_or_cg_cmp_rd_rs2_b26>:
I_or_cg_cmp_rd_rs2_b26:
  or x26, x28, x26 # perform operation
    3de8:	01ae6d33          	or	x26,x28,x26
  # Check if x26 contains the expected result. x2 is the signature ptr, x8 is the link ptr, x7 is a temp reg.
  RVTEST_SIGUPD(x2, x8, x7, x26, I_or_cg_cmp_rd_rs2_b26, I_or_cg_cmp_rd_rs2_b26_str)
    3dec:	00012383          	lw	x7,0(x2)
    3df0:	01a38863          	beq	x7,x26,3e00 <I_or_cg_cmp_rd_rs2_b26+0x18>
    3df4:	6e00046f          	jal	x8,44d4 <failedtest_x8_x7>
    3df8:	00003de8          	.word	0x00003de8
    3dfc:	0000e654          	.word	0x0000e654
    3e00:	00410113          	addi	x2,x2,4

# Testcase cmp_rd_rs2 (Test rd = rs2 = x27)
  RVTEST_TESTDATA_LOAD_INT(x11, x26) # load rs1: x26 = 0x4b706bd9
    3e04:	0005ad03          	lw	x26,0(x11)
    3e08:	00458593          	addi	x11,x11,4
  RVTEST_TESTDATA_LOAD_INT(x11, x27) # load rs2: x27 = 0x4d4b4eb7
    3e0c:	0005ad83          	lw	x27,0(x11)
    3e10:	00458593          	addi	x11,x11,4

00003e14 <I_or_cg_cmp_rd_rs2_b27>:
I_or_cg_cmp_rd_rs2_b27:
  or x27, x26, x27 # perform operation
    3e14:	01bd6db3          	or	x27,x26,x27
  # Check if x27 contains the expected result. x2 is the signature ptr, x8 is the link ptr, x7 is a temp reg.
  RVTEST_SIGUPD(x2, x8, x7, x27, I_or_cg_cmp_rd_rs2_b27, I_or_cg_cmp_rd_rs2_b27_str)
    3e18:	00012383          	lw	x7,0(x2)
    3e1c:	01b38863          	beq	x7,x27,3e2c <I_or_cg_cmp_rd_rs2_b27+0x18>
    3e20:	6b40046f          	jal	x8,44d4 <failedtest_x8_x7>
    3e24:	00003e14          	.word	0x00003e14
    3e28:	0000e687          	.word	0x0000e687
    3e2c:	00410113          	addi	x2,x2,4

# Testcase cmp_rd_rs2 (Test rd = rs2 = x28)
  RVTEST_TESTDATA_LOAD_INT(x11, x15) # load rs1: x15 = 0x5719bffb
    3e30:	0005a783          	lw	x15,0(x11)
    3e34:	00458593          	addi	x11,x11,4
  RVTEST_TESTDATA_LOAD_INT(x11, x28) # load rs2: x28 = 0x1826834d
    3e38:	0005ae03          	lw	x28,0(x11)
    3e3c:	00458593          	addi	x11,x11,4

00003e40 <I_or_cg_cmp_rd_rs2_b28>:
I_or_cg_cmp_rd_rs2_b28:
  or x28, x15, x28 # perform operation
    3e40:	01c7ee33          	or	x28,x15,x28
  # Check if x28 contains the expected result. x2 is the signature ptr, x8 is the link ptr, x7 is a temp reg.
  RVTEST_SIGUPD(x2, x8, x7, x28, I_or_cg_cmp_rd_rs2_b28, I_or_cg_cmp_rd_rs2_b28_str)
    3e44:	00012383          	lw	x7,0(x2)
    3e48:	01c38863          	beq	x7,x28,3e58 <I_or_cg_cmp_rd_rs2_b28+0x18>
    3e4c:	6880046f          	jal	x8,44d4 <failedtest_x8_x7>
    3e50:	00003e40          	.word	0x00003e40
    3e54:	0000e6ba          	.word	0x0000e6ba
    3e58:	00410113          	addi	x2,x2,4

# Testcase cmp_rd_rs2 (Test rd = rs2 = x29)
  RVTEST_TESTDATA_LOAD_INT(x11, x21) # load rs1: x21 = 0x14f345d8
    3e5c:	0005aa83          	lw	x21,0(x11)
    3e60:	00458593          	addi	x11,x11,4
  RVTEST_TESTDATA_LOAD_INT(x11, x29) # load rs2: x29 = 0x0be731c3
    3e64:	0005ae83          	lw	x29,0(x11)
    3e68:	00458593          	addi	x11,x11,4

00003e6c <I_or_cg_cmp_rd_rs2_b29>:
I_or_cg_cmp_rd_rs2_b29:
  or x29, x21, x29 # perform operation
    3e6c:	01daeeb3          	or	x29,x21,x29
  # Check if x29 contains the expected result. x2 is the signature ptr, x8 is the link ptr, x7 is a temp reg.
  RVTEST_SIGUPD(x2, x8, x7, x29, I_or_cg_cmp_rd_rs2_b29, I_or_cg_cmp_rd_rs2_b29_str)
    3e70:	00012383          	lw	x7,0(x2)
    3e74:	01d38863          	beq	x7,x29,3e84 <I_or_cg_cmp_rd_rs2_b29+0x18>
    3e78:	65c0046f          	jal	x8,44d4 <failedtest_x8_x7>
    3e7c:	00003e6c          	.word	0x00003e6c
    3e80:	0000e6ed          	.word	0x0000e6ed
    3e84:	00410113          	addi	x2,x2,4

# Testcase cmp_rd_rs2 (Test rd = rs2 = x30)
  RVTEST_TESTDATA_LOAD_INT(x11, x28) # load rs1: x28 = 0xde1476d3
    3e88:	0005ae03          	lw	x28,0(x11)
    3e8c:	00458593          	addi	x11,x11,4
  RVTEST_TESTDATA_LOAD_INT(x11, x30) # load rs2: x30 = 0x7427475b
    3e90:	0005af03          	lw	x30,0(x11)
    3e94:	00458593          	addi	x11,x11,4

00003e98 <I_or_cg_cmp_rd_rs2_b30>:
I_or_cg_cmp_rd_rs2_b30:
  or x30, x28, x30 # perform operation
    3e98:	01ee6f33          	or	x30,x28,x30
  # Check if x30 contains the expected result. x2 is the signature ptr, x8 is the link ptr, x7 is a temp reg.
  RVTEST_SIGUPD(x2, x8, x7, x30, I_or_cg_cmp_rd_rs2_b30, I_or_cg_cmp_rd_rs2_b30_str)
    3e9c:	00012383          	lw	x7,0(x2)
    3ea0:	01e38863          	beq	x7,x30,3eb0 <I_or_cg_cmp_rd_rs2_b30+0x18>
    3ea4:	6300046f          	jal	x8,44d4 <failedtest_x8_x7>
    3ea8:	00003e98          	.word	0x00003e98
    3eac:	0000e720          	.word	0x0000e720
    3eb0:	00410113          	addi	x2,x2,4

# Testcase cmp_rd_rs2 (Test rd = rs2 = x31)
  RVTEST_TESTDATA_LOAD_INT(x11, x5) # load rs1: x5 = 0x6e1db8d5
    3eb4:	0005a283          	lw	x5,0(x11)
    3eb8:	00458593          	addi	x11,x11,4
  RVTEST_TESTDATA_LOAD_INT(x11, x31) # load rs2: x31 = 0x4f10750f
    3ebc:	0005af83          	lw	x31,0(x11)
    3ec0:	00458593          	addi	x11,x11,4

00003ec4 <I_or_cg_cmp_rd_rs2_b31>:
I_or_cg_cmp_rd_rs2_b31:
  or x31, x5, x31 # perform operation
    3ec4:	01f2efb3          	or	x31,x5,x31
  # Check if x31 contains the expected result. x2 is the signature ptr, x8 is the link ptr, x7 is a temp reg.
  RVTEST_SIGUPD(x2, x8, x7, x31, I_or_cg_cmp_rd_rs2_b31, I_or_cg_cmp_rd_rs2_b31_str)
    3ec8:	00012383          	lw	x7,0(x2)
    3ecc:	01f38863          	beq	x7,x31,3edc <I_or_cg_cmp_rd_rs2_b31+0x18>
    3ed0:	6040046f          	jal	x8,44d4 <failedtest_x8_x7>
    3ed4:	00003ec4          	.word	0x00003ec4
    3ed8:	0000e753          	.word	0x0000e753
    3edc:	00410113          	addi	x2,x2,4
/////////////////////////////////
// cmp_rd_rs1_rs2
/////////////////////////////////

# Testcase cmp_rd_rs1_rs2 (Test rd = rs1 = rs2 = x0)
  RVTEST_TESTDATA_LOAD_INT(x11, x0) # load rs1: x0 = 0x8b174dae
    3ee0:	0005a003          	lw	x0,0(x11)
    3ee4:	00458593          	addi	x11,x11,4
  RVTEST_TESTDATA_LOAD_INT(x11, x0) # load rs2: x0 = 0x5a874c3f
    3ee8:	0005a003          	lw	x0,0(x11)
    3eec:	00458593          	addi	x11,x11,4

00003ef0 <I_or_cg_cmp_rd_rs1_rs2_b0>:
I_or_cg_cmp_rd_rs1_rs2_b0:
  or x0, x0, x0 # perform operation
    3ef0:	00006033          	or	x0,x0,x0
  # Check if x0 contains the expected result. x2 is the signature ptr, x8 is the link ptr, x7 is a temp reg.
  RVTEST_SIGUPD(x2, x8, x7, x0, I_or_cg_cmp_rd_rs1_rs2_b0, I_or_cg_cmp_rd_rs1_rs2_b0_str)
    3ef4:	00012383          	lw	x7,0(x2)
    3ef8:	00038863          	beq	x7,x0,3f08 <I_or_cg_cmp_rd_rs1_rs2_b0+0x18>
    3efc:	5d80046f          	jal	x8,44d4 <failedtest_x8_x7>
    3f00:	00003ef0          	.word	0x00003ef0
    3f04:	0000e786          	.word	0x0000e786
    3f08:	00410113          	addi	x2,x2,4

# Testcase cmp_rd_rs1_rs2 (Test rd = rs1 = rs2 = x1)
  RVTEST_TESTDATA_LOAD_INT(x11, x1) # load rs1: x1 = 0xbed514c3
    3f0c:	0005a083          	lw	x1,0(x11)
    3f10:	00458593          	addi	x11,x11,4
  RVTEST_TESTDATA_LOAD_INT(x11, x1) # load rs2: x1 = 0x6dc0da44
    3f14:	0005a083          	lw	x1,0(x11)
    3f18:	00458593          	addi	x11,x11,4

00003f1c <I_or_cg_cmp_rd_rs1_rs2_b1>:
I_or_cg_cmp_rd_rs1_rs2_b1:
  or x1, x1, x1 # perform operation
    3f1c:	0010e0b3          	or	x1,x1,x1
  # Check if x1 contains the expected result. x2 is the signature ptr, x8 is the link ptr, x7 is a temp reg.
  RVTEST_SIGUPD(x2, x8, x7, x1, I_or_cg_cmp_rd_rs1_rs2_b1, I_or_cg_cmp_rd_rs1_rs2_b1_str)
    3f20:	00012383          	lw	x7,0(x2)
    3f24:	00138863          	beq	x7,x1,3f34 <I_or_cg_cmp_rd_rs1_rs2_b1+0x18>
    3f28:	5ac0046f          	jal	x8,44d4 <failedtest_x8_x7>
    3f2c:	00003f1c          	.word	0x00003f1c
    3f30:	0000e7bc          	.word	0x0000e7bc
    3f34:	00410113          	addi	x2,x2,4

  mv x22, x2 # switch signature pointer register to avoid conflict with test
    3f38:	00010b13          	addi	x22,x2,0
# Testcase cmp_rd_rs1_rs2 (Test rd = rs1 = rs2 = x2)
  RVTEST_TESTDATA_LOAD_INT(x11, x2) # load rs1: x2 = 0x9b9bd89c
    3f3c:	0005a103          	lw	x2,0(x11)
    3f40:	00458593          	addi	x11,x11,4
  RVTEST_TESTDATA_LOAD_INT(x11, x2) # load rs2: x2 = 0xe34a0e98
    3f44:	0005a103          	lw	x2,0(x11)
    3f48:	00458593          	addi	x11,x11,4

00003f4c <I_or_cg_cmp_rd_rs1_rs2_b2>:
I_or_cg_cmp_rd_rs1_rs2_b2:
  or x2, x2, x2 # perform operation
    3f4c:	00216133          	or	x2,x2,x2
  # Check if x2 contains the expected result. x22 is the signature ptr, x8 is the link ptr, x7 is a temp reg.
  RVTEST_SIGUPD(x22, x8, x7, x2, I_or_cg_cmp_rd_rs1_rs2_b2, I_or_cg_cmp_rd_rs1_rs2_b2_str)
    3f50:	000b2383          	lw	x7,0(x22)
    3f54:	00238863          	beq	x7,x2,3f64 <I_or_cg_cmp_rd_rs1_rs2_b2+0x18>
    3f58:	57c0046f          	jal	x8,44d4 <failedtest_x8_x7>
    3f5c:	00003f4c          	.word	0x00003f4c
    3f60:	0000e7f2          	.word	0x0000e7f2
    3f64:	004b0b13          	addi	x22,x22,4

# Testcase cmp_rd_rs1_rs2 (Test rd = rs1 = rs2 = x3)
  RVTEST_TESTDATA_LOAD_INT(x11, x3) # load rs1: x3 = 0x84adf330
    3f68:	0005a183          	lw	x3,0(x11)
    3f6c:	00458593          	addi	x11,x11,4
  RVTEST_TESTDATA_LOAD_INT(x11, x3) # load rs2: x3 = 0x2c00ba17
    3f70:	0005a183          	lw	x3,0(x11)
    3f74:	00458593          	addi	x11,x11,4

00003f78 <I_or_cg_cmp_rd_rs1_rs2_b3>:
I_or_cg_cmp_rd_rs1_rs2_b3:
  or x3, x3, x3 # perform operation
    3f78:	0031e1b3          	or	x3,x3,x3
  # Check if x3 contains the expected result. x22 is the signature ptr, x8 is the link ptr, x7 is a temp reg.
  RVTEST_SIGUPD(x22, x8, x7, x3, I_or_cg_cmp_rd_rs1_rs2_b3, I_or_cg_cmp_rd_rs1_rs2_b3_str)
    3f7c:	000b2383          	lw	x7,0(x22)
    3f80:	00338863          	beq	x7,x3,3f90 <I_or_cg_cmp_rd_rs1_rs2_b3+0x18>
    3f84:	5500046f          	jal	x8,44d4 <failedtest_x8_x7>
    3f88:	00003f78          	.word	0x00003f78
    3f8c:	0000e828          	.word	0x0000e828
    3f90:	004b0b13          	addi	x22,x22,4

# Testcase cmp_rd_rs1_rs2 (Test rd = rs1 = rs2 = x4)
  RVTEST_TESTDATA_LOAD_INT(x11, x4) # load rs1: x4 = 0x51599a40
    3f94:	0005a203          	lw	x4,0(x11)
    3f98:	00458593          	addi	x11,x11,4
  RVTEST_TESTDATA_LOAD_INT(x11, x4) # load rs2: x4 = 0xf146ffc6
    3f9c:	0005a203          	lw	x4,0(x11)
    3fa0:	00458593          	addi	x11,x11,4

00003fa4 <I_or_cg_cmp_rd_rs1_rs2_b4>:
I_or_cg_cmp_rd_rs1_rs2_b4:
  or x4, x4, x4 # perform operation
    3fa4:	00426233          	or	x4,x4,x4
  # Check if x4 contains the expected result. x22 is the signature ptr, x8 is the link ptr, x7 is a temp reg.
  RVTEST_SIGUPD(x22, x8, x7, x4, I_or_cg_cmp_rd_rs1_rs2_b4, I_or_cg_cmp_rd_rs1_rs2_b4_str)
    3fa8:	000b2383          	lw	x7,0(x22)
    3fac:	00438863          	beq	x7,x4,3fbc <I_or_cg_cmp_rd_rs1_rs2_b4+0x18>
    3fb0:	5240046f          	jal	x8,44d4 <failedtest_x8_x7>
    3fb4:	00003fa4          	.word	0x00003fa4
    3fb8:	0000e85e          	.word	0x0000e85e
    3fbc:	004b0b13          	addi	x22,x22,4

# Testcase cmp_rd_rs1_rs2 (Test rd = rs1 = rs2 = x5)
  RVTEST_TESTDATA_LOAD_INT(x11, x5) # load rs1: x5 = 0x0f4156a2
    3fc0:	0005a283          	lw	x5,0(x11)
    3fc4:	00458593          	addi	x11,x11,4
  RVTEST_TESTDATA_LOAD_INT(x11, x5) # load rs2: x5 = 0xd83f502b
    3fc8:	0005a283          	lw	x5,0(x11)
    3fcc:	00458593          	addi	x11,x11,4

00003fd0 <I_or_cg_cmp_rd_rs1_rs2_b5>:
I_or_cg_cmp_rd_rs1_rs2_b5:
  or x5, x5, x5 # perform operation
    3fd0:	0052e2b3          	or	x5,x5,x5
  # Check if x5 contains the expected result. x22 is the signature ptr, x8 is the link ptr, x7 is a temp reg.
  RVTEST_SIGUPD(x22, x8, x7, x5, I_or_cg_cmp_rd_rs1_rs2_b5, I_or_cg_cmp_rd_rs1_rs2_b5_str)
    3fd4:	000b2383          	lw	x7,0(x22)
    3fd8:	00538863          	beq	x7,x5,3fe8 <I_or_cg_cmp_rd_rs1_rs2_b5+0x18>
    3fdc:	4f80046f          	jal	x8,44d4 <failedtest_x8_x7>
    3fe0:	00003fd0          	.word	0x00003fd0
    3fe4:	0000e894          	.word	0x0000e894
    3fe8:	004b0b13          	addi	x22,x22,4

# Testcase cmp_rd_rs1_rs2 (Test rd = rs1 = rs2 = x6)
  RVTEST_TESTDATA_LOAD_INT(x11, x6) # load rs1: x6 = 0x7c6bad94
    3fec:	0005a303          	lw	x6,0(x11)
    3ff0:	00458593          	addi	x11,x11,4
  RVTEST_TESTDATA_LOAD_INT(x11, x6) # load rs2: x6 = 0x9fd11401
    3ff4:	0005a303          	lw	x6,0(x11)
    3ff8:	00458593          	addi	x11,x11,4

00003ffc <I_or_cg_cmp_rd_rs1_rs2_b6>:
I_or_cg_cmp_rd_rs1_rs2_b6:
  or x6, x6, x6 # perform operation
    3ffc:	00636333          	or	x6,x6,x6
  # Check if x6 contains the expected result. x22 is the signature ptr, x8 is the link ptr, x7 is a temp reg.
  RVTEST_SIGUPD(x22, x8, x7, x6, I_or_cg_cmp_rd_rs1_rs2_b6, I_or_cg_cmp_rd_rs1_rs2_b6_str)
    4000:	000b2383          	lw	x7,0(x22)
    4004:	00638863          	beq	x7,x6,4014 <I_or_cg_cmp_rd_rs1_rs2_b6+0x18>
    4008:	4cc0046f          	jal	x8,44d4 <failedtest_x8_x7>
    400c:	00003ffc          	.word	0x00003ffc
    4010:	0000e8ca          	.word	0x0000e8ca
    4014:	004b0b13          	addi	x22,x22,4

  mv x4, x7 # switch temp register to avoid conflict with test
    4018:	00038213          	addi	x4,x7,0
  mv x5, x8 # switch link pointer register to avoid conflict with test
    401c:	00040293          	addi	x5,x8,0
# Testcase cmp_rd_rs1_rs2 (Test rd = rs1 = rs2 = x7)
  RVTEST_TESTDATA_LOAD_INT(x11, x7) # load rs1: x7 = 0xbd3bfe85
    4020:	0005a383          	lw	x7,0(x11)
    4024:	00458593          	addi	x11,x11,4
  RVTEST_TESTDATA_LOAD_INT(x11, x7) # load rs2: x7 = 0xdb1c2cce
    4028:	0005a383          	lw	x7,0(x11)
    402c:	00458593          	addi	x11,x11,4

00004030 <I_or_cg_cmp_rd_rs1_rs2_b7>:
I_or_cg_cmp_rd_rs1_rs2_b7:
  or x7, x7, x7 # perform operation
    4030:	0073e3b3          	or	x7,x7,x7
  # Check if x7 contains the expected result. x22 is the signature ptr, x5 is the link ptr, x4 is a temp reg.
  RVTEST_SIGUPD(x22, x5, x4, x7, I_or_cg_cmp_rd_rs1_rs2_b7, I_or_cg_cmp_rd_rs1_rs2_b7_str)
    4034:	000b2203          	lw	x4,0(x22)
    4038:	00720863          	beq	x4,x7,4048 <I_or_cg_cmp_rd_rs1_rs2_b7+0x18>
    403c:	480002ef          	jal	x5,44bc <failedtest_x5_x4>
    4040:	00004030          	.word	0x00004030
    4044:	0000e900          	.word	0x0000e900
    4048:	004b0b13          	addi	x22,x22,4

# Testcase cmp_rd_rs1_rs2 (Test rd = rs1 = rs2 = x8)
  RVTEST_TESTDATA_LOAD_INT(x11, x8) # load rs1: x8 = 0x76dc1f4a
    404c:	0005a403          	lw	x8,0(x11)
    4050:	00458593          	addi	x11,x11,4
  RVTEST_TESTDATA_LOAD_INT(x11, x8) # load rs2: x8 = 0x0bbd18f0
    4054:	0005a403          	lw	x8,0(x11)
    4058:	00458593          	addi	x11,x11,4

0000405c <I_or_cg_cmp_rd_rs1_rs2_b8>:
I_or_cg_cmp_rd_rs1_rs2_b8:
  or x8, x8, x8 # perform operation
    405c:	00846433          	or	x8,x8,x8
  # Check if x8 contains the expected result. x22 is the signature ptr, x5 is the link ptr, x4 is a temp reg.
  RVTEST_SIGUPD(x22, x5, x4, x8, I_or_cg_cmp_rd_rs1_rs2_b8, I_or_cg_cmp_rd_rs1_rs2_b8_str)
    4060:	000b2203          	lw	x4,0(x22)
    4064:	00820863          	beq	x4,x8,4074 <I_or_cg_cmp_rd_rs1_rs2_b8+0x18>
    4068:	454002ef          	jal	x5,44bc <failedtest_x5_x4>
    406c:	0000405c          	.word	0x0000405c
    4070:	0000e936          	.word	0x0000e936
    4074:	004b0b13          	addi	x22,x22,4

# Testcase cmp_rd_rs1_rs2 (Test rd = rs1 = rs2 = x9)
  RVTEST_TESTDATA_LOAD_INT(x11, x9) # load rs1: x9 = 0x0370979b
    4078:	0005a483          	lw	x9,0(x11)
    407c:	00458593          	addi	x11,x11,4
  RVTEST_TESTDATA_LOAD_INT(x11, x9) # load rs2: x9 = 0xd044bcff
    4080:	0005a483          	lw	x9,0(x11)
    4084:	00458593          	addi	x11,x11,4

00004088 <I_or_cg_cmp_rd_rs1_rs2_b9>:
I_or_cg_cmp_rd_rs1_rs2_b9:
  or x9, x9, x9 # perform operation
    4088:	0094e4b3          	or	x9,x9,x9
  # Check if x9 contains the expected result. x22 is the signature ptr, x5 is the link ptr, x4 is a temp reg.
  RVTEST_SIGUPD(x22, x5, x4, x9, I_or_cg_cmp_rd_rs1_rs2_b9, I_or_cg_cmp_rd_rs1_rs2_b9_str)
    408c:	000b2203          	lw	x4,0(x22)
    4090:	00920863          	beq	x4,x9,40a0 <I_or_cg_cmp_rd_rs1_rs2_b9+0x18>
    4094:	428002ef          	jal	x5,44bc <failedtest_x5_x4>
    4098:	00004088          	.word	0x00004088
    409c:	0000e96c          	.word	0x0000e96c
    40a0:	004b0b13          	addi	x22,x22,4

# Testcase cmp_rd_rs1_rs2 (Test rd = rs1 = rs2 = x10)
  RVTEST_TESTDATA_LOAD_INT(x11, x10) # load rs1: x10 = 0x961fdb57
    40a4:	0005a503          	lw	x10,0(x11)
    40a8:	00458593          	addi	x11,x11,4
  RVTEST_TESTDATA_LOAD_INT(x11, x10) # load rs2: x10 = 0x2f773108
    40ac:	0005a503          	lw	x10,0(x11)
    40b0:	00458593          	addi	x11,x11,4

000040b4 <I_or_cg_cmp_rd_rs1_rs2_b10>:
I_or_cg_cmp_rd_rs1_rs2_b10:
  or x10, x10, x10 # perform operation
    40b4:	00a56533          	or	x10,x10,x10
  # Check if x10 contains the expected result. x22 is the signature ptr, x5 is the link ptr, x4 is a temp reg.
  RVTEST_SIGUPD(x22, x5, x4, x10, I_or_cg_cmp_rd_rs1_rs2_b10, I_or_cg_cmp_rd_rs1_rs2_b10_str)
    40b8:	000b2203          	lw	x4,0(x22)
    40bc:	00a20863          	beq	x4,x10,40cc <I_or_cg_cmp_rd_rs1_rs2_b10+0x18>
    40c0:	3fc002ef          	jal	x5,44bc <failedtest_x5_x4>
    40c4:	000040b4          	.word	0x000040b4
    40c8:	0000e9a2          	.word	0x0000e9a2
    40cc:	004b0b13          	addi	x22,x22,4

  mv x17, x11 # switch data pointer register to avoid conflict with test
    40d0:	00058893          	addi	x17,x11,0
# Testcase cmp_rd_rs1_rs2 (Test rd = rs1 = rs2 = x11)
  RVTEST_TESTDATA_LOAD_INT(x17, x11) # load rs1: x11 = 0xee9c2e6a
    40d4:	0008a583          	lw	x11,0(x17)
    40d8:	00488893          	addi	x17,x17,4
  RVTEST_TESTDATA_LOAD_INT(x17, x11) # load rs2: x11 = 0x32c2ded4
    40dc:	0008a583          	lw	x11,0(x17)
    40e0:	00488893          	addi	x17,x17,4

000040e4 <I_or_cg_cmp_rd_rs1_rs2_b11>:
I_or_cg_cmp_rd_rs1_rs2_b11:
  or x11, x11, x11 # perform operation
    40e4:	00b5e5b3          	or	x11,x11,x11
  # Check if x11 contains the expected result. x22 is the signature ptr, x5 is the link ptr, x4 is a temp reg.
  RVTEST_SIGUPD(x22, x5, x4, x11, I_or_cg_cmp_rd_rs1_rs2_b11, I_or_cg_cmp_rd_rs1_rs2_b11_str)
    40e8:	000b2203          	lw	x4,0(x22)
    40ec:	00b20863          	beq	x4,x11,40fc <I_or_cg_cmp_rd_rs1_rs2_b11+0x18>
    40f0:	3cc002ef          	jal	x5,44bc <failedtest_x5_x4>
    40f4:	000040e4          	.word	0x000040e4
    40f8:	0000e9d9          	.word	0x0000e9d9
    40fc:	004b0b13          	addi	x22,x22,4

# Testcase cmp_rd_rs1_rs2 (Test rd = rs1 = rs2 = x12)
  RVTEST_TESTDATA_LOAD_INT(x17, x12) # load rs1: x12 = 0xbd6b184a
    4100:	0008a603          	lw	x12,0(x17)
    4104:	00488893          	addi	x17,x17,4
  RVTEST_TESTDATA_LOAD_INT(x17, x12) # load rs2: x12 = 0x368305e1
    4108:	0008a603          	lw	x12,0(x17)
    410c:	00488893          	addi	x17,x17,4

00004110 <I_or_cg_cmp_rd_rs1_rs2_b12>:
I_or_cg_cmp_rd_rs1_rs2_b12:
  or x12, x12, x12 # perform operation
    4110:	00c66633          	or	x12,x12,x12
  # Check if x12 contains the expected result. x22 is the signature ptr, x5 is the link ptr, x4 is a temp reg.
  RVTEST_SIGUPD(x22, x5, x4, x12, I_or_cg_cmp_rd_rs1_rs2_b12, I_or_cg_cmp_rd_rs1_rs2_b12_str)
    4114:	000b2203          	lw	x4,0(x22)
    4118:	00c20863          	beq	x4,x12,4128 <I_or_cg_cmp_rd_rs1_rs2_b12+0x18>
    411c:	3a0002ef          	jal	x5,44bc <failedtest_x5_x4>
    4120:	00004110          	.word	0x00004110
    4124:	0000ea10          	.word	0x0000ea10
    4128:	004b0b13          	addi	x22,x22,4

# Testcase cmp_rd_rs1_rs2 (Test rd = rs1 = rs2 = x13)
  RVTEST_TESTDATA_LOAD_INT(x17, x13) # load rs1: x13 = 0xd329fa83
    412c:	0008a683          	lw	x13,0(x17)
    4130:	00488893          	addi	x17,x17,4
  RVTEST_TESTDATA_LOAD_INT(x17, x13) # load rs2: x13 = 0x6f0e6ae7
    4134:	0008a683          	lw	x13,0(x17)
    4138:	00488893          	addi	x17,x17,4

0000413c <I_or_cg_cmp_rd_rs1_rs2_b13>:
I_or_cg_cmp_rd_rs1_rs2_b13:
  or x13, x13, x13 # perform operation
    413c:	00d6e6b3          	or	x13,x13,x13
  # Check if x13 contains the expected result. x22 is the signature ptr, x5 is the link ptr, x4 is a temp reg.
  RVTEST_SIGUPD(x22, x5, x4, x13, I_or_cg_cmp_rd_rs1_rs2_b13, I_or_cg_cmp_rd_rs1_rs2_b13_str)
    4140:	000b2203          	lw	x4,0(x22)
    4144:	00d20863          	beq	x4,x13,4154 <I_or_cg_cmp_rd_rs1_rs2_b13+0x18>
    4148:	374002ef          	jal	x5,44bc <failedtest_x5_x4>
    414c:	0000413c          	.word	0x0000413c
    4150:	0000ea47          	.word	0x0000ea47
    4154:	004b0b13          	addi	x22,x22,4

# Testcase cmp_rd_rs1_rs2 (Test rd = rs1 = rs2 = x14)
  RVTEST_TESTDATA_LOAD_INT(x17, x14) # load rs1: x14 = 0xf3874368
    4158:	0008a703          	lw	x14,0(x17)
    415c:	00488893          	addi	x17,x17,4
  RVTEST_TESTDATA_LOAD_INT(x17, x14) # load rs2: x14 = 0xb310087d
    4160:	0008a703          	lw	x14,0(x17)
    4164:	00488893          	addi	x17,x17,4

00004168 <I_or_cg_cmp_rd_rs1_rs2_b14>:
I_or_cg_cmp_rd_rs1_rs2_b14:
  or x14, x14, x14 # perform operation
    4168:	00e76733          	or	x14,x14,x14
  # Check if x14 contains the expected result. x22 is the signature ptr, x5 is the link ptr, x4 is a temp reg.
  RVTEST_SIGUPD(x22, x5, x4, x14, I_or_cg_cmp_rd_rs1_rs2_b14, I_or_cg_cmp_rd_rs1_rs2_b14_str)
    416c:	000b2203          	lw	x4,0(x22)
    4170:	00e20863          	beq	x4,x14,4180 <I_or_cg_cmp_rd_rs1_rs2_b14+0x18>
    4174:	348002ef          	jal	x5,44bc <failedtest_x5_x4>
    4178:	00004168          	.word	0x00004168
    417c:	0000ea7e          	.word	0x0000ea7e
    4180:	004b0b13          	addi	x22,x22,4

# Testcase cmp_rd_rs1_rs2 (Test rd = rs1 = rs2 = x15)
  RVTEST_TESTDATA_LOAD_INT(x17, x15) # load rs1: x15 = 0x1a432e86
    4184:	0008a783          	lw	x15,0(x17)
    4188:	00488893          	addi	x17,x17,4
  RVTEST_TESTDATA_LOAD_INT(x17, x15) # load rs2: x15 = 0x5d58e2e4
    418c:	0008a783          	lw	x15,0(x17)
    4190:	00488893          	addi	x17,x17,4

00004194 <I_or_cg_cmp_rd_rs1_rs2_b15>:
I_or_cg_cmp_rd_rs1_rs2_b15:
  or x15, x15, x15 # perform operation
    4194:	00f7e7b3          	or	x15,x15,x15
  # Check if x15 contains the expected result. x22 is the signature ptr, x5 is the link ptr, x4 is a temp reg.
  RVTEST_SIGUPD(x22, x5, x4, x15, I_or_cg_cmp_rd_rs1_rs2_b15, I_or_cg_cmp_rd_rs1_rs2_b15_str)
    4198:	000b2203          	lw	x4,0(x22)
    419c:	00f20863          	beq	x4,x15,41ac <I_or_cg_cmp_rd_rs1_rs2_b15+0x18>
    41a0:	31c002ef          	jal	x5,44bc <failedtest_x5_x4>
    41a4:	00004194          	.word	0x00004194
    41a8:	0000eab5          	.word	0x0000eab5
    41ac:	004b0b13          	addi	x22,x22,4

# Testcase cmp_rd_rs1_rs2 (Test rd = rs1 = rs2 = x16)
  RVTEST_TESTDATA_LOAD_INT(x17, x16) # load rs1: x16 = 0x7b2d9cd4
    41b0:	0008a803          	lw	x16,0(x17)
    41b4:	00488893          	addi	x17,x17,4
  RVTEST_TESTDATA_LOAD_INT(x17, x16) # load rs2: x16 = 0x7ee4fe65
    41b8:	0008a803          	lw	x16,0(x17)
    41bc:	00488893          	addi	x17,x17,4

000041c0 <I_or_cg_cmp_rd_rs1_rs2_b16>:
I_or_cg_cmp_rd_rs1_rs2_b16:
  or x16, x16, x16 # perform operation
    41c0:	01086833          	or	x16,x16,x16
  # Check if x16 contains the expected result. x22 is the signature ptr, x5 is the link ptr, x4 is a temp reg.
  RVTEST_SIGUPD(x22, x5, x4, x16, I_or_cg_cmp_rd_rs1_rs2_b16, I_or_cg_cmp_rd_rs1_rs2_b16_str)
    41c4:	000b2203          	lw	x4,0(x22)
    41c8:	01020863          	beq	x4,x16,41d8 <I_or_cg_cmp_rd_rs1_rs2_b16+0x18>
    41cc:	2f0002ef          	jal	x5,44bc <failedtest_x5_x4>
    41d0:	000041c0          	.word	0x000041c0
    41d4:	0000eaec          	.word	0x0000eaec
    41d8:	004b0b13          	addi	x22,x22,4

  mv x12, x17 # switch data pointer register to avoid conflict with test
    41dc:	00088613          	addi	x12,x17,0
# Testcase cmp_rd_rs1_rs2 (Test rd = rs1 = rs2 = x17)
  RVTEST_TESTDATA_LOAD_INT(x12, x17) # load rs1: x17 = 0xc8fc7566
    41e0:	00062883          	lw	x17,0(x12)
    41e4:	00460613          	addi	x12,x12,4
  RVTEST_TESTDATA_LOAD_INT(x12, x17) # load rs2: x17 = 0x9383b96a
    41e8:	00062883          	lw	x17,0(x12)
    41ec:	00460613          	addi	x12,x12,4

000041f0 <I_or_cg_cmp_rd_rs1_rs2_b17>:
I_or_cg_cmp_rd_rs1_rs2_b17:
  or x17, x17, x17 # perform operation
    41f0:	0118e8b3          	or	x17,x17,x17
  # Check if x17 contains the expected result. x22 is the signature ptr, x5 is the link ptr, x4 is a temp reg.
  RVTEST_SIGUPD(x22, x5, x4, x17, I_or_cg_cmp_rd_rs1_rs2_b17, I_or_cg_cmp_rd_rs1_rs2_b17_str)
    41f4:	000b2203          	lw	x4,0(x22)
    41f8:	01120863          	beq	x4,x17,4208 <I_or_cg_cmp_rd_rs1_rs2_b17+0x18>
    41fc:	2c0002ef          	jal	x5,44bc <failedtest_x5_x4>
    4200:	000041f0          	.word	0x000041f0
    4204:	0000eb23          	.word	0x0000eb23
    4208:	004b0b13          	addi	x22,x22,4

# Testcase cmp_rd_rs1_rs2 (Test rd = rs1 = rs2 = x18)
  RVTEST_TESTDATA_LOAD_INT(x12, x18) # load rs1: x18 = 0x5cf0b002
    420c:	00062903          	lw	x18,0(x12)
    4210:	00460613          	addi	x12,x12,4
  RVTEST_TESTDATA_LOAD_INT(x12, x18) # load rs2: x18 = 0xf6ada2f1
    4214:	00062903          	lw	x18,0(x12)
    4218:	00460613          	addi	x12,x12,4

0000421c <I_or_cg_cmp_rd_rs1_rs2_b18>:
I_or_cg_cmp_rd_rs1_rs2_b18:
  or x18, x18, x18 # perform operation
    421c:	01296933          	or	x18,x18,x18
  # Check if x18 contains the expected result. x22 is the signature ptr, x5 is the link ptr, x4 is a temp reg.
  RVTEST_SIGUPD(x22, x5, x4, x18, I_or_cg_cmp_rd_rs1_rs2_b18, I_or_cg_cmp_rd_rs1_rs2_b18_str)
    4220:	000b2203          	lw	x4,0(x22)
    4224:	01220863          	beq	x4,x18,4234 <I_or_cg_cmp_rd_rs1_rs2_b18+0x18>
    4228:	294002ef          	jal	x5,44bc <failedtest_x5_x4>
    422c:	0000421c          	.word	0x0000421c
    4230:	0000eb5a          	.word	0x0000eb5a
    4234:	004b0b13          	addi	x22,x22,4

# Testcase cmp_rd_rs1_rs2 (Test rd = rs1 = rs2 = x19)
  RVTEST_TESTDATA_LOAD_INT(x12, x19) # load rs1: x19 = 0x908de167
    4238:	00062983          	lw	x19,0(x12)
    423c:	00460613          	addi	x12,x12,4
  RVTEST_TESTDATA_LOAD_INT(x12, x19) # load rs2: x19 = 0xd216ca0a
    4240:	00062983          	lw	x19,0(x12)
    4244:	00460613          	addi	x12,x12,4

00004248 <I_or_cg_cmp_rd_rs1_rs2_b19>:
I_or_cg_cmp_rd_rs1_rs2_b19:
  or x19, x19, x19 # perform operation
    4248:	0139e9b3          	or	x19,x19,x19
  # Check if x19 contains the expected result. x22 is the signature ptr, x5 is the link ptr, x4 is a temp reg.
  RVTEST_SIGUPD(x22, x5, x4, x19, I_or_cg_cmp_rd_rs1_rs2_b19, I_or_cg_cmp_rd_rs1_rs2_b19_str)
    424c:	000b2203          	lw	x4,0(x22)
    4250:	01320863          	beq	x4,x19,4260 <I_or_cg_cmp_rd_rs1_rs2_b19+0x18>
    4254:	268002ef          	jal	x5,44bc <failedtest_x5_x4>
    4258:	00004248          	.word	0x00004248
    425c:	0000eb91          	.word	0x0000eb91
    4260:	004b0b13          	addi	x22,x22,4

# Testcase cmp_rd_rs1_rs2 (Test rd = rs1 = rs2 = x20)
  RVTEST_TESTDATA_LOAD_INT(x12, x20) # load rs1: x20 = 0x428bf7ef
    4264:	00062a03          	lw	x20,0(x12)
    4268:	00460613          	addi	x12,x12,4
  RVTEST_TESTDATA_LOAD_INT(x12, x20) # load rs2: x20 = 0x3cabe34b
    426c:	00062a03          	lw	x20,0(x12)
    4270:	00460613          	addi	x12,x12,4

00004274 <I_or_cg_cmp_rd_rs1_rs2_b20>:
I_or_cg_cmp_rd_rs1_rs2_b20:
  or x20, x20, x20 # perform operation
    4274:	014a6a33          	or	x20,x20,x20
  # Check if x20 contains the expected result. x22 is the signature ptr, x5 is the link ptr, x4 is a temp reg.
  RVTEST_SIGUPD(x22, x5, x4, x20, I_or_cg_cmp_rd_rs1_rs2_b20, I_or_cg_cmp_rd_rs1_rs2_b20_str)
    4278:	000b2203          	lw	x4,0(x22)
    427c:	01420863          	beq	x4,x20,428c <I_or_cg_cmp_rd_rs1_rs2_b20+0x18>
    4280:	23c002ef          	jal	x5,44bc <failedtest_x5_x4>
    4284:	00004274          	.word	0x00004274
    4288:	0000ebc8          	.word	0x0000ebc8
    428c:	004b0b13          	addi	x22,x22,4

# Testcase cmp_rd_rs1_rs2 (Test rd = rs1 = rs2 = x21)
  RVTEST_TESTDATA_LOAD_INT(x12, x21) # load rs1: x21 = 0x1aa8e7a3
    4290:	00062a83          	lw	x21,0(x12)
    4294:	00460613          	addi	x12,x12,4
  RVTEST_TESTDATA_LOAD_INT(x12, x21) # load rs2: x21 = 0x7478a032
    4298:	00062a83          	lw	x21,0(x12)
    429c:	00460613          	addi	x12,x12,4

000042a0 <I_or_cg_cmp_rd_rs1_rs2_b21>:
I_or_cg_cmp_rd_rs1_rs2_b21:
  or x21, x21, x21 # perform operation
    42a0:	015aeab3          	or	x21,x21,x21
  # Check if x21 contains the expected result. x22 is the signature ptr, x5 is the link ptr, x4 is a temp reg.
  RVTEST_SIGUPD(x22, x5, x4, x21, I_or_cg_cmp_rd_rs1_rs2_b21, I_or_cg_cmp_rd_rs1_rs2_b21_str)
    42a4:	000b2203          	lw	x4,0(x22)
    42a8:	01520863          	beq	x4,x21,42b8 <I_or_cg_cmp_rd_rs1_rs2_b21+0x18>
    42ac:	210002ef          	jal	x5,44bc <failedtest_x5_x4>
    42b0:	000042a0          	.word	0x000042a0
    42b4:	0000ebff          	.word	0x0000ebff
    42b8:	004b0b13          	addi	x22,x22,4

  mv x18, x22 # switch signature pointer register to avoid conflict with test
    42bc:	000b0913          	addi	x18,x22,0
# Testcase cmp_rd_rs1_rs2 (Test rd = rs1 = rs2 = x22)
  RVTEST_TESTDATA_LOAD_INT(x12, x22) # load rs1: x22 = 0x483dae58
    42c0:	00062b03          	lw	x22,0(x12)
    42c4:	00460613          	addi	x12,x12,4
  RVTEST_TESTDATA_LOAD_INT(x12, x22) # load rs2: x22 = 0xf0aedfff
    42c8:	00062b03          	lw	x22,0(x12)
    42cc:	00460613          	addi	x12,x12,4

000042d0 <I_or_cg_cmp_rd_rs1_rs2_b22>:
I_or_cg_cmp_rd_rs1_rs2_b22:
  or x22, x22, x22 # perform operation
    42d0:	016b6b33          	or	x22,x22,x22
  # Check if x22 contains the expected result. x18 is the signature ptr, x5 is the link ptr, x4 is a temp reg.
  RVTEST_SIGUPD(x18, x5, x4, x22, I_or_cg_cmp_rd_rs1_rs2_b22, I_or_cg_cmp_rd_rs1_rs2_b22_str)
    42d4:	00092203          	lw	x4,0(x18)
    42d8:	01620863          	beq	x4,x22,42e8 <I_or_cg_cmp_rd_rs1_rs2_b22+0x18>
    42dc:	1e0002ef          	jal	x5,44bc <failedtest_x5_x4>
    42e0:	000042d0          	.word	0x000042d0
    42e4:	0000ec36          	.word	0x0000ec36
    42e8:	00490913          	addi	x18,x18,4

# Testcase cmp_rd_rs1_rs2 (Test rd = rs1 = rs2 = x23)
  RVTEST_TESTDATA_LOAD_INT(x12, x23) # load rs1: x23 = 0x54060a8b
    42ec:	00062b83          	lw	x23,0(x12)
    42f0:	00460613          	addi	x12,x12,4
  RVTEST_TESTDATA_LOAD_INT(x12, x23) # load rs2: x23 = 0x5013e5ea
    42f4:	00062b83          	lw	x23,0(x12)
    42f8:	00460613          	addi	x12,x12,4

000042fc <I_or_cg_cmp_rd_rs1_rs2_b23>:
I_or_cg_cmp_rd_rs1_rs2_b23:
  or x23, x23, x23 # perform operation
    42fc:	017bebb3          	or	x23,x23,x23
  # Check if x23 contains the expected result. x18 is the signature ptr, x5 is the link ptr, x4 is a temp reg.
  RVTEST_SIGUPD(x18, x5, x4, x23, I_or_cg_cmp_rd_rs1_rs2_b23, I_or_cg_cmp_rd_rs1_rs2_b23_str)
    4300:	00092203          	lw	x4,0(x18)
    4304:	01720863          	beq	x4,x23,4314 <I_or_cg_cmp_rd_rs1_rs2_b23+0x18>
    4308:	1b4002ef          	jal	x5,44bc <failedtest_x5_x4>
    430c:	000042fc          	.word	0x000042fc
    4310:	0000ec6d          	.word	0x0000ec6d
    4314:	00490913          	addi	x18,x18,4

# Testcase cmp_rd_rs1_rs2 (Test rd = rs1 = rs2 = x24)
  RVTEST_TESTDATA_LOAD_INT(x12, x24) # load rs1: x24 = 0xd7fc7d65
    4318:	00062c03          	lw	x24,0(x12)
    431c:	00460613          	addi	x12,x12,4
  RVTEST_TESTDATA_LOAD_INT(x12, x24) # load rs2: x24 = 0x5d31c007
    4320:	00062c03          	lw	x24,0(x12)
    4324:	00460613          	addi	x12,x12,4

00004328 <I_or_cg_cmp_rd_rs1_rs2_b24>:
I_or_cg_cmp_rd_rs1_rs2_b24:
  or x24, x24, x24 # perform operation
    4328:	018c6c33          	or	x24,x24,x24
  # Check if x24 contains the expected result. x18 is the signature ptr, x5 is the link ptr, x4 is a temp reg.
  RVTEST_SIGUPD(x18, x5, x4, x24, I_or_cg_cmp_rd_rs1_rs2_b24, I_or_cg_cmp_rd_rs1_rs2_b24_str)
    432c:	00092203          	lw	x4,0(x18)
    4330:	01820863          	beq	x4,x24,4340 <I_or_cg_cmp_rd_rs1_rs2_b24+0x18>
    4334:	188002ef          	jal	x5,44bc <failedtest_x5_x4>
    4338:	00004328          	.word	0x00004328
    433c:	0000eca4          	.word	0x0000eca4
    4340:	00490913          	addi	x18,x18,4

# Testcase cmp_rd_rs1_rs2 (Test rd = rs1 = rs2 = x25)
  RVTEST_TESTDATA_LOAD_INT(x12, x25) # load rs1: x25 = 0x71dcfae2
    4344:	00062c83          	lw	x25,0(x12)
    4348:	00460613          	addi	x12,x12,4
  RVTEST_TESTDATA_LOAD_INT(x12, x25) # load rs2: x25 = 0x4af930d2
    434c:	00062c83          	lw	x25,0(x12)
    4350:	00460613          	addi	x12,x12,4

00004354 <I_or_cg_cmp_rd_rs1_rs2_b25>:
I_or_cg_cmp_rd_rs1_rs2_b25:
  or x25, x25, x25 # perform operation
    4354:	019cecb3          	or	x25,x25,x25
  # Check if x25 contains the expected result. x18 is the signature ptr, x5 is the link ptr, x4 is a temp reg.
  RVTEST_SIGUPD(x18, x5, x4, x25, I_or_cg_cmp_rd_rs1_rs2_b25, I_or_cg_cmp_rd_rs1_rs2_b25_str)
    4358:	00092203          	lw	x4,0(x18)
    435c:	01920863          	beq	x4,x25,436c <I_or_cg_cmp_rd_rs1_rs2_b25+0x18>
    4360:	15c002ef          	jal	x5,44bc <failedtest_x5_x4>
    4364:	00004354          	.word	0x00004354
    4368:	0000ecdb          	.word	0x0000ecdb
    436c:	00490913          	addi	x18,x18,4

# Testcase cmp_rd_rs1_rs2 (Test rd = rs1 = rs2 = x26)
  RVTEST_TESTDATA_LOAD_INT(x12, x26) # load rs1: x26 = 0x02d7a8b6
    4370:	00062d03          	lw	x26,0(x12)
    4374:	00460613          	addi	x12,x12,4
  RVTEST_TESTDATA_LOAD_INT(x12, x26) # load rs2: x26 = 0xe984051b
    4378:	00062d03          	lw	x26,0(x12)
    437c:	00460613          	addi	x12,x12,4

00004380 <I_or_cg_cmp_rd_rs1_rs2_b26>:
I_or_cg_cmp_rd_rs1_rs2_b26:
  or x26, x26, x26 # perform operation
    4380:	01ad6d33          	or	x26,x26,x26
  # Check if x26 contains the expected result. x18 is the signature ptr, x5 is the link ptr, x4 is a temp reg.
  RVTEST_SIGUPD(x18, x5, x4, x26, I_or_cg_cmp_rd_rs1_rs2_b26, I_or_cg_cmp_rd_rs1_rs2_b26_str)
    4384:	00092203          	lw	x4,0(x18)
    4388:	01a20863          	beq	x4,x26,4398 <I_or_cg_cmp_rd_rs1_rs2_b26+0x18>
    438c:	130002ef          	jal	x5,44bc <failedtest_x5_x4>
    4390:	00004380          	.word	0x00004380
    4394:	0000ed12          	.word	0x0000ed12
    4398:	00490913          	addi	x18,x18,4

# Testcase cmp_rd_rs1_rs2 (Test rd = rs1 = rs2 = x27)
  RVTEST_TESTDATA_LOAD_INT(x12, x27) # load rs1: x27 = 0xc3ffda21
    439c:	00062d83          	lw	x27,0(x12)
    43a0:	00460613          	addi	x12,x12,4
  RVTEST_TESTDATA_LOAD_INT(x12, x27) # load rs2: x27 = 0x593b480c
    43a4:	00062d83          	lw	x27,0(x12)
    43a8:	00460613          	addi	x12,x12,4

000043ac <I_or_cg_cmp_rd_rs1_rs2_b27>:
I_or_cg_cmp_rd_rs1_rs2_b27:
  or x27, x27, x27 # perform operation
    43ac:	01bdedb3          	or	x27,x27,x27
  # Check if x27 contains the expected result. x18 is the signature ptr, x5 is the link ptr, x4 is a temp reg.
  RVTEST_SIGUPD(x18, x5, x4, x27, I_or_cg_cmp_rd_rs1_rs2_b27, I_or_cg_cmp_rd_rs1_rs2_b27_str)
    43b0:	00092203          	lw	x4,0(x18)
    43b4:	01b20863          	beq	x4,x27,43c4 <I_or_cg_cmp_rd_rs1_rs2_b27+0x18>
    43b8:	104002ef          	jal	x5,44bc <failedtest_x5_x4>
    43bc:	000043ac          	.word	0x000043ac
    43c0:	0000ed49          	.word	0x0000ed49
    43c4:	00490913          	addi	x18,x18,4

# Testcase cmp_rd_rs1_rs2 (Test rd = rs1 = rs2 = x28)
  RVTEST_TESTDATA_LOAD_INT(x12, x28) # load rs1: x28 = 0x21cda86d
    43c8:	00062e03          	lw	x28,0(x12)
    43cc:	00460613          	addi	x12,x12,4
  RVTEST_TESTDATA_LOAD_INT(x12, x28) # load rs2: x28 = 0x10d85c58
    43d0:	00062e03          	lw	x28,0(x12)
    43d4:	00460613          	addi	x12,x12,4

000043d8 <I_or_cg_cmp_rd_rs1_rs2_b28>:
I_or_cg_cmp_rd_rs1_rs2_b28:
  or x28, x28, x28 # perform operation
    43d8:	01ce6e33          	or	x28,x28,x28
  # Check if x28 contains the expected result. x18 is the signature ptr, x5 is the link ptr, x4 is a temp reg.
  RVTEST_SIGUPD(x18, x5, x4, x28, I_or_cg_cmp_rd_rs1_rs2_b28, I_or_cg_cmp_rd_rs1_rs2_b28_str)
    43dc:	00092203          	lw	x4,0(x18)
    43e0:	01c20863          	beq	x4,x28,43f0 <I_or_cg_cmp_rd_rs1_rs2_b28+0x18>
    43e4:	0d8002ef          	jal	x5,44bc <failedtest_x5_x4>
    43e8:	000043d8          	.word	0x000043d8
    43ec:	0000ed80          	.word	0x0000ed80
    43f0:	00490913          	addi	x18,x18,4

# Testcase cmp_rd_rs1_rs2 (Test rd = rs1 = rs2 = x29)
  RVTEST_TESTDATA_LOAD_INT(x12, x29) # load rs1: x29 = 0xb70ca75f
    43f4:	00062e83          	lw	x29,0(x12)
    43f8:	00460613          	addi	x12,x12,4
  RVTEST_TESTDATA_LOAD_INT(x12, x29) # load rs2: x29 = 0x232bdc98
    43fc:	00062e83          	lw	x29,0(x12)
    4400:	00460613          	addi	x12,x12,4

00004404 <I_or_cg_cmp_rd_rs1_rs2_b29>:
I_or_cg_cmp_rd_rs1_rs2_b29:
  or x29, x29, x29 # perform operation
    4404:	01deeeb3          	or	x29,x29,x29
  # Check if x29 contains the expected result. x18 is the signature ptr, x5 is the link ptr, x4 is a temp reg.
  RVTEST_SIGUPD(x18, x5, x4, x29, I_or_cg_cmp_rd_rs1_rs2_b29, I_or_cg_cmp_rd_rs1_rs2_b29_str)
    4408:	00092203          	lw	x4,0(x18)
    440c:	01d20863          	beq	x4,x29,441c <I_or_cg_cmp_rd_rs1_rs2_b29+0x18>
    4410:	0ac002ef          	jal	x5,44bc <failedtest_x5_x4>
    4414:	00004404          	.word	0x00004404
    4418:	0000edb7          	.word	0x0000edb7
    441c:	00490913          	addi	x18,x18,4

# Testcase cmp_rd_rs1_rs2 (Test rd = rs1 = rs2 = x30)
  RVTEST_TESTDATA_LOAD_INT(x12, x30) # load rs1: x30 = 0xd0c56347
    4420:	00062f03          	lw	x30,0(x12)
    4424:	00460613          	addi	x12,x12,4
  RVTEST_TESTDATA_LOAD_INT(x12, x30) # load rs2: x30 = 0xa2536f02
    4428:	00062f03          	lw	x30,0(x12)
    442c:	00460613          	addi	x12,x12,4

00004430 <I_or_cg_cmp_rd_rs1_rs2_b30>:
I_or_cg_cmp_rd_rs1_rs2_b30:
  or x30, x30, x30 # perform operation
    4430:	01ef6f33          	or	x30,x30,x30
  # Check if x30 contains the expected result. x18 is the signature ptr, x5 is the link ptr, x4 is a temp reg.
  RVTEST_SIGUPD(x18, x5, x4, x30, I_or_cg_cmp_rd_rs1_rs2_b30, I_or_cg_cmp_rd_rs1_rs2_b30_str)
    4434:	00092203          	lw	x4,0(x18)
    4438:	01e20863          	beq	x4,x30,4448 <I_or_cg_cmp_rd_rs1_rs2_b30+0x18>
    443c:	080002ef          	jal	x5,44bc <failedtest_x5_x4>
    4440:	00004430          	.word	0x00004430
    4444:	0000edee          	.word	0x0000edee
    4448:	00490913          	addi	x18,x18,4

# Testcase cmp_rd_rs1_rs2 (Test rd = rs1 = rs2 = x31)
  RVTEST_TESTDATA_LOAD_INT(x12, x31) # load rs1: x31 = 0x5ecb30eb
    444c:	00062f83          	lw	x31,0(x12)
    4450:	00460613          	addi	x12,x12,4
  RVTEST_TESTDATA_LOAD_INT(x12, x31) # load rs2: x31 = 0xf5e49a70
    4454:	00062f83          	lw	x31,0(x12)
    4458:	00460613          	addi	x12,x12,4

0000445c <I_or_cg_cmp_rd_rs1_rs2_b31>:
I_or_cg_cmp_rd_rs1_rs2_b31:
  or x31, x31, x31 # perform operation
    445c:	01ffefb3          	or	x31,x31,x31
  # Check if x31 contains the expected result. x18 is the signature ptr, x5 is the link ptr, x4 is a temp reg.
  RVTEST_SIGUPD(x18, x5, x4, x31, I_or_cg_cmp_rd_rs1_rs2_b31, I_or_cg_cmp_rd_rs1_rs2_b31_str)
    4460:	00092203          	lw	x4,0(x18)
    4464:	01f20863          	beq	x4,x31,4474 <I_or_cg_cmp_rd_rs1_rs2_b31+0x18>
    4468:	054002ef          	jal	x5,44bc <failedtest_x5_x4>
    446c:	0000445c          	.word	0x0000445c
    4470:	0000ee25          	.word	0x0000ee25
    4474:	00490913          	addi	x18,x18,4

  mv x2, x18 # restore signature pointer to default register for teardown
    4478:	00090113          	addi	x2,x18,0

0000447c <cleanup_epilogs>:
    447c:	00000013          	addi	x0,x0,0

// Instantiate trap handlers and other epilog code, call RVMODEL_HALT at end of test
RVTEST_CODE_END
    4480:	0000b517          	auipc	x10,0xb
    4484:	04450513          	addi	x10,x10,68 # f4c4 <successstr>
    4488:	00000013          	addi	x0,x0,0
    448c:	00000013          	addi	x0,x0,0
    4490:	00000013          	addi	x0,x0,0
    4494:	00000013          	addi	x0,x0,0
    4498:	00000013          	addi	x0,x0,0
    449c:	00000013          	addi	x0,x0,0
    44a0:	0001c097          	auipc	x1,0x1c
    44a4:	d64080e7          	jalr	x1,-668(x1) # 20204 <rvmodel_io_write_str>
    44a8:	0001c097          	auipc	x1,0x1c
    44ac:	d60080e7          	jalr	x1,-672(x1) # 20208 <rvmodel_halt_pass>

000044b0 <abort_test>:
    44b0:	bad0e737          	lui	x14,0xbad0e
    44b4:	ead70713          	addi	x14,x14,-339 # bad0dead <absimm+0x4b743ba4>
    44b8:	fc5ff06f          	jal	x0,447c <cleanup_epilogs>

000044bc <failedtest_x5_x4>:
    44bc:	0000b217          	auipc	x4,0xb
    44c0:	9a420213          	addi	x4,x4,-1628 # ee60 <begin_failure_scratch>
    44c4:	02522423          	sw	x5,40(x4) # 28 <MMODE_SIG+0x25>
    44c8:	00122423          	sw	x1,8(x4) # 8 <MMODE_SIG+0x5>
    44cc:	00022023          	sw	x0,0(x4) # 0 <rvtest_entry_point>
    44d0:	0b00006f          	jal	x0,4580 <failedtest_saveregs>

000044d4 <failedtest_x8_x7>:
    44d4:	0000b397          	auipc	x7,0xb
    44d8:	98c38393          	addi	x7,x7,-1652 # ee60 <begin_failure_scratch>
    44dc:	0483a023          	sw	x8,64(x7)
    44e0:	0243a023          	sw	x4,32(x7)
    44e4:	0253a423          	sw	x5,40(x7)
    44e8:	0013a423          	sw	x1,8(x7)
    44ec:	0003a023          	sw	x0,0(x7)
    44f0:	00038213          	addi	x4,x7,0
    44f4:	00040293          	addi	x5,x8,0
    44f8:	0880006f          	jal	x0,4580 <failedtest_saveregs>

000044fc <failedtest_x14_x13>:
    44fc:	0000b697          	auipc	x13,0xb
    4500:	96468693          	addi	x13,x13,-1692 # ee60 <begin_failure_scratch>
    4504:	06e6a823          	sw	x14,112(x13)
    4508:	0246a023          	sw	x4,32(x13)
    450c:	0256a423          	sw	x5,40(x13)
    4510:	0016a423          	sw	x1,8(x13)
    4514:	0006a023          	sw	x0,0(x13)
    4518:	00068213          	addi	x4,x13,0
    451c:	00070293          	addi	x5,x14,0
    4520:	0600006f          	jal	x0,4580 <failedtest_saveregs>

00004524 <failedtest_trap_x7_x9>:
    4524:	0000b497          	auipc	x9,0xb
    4528:	93c48493          	addi	x9,x9,-1732 # ee60 <begin_failure_scratch>
    452c:	0674a423          	sw	x7,104(x9)
    4530:	0244a023          	sw	x4,32(x9)
    4534:	0254a423          	sw	x5,40(x9)
    4538:	0014a423          	sw	x1,8(x9)
    453c:	00300093          	addi	x1,x0,3
    4540:	0014a023          	sw	x1,0(x9)
    4544:	00048213          	addi	x4,x9,0
    4548:	00038293          	addi	x5,x7,0
    454c:	342020f3          	csrrs	x1,mcause,x0
    4550:	0000b497          	auipc	x9,0xb
    4554:	a8048493          	addi	x9,x9,-1408 # efd0 <saved_mcause>
    4558:	0014a023          	sw	x1,0(x9)
    455c:	343020f3          	csrrs	x1,mtval,x0
    4560:	0000b497          	auipc	x9,0xb
    4564:	a7848493          	addi	x9,x9,-1416 # efd8 <saved_mtval>
    4568:	0014a023          	sw	x1,0(x9)
    456c:	300020f3          	csrrs	x1,mstatus,x0
    4570:	0000b497          	auipc	x9,0xb
    4574:	a7048493          	addi	x9,x9,-1424 # efe0 <saved_mstatus>
    4578:	0014a023          	sw	x1,0(x9)
    457c:	0040006f          	jal	x0,4580 <failedtest_saveregs>

00004580 <failedtest_saveregs>:
    4580:	00222823          	sw	x2,16(x4) # 10 <MMODE_SIG+0xd>
    4584:	00322c23          	sw	x3,24(x4) # 18 <MMODE_SIG+0x15>
    4588:	02622823          	sw	x6,48(x4) # 30 <MMODE_SIG+0x2d>
    458c:	02722c23          	sw	x7,56(x4) # 38 <MMODE_SIG+0x35>
    4590:	04822023          	sw	x8,64(x4) # 40 <rvtest_code_begin>
    4594:	04922423          	sw	x9,72(x4) # 48 <rvtest_code_begin+0x8>
    4598:	04a22823          	sw	x10,80(x4) # 50 <I_or_cg_cp_rs1_b0>
    459c:	04b22c23          	sw	x11,88(x4) # 58 <I_or_cg_cp_rs1_b0+0x8>
    45a0:	06c22023          	sw	x12,96(x4) # 60 <I_or_cg_cp_rs1_b0+0x10>
    45a4:	06d22423          	sw	x13,104(x4) # 68 <I_or_cg_cp_rs1_b0+0x18>
    45a8:	06e22823          	sw	x14,112(x4) # 70 <I_or_cg_cp_rs1_b0+0x20>
    45ac:	06f22c23          	sw	x15,120(x4) # 78 <I_or_cg_cp_rs1_b0+0x28>
    45b0:	09022023          	sw	x16,128(x4) # 80 <I_or_cg_cp_rs1_b1+0x4>
    45b4:	09122423          	sw	x17,136(x4) # 88 <I_or_cg_cp_rs1_b1+0xc>
    45b8:	09222823          	sw	x18,144(x4) # 90 <I_or_cg_cp_rs1_b1+0x14>
    45bc:	09322c23          	sw	x19,152(x4) # 98 <I_or_cg_cp_rs1_b1+0x1c>
    45c0:	0b422023          	sw	x20,160(x4) # a0 <I_or_cg_cp_rs1_b1+0x24>
    45c4:	0b522423          	sw	x21,168(x4) # a8 <I_or_cg_cp_rs1_b1+0x2c>
    45c8:	0b622823          	sw	x22,176(x4) # b0 <I_or_cg_cp_rs1_b2+0x4>
    45cc:	0b722c23          	sw	x23,184(x4) # b8 <I_or_cg_cp_rs1_b2+0xc>
    45d0:	0d822023          	sw	x24,192(x4) # c0 <I_or_cg_cp_rs1_b2+0x14>
    45d4:	0d922423          	sw	x25,200(x4) # c8 <I_or_cg_cp_rs1_b2+0x1c>
    45d8:	0da22823          	sw	x26,208(x4) # d0 <I_or_cg_cp_rs1_b2+0x24>
    45dc:	0db22c23          	sw	x27,216(x4) # d8 <I_or_cg_cp_rs1_b2+0x2c>
    45e0:	0fc22023          	sw	x28,224(x4) # e0 <I_or_cg_cp_rs1_b3+0x4>
    45e4:	0fd22423          	sw	x29,232(x4) # e8 <I_or_cg_cp_rs1_b3+0xc>
    45e8:	0fe22823          	sw	x30,240(x4) # f0 <I_or_cg_cp_rs1_b3+0x14>
    45ec:	0ff22c23          	sw	x31,248(x4) # f8 <I_or_cg_cp_rs1_b3+0x1c>

000045f0 <failedtest_saveresults>:
    45f0:	0000b497          	auipc	x9,0xb
    45f4:	8704a483          	lw	x9,-1936(x9) # ee60 <begin_failure_scratch>
    45f8:	00300513          	addi	x10,x0,3
    45fc:	06a48863          	beq	x9,x10,466c <failedtest_saveresults_trap>

00004600 <failedtest_saveresults_int>:
    4600:	ffa2d303          	lhu	x6,-6(x5)
    4604:	ff82d383          	lhu	x7,-8(x5)
    4608:	01031313          	slli	x6,x6,0x10
    460c:	00736333          	or	x6,x6,x7
    4610:	00f35393          	srli	x7,x6,0xf
    4614:	01f3f393          	andi	x7,x7,31
    4618:	01435413          	srli	x8,x6,0x14
    461c:	01f47413          	andi	x8,x8,31
    4620:	10822223          	sw	x8,260(x4) # 104 <I_or_cg_cp_rs1_b3+0x28>
    4624:	00341313          	slli	x6,x8,0x3
    4628:	00620333          	add	x6,x4,x6
    462c:	00032303          	lw	x6,0(x6)
    4630:	10622823          	sw	x6,272(x4) # 110 <I_or_cg_cp_rs1_b4>
    4634:	ff62d303          	lhu	x6,-10(x5)
    4638:	ff42d383          	lhu	x7,-12(x5)
    463c:	01031313          	slli	x6,x6,0x10
    4640:	00736333          	or	x6,x6,x7
    4644:	41435393          	srai	x7,x6,0x14
    4648:	00f35313          	srli	x6,x6,0xf
    464c:	01f37313          	andi	x6,x6,31
    4650:	00331313          	slli	x6,x6,0x3
    4654:	00620333          	add	x6,x4,x6
    4658:	00032303          	lw	x6,0(x6)
    465c:	00730333          	add	x6,x6,x7
    4660:	00032303          	lw	x6,0(x6)
    4664:	10622c23          	sw	x6,280(x4) # 118 <I_or_cg_cp_rs1_b4+0x8>
    4668:	3d80006f          	jal	x0,4a40 <failedtest_saveresults_common>

0000466c <failedtest_saveresults_trap>:
    466c:	0042a303          	lw	x6,4(x5)
    4670:	0000b817          	auipc	x16,0xb
    4674:	94880813          	addi	x16,x16,-1720 # efb8 <trap_diag_fail_str_ptr>
    4678:	00682023          	sw	x6,0(x16)
    467c:	0002a303          	lw	x6,0(x5)
    4680:	10622423          	sw	x6,264(x4) # 108 <I_or_cg_cp_rs1_b3+0x2c>
    4684:	0000b817          	auipc	x16,0xb
    4688:	93480813          	addi	x16,x16,-1740 # efb8 <trap_diag_fail_str_ptr>
    468c:	00082303          	lw	x6,0(x16)
    4690:	0000b397          	auipc	x7,0xb
    4694:	ff838393          	addi	x7,x7,-8 # f688 <trap_sig_offset_mismatch>
    4698:	28730463          	beq	x6,x7,4920 <trap_diag_offset_mismatch>
    469c:	00000413          	addi	x8,x0,0
    46a0:	0000b817          	auipc	x16,0xb
    46a4:	8f080813          	addi	x16,x16,-1808 # ef90 <trap_diag_subtype>
    46a8:	00882023          	sw	x8,0(x16)
    46ac:	0000b397          	auipc	x7,0xb
    46b0:	04038393          	addi	x7,x7,64 # f6ec <sv_Mvect_str>
    46b4:	00731863          	bne	x6,x7,46c4 <failedtest_saveresults_trap+0x58>
    46b8:	00100413          	addi	x8,x0,1
    46bc:	00000493          	addi	x9,x0,0
    46c0:	2e00006f          	jal	x0,49a0 <trap_diag_field_identified>
    46c4:	0000b397          	auipc	x7,0xb
    46c8:	12a38393          	addi	x7,x7,298 # f7ee <sv_Mcause_str>
    46cc:	00731863          	bne	x6,x7,46dc <failedtest_saveresults_trap+0x70>
    46d0:	00200413          	addi	x8,x0,2
    46d4:	00000493          	addi	x9,x0,0
    46d8:	2c80006f          	jal	x0,49a0 <trap_diag_field_identified>
    46dc:	0000b397          	auipc	x7,0xb
    46e0:	20d38393          	addi	x7,x7,525 # f8e9 <sv_Mepc_str>
    46e4:	00731863          	bne	x6,x7,46f4 <failedtest_saveresults_trap+0x88>
    46e8:	00300413          	addi	x8,x0,3
    46ec:	00000493          	addi	x9,x0,0
    46f0:	2b00006f          	jal	x0,49a0 <trap_diag_field_identified>
    46f4:	0000b397          	auipc	x7,0xb
    46f8:	2e838393          	addi	x7,x7,744 # f9dc <sv_Mtval_str>
    46fc:	00731863          	bne	x6,x7,470c <failedtest_saveresults_trap+0xa0>
    4700:	00400413          	addi	x8,x0,4
    4704:	00000493          	addi	x9,x0,0
    4708:	2980006f          	jal	x0,49a0 <trap_diag_field_identified>
    470c:	0000b397          	auipc	x7,0xb
    4710:	44338393          	addi	x7,x7,1091 # fb4f <sv_Mip_str>
    4714:	00731863          	bne	x6,x7,4724 <failedtest_saveresults_trap+0xb8>
    4718:	00500413          	addi	x8,x0,5
    471c:	00000493          	addi	x9,x0,0
    4720:	2800006f          	jal	x0,49a0 <trap_diag_field_identified>
    4724:	0000b397          	auipc	x7,0xb
    4728:	3af38393          	addi	x7,x7,943 # fad3 <sv_Mtval2_str>
    472c:	00731863          	bne	x6,x7,473c <failedtest_saveresults_trap+0xd0>
    4730:	00600413          	addi	x8,x0,6
    4734:	00000493          	addi	x9,x0,0
    4738:	2680006f          	jal	x0,49a0 <trap_diag_field_identified>
    473c:	0000b397          	auipc	x7,0xb
    4740:	3d538393          	addi	x7,x7,981 # fb11 <sv_Mtinst_str>
    4744:	00731863          	bne	x6,x7,4754 <failedtest_saveresults_trap+0xe8>
    4748:	00700413          	addi	x8,x0,7
    474c:	00000493          	addi	x9,x0,0
    4750:	2500006f          	jal	x0,49a0 <trap_diag_field_identified>
    4754:	0000b397          	auipc	x7,0xb
    4758:	fd838393          	addi	x7,x7,-40 # f72c <sv_Svect_str>
    475c:	00731863          	bne	x6,x7,476c <failedtest_saveresults_trap+0x100>
    4760:	00100413          	addi	x8,x0,1
    4764:	00100493          	addi	x9,x0,1
    4768:	2380006f          	jal	x0,49a0 <trap_diag_field_identified>
    476c:	0000b397          	auipc	x7,0xb
    4770:	0c038393          	addi	x7,x7,192 # f82c <sv_Scause_str>
    4774:	00731863          	bne	x6,x7,4784 <failedtest_saveresults_trap+0x118>
    4778:	00200413          	addi	x8,x0,2
    477c:	00100493          	addi	x9,x0,1
    4780:	2200006f          	jal	x0,49a0 <trap_diag_field_identified>
    4784:	0000b397          	auipc	x7,0xb
    4788:	1a138393          	addi	x7,x7,417 # f925 <sv_Sepc_str>
    478c:	00731863          	bne	x6,x7,479c <failedtest_saveresults_trap+0x130>
    4790:	00300413          	addi	x8,x0,3
    4794:	00100493          	addi	x9,x0,1
    4798:	2080006f          	jal	x0,49a0 <trap_diag_field_identified>
    479c:	0000b397          	auipc	x7,0xb
    47a0:	27d38393          	addi	x7,x7,637 # fa19 <sv_Stval_str>
    47a4:	00731863          	bne	x6,x7,47b4 <failedtest_saveresults_trap+0x148>
    47a8:	00400413          	addi	x8,x0,4
    47ac:	00100493          	addi	x9,x0,1
    47b0:	1f00006f          	jal	x0,49a0 <trap_diag_field_identified>
    47b4:	0000b397          	auipc	x7,0xb
    47b8:	3d638393          	addi	x7,x7,982 # fb8a <sv_Sip_str>
    47bc:	00731863          	bne	x6,x7,47cc <failedtest_saveresults_trap+0x160>
    47c0:	00500413          	addi	x8,x0,5
    47c4:	00100493          	addi	x9,x0,1
    47c8:	1d80006f          	jal	x0,49a0 <trap_diag_field_identified>
    47cc:	0000b397          	auipc	x7,0xb
    47d0:	fa038393          	addi	x7,x7,-96 # f76c <sv_Hvect_str>
    47d4:	00731863          	bne	x6,x7,47e4 <failedtest_saveresults_trap+0x178>
    47d8:	00100413          	addi	x8,x0,1
    47dc:	00200493          	addi	x9,x0,2
    47e0:	1c00006f          	jal	x0,49a0 <trap_diag_field_identified>
    47e4:	0000b397          	auipc	x7,0xb
    47e8:	08638393          	addi	x7,x7,134 # f86a <sv_Hcause_str>
    47ec:	00731863          	bne	x6,x7,47fc <failedtest_saveresults_trap+0x190>
    47f0:	00200413          	addi	x8,x0,2
    47f4:	00200493          	addi	x9,x0,2
    47f8:	1a80006f          	jal	x0,49a0 <trap_diag_field_identified>
    47fc:	0000b397          	auipc	x7,0xb
    4800:	16538393          	addi	x7,x7,357 # f961 <sv_Hepc_str>
    4804:	00731863          	bne	x6,x7,4814 <failedtest_saveresults_trap+0x1a8>
    4808:	00300413          	addi	x8,x0,3
    480c:	00200493          	addi	x9,x0,2
    4810:	1900006f          	jal	x0,49a0 <trap_diag_field_identified>
    4814:	0000b397          	auipc	x7,0xb
    4818:	24238393          	addi	x7,x7,578 # fa56 <sv_Htval_str>
    481c:	00731863          	bne	x6,x7,482c <failedtest_saveresults_trap+0x1c0>
    4820:	00400413          	addi	x8,x0,4
    4824:	00200493          	addi	x9,x0,2
    4828:	1780006f          	jal	x0,49a0 <trap_diag_field_identified>
    482c:	0000b397          	auipc	x7,0xb
    4830:	39938393          	addi	x7,x7,921 # fbc5 <sv_Hip_str>
    4834:	00731863          	bne	x6,x7,4844 <failedtest_saveresults_trap+0x1d8>
    4838:	00500413          	addi	x8,x0,5
    483c:	00200493          	addi	x9,x0,2
    4840:	1600006f          	jal	x0,49a0 <trap_diag_field_identified>
    4844:	0000b397          	auipc	x7,0xb
    4848:	f6938393          	addi	x7,x7,-151 # f7ad <sv_Vvect_str>
    484c:	00731863          	bne	x6,x7,485c <failedtest_saveresults_trap+0x1f0>
    4850:	00100413          	addi	x8,x0,1
    4854:	00300493          	addi	x9,x0,3
    4858:	1480006f          	jal	x0,49a0 <trap_diag_field_identified>
    485c:	0000b397          	auipc	x7,0xb
    4860:	04d38393          	addi	x7,x7,77 # f8a9 <sv_Vcause_str>
    4864:	00731863          	bne	x6,x7,4874 <failedtest_saveresults_trap+0x208>
    4868:	00200413          	addi	x8,x0,2
    486c:	00300493          	addi	x9,x0,3
    4870:	1300006f          	jal	x0,49a0 <trap_diag_field_identified>
    4874:	0000b397          	auipc	x7,0xb
    4878:	12a38393          	addi	x7,x7,298 # f99e <sv_Vepc_str>
    487c:	00731863          	bne	x6,x7,488c <failedtest_saveresults_trap+0x220>
    4880:	00300413          	addi	x8,x0,3
    4884:	00300493          	addi	x9,x0,3
    4888:	1180006f          	jal	x0,49a0 <trap_diag_field_identified>
    488c:	0000b397          	auipc	x7,0xb
    4890:	20838393          	addi	x7,x7,520 # fa94 <sv_Vtval_str>
    4894:	00731863          	bne	x6,x7,48a4 <failedtest_saveresults_trap+0x238>
    4898:	00400413          	addi	x8,x0,4
    489c:	00300493          	addi	x9,x0,3
    48a0:	1000006f          	jal	x0,49a0 <trap_diag_field_identified>
    48a4:	0000b397          	auipc	x7,0xb
    48a8:	35d38393          	addi	x7,x7,861 # fc01 <sv_Vip_str>
    48ac:	00731863          	bne	x6,x7,48bc <failedtest_saveresults_trap+0x250>
    48b0:	00500413          	addi	x8,x0,5
    48b4:	00300493          	addi	x9,x0,3
    48b8:	0e80006f          	jal	x0,49a0 <trap_diag_field_identified>
    48bc:	0000b397          	auipc	x7,0xb
    48c0:	38238393          	addi	x7,x7,898 # fc3e <Mclr_Mext_int_str>
    48c4:	00731863          	bne	x6,x7,48d4 <failedtest_saveresults_trap+0x268>
    48c8:	00800413          	addi	x8,x0,8
    48cc:	00000493          	addi	x9,x0,0
    48d0:	0d00006f          	jal	x0,49a0 <trap_diag_field_identified>
    48d4:	0000b397          	auipc	x7,0xb
    48d8:	3b938393          	addi	x7,x7,953 # fc8d <Mclr_Sext_int_str>
    48dc:	00731863          	bne	x6,x7,48ec <failedtest_saveresults_trap+0x280>
    48e0:	00800413          	addi	x8,x0,8
    48e4:	00000493          	addi	x9,x0,0
    48e8:	0b80006f          	jal	x0,49a0 <trap_diag_field_identified>
    48ec:	0000b397          	auipc	x7,0xb
    48f0:	49c38393          	addi	x7,x7,1180 # fd88 <Sclr_Sext_int_str>
    48f4:	00731863          	bne	x6,x7,4904 <failedtest_saveresults_trap+0x298>
    48f8:	00800413          	addi	x8,x0,8
    48fc:	00100493          	addi	x9,x0,1
    4900:	0a00006f          	jal	x0,49a0 <trap_diag_field_identified>
    4904:	0000b397          	auipc	x7,0xb
    4908:	58038393          	addi	x7,x7,1408 # fe84 <Hclr_Sext_int_str>
    490c:	00731863          	bne	x6,x7,491c <failedtest_saveresults_trap+0x2b0>
    4910:	00800413          	addi	x8,x0,8
    4914:	00200493          	addi	x9,x0,2
    4918:	0880006f          	jal	x0,49a0 <trap_diag_field_identified>
    491c:	1140006f          	jal	x0,4a30 <trap_diag_generic_report>

00004920 <trap_diag_offset_mismatch>:
    4920:	00900413          	addi	x8,x0,9
    4924:	0000a817          	auipc	x16,0xa
    4928:	66c80813          	addi	x16,x16,1644 # ef90 <trap_diag_subtype>
    492c:	00882023          	sw	x8,0(x16)
    4930:	ffa2d303          	lhu	x6,-6(x5)
    4934:	ff82d383          	lhu	x7,-8(x5)
    4938:	01031313          	slli	x6,x6,0x10
    493c:	00736333          	or	x6,x6,x7
    4940:	01435413          	srli	x8,x6,0x14
    4944:	01f47413          	andi	x8,x8,31
    4948:	00341313          	slli	x6,x8,0x3
    494c:	00620333          	add	x6,x4,x6
    4950:	00032303          	lw	x6,0(x6)
    4954:	0000a817          	auipc	x16,0xa
    4958:	65480813          	addi	x16,x16,1620 # efa8 <trap_diag_actual_offset>
    495c:	00682023          	sw	x6,0(x16)
    4960:	ff62d303          	lhu	x6,-10(x5)
    4964:	ff42d383          	lhu	x7,-12(x5)
    4968:	01031313          	slli	x6,x6,0x10
    496c:	00736333          	or	x6,x6,x7
    4970:	41435393          	srai	x7,x6,0x14
    4974:	00f35313          	srli	x6,x6,0xf
    4978:	01f37313          	andi	x6,x6,31
    497c:	00331313          	slli	x6,x6,0x3
    4980:	00620333          	add	x6,x4,x6
    4984:	00032303          	lw	x6,0(x6)
    4988:	00730333          	add	x6,x6,x7
    498c:	00032303          	lw	x6,0(x6)
    4990:	0000a817          	auipc	x16,0xa
    4994:	62080813          	addi	x16,x16,1568 # efb0 <trap_diag_expected_offset>
    4998:	00682023          	sw	x6,0(x16)
    499c:	0a40006f          	jal	x0,4a40 <failedtest_saveresults_common>

000049a0 <trap_diag_field_identified>:
    49a0:	0000a817          	auipc	x16,0xa
    49a4:	5f080813          	addi	x16,x16,1520 # ef90 <trap_diag_subtype>
    49a8:	00882023          	sw	x8,0(x16)
    49ac:	0000a817          	auipc	x16,0xa
    49b0:	5e880813          	addi	x16,x16,1512 # ef94 <trap_diag_mode>
    49b4:	00982023          	sw	x9,0(x16)
    49b8:	ffa2d303          	lhu	x6,-6(x5)
    49bc:	ff82d383          	lhu	x7,-8(x5)
    49c0:	01031313          	slli	x6,x6,0x10
    49c4:	00736333          	or	x6,x6,x7
    49c8:	01435713          	srli	x14,x6,0x14
    49cc:	01f77713          	andi	x14,x14,31
    49d0:	00371313          	slli	x6,x14,0x3
    49d4:	00620333          	add	x6,x4,x6
    49d8:	00032303          	lw	x6,0(x6)
    49dc:	10622823          	sw	x6,272(x4) # 110 <I_or_cg_cp_rs1_b4>
    49e0:	0000a817          	auipc	x16,0xa
    49e4:	5b880813          	addi	x16,x16,1464 # ef98 <trap_diag_actual_value>
    49e8:	00682023          	sw	x6,0(x16)
    49ec:	ff62d303          	lhu	x6,-10(x5)
    49f0:	ff42d383          	lhu	x7,-12(x5)
    49f4:	01031313          	slli	x6,x6,0x10
    49f8:	00736333          	or	x6,x6,x7
    49fc:	41435393          	srai	x7,x6,0x14
    4a00:	00f35313          	srli	x6,x6,0xf
    4a04:	01f37313          	andi	x6,x6,31
    4a08:	00331313          	slli	x6,x6,0x3
    4a0c:	00620333          	add	x6,x4,x6
    4a10:	00032303          	lw	x6,0(x6)
    4a14:	00730333          	add	x6,x6,x7
    4a18:	00032303          	lw	x6,0(x6)
    4a1c:	10622c23          	sw	x6,280(x4) # 118 <I_or_cg_cp_rs1_b4+0x8>
    4a20:	0000a817          	auipc	x16,0xa
    4a24:	58080813          	addi	x16,x16,1408 # efa0 <trap_diag_expected_value>
    4a28:	00682023          	sw	x6,0(x16)
    4a2c:	0140006f          	jal	x0,4a40 <failedtest_saveresults_common>

00004a30 <trap_diag_generic_report>:
    4a30:	0000a817          	auipc	x16,0xa
    4a34:	56080813          	addi	x16,x16,1376 # ef90 <trap_diag_subtype>
    4a38:	00082023          	sw	x0,0(x16)
    4a3c:	0040006f          	jal	x0,4a40 <failedtest_saveresults_common>

00004a40 <failedtest_saveresults_common>:
    4a40:	0002a303          	lw	x6,0(x5)
    4a44:	10622423          	sw	x6,264(x4) # 108 <I_or_cg_cp_rs1_b3+0x2c>
    4a48:	00035383          	lhu	x7,0(x6)
    4a4c:	0033f413          	andi	x8,x7,3
    4a50:	00300493          	addi	x9,x0,3
    4a54:	00941863          	bne	x8,x9,4a64 <failedtest_saveresults_common+0x24>
    4a58:	00235403          	lhu	x8,2(x6)
    4a5c:	01041413          	slli	x8,x8,0x10
    4a60:	0083e3b3          	or	x7,x7,x8
    4a64:	10722023          	sw	x7,256(x4) # 100 <I_or_cg_cp_rs1_b3+0x24>
    4a68:	0042a303          	lw	x6,4(x5)
    4a6c:	12622023          	sw	x6,288(x4) # 120 <I_or_cg_cp_rs1_b4+0x10>

00004a70 <failedtest_report>:
    4a70:	00000013          	addi	x0,x0,0
    4a74:	00000013          	addi	x0,x0,0
    4a78:	00000013          	addi	x0,x0,0
    4a7c:	00000013          	addi	x0,x0,0
    4a80:	0000b517          	auipc	x10,0xb
    4a84:	a7950513          	addi	x10,x10,-1415 # f4f9 <failstr>
    4a88:	00000013          	addi	x0,x0,0
    4a8c:	00000013          	addi	x0,x0,0
    4a90:	00000013          	addi	x0,x0,0
    4a94:	00000013          	addi	x0,x0,0
    4a98:	00000013          	addi	x0,x0,0
    4a9c:	00000013          	addi	x0,x0,0
    4aa0:	0001b097          	auipc	x1,0x1b
    4aa4:	764080e7          	jalr	x1,1892(x1) # 20204 <rvmodel_io_write_str>

00004aa8 <print_testnamestr>:
    4aa8:	00000013          	addi	x0,x0,0
    4aac:	00000013          	addi	x0,x0,0
    4ab0:	00000013          	addi	x0,x0,0
    4ab4:	00000013          	addi	x0,x0,0
    4ab8:	00000013          	addi	x0,x0,0
    4abc:	00000013          	addi	x0,x0,0
    4ac0:	0000b517          	auipc	x10,0xb
    4ac4:	acb50513          	addi	x10,x10,-1333 # f58b <testnamestr>
    4ac8:	00000013          	addi	x0,x0,0
    4acc:	00000013          	addi	x0,x0,0
    4ad0:	00000013          	addi	x0,x0,0
    4ad4:	00000013          	addi	x0,x0,0
    4ad8:	00000013          	addi	x0,x0,0
    4adc:	00000013          	addi	x0,x0,0
    4ae0:	0001b097          	auipc	x1,0x1b
    4ae4:	724080e7          	jalr	x1,1828(x1) # 20204 <rvmodel_io_write_str>

00004ae8 <print_failure_test_name_str>:
    4ae8:	0000a517          	auipc	x10,0xa
    4aec:	49852503          	lw	x10,1176(x10) # ef80 <failure_string_ptr>
    4af0:	0001b097          	auipc	x1,0x1b
    4af4:	714080e7          	jalr	x1,1812(x1) # 20204 <rvmodel_io_write_str>

00004af8 <print_newline_str>:
    4af8:	00000013          	addi	x0,x0,0
    4afc:	00000013          	addi	x0,x0,0
    4b00:	0000b517          	auipc	x10,0xb
    4b04:	a9d50513          	addi	x10,x10,-1379 # f59d <newlinestr>
    4b08:	00000013          	addi	x0,x0,0
    4b0c:	00000013          	addi	x0,x0,0
    4b10:	00000013          	addi	x0,x0,0
    4b14:	00000013          	addi	x0,x0,0
    4b18:	00000013          	addi	x0,x0,0
    4b1c:	00000013          	addi	x0,x0,0
    4b20:	0001b097          	auipc	x1,0x1b
    4b24:	6e4080e7          	jalr	x1,1764(x1) # 20204 <rvmodel_io_write_str>
    4b28:	0000a517          	auipc	x10,0xa
    4b2c:	33852503          	lw	x10,824(x10) # ee60 <begin_failure_scratch>
    4b30:	00300593          	addi	x11,x0,3
    4b34:	3eb50c63          	beq	x10,x11,4f2c <failedtest_report_trap_detailed>
    4b38:	00000013          	addi	x0,x0,0
    4b3c:	00000013          	addi	x0,x0,0
    4b40:	0000b517          	auipc	x10,0xb
    4b44:	a5f50513          	addi	x10,x10,-1441 # f59f <inststr>
    4b48:	00000013          	addi	x0,x0,0
    4b4c:	00000013          	addi	x0,x0,0
    4b50:	00000013          	addi	x0,x0,0
    4b54:	00000013          	addi	x0,x0,0
    4b58:	00000013          	addi	x0,x0,0
    4b5c:	00000013          	addi	x0,x0,0
    4b60:	0001b097          	auipc	x1,0x1b
    4b64:	6a4080e7          	jalr	x1,1700(x1) # 20204 <rvmodel_io_write_str>
    4b68:	0000a517          	auipc	x10,0xa
    4b6c:	3f852503          	lw	x10,1016(x10) # ef60 <failing_instruction>
    4b70:	02000593          	addi	x11,x0,32
    4b74:	00357613          	andi	x12,x10,3
    4b78:	00300693          	addi	x13,x0,3
    4b7c:	00d60463          	beq	x12,x13,4b84 <print_newline_str+0x8c>
    4b80:	01000593          	addi	x11,x0,16
    4b84:	2f4010ef          	jal	x1,5e78 <failedtest_hex_to_str>
    4b88:	00000013          	addi	x0,x0,0
    4b8c:	00000013          	addi	x0,x0,0
    4b90:	00000013          	addi	x0,x0,0
    4b94:	00000013          	addi	x0,x0,0
    4b98:	00000013          	addi	x0,x0,0
    4b9c:	00000013          	addi	x0,x0,0
    4ba0:	0000a517          	auipc	x10,0xa
    4ba4:	44850513          	addi	x10,x10,1096 # efe8 <ascii_buffer>
    4ba8:	00000013          	addi	x0,x0,0
    4bac:	00000013          	addi	x0,x0,0
    4bb0:	00000013          	addi	x0,x0,0
    4bb4:	00000013          	addi	x0,x0,0
    4bb8:	00000013          	addi	x0,x0,0
    4bbc:	00000013          	addi	x0,x0,0
    4bc0:	0001b097          	auipc	x1,0x1b
    4bc4:	644080e7          	jalr	x1,1604(x1) # 20204 <rvmodel_io_write_str>
    4bc8:	00000013          	addi	x0,x0,0
    4bcc:	00000013          	addi	x0,x0,0
    4bd0:	00000013          	addi	x0,x0,0
    4bd4:	00000013          	addi	x0,x0,0
    4bd8:	00000013          	addi	x0,x0,0
    4bdc:	00000013          	addi	x0,x0,0
    4be0:	0000b517          	auipc	x10,0xb
    4be4:	9d350513          	addi	x10,x10,-1581 # f5b3 <addrstr>
    4be8:	00000013          	addi	x0,x0,0
    4bec:	00000013          	addi	x0,x0,0
    4bf0:	00000013          	addi	x0,x0,0
    4bf4:	00000013          	addi	x0,x0,0
    4bf8:	00000013          	addi	x0,x0,0
    4bfc:	00000013          	addi	x0,x0,0
    4c00:	0001b097          	auipc	x1,0x1b
    4c04:	604080e7          	jalr	x1,1540(x1) # 20204 <rvmodel_io_write_str>
    4c08:	0000a517          	auipc	x10,0xa
    4c0c:	36052503          	lw	x10,864(x10) # ef68 <failing_addr>
    4c10:	02000593          	addi	x11,x0,32
    4c14:	264010ef          	jal	x1,5e78 <failedtest_hex_to_str>
    4c18:	00000013          	addi	x0,x0,0
    4c1c:	00000013          	addi	x0,x0,0
    4c20:	0000a517          	auipc	x10,0xa
    4c24:	3c850513          	addi	x10,x10,968 # efe8 <ascii_buffer>
    4c28:	00000013          	addi	x0,x0,0
    4c2c:	00000013          	addi	x0,x0,0
    4c30:	00000013          	addi	x0,x0,0
    4c34:	00000013          	addi	x0,x0,0
    4c38:	00000013          	addi	x0,x0,0
    4c3c:	00000013          	addi	x0,x0,0
    4c40:	0001b097          	auipc	x1,0x1b
    4c44:	5c4080e7          	jalr	x1,1476(x1) # 20204 <rvmodel_io_write_str>
    4c48:	00000013          	addi	x0,x0,0
    4c4c:	00000013          	addi	x0,x0,0
    4c50:	00000013          	addi	x0,x0,0
    4c54:	00000013          	addi	x0,x0,0
    4c58:	00000013          	addi	x0,x0,0
    4c5c:	00000013          	addi	x0,x0,0
    4c60:	0000b517          	auipc	x10,0xb
    4c64:	3d050513          	addi	x10,x10,976 # 10030 <regstr>
    4c68:	00000013          	addi	x0,x0,0
    4c6c:	00000013          	addi	x0,x0,0
    4c70:	00000013          	addi	x0,x0,0
    4c74:	00000013          	addi	x0,x0,0
    4c78:	00000013          	addi	x0,x0,0
    4c7c:	00000013          	addi	x0,x0,0
    4c80:	0001b097          	auipc	x1,0x1b
    4c84:	584080e7          	jalr	x1,1412(x1) # 20204 <rvmodel_io_write_str>
    4c88:	0000a517          	auipc	x10,0xa
    4c8c:	1d852503          	lw	x10,472(x10) # ee60 <begin_failure_scratch>
    4c90:	00050663          	beq	x10,x0,4c9c <print_newline_str+0x1a4>
    4c94:	00300593          	addi	x11,x0,3
    4c98:	04b51063          	bne	x10,x11,4cd8 <failedtest_report_not_intreg>
    4c9c:	07800593          	addi	x11,x0,120
    4ca0:	0000a617          	auipc	x12,0xa
    4ca4:	34860613          	addi	x12,x12,840 # efe8 <ascii_buffer>
    4ca8:	00000013          	addi	x0,x0,0
    4cac:	00000013          	addi	x0,x0,0
    4cb0:	00000013          	addi	x0,x0,0
    4cb4:	00000013          	addi	x0,x0,0
    4cb8:	00000013          	addi	x0,x0,0
    4cbc:	00000013          	addi	x0,x0,0
    4cc0:	00b60023          	sb	x11,0(x12)
    4cc4:	00160613          	addi	x12,x12,1
    4cc8:	0000a517          	auipc	x10,0xa
    4ccc:	29c52503          	lw	x10,668(x10) # ef64 <failing_reg>
    4cd0:	224010ef          	jal	x1,5ef4 <failedtest_dec_to_str>
    4cd4:	0e00006f          	jal	x0,4db4 <failedtest_report_print_regstr>

00004cd8 <failedtest_report_not_intreg>:
    4cd8:	00100593          	addi	x11,x0,1
    4cdc:	04b50863          	beq	x10,x11,4d2c <failedtest_report_fpreg>
    4ce0:	00400593          	addi	x11,x0,4
    4ce4:	08b50a63          	beq	x10,x11,4d78 <failedtest_report_vecreg>
    4ce8:	00000013          	addi	x0,x0,0
    4cec:	00000013          	addi	x0,x0,0
    4cf0:	00000013          	addi	x0,x0,0
    4cf4:	00000013          	addi	x0,x0,0
    4cf8:	00000013          	addi	x0,x0,0
    4cfc:	00000013          	addi	x0,x0,0
    4d00:	0000b517          	auipc	x10,0xb
    4d04:	39050513          	addi	x10,x10,912 # 10090 <fflagsstr>
    4d08:	00000013          	addi	x0,x0,0
    4d0c:	00000013          	addi	x0,x0,0
    4d10:	00000013          	addi	x0,x0,0
    4d14:	00000013          	addi	x0,x0,0
    4d18:	00000013          	addi	x0,x0,0
    4d1c:	00000013          	addi	x0,x0,0
    4d20:	0001b097          	auipc	x1,0x1b
    4d24:	4e4080e7          	jalr	x1,1252(x1) # 20204 <rvmodel_io_write_str>
    4d28:	0c00006f          	jal	x0,4de8 <failedtest_report_after_reg>

00004d2c <failedtest_report_fpreg>:
    4d2c:	06600593          	addi	x11,x0,102
    4d30:	00000013          	addi	x0,x0,0
    4d34:	00000013          	addi	x0,x0,0
    4d38:	00000013          	addi	x0,x0,0
    4d3c:	00000013          	addi	x0,x0,0
    4d40:	0000a617          	auipc	x12,0xa
    4d44:	2a860613          	addi	x12,x12,680 # efe8 <ascii_buffer>
    4d48:	00000013          	addi	x0,x0,0
    4d4c:	00000013          	addi	x0,x0,0
    4d50:	00000013          	addi	x0,x0,0
    4d54:	00000013          	addi	x0,x0,0
    4d58:	00000013          	addi	x0,x0,0
    4d5c:	00000013          	addi	x0,x0,0
    4d60:	00b60023          	sb	x11,0(x12)
    4d64:	00160613          	addi	x12,x12,1
    4d68:	0000a517          	auipc	x10,0xa
    4d6c:	1fc52503          	lw	x10,508(x10) # ef64 <failing_reg>
    4d70:	184010ef          	jal	x1,5ef4 <failedtest_dec_to_str>
    4d74:	0400006f          	jal	x0,4db4 <failedtest_report_print_regstr>

00004d78 <failedtest_report_vecreg>:
    4d78:	07600593          	addi	x11,x0,118
    4d7c:	00000013          	addi	x0,x0,0
    4d80:	0000a617          	auipc	x12,0xa
    4d84:	26860613          	addi	x12,x12,616 # efe8 <ascii_buffer>
    4d88:	00000013          	addi	x0,x0,0
    4d8c:	00000013          	addi	x0,x0,0
    4d90:	00000013          	addi	x0,x0,0
    4d94:	00000013          	addi	x0,x0,0
    4d98:	00000013          	addi	x0,x0,0
    4d9c:	00000013          	addi	x0,x0,0
    4da0:	00b60023          	sb	x11,0(x12)
    4da4:	00160613          	addi	x12,x12,1
    4da8:	0000a517          	auipc	x10,0xa
    4dac:	1bc52503          	lw	x10,444(x10) # ef64 <failing_reg>
    4db0:	144010ef          	jal	x1,5ef4 <failedtest_dec_to_str>

00004db4 <failedtest_report_print_regstr>:
    4db4:	00000013          	addi	x0,x0,0
    4db8:	00000013          	addi	x0,x0,0
    4dbc:	00000013          	addi	x0,x0,0
    4dc0:	0000a517          	auipc	x10,0xa
    4dc4:	22850513          	addi	x10,x10,552 # efe8 <ascii_buffer>
    4dc8:	00000013          	addi	x0,x0,0
    4dcc:	00000013          	addi	x0,x0,0
    4dd0:	00000013          	addi	x0,x0,0
    4dd4:	00000013          	addi	x0,x0,0
    4dd8:	00000013          	addi	x0,x0,0
    4ddc:	00000013          	addi	x0,x0,0
    4de0:	0001b097          	auipc	x1,0x1b
    4de4:	424080e7          	jalr	x1,1060(x1) # 20204 <rvmodel_io_write_str>

00004de8 <failedtest_report_after_reg>:
    4de8:	00000013          	addi	x0,x0,0
    4dec:	00000013          	addi	x0,x0,0
    4df0:	00000013          	addi	x0,x0,0
    4df4:	00000013          	addi	x0,x0,0
    4df8:	00000013          	addi	x0,x0,0
    4dfc:	00000013          	addi	x0,x0,0
    4e00:	0000b517          	auipc	x10,0xb
    4e04:	24150513          	addi	x10,x10,577 # 10041 <badvalstr>
    4e08:	00000013          	addi	x0,x0,0
    4e0c:	00000013          	addi	x0,x0,0
    4e10:	00000013          	addi	x0,x0,0
    4e14:	00000013          	addi	x0,x0,0
    4e18:	00000013          	addi	x0,x0,0
    4e1c:	00000013          	addi	x0,x0,0
    4e20:	0001b097          	auipc	x1,0x1b
    4e24:	3e4080e7          	jalr	x1,996(x1) # 20204 <rvmodel_io_write_str>
    4e28:	0000a517          	auipc	x10,0xa
    4e2c:	03852503          	lw	x10,56(x10) # ee60 <begin_failure_scratch>
    4e30:	00100593          	addi	x11,x0,1
    4e34:	00b51c63          	bne	x10,x11,4e4c <failedtest_report_badval_not_fp>
    4e38:	0000a517          	auipc	x10,0xa
    4e3c:	13852503          	lw	x10,312(x10) # ef70 <failing_value>
    4e40:	02000593          	addi	x11,x0,32
    4e44:	034010ef          	jal	x1,5e78 <failedtest_hex_to_str>
    4e48:	0140006f          	jal	x0,4e5c <failedtest_report_badval_done>

00004e4c <failedtest_report_badval_not_fp>:
    4e4c:	0000a517          	auipc	x10,0xa
    4e50:	12452503          	lw	x10,292(x10) # ef70 <failing_value>
    4e54:	02000593          	addi	x11,x0,32
    4e58:	020010ef          	jal	x1,5e78 <failedtest_hex_to_str>

00004e5c <failedtest_report_badval_done>:
    4e5c:	00000013          	addi	x0,x0,0
    4e60:	0000a517          	auipc	x10,0xa
    4e64:	18850513          	addi	x10,x10,392 # efe8 <ascii_buffer>
    4e68:	00000013          	addi	x0,x0,0
    4e6c:	00000013          	addi	x0,x0,0
    4e70:	00000013          	addi	x0,x0,0
    4e74:	00000013          	addi	x0,x0,0
    4e78:	00000013          	addi	x0,x0,0
    4e7c:	00000013          	addi	x0,x0,0
    4e80:	0001b097          	auipc	x1,0x1b
    4e84:	384080e7          	jalr	x1,900(x1) # 20204 <rvmodel_io_write_str>
    4e88:	00000013          	addi	x0,x0,0
    4e8c:	00000013          	addi	x0,x0,0
    4e90:	00000013          	addi	x0,x0,0
    4e94:	00000013          	addi	x0,x0,0
    4e98:	00000013          	addi	x0,x0,0
    4e9c:	00000013          	addi	x0,x0,0
    4ea0:	0000b517          	auipc	x10,0xb
    4ea4:	1b850513          	addi	x10,x10,440 # 10058 <expvalstr>
    4ea8:	00000013          	addi	x0,x0,0
    4eac:	00000013          	addi	x0,x0,0
    4eb0:	00000013          	addi	x0,x0,0
    4eb4:	00000013          	addi	x0,x0,0
    4eb8:	00000013          	addi	x0,x0,0
    4ebc:	00000013          	addi	x0,x0,0
    4ec0:	0001b097          	auipc	x1,0x1b
    4ec4:	344080e7          	jalr	x1,836(x1) # 20204 <rvmodel_io_write_str>
    4ec8:	0000a517          	auipc	x10,0xa
    4ecc:	f9852503          	lw	x10,-104(x10) # ee60 <begin_failure_scratch>
    4ed0:	00100593          	addi	x11,x0,1
    4ed4:	00b51c63          	bne	x10,x11,4eec <failedtest_report_expval_not_fp>
    4ed8:	0000a517          	auipc	x10,0xa
    4edc:	0a052503          	lw	x10,160(x10) # ef78 <expected_value>
    4ee0:	02000593          	addi	x11,x0,32
    4ee4:	795000ef          	jal	x1,5e78 <failedtest_hex_to_str>
    4ee8:	0140006f          	jal	x0,4efc <failedtest_report_expval_done>

00004eec <failedtest_report_expval_not_fp>:
    4eec:	0000a517          	auipc	x10,0xa
    4ef0:	08c52503          	lw	x10,140(x10) # ef78 <expected_value>
    4ef4:	02000593          	addi	x11,x0,32
    4ef8:	781000ef          	jal	x1,5e78 <failedtest_hex_to_str>

00004efc <failedtest_report_expval_done>:
    4efc:	00000013          	addi	x0,x0,0
    4f00:	0000a517          	auipc	x10,0xa
    4f04:	0e850513          	addi	x10,x10,232 # efe8 <ascii_buffer>
    4f08:	00000013          	addi	x0,x0,0
    4f0c:	00000013          	addi	x0,x0,0
    4f10:	00000013          	addi	x0,x0,0
    4f14:	00000013          	addi	x0,x0,0
    4f18:	00000013          	addi	x0,x0,0
    4f1c:	00000013          	addi	x0,x0,0
    4f20:	0001b097          	auipc	x1,0x1b
    4f24:	2e4080e7          	jalr	x1,740(x1) # 20204 <rvmodel_io_write_str>
    4f28:	4fd0006f          	jal	x0,5c24 <failedtest_report_end>

00004f2c <failedtest_report_trap_detailed>:
    4f2c:	00000013          	addi	x0,x0,0
    4f30:	00000013          	addi	x0,x0,0
    4f34:	00000013          	addi	x0,x0,0
    4f38:	00000013          	addi	x0,x0,0
    4f3c:	00000013          	addi	x0,x0,0
    4f40:	0000b517          	auipc	x10,0xb
    4f44:	17c50513          	addi	x10,x10,380 # 100bc <trap_diag_header_str>
    4f48:	00000013          	addi	x0,x0,0
    4f4c:	00000013          	addi	x0,x0,0
    4f50:	00000013          	addi	x0,x0,0
    4f54:	00000013          	addi	x0,x0,0
    4f58:	00000013          	addi	x0,x0,0
    4f5c:	00000013          	addi	x0,x0,0
    4f60:	0001b097          	auipc	x1,0x1b
    4f64:	2a4080e7          	jalr	x1,676(x1) # 20204 <rvmodel_io_write_str>
    4f68:	00000013          	addi	x0,x0,0
    4f6c:	00000013          	addi	x0,x0,0
    4f70:	00000013          	addi	x0,x0,0
    4f74:	00000013          	addi	x0,x0,0
    4f78:	00000013          	addi	x0,x0,0
    4f7c:	00000013          	addi	x0,x0,0
    4f80:	0000b517          	auipc	x10,0xb
    4f84:	16850513          	addi	x10,x10,360 # 100e8 <trap_diag_origstr_label>
    4f88:	00000013          	addi	x0,x0,0
    4f8c:	00000013          	addi	x0,x0,0
    4f90:	00000013          	addi	x0,x0,0
    4f94:	00000013          	addi	x0,x0,0
    4f98:	00000013          	addi	x0,x0,0
    4f9c:	00000013          	addi	x0,x0,0
    4fa0:	0001b097          	auipc	x1,0x1b
    4fa4:	264080e7          	jalr	x1,612(x1) # 20204 <rvmodel_io_write_str>
    4fa8:	0000a817          	auipc	x16,0xa
    4fac:	01080813          	addi	x16,x16,16 # efb8 <trap_diag_fail_str_ptr>
    4fb0:	00082503          	lw	x10,0(x16)
    4fb4:	0001b097          	auipc	x1,0x1b
    4fb8:	250080e7          	jalr	x1,592(x1) # 20204 <rvmodel_io_write_str>
    4fbc:	00000013          	addi	x0,x0,0
    4fc0:	0000a517          	auipc	x10,0xa
    4fc4:	5dd50513          	addi	x10,x10,1501 # f59d <newlinestr>
    4fc8:	00000013          	addi	x0,x0,0
    4fcc:	00000013          	addi	x0,x0,0
    4fd0:	00000013          	addi	x0,x0,0
    4fd4:	00000013          	addi	x0,x0,0
    4fd8:	00000013          	addi	x0,x0,0
    4fdc:	00000013          	addi	x0,x0,0
    4fe0:	0001b097          	auipc	x1,0x1b
    4fe4:	224080e7          	jalr	x1,548(x1) # 20204 <rvmodel_io_write_str>
    4fe8:	0000a417          	auipc	x8,0xa
    4fec:	fa842403          	lw	x8,-88(x8) # ef90 <trap_diag_subtype>
    4ff0:	00900493          	addi	x9,x0,9
    4ff4:	00940663          	beq	x8,x9,5000 <trap_report_offset_mismatch>
    4ff8:	2a040ce3          	beq	x8,x0,5ab0 <trap_report_generic>
    4ffc:	3780006f          	jal	x0,5374 <trap_report_field_mismatch>

00005000 <trap_report_offset_mismatch>:
    5000:	0000b517          	auipc	x10,0xb
    5004:	0f850513          	addi	x10,x10,248 # 100f8 <trap_diag_count_mismatch_str>
    5008:	00000013          	addi	x0,x0,0
    500c:	00000013          	addi	x0,x0,0
    5010:	00000013          	addi	x0,x0,0
    5014:	00000013          	addi	x0,x0,0
    5018:	00000013          	addi	x0,x0,0
    501c:	00000013          	addi	x0,x0,0
    5020:	0001b097          	auipc	x1,0x1b
    5024:	1e4080e7          	jalr	x1,484(x1) # 20204 <rvmodel_io_write_str>
    5028:	00000013          	addi	x0,x0,0
    502c:	00000013          	addi	x0,x0,0
    5030:	00000013          	addi	x0,x0,0
    5034:	00000013          	addi	x0,x0,0
    5038:	00000013          	addi	x0,x0,0
    503c:	00000013          	addi	x0,x0,0
    5040:	0000b517          	auipc	x10,0xb
    5044:	11950513          	addi	x10,x10,281 # 10159 <trap_diag_expected_offset_str>
    5048:	00000013          	addi	x0,x0,0
    504c:	00000013          	addi	x0,x0,0
    5050:	00000013          	addi	x0,x0,0
    5054:	00000013          	addi	x0,x0,0
    5058:	00000013          	addi	x0,x0,0
    505c:	00000013          	addi	x0,x0,0
    5060:	0001b097          	auipc	x1,0x1b
    5064:	1a4080e7          	jalr	x1,420(x1) # 20204 <rvmodel_io_write_str>
    5068:	0000a517          	auipc	x10,0xa
    506c:	f4852503          	lw	x10,-184(x10) # efb0 <trap_diag_expected_offset>
    5070:	02000593          	addi	x11,x0,32
    5074:	605000ef          	jal	x1,5e78 <failedtest_hex_to_str>
    5078:	00000013          	addi	x0,x0,0
    507c:	00000013          	addi	x0,x0,0
    5080:	0000a517          	auipc	x10,0xa
    5084:	f6850513          	addi	x10,x10,-152 # efe8 <ascii_buffer>
    5088:	00000013          	addi	x0,x0,0
    508c:	00000013          	addi	x0,x0,0
    5090:	00000013          	addi	x0,x0,0
    5094:	00000013          	addi	x0,x0,0
    5098:	00000013          	addi	x0,x0,0
    509c:	00000013          	addi	x0,x0,0
    50a0:	0001b097          	auipc	x1,0x1b
    50a4:	164080e7          	jalr	x1,356(x1) # 20204 <rvmodel_io_write_str>
    50a8:	00000013          	addi	x0,x0,0
    50ac:	00000013          	addi	x0,x0,0
    50b0:	00000013          	addi	x0,x0,0
    50b4:	00000013          	addi	x0,x0,0
    50b8:	00000013          	addi	x0,x0,0
    50bc:	00000013          	addi	x0,x0,0
    50c0:	0000b517          	auipc	x10,0xb
    50c4:	0c050513          	addi	x10,x10,192 # 10180 <trap_diag_actual_offset_str>
    50c8:	00000013          	addi	x0,x0,0
    50cc:	00000013          	addi	x0,x0,0
    50d0:	00000013          	addi	x0,x0,0
    50d4:	00000013          	addi	x0,x0,0
    50d8:	00000013          	addi	x0,x0,0
    50dc:	00000013          	addi	x0,x0,0
    50e0:	0001b097          	auipc	x1,0x1b
    50e4:	124080e7          	jalr	x1,292(x1) # 20204 <rvmodel_io_write_str>
    50e8:	0000a517          	auipc	x10,0xa
    50ec:	ec052503          	lw	x10,-320(x10) # efa8 <trap_diag_actual_offset>
    50f0:	02000593          	addi	x11,x0,32
    50f4:	585000ef          	jal	x1,5e78 <failedtest_hex_to_str>
    50f8:	00000013          	addi	x0,x0,0
    50fc:	00000013          	addi	x0,x0,0
    5100:	0000a517          	auipc	x10,0xa
    5104:	ee850513          	addi	x10,x10,-280 # efe8 <ascii_buffer>
    5108:	00000013          	addi	x0,x0,0
    510c:	00000013          	addi	x0,x0,0
    5110:	00000013          	addi	x0,x0,0
    5114:	00000013          	addi	x0,x0,0
    5118:	00000013          	addi	x0,x0,0
    511c:	00000013          	addi	x0,x0,0
    5120:	0001b097          	auipc	x1,0x1b
    5124:	0e4080e7          	jalr	x1,228(x1) # 20204 <rvmodel_io_write_str>
    5128:	0000a317          	auipc	x6,0xa
    512c:	e8032303          	lw	x6,-384(x6) # efa8 <trap_diag_actual_offset>
    5130:	0000a397          	auipc	x7,0xa
    5134:	e803a383          	lw	x7,-384(x7) # efb0 <trap_diag_expected_offset>
    5138:	10734e63          	blt	x6,x7,5254 <trap_report_missing_traps>

0000513c <trap_report_extra_traps>:
    513c:	00000013          	addi	x0,x0,0
    5140:	0000b517          	auipc	x10,0xb
    5144:	06750513          	addi	x10,x10,103 # 101a7 <trap_diag_extra_traps_str>
    5148:	00000013          	addi	x0,x0,0
    514c:	00000013          	addi	x0,x0,0
    5150:	00000013          	addi	x0,x0,0
    5154:	00000013          	addi	x0,x0,0
    5158:	00000013          	addi	x0,x0,0
    515c:	00000013          	addi	x0,x0,0
    5160:	0001b097          	auipc	x1,0x1b
    5164:	0a4080e7          	jalr	x1,164(x1) # 20204 <rvmodel_io_write_str>
    5168:	0000a317          	auipc	x6,0xa
    516c:	e4032303          	lw	x6,-448(x6) # efa8 <trap_diag_actual_offset>
    5170:	0000a397          	auipc	x7,0xa
    5174:	e403a383          	lw	x7,-448(x7) # efb0 <trap_diag_expected_offset>
    5178:	40730333          	sub	x6,x6,x7
    517c:	00235313          	srli	x6,x6,0x2
    5180:	0000b517          	auipc	x10,0xb
    5184:	0ac50513          	addi	x10,x10,172 # 1022c <trap_diag_extra_bytes_str>
    5188:	00000013          	addi	x0,x0,0
    518c:	00000013          	addi	x0,x0,0
    5190:	00000013          	addi	x0,x0,0
    5194:	00000013          	addi	x0,x0,0
    5198:	00000013          	addi	x0,x0,0
    519c:	00000013          	addi	x0,x0,0
    51a0:	0001b097          	auipc	x1,0x1b
    51a4:	064080e7          	jalr	x1,100(x1) # 20204 <rvmodel_io_write_str>
    51a8:	0000a317          	auipc	x6,0xa
    51ac:	e0032303          	lw	x6,-512(x6) # efa8 <trap_diag_actual_offset>
    51b0:	0000a397          	auipc	x7,0xa
    51b4:	e003a383          	lw	x7,-512(x7) # efb0 <trap_diag_expected_offset>
    51b8:	40730533          	sub	x10,x6,x7
    51bc:	02000593          	addi	x11,x0,32
    51c0:	4b9000ef          	jal	x1,5e78 <failedtest_hex_to_str>
    51c4:	00000013          	addi	x0,x0,0
    51c8:	00000013          	addi	x0,x0,0
    51cc:	00000013          	addi	x0,x0,0
    51d0:	00000013          	addi	x0,x0,0
    51d4:	00000013          	addi	x0,x0,0
    51d8:	00000013          	addi	x0,x0,0
    51dc:	00000013          	addi	x0,x0,0
    51e0:	0000a517          	auipc	x10,0xa
    51e4:	e0850513          	addi	x10,x10,-504 # efe8 <ascii_buffer>
    51e8:	00000013          	addi	x0,x0,0
    51ec:	00000013          	addi	x0,x0,0
    51f0:	00000013          	addi	x0,x0,0
    51f4:	00000013          	addi	x0,x0,0
    51f8:	00000013          	addi	x0,x0,0
    51fc:	00000013          	addi	x0,x0,0
    5200:	0001b097          	auipc	x1,0x1b
    5204:	004080e7          	jalr	x1,4(x1) # 20204 <rvmodel_io_write_str>
    5208:	00000013          	addi	x0,x0,0
    520c:	00000013          	addi	x0,x0,0
    5210:	00000013          	addi	x0,x0,0
    5214:	00000013          	addi	x0,x0,0
    5218:	00000013          	addi	x0,x0,0
    521c:	00000013          	addi	x0,x0,0
    5220:	0000b517          	auipc	x10,0xb
    5224:	03750513          	addi	x10,x10,55 # 10257 <trap_diag_extra_hint_str>
    5228:	00000013          	addi	x0,x0,0
    522c:	00000013          	addi	x0,x0,0
    5230:	00000013          	addi	x0,x0,0
    5234:	00000013          	addi	x0,x0,0
    5238:	00000013          	addi	x0,x0,0
    523c:	00000013          	addi	x0,x0,0
    5240:	0001b097          	auipc	x1,0x1b
    5244:	fc4080e7          	jalr	x1,-60(x1) # 20204 <rvmodel_io_write_str>
    5248:	00001097          	auipc	x1,0x1
    524c:	a28080e7          	jalr	x1,-1496(x1) # 5c70 <failedtest_print_csr_context>
    5250:	1d50006f          	jal	x0,5c24 <failedtest_report_end>

00005254 <trap_report_missing_traps>:
    5254:	00000013          	addi	x0,x0,0
    5258:	00000013          	addi	x0,x0,0
    525c:	00000013          	addi	x0,x0,0
    5260:	0000b517          	auipc	x10,0xb
    5264:	f8150513          	addi	x10,x10,-127 # 101e1 <trap_diag_missing_traps_str>
    5268:	00000013          	addi	x0,x0,0
    526c:	00000013          	addi	x0,x0,0
    5270:	00000013          	addi	x0,x0,0
    5274:	00000013          	addi	x0,x0,0
    5278:	00000013          	addi	x0,x0,0
    527c:	00000013          	addi	x0,x0,0
    5280:	0001b097          	auipc	x1,0x1b
    5284:	f84080e7          	jalr	x1,-124(x1) # 20204 <rvmodel_io_write_str>
    5288:	00000013          	addi	x0,x0,0
    528c:	00000013          	addi	x0,x0,0
    5290:	00000013          	addi	x0,x0,0
    5294:	00000013          	addi	x0,x0,0
    5298:	00000013          	addi	x0,x0,0
    529c:	00000013          	addi	x0,x0,0
    52a0:	0000b517          	auipc	x10,0xb
    52a4:	f8c50513          	addi	x10,x10,-116 # 1022c <trap_diag_extra_bytes_str>
    52a8:	00000013          	addi	x0,x0,0
    52ac:	00000013          	addi	x0,x0,0
    52b0:	00000013          	addi	x0,x0,0
    52b4:	00000013          	addi	x0,x0,0
    52b8:	00000013          	addi	x0,x0,0
    52bc:	00000013          	addi	x0,x0,0
    52c0:	0001b097          	auipc	x1,0x1b
    52c4:	f44080e7          	jalr	x1,-188(x1) # 20204 <rvmodel_io_write_str>
    52c8:	0000a317          	auipc	x6,0xa
    52cc:	ce832303          	lw	x6,-792(x6) # efb0 <trap_diag_expected_offset>
    52d0:	0000a397          	auipc	x7,0xa
    52d4:	cd83a383          	lw	x7,-808(x7) # efa8 <trap_diag_actual_offset>
    52d8:	40730533          	sub	x10,x6,x7
    52dc:	02000593          	addi	x11,x0,32
    52e0:	399000ef          	jal	x1,5e78 <failedtest_hex_to_str>
    52e4:	00000013          	addi	x0,x0,0
    52e8:	00000013          	addi	x0,x0,0
    52ec:	00000013          	addi	x0,x0,0
    52f0:	00000013          	addi	x0,x0,0
    52f4:	00000013          	addi	x0,x0,0
    52f8:	00000013          	addi	x0,x0,0
    52fc:	00000013          	addi	x0,x0,0
    5300:	0000a517          	auipc	x10,0xa
    5304:	ce850513          	addi	x10,x10,-792 # efe8 <ascii_buffer>
    5308:	00000013          	addi	x0,x0,0
    530c:	00000013          	addi	x0,x0,0
    5310:	00000013          	addi	x0,x0,0
    5314:	00000013          	addi	x0,x0,0
    5318:	00000013          	addi	x0,x0,0
    531c:	00000013          	addi	x0,x0,0
    5320:	0001b097          	auipc	x1,0x1b
    5324:	ee4080e7          	jalr	x1,-284(x1) # 20204 <rvmodel_io_write_str>
    5328:	00000013          	addi	x0,x0,0
    532c:	00000013          	addi	x0,x0,0
    5330:	00000013          	addi	x0,x0,0
    5334:	00000013          	addi	x0,x0,0
    5338:	00000013          	addi	x0,x0,0
    533c:	00000013          	addi	x0,x0,0
    5340:	0000b517          	auipc	x10,0xb
    5344:	fff50513          	addi	x10,x10,-1 # 1033f <trap_diag_missing_hint_str>
    5348:	00000013          	addi	x0,x0,0
    534c:	00000013          	addi	x0,x0,0
    5350:	00000013          	addi	x0,x0,0
    5354:	00000013          	addi	x0,x0,0
    5358:	00000013          	addi	x0,x0,0
    535c:	00000013          	addi	x0,x0,0
    5360:	0001b097          	auipc	x1,0x1b
    5364:	ea4080e7          	jalr	x1,-348(x1) # 20204 <rvmodel_io_write_str>
    5368:	00001097          	auipc	x1,0x1
    536c:	908080e7          	jalr	x1,-1784(x1) # 5c70 <failedtest_print_csr_context>
    5370:	0b50006f          	jal	x0,5c24 <failedtest_report_end>

00005374 <trap_report_field_mismatch>:
    5374:	00000013          	addi	x0,x0,0
    5378:	00000013          	addi	x0,x0,0
    537c:	00000013          	addi	x0,x0,0
    5380:	0000b517          	auipc	x10,0xb
    5384:	0a650513          	addi	x10,x10,166 # 10426 <trap_diag_handler_mode_str>
    5388:	00000013          	addi	x0,x0,0
    538c:	00000013          	addi	x0,x0,0
    5390:	00000013          	addi	x0,x0,0
    5394:	00000013          	addi	x0,x0,0
    5398:	00000013          	addi	x0,x0,0
    539c:	00000013          	addi	x0,x0,0
    53a0:	0001b097          	auipc	x1,0x1b
    53a4:	e64080e7          	jalr	x1,-412(x1) # 20204 <rvmodel_io_write_str>
    53a8:	0000a517          	auipc	x10,0xa
    53ac:	bec52503          	lw	x10,-1044(x10) # ef94 <trap_diag_mode>
    53b0:	04050a63          	beq	x10,x0,5404 <trap_mode_m>
    53b4:	00100593          	addi	x11,x0,1
    53b8:	08b50663          	beq	x10,x11,5444 <trap_mode_s>
    53bc:	00200593          	addi	x11,x0,2
    53c0:	0cb50263          	beq	x10,x11,5484 <trap_mode_h>
    53c4:	00300593          	addi	x11,x0,3
    53c8:	0eb50e63          	beq	x10,x11,54c4 <trap_mode_v>
    53cc:	00000013          	addi	x0,x0,0
    53d0:	00000013          	addi	x0,x0,0
    53d4:	00000013          	addi	x0,x0,0
    53d8:	00000013          	addi	x0,x0,0
    53dc:	00000013          	addi	x0,x0,0
    53e0:	0000b517          	auipc	x10,0xb
    53e4:	08250513          	addi	x10,x10,130 # 10462 <trap_diag_mode_unknown_str>
    53e8:	00000013          	addi	x0,x0,0
    53ec:	00000013          	addi	x0,x0,0
    53f0:	00000013          	addi	x0,x0,0
    53f4:	00000013          	addi	x0,x0,0
    53f8:	00000013          	addi	x0,x0,0
    53fc:	00000013          	addi	x0,x0,0
    5400:	1000006f          	jal	x0,5500 <trap_mode_print>

00005404 <trap_mode_m>:
    5404:	00000013          	addi	x0,x0,0
    5408:	00000013          	addi	x0,x0,0
    540c:	00000013          	addi	x0,x0,0
    5410:	00000013          	addi	x0,x0,0
    5414:	00000013          	addi	x0,x0,0
    5418:	00000013          	addi	x0,x0,0
    541c:	00000013          	addi	x0,x0,0
    5420:	0000b517          	auipc	x10,0xb
    5424:	02050513          	addi	x10,x10,32 # 10440 <trap_diag_mode_m_str>
    5428:	00000013          	addi	x0,x0,0
    542c:	00000013          	addi	x0,x0,0
    5430:	00000013          	addi	x0,x0,0
    5434:	00000013          	addi	x0,x0,0
    5438:	00000013          	addi	x0,x0,0
    543c:	00000013          	addi	x0,x0,0
    5440:	0c00006f          	jal	x0,5500 <trap_mode_print>

00005444 <trap_mode_s>:
    5444:	00000013          	addi	x0,x0,0
    5448:	00000013          	addi	x0,x0,0
    544c:	00000013          	addi	x0,x0,0
    5450:	00000013          	addi	x0,x0,0
    5454:	00000013          	addi	x0,x0,0
    5458:	00000013          	addi	x0,x0,0
    545c:	00000013          	addi	x0,x0,0
    5460:	0000b517          	auipc	x10,0xb
    5464:	fe850513          	addi	x10,x10,-24 # 10448 <trap_diag_mode_s_str>
    5468:	00000013          	addi	x0,x0,0
    546c:	00000013          	addi	x0,x0,0
    5470:	00000013          	addi	x0,x0,0
    5474:	00000013          	addi	x0,x0,0
    5478:	00000013          	addi	x0,x0,0
    547c:	00000013          	addi	x0,x0,0
    5480:	0800006f          	jal	x0,5500 <trap_mode_print>

00005484 <trap_mode_h>:
    5484:	00000013          	addi	x0,x0,0
    5488:	00000013          	addi	x0,x0,0
    548c:	00000013          	addi	x0,x0,0
    5490:	00000013          	addi	x0,x0,0
    5494:	00000013          	addi	x0,x0,0
    5498:	00000013          	addi	x0,x0,0
    549c:	00000013          	addi	x0,x0,0
    54a0:	0000b517          	auipc	x10,0xb
    54a4:	fb050513          	addi	x10,x10,-80 # 10450 <trap_diag_mode_hs_str>
    54a8:	00000013          	addi	x0,x0,0
    54ac:	00000013          	addi	x0,x0,0
    54b0:	00000013          	addi	x0,x0,0
    54b4:	00000013          	addi	x0,x0,0
    54b8:	00000013          	addi	x0,x0,0
    54bc:	00000013          	addi	x0,x0,0
    54c0:	0400006f          	jal	x0,5500 <trap_mode_print>

000054c4 <trap_mode_v>:
    54c4:	00000013          	addi	x0,x0,0
    54c8:	00000013          	addi	x0,x0,0
    54cc:	00000013          	addi	x0,x0,0
    54d0:	00000013          	addi	x0,x0,0
    54d4:	00000013          	addi	x0,x0,0
    54d8:	00000013          	addi	x0,x0,0
    54dc:	00000013          	addi	x0,x0,0
    54e0:	0000b517          	auipc	x10,0xb
    54e4:	f7950513          	addi	x10,x10,-135 # 10459 <trap_diag_mode_vs_str>
    54e8:	00000013          	addi	x0,x0,0
    54ec:	00000013          	addi	x0,x0,0
    54f0:	00000013          	addi	x0,x0,0
    54f4:	00000013          	addi	x0,x0,0
    54f8:	00000013          	addi	x0,x0,0
    54fc:	00000013          	addi	x0,x0,0

00005500 <trap_mode_print>:
    5500:	0001b097          	auipc	x1,0x1b
    5504:	d04080e7          	jalr	x1,-764(x1) # 20204 <rvmodel_io_write_str>
    5508:	00000013          	addi	x0,x0,0
    550c:	00000013          	addi	x0,x0,0
    5510:	00000013          	addi	x0,x0,0
    5514:	00000013          	addi	x0,x0,0
    5518:	00000013          	addi	x0,x0,0
    551c:	00000013          	addi	x0,x0,0
    5520:	0000b517          	auipc	x10,0xb
    5524:	f4b50513          	addi	x10,x10,-181 # 1046b <trap_diag_field_str>
    5528:	00000013          	addi	x0,x0,0
    552c:	00000013          	addi	x0,x0,0
    5530:	00000013          	addi	x0,x0,0
    5534:	00000013          	addi	x0,x0,0
    5538:	00000013          	addi	x0,x0,0
    553c:	00000013          	addi	x0,x0,0
    5540:	0001b097          	auipc	x1,0x1b
    5544:	cc4080e7          	jalr	x1,-828(x1) # 20204 <rvmodel_io_write_str>
    5548:	0000a517          	auipc	x10,0xa
    554c:	a4852503          	lw	x10,-1464(x10) # ef90 <trap_diag_subtype>
    5550:	00100593          	addi	x11,x0,1
    5554:	06b50863          	beq	x10,x11,55c4 <trap_field_vect>
    5558:	00200593          	addi	x11,x0,2
    555c:	0ab50463          	beq	x10,x11,5604 <trap_field_cause>
    5560:	00300593          	addi	x11,x0,3
    5564:	0eb50063          	beq	x10,x11,5644 <trap_field_epc>
    5568:	00400593          	addi	x11,x0,4
    556c:	10b50c63          	beq	x10,x11,5684 <trap_field_tval>
    5570:	00500593          	addi	x11,x0,5
    5574:	14b50863          	beq	x10,x11,56c4 <trap_field_ip>
    5578:	00600593          	addi	x11,x0,6
    557c:	18b50463          	beq	x10,x11,5704 <trap_field_tval2>
    5580:	00700593          	addi	x11,x0,7
    5584:	1cb50063          	beq	x10,x11,5744 <trap_field_tinst>
    5588:	00800593          	addi	x11,x0,8
    558c:	1eb50c63          	beq	x10,x11,5784 <trap_field_intid>
    5590:	00000013          	addi	x0,x0,0
    5594:	00000013          	addi	x0,x0,0
    5598:	00000013          	addi	x0,x0,0
    559c:	00000013          	addi	x0,x0,0
    55a0:	0000b517          	auipc	x10,0xb
    55a4:	02250513          	addi	x10,x10,34 # 105c2 <trap_diag_field_unknown_str>
    55a8:	00000013          	addi	x0,x0,0
    55ac:	00000013          	addi	x0,x0,0
    55b0:	00000013          	addi	x0,x0,0
    55b4:	00000013          	addi	x0,x0,0
    55b8:	00000013          	addi	x0,x0,0
    55bc:	00000013          	addi	x0,x0,0
    55c0:	2000006f          	jal	x0,57c0 <trap_field_print>

000055c4 <trap_field_vect>:
    55c4:	00000013          	addi	x0,x0,0
    55c8:	00000013          	addi	x0,x0,0
    55cc:	00000013          	addi	x0,x0,0
    55d0:	00000013          	addi	x0,x0,0
    55d4:	00000013          	addi	x0,x0,0
    55d8:	00000013          	addi	x0,x0,0
    55dc:	00000013          	addi	x0,x0,0
    55e0:	0000b517          	auipc	x10,0xb
    55e4:	ea550513          	addi	x10,x10,-347 # 10485 <trap_diag_field_vect_str>
    55e8:	00000013          	addi	x0,x0,0
    55ec:	00000013          	addi	x0,x0,0
    55f0:	00000013          	addi	x0,x0,0
    55f4:	00000013          	addi	x0,x0,0
    55f8:	00000013          	addi	x0,x0,0
    55fc:	00000013          	addi	x0,x0,0
    5600:	1c00006f          	jal	x0,57c0 <trap_field_print>

00005604 <trap_field_cause>:
    5604:	00000013          	addi	x0,x0,0
    5608:	00000013          	addi	x0,x0,0
    560c:	00000013          	addi	x0,x0,0
    5610:	00000013          	addi	x0,x0,0
    5614:	00000013          	addi	x0,x0,0
    5618:	00000013          	addi	x0,x0,0
    561c:	00000013          	addi	x0,x0,0
    5620:	0000b517          	auipc	x10,0xb
    5624:	e9650513          	addi	x10,x10,-362 # 104b6 <trap_diag_field_cause_str>
    5628:	00000013          	addi	x0,x0,0
    562c:	00000013          	addi	x0,x0,0
    5630:	00000013          	addi	x0,x0,0
    5634:	00000013          	addi	x0,x0,0
    5638:	00000013          	addi	x0,x0,0
    563c:	00000013          	addi	x0,x0,0
    5640:	1800006f          	jal	x0,57c0 <trap_field_print>

00005644 <trap_field_epc>:
    5644:	00000013          	addi	x0,x0,0
    5648:	00000013          	addi	x0,x0,0
    564c:	00000013          	addi	x0,x0,0
    5650:	00000013          	addi	x0,x0,0
    5654:	00000013          	addi	x0,x0,0
    5658:	00000013          	addi	x0,x0,0
    565c:	00000013          	addi	x0,x0,0
    5660:	0000b517          	auipc	x10,0xb
    5664:	e7650513          	addi	x10,x10,-394 # 104d6 <trap_diag_field_epc_str>
    5668:	00000013          	addi	x0,x0,0
    566c:	00000013          	addi	x0,x0,0
    5670:	00000013          	addi	x0,x0,0
    5674:	00000013          	addi	x0,x0,0
    5678:	00000013          	addi	x0,x0,0
    567c:	00000013          	addi	x0,x0,0
    5680:	1400006f          	jal	x0,57c0 <trap_field_print>

00005684 <trap_field_tval>:
    5684:	00000013          	addi	x0,x0,0
    5688:	00000013          	addi	x0,x0,0
    568c:	00000013          	addi	x0,x0,0
    5690:	00000013          	addi	x0,x0,0
    5694:	00000013          	addi	x0,x0,0
    5698:	00000013          	addi	x0,x0,0
    569c:	00000013          	addi	x0,x0,0
    56a0:	0000b517          	auipc	x10,0xb
    56a4:	e5450513          	addi	x10,x10,-428 # 104f4 <trap_diag_field_tval_str>
    56a8:	00000013          	addi	x0,x0,0
    56ac:	00000013          	addi	x0,x0,0
    56b0:	00000013          	addi	x0,x0,0
    56b4:	00000013          	addi	x0,x0,0
    56b8:	00000013          	addi	x0,x0,0
    56bc:	00000013          	addi	x0,x0,0
    56c0:	1000006f          	jal	x0,57c0 <trap_field_print>

000056c4 <trap_field_ip>:
    56c4:	00000013          	addi	x0,x0,0
    56c8:	00000013          	addi	x0,x0,0
    56cc:	00000013          	addi	x0,x0,0
    56d0:	00000013          	addi	x0,x0,0
    56d4:	00000013          	addi	x0,x0,0
    56d8:	00000013          	addi	x0,x0,0
    56dc:	00000013          	addi	x0,x0,0
    56e0:	0000b517          	auipc	x10,0xb
    56e4:	e3350513          	addi	x10,x10,-461 # 10513 <trap_diag_field_ip_str>
    56e8:	00000013          	addi	x0,x0,0
    56ec:	00000013          	addi	x0,x0,0
    56f0:	00000013          	addi	x0,x0,0
    56f4:	00000013          	addi	x0,x0,0
    56f8:	00000013          	addi	x0,x0,0
    56fc:	00000013          	addi	x0,x0,0
    5700:	0c00006f          	jal	x0,57c0 <trap_field_print>

00005704 <trap_field_tval2>:
    5704:	00000013          	addi	x0,x0,0
    5708:	00000013          	addi	x0,x0,0
    570c:	00000013          	addi	x0,x0,0
    5710:	00000013          	addi	x0,x0,0
    5714:	00000013          	addi	x0,x0,0
    5718:	00000013          	addi	x0,x0,0
    571c:	00000013          	addi	x0,x0,0
    5720:	0000b517          	auipc	x10,0xb
    5724:	e1b50513          	addi	x10,x10,-485 # 1053b <trap_diag_field_tval2_str>
    5728:	00000013          	addi	x0,x0,0
    572c:	00000013          	addi	x0,x0,0
    5730:	00000013          	addi	x0,x0,0
    5734:	00000013          	addi	x0,x0,0
    5738:	00000013          	addi	x0,x0,0
    573c:	00000013          	addi	x0,x0,0
    5740:	0800006f          	jal	x0,57c0 <trap_field_print>

00005744 <trap_field_tinst>:
    5744:	00000013          	addi	x0,x0,0
    5748:	00000013          	addi	x0,x0,0
    574c:	00000013          	addi	x0,x0,0
    5750:	00000013          	addi	x0,x0,0
    5754:	00000013          	addi	x0,x0,0
    5758:	00000013          	addi	x0,x0,0
    575c:	00000013          	addi	x0,x0,0
    5760:	0000b517          	auipc	x10,0xb
    5764:	e0750513          	addi	x10,x10,-505 # 10567 <trap_diag_field_tinst_str>
    5768:	00000013          	addi	x0,x0,0
    576c:	00000013          	addi	x0,x0,0
    5770:	00000013          	addi	x0,x0,0
    5774:	00000013          	addi	x0,x0,0
    5778:	00000013          	addi	x0,x0,0
    577c:	00000013          	addi	x0,x0,0
    5780:	0400006f          	jal	x0,57c0 <trap_field_print>

00005784 <trap_field_intid>:
    5784:	00000013          	addi	x0,x0,0
    5788:	00000013          	addi	x0,x0,0
    578c:	00000013          	addi	x0,x0,0
    5790:	00000013          	addi	x0,x0,0
    5794:	00000013          	addi	x0,x0,0
    5798:	00000013          	addi	x0,x0,0
    579c:	00000013          	addi	x0,x0,0
    57a0:	0000b517          	auipc	x10,0xb
    57a4:	df350513          	addi	x10,x10,-525 # 10593 <trap_diag_field_intid_str>
    57a8:	00000013          	addi	x0,x0,0
    57ac:	00000013          	addi	x0,x0,0
    57b0:	00000013          	addi	x0,x0,0
    57b4:	00000013          	addi	x0,x0,0
    57b8:	00000013          	addi	x0,x0,0
    57bc:	00000013          	addi	x0,x0,0

000057c0 <trap_field_print>:
    57c0:	0001b097          	auipc	x1,0x1b
    57c4:	a44080e7          	jalr	x1,-1468(x1) # 20204 <rvmodel_io_write_str>
    57c8:	00000013          	addi	x0,x0,0
    57cc:	00000013          	addi	x0,x0,0
    57d0:	00000013          	addi	x0,x0,0
    57d4:	00000013          	addi	x0,x0,0
    57d8:	00000013          	addi	x0,x0,0
    57dc:	00000013          	addi	x0,x0,0
    57e0:	0000b517          	auipc	x10,0xb
    57e4:	df150513          	addi	x10,x10,-527 # 105d1 <trap_diag_expected_str>
    57e8:	00000013          	addi	x0,x0,0
    57ec:	00000013          	addi	x0,x0,0
    57f0:	00000013          	addi	x0,x0,0
    57f4:	00000013          	addi	x0,x0,0
    57f8:	00000013          	addi	x0,x0,0
    57fc:	00000013          	addi	x0,x0,0
    5800:	0001b097          	auipc	x1,0x1b
    5804:	a04080e7          	jalr	x1,-1532(x1) # 20204 <rvmodel_io_write_str>
    5808:	00009517          	auipc	x10,0x9
    580c:	79852503          	lw	x10,1944(x10) # efa0 <trap_diag_expected_value>
    5810:	02000593          	addi	x11,x0,32
    5814:	664000ef          	jal	x1,5e78 <failedtest_hex_to_str>
    5818:	00000013          	addi	x0,x0,0
    581c:	00000013          	addi	x0,x0,0
    5820:	00009517          	auipc	x10,0x9
    5824:	7c850513          	addi	x10,x10,1992 # efe8 <ascii_buffer>
    5828:	00000013          	addi	x0,x0,0
    582c:	00000013          	addi	x0,x0,0
    5830:	00000013          	addi	x0,x0,0
    5834:	00000013          	addi	x0,x0,0
    5838:	00000013          	addi	x0,x0,0
    583c:	00000013          	addi	x0,x0,0
    5840:	0001b097          	auipc	x1,0x1b
    5844:	9c4080e7          	jalr	x1,-1596(x1) # 20204 <rvmodel_io_write_str>
    5848:	00000013          	addi	x0,x0,0
    584c:	00000013          	addi	x0,x0,0
    5850:	00000013          	addi	x0,x0,0
    5854:	00000013          	addi	x0,x0,0
    5858:	00000013          	addi	x0,x0,0
    585c:	00000013          	addi	x0,x0,0
    5860:	0000b517          	auipc	x10,0xb
    5864:	d8850513          	addi	x10,x10,-632 # 105e8 <trap_diag_actual_str>
    5868:	00000013          	addi	x0,x0,0
    586c:	00000013          	addi	x0,x0,0
    5870:	00000013          	addi	x0,x0,0
    5874:	00000013          	addi	x0,x0,0
    5878:	00000013          	addi	x0,x0,0
    587c:	00000013          	addi	x0,x0,0
    5880:	0001b097          	auipc	x1,0x1b
    5884:	984080e7          	jalr	x1,-1660(x1) # 20204 <rvmodel_io_write_str>
    5888:	00009517          	auipc	x10,0x9
    588c:	71052503          	lw	x10,1808(x10) # ef98 <trap_diag_actual_value>
    5890:	02000593          	addi	x11,x0,32
    5894:	5e4000ef          	jal	x1,5e78 <failedtest_hex_to_str>
    5898:	00000013          	addi	x0,x0,0
    589c:	00000013          	addi	x0,x0,0
    58a0:	00009517          	auipc	x10,0x9
    58a4:	74850513          	addi	x10,x10,1864 # efe8 <ascii_buffer>
    58a8:	00000013          	addi	x0,x0,0
    58ac:	00000013          	addi	x0,x0,0
    58b0:	00000013          	addi	x0,x0,0
    58b4:	00000013          	addi	x0,x0,0
    58b8:	00000013          	addi	x0,x0,0
    58bc:	00000013          	addi	x0,x0,0
    58c0:	0001b097          	auipc	x1,0x1b
    58c4:	944080e7          	jalr	x1,-1724(x1) # 20204 <rvmodel_io_write_str>
    58c8:	00009517          	auipc	x10,0x9
    58cc:	6c852503          	lw	x10,1736(x10) # ef90 <trap_diag_subtype>
    58d0:	00200593          	addi	x11,x0,2
    58d4:	08b51463          	bne	x10,x11,595c <trap_field_not_cause>
    58d8:	00000013          	addi	x0,x0,0
    58dc:	00000013          	addi	x0,x0,0
    58e0:	0000b517          	auipc	x10,0xb
    58e4:	d1f50513          	addi	x10,x10,-737 # 105ff <trap_diag_expected_cause_name_str>
    58e8:	00000013          	addi	x0,x0,0
    58ec:	00000013          	addi	x0,x0,0
    58f0:	00000013          	addi	x0,x0,0
    58f4:	00000013          	addi	x0,x0,0
    58f8:	00000013          	addi	x0,x0,0
    58fc:	00000013          	addi	x0,x0,0
    5900:	0001b097          	auipc	x1,0x1b
    5904:	904080e7          	jalr	x1,-1788(x1) # 20204 <rvmodel_io_write_str>
    5908:	00009517          	auipc	x10,0x9
    590c:	69852503          	lw	x10,1688(x10) # efa0 <trap_diag_expected_value>
    5910:	284000ef          	jal	x1,5b94 <trap_cause_to_str>
    5914:	0001b097          	auipc	x1,0x1b
    5918:	8f0080e7          	jalr	x1,-1808(x1) # 20204 <rvmodel_io_write_str>
    591c:	00000013          	addi	x0,x0,0
    5920:	0000b517          	auipc	x10,0xb
    5924:	cf650513          	addi	x10,x10,-778 # 10616 <trap_diag_actual_cause_name_str>
    5928:	00000013          	addi	x0,x0,0
    592c:	00000013          	addi	x0,x0,0
    5930:	00000013          	addi	x0,x0,0
    5934:	00000013          	addi	x0,x0,0
    5938:	00000013          	addi	x0,x0,0
    593c:	00000013          	addi	x0,x0,0
    5940:	0001b097          	auipc	x1,0x1b
    5944:	8c4080e7          	jalr	x1,-1852(x1) # 20204 <rvmodel_io_write_str>
    5948:	00009517          	auipc	x10,0x9
    594c:	65052503          	lw	x10,1616(x10) # ef98 <trap_diag_actual_value>
    5950:	244000ef          	jal	x1,5b94 <trap_cause_to_str>
    5954:	0001b097          	auipc	x1,0x1b
    5958:	8b0080e7          	jalr	x1,-1872(x1) # 20204 <rvmodel_io_write_str>

0000595c <trap_field_not_cause>:
    595c:	00000097          	auipc	x1,0x0
    5960:	314080e7          	jalr	x1,788(x1) # 5c70 <failedtest_print_csr_context>
    5964:	00009517          	auipc	x10,0x9
    5968:	62c52503          	lw	x10,1580(x10) # ef90 <trap_diag_subtype>
    596c:	00100593          	addi	x11,x0,1
    5970:	02b51e63          	bne	x10,x11,59ac <trap_field_not_cause+0x50>
    5974:	00000013          	addi	x0,x0,0
    5978:	00000013          	addi	x0,x0,0
    597c:	00000013          	addi	x0,x0,0
    5980:	0000b517          	auipc	x10,0xb
    5984:	d0c50513          	addi	x10,x10,-756 # 1068c <trap_diag_hint_vect_str>
    5988:	00000013          	addi	x0,x0,0
    598c:	00000013          	addi	x0,x0,0
    5990:	00000013          	addi	x0,x0,0
    5994:	00000013          	addi	x0,x0,0
    5998:	00000013          	addi	x0,x0,0
    599c:	00000013          	addi	x0,x0,0
    59a0:	0001b097          	auipc	x1,0x1b
    59a4:	864080e7          	jalr	x1,-1948(x1) # 20204 <rvmodel_io_write_str>
    59a8:	27c0006f          	jal	x0,5c24 <failedtest_report_end>
    59ac:	00200593          	addi	x11,x0,2
    59b0:	02b51e63          	bne	x10,x11,59ec <trap_field_not_cause+0x90>
    59b4:	00000013          	addi	x0,x0,0
    59b8:	00000013          	addi	x0,x0,0
    59bc:	00000013          	addi	x0,x0,0
    59c0:	0000b517          	auipc	x10,0xb
    59c4:	da250513          	addi	x10,x10,-606 # 10762 <trap_diag_hint_cause_str>
    59c8:	00000013          	addi	x0,x0,0
    59cc:	00000013          	addi	x0,x0,0
    59d0:	00000013          	addi	x0,x0,0
    59d4:	00000013          	addi	x0,x0,0
    59d8:	00000013          	addi	x0,x0,0
    59dc:	00000013          	addi	x0,x0,0
    59e0:	0001b097          	auipc	x1,0x1b
    59e4:	824080e7          	jalr	x1,-2012(x1) # 20204 <rvmodel_io_write_str>
    59e8:	23c0006f          	jal	x0,5c24 <failedtest_report_end>
    59ec:	00300593          	addi	x11,x0,3
    59f0:	02b51e63          	bne	x10,x11,5a2c <trap_field_not_cause+0xd0>
    59f4:	00000013          	addi	x0,x0,0
    59f8:	00000013          	addi	x0,x0,0
    59fc:	00000013          	addi	x0,x0,0
    5a00:	0000b517          	auipc	x10,0xb
    5a04:	e5550513          	addi	x10,x10,-427 # 10855 <trap_diag_hint_epc_str>
    5a08:	00000013          	addi	x0,x0,0
    5a0c:	00000013          	addi	x0,x0,0
    5a10:	00000013          	addi	x0,x0,0
    5a14:	00000013          	addi	x0,x0,0
    5a18:	00000013          	addi	x0,x0,0
    5a1c:	00000013          	addi	x0,x0,0
    5a20:	0001a097          	auipc	x1,0x1a
    5a24:	7e4080e7          	jalr	x1,2020(x1) # 20204 <rvmodel_io_write_str>
    5a28:	1fc0006f          	jal	x0,5c24 <failedtest_report_end>
    5a2c:	00400593          	addi	x11,x0,4
    5a30:	02b51e63          	bne	x10,x11,5a6c <trap_field_not_cause+0x110>
    5a34:	00000013          	addi	x0,x0,0
    5a38:	00000013          	addi	x0,x0,0
    5a3c:	00000013          	addi	x0,x0,0
    5a40:	0000b517          	auipc	x10,0xb
    5a44:	f1050513          	addi	x10,x10,-240 # 10950 <trap_diag_hint_tval_str>
    5a48:	00000013          	addi	x0,x0,0
    5a4c:	00000013          	addi	x0,x0,0
    5a50:	00000013          	addi	x0,x0,0
    5a54:	00000013          	addi	x0,x0,0
    5a58:	00000013          	addi	x0,x0,0
    5a5c:	00000013          	addi	x0,x0,0
    5a60:	0001a097          	auipc	x1,0x1a
    5a64:	7a4080e7          	jalr	x1,1956(x1) # 20204 <rvmodel_io_write_str>
    5a68:	1bc0006f          	jal	x0,5c24 <failedtest_report_end>
    5a6c:	00500593          	addi	x11,x0,5
    5a70:	02b51e63          	bne	x10,x11,5aac <trap_field_not_cause+0x150>
    5a74:	00000013          	addi	x0,x0,0
    5a78:	00000013          	addi	x0,x0,0
    5a7c:	00000013          	addi	x0,x0,0
    5a80:	0000b517          	auipc	x10,0xb
    5a84:	fb750513          	addi	x10,x10,-73 # 10a37 <trap_diag_hint_ip_str>
    5a88:	00000013          	addi	x0,x0,0
    5a8c:	00000013          	addi	x0,x0,0
    5a90:	00000013          	addi	x0,x0,0
    5a94:	00000013          	addi	x0,x0,0
    5a98:	00000013          	addi	x0,x0,0
    5a9c:	00000013          	addi	x0,x0,0
    5aa0:	0001a097          	auipc	x1,0x1a
    5aa4:	764080e7          	jalr	x1,1892(x1) # 20204 <rvmodel_io_write_str>
    5aa8:	17c0006f          	jal	x0,5c24 <failedtest_report_end>
    5aac:	1780006f          	jal	x0,5c24 <failedtest_report_end>

00005ab0 <trap_report_generic>:
    5ab0:	00000013          	addi	x0,x0,0
    5ab4:	00000013          	addi	x0,x0,0
    5ab8:	00000013          	addi	x0,x0,0
    5abc:	00000013          	addi	x0,x0,0
    5ac0:	0000b517          	auipc	x10,0xb
    5ac4:	b8450513          	addi	x10,x10,-1148 # 10644 <trap_diag_generic_str>
    5ac8:	00000013          	addi	x0,x0,0
    5acc:	00000013          	addi	x0,x0,0
    5ad0:	00000013          	addi	x0,x0,0
    5ad4:	00000013          	addi	x0,x0,0
    5ad8:	00000013          	addi	x0,x0,0
    5adc:	00000013          	addi	x0,x0,0
    5ae0:	0001a097          	auipc	x1,0x1a
    5ae4:	724080e7          	jalr	x1,1828(x1) # 20204 <rvmodel_io_write_str>
    5ae8:	00009617          	auipc	x12,0x9
    5aec:	4e062603          	lw	x12,1248(x12) # efc8 <saved_mepc>
    5af0:	00000013          	addi	x0,x0,0
    5af4:	00000013          	addi	x0,x0,0
    5af8:	00000013          	addi	x0,x0,0
    5afc:	00000013          	addi	x0,x0,0
    5b00:	0000a517          	auipc	x10,0xa
    5b04:	b2750513          	addi	x10,x10,-1241 # f627 <xepcinstrstr>
    5b08:	00000013          	addi	x0,x0,0
    5b0c:	00000013          	addi	x0,x0,0
    5b10:	00000013          	addi	x0,x0,0
    5b14:	00000013          	addi	x0,x0,0
    5b18:	00000013          	addi	x0,x0,0
    5b1c:	00000013          	addi	x0,x0,0
    5b20:	0001a097          	auipc	x1,0x1a
    5b24:	6e4080e7          	jalr	x1,1764(x1) # 20204 <rvmodel_io_write_str>
    5b28:	00065503          	lhu	x10,0(x12)
    5b2c:	01000593          	addi	x11,x0,16
    5b30:	00357413          	andi	x8,x10,3
    5b34:	00300493          	addi	x9,x0,3
    5b38:	00941a63          	bne	x8,x9,5b4c <trap_report_generic+0x9c>
    5b3c:	00265403          	lhu	x8,2(x12)
    5b40:	01041413          	slli	x8,x8,0x10
    5b44:	00856533          	or	x10,x10,x8
    5b48:	02000593          	addi	x11,x0,32
    5b4c:	32c000ef          	jal	x1,5e78 <failedtest_hex_to_str>
    5b50:	00000013          	addi	x0,x0,0
    5b54:	00000013          	addi	x0,x0,0
    5b58:	00000013          	addi	x0,x0,0
    5b5c:	00000013          	addi	x0,x0,0
    5b60:	00009517          	auipc	x10,0x9
    5b64:	48850513          	addi	x10,x10,1160 # efe8 <ascii_buffer>
    5b68:	00000013          	addi	x0,x0,0
    5b6c:	00000013          	addi	x0,x0,0
    5b70:	00000013          	addi	x0,x0,0
    5b74:	00000013          	addi	x0,x0,0
    5b78:	00000013          	addi	x0,x0,0
    5b7c:	00000013          	addi	x0,x0,0
    5b80:	0001a097          	auipc	x1,0x1a
    5b84:	684080e7          	jalr	x1,1668(x1) # 20204 <rvmodel_io_write_str>
    5b88:	00000097          	auipc	x1,0x0
    5b8c:	0e8080e7          	jalr	x1,232(x1) # 5c70 <failedtest_print_csr_context>
    5b90:	0940006f          	jal	x0,5c24 <failedtest_report_end>

00005b94 <trap_cause_to_str>:
    5b94:	02054263          	blt	x10,x0,5bb8 <trap_cause_interrupt>

00005b98 <trap_cause_exception>:
    5b98:	01800593          	addi	x11,x0,24
    5b9c:	04b55463          	bge	x10,x11,5be4 <trap_cause_unknown>
    5ba0:	00009597          	auipc	x11,0x9
    5ba4:	47058593          	addi	x11,x11,1136 # f010 <end_failure_scratch>
    5ba8:	00251613          	slli	x12,x10,0x2
    5bac:	00c585b3          	add	x11,x11,x12
    5bb0:	0005a503          	lw	x10,0(x11)
    5bb4:	00008067          	jalr	x0,0(x1)

00005bb8 <trap_cause_interrupt>:
    5bb8:	00100593          	addi	x11,x0,1
    5bbc:	01f59593          	slli	x11,x11,0x1f
    5bc0:	00b54533          	xor	x10,x10,x11
    5bc4:	01000593          	addi	x11,x0,16
    5bc8:	00b55e63          	bge	x10,x11,5be4 <trap_cause_unknown>
    5bcc:	00009597          	auipc	x11,0x9
    5bd0:	4a458593          	addi	x11,x11,1188 # f070 <trap_int_name_tbl>
    5bd4:	00251613          	slli	x12,x10,0x2
    5bd8:	00c585b3          	add	x11,x11,x12
    5bdc:	0005a503          	lw	x10,0(x11)
    5be0:	00008067          	jalr	x0,0(x1)

00005be4 <trap_cause_unknown>:
    5be4:	00000013          	addi	x0,x0,0
    5be8:	00000013          	addi	x0,x0,0
    5bec:	00000013          	addi	x0,x0,0
    5bf0:	00000013          	addi	x0,x0,0
    5bf4:	00000013          	addi	x0,x0,0
    5bf8:	00000013          	addi	x0,x0,0
    5bfc:	00000013          	addi	x0,x0,0
    5c00:	0000a517          	auipc	x10,0xa
    5c04:	8ae50513          	addi	x10,x10,-1874 # f4ae <trap_cause_unknown_str>
    5c08:	00000013          	addi	x0,x0,0
    5c0c:	00000013          	addi	x0,x0,0
    5c10:	00000013          	addi	x0,x0,0
    5c14:	00000013          	addi	x0,x0,0
    5c18:	00000013          	addi	x0,x0,0
    5c1c:	00000013          	addi	x0,x0,0
    5c20:	00008067          	jalr	x0,0(x1)

00005c24 <failedtest_report_end>:
    5c24:	00000013          	addi	x0,x0,0
    5c28:	00000013          	addi	x0,x0,0
    5c2c:	00000013          	addi	x0,x0,0
    5c30:	00000013          	addi	x0,x0,0
    5c34:	00000013          	addi	x0,x0,0
    5c38:	00000013          	addi	x0,x0,0
    5c3c:	00000013          	addi	x0,x0,0
    5c40:	0000a517          	auipc	x10,0xa
    5c44:	42f50513          	addi	x10,x10,1071 # 1006f <endstr>
    5c48:	00000013          	addi	x0,x0,0
    5c4c:	00000013          	addi	x0,x0,0
    5c50:	00000013          	addi	x0,x0,0
    5c54:	00000013          	addi	x0,x0,0
    5c58:	00000013          	addi	x0,x0,0
    5c5c:	00000013          	addi	x0,x0,0
    5c60:	0001a097          	auipc	x1,0x1a
    5c64:	5a4080e7          	jalr	x1,1444(x1) # 20204 <rvmodel_io_write_str>

00005c68 <failedtest_terminate>:
    5c68:	0001a097          	auipc	x1,0x1a
    5c6c:	5ac080e7          	jalr	x1,1452(x1) # 20214 <rvmodel_halt_fail>

00005c70 <failedtest_print_csr_context>:
    5c70:	00009617          	auipc	x12,0x9
    5c74:	35060613          	addi	x12,x12,848 # efc0 <csr_context_ret_addr>
    5c78:	00162023          	sw	x1,0(x12)
    5c7c:	00000013          	addi	x0,x0,0
    5c80:	0000a517          	auipc	x10,0xa
    5c84:	9c850513          	addi	x10,x10,-1592 # f648 <mepcstr>
    5c88:	00000013          	addi	x0,x0,0
    5c8c:	00000013          	addi	x0,x0,0
    5c90:	00000013          	addi	x0,x0,0
    5c94:	00000013          	addi	x0,x0,0
    5c98:	00000013          	addi	x0,x0,0
    5c9c:	00000013          	addi	x0,x0,0
    5ca0:	0001a097          	auipc	x1,0x1a
    5ca4:	564080e7          	jalr	x1,1380(x1) # 20204 <rvmodel_io_write_str>
    5ca8:	00009517          	auipc	x10,0x9
    5cac:	32052503          	lw	x10,800(x10) # efc8 <saved_mepc>
    5cb0:	02000593          	addi	x11,x0,32
    5cb4:	1c4000ef          	jal	x1,5e78 <failedtest_hex_to_str>
    5cb8:	00000013          	addi	x0,x0,0
    5cbc:	00000013          	addi	x0,x0,0
    5cc0:	00009517          	auipc	x10,0x9
    5cc4:	32850513          	addi	x10,x10,808 # efe8 <ascii_buffer>
    5cc8:	00000013          	addi	x0,x0,0
    5ccc:	00000013          	addi	x0,x0,0
    5cd0:	00000013          	addi	x0,x0,0
    5cd4:	00000013          	addi	x0,x0,0
    5cd8:	00000013          	addi	x0,x0,0
    5cdc:	00000013          	addi	x0,x0,0
    5ce0:	0001a097          	auipc	x1,0x1a
    5ce4:	524080e7          	jalr	x1,1316(x1) # 20204 <rvmodel_io_write_str>
    5ce8:	00000013          	addi	x0,x0,0
    5cec:	00000013          	addi	x0,x0,0
    5cf0:	00000013          	addi	x0,x0,0
    5cf4:	00000013          	addi	x0,x0,0
    5cf8:	00000013          	addi	x0,x0,0
    5cfc:	00000013          	addi	x0,x0,0
    5d00:	0000a517          	auipc	x10,0xa
    5d04:	95850513          	addi	x10,x10,-1704 # f658 <mcausestr>
    5d08:	00000013          	addi	x0,x0,0
    5d0c:	00000013          	addi	x0,x0,0
    5d10:	00000013          	addi	x0,x0,0
    5d14:	00000013          	addi	x0,x0,0
    5d18:	00000013          	addi	x0,x0,0
    5d1c:	00000013          	addi	x0,x0,0
    5d20:	0001a097          	auipc	x1,0x1a
    5d24:	4e4080e7          	jalr	x1,1252(x1) # 20204 <rvmodel_io_write_str>
    5d28:	00009517          	auipc	x10,0x9
    5d2c:	2a852503          	lw	x10,680(x10) # efd0 <saved_mcause>
    5d30:	02000593          	addi	x11,x0,32
    5d34:	144000ef          	jal	x1,5e78 <failedtest_hex_to_str>
    5d38:	00000013          	addi	x0,x0,0
    5d3c:	00000013          	addi	x0,x0,0
    5d40:	00009517          	auipc	x10,0x9
    5d44:	2a850513          	addi	x10,x10,680 # efe8 <ascii_buffer>
    5d48:	00000013          	addi	x0,x0,0
    5d4c:	00000013          	addi	x0,x0,0
    5d50:	00000013          	addi	x0,x0,0
    5d54:	00000013          	addi	x0,x0,0
    5d58:	00000013          	addi	x0,x0,0
    5d5c:	00000013          	addi	x0,x0,0
    5d60:	0001a097          	auipc	x1,0x1a
    5d64:	4a4080e7          	jalr	x1,1188(x1) # 20204 <rvmodel_io_write_str>
    5d68:	00000013          	addi	x0,x0,0
    5d6c:	00000013          	addi	x0,x0,0
    5d70:	00000013          	addi	x0,x0,0
    5d74:	00000013          	addi	x0,x0,0
    5d78:	00000013          	addi	x0,x0,0
    5d7c:	00000013          	addi	x0,x0,0
    5d80:	0000a517          	auipc	x10,0xa
    5d84:	8e850513          	addi	x10,x10,-1816 # f668 <mtvalstr>
    5d88:	00000013          	addi	x0,x0,0
    5d8c:	00000013          	addi	x0,x0,0
    5d90:	00000013          	addi	x0,x0,0
    5d94:	00000013          	addi	x0,x0,0
    5d98:	00000013          	addi	x0,x0,0
    5d9c:	00000013          	addi	x0,x0,0
    5da0:	0001a097          	auipc	x1,0x1a
    5da4:	464080e7          	jalr	x1,1124(x1) # 20204 <rvmodel_io_write_str>
    5da8:	00009517          	auipc	x10,0x9
    5dac:	23052503          	lw	x10,560(x10) # efd8 <saved_mtval>
    5db0:	02000593          	addi	x11,x0,32
    5db4:	0c4000ef          	jal	x1,5e78 <failedtest_hex_to_str>
    5db8:	00000013          	addi	x0,x0,0
    5dbc:	00000013          	addi	x0,x0,0
    5dc0:	00009517          	auipc	x10,0x9
    5dc4:	22850513          	addi	x10,x10,552 # efe8 <ascii_buffer>
    5dc8:	00000013          	addi	x0,x0,0
    5dcc:	00000013          	addi	x0,x0,0
    5dd0:	00000013          	addi	x0,x0,0
    5dd4:	00000013          	addi	x0,x0,0
    5dd8:	00000013          	addi	x0,x0,0
    5ddc:	00000013          	addi	x0,x0,0
    5de0:	0001a097          	auipc	x1,0x1a
    5de4:	424080e7          	jalr	x1,1060(x1) # 20204 <rvmodel_io_write_str>
    5de8:	00000013          	addi	x0,x0,0
    5dec:	00000013          	addi	x0,x0,0
    5df0:	00000013          	addi	x0,x0,0
    5df4:	00000013          	addi	x0,x0,0
    5df8:	00000013          	addi	x0,x0,0
    5dfc:	00000013          	addi	x0,x0,0
    5e00:	0000a517          	auipc	x10,0xa
    5e04:	87850513          	addi	x10,x10,-1928 # f678 <mstatusstr>
    5e08:	00000013          	addi	x0,x0,0
    5e0c:	00000013          	addi	x0,x0,0
    5e10:	00000013          	addi	x0,x0,0
    5e14:	00000013          	addi	x0,x0,0
    5e18:	00000013          	addi	x0,x0,0
    5e1c:	00000013          	addi	x0,x0,0
    5e20:	0001a097          	auipc	x1,0x1a
    5e24:	3e4080e7          	jalr	x1,996(x1) # 20204 <rvmodel_io_write_str>
    5e28:	00009517          	auipc	x10,0x9
    5e2c:	1b852503          	lw	x10,440(x10) # efe0 <saved_mstatus>
    5e30:	02000593          	addi	x11,x0,32
    5e34:	044000ef          	jal	x1,5e78 <failedtest_hex_to_str>
    5e38:	00000013          	addi	x0,x0,0
    5e3c:	00000013          	addi	x0,x0,0
    5e40:	00009517          	auipc	x10,0x9
    5e44:	1a850513          	addi	x10,x10,424 # efe8 <ascii_buffer>
    5e48:	00000013          	addi	x0,x0,0
    5e4c:	00000013          	addi	x0,x0,0
    5e50:	00000013          	addi	x0,x0,0
    5e54:	00000013          	addi	x0,x0,0
    5e58:	00000013          	addi	x0,x0,0
    5e5c:	00000013          	addi	x0,x0,0
    5e60:	0001a097          	auipc	x1,0x1a
    5e64:	3a4080e7          	jalr	x1,932(x1) # 20204 <rvmodel_io_write_str>
    5e68:	00009617          	auipc	x12,0x9
    5e6c:	15860613          	addi	x12,x12,344 # efc0 <csr_context_ret_addr>
    5e70:	00062083          	lw	x1,0(x12)
    5e74:	00008067          	jalr	x0,0(x1)

00005e78 <failedtest_hex_to_str>:
    5e78:	00000013          	addi	x0,x0,0
    5e7c:	00000013          	addi	x0,x0,0
    5e80:	00009617          	auipc	x12,0x9
    5e84:	16860613          	addi	x12,x12,360 # efe8 <ascii_buffer>
    5e88:	00000013          	addi	x0,x0,0
    5e8c:	00000013          	addi	x0,x0,0
    5e90:	00000013          	addi	x0,x0,0
    5e94:	00000013          	addi	x0,x0,0
    5e98:	00000013          	addi	x0,x0,0
    5e9c:	00000013          	addi	x0,x0,0
    5ea0:	03000693          	addi	x13,x0,48
    5ea4:	00d60023          	sb	x13,0(x12)
    5ea8:	07800693          	addi	x13,x0,120
    5eac:	00d600a3          	sb	x13,1(x12)
    5eb0:	00260613          	addi	x12,x12,2
    5eb4:	00058693          	addi	x13,x11,0

00005eb8 <failedtest_hex_to_str_loop>:
    5eb8:	ffc68693          	addi	x13,x13,-4
    5ebc:	00d55733          	srl	x14,x10,x13
    5ec0:	00f77713          	andi	x14,x14,15
    5ec4:	00a00793          	addi	x15,x0,10
    5ec8:	00f74663          	blt	x14,x15,5ed4 <failedtest_hex_to_str_digit>
    5ecc:	05770713          	addi	x14,x14,87
    5ed0:	0080006f          	jal	x0,5ed8 <failedtest_hex_to_str_write>

00005ed4 <failedtest_hex_to_str_digit>:
    5ed4:	03070713          	addi	x14,x14,48

00005ed8 <failedtest_hex_to_str_write>:
    5ed8:	00e60023          	sb	x14,0(x12)
    5edc:	00160613          	addi	x12,x12,1
    5ee0:	fc069ce3          	bne	x13,x0,5eb8 <failedtest_hex_to_str_loop>
    5ee4:	00a00693          	addi	x13,x0,10
    5ee8:	00d60023          	sb	x13,0(x12)
    5eec:	000600a3          	sb	x0,1(x12)
    5ef0:	00008067          	jalr	x0,0(x1)

00005ef4 <failedtest_dec_to_str>:
    5ef4:	00a00693          	addi	x13,x0,10
    5ef8:	02d54663          	blt	x10,x13,5f24 <failedtest_dec_to_str+0x30>
    5efc:	ff650513          	addi	x10,x10,-10
    5f00:	03100713          	addi	x14,x0,49
    5f04:	00d54c63          	blt	x10,x13,5f1c <failedtest_dec_to_str+0x28>
    5f08:	ff650513          	addi	x10,x10,-10
    5f0c:	03200713          	addi	x14,x0,50
    5f10:	00d54663          	blt	x10,x13,5f1c <failedtest_dec_to_str+0x28>
    5f14:	ff650513          	addi	x10,x10,-10
    5f18:	03300713          	addi	x14,x0,51
    5f1c:	00e60023          	sb	x14,0(x12)
    5f20:	00160613          	addi	x12,x12,1
    5f24:	03050513          	addi	x10,x10,48
    5f28:	00a60023          	sb	x10,0(x12)
    5f2c:	00a00693          	addi	x13,x0,10
    5f30:	00d600a3          	sb	x13,1(x12)
    5f34:	00060123          	sb	x0,2(x12)
    5f38:	00008067          	jalr	x0,0(x1)
    5f3c:	00000013          	addi	x0,x0,0

Disassembly of section .text.rvmodel:

00020000 <rvmodel_boot>:
   20000:	feedc0b7          	lui	x1,0xfeedc
   20004:	ead08093          	addi	x1,x1,-339 # feedbead <absimm+0x8f911ba4>
   20008:	01909793          	slli	x15,x1,0x19
   2000c:	0070d113          	srli	x2,x1,0x7
   20010:	00f16133          	or	x2,x2,x15
   20014:	01911793          	slli	x15,x2,0x19
   20018:	00715193          	srli	x3,x2,0x7
   2001c:	00f1e1b3          	or	x3,x3,x15
   20020:	01919793          	slli	x15,x3,0x19
   20024:	0071d213          	srli	x4,x3,0x7
   20028:	00f26233          	or	x4,x4,x15
   2002c:	01921793          	slli	x15,x4,0x19
   20030:	00725293          	srli	x5,x4,0x7
   20034:	00f2e2b3          	or	x5,x5,x15
   20038:	01929793          	slli	x15,x5,0x19
   2003c:	0072d313          	srli	x6,x5,0x7
   20040:	00f36333          	or	x6,x6,x15
   20044:	01931793          	slli	x15,x6,0x19
   20048:	00735393          	srli	x7,x6,0x7
   2004c:	00f3e3b3          	or	x7,x7,x15
   20050:	01939793          	slli	x15,x7,0x19
   20054:	0073d413          	srli	x8,x7,0x7
   20058:	00f46433          	or	x8,x8,x15
   2005c:	01941793          	slli	x15,x8,0x19
   20060:	00745493          	srli	x9,x8,0x7
   20064:	00f4e4b3          	or	x9,x9,x15
   20068:	01949793          	slli	x15,x9,0x19
   2006c:	0074d513          	srli	x10,x9,0x7
   20070:	00f56533          	or	x10,x10,x15
   20074:	01951793          	slli	x15,x10,0x19
   20078:	00755593          	srli	x11,x10,0x7
   2007c:	00f5e5b3          	or	x11,x11,x15
   20080:	01959793          	slli	x15,x11,0x19
   20084:	0075d613          	srli	x12,x11,0x7
   20088:	00f66633          	or	x12,x12,x15
   2008c:	01961793          	slli	x15,x12,0x19
   20090:	00765693          	srli	x13,x12,0x7
   20094:	00f6e6b3          	or	x13,x13,x15
   20098:	01969793          	slli	x15,x13,0x19
   2009c:	0076d713          	srli	x14,x13,0x7
   200a0:	00f76733          	or	x14,x14,x15
   200a4:	fab807b7          	lui	x15,0xfab80
   200a8:	bb678793          	addi	x15,x15,-1098 # fab7fbb6 <absimm+0x8b5b58ad>
   200ac:	7d5c0837          	lui	x16,0x7d5c0
   200b0:	ddb80813          	addi	x16,x16,-549 # 7d5bfddb <absimm+0xdff5ad2>
   200b4:	01981793          	slli	x15,x16,0x19
   200b8:	00785893          	srli	x17,x16,0x7
   200bc:	00f8e8b3          	or	x17,x17,x15
   200c0:	01989793          	slli	x15,x17,0x19
   200c4:	0078d913          	srli	x18,x17,0x7
   200c8:	00f96933          	or	x18,x18,x15
   200cc:	01991793          	slli	x15,x18,0x19
   200d0:	00795993          	srli	x19,x18,0x7
   200d4:	00f9e9b3          	or	x19,x19,x15
   200d8:	01999793          	slli	x15,x19,0x19
   200dc:	0079da13          	srli	x20,x19,0x7
   200e0:	00fa6a33          	or	x20,x20,x15
   200e4:	019a1793          	slli	x15,x20,0x19
   200e8:	007a5a93          	srli	x21,x20,0x7
   200ec:	00faeab3          	or	x21,x21,x15
   200f0:	019a9793          	slli	x15,x21,0x19
   200f4:	007adb13          	srli	x22,x21,0x7
   200f8:	00fb6b33          	or	x22,x22,x15
   200fc:	019b1793          	slli	x15,x22,0x19
   20100:	007b5b93          	srli	x23,x22,0x7
   20104:	00fbebb3          	or	x23,x23,x15
   20108:	019b9793          	slli	x15,x23,0x19
   2010c:	007bdc13          	srli	x24,x23,0x7
   20110:	00fc6c33          	or	x24,x24,x15
   20114:	019c1793          	slli	x15,x24,0x19
   20118:	007c5c93          	srli	x25,x24,0x7
   2011c:	00fcecb3          	or	x25,x25,x15
   20120:	019c9793          	slli	x15,x25,0x19
   20124:	007cdd13          	srli	x26,x25,0x7
   20128:	00fd6d33          	or	x26,x26,x15
   2012c:	019d1793          	slli	x15,x26,0x19
   20130:	007d5d93          	srli	x27,x26,0x7
   20134:	00fdedb3          	or	x27,x27,x15
   20138:	019d9793          	slli	x15,x27,0x19
   2013c:	007dde13          	srli	x28,x27,0x7
   20140:	00fe6e33          	or	x28,x28,x15
   20144:	019e1793          	slli	x15,x28,0x19
   20148:	007e5e93          	srli	x29,x28,0x7
   2014c:	00feeeb3          	or	x29,x29,x15
   20150:	019e9793          	slli	x15,x29,0x19
   20154:	007edf13          	srli	x30,x29,0x7
   20158:	00ff6f33          	or	x30,x30,x15
   2015c:	019f1793          	slli	x15,x30,0x19
   20160:	007f5f93          	srli	x31,x30,0x7
   20164:	00ffefb3          	or	x31,x31,x15
   20168:	00000013          	addi	x0,x0,0
   2016c:	00000013          	addi	x0,x0,0
   20170:	00000013          	addi	x0,x0,0
   20174:	00000013          	addi	x0,x0,0
   20178:	00000013          	addi	x0,x0,0
   2017c:	00000013          	addi	x0,x0,0
   20180:	ffff1117          	auipc	x2,0xffff1
   20184:	9a010113          	addi	x2,x2,-1632 # 10b20 <begin_signature>
   20188:	00000013          	addi	x0,x0,0
   2018c:	00000013          	addi	x0,x0,0
   20190:	00000013          	addi	x0,x0,0
   20194:	00000013          	addi	x0,x0,0
   20198:	00000013          	addi	x0,x0,0
   2019c:	00000013          	addi	x0,x0,0

000201a0 <canary_check>:
   201a0:	6f5ca337          	lui	x6,0x6f5ca
   201a4:	30930313          	addi	x6,x6,777 # 6f5ca309 <absimm>
   201a8:	00012203          	lw	x4,0(x2)
   201ac:	00620863          	beq	x4,x6,201bc <canary_check+0x1c>
   201b0:	b0ce42ef          	jal	x5,44bc <failedtest_x5_x4>
   201b4:	000201a0          	.word	0x000201a0
   201b8:	00010098          	.word	0x00010098
   201bc:	00410113          	addi	x2,x2,4
   201c0:	fffe8197          	auipc	x3,0xfffe8
   201c4:	f5018193          	addi	x3,x3,-176 # 8110 <rvtest_data_begin>
   201c8:	00000013          	addi	x0,x0,0
   201cc:	00000013          	addi	x0,x0,0
   201d0:	00000013          	addi	x0,x0,0
   201d4:	00000013          	addi	x0,x0,0
   201d8:	00000013          	addi	x0,x0,0
   201dc:	00000013          	addi	x0,x0,0
   201e0:	fffe0317          	auipc	x6,0xfffe0
   201e4:	e6030313          	addi	x6,x6,-416 # 40 <rvtest_code_begin>
   201e8:	00000013          	addi	x0,x0,0
   201ec:	00000013          	addi	x0,x0,0
   201f0:	00000013          	addi	x0,x0,0
   201f4:	00000013          	addi	x0,x0,0
   201f8:	00000013          	addi	x0,x0,0
   201fc:	00000013          	addi	x0,x0,0
   20200:	00030067          	jalr	x0,0(x6)

00020204 <rvmodel_io_write_str>:
   20204:	00008067          	jalr	x0,0(x1)

00020208 <rvmodel_halt_pass>:
   20208:	00000513          	addi	x10,x0,0
   2020c:	00000073          	ecall
   20210:	0000006f          	jal	x0,20210 <rvmodel_halt_pass+0x8>

00020214 <rvmodel_halt_fail>:
   20214:	00100513          	addi	x10,x0,1
   20218:	00000073          	ecall
   2021c:	0000006f          	jal	x0,2021c <rvmodel_halt_fail+0x8>
   20220:	00000013          	addi	x0,x0,0
   20224:	00000013          	addi	x0,x0,0
   20228:	00000013          	addi	x0,x0,0
   2022c:	00000013          	addi	x0,x0,0
   20230:	00000013          	addi	x0,x0,0
   20234:	00000013          	addi	x0,x0,0
   20238:	00000013          	addi	x0,x0,0
   2023c:	00000013          	addi	x0,x0,0
