
/home/dev/github/clones/riscv-arch-test/work/rv32i-core/elfs/rv32i/I/I-sh-00.elf:     file format elf32-littleriscv
/home/dev/github/clones/riscv-arch-test/work/rv32i-core/elfs/rv32i/I/I-sh-00.elf
architecture: riscv:rv32, flags 0x00000112:
EXEC_P, HAS_SYMS, D_PAGED
start address 0x00000000

Program Header:
0x70000003 off    0x00018240 vaddr 0x00000000 paddr 0x00000000 align 2**0
         filesz 0x00000033 memsz 0x00000000 flags r--
    LOAD off    0x00001000 vaddr 0x00000000 paddr 0x00000000 align 2**12
         filesz 0x00003140 memsz 0x00003140 flags r-x
    LOAD off    0x00005000 vaddr 0x00004000 paddr 0x00004000 align 2**12
         filesz 0x00013240 memsz 0x00013240 flags rwx

Sections:
Idx Name          Size      VMA       LMA       File off  Algn
  0 .text.init    00000040  00000000  00000000  00001000  2**5
                  CONTENTS, ALLOC, LOAD, READONLY, CODE
  1 .text.rvtest  00003100  00000040  00000040  00001040  2**5
                  CONTENTS, ALLOC, LOAD, READONLY, CODE
  2 .data         000120a0  00004000  00004000  00005000  2**8
                  CONTENTS, ALLOC, LOAD, DATA
  3 .text.rvmodel 00000240  00017000  00017000  00018000  2**5
                  CONTENTS, ALLOC, LOAD, READONLY, CODE
  4 .riscv.attributes 00000033  00000000  00000000  00018240  2**0
                  CONTENTS, READONLY
  5 .debug_line   00001332  00000000  00000000  00018273  2**0
                  CONTENTS, READONLY, DEBUGGING, OCTETS
  6 .debug_line_str 00000068  00000000  00000000  000195a5  2**0
                  CONTENTS, READONLY, DEBUGGING, OCTETS
  7 .debug_info   00000023  00000000  00000000  0001960d  2**0
                  CONTENTS, READONLY, DEBUGGING, OCTETS
  8 .debug_abbrev 00000012  00000000  00000000  00019630  2**0
                  CONTENTS, READONLY, DEBUGGING, OCTETS
  9 .debug_aranges 00000028  00000000  00000000  00019648  2**3
                  CONTENTS, READONLY, DEBUGGING, OCTETS
 10 .debug_str    00000074  00000000  00000000  00019670  2**0
                  CONTENTS, READONLY, DEBUGGING, OCTETS
 11 .debug_rnglists 0000001a  00000000  00000000  000196e4  2**0
                  CONTENTS, READONLY, DEBUGGING, OCTETS
SYMBOL TABLE:
00000000 l    d  .text.init	00000000 .text.init
00000040 l    d  .text.rvtest	00000000 .text.rvtest
00004000 l    d  .data	00000000 .data
00017000 l    d  .text.rvmodel	00000000 .text.rvmodel
00000000 l    d  .riscv.attributes	00000000 .riscv.attributes
00000000 l    d  .debug_line	00000000 .debug_line
00000000 l    d  .debug_line_str	00000000 .debug_line_str
00000000 l    d  .debug_info	00000000 .debug_info
00000000 l    d  .debug_abbrev	00000000 .debug_abbrev
00000000 l    d  .debug_aranges	00000000 .debug_aranges
00000000 l    d  .debug_str	00000000 .debug_str
00000000 l    d  .debug_rnglists	00000000 .debug_rnglists
00000000 l    df *ABS*	00000000 ccNE4iqH.o
00000003 l       *ABS*	00000000 MMODE_SIG
00000001 l       *ABS*	00000000 SMODE_SIG
00000001 l       *ABS*	00000000 HMODE_SIG
00000002 l       *ABS*	00000000 VMODE_SIG
00017000 l       .text.rvmodel	00000000 rvmodel_boot
00000050 l       .text.rvtest	00000000 I_sh_cg_cp_rs1_nx0_b1
000016bc l       .text.rvtest	00000000 failedtest_x5_x4
0000429c l       .data	00000000 I_sh_cg_cp_rs1_nx0_b1_str
00000088 l       .text.rvtest	00000000 I_sh_cg_cp_rs1_nx0_b2
000042cc l       .data	00000000 I_sh_cg_cp_rs1_nx0_b2_str
000000c4 l       .text.rvtest	00000000 I_sh_cg_cp_rs1_nx0_b3
000042fc l       .data	00000000 I_sh_cg_cp_rs1_nx0_b3_str
00000104 l       .text.rvtest	00000000 I_sh_cg_cp_rs1_nx0_b4
000016d4 l       .text.rvtest	00000000 failedtest_x8_x7
0000432c l       .data	00000000 I_sh_cg_cp_rs1_nx0_b4_str
0000013c l       .text.rvtest	00000000 I_sh_cg_cp_rs1_nx0_b5
0000435c l       .data	00000000 I_sh_cg_cp_rs1_nx0_b5_str
00000174 l       .text.rvtest	00000000 I_sh_cg_cp_rs1_nx0_b6
0000438c l       .data	00000000 I_sh_cg_cp_rs1_nx0_b6_str
000001b4 l       .text.rvtest	00000000 I_sh_cg_cp_rs1_nx0_b7
000016fc l       .text.rvtest	00000000 failedtest_x14_x13
000043bc l       .data	00000000 I_sh_cg_cp_rs1_nx0_b7_str
000001ec l       .text.rvtest	00000000 I_sh_cg_cp_rs1_nx0_b8
000043ec l       .data	00000000 I_sh_cg_cp_rs1_nx0_b8_str
00000224 l       .text.rvtest	00000000 I_sh_cg_cp_rs1_nx0_b9
0000441c l       .data	00000000 I_sh_cg_cp_rs1_nx0_b9_str
0000025c l       .text.rvtest	00000000 I_sh_cg_cp_rs1_nx0_b10
0000444c l       .data	00000000 I_sh_cg_cp_rs1_nx0_b10_str
00000294 l       .text.rvtest	00000000 I_sh_cg_cp_rs1_nx0_b11
0000447e l       .data	00000000 I_sh_cg_cp_rs1_nx0_b11_str
000002cc l       .text.rvtest	00000000 I_sh_cg_cp_rs1_nx0_b12
000044b0 l       .data	00000000 I_sh_cg_cp_rs1_nx0_b12_str
0000030c l       .text.rvtest	00000000 I_sh_cg_cp_rs1_nx0_b13
000044e2 l       .data	00000000 I_sh_cg_cp_rs1_nx0_b13_str
00000344 l       .text.rvtest	00000000 I_sh_cg_cp_rs1_nx0_b14
00004514 l       .data	00000000 I_sh_cg_cp_rs1_nx0_b14_str
00000380 l       .text.rvtest	00000000 I_sh_cg_cp_rs1_nx0_b15
00004546 l       .data	00000000 I_sh_cg_cp_rs1_nx0_b15_str
000003b8 l       .text.rvtest	00000000 I_sh_cg_cp_rs1_nx0_b16
00004578 l       .data	00000000 I_sh_cg_cp_rs1_nx0_b16_str
000003f0 l       .text.rvtest	00000000 I_sh_cg_cp_rs1_nx0_b17
000045aa l       .data	00000000 I_sh_cg_cp_rs1_nx0_b17_str
0000042c l       .text.rvtest	00000000 I_sh_cg_cp_rs1_nx0_b18
000045dc l       .data	00000000 I_sh_cg_cp_rs1_nx0_b18_str
00000464 l       .text.rvtest	00000000 I_sh_cg_cp_rs1_nx0_b19
0000460e l       .data	00000000 I_sh_cg_cp_rs1_nx0_b19_str
0000049c l       .text.rvtest	00000000 I_sh_cg_cp_rs1_nx0_b20
00004640 l       .data	00000000 I_sh_cg_cp_rs1_nx0_b20_str
000004d4 l       .text.rvtest	00000000 I_sh_cg_cp_rs1_nx0_b21
00004672 l       .data	00000000 I_sh_cg_cp_rs1_nx0_b21_str
0000050c l       .text.rvtest	00000000 I_sh_cg_cp_rs1_nx0_b22
000046a4 l       .data	00000000 I_sh_cg_cp_rs1_nx0_b22_str
00000544 l       .text.rvtest	00000000 I_sh_cg_cp_rs1_nx0_b23
000046d6 l       .data	00000000 I_sh_cg_cp_rs1_nx0_b23_str
0000057c l       .text.rvtest	00000000 I_sh_cg_cp_rs1_nx0_b24
00004708 l       .data	00000000 I_sh_cg_cp_rs1_nx0_b24_str
000005b4 l       .text.rvtest	00000000 I_sh_cg_cp_rs1_nx0_b25
0000473a l       .data	00000000 I_sh_cg_cp_rs1_nx0_b25_str
000005ec l       .text.rvtest	00000000 I_sh_cg_cp_rs1_nx0_b26
0000476c l       .data	00000000 I_sh_cg_cp_rs1_nx0_b26_str
00000624 l       .text.rvtest	00000000 I_sh_cg_cp_rs1_nx0_b27
0000479e l       .data	00000000 I_sh_cg_cp_rs1_nx0_b27_str
0000065c l       .text.rvtest	00000000 I_sh_cg_cp_rs1_nx0_b28
000047d0 l       .data	00000000 I_sh_cg_cp_rs1_nx0_b28_str
00000694 l       .text.rvtest	00000000 I_sh_cg_cp_rs1_nx0_b29
00004802 l       .data	00000000 I_sh_cg_cp_rs1_nx0_b29_str
000006cc l       .text.rvtest	00000000 I_sh_cg_cp_rs1_nx0_b30
00004834 l       .data	00000000 I_sh_cg_cp_rs1_nx0_b30_str
00000704 l       .text.rvtest	00000000 I_sh_cg_cp_rs1_nx0_b31
00004866 l       .data	00000000 I_sh_cg_cp_rs1_nx0_b31_str
0000073c l       .text.rvtest	00000000 I_sh_cg_cp_rs2_b0
00004898 l       .data	00000000 I_sh_cg_cp_rs2_b0_str
00000774 l       .text.rvtest	00000000 I_sh_cg_cp_rs2_b1
000048c5 l       .data	00000000 I_sh_cg_cp_rs2_b1_str
000007ac l       .text.rvtest	00000000 I_sh_cg_cp_rs2_b2
000048f2 l       .data	00000000 I_sh_cg_cp_rs2_b2_str
000007e4 l       .text.rvtest	00000000 I_sh_cg_cp_rs2_b3
0000491f l       .data	00000000 I_sh_cg_cp_rs2_b3_str
0000081c l       .text.rvtest	00000000 I_sh_cg_cp_rs2_b4
0000494c l       .data	00000000 I_sh_cg_cp_rs2_b4_str
00000854 l       .text.rvtest	00000000 I_sh_cg_cp_rs2_b5
00004979 l       .data	00000000 I_sh_cg_cp_rs2_b5_str
00000890 l       .text.rvtest	00000000 I_sh_cg_cp_rs2_b6
000049a6 l       .data	00000000 I_sh_cg_cp_rs2_b6_str
000008d0 l       .text.rvtest	00000000 I_sh_cg_cp_rs2_b7
000049d3 l       .data	00000000 I_sh_cg_cp_rs2_b7_str
00000908 l       .text.rvtest	00000000 I_sh_cg_cp_rs2_b8
00004a00 l       .data	00000000 I_sh_cg_cp_rs2_b8_str
00000944 l       .text.rvtest	00000000 I_sh_cg_cp_rs2_b9
00004a2d l       .data	00000000 I_sh_cg_cp_rs2_b9_str
0000097c l       .text.rvtest	00000000 I_sh_cg_cp_rs2_b10
00004a5a l       .data	00000000 I_sh_cg_cp_rs2_b10_str
000009b4 l       .text.rvtest	00000000 I_sh_cg_cp_rs2_b11
00004a88 l       .data	00000000 I_sh_cg_cp_rs2_b11_str
000009ec l       .text.rvtest	00000000 I_sh_cg_cp_rs2_b12
00004ab6 l       .data	00000000 I_sh_cg_cp_rs2_b12_str
00000a24 l       .text.rvtest	00000000 I_sh_cg_cp_rs2_b13
00004ae4 l       .data	00000000 I_sh_cg_cp_rs2_b13_str
00000a5c l       .text.rvtest	00000000 I_sh_cg_cp_rs2_b14
00004b12 l       .data	00000000 I_sh_cg_cp_rs2_b14_str
00000a94 l       .text.rvtest	00000000 I_sh_cg_cp_rs2_b15
00004b40 l       .data	00000000 I_sh_cg_cp_rs2_b15_str
00000acc l       .text.rvtest	00000000 I_sh_cg_cp_rs2_b16
00004b6e l       .data	00000000 I_sh_cg_cp_rs2_b16_str
00000b04 l       .text.rvtest	00000000 I_sh_cg_cp_rs2_b17
00004b9c l       .data	00000000 I_sh_cg_cp_rs2_b17_str
00000b3c l       .text.rvtest	00000000 I_sh_cg_cp_rs2_b18
00004bca l       .data	00000000 I_sh_cg_cp_rs2_b18_str
00000b74 l       .text.rvtest	00000000 I_sh_cg_cp_rs2_b19
00004bf8 l       .data	00000000 I_sh_cg_cp_rs2_b19_str
00000bac l       .text.rvtest	00000000 I_sh_cg_cp_rs2_b20
00004c26 l       .data	00000000 I_sh_cg_cp_rs2_b20_str
00000be4 l       .text.rvtest	00000000 I_sh_cg_cp_rs2_b21
00004c54 l       .data	00000000 I_sh_cg_cp_rs2_b21_str
00000c1c l       .text.rvtest	00000000 I_sh_cg_cp_rs2_b22
00004c82 l       .data	00000000 I_sh_cg_cp_rs2_b22_str
00000c54 l       .text.rvtest	00000000 I_sh_cg_cp_rs2_b23
00004cb0 l       .data	00000000 I_sh_cg_cp_rs2_b23_str
00000c8c l       .text.rvtest	00000000 I_sh_cg_cp_rs2_b24
00004cde l       .data	00000000 I_sh_cg_cp_rs2_b24_str
00000cc4 l       .text.rvtest	00000000 I_sh_cg_cp_rs2_b25
00004d0c l       .data	00000000 I_sh_cg_cp_rs2_b25_str
00000cfc l       .text.rvtest	00000000 I_sh_cg_cp_rs2_b26
00004d3a l       .data	00000000 I_sh_cg_cp_rs2_b26_str
00000d34 l       .text.rvtest	00000000 I_sh_cg_cp_rs2_b27
00004d68 l       .data	00000000 I_sh_cg_cp_rs2_b27_str
00000d6c l       .text.rvtest	00000000 I_sh_cg_cp_rs2_b28
00004d96 l       .data	00000000 I_sh_cg_cp_rs2_b28_str
00000da4 l       .text.rvtest	00000000 I_sh_cg_cp_rs2_b29
00004dc4 l       .data	00000000 I_sh_cg_cp_rs2_b29_str
00000ddc l       .text.rvtest	00000000 I_sh_cg_cp_rs2_b30
00004df2 l       .data	00000000 I_sh_cg_cp_rs2_b30_str
00000e18 l       .text.rvtest	00000000 I_sh_cg_cp_rs2_b31
00004e20 l       .data	00000000 I_sh_cg_cp_rs2_b31_str
00000e50 l       .text.rvtest	00000000 I_sh_cg_cp_rs2_edges_0x0
00004e4e l       .data	00000000 I_sh_cg_cp_rs2_edges_0x0_str
00000e88 l       .text.rvtest	00000000 I_sh_cg_cp_rs2_edges_0x1
00004e82 l       .data	00000000 I_sh_cg_cp_rs2_edges_0x1_str
00000ec0 l       .text.rvtest	00000000 I_sh_cg_cp_rs2_edges_0x2
00004eb6 l       .data	00000000 I_sh_cg_cp_rs2_edges_0x2_str
00000ef8 l       .text.rvtest	00000000 I_sh_cg_cp_rs2_edges_0x80000000
00004eea l       .data	00000000 I_sh_cg_cp_rs2_edges_0x80000000_str
00000f30 l       .text.rvtest	00000000 I_sh_cg_cp_rs2_edges_0x80000001
00004f25 l       .data	00000000 I_sh_cg_cp_rs2_edges_0x80000001_str
00000f68 l       .text.rvtest	00000000 I_sh_cg_cp_rs2_edges_0x7fffffff
00004f60 l       .data	00000000 I_sh_cg_cp_rs2_edges_0x7fffffff_str
00000fa0 l       .text.rvtest	00000000 I_sh_cg_cp_rs2_edges_0x7ffffffe
00004f9b l       .data	00000000 I_sh_cg_cp_rs2_edges_0x7ffffffe_str
00000fd8 l       .text.rvtest	00000000 I_sh_cg_cp_rs2_edges_0xffffffff
00004fd6 l       .data	00000000 I_sh_cg_cp_rs2_edges_0xffffffff_str
00001010 l       .text.rvtest	00000000 I_sh_cg_cp_rs2_edges_0xfffffffe
00005011 l       .data	00000000 I_sh_cg_cp_rs2_edges_0xfffffffe_str
00001048 l       .text.rvtest	00000000 I_sh_cg_cp_rs2_edges_0x5bbc8872
0000504c l       .data	00000000 I_sh_cg_cp_rs2_edges_0x5bbc8872_str
00001080 l       .text.rvtest	00000000 I_sh_cg_cp_rs2_edges_0xaaaaaaaa
00005087 l       .data	00000000 I_sh_cg_cp_rs2_edges_0xaaaaaaaa_str
000010b8 l       .text.rvtest	00000000 I_sh_cg_cp_rs2_edges_0x55555555
000050c2 l       .data	00000000 I_sh_cg_cp_rs2_edges_0x55555555_str
000010f0 l       .text.rvtest	00000000 I_sh_cg_cp_imm_edges_0x0
000050fd l       .data	00000000 I_sh_cg_cp_imm_edges_0x0_str
00001128 l       .text.rvtest	00000000 I_sh_cg_cp_imm_edges_0x1
00005131 l       .data	00000000 I_sh_cg_cp_imm_edges_0x1_str
00001160 l       .text.rvtest	00000000 I_sh_cg_cp_imm_edges_0x2
00005165 l       .data	00000000 I_sh_cg_cp_imm_edges_0x2_str
00001198 l       .text.rvtest	00000000 I_sh_cg_cp_imm_edges_0x3
00005199 l       .data	00000000 I_sh_cg_cp_imm_edges_0x3_str
000011d0 l       .text.rvtest	00000000 I_sh_cg_cp_imm_edges_0x4
000051cd l       .data	00000000 I_sh_cg_cp_imm_edges_0x4_str
00001208 l       .text.rvtest	00000000 I_sh_cg_cp_imm_edges_0x8
00005201 l       .data	00000000 I_sh_cg_cp_imm_edges_0x8_str
00001240 l       .text.rvtest	00000000 I_sh_cg_cp_imm_edges_0x10
00005235 l       .data	00000000 I_sh_cg_cp_imm_edges_0x10_str
00001278 l       .text.rvtest	00000000 I_sh_cg_cp_imm_edges_0x20
0000526a l       .data	00000000 I_sh_cg_cp_imm_edges_0x20_str
000012b0 l       .text.rvtest	00000000 I_sh_cg_cp_imm_edges_0x40
0000529f l       .data	00000000 I_sh_cg_cp_imm_edges_0x40_str
000012e8 l       .text.rvtest	00000000 I_sh_cg_cp_imm_edges_0x80
000052d4 l       .data	00000000 I_sh_cg_cp_imm_edges_0x80_str
00001320 l       .text.rvtest	00000000 I_sh_cg_cp_imm_edges_0x100
00005309 l       .data	00000000 I_sh_cg_cp_imm_edges_0x100_str
00001358 l       .text.rvtest	00000000 I_sh_cg_cp_imm_edges_0x200
0000533f l       .data	00000000 I_sh_cg_cp_imm_edges_0x200_str
00001390 l       .text.rvtest	00000000 I_sh_cg_cp_imm_edges_0x3ff
00005375 l       .data	00000000 I_sh_cg_cp_imm_edges_0x3ff_str
000013c8 l       .text.rvtest	00000000 I_sh_cg_cp_imm_edges_0x400
000053ab l       .data	00000000 I_sh_cg_cp_imm_edges_0x400_str
00001400 l       .text.rvtest	00000000 I_sh_cg_cp_imm_edges_0x703
000053e1 l       .data	00000000 I_sh_cg_cp_imm_edges_0x703_str
00001438 l       .text.rvtest	00000000 I_sh_cg_cp_imm_edges_0x7ff
00005417 l       .data	00000000 I_sh_cg_cp_imm_edges_0x7ff_str
00001474 l       .text.rvtest	00000000 I_sh_cg_cp_imm_edges_m0x800
0000544d l       .data	00000000 I_sh_cg_cp_imm_edges_m0x800_str
000014ac l       .text.rvtest	00000000 I_sh_cg_cp_imm_edges_m0x7ff
00005484 l       .data	00000000 I_sh_cg_cp_imm_edges_m0x7ff_str
000014e4 l       .text.rvtest	00000000 I_sh_cg_cp_imm_edges_m0x2
000054bb l       .data	00000000 I_sh_cg_cp_imm_edges_m0x2_str
0000151c l       .text.rvtest	00000000 I_sh_cg_cp_imm_edges_m0x1
000054f0 l       .data	00000000 I_sh_cg_cp_imm_edges_m0x1_str
0000154c l       .text.rvtest	00000000 I_sh_cg_cp_align_hword_b0
00005525 l       .data	00000000 I_sh_cg_cp_align_hword_b0_str
00001594 l       .text.rvtest	00000000 I_sh_cg_cp_align_hword_b2
0000555a l       .data	00000000 I_sh_cg_cp_align_hword_b2_str
000015dc l       .text.rvtest	00000000 I_sh_cg_cp_align_hword_b4
0000558f l       .data	00000000 I_sh_cg_cp_align_hword_b4_str
00001624 l       .text.rvtest	00000000 I_sh_cg_cp_align_hword_b6
000055c4 l       .data	00000000 I_sh_cg_cp_align_hword_b6_str
00001668 l       .text.rvtest	00000000 exit_cleanup
00005c64 l       .data	00000000 successstr
00017204 l       .text.rvmodel	00000000 rvmodel_io_write_str
00017208 l       .text.rvmodel	00000000 rvmodel_halt_pass
000016b0 l       .text.rvtest	00000000 abort_test
6f5ca309 l       *ABS*	00000000 immx
6f5ca309 l       *ABS*	00000000 absimm
00000000 l       *ABS*	00000000 cry
00000309 l       *ABS*	00000000 imm12
00005600 l       .data	00000000 begin_failure_scratch
00001780 l       .text.rvtest	00000000 failedtest_saveregs
00001724 l       .text.rvtest	00000000 failedtest_trap_x7_x9
00005770 l       .data	00000000 saved_mcause
00005778 l       .data	00000000 saved_mtval
00005780 l       .data	00000000 saved_mstatus
000017f0 l       .text.rvtest	00000000 failedtest_saveresults
00005600 l       .data	00000000 failure_type
0000186c l       .text.rvtest	00000000 failedtest_saveresults_trap
00001800 l       .text.rvtest	00000000 failedtest_saveresults_int
00001c40 l       .text.rvtest	00000000 failedtest_saveresults_common
00005758 l       .data	00000000 trap_diag_fail_str_ptr
00005e28 l       .data	00000000 trap_sig_offset_mismatch
00001b20 l       .text.rvtest	00000000 trap_diag_offset_mismatch
00005730 l       .data	00000000 trap_diag_subtype
00005e8c l       .data	00000000 sv_Mvect_str
00001ba0 l       .text.rvtest	00000000 trap_diag_field_identified
00005f8e l       .data	00000000 sv_Mcause_str
00006089 l       .data	00000000 sv_Mepc_str
0000617c l       .data	00000000 sv_Mtval_str
000062ef l       .data	00000000 sv_Mip_str
00006273 l       .data	00000000 sv_Mtval2_str
000062b1 l       .data	00000000 sv_Mtinst_str
00005ecc l       .data	00000000 sv_Svect_str
00005fcc l       .data	00000000 sv_Scause_str
000060c5 l       .data	00000000 sv_Sepc_str
000061b9 l       .data	00000000 sv_Stval_str
0000632a l       .data	00000000 sv_Sip_str
00005f0c l       .data	00000000 sv_Hvect_str
0000600a l       .data	00000000 sv_Hcause_str
00006101 l       .data	00000000 sv_Hepc_str
000061f6 l       .data	00000000 sv_Htval_str
00006365 l       .data	00000000 sv_Hip_str
00005f4d l       .data	00000000 sv_Vvect_str
00006049 l       .data	00000000 sv_Vcause_str
0000613e l       .data	00000000 sv_Vepc_str
00006234 l       .data	00000000 sv_Vtval_str
000063a1 l       .data	00000000 sv_Vip_str
000063de l       .data	00000000 Mclr_Mext_int_str
0000642d l       .data	00000000 Mclr_Sext_int_str
00006528 l       .data	00000000 Sclr_Sext_int_str
00006624 l       .data	00000000 Hclr_Sext_int_str
00001c30 l       .text.rvtest	00000000 trap_diag_generic_report
00005748 l       .data	00000000 trap_diag_actual_offset
00005750 l       .data	00000000 trap_diag_expected_offset
00005734 l       .data	00000000 trap_diag_mode
00005738 l       .data	00000000 trap_diag_actual_value
00005740 l       .data	00000000 trap_diag_expected_value
00001c70 l       .text.rvtest	00000000 failedtest_report
00001c70 l       .text.rvtest	00000000 print_failstr
00005c99 l       .data	00000000 failstr
00001ca8 l       .text.rvtest	00000000 print_testnamestr
00005d2b l       .data	00000000 testnamestr
00001ce8 l       .text.rvtest	00000000 print_failure_test_name_str
00005720 l       .data	00000000 failure_string_ptr
00001cf8 l       .text.rvtest	00000000 print_newline_str
00005d3d l       .data	00000000 newlinestr
0000212c l       .text.rvtest	00000000 failedtest_report_trap_detailed
00005d3f l       .data	00000000 inststr
00005700 l       .data	00000000 failing_instruction
00003078 l       .text.rvtest	00000000 failedtest_hex_to_str
00005788 l       .data	00000000 ascii_buffer
00005d53 l       .data	00000000 addrstr
00005708 l       .data	00000000 failing_addr
000067d0 l       .data	00000000 regstr
00001ed8 l       .text.rvtest	00000000 failedtest_report_not_intreg
00005704 l       .data	00000000 failing_reg
000030f4 l       .text.rvtest	00000000 failedtest_dec_to_str
00001fb4 l       .text.rvtest	00000000 failedtest_report_print_regstr
00001f2c l       .text.rvtest	00000000 failedtest_report_fpreg
00001f78 l       .text.rvtest	00000000 failedtest_report_vecreg
00006830 l       .data	00000000 fflagsstr
00001fe8 l       .text.rvtest	00000000 failedtest_report_after_reg
000067e1 l       .data	00000000 badvalstr
0000204c l       .text.rvtest	00000000 failedtest_report_badval_not_fp
00005710 l       .data	00000000 failing_value
0000205c l       .text.rvtest	00000000 failedtest_report_badval_done
000067f8 l       .data	00000000 expvalstr
000020ec l       .text.rvtest	00000000 failedtest_report_expval_not_fp
00005718 l       .data	00000000 expected_value
000020fc l       .text.rvtest	00000000 failedtest_report_expval_done
00002e24 l       .text.rvtest	00000000 failedtest_report_end
0000685c l       .data	00000000 trap_diag_header_str
00006888 l       .data	00000000 trap_diag_origstr_label
00002200 l       .text.rvtest	00000000 trap_report_offset_mismatch
00002cb0 l       .text.rvtest	00000000 trap_report_generic
00002574 l       .text.rvtest	00000000 trap_report_field_mismatch
00006898 l       .data	00000000 trap_diag_count_mismatch_str
000068f9 l       .data	00000000 trap_diag_expected_offset_str
00006920 l       .data	00000000 trap_diag_actual_offset_str
00002454 l       .text.rvtest	00000000 trap_report_missing_traps
0000233c l       .text.rvtest	00000000 trap_report_extra_traps
00006947 l       .data	00000000 trap_diag_extra_traps_str
000069cc l       .data	00000000 trap_diag_extra_bytes_str
000069f7 l       .data	00000000 trap_diag_extra_hint_str
00002e70 l       .text.rvtest	00000000 failedtest_print_csr_context
00006981 l       .data	00000000 trap_diag_missing_traps_str
00006adf l       .data	00000000 trap_diag_missing_hint_str
00006bc6 l       .data	00000000 trap_diag_handler_mode_str
00002604 l       .text.rvtest	00000000 trap_mode_m
00002644 l       .text.rvtest	00000000 trap_mode_s
00002684 l       .text.rvtest	00000000 trap_mode_h
000026c4 l       .text.rvtest	00000000 trap_mode_v
00006c02 l       .data	00000000 trap_diag_mode_unknown_str
00002700 l       .text.rvtest	00000000 trap_mode_print
00006be0 l       .data	00000000 trap_diag_mode_m_str
00006be8 l       .data	00000000 trap_diag_mode_s_str
00006bf0 l       .data	00000000 trap_diag_mode_hs_str
00006bf9 l       .data	00000000 trap_diag_mode_vs_str
00006c0b l       .data	00000000 trap_diag_field_str
000027c4 l       .text.rvtest	00000000 trap_field_vect
00002804 l       .text.rvtest	00000000 trap_field_cause
00002844 l       .text.rvtest	00000000 trap_field_epc
00002884 l       .text.rvtest	00000000 trap_field_tval
000028c4 l       .text.rvtest	00000000 trap_field_ip
00002904 l       .text.rvtest	00000000 trap_field_tval2
00002944 l       .text.rvtest	00000000 trap_field_tinst
00002984 l       .text.rvtest	00000000 trap_field_intid
00006d62 l       .data	00000000 trap_diag_field_unknown_str
000029c0 l       .text.rvtest	00000000 trap_field_print
00006c25 l       .data	00000000 trap_diag_field_vect_str
00006c56 l       .data	00000000 trap_diag_field_cause_str
00006c76 l       .data	00000000 trap_diag_field_epc_str
00006c94 l       .data	00000000 trap_diag_field_tval_str
00006cb3 l       .data	00000000 trap_diag_field_ip_str
00006cdb l       .data	00000000 trap_diag_field_tval2_str
00006d07 l       .data	00000000 trap_diag_field_tinst_str
00006d33 l       .data	00000000 trap_diag_field_intid_str
00006d71 l       .data	00000000 trap_diag_expected_str
00006d88 l       .data	00000000 trap_diag_actual_str
00002b5c l       .text.rvtest	00000000 trap_field_not_cause
00006d9f l       .data	00000000 trap_diag_expected_cause_name_str
00002d94 l       .text.rvtest	00000000 trap_cause_to_str
00006db6 l       .data	00000000 trap_diag_actual_cause_name_str
00002b5c l       .text.rvtest	00000000 trap_field_not_epc
00006e2c l       .data	00000000 trap_diag_hint_vect_str
00006f02 l       .data	00000000 trap_diag_hint_cause_str
00006ff5 l       .data	00000000 trap_diag_hint_epc_str
000070f0 l       .data	00000000 trap_diag_hint_tval_str
000071d7 l       .data	00000000 trap_diag_hint_ip_str
00006de4 l       .data	00000000 trap_diag_generic_str
00005768 l       .data	00000000 saved_mepc
00005dc7 l       .data	00000000 xepcinstrstr
00002db8 l       .text.rvtest	00000000 trap_cause_interrupt
00002d98 l       .text.rvtest	00000000 trap_cause_exception
00002de4 l       .text.rvtest	00000000 trap_cause_unknown
000057b0 l       .data	00000000 trap_excpt_name_tbl
00005810 l       .data	00000000 trap_int_name_tbl
00005c4e l       .data	00000000 trap_cause_unknown_str
0000680f l       .data	00000000 endstr
00002e68 l       .text.rvtest	00000000 failedtest_terminate
00017214 l       .text.rvmodel	00000000 rvmodel_halt_fail
00005760 l       .data	00000000 csr_context_ret_addr
00005de8 l       .data	00000000 mepcstr
00005df8 l       .data	00000000 mcausestr
00005e08 l       .data	00000000 mtvalstr
00005e18 l       .data	00000000 mstatusstr
000030b8 l       .text.rvtest	00000000 failedtest_hex_to_str_loop
000030d4 l       .text.rvtest	00000000 failedtest_hex_to_str_digit
000030d8 l       .text.rvtest	00000000 failedtest_hex_to_str_write
00017000 l       .text.rvmodel	00000000 rvtest_boot_to_mmode
00017000 l       .text.rvmodel	00000000 rvtest_init_regs
000072c0 l       .data	00000000 signature_base
000171a0 l       .text.rvmodel	00000000 canary_check
00006838 l       .data	00000000 canary_mismatch
00004000 l       .data	00000000 scratch
000057b0 l       .data	00000000 end_failure_scratch
00005850 l       .data	00000000 trap_excpt_name_0
00005870 l       .data	00000000 trap_excpt_name_1
0000588a l       .data	00000000 trap_excpt_name_2
0000589f l       .data	00000000 trap_excpt_name_3
000058ab l       .data	00000000 trap_excpt_name_4
000058c4 l       .data	00000000 trap_excpt_name_5
000058d7 l       .data	00000000 trap_excpt_name_6
000058f5 l       .data	00000000 trap_excpt_name_7
0000590d l       .data	00000000 trap_excpt_name_8
0000592b l       .data	00000000 trap_excpt_name_9
00005949 l       .data	00000000 trap_excpt_name_10
00005968 l       .data	00000000 trap_excpt_name_11
00005986 l       .data	00000000 trap_excpt_name_12
0000599e l       .data	00000000 trap_excpt_name_13
000059af l       .data	00000000 trap_excpt_name_14
000059be l       .data	00000000 trap_excpt_name_15
000059d4 l       .data	00000000 trap_excpt_name_16
000059e1 l       .data	00000000 trap_excpt_name_17
000059f0 l       .data	00000000 trap_excpt_name_18
00005a00 l       .data	00000000 trap_excpt_name_19
00005a10 l       .data	00000000 trap_excpt_name_20
00005a2e l       .data	00000000 trap_excpt_name_21
00005a45 l       .data	00000000 trap_excpt_name_22
00005a5a l       .data	00000000 trap_excpt_name_23
00005a76 l       .data	00000000 trap_int_name_0
00005a8e l       .data	00000000 trap_int_name_1
00005aad l       .data	00000000 trap_int_name_2
00005ad4 l       .data	00000000 trap_int_name_3
00005af0 l       .data	00000000 trap_int_name_4
00005b08 l       .data	00000000 trap_int_name_5
00005b24 l       .data	00000000 trap_int_name_6
00005b48 l       .data	00000000 trap_int_name_7
00005b61 l       .data	00000000 trap_int_name_8
00005b79 l       .data	00000000 trap_int_name_9
00005b98 l       .data	00000000 trap_int_name_10
00005bbf l       .data	00000000 trap_int_name_11
00005bdb l       .data	00000000 trap_int_name_12
00005c00 l       .data	00000000 trap_int_name_13
00005c1c l       .data	00000000 trap_int_name_14
00005c35 l       .data	00000000 trap_int_name_15
00005ced l       .data	00000000 abortstr
00005d94 l       .data	00000000 xepcstr
0000647f l       .data	00000000 Mclr_Vext_int_str
000064d9 l       .data	00000000 Sclr_Mext_int_str
0000657a l       .data	00000000 Sclr_Vext_int_str
000065d4 l       .data	00000000 Hclr_Mext_int_str
00006677 l       .data	00000000 Hclr_Vext_int_str
000066d2 l       .data	00000000 Vclr_Mext_int_str
00006722 l       .data	00000000 Vclr_Sext_int_str
00006775 l       .data	00000000 Vclr_Vext_int_str
00006dcd l       .data	00000000 trap_diag_curr_xepc_str
00007638 l       .data	00000000 trap_sigptr
000160a0 g       .data	00000000 end_signature
000160a0 g       .data	00000000 rvtest_sig_end
00000000 g       .text.init	00000000 rvtest_entry_point
000072c0 g       .data	00000000 begin_signature
00001668 g       .text.rvtest	00000000 rvtest_code_end
00000040 g       .text.rvtest	00000000 rvtest_code_begin
000072c0 g       .data	00000000 rvtest_sig_begin
00004110 g       .data	00000000 rvtest_data_begin
000072bc g       .data	00000000 rvtest_data_end
00001668 g       .text.rvtest	00000000 cleanup_epilogs
00018000 g       .text.rvmodel	00000000 _end



Disassembly of section .text.init:

00000000 <rvtest_entry_point>:

// Include framework macros
#include "riscv_arch_test.h"

// Set up test environment and declare main entry point
RVTEST_BEGIN
   0:	00017097          	auipc	x1,0x17
   4:	00008093          	addi	x1,x1,0 # 17000 <rvmodel_boot>
   8:	00000013          	addi	x0,x0,0
   c:	00000013          	addi	x0,x0,0
  10:	00000013          	addi	x0,x0,0
  14:	00000013          	addi	x0,x0,0
  18:	00000013          	addi	x0,x0,0
  1c:	00000013          	addi	x0,x0,0
  20:	000080e7          	jalr	x1,0(x1)
  24:	00000013          	addi	x0,x0,0
  28:	00000013          	addi	x0,x0,0
  2c:	00000013          	addi	x0,x0,0
  30:	00000013          	addi	x0,x0,0
  34:	00000013          	addi	x0,x0,0
  38:	00000013          	addi	x0,x0,0
  3c:	00000013          	addi	x0,x0,0

Disassembly of section .text.rvtest:

00000040 <rvtest_code_begin>:
/////////////////////////////////
// cp_rs1_nx0
/////////////////////////////////

# Testcase cp_rs1_nx0 (Test source rs1 = x1)
  RVTEST_TESTDATA_LOAD_INT(x3, x12) # load rs2: x12 = 0x0e85a82c
      40:	0001a603          	lw	x12,0(x3)
      44:	00418193          	addi	x3,x3,4
  mv x1, x2 # move signature pointer register
      48:	00010093          	addi	x1,x2,0
  addi x1, x1, -289 # adjust base address for offset
      4c:	edf08093          	addi	x1,x1,-289

00000050 <I_sh_cg_cp_rs1_nx0_b1>:
I_sh_cg_cp_rs1_nx0_b1:
  sh x12, 289(x1) # perform store
      50:	12c090a3          	sh	x12,289(x1)
  addi x1, x1, 289 # restore base address
      54:	12108093          	addi	x1,x1,289
  addi x1, x1, SIG_STRIDE # increment signature pointer
      58:	00408093          	addi	x1,x1,4
#ifdef RVTEST_SELFCHECK
  LREG x30, -SIG_STRIDE(x1) # load stored value for checking
      5c:	ffc0af03          	lw	x30,-4(x1)
  # Check if x30 contains the expected result. x1 is the signature ptr, x5 is the link ptr, x4 is a temp reg.
  RVTEST_SIGUPD(x1, x5, x4, x30, I_sh_cg_cp_rs1_nx0_b1, I_sh_cg_cp_rs1_nx0_b1_str)
      60:	0000a203          	lw	x4,0(x1)
      64:	01e20863          	beq	x4,x30,74 <I_sh_cg_cp_rs1_nx0_b1+0x24>
      68:	654012ef          	jal	x5,16bc <failedtest_x5_x4>
      6c:	00000050          	.word	0x00000050
      70:	0000429c          	.word	0x0000429c
      74:	00408093          	addi	x1,x1,4
  nop
  nop
#endif

# Testcase cp_rs1_nx0 (Test source rs1 = x2)
  RVTEST_TESTDATA_LOAD_INT(x3, x12) # load rs2: x12 = 0x950208d0
      78:	0001a603          	lw	x12,0(x3)
      7c:	00418193          	addi	x3,x3,4
  mv x2, x1 # move signature pointer register
      80:	00008113          	addi	x2,x1,0
  addi x2, x2, 1560 # adjust base address for offset
      84:	61810113          	addi	x2,x2,1560

00000088 <I_sh_cg_cp_rs1_nx0_b2>:
I_sh_cg_cp_rs1_nx0_b2:
  sh x12, -1560(x2) # perform store
      88:	9ec11423          	sh	x12,-1560(x2)
  addi x2, x2, -1560 # restore base address
      8c:	9e810113          	addi	x2,x2,-1560
  addi x2, x2, SIG_STRIDE # increment signature pointer
      90:	00410113          	addi	x2,x2,4
#ifdef RVTEST_SELFCHECK
  LREG x17, -SIG_STRIDE(x2) # load stored value for checking
      94:	ffc12883          	lw	x17,-4(x2)
  # Check if x17 contains the expected result. x2 is the signature ptr, x5 is the link ptr, x4 is a temp reg.
  RVTEST_SIGUPD(x2, x5, x4, x17, I_sh_cg_cp_rs1_nx0_b2, I_sh_cg_cp_rs1_nx0_b2_str)
      98:	00012203          	lw	x4,0(x2)
      9c:	01120863          	beq	x4,x17,ac <I_sh_cg_cp_rs1_nx0_b2+0x24>
      a0:	61c012ef          	jal	x5,16bc <failedtest_x5_x4>
      a4:	00000088          	.word	0x00000088
      a8:	000042cc          	.word	0x000042cc
      ac:	00410113          	addi	x2,x2,4
  nop
  nop
  nop
#endif

  mv x15, x3 # switch data pointer register to avoid conflict with test
      b0:	00018793          	addi	x15,x3,0
# Testcase cp_rs1_nx0 (Test source rs1 = x3)
  RVTEST_TESTDATA_LOAD_INT(x15, x14) # load rs2: x14 = 0xb19ee573
      b4:	0007a703          	lw	x14,0(x15)
      b8:	00478793          	addi	x15,x15,4
  mv x3, x2 # move signature pointer register
      bc:	00010193          	addi	x3,x2,0
  addi x3, x3, -1834 # adjust base address for offset
      c0:	8d618193          	addi	x3,x3,-1834

000000c4 <I_sh_cg_cp_rs1_nx0_b3>:
I_sh_cg_cp_rs1_nx0_b3:
  sh x14, 1834(x3) # perform store
      c4:	72e19523          	sh	x14,1834(x3)
  addi x3, x3, 1834 # restore base address
      c8:	72a18193          	addi	x3,x3,1834
  addi x3, x3, SIG_STRIDE # increment signature pointer
      cc:	00418193          	addi	x3,x3,4
#ifdef RVTEST_SELFCHECK
  LREG x24, -SIG_STRIDE(x3) # load stored value for checking
      d0:	ffc1ac03          	lw	x24,-4(x3)
  # Check if x24 contains the expected result. x3 is the signature ptr, x5 is the link ptr, x4 is a temp reg.
  RVTEST_SIGUPD(x3, x5, x4, x24, I_sh_cg_cp_rs1_nx0_b3, I_sh_cg_cp_rs1_nx0_b3_str)
      d4:	0001a203          	lw	x4,0(x3)
      d8:	01820863          	beq	x4,x24,e8 <I_sh_cg_cp_rs1_nx0_b3+0x24>
      dc:	5e0012ef          	jal	x5,16bc <failedtest_x5_x4>
      e0:	000000c4          	.word	0x000000c4
      e4:	000042fc          	.word	0x000042fc
      e8:	00418193          	addi	x3,x3,4
  nop
  nop
  nop
#endif

  mv x7, x4 # switch temp register to avoid conflict with test
      ec:	00020393          	addi	x7,x4,0 # 0 <rvtest_entry_point>
  mv x8, x5 # switch link pointer register to avoid conflict with test
      f0:	00028413          	addi	x8,x5,0
# Testcase cp_rs1_nx0 (Test source rs1 = x4)
  RVTEST_TESTDATA_LOAD_INT(x15, x11) # load rs2: x11 = 0x32c654eb
      f4:	0007a583          	lw	x11,0(x15)
      f8:	00478793          	addi	x15,x15,4
  mv x4, x3 # move signature pointer register
      fc:	00018213          	addi	x4,x3,0
  addi x4, x4, 1532 # adjust base address for offset
     100:	5fc20213          	addi	x4,x4,1532 # 5fc <I_sh_cg_cp_rs1_nx0_b26+0x10>

00000104 <I_sh_cg_cp_rs1_nx0_b4>:
I_sh_cg_cp_rs1_nx0_b4:
  sh x11, -1532(x4) # perform store
     104:	a0b21223          	sh	x11,-1532(x4) # fffffa04 <absimm+0x90a356fb>
  addi x4, x4, -1532 # restore base address
     108:	a0420213          	addi	x4,x4,-1532 # fffffa04 <absimm+0x90a356fb>
  addi x4, x4, SIG_STRIDE # increment signature pointer
     10c:	00420213          	addi	x4,x4,4 # 4 <MMODE_SIG+0x1>
#ifdef RVTEST_SELFCHECK
  LREG x6, -SIG_STRIDE(x4) # load stored value for checking
     110:	ffc22303          	lw	x6,-4(x4) # fffffffc <absimm+0x90a35cf3>
  # Check if x6 contains the expected result. x4 is the signature ptr, x8 is the link ptr, x7 is a temp reg.
  RVTEST_SIGUPD(x4, x8, x7, x6, I_sh_cg_cp_rs1_nx0_b4, I_sh_cg_cp_rs1_nx0_b4_str)
     114:	00022383          	lw	x7,0(x4) # 0 <rvtest_entry_point>
     118:	00638863          	beq	x7,x6,128 <I_sh_cg_cp_rs1_nx0_b4+0x24>
     11c:	5b80146f          	jal	x8,16d4 <failedtest_x8_x7>
     120:	00000104          	.word	0x00000104
     124:	0000432c          	.word	0x0000432c
     128:	00420213          	addi	x4,x4,4 # 4 <MMODE_SIG+0x1>
  nop
  nop
#endif

# Testcase cp_rs1_nx0 (Test source rs1 = x5)
  RVTEST_TESTDATA_LOAD_INT(x15, x18) # load rs2: x18 = 0x790a5576
     12c:	0007a903          	lw	x18,0(x15)
     130:	00478793          	addi	x15,x15,4
  mv x5, x4 # move signature pointer register
     134:	00020293          	addi	x5,x4,0 # 0 <rvtest_entry_point>
  addi x5, x5, 902 # adjust base address for offset
     138:	38628293          	addi	x5,x5,902

0000013c <I_sh_cg_cp_rs1_nx0_b5>:
I_sh_cg_cp_rs1_nx0_b5:
  sh x18, -902(x5) # perform store
     13c:	c7229d23          	sh	x18,-902(x5)
  addi x5, x5, -902 # restore base address
     140:	c7a28293          	addi	x5,x5,-902
  addi x5, x5, SIG_STRIDE # increment signature pointer
     144:	00428293          	addi	x5,x5,4
#ifdef RVTEST_SELFCHECK
  LREG x26, -SIG_STRIDE(x5) # load stored value for checking
     148:	ffc2ad03          	lw	x26,-4(x5)
  # Check if x26 contains the expected result. x5 is the signature ptr, x8 is the link ptr, x7 is a temp reg.
  RVTEST_SIGUPD(x5, x8, x7, x26, I_sh_cg_cp_rs1_nx0_b5, I_sh_cg_cp_rs1_nx0_b5_str)
     14c:	0002a383          	lw	x7,0(x5)
     150:	01a38863          	beq	x7,x26,160 <I_sh_cg_cp_rs1_nx0_b5+0x24>
     154:	5800146f          	jal	x8,16d4 <failedtest_x8_x7>
     158:	0000013c          	.word	0x0000013c
     15c:	0000435c          	.word	0x0000435c
     160:	00428293          	addi	x5,x5,4
  nop
  nop
#endif

# Testcase cp_rs1_nx0 (Test source rs1 = x6)
  RVTEST_TESTDATA_LOAD_INT(x15, x21) # load rs2: x21 = 0xb122d0a0
     164:	0007aa83          	lw	x21,0(x15)
     168:	00478793          	addi	x15,x15,4
  mv x6, x5 # move signature pointer register
     16c:	00028313          	addi	x6,x5,0
  addi x6, x6, 1415 # adjust base address for offset
     170:	58730313          	addi	x6,x6,1415

00000174 <I_sh_cg_cp_rs1_nx0_b6>:
I_sh_cg_cp_rs1_nx0_b6:
  sh x21, -1415(x6) # perform store
     174:	a7531ca3          	sh	x21,-1415(x6)
  addi x6, x6, -1415 # restore base address
     178:	a7930313          	addi	x6,x6,-1415
  addi x6, x6, SIG_STRIDE # increment signature pointer
     17c:	00430313          	addi	x6,x6,4
#ifdef RVTEST_SELFCHECK
  LREG x30, -SIG_STRIDE(x6) # load stored value for checking
     180:	ffc32f03          	lw	x30,-4(x6)
  # Check if x30 contains the expected result. x6 is the signature ptr, x8 is the link ptr, x7 is a temp reg.
  RVTEST_SIGUPD(x6, x8, x7, x30, I_sh_cg_cp_rs1_nx0_b6, I_sh_cg_cp_rs1_nx0_b6_str)
     184:	00032383          	lw	x7,0(x6)
     188:	01e38863          	beq	x7,x30,198 <I_sh_cg_cp_rs1_nx0_b6+0x24>
     18c:	5480146f          	jal	x8,16d4 <failedtest_x8_x7>
     190:	00000174          	.word	0x00000174
     194:	0000438c          	.word	0x0000438c
     198:	00430313          	addi	x6,x6,4
  nop
  nop
  nop
#endif

  mv x13, x7 # switch temp register to avoid conflict with test
     19c:	00038693          	addi	x13,x7,0
  mv x14, x8 # switch link pointer register to avoid conflict with test
     1a0:	00040713          	addi	x14,x8,0
# Testcase cp_rs1_nx0 (Test source rs1 = x7)
  RVTEST_TESTDATA_LOAD_INT(x15, x5) # load rs2: x5 = 0x6e385eb1
     1a4:	0007a283          	lw	x5,0(x15)
     1a8:	00478793          	addi	x15,x15,4
  mv x7, x6 # move signature pointer register
     1ac:	00030393          	addi	x7,x6,0
  addi x7, x7, -286 # adjust base address for offset
     1b0:	ee238393          	addi	x7,x7,-286

000001b4 <I_sh_cg_cp_rs1_nx0_b7>:
I_sh_cg_cp_rs1_nx0_b7:
  sh x5, 286(x7) # perform store
     1b4:	10539f23          	sh	x5,286(x7)
  addi x7, x7, 286 # restore base address
     1b8:	11e38393          	addi	x7,x7,286
  addi x7, x7, SIG_STRIDE # increment signature pointer
     1bc:	00438393          	addi	x7,x7,4
#ifdef RVTEST_SELFCHECK
  LREG x24, -SIG_STRIDE(x7) # load stored value for checking
     1c0:	ffc3ac03          	lw	x24,-4(x7)
  # Check if x24 contains the expected result. x7 is the signature ptr, x14 is the link ptr, x13 is a temp reg.
  RVTEST_SIGUPD(x7, x14, x13, x24, I_sh_cg_cp_rs1_nx0_b7, I_sh_cg_cp_rs1_nx0_b7_str)
     1c4:	0003a683          	lw	x13,0(x7)
     1c8:	01868863          	beq	x13,x24,1d8 <I_sh_cg_cp_rs1_nx0_b7+0x24>
     1cc:	5300176f          	jal	x14,16fc <failedtest_x14_x13>
     1d0:	000001b4          	.word	0x000001b4
     1d4:	000043bc          	.word	0x000043bc
     1d8:	00438393          	addi	x7,x7,4
  nop
  nop
#endif

# Testcase cp_rs1_nx0 (Test source rs1 = x8)
  RVTEST_TESTDATA_LOAD_INT(x15, x26) # load rs2: x26 = 0xcf14438c
     1dc:	0007ad03          	lw	x26,0(x15)
     1e0:	00478793          	addi	x15,x15,4
  mv x8, x7 # move signature pointer register
     1e4:	00038413          	addi	x8,x7,0
  addi x8, x8, 1689 # adjust base address for offset
     1e8:	69940413          	addi	x8,x8,1689

000001ec <I_sh_cg_cp_rs1_nx0_b8>:
I_sh_cg_cp_rs1_nx0_b8:
  sh x26, -1689(x8) # perform store
     1ec:	97a413a3          	sh	x26,-1689(x8)
  addi x8, x8, -1689 # restore base address
     1f0:	96740413          	addi	x8,x8,-1689
  addi x8, x8, SIG_STRIDE # increment signature pointer
     1f4:	00440413          	addi	x8,x8,4
#ifdef RVTEST_SELFCHECK
  LREG x1, -SIG_STRIDE(x8) # load stored value for checking
     1f8:	ffc42083          	lw	x1,-4(x8)
  # Check if x1 contains the expected result. x8 is the signature ptr, x14 is the link ptr, x13 is a temp reg.
  RVTEST_SIGUPD(x8, x14, x13, x1, I_sh_cg_cp_rs1_nx0_b8, I_sh_cg_cp_rs1_nx0_b8_str)
     1fc:	00042683          	lw	x13,0(x8)
     200:	00168863          	beq	x13,x1,210 <I_sh_cg_cp_rs1_nx0_b8+0x24>
     204:	4f80176f          	jal	x14,16fc <failedtest_x14_x13>
     208:	000001ec          	.word	0x000001ec
     20c:	000043ec          	.word	0x000043ec
     210:	00440413          	addi	x8,x8,4
  nop
  nop
#endif

# Testcase cp_rs1_nx0 (Test source rs1 = x9)
  RVTEST_TESTDATA_LOAD_INT(x15, x10) # load rs2: x10 = 0xbc29910a
     214:	0007a503          	lw	x10,0(x15)
     218:	00478793          	addi	x15,x15,4
  mv x9, x8 # move signature pointer register
     21c:	00040493          	addi	x9,x8,0
  addi x9, x9, -1480 # adjust base address for offset
     220:	a3848493          	addi	x9,x9,-1480

00000224 <I_sh_cg_cp_rs1_nx0_b9>:
I_sh_cg_cp_rs1_nx0_b9:
  sh x10, 1480(x9) # perform store
     224:	5ca49423          	sh	x10,1480(x9)
  addi x9, x9, 1480 # restore base address
     228:	5c848493          	addi	x9,x9,1480
  addi x9, x9, SIG_STRIDE # increment signature pointer
     22c:	00448493          	addi	x9,x9,4
#ifdef RVTEST_SELFCHECK
  LREG x7, -SIG_STRIDE(x9) # load stored value for checking
     230:	ffc4a383          	lw	x7,-4(x9)
  # Check if x7 contains the expected result. x9 is the signature ptr, x14 is the link ptr, x13 is a temp reg.
  RVTEST_SIGUPD(x9, x14, x13, x7, I_sh_cg_cp_rs1_nx0_b9, I_sh_cg_cp_rs1_nx0_b9_str)
     234:	0004a683          	lw	x13,0(x9)
     238:	00768863          	beq	x13,x7,248 <I_sh_cg_cp_rs1_nx0_b9+0x24>
     23c:	4c00176f          	jal	x14,16fc <failedtest_x14_x13>
     240:	00000224          	.word	0x00000224
     244:	0000441c          	.word	0x0000441c
     248:	00448493          	addi	x9,x9,4
  nop
  nop
#endif

# Testcase cp_rs1_nx0 (Test source rs1 = x10)
  RVTEST_TESTDATA_LOAD_INT(x15, x31) # load rs2: x31 = 0xb5ee4058
     24c:	0007af83          	lw	x31,0(x15)
     250:	00478793          	addi	x15,x15,4
  mv x10, x9 # move signature pointer register
     254:	00048513          	addi	x10,x9,0
  addi x10, x10, 1595 # adjust base address for offset
     258:	63b50513          	addi	x10,x10,1595

0000025c <I_sh_cg_cp_rs1_nx0_b10>:
I_sh_cg_cp_rs1_nx0_b10:
  sh x31, -1595(x10) # perform store
     25c:	9df512a3          	sh	x31,-1595(x10)
  addi x10, x10, -1595 # restore base address
     260:	9c550513          	addi	x10,x10,-1595
  addi x10, x10, SIG_STRIDE # increment signature pointer
     264:	00450513          	addi	x10,x10,4
#ifdef RVTEST_SELFCHECK
  LREG x17, -SIG_STRIDE(x10) # load stored value for checking
     268:	ffc52883          	lw	x17,-4(x10)
  # Check if x17 contains the expected result. x10 is the signature ptr, x14 is the link ptr, x13 is a temp reg.
  RVTEST_SIGUPD(x10, x14, x13, x17, I_sh_cg_cp_rs1_nx0_b10, I_sh_cg_cp_rs1_nx0_b10_str)
     26c:	00052683          	lw	x13,0(x10)
     270:	01168863          	beq	x13,x17,280 <I_sh_cg_cp_rs1_nx0_b10+0x24>
     274:	4880176f          	jal	x14,16fc <failedtest_x14_x13>
     278:	0000025c          	.word	0x0000025c
     27c:	0000444c          	.word	0x0000444c
     280:	00450513          	addi	x10,x10,4
  nop
  nop
#endif

# Testcase cp_rs1_nx0 (Test source rs1 = x11)
  RVTEST_TESTDATA_LOAD_INT(x15, x9) # load rs2: x9 = 0xd5e61c1f
     284:	0007a483          	lw	x9,0(x15)
     288:	00478793          	addi	x15,x15,4
  mv x11, x10 # move signature pointer register
     28c:	00050593          	addi	x11,x10,0
  addi x11, x11, -1696 # adjust base address for offset
     290:	96058593          	addi	x11,x11,-1696

00000294 <I_sh_cg_cp_rs1_nx0_b11>:
I_sh_cg_cp_rs1_nx0_b11:
  sh x9, 1696(x11) # perform store
     294:	6a959023          	sh	x9,1696(x11)
  addi x11, x11, 1696 # restore base address
     298:	6a058593          	addi	x11,x11,1696
  addi x11, x11, SIG_STRIDE # increment signature pointer
     29c:	00458593          	addi	x11,x11,4
#ifdef RVTEST_SELFCHECK
  LREG x17, -SIG_STRIDE(x11) # load stored value for checking
     2a0:	ffc5a883          	lw	x17,-4(x11)
  # Check if x17 contains the expected result. x11 is the signature ptr, x14 is the link ptr, x13 is a temp reg.
  RVTEST_SIGUPD(x11, x14, x13, x17, I_sh_cg_cp_rs1_nx0_b11, I_sh_cg_cp_rs1_nx0_b11_str)
     2a4:	0005a683          	lw	x13,0(x11)
     2a8:	01168863          	beq	x13,x17,2b8 <I_sh_cg_cp_rs1_nx0_b11+0x24>
     2ac:	4500176f          	jal	x14,16fc <failedtest_x14_x13>
     2b0:	00000294          	.word	0x00000294
     2b4:	0000447e          	.word	0x0000447e
     2b8:	00458593          	addi	x11,x11,4
  nop
  nop
#endif

# Testcase cp_rs1_nx0 (Test source rs1 = x12)
  RVTEST_TESTDATA_LOAD_INT(x15, x3) # load rs2: x3 = 0x0f45d4d7
     2bc:	0007a183          	lw	x3,0(x15)
     2c0:	00478793          	addi	x15,x15,4
  mv x12, x11 # move signature pointer register
     2c4:	00058613          	addi	x12,x11,0
  addi x12, x12, -933 # adjust base address for offset
     2c8:	c5b60613          	addi	x12,x12,-933

000002cc <I_sh_cg_cp_rs1_nx0_b12>:
I_sh_cg_cp_rs1_nx0_b12:
  sh x3, 933(x12) # perform store
     2cc:	3a3612a3          	sh	x3,933(x12)
  addi x12, x12, 933 # restore base address
     2d0:	3a560613          	addi	x12,x12,933
  addi x12, x12, SIG_STRIDE # increment signature pointer
     2d4:	00460613          	addi	x12,x12,4
#ifdef RVTEST_SELFCHECK
  LREG x20, -SIG_STRIDE(x12) # load stored value for checking
     2d8:	ffc62a03          	lw	x20,-4(x12)
  # Check if x20 contains the expected result. x12 is the signature ptr, x14 is the link ptr, x13 is a temp reg.
  RVTEST_SIGUPD(x12, x14, x13, x20, I_sh_cg_cp_rs1_nx0_b12, I_sh_cg_cp_rs1_nx0_b12_str)
     2dc:	00062683          	lw	x13,0(x12)
     2e0:	01468863          	beq	x13,x20,2f0 <I_sh_cg_cp_rs1_nx0_b12+0x24>
     2e4:	4180176f          	jal	x14,16fc <failedtest_x14_x13>
     2e8:	000002cc          	.word	0x000002cc
     2ec:	000044b0          	.word	0x000044b0
     2f0:	00460613          	addi	x12,x12,4
  nop
  nop
  nop
#endif

  mv x7, x13 # switch temp register to avoid conflict with test
     2f4:	00068393          	addi	x7,x13,0
  mv x8, x14 # switch link pointer register to avoid conflict with test
     2f8:	00070413          	addi	x8,x14,0
# Testcase cp_rs1_nx0 (Test source rs1 = x13)
  RVTEST_TESTDATA_LOAD_INT(x15, x1) # load rs2: x1 = 0xe0b90b9d
     2fc:	0007a083          	lw	x1,0(x15)
     300:	00478793          	addi	x15,x15,4
  mv x13, x12 # move signature pointer register
     304:	00060693          	addi	x13,x12,0
  addi x13, x13, -10 # adjust base address for offset
     308:	ff668693          	addi	x13,x13,-10

0000030c <I_sh_cg_cp_rs1_nx0_b13>:
I_sh_cg_cp_rs1_nx0_b13:
  sh x1, 10(x13) # perform store
     30c:	00169523          	sh	x1,10(x13)
  addi x13, x13, 10 # restore base address
     310:	00a68693          	addi	x13,x13,10
  addi x13, x13, SIG_STRIDE # increment signature pointer
     314:	00468693          	addi	x13,x13,4
#ifdef RVTEST_SELFCHECK
  LREG x23, -SIG_STRIDE(x13) # load stored value for checking
     318:	ffc6ab83          	lw	x23,-4(x13)
  # Check if x23 contains the expected result. x13 is the signature ptr, x8 is the link ptr, x7 is a temp reg.
  RVTEST_SIGUPD(x13, x8, x7, x23, I_sh_cg_cp_rs1_nx0_b13, I_sh_cg_cp_rs1_nx0_b13_str)
     31c:	0006a383          	lw	x7,0(x13)
     320:	01738863          	beq	x7,x23,330 <I_sh_cg_cp_rs1_nx0_b13+0x24>
     324:	3b00146f          	jal	x8,16d4 <failedtest_x8_x7>
     328:	0000030c          	.word	0x0000030c
     32c:	000044e2          	.word	0x000044e2
     330:	00468693          	addi	x13,x13,4
  nop
  nop
#endif

# Testcase cp_rs1_nx0 (Test source rs1 = x14)
  RVTEST_TESTDATA_LOAD_INT(x15, x27) # load rs2: x27 = 0x77e4349d
     334:	0007ad83          	lw	x27,0(x15)
     338:	00478793          	addi	x15,x15,4
  mv x14, x13 # move signature pointer register
     33c:	00068713          	addi	x14,x13,0
  addi x14, x14, 365 # adjust base address for offset
     340:	16d70713          	addi	x14,x14,365

00000344 <I_sh_cg_cp_rs1_nx0_b14>:
I_sh_cg_cp_rs1_nx0_b14:
  sh x27, -365(x14) # perform store
     344:	e9b719a3          	sh	x27,-365(x14)
  addi x14, x14, -365 # restore base address
     348:	e9370713          	addi	x14,x14,-365
  addi x14, x14, SIG_STRIDE # increment signature pointer
     34c:	00470713          	addi	x14,x14,4
#ifdef RVTEST_SELFCHECK
  LREG x1, -SIG_STRIDE(x14) # load stored value for checking
     350:	ffc72083          	lw	x1,-4(x14)
  # Check if x1 contains the expected result. x14 is the signature ptr, x8 is the link ptr, x7 is a temp reg.
  RVTEST_SIGUPD(x14, x8, x7, x1, I_sh_cg_cp_rs1_nx0_b14, I_sh_cg_cp_rs1_nx0_b14_str)
     354:	00072383          	lw	x7,0(x14)
     358:	00138863          	beq	x7,x1,368 <I_sh_cg_cp_rs1_nx0_b14+0x24>
     35c:	3780146f          	jal	x8,16d4 <failedtest_x8_x7>
     360:	00000344          	.word	0x00000344
     364:	00004514          	.word	0x00004514
     368:	00470713          	addi	x14,x14,4
  nop
  nop
  nop
#endif

  mv x18, x15 # switch data pointer register to avoid conflict with test
     36c:	00078913          	addi	x18,x15,0
# Testcase cp_rs1_nx0 (Test source rs1 = x15)
  RVTEST_TESTDATA_LOAD_INT(x18, x20) # load rs2: x20 = 0x955676c8
     370:	00092a03          	lw	x20,0(x18)
     374:	00490913          	addi	x18,x18,4
  mv x15, x14 # move signature pointer register
     378:	00070793          	addi	x15,x14,0
  addi x15, x15, -1562 # adjust base address for offset
     37c:	9e678793          	addi	x15,x15,-1562

00000380 <I_sh_cg_cp_rs1_nx0_b15>:
I_sh_cg_cp_rs1_nx0_b15:
  sh x20, 1562(x15) # perform store
     380:	61479d23          	sh	x20,1562(x15)
  addi x15, x15, 1562 # restore base address
     384:	61a78793          	addi	x15,x15,1562
  addi x15, x15, SIG_STRIDE # increment signature pointer
     388:	00478793          	addi	x15,x15,4
#ifdef RVTEST_SELFCHECK
  LREG x5, -SIG_STRIDE(x15) # load stored value for checking
     38c:	ffc7a283          	lw	x5,-4(x15)
  # Check if x5 contains the expected result. x15 is the signature ptr, x8 is the link ptr, x7 is a temp reg.
  RVTEST_SIGUPD(x15, x8, x7, x5, I_sh_cg_cp_rs1_nx0_b15, I_sh_cg_cp_rs1_nx0_b15_str)
     390:	0007a383          	lw	x7,0(x15)
     394:	00538863          	beq	x7,x5,3a4 <I_sh_cg_cp_rs1_nx0_b15+0x24>
     398:	33c0146f          	jal	x8,16d4 <failedtest_x8_x7>
     39c:	00000380          	.word	0x00000380
     3a0:	00004546          	.word	0x00004546
     3a4:	00478793          	addi	x15,x15,4
  nop
  nop
#endif

# Testcase cp_rs1_nx0 (Test source rs1 = x16)
  RVTEST_TESTDATA_LOAD_INT(x18, x30) # load rs2: x30 = 0x3e074084
     3a8:	00092f03          	lw	x30,0(x18)
     3ac:	00490913          	addi	x18,x18,4
  mv x16, x15 # move signature pointer register
     3b0:	00078813          	addi	x16,x15,0
  addi x16, x16, -1015 # adjust base address for offset
     3b4:	c0980813          	addi	x16,x16,-1015

000003b8 <I_sh_cg_cp_rs1_nx0_b16>:
I_sh_cg_cp_rs1_nx0_b16:
  sh x30, 1015(x16) # perform store
     3b8:	3fe81ba3          	sh	x30,1015(x16)
  addi x16, x16, 1015 # restore base address
     3bc:	3f780813          	addi	x16,x16,1015
  addi x16, x16, SIG_STRIDE # increment signature pointer
     3c0:	00480813          	addi	x16,x16,4
#ifdef RVTEST_SELFCHECK
  LREG x17, -SIG_STRIDE(x16) # load stored value for checking
     3c4:	ffc82883          	lw	x17,-4(x16)
  # Check if x17 contains the expected result. x16 is the signature ptr, x8 is the link ptr, x7 is a temp reg.
  RVTEST_SIGUPD(x16, x8, x7, x17, I_sh_cg_cp_rs1_nx0_b16, I_sh_cg_cp_rs1_nx0_b16_str)
     3c8:	00082383          	lw	x7,0(x16)
     3cc:	01138863          	beq	x7,x17,3dc <I_sh_cg_cp_rs1_nx0_b16+0x24>
     3d0:	3040146f          	jal	x8,16d4 <failedtest_x8_x7>
     3d4:	000003b8          	.word	0x000003b8
     3d8:	00004578          	.word	0x00004578
     3dc:	00480813          	addi	x16,x16,4
  nop
  nop
#endif

# Testcase cp_rs1_nx0 (Test source rs1 = x17)
  RVTEST_TESTDATA_LOAD_INT(x18, x22) # load rs2: x22 = 0xa0159b37
     3e0:	00092b03          	lw	x22,0(x18)
     3e4:	00490913          	addi	x18,x18,4
  mv x17, x16 # move signature pointer register
     3e8:	00080893          	addi	x17,x16,0
  addi x17, x17, 1881 # adjust base address for offset
     3ec:	75988893          	addi	x17,x17,1881

000003f0 <I_sh_cg_cp_rs1_nx0_b17>:
I_sh_cg_cp_rs1_nx0_b17:
  sh x22, -1881(x17) # perform store
     3f0:	8b6893a3          	sh	x22,-1881(x17)
  addi x17, x17, -1881 # restore base address
     3f4:	8a788893          	addi	x17,x17,-1881
  addi x17, x17, SIG_STRIDE # increment signature pointer
     3f8:	00488893          	addi	x17,x17,4
#ifdef RVTEST_SELFCHECK
  LREG x5, -SIG_STRIDE(x17) # load stored value for checking
     3fc:	ffc8a283          	lw	x5,-4(x17)
  # Check if x5 contains the expected result. x17 is the signature ptr, x8 is the link ptr, x7 is a temp reg.
  RVTEST_SIGUPD(x17, x8, x7, x5, I_sh_cg_cp_rs1_nx0_b17, I_sh_cg_cp_rs1_nx0_b17_str)
     400:	0008a383          	lw	x7,0(x17)
     404:	00538863          	beq	x7,x5,414 <I_sh_cg_cp_rs1_nx0_b17+0x24>
     408:	2cc0146f          	jal	x8,16d4 <failedtest_x8_x7>
     40c:	000003f0          	.word	0x000003f0
     410:	000045aa          	.word	0x000045aa
     414:	00488893          	addi	x17,x17,4
  nop
  nop
  nop
#endif

  mv x6, x18 # switch data pointer register to avoid conflict with test
     418:	00090313          	addi	x6,x18,0
# Testcase cp_rs1_nx0 (Test source rs1 = x18)
  RVTEST_TESTDATA_LOAD_INT(x6, x22) # load rs2: x22 = 0x302779af
     41c:	00032b03          	lw	x22,0(x6)
     420:	00430313          	addi	x6,x6,4
  mv x18, x17 # move signature pointer register
     424:	00088913          	addi	x18,x17,0
  addi x18, x18, 427 # adjust base address for offset
     428:	1ab90913          	addi	x18,x18,427

0000042c <I_sh_cg_cp_rs1_nx0_b18>:
I_sh_cg_cp_rs1_nx0_b18:
  sh x22, -427(x18) # perform store
     42c:	e5691aa3          	sh	x22,-427(x18)
  addi x18, x18, -427 # restore base address
     430:	e5590913          	addi	x18,x18,-427
  addi x18, x18, SIG_STRIDE # increment signature pointer
     434:	00490913          	addi	x18,x18,4
#ifdef RVTEST_SELFCHECK
  LREG x9, -SIG_STRIDE(x18) # load stored value for checking
     438:	ffc92483          	lw	x9,-4(x18)
  # Check if x9 contains the expected result. x18 is the signature ptr, x8 is the link ptr, x7 is a temp reg.
  RVTEST_SIGUPD(x18, x8, x7, x9, I_sh_cg_cp_rs1_nx0_b18, I_sh_cg_cp_rs1_nx0_b18_str)
     43c:	00092383          	lw	x7,0(x18)
     440:	00938863          	beq	x7,x9,450 <I_sh_cg_cp_rs1_nx0_b18+0x24>
     444:	2900146f          	jal	x8,16d4 <failedtest_x8_x7>
     448:	0000042c          	.word	0x0000042c
     44c:	000045dc          	.word	0x000045dc
     450:	00490913          	addi	x18,x18,4
  nop
  nop
#endif

# Testcase cp_rs1_nx0 (Test source rs1 = x19)
  RVTEST_TESTDATA_LOAD_INT(x6, x20) # load rs2: x20 = 0xb82357e8
     454:	00032a03          	lw	x20,0(x6)
     458:	00430313          	addi	x6,x6,4
  mv x19, x18 # move signature pointer register
     45c:	00090993          	addi	x19,x18,0
  addi x19, x19, -747 # adjust base address for offset
     460:	d1598993          	addi	x19,x19,-747

00000464 <I_sh_cg_cp_rs1_nx0_b19>:
I_sh_cg_cp_rs1_nx0_b19:
  sh x20, 747(x19) # perform store
     464:	2f4995a3          	sh	x20,747(x19)
  addi x19, x19, 747 # restore base address
     468:	2eb98993          	addi	x19,x19,747
  addi x19, x19, SIG_STRIDE # increment signature pointer
     46c:	00498993          	addi	x19,x19,4
#ifdef RVTEST_SELFCHECK
  LREG x4, -SIG_STRIDE(x19) # load stored value for checking
     470:	ffc9a203          	lw	x4,-4(x19)
  # Check if x4 contains the expected result. x19 is the signature ptr, x8 is the link ptr, x7 is a temp reg.
  RVTEST_SIGUPD(x19, x8, x7, x4, I_sh_cg_cp_rs1_nx0_b19, I_sh_cg_cp_rs1_nx0_b19_str)
     474:	0009a383          	lw	x7,0(x19)
     478:	00438863          	beq	x7,x4,488 <I_sh_cg_cp_rs1_nx0_b19+0x24>
     47c:	2580146f          	jal	x8,16d4 <failedtest_x8_x7>
     480:	00000464          	.word	0x00000464
     484:	0000460e          	.word	0x0000460e
     488:	00498993          	addi	x19,x19,4
  nop
  nop
#endif

# Testcase cp_rs1_nx0 (Test source rs1 = x20)
  RVTEST_TESTDATA_LOAD_INT(x6, x30) # load rs2: x30 = 0xda6dc90b
     48c:	00032f03          	lw	x30,0(x6)
     490:	00430313          	addi	x6,x6,4
  mv x20, x19 # move signature pointer register
     494:	00098a13          	addi	x20,x19,0
  addi x20, x20, 399 # adjust base address for offset
     498:	18fa0a13          	addi	x20,x20,399

0000049c <I_sh_cg_cp_rs1_nx0_b20>:
I_sh_cg_cp_rs1_nx0_b20:
  sh x30, -399(x20) # perform store
     49c:	e7ea18a3          	sh	x30,-399(x20)
  addi x20, x20, -399 # restore base address
     4a0:	e71a0a13          	addi	x20,x20,-399
  addi x20, x20, SIG_STRIDE # increment signature pointer
     4a4:	004a0a13          	addi	x20,x20,4
#ifdef RVTEST_SELFCHECK
  LREG x17, -SIG_STRIDE(x20) # load stored value for checking
     4a8:	ffca2883          	lw	x17,-4(x20)
  # Check if x17 contains the expected result. x20 is the signature ptr, x8 is the link ptr, x7 is a temp reg.
  RVTEST_SIGUPD(x20, x8, x7, x17, I_sh_cg_cp_rs1_nx0_b20, I_sh_cg_cp_rs1_nx0_b20_str)
     4ac:	000a2383          	lw	x7,0(x20)
     4b0:	01138863          	beq	x7,x17,4c0 <I_sh_cg_cp_rs1_nx0_b20+0x24>
     4b4:	2200146f          	jal	x8,16d4 <failedtest_x8_x7>
     4b8:	0000049c          	.word	0x0000049c
     4bc:	00004640          	.word	0x00004640
     4c0:	004a0a13          	addi	x20,x20,4
  nop
  nop
#endif

# Testcase cp_rs1_nx0 (Test source rs1 = x21)
  RVTEST_TESTDATA_LOAD_INT(x6, x0) # load rs2: x0 = 0x81ab99b3
     4c4:	00032003          	lw	x0,0(x6)
     4c8:	00430313          	addi	x6,x6,4
  mv x21, x20 # move signature pointer register
     4cc:	000a0a93          	addi	x21,x20,0
  addi x21, x21, -774 # adjust base address for offset
     4d0:	cfaa8a93          	addi	x21,x21,-774

000004d4 <I_sh_cg_cp_rs1_nx0_b21>:
I_sh_cg_cp_rs1_nx0_b21:
  sh x0, 774(x21) # perform store
     4d4:	300a9323          	sh	x0,774(x21)
  addi x21, x21, 774 # restore base address
     4d8:	306a8a93          	addi	x21,x21,774
  addi x21, x21, SIG_STRIDE # increment signature pointer
     4dc:	004a8a93          	addi	x21,x21,4
#ifdef RVTEST_SELFCHECK
  LREG x3, -SIG_STRIDE(x21) # load stored value for checking
     4e0:	ffcaa183          	lw	x3,-4(x21)
  # Check if x3 contains the expected result. x21 is the signature ptr, x8 is the link ptr, x7 is a temp reg.
  RVTEST_SIGUPD(x21, x8, x7, x3, I_sh_cg_cp_rs1_nx0_b21, I_sh_cg_cp_rs1_nx0_b21_str)
     4e4:	000aa383          	lw	x7,0(x21)
     4e8:	00338863          	beq	x7,x3,4f8 <I_sh_cg_cp_rs1_nx0_b21+0x24>
     4ec:	1e80146f          	jal	x8,16d4 <failedtest_x8_x7>
     4f0:	000004d4          	.word	0x000004d4
     4f4:	00004672          	.word	0x00004672
     4f8:	004a8a93          	addi	x21,x21,4
  nop
  nop
#endif

# Testcase cp_rs1_nx0 (Test source rs1 = x22)
  RVTEST_TESTDATA_LOAD_INT(x6, x15) # load rs2: x15 = 0x08541d76
     4fc:	00032783          	lw	x15,0(x6)
     500:	00430313          	addi	x6,x6,4
  mv x22, x21 # move signature pointer register
     504:	000a8b13          	addi	x22,x21,0
  addi x22, x22, 304 # adjust base address for offset
     508:	130b0b13          	addi	x22,x22,304

0000050c <I_sh_cg_cp_rs1_nx0_b22>:
I_sh_cg_cp_rs1_nx0_b22:
  sh x15, -304(x22) # perform store
     50c:	ecfb1823          	sh	x15,-304(x22)
  addi x22, x22, -304 # restore base address
     510:	ed0b0b13          	addi	x22,x22,-304
  addi x22, x22, SIG_STRIDE # increment signature pointer
     514:	004b0b13          	addi	x22,x22,4
#ifdef RVTEST_SELFCHECK
  LREG x24, -SIG_STRIDE(x22) # load stored value for checking
     518:	ffcb2c03          	lw	x24,-4(x22)
  # Check if x24 contains the expected result. x22 is the signature ptr, x8 is the link ptr, x7 is a temp reg.
  RVTEST_SIGUPD(x22, x8, x7, x24, I_sh_cg_cp_rs1_nx0_b22, I_sh_cg_cp_rs1_nx0_b22_str)
     51c:	000b2383          	lw	x7,0(x22)
     520:	01838863          	beq	x7,x24,530 <I_sh_cg_cp_rs1_nx0_b22+0x24>
     524:	1b00146f          	jal	x8,16d4 <failedtest_x8_x7>
     528:	0000050c          	.word	0x0000050c
     52c:	000046a4          	.word	0x000046a4
     530:	004b0b13          	addi	x22,x22,4
  nop
  nop
#endif

# Testcase cp_rs1_nx0 (Test source rs1 = x23)
  RVTEST_TESTDATA_LOAD_INT(x6, x0) # load rs2: x0 = 0xf7821dd1
     534:	00032003          	lw	x0,0(x6)
     538:	00430313          	addi	x6,x6,4
  mv x23, x22 # move signature pointer register
     53c:	000b0b93          	addi	x23,x22,0
  addi x23, x23, 1526 # adjust base address for offset
     540:	5f6b8b93          	addi	x23,x23,1526

00000544 <I_sh_cg_cp_rs1_nx0_b23>:
I_sh_cg_cp_rs1_nx0_b23:
  sh x0, -1526(x23) # perform store
     544:	a00b9523          	sh	x0,-1526(x23)
  addi x23, x23, -1526 # restore base address
     548:	a0ab8b93          	addi	x23,x23,-1526
  addi x23, x23, SIG_STRIDE # increment signature pointer
     54c:	004b8b93          	addi	x23,x23,4
#ifdef RVTEST_SELFCHECK
  LREG x12, -SIG_STRIDE(x23) # load stored value for checking
     550:	ffcba603          	lw	x12,-4(x23)
  # Check if x12 contains the expected result. x23 is the signature ptr, x8 is the link ptr, x7 is a temp reg.
  RVTEST_SIGUPD(x23, x8, x7, x12, I_sh_cg_cp_rs1_nx0_b23, I_sh_cg_cp_rs1_nx0_b23_str)
     554:	000ba383          	lw	x7,0(x23)
     558:	00c38863          	beq	x7,x12,568 <I_sh_cg_cp_rs1_nx0_b23+0x24>
     55c:	1780146f          	jal	x8,16d4 <failedtest_x8_x7>
     560:	00000544          	.word	0x00000544
     564:	000046d6          	.word	0x000046d6
     568:	004b8b93          	addi	x23,x23,4
  nop
  nop
#endif

# Testcase cp_rs1_nx0 (Test source rs1 = x24)
  RVTEST_TESTDATA_LOAD_INT(x6, x25) # load rs2: x25 = 0xaec2d9d6
     56c:	00032c83          	lw	x25,0(x6)
     570:	00430313          	addi	x6,x6,4
  mv x24, x23 # move signature pointer register
     574:	000b8c13          	addi	x24,x23,0
  addi x24, x24, 580 # adjust base address for offset
     578:	244c0c13          	addi	x24,x24,580

0000057c <I_sh_cg_cp_rs1_nx0_b24>:
I_sh_cg_cp_rs1_nx0_b24:
  sh x25, -580(x24) # perform store
     57c:	db9c1e23          	sh	x25,-580(x24)
  addi x24, x24, -580 # restore base address
     580:	dbcc0c13          	addi	x24,x24,-580
  addi x24, x24, SIG_STRIDE # increment signature pointer
     584:	004c0c13          	addi	x24,x24,4
#ifdef RVTEST_SELFCHECK
  LREG x26, -SIG_STRIDE(x24) # load stored value for checking
     588:	ffcc2d03          	lw	x26,-4(x24)
  # Check if x26 contains the expected result. x24 is the signature ptr, x8 is the link ptr, x7 is a temp reg.
  RVTEST_SIGUPD(x24, x8, x7, x26, I_sh_cg_cp_rs1_nx0_b24, I_sh_cg_cp_rs1_nx0_b24_str)
     58c:	000c2383          	lw	x7,0(x24)
     590:	01a38863          	beq	x7,x26,5a0 <I_sh_cg_cp_rs1_nx0_b24+0x24>
     594:	1400146f          	jal	x8,16d4 <failedtest_x8_x7>
     598:	0000057c          	.word	0x0000057c
     59c:	00004708          	.word	0x00004708
     5a0:	004c0c13          	addi	x24,x24,4
  nop
  nop
#endif

# Testcase cp_rs1_nx0 (Test source rs1 = x25)
  RVTEST_TESTDATA_LOAD_INT(x6, x12) # load rs2: x12 = 0xd4281687
     5a4:	00032603          	lw	x12,0(x6)
     5a8:	00430313          	addi	x6,x6,4
  mv x25, x24 # move signature pointer register
     5ac:	000c0c93          	addi	x25,x24,0
  addi x25, x25, 571 # adjust base address for offset
     5b0:	23bc8c93          	addi	x25,x25,571

000005b4 <I_sh_cg_cp_rs1_nx0_b25>:
I_sh_cg_cp_rs1_nx0_b25:
  sh x12, -571(x25) # perform store
     5b4:	dccc92a3          	sh	x12,-571(x25)
  addi x25, x25, -571 # restore base address
     5b8:	dc5c8c93          	addi	x25,x25,-571
  addi x25, x25, SIG_STRIDE # increment signature pointer
     5bc:	004c8c93          	addi	x25,x25,4
#ifdef RVTEST_SELFCHECK
  LREG x17, -SIG_STRIDE(x25) # load stored value for checking
     5c0:	ffcca883          	lw	x17,-4(x25)
  # Check if x17 contains the expected result. x25 is the signature ptr, x8 is the link ptr, x7 is a temp reg.
  RVTEST_SIGUPD(x25, x8, x7, x17, I_sh_cg_cp_rs1_nx0_b25, I_sh_cg_cp_rs1_nx0_b25_str)
     5c4:	000ca383          	lw	x7,0(x25)
     5c8:	01138863          	beq	x7,x17,5d8 <I_sh_cg_cp_rs1_nx0_b25+0x24>
     5cc:	1080146f          	jal	x8,16d4 <failedtest_x8_x7>
     5d0:	000005b4          	.word	0x000005b4
     5d4:	0000473a          	.word	0x0000473a
     5d8:	004c8c93          	addi	x25,x25,4
  nop
  nop
#endif

# Testcase cp_rs1_nx0 (Test source rs1 = x26)
  RVTEST_TESTDATA_LOAD_INT(x6, x31) # load rs2: x31 = 0xe702d8aa
     5dc:	00032f83          	lw	x31,0(x6)
     5e0:	00430313          	addi	x6,x6,4
  mv x26, x25 # move signature pointer register
     5e4:	000c8d13          	addi	x26,x25,0
  addi x26, x26, -1304 # adjust base address for offset
     5e8:	ae8d0d13          	addi	x26,x26,-1304

000005ec <I_sh_cg_cp_rs1_nx0_b26>:
I_sh_cg_cp_rs1_nx0_b26:
  sh x31, 1304(x26) # perform store
     5ec:	51fd1c23          	sh	x31,1304(x26)
  addi x26, x26, 1304 # restore base address
     5f0:	518d0d13          	addi	x26,x26,1304
  addi x26, x26, SIG_STRIDE # increment signature pointer
     5f4:	004d0d13          	addi	x26,x26,4
#ifdef RVTEST_SELFCHECK
  LREG x16, -SIG_STRIDE(x26) # load stored value for checking
     5f8:	ffcd2803          	lw	x16,-4(x26)
  # Check if x16 contains the expected result. x26 is the signature ptr, x8 is the link ptr, x7 is a temp reg.
  RVTEST_SIGUPD(x26, x8, x7, x16, I_sh_cg_cp_rs1_nx0_b26, I_sh_cg_cp_rs1_nx0_b26_str)
     5fc:	000d2383          	lw	x7,0(x26)
     600:	01038863          	beq	x7,x16,610 <I_sh_cg_cp_rs1_nx0_b26+0x24>
     604:	0d00146f          	jal	x8,16d4 <failedtest_x8_x7>
     608:	000005ec          	.word	0x000005ec
     60c:	0000476c          	.word	0x0000476c
     610:	004d0d13          	addi	x26,x26,4
  nop
  nop
#endif

# Testcase cp_rs1_nx0 (Test source rs1 = x27)
  RVTEST_TESTDATA_LOAD_INT(x6, x21) # load rs2: x21 = 0x01e5b978
     614:	00032a83          	lw	x21,0(x6)
     618:	00430313          	addi	x6,x6,4
  mv x27, x26 # move signature pointer register
     61c:	000d0d93          	addi	x27,x26,0
  addi x27, x27, 737 # adjust base address for offset
     620:	2e1d8d93          	addi	x27,x27,737

00000624 <I_sh_cg_cp_rs1_nx0_b27>:
I_sh_cg_cp_rs1_nx0_b27:
  sh x21, -737(x27) # perform store
     624:	d15d9fa3          	sh	x21,-737(x27)
  addi x27, x27, -737 # restore base address
     628:	d1fd8d93          	addi	x27,x27,-737
  addi x27, x27, SIG_STRIDE # increment signature pointer
     62c:	004d8d93          	addi	x27,x27,4
#ifdef RVTEST_SELFCHECK
  LREG x22, -SIG_STRIDE(x27) # load stored value for checking
     630:	ffcdab03          	lw	x22,-4(x27)
  # Check if x22 contains the expected result. x27 is the signature ptr, x8 is the link ptr, x7 is a temp reg.
  RVTEST_SIGUPD(x27, x8, x7, x22, I_sh_cg_cp_rs1_nx0_b27, I_sh_cg_cp_rs1_nx0_b27_str)
     634:	000da383          	lw	x7,0(x27)
     638:	01638863          	beq	x7,x22,648 <I_sh_cg_cp_rs1_nx0_b27+0x24>
     63c:	0980146f          	jal	x8,16d4 <failedtest_x8_x7>
     640:	00000624          	.word	0x00000624
     644:	0000479e          	.word	0x0000479e
     648:	004d8d93          	addi	x27,x27,4
  nop
  nop
#endif

# Testcase cp_rs1_nx0 (Test source rs1 = x28)
  RVTEST_TESTDATA_LOAD_INT(x6, x11) # load rs2: x11 = 0x86d2a7fa
     64c:	00032583          	lw	x11,0(x6)
     650:	00430313          	addi	x6,x6,4
  mv x28, x27 # move signature pointer register
     654:	000d8e13          	addi	x28,x27,0
  addi x28, x28, -1722 # adjust base address for offset
     658:	946e0e13          	addi	x28,x28,-1722

0000065c <I_sh_cg_cp_rs1_nx0_b28>:
I_sh_cg_cp_rs1_nx0_b28:
  sh x11, 1722(x28) # perform store
     65c:	6abe1d23          	sh	x11,1722(x28)
  addi x28, x28, 1722 # restore base address
     660:	6bae0e13          	addi	x28,x28,1722
  addi x28, x28, SIG_STRIDE # increment signature pointer
     664:	004e0e13          	addi	x28,x28,4
#ifdef RVTEST_SELFCHECK
  LREG x23, -SIG_STRIDE(x28) # load stored value for checking
     668:	ffce2b83          	lw	x23,-4(x28)
  # Check if x23 contains the expected result. x28 is the signature ptr, x8 is the link ptr, x7 is a temp reg.
  RVTEST_SIGUPD(x28, x8, x7, x23, I_sh_cg_cp_rs1_nx0_b28, I_sh_cg_cp_rs1_nx0_b28_str)
     66c:	000e2383          	lw	x7,0(x28)
     670:	01738863          	beq	x7,x23,680 <I_sh_cg_cp_rs1_nx0_b28+0x24>
     674:	0600146f          	jal	x8,16d4 <failedtest_x8_x7>
     678:	0000065c          	.word	0x0000065c
     67c:	000047d0          	.word	0x000047d0
     680:	004e0e13          	addi	x28,x28,4
  nop
  nop
#endif

# Testcase cp_rs1_nx0 (Test source rs1 = x29)
  RVTEST_TESTDATA_LOAD_INT(x6, x4) # load rs2: x4 = 0xf8a72a68
     684:	00032203          	lw	x4,0(x6)
     688:	00430313          	addi	x6,x6,4
  mv x29, x28 # move signature pointer register
     68c:	000e0e93          	addi	x29,x28,0
  addi x29, x29, -1915 # adjust base address for offset
     690:	885e8e93          	addi	x29,x29,-1915

00000694 <I_sh_cg_cp_rs1_nx0_b29>:
I_sh_cg_cp_rs1_nx0_b29:
  sh x4, 1915(x29) # perform store
     694:	764e9da3          	sh	x4,1915(x29)
  addi x29, x29, 1915 # restore base address
     698:	77be8e93          	addi	x29,x29,1915
  addi x29, x29, SIG_STRIDE # increment signature pointer
     69c:	004e8e93          	addi	x29,x29,4
#ifdef RVTEST_SELFCHECK
  LREG x31, -SIG_STRIDE(x29) # load stored value for checking
     6a0:	ffceaf83          	lw	x31,-4(x29)
  # Check if x31 contains the expected result. x29 is the signature ptr, x8 is the link ptr, x7 is a temp reg.
  RVTEST_SIGUPD(x29, x8, x7, x31, I_sh_cg_cp_rs1_nx0_b29, I_sh_cg_cp_rs1_nx0_b29_str)
     6a4:	000ea383          	lw	x7,0(x29)
     6a8:	01f38863          	beq	x7,x31,6b8 <I_sh_cg_cp_rs1_nx0_b29+0x24>
     6ac:	0280146f          	jal	x8,16d4 <failedtest_x8_x7>
     6b0:	00000694          	.word	0x00000694
     6b4:	00004802          	.word	0x00004802
     6b8:	004e8e93          	addi	x29,x29,4
  nop
  nop
#endif

# Testcase cp_rs1_nx0 (Test source rs1 = x30)
  RVTEST_TESTDATA_LOAD_INT(x6, x23) # load rs2: x23 = 0xfc259537
     6bc:	00032b83          	lw	x23,0(x6)
     6c0:	00430313          	addi	x6,x6,4
  mv x30, x29 # move signature pointer register
     6c4:	000e8f13          	addi	x30,x29,0
  addi x30, x30, -20 # adjust base address for offset
     6c8:	fecf0f13          	addi	x30,x30,-20

000006cc <I_sh_cg_cp_rs1_nx0_b30>:
I_sh_cg_cp_rs1_nx0_b30:
  sh x23, 20(x30) # perform store
     6cc:	017f1a23          	sh	x23,20(x30)
  addi x30, x30, 20 # restore base address
     6d0:	014f0f13          	addi	x30,x30,20
  addi x30, x30, SIG_STRIDE # increment signature pointer
     6d4:	004f0f13          	addi	x30,x30,4
#ifdef RVTEST_SELFCHECK
  LREG x19, -SIG_STRIDE(x30) # load stored value for checking
     6d8:	ffcf2983          	lw	x19,-4(x30)
  # Check if x19 contains the expected result. x30 is the signature ptr, x8 is the link ptr, x7 is a temp reg.
  RVTEST_SIGUPD(x30, x8, x7, x19, I_sh_cg_cp_rs1_nx0_b30, I_sh_cg_cp_rs1_nx0_b30_str)
     6dc:	000f2383          	lw	x7,0(x30)
     6e0:	01338863          	beq	x7,x19,6f0 <I_sh_cg_cp_rs1_nx0_b30+0x24>
     6e4:	7f10046f          	jal	x8,16d4 <failedtest_x8_x7>
     6e8:	000006cc          	.word	0x000006cc
     6ec:	00004834          	.word	0x00004834
     6f0:	004f0f13          	addi	x30,x30,4
  nop
  nop
#endif

# Testcase cp_rs1_nx0 (Test source rs1 = x31)
  RVTEST_TESTDATA_LOAD_INT(x6, x16) # load rs2: x16 = 0x0fb52606
     6f4:	00032803          	lw	x16,0(x6)
     6f8:	00430313          	addi	x6,x6,4
  mv x31, x30 # move signature pointer register
     6fc:	000f0f93          	addi	x31,x30,0
  addi x31, x31, -1723 # adjust base address for offset
     700:	945f8f93          	addi	x31,x31,-1723

00000704 <I_sh_cg_cp_rs1_nx0_b31>:
I_sh_cg_cp_rs1_nx0_b31:
  sh x16, 1723(x31) # perform store
     704:	6b0f9da3          	sh	x16,1723(x31)
  addi x31, x31, 1723 # restore base address
     708:	6bbf8f93          	addi	x31,x31,1723
  addi x31, x31, SIG_STRIDE # increment signature pointer
     70c:	004f8f93          	addi	x31,x31,4
#ifdef RVTEST_SELFCHECK
  LREG x29, -SIG_STRIDE(x31) # load stored value for checking
     710:	ffcfae83          	lw	x29,-4(x31)
  # Check if x29 contains the expected result. x31 is the signature ptr, x8 is the link ptr, x7 is a temp reg.
  RVTEST_SIGUPD(x31, x8, x7, x29, I_sh_cg_cp_rs1_nx0_b31, I_sh_cg_cp_rs1_nx0_b31_str)
     714:	000fa383          	lw	x7,0(x31)
     718:	01d38863          	beq	x7,x29,728 <I_sh_cg_cp_rs1_nx0_b31+0x24>
     71c:	7b90046f          	jal	x8,16d4 <failedtest_x8_x7>
     720:	00000704          	.word	0x00000704
     724:	00004866          	.word	0x00004866
     728:	004f8f93          	addi	x31,x31,4
/////////////////////////////////
// cp_rs2
/////////////////////////////////

# Testcase cp_rs2 (Test source rs2 = x0)
  RVTEST_TESTDATA_LOAD_INT(x6, x0) # load rs2: x0 = 0x9013d4a8
     72c:	00032003          	lw	x0,0(x6)
     730:	00430313          	addi	x6,x6,4
  mv x20, x31 # move signature pointer register
     734:	000f8a13          	addi	x20,x31,0
  addi x20, x20, 352 # adjust base address for offset
     738:	160a0a13          	addi	x20,x20,352

0000073c <I_sh_cg_cp_rs2_b0>:
I_sh_cg_cp_rs2_b0:
  sh x0, -352(x20) # perform store
     73c:	ea0a1023          	sh	x0,-352(x20)
  addi x20, x20, -352 # restore base address
     740:	ea0a0a13          	addi	x20,x20,-352
  addi x20, x20, SIG_STRIDE # increment signature pointer
     744:	004a0a13          	addi	x20,x20,4
#ifdef RVTEST_SELFCHECK
  LREG x3, -SIG_STRIDE(x20) # load stored value for checking
     748:	ffca2183          	lw	x3,-4(x20)
  # Check if x3 contains the expected result. x20 is the signature ptr, x8 is the link ptr, x7 is a temp reg.
  RVTEST_SIGUPD(x20, x8, x7, x3, I_sh_cg_cp_rs2_b0, I_sh_cg_cp_rs2_b0_str)
     74c:	000a2383          	lw	x7,0(x20)
     750:	00338863          	beq	x7,x3,760 <I_sh_cg_cp_rs2_b0+0x24>
     754:	7810046f          	jal	x8,16d4 <failedtest_x8_x7>
     758:	0000073c          	.word	0x0000073c
     75c:	00004898          	.word	0x00004898
     760:	004a0a13          	addi	x20,x20,4
  nop
  nop
#endif

# Testcase cp_rs2 (Test source rs2 = x1)
  RVTEST_TESTDATA_LOAD_INT(x6, x1) # load rs2: x1 = 0xff157562
     764:	00032083          	lw	x1,0(x6)
     768:	00430313          	addi	x6,x6,4
  mv x28, x20 # move signature pointer register
     76c:	000a0e13          	addi	x28,x20,0
  addi x28, x28, 1663 # adjust base address for offset
     770:	67fe0e13          	addi	x28,x28,1663

00000774 <I_sh_cg_cp_rs2_b1>:
I_sh_cg_cp_rs2_b1:
  sh x1, -1663(x28) # perform store
     774:	981e10a3          	sh	x1,-1663(x28)
  addi x28, x28, -1663 # restore base address
     778:	981e0e13          	addi	x28,x28,-1663
  addi x28, x28, SIG_STRIDE # increment signature pointer
     77c:	004e0e13          	addi	x28,x28,4
#ifdef RVTEST_SELFCHECK
  LREG x18, -SIG_STRIDE(x28) # load stored value for checking
     780:	ffce2903          	lw	x18,-4(x28)
  # Check if x18 contains the expected result. x28 is the signature ptr, x8 is the link ptr, x7 is a temp reg.
  RVTEST_SIGUPD(x28, x8, x7, x18, I_sh_cg_cp_rs2_b1, I_sh_cg_cp_rs2_b1_str)
     784:	000e2383          	lw	x7,0(x28)
     788:	01238863          	beq	x7,x18,798 <I_sh_cg_cp_rs2_b1+0x24>
     78c:	7490046f          	jal	x8,16d4 <failedtest_x8_x7>
     790:	00000774          	.word	0x00000774
     794:	000048c5          	.word	0x000048c5
     798:	004e0e13          	addi	x28,x28,4
  nop
  nop
#endif

# Testcase cp_rs2 (Test source rs2 = x2)
  RVTEST_TESTDATA_LOAD_INT(x6, x2) # load rs2: x2 = 0x95575ee7
     79c:	00032103          	lw	x2,0(x6)
     7a0:	00430313          	addi	x6,x6,4
  mv x22, x28 # move signature pointer register
     7a4:	000e0b13          	addi	x22,x28,0
  addi x22, x22, -1111 # adjust base address for offset
     7a8:	ba9b0b13          	addi	x22,x22,-1111

000007ac <I_sh_cg_cp_rs2_b2>:
I_sh_cg_cp_rs2_b2:
  sh x2, 1111(x22) # perform store
     7ac:	442b1ba3          	sh	x2,1111(x22)
  addi x22, x22, 1111 # restore base address
     7b0:	457b0b13          	addi	x22,x22,1111
  addi x22, x22, SIG_STRIDE # increment signature pointer
     7b4:	004b0b13          	addi	x22,x22,4
#ifdef RVTEST_SELFCHECK
  LREG x27, -SIG_STRIDE(x22) # load stored value for checking
     7b8:	ffcb2d83          	lw	x27,-4(x22)
  # Check if x27 contains the expected result. x22 is the signature ptr, x8 is the link ptr, x7 is a temp reg.
  RVTEST_SIGUPD(x22, x8, x7, x27, I_sh_cg_cp_rs2_b2, I_sh_cg_cp_rs2_b2_str)
     7bc:	000b2383          	lw	x7,0(x22)
     7c0:	01b38863          	beq	x7,x27,7d0 <I_sh_cg_cp_rs2_b2+0x24>
     7c4:	7110046f          	jal	x8,16d4 <failedtest_x8_x7>
     7c8:	000007ac          	.word	0x000007ac
     7cc:	000048f2          	.word	0x000048f2
     7d0:	004b0b13          	addi	x22,x22,4
  nop
  nop
#endif

# Testcase cp_rs2 (Test source rs2 = x3)
  RVTEST_TESTDATA_LOAD_INT(x6, x3) # load rs2: x3 = 0x0d99a743
     7d4:	00032183          	lw	x3,0(x6)
     7d8:	00430313          	addi	x6,x6,4
  mv x27, x22 # move signature pointer register
     7dc:	000b0d93          	addi	x27,x22,0
  addi x27, x27, -243 # adjust base address for offset
     7e0:	f0dd8d93          	addi	x27,x27,-243

000007e4 <I_sh_cg_cp_rs2_b3>:
I_sh_cg_cp_rs2_b3:
  sh x3, 243(x27) # perform store
     7e4:	0e3d99a3          	sh	x3,243(x27)
  addi x27, x27, 243 # restore base address
     7e8:	0f3d8d93          	addi	x27,x27,243
  addi x27, x27, SIG_STRIDE # increment signature pointer
     7ec:	004d8d93          	addi	x27,x27,4
#ifdef RVTEST_SELFCHECK
  LREG x16, -SIG_STRIDE(x27) # load stored value for checking
     7f0:	ffcda803          	lw	x16,-4(x27)
  # Check if x16 contains the expected result. x27 is the signature ptr, x8 is the link ptr, x7 is a temp reg.
  RVTEST_SIGUPD(x27, x8, x7, x16, I_sh_cg_cp_rs2_b3, I_sh_cg_cp_rs2_b3_str)
     7f4:	000da383          	lw	x7,0(x27)
     7f8:	01038863          	beq	x7,x16,808 <I_sh_cg_cp_rs2_b3+0x24>
     7fc:	6d90046f          	jal	x8,16d4 <failedtest_x8_x7>
     800:	000007e4          	.word	0x000007e4
     804:	0000491f          	.word	0x0000491f
     808:	004d8d93          	addi	x27,x27,4
  nop
  nop
#endif

# Testcase cp_rs2 (Test source rs2 = x4)
  RVTEST_TESTDATA_LOAD_INT(x6, x4) # load rs2: x4 = 0xe34a8b9f
     80c:	00032203          	lw	x4,0(x6)
     810:	00430313          	addi	x6,x6,4
  mv x30, x27 # move signature pointer register
     814:	000d8f13          	addi	x30,x27,0
  addi x30, x30, 727 # adjust base address for offset
     818:	2d7f0f13          	addi	x30,x30,727

0000081c <I_sh_cg_cp_rs2_b4>:
I_sh_cg_cp_rs2_b4:
  sh x4, -727(x30) # perform store
     81c:	d24f14a3          	sh	x4,-727(x30)
  addi x30, x30, -727 # restore base address
     820:	d29f0f13          	addi	x30,x30,-727
  addi x30, x30, SIG_STRIDE # increment signature pointer
     824:	004f0f13          	addi	x30,x30,4
#ifdef RVTEST_SELFCHECK
  LREG x11, -SIG_STRIDE(x30) # load stored value for checking
     828:	ffcf2583          	lw	x11,-4(x30)
  # Check if x11 contains the expected result. x30 is the signature ptr, x8 is the link ptr, x7 is a temp reg.
  RVTEST_SIGUPD(x30, x8, x7, x11, I_sh_cg_cp_rs2_b4, I_sh_cg_cp_rs2_b4_str)
     82c:	000f2383          	lw	x7,0(x30)
     830:	00b38863          	beq	x7,x11,840 <I_sh_cg_cp_rs2_b4+0x24>
     834:	6a10046f          	jal	x8,16d4 <failedtest_x8_x7>
     838:	0000081c          	.word	0x0000081c
     83c:	0000494c          	.word	0x0000494c
     840:	004f0f13          	addi	x30,x30,4
  nop
  nop
#endif

# Testcase cp_rs2 (Test source rs2 = x5)
  RVTEST_TESTDATA_LOAD_INT(x6, x5) # load rs2: x5 = 0x7adc0ce8
     844:	00032283          	lw	x5,0(x6)
     848:	00430313          	addi	x6,x6,4
  mv x19, x30 # move signature pointer register
     84c:	000f0993          	addi	x19,x30,0
  addi x19, x19, 1034 # adjust base address for offset
     850:	40a98993          	addi	x19,x19,1034

00000854 <I_sh_cg_cp_rs2_b5>:
I_sh_cg_cp_rs2_b5:
  sh x5, -1034(x19) # perform store
     854:	be599b23          	sh	x5,-1034(x19)
  addi x19, x19, -1034 # restore base address
     858:	bf698993          	addi	x19,x19,-1034
  addi x19, x19, SIG_STRIDE # increment signature pointer
     85c:	00498993          	addi	x19,x19,4
#ifdef RVTEST_SELFCHECK
  LREG x20, -SIG_STRIDE(x19) # load stored value for checking
     860:	ffc9aa03          	lw	x20,-4(x19)
  # Check if x20 contains the expected result. x19 is the signature ptr, x8 is the link ptr, x7 is a temp reg.
  RVTEST_SIGUPD(x19, x8, x7, x20, I_sh_cg_cp_rs2_b5, I_sh_cg_cp_rs2_b5_str)
     864:	0009a383          	lw	x7,0(x19)
     868:	01438863          	beq	x7,x20,878 <I_sh_cg_cp_rs2_b5+0x24>
     86c:	6690046f          	jal	x8,16d4 <failedtest_x8_x7>
     870:	00000854          	.word	0x00000854
     874:	00004979          	.word	0x00004979
     878:	00498993          	addi	x19,x19,4
  nop
  nop
  nop
#endif

  mv x9, x6 # switch data pointer register to avoid conflict with test
     87c:	00030493          	addi	x9,x6,0
# Testcase cp_rs2 (Test source rs2 = x6)
  RVTEST_TESTDATA_LOAD_INT(x9, x6) # load rs2: x6 = 0xe58b7443
     880:	0004a303          	lw	x6,0(x9)
     884:	00448493          	addi	x9,x9,4
  mv x29, x19 # move signature pointer register
     888:	00098e93          	addi	x29,x19,0
  addi x29, x29, 529 # adjust base address for offset
     88c:	211e8e93          	addi	x29,x29,529

00000890 <I_sh_cg_cp_rs2_b6>:
I_sh_cg_cp_rs2_b6:
  sh x6, -529(x29) # perform store
     890:	de6e97a3          	sh	x6,-529(x29)
  addi x29, x29, -529 # restore base address
     894:	defe8e93          	addi	x29,x29,-529
  addi x29, x29, SIG_STRIDE # increment signature pointer
     898:	004e8e93          	addi	x29,x29,4
#ifdef RVTEST_SELFCHECK
  LREG x24, -SIG_STRIDE(x29) # load stored value for checking
     89c:	ffceac03          	lw	x24,-4(x29)
  # Check if x24 contains the expected result. x29 is the signature ptr, x8 is the link ptr, x7 is a temp reg.
  RVTEST_SIGUPD(x29, x8, x7, x24, I_sh_cg_cp_rs2_b6, I_sh_cg_cp_rs2_b6_str)
     8a0:	000ea383          	lw	x7,0(x29)
     8a4:	01838863          	beq	x7,x24,8b4 <I_sh_cg_cp_rs2_b6+0x24>
     8a8:	62d0046f          	jal	x8,16d4 <failedtest_x8_x7>
     8ac:	00000890          	.word	0x00000890
     8b0:	000049a6          	.word	0x000049a6
     8b4:	004e8e93          	addi	x29,x29,4
  nop
  nop
  nop
#endif

  mv x4, x7 # switch temp register to avoid conflict with test
     8b8:	00038213          	addi	x4,x7,0
  mv x5, x8 # switch link pointer register to avoid conflict with test
     8bc:	00040293          	addi	x5,x8,0
# Testcase cp_rs2 (Test source rs2 = x7)
  RVTEST_TESTDATA_LOAD_INT(x9, x7) # load rs2: x7 = 0xaef2cba1
     8c0:	0004a383          	lw	x7,0(x9)
     8c4:	00448493          	addi	x9,x9,4
  mv x30, x29 # move signature pointer register
     8c8:	000e8f13          	addi	x30,x29,0
  addi x30, x30, 883 # adjust base address for offset
     8cc:	373f0f13          	addi	x30,x30,883

000008d0 <I_sh_cg_cp_rs2_b7>:
I_sh_cg_cp_rs2_b7:
  sh x7, -883(x30) # perform store
     8d0:	c87f16a3          	sh	x7,-883(x30)
  addi x30, x30, -883 # restore base address
     8d4:	c8df0f13          	addi	x30,x30,-883
  addi x30, x30, SIG_STRIDE # increment signature pointer
     8d8:	004f0f13          	addi	x30,x30,4
#ifdef RVTEST_SELFCHECK
  LREG x28, -SIG_STRIDE(x30) # load stored value for checking
     8dc:	ffcf2e03          	lw	x28,-4(x30)
  # Check if x28 contains the expected result. x30 is the signature ptr, x5 is the link ptr, x4 is a temp reg.
  RVTEST_SIGUPD(x30, x5, x4, x28, I_sh_cg_cp_rs2_b7, I_sh_cg_cp_rs2_b7_str)
     8e0:	000f2203          	lw	x4,0(x30)
     8e4:	01c20863          	beq	x4,x28,8f4 <I_sh_cg_cp_rs2_b7+0x24>
     8e8:	5d5002ef          	jal	x5,16bc <failedtest_x5_x4>
     8ec:	000008d0          	.word	0x000008d0
     8f0:	000049d3          	.word	0x000049d3
     8f4:	004f0f13          	addi	x30,x30,4
  nop
  nop
#endif

# Testcase cp_rs2 (Test source rs2 = x8)
  RVTEST_TESTDATA_LOAD_INT(x9, x8) # load rs2: x8 = 0x93061109
     8f8:	0004a403          	lw	x8,0(x9)
     8fc:	00448493          	addi	x9,x9,4
  mv x25, x30 # move signature pointer register
     900:	000f0c93          	addi	x25,x30,0
  addi x25, x25, -791 # adjust base address for offset
     904:	ce9c8c93          	addi	x25,x25,-791

00000908 <I_sh_cg_cp_rs2_b8>:
I_sh_cg_cp_rs2_b8:
  sh x8, 791(x25) # perform store
     908:	308c9ba3          	sh	x8,791(x25)
  addi x25, x25, 791 # restore base address
     90c:	317c8c93          	addi	x25,x25,791
  addi x25, x25, SIG_STRIDE # increment signature pointer
     910:	004c8c93          	addi	x25,x25,4
#ifdef RVTEST_SELFCHECK
  LREG x13, -SIG_STRIDE(x25) # load stored value for checking
     914:	ffcca683          	lw	x13,-4(x25)
  # Check if x13 contains the expected result. x25 is the signature ptr, x5 is the link ptr, x4 is a temp reg.
  RVTEST_SIGUPD(x25, x5, x4, x13, I_sh_cg_cp_rs2_b8, I_sh_cg_cp_rs2_b8_str)
     918:	000ca203          	lw	x4,0(x25)
     91c:	00d20863          	beq	x4,x13,92c <I_sh_cg_cp_rs2_b8+0x24>
     920:	59d002ef          	jal	x5,16bc <failedtest_x5_x4>
     924:	00000908          	.word	0x00000908
     928:	00004a00          	.word	0x00004a00
     92c:	004c8c93          	addi	x25,x25,4
  nop
  nop
  nop
#endif

  mv x31, x9 # switch data pointer register to avoid conflict with test
     930:	00048f93          	addi	x31,x9,0
# Testcase cp_rs2 (Test source rs2 = x9)
  RVTEST_TESTDATA_LOAD_INT(x31, x9) # load rs2: x9 = 0x0186b064
     934:	000fa483          	lw	x9,0(x31)
     938:	004f8f93          	addi	x31,x31,4
  mv x20, x25 # move signature pointer register
     93c:	000c8a13          	addi	x20,x25,0
  addi x20, x20, -478 # adjust base address for offset
     940:	e22a0a13          	addi	x20,x20,-478

00000944 <I_sh_cg_cp_rs2_b9>:
I_sh_cg_cp_rs2_b9:
  sh x9, 478(x20) # perform store
     944:	1c9a1f23          	sh	x9,478(x20)
  addi x20, x20, 478 # restore base address
     948:	1dea0a13          	addi	x20,x20,478
  addi x20, x20, SIG_STRIDE # increment signature pointer
     94c:	004a0a13          	addi	x20,x20,4
#ifdef RVTEST_SELFCHECK
  LREG x26, -SIG_STRIDE(x20) # load stored value for checking
     950:	ffca2d03          	lw	x26,-4(x20)
  # Check if x26 contains the expected result. x20 is the signature ptr, x5 is the link ptr, x4 is a temp reg.
  RVTEST_SIGUPD(x20, x5, x4, x26, I_sh_cg_cp_rs2_b9, I_sh_cg_cp_rs2_b9_str)
     954:	000a2203          	lw	x4,0(x20)
     958:	01a20863          	beq	x4,x26,968 <I_sh_cg_cp_rs2_b9+0x24>
     95c:	561002ef          	jal	x5,16bc <failedtest_x5_x4>
     960:	00000944          	.word	0x00000944
     964:	00004a2d          	.word	0x00004a2d
     968:	004a0a13          	addi	x20,x20,4
  nop
  nop
#endif

# Testcase cp_rs2 (Test source rs2 = x10)
  RVTEST_TESTDATA_LOAD_INT(x31, x10) # load rs2: x10 = 0xbcf361a2
     96c:	000fa503          	lw	x10,0(x31)
     970:	004f8f93          	addi	x31,x31,4
  mv x3, x20 # move signature pointer register
     974:	000a0193          	addi	x3,x20,0
  addi x3, x3, 874 # adjust base address for offset
     978:	36a18193          	addi	x3,x3,874

0000097c <I_sh_cg_cp_rs2_b10>:
I_sh_cg_cp_rs2_b10:
  sh x10, -874(x3) # perform store
     97c:	c8a19b23          	sh	x10,-874(x3)
  addi x3, x3, -874 # restore base address
     980:	c9618193          	addi	x3,x3,-874
  addi x3, x3, SIG_STRIDE # increment signature pointer
     984:	00418193          	addi	x3,x3,4
#ifdef RVTEST_SELFCHECK
  LREG x1, -SIG_STRIDE(x3) # load stored value for checking
     988:	ffc1a083          	lw	x1,-4(x3)
  # Check if x1 contains the expected result. x3 is the signature ptr, x5 is the link ptr, x4 is a temp reg.
  RVTEST_SIGUPD(x3, x5, x4, x1, I_sh_cg_cp_rs2_b10, I_sh_cg_cp_rs2_b10_str)
     98c:	0001a203          	lw	x4,0(x3)
     990:	00120863          	beq	x4,x1,9a0 <I_sh_cg_cp_rs2_b10+0x24>
     994:	529002ef          	jal	x5,16bc <failedtest_x5_x4>
     998:	0000097c          	.word	0x0000097c
     99c:	00004a5a          	.word	0x00004a5a
     9a0:	00418193          	addi	x3,x3,4
  nop
  nop
#endif

# Testcase cp_rs2 (Test source rs2 = x11)
  RVTEST_TESTDATA_LOAD_INT(x31, x11) # load rs2: x11 = 0x6574ebc7
     9a4:	000fa583          	lw	x11,0(x31)
     9a8:	004f8f93          	addi	x31,x31,4
  mv x29, x3 # move signature pointer register
     9ac:	00018e93          	addi	x29,x3,0
  addi x29, x29, 721 # adjust base address for offset
     9b0:	2d1e8e93          	addi	x29,x29,721

000009b4 <I_sh_cg_cp_rs2_b11>:
I_sh_cg_cp_rs2_b11:
  sh x11, -721(x29) # perform store
     9b4:	d2be97a3          	sh	x11,-721(x29)
  addi x29, x29, -721 # restore base address
     9b8:	d2fe8e93          	addi	x29,x29,-721
  addi x29, x29, SIG_STRIDE # increment signature pointer
     9bc:	004e8e93          	addi	x29,x29,4
#ifdef RVTEST_SELFCHECK
  LREG x13, -SIG_STRIDE(x29) # load stored value for checking
     9c0:	ffcea683          	lw	x13,-4(x29)
  # Check if x13 contains the expected result. x29 is the signature ptr, x5 is the link ptr, x4 is a temp reg.
  RVTEST_SIGUPD(x29, x5, x4, x13, I_sh_cg_cp_rs2_b11, I_sh_cg_cp_rs2_b11_str)
     9c4:	000ea203          	lw	x4,0(x29)
     9c8:	00d20863          	beq	x4,x13,9d8 <I_sh_cg_cp_rs2_b11+0x24>
     9cc:	4f1002ef          	jal	x5,16bc <failedtest_x5_x4>
     9d0:	000009b4          	.word	0x000009b4
     9d4:	00004a88          	.word	0x00004a88
     9d8:	004e8e93          	addi	x29,x29,4
  nop
  nop
#endif

# Testcase cp_rs2 (Test source rs2 = x12)
  RVTEST_TESTDATA_LOAD_INT(x31, x12) # load rs2: x12 = 0x9c1cd5be
     9dc:	000fa603          	lw	x12,0(x31)
     9e0:	004f8f93          	addi	x31,x31,4
  mv x6, x29 # move signature pointer register
     9e4:	000e8313          	addi	x6,x29,0
  addi x6, x6, -1187 # adjust base address for offset
     9e8:	b5d30313          	addi	x6,x6,-1187

000009ec <I_sh_cg_cp_rs2_b12>:
I_sh_cg_cp_rs2_b12:
  sh x12, 1187(x6) # perform store
     9ec:	4ac311a3          	sh	x12,1187(x6)
  addi x6, x6, 1187 # restore base address
     9f0:	4a330313          	addi	x6,x6,1187
  addi x6, x6, SIG_STRIDE # increment signature pointer
     9f4:	00430313          	addi	x6,x6,4
#ifdef RVTEST_SELFCHECK
  LREG x16, -SIG_STRIDE(x6) # load stored value for checking
     9f8:	ffc32803          	lw	x16,-4(x6)
  # Check if x16 contains the expected result. x6 is the signature ptr, x5 is the link ptr, x4 is a temp reg.
  RVTEST_SIGUPD(x6, x5, x4, x16, I_sh_cg_cp_rs2_b12, I_sh_cg_cp_rs2_b12_str)
     9fc:	00032203          	lw	x4,0(x6)
     a00:	01020863          	beq	x4,x16,a10 <I_sh_cg_cp_rs2_b12+0x24>
     a04:	4b9002ef          	jal	x5,16bc <failedtest_x5_x4>
     a08:	000009ec          	.word	0x000009ec
     a0c:	00004ab6          	.word	0x00004ab6
     a10:	00430313          	addi	x6,x6,4
  nop
  nop
#endif

# Testcase cp_rs2 (Test source rs2 = x13)
  RVTEST_TESTDATA_LOAD_INT(x31, x13) # load rs2: x13 = 0x4ed951ce
     a14:	000fa683          	lw	x13,0(x31)
     a18:	004f8f93          	addi	x31,x31,4
  mv x30, x6 # move signature pointer register
     a1c:	00030f13          	addi	x30,x6,0
  addi x30, x30, 1923 # adjust base address for offset
     a20:	783f0f13          	addi	x30,x30,1923

00000a24 <I_sh_cg_cp_rs2_b13>:
I_sh_cg_cp_rs2_b13:
  sh x13, -1923(x30) # perform store
     a24:	86df1ea3          	sh	x13,-1923(x30)
  addi x30, x30, -1923 # restore base address
     a28:	87df0f13          	addi	x30,x30,-1923
  addi x30, x30, SIG_STRIDE # increment signature pointer
     a2c:	004f0f13          	addi	x30,x30,4
#ifdef RVTEST_SELFCHECK
  LREG x26, -SIG_STRIDE(x30) # load stored value for checking
     a30:	ffcf2d03          	lw	x26,-4(x30)
  # Check if x26 contains the expected result. x30 is the signature ptr, x5 is the link ptr, x4 is a temp reg.
  RVTEST_SIGUPD(x30, x5, x4, x26, I_sh_cg_cp_rs2_b13, I_sh_cg_cp_rs2_b13_str)
     a34:	000f2203          	lw	x4,0(x30)
     a38:	01a20863          	beq	x4,x26,a48 <I_sh_cg_cp_rs2_b13+0x24>
     a3c:	481002ef          	jal	x5,16bc <failedtest_x5_x4>
     a40:	00000a24          	.word	0x00000a24
     a44:	00004ae4          	.word	0x00004ae4
     a48:	004f0f13          	addi	x30,x30,4
  nop
  nop
#endif

# Testcase cp_rs2 (Test source rs2 = x14)
  RVTEST_TESTDATA_LOAD_INT(x31, x14) # load rs2: x14 = 0xc945be43
     a4c:	000fa703          	lw	x14,0(x31)
     a50:	004f8f93          	addi	x31,x31,4
  mv x9, x30 # move signature pointer register
     a54:	000f0493          	addi	x9,x30,0
  addi x9, x9, -279 # adjust base address for offset
     a58:	ee948493          	addi	x9,x9,-279

00000a5c <I_sh_cg_cp_rs2_b14>:
I_sh_cg_cp_rs2_b14:
  sh x14, 279(x9) # perform store
     a5c:	10e49ba3          	sh	x14,279(x9)
  addi x9, x9, 279 # restore base address
     a60:	11748493          	addi	x9,x9,279
  addi x9, x9, SIG_STRIDE # increment signature pointer
     a64:	00448493          	addi	x9,x9,4
#ifdef RVTEST_SELFCHECK
  LREG x6, -SIG_STRIDE(x9) # load stored value for checking
     a68:	ffc4a303          	lw	x6,-4(x9)
  # Check if x6 contains the expected result. x9 is the signature ptr, x5 is the link ptr, x4 is a temp reg.
  RVTEST_SIGUPD(x9, x5, x4, x6, I_sh_cg_cp_rs2_b14, I_sh_cg_cp_rs2_b14_str)
     a6c:	0004a203          	lw	x4,0(x9)
     a70:	00620863          	beq	x4,x6,a80 <I_sh_cg_cp_rs2_b14+0x24>
     a74:	449002ef          	jal	x5,16bc <failedtest_x5_x4>
     a78:	00000a5c          	.word	0x00000a5c
     a7c:	00004b12          	.word	0x00004b12
     a80:	00448493          	addi	x9,x9,4
  nop
  nop
#endif

# Testcase cp_rs2 (Test source rs2 = x15)
  RVTEST_TESTDATA_LOAD_INT(x31, x15) # load rs2: x15 = 0x34de8b17
     a84:	000fa783          	lw	x15,0(x31)
     a88:	004f8f93          	addi	x31,x31,4
  mv x22, x9 # move signature pointer register
     a8c:	00048b13          	addi	x22,x9,0
  addi x22, x22, -796 # adjust base address for offset
     a90:	ce4b0b13          	addi	x22,x22,-796

00000a94 <I_sh_cg_cp_rs2_b15>:
I_sh_cg_cp_rs2_b15:
  sh x15, 796(x22) # perform store
     a94:	30fb1e23          	sh	x15,796(x22)
  addi x22, x22, 796 # restore base address
     a98:	31cb0b13          	addi	x22,x22,796
  addi x22, x22, SIG_STRIDE # increment signature pointer
     a9c:	004b0b13          	addi	x22,x22,4
#ifdef RVTEST_SELFCHECK
  LREG x6, -SIG_STRIDE(x22) # load stored value for checking
     aa0:	ffcb2303          	lw	x6,-4(x22)
  # Check if x6 contains the expected result. x22 is the signature ptr, x5 is the link ptr, x4 is a temp reg.
  RVTEST_SIGUPD(x22, x5, x4, x6, I_sh_cg_cp_rs2_b15, I_sh_cg_cp_rs2_b15_str)
     aa4:	000b2203          	lw	x4,0(x22)
     aa8:	00620863          	beq	x4,x6,ab8 <I_sh_cg_cp_rs2_b15+0x24>
     aac:	411002ef          	jal	x5,16bc <failedtest_x5_x4>
     ab0:	00000a94          	.word	0x00000a94
     ab4:	00004b40          	.word	0x00004b40
     ab8:	004b0b13          	addi	x22,x22,4
  nop
  nop
#endif

# Testcase cp_rs2 (Test source rs2 = x16)
  RVTEST_TESTDATA_LOAD_INT(x31, x16) # load rs2: x16 = 0x3cf8ffca
     abc:	000fa803          	lw	x16,0(x31)
     ac0:	004f8f93          	addi	x31,x31,4
  mv x8, x22 # move signature pointer register
     ac4:	000b0413          	addi	x8,x22,0
  addi x8, x8, 1241 # adjust base address for offset
     ac8:	4d940413          	addi	x8,x8,1241

00000acc <I_sh_cg_cp_rs2_b16>:
I_sh_cg_cp_rs2_b16:
  sh x16, -1241(x8) # perform store
     acc:	b30413a3          	sh	x16,-1241(x8)
  addi x8, x8, -1241 # restore base address
     ad0:	b2740413          	addi	x8,x8,-1241
  addi x8, x8, SIG_STRIDE # increment signature pointer
     ad4:	00440413          	addi	x8,x8,4
#ifdef RVTEST_SELFCHECK
  LREG x10, -SIG_STRIDE(x8) # load stored value for checking
     ad8:	ffc42503          	lw	x10,-4(x8)
  # Check if x10 contains the expected result. x8 is the signature ptr, x5 is the link ptr, x4 is a temp reg.
  RVTEST_SIGUPD(x8, x5, x4, x10, I_sh_cg_cp_rs2_b16, I_sh_cg_cp_rs2_b16_str)
     adc:	00042203          	lw	x4,0(x8)
     ae0:	00a20863          	beq	x4,x10,af0 <I_sh_cg_cp_rs2_b16+0x24>
     ae4:	3d9002ef          	jal	x5,16bc <failedtest_x5_x4>
     ae8:	00000acc          	.word	0x00000acc
     aec:	00004b6e          	.word	0x00004b6e
     af0:	00440413          	addi	x8,x8,4
  nop
  nop
#endif

# Testcase cp_rs2 (Test source rs2 = x17)
  RVTEST_TESTDATA_LOAD_INT(x31, x17) # load rs2: x17 = 0xd2448b7e
     af4:	000fa883          	lw	x17,0(x31)
     af8:	004f8f93          	addi	x31,x31,4
  mv x13, x8 # move signature pointer register
     afc:	00040693          	addi	x13,x8,0
  addi x13, x13, -655 # adjust base address for offset
     b00:	d7168693          	addi	x13,x13,-655

00000b04 <I_sh_cg_cp_rs2_b17>:
I_sh_cg_cp_rs2_b17:
  sh x17, 655(x13) # perform store
     b04:	291697a3          	sh	x17,655(x13)
  addi x13, x13, 655 # restore base address
     b08:	28f68693          	addi	x13,x13,655
  addi x13, x13, SIG_STRIDE # increment signature pointer
     b0c:	00468693          	addi	x13,x13,4
#ifdef RVTEST_SELFCHECK
  LREG x15, -SIG_STRIDE(x13) # load stored value for checking
     b10:	ffc6a783          	lw	x15,-4(x13)
  # Check if x15 contains the expected result. x13 is the signature ptr, x5 is the link ptr, x4 is a temp reg.
  RVTEST_SIGUPD(x13, x5, x4, x15, I_sh_cg_cp_rs2_b17, I_sh_cg_cp_rs2_b17_str)
     b14:	0006a203          	lw	x4,0(x13)
     b18:	00f20863          	beq	x4,x15,b28 <I_sh_cg_cp_rs2_b17+0x24>
     b1c:	3a1002ef          	jal	x5,16bc <failedtest_x5_x4>
     b20:	00000b04          	.word	0x00000b04
     b24:	00004b9c          	.word	0x00004b9c
     b28:	00468693          	addi	x13,x13,4
  nop
  nop
#endif

# Testcase cp_rs2 (Test source rs2 = x18)
  RVTEST_TESTDATA_LOAD_INT(x31, x18) # load rs2: x18 = 0x8d424ad6
     b2c:	000fa903          	lw	x18,0(x31)
     b30:	004f8f93          	addi	x31,x31,4
  mv x22, x13 # move signature pointer register
     b34:	00068b13          	addi	x22,x13,0
  addi x22, x22, 1170 # adjust base address for offset
     b38:	492b0b13          	addi	x22,x22,1170

00000b3c <I_sh_cg_cp_rs2_b18>:
I_sh_cg_cp_rs2_b18:
  sh x18, -1170(x22) # perform store
     b3c:	b72b1723          	sh	x18,-1170(x22)
  addi x22, x22, -1170 # restore base address
     b40:	b6eb0b13          	addi	x22,x22,-1170
  addi x22, x22, SIG_STRIDE # increment signature pointer
     b44:	004b0b13          	addi	x22,x22,4
#ifdef RVTEST_SELFCHECK
  LREG x10, -SIG_STRIDE(x22) # load stored value for checking
     b48:	ffcb2503          	lw	x10,-4(x22)
  # Check if x10 contains the expected result. x22 is the signature ptr, x5 is the link ptr, x4 is a temp reg.
  RVTEST_SIGUPD(x22, x5, x4, x10, I_sh_cg_cp_rs2_b18, I_sh_cg_cp_rs2_b18_str)
     b4c:	000b2203          	lw	x4,0(x22)
     b50:	00a20863          	beq	x4,x10,b60 <I_sh_cg_cp_rs2_b18+0x24>
     b54:	369002ef          	jal	x5,16bc <failedtest_x5_x4>
     b58:	00000b3c          	.word	0x00000b3c
     b5c:	00004bca          	.word	0x00004bca
     b60:	004b0b13          	addi	x22,x22,4
  nop
  nop
#endif

# Testcase cp_rs2 (Test source rs2 = x19)
  RVTEST_TESTDATA_LOAD_INT(x31, x19) # load rs2: x19 = 0xc5e37c88
     b64:	000fa983          	lw	x19,0(x31)
     b68:	004f8f93          	addi	x31,x31,4
  mv x2, x22 # move signature pointer register
     b6c:	000b0113          	addi	x2,x22,0
  addi x2, x2, 1170 # adjust base address for offset
     b70:	49210113          	addi	x2,x2,1170

00000b74 <I_sh_cg_cp_rs2_b19>:
I_sh_cg_cp_rs2_b19:
  sh x19, -1170(x2) # perform store
     b74:	b7311723          	sh	x19,-1170(x2)
  addi x2, x2, -1170 # restore base address
     b78:	b6e10113          	addi	x2,x2,-1170
  addi x2, x2, SIG_STRIDE # increment signature pointer
     b7c:	00410113          	addi	x2,x2,4
#ifdef RVTEST_SELFCHECK
  LREG x11, -SIG_STRIDE(x2) # load stored value for checking
     b80:	ffc12583          	lw	x11,-4(x2)
  # Check if x11 contains the expected result. x2 is the signature ptr, x5 is the link ptr, x4 is a temp reg.
  RVTEST_SIGUPD(x2, x5, x4, x11, I_sh_cg_cp_rs2_b19, I_sh_cg_cp_rs2_b19_str)
     b84:	00012203          	lw	x4,0(x2)
     b88:	00b20863          	beq	x4,x11,b98 <I_sh_cg_cp_rs2_b19+0x24>
     b8c:	331002ef          	jal	x5,16bc <failedtest_x5_x4>
     b90:	00000b74          	.word	0x00000b74
     b94:	00004bf8          	.word	0x00004bf8
     b98:	00410113          	addi	x2,x2,4
  nop
  nop
#endif

# Testcase cp_rs2 (Test source rs2 = x20)
  RVTEST_TESTDATA_LOAD_INT(x31, x20) # load rs2: x20 = 0xabbff3fc
     b9c:	000faa03          	lw	x20,0(x31)
     ba0:	004f8f93          	addi	x31,x31,4
  mv x12, x2 # move signature pointer register
     ba4:	00010613          	addi	x12,x2,0
  addi x12, x12, 983 # adjust base address for offset
     ba8:	3d760613          	addi	x12,x12,983

00000bac <I_sh_cg_cp_rs2_b20>:
I_sh_cg_cp_rs2_b20:
  sh x20, -983(x12) # perform store
     bac:	c34614a3          	sh	x20,-983(x12)
  addi x12, x12, -983 # restore base address
     bb0:	c2960613          	addi	x12,x12,-983
  addi x12, x12, SIG_STRIDE # increment signature pointer
     bb4:	00460613          	addi	x12,x12,4
#ifdef RVTEST_SELFCHECK
  LREG x24, -SIG_STRIDE(x12) # load stored value for checking
     bb8:	ffc62c03          	lw	x24,-4(x12)
  # Check if x24 contains the expected result. x12 is the signature ptr, x5 is the link ptr, x4 is a temp reg.
  RVTEST_SIGUPD(x12, x5, x4, x24, I_sh_cg_cp_rs2_b20, I_sh_cg_cp_rs2_b20_str)
     bbc:	00062203          	lw	x4,0(x12)
     bc0:	01820863          	beq	x4,x24,bd0 <I_sh_cg_cp_rs2_b20+0x24>
     bc4:	2f9002ef          	jal	x5,16bc <failedtest_x5_x4>
     bc8:	00000bac          	.word	0x00000bac
     bcc:	00004c26          	.word	0x00004c26
     bd0:	00460613          	addi	x12,x12,4
  nop
  nop
#endif

# Testcase cp_rs2 (Test source rs2 = x21)
  RVTEST_TESTDATA_LOAD_INT(x31, x21) # load rs2: x21 = 0xebc553c3
     bd4:	000faa83          	lw	x21,0(x31)
     bd8:	004f8f93          	addi	x31,x31,4
  mv x29, x12 # move signature pointer register
     bdc:	00060e93          	addi	x29,x12,0
  addi x29, x29, -1361 # adjust base address for offset
     be0:	aafe8e93          	addi	x29,x29,-1361

00000be4 <I_sh_cg_cp_rs2_b21>:
I_sh_cg_cp_rs2_b21:
  sh x21, 1361(x29) # perform store
     be4:	555e98a3          	sh	x21,1361(x29)
  addi x29, x29, 1361 # restore base address
     be8:	551e8e93          	addi	x29,x29,1361
  addi x29, x29, SIG_STRIDE # increment signature pointer
     bec:	004e8e93          	addi	x29,x29,4
#ifdef RVTEST_SELFCHECK
  LREG x28, -SIG_STRIDE(x29) # load stored value for checking
     bf0:	ffceae03          	lw	x28,-4(x29)
  # Check if x28 contains the expected result. x29 is the signature ptr, x5 is the link ptr, x4 is a temp reg.
  RVTEST_SIGUPD(x29, x5, x4, x28, I_sh_cg_cp_rs2_b21, I_sh_cg_cp_rs2_b21_str)
     bf4:	000ea203          	lw	x4,0(x29)
     bf8:	01c20863          	beq	x4,x28,c08 <I_sh_cg_cp_rs2_b21+0x24>
     bfc:	2c1002ef          	jal	x5,16bc <failedtest_x5_x4>
     c00:	00000be4          	.word	0x00000be4
     c04:	00004c54          	.word	0x00004c54
     c08:	004e8e93          	addi	x29,x29,4
  nop
  nop
#endif

# Testcase cp_rs2 (Test source rs2 = x22)
  RVTEST_TESTDATA_LOAD_INT(x31, x22) # load rs2: x22 = 0x17eacd33
     c0c:	000fab03          	lw	x22,0(x31)
     c10:	004f8f93          	addi	x31,x31,4
  mv x16, x29 # move signature pointer register
     c14:	000e8813          	addi	x16,x29,0
  addi x16, x16, 1175 # adjust base address for offset
     c18:	49780813          	addi	x16,x16,1175

00000c1c <I_sh_cg_cp_rs2_b22>:
I_sh_cg_cp_rs2_b22:
  sh x22, -1175(x16) # perform store
     c1c:	b76814a3          	sh	x22,-1175(x16)
  addi x16, x16, -1175 # restore base address
     c20:	b6980813          	addi	x16,x16,-1175
  addi x16, x16, SIG_STRIDE # increment signature pointer
     c24:	00480813          	addi	x16,x16,4
#ifdef RVTEST_SELFCHECK
  LREG x26, -SIG_STRIDE(x16) # load stored value for checking
     c28:	ffc82d03          	lw	x26,-4(x16)
  # Check if x26 contains the expected result. x16 is the signature ptr, x5 is the link ptr, x4 is a temp reg.
  RVTEST_SIGUPD(x16, x5, x4, x26, I_sh_cg_cp_rs2_b22, I_sh_cg_cp_rs2_b22_str)
     c2c:	00082203          	lw	x4,0(x16)
     c30:	01a20863          	beq	x4,x26,c40 <I_sh_cg_cp_rs2_b22+0x24>
     c34:	289002ef          	jal	x5,16bc <failedtest_x5_x4>
     c38:	00000c1c          	.word	0x00000c1c
     c3c:	00004c82          	.word	0x00004c82
     c40:	00480813          	addi	x16,x16,4
  nop
  nop
#endif

# Testcase cp_rs2 (Test source rs2 = x23)
  RVTEST_TESTDATA_LOAD_INT(x31, x23) # load rs2: x23 = 0x48d44a74
     c44:	000fab83          	lw	x23,0(x31)
     c48:	004f8f93          	addi	x31,x31,4
  mv x19, x16 # move signature pointer register
     c4c:	00080993          	addi	x19,x16,0
  addi x19, x19, -356 # adjust base address for offset
     c50:	e9c98993          	addi	x19,x19,-356

00000c54 <I_sh_cg_cp_rs2_b23>:
I_sh_cg_cp_rs2_b23:
  sh x23, 356(x19) # perform store
     c54:	17799223          	sh	x23,356(x19)
  addi x19, x19, 356 # restore base address
     c58:	16498993          	addi	x19,x19,356
  addi x19, x19, SIG_STRIDE # increment signature pointer
     c5c:	00498993          	addi	x19,x19,4
#ifdef RVTEST_SELFCHECK
  LREG x12, -SIG_STRIDE(x19) # load stored value for checking
     c60:	ffc9a603          	lw	x12,-4(x19)
  # Check if x12 contains the expected result. x19 is the signature ptr, x5 is the link ptr, x4 is a temp reg.
  RVTEST_SIGUPD(x19, x5, x4, x12, I_sh_cg_cp_rs2_b23, I_sh_cg_cp_rs2_b23_str)
     c64:	0009a203          	lw	x4,0(x19)
     c68:	00c20863          	beq	x4,x12,c78 <I_sh_cg_cp_rs2_b23+0x24>
     c6c:	251002ef          	jal	x5,16bc <failedtest_x5_x4>
     c70:	00000c54          	.word	0x00000c54
     c74:	00004cb0          	.word	0x00004cb0
     c78:	00498993          	addi	x19,x19,4
  nop
  nop
#endif

# Testcase cp_rs2 (Test source rs2 = x24)
  RVTEST_TESTDATA_LOAD_INT(x31, x24) # load rs2: x24 = 0x8dce2e48
     c7c:	000fac03          	lw	x24,0(x31)
     c80:	004f8f93          	addi	x31,x31,4
  mv x11, x19 # move signature pointer register
     c84:	00098593          	addi	x11,x19,0
  addi x11, x11, 1359 # adjust base address for offset
     c88:	54f58593          	addi	x11,x11,1359

00000c8c <I_sh_cg_cp_rs2_b24>:
I_sh_cg_cp_rs2_b24:
  sh x24, -1359(x11) # perform store
     c8c:	ab8598a3          	sh	x24,-1359(x11)
  addi x11, x11, -1359 # restore base address
     c90:	ab158593          	addi	x11,x11,-1359
  addi x11, x11, SIG_STRIDE # increment signature pointer
     c94:	00458593          	addi	x11,x11,4
#ifdef RVTEST_SELFCHECK
  LREG x15, -SIG_STRIDE(x11) # load stored value for checking
     c98:	ffc5a783          	lw	x15,-4(x11)
  # Check if x15 contains the expected result. x11 is the signature ptr, x5 is the link ptr, x4 is a temp reg.
  RVTEST_SIGUPD(x11, x5, x4, x15, I_sh_cg_cp_rs2_b24, I_sh_cg_cp_rs2_b24_str)
     c9c:	0005a203          	lw	x4,0(x11)
     ca0:	00f20863          	beq	x4,x15,cb0 <I_sh_cg_cp_rs2_b24+0x24>
     ca4:	219002ef          	jal	x5,16bc <failedtest_x5_x4>
     ca8:	00000c8c          	.word	0x00000c8c
     cac:	00004cde          	.word	0x00004cde
     cb0:	00458593          	addi	x11,x11,4
  nop
  nop
#endif

# Testcase cp_rs2 (Test source rs2 = x25)
  RVTEST_TESTDATA_LOAD_INT(x31, x25) # load rs2: x25 = 0x122aa20d
     cb4:	000fac83          	lw	x25,0(x31)
     cb8:	004f8f93          	addi	x31,x31,4
  mv x16, x11 # move signature pointer register
     cbc:	00058813          	addi	x16,x11,0
  addi x16, x16, -1281 # adjust base address for offset
     cc0:	aff80813          	addi	x16,x16,-1281

00000cc4 <I_sh_cg_cp_rs2_b25>:
I_sh_cg_cp_rs2_b25:
  sh x25, 1281(x16) # perform store
     cc4:	519810a3          	sh	x25,1281(x16)
  addi x16, x16, 1281 # restore base address
     cc8:	50180813          	addi	x16,x16,1281
  addi x16, x16, SIG_STRIDE # increment signature pointer
     ccc:	00480813          	addi	x16,x16,4
#ifdef RVTEST_SELFCHECK
  LREG x15, -SIG_STRIDE(x16) # load stored value for checking
     cd0:	ffc82783          	lw	x15,-4(x16)
  # Check if x15 contains the expected result. x16 is the signature ptr, x5 is the link ptr, x4 is a temp reg.
  RVTEST_SIGUPD(x16, x5, x4, x15, I_sh_cg_cp_rs2_b25, I_sh_cg_cp_rs2_b25_str)
     cd4:	00082203          	lw	x4,0(x16)
     cd8:	00f20863          	beq	x4,x15,ce8 <I_sh_cg_cp_rs2_b25+0x24>
     cdc:	1e1002ef          	jal	x5,16bc <failedtest_x5_x4>
     ce0:	00000cc4          	.word	0x00000cc4
     ce4:	00004d0c          	.word	0x00004d0c
     ce8:	00480813          	addi	x16,x16,4
  nop
  nop
#endif

# Testcase cp_rs2 (Test source rs2 = x26)
  RVTEST_TESTDATA_LOAD_INT(x31, x26) # load rs2: x26 = 0x5e577546
     cec:	000fad03          	lw	x26,0(x31)
     cf0:	004f8f93          	addi	x31,x31,4
  mv x11, x16 # move signature pointer register
     cf4:	00080593          	addi	x11,x16,0
  addi x11, x11, -890 # adjust base address for offset
     cf8:	c8658593          	addi	x11,x11,-890

00000cfc <I_sh_cg_cp_rs2_b26>:
I_sh_cg_cp_rs2_b26:
  sh x26, 890(x11) # perform store
     cfc:	37a59d23          	sh	x26,890(x11)
  addi x11, x11, 890 # restore base address
     d00:	37a58593          	addi	x11,x11,890
  addi x11, x11, SIG_STRIDE # increment signature pointer
     d04:	00458593          	addi	x11,x11,4
#ifdef RVTEST_SELFCHECK
  LREG x30, -SIG_STRIDE(x11) # load stored value for checking
     d08:	ffc5af03          	lw	x30,-4(x11)
  # Check if x30 contains the expected result. x11 is the signature ptr, x5 is the link ptr, x4 is a temp reg.
  RVTEST_SIGUPD(x11, x5, x4, x30, I_sh_cg_cp_rs2_b26, I_sh_cg_cp_rs2_b26_str)
     d0c:	0005a203          	lw	x4,0(x11)
     d10:	01e20863          	beq	x4,x30,d20 <I_sh_cg_cp_rs2_b26+0x24>
     d14:	1a9002ef          	jal	x5,16bc <failedtest_x5_x4>
     d18:	00000cfc          	.word	0x00000cfc
     d1c:	00004d3a          	.word	0x00004d3a
     d20:	00458593          	addi	x11,x11,4
  nop
  nop
#endif

# Testcase cp_rs2 (Test source rs2 = x27)
  RVTEST_TESTDATA_LOAD_INT(x31, x27) # load rs2: x27 = 0xcc769651
     d24:	000fad83          	lw	x27,0(x31)
     d28:	004f8f93          	addi	x31,x31,4
  mv x6, x11 # move signature pointer register
     d2c:	00058313          	addi	x6,x11,0
  addi x6, x6, 1374 # adjust base address for offset
     d30:	55e30313          	addi	x6,x6,1374

00000d34 <I_sh_cg_cp_rs2_b27>:
I_sh_cg_cp_rs2_b27:
  sh x27, -1374(x6) # perform store
     d34:	abb31123          	sh	x27,-1374(x6)
  addi x6, x6, -1374 # restore base address
     d38:	aa230313          	addi	x6,x6,-1374
  addi x6, x6, SIG_STRIDE # increment signature pointer
     d3c:	00430313          	addi	x6,x6,4
#ifdef RVTEST_SELFCHECK
  LREG x12, -SIG_STRIDE(x6) # load stored value for checking
     d40:	ffc32603          	lw	x12,-4(x6)
  # Check if x12 contains the expected result. x6 is the signature ptr, x5 is the link ptr, x4 is a temp reg.
  RVTEST_SIGUPD(x6, x5, x4, x12, I_sh_cg_cp_rs2_b27, I_sh_cg_cp_rs2_b27_str)
     d44:	00032203          	lw	x4,0(x6)
     d48:	00c20863          	beq	x4,x12,d58 <I_sh_cg_cp_rs2_b27+0x24>
     d4c:	171002ef          	jal	x5,16bc <failedtest_x5_x4>
     d50:	00000d34          	.word	0x00000d34
     d54:	00004d68          	.word	0x00004d68
     d58:	00430313          	addi	x6,x6,4
  nop
  nop
#endif

# Testcase cp_rs2 (Test source rs2 = x28)
  RVTEST_TESTDATA_LOAD_INT(x31, x28) # load rs2: x28 = 0x38dfaac1
     d5c:	000fae03          	lw	x28,0(x31)
     d60:	004f8f93          	addi	x31,x31,4
  mv x21, x6 # move signature pointer register
     d64:	00030a93          	addi	x21,x6,0
  addi x21, x21, -1398 # adjust base address for offset
     d68:	a8aa8a93          	addi	x21,x21,-1398

00000d6c <I_sh_cg_cp_rs2_b28>:
I_sh_cg_cp_rs2_b28:
  sh x28, 1398(x21) # perform store
     d6c:	57ca9b23          	sh	x28,1398(x21)
  addi x21, x21, 1398 # restore base address
     d70:	576a8a93          	addi	x21,x21,1398
  addi x21, x21, SIG_STRIDE # increment signature pointer
     d74:	004a8a93          	addi	x21,x21,4
#ifdef RVTEST_SELFCHECK
  LREG x30, -SIG_STRIDE(x21) # load stored value for checking
     d78:	ffcaaf03          	lw	x30,-4(x21)
  # Check if x30 contains the expected result. x21 is the signature ptr, x5 is the link ptr, x4 is a temp reg.
  RVTEST_SIGUPD(x21, x5, x4, x30, I_sh_cg_cp_rs2_b28, I_sh_cg_cp_rs2_b28_str)
     d7c:	000aa203          	lw	x4,0(x21)
     d80:	01e20863          	beq	x4,x30,d90 <I_sh_cg_cp_rs2_b28+0x24>
     d84:	139002ef          	jal	x5,16bc <failedtest_x5_x4>
     d88:	00000d6c          	.word	0x00000d6c
     d8c:	00004d96          	.word	0x00004d96
     d90:	004a8a93          	addi	x21,x21,4
  nop
  nop
#endif

# Testcase cp_rs2 (Test source rs2 = x29)
  RVTEST_TESTDATA_LOAD_INT(x31, x29) # load rs2: x29 = 0xbf2ebe4c
     d94:	000fae83          	lw	x29,0(x31)
     d98:	004f8f93          	addi	x31,x31,4
  mv x10, x21 # move signature pointer register
     d9c:	000a8513          	addi	x10,x21,0
  addi x10, x10, 109 # adjust base address for offset
     da0:	06d50513          	addi	x10,x10,109

00000da4 <I_sh_cg_cp_rs2_b29>:
I_sh_cg_cp_rs2_b29:
  sh x29, -109(x10) # perform store
     da4:	f9d519a3          	sh	x29,-109(x10)
  addi x10, x10, -109 # restore base address
     da8:	f9350513          	addi	x10,x10,-109
  addi x10, x10, SIG_STRIDE # increment signature pointer
     dac:	00450513          	addi	x10,x10,4
#ifdef RVTEST_SELFCHECK
  LREG x9, -SIG_STRIDE(x10) # load stored value for checking
     db0:	ffc52483          	lw	x9,-4(x10)
  # Check if x9 contains the expected result. x10 is the signature ptr, x5 is the link ptr, x4 is a temp reg.
  RVTEST_SIGUPD(x10, x5, x4, x9, I_sh_cg_cp_rs2_b29, I_sh_cg_cp_rs2_b29_str)
     db4:	00052203          	lw	x4,0(x10)
     db8:	00920863          	beq	x4,x9,dc8 <I_sh_cg_cp_rs2_b29+0x24>
     dbc:	101002ef          	jal	x5,16bc <failedtest_x5_x4>
     dc0:	00000da4          	.word	0x00000da4
     dc4:	00004dc4          	.word	0x00004dc4
     dc8:	00450513          	addi	x10,x10,4
  nop
  nop
#endif

# Testcase cp_rs2 (Test source rs2 = x30)
  RVTEST_TESTDATA_LOAD_INT(x31, x30) # load rs2: x30 = 0x692a94f6
     dcc:	000faf03          	lw	x30,0(x31)
     dd0:	004f8f93          	addi	x31,x31,4
  mv x28, x10 # move signature pointer register
     dd4:	00050e13          	addi	x28,x10,0
  addi x28, x28, -1423 # adjust base address for offset
     dd8:	a71e0e13          	addi	x28,x28,-1423

00000ddc <I_sh_cg_cp_rs2_b30>:
I_sh_cg_cp_rs2_b30:
  sh x30, 1423(x28) # perform store
     ddc:	59ee17a3          	sh	x30,1423(x28)
  addi x28, x28, 1423 # restore base address
     de0:	58fe0e13          	addi	x28,x28,1423
  addi x28, x28, SIG_STRIDE # increment signature pointer
     de4:	004e0e13          	addi	x28,x28,4
#ifdef RVTEST_SELFCHECK
  LREG x29, -SIG_STRIDE(x28) # load stored value for checking
     de8:	ffce2e83          	lw	x29,-4(x28)
  # Check if x29 contains the expected result. x28 is the signature ptr, x5 is the link ptr, x4 is a temp reg.
  RVTEST_SIGUPD(x28, x5, x4, x29, I_sh_cg_cp_rs2_b30, I_sh_cg_cp_rs2_b30_str)
     dec:	000e2203          	lw	x4,0(x28)
     df0:	01d20863          	beq	x4,x29,e00 <I_sh_cg_cp_rs2_b30+0x24>
     df4:	0c9002ef          	jal	x5,16bc <failedtest_x5_x4>
     df8:	00000ddc          	.word	0x00000ddc
     dfc:	00004df2          	.word	0x00004df2
     e00:	004e0e13          	addi	x28,x28,4
  nop
  nop
  nop
#endif

  mv x19, x31 # switch data pointer register to avoid conflict with test
     e04:	000f8993          	addi	x19,x31,0
# Testcase cp_rs2 (Test source rs2 = x31)
  RVTEST_TESTDATA_LOAD_INT(x19, x31) # load rs2: x31 = 0x720b70d6
     e08:	0009af83          	lw	x31,0(x19)
     e0c:	00498993          	addi	x19,x19,4
  mv x9, x28 # move signature pointer register
     e10:	000e0493          	addi	x9,x28,0
  addi x9, x9, -877 # adjust base address for offset
     e14:	c9348493          	addi	x9,x9,-877

00000e18 <I_sh_cg_cp_rs2_b31>:
I_sh_cg_cp_rs2_b31:
  sh x31, 877(x9) # perform store
     e18:	37f496a3          	sh	x31,877(x9)
  addi x9, x9, 877 # restore base address
     e1c:	36d48493          	addi	x9,x9,877
  addi x9, x9, SIG_STRIDE # increment signature pointer
     e20:	00448493          	addi	x9,x9,4
#ifdef RVTEST_SELFCHECK
  LREG x8, -SIG_STRIDE(x9) # load stored value for checking
     e24:	ffc4a403          	lw	x8,-4(x9)
  # Check if x8 contains the expected result. x9 is the signature ptr, x5 is the link ptr, x4 is a temp reg.
  RVTEST_SIGUPD(x9, x5, x4, x8, I_sh_cg_cp_rs2_b31, I_sh_cg_cp_rs2_b31_str)
     e28:	0004a203          	lw	x4,0(x9)
     e2c:	00820863          	beq	x4,x8,e3c <I_sh_cg_cp_rs2_b31+0x24>
     e30:	08d002ef          	jal	x5,16bc <failedtest_x5_x4>
     e34:	00000e18          	.word	0x00000e18
     e38:	00004e20          	.word	0x00004e20
     e3c:	00448493          	addi	x9,x9,4
/////////////////////////////////
// cp_rs2_edges
/////////////////////////////////

# Testcase cp_rs2_edges (Test source rs2 value = 0x00000000)
  RVTEST_TESTDATA_LOAD_INT(x19, x31) # load rs2: x31 = 0x00000000
     e40:	0009af83          	lw	x31,0(x19)
     e44:	00498993          	addi	x19,x19,4
  mv x3, x9 # move signature pointer register
     e48:	00048193          	addi	x3,x9,0
  addi x3, x3, -1907 # adjust base address for offset
     e4c:	88d18193          	addi	x3,x3,-1907

00000e50 <I_sh_cg_cp_rs2_edges_0x0>:
I_sh_cg_cp_rs2_edges_0x0:
  sh x31, 1907(x3) # perform store
     e50:	77f199a3          	sh	x31,1907(x3)
  addi x3, x3, 1907 # restore base address
     e54:	77318193          	addi	x3,x3,1907
  addi x3, x3, SIG_STRIDE # increment signature pointer
     e58:	00418193          	addi	x3,x3,4
#ifdef RVTEST_SELFCHECK
  LREG x21, -SIG_STRIDE(x3) # load stored value for checking
     e5c:	ffc1aa83          	lw	x21,-4(x3)
  # Check if x21 contains the expected result. x3 is the signature ptr, x5 is the link ptr, x4 is a temp reg.
  RVTEST_SIGUPD(x3, x5, x4, x21, I_sh_cg_cp_rs2_edges_0x0, I_sh_cg_cp_rs2_edges_0x0_str)
     e60:	0001a203          	lw	x4,0(x3)
     e64:	01520863          	beq	x4,x21,e74 <I_sh_cg_cp_rs2_edges_0x0+0x24>
     e68:	055002ef          	jal	x5,16bc <failedtest_x5_x4>
     e6c:	00000e50          	.word	0x00000e50
     e70:	00004e4e          	.word	0x00004e4e
     e74:	00418193          	addi	x3,x3,4
  nop
  nop
#endif

# Testcase cp_rs2_edges (Test source rs2 value = 0x00000001)
  RVTEST_TESTDATA_LOAD_INT(x19, x6) # load rs2: x6 = 0x00000001
     e78:	0009a303          	lw	x6,0(x19)
     e7c:	00498993          	addi	x19,x19,4
  mv x15, x3 # move signature pointer register
     e80:	00018793          	addi	x15,x3,0
  addi x15, x15, -1338 # adjust base address for offset
     e84:	ac678793          	addi	x15,x15,-1338

00000e88 <I_sh_cg_cp_rs2_edges_0x1>:
I_sh_cg_cp_rs2_edges_0x1:
  sh x6, 1338(x15) # perform store
     e88:	52679d23          	sh	x6,1338(x15)
  addi x15, x15, 1338 # restore base address
     e8c:	53a78793          	addi	x15,x15,1338
  addi x15, x15, SIG_STRIDE # increment signature pointer
     e90:	00478793          	addi	x15,x15,4
#ifdef RVTEST_SELFCHECK
  LREG x21, -SIG_STRIDE(x15) # load stored value for checking
     e94:	ffc7aa83          	lw	x21,-4(x15)
  # Check if x21 contains the expected result. x15 is the signature ptr, x5 is the link ptr, x4 is a temp reg.
  RVTEST_SIGUPD(x15, x5, x4, x21, I_sh_cg_cp_rs2_edges_0x1, I_sh_cg_cp_rs2_edges_0x1_str)
     e98:	0007a203          	lw	x4,0(x15)
     e9c:	01520863          	beq	x4,x21,eac <I_sh_cg_cp_rs2_edges_0x1+0x24>
     ea0:	01d002ef          	jal	x5,16bc <failedtest_x5_x4>
     ea4:	00000e88          	.word	0x00000e88
     ea8:	00004e82          	.word	0x00004e82
     eac:	00478793          	addi	x15,x15,4
  nop
  nop
#endif

# Testcase cp_rs2_edges (Test source rs2 value = 0x00000002)
  RVTEST_TESTDATA_LOAD_INT(x19, x2) # load rs2: x2 = 0x00000002
     eb0:	0009a103          	lw	x2,0(x19)
     eb4:	00498993          	addi	x19,x19,4
  mv x7, x15 # move signature pointer register
     eb8:	00078393          	addi	x7,x15,0
  addi x7, x7, 206 # adjust base address for offset
     ebc:	0ce38393          	addi	x7,x7,206

00000ec0 <I_sh_cg_cp_rs2_edges_0x2>:
I_sh_cg_cp_rs2_edges_0x2:
  sh x2, -206(x7) # perform store
     ec0:	f2239923          	sh	x2,-206(x7)
  addi x7, x7, -206 # restore base address
     ec4:	f3238393          	addi	x7,x7,-206
  addi x7, x7, SIG_STRIDE # increment signature pointer
     ec8:	00438393          	addi	x7,x7,4
#ifdef RVTEST_SELFCHECK
  LREG x26, -SIG_STRIDE(x7) # load stored value for checking
     ecc:	ffc3ad03          	lw	x26,-4(x7)
  # Check if x26 contains the expected result. x7 is the signature ptr, x5 is the link ptr, x4 is a temp reg.
  RVTEST_SIGUPD(x7, x5, x4, x26, I_sh_cg_cp_rs2_edges_0x2, I_sh_cg_cp_rs2_edges_0x2_str)
     ed0:	0003a203          	lw	x4,0(x7)
     ed4:	01a20863          	beq	x4,x26,ee4 <I_sh_cg_cp_rs2_edges_0x2+0x24>
     ed8:	7e4002ef          	jal	x5,16bc <failedtest_x5_x4>
     edc:	00000ec0          	.word	0x00000ec0
     ee0:	00004eb6          	.word	0x00004eb6
     ee4:	00438393          	addi	x7,x7,4
  nop
  nop
#endif

# Testcase cp_rs2_edges (Test source rs2 value = 0x80000000)
  RVTEST_TESTDATA_LOAD_INT(x19, x28) # load rs2: x28 = 0x80000000
     ee8:	0009ae03          	lw	x28,0(x19)
     eec:	00498993          	addi	x19,x19,4
  mv x2, x7 # move signature pointer register
     ef0:	00038113          	addi	x2,x7,0
  addi x2, x2, -531 # adjust base address for offset
     ef4:	ded10113          	addi	x2,x2,-531

00000ef8 <I_sh_cg_cp_rs2_edges_0x80000000>:
I_sh_cg_cp_rs2_edges_0x80000000:
  sh x28, 531(x2) # perform store
     ef8:	21c119a3          	sh	x28,531(x2)
  addi x2, x2, 531 # restore base address
     efc:	21310113          	addi	x2,x2,531
  addi x2, x2, SIG_STRIDE # increment signature pointer
     f00:	00410113          	addi	x2,x2,4
#ifdef RVTEST_SELFCHECK
  LREG x12, -SIG_STRIDE(x2) # load stored value for checking
     f04:	ffc12603          	lw	x12,-4(x2)
  # Check if x12 contains the expected result. x2 is the signature ptr, x5 is the link ptr, x4 is a temp reg.
  RVTEST_SIGUPD(x2, x5, x4, x12, I_sh_cg_cp_rs2_edges_0x80000000, I_sh_cg_cp_rs2_edges_0x80000000_str)
     f08:	00012203          	lw	x4,0(x2)
     f0c:	00c20863          	beq	x4,x12,f1c <I_sh_cg_cp_rs2_edges_0x80000000+0x24>
     f10:	7ac002ef          	jal	x5,16bc <failedtest_x5_x4>
     f14:	00000ef8          	.word	0x00000ef8
     f18:	00004eea          	.word	0x00004eea
     f1c:	00410113          	addi	x2,x2,4
  nop
  nop
#endif

# Testcase cp_rs2_edges (Test source rs2 value = 0x80000001)
  RVTEST_TESTDATA_LOAD_INT(x19, x9) # load rs2: x9 = 0x80000001
     f20:	0009a483          	lw	x9,0(x19)
     f24:	00498993          	addi	x19,x19,4
  mv x6, x2 # move signature pointer register
     f28:	00010313          	addi	x6,x2,0
  addi x6, x6, 453 # adjust base address for offset
     f2c:	1c530313          	addi	x6,x6,453

00000f30 <I_sh_cg_cp_rs2_edges_0x80000001>:
I_sh_cg_cp_rs2_edges_0x80000001:
  sh x9, -453(x6) # perform store
     f30:	e2931da3          	sh	x9,-453(x6)
  addi x6, x6, -453 # restore base address
     f34:	e3b30313          	addi	x6,x6,-453
  addi x6, x6, SIG_STRIDE # increment signature pointer
     f38:	00430313          	addi	x6,x6,4
#ifdef RVTEST_SELFCHECK
  LREG x25, -SIG_STRIDE(x6) # load stored value for checking
     f3c:	ffc32c83          	lw	x25,-4(x6)
  # Check if x25 contains the expected result. x6 is the signature ptr, x5 is the link ptr, x4 is a temp reg.
  RVTEST_SIGUPD(x6, x5, x4, x25, I_sh_cg_cp_rs2_edges_0x80000001, I_sh_cg_cp_rs2_edges_0x80000001_str)
     f40:	00032203          	lw	x4,0(x6)
     f44:	01920863          	beq	x4,x25,f54 <I_sh_cg_cp_rs2_edges_0x80000001+0x24>
     f48:	774002ef          	jal	x5,16bc <failedtest_x5_x4>
     f4c:	00000f30          	.word	0x00000f30
     f50:	00004f25          	.word	0x00004f25
     f54:	00430313          	addi	x6,x6,4
  nop
  nop
#endif

# Testcase cp_rs2_edges (Test source rs2 value = 0x7fffffff)
  RVTEST_TESTDATA_LOAD_INT(x19, x29) # load rs2: x29 = 0x7fffffff
     f58:	0009ae83          	lw	x29,0(x19)
     f5c:	00498993          	addi	x19,x19,4
  mv x8, x6 # move signature pointer register
     f60:	00030413          	addi	x8,x6,0
  addi x8, x8, -120 # adjust base address for offset
     f64:	f8840413          	addi	x8,x8,-120

00000f68 <I_sh_cg_cp_rs2_edges_0x7fffffff>:
I_sh_cg_cp_rs2_edges_0x7fffffff:
  sh x29, 120(x8) # perform store
     f68:	07d41c23          	sh	x29,120(x8)
  addi x8, x8, 120 # restore base address
     f6c:	07840413          	addi	x8,x8,120
  addi x8, x8, SIG_STRIDE # increment signature pointer
     f70:	00440413          	addi	x8,x8,4
#ifdef RVTEST_SELFCHECK
  LREG x23, -SIG_STRIDE(x8) # load stored value for checking
     f74:	ffc42b83          	lw	x23,-4(x8)
  # Check if x23 contains the expected result. x8 is the signature ptr, x5 is the link ptr, x4 is a temp reg.
  RVTEST_SIGUPD(x8, x5, x4, x23, I_sh_cg_cp_rs2_edges_0x7fffffff, I_sh_cg_cp_rs2_edges_0x7fffffff_str)
     f78:	00042203          	lw	x4,0(x8)
     f7c:	01720863          	beq	x4,x23,f8c <I_sh_cg_cp_rs2_edges_0x7fffffff+0x24>
     f80:	73c002ef          	jal	x5,16bc <failedtest_x5_x4>
     f84:	00000f68          	.word	0x00000f68
     f88:	00004f60          	.word	0x00004f60
     f8c:	00440413          	addi	x8,x8,4
  nop
  nop
#endif

# Testcase cp_rs2_edges (Test source rs2 value = 0x7ffffffe)
  RVTEST_TESTDATA_LOAD_INT(x19, x21) # load rs2: x21 = 0x7ffffffe
     f90:	0009aa83          	lw	x21,0(x19)
     f94:	00498993          	addi	x19,x19,4
  mv x15, x8 # move signature pointer register
     f98:	00040793          	addi	x15,x8,0
  addi x15, x15, -823 # adjust base address for offset
     f9c:	cc978793          	addi	x15,x15,-823

00000fa0 <I_sh_cg_cp_rs2_edges_0x7ffffffe>:
I_sh_cg_cp_rs2_edges_0x7ffffffe:
  sh x21, 823(x15) # perform store
     fa0:	33579ba3          	sh	x21,823(x15)
  addi x15, x15, 823 # restore base address
     fa4:	33778793          	addi	x15,x15,823
  addi x15, x15, SIG_STRIDE # increment signature pointer
     fa8:	00478793          	addi	x15,x15,4
#ifdef RVTEST_SELFCHECK
  LREG x13, -SIG_STRIDE(x15) # load stored value for checking
     fac:	ffc7a683          	lw	x13,-4(x15)
  # Check if x13 contains the expected result. x15 is the signature ptr, x5 is the link ptr, x4 is a temp reg.
  RVTEST_SIGUPD(x15, x5, x4, x13, I_sh_cg_cp_rs2_edges_0x7ffffffe, I_sh_cg_cp_rs2_edges_0x7ffffffe_str)
     fb0:	0007a203          	lw	x4,0(x15)
     fb4:	00d20863          	beq	x4,x13,fc4 <I_sh_cg_cp_rs2_edges_0x7ffffffe+0x24>
     fb8:	704002ef          	jal	x5,16bc <failedtest_x5_x4>
     fbc:	00000fa0          	.word	0x00000fa0
     fc0:	00004f9b          	.word	0x00004f9b
     fc4:	00478793          	addi	x15,x15,4
  nop
  nop
#endif

# Testcase cp_rs2_edges (Test source rs2 value = 0xffffffff)
  RVTEST_TESTDATA_LOAD_INT(x19, x6) # load rs2: x6 = 0xffffffff
     fc8:	0009a303          	lw	x6,0(x19)
     fcc:	00498993          	addi	x19,x19,4
  mv x22, x15 # move signature pointer register
     fd0:	00078b13          	addi	x22,x15,0
  addi x22, x22, -709 # adjust base address for offset
     fd4:	d3bb0b13          	addi	x22,x22,-709

00000fd8 <I_sh_cg_cp_rs2_edges_0xffffffff>:
I_sh_cg_cp_rs2_edges_0xffffffff:
  sh x6, 709(x22) # perform store
     fd8:	2c6b12a3          	sh	x6,709(x22)
  addi x22, x22, 709 # restore base address
     fdc:	2c5b0b13          	addi	x22,x22,709
  addi x22, x22, SIG_STRIDE # increment signature pointer
     fe0:	004b0b13          	addi	x22,x22,4
#ifdef RVTEST_SELFCHECK
  LREG x13, -SIG_STRIDE(x22) # load stored value for checking
     fe4:	ffcb2683          	lw	x13,-4(x22)
  # Check if x13 contains the expected result. x22 is the signature ptr, x5 is the link ptr, x4 is a temp reg.
  RVTEST_SIGUPD(x22, x5, x4, x13, I_sh_cg_cp_rs2_edges_0xffffffff, I_sh_cg_cp_rs2_edges_0xffffffff_str)
     fe8:	000b2203          	lw	x4,0(x22)
     fec:	00d20863          	beq	x4,x13,ffc <I_sh_cg_cp_rs2_edges_0xffffffff+0x24>
     ff0:	6cc002ef          	jal	x5,16bc <failedtest_x5_x4>
     ff4:	00000fd8          	.word	0x00000fd8
     ff8:	00004fd6          	.word	0x00004fd6
     ffc:	004b0b13          	addi	x22,x22,4
  nop
  nop
#endif

# Testcase cp_rs2_edges (Test source rs2 value = 0xfffffffe)
  RVTEST_TESTDATA_LOAD_INT(x19, x27) # load rs2: x27 = 0xfffffffe
    1000:	0009ad83          	lw	x27,0(x19)
    1004:	00498993          	addi	x19,x19,4
  mv x6, x22 # move signature pointer register
    1008:	000b0313          	addi	x6,x22,0
  addi x6, x6, 1290 # adjust base address for offset
    100c:	50a30313          	addi	x6,x6,1290

00001010 <I_sh_cg_cp_rs2_edges_0xfffffffe>:
I_sh_cg_cp_rs2_edges_0xfffffffe:
  sh x27, -1290(x6) # perform store
    1010:	afb31b23          	sh	x27,-1290(x6)
  addi x6, x6, -1290 # restore base address
    1014:	af630313          	addi	x6,x6,-1290
  addi x6, x6, SIG_STRIDE # increment signature pointer
    1018:	00430313          	addi	x6,x6,4
#ifdef RVTEST_SELFCHECK
  LREG x9, -SIG_STRIDE(x6) # load stored value for checking
    101c:	ffc32483          	lw	x9,-4(x6)
  # Check if x9 contains the expected result. x6 is the signature ptr, x5 is the link ptr, x4 is a temp reg.
  RVTEST_SIGUPD(x6, x5, x4, x9, I_sh_cg_cp_rs2_edges_0xfffffffe, I_sh_cg_cp_rs2_edges_0xfffffffe_str)
    1020:	00032203          	lw	x4,0(x6)
    1024:	00920863          	beq	x4,x9,1034 <I_sh_cg_cp_rs2_edges_0xfffffffe+0x24>
    1028:	694002ef          	jal	x5,16bc <failedtest_x5_x4>
    102c:	00001010          	.word	0x00001010
    1030:	00005011          	.word	0x00005011
    1034:	00430313          	addi	x6,x6,4
  nop
  nop
#endif

# Testcase cp_rs2_edges (Test source rs2 value = 0x5bbc8872)
  RVTEST_TESTDATA_LOAD_INT(x19, x15) # load rs2: x15 = 0x5bbc8872
    1038:	0009a783          	lw	x15,0(x19)
    103c:	00498993          	addi	x19,x19,4
  mv x27, x6 # move signature pointer register
    1040:	00030d93          	addi	x27,x6,0
  addi x27, x27, 175 # adjust base address for offset
    1044:	0afd8d93          	addi	x27,x27,175

00001048 <I_sh_cg_cp_rs2_edges_0x5bbc8872>:
I_sh_cg_cp_rs2_edges_0x5bbc8872:
  sh x15, -175(x27) # perform store
    1048:	f4fd98a3          	sh	x15,-175(x27)
  addi x27, x27, -175 # restore base address
    104c:	f51d8d93          	addi	x27,x27,-175
  addi x27, x27, SIG_STRIDE # increment signature pointer
    1050:	004d8d93          	addi	x27,x27,4
#ifdef RVTEST_SELFCHECK
  LREG x21, -SIG_STRIDE(x27) # load stored value for checking
    1054:	ffcdaa83          	lw	x21,-4(x27)
  # Check if x21 contains the expected result. x27 is the signature ptr, x5 is the link ptr, x4 is a temp reg.
  RVTEST_SIGUPD(x27, x5, x4, x21, I_sh_cg_cp_rs2_edges_0x5bbc8872, I_sh_cg_cp_rs2_edges_0x5bbc8872_str)
    1058:	000da203          	lw	x4,0(x27)
    105c:	01520863          	beq	x4,x21,106c <I_sh_cg_cp_rs2_edges_0x5bbc8872+0x24>
    1060:	65c002ef          	jal	x5,16bc <failedtest_x5_x4>
    1064:	00001048          	.word	0x00001048
    1068:	0000504c          	.word	0x0000504c
    106c:	004d8d93          	addi	x27,x27,4
  nop
  nop
#endif

# Testcase cp_rs2_edges (Test source rs2 value = 0xaaaaaaaa)
  RVTEST_TESTDATA_LOAD_INT(x19, x26) # load rs2: x26 = 0xaaaaaaaa
    1070:	0009ad03          	lw	x26,0(x19)
    1074:	00498993          	addi	x19,x19,4
  mv x29, x27 # move signature pointer register
    1078:	000d8e93          	addi	x29,x27,0
  addi x29, x29, 953 # adjust base address for offset
    107c:	3b9e8e93          	addi	x29,x29,953

00001080 <I_sh_cg_cp_rs2_edges_0xaaaaaaaa>:
I_sh_cg_cp_rs2_edges_0xaaaaaaaa:
  sh x26, -953(x29) # perform store
    1080:	c5ae93a3          	sh	x26,-953(x29)
  addi x29, x29, -953 # restore base address
    1084:	c47e8e93          	addi	x29,x29,-953
  addi x29, x29, SIG_STRIDE # increment signature pointer
    1088:	004e8e93          	addi	x29,x29,4
#ifdef RVTEST_SELFCHECK
  LREG x23, -SIG_STRIDE(x29) # load stored value for checking
    108c:	ffceab83          	lw	x23,-4(x29)
  # Check if x23 contains the expected result. x29 is the signature ptr, x5 is the link ptr, x4 is a temp reg.
  RVTEST_SIGUPD(x29, x5, x4, x23, I_sh_cg_cp_rs2_edges_0xaaaaaaaa, I_sh_cg_cp_rs2_edges_0xaaaaaaaa_str)
    1090:	000ea203          	lw	x4,0(x29)
    1094:	01720863          	beq	x4,x23,10a4 <I_sh_cg_cp_rs2_edges_0xaaaaaaaa+0x24>
    1098:	624002ef          	jal	x5,16bc <failedtest_x5_x4>
    109c:	00001080          	.word	0x00001080
    10a0:	00005087          	.word	0x00005087
    10a4:	004e8e93          	addi	x29,x29,4
  nop
  nop
#endif

# Testcase cp_rs2_edges (Test source rs2 value = 0x55555555)
  RVTEST_TESTDATA_LOAD_INT(x19, x16) # load rs2: x16 = 0x55555555
    10a8:	0009a803          	lw	x16,0(x19)
    10ac:	00498993          	addi	x19,x19,4
  mv x6, x29 # move signature pointer register
    10b0:	000e8313          	addi	x6,x29,0
  addi x6, x6, -1644 # adjust base address for offset
    10b4:	99430313          	addi	x6,x6,-1644

000010b8 <I_sh_cg_cp_rs2_edges_0x55555555>:
I_sh_cg_cp_rs2_edges_0x55555555:
  sh x16, 1644(x6) # perform store
    10b8:	67031623          	sh	x16,1644(x6)
  addi x6, x6, 1644 # restore base address
    10bc:	66c30313          	addi	x6,x6,1644
  addi x6, x6, SIG_STRIDE # increment signature pointer
    10c0:	00430313          	addi	x6,x6,4
#ifdef RVTEST_SELFCHECK
  LREG x9, -SIG_STRIDE(x6) # load stored value for checking
    10c4:	ffc32483          	lw	x9,-4(x6)
  # Check if x9 contains the expected result. x6 is the signature ptr, x5 is the link ptr, x4 is a temp reg.
  RVTEST_SIGUPD(x6, x5, x4, x9, I_sh_cg_cp_rs2_edges_0x55555555, I_sh_cg_cp_rs2_edges_0x55555555_str)
    10c8:	00032203          	lw	x4,0(x6)
    10cc:	00920863          	beq	x4,x9,10dc <I_sh_cg_cp_rs2_edges_0x55555555+0x24>
    10d0:	5ec002ef          	jal	x5,16bc <failedtest_x5_x4>
    10d4:	000010b8          	.word	0x000010b8
    10d8:	000050c2          	.word	0x000050c2
    10dc:	00430313          	addi	x6,x6,4
/////////////////////////////////
// cp_imm_edges
/////////////////////////////////

# Testcase cp_imm_edges (imm = 0)
  RVTEST_TESTDATA_LOAD_INT(x19, x28) # load rs2: x28 = 0x7574693a
    10e0:	0009ae03          	lw	x28,0(x19)
    10e4:	00498993          	addi	x19,x19,4
  mv x3, x6 # move signature pointer register
    10e8:	00030193          	addi	x3,x6,0
  addi x3, x3, 0 # adjust base address for offset
    10ec:	00018193          	addi	x3,x3,0

000010f0 <I_sh_cg_cp_imm_edges_0x0>:
I_sh_cg_cp_imm_edges_0x0:
  sh x28, 0(x3) # perform store
    10f0:	01c19023          	sh	x28,0(x3)
  addi x3, x3, 0 # restore base address
    10f4:	00018193          	addi	x3,x3,0
  addi x3, x3, SIG_STRIDE # increment signature pointer
    10f8:	00418193          	addi	x3,x3,4
#ifdef RVTEST_SELFCHECK
  LREG x14, -SIG_STRIDE(x3) # load stored value for checking
    10fc:	ffc1a703          	lw	x14,-4(x3)
  # Check if x14 contains the expected result. x3 is the signature ptr, x5 is the link ptr, x4 is a temp reg.
  RVTEST_SIGUPD(x3, x5, x4, x14, I_sh_cg_cp_imm_edges_0x0, I_sh_cg_cp_imm_edges_0x0_str)
    1100:	0001a203          	lw	x4,0(x3)
    1104:	00e20863          	beq	x4,x14,1114 <I_sh_cg_cp_imm_edges_0x0+0x24>
    1108:	5b4002ef          	jal	x5,16bc <failedtest_x5_x4>
    110c:	000010f0          	.word	0x000010f0
    1110:	000050fd          	.word	0x000050fd
    1114:	00418193          	addi	x3,x3,4
  nop
  nop
#endif

# Testcase cp_imm_edges (imm = 1)
  RVTEST_TESTDATA_LOAD_INT(x19, x1) # load rs2: x1 = 0xb350897d
    1118:	0009a083          	lw	x1,0(x19)
    111c:	00498993          	addi	x19,x19,4
  mv x8, x3 # move signature pointer register
    1120:	00018413          	addi	x8,x3,0
  addi x8, x8, -1 # adjust base address for offset
    1124:	fff40413          	addi	x8,x8,-1

00001128 <I_sh_cg_cp_imm_edges_0x1>:
I_sh_cg_cp_imm_edges_0x1:
  sh x1, 1(x8) # perform store
    1128:	001410a3          	sh	x1,1(x8)
  addi x8, x8, 1 # restore base address
    112c:	00140413          	addi	x8,x8,1
  addi x8, x8, SIG_STRIDE # increment signature pointer
    1130:	00440413          	addi	x8,x8,4
#ifdef RVTEST_SELFCHECK
  LREG x27, -SIG_STRIDE(x8) # load stored value for checking
    1134:	ffc42d83          	lw	x27,-4(x8)
  # Check if x27 contains the expected result. x8 is the signature ptr, x5 is the link ptr, x4 is a temp reg.
  RVTEST_SIGUPD(x8, x5, x4, x27, I_sh_cg_cp_imm_edges_0x1, I_sh_cg_cp_imm_edges_0x1_str)
    1138:	00042203          	lw	x4,0(x8)
    113c:	01b20863          	beq	x4,x27,114c <I_sh_cg_cp_imm_edges_0x1+0x24>
    1140:	57c002ef          	jal	x5,16bc <failedtest_x5_x4>
    1144:	00001128          	.word	0x00001128
    1148:	00005131          	.word	0x00005131
    114c:	00440413          	addi	x8,x8,4
  nop
  nop
#endif

# Testcase cp_imm_edges (imm = 2)
  RVTEST_TESTDATA_LOAD_INT(x19, x2) # load rs2: x2 = 0x1a59fa2f
    1150:	0009a103          	lw	x2,0(x19)
    1154:	00498993          	addi	x19,x19,4
  mv x16, x8 # move signature pointer register
    1158:	00040813          	addi	x16,x8,0
  addi x16, x16, -2 # adjust base address for offset
    115c:	ffe80813          	addi	x16,x16,-2

00001160 <I_sh_cg_cp_imm_edges_0x2>:
I_sh_cg_cp_imm_edges_0x2:
  sh x2, 2(x16) # perform store
    1160:	00281123          	sh	x2,2(x16)
  addi x16, x16, 2 # restore base address
    1164:	00280813          	addi	x16,x16,2
  addi x16, x16, SIG_STRIDE # increment signature pointer
    1168:	00480813          	addi	x16,x16,4
#ifdef RVTEST_SELFCHECK
  LREG x15, -SIG_STRIDE(x16) # load stored value for checking
    116c:	ffc82783          	lw	x15,-4(x16)
  # Check if x15 contains the expected result. x16 is the signature ptr, x5 is the link ptr, x4 is a temp reg.
  RVTEST_SIGUPD(x16, x5, x4, x15, I_sh_cg_cp_imm_edges_0x2, I_sh_cg_cp_imm_edges_0x2_str)
    1170:	00082203          	lw	x4,0(x16)
    1174:	00f20863          	beq	x4,x15,1184 <I_sh_cg_cp_imm_edges_0x2+0x24>
    1178:	544002ef          	jal	x5,16bc <failedtest_x5_x4>
    117c:	00001160          	.word	0x00001160
    1180:	00005165          	.word	0x00005165
    1184:	00480813          	addi	x16,x16,4
  nop
  nop
#endif

# Testcase cp_imm_edges (imm = 3)
  RVTEST_TESTDATA_LOAD_INT(x19, x21) # load rs2: x21 = 0x3c3e5e0e
    1188:	0009aa83          	lw	x21,0(x19)
    118c:	00498993          	addi	x19,x19,4
  mv x6, x16 # move signature pointer register
    1190:	00080313          	addi	x6,x16,0
  addi x6, x6, -3 # adjust base address for offset
    1194:	ffd30313          	addi	x6,x6,-3

00001198 <I_sh_cg_cp_imm_edges_0x3>:
I_sh_cg_cp_imm_edges_0x3:
  sh x21, 3(x6) # perform store
    1198:	015311a3          	sh	x21,3(x6)
  addi x6, x6, 3 # restore base address
    119c:	00330313          	addi	x6,x6,3
  addi x6, x6, SIG_STRIDE # increment signature pointer
    11a0:	00430313          	addi	x6,x6,4
#ifdef RVTEST_SELFCHECK
  LREG x26, -SIG_STRIDE(x6) # load stored value for checking
    11a4:	ffc32d03          	lw	x26,-4(x6)
  # Check if x26 contains the expected result. x6 is the signature ptr, x5 is the link ptr, x4 is a temp reg.
  RVTEST_SIGUPD(x6, x5, x4, x26, I_sh_cg_cp_imm_edges_0x3, I_sh_cg_cp_imm_edges_0x3_str)
    11a8:	00032203          	lw	x4,0(x6)
    11ac:	01a20863          	beq	x4,x26,11bc <I_sh_cg_cp_imm_edges_0x3+0x24>
    11b0:	50c002ef          	jal	x5,16bc <failedtest_x5_x4>
    11b4:	00001198          	.word	0x00001198
    11b8:	00005199          	.word	0x00005199
    11bc:	00430313          	addi	x6,x6,4
  nop
  nop
#endif

# Testcase cp_imm_edges (imm = 4)
  RVTEST_TESTDATA_LOAD_INT(x19, x18) # load rs2: x18 = 0x7deb8843
    11c0:	0009a903          	lw	x18,0(x19)
    11c4:	00498993          	addi	x19,x19,4
  mv x27, x6 # move signature pointer register
    11c8:	00030d93          	addi	x27,x6,0
  addi x27, x27, -4 # adjust base address for offset
    11cc:	ffcd8d93          	addi	x27,x27,-4

000011d0 <I_sh_cg_cp_imm_edges_0x4>:
I_sh_cg_cp_imm_edges_0x4:
  sh x18, 4(x27) # perform store
    11d0:	012d9223          	sh	x18,4(x27)
  addi x27, x27, 4 # restore base address
    11d4:	004d8d93          	addi	x27,x27,4
  addi x27, x27, SIG_STRIDE # increment signature pointer
    11d8:	004d8d93          	addi	x27,x27,4
#ifdef RVTEST_SELFCHECK
  LREG x9, -SIG_STRIDE(x27) # load stored value for checking
    11dc:	ffcda483          	lw	x9,-4(x27)
  # Check if x9 contains the expected result. x27 is the signature ptr, x5 is the link ptr, x4 is a temp reg.
  RVTEST_SIGUPD(x27, x5, x4, x9, I_sh_cg_cp_imm_edges_0x4, I_sh_cg_cp_imm_edges_0x4_str)
    11e0:	000da203          	lw	x4,0(x27)
    11e4:	00920863          	beq	x4,x9,11f4 <I_sh_cg_cp_imm_edges_0x4+0x24>
    11e8:	4d4002ef          	jal	x5,16bc <failedtest_x5_x4>
    11ec:	000011d0          	.word	0x000011d0
    11f0:	000051cd          	.word	0x000051cd
    11f4:	004d8d93          	addi	x27,x27,4
  nop
  nop
#endif

# Testcase cp_imm_edges (imm = 8)
  RVTEST_TESTDATA_LOAD_INT(x19, x21) # load rs2: x21 = 0x2e8c6728
    11f8:	0009aa83          	lw	x21,0(x19)
    11fc:	00498993          	addi	x19,x19,4
  mv x1, x27 # move signature pointer register
    1200:	000d8093          	addi	x1,x27,0
  addi x1, x1, -8 # adjust base address for offset
    1204:	ff808093          	addi	x1,x1,-8

00001208 <I_sh_cg_cp_imm_edges_0x8>:
I_sh_cg_cp_imm_edges_0x8:
  sh x21, 8(x1) # perform store
    1208:	01509423          	sh	x21,8(x1)
  addi x1, x1, 8 # restore base address
    120c:	00808093          	addi	x1,x1,8
  addi x1, x1, SIG_STRIDE # increment signature pointer
    1210:	00408093          	addi	x1,x1,4
#ifdef RVTEST_SELFCHECK
  LREG x11, -SIG_STRIDE(x1) # load stored value for checking
    1214:	ffc0a583          	lw	x11,-4(x1)
  # Check if x11 contains the expected result. x1 is the signature ptr, x5 is the link ptr, x4 is a temp reg.
  RVTEST_SIGUPD(x1, x5, x4, x11, I_sh_cg_cp_imm_edges_0x8, I_sh_cg_cp_imm_edges_0x8_str)
    1218:	0000a203          	lw	x4,0(x1)
    121c:	00b20863          	beq	x4,x11,122c <I_sh_cg_cp_imm_edges_0x8+0x24>
    1220:	49c002ef          	jal	x5,16bc <failedtest_x5_x4>
    1224:	00001208          	.word	0x00001208
    1228:	00005201          	.word	0x00005201
    122c:	00408093          	addi	x1,x1,4
  nop
  nop
#endif

# Testcase cp_imm_edges (imm = 16)
  RVTEST_TESTDATA_LOAD_INT(x19, x31) # load rs2: x31 = 0xe8f58d21
    1230:	0009af83          	lw	x31,0(x19)
    1234:	00498993          	addi	x19,x19,4
  mv x15, x1 # move signature pointer register
    1238:	00008793          	addi	x15,x1,0
  addi x15, x15, -16 # adjust base address for offset
    123c:	ff078793          	addi	x15,x15,-16

00001240 <I_sh_cg_cp_imm_edges_0x10>:
I_sh_cg_cp_imm_edges_0x10:
  sh x31, 16(x15) # perform store
    1240:	01f79823          	sh	x31,16(x15)
  addi x15, x15, 16 # restore base address
    1244:	01078793          	addi	x15,x15,16
  addi x15, x15, SIG_STRIDE # increment signature pointer
    1248:	00478793          	addi	x15,x15,4
#ifdef RVTEST_SELFCHECK
  LREG x9, -SIG_STRIDE(x15) # load stored value for checking
    124c:	ffc7a483          	lw	x9,-4(x15)
  # Check if x9 contains the expected result. x15 is the signature ptr, x5 is the link ptr, x4 is a temp reg.
  RVTEST_SIGUPD(x15, x5, x4, x9, I_sh_cg_cp_imm_edges_0x10, I_sh_cg_cp_imm_edges_0x10_str)
    1250:	0007a203          	lw	x4,0(x15)
    1254:	00920863          	beq	x4,x9,1264 <I_sh_cg_cp_imm_edges_0x10+0x24>
    1258:	464002ef          	jal	x5,16bc <failedtest_x5_x4>
    125c:	00001240          	.word	0x00001240
    1260:	00005235          	.word	0x00005235
    1264:	00478793          	addi	x15,x15,4
  nop
  nop
#endif

# Testcase cp_imm_edges (imm = 32)
  RVTEST_TESTDATA_LOAD_INT(x19, x3) # load rs2: x3 = 0xd9c81d95
    1268:	0009a183          	lw	x3,0(x19)
    126c:	00498993          	addi	x19,x19,4
  mv x22, x15 # move signature pointer register
    1270:	00078b13          	addi	x22,x15,0
  addi x22, x22, -32 # adjust base address for offset
    1274:	fe0b0b13          	addi	x22,x22,-32

00001278 <I_sh_cg_cp_imm_edges_0x20>:
I_sh_cg_cp_imm_edges_0x20:
  sh x3, 32(x22) # perform store
    1278:	023b1023          	sh	x3,32(x22)
  addi x22, x22, 32 # restore base address
    127c:	020b0b13          	addi	x22,x22,32
  addi x22, x22, SIG_STRIDE # increment signature pointer
    1280:	004b0b13          	addi	x22,x22,4
#ifdef RVTEST_SELFCHECK
  LREG x30, -SIG_STRIDE(x22) # load stored value for checking
    1284:	ffcb2f03          	lw	x30,-4(x22)
  # Check if x30 contains the expected result. x22 is the signature ptr, x5 is the link ptr, x4 is a temp reg.
  RVTEST_SIGUPD(x22, x5, x4, x30, I_sh_cg_cp_imm_edges_0x20, I_sh_cg_cp_imm_edges_0x20_str)
    1288:	000b2203          	lw	x4,0(x22)
    128c:	01e20863          	beq	x4,x30,129c <I_sh_cg_cp_imm_edges_0x20+0x24>
    1290:	42c002ef          	jal	x5,16bc <failedtest_x5_x4>
    1294:	00001278          	.word	0x00001278
    1298:	0000526a          	.word	0x0000526a
    129c:	004b0b13          	addi	x22,x22,4
  nop
  nop
#endif

# Testcase cp_imm_edges (imm = 64)
  RVTEST_TESTDATA_LOAD_INT(x19, x20) # load rs2: x20 = 0x8a1e5fc0
    12a0:	0009aa03          	lw	x20,0(x19)
    12a4:	00498993          	addi	x19,x19,4
  mv x29, x22 # move signature pointer register
    12a8:	000b0e93          	addi	x29,x22,0
  addi x29, x29, -64 # adjust base address for offset
    12ac:	fc0e8e93          	addi	x29,x29,-64

000012b0 <I_sh_cg_cp_imm_edges_0x40>:
I_sh_cg_cp_imm_edges_0x40:
  sh x20, 64(x29) # perform store
    12b0:	054e9023          	sh	x20,64(x29)
  addi x29, x29, 64 # restore base address
    12b4:	040e8e93          	addi	x29,x29,64
  addi x29, x29, SIG_STRIDE # increment signature pointer
    12b8:	004e8e93          	addi	x29,x29,4
#ifdef RVTEST_SELFCHECK
  LREG x12, -SIG_STRIDE(x29) # load stored value for checking
    12bc:	ffcea603          	lw	x12,-4(x29)
  # Check if x12 contains the expected result. x29 is the signature ptr, x5 is the link ptr, x4 is a temp reg.
  RVTEST_SIGUPD(x29, x5, x4, x12, I_sh_cg_cp_imm_edges_0x40, I_sh_cg_cp_imm_edges_0x40_str)
    12c0:	000ea203          	lw	x4,0(x29)
    12c4:	00c20863          	beq	x4,x12,12d4 <I_sh_cg_cp_imm_edges_0x40+0x24>
    12c8:	3f4002ef          	jal	x5,16bc <failedtest_x5_x4>
    12cc:	000012b0          	.word	0x000012b0
    12d0:	0000529f          	.word	0x0000529f
    12d4:	004e8e93          	addi	x29,x29,4
  nop
  nop
#endif

# Testcase cp_imm_edges (imm = 128)
  RVTEST_TESTDATA_LOAD_INT(x19, x12) # load rs2: x12 = 0xa3c6d963
    12d8:	0009a603          	lw	x12,0(x19)
    12dc:	00498993          	addi	x19,x19,4
  mv x17, x29 # move signature pointer register
    12e0:	000e8893          	addi	x17,x29,0
  addi x17, x17, -128 # adjust base address for offset
    12e4:	f8088893          	addi	x17,x17,-128

000012e8 <I_sh_cg_cp_imm_edges_0x80>:
I_sh_cg_cp_imm_edges_0x80:
  sh x12, 128(x17) # perform store
    12e8:	08c89023          	sh	x12,128(x17)
  addi x17, x17, 128 # restore base address
    12ec:	08088893          	addi	x17,x17,128
  addi x17, x17, SIG_STRIDE # increment signature pointer
    12f0:	00488893          	addi	x17,x17,4
#ifdef RVTEST_SELFCHECK
  LREG x6, -SIG_STRIDE(x17) # load stored value for checking
    12f4:	ffc8a303          	lw	x6,-4(x17)
  # Check if x6 contains the expected result. x17 is the signature ptr, x5 is the link ptr, x4 is a temp reg.
  RVTEST_SIGUPD(x17, x5, x4, x6, I_sh_cg_cp_imm_edges_0x80, I_sh_cg_cp_imm_edges_0x80_str)
    12f8:	0008a203          	lw	x4,0(x17)
    12fc:	00620863          	beq	x4,x6,130c <I_sh_cg_cp_imm_edges_0x80+0x24>
    1300:	3bc002ef          	jal	x5,16bc <failedtest_x5_x4>
    1304:	000012e8          	.word	0x000012e8
    1308:	000052d4          	.word	0x000052d4
    130c:	00488893          	addi	x17,x17,4
  nop
  nop
#endif

# Testcase cp_imm_edges (imm = 256)
  RVTEST_TESTDATA_LOAD_INT(x19, x11) # load rs2: x11 = 0xf279e98a
    1310:	0009a583          	lw	x11,0(x19)
    1314:	00498993          	addi	x19,x19,4
  mv x15, x17 # move signature pointer register
    1318:	00088793          	addi	x15,x17,0
  addi x15, x15, -256 # adjust base address for offset
    131c:	f0078793          	addi	x15,x15,-256

00001320 <I_sh_cg_cp_imm_edges_0x100>:
I_sh_cg_cp_imm_edges_0x100:
  sh x11, 256(x15) # perform store
    1320:	10b79023          	sh	x11,256(x15)
  addi x15, x15, 256 # restore base address
    1324:	10078793          	addi	x15,x15,256
  addi x15, x15, SIG_STRIDE # increment signature pointer
    1328:	00478793          	addi	x15,x15,4
#ifdef RVTEST_SELFCHECK
  LREG x10, -SIG_STRIDE(x15) # load stored value for checking
    132c:	ffc7a503          	lw	x10,-4(x15)
  # Check if x10 contains the expected result. x15 is the signature ptr, x5 is the link ptr, x4 is a temp reg.
  RVTEST_SIGUPD(x15, x5, x4, x10, I_sh_cg_cp_imm_edges_0x100, I_sh_cg_cp_imm_edges_0x100_str)
    1330:	0007a203          	lw	x4,0(x15)
    1334:	00a20863          	beq	x4,x10,1344 <I_sh_cg_cp_imm_edges_0x100+0x24>
    1338:	384002ef          	jal	x5,16bc <failedtest_x5_x4>
    133c:	00001320          	.word	0x00001320
    1340:	00005309          	.word	0x00005309
    1344:	00478793          	addi	x15,x15,4
  nop
  nop
#endif

# Testcase cp_imm_edges (imm = 512)
  RVTEST_TESTDATA_LOAD_INT(x19, x23) # load rs2: x23 = 0xaf15dc5d
    1348:	0009ab83          	lw	x23,0(x19)
    134c:	00498993          	addi	x19,x19,4
  mv x17, x15 # move signature pointer register
    1350:	00078893          	addi	x17,x15,0
  addi x17, x17, -512 # adjust base address for offset
    1354:	e0088893          	addi	x17,x17,-512

00001358 <I_sh_cg_cp_imm_edges_0x200>:
I_sh_cg_cp_imm_edges_0x200:
  sh x23, 512(x17) # perform store
    1358:	21789023          	sh	x23,512(x17)
  addi x17, x17, 512 # restore base address
    135c:	20088893          	addi	x17,x17,512
  addi x17, x17, SIG_STRIDE # increment signature pointer
    1360:	00488893          	addi	x17,x17,4
#ifdef RVTEST_SELFCHECK
  LREG x8, -SIG_STRIDE(x17) # load stored value for checking
    1364:	ffc8a403          	lw	x8,-4(x17)
  # Check if x8 contains the expected result. x17 is the signature ptr, x5 is the link ptr, x4 is a temp reg.
  RVTEST_SIGUPD(x17, x5, x4, x8, I_sh_cg_cp_imm_edges_0x200, I_sh_cg_cp_imm_edges_0x200_str)
    1368:	0008a203          	lw	x4,0(x17)
    136c:	00820863          	beq	x4,x8,137c <I_sh_cg_cp_imm_edges_0x200+0x24>
    1370:	34c002ef          	jal	x5,16bc <failedtest_x5_x4>
    1374:	00001358          	.word	0x00001358
    1378:	0000533f          	.word	0x0000533f
    137c:	00488893          	addi	x17,x17,4
  nop
  nop
#endif

# Testcase cp_imm_edges (imm = 1023)
  RVTEST_TESTDATA_LOAD_INT(x19, x29) # load rs2: x29 = 0x6590a8f4
    1380:	0009ae83          	lw	x29,0(x19)
    1384:	00498993          	addi	x19,x19,4
  mv x14, x17 # move signature pointer register
    1388:	00088713          	addi	x14,x17,0
  addi x14, x14, -1023 # adjust base address for offset
    138c:	c0170713          	addi	x14,x14,-1023

00001390 <I_sh_cg_cp_imm_edges_0x3ff>:
I_sh_cg_cp_imm_edges_0x3ff:
  sh x29, 1023(x14) # perform store
    1390:	3fd71fa3          	sh	x29,1023(x14)
  addi x14, x14, 1023 # restore base address
    1394:	3ff70713          	addi	x14,x14,1023
  addi x14, x14, SIG_STRIDE # increment signature pointer
    1398:	00470713          	addi	x14,x14,4
#ifdef RVTEST_SELFCHECK
  LREG x24, -SIG_STRIDE(x14) # load stored value for checking
    139c:	ffc72c03          	lw	x24,-4(x14)
  # Check if x24 contains the expected result. x14 is the signature ptr, x5 is the link ptr, x4 is a temp reg.
  RVTEST_SIGUPD(x14, x5, x4, x24, I_sh_cg_cp_imm_edges_0x3ff, I_sh_cg_cp_imm_edges_0x3ff_str)
    13a0:	00072203          	lw	x4,0(x14)
    13a4:	01820863          	beq	x4,x24,13b4 <I_sh_cg_cp_imm_edges_0x3ff+0x24>
    13a8:	314002ef          	jal	x5,16bc <failedtest_x5_x4>
    13ac:	00001390          	.word	0x00001390
    13b0:	00005375          	.word	0x00005375
    13b4:	00470713          	addi	x14,x14,4
  nop
  nop
#endif

# Testcase cp_imm_edges (imm = 1024)
  RVTEST_TESTDATA_LOAD_INT(x19, x3) # load rs2: x3 = 0x28809ff1
    13b8:	0009a183          	lw	x3,0(x19)
    13bc:	00498993          	addi	x19,x19,4
  mv x22, x14 # move signature pointer register
    13c0:	00070b13          	addi	x22,x14,0
  addi x22, x22, -1024 # adjust base address for offset
    13c4:	c00b0b13          	addi	x22,x22,-1024

000013c8 <I_sh_cg_cp_imm_edges_0x400>:
I_sh_cg_cp_imm_edges_0x400:
  sh x3, 1024(x22) # perform store
    13c8:	403b1023          	sh	x3,1024(x22)
  addi x22, x22, 1024 # restore base address
    13cc:	400b0b13          	addi	x22,x22,1024
  addi x22, x22, SIG_STRIDE # increment signature pointer
    13d0:	004b0b13          	addi	x22,x22,4
#ifdef RVTEST_SELFCHECK
  LREG x31, -SIG_STRIDE(x22) # load stored value for checking
    13d4:	ffcb2f83          	lw	x31,-4(x22)
  # Check if x31 contains the expected result. x22 is the signature ptr, x5 is the link ptr, x4 is a temp reg.
  RVTEST_SIGUPD(x22, x5, x4, x31, I_sh_cg_cp_imm_edges_0x400, I_sh_cg_cp_imm_edges_0x400_str)
    13d8:	000b2203          	lw	x4,0(x22)
    13dc:	01f20863          	beq	x4,x31,13ec <I_sh_cg_cp_imm_edges_0x400+0x24>
    13e0:	2dc002ef          	jal	x5,16bc <failedtest_x5_x4>
    13e4:	000013c8          	.word	0x000013c8
    13e8:	000053ab          	.word	0x000053ab
    13ec:	004b0b13          	addi	x22,x22,4
  nop
  nop
#endif

# Testcase cp_imm_edges (imm = 1795)
  RVTEST_TESTDATA_LOAD_INT(x19, x8) # load rs2: x8 = 0xb34de811
    13f0:	0009a403          	lw	x8,0(x19)
    13f4:	00498993          	addi	x19,x19,4
  mv x16, x22 # move signature pointer register
    13f8:	000b0813          	addi	x16,x22,0
  addi x16, x16, -1795 # adjust base address for offset
    13fc:	8fd80813          	addi	x16,x16,-1795

00001400 <I_sh_cg_cp_imm_edges_0x703>:
I_sh_cg_cp_imm_edges_0x703:
  sh x8, 1795(x16) # perform store
    1400:	708811a3          	sh	x8,1795(x16)
  addi x16, x16, 1795 # restore base address
    1404:	70380813          	addi	x16,x16,1795
  addi x16, x16, SIG_STRIDE # increment signature pointer
    1408:	00480813          	addi	x16,x16,4
#ifdef RVTEST_SELFCHECK
  LREG x23, -SIG_STRIDE(x16) # load stored value for checking
    140c:	ffc82b83          	lw	x23,-4(x16)
  # Check if x23 contains the expected result. x16 is the signature ptr, x5 is the link ptr, x4 is a temp reg.
  RVTEST_SIGUPD(x16, x5, x4, x23, I_sh_cg_cp_imm_edges_0x703, I_sh_cg_cp_imm_edges_0x703_str)
    1410:	00082203          	lw	x4,0(x16)
    1414:	01720863          	beq	x4,x23,1424 <I_sh_cg_cp_imm_edges_0x703+0x24>
    1418:	2a4002ef          	jal	x5,16bc <failedtest_x5_x4>
    141c:	00001400          	.word	0x00001400
    1420:	000053e1          	.word	0x000053e1
    1424:	00480813          	addi	x16,x16,4
  nop
  nop
#endif

# Testcase cp_imm_edges (imm = 2047)
  RVTEST_TESTDATA_LOAD_INT(x19, x30) # load rs2: x30 = 0x4280ca38
    1428:	0009af03          	lw	x30,0(x19)
    142c:	00498993          	addi	x19,x19,4
  mv x12, x16 # move signature pointer register
    1430:	00080613          	addi	x12,x16,0
  addi x12, x12, -2047 # adjust base address for offset
    1434:	80160613          	addi	x12,x12,-2047

00001438 <I_sh_cg_cp_imm_edges_0x7ff>:
I_sh_cg_cp_imm_edges_0x7ff:
  sh x30, 2047(x12) # perform store
    1438:	7fe61fa3          	sh	x30,2047(x12)
  addi x12, x12, 2047 # restore base address
    143c:	7ff60613          	addi	x12,x12,2047
  addi x12, x12, SIG_STRIDE # increment signature pointer
    1440:	00460613          	addi	x12,x12,4
#ifdef RVTEST_SELFCHECK
  LREG x3, -SIG_STRIDE(x12) # load stored value for checking
    1444:	ffc62183          	lw	x3,-4(x12)
  # Check if x3 contains the expected result. x12 is the signature ptr, x5 is the link ptr, x4 is a temp reg.
  RVTEST_SIGUPD(x12, x5, x4, x3, I_sh_cg_cp_imm_edges_0x7ff, I_sh_cg_cp_imm_edges_0x7ff_str)
    1448:	00062203          	lw	x4,0(x12)
    144c:	00320863          	beq	x4,x3,145c <I_sh_cg_cp_imm_edges_0x7ff+0x24>
    1450:	26c002ef          	jal	x5,16bc <failedtest_x5_x4>
    1454:	00001438          	.word	0x00001438
    1458:	00005417          	.word	0x00005417
    145c:	00460613          	addi	x12,x12,4
  nop
  nop
#endif

# Testcase cp_imm_edges (imm = -2048)
  RVTEST_TESTDATA_LOAD_INT(x19, x27) # load rs2: x27 = 0xaf7d709d
    1460:	0009ad83          	lw	x27,0(x19)
    1464:	00498993          	addi	x19,x19,4
  mv x13, x12 # move signature pointer register
    1468:	00060693          	addi	x13,x12,0
  addi x13, x13, 2047 # increment by 2047
    146c:	7ff68693          	addi	x13,x13,2047
  addi x13, x13, 1 # increment by 1 more for total +2048
    1470:	00168693          	addi	x13,x13,1

00001474 <I_sh_cg_cp_imm_edges_m0x800>:
I_sh_cg_cp_imm_edges_m0x800:
  sh x27, -2048(x13) # perform store
    1474:	81b69023          	sh	x27,-2048(x13)
  addi x13, x13, -2048 # restore base address
    1478:	80068693          	addi	x13,x13,-2048
  addi x13, x13, SIG_STRIDE # increment signature pointer
    147c:	00468693          	addi	x13,x13,4
#ifdef RVTEST_SELFCHECK
  LREG x1, -SIG_STRIDE(x13) # load stored value for checking
    1480:	ffc6a083          	lw	x1,-4(x13)
  # Check if x1 contains the expected result. x13 is the signature ptr, x5 is the link ptr, x4 is a temp reg.
  RVTEST_SIGUPD(x13, x5, x4, x1, I_sh_cg_cp_imm_edges_m0x800, I_sh_cg_cp_imm_edges_m0x800_str)
    1484:	0006a203          	lw	x4,0(x13)
    1488:	00120863          	beq	x4,x1,1498 <I_sh_cg_cp_imm_edges_m0x800+0x24>
    148c:	230002ef          	jal	x5,16bc <failedtest_x5_x4>
    1490:	00001474          	.word	0x00001474
    1494:	0000544d          	.word	0x0000544d
    1498:	00468693          	addi	x13,x13,4
  nop
  nop
#endif

# Testcase cp_imm_edges (imm = -2047)
  RVTEST_TESTDATA_LOAD_INT(x19, x10) # load rs2: x10 = 0xbe6f88a5
    149c:	0009a503          	lw	x10,0(x19)
    14a0:	00498993          	addi	x19,x19,4
  mv x31, x13 # move signature pointer register
    14a4:	00068f93          	addi	x31,x13,0
  addi x31, x31, 2047 # adjust base address for offset
    14a8:	7fff8f93          	addi	x31,x31,2047

000014ac <I_sh_cg_cp_imm_edges_m0x7ff>:
I_sh_cg_cp_imm_edges_m0x7ff:
  sh x10, -2047(x31) # perform store
    14ac:	80af90a3          	sh	x10,-2047(x31)
  addi x31, x31, -2047 # restore base address
    14b0:	801f8f93          	addi	x31,x31,-2047
  addi x31, x31, SIG_STRIDE # increment signature pointer
    14b4:	004f8f93          	addi	x31,x31,4
#ifdef RVTEST_SELFCHECK
  LREG x25, -SIG_STRIDE(x31) # load stored value for checking
    14b8:	ffcfac83          	lw	x25,-4(x31)
  # Check if x25 contains the expected result. x31 is the signature ptr, x5 is the link ptr, x4 is a temp reg.
  RVTEST_SIGUPD(x31, x5, x4, x25, I_sh_cg_cp_imm_edges_m0x7ff, I_sh_cg_cp_imm_edges_m0x7ff_str)
    14bc:	000fa203          	lw	x4,0(x31)
    14c0:	01920863          	beq	x4,x25,14d0 <I_sh_cg_cp_imm_edges_m0x7ff+0x24>
    14c4:	1f8002ef          	jal	x5,16bc <failedtest_x5_x4>
    14c8:	000014ac          	.word	0x000014ac
    14cc:	00005484          	.word	0x00005484
    14d0:	004f8f93          	addi	x31,x31,4
  nop
  nop
#endif

# Testcase cp_imm_edges (imm = -2)
  RVTEST_TESTDATA_LOAD_INT(x19, x27) # load rs2: x27 = 0xb77a097d
    14d4:	0009ad83          	lw	x27,0(x19)
    14d8:	00498993          	addi	x19,x19,4
  mv x30, x31 # move signature pointer register
    14dc:	000f8f13          	addi	x30,x31,0
  addi x30, x30, 2 # adjust base address for offset
    14e0:	002f0f13          	addi	x30,x30,2

000014e4 <I_sh_cg_cp_imm_edges_m0x2>:
I_sh_cg_cp_imm_edges_m0x2:
  sh x27, -2(x30) # perform store
    14e4:	ffbf1f23          	sh	x27,-2(x30)
  addi x30, x30, -2 # restore base address
    14e8:	ffef0f13          	addi	x30,x30,-2
  addi x30, x30, SIG_STRIDE # increment signature pointer
    14ec:	004f0f13          	addi	x30,x30,4
#ifdef RVTEST_SELFCHECK
  LREG x15, -SIG_STRIDE(x30) # load stored value for checking
    14f0:	ffcf2783          	lw	x15,-4(x30)
  # Check if x15 contains the expected result. x30 is the signature ptr, x5 is the link ptr, x4 is a temp reg.
  RVTEST_SIGUPD(x30, x5, x4, x15, I_sh_cg_cp_imm_edges_m0x2, I_sh_cg_cp_imm_edges_m0x2_str)
    14f4:	000f2203          	lw	x4,0(x30)
    14f8:	00f20863          	beq	x4,x15,1508 <I_sh_cg_cp_imm_edges_m0x2+0x24>
    14fc:	1c0002ef          	jal	x5,16bc <failedtest_x5_x4>
    1500:	000014e4          	.word	0x000014e4
    1504:	000054bb          	.word	0x000054bb
    1508:	004f0f13          	addi	x30,x30,4
  nop
  nop
#endif

# Testcase cp_imm_edges (imm = -1)
  RVTEST_TESTDATA_LOAD_INT(x19, x17) # load rs2: x17 = 0x2ddf1ec3
    150c:	0009a883          	lw	x17,0(x19)
    1510:	00498993          	addi	x19,x19,4
  mv x25, x30 # move signature pointer register
    1514:	000f0c93          	addi	x25,x30,0
  addi x25, x25, 1 # adjust base address for offset
    1518:	001c8c93          	addi	x25,x25,1

0000151c <I_sh_cg_cp_imm_edges_m0x1>:
I_sh_cg_cp_imm_edges_m0x1:
  sh x17, -1(x25) # perform store
    151c:	ff1c9fa3          	sh	x17,-1(x25)
  addi x25, x25, -1 # restore base address
    1520:	fffc8c93          	addi	x25,x25,-1
  addi x25, x25, SIG_STRIDE # increment signature pointer
    1524:	004c8c93          	addi	x25,x25,4
#ifdef RVTEST_SELFCHECK
  LREG x13, -SIG_STRIDE(x25) # load stored value for checking
    1528:	ffcca683          	lw	x13,-4(x25)
  # Check if x13 contains the expected result. x25 is the signature ptr, x5 is the link ptr, x4 is a temp reg.
  RVTEST_SIGUPD(x25, x5, x4, x13, I_sh_cg_cp_imm_edges_m0x1, I_sh_cg_cp_imm_edges_m0x1_str)
    152c:	000ca203          	lw	x4,0(x25)
    1530:	00d20863          	beq	x4,x13,1540 <I_sh_cg_cp_imm_edges_m0x1+0x24>
    1534:	188002ef          	jal	x5,16bc <failedtest_x5_x4>
    1538:	0000151c          	.word	0x0000151c
    153c:	000054f0          	.word	0x000054f0
    1540:	004c8c93          	addi	x25,x25,4
/////////////////////////////////
// cp_align_hword
/////////////////////////////////

# Testcase: cp_align_hword (imm[2:0] = 000)
  RVTEST_TESTDATA_LOAD_INT(x19, x26) # load rs2: x26 = 0x093425c8
    1544:	0009ad03          	lw	x26,0(x19)
    1548:	00498993          	addi	x19,x19,4

0000154c <I_sh_cg_cp_align_hword_b0>:
I_sh_cg_cp_align_hword_b0:
  sh x26, 0(x25) # perform store
    154c:	01ac9023          	sh	x26,0(x25)
  addi x25, x25, 8 # increment signature pointer
    1550:	008c8c93          	addi	x25,x25,8
#ifdef RVTEST_SELFCHECK
  LREG x18, -8(x25) # load stored value for checking
    1554:	ff8ca903          	lw	x18,-8(x25)
  # Check if x18 contains the expected result. x25 is the signature ptr, x5 is the link ptr, x4 is a temp reg.
  RVTEST_SIGUPD(x25, x5, x4, x18, I_sh_cg_cp_align_hword_b0, I_sh_cg_cp_align_hword_b0_str)
    1558:	000ca203          	lw	x4,0(x25)
    155c:	01220863          	beq	x4,x18,156c <I_sh_cg_cp_align_hword_b0+0x20>
    1560:	15c002ef          	jal	x5,16bc <failedtest_x5_x4>
    1564:	0000154c          	.word	0x0000154c
    1568:	00005525          	.word	0x00005525
    156c:	004c8c93          	addi	x25,x25,4
  LREG x18, -8(x25) # load stored value for checking
    1570:	ff8ca903          	lw	x18,-8(x25)
  # Check if x18 contains the expected result. x25 is the signature ptr, x5 is the link ptr, x4 is a temp reg.
  RVTEST_SIGUPD(x25, x5, x4, x18, I_sh_cg_cp_align_hword_b0, I_sh_cg_cp_align_hword_b0_str)
    1574:	000ca203          	lw	x4,0(x25)
    1578:	01220863          	beq	x4,x18,1588 <I_sh_cg_cp_align_hword_b0+0x3c>
    157c:	140002ef          	jal	x5,16bc <failedtest_x5_x4>
    1580:	0000154c          	.word	0x0000154c
    1584:	00005525          	.word	0x00005525
    1588:	004c8c93          	addi	x25,x25,4
  nop
  nop
#endif

# Testcase: cp_align_hword (imm[2:0] = 010)
  RVTEST_TESTDATA_LOAD_INT(x19, x3) # load rs2: x3 = 0xe164258b
    158c:	0009a183          	lw	x3,0(x19)
    1590:	00498993          	addi	x19,x19,4

00001594 <I_sh_cg_cp_align_hword_b2>:
I_sh_cg_cp_align_hword_b2:
  sh x3, 2(x25) # perform store
    1594:	003c9123          	sh	x3,2(x25)
  addi x25, x25, 8 # increment signature pointer
    1598:	008c8c93          	addi	x25,x25,8
#ifdef RVTEST_SELFCHECK
  LREG x30, -8(x25) # load stored value for checking
    159c:	ff8caf03          	lw	x30,-8(x25)
  # Check if x30 contains the expected result. x25 is the signature ptr, x5 is the link ptr, x4 is a temp reg.
  RVTEST_SIGUPD(x25, x5, x4, x30, I_sh_cg_cp_align_hword_b2, I_sh_cg_cp_align_hword_b2_str)
    15a0:	000ca203          	lw	x4,0(x25)
    15a4:	01e20863          	beq	x4,x30,15b4 <I_sh_cg_cp_align_hword_b2+0x20>
    15a8:	114002ef          	jal	x5,16bc <failedtest_x5_x4>
    15ac:	00001594          	.word	0x00001594
    15b0:	0000555a          	.word	0x0000555a
    15b4:	004c8c93          	addi	x25,x25,4
  LREG x30, -8(x25) # load stored value for checking
    15b8:	ff8caf03          	lw	x30,-8(x25)
  # Check if x30 contains the expected result. x25 is the signature ptr, x5 is the link ptr, x4 is a temp reg.
  RVTEST_SIGUPD(x25, x5, x4, x30, I_sh_cg_cp_align_hword_b2, I_sh_cg_cp_align_hword_b2_str)
    15bc:	000ca203          	lw	x4,0(x25)
    15c0:	01e20863          	beq	x4,x30,15d0 <I_sh_cg_cp_align_hword_b2+0x3c>
    15c4:	0f8002ef          	jal	x5,16bc <failedtest_x5_x4>
    15c8:	00001594          	.word	0x00001594
    15cc:	0000555a          	.word	0x0000555a
    15d0:	004c8c93          	addi	x25,x25,4
  nop
  nop
#endif

# Testcase: cp_align_hword (imm[2:0] = 100)
  RVTEST_TESTDATA_LOAD_INT(x19, x15) # load rs2: x15 = 0x5d8804c7
    15d4:	0009a783          	lw	x15,0(x19)
    15d8:	00498993          	addi	x19,x19,4

000015dc <I_sh_cg_cp_align_hword_b4>:
I_sh_cg_cp_align_hword_b4:
  sh x15, 4(x25) # perform store
    15dc:	00fc9223          	sh	x15,4(x25)
  addi x25, x25, 8 # increment signature pointer
    15e0:	008c8c93          	addi	x25,x25,8
#ifdef RVTEST_SELFCHECK
  LREG x1, -8(x25) # load stored value for checking
    15e4:	ff8ca083          	lw	x1,-8(x25)
  # Check if x1 contains the expected result. x25 is the signature ptr, x5 is the link ptr, x4 is a temp reg.
  RVTEST_SIGUPD(x25, x5, x4, x1, I_sh_cg_cp_align_hword_b4, I_sh_cg_cp_align_hword_b4_str)
    15e8:	000ca203          	lw	x4,0(x25)
    15ec:	00120863          	beq	x4,x1,15fc <I_sh_cg_cp_align_hword_b4+0x20>
    15f0:	0cc002ef          	jal	x5,16bc <failedtest_x5_x4>
    15f4:	000015dc          	.word	0x000015dc
    15f8:	0000558f          	.word	0x0000558f
    15fc:	004c8c93          	addi	x25,x25,4
  LREG x1, -8(x25) # load stored value for checking
    1600:	ff8ca083          	lw	x1,-8(x25)
  # Check if x1 contains the expected result. x25 is the signature ptr, x5 is the link ptr, x4 is a temp reg.
  RVTEST_SIGUPD(x25, x5, x4, x1, I_sh_cg_cp_align_hword_b4, I_sh_cg_cp_align_hword_b4_str)
    1604:	000ca203          	lw	x4,0(x25)
    1608:	00120863          	beq	x4,x1,1618 <I_sh_cg_cp_align_hword_b4+0x3c>
    160c:	0b0002ef          	jal	x5,16bc <failedtest_x5_x4>
    1610:	000015dc          	.word	0x000015dc
    1614:	0000558f          	.word	0x0000558f
    1618:	004c8c93          	addi	x25,x25,4
  nop
  nop
#endif

# Testcase: cp_align_hword (imm[2:0] = 110)
  RVTEST_TESTDATA_LOAD_INT(x19, x30) # load rs2: x30 = 0x05ad9488
    161c:	0009af03          	lw	x30,0(x19)
    1620:	00498993          	addi	x19,x19,4

00001624 <I_sh_cg_cp_align_hword_b6>:
I_sh_cg_cp_align_hword_b6:
  sh x30, 6(x25) # perform store
    1624:	01ec9323          	sh	x30,6(x25)
  addi x25, x25, 8 # increment signature pointer
    1628:	008c8c93          	addi	x25,x25,8
#ifdef RVTEST_SELFCHECK
  LREG x8, -8(x25) # load stored value for checking
    162c:	ff8ca403          	lw	x8,-8(x25)
  # Check if x8 contains the expected result. x25 is the signature ptr, x5 is the link ptr, x4 is a temp reg.
  RVTEST_SIGUPD(x25, x5, x4, x8, I_sh_cg_cp_align_hword_b6, I_sh_cg_cp_align_hword_b6_str)
    1630:	000ca203          	lw	x4,0(x25)
    1634:	00820863          	beq	x4,x8,1644 <I_sh_cg_cp_align_hword_b6+0x20>
    1638:	084002ef          	jal	x5,16bc <failedtest_x5_x4>
    163c:	00001624          	.word	0x00001624
    1640:	000055c4          	.word	0x000055c4
    1644:	004c8c93          	addi	x25,x25,4
  LREG x8, -8(x25) # load stored value for checking
    1648:	ff8ca403          	lw	x8,-8(x25)
  # Check if x8 contains the expected result. x25 is the signature ptr, x5 is the link ptr, x4 is a temp reg.
  RVTEST_SIGUPD(x25, x5, x4, x8, I_sh_cg_cp_align_hword_b6, I_sh_cg_cp_align_hword_b6_str)
    164c:	000ca203          	lw	x4,0(x25)
    1650:	00820863          	beq	x4,x8,1660 <I_sh_cg_cp_align_hword_b6+0x3c>
    1654:	068002ef          	jal	x5,16bc <failedtest_x5_x4>
    1658:	00001624          	.word	0x00001624
    165c:	000055c4          	.word	0x000055c4
    1660:	004c8c93          	addi	x25,x25,4
  nop
  nop
#endif


  mv x2, x25 # restore signature pointer to default register for teardown
    1664:	000c8113          	addi	x2,x25,0

00001668 <cleanup_epilogs>:
    1668:	00000013          	addi	x0,x0,0
    166c:	00000013          	addi	x0,x0,0
    1670:	00000013          	addi	x0,x0,0
    1674:	00000013          	addi	x0,x0,0
    1678:	00000013          	addi	x0,x0,0
    167c:	00000013          	addi	x0,x0,0

// Instantiate trap handlers and other epilog code, call RVMODEL_HALT at end of test
RVTEST_CODE_END
    1680:	00004517          	auipc	x10,0x4
    1684:	5e450513          	addi	x10,x10,1508 # 5c64 <successstr>
    1688:	00000013          	addi	x0,x0,0
    168c:	00000013          	addi	x0,x0,0
    1690:	00000013          	addi	x0,x0,0
    1694:	00000013          	addi	x0,x0,0
    1698:	00000013          	addi	x0,x0,0
    169c:	00000013          	addi	x0,x0,0
    16a0:	00016097          	auipc	x1,0x16
    16a4:	b64080e7          	jalr	x1,-1180(x1) # 17204 <rvmodel_io_write_str>
    16a8:	00016097          	auipc	x1,0x16
    16ac:	b60080e7          	jalr	x1,-1184(x1) # 17208 <rvmodel_halt_pass>

000016b0 <abort_test>:
    16b0:	bad0e737          	lui	x14,0xbad0e
    16b4:	ead70713          	addi	x14,x14,-339 # bad0dead <absimm+0x4b743ba4>
    16b8:	fb1ff06f          	jal	x0,1668 <cleanup_epilogs>

000016bc <failedtest_x5_x4>:
    16bc:	00004217          	auipc	x4,0x4
    16c0:	f4420213          	addi	x4,x4,-188 # 5600 <begin_failure_scratch>
    16c4:	02522423          	sw	x5,40(x4) # 28 <MMODE_SIG+0x25>
    16c8:	00122423          	sw	x1,8(x4) # 8 <MMODE_SIG+0x5>
    16cc:	00022023          	sw	x0,0(x4) # 0 <rvtest_entry_point>
    16d0:	0b00006f          	jal	x0,1780 <failedtest_saveregs>

000016d4 <failedtest_x8_x7>:
    16d4:	00004397          	auipc	x7,0x4
    16d8:	f2c38393          	addi	x7,x7,-212 # 5600 <begin_failure_scratch>
    16dc:	0483a023          	sw	x8,64(x7)
    16e0:	0243a023          	sw	x4,32(x7)
    16e4:	0253a423          	sw	x5,40(x7)
    16e8:	0013a423          	sw	x1,8(x7)
    16ec:	0003a023          	sw	x0,0(x7)
    16f0:	00038213          	addi	x4,x7,0
    16f4:	00040293          	addi	x5,x8,0
    16f8:	0880006f          	jal	x0,1780 <failedtest_saveregs>

000016fc <failedtest_x14_x13>:
    16fc:	00004697          	auipc	x13,0x4
    1700:	f0468693          	addi	x13,x13,-252 # 5600 <begin_failure_scratch>
    1704:	06e6a823          	sw	x14,112(x13)
    1708:	0246a023          	sw	x4,32(x13)
    170c:	0256a423          	sw	x5,40(x13)
    1710:	0016a423          	sw	x1,8(x13)
    1714:	0006a023          	sw	x0,0(x13)
    1718:	00068213          	addi	x4,x13,0
    171c:	00070293          	addi	x5,x14,0
    1720:	0600006f          	jal	x0,1780 <failedtest_saveregs>

00001724 <failedtest_trap_x7_x9>:
    1724:	00004497          	auipc	x9,0x4
    1728:	edc48493          	addi	x9,x9,-292 # 5600 <begin_failure_scratch>
    172c:	0674a423          	sw	x7,104(x9)
    1730:	0244a023          	sw	x4,32(x9)
    1734:	0254a423          	sw	x5,40(x9)
    1738:	0014a423          	sw	x1,8(x9)
    173c:	00300093          	addi	x1,x0,3
    1740:	0014a023          	sw	x1,0(x9)
    1744:	00048213          	addi	x4,x9,0
    1748:	00038293          	addi	x5,x7,0
    174c:	342020f3          	csrrs	x1,mcause,x0
    1750:	00004497          	auipc	x9,0x4
    1754:	02048493          	addi	x9,x9,32 # 5770 <saved_mcause>
    1758:	0014a023          	sw	x1,0(x9)
    175c:	343020f3          	csrrs	x1,mtval,x0
    1760:	00004497          	auipc	x9,0x4
    1764:	01848493          	addi	x9,x9,24 # 5778 <saved_mtval>
    1768:	0014a023          	sw	x1,0(x9)
    176c:	300020f3          	csrrs	x1,mstatus,x0
    1770:	00004497          	auipc	x9,0x4
    1774:	01048493          	addi	x9,x9,16 # 5780 <saved_mstatus>
    1778:	0014a023          	sw	x1,0(x9)
    177c:	0040006f          	jal	x0,1780 <failedtest_saveregs>

00001780 <failedtest_saveregs>:
    1780:	00222823          	sw	x2,16(x4) # 10 <MMODE_SIG+0xd>
    1784:	00322c23          	sw	x3,24(x4) # 18 <MMODE_SIG+0x15>
    1788:	02622823          	sw	x6,48(x4) # 30 <MMODE_SIG+0x2d>
    178c:	02722c23          	sw	x7,56(x4) # 38 <MMODE_SIG+0x35>
    1790:	04822023          	sw	x8,64(x4) # 40 <rvtest_code_begin>
    1794:	04922423          	sw	x9,72(x4) # 48 <rvtest_code_begin+0x8>
    1798:	04a22823          	sw	x10,80(x4) # 50 <I_sh_cg_cp_rs1_nx0_b1>
    179c:	04b22c23          	sw	x11,88(x4) # 58 <I_sh_cg_cp_rs1_nx0_b1+0x8>
    17a0:	06c22023          	sw	x12,96(x4) # 60 <I_sh_cg_cp_rs1_nx0_b1+0x10>
    17a4:	06d22423          	sw	x13,104(x4) # 68 <I_sh_cg_cp_rs1_nx0_b1+0x18>
    17a8:	06e22823          	sw	x14,112(x4) # 70 <I_sh_cg_cp_rs1_nx0_b1+0x20>
    17ac:	06f22c23          	sw	x15,120(x4) # 78 <I_sh_cg_cp_rs1_nx0_b1+0x28>
    17b0:	09022023          	sw	x16,128(x4) # 80 <I_sh_cg_cp_rs1_nx0_b1+0x30>
    17b4:	09122423          	sw	x17,136(x4) # 88 <I_sh_cg_cp_rs1_nx0_b2>
    17b8:	09222823          	sw	x18,144(x4) # 90 <I_sh_cg_cp_rs1_nx0_b2+0x8>
    17bc:	09322c23          	sw	x19,152(x4) # 98 <I_sh_cg_cp_rs1_nx0_b2+0x10>
    17c0:	0b422023          	sw	x20,160(x4) # a0 <I_sh_cg_cp_rs1_nx0_b2+0x18>
    17c4:	0b522423          	sw	x21,168(x4) # a8 <I_sh_cg_cp_rs1_nx0_b2+0x20>
    17c8:	0b622823          	sw	x22,176(x4) # b0 <I_sh_cg_cp_rs1_nx0_b2+0x28>
    17cc:	0b722c23          	sw	x23,184(x4) # b8 <I_sh_cg_cp_rs1_nx0_b2+0x30>
    17d0:	0d822023          	sw	x24,192(x4) # c0 <I_sh_cg_cp_rs1_nx0_b2+0x38>
    17d4:	0d922423          	sw	x25,200(x4) # c8 <I_sh_cg_cp_rs1_nx0_b3+0x4>
    17d8:	0da22823          	sw	x26,208(x4) # d0 <I_sh_cg_cp_rs1_nx0_b3+0xc>
    17dc:	0db22c23          	sw	x27,216(x4) # d8 <I_sh_cg_cp_rs1_nx0_b3+0x14>
    17e0:	0fc22023          	sw	x28,224(x4) # e0 <I_sh_cg_cp_rs1_nx0_b3+0x1c>
    17e4:	0fd22423          	sw	x29,232(x4) # e8 <I_sh_cg_cp_rs1_nx0_b3+0x24>
    17e8:	0fe22823          	sw	x30,240(x4) # f0 <I_sh_cg_cp_rs1_nx0_b3+0x2c>
    17ec:	0ff22c23          	sw	x31,248(x4) # f8 <I_sh_cg_cp_rs1_nx0_b3+0x34>

000017f0 <failedtest_saveresults>:
    17f0:	00004497          	auipc	x9,0x4
    17f4:	e104a483          	lw	x9,-496(x9) # 5600 <begin_failure_scratch>
    17f8:	00300513          	addi	x10,x0,3
    17fc:	06a48863          	beq	x9,x10,186c <failedtest_saveresults_trap>

00001800 <failedtest_saveresults_int>:
    1800:	ffa2d303          	lhu	x6,-6(x5)
    1804:	ff82d383          	lhu	x7,-8(x5)
    1808:	01031313          	slli	x6,x6,0x10
    180c:	00736333          	or	x6,x6,x7
    1810:	00f35393          	srli	x7,x6,0xf
    1814:	01f3f393          	andi	x7,x7,31
    1818:	01435413          	srli	x8,x6,0x14
    181c:	01f47413          	andi	x8,x8,31
    1820:	10822223          	sw	x8,260(x4) # 104 <I_sh_cg_cp_rs1_nx0_b4>
    1824:	00341313          	slli	x6,x8,0x3
    1828:	00620333          	add	x6,x4,x6
    182c:	00032303          	lw	x6,0(x6)
    1830:	10622823          	sw	x6,272(x4) # 110 <I_sh_cg_cp_rs1_nx0_b4+0xc>
    1834:	ff62d303          	lhu	x6,-10(x5)
    1838:	ff42d383          	lhu	x7,-12(x5)
    183c:	01031313          	slli	x6,x6,0x10
    1840:	00736333          	or	x6,x6,x7
    1844:	41435393          	srai	x7,x6,0x14
    1848:	00f35313          	srli	x6,x6,0xf
    184c:	01f37313          	andi	x6,x6,31
    1850:	00331313          	slli	x6,x6,0x3
    1854:	00620333          	add	x6,x4,x6
    1858:	00032303          	lw	x6,0(x6)
    185c:	00730333          	add	x6,x6,x7
    1860:	00032303          	lw	x6,0(x6)
    1864:	10622c23          	sw	x6,280(x4) # 118 <I_sh_cg_cp_rs1_nx0_b4+0x14>
    1868:	3d80006f          	jal	x0,1c40 <failedtest_saveresults_common>

0000186c <failedtest_saveresults_trap>:
    186c:	0042a303          	lw	x6,4(x5)
    1870:	00004817          	auipc	x16,0x4
    1874:	ee880813          	addi	x16,x16,-280 # 5758 <trap_diag_fail_str_ptr>
    1878:	00682023          	sw	x6,0(x16)
    187c:	0002a303          	lw	x6,0(x5)
    1880:	10622423          	sw	x6,264(x4) # 108 <I_sh_cg_cp_rs1_nx0_b4+0x4>
    1884:	00004817          	auipc	x16,0x4
    1888:	ed480813          	addi	x16,x16,-300 # 5758 <trap_diag_fail_str_ptr>
    188c:	00082303          	lw	x6,0(x16)
    1890:	00004397          	auipc	x7,0x4
    1894:	59838393          	addi	x7,x7,1432 # 5e28 <trap_sig_offset_mismatch>
    1898:	28730463          	beq	x6,x7,1b20 <trap_diag_offset_mismatch>
    189c:	00000413          	addi	x8,x0,0
    18a0:	00004817          	auipc	x16,0x4
    18a4:	e9080813          	addi	x16,x16,-368 # 5730 <trap_diag_subtype>
    18a8:	00882023          	sw	x8,0(x16)
    18ac:	00004397          	auipc	x7,0x4
    18b0:	5e038393          	addi	x7,x7,1504 # 5e8c <sv_Mvect_str>
    18b4:	00731863          	bne	x6,x7,18c4 <failedtest_saveresults_trap+0x58>
    18b8:	00100413          	addi	x8,x0,1
    18bc:	00000493          	addi	x9,x0,0
    18c0:	2e00006f          	jal	x0,1ba0 <trap_diag_field_identified>
    18c4:	00004397          	auipc	x7,0x4
    18c8:	6ca38393          	addi	x7,x7,1738 # 5f8e <sv_Mcause_str>
    18cc:	00731863          	bne	x6,x7,18dc <failedtest_saveresults_trap+0x70>
    18d0:	00200413          	addi	x8,x0,2
    18d4:	00000493          	addi	x9,x0,0
    18d8:	2c80006f          	jal	x0,1ba0 <trap_diag_field_identified>
    18dc:	00004397          	auipc	x7,0x4
    18e0:	7ad38393          	addi	x7,x7,1965 # 6089 <sv_Mepc_str>
    18e4:	00731863          	bne	x6,x7,18f4 <failedtest_saveresults_trap+0x88>
    18e8:	00300413          	addi	x8,x0,3
    18ec:	00000493          	addi	x9,x0,0
    18f0:	2b00006f          	jal	x0,1ba0 <trap_diag_field_identified>
    18f4:	00005397          	auipc	x7,0x5
    18f8:	88838393          	addi	x7,x7,-1912 # 617c <sv_Mtval_str>
    18fc:	00731863          	bne	x6,x7,190c <failedtest_saveresults_trap+0xa0>
    1900:	00400413          	addi	x8,x0,4
    1904:	00000493          	addi	x9,x0,0
    1908:	2980006f          	jal	x0,1ba0 <trap_diag_field_identified>
    190c:	00005397          	auipc	x7,0x5
    1910:	9e338393          	addi	x7,x7,-1565 # 62ef <sv_Mip_str>
    1914:	00731863          	bne	x6,x7,1924 <failedtest_saveresults_trap+0xb8>
    1918:	00500413          	addi	x8,x0,5
    191c:	00000493          	addi	x9,x0,0
    1920:	2800006f          	jal	x0,1ba0 <trap_diag_field_identified>
    1924:	00005397          	auipc	x7,0x5
    1928:	94f38393          	addi	x7,x7,-1713 # 6273 <sv_Mtval2_str>
    192c:	00731863          	bne	x6,x7,193c <failedtest_saveresults_trap+0xd0>
    1930:	00600413          	addi	x8,x0,6
    1934:	00000493          	addi	x9,x0,0
    1938:	2680006f          	jal	x0,1ba0 <trap_diag_field_identified>
    193c:	00005397          	auipc	x7,0x5
    1940:	97538393          	addi	x7,x7,-1675 # 62b1 <sv_Mtinst_str>
    1944:	00731863          	bne	x6,x7,1954 <failedtest_saveresults_trap+0xe8>
    1948:	00700413          	addi	x8,x0,7
    194c:	00000493          	addi	x9,x0,0
    1950:	2500006f          	jal	x0,1ba0 <trap_diag_field_identified>
    1954:	00004397          	auipc	x7,0x4
    1958:	57838393          	addi	x7,x7,1400 # 5ecc <sv_Svect_str>
    195c:	00731863          	bne	x6,x7,196c <failedtest_saveresults_trap+0x100>
    1960:	00100413          	addi	x8,x0,1
    1964:	00100493          	addi	x9,x0,1
    1968:	2380006f          	jal	x0,1ba0 <trap_diag_field_identified>
    196c:	00004397          	auipc	x7,0x4
    1970:	66038393          	addi	x7,x7,1632 # 5fcc <sv_Scause_str>
    1974:	00731863          	bne	x6,x7,1984 <failedtest_saveresults_trap+0x118>
    1978:	00200413          	addi	x8,x0,2
    197c:	00100493          	addi	x9,x0,1
    1980:	2200006f          	jal	x0,1ba0 <trap_diag_field_identified>
    1984:	00004397          	auipc	x7,0x4
    1988:	74138393          	addi	x7,x7,1857 # 60c5 <sv_Sepc_str>
    198c:	00731863          	bne	x6,x7,199c <failedtest_saveresults_trap+0x130>
    1990:	00300413          	addi	x8,x0,3
    1994:	00100493          	addi	x9,x0,1
    1998:	2080006f          	jal	x0,1ba0 <trap_diag_field_identified>
    199c:	00005397          	auipc	x7,0x5
    19a0:	81d38393          	addi	x7,x7,-2019 # 61b9 <sv_Stval_str>
    19a4:	00731863          	bne	x6,x7,19b4 <failedtest_saveresults_trap+0x148>
    19a8:	00400413          	addi	x8,x0,4
    19ac:	00100493          	addi	x9,x0,1
    19b0:	1f00006f          	jal	x0,1ba0 <trap_diag_field_identified>
    19b4:	00005397          	auipc	x7,0x5
    19b8:	97638393          	addi	x7,x7,-1674 # 632a <sv_Sip_str>
    19bc:	00731863          	bne	x6,x7,19cc <failedtest_saveresults_trap+0x160>
    19c0:	00500413          	addi	x8,x0,5
    19c4:	00100493          	addi	x9,x0,1
    19c8:	1d80006f          	jal	x0,1ba0 <trap_diag_field_identified>
    19cc:	00004397          	auipc	x7,0x4
    19d0:	54038393          	addi	x7,x7,1344 # 5f0c <sv_Hvect_str>
    19d4:	00731863          	bne	x6,x7,19e4 <failedtest_saveresults_trap+0x178>
    19d8:	00100413          	addi	x8,x0,1
    19dc:	00200493          	addi	x9,x0,2
    19e0:	1c00006f          	jal	x0,1ba0 <trap_diag_field_identified>
    19e4:	00004397          	auipc	x7,0x4
    19e8:	62638393          	addi	x7,x7,1574 # 600a <sv_Hcause_str>
    19ec:	00731863          	bne	x6,x7,19fc <failedtest_saveresults_trap+0x190>
    19f0:	00200413          	addi	x8,x0,2
    19f4:	00200493          	addi	x9,x0,2
    19f8:	1a80006f          	jal	x0,1ba0 <trap_diag_field_identified>
    19fc:	00004397          	auipc	x7,0x4
    1a00:	70538393          	addi	x7,x7,1797 # 6101 <sv_Hepc_str>
    1a04:	00731863          	bne	x6,x7,1a14 <failedtest_saveresults_trap+0x1a8>
    1a08:	00300413          	addi	x8,x0,3
    1a0c:	00200493          	addi	x9,x0,2
    1a10:	1900006f          	jal	x0,1ba0 <trap_diag_field_identified>
    1a14:	00004397          	auipc	x7,0x4
    1a18:	7e238393          	addi	x7,x7,2018 # 61f6 <sv_Htval_str>
    1a1c:	00731863          	bne	x6,x7,1a2c <failedtest_saveresults_trap+0x1c0>
    1a20:	00400413          	addi	x8,x0,4
    1a24:	00200493          	addi	x9,x0,2
    1a28:	1780006f          	jal	x0,1ba0 <trap_diag_field_identified>
    1a2c:	00005397          	auipc	x7,0x5
    1a30:	93938393          	addi	x7,x7,-1735 # 6365 <sv_Hip_str>
    1a34:	00731863          	bne	x6,x7,1a44 <failedtest_saveresults_trap+0x1d8>
    1a38:	00500413          	addi	x8,x0,5
    1a3c:	00200493          	addi	x9,x0,2
    1a40:	1600006f          	jal	x0,1ba0 <trap_diag_field_identified>
    1a44:	00004397          	auipc	x7,0x4
    1a48:	50938393          	addi	x7,x7,1289 # 5f4d <sv_Vvect_str>
    1a4c:	00731863          	bne	x6,x7,1a5c <failedtest_saveresults_trap+0x1f0>
    1a50:	00100413          	addi	x8,x0,1
    1a54:	00300493          	addi	x9,x0,3
    1a58:	1480006f          	jal	x0,1ba0 <trap_diag_field_identified>
    1a5c:	00004397          	auipc	x7,0x4
    1a60:	5ed38393          	addi	x7,x7,1517 # 6049 <sv_Vcause_str>
    1a64:	00731863          	bne	x6,x7,1a74 <failedtest_saveresults_trap+0x208>
    1a68:	00200413          	addi	x8,x0,2
    1a6c:	00300493          	addi	x9,x0,3
    1a70:	1300006f          	jal	x0,1ba0 <trap_diag_field_identified>
    1a74:	00004397          	auipc	x7,0x4
    1a78:	6ca38393          	addi	x7,x7,1738 # 613e <sv_Vepc_str>
    1a7c:	00731863          	bne	x6,x7,1a8c <failedtest_saveresults_trap+0x220>
    1a80:	00300413          	addi	x8,x0,3
    1a84:	00300493          	addi	x9,x0,3
    1a88:	1180006f          	jal	x0,1ba0 <trap_diag_field_identified>
    1a8c:	00004397          	auipc	x7,0x4
    1a90:	7a838393          	addi	x7,x7,1960 # 6234 <sv_Vtval_str>
    1a94:	00731863          	bne	x6,x7,1aa4 <failedtest_saveresults_trap+0x238>
    1a98:	00400413          	addi	x8,x0,4
    1a9c:	00300493          	addi	x9,x0,3
    1aa0:	1000006f          	jal	x0,1ba0 <trap_diag_field_identified>
    1aa4:	00005397          	auipc	x7,0x5
    1aa8:	8fd38393          	addi	x7,x7,-1795 # 63a1 <sv_Vip_str>
    1aac:	00731863          	bne	x6,x7,1abc <failedtest_saveresults_trap+0x250>
    1ab0:	00500413          	addi	x8,x0,5
    1ab4:	00300493          	addi	x9,x0,3
    1ab8:	0e80006f          	jal	x0,1ba0 <trap_diag_field_identified>
    1abc:	00005397          	auipc	x7,0x5
    1ac0:	92238393          	addi	x7,x7,-1758 # 63de <Mclr_Mext_int_str>
    1ac4:	00731863          	bne	x6,x7,1ad4 <failedtest_saveresults_trap+0x268>
    1ac8:	00800413          	addi	x8,x0,8
    1acc:	00000493          	addi	x9,x0,0
    1ad0:	0d00006f          	jal	x0,1ba0 <trap_diag_field_identified>
    1ad4:	00005397          	auipc	x7,0x5
    1ad8:	95938393          	addi	x7,x7,-1703 # 642d <Mclr_Sext_int_str>
    1adc:	00731863          	bne	x6,x7,1aec <failedtest_saveresults_trap+0x280>
    1ae0:	00800413          	addi	x8,x0,8
    1ae4:	00000493          	addi	x9,x0,0
    1ae8:	0b80006f          	jal	x0,1ba0 <trap_diag_field_identified>
    1aec:	00005397          	auipc	x7,0x5
    1af0:	a3c38393          	addi	x7,x7,-1476 # 6528 <Sclr_Sext_int_str>
    1af4:	00731863          	bne	x6,x7,1b04 <failedtest_saveresults_trap+0x298>
    1af8:	00800413          	addi	x8,x0,8
    1afc:	00100493          	addi	x9,x0,1
    1b00:	0a00006f          	jal	x0,1ba0 <trap_diag_field_identified>
    1b04:	00005397          	auipc	x7,0x5
    1b08:	b2038393          	addi	x7,x7,-1248 # 6624 <Hclr_Sext_int_str>
    1b0c:	00731863          	bne	x6,x7,1b1c <failedtest_saveresults_trap+0x2b0>
    1b10:	00800413          	addi	x8,x0,8
    1b14:	00200493          	addi	x9,x0,2
    1b18:	0880006f          	jal	x0,1ba0 <trap_diag_field_identified>
    1b1c:	1140006f          	jal	x0,1c30 <trap_diag_generic_report>

00001b20 <trap_diag_offset_mismatch>:
    1b20:	00900413          	addi	x8,x0,9
    1b24:	00004817          	auipc	x16,0x4
    1b28:	c0c80813          	addi	x16,x16,-1012 # 5730 <trap_diag_subtype>
    1b2c:	00882023          	sw	x8,0(x16)
    1b30:	ffa2d303          	lhu	x6,-6(x5)
    1b34:	ff82d383          	lhu	x7,-8(x5)
    1b38:	01031313          	slli	x6,x6,0x10
    1b3c:	00736333          	or	x6,x6,x7
    1b40:	01435413          	srli	x8,x6,0x14
    1b44:	01f47413          	andi	x8,x8,31
    1b48:	00341313          	slli	x6,x8,0x3
    1b4c:	00620333          	add	x6,x4,x6
    1b50:	00032303          	lw	x6,0(x6)
    1b54:	00004817          	auipc	x16,0x4
    1b58:	bf480813          	addi	x16,x16,-1036 # 5748 <trap_diag_actual_offset>
    1b5c:	00682023          	sw	x6,0(x16)
    1b60:	ff62d303          	lhu	x6,-10(x5)
    1b64:	ff42d383          	lhu	x7,-12(x5)
    1b68:	01031313          	slli	x6,x6,0x10
    1b6c:	00736333          	or	x6,x6,x7
    1b70:	41435393          	srai	x7,x6,0x14
    1b74:	00f35313          	srli	x6,x6,0xf
    1b78:	01f37313          	andi	x6,x6,31
    1b7c:	00331313          	slli	x6,x6,0x3
    1b80:	00620333          	add	x6,x4,x6
    1b84:	00032303          	lw	x6,0(x6)
    1b88:	00730333          	add	x6,x6,x7
    1b8c:	00032303          	lw	x6,0(x6)
    1b90:	00004817          	auipc	x16,0x4
    1b94:	bc080813          	addi	x16,x16,-1088 # 5750 <trap_diag_expected_offset>
    1b98:	00682023          	sw	x6,0(x16)
    1b9c:	0a40006f          	jal	x0,1c40 <failedtest_saveresults_common>

00001ba0 <trap_diag_field_identified>:
    1ba0:	00004817          	auipc	x16,0x4
    1ba4:	b9080813          	addi	x16,x16,-1136 # 5730 <trap_diag_subtype>
    1ba8:	00882023          	sw	x8,0(x16)
    1bac:	00004817          	auipc	x16,0x4
    1bb0:	b8880813          	addi	x16,x16,-1144 # 5734 <trap_diag_mode>
    1bb4:	00982023          	sw	x9,0(x16)
    1bb8:	ffa2d303          	lhu	x6,-6(x5)
    1bbc:	ff82d383          	lhu	x7,-8(x5)
    1bc0:	01031313          	slli	x6,x6,0x10
    1bc4:	00736333          	or	x6,x6,x7
    1bc8:	01435713          	srli	x14,x6,0x14
    1bcc:	01f77713          	andi	x14,x14,31
    1bd0:	00371313          	slli	x6,x14,0x3
    1bd4:	00620333          	add	x6,x4,x6
    1bd8:	00032303          	lw	x6,0(x6)
    1bdc:	10622823          	sw	x6,272(x4) # 110 <I_sh_cg_cp_rs1_nx0_b4+0xc>
    1be0:	00004817          	auipc	x16,0x4
    1be4:	b5880813          	addi	x16,x16,-1192 # 5738 <trap_diag_actual_value>
    1be8:	00682023          	sw	x6,0(x16)
    1bec:	ff62d303          	lhu	x6,-10(x5)
    1bf0:	ff42d383          	lhu	x7,-12(x5)
    1bf4:	01031313          	slli	x6,x6,0x10
    1bf8:	00736333          	or	x6,x6,x7
    1bfc:	41435393          	srai	x7,x6,0x14
    1c00:	00f35313          	srli	x6,x6,0xf
    1c04:	01f37313          	andi	x6,x6,31
    1c08:	00331313          	slli	x6,x6,0x3
    1c0c:	00620333          	add	x6,x4,x6
    1c10:	00032303          	lw	x6,0(x6)
    1c14:	00730333          	add	x6,x6,x7
    1c18:	00032303          	lw	x6,0(x6)
    1c1c:	10622c23          	sw	x6,280(x4) # 118 <I_sh_cg_cp_rs1_nx0_b4+0x14>
    1c20:	00004817          	auipc	x16,0x4
    1c24:	b2080813          	addi	x16,x16,-1248 # 5740 <trap_diag_expected_value>
    1c28:	00682023          	sw	x6,0(x16)
    1c2c:	0140006f          	jal	x0,1c40 <failedtest_saveresults_common>

00001c30 <trap_diag_generic_report>:
    1c30:	00004817          	auipc	x16,0x4
    1c34:	b0080813          	addi	x16,x16,-1280 # 5730 <trap_diag_subtype>
    1c38:	00082023          	sw	x0,0(x16)
    1c3c:	0040006f          	jal	x0,1c40 <failedtest_saveresults_common>

00001c40 <failedtest_saveresults_common>:
    1c40:	0002a303          	lw	x6,0(x5)
    1c44:	10622423          	sw	x6,264(x4) # 108 <I_sh_cg_cp_rs1_nx0_b4+0x4>
    1c48:	00035383          	lhu	x7,0(x6)
    1c4c:	0033f413          	andi	x8,x7,3
    1c50:	00300493          	addi	x9,x0,3
    1c54:	00941863          	bne	x8,x9,1c64 <failedtest_saveresults_common+0x24>
    1c58:	00235403          	lhu	x8,2(x6)
    1c5c:	01041413          	slli	x8,x8,0x10
    1c60:	0083e3b3          	or	x7,x7,x8
    1c64:	10722023          	sw	x7,256(x4) # 100 <I_sh_cg_cp_rs1_nx0_b3+0x3c>
    1c68:	0042a303          	lw	x6,4(x5)
    1c6c:	12622023          	sw	x6,288(x4) # 120 <I_sh_cg_cp_rs1_nx0_b4+0x1c>

00001c70 <failedtest_report>:
    1c70:	00000013          	addi	x0,x0,0
    1c74:	00000013          	addi	x0,x0,0
    1c78:	00000013          	addi	x0,x0,0
    1c7c:	00000013          	addi	x0,x0,0
    1c80:	00004517          	auipc	x10,0x4
    1c84:	01950513          	addi	x10,x10,25 # 5c99 <failstr>
    1c88:	00000013          	addi	x0,x0,0
    1c8c:	00000013          	addi	x0,x0,0
    1c90:	00000013          	addi	x0,x0,0
    1c94:	00000013          	addi	x0,x0,0
    1c98:	00000013          	addi	x0,x0,0
    1c9c:	00000013          	addi	x0,x0,0
    1ca0:	00015097          	auipc	x1,0x15
    1ca4:	564080e7          	jalr	x1,1380(x1) # 17204 <rvmodel_io_write_str>

00001ca8 <print_testnamestr>:
    1ca8:	00000013          	addi	x0,x0,0
    1cac:	00000013          	addi	x0,x0,0
    1cb0:	00000013          	addi	x0,x0,0
    1cb4:	00000013          	addi	x0,x0,0
    1cb8:	00000013          	addi	x0,x0,0
    1cbc:	00000013          	addi	x0,x0,0
    1cc0:	00004517          	auipc	x10,0x4
    1cc4:	06b50513          	addi	x10,x10,107 # 5d2b <testnamestr>
    1cc8:	00000013          	addi	x0,x0,0
    1ccc:	00000013          	addi	x0,x0,0
    1cd0:	00000013          	addi	x0,x0,0
    1cd4:	00000013          	addi	x0,x0,0
    1cd8:	00000013          	addi	x0,x0,0
    1cdc:	00000013          	addi	x0,x0,0
    1ce0:	00015097          	auipc	x1,0x15
    1ce4:	524080e7          	jalr	x1,1316(x1) # 17204 <rvmodel_io_write_str>

00001ce8 <print_failure_test_name_str>:
    1ce8:	00004517          	auipc	x10,0x4
    1cec:	a3852503          	lw	x10,-1480(x10) # 5720 <failure_string_ptr>
    1cf0:	00015097          	auipc	x1,0x15
    1cf4:	514080e7          	jalr	x1,1300(x1) # 17204 <rvmodel_io_write_str>

00001cf8 <print_newline_str>:
    1cf8:	00000013          	addi	x0,x0,0
    1cfc:	00000013          	addi	x0,x0,0
    1d00:	00004517          	auipc	x10,0x4
    1d04:	03d50513          	addi	x10,x10,61 # 5d3d <newlinestr>
    1d08:	00000013          	addi	x0,x0,0
    1d0c:	00000013          	addi	x0,x0,0
    1d10:	00000013          	addi	x0,x0,0
    1d14:	00000013          	addi	x0,x0,0
    1d18:	00000013          	addi	x0,x0,0
    1d1c:	00000013          	addi	x0,x0,0
    1d20:	00015097          	auipc	x1,0x15
    1d24:	4e4080e7          	jalr	x1,1252(x1) # 17204 <rvmodel_io_write_str>
    1d28:	00004517          	auipc	x10,0x4
    1d2c:	8d852503          	lw	x10,-1832(x10) # 5600 <begin_failure_scratch>
    1d30:	00300593          	addi	x11,x0,3
    1d34:	3eb50c63          	beq	x10,x11,212c <failedtest_report_trap_detailed>
    1d38:	00000013          	addi	x0,x0,0
    1d3c:	00000013          	addi	x0,x0,0
    1d40:	00004517          	auipc	x10,0x4
    1d44:	fff50513          	addi	x10,x10,-1 # 5d3f <inststr>
    1d48:	00000013          	addi	x0,x0,0
    1d4c:	00000013          	addi	x0,x0,0
    1d50:	00000013          	addi	x0,x0,0
    1d54:	00000013          	addi	x0,x0,0
    1d58:	00000013          	addi	x0,x0,0
    1d5c:	00000013          	addi	x0,x0,0
    1d60:	00015097          	auipc	x1,0x15
    1d64:	4a4080e7          	jalr	x1,1188(x1) # 17204 <rvmodel_io_write_str>
    1d68:	00004517          	auipc	x10,0x4
    1d6c:	99852503          	lw	x10,-1640(x10) # 5700 <failing_instruction>
    1d70:	02000593          	addi	x11,x0,32
    1d74:	00357613          	andi	x12,x10,3
    1d78:	00300693          	addi	x13,x0,3
    1d7c:	00d60463          	beq	x12,x13,1d84 <print_newline_str+0x8c>
    1d80:	01000593          	addi	x11,x0,16
    1d84:	2f4010ef          	jal	x1,3078 <failedtest_hex_to_str>
    1d88:	00000013          	addi	x0,x0,0
    1d8c:	00000013          	addi	x0,x0,0
    1d90:	00000013          	addi	x0,x0,0
    1d94:	00000013          	addi	x0,x0,0
    1d98:	00000013          	addi	x0,x0,0
    1d9c:	00000013          	addi	x0,x0,0
    1da0:	00004517          	auipc	x10,0x4
    1da4:	9e850513          	addi	x10,x10,-1560 # 5788 <ascii_buffer>
    1da8:	00000013          	addi	x0,x0,0
    1dac:	00000013          	addi	x0,x0,0
    1db0:	00000013          	addi	x0,x0,0
    1db4:	00000013          	addi	x0,x0,0
    1db8:	00000013          	addi	x0,x0,0
    1dbc:	00000013          	addi	x0,x0,0
    1dc0:	00015097          	auipc	x1,0x15
    1dc4:	444080e7          	jalr	x1,1092(x1) # 17204 <rvmodel_io_write_str>
    1dc8:	00000013          	addi	x0,x0,0
    1dcc:	00000013          	addi	x0,x0,0
    1dd0:	00000013          	addi	x0,x0,0
    1dd4:	00000013          	addi	x0,x0,0
    1dd8:	00000013          	addi	x0,x0,0
    1ddc:	00000013          	addi	x0,x0,0
    1de0:	00004517          	auipc	x10,0x4
    1de4:	f7350513          	addi	x10,x10,-141 # 5d53 <addrstr>
    1de8:	00000013          	addi	x0,x0,0
    1dec:	00000013          	addi	x0,x0,0
    1df0:	00000013          	addi	x0,x0,0
    1df4:	00000013          	addi	x0,x0,0
    1df8:	00000013          	addi	x0,x0,0
    1dfc:	00000013          	addi	x0,x0,0
    1e00:	00015097          	auipc	x1,0x15
    1e04:	404080e7          	jalr	x1,1028(x1) # 17204 <rvmodel_io_write_str>
    1e08:	00004517          	auipc	x10,0x4
    1e0c:	90052503          	lw	x10,-1792(x10) # 5708 <failing_addr>
    1e10:	02000593          	addi	x11,x0,32
    1e14:	264010ef          	jal	x1,3078 <failedtest_hex_to_str>
    1e18:	00000013          	addi	x0,x0,0
    1e1c:	00000013          	addi	x0,x0,0
    1e20:	00004517          	auipc	x10,0x4
    1e24:	96850513          	addi	x10,x10,-1688 # 5788 <ascii_buffer>
    1e28:	00000013          	addi	x0,x0,0
    1e2c:	00000013          	addi	x0,x0,0
    1e30:	00000013          	addi	x0,x0,0
    1e34:	00000013          	addi	x0,x0,0
    1e38:	00000013          	addi	x0,x0,0
    1e3c:	00000013          	addi	x0,x0,0
    1e40:	00015097          	auipc	x1,0x15
    1e44:	3c4080e7          	jalr	x1,964(x1) # 17204 <rvmodel_io_write_str>
    1e48:	00000013          	addi	x0,x0,0
    1e4c:	00000013          	addi	x0,x0,0
    1e50:	00000013          	addi	x0,x0,0
    1e54:	00000013          	addi	x0,x0,0
    1e58:	00000013          	addi	x0,x0,0
    1e5c:	00000013          	addi	x0,x0,0
    1e60:	00005517          	auipc	x10,0x5
    1e64:	97050513          	addi	x10,x10,-1680 # 67d0 <regstr>
    1e68:	00000013          	addi	x0,x0,0
    1e6c:	00000013          	addi	x0,x0,0
    1e70:	00000013          	addi	x0,x0,0
    1e74:	00000013          	addi	x0,x0,0
    1e78:	00000013          	addi	x0,x0,0
    1e7c:	00000013          	addi	x0,x0,0
    1e80:	00015097          	auipc	x1,0x15
    1e84:	384080e7          	jalr	x1,900(x1) # 17204 <rvmodel_io_write_str>
    1e88:	00003517          	auipc	x10,0x3
    1e8c:	77852503          	lw	x10,1912(x10) # 5600 <begin_failure_scratch>
    1e90:	00050663          	beq	x10,x0,1e9c <print_newline_str+0x1a4>
    1e94:	00300593          	addi	x11,x0,3
    1e98:	04b51063          	bne	x10,x11,1ed8 <failedtest_report_not_intreg>
    1e9c:	07800593          	addi	x11,x0,120
    1ea0:	00004617          	auipc	x12,0x4
    1ea4:	8e860613          	addi	x12,x12,-1816 # 5788 <ascii_buffer>
    1ea8:	00000013          	addi	x0,x0,0
    1eac:	00000013          	addi	x0,x0,0
    1eb0:	00000013          	addi	x0,x0,0
    1eb4:	00000013          	addi	x0,x0,0
    1eb8:	00000013          	addi	x0,x0,0
    1ebc:	00000013          	addi	x0,x0,0
    1ec0:	00b60023          	sb	x11,0(x12)
    1ec4:	00160613          	addi	x12,x12,1
    1ec8:	00004517          	auipc	x10,0x4
    1ecc:	83c52503          	lw	x10,-1988(x10) # 5704 <failing_reg>
    1ed0:	224010ef          	jal	x1,30f4 <failedtest_dec_to_str>
    1ed4:	0e00006f          	jal	x0,1fb4 <failedtest_report_print_regstr>

00001ed8 <failedtest_report_not_intreg>:
    1ed8:	00100593          	addi	x11,x0,1
    1edc:	04b50863          	beq	x10,x11,1f2c <failedtest_report_fpreg>
    1ee0:	00400593          	addi	x11,x0,4
    1ee4:	08b50a63          	beq	x10,x11,1f78 <failedtest_report_vecreg>
    1ee8:	00000013          	addi	x0,x0,0
    1eec:	00000013          	addi	x0,x0,0
    1ef0:	00000013          	addi	x0,x0,0
    1ef4:	00000013          	addi	x0,x0,0
    1ef8:	00000013          	addi	x0,x0,0
    1efc:	00000013          	addi	x0,x0,0
    1f00:	00005517          	auipc	x10,0x5
    1f04:	93050513          	addi	x10,x10,-1744 # 6830 <fflagsstr>
    1f08:	00000013          	addi	x0,x0,0
    1f0c:	00000013          	addi	x0,x0,0
    1f10:	00000013          	addi	x0,x0,0
    1f14:	00000013          	addi	x0,x0,0
    1f18:	00000013          	addi	x0,x0,0
    1f1c:	00000013          	addi	x0,x0,0
    1f20:	00015097          	auipc	x1,0x15
    1f24:	2e4080e7          	jalr	x1,740(x1) # 17204 <rvmodel_io_write_str>
    1f28:	0c00006f          	jal	x0,1fe8 <failedtest_report_after_reg>

00001f2c <failedtest_report_fpreg>:
    1f2c:	06600593          	addi	x11,x0,102
    1f30:	00000013          	addi	x0,x0,0
    1f34:	00000013          	addi	x0,x0,0
    1f38:	00000013          	addi	x0,x0,0
    1f3c:	00000013          	addi	x0,x0,0
    1f40:	00004617          	auipc	x12,0x4
    1f44:	84860613          	addi	x12,x12,-1976 # 5788 <ascii_buffer>
    1f48:	00000013          	addi	x0,x0,0
    1f4c:	00000013          	addi	x0,x0,0
    1f50:	00000013          	addi	x0,x0,0
    1f54:	00000013          	addi	x0,x0,0
    1f58:	00000013          	addi	x0,x0,0
    1f5c:	00000013          	addi	x0,x0,0
    1f60:	00b60023          	sb	x11,0(x12)
    1f64:	00160613          	addi	x12,x12,1
    1f68:	00003517          	auipc	x10,0x3
    1f6c:	79c52503          	lw	x10,1948(x10) # 5704 <failing_reg>
    1f70:	184010ef          	jal	x1,30f4 <failedtest_dec_to_str>
    1f74:	0400006f          	jal	x0,1fb4 <failedtest_report_print_regstr>

00001f78 <failedtest_report_vecreg>:
    1f78:	07600593          	addi	x11,x0,118
    1f7c:	00000013          	addi	x0,x0,0
    1f80:	00004617          	auipc	x12,0x4
    1f84:	80860613          	addi	x12,x12,-2040 # 5788 <ascii_buffer>
    1f88:	00000013          	addi	x0,x0,0
    1f8c:	00000013          	addi	x0,x0,0
    1f90:	00000013          	addi	x0,x0,0
    1f94:	00000013          	addi	x0,x0,0
    1f98:	00000013          	addi	x0,x0,0
    1f9c:	00000013          	addi	x0,x0,0
    1fa0:	00b60023          	sb	x11,0(x12)
    1fa4:	00160613          	addi	x12,x12,1
    1fa8:	00003517          	auipc	x10,0x3
    1fac:	75c52503          	lw	x10,1884(x10) # 5704 <failing_reg>
    1fb0:	144010ef          	jal	x1,30f4 <failedtest_dec_to_str>

00001fb4 <failedtest_report_print_regstr>:
    1fb4:	00000013          	addi	x0,x0,0
    1fb8:	00000013          	addi	x0,x0,0
    1fbc:	00000013          	addi	x0,x0,0
    1fc0:	00003517          	auipc	x10,0x3
    1fc4:	7c850513          	addi	x10,x10,1992 # 5788 <ascii_buffer>
    1fc8:	00000013          	addi	x0,x0,0
    1fcc:	00000013          	addi	x0,x0,0
    1fd0:	00000013          	addi	x0,x0,0
    1fd4:	00000013          	addi	x0,x0,0
    1fd8:	00000013          	addi	x0,x0,0
    1fdc:	00000013          	addi	x0,x0,0
    1fe0:	00015097          	auipc	x1,0x15
    1fe4:	224080e7          	jalr	x1,548(x1) # 17204 <rvmodel_io_write_str>

00001fe8 <failedtest_report_after_reg>:
    1fe8:	00000013          	addi	x0,x0,0
    1fec:	00000013          	addi	x0,x0,0
    1ff0:	00000013          	addi	x0,x0,0
    1ff4:	00000013          	addi	x0,x0,0
    1ff8:	00000013          	addi	x0,x0,0
    1ffc:	00000013          	addi	x0,x0,0
    2000:	00004517          	auipc	x10,0x4
    2004:	7e150513          	addi	x10,x10,2017 # 67e1 <badvalstr>
    2008:	00000013          	addi	x0,x0,0
    200c:	00000013          	addi	x0,x0,0
    2010:	00000013          	addi	x0,x0,0
    2014:	00000013          	addi	x0,x0,0
    2018:	00000013          	addi	x0,x0,0
    201c:	00000013          	addi	x0,x0,0
    2020:	00015097          	auipc	x1,0x15
    2024:	1e4080e7          	jalr	x1,484(x1) # 17204 <rvmodel_io_write_str>
    2028:	00003517          	auipc	x10,0x3
    202c:	5d852503          	lw	x10,1496(x10) # 5600 <begin_failure_scratch>
    2030:	00100593          	addi	x11,x0,1
    2034:	00b51c63          	bne	x10,x11,204c <failedtest_report_badval_not_fp>
    2038:	00003517          	auipc	x10,0x3
    203c:	6d852503          	lw	x10,1752(x10) # 5710 <failing_value>
    2040:	02000593          	addi	x11,x0,32
    2044:	034010ef          	jal	x1,3078 <failedtest_hex_to_str>
    2048:	0140006f          	jal	x0,205c <failedtest_report_badval_done>

0000204c <failedtest_report_badval_not_fp>:
    204c:	00003517          	auipc	x10,0x3
    2050:	6c452503          	lw	x10,1732(x10) # 5710 <failing_value>
    2054:	02000593          	addi	x11,x0,32
    2058:	020010ef          	jal	x1,3078 <failedtest_hex_to_str>

0000205c <failedtest_report_badval_done>:
    205c:	00000013          	addi	x0,x0,0
    2060:	00003517          	auipc	x10,0x3
    2064:	72850513          	addi	x10,x10,1832 # 5788 <ascii_buffer>
    2068:	00000013          	addi	x0,x0,0
    206c:	00000013          	addi	x0,x0,0
    2070:	00000013          	addi	x0,x0,0
    2074:	00000013          	addi	x0,x0,0
    2078:	00000013          	addi	x0,x0,0
    207c:	00000013          	addi	x0,x0,0
    2080:	00015097          	auipc	x1,0x15
    2084:	184080e7          	jalr	x1,388(x1) # 17204 <rvmodel_io_write_str>
    2088:	00000013          	addi	x0,x0,0
    208c:	00000013          	addi	x0,x0,0
    2090:	00000013          	addi	x0,x0,0
    2094:	00000013          	addi	x0,x0,0
    2098:	00000013          	addi	x0,x0,0
    209c:	00000013          	addi	x0,x0,0
    20a0:	00004517          	auipc	x10,0x4
    20a4:	75850513          	addi	x10,x10,1880 # 67f8 <expvalstr>
    20a8:	00000013          	addi	x0,x0,0
    20ac:	00000013          	addi	x0,x0,0
    20b0:	00000013          	addi	x0,x0,0
    20b4:	00000013          	addi	x0,x0,0
    20b8:	00000013          	addi	x0,x0,0
    20bc:	00000013          	addi	x0,x0,0
    20c0:	00015097          	auipc	x1,0x15
    20c4:	144080e7          	jalr	x1,324(x1) # 17204 <rvmodel_io_write_str>
    20c8:	00003517          	auipc	x10,0x3
    20cc:	53852503          	lw	x10,1336(x10) # 5600 <begin_failure_scratch>
    20d0:	00100593          	addi	x11,x0,1
    20d4:	00b51c63          	bne	x10,x11,20ec <failedtest_report_expval_not_fp>
    20d8:	00003517          	auipc	x10,0x3
    20dc:	64052503          	lw	x10,1600(x10) # 5718 <expected_value>
    20e0:	02000593          	addi	x11,x0,32
    20e4:	795000ef          	jal	x1,3078 <failedtest_hex_to_str>
    20e8:	0140006f          	jal	x0,20fc <failedtest_report_expval_done>

000020ec <failedtest_report_expval_not_fp>:
    20ec:	00003517          	auipc	x10,0x3
    20f0:	62c52503          	lw	x10,1580(x10) # 5718 <expected_value>
    20f4:	02000593          	addi	x11,x0,32
    20f8:	781000ef          	jal	x1,3078 <failedtest_hex_to_str>

000020fc <failedtest_report_expval_done>:
    20fc:	00000013          	addi	x0,x0,0
    2100:	00003517          	auipc	x10,0x3
    2104:	68850513          	addi	x10,x10,1672 # 5788 <ascii_buffer>
    2108:	00000013          	addi	x0,x0,0
    210c:	00000013          	addi	x0,x0,0
    2110:	00000013          	addi	x0,x0,0
    2114:	00000013          	addi	x0,x0,0
    2118:	00000013          	addi	x0,x0,0
    211c:	00000013          	addi	x0,x0,0
    2120:	00015097          	auipc	x1,0x15
    2124:	0e4080e7          	jalr	x1,228(x1) # 17204 <rvmodel_io_write_str>
    2128:	4fd0006f          	jal	x0,2e24 <failedtest_report_end>

0000212c <failedtest_report_trap_detailed>:
    212c:	00000013          	addi	x0,x0,0
    2130:	00000013          	addi	x0,x0,0
    2134:	00000013          	addi	x0,x0,0
    2138:	00000013          	addi	x0,x0,0
    213c:	00000013          	addi	x0,x0,0
    2140:	00004517          	auipc	x10,0x4
    2144:	71c50513          	addi	x10,x10,1820 # 685c <trap_diag_header_str>
    2148:	00000013          	addi	x0,x0,0
    214c:	00000013          	addi	x0,x0,0
    2150:	00000013          	addi	x0,x0,0
    2154:	00000013          	addi	x0,x0,0
    2158:	00000013          	addi	x0,x0,0
    215c:	00000013          	addi	x0,x0,0
    2160:	00015097          	auipc	x1,0x15
    2164:	0a4080e7          	jalr	x1,164(x1) # 17204 <rvmodel_io_write_str>
    2168:	00000013          	addi	x0,x0,0
    216c:	00000013          	addi	x0,x0,0
    2170:	00000013          	addi	x0,x0,0
    2174:	00000013          	addi	x0,x0,0
    2178:	00000013          	addi	x0,x0,0
    217c:	00000013          	addi	x0,x0,0
    2180:	00004517          	auipc	x10,0x4
    2184:	70850513          	addi	x10,x10,1800 # 6888 <trap_diag_origstr_label>
    2188:	00000013          	addi	x0,x0,0
    218c:	00000013          	addi	x0,x0,0
    2190:	00000013          	addi	x0,x0,0
    2194:	00000013          	addi	x0,x0,0
    2198:	00000013          	addi	x0,x0,0
    219c:	00000013          	addi	x0,x0,0
    21a0:	00015097          	auipc	x1,0x15
    21a4:	064080e7          	jalr	x1,100(x1) # 17204 <rvmodel_io_write_str>
    21a8:	00003817          	auipc	x16,0x3
    21ac:	5b080813          	addi	x16,x16,1456 # 5758 <trap_diag_fail_str_ptr>
    21b0:	00082503          	lw	x10,0(x16)
    21b4:	00015097          	auipc	x1,0x15
    21b8:	050080e7          	jalr	x1,80(x1) # 17204 <rvmodel_io_write_str>
    21bc:	00000013          	addi	x0,x0,0
    21c0:	00004517          	auipc	x10,0x4
    21c4:	b7d50513          	addi	x10,x10,-1155 # 5d3d <newlinestr>
    21c8:	00000013          	addi	x0,x0,0
    21cc:	00000013          	addi	x0,x0,0
    21d0:	00000013          	addi	x0,x0,0
    21d4:	00000013          	addi	x0,x0,0
    21d8:	00000013          	addi	x0,x0,0
    21dc:	00000013          	addi	x0,x0,0
    21e0:	00015097          	auipc	x1,0x15
    21e4:	024080e7          	jalr	x1,36(x1) # 17204 <rvmodel_io_write_str>
    21e8:	00003417          	auipc	x8,0x3
    21ec:	54842403          	lw	x8,1352(x8) # 5730 <trap_diag_subtype>
    21f0:	00900493          	addi	x9,x0,9
    21f4:	00940663          	beq	x8,x9,2200 <trap_report_offset_mismatch>
    21f8:	2a040ce3          	beq	x8,x0,2cb0 <trap_report_generic>
    21fc:	3780006f          	jal	x0,2574 <trap_report_field_mismatch>

00002200 <trap_report_offset_mismatch>:
    2200:	00004517          	auipc	x10,0x4
    2204:	69850513          	addi	x10,x10,1688 # 6898 <trap_diag_count_mismatch_str>
    2208:	00000013          	addi	x0,x0,0
    220c:	00000013          	addi	x0,x0,0
    2210:	00000013          	addi	x0,x0,0
    2214:	00000013          	addi	x0,x0,0
    2218:	00000013          	addi	x0,x0,0
    221c:	00000013          	addi	x0,x0,0
    2220:	00015097          	auipc	x1,0x15
    2224:	fe4080e7          	jalr	x1,-28(x1) # 17204 <rvmodel_io_write_str>
    2228:	00000013          	addi	x0,x0,0
    222c:	00000013          	addi	x0,x0,0
    2230:	00000013          	addi	x0,x0,0
    2234:	00000013          	addi	x0,x0,0
    2238:	00000013          	addi	x0,x0,0
    223c:	00000013          	addi	x0,x0,0
    2240:	00004517          	auipc	x10,0x4
    2244:	6b950513          	addi	x10,x10,1721 # 68f9 <trap_diag_expected_offset_str>
    2248:	00000013          	addi	x0,x0,0
    224c:	00000013          	addi	x0,x0,0
    2250:	00000013          	addi	x0,x0,0
    2254:	00000013          	addi	x0,x0,0
    2258:	00000013          	addi	x0,x0,0
    225c:	00000013          	addi	x0,x0,0
    2260:	00015097          	auipc	x1,0x15
    2264:	fa4080e7          	jalr	x1,-92(x1) # 17204 <rvmodel_io_write_str>
    2268:	00003517          	auipc	x10,0x3
    226c:	4e852503          	lw	x10,1256(x10) # 5750 <trap_diag_expected_offset>
    2270:	02000593          	addi	x11,x0,32
    2274:	605000ef          	jal	x1,3078 <failedtest_hex_to_str>
    2278:	00000013          	addi	x0,x0,0
    227c:	00000013          	addi	x0,x0,0
    2280:	00003517          	auipc	x10,0x3
    2284:	50850513          	addi	x10,x10,1288 # 5788 <ascii_buffer>
    2288:	00000013          	addi	x0,x0,0
    228c:	00000013          	addi	x0,x0,0
    2290:	00000013          	addi	x0,x0,0
    2294:	00000013          	addi	x0,x0,0
    2298:	00000013          	addi	x0,x0,0
    229c:	00000013          	addi	x0,x0,0
    22a0:	00015097          	auipc	x1,0x15
    22a4:	f64080e7          	jalr	x1,-156(x1) # 17204 <rvmodel_io_write_str>
    22a8:	00000013          	addi	x0,x0,0
    22ac:	00000013          	addi	x0,x0,0
    22b0:	00000013          	addi	x0,x0,0
    22b4:	00000013          	addi	x0,x0,0
    22b8:	00000013          	addi	x0,x0,0
    22bc:	00000013          	addi	x0,x0,0
    22c0:	00004517          	auipc	x10,0x4
    22c4:	66050513          	addi	x10,x10,1632 # 6920 <trap_diag_actual_offset_str>
    22c8:	00000013          	addi	x0,x0,0
    22cc:	00000013          	addi	x0,x0,0
    22d0:	00000013          	addi	x0,x0,0
    22d4:	00000013          	addi	x0,x0,0
    22d8:	00000013          	addi	x0,x0,0
    22dc:	00000013          	addi	x0,x0,0
    22e0:	00015097          	auipc	x1,0x15
    22e4:	f24080e7          	jalr	x1,-220(x1) # 17204 <rvmodel_io_write_str>
    22e8:	00003517          	auipc	x10,0x3
    22ec:	46052503          	lw	x10,1120(x10) # 5748 <trap_diag_actual_offset>
    22f0:	02000593          	addi	x11,x0,32
    22f4:	585000ef          	jal	x1,3078 <failedtest_hex_to_str>
    22f8:	00000013          	addi	x0,x0,0
    22fc:	00000013          	addi	x0,x0,0
    2300:	00003517          	auipc	x10,0x3
    2304:	48850513          	addi	x10,x10,1160 # 5788 <ascii_buffer>
    2308:	00000013          	addi	x0,x0,0
    230c:	00000013          	addi	x0,x0,0
    2310:	00000013          	addi	x0,x0,0
    2314:	00000013          	addi	x0,x0,0
    2318:	00000013          	addi	x0,x0,0
    231c:	00000013          	addi	x0,x0,0
    2320:	00015097          	auipc	x1,0x15
    2324:	ee4080e7          	jalr	x1,-284(x1) # 17204 <rvmodel_io_write_str>
    2328:	00003317          	auipc	x6,0x3
    232c:	42032303          	lw	x6,1056(x6) # 5748 <trap_diag_actual_offset>
    2330:	00003397          	auipc	x7,0x3
    2334:	4203a383          	lw	x7,1056(x7) # 5750 <trap_diag_expected_offset>
    2338:	10734e63          	blt	x6,x7,2454 <trap_report_missing_traps>

0000233c <trap_report_extra_traps>:
    233c:	00000013          	addi	x0,x0,0
    2340:	00004517          	auipc	x10,0x4
    2344:	60750513          	addi	x10,x10,1543 # 6947 <trap_diag_extra_traps_str>
    2348:	00000013          	addi	x0,x0,0
    234c:	00000013          	addi	x0,x0,0
    2350:	00000013          	addi	x0,x0,0
    2354:	00000013          	addi	x0,x0,0
    2358:	00000013          	addi	x0,x0,0
    235c:	00000013          	addi	x0,x0,0
    2360:	00015097          	auipc	x1,0x15
    2364:	ea4080e7          	jalr	x1,-348(x1) # 17204 <rvmodel_io_write_str>
    2368:	00003317          	auipc	x6,0x3
    236c:	3e032303          	lw	x6,992(x6) # 5748 <trap_diag_actual_offset>
    2370:	00003397          	auipc	x7,0x3
    2374:	3e03a383          	lw	x7,992(x7) # 5750 <trap_diag_expected_offset>
    2378:	40730333          	sub	x6,x6,x7
    237c:	00235313          	srli	x6,x6,0x2
    2380:	00004517          	auipc	x10,0x4
    2384:	64c50513          	addi	x10,x10,1612 # 69cc <trap_diag_extra_bytes_str>
    2388:	00000013          	addi	x0,x0,0
    238c:	00000013          	addi	x0,x0,0
    2390:	00000013          	addi	x0,x0,0
    2394:	00000013          	addi	x0,x0,0
    2398:	00000013          	addi	x0,x0,0
    239c:	00000013          	addi	x0,x0,0
    23a0:	00015097          	auipc	x1,0x15
    23a4:	e64080e7          	jalr	x1,-412(x1) # 17204 <rvmodel_io_write_str>
    23a8:	00003317          	auipc	x6,0x3
    23ac:	3a032303          	lw	x6,928(x6) # 5748 <trap_diag_actual_offset>
    23b0:	00003397          	auipc	x7,0x3
    23b4:	3a03a383          	lw	x7,928(x7) # 5750 <trap_diag_expected_offset>
    23b8:	40730533          	sub	x10,x6,x7
    23bc:	02000593          	addi	x11,x0,32
    23c0:	4b9000ef          	jal	x1,3078 <failedtest_hex_to_str>
    23c4:	00000013          	addi	x0,x0,0
    23c8:	00000013          	addi	x0,x0,0
    23cc:	00000013          	addi	x0,x0,0
    23d0:	00000013          	addi	x0,x0,0
    23d4:	00000013          	addi	x0,x0,0
    23d8:	00000013          	addi	x0,x0,0
    23dc:	00000013          	addi	x0,x0,0
    23e0:	00003517          	auipc	x10,0x3
    23e4:	3a850513          	addi	x10,x10,936 # 5788 <ascii_buffer>
    23e8:	00000013          	addi	x0,x0,0
    23ec:	00000013          	addi	x0,x0,0
    23f0:	00000013          	addi	x0,x0,0
    23f4:	00000013          	addi	x0,x0,0
    23f8:	00000013          	addi	x0,x0,0
    23fc:	00000013          	addi	x0,x0,0
    2400:	00015097          	auipc	x1,0x15
    2404:	e04080e7          	jalr	x1,-508(x1) # 17204 <rvmodel_io_write_str>
    2408:	00000013          	addi	x0,x0,0
    240c:	00000013          	addi	x0,x0,0
    2410:	00000013          	addi	x0,x0,0
    2414:	00000013          	addi	x0,x0,0
    2418:	00000013          	addi	x0,x0,0
    241c:	00000013          	addi	x0,x0,0
    2420:	00004517          	auipc	x10,0x4
    2424:	5d750513          	addi	x10,x10,1495 # 69f7 <trap_diag_extra_hint_str>
    2428:	00000013          	addi	x0,x0,0
    242c:	00000013          	addi	x0,x0,0
    2430:	00000013          	addi	x0,x0,0
    2434:	00000013          	addi	x0,x0,0
    2438:	00000013          	addi	x0,x0,0
    243c:	00000013          	addi	x0,x0,0
    2440:	00015097          	auipc	x1,0x15
    2444:	dc4080e7          	jalr	x1,-572(x1) # 17204 <rvmodel_io_write_str>
    2448:	00001097          	auipc	x1,0x1
    244c:	a28080e7          	jalr	x1,-1496(x1) # 2e70 <failedtest_print_csr_context>
    2450:	1d50006f          	jal	x0,2e24 <failedtest_report_end>

00002454 <trap_report_missing_traps>:
    2454:	00000013          	addi	x0,x0,0
    2458:	00000013          	addi	x0,x0,0
    245c:	00000013          	addi	x0,x0,0
    2460:	00004517          	auipc	x10,0x4
    2464:	52150513          	addi	x10,x10,1313 # 6981 <trap_diag_missing_traps_str>
    2468:	00000013          	addi	x0,x0,0
    246c:	00000013          	addi	x0,x0,0
    2470:	00000013          	addi	x0,x0,0
    2474:	00000013          	addi	x0,x0,0
    2478:	00000013          	addi	x0,x0,0
    247c:	00000013          	addi	x0,x0,0
    2480:	00015097          	auipc	x1,0x15
    2484:	d84080e7          	jalr	x1,-636(x1) # 17204 <rvmodel_io_write_str>
    2488:	00000013          	addi	x0,x0,0
    248c:	00000013          	addi	x0,x0,0
    2490:	00000013          	addi	x0,x0,0
    2494:	00000013          	addi	x0,x0,0
    2498:	00000013          	addi	x0,x0,0
    249c:	00000013          	addi	x0,x0,0
    24a0:	00004517          	auipc	x10,0x4
    24a4:	52c50513          	addi	x10,x10,1324 # 69cc <trap_diag_extra_bytes_str>
    24a8:	00000013          	addi	x0,x0,0
    24ac:	00000013          	addi	x0,x0,0
    24b0:	00000013          	addi	x0,x0,0
    24b4:	00000013          	addi	x0,x0,0
    24b8:	00000013          	addi	x0,x0,0
    24bc:	00000013          	addi	x0,x0,0
    24c0:	00015097          	auipc	x1,0x15
    24c4:	d44080e7          	jalr	x1,-700(x1) # 17204 <rvmodel_io_write_str>
    24c8:	00003317          	auipc	x6,0x3
    24cc:	28832303          	lw	x6,648(x6) # 5750 <trap_diag_expected_offset>
    24d0:	00003397          	auipc	x7,0x3
    24d4:	2783a383          	lw	x7,632(x7) # 5748 <trap_diag_actual_offset>
    24d8:	40730533          	sub	x10,x6,x7
    24dc:	02000593          	addi	x11,x0,32
    24e0:	399000ef          	jal	x1,3078 <failedtest_hex_to_str>
    24e4:	00000013          	addi	x0,x0,0
    24e8:	00000013          	addi	x0,x0,0
    24ec:	00000013          	addi	x0,x0,0
    24f0:	00000013          	addi	x0,x0,0
    24f4:	00000013          	addi	x0,x0,0
    24f8:	00000013          	addi	x0,x0,0
    24fc:	00000013          	addi	x0,x0,0
    2500:	00003517          	auipc	x10,0x3
    2504:	28850513          	addi	x10,x10,648 # 5788 <ascii_buffer>
    2508:	00000013          	addi	x0,x0,0
    250c:	00000013          	addi	x0,x0,0
    2510:	00000013          	addi	x0,x0,0
    2514:	00000013          	addi	x0,x0,0
    2518:	00000013          	addi	x0,x0,0
    251c:	00000013          	addi	x0,x0,0
    2520:	00015097          	auipc	x1,0x15
    2524:	ce4080e7          	jalr	x1,-796(x1) # 17204 <rvmodel_io_write_str>
    2528:	00000013          	addi	x0,x0,0
    252c:	00000013          	addi	x0,x0,0
    2530:	00000013          	addi	x0,x0,0
    2534:	00000013          	addi	x0,x0,0
    2538:	00000013          	addi	x0,x0,0
    253c:	00000013          	addi	x0,x0,0
    2540:	00004517          	auipc	x10,0x4
    2544:	59f50513          	addi	x10,x10,1439 # 6adf <trap_diag_missing_hint_str>
    2548:	00000013          	addi	x0,x0,0
    254c:	00000013          	addi	x0,x0,0
    2550:	00000013          	addi	x0,x0,0
    2554:	00000013          	addi	x0,x0,0
    2558:	00000013          	addi	x0,x0,0
    255c:	00000013          	addi	x0,x0,0
    2560:	00015097          	auipc	x1,0x15
    2564:	ca4080e7          	jalr	x1,-860(x1) # 17204 <rvmodel_io_write_str>
    2568:	00001097          	auipc	x1,0x1
    256c:	908080e7          	jalr	x1,-1784(x1) # 2e70 <failedtest_print_csr_context>
    2570:	0b50006f          	jal	x0,2e24 <failedtest_report_end>

00002574 <trap_report_field_mismatch>:
    2574:	00000013          	addi	x0,x0,0
    2578:	00000013          	addi	x0,x0,0
    257c:	00000013          	addi	x0,x0,0
    2580:	00004517          	auipc	x10,0x4
    2584:	64650513          	addi	x10,x10,1606 # 6bc6 <trap_diag_handler_mode_str>
    2588:	00000013          	addi	x0,x0,0
    258c:	00000013          	addi	x0,x0,0
    2590:	00000013          	addi	x0,x0,0
    2594:	00000013          	addi	x0,x0,0
    2598:	00000013          	addi	x0,x0,0
    259c:	00000013          	addi	x0,x0,0
    25a0:	00015097          	auipc	x1,0x15
    25a4:	c64080e7          	jalr	x1,-924(x1) # 17204 <rvmodel_io_write_str>
    25a8:	00003517          	auipc	x10,0x3
    25ac:	18c52503          	lw	x10,396(x10) # 5734 <trap_diag_mode>
    25b0:	04050a63          	beq	x10,x0,2604 <trap_mode_m>
    25b4:	00100593          	addi	x11,x0,1
    25b8:	08b50663          	beq	x10,x11,2644 <trap_mode_s>
    25bc:	00200593          	addi	x11,x0,2
    25c0:	0cb50263          	beq	x10,x11,2684 <trap_mode_h>
    25c4:	00300593          	addi	x11,x0,3
    25c8:	0eb50e63          	beq	x10,x11,26c4 <trap_mode_v>
    25cc:	00000013          	addi	x0,x0,0
    25d0:	00000013          	addi	x0,x0,0
    25d4:	00000013          	addi	x0,x0,0
    25d8:	00000013          	addi	x0,x0,0
    25dc:	00000013          	addi	x0,x0,0
    25e0:	00004517          	auipc	x10,0x4
    25e4:	62250513          	addi	x10,x10,1570 # 6c02 <trap_diag_mode_unknown_str>
    25e8:	00000013          	addi	x0,x0,0
    25ec:	00000013          	addi	x0,x0,0
    25f0:	00000013          	addi	x0,x0,0
    25f4:	00000013          	addi	x0,x0,0
    25f8:	00000013          	addi	x0,x0,0
    25fc:	00000013          	addi	x0,x0,0
    2600:	1000006f          	jal	x0,2700 <trap_mode_print>

00002604 <trap_mode_m>:
    2604:	00000013          	addi	x0,x0,0
    2608:	00000013          	addi	x0,x0,0
    260c:	00000013          	addi	x0,x0,0
    2610:	00000013          	addi	x0,x0,0
    2614:	00000013          	addi	x0,x0,0
    2618:	00000013          	addi	x0,x0,0
    261c:	00000013          	addi	x0,x0,0
    2620:	00004517          	auipc	x10,0x4
    2624:	5c050513          	addi	x10,x10,1472 # 6be0 <trap_diag_mode_m_str>
    2628:	00000013          	addi	x0,x0,0
    262c:	00000013          	addi	x0,x0,0
    2630:	00000013          	addi	x0,x0,0
    2634:	00000013          	addi	x0,x0,0
    2638:	00000013          	addi	x0,x0,0
    263c:	00000013          	addi	x0,x0,0
    2640:	0c00006f          	jal	x0,2700 <trap_mode_print>

00002644 <trap_mode_s>:
    2644:	00000013          	addi	x0,x0,0
    2648:	00000013          	addi	x0,x0,0
    264c:	00000013          	addi	x0,x0,0
    2650:	00000013          	addi	x0,x0,0
    2654:	00000013          	addi	x0,x0,0
    2658:	00000013          	addi	x0,x0,0
    265c:	00000013          	addi	x0,x0,0
    2660:	00004517          	auipc	x10,0x4
    2664:	58850513          	addi	x10,x10,1416 # 6be8 <trap_diag_mode_s_str>
    2668:	00000013          	addi	x0,x0,0
    266c:	00000013          	addi	x0,x0,0
    2670:	00000013          	addi	x0,x0,0
    2674:	00000013          	addi	x0,x0,0
    2678:	00000013          	addi	x0,x0,0
    267c:	00000013          	addi	x0,x0,0
    2680:	0800006f          	jal	x0,2700 <trap_mode_print>

00002684 <trap_mode_h>:
    2684:	00000013          	addi	x0,x0,0
    2688:	00000013          	addi	x0,x0,0
    268c:	00000013          	addi	x0,x0,0
    2690:	00000013          	addi	x0,x0,0
    2694:	00000013          	addi	x0,x0,0
    2698:	00000013          	addi	x0,x0,0
    269c:	00000013          	addi	x0,x0,0
    26a0:	00004517          	auipc	x10,0x4
    26a4:	55050513          	addi	x10,x10,1360 # 6bf0 <trap_diag_mode_hs_str>
    26a8:	00000013          	addi	x0,x0,0
    26ac:	00000013          	addi	x0,x0,0
    26b0:	00000013          	addi	x0,x0,0
    26b4:	00000013          	addi	x0,x0,0
    26b8:	00000013          	addi	x0,x0,0
    26bc:	00000013          	addi	x0,x0,0
    26c0:	0400006f          	jal	x0,2700 <trap_mode_print>

000026c4 <trap_mode_v>:
    26c4:	00000013          	addi	x0,x0,0
    26c8:	00000013          	addi	x0,x0,0
    26cc:	00000013          	addi	x0,x0,0
    26d0:	00000013          	addi	x0,x0,0
    26d4:	00000013          	addi	x0,x0,0
    26d8:	00000013          	addi	x0,x0,0
    26dc:	00000013          	addi	x0,x0,0
    26e0:	00004517          	auipc	x10,0x4
    26e4:	51950513          	addi	x10,x10,1305 # 6bf9 <trap_diag_mode_vs_str>
    26e8:	00000013          	addi	x0,x0,0
    26ec:	00000013          	addi	x0,x0,0
    26f0:	00000013          	addi	x0,x0,0
    26f4:	00000013          	addi	x0,x0,0
    26f8:	00000013          	addi	x0,x0,0
    26fc:	00000013          	addi	x0,x0,0

00002700 <trap_mode_print>:
    2700:	00015097          	auipc	x1,0x15
    2704:	b04080e7          	jalr	x1,-1276(x1) # 17204 <rvmodel_io_write_str>
    2708:	00000013          	addi	x0,x0,0
    270c:	00000013          	addi	x0,x0,0
    2710:	00000013          	addi	x0,x0,0
    2714:	00000013          	addi	x0,x0,0
    2718:	00000013          	addi	x0,x0,0
    271c:	00000013          	addi	x0,x0,0
    2720:	00004517          	auipc	x10,0x4
    2724:	4eb50513          	addi	x10,x10,1259 # 6c0b <trap_diag_field_str>
    2728:	00000013          	addi	x0,x0,0
    272c:	00000013          	addi	x0,x0,0
    2730:	00000013          	addi	x0,x0,0
    2734:	00000013          	addi	x0,x0,0
    2738:	00000013          	addi	x0,x0,0
    273c:	00000013          	addi	x0,x0,0
    2740:	00015097          	auipc	x1,0x15
    2744:	ac4080e7          	jalr	x1,-1340(x1) # 17204 <rvmodel_io_write_str>
    2748:	00003517          	auipc	x10,0x3
    274c:	fe852503          	lw	x10,-24(x10) # 5730 <trap_diag_subtype>
    2750:	00100593          	addi	x11,x0,1
    2754:	06b50863          	beq	x10,x11,27c4 <trap_field_vect>
    2758:	00200593          	addi	x11,x0,2
    275c:	0ab50463          	beq	x10,x11,2804 <trap_field_cause>
    2760:	00300593          	addi	x11,x0,3
    2764:	0eb50063          	beq	x10,x11,2844 <trap_field_epc>
    2768:	00400593          	addi	x11,x0,4
    276c:	10b50c63          	beq	x10,x11,2884 <trap_field_tval>
    2770:	00500593          	addi	x11,x0,5
    2774:	14b50863          	beq	x10,x11,28c4 <trap_field_ip>
    2778:	00600593          	addi	x11,x0,6
    277c:	18b50463          	beq	x10,x11,2904 <trap_field_tval2>
    2780:	00700593          	addi	x11,x0,7
    2784:	1cb50063          	beq	x10,x11,2944 <trap_field_tinst>
    2788:	00800593          	addi	x11,x0,8
    278c:	1eb50c63          	beq	x10,x11,2984 <trap_field_intid>
    2790:	00000013          	addi	x0,x0,0
    2794:	00000013          	addi	x0,x0,0
    2798:	00000013          	addi	x0,x0,0
    279c:	00000013          	addi	x0,x0,0
    27a0:	00004517          	auipc	x10,0x4
    27a4:	5c250513          	addi	x10,x10,1474 # 6d62 <trap_diag_field_unknown_str>
    27a8:	00000013          	addi	x0,x0,0
    27ac:	00000013          	addi	x0,x0,0
    27b0:	00000013          	addi	x0,x0,0
    27b4:	00000013          	addi	x0,x0,0
    27b8:	00000013          	addi	x0,x0,0
    27bc:	00000013          	addi	x0,x0,0
    27c0:	2000006f          	jal	x0,29c0 <trap_field_print>

000027c4 <trap_field_vect>:
    27c4:	00000013          	addi	x0,x0,0
    27c8:	00000013          	addi	x0,x0,0
    27cc:	00000013          	addi	x0,x0,0
    27d0:	00000013          	addi	x0,x0,0
    27d4:	00000013          	addi	x0,x0,0
    27d8:	00000013          	addi	x0,x0,0
    27dc:	00000013          	addi	x0,x0,0
    27e0:	00004517          	auipc	x10,0x4
    27e4:	44550513          	addi	x10,x10,1093 # 6c25 <trap_diag_field_vect_str>
    27e8:	00000013          	addi	x0,x0,0
    27ec:	00000013          	addi	x0,x0,0
    27f0:	00000013          	addi	x0,x0,0
    27f4:	00000013          	addi	x0,x0,0
    27f8:	00000013          	addi	x0,x0,0
    27fc:	00000013          	addi	x0,x0,0
    2800:	1c00006f          	jal	x0,29c0 <trap_field_print>

00002804 <trap_field_cause>:
    2804:	00000013          	addi	x0,x0,0
    2808:	00000013          	addi	x0,x0,0
    280c:	00000013          	addi	x0,x0,0
    2810:	00000013          	addi	x0,x0,0
    2814:	00000013          	addi	x0,x0,0
    2818:	00000013          	addi	x0,x0,0
    281c:	00000013          	addi	x0,x0,0
    2820:	00004517          	auipc	x10,0x4
    2824:	43650513          	addi	x10,x10,1078 # 6c56 <trap_diag_field_cause_str>
    2828:	00000013          	addi	x0,x0,0
    282c:	00000013          	addi	x0,x0,0
    2830:	00000013          	addi	x0,x0,0
    2834:	00000013          	addi	x0,x0,0
    2838:	00000013          	addi	x0,x0,0
    283c:	00000013          	addi	x0,x0,0
    2840:	1800006f          	jal	x0,29c0 <trap_field_print>

00002844 <trap_field_epc>:
    2844:	00000013          	addi	x0,x0,0
    2848:	00000013          	addi	x0,x0,0
    284c:	00000013          	addi	x0,x0,0
    2850:	00000013          	addi	x0,x0,0
    2854:	00000013          	addi	x0,x0,0
    2858:	00000013          	addi	x0,x0,0
    285c:	00000013          	addi	x0,x0,0
    2860:	00004517          	auipc	x10,0x4
    2864:	41650513          	addi	x10,x10,1046 # 6c76 <trap_diag_field_epc_str>
    2868:	00000013          	addi	x0,x0,0
    286c:	00000013          	addi	x0,x0,0
    2870:	00000013          	addi	x0,x0,0
    2874:	00000013          	addi	x0,x0,0
    2878:	00000013          	addi	x0,x0,0
    287c:	00000013          	addi	x0,x0,0
    2880:	1400006f          	jal	x0,29c0 <trap_field_print>

00002884 <trap_field_tval>:
    2884:	00000013          	addi	x0,x0,0
    2888:	00000013          	addi	x0,x0,0
    288c:	00000013          	addi	x0,x0,0
    2890:	00000013          	addi	x0,x0,0
    2894:	00000013          	addi	x0,x0,0
    2898:	00000013          	addi	x0,x0,0
    289c:	00000013          	addi	x0,x0,0
    28a0:	00004517          	auipc	x10,0x4
    28a4:	3f450513          	addi	x10,x10,1012 # 6c94 <trap_diag_field_tval_str>
    28a8:	00000013          	addi	x0,x0,0
    28ac:	00000013          	addi	x0,x0,0
    28b0:	00000013          	addi	x0,x0,0
    28b4:	00000013          	addi	x0,x0,0
    28b8:	00000013          	addi	x0,x0,0
    28bc:	00000013          	addi	x0,x0,0
    28c0:	1000006f          	jal	x0,29c0 <trap_field_print>

000028c4 <trap_field_ip>:
    28c4:	00000013          	addi	x0,x0,0
    28c8:	00000013          	addi	x0,x0,0
    28cc:	00000013          	addi	x0,x0,0
    28d0:	00000013          	addi	x0,x0,0
    28d4:	00000013          	addi	x0,x0,0
    28d8:	00000013          	addi	x0,x0,0
    28dc:	00000013          	addi	x0,x0,0
    28e0:	00004517          	auipc	x10,0x4
    28e4:	3d350513          	addi	x10,x10,979 # 6cb3 <trap_diag_field_ip_str>
    28e8:	00000013          	addi	x0,x0,0
    28ec:	00000013          	addi	x0,x0,0
    28f0:	00000013          	addi	x0,x0,0
    28f4:	00000013          	addi	x0,x0,0
    28f8:	00000013          	addi	x0,x0,0
    28fc:	00000013          	addi	x0,x0,0
    2900:	0c00006f          	jal	x0,29c0 <trap_field_print>

00002904 <trap_field_tval2>:
    2904:	00000013          	addi	x0,x0,0
    2908:	00000013          	addi	x0,x0,0
    290c:	00000013          	addi	x0,x0,0
    2910:	00000013          	addi	x0,x0,0
    2914:	00000013          	addi	x0,x0,0
    2918:	00000013          	addi	x0,x0,0
    291c:	00000013          	addi	x0,x0,0
    2920:	00004517          	auipc	x10,0x4
    2924:	3bb50513          	addi	x10,x10,955 # 6cdb <trap_diag_field_tval2_str>
    2928:	00000013          	addi	x0,x0,0
    292c:	00000013          	addi	x0,x0,0
    2930:	00000013          	addi	x0,x0,0
    2934:	00000013          	addi	x0,x0,0
    2938:	00000013          	addi	x0,x0,0
    293c:	00000013          	addi	x0,x0,0
    2940:	0800006f          	jal	x0,29c0 <trap_field_print>

00002944 <trap_field_tinst>:
    2944:	00000013          	addi	x0,x0,0
    2948:	00000013          	addi	x0,x0,0
    294c:	00000013          	addi	x0,x0,0
    2950:	00000013          	addi	x0,x0,0
    2954:	00000013          	addi	x0,x0,0
    2958:	00000013          	addi	x0,x0,0
    295c:	00000013          	addi	x0,x0,0
    2960:	00004517          	auipc	x10,0x4
    2964:	3a750513          	addi	x10,x10,935 # 6d07 <trap_diag_field_tinst_str>
    2968:	00000013          	addi	x0,x0,0
    296c:	00000013          	addi	x0,x0,0
    2970:	00000013          	addi	x0,x0,0
    2974:	00000013          	addi	x0,x0,0
    2978:	00000013          	addi	x0,x0,0
    297c:	00000013          	addi	x0,x0,0
    2980:	0400006f          	jal	x0,29c0 <trap_field_print>

00002984 <trap_field_intid>:
    2984:	00000013          	addi	x0,x0,0
    2988:	00000013          	addi	x0,x0,0
    298c:	00000013          	addi	x0,x0,0
    2990:	00000013          	addi	x0,x0,0
    2994:	00000013          	addi	x0,x0,0
    2998:	00000013          	addi	x0,x0,0
    299c:	00000013          	addi	x0,x0,0
    29a0:	00004517          	auipc	x10,0x4
    29a4:	39350513          	addi	x10,x10,915 # 6d33 <trap_diag_field_intid_str>
    29a8:	00000013          	addi	x0,x0,0
    29ac:	00000013          	addi	x0,x0,0
    29b0:	00000013          	addi	x0,x0,0
    29b4:	00000013          	addi	x0,x0,0
    29b8:	00000013          	addi	x0,x0,0
    29bc:	00000013          	addi	x0,x0,0

000029c0 <trap_field_print>:
    29c0:	00015097          	auipc	x1,0x15
    29c4:	844080e7          	jalr	x1,-1980(x1) # 17204 <rvmodel_io_write_str>
    29c8:	00000013          	addi	x0,x0,0
    29cc:	00000013          	addi	x0,x0,0
    29d0:	00000013          	addi	x0,x0,0
    29d4:	00000013          	addi	x0,x0,0
    29d8:	00000013          	addi	x0,x0,0
    29dc:	00000013          	addi	x0,x0,0
    29e0:	00004517          	auipc	x10,0x4
    29e4:	39150513          	addi	x10,x10,913 # 6d71 <trap_diag_expected_str>
    29e8:	00000013          	addi	x0,x0,0
    29ec:	00000013          	addi	x0,x0,0
    29f0:	00000013          	addi	x0,x0,0
    29f4:	00000013          	addi	x0,x0,0
    29f8:	00000013          	addi	x0,x0,0
    29fc:	00000013          	addi	x0,x0,0
    2a00:	00015097          	auipc	x1,0x15
    2a04:	804080e7          	jalr	x1,-2044(x1) # 17204 <rvmodel_io_write_str>
    2a08:	00003517          	auipc	x10,0x3
    2a0c:	d3852503          	lw	x10,-712(x10) # 5740 <trap_diag_expected_value>
    2a10:	02000593          	addi	x11,x0,32
    2a14:	664000ef          	jal	x1,3078 <failedtest_hex_to_str>
    2a18:	00000013          	addi	x0,x0,0
    2a1c:	00000013          	addi	x0,x0,0
    2a20:	00003517          	auipc	x10,0x3
    2a24:	d6850513          	addi	x10,x10,-664 # 5788 <ascii_buffer>
    2a28:	00000013          	addi	x0,x0,0
    2a2c:	00000013          	addi	x0,x0,0
    2a30:	00000013          	addi	x0,x0,0
    2a34:	00000013          	addi	x0,x0,0
    2a38:	00000013          	addi	x0,x0,0
    2a3c:	00000013          	addi	x0,x0,0
    2a40:	00014097          	auipc	x1,0x14
    2a44:	7c4080e7          	jalr	x1,1988(x1) # 17204 <rvmodel_io_write_str>
    2a48:	00000013          	addi	x0,x0,0
    2a4c:	00000013          	addi	x0,x0,0
    2a50:	00000013          	addi	x0,x0,0
    2a54:	00000013          	addi	x0,x0,0
    2a58:	00000013          	addi	x0,x0,0
    2a5c:	00000013          	addi	x0,x0,0
    2a60:	00004517          	auipc	x10,0x4
    2a64:	32850513          	addi	x10,x10,808 # 6d88 <trap_diag_actual_str>
    2a68:	00000013          	addi	x0,x0,0
    2a6c:	00000013          	addi	x0,x0,0
    2a70:	00000013          	addi	x0,x0,0
    2a74:	00000013          	addi	x0,x0,0
    2a78:	00000013          	addi	x0,x0,0
    2a7c:	00000013          	addi	x0,x0,0
    2a80:	00014097          	auipc	x1,0x14
    2a84:	784080e7          	jalr	x1,1924(x1) # 17204 <rvmodel_io_write_str>
    2a88:	00003517          	auipc	x10,0x3
    2a8c:	cb052503          	lw	x10,-848(x10) # 5738 <trap_diag_actual_value>
    2a90:	02000593          	addi	x11,x0,32
    2a94:	5e4000ef          	jal	x1,3078 <failedtest_hex_to_str>
    2a98:	00000013          	addi	x0,x0,0
    2a9c:	00000013          	addi	x0,x0,0
    2aa0:	00003517          	auipc	x10,0x3
    2aa4:	ce850513          	addi	x10,x10,-792 # 5788 <ascii_buffer>
    2aa8:	00000013          	addi	x0,x0,0
    2aac:	00000013          	addi	x0,x0,0
    2ab0:	00000013          	addi	x0,x0,0
    2ab4:	00000013          	addi	x0,x0,0
    2ab8:	00000013          	addi	x0,x0,0
    2abc:	00000013          	addi	x0,x0,0
    2ac0:	00014097          	auipc	x1,0x14
    2ac4:	744080e7          	jalr	x1,1860(x1) # 17204 <rvmodel_io_write_str>
    2ac8:	00003517          	auipc	x10,0x3
    2acc:	c6852503          	lw	x10,-920(x10) # 5730 <trap_diag_subtype>
    2ad0:	00200593          	addi	x11,x0,2
    2ad4:	08b51463          	bne	x10,x11,2b5c <trap_field_not_cause>
    2ad8:	00000013          	addi	x0,x0,0
    2adc:	00000013          	addi	x0,x0,0
    2ae0:	00004517          	auipc	x10,0x4
    2ae4:	2bf50513          	addi	x10,x10,703 # 6d9f <trap_diag_expected_cause_name_str>
    2ae8:	00000013          	addi	x0,x0,0
    2aec:	00000013          	addi	x0,x0,0
    2af0:	00000013          	addi	x0,x0,0
    2af4:	00000013          	addi	x0,x0,0
    2af8:	00000013          	addi	x0,x0,0
    2afc:	00000013          	addi	x0,x0,0
    2b00:	00014097          	auipc	x1,0x14
    2b04:	704080e7          	jalr	x1,1796(x1) # 17204 <rvmodel_io_write_str>
    2b08:	00003517          	auipc	x10,0x3
    2b0c:	c3852503          	lw	x10,-968(x10) # 5740 <trap_diag_expected_value>
    2b10:	284000ef          	jal	x1,2d94 <trap_cause_to_str>
    2b14:	00014097          	auipc	x1,0x14
    2b18:	6f0080e7          	jalr	x1,1776(x1) # 17204 <rvmodel_io_write_str>
    2b1c:	00000013          	addi	x0,x0,0
    2b20:	00004517          	auipc	x10,0x4
    2b24:	29650513          	addi	x10,x10,662 # 6db6 <trap_diag_actual_cause_name_str>
    2b28:	00000013          	addi	x0,x0,0
    2b2c:	00000013          	addi	x0,x0,0
    2b30:	00000013          	addi	x0,x0,0
    2b34:	00000013          	addi	x0,x0,0
    2b38:	00000013          	addi	x0,x0,0
    2b3c:	00000013          	addi	x0,x0,0
    2b40:	00014097          	auipc	x1,0x14
    2b44:	6c4080e7          	jalr	x1,1732(x1) # 17204 <rvmodel_io_write_str>
    2b48:	00003517          	auipc	x10,0x3
    2b4c:	bf052503          	lw	x10,-1040(x10) # 5738 <trap_diag_actual_value>
    2b50:	244000ef          	jal	x1,2d94 <trap_cause_to_str>
    2b54:	00014097          	auipc	x1,0x14
    2b58:	6b0080e7          	jalr	x1,1712(x1) # 17204 <rvmodel_io_write_str>

00002b5c <trap_field_not_cause>:
    2b5c:	00000097          	auipc	x1,0x0
    2b60:	314080e7          	jalr	x1,788(x1) # 2e70 <failedtest_print_csr_context>
    2b64:	00003517          	auipc	x10,0x3
    2b68:	bcc52503          	lw	x10,-1076(x10) # 5730 <trap_diag_subtype>
    2b6c:	00100593          	addi	x11,x0,1
    2b70:	02b51e63          	bne	x10,x11,2bac <trap_field_not_cause+0x50>
    2b74:	00000013          	addi	x0,x0,0
    2b78:	00000013          	addi	x0,x0,0
    2b7c:	00000013          	addi	x0,x0,0
    2b80:	00004517          	auipc	x10,0x4
    2b84:	2ac50513          	addi	x10,x10,684 # 6e2c <trap_diag_hint_vect_str>
    2b88:	00000013          	addi	x0,x0,0
    2b8c:	00000013          	addi	x0,x0,0
    2b90:	00000013          	addi	x0,x0,0
    2b94:	00000013          	addi	x0,x0,0
    2b98:	00000013          	addi	x0,x0,0
    2b9c:	00000013          	addi	x0,x0,0
    2ba0:	00014097          	auipc	x1,0x14
    2ba4:	664080e7          	jalr	x1,1636(x1) # 17204 <rvmodel_io_write_str>
    2ba8:	27c0006f          	jal	x0,2e24 <failedtest_report_end>
    2bac:	00200593          	addi	x11,x0,2
    2bb0:	02b51e63          	bne	x10,x11,2bec <trap_field_not_cause+0x90>
    2bb4:	00000013          	addi	x0,x0,0
    2bb8:	00000013          	addi	x0,x0,0
    2bbc:	00000013          	addi	x0,x0,0
    2bc0:	00004517          	auipc	x10,0x4
    2bc4:	34250513          	addi	x10,x10,834 # 6f02 <trap_diag_hint_cause_str>
    2bc8:	00000013          	addi	x0,x0,0
    2bcc:	00000013          	addi	x0,x0,0
    2bd0:	00000013          	addi	x0,x0,0
    2bd4:	00000013          	addi	x0,x0,0
    2bd8:	00000013          	addi	x0,x0,0
    2bdc:	00000013          	addi	x0,x0,0
    2be0:	00014097          	auipc	x1,0x14
    2be4:	624080e7          	jalr	x1,1572(x1) # 17204 <rvmodel_io_write_str>
    2be8:	23c0006f          	jal	x0,2e24 <failedtest_report_end>
    2bec:	00300593          	addi	x11,x0,3
    2bf0:	02b51e63          	bne	x10,x11,2c2c <trap_field_not_cause+0xd0>
    2bf4:	00000013          	addi	x0,x0,0
    2bf8:	00000013          	addi	x0,x0,0
    2bfc:	00000013          	addi	x0,x0,0
    2c00:	00004517          	auipc	x10,0x4
    2c04:	3f550513          	addi	x10,x10,1013 # 6ff5 <trap_diag_hint_epc_str>
    2c08:	00000013          	addi	x0,x0,0
    2c0c:	00000013          	addi	x0,x0,0
    2c10:	00000013          	addi	x0,x0,0
    2c14:	00000013          	addi	x0,x0,0
    2c18:	00000013          	addi	x0,x0,0
    2c1c:	00000013          	addi	x0,x0,0
    2c20:	00014097          	auipc	x1,0x14
    2c24:	5e4080e7          	jalr	x1,1508(x1) # 17204 <rvmodel_io_write_str>
    2c28:	1fc0006f          	jal	x0,2e24 <failedtest_report_end>
    2c2c:	00400593          	addi	x11,x0,4
    2c30:	02b51e63          	bne	x10,x11,2c6c <trap_field_not_cause+0x110>
    2c34:	00000013          	addi	x0,x0,0
    2c38:	00000013          	addi	x0,x0,0
    2c3c:	00000013          	addi	x0,x0,0
    2c40:	00004517          	auipc	x10,0x4
    2c44:	4b050513          	addi	x10,x10,1200 # 70f0 <trap_diag_hint_tval_str>
    2c48:	00000013          	addi	x0,x0,0
    2c4c:	00000013          	addi	x0,x0,0
    2c50:	00000013          	addi	x0,x0,0
    2c54:	00000013          	addi	x0,x0,0
    2c58:	00000013          	addi	x0,x0,0
    2c5c:	00000013          	addi	x0,x0,0
    2c60:	00014097          	auipc	x1,0x14
    2c64:	5a4080e7          	jalr	x1,1444(x1) # 17204 <rvmodel_io_write_str>
    2c68:	1bc0006f          	jal	x0,2e24 <failedtest_report_end>
    2c6c:	00500593          	addi	x11,x0,5
    2c70:	02b51e63          	bne	x10,x11,2cac <trap_field_not_cause+0x150>
    2c74:	00000013          	addi	x0,x0,0
    2c78:	00000013          	addi	x0,x0,0
    2c7c:	00000013          	addi	x0,x0,0
    2c80:	00004517          	auipc	x10,0x4
    2c84:	55750513          	addi	x10,x10,1367 # 71d7 <trap_diag_hint_ip_str>
    2c88:	00000013          	addi	x0,x0,0
    2c8c:	00000013          	addi	x0,x0,0
    2c90:	00000013          	addi	x0,x0,0
    2c94:	00000013          	addi	x0,x0,0
    2c98:	00000013          	addi	x0,x0,0
    2c9c:	00000013          	addi	x0,x0,0
    2ca0:	00014097          	auipc	x1,0x14
    2ca4:	564080e7          	jalr	x1,1380(x1) # 17204 <rvmodel_io_write_str>
    2ca8:	17c0006f          	jal	x0,2e24 <failedtest_report_end>
    2cac:	1780006f          	jal	x0,2e24 <failedtest_report_end>

00002cb0 <trap_report_generic>:
    2cb0:	00000013          	addi	x0,x0,0
    2cb4:	00000013          	addi	x0,x0,0
    2cb8:	00000013          	addi	x0,x0,0
    2cbc:	00000013          	addi	x0,x0,0
    2cc0:	00004517          	auipc	x10,0x4
    2cc4:	12450513          	addi	x10,x10,292 # 6de4 <trap_diag_generic_str>
    2cc8:	00000013          	addi	x0,x0,0
    2ccc:	00000013          	addi	x0,x0,0
    2cd0:	00000013          	addi	x0,x0,0
    2cd4:	00000013          	addi	x0,x0,0
    2cd8:	00000013          	addi	x0,x0,0
    2cdc:	00000013          	addi	x0,x0,0
    2ce0:	00014097          	auipc	x1,0x14
    2ce4:	524080e7          	jalr	x1,1316(x1) # 17204 <rvmodel_io_write_str>
    2ce8:	00003617          	auipc	x12,0x3
    2cec:	a8062603          	lw	x12,-1408(x12) # 5768 <saved_mepc>
    2cf0:	00000013          	addi	x0,x0,0
    2cf4:	00000013          	addi	x0,x0,0
    2cf8:	00000013          	addi	x0,x0,0
    2cfc:	00000013          	addi	x0,x0,0
    2d00:	00003517          	auipc	x10,0x3
    2d04:	0c750513          	addi	x10,x10,199 # 5dc7 <xepcinstrstr>
    2d08:	00000013          	addi	x0,x0,0
    2d0c:	00000013          	addi	x0,x0,0
    2d10:	00000013          	addi	x0,x0,0
    2d14:	00000013          	addi	x0,x0,0
    2d18:	00000013          	addi	x0,x0,0
    2d1c:	00000013          	addi	x0,x0,0
    2d20:	00014097          	auipc	x1,0x14
    2d24:	4e4080e7          	jalr	x1,1252(x1) # 17204 <rvmodel_io_write_str>
    2d28:	00065503          	lhu	x10,0(x12)
    2d2c:	01000593          	addi	x11,x0,16
    2d30:	00357413          	andi	x8,x10,3
    2d34:	00300493          	addi	x9,x0,3
    2d38:	00941a63          	bne	x8,x9,2d4c <trap_report_generic+0x9c>
    2d3c:	00265403          	lhu	x8,2(x12)
    2d40:	01041413          	slli	x8,x8,0x10
    2d44:	00856533          	or	x10,x10,x8
    2d48:	02000593          	addi	x11,x0,32
    2d4c:	32c000ef          	jal	x1,3078 <failedtest_hex_to_str>
    2d50:	00000013          	addi	x0,x0,0
    2d54:	00000013          	addi	x0,x0,0
    2d58:	00000013          	addi	x0,x0,0
    2d5c:	00000013          	addi	x0,x0,0
    2d60:	00003517          	auipc	x10,0x3
    2d64:	a2850513          	addi	x10,x10,-1496 # 5788 <ascii_buffer>
    2d68:	00000013          	addi	x0,x0,0
    2d6c:	00000013          	addi	x0,x0,0
    2d70:	00000013          	addi	x0,x0,0
    2d74:	00000013          	addi	x0,x0,0
    2d78:	00000013          	addi	x0,x0,0
    2d7c:	00000013          	addi	x0,x0,0
    2d80:	00014097          	auipc	x1,0x14
    2d84:	484080e7          	jalr	x1,1156(x1) # 17204 <rvmodel_io_write_str>
    2d88:	00000097          	auipc	x1,0x0
    2d8c:	0e8080e7          	jalr	x1,232(x1) # 2e70 <failedtest_print_csr_context>
    2d90:	0940006f          	jal	x0,2e24 <failedtest_report_end>

00002d94 <trap_cause_to_str>:
    2d94:	02054263          	blt	x10,x0,2db8 <trap_cause_interrupt>

00002d98 <trap_cause_exception>:
    2d98:	01800593          	addi	x11,x0,24
    2d9c:	04b55463          	bge	x10,x11,2de4 <trap_cause_unknown>
    2da0:	00003597          	auipc	x11,0x3
    2da4:	a1058593          	addi	x11,x11,-1520 # 57b0 <end_failure_scratch>
    2da8:	00251613          	slli	x12,x10,0x2
    2dac:	00c585b3          	add	x11,x11,x12
    2db0:	0005a503          	lw	x10,0(x11)
    2db4:	00008067          	jalr	x0,0(x1)

00002db8 <trap_cause_interrupt>:
    2db8:	00100593          	addi	x11,x0,1
    2dbc:	01f59593          	slli	x11,x11,0x1f
    2dc0:	00b54533          	xor	x10,x10,x11
    2dc4:	01000593          	addi	x11,x0,16
    2dc8:	00b55e63          	bge	x10,x11,2de4 <trap_cause_unknown>
    2dcc:	00003597          	auipc	x11,0x3
    2dd0:	a4458593          	addi	x11,x11,-1468 # 5810 <trap_int_name_tbl>
    2dd4:	00251613          	slli	x12,x10,0x2
    2dd8:	00c585b3          	add	x11,x11,x12
    2ddc:	0005a503          	lw	x10,0(x11)
    2de0:	00008067          	jalr	x0,0(x1)

00002de4 <trap_cause_unknown>:
    2de4:	00000013          	addi	x0,x0,0
    2de8:	00000013          	addi	x0,x0,0
    2dec:	00000013          	addi	x0,x0,0
    2df0:	00000013          	addi	x0,x0,0
    2df4:	00000013          	addi	x0,x0,0
    2df8:	00000013          	addi	x0,x0,0
    2dfc:	00000013          	addi	x0,x0,0
    2e00:	00003517          	auipc	x10,0x3
    2e04:	e4e50513          	addi	x10,x10,-434 # 5c4e <trap_cause_unknown_str>
    2e08:	00000013          	addi	x0,x0,0
    2e0c:	00000013          	addi	x0,x0,0
    2e10:	00000013          	addi	x0,x0,0
    2e14:	00000013          	addi	x0,x0,0
    2e18:	00000013          	addi	x0,x0,0
    2e1c:	00000013          	addi	x0,x0,0
    2e20:	00008067          	jalr	x0,0(x1)

00002e24 <failedtest_report_end>:
    2e24:	00000013          	addi	x0,x0,0
    2e28:	00000013          	addi	x0,x0,0
    2e2c:	00000013          	addi	x0,x0,0
    2e30:	00000013          	addi	x0,x0,0
    2e34:	00000013          	addi	x0,x0,0
    2e38:	00000013          	addi	x0,x0,0
    2e3c:	00000013          	addi	x0,x0,0
    2e40:	00004517          	auipc	x10,0x4
    2e44:	9cf50513          	addi	x10,x10,-1585 # 680f <endstr>
    2e48:	00000013          	addi	x0,x0,0
    2e4c:	00000013          	addi	x0,x0,0
    2e50:	00000013          	addi	x0,x0,0
    2e54:	00000013          	addi	x0,x0,0
    2e58:	00000013          	addi	x0,x0,0
    2e5c:	00000013          	addi	x0,x0,0
    2e60:	00014097          	auipc	x1,0x14
    2e64:	3a4080e7          	jalr	x1,932(x1) # 17204 <rvmodel_io_write_str>

00002e68 <failedtest_terminate>:
    2e68:	00014097          	auipc	x1,0x14
    2e6c:	3ac080e7          	jalr	x1,940(x1) # 17214 <rvmodel_halt_fail>

00002e70 <failedtest_print_csr_context>:
    2e70:	00003617          	auipc	x12,0x3
    2e74:	8f060613          	addi	x12,x12,-1808 # 5760 <csr_context_ret_addr>
    2e78:	00162023          	sw	x1,0(x12)
    2e7c:	00000013          	addi	x0,x0,0
    2e80:	00003517          	auipc	x10,0x3
    2e84:	f6850513          	addi	x10,x10,-152 # 5de8 <mepcstr>
    2e88:	00000013          	addi	x0,x0,0
    2e8c:	00000013          	addi	x0,x0,0
    2e90:	00000013          	addi	x0,x0,0
    2e94:	00000013          	addi	x0,x0,0
    2e98:	00000013          	addi	x0,x0,0
    2e9c:	00000013          	addi	x0,x0,0
    2ea0:	00014097          	auipc	x1,0x14
    2ea4:	364080e7          	jalr	x1,868(x1) # 17204 <rvmodel_io_write_str>
    2ea8:	00003517          	auipc	x10,0x3
    2eac:	8c052503          	lw	x10,-1856(x10) # 5768 <saved_mepc>
    2eb0:	02000593          	addi	x11,x0,32
    2eb4:	1c4000ef          	jal	x1,3078 <failedtest_hex_to_str>
    2eb8:	00000013          	addi	x0,x0,0
    2ebc:	00000013          	addi	x0,x0,0
    2ec0:	00003517          	auipc	x10,0x3
    2ec4:	8c850513          	addi	x10,x10,-1848 # 5788 <ascii_buffer>
    2ec8:	00000013          	addi	x0,x0,0
    2ecc:	00000013          	addi	x0,x0,0
    2ed0:	00000013          	addi	x0,x0,0
    2ed4:	00000013          	addi	x0,x0,0
    2ed8:	00000013          	addi	x0,x0,0
    2edc:	00000013          	addi	x0,x0,0
    2ee0:	00014097          	auipc	x1,0x14
    2ee4:	324080e7          	jalr	x1,804(x1) # 17204 <rvmodel_io_write_str>
    2ee8:	00000013          	addi	x0,x0,0
    2eec:	00000013          	addi	x0,x0,0
    2ef0:	00000013          	addi	x0,x0,0
    2ef4:	00000013          	addi	x0,x0,0
    2ef8:	00000013          	addi	x0,x0,0
    2efc:	00000013          	addi	x0,x0,0
    2f00:	00003517          	auipc	x10,0x3
    2f04:	ef850513          	addi	x10,x10,-264 # 5df8 <mcausestr>
    2f08:	00000013          	addi	x0,x0,0
    2f0c:	00000013          	addi	x0,x0,0
    2f10:	00000013          	addi	x0,x0,0
    2f14:	00000013          	addi	x0,x0,0
    2f18:	00000013          	addi	x0,x0,0
    2f1c:	00000013          	addi	x0,x0,0
    2f20:	00014097          	auipc	x1,0x14
    2f24:	2e4080e7          	jalr	x1,740(x1) # 17204 <rvmodel_io_write_str>
    2f28:	00003517          	auipc	x10,0x3
    2f2c:	84852503          	lw	x10,-1976(x10) # 5770 <saved_mcause>
