
/home/dev/github/clones/riscv-arch-test/work/rv32i-core/elfs/rv32i/I/I-sll-00.elf:     file format elf32-littleriscv
/home/dev/github/clones/riscv-arch-test/work/rv32i-core/elfs/rv32i/I/I-sll-00.elf
architecture: riscv:rv32, flags 0x00000112:
EXEC_P, HAS_SYMS, D_PAGED
start address 0x00000000

Program Header:
0x70000003 off    0x0001f240 vaddr 0x00000000 paddr 0x00000000 align 2**0
         filesz 0x00000033 memsz 0x00000000 flags r--
    LOAD off    0x00001000 vaddr 0x00000000 paddr 0x00000000 align 2**12
         filesz 0x00005f40 memsz 0x00005f40 flags r-x
    LOAD off    0x00007000 vaddr 0x00008000 paddr 0x00008000 align 2**12
         filesz 0x00018240 memsz 0x00018240 flags rwx

Sections:
Idx Name          Size      VMA       LMA       File off  Algn
  0 .text.init    00000040  00000000  00000000  00001000  2**5
                  CONTENTS, ALLOC, LOAD, READONLY, CODE
  1 .text.rvtest  00005f00  00000040  00000040  00001040  2**5
                  CONTENTS, ALLOC, LOAD, READONLY, CODE
  2 .data         00017d70  00008000  00008000  00007000  2**8
                  CONTENTS, ALLOC, LOAD, DATA
  3 .text.rvmodel 00000240  00020000  00020000  0001f000  2**5
                  CONTENTS, ALLOC, LOAD, READONLY, CODE
  4 .riscv.attributes 00000033  00000000  00000000  0001f240  2**0
                  CONTENTS, READONLY
  5 .debug_line   0000264c  00000000  00000000  0001f273  2**0
                  CONTENTS, READONLY, DEBUGGING, OCTETS
  6 .debug_line_str 00000069  00000000  00000000  000218bf  2**0
                  CONTENTS, READONLY, DEBUGGING, OCTETS
  7 .debug_info   00000023  00000000  00000000  00021928  2**0
                  CONTENTS, READONLY, DEBUGGING, OCTETS
  8 .debug_abbrev 00000012  00000000  00000000  0002194b  2**0
                  CONTENTS, READONLY, DEBUGGING, OCTETS
  9 .debug_aranges 00000028  00000000  00000000  00021960  2**3
                  CONTENTS, READONLY, DEBUGGING, OCTETS
 10 .debug_str    00000075  00000000  00000000  00021988  2**0
                  CONTENTS, READONLY, DEBUGGING, OCTETS
 11 .debug_rnglists 0000001b  00000000  00000000  000219fd  2**0
                  CONTENTS, READONLY, DEBUGGING, OCTETS
SYMBOL TABLE:
00000000 l    d  .text.init	00000000 .text.init
00000040 l    d  .text.rvtest	00000000 .text.rvtest
00008000 l    d  .data	00000000 .data
00020000 l    d  .text.rvmodel	00000000 .text.rvmodel
00000000 l    d  .riscv.attributes	00000000 .riscv.attributes
00000000 l    d  .debug_line	00000000 .debug_line
00000000 l    d  .debug_line_str	00000000 .debug_line_str
00000000 l    d  .debug_info	00000000 .debug_info
00000000 l    d  .debug_abbrev	00000000 .debug_abbrev
00000000 l    d  .debug_aranges	00000000 .debug_aranges
00000000 l    d  .debug_str	00000000 .debug_str
00000000 l    d  .debug_rnglists	00000000 .debug_rnglists
00000000 l    df *ABS*	00000000 ccRUcPBV.o
00000003 l       *ABS*	00000000 MMODE_SIG
00000001 l       *ABS*	00000000 SMODE_SIG
00000001 l       *ABS*	00000000 HMODE_SIG
00000002 l       *ABS*	00000000 VMODE_SIG
00020000 l       .text.rvmodel	00000000 rvmodel_boot
00000050 l       .text.rvtest	00000000 I_sll_cg_cp_rs1_b0
000044bc l       .text.rvtest	00000000 failedtest_x5_x4
00008d50 l       .data	00000000 I_sll_cg_cp_rs1_b0_str
0000007c l       .text.rvtest	00000000 I_sll_cg_cp_rs1_b1
00008d7d l       .data	00000000 I_sll_cg_cp_rs1_b1_str
000000ac l       .text.rvtest	00000000 I_sll_cg_cp_rs1_b2
00008daa l       .data	00000000 I_sll_cg_cp_rs1_b2_str
000000dc l       .text.rvtest	00000000 I_sll_cg_cp_rs1_b3
00008dd7 l       .data	00000000 I_sll_cg_cp_rs1_b3_str
00000110 l       .text.rvtest	00000000 I_sll_cg_cp_rs1_b4
000044fc l       .text.rvtest	00000000 failedtest_x14_x13
00008e04 l       .data	00000000 I_sll_cg_cp_rs1_b4_str
0000013c l       .text.rvtest	00000000 I_sll_cg_cp_rs1_b5
00008e31 l       .data	00000000 I_sll_cg_cp_rs1_b5_str
00000168 l       .text.rvtest	00000000 I_sll_cg_cp_rs1_b6
00008e5e l       .data	00000000 I_sll_cg_cp_rs1_b6_str
00000194 l       .text.rvtest	00000000 I_sll_cg_cp_rs1_b7
00008e8b l       .data	00000000 I_sll_cg_cp_rs1_b7_str
000001c0 l       .text.rvtest	00000000 I_sll_cg_cp_rs1_b8
00008eb8 l       .data	00000000 I_sll_cg_cp_rs1_b8_str
000001f0 l       .text.rvtest	00000000 I_sll_cg_cp_rs1_b9
00008ee5 l       .data	00000000 I_sll_cg_cp_rs1_b9_str
0000021c l       .text.rvtest	00000000 I_sll_cg_cp_rs1_b10
00008f13 l       .data	00000000 I_sll_cg_cp_rs1_b10_str
00000248 l       .text.rvtest	00000000 I_sll_cg_cp_rs1_b11
00008f42 l       .data	00000000 I_sll_cg_cp_rs1_b11_str
00000274 l       .text.rvtest	00000000 I_sll_cg_cp_rs1_b12
00008f71 l       .data	00000000 I_sll_cg_cp_rs1_b12_str
000002a8 l       .text.rvtest	00000000 I_sll_cg_cp_rs1_b13
000044d4 l       .text.rvtest	00000000 failedtest_x8_x7
00008fa0 l       .data	00000000 I_sll_cg_cp_rs1_b13_str
000002d4 l       .text.rvtest	00000000 I_sll_cg_cp_rs1_b14
00008fcf l       .data	00000000 I_sll_cg_cp_rs1_b14_str
00000300 l       .text.rvtest	00000000 I_sll_cg_cp_rs1_b15
00008ffe l       .data	00000000 I_sll_cg_cp_rs1_b15_str
0000032c l       .text.rvtest	00000000 I_sll_cg_cp_rs1_b16
0000902d l       .data	00000000 I_sll_cg_cp_rs1_b16_str
00000358 l       .text.rvtest	00000000 I_sll_cg_cp_rs1_b17
0000905c l       .data	00000000 I_sll_cg_cp_rs1_b17_str
00000384 l       .text.rvtest	00000000 I_sll_cg_cp_rs1_b18
0000908b l       .data	00000000 I_sll_cg_cp_rs1_b18_str
000003b0 l       .text.rvtest	00000000 I_sll_cg_cp_rs1_b19
000090ba l       .data	00000000 I_sll_cg_cp_rs1_b19_str
000003dc l       .text.rvtest	00000000 I_sll_cg_cp_rs1_b20
000090e9 l       .data	00000000 I_sll_cg_cp_rs1_b20_str
00000408 l       .text.rvtest	00000000 I_sll_cg_cp_rs1_b21
00009118 l       .data	00000000 I_sll_cg_cp_rs1_b21_str
00000434 l       .text.rvtest	00000000 I_sll_cg_cp_rs1_b22
00009147 l       .data	00000000 I_sll_cg_cp_rs1_b22_str
00000460 l       .text.rvtest	00000000 I_sll_cg_cp_rs1_b23
00009176 l       .data	00000000 I_sll_cg_cp_rs1_b23_str
00000490 l       .text.rvtest	00000000 I_sll_cg_cp_rs1_b24
000091a5 l       .data	00000000 I_sll_cg_cp_rs1_b24_str
000004c0 l       .text.rvtest	00000000 I_sll_cg_cp_rs1_b25
000091d4 l       .data	00000000 I_sll_cg_cp_rs1_b25_str
000004f0 l       .text.rvtest	00000000 I_sll_cg_cp_rs1_b26
00009203 l       .data	00000000 I_sll_cg_cp_rs1_b26_str
0000051c l       .text.rvtest	00000000 I_sll_cg_cp_rs1_b27
00009232 l       .data	00000000 I_sll_cg_cp_rs1_b27_str
00000548 l       .text.rvtest	00000000 I_sll_cg_cp_rs1_b28
00009261 l       .data	00000000 I_sll_cg_cp_rs1_b28_str
00000574 l       .text.rvtest	00000000 I_sll_cg_cp_rs1_b29
00009290 l       .data	00000000 I_sll_cg_cp_rs1_b29_str
000005a0 l       .text.rvtest	00000000 I_sll_cg_cp_rs1_b30
000092bf l       .data	00000000 I_sll_cg_cp_rs1_b30_str
000005cc l       .text.rvtest	00000000 I_sll_cg_cp_rs1_b31
000092ee l       .data	00000000 I_sll_cg_cp_rs1_b31_str
000005f8 l       .text.rvtest	00000000 I_sll_cg_cp_rs2_b0
0000931d l       .data	00000000 I_sll_cg_cp_rs2_b0_str
00000624 l       .text.rvtest	00000000 I_sll_cg_cp_rs2_b1
0000934b l       .data	00000000 I_sll_cg_cp_rs2_b1_str
00000650 l       .text.rvtest	00000000 I_sll_cg_cp_rs2_b2
00009379 l       .data	00000000 I_sll_cg_cp_rs2_b2_str
0000067c l       .text.rvtest	00000000 I_sll_cg_cp_rs2_b3
000093a7 l       .data	00000000 I_sll_cg_cp_rs2_b3_str
000006a8 l       .text.rvtest	00000000 I_sll_cg_cp_rs2_b4
000093d5 l       .data	00000000 I_sll_cg_cp_rs2_b4_str
000006d4 l       .text.rvtest	00000000 I_sll_cg_cp_rs2_b5
00009403 l       .data	00000000 I_sll_cg_cp_rs2_b5_str
00000704 l       .text.rvtest	00000000 I_sll_cg_cp_rs2_b6
00009431 l       .data	00000000 I_sll_cg_cp_rs2_b6_str
00000738 l       .text.rvtest	00000000 I_sll_cg_cp_rs2_b7
0000945f l       .data	00000000 I_sll_cg_cp_rs2_b7_str
00000764 l       .text.rvtest	00000000 I_sll_cg_cp_rs2_b8
0000948d l       .data	00000000 I_sll_cg_cp_rs2_b8_str
00000790 l       .text.rvtest	00000000 I_sll_cg_cp_rs2_b9
000094bb l       .data	00000000 I_sll_cg_cp_rs2_b9_str
000007bc l       .text.rvtest	00000000 I_sll_cg_cp_rs2_b10
000094e9 l       .data	00000000 I_sll_cg_cp_rs2_b10_str
000007ec l       .text.rvtest	00000000 I_sll_cg_cp_rs2_b11
00009518 l       .data	00000000 I_sll_cg_cp_rs2_b11_str
00000818 l       .text.rvtest	00000000 I_sll_cg_cp_rs2_b12
00009547 l       .data	00000000 I_sll_cg_cp_rs2_b12_str
00000844 l       .text.rvtest	00000000 I_sll_cg_cp_rs2_b13
00009576 l       .data	00000000 I_sll_cg_cp_rs2_b13_str
00000870 l       .text.rvtest	00000000 I_sll_cg_cp_rs2_b14
000095a5 l       .data	00000000 I_sll_cg_cp_rs2_b14_str
0000089c l       .text.rvtest	00000000 I_sll_cg_cp_rs2_b15
000095d4 l       .data	00000000 I_sll_cg_cp_rs2_b15_str
000008c8 l       .text.rvtest	00000000 I_sll_cg_cp_rs2_b16
00009603 l       .data	00000000 I_sll_cg_cp_rs2_b16_str
000008f4 l       .text.rvtest	00000000 I_sll_cg_cp_rs2_b17
00009632 l       .data	00000000 I_sll_cg_cp_rs2_b17_str
00000920 l       .text.rvtest	00000000 I_sll_cg_cp_rs2_b18
00009661 l       .data	00000000 I_sll_cg_cp_rs2_b18_str
0000094c l       .text.rvtest	00000000 I_sll_cg_cp_rs2_b19
00009690 l       .data	00000000 I_sll_cg_cp_rs2_b19_str
00000978 l       .text.rvtest	00000000 I_sll_cg_cp_rs2_b20
000096bf l       .data	00000000 I_sll_cg_cp_rs2_b20_str
000009a4 l       .text.rvtest	00000000 I_sll_cg_cp_rs2_b21
000096ee l       .data	00000000 I_sll_cg_cp_rs2_b21_str
000009d0 l       .text.rvtest	00000000 I_sll_cg_cp_rs2_b22
0000971d l       .data	00000000 I_sll_cg_cp_rs2_b22_str
00000a00 l       .text.rvtest	00000000 I_sll_cg_cp_rs2_b23
0000974c l       .data	00000000 I_sll_cg_cp_rs2_b23_str
00000a2c l       .text.rvtest	00000000 I_sll_cg_cp_rs2_b24
0000977b l       .data	00000000 I_sll_cg_cp_rs2_b24_str
00000a58 l       .text.rvtest	00000000 I_sll_cg_cp_rs2_b25
000097aa l       .data	00000000 I_sll_cg_cp_rs2_b25_str
00000a84 l       .text.rvtest	00000000 I_sll_cg_cp_rs2_b26
000097d9 l       .data	00000000 I_sll_cg_cp_rs2_b26_str
00000ab0 l       .text.rvtest	00000000 I_sll_cg_cp_rs2_b27
00009808 l       .data	00000000 I_sll_cg_cp_rs2_b27_str
00000adc l       .text.rvtest	00000000 I_sll_cg_cp_rs2_b28
00009837 l       .data	00000000 I_sll_cg_cp_rs2_b28_str
00000b08 l       .text.rvtest	00000000 I_sll_cg_cp_rs2_b29
00009866 l       .data	00000000 I_sll_cg_cp_rs2_b29_str
00000b34 l       .text.rvtest	00000000 I_sll_cg_cp_rs2_b30
00009895 l       .data	00000000 I_sll_cg_cp_rs2_b30_str
00000b60 l       .text.rvtest	00000000 I_sll_cg_cp_rs2_b31
000098c4 l       .data	00000000 I_sll_cg_cp_rs2_b31_str
00000b8c l       .text.rvtest	00000000 I_sll_cg_cp_rd_b0
000098f3 l       .data	00000000 I_sll_cg_cp_rd_b0_str
00000bb8 l       .text.rvtest	00000000 I_sll_cg_cp_rd_b1
00009920 l       .data	00000000 I_sll_cg_cp_rd_b1_str
00000be8 l       .text.rvtest	00000000 I_sll_cg_cp_rd_b2
0000994d l       .data	00000000 I_sll_cg_cp_rd_b2_str
00000c14 l       .text.rvtest	00000000 I_sll_cg_cp_rd_b3
0000997a l       .data	00000000 I_sll_cg_cp_rd_b3_str
00000c48 l       .text.rvtest	00000000 I_sll_cg_cp_rd_b4
000099a7 l       .data	00000000 I_sll_cg_cp_rd_b4_str
00000c74 l       .text.rvtest	00000000 I_sll_cg_cp_rd_b5
000099d4 l       .data	00000000 I_sll_cg_cp_rd_b5_str
00000ca0 l       .text.rvtest	00000000 I_sll_cg_cp_rd_b6
00009a01 l       .data	00000000 I_sll_cg_cp_rd_b6_str
00000ccc l       .text.rvtest	00000000 I_sll_cg_cp_rd_b7
00009a2e l       .data	00000000 I_sll_cg_cp_rd_b7_str
00000cf8 l       .text.rvtest	00000000 I_sll_cg_cp_rd_b8
00009a5b l       .data	00000000 I_sll_cg_cp_rd_b8_str
00000d24 l       .text.rvtest	00000000 I_sll_cg_cp_rd_b9
00009a88 l       .data	00000000 I_sll_cg_cp_rd_b9_str
00000d50 l       .text.rvtest	00000000 I_sll_cg_cp_rd_b10
00009ab5 l       .data	00000000 I_sll_cg_cp_rd_b10_str
00000d7c l       .text.rvtest	00000000 I_sll_cg_cp_rd_b11
00009ae3 l       .data	00000000 I_sll_cg_cp_rd_b11_str
00000da8 l       .text.rvtest	00000000 I_sll_cg_cp_rd_b12
00009b11 l       .data	00000000 I_sll_cg_cp_rd_b12_str
00000ddc l       .text.rvtest	00000000 I_sll_cg_cp_rd_b13
00009b3f l       .data	00000000 I_sll_cg_cp_rd_b13_str
00000e08 l       .text.rvtest	00000000 I_sll_cg_cp_rd_b14
00009b6d l       .data	00000000 I_sll_cg_cp_rd_b14_str
00000e34 l       .text.rvtest	00000000 I_sll_cg_cp_rd_b15
00009b9b l       .data	00000000 I_sll_cg_cp_rd_b15_str
00000e60 l       .text.rvtest	00000000 I_sll_cg_cp_rd_b16
00009bc9 l       .data	00000000 I_sll_cg_cp_rd_b16_str
00000e8c l       .text.rvtest	00000000 I_sll_cg_cp_rd_b17
00009bf7 l       .data	00000000 I_sll_cg_cp_rd_b17_str
00000eb8 l       .text.rvtest	00000000 I_sll_cg_cp_rd_b18
00009c25 l       .data	00000000 I_sll_cg_cp_rd_b18_str
00000ee4 l       .text.rvtest	00000000 I_sll_cg_cp_rd_b19
00009c53 l       .data	00000000 I_sll_cg_cp_rd_b19_str
00000f14 l       .text.rvtest	00000000 I_sll_cg_cp_rd_b20
00009c81 l       .data	00000000 I_sll_cg_cp_rd_b20_str
00000f40 l       .text.rvtest	00000000 I_sll_cg_cp_rd_b21
00009caf l       .data	00000000 I_sll_cg_cp_rd_b21_str
00000f6c l       .text.rvtest	00000000 I_sll_cg_cp_rd_b22
00009cdd l       .data	00000000 I_sll_cg_cp_rd_b22_str
00000f98 l       .text.rvtest	00000000 I_sll_cg_cp_rd_b23
00009d0b l       .data	00000000 I_sll_cg_cp_rd_b23_str
00000fc4 l       .text.rvtest	00000000 I_sll_cg_cp_rd_b24
00009d39 l       .data	00000000 I_sll_cg_cp_rd_b24_str
00000ff0 l       .text.rvtest	00000000 I_sll_cg_cp_rd_b25
00009d67 l       .data	00000000 I_sll_cg_cp_rd_b25_str
0000101c l       .text.rvtest	00000000 I_sll_cg_cp_rd_b26
00009d95 l       .data	00000000 I_sll_cg_cp_rd_b26_str
00001048 l       .text.rvtest	00000000 I_sll_cg_cp_rd_b27
00009dc3 l       .data	00000000 I_sll_cg_cp_rd_b27_str
00001078 l       .text.rvtest	00000000 I_sll_cg_cp_rd_b28
00009df1 l       .data	00000000 I_sll_cg_cp_rd_b28_str
000010a4 l       .text.rvtest	00000000 I_sll_cg_cp_rd_b29
00009e1f l       .data	00000000 I_sll_cg_cp_rd_b29_str
000010d4 l       .text.rvtest	00000000 I_sll_cg_cp_rd_b30
00009e4d l       .data	00000000 I_sll_cg_cp_rd_b30_str
00001100 l       .text.rvtest	00000000 I_sll_cg_cp_rd_b31
00009e7b l       .data	00000000 I_sll_cg_cp_rd_b31_str
0000112c l       .text.rvtest	00000000 I_sll_cg_cp_rs1_edges_0x0
00009ea9 l       .data	00000000 I_sll_cg_cp_rs1_edges_0x0_str
00001158 l       .text.rvtest	00000000 I_sll_cg_cp_rs1_edges_0x1
00009ede l       .data	00000000 I_sll_cg_cp_rs1_edges_0x1_str
00001184 l       .text.rvtest	00000000 I_sll_cg_cp_rs1_edges_0x2
00009f13 l       .data	00000000 I_sll_cg_cp_rs1_edges_0x2_str
000011b0 l       .text.rvtest	00000000 I_sll_cg_cp_rs1_edges_0x80000000
00009f48 l       .data	00000000 I_sll_cg_cp_rs1_edges_0x80000000_str
000011dc l       .text.rvtest	00000000 I_sll_cg_cp_rs1_edges_0x80000001
00009f85 l       .data	00000000 I_sll_cg_cp_rs1_edges_0x80000001_str
00001208 l       .text.rvtest	00000000 I_sll_cg_cp_rs1_edges_0x7fffffff
00009fc2 l       .data	00000000 I_sll_cg_cp_rs1_edges_0x7fffffff_str
00001234 l       .text.rvtest	00000000 I_sll_cg_cp_rs1_edges_0x7ffffffe
00009fff l       .data	00000000 I_sll_cg_cp_rs1_edges_0x7ffffffe_str
00001260 l       .text.rvtest	00000000 I_sll_cg_cp_rs1_edges_0xffffffff
0000a03c l       .data	00000000 I_sll_cg_cp_rs1_edges_0xffffffff_str
0000128c l       .text.rvtest	00000000 I_sll_cg_cp_rs1_edges_0xfffffffe
0000a079 l       .data	00000000 I_sll_cg_cp_rs1_edges_0xfffffffe_str
000012b8 l       .text.rvtest	00000000 I_sll_cg_cp_rs1_edges_0x5bbc8872
0000a0b6 l       .data	00000000 I_sll_cg_cp_rs1_edges_0x5bbc8872_str
000012e4 l       .text.rvtest	00000000 I_sll_cg_cp_rs1_edges_0xaaaaaaaa
0000a0f3 l       .data	00000000 I_sll_cg_cp_rs1_edges_0xaaaaaaaa_str
00001310 l       .text.rvtest	00000000 I_sll_cg_cp_rs1_edges_0x55555555
0000a130 l       .data	00000000 I_sll_cg_cp_rs1_edges_0x55555555_str
0000133c l       .text.rvtest	00000000 I_sll_cg_cp_rs2_edges_0x0
0000a16d l       .data	00000000 I_sll_cg_cp_rs2_edges_0x0_str
00001368 l       .text.rvtest	00000000 I_sll_cg_cp_rs2_edges_0x1
0000a1a3 l       .data	00000000 I_sll_cg_cp_rs2_edges_0x1_str
00001394 l       .text.rvtest	00000000 I_sll_cg_cp_rs2_edges_0x2
0000a1d9 l       .data	00000000 I_sll_cg_cp_rs2_edges_0x2_str
000013c0 l       .text.rvtest	00000000 I_sll_cg_cp_rs2_edges_0x80000000
0000a20f l       .data	00000000 I_sll_cg_cp_rs2_edges_0x80000000_str
000013ec l       .text.rvtest	00000000 I_sll_cg_cp_rs2_edges_0x80000001
0000a24c l       .data	00000000 I_sll_cg_cp_rs2_edges_0x80000001_str
00001418 l       .text.rvtest	00000000 I_sll_cg_cp_rs2_edges_0x7fffffff
0000a289 l       .data	00000000 I_sll_cg_cp_rs2_edges_0x7fffffff_str
00001444 l       .text.rvtest	00000000 I_sll_cg_cp_rs2_edges_0x7ffffffe
0000a2c6 l       .data	00000000 I_sll_cg_cp_rs2_edges_0x7ffffffe_str
00001470 l       .text.rvtest	00000000 I_sll_cg_cp_rs2_edges_0xffffffff
0000a303 l       .data	00000000 I_sll_cg_cp_rs2_edges_0xffffffff_str
0000149c l       .text.rvtest	00000000 I_sll_cg_cp_rs2_edges_0xfffffffe
0000a340 l       .data	00000000 I_sll_cg_cp_rs2_edges_0xfffffffe_str
000014c8 l       .text.rvtest	00000000 I_sll_cg_cp_rs2_edges_0x5bbc8872
0000a37d l       .data	00000000 I_sll_cg_cp_rs2_edges_0x5bbc8872_str
000014f4 l       .text.rvtest	00000000 I_sll_cg_cp_rs2_edges_0xaaaaaaaa
0000a3ba l       .data	00000000 I_sll_cg_cp_rs2_edges_0xaaaaaaaa_str
00001520 l       .text.rvtest	00000000 I_sll_cg_cp_rs2_edges_0x55555555
0000a3f7 l       .data	00000000 I_sll_cg_cp_rs2_edges_0x55555555_str
0000154c l       .text.rvtest	00000000 I_sll_cg_cr_rs1_rs2_edges_rs1val_0x0_rs2val_0x0
0000a434 l       .data	00000000 I_sll_cg_cr_rs1_rs2_edges_rs1val_0x0_rs2val_0x0_str
00001578 l       .text.rvtest	00000000 I_sll_cg_cr_rs1_rs2_edges_rs1val_0x0_rs2val_0x1
0000a481 l       .data	00000000 I_sll_cg_cr_rs1_rs2_edges_rs1val_0x0_rs2val_0x1_str
000015a4 l       .text.rvtest	00000000 I_sll_cg_cr_rs1_rs2_edges_rs1val_0x0_rs2val_0x2
0000a4ce l       .data	00000000 I_sll_cg_cr_rs1_rs2_edges_rs1val_0x0_rs2val_0x2_str
000015d0 l       .text.rvtest	00000000 I_sll_cg_cr_rs1_rs2_edges_rs1val_0x0_rs2val_0x80000000
0000a51b l       .data	00000000 I_sll_cg_cr_rs1_rs2_edges_rs1val_0x0_rs2val_0x80000000_str
000015fc l       .text.rvtest	00000000 I_sll_cg_cr_rs1_rs2_edges_rs1val_0x0_rs2val_0x80000001
0000a56f l       .data	00000000 I_sll_cg_cr_rs1_rs2_edges_rs1val_0x0_rs2val_0x80000001_str
00001628 l       .text.rvtest	00000000 I_sll_cg_cr_rs1_rs2_edges_rs1val_0x0_rs2val_0x7fffffff
0000a5c3 l       .data	00000000 I_sll_cg_cr_rs1_rs2_edges_rs1val_0x0_rs2val_0x7fffffff_str
00001654 l       .text.rvtest	00000000 I_sll_cg_cr_rs1_rs2_edges_rs1val_0x0_rs2val_0x7ffffffe
0000a617 l       .data	00000000 I_sll_cg_cr_rs1_rs2_edges_rs1val_0x0_rs2val_0x7ffffffe_str
00001680 l       .text.rvtest	00000000 I_sll_cg_cr_rs1_rs2_edges_rs1val_0x0_rs2val_0xffffffff
0000a66b l       .data	00000000 I_sll_cg_cr_rs1_rs2_edges_rs1val_0x0_rs2val_0xffffffff_str
000016ac l       .text.rvtest	00000000 I_sll_cg_cr_rs1_rs2_edges_rs1val_0x0_rs2val_0xfffffffe
0000a6bf l       .data	00000000 I_sll_cg_cr_rs1_rs2_edges_rs1val_0x0_rs2val_0xfffffffe_str
000016d8 l       .text.rvtest	00000000 I_sll_cg_cr_rs1_rs2_edges_rs1val_0x0_rs2val_0x5bbc8872
0000a713 l       .data	00000000 I_sll_cg_cr_rs1_rs2_edges_rs1val_0x0_rs2val_0x5bbc8872_str
00001704 l       .text.rvtest	00000000 I_sll_cg_cr_rs1_rs2_edges_rs1val_0x0_rs2val_0xaaaaaaaa
0000a767 l       .data	00000000 I_sll_cg_cr_rs1_rs2_edges_rs1val_0x0_rs2val_0xaaaaaaaa_str
00001730 l       .text.rvtest	00000000 I_sll_cg_cr_rs1_rs2_edges_rs1val_0x0_rs2val_0x55555555
0000a7bb l       .data	00000000 I_sll_cg_cr_rs1_rs2_edges_rs1val_0x0_rs2val_0x55555555_str
0000175c l       .text.rvtest	00000000 I_sll_cg_cr_rs1_rs2_edges_rs1val_0x1_rs2val_0x0
0000a80f l       .data	00000000 I_sll_cg_cr_rs1_rs2_edges_rs1val_0x1_rs2val_0x0_str
00001788 l       .text.rvtest	00000000 I_sll_cg_cr_rs1_rs2_edges_rs1val_0x1_rs2val_0x1
0000a85c l       .data	00000000 I_sll_cg_cr_rs1_rs2_edges_rs1val_0x1_rs2val_0x1_str
000017b4 l       .text.rvtest	00000000 I_sll_cg_cr_rs1_rs2_edges_rs1val_0x1_rs2val_0x2
0000a8a9 l       .data	00000000 I_sll_cg_cr_rs1_rs2_edges_rs1val_0x1_rs2val_0x2_str
000017e0 l       .text.rvtest	00000000 I_sll_cg_cr_rs1_rs2_edges_rs1val_0x1_rs2val_0x80000000
0000a8f6 l       .data	00000000 I_sll_cg_cr_rs1_rs2_edges_rs1val_0x1_rs2val_0x80000000_str
0000180c l       .text.rvtest	00000000 I_sll_cg_cr_rs1_rs2_edges_rs1val_0x1_rs2val_0x80000001
0000a94a l       .data	00000000 I_sll_cg_cr_rs1_rs2_edges_rs1val_0x1_rs2val_0x80000001_str
00001838 l       .text.rvtest	00000000 I_sll_cg_cr_rs1_rs2_edges_rs1val_0x1_rs2val_0x7fffffff
0000a99e l       .data	00000000 I_sll_cg_cr_rs1_rs2_edges_rs1val_0x1_rs2val_0x7fffffff_str
00001864 l       .text.rvtest	00000000 I_sll_cg_cr_rs1_rs2_edges_rs1val_0x1_rs2val_0x7ffffffe
0000a9f2 l       .data	00000000 I_sll_cg_cr_rs1_rs2_edges_rs1val_0x1_rs2val_0x7ffffffe_str
00001890 l       .text.rvtest	00000000 I_sll_cg_cr_rs1_rs2_edges_rs1val_0x1_rs2val_0xffffffff
0000aa46 l       .data	00000000 I_sll_cg_cr_rs1_rs2_edges_rs1val_0x1_rs2val_0xffffffff_str
000018bc l       .text.rvtest	00000000 I_sll_cg_cr_rs1_rs2_edges_rs1val_0x1_rs2val_0xfffffffe
0000aa9a l       .data	00000000 I_sll_cg_cr_rs1_rs2_edges_rs1val_0x1_rs2val_0xfffffffe_str
000018e8 l       .text.rvtest	00000000 I_sll_cg_cr_rs1_rs2_edges_rs1val_0x1_rs2val_0x5bbc8872
0000aaee l       .data	00000000 I_sll_cg_cr_rs1_rs2_edges_rs1val_0x1_rs2val_0x5bbc8872_str
00001914 l       .text.rvtest	00000000 I_sll_cg_cr_rs1_rs2_edges_rs1val_0x1_rs2val_0xaaaaaaaa
0000ab42 l       .data	00000000 I_sll_cg_cr_rs1_rs2_edges_rs1val_0x1_rs2val_0xaaaaaaaa_str
00001940 l       .text.rvtest	00000000 I_sll_cg_cr_rs1_rs2_edges_rs1val_0x1_rs2val_0x55555555
0000ab96 l       .data	00000000 I_sll_cg_cr_rs1_rs2_edges_rs1val_0x1_rs2val_0x55555555_str
0000196c l       .text.rvtest	00000000 I_sll_cg_cr_rs1_rs2_edges_rs1val_0x2_rs2val_0x0
0000abea l       .data	00000000 I_sll_cg_cr_rs1_rs2_edges_rs1val_0x2_rs2val_0x0_str
00001998 l       .text.rvtest	00000000 I_sll_cg_cr_rs1_rs2_edges_rs1val_0x2_rs2val_0x1
0000ac37 l       .data	00000000 I_sll_cg_cr_rs1_rs2_edges_rs1val_0x2_rs2val_0x1_str
000019c4 l       .text.rvtest	00000000 I_sll_cg_cr_rs1_rs2_edges_rs1val_0x2_rs2val_0x2
0000ac84 l       .data	00000000 I_sll_cg_cr_rs1_rs2_edges_rs1val_0x2_rs2val_0x2_str
000019f0 l       .text.rvtest	00000000 I_sll_cg_cr_rs1_rs2_edges_rs1val_0x2_rs2val_0x80000000
0000acd1 l       .data	00000000 I_sll_cg_cr_rs1_rs2_edges_rs1val_0x2_rs2val_0x80000000_str
00001a1c l       .text.rvtest	00000000 I_sll_cg_cr_rs1_rs2_edges_rs1val_0x2_rs2val_0x80000001
0000ad25 l       .data	00000000 I_sll_cg_cr_rs1_rs2_edges_rs1val_0x2_rs2val_0x80000001_str
00001a48 l       .text.rvtest	00000000 I_sll_cg_cr_rs1_rs2_edges_rs1val_0x2_rs2val_0x7fffffff
0000ad79 l       .data	00000000 I_sll_cg_cr_rs1_rs2_edges_rs1val_0x2_rs2val_0x7fffffff_str
00001a74 l       .text.rvtest	00000000 I_sll_cg_cr_rs1_rs2_edges_rs1val_0x2_rs2val_0x7ffffffe
0000adcd l       .data	00000000 I_sll_cg_cr_rs1_rs2_edges_rs1val_0x2_rs2val_0x7ffffffe_str
00001aa0 l       .text.rvtest	00000000 I_sll_cg_cr_rs1_rs2_edges_rs1val_0x2_rs2val_0xffffffff
0000ae21 l       .data	00000000 I_sll_cg_cr_rs1_rs2_edges_rs1val_0x2_rs2val_0xffffffff_str
00001acc l       .text.rvtest	00000000 I_sll_cg_cr_rs1_rs2_edges_rs1val_0x2_rs2val_0xfffffffe
0000ae75 l       .data	00000000 I_sll_cg_cr_rs1_rs2_edges_rs1val_0x2_rs2val_0xfffffffe_str
00001af8 l       .text.rvtest	00000000 I_sll_cg_cr_rs1_rs2_edges_rs1val_0x2_rs2val_0x5bbc8872
0000aec9 l       .data	00000000 I_sll_cg_cr_rs1_rs2_edges_rs1val_0x2_rs2val_0x5bbc8872_str
00001b24 l       .text.rvtest	00000000 I_sll_cg_cr_rs1_rs2_edges_rs1val_0x2_rs2val_0xaaaaaaaa
0000af1d l       .data	00000000 I_sll_cg_cr_rs1_rs2_edges_rs1val_0x2_rs2val_0xaaaaaaaa_str
00001b50 l       .text.rvtest	00000000 I_sll_cg_cr_rs1_rs2_edges_rs1val_0x2_rs2val_0x55555555
0000af71 l       .data	00000000 I_sll_cg_cr_rs1_rs2_edges_rs1val_0x2_rs2val_0x55555555_str
00001b7c l       .text.rvtest	00000000 I_sll_cg_cr_rs1_rs2_edges_rs1val_0x80000000_rs2val_0x0
0000afc5 l       .data	00000000 I_sll_cg_cr_rs1_rs2_edges_rs1val_0x80000000_rs2val_0x0_str
00001ba8 l       .text.rvtest	00000000 I_sll_cg_cr_rs1_rs2_edges_rs1val_0x80000000_rs2val_0x1
0000b019 l       .data	00000000 I_sll_cg_cr_rs1_rs2_edges_rs1val_0x80000000_rs2val_0x1_str
00001bd4 l       .text.rvtest	00000000 I_sll_cg_cr_rs1_rs2_edges_rs1val_0x80000000_rs2val_0x2
0000b06d l       .data	00000000 I_sll_cg_cr_rs1_rs2_edges_rs1val_0x80000000_rs2val_0x2_str
00001c00 l       .text.rvtest	00000000 I_sll_cg_cr_rs1_rs2_edges_rs1val_0x80000000_rs2val_0x80000000
0000b0c1 l       .data	00000000 I_sll_cg_cr_rs1_rs2_edges_rs1val_0x80000000_rs2val_0x80000000_str
00001c2c l       .text.rvtest	00000000 I_sll_cg_cr_rs1_rs2_edges_rs1val_0x80000000_rs2val_0x80000001
0000b11c l       .data	00000000 I_sll_cg_cr_rs1_rs2_edges_rs1val_0x80000000_rs2val_0x80000001_str
00001c58 l       .text.rvtest	00000000 I_sll_cg_cr_rs1_rs2_edges_rs1val_0x80000000_rs2val_0x7fffffff
0000b177 l       .data	00000000 I_sll_cg_cr_rs1_rs2_edges_rs1val_0x80000000_rs2val_0x7fffffff_str
00001c84 l       .text.rvtest	00000000 I_sll_cg_cr_rs1_rs2_edges_rs1val_0x80000000_rs2val_0x7ffffffe
0000b1d2 l       .data	00000000 I_sll_cg_cr_rs1_rs2_edges_rs1val_0x80000000_rs2val_0x7ffffffe_str
00001cb0 l       .text.rvtest	00000000 I_sll_cg_cr_rs1_rs2_edges_rs1val_0x80000000_rs2val_0xffffffff
0000b22d l       .data	00000000 I_sll_cg_cr_rs1_rs2_edges_rs1val_0x80000000_rs2val_0xffffffff_str
00001cdc l       .text.rvtest	00000000 I_sll_cg_cr_rs1_rs2_edges_rs1val_0x80000000_rs2val_0xfffffffe
0000b288 l       .data	00000000 I_sll_cg_cr_rs1_rs2_edges_rs1val_0x80000000_rs2val_0xfffffffe_str
00001d08 l       .text.rvtest	00000000 I_sll_cg_cr_rs1_rs2_edges_rs1val_0x80000000_rs2val_0x5bbc8872
0000b2e3 l       .data	00000000 I_sll_cg_cr_rs1_rs2_edges_rs1val_0x80000000_rs2val_0x5bbc8872_str
00001d34 l       .text.rvtest	00000000 I_sll_cg_cr_rs1_rs2_edges_rs1val_0x80000000_rs2val_0xaaaaaaaa
0000b33e l       .data	00000000 I_sll_cg_cr_rs1_rs2_edges_rs1val_0x80000000_rs2val_0xaaaaaaaa_str
00001d60 l       .text.rvtest	00000000 I_sll_cg_cr_rs1_rs2_edges_rs1val_0x80000000_rs2val_0x55555555
0000b399 l       .data	00000000 I_sll_cg_cr_rs1_rs2_edges_rs1val_0x80000000_rs2val_0x55555555_str
00001d8c l       .text.rvtest	00000000 I_sll_cg_cr_rs1_rs2_edges_rs1val_0x80000001_rs2val_0x0
0000b3f4 l       .data	00000000 I_sll_cg_cr_rs1_rs2_edges_rs1val_0x80000001_rs2val_0x0_str
00001db8 l       .text.rvtest	00000000 I_sll_cg_cr_rs1_rs2_edges_rs1val_0x80000001_rs2val_0x1
0000b448 l       .data	00000000 I_sll_cg_cr_rs1_rs2_edges_rs1val_0x80000001_rs2val_0x1_str
00001de4 l       .text.rvtest	00000000 I_sll_cg_cr_rs1_rs2_edges_rs1val_0x80000001_rs2val_0x2
0000b49c l       .data	00000000 I_sll_cg_cr_rs1_rs2_edges_rs1val_0x80000001_rs2val_0x2_str
00001e10 l       .text.rvtest	00000000 I_sll_cg_cr_rs1_rs2_edges_rs1val_0x80000001_rs2val_0x80000000
0000b4f0 l       .data	00000000 I_sll_cg_cr_rs1_rs2_edges_rs1val_0x80000001_rs2val_0x80000000_str
00001e3c l       .text.rvtest	00000000 I_sll_cg_cr_rs1_rs2_edges_rs1val_0x80000001_rs2val_0x80000001
0000b54b l       .data	00000000 I_sll_cg_cr_rs1_rs2_edges_rs1val_0x80000001_rs2val_0x80000001_str
00001e68 l       .text.rvtest	00000000 I_sll_cg_cr_rs1_rs2_edges_rs1val_0x80000001_rs2val_0x7fffffff
0000b5a6 l       .data	00000000 I_sll_cg_cr_rs1_rs2_edges_rs1val_0x80000001_rs2val_0x7fffffff_str
00001e94 l       .text.rvtest	00000000 I_sll_cg_cr_rs1_rs2_edges_rs1val_0x80000001_rs2val_0x7ffffffe
0000b601 l       .data	00000000 I_sll_cg_cr_rs1_rs2_edges_rs1val_0x80000001_rs2val_0x7ffffffe_str
00001ec0 l       .text.rvtest	00000000 I_sll_cg_cr_rs1_rs2_edges_rs1val_0x80000001_rs2val_0xffffffff
0000b65c l       .data	00000000 I_sll_cg_cr_rs1_rs2_edges_rs1val_0x80000001_rs2val_0xffffffff_str
00001eec l       .text.rvtest	00000000 I_sll_cg_cr_rs1_rs2_edges_rs1val_0x80000001_rs2val_0xfffffffe
0000b6b7 l       .data	00000000 I_sll_cg_cr_rs1_rs2_edges_rs1val_0x80000001_rs2val_0xfffffffe_str
00001f18 l       .text.rvtest	00000000 I_sll_cg_cr_rs1_rs2_edges_rs1val_0x80000001_rs2val_0x5bbc8872
0000b712 l       .data	00000000 I_sll_cg_cr_rs1_rs2_edges_rs1val_0x80000001_rs2val_0x5bbc8872_str
00001f44 l       .text.rvtest	00000000 I_sll_cg_cr_rs1_rs2_edges_rs1val_0x80000001_rs2val_0xaaaaaaaa
0000b76d l       .data	00000000 I_sll_cg_cr_rs1_rs2_edges_rs1val_0x80000001_rs2val_0xaaaaaaaa_str
00001f70 l       .text.rvtest	00000000 I_sll_cg_cr_rs1_rs2_edges_rs1val_0x80000001_rs2val_0x55555555
0000b7c8 l       .data	00000000 I_sll_cg_cr_rs1_rs2_edges_rs1val_0x80000001_rs2val_0x55555555_str
00001f9c l       .text.rvtest	00000000 I_sll_cg_cr_rs1_rs2_edges_rs1val_0x7fffffff_rs2val_0x0
0000b823 l       .data	00000000 I_sll_cg_cr_rs1_rs2_edges_rs1val_0x7fffffff_rs2val_0x0_str
00001fc8 l       .text.rvtest	00000000 I_sll_cg_cr_rs1_rs2_edges_rs1val_0x7fffffff_rs2val_0x1
0000b877 l       .data	00000000 I_sll_cg_cr_rs1_rs2_edges_rs1val_0x7fffffff_rs2val_0x1_str
00001ff4 l       .text.rvtest	00000000 I_sll_cg_cr_rs1_rs2_edges_rs1val_0x7fffffff_rs2val_0x2
0000b8cb l       .data	00000000 I_sll_cg_cr_rs1_rs2_edges_rs1val_0x7fffffff_rs2val_0x2_str
00002020 l       .text.rvtest	00000000 I_sll_cg_cr_rs1_rs2_edges_rs1val_0x7fffffff_rs2val_0x80000000
0000b91f l       .data	00000000 I_sll_cg_cr_rs1_rs2_edges_rs1val_0x7fffffff_rs2val_0x80000000_str
0000204c l       .text.rvtest	00000000 I_sll_cg_cr_rs1_rs2_edges_rs1val_0x7fffffff_rs2val_0x80000001
0000b97a l       .data	00000000 I_sll_cg_cr_rs1_rs2_edges_rs1val_0x7fffffff_rs2val_0x80000001_str
00002078 l       .text.rvtest	00000000 I_sll_cg_cr_rs1_rs2_edges_rs1val_0x7fffffff_rs2val_0x7fffffff
0000b9d5 l       .data	00000000 I_sll_cg_cr_rs1_rs2_edges_rs1val_0x7fffffff_rs2val_0x7fffffff_str
000020a4 l       .text.rvtest	00000000 I_sll_cg_cr_rs1_rs2_edges_rs1val_0x7fffffff_rs2val_0x7ffffffe
0000ba30 l       .data	00000000 I_sll_cg_cr_rs1_rs2_edges_rs1val_0x7fffffff_rs2val_0x7ffffffe_str
000020d0 l       .text.rvtest	00000000 I_sll_cg_cr_rs1_rs2_edges_rs1val_0x7fffffff_rs2val_0xffffffff
0000ba8b l       .data	00000000 I_sll_cg_cr_rs1_rs2_edges_rs1val_0x7fffffff_rs2val_0xffffffff_str
000020fc l       .text.rvtest	00000000 I_sll_cg_cr_rs1_rs2_edges_rs1val_0x7fffffff_rs2val_0xfffffffe
0000bae6 l       .data	00000000 I_sll_cg_cr_rs1_rs2_edges_rs1val_0x7fffffff_rs2val_0xfffffffe_str
00002128 l       .text.rvtest	00000000 I_sll_cg_cr_rs1_rs2_edges_rs1val_0x7fffffff_rs2val_0x5bbc8872
0000bb41 l       .data	00000000 I_sll_cg_cr_rs1_rs2_edges_rs1val_0x7fffffff_rs2val_0x5bbc8872_str
00002154 l       .text.rvtest	00000000 I_sll_cg_cr_rs1_rs2_edges_rs1val_0x7fffffff_rs2val_0xaaaaaaaa
0000bb9c l       .data	00000000 I_sll_cg_cr_rs1_rs2_edges_rs1val_0x7fffffff_rs2val_0xaaaaaaaa_str
00002180 l       .text.rvtest	00000000 I_sll_cg_cr_rs1_rs2_edges_rs1val_0x7fffffff_rs2val_0x55555555
0000bbf7 l       .data	00000000 I_sll_cg_cr_rs1_rs2_edges_rs1val_0x7fffffff_rs2val_0x55555555_str
000021ac l       .text.rvtest	00000000 I_sll_cg_cr_rs1_rs2_edges_rs1val_0x7ffffffe_rs2val_0x0
0000bc52 l       .data	00000000 I_sll_cg_cr_rs1_rs2_edges_rs1val_0x7ffffffe_rs2val_0x0_str
000021d8 l       .text.rvtest	00000000 I_sll_cg_cr_rs1_rs2_edges_rs1val_0x7ffffffe_rs2val_0x1
0000bca6 l       .data	00000000 I_sll_cg_cr_rs1_rs2_edges_rs1val_0x7ffffffe_rs2val_0x1_str
00002204 l       .text.rvtest	00000000 I_sll_cg_cr_rs1_rs2_edges_rs1val_0x7ffffffe_rs2val_0x2
0000bcfa l       .data	00000000 I_sll_cg_cr_rs1_rs2_edges_rs1val_0x7ffffffe_rs2val_0x2_str
00002230 l       .text.rvtest	00000000 I_sll_cg_cr_rs1_rs2_edges_rs1val_0x7ffffffe_rs2val_0x80000000
0000bd4e l       .data	00000000 I_sll_cg_cr_rs1_rs2_edges_rs1val_0x7ffffffe_rs2val_0x80000000_str
0000225c l       .text.rvtest	00000000 I_sll_cg_cr_rs1_rs2_edges_rs1val_0x7ffffffe_rs2val_0x80000001
0000bda9 l       .data	00000000 I_sll_cg_cr_rs1_rs2_edges_rs1val_0x7ffffffe_rs2val_0x80000001_str
00002288 l       .text.rvtest	00000000 I_sll_cg_cr_rs1_rs2_edges_rs1val_0x7ffffffe_rs2val_0x7fffffff
0000be04 l       .data	00000000 I_sll_cg_cr_rs1_rs2_edges_rs1val_0x7ffffffe_rs2val_0x7fffffff_str
000022b4 l       .text.rvtest	00000000 I_sll_cg_cr_rs1_rs2_edges_rs1val_0x7ffffffe_rs2val_0x7ffffffe
0000be5f l       .data	00000000 I_sll_cg_cr_rs1_rs2_edges_rs1val_0x7ffffffe_rs2val_0x7ffffffe_str
000022e0 l       .text.rvtest	00000000 I_sll_cg_cr_rs1_rs2_edges_rs1val_0x7ffffffe_rs2val_0xffffffff
0000beba l       .data	00000000 I_sll_cg_cr_rs1_rs2_edges_rs1val_0x7ffffffe_rs2val_0xffffffff_str
0000230c l       .text.rvtest	00000000 I_sll_cg_cr_rs1_rs2_edges_rs1val_0x7ffffffe_rs2val_0xfffffffe
0000bf15 l       .data	00000000 I_sll_cg_cr_rs1_rs2_edges_rs1val_0x7ffffffe_rs2val_0xfffffffe_str
00002338 l       .text.rvtest	00000000 I_sll_cg_cr_rs1_rs2_edges_rs1val_0x7ffffffe_rs2val_0x5bbc8872
0000bf70 l       .data	00000000 I_sll_cg_cr_rs1_rs2_edges_rs1val_0x7ffffffe_rs2val_0x5bbc8872_str
00002364 l       .text.rvtest	00000000 I_sll_cg_cr_rs1_rs2_edges_rs1val_0x7ffffffe_rs2val_0xaaaaaaaa
0000bfcb l       .data	00000000 I_sll_cg_cr_rs1_rs2_edges_rs1val_0x7ffffffe_rs2val_0xaaaaaaaa_str
00002390 l       .text.rvtest	00000000 I_sll_cg_cr_rs1_rs2_edges_rs1val_0x7ffffffe_rs2val_0x55555555
0000c026 l       .data	00000000 I_sll_cg_cr_rs1_rs2_edges_rs1val_0x7ffffffe_rs2val_0x55555555_str
000023bc l       .text.rvtest	00000000 I_sll_cg_cr_rs1_rs2_edges_rs1val_0xffffffff_rs2val_0x0
0000c081 l       .data	00000000 I_sll_cg_cr_rs1_rs2_edges_rs1val_0xffffffff_rs2val_0x0_str
000023e8 l       .text.rvtest	00000000 I_sll_cg_cr_rs1_rs2_edges_rs1val_0xffffffff_rs2val_0x1
0000c0d5 l       .data	00000000 I_sll_cg_cr_rs1_rs2_edges_rs1val_0xffffffff_rs2val_0x1_str
00002414 l       .text.rvtest	00000000 I_sll_cg_cr_rs1_rs2_edges_rs1val_0xffffffff_rs2val_0x2
0000c129 l       .data	00000000 I_sll_cg_cr_rs1_rs2_edges_rs1val_0xffffffff_rs2val_0x2_str
00002440 l       .text.rvtest	00000000 I_sll_cg_cr_rs1_rs2_edges_rs1val_0xffffffff_rs2val_0x80000000
0000c17d l       .data	00000000 I_sll_cg_cr_rs1_rs2_edges_rs1val_0xffffffff_rs2val_0x80000000_str
0000246c l       .text.rvtest	00000000 I_sll_cg_cr_rs1_rs2_edges_rs1val_0xffffffff_rs2val_0x80000001
0000c1d8 l       .data	00000000 I_sll_cg_cr_rs1_rs2_edges_rs1val_0xffffffff_rs2val_0x80000001_str
00002498 l       .text.rvtest	00000000 I_sll_cg_cr_rs1_rs2_edges_rs1val_0xffffffff_rs2val_0x7fffffff
0000c233 l       .data	00000000 I_sll_cg_cr_rs1_rs2_edges_rs1val_0xffffffff_rs2val_0x7fffffff_str
000024c4 l       .text.rvtest	00000000 I_sll_cg_cr_rs1_rs2_edges_rs1val_0xffffffff_rs2val_0x7ffffffe
0000c28e l       .data	00000000 I_sll_cg_cr_rs1_rs2_edges_rs1val_0xffffffff_rs2val_0x7ffffffe_str
000024f0 l       .text.rvtest	00000000 I_sll_cg_cr_rs1_rs2_edges_rs1val_0xffffffff_rs2val_0xffffffff
0000c2e9 l       .data	00000000 I_sll_cg_cr_rs1_rs2_edges_rs1val_0xffffffff_rs2val_0xffffffff_str
0000251c l       .text.rvtest	00000000 I_sll_cg_cr_rs1_rs2_edges_rs1val_0xffffffff_rs2val_0xfffffffe
0000c344 l       .data	00000000 I_sll_cg_cr_rs1_rs2_edges_rs1val_0xffffffff_rs2val_0xfffffffe_str
00002548 l       .text.rvtest	00000000 I_sll_cg_cr_rs1_rs2_edges_rs1val_0xffffffff_rs2val_0x5bbc8872
0000c39f l       .data	00000000 I_sll_cg_cr_rs1_rs2_edges_rs1val_0xffffffff_rs2val_0x5bbc8872_str
00002574 l       .text.rvtest	00000000 I_sll_cg_cr_rs1_rs2_edges_rs1val_0xffffffff_rs2val_0xaaaaaaaa
0000c3fa l       .data	00000000 I_sll_cg_cr_rs1_rs2_edges_rs1val_0xffffffff_rs2val_0xaaaaaaaa_str
000025a0 l       .text.rvtest	00000000 I_sll_cg_cr_rs1_rs2_edges_rs1val_0xffffffff_rs2val_0x55555555
0000c455 l       .data	00000000 I_sll_cg_cr_rs1_rs2_edges_rs1val_0xffffffff_rs2val_0x55555555_str
000025cc l       .text.rvtest	00000000 I_sll_cg_cr_rs1_rs2_edges_rs1val_0xfffffffe_rs2val_0x0
0000c4b0 l       .data	00000000 I_sll_cg_cr_rs1_rs2_edges_rs1val_0xfffffffe_rs2val_0x0_str
000025f8 l       .text.rvtest	00000000 I_sll_cg_cr_rs1_rs2_edges_rs1val_0xfffffffe_rs2val_0x1
0000c504 l       .data	00000000 I_sll_cg_cr_rs1_rs2_edges_rs1val_0xfffffffe_rs2val_0x1_str
00002624 l       .text.rvtest	00000000 I_sll_cg_cr_rs1_rs2_edges_rs1val_0xfffffffe_rs2val_0x2
0000c558 l       .data	00000000 I_sll_cg_cr_rs1_rs2_edges_rs1val_0xfffffffe_rs2val_0x2_str
00002650 l       .text.rvtest	00000000 I_sll_cg_cr_rs1_rs2_edges_rs1val_0xfffffffe_rs2val_0x80000000
0000c5ac l       .data	00000000 I_sll_cg_cr_rs1_rs2_edges_rs1val_0xfffffffe_rs2val_0x80000000_str
0000267c l       .text.rvtest	00000000 I_sll_cg_cr_rs1_rs2_edges_rs1val_0xfffffffe_rs2val_0x80000001
0000c607 l       .data	00000000 I_sll_cg_cr_rs1_rs2_edges_rs1val_0xfffffffe_rs2val_0x80000001_str
000026a8 l       .text.rvtest	00000000 I_sll_cg_cr_rs1_rs2_edges_rs1val_0xfffffffe_rs2val_0x7fffffff
0000c662 l       .data	00000000 I_sll_cg_cr_rs1_rs2_edges_rs1val_0xfffffffe_rs2val_0x7fffffff_str
000026d4 l       .text.rvtest	00000000 I_sll_cg_cr_rs1_rs2_edges_rs1val_0xfffffffe_rs2val_0x7ffffffe
0000c6bd l       .data	00000000 I_sll_cg_cr_rs1_rs2_edges_rs1val_0xfffffffe_rs2val_0x7ffffffe_str
00002700 l       .text.rvtest	00000000 I_sll_cg_cr_rs1_rs2_edges_rs1val_0xfffffffe_rs2val_0xffffffff
0000c718 l       .data	00000000 I_sll_cg_cr_rs1_rs2_edges_rs1val_0xfffffffe_rs2val_0xffffffff_str
0000272c l       .text.rvtest	00000000 I_sll_cg_cr_rs1_rs2_edges_rs1val_0xfffffffe_rs2val_0xfffffffe
0000c773 l       .data	00000000 I_sll_cg_cr_rs1_rs2_edges_rs1val_0xfffffffe_rs2val_0xfffffffe_str
00002758 l       .text.rvtest	00000000 I_sll_cg_cr_rs1_rs2_edges_rs1val_0xfffffffe_rs2val_0x5bbc8872
0000c7ce l       .data	00000000 I_sll_cg_cr_rs1_rs2_edges_rs1val_0xfffffffe_rs2val_0x5bbc8872_str
00002784 l       .text.rvtest	00000000 I_sll_cg_cr_rs1_rs2_edges_rs1val_0xfffffffe_rs2val_0xaaaaaaaa
0000c829 l       .data	00000000 I_sll_cg_cr_rs1_rs2_edges_rs1val_0xfffffffe_rs2val_0xaaaaaaaa_str
000027b0 l       .text.rvtest	00000000 I_sll_cg_cr_rs1_rs2_edges_rs1val_0xfffffffe_rs2val_0x55555555
0000c884 l       .data	00000000 I_sll_cg_cr_rs1_rs2_edges_rs1val_0xfffffffe_rs2val_0x55555555_str
000027dc l       .text.rvtest	00000000 I_sll_cg_cr_rs1_rs2_edges_rs1val_0x5bbc8872_rs2val_0x0
0000c8df l       .data	00000000 I_sll_cg_cr_rs1_rs2_edges_rs1val_0x5bbc8872_rs2val_0x0_str
00002808 l       .text.rvtest	00000000 I_sll_cg_cr_rs1_rs2_edges_rs1val_0x5bbc8872_rs2val_0x1
0000c933 l       .data	00000000 I_sll_cg_cr_rs1_rs2_edges_rs1val_0x5bbc8872_rs2val_0x1_str
00002834 l       .text.rvtest	00000000 I_sll_cg_cr_rs1_rs2_edges_rs1val_0x5bbc8872_rs2val_0x2
0000c987 l       .data	00000000 I_sll_cg_cr_rs1_rs2_edges_rs1val_0x5bbc8872_rs2val_0x2_str
00002860 l       .text.rvtest	00000000 I_sll_cg_cr_rs1_rs2_edges_rs1val_0x5bbc8872_rs2val_0x80000000
0000c9db l       .data	00000000 I_sll_cg_cr_rs1_rs2_edges_rs1val_0x5bbc8872_rs2val_0x80000000_str
0000288c l       .text.rvtest	00000000 I_sll_cg_cr_rs1_rs2_edges_rs1val_0x5bbc8872_rs2val_0x80000001
0000ca36 l       .data	00000000 I_sll_cg_cr_rs1_rs2_edges_rs1val_0x5bbc8872_rs2val_0x80000001_str
000028b8 l       .text.rvtest	00000000 I_sll_cg_cr_rs1_rs2_edges_rs1val_0x5bbc8872_rs2val_0x7fffffff
0000ca91 l       .data	00000000 I_sll_cg_cr_rs1_rs2_edges_rs1val_0x5bbc8872_rs2val_0x7fffffff_str
000028e4 l       .text.rvtest	00000000 I_sll_cg_cr_rs1_rs2_edges_rs1val_0x5bbc8872_rs2val_0x7ffffffe
0000caec l       .data	00000000 I_sll_cg_cr_rs1_rs2_edges_rs1val_0x5bbc8872_rs2val_0x7ffffffe_str
00002910 l       .text.rvtest	00000000 I_sll_cg_cr_rs1_rs2_edges_rs1val_0x5bbc8872_rs2val_0xffffffff
0000cb47 l       .data	00000000 I_sll_cg_cr_rs1_rs2_edges_rs1val_0x5bbc8872_rs2val_0xffffffff_str
0000293c l       .text.rvtest	00000000 I_sll_cg_cr_rs1_rs2_edges_rs1val_0x5bbc8872_rs2val_0xfffffffe
0000cba2 l       .data	00000000 I_sll_cg_cr_rs1_rs2_edges_rs1val_0x5bbc8872_rs2val_0xfffffffe_str
00002968 l       .text.rvtest	00000000 I_sll_cg_cr_rs1_rs2_edges_rs1val_0x5bbc8872_rs2val_0x5bbc8872
0000cbfd l       .data	00000000 I_sll_cg_cr_rs1_rs2_edges_rs1val_0x5bbc8872_rs2val_0x5bbc8872_str
00002994 l       .text.rvtest	00000000 I_sll_cg_cr_rs1_rs2_edges_rs1val_0x5bbc8872_rs2val_0xaaaaaaaa
0000cc58 l       .data	00000000 I_sll_cg_cr_rs1_rs2_edges_rs1val_0x5bbc8872_rs2val_0xaaaaaaaa_str
000029c0 l       .text.rvtest	00000000 I_sll_cg_cr_rs1_rs2_edges_rs1val_0x5bbc8872_rs2val_0x55555555
0000ccb3 l       .data	00000000 I_sll_cg_cr_rs1_rs2_edges_rs1val_0x5bbc8872_rs2val_0x55555555_str
000029ec l       .text.rvtest	00000000 I_sll_cg_cr_rs1_rs2_edges_rs1val_0xaaaaaaaa_rs2val_0x0
0000cd0e l       .data	00000000 I_sll_cg_cr_rs1_rs2_edges_rs1val_0xaaaaaaaa_rs2val_0x0_str
00002a18 l       .text.rvtest	00000000 I_sll_cg_cr_rs1_rs2_edges_rs1val_0xaaaaaaaa_rs2val_0x1
0000cd62 l       .data	00000000 I_sll_cg_cr_rs1_rs2_edges_rs1val_0xaaaaaaaa_rs2val_0x1_str
00002a44 l       .text.rvtest	00000000 I_sll_cg_cr_rs1_rs2_edges_rs1val_0xaaaaaaaa_rs2val_0x2
0000cdb6 l       .data	00000000 I_sll_cg_cr_rs1_rs2_edges_rs1val_0xaaaaaaaa_rs2val_0x2_str
00002a70 l       .text.rvtest	00000000 I_sll_cg_cr_rs1_rs2_edges_rs1val_0xaaaaaaaa_rs2val_0x80000000
0000ce0a l       .data	00000000 I_sll_cg_cr_rs1_rs2_edges_rs1val_0xaaaaaaaa_rs2val_0x80000000_str
00002a9c l       .text.rvtest	00000000 I_sll_cg_cr_rs1_rs2_edges_rs1val_0xaaaaaaaa_rs2val_0x80000001
0000ce65 l       .data	00000000 I_sll_cg_cr_rs1_rs2_edges_rs1val_0xaaaaaaaa_rs2val_0x80000001_str
00002ac8 l       .text.rvtest	00000000 I_sll_cg_cr_rs1_rs2_edges_rs1val_0xaaaaaaaa_rs2val_0x7fffffff
0000cec0 l       .data	00000000 I_sll_cg_cr_rs1_rs2_edges_rs1val_0xaaaaaaaa_rs2val_0x7fffffff_str
00002af4 l       .text.rvtest	00000000 I_sll_cg_cr_rs1_rs2_edges_rs1val_0xaaaaaaaa_rs2val_0x7ffffffe
0000cf1b l       .data	00000000 I_sll_cg_cr_rs1_rs2_edges_rs1val_0xaaaaaaaa_rs2val_0x7ffffffe_str
00002b20 l       .text.rvtest	00000000 I_sll_cg_cr_rs1_rs2_edges_rs1val_0xaaaaaaaa_rs2val_0xffffffff
0000cf76 l       .data	00000000 I_sll_cg_cr_rs1_rs2_edges_rs1val_0xaaaaaaaa_rs2val_0xffffffff_str
00002b4c l       .text.rvtest	00000000 I_sll_cg_cr_rs1_rs2_edges_rs1val_0xaaaaaaaa_rs2val_0xfffffffe
0000cfd1 l       .data	00000000 I_sll_cg_cr_rs1_rs2_edges_rs1val_0xaaaaaaaa_rs2val_0xfffffffe_str
00002b78 l       .text.rvtest	00000000 I_sll_cg_cr_rs1_rs2_edges_rs1val_0xaaaaaaaa_rs2val_0x5bbc8872
0000d02c l       .data	00000000 I_sll_cg_cr_rs1_rs2_edges_rs1val_0xaaaaaaaa_rs2val_0x5bbc8872_str
00002ba4 l       .text.rvtest	00000000 I_sll_cg_cr_rs1_rs2_edges_rs1val_0xaaaaaaaa_rs2val_0xaaaaaaaa
0000d087 l       .data	00000000 I_sll_cg_cr_rs1_rs2_edges_rs1val_0xaaaaaaaa_rs2val_0xaaaaaaaa_str
00002bd0 l       .text.rvtest	00000000 I_sll_cg_cr_rs1_rs2_edges_rs1val_0xaaaaaaaa_rs2val_0x55555555
0000d0e2 l       .data	00000000 I_sll_cg_cr_rs1_rs2_edges_rs1val_0xaaaaaaaa_rs2val_0x55555555_str
00002bfc l       .text.rvtest	00000000 I_sll_cg_cr_rs1_rs2_edges_rs1val_0x55555555_rs2val_0x0
0000d13d l       .data	00000000 I_sll_cg_cr_rs1_rs2_edges_rs1val_0x55555555_rs2val_0x0_str
00002c28 l       .text.rvtest	00000000 I_sll_cg_cr_rs1_rs2_edges_rs1val_0x55555555_rs2val_0x1
0000d191 l       .data	00000000 I_sll_cg_cr_rs1_rs2_edges_rs1val_0x55555555_rs2val_0x1_str
00002c54 l       .text.rvtest	00000000 I_sll_cg_cr_rs1_rs2_edges_rs1val_0x55555555_rs2val_0x2
0000d1e5 l       .data	00000000 I_sll_cg_cr_rs1_rs2_edges_rs1val_0x55555555_rs2val_0x2_str
00002c80 l       .text.rvtest	00000000 I_sll_cg_cr_rs1_rs2_edges_rs1val_0x55555555_rs2val_0x80000000
0000d239 l       .data	00000000 I_sll_cg_cr_rs1_rs2_edges_rs1val_0x55555555_rs2val_0x80000000_str
00002cac l       .text.rvtest	00000000 I_sll_cg_cr_rs1_rs2_edges_rs1val_0x55555555_rs2val_0x80000001
0000d294 l       .data	00000000 I_sll_cg_cr_rs1_rs2_edges_rs1val_0x55555555_rs2val_0x80000001_str
00002cd8 l       .text.rvtest	00000000 I_sll_cg_cr_rs1_rs2_edges_rs1val_0x55555555_rs2val_0x7fffffff
0000d2ef l       .data	00000000 I_sll_cg_cr_rs1_rs2_edges_rs1val_0x55555555_rs2val_0x7fffffff_str
00002d04 l       .text.rvtest	00000000 I_sll_cg_cr_rs1_rs2_edges_rs1val_0x55555555_rs2val_0x7ffffffe
0000d34a l       .data	00000000 I_sll_cg_cr_rs1_rs2_edges_rs1val_0x55555555_rs2val_0x7ffffffe_str
00002d30 l       .text.rvtest	00000000 I_sll_cg_cr_rs1_rs2_edges_rs1val_0x55555555_rs2val_0xffffffff
0000d3a5 l       .data	00000000 I_sll_cg_cr_rs1_rs2_edges_rs1val_0x55555555_rs2val_0xffffffff_str
00002d5c l       .text.rvtest	00000000 I_sll_cg_cr_rs1_rs2_edges_rs1val_0x55555555_rs2val_0xfffffffe
0000d400 l       .data	00000000 I_sll_cg_cr_rs1_rs2_edges_rs1val_0x55555555_rs2val_0xfffffffe_str
00002d88 l       .text.rvtest	00000000 I_sll_cg_cr_rs1_rs2_edges_rs1val_0x55555555_rs2val_0x5bbc8872
0000d45b l       .data	00000000 I_sll_cg_cr_rs1_rs2_edges_rs1val_0x55555555_rs2val_0x5bbc8872_str
00002db4 l       .text.rvtest	00000000 I_sll_cg_cr_rs1_rs2_edges_rs1val_0x55555555_rs2val_0xaaaaaaaa
0000d4b6 l       .data	00000000 I_sll_cg_cr_rs1_rs2_edges_rs1val_0x55555555_rs2val_0xaaaaaaaa_str
00002de0 l       .text.rvtest	00000000 I_sll_cg_cr_rs1_rs2_edges_rs1val_0x55555555_rs2val_0x55555555
0000d511 l       .data	00000000 I_sll_cg_cr_rs1_rs2_edges_rs1val_0x55555555_rs2val_0x55555555_str
00002e0c l       .text.rvtest	00000000 I_sll_cg_cmp_rs1_rs2_b0
0000d56c l       .data	00000000 I_sll_cg_cmp_rs1_rs2_b0_str
00002e38 l       .text.rvtest	00000000 I_sll_cg_cmp_rs1_rs2_b1
0000d5a0 l       .data	00000000 I_sll_cg_cmp_rs1_rs2_b1_str
00002e64 l       .text.rvtest	00000000 I_sll_cg_cmp_rs1_rs2_b2
0000d5d4 l       .data	00000000 I_sll_cg_cmp_rs1_rs2_b2_str
00002e90 l       .text.rvtest	00000000 I_sll_cg_cmp_rs1_rs2_b3
0000d608 l       .data	00000000 I_sll_cg_cmp_rs1_rs2_b3_str
00002ebc l       .text.rvtest	00000000 I_sll_cg_cmp_rs1_rs2_b4
0000d63c l       .data	00000000 I_sll_cg_cmp_rs1_rs2_b4_str
00002ee8 l       .text.rvtest	00000000 I_sll_cg_cmp_rs1_rs2_b5
0000d670 l       .data	00000000 I_sll_cg_cmp_rs1_rs2_b5_str
00002f14 l       .text.rvtest	00000000 I_sll_cg_cmp_rs1_rs2_b6
0000d6a4 l       .data	00000000 I_sll_cg_cmp_rs1_rs2_b6_str
00002f48 l       .text.rvtest	00000000 I_sll_cg_cmp_rs1_rs2_b7
0000d6d8 l       .data	00000000 I_sll_cg_cmp_rs1_rs2_b7_str
00002f74 l       .text.rvtest	00000000 I_sll_cg_cmp_rs1_rs2_b8
0000d70c l       .data	00000000 I_sll_cg_cmp_rs1_rs2_b8_str
00002fa0 l       .text.rvtest	00000000 I_sll_cg_cmp_rs1_rs2_b9
0000d740 l       .data	00000000 I_sll_cg_cmp_rs1_rs2_b9_str
00002fcc l       .text.rvtest	00000000 I_sll_cg_cmp_rs1_rs2_b10
0000d774 l       .data	00000000 I_sll_cg_cmp_rs1_rs2_b10_str
00002ff8 l       .text.rvtest	00000000 I_sll_cg_cmp_rs1_rs2_b11
0000d7a9 l       .data	00000000 I_sll_cg_cmp_rs1_rs2_b11_str
00003024 l       .text.rvtest	00000000 I_sll_cg_cmp_rs1_rs2_b12
0000d7de l       .data	00000000 I_sll_cg_cmp_rs1_rs2_b12_str
00003050 l       .text.rvtest	00000000 I_sll_cg_cmp_rs1_rs2_b13
0000d813 l       .data	00000000 I_sll_cg_cmp_rs1_rs2_b13_str
0000307c l       .text.rvtest	00000000 I_sll_cg_cmp_rs1_rs2_b14
0000d848 l       .data	00000000 I_sll_cg_cmp_rs1_rs2_b14_str
000030a8 l       .text.rvtest	00000000 I_sll_cg_cmp_rs1_rs2_b15
0000d87d l       .data	00000000 I_sll_cg_cmp_rs1_rs2_b15_str
000030d4 l       .text.rvtest	00000000 I_sll_cg_cmp_rs1_rs2_b16
0000d8b2 l       .data	00000000 I_sll_cg_cmp_rs1_rs2_b16_str
00003100 l       .text.rvtest	00000000 I_sll_cg_cmp_rs1_rs2_b17
0000d8e7 l       .data	00000000 I_sll_cg_cmp_rs1_rs2_b17_str
0000312c l       .text.rvtest	00000000 I_sll_cg_cmp_rs1_rs2_b18
0000d91c l       .data	00000000 I_sll_cg_cmp_rs1_rs2_b18_str
00003158 l       .text.rvtest	00000000 I_sll_cg_cmp_rs1_rs2_b19
0000d951 l       .data	00000000 I_sll_cg_cmp_rs1_rs2_b19_str
00003188 l       .text.rvtest	00000000 I_sll_cg_cmp_rs1_rs2_b20
0000d986 l       .data	00000000 I_sll_cg_cmp_rs1_rs2_b20_str
000031b8 l       .text.rvtest	00000000 I_sll_cg_cmp_rs1_rs2_b21
0000d9bb l       .data	00000000 I_sll_cg_cmp_rs1_rs2_b21_str
000031e4 l       .text.rvtest	00000000 I_sll_cg_cmp_rs1_rs2_b22
0000d9f0 l       .data	00000000 I_sll_cg_cmp_rs1_rs2_b22_str
00003214 l       .text.rvtest	00000000 I_sll_cg_cmp_rs1_rs2_b23
0000da25 l       .data	00000000 I_sll_cg_cmp_rs1_rs2_b23_str
00003240 l       .text.rvtest	00000000 I_sll_cg_cmp_rs1_rs2_b24
0000da5a l       .data	00000000 I_sll_cg_cmp_rs1_rs2_b24_str
0000326c l       .text.rvtest	00000000 I_sll_cg_cmp_rs1_rs2_b25
0000da8f l       .data	00000000 I_sll_cg_cmp_rs1_rs2_b25_str
00003298 l       .text.rvtest	00000000 I_sll_cg_cmp_rs1_rs2_b26
0000dac4 l       .data	00000000 I_sll_cg_cmp_rs1_rs2_b26_str
000032c4 l       .text.rvtest	00000000 I_sll_cg_cmp_rs1_rs2_b27
0000daf9 l       .data	00000000 I_sll_cg_cmp_rs1_rs2_b27_str
000032f4 l       .text.rvtest	00000000 I_sll_cg_cmp_rs1_rs2_b28
0000db2e l       .data	00000000 I_sll_cg_cmp_rs1_rs2_b28_str
00003320 l       .text.rvtest	00000000 I_sll_cg_cmp_rs1_rs2_b29
0000db63 l       .data	00000000 I_sll_cg_cmp_rs1_rs2_b29_str
0000334c l       .text.rvtest	00000000 I_sll_cg_cmp_rs1_rs2_b30
0000db98 l       .data	00000000 I_sll_cg_cmp_rs1_rs2_b30_str
00003378 l       .text.rvtest	00000000 I_sll_cg_cmp_rs1_rs2_b31
0000dbcd l       .data	00000000 I_sll_cg_cmp_rs1_rs2_b31_str
000033a4 l       .text.rvtest	00000000 I_sll_cg_cmp_rd_rs1_b0
0000dc02 l       .data	00000000 I_sll_cg_cmp_rd_rs1_b0_str
000033d0 l       .text.rvtest	00000000 I_sll_cg_cmp_rd_rs1_b1
0000dc35 l       .data	00000000 I_sll_cg_cmp_rd_rs1_b1_str
000033fc l       .text.rvtest	00000000 I_sll_cg_cmp_rd_rs1_b2
0000dc68 l       .data	00000000 I_sll_cg_cmp_rd_rs1_b2_str
00003428 l       .text.rvtest	00000000 I_sll_cg_cmp_rd_rs1_b3
0000dc9b l       .data	00000000 I_sll_cg_cmp_rd_rs1_b3_str
0000345c l       .text.rvtest	00000000 I_sll_cg_cmp_rd_rs1_b4
0000dcce l       .data	00000000 I_sll_cg_cmp_rd_rs1_b4_str
00003488 l       .text.rvtest	00000000 I_sll_cg_cmp_rd_rs1_b5
0000dd01 l       .data	00000000 I_sll_cg_cmp_rd_rs1_b5_str
000034b4 l       .text.rvtest	00000000 I_sll_cg_cmp_rd_rs1_b6
0000dd34 l       .data	00000000 I_sll_cg_cmp_rd_rs1_b6_str
000034e8 l       .text.rvtest	00000000 I_sll_cg_cmp_rd_rs1_b7
0000dd67 l       .data	00000000 I_sll_cg_cmp_rd_rs1_b7_str
00003514 l       .text.rvtest	00000000 I_sll_cg_cmp_rd_rs1_b8
0000dd9a l       .data	00000000 I_sll_cg_cmp_rd_rs1_b8_str
00003540 l       .text.rvtest	00000000 I_sll_cg_cmp_rd_rs1_b9
0000ddcd l       .data	00000000 I_sll_cg_cmp_rd_rs1_b9_str
0000356c l       .text.rvtest	00000000 I_sll_cg_cmp_rd_rs1_b10
0000de00 l       .data	00000000 I_sll_cg_cmp_rd_rs1_b10_str
0000359c l       .text.rvtest	00000000 I_sll_cg_cmp_rd_rs1_b11
0000de34 l       .data	00000000 I_sll_cg_cmp_rd_rs1_b11_str
000035c8 l       .text.rvtest	00000000 I_sll_cg_cmp_rd_rs1_b12
0000de68 l       .data	00000000 I_sll_cg_cmp_rd_rs1_b12_str
000035f4 l       .text.rvtest	00000000 I_sll_cg_cmp_rd_rs1_b13
0000de9c l       .data	00000000 I_sll_cg_cmp_rd_rs1_b13_str
00003620 l       .text.rvtest	00000000 I_sll_cg_cmp_rd_rs1_b14
0000ded0 l       .data	00000000 I_sll_cg_cmp_rd_rs1_b14_str
0000364c l       .text.rvtest	00000000 I_sll_cg_cmp_rd_rs1_b15
0000df04 l       .data	00000000 I_sll_cg_cmp_rd_rs1_b15_str
00003678 l       .text.rvtest	00000000 I_sll_cg_cmp_rd_rs1_b16
0000df38 l       .data	00000000 I_sll_cg_cmp_rd_rs1_b16_str
000036a8 l       .text.rvtest	00000000 I_sll_cg_cmp_rd_rs1_b17
0000df6c l       .data	00000000 I_sll_cg_cmp_rd_rs1_b17_str
000036d4 l       .text.rvtest	00000000 I_sll_cg_cmp_rd_rs1_b18
0000dfa0 l       .data	00000000 I_sll_cg_cmp_rd_rs1_b18_str
00003700 l       .text.rvtest	00000000 I_sll_cg_cmp_rd_rs1_b19
0000dfd4 l       .data	00000000 I_sll_cg_cmp_rd_rs1_b19_str
0000372c l       .text.rvtest	00000000 I_sll_cg_cmp_rd_rs1_b20
0000e008 l       .data	00000000 I_sll_cg_cmp_rd_rs1_b20_str
00003758 l       .text.rvtest	00000000 I_sll_cg_cmp_rd_rs1_b21
0000e03c l       .data	00000000 I_sll_cg_cmp_rd_rs1_b21_str
00003784 l       .text.rvtest	00000000 I_sll_cg_cmp_rd_rs1_b22
0000e070 l       .data	00000000 I_sll_cg_cmp_rd_rs1_b22_str
000037b0 l       .text.rvtest	00000000 I_sll_cg_cmp_rd_rs1_b23
0000e0a4 l       .data	00000000 I_sll_cg_cmp_rd_rs1_b23_str
000037dc l       .text.rvtest	00000000 I_sll_cg_cmp_rd_rs1_b24
0000e0d8 l       .data	00000000 I_sll_cg_cmp_rd_rs1_b24_str
00003808 l       .text.rvtest	00000000 I_sll_cg_cmp_rd_rs1_b25
0000e10c l       .data	00000000 I_sll_cg_cmp_rd_rs1_b25_str
00003834 l       .text.rvtest	00000000 I_sll_cg_cmp_rd_rs1_b26
0000e140 l       .data	00000000 I_sll_cg_cmp_rd_rs1_b26_str
00003860 l       .text.rvtest	00000000 I_sll_cg_cmp_rd_rs1_b27
0000e174 l       .data	00000000 I_sll_cg_cmp_rd_rs1_b27_str
0000388c l       .text.rvtest	00000000 I_sll_cg_cmp_rd_rs1_b28
0000e1a8 l       .data	00000000 I_sll_cg_cmp_rd_rs1_b28_str
000038b8 l       .text.rvtest	00000000 I_sll_cg_cmp_rd_rs1_b29
0000e1dc l       .data	00000000 I_sll_cg_cmp_rd_rs1_b29_str
000038e8 l       .text.rvtest	00000000 I_sll_cg_cmp_rd_rs1_b30
0000e210 l       .data	00000000 I_sll_cg_cmp_rd_rs1_b30_str
00003914 l       .text.rvtest	00000000 I_sll_cg_cmp_rd_rs1_b31
0000e244 l       .data	00000000 I_sll_cg_cmp_rd_rs1_b31_str
00003940 l       .text.rvtest	00000000 I_sll_cg_cmp_rd_rs2_b0
0000e278 l       .data	00000000 I_sll_cg_cmp_rd_rs2_b0_str
0000396c l       .text.rvtest	00000000 I_sll_cg_cmp_rd_rs2_b1
0000e2ab l       .data	00000000 I_sll_cg_cmp_rd_rs2_b1_str
00003998 l       .text.rvtest	00000000 I_sll_cg_cmp_rd_rs2_b2
0000e2de l       .data	00000000 I_sll_cg_cmp_rd_rs2_b2_str
000039c4 l       .text.rvtest	00000000 I_sll_cg_cmp_rd_rs2_b3
0000e311 l       .data	00000000 I_sll_cg_cmp_rd_rs2_b3_str
000039f8 l       .text.rvtest	00000000 I_sll_cg_cmp_rd_rs2_b4
0000e344 l       .data	00000000 I_sll_cg_cmp_rd_rs2_b4_str
00003a24 l       .text.rvtest	00000000 I_sll_cg_cmp_rd_rs2_b5
0000e377 l       .data	00000000 I_sll_cg_cmp_rd_rs2_b5_str
00003a54 l       .text.rvtest	00000000 I_sll_cg_cmp_rd_rs2_b6
0000e3aa l       .data	00000000 I_sll_cg_cmp_rd_rs2_b6_str
00003a80 l       .text.rvtest	00000000 I_sll_cg_cmp_rd_rs2_b7
0000e3dd l       .data	00000000 I_sll_cg_cmp_rd_rs2_b7_str
00003aac l       .text.rvtest	00000000 I_sll_cg_cmp_rd_rs2_b8
0000e410 l       .data	00000000 I_sll_cg_cmp_rd_rs2_b8_str
00003ad8 l       .text.rvtest	00000000 I_sll_cg_cmp_rd_rs2_b9
0000e443 l       .data	00000000 I_sll_cg_cmp_rd_rs2_b9_str
00003b04 l       .text.rvtest	00000000 I_sll_cg_cmp_rd_rs2_b10
0000e476 l       .data	00000000 I_sll_cg_cmp_rd_rs2_b10_str
00003b30 l       .text.rvtest	00000000 I_sll_cg_cmp_rd_rs2_b11
0000e4aa l       .data	00000000 I_sll_cg_cmp_rd_rs2_b11_str
00003b5c l       .text.rvtest	00000000 I_sll_cg_cmp_rd_rs2_b12
0000e4de l       .data	00000000 I_sll_cg_cmp_rd_rs2_b12_str
00003b90 l       .text.rvtest	00000000 I_sll_cg_cmp_rd_rs2_b13
0000e512 l       .data	00000000 I_sll_cg_cmp_rd_rs2_b13_str
00003bbc l       .text.rvtest	00000000 I_sll_cg_cmp_rd_rs2_b14
0000e546 l       .data	00000000 I_sll_cg_cmp_rd_rs2_b14_str
00003be8 l       .text.rvtest	00000000 I_sll_cg_cmp_rd_rs2_b15
0000e57a l       .data	00000000 I_sll_cg_cmp_rd_rs2_b15_str
00003c14 l       .text.rvtest	00000000 I_sll_cg_cmp_rd_rs2_b16
0000e5ae l       .data	00000000 I_sll_cg_cmp_rd_rs2_b16_str
00003c40 l       .text.rvtest	00000000 I_sll_cg_cmp_rd_rs2_b17
0000e5e2 l       .data	00000000 I_sll_cg_cmp_rd_rs2_b17_str
00003c6c l       .text.rvtest	00000000 I_sll_cg_cmp_rd_rs2_b18
0000e616 l       .data	00000000 I_sll_cg_cmp_rd_rs2_b18_str
00003c98 l       .text.rvtest	00000000 I_sll_cg_cmp_rd_rs2_b19
0000e64a l       .data	00000000 I_sll_cg_cmp_rd_rs2_b19_str
00003cc8 l       .text.rvtest	00000000 I_sll_cg_cmp_rd_rs2_b20
0000e67e l       .data	00000000 I_sll_cg_cmp_rd_rs2_b20_str
00003cf4 l       .text.rvtest	00000000 I_sll_cg_cmp_rd_rs2_b21
0000e6b2 l       .data	00000000 I_sll_cg_cmp_rd_rs2_b21_str
00003d20 l       .text.rvtest	00000000 I_sll_cg_cmp_rd_rs2_b22
0000e6e6 l       .data	00000000 I_sll_cg_cmp_rd_rs2_b22_str
00003d4c l       .text.rvtest	00000000 I_sll_cg_cmp_rd_rs2_b23
0000e71a l       .data	00000000 I_sll_cg_cmp_rd_rs2_b23_str
00003d78 l       .text.rvtest	00000000 I_sll_cg_cmp_rd_rs2_b24
0000e74e l       .data	00000000 I_sll_cg_cmp_rd_rs2_b24_str
00003da4 l       .text.rvtest	00000000 I_sll_cg_cmp_rd_rs2_b25
0000e782 l       .data	00000000 I_sll_cg_cmp_rd_rs2_b25_str
00003dd0 l       .text.rvtest	00000000 I_sll_cg_cmp_rd_rs2_b26
0000e7b6 l       .data	00000000 I_sll_cg_cmp_rd_rs2_b26_str
00003dfc l       .text.rvtest	00000000 I_sll_cg_cmp_rd_rs2_b27
0000e7ea l       .data	00000000 I_sll_cg_cmp_rd_rs2_b27_str
00003e28 l       .text.rvtest	00000000 I_sll_cg_cmp_rd_rs2_b28
0000e81e l       .data	00000000 I_sll_cg_cmp_rd_rs2_b28_str
00003e58 l       .text.rvtest	00000000 I_sll_cg_cmp_rd_rs2_b29
0000e852 l       .data	00000000 I_sll_cg_cmp_rd_rs2_b29_str
00003e84 l       .text.rvtest	00000000 I_sll_cg_cmp_rd_rs2_b30
0000e886 l       .data	00000000 I_sll_cg_cmp_rd_rs2_b30_str
00003eb0 l       .text.rvtest	00000000 I_sll_cg_cmp_rd_rs2_b31
0000e8ba l       .data	00000000 I_sll_cg_cmp_rd_rs2_b31_str
00003edc l       .text.rvtest	00000000 I_sll_cg_cmp_rd_rs1_rs2_b0
0000e8ee l       .data	00000000 I_sll_cg_cmp_rd_rs1_rs2_b0_str
00003f08 l       .text.rvtest	00000000 I_sll_cg_cmp_rd_rs1_rs2_b1
0000e925 l       .data	00000000 I_sll_cg_cmp_rd_rs1_rs2_b1_str
00003f38 l       .text.rvtest	00000000 I_sll_cg_cmp_rd_rs1_rs2_b2
0000e95c l       .data	00000000 I_sll_cg_cmp_rd_rs1_rs2_b2_str
00003f64 l       .text.rvtest	00000000 I_sll_cg_cmp_rd_rs1_rs2_b3
0000e993 l       .data	00000000 I_sll_cg_cmp_rd_rs1_rs2_b3_str
00003f90 l       .text.rvtest	00000000 I_sll_cg_cmp_rd_rs1_rs2_b4
0000e9ca l       .data	00000000 I_sll_cg_cmp_rd_rs1_rs2_b4_str
00003fbc l       .text.rvtest	00000000 I_sll_cg_cmp_rd_rs1_rs2_b5
0000ea01 l       .data	00000000 I_sll_cg_cmp_rd_rs1_rs2_b5_str
00003fe8 l       .text.rvtest	00000000 I_sll_cg_cmp_rd_rs1_rs2_b6
0000ea38 l       .data	00000000 I_sll_cg_cmp_rd_rs1_rs2_b6_str
0000401c l       .text.rvtest	00000000 I_sll_cg_cmp_rd_rs1_rs2_b7
0000ea6f l       .data	00000000 I_sll_cg_cmp_rd_rs1_rs2_b7_str
00004048 l       .text.rvtest	00000000 I_sll_cg_cmp_rd_rs1_rs2_b8
0000eaa6 l       .data	00000000 I_sll_cg_cmp_rd_rs1_rs2_b8_str
00004074 l       .text.rvtest	00000000 I_sll_cg_cmp_rd_rs1_rs2_b9
0000eadd l       .data	00000000 I_sll_cg_cmp_rd_rs1_rs2_b9_str
000040a0 l       .text.rvtest	00000000 I_sll_cg_cmp_rd_rs1_rs2_b10
0000eb14 l       .data	00000000 I_sll_cg_cmp_rd_rs1_rs2_b10_str
000040cc l       .text.rvtest	00000000 I_sll_cg_cmp_rd_rs1_rs2_b11
0000eb4c l       .data	00000000 I_sll_cg_cmp_rd_rs1_rs2_b11_str
000040f8 l       .text.rvtest	00000000 I_sll_cg_cmp_rd_rs1_rs2_b12
0000eb84 l       .data	00000000 I_sll_cg_cmp_rd_rs1_rs2_b12_str
0000412c l       .text.rvtest	00000000 I_sll_cg_cmp_rd_rs1_rs2_b13
0000ebbc l       .data	00000000 I_sll_cg_cmp_rd_rs1_rs2_b13_str
00004158 l       .text.rvtest	00000000 I_sll_cg_cmp_rd_rs1_rs2_b14
0000ebf4 l       .data	00000000 I_sll_cg_cmp_rd_rs1_rs2_b14_str
00004184 l       .text.rvtest	00000000 I_sll_cg_cmp_rd_rs1_rs2_b15
0000ec2c l       .data	00000000 I_sll_cg_cmp_rd_rs1_rs2_b15_str
000041b0 l       .text.rvtest	00000000 I_sll_cg_cmp_rd_rs1_rs2_b16
0000ec64 l       .data	00000000 I_sll_cg_cmp_rd_rs1_rs2_b16_str
000041e0 l       .text.rvtest	00000000 I_sll_cg_cmp_rd_rs1_rs2_b17
0000ec9c l       .data	00000000 I_sll_cg_cmp_rd_rs1_rs2_b17_str
0000420c l       .text.rvtest	00000000 I_sll_cg_cmp_rd_rs1_rs2_b18
0000ecd4 l       .data	00000000 I_sll_cg_cmp_rd_rs1_rs2_b18_str
00004238 l       .text.rvtest	00000000 I_sll_cg_cmp_rd_rs1_rs2_b19
0000ed0c l       .data	00000000 I_sll_cg_cmp_rd_rs1_rs2_b19_str
00004264 l       .text.rvtest	00000000 I_sll_cg_cmp_rd_rs1_rs2_b20
0000ed44 l       .data	00000000 I_sll_cg_cmp_rd_rs1_rs2_b20_str
00004290 l       .text.rvtest	00000000 I_sll_cg_cmp_rd_rs1_rs2_b21
0000ed7c l       .data	00000000 I_sll_cg_cmp_rd_rs1_rs2_b21_str
000042bc l       .text.rvtest	00000000 I_sll_cg_cmp_rd_rs1_rs2_b22
0000edb4 l       .data	00000000 I_sll_cg_cmp_rd_rs1_rs2_b22_str
000042e8 l       .text.rvtest	00000000 I_sll_cg_cmp_rd_rs1_rs2_b23
0000edec l       .data	00000000 I_sll_cg_cmp_rd_rs1_rs2_b23_str
00004314 l       .text.rvtest	00000000 I_sll_cg_cmp_rd_rs1_rs2_b24
0000ee24 l       .data	00000000 I_sll_cg_cmp_rd_rs1_rs2_b24_str
00004344 l       .text.rvtest	00000000 I_sll_cg_cmp_rd_rs1_rs2_b25
0000ee5c l       .data	00000000 I_sll_cg_cmp_rd_rs1_rs2_b25_str
00004370 l       .text.rvtest	00000000 I_sll_cg_cmp_rd_rs1_rs2_b26
0000ee94 l       .data	00000000 I_sll_cg_cmp_rd_rs1_rs2_b26_str
0000439c l       .text.rvtest	00000000 I_sll_cg_cmp_rd_rs1_rs2_b27
0000eecc l       .data	00000000 I_sll_cg_cmp_rd_rs1_rs2_b27_str
000043c8 l       .text.rvtest	00000000 I_sll_cg_cmp_rd_rs1_rs2_b28
0000ef04 l       .data	00000000 I_sll_cg_cmp_rd_rs1_rs2_b28_str
000043f4 l       .text.rvtest	00000000 I_sll_cg_cmp_rd_rs1_rs2_b29
0000ef3c l       .data	00000000 I_sll_cg_cmp_rd_rs1_rs2_b29_str
00004420 l       .text.rvtest	00000000 I_sll_cg_cmp_rd_rs1_rs2_b30
0000ef74 l       .data	00000000 I_sll_cg_cmp_rd_rs1_rs2_b30_str
0000444c l       .text.rvtest	00000000 I_sll_cg_cmp_rd_rs1_rs2_b31
0000efac l       .data	00000000 I_sll_cg_cmp_rd_rs1_rs2_b31_str
0000446c l       .text.rvtest	00000000 exit_cleanup
0000f654 l       .data	00000000 successstr
00020204 l       .text.rvmodel	00000000 rvmodel_io_write_str
00020208 l       .text.rvmodel	00000000 rvmodel_halt_pass
000044b0 l       .text.rvtest	00000000 abort_test
6f5ca309 l       *ABS*	00000000 immx
6f5ca309 l       *ABS*	00000000 absimm
00000000 l       *ABS*	00000000 cry
00000309 l       *ABS*	00000000 imm12
0000eff0 l       .data	00000000 begin_failure_scratch
00004580 l       .text.rvtest	00000000 failedtest_saveregs
00004524 l       .text.rvtest	00000000 failedtest_trap_x7_x9
0000f160 l       .data	00000000 saved_mcause
0000f168 l       .data	00000000 saved_mtval
0000f170 l       .data	00000000 saved_mstatus
000045f0 l       .text.rvtest	00000000 failedtest_saveresults
0000eff0 l       .data	00000000 failure_type
0000466c l       .text.rvtest	00000000 failedtest_saveresults_trap
00004600 l       .text.rvtest	00000000 failedtest_saveresults_int
00004a40 l       .text.rvtest	00000000 failedtest_saveresults_common
0000f148 l       .data	00000000 trap_diag_fail_str_ptr
0000f81a l       .data	00000000 trap_sig_offset_mismatch
00004920 l       .text.rvtest	00000000 trap_diag_offset_mismatch
0000f120 l       .data	00000000 trap_diag_subtype
0000f87e l       .data	00000000 sv_Mvect_str
000049a0 l       .text.rvtest	00000000 trap_diag_field_identified
0000f980 l       .data	00000000 sv_Mcause_str
0000fa7b l       .data	00000000 sv_Mepc_str
0000fb6e l       .data	00000000 sv_Mtval_str
0000fce1 l       .data	00000000 sv_Mip_str
0000fc65 l       .data	00000000 sv_Mtval2_str
0000fca3 l       .data	00000000 sv_Mtinst_str
0000f8be l       .data	00000000 sv_Svect_str
0000f9be l       .data	00000000 sv_Scause_str
0000fab7 l       .data	00000000 sv_Sepc_str
0000fbab l       .data	00000000 sv_Stval_str
0000fd1c l       .data	00000000 sv_Sip_str
0000f8fe l       .data	00000000 sv_Hvect_str
0000f9fc l       .data	00000000 sv_Hcause_str
0000faf3 l       .data	00000000 sv_Hepc_str
0000fbe8 l       .data	00000000 sv_Htval_str
0000fd57 l       .data	00000000 sv_Hip_str
0000f93f l       .data	00000000 sv_Vvect_str
0000fa3b l       .data	00000000 sv_Vcause_str
0000fb30 l       .data	00000000 sv_Vepc_str
0000fc26 l       .data	00000000 sv_Vtval_str
0000fd93 l       .data	00000000 sv_Vip_str
0000fdd0 l       .data	00000000 Mclr_Mext_int_str
0000fe1f l       .data	00000000 Mclr_Sext_int_str
0000ff1a l       .data	00000000 Sclr_Sext_int_str
00010016 l       .data	00000000 Hclr_Sext_int_str
00004a30 l       .text.rvtest	00000000 trap_diag_generic_report
0000f138 l       .data	00000000 trap_diag_actual_offset
0000f140 l       .data	00000000 trap_diag_expected_offset
0000f124 l       .data	00000000 trap_diag_mode
0000f128 l       .data	00000000 trap_diag_actual_value
0000f130 l       .data	00000000 trap_diag_expected_value
00004a70 l       .text.rvtest	00000000 failedtest_report
00004a70 l       .text.rvtest	00000000 print_failstr
0000f68a l       .data	00000000 failstr
00004aa8 l       .text.rvtest	00000000 print_testnamestr
0000f71d l       .data	00000000 testnamestr
00004ae8 l       .text.rvtest	00000000 print_failure_test_name_str
0000f110 l       .data	00000000 failure_string_ptr
00004af8 l       .text.rvtest	00000000 print_newline_str
0000f72f l       .data	00000000 newlinestr
00004f2c l       .text.rvtest	00000000 failedtest_report_trap_detailed
0000f731 l       .data	00000000 inststr
0000f0f0 l       .data	00000000 failing_instruction
00005e78 l       .text.rvtest	00000000 failedtest_hex_to_str
0000f178 l       .data	00000000 ascii_buffer
0000f745 l       .data	00000000 addrstr
0000f0f8 l       .data	00000000 failing_addr
000101c2 l       .data	00000000 regstr
00004cd8 l       .text.rvtest	00000000 failedtest_report_not_intreg
0000f0f4 l       .data	00000000 failing_reg
00005ef4 l       .text.rvtest	00000000 failedtest_dec_to_str
00004db4 l       .text.rvtest	00000000 failedtest_report_print_regstr
00004d2c l       .text.rvtest	00000000 failedtest_report_fpreg
00004d78 l       .text.rvtest	00000000 failedtest_report_vecreg
00010222 l       .data	00000000 fflagsstr
00004de8 l       .text.rvtest	00000000 failedtest_report_after_reg
000101d3 l       .data	00000000 badvalstr
00004e4c l       .text.rvtest	00000000 failedtest_report_badval_not_fp
0000f100 l       .data	00000000 failing_value
00004e5c l       .text.rvtest	00000000 failedtest_report_badval_done
000101ea l       .data	00000000 expvalstr
00004eec l       .text.rvtest	00000000 failedtest_report_expval_not_fp
0000f108 l       .data	00000000 expected_value
00004efc l       .text.rvtest	00000000 failedtest_report_expval_done
00005c24 l       .text.rvtest	00000000 failedtest_report_end
0001024e l       .data	00000000 trap_diag_header_str
0001027a l       .data	00000000 trap_diag_origstr_label
00005000 l       .text.rvtest	00000000 trap_report_offset_mismatch
00005ab0 l       .text.rvtest	00000000 trap_report_generic
00005374 l       .text.rvtest	00000000 trap_report_field_mismatch
0001028a l       .data	00000000 trap_diag_count_mismatch_str
000102eb l       .data	00000000 trap_diag_expected_offset_str
00010312 l       .data	00000000 trap_diag_actual_offset_str
00005254 l       .text.rvtest	00000000 trap_report_missing_traps
0000513c l       .text.rvtest	00000000 trap_report_extra_traps
00010339 l       .data	00000000 trap_diag_extra_traps_str
000103be l       .data	00000000 trap_diag_extra_bytes_str
000103e9 l       .data	00000000 trap_diag_extra_hint_str
00005c70 l       .text.rvtest	00000000 failedtest_print_csr_context
00010373 l       .data	00000000 trap_diag_missing_traps_str
000104d1 l       .data	00000000 trap_diag_missing_hint_str
000105b8 l       .data	00000000 trap_diag_handler_mode_str
00005404 l       .text.rvtest	00000000 trap_mode_m
00005444 l       .text.rvtest	00000000 trap_mode_s
00005484 l       .text.rvtest	00000000 trap_mode_h
000054c4 l       .text.rvtest	00000000 trap_mode_v
000105f4 l       .data	00000000 trap_diag_mode_unknown_str
00005500 l       .text.rvtest	00000000 trap_mode_print
000105d2 l       .data	00000000 trap_diag_mode_m_str
000105da l       .data	00000000 trap_diag_mode_s_str
000105e2 l       .data	00000000 trap_diag_mode_hs_str
000105eb l       .data	00000000 trap_diag_mode_vs_str
000105fd l       .data	00000000 trap_diag_field_str
000055c4 l       .text.rvtest	00000000 trap_field_vect
00005604 l       .text.rvtest	00000000 trap_field_cause
00005644 l       .text.rvtest	00000000 trap_field_epc
00005684 l       .text.rvtest	00000000 trap_field_tval
000056c4 l       .text.rvtest	00000000 trap_field_ip
00005704 l       .text.rvtest	00000000 trap_field_tval2
00005744 l       .text.rvtest	00000000 trap_field_tinst
00005784 l       .text.rvtest	00000000 trap_field_intid
00010754 l       .data	00000000 trap_diag_field_unknown_str
000057c0 l       .text.rvtest	00000000 trap_field_print
00010617 l       .data	00000000 trap_diag_field_vect_str
00010648 l       .data	00000000 trap_diag_field_cause_str
00010668 l       .data	00000000 trap_diag_field_epc_str
00010686 l       .data	00000000 trap_diag_field_tval_str
000106a5 l       .data	00000000 trap_diag_field_ip_str
000106cd l       .data	00000000 trap_diag_field_tval2_str
000106f9 l       .data	00000000 trap_diag_field_tinst_str
00010725 l       .data	00000000 trap_diag_field_intid_str
00010763 l       .data	00000000 trap_diag_expected_str
0001077a l       .data	00000000 trap_diag_actual_str
0000595c l       .text.rvtest	00000000 trap_field_not_cause
00010791 l       .data	00000000 trap_diag_expected_cause_name_str
00005b94 l       .text.rvtest	00000000 trap_cause_to_str
000107a8 l       .data	00000000 trap_diag_actual_cause_name_str
0000595c l       .text.rvtest	00000000 trap_field_not_epc
0001081e l       .data	00000000 trap_diag_hint_vect_str
000108f4 l       .data	00000000 trap_diag_hint_cause_str
000109e7 l       .data	00000000 trap_diag_hint_epc_str
00010ae2 l       .data	00000000 trap_diag_hint_tval_str
00010bc9 l       .data	00000000 trap_diag_hint_ip_str
000107d6 l       .data	00000000 trap_diag_generic_str
0000f158 l       .data	00000000 saved_mepc
0000f7b9 l       .data	00000000 xepcinstrstr
00005bb8 l       .text.rvtest	00000000 trap_cause_interrupt
00005b98 l       .text.rvtest	00000000 trap_cause_exception
00005be4 l       .text.rvtest	00000000 trap_cause_unknown
0000f1a0 l       .data	00000000 trap_excpt_name_tbl
0000f200 l       .data	00000000 trap_int_name_tbl
0000f63e l       .data	00000000 trap_cause_unknown_str
00010201 l       .data	00000000 endstr
00005c68 l       .text.rvtest	00000000 failedtest_terminate
00020214 l       .text.rvmodel	00000000 rvmodel_halt_fail
0000f150 l       .data	00000000 csr_context_ret_addr
0000f7da l       .data	00000000 mepcstr
0000f7ea l       .data	00000000 mcausestr
0000f7fa l       .data	00000000 mtvalstr
0000f80a l       .data	00000000 mstatusstr
00005eb8 l       .text.rvtest	00000000 failedtest_hex_to_str_loop
00005ed4 l       .text.rvtest	00000000 failedtest_hex_to_str_digit
00005ed8 l       .text.rvtest	00000000 failedtest_hex_to_str_write
00020000 l       .text.rvmodel	00000000 rvtest_boot_to_mmode
00020000 l       .text.rvmodel	00000000 rvtest_init_regs
00010cb0 l       .data	00000000 signature_base
000201a0 l       .text.rvmodel	00000000 canary_check
0001022a l       .data	00000000 canary_mismatch
00008000 l       .data	00000000 scratch
0000f1a0 l       .data	00000000 end_failure_scratch
0000f240 l       .data	00000000 trap_excpt_name_0
0000f260 l       .data	00000000 trap_excpt_name_1
0000f27a l       .data	00000000 trap_excpt_name_2
0000f28f l       .data	00000000 trap_excpt_name_3
0000f29b l       .data	00000000 trap_excpt_name_4
0000f2b4 l       .data	00000000 trap_excpt_name_5
0000f2c7 l       .data	00000000 trap_excpt_name_6
0000f2e5 l       .data	00000000 trap_excpt_name_7
0000f2fd l       .data	00000000 trap_excpt_name_8
0000f31b l       .data	00000000 trap_excpt_name_9
0000f339 l       .data	00000000 trap_excpt_name_10
0000f358 l       .data	00000000 trap_excpt_name_11
0000f376 l       .data	00000000 trap_excpt_name_12
0000f38e l       .data	00000000 trap_excpt_name_13
0000f39f l       .data	00000000 trap_excpt_name_14
0000f3ae l       .data	00000000 trap_excpt_name_15
0000f3c4 l       .data	00000000 trap_excpt_name_16
0000f3d1 l       .data	00000000 trap_excpt_name_17
0000f3e0 l       .data	00000000 trap_excpt_name_18
0000f3f0 l       .data	00000000 trap_excpt_name_19
0000f400 l       .data	00000000 trap_excpt_name_20
0000f41e l       .data	00000000 trap_excpt_name_21
0000f435 l       .data	00000000 trap_excpt_name_22
0000f44a l       .data	00000000 trap_excpt_name_23
0000f466 l       .data	00000000 trap_int_name_0
0000f47e l       .data	00000000 trap_int_name_1
0000f49d l       .data	00000000 trap_int_name_2
0000f4c4 l       .data	00000000 trap_int_name_3
0000f4e0 l       .data	00000000 trap_int_name_4
0000f4f8 l       .data	00000000 trap_int_name_5
0000f514 l       .data	00000000 trap_int_name_6
0000f538 l       .data	00000000 trap_int_name_7
0000f551 l       .data	00000000 trap_int_name_8
0000f569 l       .data	00000000 trap_int_name_9
0000f588 l       .data	00000000 trap_int_name_10
0000f5af l       .data	00000000 trap_int_name_11
0000f5cb l       .data	00000000 trap_int_name_12
0000f5f0 l       .data	00000000 trap_int_name_13
0000f60c l       .data	00000000 trap_int_name_14
0000f625 l       .data	00000000 trap_int_name_15
0000f6df l       .data	00000000 abortstr
0000f786 l       .data	00000000 xepcstr
0000fe71 l       .data	00000000 Mclr_Vext_int_str
0000fecb l       .data	00000000 Sclr_Mext_int_str
0000ff6c l       .data	00000000 Sclr_Vext_int_str
0000ffc6 l       .data	00000000 Hclr_Mext_int_str
00010069 l       .data	00000000 Hclr_Vext_int_str
000100c4 l       .data	00000000 Vclr_Mext_int_str
00010114 l       .data	00000000 Vclr_Sext_int_str
00010167 l       .data	00000000 Vclr_Vext_int_str
000107bf l       .data	00000000 trap_diag_curr_xepc_str
00011300 l       .data	00000000 trap_sigptr
0001fd70 g       .data	00000000 end_signature
0001fd70 g       .data	00000000 rvtest_sig_end
00000000 g       .text.init	00000000 rvtest_entry_point
00010cb0 g       .data	00000000 begin_signature
0000446c g       .text.rvtest	00000000 rvtest_code_end
00000040 g       .text.rvtest	00000000 rvtest_code_begin
00010cb0 g       .data	00000000 rvtest_sig_begin
00008110 g       .data	00000000 rvtest_data_begin
00010cae g       .data	00000000 rvtest_data_end
0000446c g       .text.rvtest	00000000 cleanup_epilogs
00021000 g       .text.rvmodel	00000000 _end



Disassembly of section .text.init:

00000000 <rvtest_entry_point>:

// Include framework macros
#include "riscv_arch_test.h"

// Set up test environment and declare main entry point
RVTEST_BEGIN
   0:	00020097          	auipc	x1,0x20
   4:	00008093          	addi	x1,x1,0 # 20000 <rvmodel_boot>
   8:	00000013          	addi	x0,x0,0
   c:	00000013          	addi	x0,x0,0
  10:	00000013          	addi	x0,x0,0
  14:	00000013          	addi	x0,x0,0
  18:	00000013          	addi	x0,x0,0
  1c:	00000013          	addi	x0,x0,0
  20:	000080e7          	jalr	x1,0(x1)
  24:	00000013          	addi	x0,x0,0
  28:	00000013          	addi	x0,x0,0
  2c:	00000013          	addi	x0,x0,0
  30:	00000013          	addi	x0,x0,0
  34:	00000013          	addi	x0,x0,0
  38:	00000013          	addi	x0,x0,0
  3c:	00000013          	addi	x0,x0,0

Disassembly of section .text.rvtest:

00000040 <rvtest_code_begin>:
/////////////////////////////////
// cp_rs1
/////////////////////////////////

# Testcase cp_rs1 (Test source rs1 = x0)
  RVTEST_TESTDATA_LOAD_INT(x3, x0) # load rs1: x0 = 0x0a182d0a
      40:	0001a003          	lw	x0,0(x3)
      44:	00418193          	addi	x3,x3,4
  RVTEST_TESTDATA_LOAD_INT(x3, x19) # load rs2: x19 = 0x8a05af93
      48:	0001a983          	lw	x19,0(x3)
      4c:	00418193          	addi	x3,x3,4

00000050 <I_sll_cg_cp_rs1_b0>:
I_sll_cg_cp_rs1_b0:
  sll x6, x0, x19 # perform operation
      50:	01301333          	sll	x6,x0,x19
  # Check if x6 contains the expected result. x2 is the signature ptr, x5 is the link ptr, x4 is a temp reg.
  RVTEST_SIGUPD(x2, x5, x4, x6, I_sll_cg_cp_rs1_b0, I_sll_cg_cp_rs1_b0_str)
      54:	00012203          	lw	x4,0(x2)
      58:	00620863          	beq	x4,x6,68 <I_sll_cg_cp_rs1_b0+0x18>
      5c:	460042ef          	jal	x5,44bc <failedtest_x5_x4>
      60:	00000050          	.word	0x00000050
      64:	00008d50          	.word	0x00008d50
      68:	00410113          	addi	x2,x2,4

# Testcase cp_rs1 (Test source rs1 = x1)
  RVTEST_TESTDATA_LOAD_INT(x3, x1) # load rs1: x1 = 0xcd073f18
      6c:	0001a083          	lw	x1,0(x3)
      70:	00418193          	addi	x3,x3,4
  RVTEST_TESTDATA_LOAD_INT(x3, x21) # load rs2: x21 = 0x9e8fac57
      74:	0001aa83          	lw	x21,0(x3)
      78:	00418193          	addi	x3,x3,4

0000007c <I_sll_cg_cp_rs1_b1>:
I_sll_cg_cp_rs1_b1:
  sll x28, x1, x21 # perform operation
      7c:	01509e33          	sll	x28,x1,x21
  # Check if x28 contains the expected result. x2 is the signature ptr, x5 is the link ptr, x4 is a temp reg.
  RVTEST_SIGUPD(x2, x5, x4, x28, I_sll_cg_cp_rs1_b1, I_sll_cg_cp_rs1_b1_str)
      80:	00012203          	lw	x4,0(x2)
      84:	01c20863          	beq	x4,x28,94 <I_sll_cg_cp_rs1_b1+0x18>
      88:	434042ef          	jal	x5,44bc <failedtest_x5_x4>
      8c:	0000007c          	.word	0x0000007c
      90:	00008d7d          	.word	0x00008d7d
      94:	00410113          	addi	x2,x2,4

  mv x26, x2 # switch signature pointer register to avoid conflict with test
      98:	00010d13          	addi	x26,x2,0
# Testcase cp_rs1 (Test source rs1 = x2)
  RVTEST_TESTDATA_LOAD_INT(x3, x2) # load rs1: x2 = 0xa985ba79
      9c:	0001a103          	lw	x2,0(x3)
      a0:	00418193          	addi	x3,x3,4
  RVTEST_TESTDATA_LOAD_INT(x3, x18) # load rs2: x18 = 0xb0450995
      a4:	0001a903          	lw	x18,0(x3)
      a8:	00418193          	addi	x3,x3,4

000000ac <I_sll_cg_cp_rs1_b2>:
I_sll_cg_cp_rs1_b2:
  sll x24, x2, x18 # perform operation
      ac:	01211c33          	sll	x24,x2,x18
  # Check if x24 contains the expected result. x26 is the signature ptr, x5 is the link ptr, x4 is a temp reg.
  RVTEST_SIGUPD(x26, x5, x4, x24, I_sll_cg_cp_rs1_b2, I_sll_cg_cp_rs1_b2_str)
      b0:	000d2203          	lw	x4,0(x26)
      b4:	01820863          	beq	x4,x24,c4 <I_sll_cg_cp_rs1_b2+0x18>
      b8:	404042ef          	jal	x5,44bc <failedtest_x5_x4>
      bc:	000000ac          	.word	0x000000ac
      c0:	00008daa          	.word	0x00008daa
      c4:	004d0d13          	addi	x26,x26,4

  mv x9, x3 # switch data pointer register to avoid conflict with test
      c8:	00018493          	addi	x9,x3,0
# Testcase cp_rs1 (Test source rs1 = x3)
  RVTEST_TESTDATA_LOAD_INT(x9, x3) # load rs1: x3 = 0x3fe0731d
      cc:	0004a183          	lw	x3,0(x9)
      d0:	00448493          	addi	x9,x9,4
  RVTEST_TESTDATA_LOAD_INT(x9, x17) # load rs2: x17 = 0x45d64e13
      d4:	0004a883          	lw	x17,0(x9)
      d8:	00448493          	addi	x9,x9,4

000000dc <I_sll_cg_cp_rs1_b3>:
I_sll_cg_cp_rs1_b3:
  sll x12, x3, x17 # perform operation
      dc:	01119633          	sll	x12,x3,x17
  # Check if x12 contains the expected result. x26 is the signature ptr, x5 is the link ptr, x4 is a temp reg.
  RVTEST_SIGUPD(x26, x5, x4, x12, I_sll_cg_cp_rs1_b3, I_sll_cg_cp_rs1_b3_str)
      e0:	000d2203          	lw	x4,0(x26)
      e4:	00c20863          	beq	x4,x12,f4 <I_sll_cg_cp_rs1_b3+0x18>
      e8:	3d4042ef          	jal	x5,44bc <failedtest_x5_x4>
      ec:	000000dc          	.word	0x000000dc
      f0:	00008dd7          	.word	0x00008dd7
      f4:	004d0d13          	addi	x26,x26,4

  mv x13, x4 # switch temp register to avoid conflict with test
      f8:	00020693          	addi	x13,x4,0 # 0 <rvtest_entry_point>
  mv x14, x5 # switch link pointer register to avoid conflict with test
      fc:	00028713          	addi	x14,x5,0
# Testcase cp_rs1 (Test source rs1 = x4)
  RVTEST_TESTDATA_LOAD_INT(x9, x4) # load rs1: x4 = 0xeb250c91
     100:	0004a203          	lw	x4,0(x9)
     104:	00448493          	addi	x9,x9,4
  RVTEST_TESTDATA_LOAD_INT(x9, x30) # load rs2: x30 = 0xc16cf136
     108:	0004af03          	lw	x30,0(x9)
     10c:	00448493          	addi	x9,x9,4

00000110 <I_sll_cg_cp_rs1_b4>:
I_sll_cg_cp_rs1_b4:
  sll x27, x4, x30 # perform operation
     110:	01e21db3          	sll	x27,x4,x30
  # Check if x27 contains the expected result. x26 is the signature ptr, x14 is the link ptr, x13 is a temp reg.
  RVTEST_SIGUPD(x26, x14, x13, x27, I_sll_cg_cp_rs1_b4, I_sll_cg_cp_rs1_b4_str)
     114:	000d2683          	lw	x13,0(x26)
     118:	01b68863          	beq	x13,x27,128 <I_sll_cg_cp_rs1_b4+0x18>
     11c:	3e00476f          	jal	x14,44fc <failedtest_x14_x13>
     120:	00000110          	.word	0x00000110
     124:	00008e04          	.word	0x00008e04
     128:	004d0d13          	addi	x26,x26,4

# Testcase cp_rs1 (Test source rs1 = x5)
  RVTEST_TESTDATA_LOAD_INT(x9, x5) # load rs1: x5 = 0x030a2755
     12c:	0004a283          	lw	x5,0(x9)
     130:	00448493          	addi	x9,x9,4
  RVTEST_TESTDATA_LOAD_INT(x9, x4) # load rs2: x4 = 0xb9ae254e
     134:	0004a203          	lw	x4,0(x9)
     138:	00448493          	addi	x9,x9,4

0000013c <I_sll_cg_cp_rs1_b5>:
I_sll_cg_cp_rs1_b5:
  sll x7, x5, x4 # perform operation
     13c:	004293b3          	sll	x7,x5,x4
  # Check if x7 contains the expected result. x26 is the signature ptr, x14 is the link ptr, x13 is a temp reg.
  RVTEST_SIGUPD(x26, x14, x13, x7, I_sll_cg_cp_rs1_b5, I_sll_cg_cp_rs1_b5_str)
     140:	000d2683          	lw	x13,0(x26)
     144:	00768863          	beq	x13,x7,154 <I_sll_cg_cp_rs1_b5+0x18>
     148:	3b40476f          	jal	x14,44fc <failedtest_x14_x13>
     14c:	0000013c          	.word	0x0000013c
     150:	00008e31          	.word	0x00008e31
     154:	004d0d13          	addi	x26,x26,4

# Testcase cp_rs1 (Test source rs1 = x6)
  RVTEST_TESTDATA_LOAD_INT(x9, x6) # load rs1: x6 = 0x0954ee89
     158:	0004a303          	lw	x6,0(x9)
     15c:	00448493          	addi	x9,x9,4
  RVTEST_TESTDATA_LOAD_INT(x9, x1) # load rs2: x1 = 0xe9ab2984
     160:	0004a083          	lw	x1,0(x9)
     164:	00448493          	addi	x9,x9,4

00000168 <I_sll_cg_cp_rs1_b6>:
I_sll_cg_cp_rs1_b6:
  sll x7, x6, x1 # perform operation
     168:	001313b3          	sll	x7,x6,x1
  # Check if x7 contains the expected result. x26 is the signature ptr, x14 is the link ptr, x13 is a temp reg.
  RVTEST_SIGUPD(x26, x14, x13, x7, I_sll_cg_cp_rs1_b6, I_sll_cg_cp_rs1_b6_str)
     16c:	000d2683          	lw	x13,0(x26)
     170:	00768863          	beq	x13,x7,180 <I_sll_cg_cp_rs1_b6+0x18>
     174:	3880476f          	jal	x14,44fc <failedtest_x14_x13>
     178:	00000168          	.word	0x00000168
     17c:	00008e5e          	.word	0x00008e5e
     180:	004d0d13          	addi	x26,x26,4

# Testcase cp_rs1 (Test source rs1 = x7)
  RVTEST_TESTDATA_LOAD_INT(x9, x7) # load rs1: x7 = 0xb23d671a
     184:	0004a383          	lw	x7,0(x9)
     188:	00448493          	addi	x9,x9,4
  RVTEST_TESTDATA_LOAD_INT(x9, x3) # load rs2: x3 = 0x82da6fc6
     18c:	0004a183          	lw	x3,0(x9)
     190:	00448493          	addi	x9,x9,4

00000194 <I_sll_cg_cp_rs1_b7>:
I_sll_cg_cp_rs1_b7:
  sll x17, x7, x3 # perform operation
     194:	003398b3          	sll	x17,x7,x3
  # Check if x17 contains the expected result. x26 is the signature ptr, x14 is the link ptr, x13 is a temp reg.
  RVTEST_SIGUPD(x26, x14, x13, x17, I_sll_cg_cp_rs1_b7, I_sll_cg_cp_rs1_b7_str)
     198:	000d2683          	lw	x13,0(x26)
     19c:	01168863          	beq	x13,x17,1ac <I_sll_cg_cp_rs1_b7+0x18>
     1a0:	35c0476f          	jal	x14,44fc <failedtest_x14_x13>
     1a4:	00000194          	.word	0x00000194
     1a8:	00008e8b          	.word	0x00008e8b
     1ac:	004d0d13          	addi	x26,x26,4

# Testcase cp_rs1 (Test source rs1 = x8)
  RVTEST_TESTDATA_LOAD_INT(x9, x8) # load rs1: x8 = 0x459c457a
     1b0:	0004a403          	lw	x8,0(x9)
     1b4:	00448493          	addi	x9,x9,4
  RVTEST_TESTDATA_LOAD_INT(x9, x0) # load rs2: x0 = 0x2079c779
     1b8:	0004a003          	lw	x0,0(x9)
     1bc:	00448493          	addi	x9,x9,4

000001c0 <I_sll_cg_cp_rs1_b8>:
I_sll_cg_cp_rs1_b8:
  sll x17, x8, x0 # perform operation
     1c0:	000418b3          	sll	x17,x8,x0
  # Check if x17 contains the expected result. x26 is the signature ptr, x14 is the link ptr, x13 is a temp reg.
  RVTEST_SIGUPD(x26, x14, x13, x17, I_sll_cg_cp_rs1_b8, I_sll_cg_cp_rs1_b8_str)
     1c4:	000d2683          	lw	x13,0(x26)
     1c8:	01168863          	beq	x13,x17,1d8 <I_sll_cg_cp_rs1_b8+0x18>
     1cc:	3300476f          	jal	x14,44fc <failedtest_x14_x13>
     1d0:	000001c0          	.word	0x000001c0
     1d4:	00008eb8          	.word	0x00008eb8
     1d8:	004d0d13          	addi	x26,x26,4

  mv x24, x9 # switch data pointer register to avoid conflict with test
     1dc:	00048c13          	addi	x24,x9,0
# Testcase cp_rs1 (Test source rs1 = x9)
  RVTEST_TESTDATA_LOAD_INT(x24, x9) # load rs1: x9 = 0xe040a7d4
     1e0:	000c2483          	lw	x9,0(x24)
     1e4:	004c0c13          	addi	x24,x24,4
  RVTEST_TESTDATA_LOAD_INT(x24, x31) # load rs2: x31 = 0x9aa9246d
     1e8:	000c2f83          	lw	x31,0(x24)
     1ec:	004c0c13          	addi	x24,x24,4

000001f0 <I_sll_cg_cp_rs1_b9>:
I_sll_cg_cp_rs1_b9:
  sll x1, x9, x31 # perform operation
     1f0:	01f490b3          	sll	x1,x9,x31
  # Check if x1 contains the expected result. x26 is the signature ptr, x14 is the link ptr, x13 is a temp reg.
  RVTEST_SIGUPD(x26, x14, x13, x1, I_sll_cg_cp_rs1_b9, I_sll_cg_cp_rs1_b9_str)
     1f4:	000d2683          	lw	x13,0(x26)
     1f8:	00168863          	beq	x13,x1,208 <I_sll_cg_cp_rs1_b9+0x18>
     1fc:	3000476f          	jal	x14,44fc <failedtest_x14_x13>
     200:	000001f0          	.word	0x000001f0
     204:	00008ee5          	.word	0x00008ee5
     208:	004d0d13          	addi	x26,x26,4

# Testcase cp_rs1 (Test source rs1 = x10)
  RVTEST_TESTDATA_LOAD_INT(x24, x10) # load rs1: x10 = 0x1173f694
     20c:	000c2503          	lw	x10,0(x24)
     210:	004c0c13          	addi	x24,x24,4
  RVTEST_TESTDATA_LOAD_INT(x24, x30) # load rs2: x30 = 0x3e421b5d
     214:	000c2f03          	lw	x30,0(x24)
     218:	004c0c13          	addi	x24,x24,4

0000021c <I_sll_cg_cp_rs1_b10>:
I_sll_cg_cp_rs1_b10:
  sll x29, x10, x30 # perform operation
     21c:	01e51eb3          	sll	x29,x10,x30
  # Check if x29 contains the expected result. x26 is the signature ptr, x14 is the link ptr, x13 is a temp reg.
  RVTEST_SIGUPD(x26, x14, x13, x29, I_sll_cg_cp_rs1_b10, I_sll_cg_cp_rs1_b10_str)
     220:	000d2683          	lw	x13,0(x26)
     224:	01d68863          	beq	x13,x29,234 <I_sll_cg_cp_rs1_b10+0x18>
     228:	2d40476f          	jal	x14,44fc <failedtest_x14_x13>
     22c:	0000021c          	.word	0x0000021c
     230:	00008f13          	.word	0x00008f13
     234:	004d0d13          	addi	x26,x26,4

# Testcase cp_rs1 (Test source rs1 = x11)
  RVTEST_TESTDATA_LOAD_INT(x24, x11) # load rs1: x11 = 0x48c4f8fb
     238:	000c2583          	lw	x11,0(x24)
     23c:	004c0c13          	addi	x24,x24,4
  RVTEST_TESTDATA_LOAD_INT(x24, x4) # load rs2: x4 = 0xde84e21b
     240:	000c2203          	lw	x4,0(x24)
     244:	004c0c13          	addi	x24,x24,4

00000248 <I_sll_cg_cp_rs1_b11>:
I_sll_cg_cp_rs1_b11:
  sll x6, x11, x4 # perform operation
     248:	00459333          	sll	x6,x11,x4
  # Check if x6 contains the expected result. x26 is the signature ptr, x14 is the link ptr, x13 is a temp reg.
  RVTEST_SIGUPD(x26, x14, x13, x6, I_sll_cg_cp_rs1_b11, I_sll_cg_cp_rs1_b11_str)
     24c:	000d2683          	lw	x13,0(x26)
     250:	00668863          	beq	x13,x6,260 <I_sll_cg_cp_rs1_b11+0x18>
     254:	2a80476f          	jal	x14,44fc <failedtest_x14_x13>
     258:	00000248          	.word	0x00000248
     25c:	00008f42          	.word	0x00008f42
     260:	004d0d13          	addi	x26,x26,4

# Testcase cp_rs1 (Test source rs1 = x12)
  RVTEST_TESTDATA_LOAD_INT(x24, x12) # load rs1: x12 = 0x4a19ddb9
     264:	000c2603          	lw	x12,0(x24)
     268:	004c0c13          	addi	x24,x24,4
  RVTEST_TESTDATA_LOAD_INT(x24, x9) # load rs2: x9 = 0x4f514eda
     26c:	000c2483          	lw	x9,0(x24)
     270:	004c0c13          	addi	x24,x24,4

00000274 <I_sll_cg_cp_rs1_b12>:
I_sll_cg_cp_rs1_b12:
  sll x7, x12, x9 # perform operation
     274:	009613b3          	sll	x7,x12,x9
  # Check if x7 contains the expected result. x26 is the signature ptr, x14 is the link ptr, x13 is a temp reg.
  RVTEST_SIGUPD(x26, x14, x13, x7, I_sll_cg_cp_rs1_b12, I_sll_cg_cp_rs1_b12_str)
     278:	000d2683          	lw	x13,0(x26)
     27c:	00768863          	beq	x13,x7,28c <I_sll_cg_cp_rs1_b12+0x18>
     280:	27c0476f          	jal	x14,44fc <failedtest_x14_x13>
     284:	00000274          	.word	0x00000274
     288:	00008f71          	.word	0x00008f71
     28c:	004d0d13          	addi	x26,x26,4

  mv x7, x13 # switch temp register to avoid conflict with test
     290:	00068393          	addi	x7,x13,0
  mv x8, x14 # switch link pointer register to avoid conflict with test
     294:	00070413          	addi	x8,x14,0
# Testcase cp_rs1 (Test source rs1 = x13)
  RVTEST_TESTDATA_LOAD_INT(x24, x13) # load rs1: x13 = 0x47bdb495
     298:	000c2683          	lw	x13,0(x24)
     29c:	004c0c13          	addi	x24,x24,4
  RVTEST_TESTDATA_LOAD_INT(x24, x31) # load rs2: x31 = 0x897ae852
     2a0:	000c2f83          	lw	x31,0(x24)
     2a4:	004c0c13          	addi	x24,x24,4

000002a8 <I_sll_cg_cp_rs1_b13>:
I_sll_cg_cp_rs1_b13:
  sll x11, x13, x31 # perform operation
     2a8:	01f695b3          	sll	x11,x13,x31
  # Check if x11 contains the expected result. x26 is the signature ptr, x8 is the link ptr, x7 is a temp reg.
  RVTEST_SIGUPD(x26, x8, x7, x11, I_sll_cg_cp_rs1_b13, I_sll_cg_cp_rs1_b13_str)
     2ac:	000d2383          	lw	x7,0(x26)
     2b0:	00b38863          	beq	x7,x11,2c0 <I_sll_cg_cp_rs1_b13+0x18>
     2b4:	2200446f          	jal	x8,44d4 <failedtest_x8_x7>
     2b8:	000002a8          	.word	0x000002a8
     2bc:	00008fa0          	.word	0x00008fa0
     2c0:	004d0d13          	addi	x26,x26,4

# Testcase cp_rs1 (Test source rs1 = x14)
  RVTEST_TESTDATA_LOAD_INT(x24, x14) # load rs1: x14 = 0x465a480a
     2c4:	000c2703          	lw	x14,0(x24)
     2c8:	004c0c13          	addi	x24,x24,4
  RVTEST_TESTDATA_LOAD_INT(x24, x10) # load rs2: x10 = 0x222820bf
     2cc:	000c2503          	lw	x10,0(x24)
     2d0:	004c0c13          	addi	x24,x24,4

000002d4 <I_sll_cg_cp_rs1_b14>:
I_sll_cg_cp_rs1_b14:
  sll x2, x14, x10 # perform operation
     2d4:	00a71133          	sll	x2,x14,x10
  # Check if x2 contains the expected result. x26 is the signature ptr, x8 is the link ptr, x7 is a temp reg.
  RVTEST_SIGUPD(x26, x8, x7, x2, I_sll_cg_cp_rs1_b14, I_sll_cg_cp_rs1_b14_str)
     2d8:	000d2383          	lw	x7,0(x26)
     2dc:	00238863          	beq	x7,x2,2ec <I_sll_cg_cp_rs1_b14+0x18>
     2e0:	1f40446f          	jal	x8,44d4 <failedtest_x8_x7>
     2e4:	000002d4          	.word	0x000002d4
     2e8:	00008fcf          	.word	0x00008fcf
     2ec:	004d0d13          	addi	x26,x26,4

# Testcase cp_rs1 (Test source rs1 = x15)
  RVTEST_TESTDATA_LOAD_INT(x24, x15) # load rs1: x15 = 0x9c6623fd
     2f0:	000c2783          	lw	x15,0(x24)
     2f4:	004c0c13          	addi	x24,x24,4
  RVTEST_TESTDATA_LOAD_INT(x24, x19) # load rs2: x19 = 0xcc566aa6
     2f8:	000c2983          	lw	x19,0(x24)
     2fc:	004c0c13          	addi	x24,x24,4

00000300 <I_sll_cg_cp_rs1_b15>:
I_sll_cg_cp_rs1_b15:
  sll x29, x15, x19 # perform operation
     300:	01379eb3          	sll	x29,x15,x19
  # Check if x29 contains the expected result. x26 is the signature ptr, x8 is the link ptr, x7 is a temp reg.
  RVTEST_SIGUPD(x26, x8, x7, x29, I_sll_cg_cp_rs1_b15, I_sll_cg_cp_rs1_b15_str)
     304:	000d2383          	lw	x7,0(x26)
     308:	01d38863          	beq	x7,x29,318 <imm12+0xf>
     30c:	1c80446f          	jal	x8,44d4 <failedtest_x8_x7>
     310:	00000300          	.word	0x00000300
     314:	00008ffe          	.word	0x00008ffe
     318:	004d0d13          	addi	x26,x26,4

# Testcase cp_rs1 (Test source rs1 = x16)
  RVTEST_TESTDATA_LOAD_INT(x24, x16) # load rs1: x16 = 0x7a35a45f
     31c:	000c2803          	lw	x16,0(x24)
     320:	004c0c13          	addi	x24,x24,4
  RVTEST_TESTDATA_LOAD_INT(x24, x14) # load rs2: x14 = 0x546b4b11
     324:	000c2703          	lw	x14,0(x24)
     328:	004c0c13          	addi	x24,x24,4

0000032c <I_sll_cg_cp_rs1_b16>:
I_sll_cg_cp_rs1_b16:
  sll x13, x16, x14 # perform operation
     32c:	00e816b3          	sll	x13,x16,x14
  # Check if x13 contains the expected result. x26 is the signature ptr, x8 is the link ptr, x7 is a temp reg.
  RVTEST_SIGUPD(x26, x8, x7, x13, I_sll_cg_cp_rs1_b16, I_sll_cg_cp_rs1_b16_str)
     330:	000d2383          	lw	x7,0(x26)
     334:	00d38863          	beq	x7,x13,344 <I_sll_cg_cp_rs1_b16+0x18>
     338:	19c0446f          	jal	x8,44d4 <failedtest_x8_x7>
     33c:	0000032c          	.word	0x0000032c
     340:	0000902d          	.word	0x0000902d
     344:	004d0d13          	addi	x26,x26,4

# Testcase cp_rs1 (Test source rs1 = x17)
  RVTEST_TESTDATA_LOAD_INT(x24, x17) # load rs1: x17 = 0x219ba42e
     348:	000c2883          	lw	x17,0(x24)
     34c:	004c0c13          	addi	x24,x24,4
  RVTEST_TESTDATA_LOAD_INT(x24, x13) # load rs2: x13 = 0x5d5e023a
     350:	000c2683          	lw	x13,0(x24)
     354:	004c0c13          	addi	x24,x24,4

00000358 <I_sll_cg_cp_rs1_b17>:
I_sll_cg_cp_rs1_b17:
  sll x18, x17, x13 # perform operation
     358:	00d89933          	sll	x18,x17,x13
  # Check if x18 contains the expected result. x26 is the signature ptr, x8 is the link ptr, x7 is a temp reg.
  RVTEST_SIGUPD(x26, x8, x7, x18, I_sll_cg_cp_rs1_b17, I_sll_cg_cp_rs1_b17_str)
     35c:	000d2383          	lw	x7,0(x26)
     360:	01238863          	beq	x7,x18,370 <I_sll_cg_cp_rs1_b17+0x18>
     364:	1700446f          	jal	x8,44d4 <failedtest_x8_x7>
     368:	00000358          	.word	0x00000358
     36c:	0000905c          	.word	0x0000905c
     370:	004d0d13          	addi	x26,x26,4

# Testcase cp_rs1 (Test source rs1 = x18)
  RVTEST_TESTDATA_LOAD_INT(x24, x18) # load rs1: x18 = 0x2e8af9fa
     374:	000c2903          	lw	x18,0(x24)
     378:	004c0c13          	addi	x24,x24,4
  RVTEST_TESTDATA_LOAD_INT(x24, x21) # load rs2: x21 = 0x9cfe18d6
     37c:	000c2a83          	lw	x21,0(x24)
     380:	004c0c13          	addi	x24,x24,4

00000384 <I_sll_cg_cp_rs1_b18>:
I_sll_cg_cp_rs1_b18:
  sll x19, x18, x21 # perform operation
     384:	015919b3          	sll	x19,x18,x21
  # Check if x19 contains the expected result. x26 is the signature ptr, x8 is the link ptr, x7 is a temp reg.
  RVTEST_SIGUPD(x26, x8, x7, x19, I_sll_cg_cp_rs1_b18, I_sll_cg_cp_rs1_b18_str)
     388:	000d2383          	lw	x7,0(x26)
     38c:	01338863          	beq	x7,x19,39c <I_sll_cg_cp_rs1_b18+0x18>
     390:	1440446f          	jal	x8,44d4 <failedtest_x8_x7>
     394:	00000384          	.word	0x00000384
     398:	0000908b          	.word	0x0000908b
     39c:	004d0d13          	addi	x26,x26,4

# Testcase cp_rs1 (Test source rs1 = x19)
  RVTEST_TESTDATA_LOAD_INT(x24, x19) # load rs1: x19 = 0x6917f0d6
     3a0:	000c2983          	lw	x19,0(x24)
     3a4:	004c0c13          	addi	x24,x24,4
  RVTEST_TESTDATA_LOAD_INT(x24, x27) # load rs2: x27 = 0xb09c207a
     3a8:	000c2d83          	lw	x27,0(x24)
     3ac:	004c0c13          	addi	x24,x24,4

000003b0 <I_sll_cg_cp_rs1_b19>:
I_sll_cg_cp_rs1_b19:
  sll x29, x19, x27 # perform operation
     3b0:	01b99eb3          	sll	x29,x19,x27
  # Check if x29 contains the expected result. x26 is the signature ptr, x8 is the link ptr, x7 is a temp reg.
  RVTEST_SIGUPD(x26, x8, x7, x29, I_sll_cg_cp_rs1_b19, I_sll_cg_cp_rs1_b19_str)
     3b4:	000d2383          	lw	x7,0(x26)
     3b8:	01d38863          	beq	x7,x29,3c8 <I_sll_cg_cp_rs1_b19+0x18>
     3bc:	1180446f          	jal	x8,44d4 <failedtest_x8_x7>
     3c0:	000003b0          	.word	0x000003b0
     3c4:	000090ba          	.word	0x000090ba
     3c8:	004d0d13          	addi	x26,x26,4

# Testcase cp_rs1 (Test source rs1 = x20)
  RVTEST_TESTDATA_LOAD_INT(x24, x20) # load rs1: x20 = 0x7e4ac76b
     3cc:	000c2a03          	lw	x20,0(x24)
     3d0:	004c0c13          	addi	x24,x24,4
  RVTEST_TESTDATA_LOAD_INT(x24, x11) # load rs2: x11 = 0xa87ae933
     3d4:	000c2583          	lw	x11,0(x24)
     3d8:	004c0c13          	addi	x24,x24,4

000003dc <I_sll_cg_cp_rs1_b20>:
I_sll_cg_cp_rs1_b20:
  sll x17, x20, x11 # perform operation
     3dc:	00ba18b3          	sll	x17,x20,x11
  # Check if x17 contains the expected result. x26 is the signature ptr, x8 is the link ptr, x7 is a temp reg.
  RVTEST_SIGUPD(x26, x8, x7, x17, I_sll_cg_cp_rs1_b20, I_sll_cg_cp_rs1_b20_str)
     3e0:	000d2383          	lw	x7,0(x26)
     3e4:	01138863          	beq	x7,x17,3f4 <I_sll_cg_cp_rs1_b20+0x18>
     3e8:	0ec0446f          	jal	x8,44d4 <failedtest_x8_x7>
     3ec:	000003dc          	.word	0x000003dc
     3f0:	000090e9          	.word	0x000090e9
     3f4:	004d0d13          	addi	x26,x26,4

# Testcase cp_rs1 (Test source rs1 = x21)
  RVTEST_TESTDATA_LOAD_INT(x24, x21) # load rs1: x21 = 0x9cfa9582
     3f8:	000c2a83          	lw	x21,0(x24)
     3fc:	004c0c13          	addi	x24,x24,4
  RVTEST_TESTDATA_LOAD_INT(x24, x2) # load rs2: x2 = 0x9ead7e91
     400:	000c2103          	lw	x2,0(x24)
     404:	004c0c13          	addi	x24,x24,4

00000408 <I_sll_cg_cp_rs1_b21>:
I_sll_cg_cp_rs1_b21:
  sll x9, x21, x2 # perform operation
     408:	002a94b3          	sll	x9,x21,x2
  # Check if x9 contains the expected result. x26 is the signature ptr, x8 is the link ptr, x7 is a temp reg.
  RVTEST_SIGUPD(x26, x8, x7, x9, I_sll_cg_cp_rs1_b21, I_sll_cg_cp_rs1_b21_str)
     40c:	000d2383          	lw	x7,0(x26)
     410:	00938863          	beq	x7,x9,420 <I_sll_cg_cp_rs1_b21+0x18>
     414:	0c00446f          	jal	x8,44d4 <failedtest_x8_x7>
     418:	00000408          	.word	0x00000408
     41c:	00009118          	.word	0x00009118
     420:	004d0d13          	addi	x26,x26,4

# Testcase cp_rs1 (Test source rs1 = x22)
  RVTEST_TESTDATA_LOAD_INT(x24, x22) # load rs1: x22 = 0x4e7aae5c
     424:	000c2b03          	lw	x22,0(x24)
     428:	004c0c13          	addi	x24,x24,4
  RVTEST_TESTDATA_LOAD_INT(x24, x21) # load rs2: x21 = 0xd0652221
     42c:	000c2a83          	lw	x21,0(x24)
     430:	004c0c13          	addi	x24,x24,4

00000434 <I_sll_cg_cp_rs1_b22>:
I_sll_cg_cp_rs1_b22:
  sll x19, x22, x21 # perform operation
     434:	015b19b3          	sll	x19,x22,x21
  # Check if x19 contains the expected result. x26 is the signature ptr, x8 is the link ptr, x7 is a temp reg.
  RVTEST_SIGUPD(x26, x8, x7, x19, I_sll_cg_cp_rs1_b22, I_sll_cg_cp_rs1_b22_str)
     438:	000d2383          	lw	x7,0(x26)
     43c:	01338863          	beq	x7,x19,44c <I_sll_cg_cp_rs1_b22+0x18>
     440:	0940446f          	jal	x8,44d4 <failedtest_x8_x7>
     444:	00000434          	.word	0x00000434
     448:	00009147          	.word	0x00009147
     44c:	004d0d13          	addi	x26,x26,4

# Testcase cp_rs1 (Test source rs1 = x23)
  RVTEST_TESTDATA_LOAD_INT(x24, x23) # load rs1: x23 = 0x264f70d6
     450:	000c2b83          	lw	x23,0(x24)
     454:	004c0c13          	addi	x24,x24,4
  RVTEST_TESTDATA_LOAD_INT(x24, x0) # load rs2: x0 = 0xfc419b7d
     458:	000c2003          	lw	x0,0(x24)
     45c:	004c0c13          	addi	x24,x24,4

00000460 <I_sll_cg_cp_rs1_b23>:
I_sll_cg_cp_rs1_b23:
  sll x10, x23, x0 # perform operation
     460:	000b9533          	sll	x10,x23,x0
  # Check if x10 contains the expected result. x26 is the signature ptr, x8 is the link ptr, x7 is a temp reg.
  RVTEST_SIGUPD(x26, x8, x7, x10, I_sll_cg_cp_rs1_b23, I_sll_cg_cp_rs1_b23_str)
     464:	000d2383          	lw	x7,0(x26)
     468:	00a38863          	beq	x7,x10,478 <I_sll_cg_cp_rs1_b23+0x18>
     46c:	0680446f          	jal	x8,44d4 <failedtest_x8_x7>
     470:	00000460          	.word	0x00000460
     474:	00009176          	.word	0x00009176
     478:	004d0d13          	addi	x26,x26,4

  mv x25, x24 # switch data pointer register to avoid conflict with test
     47c:	000c0c93          	addi	x25,x24,0
# Testcase cp_rs1 (Test source rs1 = x24)
  RVTEST_TESTDATA_LOAD_INT(x25, x24) # load rs1: x24 = 0xf6f5272a
     480:	000cac03          	lw	x24,0(x25)
     484:	004c8c93          	addi	x25,x25,4
  RVTEST_TESTDATA_LOAD_INT(x25, x11) # load rs2: x11 = 0x06ebe42a
     488:	000ca583          	lw	x11,0(x25)
     48c:	004c8c93          	addi	x25,x25,4

00000490 <I_sll_cg_cp_rs1_b24>:
I_sll_cg_cp_rs1_b24:
  sll x23, x24, x11 # perform operation
     490:	00bc1bb3          	sll	x23,x24,x11
  # Check if x23 contains the expected result. x26 is the signature ptr, x8 is the link ptr, x7 is a temp reg.
  RVTEST_SIGUPD(x26, x8, x7, x23, I_sll_cg_cp_rs1_b24, I_sll_cg_cp_rs1_b24_str)
     494:	000d2383          	lw	x7,0(x26)
     498:	01738863          	beq	x7,x23,4a8 <I_sll_cg_cp_rs1_b24+0x18>
     49c:	0380446f          	jal	x8,44d4 <failedtest_x8_x7>
     4a0:	00000490          	.word	0x00000490
     4a4:	000091a5          	.word	0x000091a5
     4a8:	004d0d13          	addi	x26,x26,4

  mv x6, x25 # switch data pointer register to avoid conflict with test
     4ac:	000c8313          	addi	x6,x25,0
# Testcase cp_rs1 (Test source rs1 = x25)
  RVTEST_TESTDATA_LOAD_INT(x6, x25) # load rs1: x25 = 0x60c3a560
     4b0:	00032c83          	lw	x25,0(x6)
     4b4:	00430313          	addi	x6,x6,4
  RVTEST_TESTDATA_LOAD_INT(x6, x23) # load rs2: x23 = 0xa90b93e2
     4b8:	00032b83          	lw	x23,0(x6)
     4bc:	00430313          	addi	x6,x6,4

000004c0 <I_sll_cg_cp_rs1_b25>:
I_sll_cg_cp_rs1_b25:
  sll x11, x25, x23 # perform operation
     4c0:	017c95b3          	sll	x11,x25,x23
  # Check if x11 contains the expected result. x26 is the signature ptr, x8 is the link ptr, x7 is a temp reg.
  RVTEST_SIGUPD(x26, x8, x7, x11, I_sll_cg_cp_rs1_b25, I_sll_cg_cp_rs1_b25_str)
     4c4:	000d2383          	lw	x7,0(x26)
     4c8:	00b38863          	beq	x7,x11,4d8 <I_sll_cg_cp_rs1_b25+0x18>
     4cc:	0080446f          	jal	x8,44d4 <failedtest_x8_x7>
     4d0:	000004c0          	.word	0x000004c0
     4d4:	000091d4          	.word	0x000091d4
     4d8:	004d0d13          	addi	x26,x26,4

  mv x23, x26 # switch signature pointer register to avoid conflict with test
     4dc:	000d0b93          	addi	x23,x26,0
# Testcase cp_rs1 (Test source rs1 = x26)
  RVTEST_TESTDATA_LOAD_INT(x6, x26) # load rs1: x26 = 0xc5eff521
     4e0:	00032d03          	lw	x26,0(x6)
     4e4:	00430313          	addi	x6,x6,4
  RVTEST_TESTDATA_LOAD_INT(x6, x16) # load rs2: x16 = 0x6a1f4e68
     4e8:	00032803          	lw	x16,0(x6)
     4ec:	00430313          	addi	x6,x6,4

000004f0 <I_sll_cg_cp_rs1_b26>:
I_sll_cg_cp_rs1_b26:
  sll x24, x26, x16 # perform operation
     4f0:	010d1c33          	sll	x24,x26,x16
  # Check if x24 contains the expected result. x23 is the signature ptr, x8 is the link ptr, x7 is a temp reg.
  RVTEST_SIGUPD(x23, x8, x7, x24, I_sll_cg_cp_rs1_b26, I_sll_cg_cp_rs1_b26_str)
     4f4:	000ba383          	lw	x7,0(x23)
     4f8:	01838863          	beq	x7,x24,508 <I_sll_cg_cp_rs1_b26+0x18>
     4fc:	7d90346f          	jal	x8,44d4 <failedtest_x8_x7>
     500:	000004f0          	.word	0x000004f0
     504:	00009203          	.word	0x00009203
     508:	004b8b93          	addi	x23,x23,4

# Testcase cp_rs1 (Test source rs1 = x27)
  RVTEST_TESTDATA_LOAD_INT(x6, x27) # load rs1: x27 = 0x98372430
     50c:	00032d83          	lw	x27,0(x6)
     510:	00430313          	addi	x6,x6,4
  RVTEST_TESTDATA_LOAD_INT(x6, x5) # load rs2: x5 = 0x2c9446a0
     514:	00032283          	lw	x5,0(x6)
     518:	00430313          	addi	x6,x6,4

0000051c <I_sll_cg_cp_rs1_b27>:
I_sll_cg_cp_rs1_b27:
  sll x9, x27, x5 # perform operation
     51c:	005d94b3          	sll	x9,x27,x5
  # Check if x9 contains the expected result. x23 is the signature ptr, x8 is the link ptr, x7 is a temp reg.
  RVTEST_SIGUPD(x23, x8, x7, x9, I_sll_cg_cp_rs1_b27, I_sll_cg_cp_rs1_b27_str)
     520:	000ba383          	lw	x7,0(x23)
     524:	00938863          	beq	x7,x9,534 <I_sll_cg_cp_rs1_b27+0x18>
     528:	7ad0346f          	jal	x8,44d4 <failedtest_x8_x7>
     52c:	0000051c          	.word	0x0000051c
     530:	00009232          	.word	0x00009232
     534:	004b8b93          	addi	x23,x23,4

# Testcase cp_rs1 (Test source rs1 = x28)
  RVTEST_TESTDATA_LOAD_INT(x6, x28) # load rs1: x28 = 0xbc5ee4d8
     538:	00032e03          	lw	x28,0(x6)
     53c:	00430313          	addi	x6,x6,4
  RVTEST_TESTDATA_LOAD_INT(x6, x19) # load rs2: x19 = 0x1464e2ed
     540:	00032983          	lw	x19,0(x6)
     544:	00430313          	addi	x6,x6,4

00000548 <I_sll_cg_cp_rs1_b28>:
I_sll_cg_cp_rs1_b28:
  sll x25, x28, x19 # perform operation
     548:	013e1cb3          	sll	x25,x28,x19
  # Check if x25 contains the expected result. x23 is the signature ptr, x8 is the link ptr, x7 is a temp reg.
  RVTEST_SIGUPD(x23, x8, x7, x25, I_sll_cg_cp_rs1_b28, I_sll_cg_cp_rs1_b28_str)
     54c:	000ba383          	lw	x7,0(x23)
     550:	01938863          	beq	x7,x25,560 <I_sll_cg_cp_rs1_b28+0x18>
     554:	7810346f          	jal	x8,44d4 <failedtest_x8_x7>
     558:	00000548          	.word	0x00000548
     55c:	00009261          	.word	0x00009261
     560:	004b8b93          	addi	x23,x23,4

# Testcase cp_rs1 (Test source rs1 = x29)
  RVTEST_TESTDATA_LOAD_INT(x6, x29) # load rs1: x29 = 0x02e76a64
     564:	00032e83          	lw	x29,0(x6)
     568:	00430313          	addi	x6,x6,4
  RVTEST_TESTDATA_LOAD_INT(x6, x26) # load rs2: x26 = 0x7baa1e88
     56c:	00032d03          	lw	x26,0(x6)
     570:	00430313          	addi	x6,x6,4

00000574 <I_sll_cg_cp_rs1_b29>:
I_sll_cg_cp_rs1_b29:
  sll x2, x29, x26 # perform operation
     574:	01ae9133          	sll	x2,x29,x26
  # Check if x2 contains the expected result. x23 is the signature ptr, x8 is the link ptr, x7 is a temp reg.
  RVTEST_SIGUPD(x23, x8, x7, x2, I_sll_cg_cp_rs1_b29, I_sll_cg_cp_rs1_b29_str)
     578:	000ba383          	lw	x7,0(x23)
     57c:	00238863          	beq	x7,x2,58c <I_sll_cg_cp_rs1_b29+0x18>
     580:	7550346f          	jal	x8,44d4 <failedtest_x8_x7>
     584:	00000574          	.word	0x00000574
     588:	00009290          	.word	0x00009290
     58c:	004b8b93          	addi	x23,x23,4

# Testcase cp_rs1 (Test source rs1 = x30)
  RVTEST_TESTDATA_LOAD_INT(x6, x30) # load rs1: x30 = 0x52a8cd50
     590:	00032f03          	lw	x30,0(x6)
     594:	00430313          	addi	x6,x6,4
  RVTEST_TESTDATA_LOAD_INT(x6, x17) # load rs2: x17 = 0x09662f46
     598:	00032883          	lw	x17,0(x6)
     59c:	00430313          	addi	x6,x6,4

000005a0 <I_sll_cg_cp_rs1_b30>:
I_sll_cg_cp_rs1_b30:
  sll x19, x30, x17 # perform operation
     5a0:	011f19b3          	sll	x19,x30,x17
  # Check if x19 contains the expected result. x23 is the signature ptr, x8 is the link ptr, x7 is a temp reg.
  RVTEST_SIGUPD(x23, x8, x7, x19, I_sll_cg_cp_rs1_b30, I_sll_cg_cp_rs1_b30_str)
     5a4:	000ba383          	lw	x7,0(x23)
     5a8:	01338863          	beq	x7,x19,5b8 <I_sll_cg_cp_rs1_b30+0x18>
     5ac:	7290346f          	jal	x8,44d4 <failedtest_x8_x7>
     5b0:	000005a0          	.word	0x000005a0
     5b4:	000092bf          	.word	0x000092bf
     5b8:	004b8b93          	addi	x23,x23,4

# Testcase cp_rs1 (Test source rs1 = x31)
  RVTEST_TESTDATA_LOAD_INT(x6, x31) # load rs1: x31 = 0x24bcd673
     5bc:	00032f83          	lw	x31,0(x6)
     5c0:	00430313          	addi	x6,x6,4
  RVTEST_TESTDATA_LOAD_INT(x6, x13) # load rs2: x13 = 0x3a6e35df
     5c4:	00032683          	lw	x13,0(x6)
     5c8:	00430313          	addi	x6,x6,4

000005cc <I_sll_cg_cp_rs1_b31>:
I_sll_cg_cp_rs1_b31:
  sll x5, x31, x13 # perform operation
     5cc:	00df92b3          	sll	x5,x31,x13
  # Check if x5 contains the expected result. x23 is the signature ptr, x8 is the link ptr, x7 is a temp reg.
  RVTEST_SIGUPD(x23, x8, x7, x5, I_sll_cg_cp_rs1_b31, I_sll_cg_cp_rs1_b31_str)
     5d0:	000ba383          	lw	x7,0(x23)
     5d4:	00538863          	beq	x7,x5,5e4 <I_sll_cg_cp_rs1_b31+0x18>
     5d8:	6fd0346f          	jal	x8,44d4 <failedtest_x8_x7>
     5dc:	000005cc          	.word	0x000005cc
     5e0:	000092ee          	.word	0x000092ee
     5e4:	004b8b93          	addi	x23,x23,4
/////////////////////////////////
// cp_rs2
/////////////////////////////////

# Testcase cp_rs2 (Test source rs2 = x0)
  RVTEST_TESTDATA_LOAD_INT(x6, x5) # load rs1: x5 = 0xe09180e9
     5e8:	00032283          	lw	x5,0(x6)
     5ec:	00430313          	addi	x6,x6,4
  RVTEST_TESTDATA_LOAD_INT(x6, x0) # load rs2: x0 = 0x3ed5f949
     5f0:	00032003          	lw	x0,0(x6)
     5f4:	00430313          	addi	x6,x6,4

000005f8 <I_sll_cg_cp_rs2_b0>:
I_sll_cg_cp_rs2_b0:
  sll x28, x5, x0 # perform operation
     5f8:	00029e33          	sll	x28,x5,x0
  # Check if x28 contains the expected result. x23 is the signature ptr, x8 is the link ptr, x7 is a temp reg.
  RVTEST_SIGUPD(x23, x8, x7, x28, I_sll_cg_cp_rs2_b0, I_sll_cg_cp_rs2_b0_str)
     5fc:	000ba383          	lw	x7,0(x23)
     600:	01c38863          	beq	x7,x28,610 <I_sll_cg_cp_rs2_b0+0x18>
     604:	6d10346f          	jal	x8,44d4 <failedtest_x8_x7>
     608:	000005f8          	.word	0x000005f8
     60c:	0000931d          	.word	0x0000931d
     610:	004b8b93          	addi	x23,x23,4

# Testcase cp_rs2 (Test source rs2 = x1)
  RVTEST_TESTDATA_LOAD_INT(x6, x10) # load rs1: x10 = 0xbe941c41
     614:	00032503          	lw	x10,0(x6)
     618:	00430313          	addi	x6,x6,4
  RVTEST_TESTDATA_LOAD_INT(x6, x1) # load rs2: x1 = 0xb1bcb3c2
     61c:	00032083          	lw	x1,0(x6)
     620:	00430313          	addi	x6,x6,4

00000624 <I_sll_cg_cp_rs2_b1>:
I_sll_cg_cp_rs2_b1:
  sll x26, x10, x1 # perform operation
     624:	00151d33          	sll	x26,x10,x1
  # Check if x26 contains the expected result. x23 is the signature ptr, x8 is the link ptr, x7 is a temp reg.
  RVTEST_SIGUPD(x23, x8, x7, x26, I_sll_cg_cp_rs2_b1, I_sll_cg_cp_rs2_b1_str)
     628:	000ba383          	lw	x7,0(x23)
     62c:	01a38863          	beq	x7,x26,63c <I_sll_cg_cp_rs2_b1+0x18>
     630:	6a50346f          	jal	x8,44d4 <failedtest_x8_x7>
     634:	00000624          	.word	0x00000624
     638:	0000934b          	.word	0x0000934b
     63c:	004b8b93          	addi	x23,x23,4

# Testcase cp_rs2 (Test source rs2 = x2)
  RVTEST_TESTDATA_LOAD_INT(x6, x26) # load rs1: x26 = 0x8df135bf
     640:	00032d03          	lw	x26,0(x6)
     644:	00430313          	addi	x6,x6,4
  RVTEST_TESTDATA_LOAD_INT(x6, x2) # load rs2: x2 = 0x088317b4
     648:	00032103          	lw	x2,0(x6)
     64c:	00430313          	addi	x6,x6,4

00000650 <I_sll_cg_cp_rs2_b2>:
I_sll_cg_cp_rs2_b2:
  sll x4, x26, x2 # perform operation
     650:	002d1233          	sll	x4,x26,x2
  # Check if x4 contains the expected result. x23 is the signature ptr, x8 is the link ptr, x7 is a temp reg.
  RVTEST_SIGUPD(x23, x8, x7, x4, I_sll_cg_cp_rs2_b2, I_sll_cg_cp_rs2_b2_str)
     654:	000ba383          	lw	x7,0(x23)
     658:	00438863          	beq	x7,x4,668 <I_sll_cg_cp_rs2_b2+0x18>
     65c:	6790346f          	jal	x8,44d4 <failedtest_x8_x7>
     660:	00000650          	.word	0x00000650
     664:	00009379          	.word	0x00009379
     668:	004b8b93          	addi	x23,x23,4

# Testcase cp_rs2 (Test source rs2 = x3)
  RVTEST_TESTDATA_LOAD_INT(x6, x10) # load rs1: x10 = 0xb264fb06
     66c:	00032503          	lw	x10,0(x6)
     670:	00430313          	addi	x6,x6,4
  RVTEST_TESTDATA_LOAD_INT(x6, x3) # load rs2: x3 = 0x9bacc1c4
     674:	00032183          	lw	x3,0(x6)
     678:	00430313          	addi	x6,x6,4

0000067c <I_sll_cg_cp_rs2_b3>:
I_sll_cg_cp_rs2_b3:
  sll x17, x10, x3 # perform operation
     67c:	003518b3          	sll	x17,x10,x3
  # Check if x17 contains the expected result. x23 is the signature ptr, x8 is the link ptr, x7 is a temp reg.
  RVTEST_SIGUPD(x23, x8, x7, x17, I_sll_cg_cp_rs2_b3, I_sll_cg_cp_rs2_b3_str)
     680:	000ba383          	lw	x7,0(x23)
     684:	01138863          	beq	x7,x17,694 <I_sll_cg_cp_rs2_b3+0x18>
     688:	64d0346f          	jal	x8,44d4 <failedtest_x8_x7>
     68c:	0000067c          	.word	0x0000067c
     690:	000093a7          	.word	0x000093a7
     694:	004b8b93          	addi	x23,x23,4

# Testcase cp_rs2 (Test source rs2 = x4)
  RVTEST_TESTDATA_LOAD_INT(x6, x27) # load rs1: x27 = 0xd07867f9
     698:	00032d83          	lw	x27,0(x6)
     69c:	00430313          	addi	x6,x6,4
  RVTEST_TESTDATA_LOAD_INT(x6, x4) # load rs2: x4 = 0x65d21955
     6a0:	00032203          	lw	x4,0(x6)
     6a4:	00430313          	addi	x6,x6,4

000006a8 <I_sll_cg_cp_rs2_b4>:
I_sll_cg_cp_rs2_b4:
  sll x3, x27, x4 # perform operation
     6a8:	004d91b3          	sll	x3,x27,x4
  # Check if x3 contains the expected result. x23 is the signature ptr, x8 is the link ptr, x7 is a temp reg.
  RVTEST_SIGUPD(x23, x8, x7, x3, I_sll_cg_cp_rs2_b4, I_sll_cg_cp_rs2_b4_str)
     6ac:	000ba383          	lw	x7,0(x23)
     6b0:	00338863          	beq	x7,x3,6c0 <I_sll_cg_cp_rs2_b4+0x18>
     6b4:	6210346f          	jal	x8,44d4 <failedtest_x8_x7>
     6b8:	000006a8          	.word	0x000006a8
     6bc:	000093d5          	.word	0x000093d5
     6c0:	004b8b93          	addi	x23,x23,4

# Testcase cp_rs2 (Test source rs2 = x5)
  RVTEST_TESTDATA_LOAD_INT(x6, x31) # load rs1: x31 = 0x8ed15ab4
     6c4:	00032f83          	lw	x31,0(x6)
     6c8:	00430313          	addi	x6,x6,4
  RVTEST_TESTDATA_LOAD_INT(x6, x5) # load rs2: x5 = 0x852c4fc2
     6cc:	00032283          	lw	x5,0(x6)
     6d0:	00430313          	addi	x6,x6,4

000006d4 <I_sll_cg_cp_rs2_b5>:
I_sll_cg_cp_rs2_b5:
  sll x13, x31, x5 # perform operation
     6d4:	005f96b3          	sll	x13,x31,x5
  # Check if x13 contains the expected result. x23 is the signature ptr, x8 is the link ptr, x7 is a temp reg.
  RVTEST_SIGUPD(x23, x8, x7, x13, I_sll_cg_cp_rs2_b5, I_sll_cg_cp_rs2_b5_str)
     6d8:	000ba383          	lw	x7,0(x23)
     6dc:	00d38863          	beq	x7,x13,6ec <I_sll_cg_cp_rs2_b5+0x18>
     6e0:	5f50346f          	jal	x8,44d4 <failedtest_x8_x7>
     6e4:	000006d4          	.word	0x000006d4
     6e8:	00009403          	.word	0x00009403
     6ec:	004b8b93          	addi	x23,x23,4

  mv x11, x6 # switch data pointer register to avoid conflict with test
     6f0:	00030593          	addi	x11,x6,0
# Testcase cp_rs2 (Test source rs2 = x6)
  RVTEST_TESTDATA_LOAD_INT(x11, x31) # load rs1: x31 = 0x56ed988a
     6f4:	0005af83          	lw	x31,0(x11)
     6f8:	00458593          	addi	x11,x11,4
  RVTEST_TESTDATA_LOAD_INT(x11, x6) # load rs2: x6 = 0xa9fc0cc1
     6fc:	0005a303          	lw	x6,0(x11)
     700:	00458593          	addi	x11,x11,4

00000704 <I_sll_cg_cp_rs2_b6>:
I_sll_cg_cp_rs2_b6:
  sll x15, x31, x6 # perform operation
     704:	006f97b3          	sll	x15,x31,x6
  # Check if x15 contains the expected result. x23 is the signature ptr, x8 is the link ptr, x7 is a temp reg.
  RVTEST_SIGUPD(x23, x8, x7, x15, I_sll_cg_cp_rs2_b6, I_sll_cg_cp_rs2_b6_str)
     708:	000ba383          	lw	x7,0(x23)
     70c:	00f38863          	beq	x7,x15,71c <I_sll_cg_cp_rs2_b6+0x18>
     710:	5c50346f          	jal	x8,44d4 <failedtest_x8_x7>
     714:	00000704          	.word	0x00000704
     718:	00009431          	.word	0x00009431
     71c:	004b8b93          	addi	x23,x23,4

  mv x4, x7 # switch temp register to avoid conflict with test
     720:	00038213          	addi	x4,x7,0
  mv x5, x8 # switch link pointer register to avoid conflict with test
     724:	00040293          	addi	x5,x8,0
# Testcase cp_rs2 (Test source rs2 = x7)
  RVTEST_TESTDATA_LOAD_INT(x11, x22) # load rs1: x22 = 0x447a3f26
     728:	0005ab03          	lw	x22,0(x11)
     72c:	00458593          	addi	x11,x11,4
  RVTEST_TESTDATA_LOAD_INT(x11, x7) # load rs2: x7 = 0x3521b414
     730:	0005a383          	lw	x7,0(x11)
     734:	00458593          	addi	x11,x11,4

00000738 <I_sll_cg_cp_rs2_b7>:
I_sll_cg_cp_rs2_b7:
  sll x25, x22, x7 # perform operation
     738:	007b1cb3          	sll	x25,x22,x7
  # Check if x25 contains the expected result. x23 is the signature ptr, x5 is the link ptr, x4 is a temp reg.
  RVTEST_SIGUPD(x23, x5, x4, x25, I_sll_cg_cp_rs2_b7, I_sll_cg_cp_rs2_b7_str)
     73c:	000ba203          	lw	x4,0(x23)
     740:	01920863          	beq	x4,x25,750 <I_sll_cg_cp_rs2_b7+0x18>
     744:	579032ef          	jal	x5,44bc <failedtest_x5_x4>
     748:	00000738          	.word	0x00000738
     74c:	0000945f          	.word	0x0000945f
     750:	004b8b93          	addi	x23,x23,4

# Testcase cp_rs2 (Test source rs2 = x8)
  RVTEST_TESTDATA_LOAD_INT(x11, x19) # load rs1: x19 = 0x18a445bc
     754:	0005a983          	lw	x19,0(x11)
     758:	00458593          	addi	x11,x11,4
  RVTEST_TESTDATA_LOAD_INT(x11, x8) # load rs2: x8 = 0xceee53fa
     75c:	0005a403          	lw	x8,0(x11)
     760:	00458593          	addi	x11,x11,4

00000764 <I_sll_cg_cp_rs2_b8>:
I_sll_cg_cp_rs2_b8:
  sll x18, x19, x8 # perform operation
     764:	00899933          	sll	x18,x19,x8
  # Check if x18 contains the expected result. x23 is the signature ptr, x5 is the link ptr, x4 is a temp reg.
  RVTEST_SIGUPD(x23, x5, x4, x18, I_sll_cg_cp_rs2_b8, I_sll_cg_cp_rs2_b8_str)
     768:	000ba203          	lw	x4,0(x23)
     76c:	01220863          	beq	x4,x18,77c <I_sll_cg_cp_rs2_b8+0x18>
     770:	54d032ef          	jal	x5,44bc <failedtest_x5_x4>
     774:	00000764          	.word	0x00000764
     778:	0000948d          	.word	0x0000948d
     77c:	004b8b93          	addi	x23,x23,4

# Testcase cp_rs2 (Test source rs2 = x9)
  RVTEST_TESTDATA_LOAD_INT(x11, x24) # load rs1: x24 = 0x343c4487
     780:	0005ac03          	lw	x24,0(x11)
     784:	00458593          	addi	x11,x11,4
  RVTEST_TESTDATA_LOAD_INT(x11, x9) # load rs2: x9 = 0x17f8ac71
     788:	0005a483          	lw	x9,0(x11)
     78c:	00458593          	addi	x11,x11,4

00000790 <I_sll_cg_cp_rs2_b9>:
I_sll_cg_cp_rs2_b9:
  sll x20, x24, x9 # perform operation
     790:	009c1a33          	sll	x20,x24,x9
  # Check if x20 contains the expected result. x23 is the signature ptr, x5 is the link ptr, x4 is a temp reg.
  RVTEST_SIGUPD(x23, x5, x4, x20, I_sll_cg_cp_rs2_b9, I_sll_cg_cp_rs2_b9_str)
     794:	000ba203          	lw	x4,0(x23)
     798:	01420863          	beq	x4,x20,7a8 <I_sll_cg_cp_rs2_b9+0x18>
     79c:	521032ef          	jal	x5,44bc <failedtest_x5_x4>
     7a0:	00000790          	.word	0x00000790
     7a4:	000094bb          	.word	0x000094bb
     7a8:	004b8b93          	addi	x23,x23,4

# Testcase cp_rs2 (Test source rs2 = x10)
  RVTEST_TESTDATA_LOAD_INT(x11, x13) # load rs1: x13 = 0x2412d068
     7ac:	0005a683          	lw	x13,0(x11)
     7b0:	00458593          	addi	x11,x11,4
  RVTEST_TESTDATA_LOAD_INT(x11, x10) # load rs2: x10 = 0x8d96d310
     7b4:	0005a503          	lw	x10,0(x11)
     7b8:	00458593          	addi	x11,x11,4

000007bc <I_sll_cg_cp_rs2_b10>:
I_sll_cg_cp_rs2_b10:
  sll x9, x13, x10 # perform operation
     7bc:	00a694b3          	sll	x9,x13,x10
  # Check if x9 contains the expected result. x23 is the signature ptr, x5 is the link ptr, x4 is a temp reg.
  RVTEST_SIGUPD(x23, x5, x4, x9, I_sll_cg_cp_rs2_b10, I_sll_cg_cp_rs2_b10_str)
     7c0:	000ba203          	lw	x4,0(x23)
     7c4:	00920863          	beq	x4,x9,7d4 <I_sll_cg_cp_rs2_b10+0x18>
     7c8:	4f5032ef          	jal	x5,44bc <failedtest_x5_x4>
     7cc:	000007bc          	.word	0x000007bc
     7d0:	000094e9          	.word	0x000094e9
     7d4:	004b8b93          	addi	x23,x23,4

  mv x2, x11 # switch data pointer register to avoid conflict with test
     7d8:	00058113          	addi	x2,x11,0
# Testcase cp_rs2 (Test source rs2 = x11)
  RVTEST_TESTDATA_LOAD_INT(x2, x13) # load rs1: x13 = 0x3b29e5bb
     7dc:	00012683          	lw	x13,0(x2)
     7e0:	00410113          	addi	x2,x2,4
  RVTEST_TESTDATA_LOAD_INT(x2, x11) # load rs2: x11 = 0x88edda5a
     7e4:	00012583          	lw	x11,0(x2)
     7e8:	00410113          	addi	x2,x2,4

000007ec <I_sll_cg_cp_rs2_b11>:
I_sll_cg_cp_rs2_b11:
  sll x3, x13, x11 # perform operation
     7ec:	00b691b3          	sll	x3,x13,x11
  # Check if x3 contains the expected result. x23 is the signature ptr, x5 is the link ptr, x4 is a temp reg.
  RVTEST_SIGUPD(x23, x5, x4, x3, I_sll_cg_cp_rs2_b11, I_sll_cg_cp_rs2_b11_str)
     7f0:	000ba203          	lw	x4,0(x23)
     7f4:	00320863          	beq	x4,x3,804 <I_sll_cg_cp_rs2_b11+0x18>
     7f8:	4c5032ef          	jal	x5,44bc <failedtest_x5_x4>
     7fc:	000007ec          	.word	0x000007ec
     800:	00009518          	.word	0x00009518
     804:	004b8b93          	addi	x23,x23,4

# Testcase cp_rs2 (Test source rs2 = x12)
  RVTEST_TESTDATA_LOAD_INT(x2, x9) # load rs1: x9 = 0x0ff7f256
     808:	00012483          	lw	x9,0(x2)
     80c:	00410113          	addi	x2,x2,4
  RVTEST_TESTDATA_LOAD_INT(x2, x12) # load rs2: x12 = 0x97eccb5c
     810:	00012603          	lw	x12,0(x2)
     814:	00410113          	addi	x2,x2,4

00000818 <I_sll_cg_cp_rs2_b12>:
I_sll_cg_cp_rs2_b12:
  sll x29, x9, x12 # perform operation
     818:	00c49eb3          	sll	x29,x9,x12
  # Check if x29 contains the expected result. x23 is the signature ptr, x5 is the link ptr, x4 is a temp reg.
  RVTEST_SIGUPD(x23, x5, x4, x29, I_sll_cg_cp_rs2_b12, I_sll_cg_cp_rs2_b12_str)
     81c:	000ba203          	lw	x4,0(x23)
     820:	01d20863          	beq	x4,x29,830 <I_sll_cg_cp_rs2_b12+0x18>
     824:	499032ef          	jal	x5,44bc <failedtest_x5_x4>
     828:	00000818          	.word	0x00000818
     82c:	00009547          	.word	0x00009547
     830:	004b8b93          	addi	x23,x23,4

# Testcase cp_rs2 (Test source rs2 = x13)
  RVTEST_TESTDATA_LOAD_INT(x2, x8) # load rs1: x8 = 0x096fe0da
     834:	00012403          	lw	x8,0(x2)
     838:	00410113          	addi	x2,x2,4
  RVTEST_TESTDATA_LOAD_INT(x2, x13) # load rs2: x13 = 0xc37de432
     83c:	00012683          	lw	x13,0(x2)
     840:	00410113          	addi	x2,x2,4

00000844 <I_sll_cg_cp_rs2_b13>:
I_sll_cg_cp_rs2_b13:
  sll x17, x8, x13 # perform operation
     844:	00d418b3          	sll	x17,x8,x13
  # Check if x17 contains the expected result. x23 is the signature ptr, x5 is the link ptr, x4 is a temp reg.
  RVTEST_SIGUPD(x23, x5, x4, x17, I_sll_cg_cp_rs2_b13, I_sll_cg_cp_rs2_b13_str)
     848:	000ba203          	lw	x4,0(x23)
     84c:	01120863          	beq	x4,x17,85c <I_sll_cg_cp_rs2_b13+0x18>
     850:	46d032ef          	jal	x5,44bc <failedtest_x5_x4>
     854:	00000844          	.word	0x00000844
     858:	00009576          	.word	0x00009576
     85c:	004b8b93          	addi	x23,x23,4

# Testcase cp_rs2 (Test source rs2 = x14)
  RVTEST_TESTDATA_LOAD_INT(x2, x24) # load rs1: x24 = 0x11478e77
     860:	00012c03          	lw	x24,0(x2)
     864:	00410113          	addi	x2,x2,4
  RVTEST_TESTDATA_LOAD_INT(x2, x14) # load rs2: x14 = 0x185f6dc3
     868:	00012703          	lw	x14,0(x2)
     86c:	00410113          	addi	x2,x2,4

00000870 <I_sll_cg_cp_rs2_b14>:
I_sll_cg_cp_rs2_b14:
  sll x17, x24, x14 # perform operation
     870:	00ec18b3          	sll	x17,x24,x14
  # Check if x17 contains the expected result. x23 is the signature ptr, x5 is the link ptr, x4 is a temp reg.
  RVTEST_SIGUPD(x23, x5, x4, x17, I_sll_cg_cp_rs2_b14, I_sll_cg_cp_rs2_b14_str)
     874:	000ba203          	lw	x4,0(x23)
     878:	01120863          	beq	x4,x17,888 <I_sll_cg_cp_rs2_b14+0x18>
     87c:	441032ef          	jal	x5,44bc <failedtest_x5_x4>
     880:	00000870          	.word	0x00000870
     884:	000095a5          	.word	0x000095a5
     888:	004b8b93          	addi	x23,x23,4

# Testcase cp_rs2 (Test source rs2 = x15)
  RVTEST_TESTDATA_LOAD_INT(x2, x25) # load rs1: x25 = 0xe822ea08
     88c:	00012c83          	lw	x25,0(x2)
     890:	00410113          	addi	x2,x2,4
  RVTEST_TESTDATA_LOAD_INT(x2, x15) # load rs2: x15 = 0x7bb8f2eb
     894:	00012783          	lw	x15,0(x2)
     898:	00410113          	addi	x2,x2,4

0000089c <I_sll_cg_cp_rs2_b15>:
I_sll_cg_cp_rs2_b15:
  sll x26, x25, x15 # perform operation
     89c:	00fc9d33          	sll	x26,x25,x15
  # Check if x26 contains the expected result. x23 is the signature ptr, x5 is the link ptr, x4 is a temp reg.
  RVTEST_SIGUPD(x23, x5, x4, x26, I_sll_cg_cp_rs2_b15, I_sll_cg_cp_rs2_b15_str)
     8a0:	000ba203          	lw	x4,0(x23)
     8a4:	01a20863          	beq	x4,x26,8b4 <I_sll_cg_cp_rs2_b15+0x18>
     8a8:	415032ef          	jal	x5,44bc <failedtest_x5_x4>
     8ac:	0000089c          	.word	0x0000089c
     8b0:	000095d4          	.word	0x000095d4
     8b4:	004b8b93          	addi	x23,x23,4

# Testcase cp_rs2 (Test source rs2 = x16)
  RVTEST_TESTDATA_LOAD_INT(x2, x6) # load rs1: x6 = 0xb3e666d0
     8b8:	00012303          	lw	x6,0(x2)
     8bc:	00410113          	addi	x2,x2,4
  RVTEST_TESTDATA_LOAD_INT(x2, x16) # load rs2: x16 = 0x3a3070a9
     8c0:	00012803          	lw	x16,0(x2)
     8c4:	00410113          	addi	x2,x2,4

000008c8 <I_sll_cg_cp_rs2_b16>:
I_sll_cg_cp_rs2_b16:
  sll x20, x6, x16 # perform operation
     8c8:	01031a33          	sll	x20,x6,x16
  # Check if x20 contains the expected result. x23 is the signature ptr, x5 is the link ptr, x4 is a temp reg.
  RVTEST_SIGUPD(x23, x5, x4, x20, I_sll_cg_cp_rs2_b16, I_sll_cg_cp_rs2_b16_str)
     8cc:	000ba203          	lw	x4,0(x23)
     8d0:	01420863          	beq	x4,x20,8e0 <I_sll_cg_cp_rs2_b16+0x18>
     8d4:	3e9032ef          	jal	x5,44bc <failedtest_x5_x4>
     8d8:	000008c8          	.word	0x000008c8
     8dc:	00009603          	.word	0x00009603
     8e0:	004b8b93          	addi	x23,x23,4

# Testcase cp_rs2 (Test source rs2 = x17)
  RVTEST_TESTDATA_LOAD_INT(x2, x13) # load rs1: x13 = 0x62ce16fc
     8e4:	00012683          	lw	x13,0(x2)
     8e8:	00410113          	addi	x2,x2,4
  RVTEST_TESTDATA_LOAD_INT(x2, x17) # load rs2: x17 = 0xc41a8e24
     8ec:	00012883          	lw	x17,0(x2)
     8f0:	00410113          	addi	x2,x2,4

000008f4 <I_sll_cg_cp_rs2_b17>:
I_sll_cg_cp_rs2_b17:
  sll x29, x13, x17 # perform operation
     8f4:	01169eb3          	sll	x29,x13,x17
  # Check if x29 contains the expected result. x23 is the signature ptr, x5 is the link ptr, x4 is a temp reg.
  RVTEST_SIGUPD(x23, x5, x4, x29, I_sll_cg_cp_rs2_b17, I_sll_cg_cp_rs2_b17_str)
     8f8:	000ba203          	lw	x4,0(x23)
     8fc:	01d20863          	beq	x4,x29,90c <I_sll_cg_cp_rs2_b17+0x18>
     900:	3bd032ef          	jal	x5,44bc <failedtest_x5_x4>
     904:	000008f4          	.word	0x000008f4
     908:	00009632          	.word	0x00009632
     90c:	004b8b93          	addi	x23,x23,4

# Testcase cp_rs2 (Test source rs2 = x18)
  RVTEST_TESTDATA_LOAD_INT(x2, x28) # load rs1: x28 = 0xe8c70c02
     910:	00012e03          	lw	x28,0(x2)
     914:	00410113          	addi	x2,x2,4
  RVTEST_TESTDATA_LOAD_INT(x2, x18) # load rs2: x18 = 0xa99678a9
     918:	00012903          	lw	x18,0(x2)
     91c:	00410113          	addi	x2,x2,4

00000920 <I_sll_cg_cp_rs2_b18>:
I_sll_cg_cp_rs2_b18:
  sll x8, x28, x18 # perform operation
     920:	012e1433          	sll	x8,x28,x18
  # Check if x8 contains the expected result. x23 is the signature ptr, x5 is the link ptr, x4 is a temp reg.
  RVTEST_SIGUPD(x23, x5, x4, x8, I_sll_cg_cp_rs2_b18, I_sll_cg_cp_rs2_b18_str)
     924:	000ba203          	lw	x4,0(x23)
     928:	00820863          	beq	x4,x8,938 <I_sll_cg_cp_rs2_b18+0x18>
     92c:	391032ef          	jal	x5,44bc <failedtest_x5_x4>
     930:	00000920          	.word	0x00000920
     934:	00009661          	.word	0x00009661
     938:	004b8b93          	addi	x23,x23,4

# Testcase cp_rs2 (Test source rs2 = x19)
  RVTEST_TESTDATA_LOAD_INT(x2, x3) # load rs1: x3 = 0x997e3079
     93c:	00012183          	lw	x3,0(x2)
     940:	00410113          	addi	x2,x2,4
  RVTEST_TESTDATA_LOAD_INT(x2, x19) # load rs2: x19 = 0xbe866eb2
     944:	00012983          	lw	x19,0(x2)
     948:	00410113          	addi	x2,x2,4

0000094c <I_sll_cg_cp_rs2_b19>:
I_sll_cg_cp_rs2_b19:
  sll x25, x3, x19 # perform operation
     94c:	01319cb3          	sll	x25,x3,x19
  # Check if x25 contains the expected result. x23 is the signature ptr, x5 is the link ptr, x4 is a temp reg.
  RVTEST_SIGUPD(x23, x5, x4, x25, I_sll_cg_cp_rs2_b19, I_sll_cg_cp_rs2_b19_str)
     950:	000ba203          	lw	x4,0(x23)
     954:	01920863          	beq	x4,x25,964 <I_sll_cg_cp_rs2_b19+0x18>
     958:	365032ef          	jal	x5,44bc <failedtest_x5_x4>
     95c:	0000094c          	.word	0x0000094c
     960:	00009690          	.word	0x00009690
     964:	004b8b93          	addi	x23,x23,4

# Testcase cp_rs2 (Test source rs2 = x20)
  RVTEST_TESTDATA_LOAD_INT(x2, x30) # load rs1: x30 = 0x83a813a5
     968:	00012f03          	lw	x30,0(x2)
     96c:	00410113          	addi	x2,x2,4
  RVTEST_TESTDATA_LOAD_INT(x2, x20) # load rs2: x20 = 0x12696180
     970:	00012a03          	lw	x20,0(x2)
     974:	00410113          	addi	x2,x2,4

00000978 <I_sll_cg_cp_rs2_b20>:
I_sll_cg_cp_rs2_b20:
  sll x19, x30, x20 # perform operation
     978:	014f19b3          	sll	x19,x30,x20
  # Check if x19 contains the expected result. x23 is the signature ptr, x5 is the link ptr, x4 is a temp reg.
  RVTEST_SIGUPD(x23, x5, x4, x19, I_sll_cg_cp_rs2_b20, I_sll_cg_cp_rs2_b20_str)
     97c:	000ba203          	lw	x4,0(x23)
     980:	01320863          	beq	x4,x19,990 <I_sll_cg_cp_rs2_b20+0x18>
     984:	339032ef          	jal	x5,44bc <failedtest_x5_x4>
     988:	00000978          	.word	0x00000978
     98c:	000096bf          	.word	0x000096bf
     990:	004b8b93          	addi	x23,x23,4

# Testcase cp_rs2 (Test source rs2 = x21)
  RVTEST_TESTDATA_LOAD_INT(x2, x1) # load rs1: x1 = 0x9e4956da
     994:	00012083          	lw	x1,0(x2)
     998:	00410113          	addi	x2,x2,4
  RVTEST_TESTDATA_LOAD_INT(x2, x21) # load rs2: x21 = 0x7bab6609
     99c:	00012a83          	lw	x21,0(x2)
     9a0:	00410113          	addi	x2,x2,4

000009a4 <I_sll_cg_cp_rs2_b21>:
I_sll_cg_cp_rs2_b21:
  sll x22, x1, x21 # perform operation
     9a4:	01509b33          	sll	x22,x1,x21
  # Check if x22 contains the expected result. x23 is the signature ptr, x5 is the link ptr, x4 is a temp reg.
  RVTEST_SIGUPD(x23, x5, x4, x22, I_sll_cg_cp_rs2_b21, I_sll_cg_cp_rs2_b21_str)
     9a8:	000ba203          	lw	x4,0(x23)
     9ac:	01620863          	beq	x4,x22,9bc <I_sll_cg_cp_rs2_b21+0x18>
     9b0:	30d032ef          	jal	x5,44bc <failedtest_x5_x4>
     9b4:	000009a4          	.word	0x000009a4
     9b8:	000096ee          	.word	0x000096ee
     9bc:	004b8b93          	addi	x23,x23,4

# Testcase cp_rs2 (Test source rs2 = x22)
  RVTEST_TESTDATA_LOAD_INT(x2, x9) # load rs1: x9 = 0x1eda63ac
     9c0:	00012483          	lw	x9,0(x2)
     9c4:	00410113          	addi	x2,x2,4
  RVTEST_TESTDATA_LOAD_INT(x2, x22) # load rs2: x22 = 0x1c6567de
     9c8:	00012b03          	lw	x22,0(x2)
     9cc:	00410113          	addi	x2,x2,4

000009d0 <I_sll_cg_cp_rs2_b22>:
I_sll_cg_cp_rs2_b22:
  sll x31, x9, x22 # perform operation
     9d0:	01649fb3          	sll	x31,x9,x22
  # Check if x31 contains the expected result. x23 is the signature ptr, x5 is the link ptr, x4 is a temp reg.
  RVTEST_SIGUPD(x23, x5, x4, x31, I_sll_cg_cp_rs2_b22, I_sll_cg_cp_rs2_b22_str)
     9d4:	000ba203          	lw	x4,0(x23)
     9d8:	01f20863          	beq	x4,x31,9e8 <I_sll_cg_cp_rs2_b22+0x18>
     9dc:	2e1032ef          	jal	x5,44bc <failedtest_x5_x4>
     9e0:	000009d0          	.word	0x000009d0
     9e4:	0000971d          	.word	0x0000971d
     9e8:	004b8b93          	addi	x23,x23,4

  mv x20, x23 # switch signature pointer register to avoid conflict with test
     9ec:	000b8a13          	addi	x20,x23,0
# Testcase cp_rs2 (Test source rs2 = x23)
  RVTEST_TESTDATA_LOAD_INT(x2, x0) # load rs1: x0 = 0x472f1e2d
     9f0:	00012003          	lw	x0,0(x2)
     9f4:	00410113          	addi	x2,x2,4
  RVTEST_TESTDATA_LOAD_INT(x2, x23) # load rs2: x23 = 0x2912682d
     9f8:	00012b83          	lw	x23,0(x2)
     9fc:	00410113          	addi	x2,x2,4

00000a00 <I_sll_cg_cp_rs2_b23>:
I_sll_cg_cp_rs2_b23:
  sll x27, x0, x23 # perform operation
     a00:	01701db3          	sll	x27,x0,x23
  # Check if x27 contains the expected result. x20 is the signature ptr, x5 is the link ptr, x4 is a temp reg.
  RVTEST_SIGUPD(x20, x5, x4, x27, I_sll_cg_cp_rs2_b23, I_sll_cg_cp_rs2_b23_str)
     a04:	000a2203          	lw	x4,0(x20)
     a08:	01b20863          	beq	x4,x27,a18 <I_sll_cg_cp_rs2_b23+0x18>
     a0c:	2b1032ef          	jal	x5,44bc <failedtest_x5_x4>
     a10:	00000a00          	.word	0x00000a00
     a14:	0000974c          	.word	0x0000974c
     a18:	004a0a13          	addi	x20,x20,4

# Testcase cp_rs2 (Test source rs2 = x24)
  RVTEST_TESTDATA_LOAD_INT(x2, x31) # load rs1: x31 = 0x2aafa8d8
     a1c:	00012f83          	lw	x31,0(x2)
     a20:	00410113          	addi	x2,x2,4
  RVTEST_TESTDATA_LOAD_INT(x2, x24) # load rs2: x24 = 0x5022e418
     a24:	00012c03          	lw	x24,0(x2)
     a28:	00410113          	addi	x2,x2,4

00000a2c <I_sll_cg_cp_rs2_b24>:
I_sll_cg_cp_rs2_b24:
  sll x1, x31, x24 # perform operation
     a2c:	018f90b3          	sll	x1,x31,x24
  # Check if x1 contains the expected result. x20 is the signature ptr, x5 is the link ptr, x4 is a temp reg.
  RVTEST_SIGUPD(x20, x5, x4, x1, I_sll_cg_cp_rs2_b24, I_sll_cg_cp_rs2_b24_str)
     a30:	000a2203          	lw	x4,0(x20)
     a34:	00120863          	beq	x4,x1,a44 <I_sll_cg_cp_rs2_b24+0x18>
     a38:	285032ef          	jal	x5,44bc <failedtest_x5_x4>
     a3c:	00000a2c          	.word	0x00000a2c
     a40:	0000977b          	.word	0x0000977b
     a44:	004a0a13          	addi	x20,x20,4

# Testcase cp_rs2 (Test source rs2 = x25)
  RVTEST_TESTDATA_LOAD_INT(x2, x26) # load rs1: x26 = 0xe0aed8bc
     a48:	00012d03          	lw	x26,0(x2)
     a4c:	00410113          	addi	x2,x2,4
  RVTEST_TESTDATA_LOAD_INT(x2, x25) # load rs2: x25 = 0xe2bd4ae3
     a50:	00012c83          	lw	x25,0(x2)
     a54:	00410113          	addi	x2,x2,4

00000a58 <I_sll_cg_cp_rs2_b25>:
I_sll_cg_cp_rs2_b25:
  sll x21, x26, x25 # perform operation
     a58:	019d1ab3          	sll	x21,x26,x25
  # Check if x21 contains the expected result. x20 is the signature ptr, x5 is the link ptr, x4 is a temp reg.
  RVTEST_SIGUPD(x20, x5, x4, x21, I_sll_cg_cp_rs2_b25, I_sll_cg_cp_rs2_b25_str)
     a5c:	000a2203          	lw	x4,0(x20)
     a60:	01520863          	beq	x4,x21,a70 <I_sll_cg_cp_rs2_b25+0x18>
     a64:	259032ef          	jal	x5,44bc <failedtest_x5_x4>
     a68:	00000a58          	.word	0x00000a58
     a6c:	000097aa          	.word	0x000097aa
     a70:	004a0a13          	addi	x20,x20,4

# Testcase cp_rs2 (Test source rs2 = x26)
  RVTEST_TESTDATA_LOAD_INT(x2, x27) # load rs1: x27 = 0xe45a16b9
     a74:	00012d83          	lw	x27,0(x2)
     a78:	00410113          	addi	x2,x2,4
  RVTEST_TESTDATA_LOAD_INT(x2, x26) # load rs2: x26 = 0x58de3c35
     a7c:	00012d03          	lw	x26,0(x2)
     a80:	00410113          	addi	x2,x2,4

00000a84 <I_sll_cg_cp_rs2_b26>:
I_sll_cg_cp_rs2_b26:
  sll x1, x27, x26 # perform operation
     a84:	01ad90b3          	sll	x1,x27,x26
  # Check if x1 contains the expected result. x20 is the signature ptr, x5 is the link ptr, x4 is a temp reg.
  RVTEST_SIGUPD(x20, x5, x4, x1, I_sll_cg_cp_rs2_b26, I_sll_cg_cp_rs2_b26_str)
     a88:	000a2203          	lw	x4,0(x20)
     a8c:	00120863          	beq	x4,x1,a9c <I_sll_cg_cp_rs2_b26+0x18>
     a90:	22d032ef          	jal	x5,44bc <failedtest_x5_x4>
     a94:	00000a84          	.word	0x00000a84
     a98:	000097d9          	.word	0x000097d9
     a9c:	004a0a13          	addi	x20,x20,4

# Testcase cp_rs2 (Test source rs2 = x27)
  RVTEST_TESTDATA_LOAD_INT(x2, x14) # load rs1: x14 = 0xd5cd042c
     aa0:	00012703          	lw	x14,0(x2)
     aa4:	00410113          	addi	x2,x2,4
  RVTEST_TESTDATA_LOAD_INT(x2, x27) # load rs2: x27 = 0x7db7446b
     aa8:	00012d83          	lw	x27,0(x2)
     aac:	00410113          	addi	x2,x2,4

00000ab0 <I_sll_cg_cp_rs2_b27>:
I_sll_cg_cp_rs2_b27:
  sll x8, x14, x27 # perform operation
     ab0:	01b71433          	sll	x8,x14,x27
  # Check if x8 contains the expected result. x20 is the signature ptr, x5 is the link ptr, x4 is a temp reg.
  RVTEST_SIGUPD(x20, x5, x4, x8, I_sll_cg_cp_rs2_b27, I_sll_cg_cp_rs2_b27_str)
     ab4:	000a2203          	lw	x4,0(x20)
     ab8:	00820863          	beq	x4,x8,ac8 <I_sll_cg_cp_rs2_b27+0x18>
     abc:	201032ef          	jal	x5,44bc <failedtest_x5_x4>
     ac0:	00000ab0          	.word	0x00000ab0
     ac4:	00009808          	.word	0x00009808
     ac8:	004a0a13          	addi	x20,x20,4

# Testcase cp_rs2 (Test source rs2 = x28)
  RVTEST_TESTDATA_LOAD_INT(x2, x30) # load rs1: x30 = 0x610bac06
     acc:	00012f03          	lw	x30,0(x2)
     ad0:	00410113          	addi	x2,x2,4
  RVTEST_TESTDATA_LOAD_INT(x2, x28) # load rs2: x28 = 0xb80e7a2d
     ad4:	00012e03          	lw	x28,0(x2)
     ad8:	00410113          	addi	x2,x2,4

00000adc <I_sll_cg_cp_rs2_b28>:
I_sll_cg_cp_rs2_b28:
  sll x29, x30, x28 # perform operation
     adc:	01cf1eb3          	sll	x29,x30,x28
  # Check if x29 contains the expected result. x20 is the signature ptr, x5 is the link ptr, x4 is a temp reg.
  RVTEST_SIGUPD(x20, x5, x4, x29, I_sll_cg_cp_rs2_b28, I_sll_cg_cp_rs2_b28_str)
     ae0:	000a2203          	lw	x4,0(x20)
     ae4:	01d20863          	beq	x4,x29,af4 <I_sll_cg_cp_rs2_b28+0x18>
     ae8:	1d5032ef          	jal	x5,44bc <failedtest_x5_x4>
     aec:	00000adc          	.word	0x00000adc
     af0:	00009837          	.word	0x00009837
     af4:	004a0a13          	addi	x20,x20,4

# Testcase cp_rs2 (Test source rs2 = x29)
  RVTEST_TESTDATA_LOAD_INT(x2, x19) # load rs1: x19 = 0x3daa9150
     af8:	00012983          	lw	x19,0(x2)
     afc:	00410113          	addi	x2,x2,4
  RVTEST_TESTDATA_LOAD_INT(x2, x29) # load rs2: x29 = 0x63b039aa
     b00:	00012e83          	lw	x29,0(x2)
     b04:	00410113          	addi	x2,x2,4

00000b08 <I_sll_cg_cp_rs2_b29>:
I_sll_cg_cp_rs2_b29:
  sll x0, x19, x29 # perform operation
     b08:	01d99033          	sll	x0,x19,x29
  # Check if x0 contains the expected result. x20 is the signature ptr, x5 is the link ptr, x4 is a temp reg.
  RVTEST_SIGUPD(x20, x5, x4, x0, I_sll_cg_cp_rs2_b29, I_sll_cg_cp_rs2_b29_str)
     b0c:	000a2203          	lw	x4,0(x20)
     b10:	00020863          	beq	x4,x0,b20 <I_sll_cg_cp_rs2_b29+0x18>
     b14:	1a9032ef          	jal	x5,44bc <failedtest_x5_x4>
     b18:	00000b08          	.word	0x00000b08
     b1c:	00009866          	.word	0x00009866
     b20:	004a0a13          	addi	x20,x20,4

# Testcase cp_rs2 (Test source rs2 = x30)
  RVTEST_TESTDATA_LOAD_INT(x2, x16) # load rs1: x16 = 0x07a27150
     b24:	00012803          	lw	x16,0(x2)
     b28:	00410113          	addi	x2,x2,4
  RVTEST_TESTDATA_LOAD_INT(x2, x30) # load rs2: x30 = 0x27b22a0a
     b2c:	00012f03          	lw	x30,0(x2)
     b30:	00410113          	addi	x2,x2,4

00000b34 <I_sll_cg_cp_rs2_b30>:
I_sll_cg_cp_rs2_b30:
  sll x1, x16, x30 # perform operation
     b34:	01e810b3          	sll	x1,x16,x30
  # Check if x1 contains the expected result. x20 is the signature ptr, x5 is the link ptr, x4 is a temp reg.
  RVTEST_SIGUPD(x20, x5, x4, x1, I_sll_cg_cp_rs2_b30, I_sll_cg_cp_rs2_b30_str)
     b38:	000a2203          	lw	x4,0(x20)
     b3c:	00120863          	beq	x4,x1,b4c <I_sll_cg_cp_rs2_b30+0x18>
     b40:	17d032ef          	jal	x5,44bc <failedtest_x5_x4>
     b44:	00000b34          	.word	0x00000b34
     b48:	00009895          	.word	0x00009895
     b4c:	004a0a13          	addi	x20,x20,4

# Testcase cp_rs2 (Test source rs2 = x31)
  RVTEST_TESTDATA_LOAD_INT(x2, x18) # load rs1: x18 = 0x8bd96b21
     b50:	00012903          	lw	x18,0(x2)
     b54:	00410113          	addi	x2,x2,4
  RVTEST_TESTDATA_LOAD_INT(x2, x31) # load rs2: x31 = 0xcc820ea9
     b58:	00012f83          	lw	x31,0(x2)
     b5c:	00410113          	addi	x2,x2,4

00000b60 <I_sll_cg_cp_rs2_b31>:
I_sll_cg_cp_rs2_b31:
  sll x6, x18, x31 # perform operation
     b60:	01f91333          	sll	x6,x18,x31
  # Check if x6 contains the expected result. x20 is the signature ptr, x5 is the link ptr, x4 is a temp reg.
  RVTEST_SIGUPD(x20, x5, x4, x6, I_sll_cg_cp_rs2_b31, I_sll_cg_cp_rs2_b31_str)
     b64:	000a2203          	lw	x4,0(x20)
     b68:	00620863          	beq	x4,x6,b78 <I_sll_cg_cp_rs2_b31+0x18>
     b6c:	151032ef          	jal	x5,44bc <failedtest_x5_x4>
     b70:	00000b60          	.word	0x00000b60
     b74:	000098c4          	.word	0x000098c4
     b78:	004a0a13          	addi	x20,x20,4
/////////////////////////////////
// cp_rd
/////////////////////////////////

# Testcase cp_rd (Test destination rd = x0)
  RVTEST_TESTDATA_LOAD_INT(x2, x26) # load rs1: x26 = 0xfea24798
     b7c:	00012d03          	lw	x26,0(x2)
     b80:	00410113          	addi	x2,x2,4
  RVTEST_TESTDATA_LOAD_INT(x2, x13) # load rs2: x13 = 0x45795de5
     b84:	00012683          	lw	x13,0(x2)
     b88:	00410113          	addi	x2,x2,4

00000b8c <I_sll_cg_cp_rd_b0>:
I_sll_cg_cp_rd_b0:
  sll x0, x26, x13 # perform operation
     b8c:	00dd1033          	sll	x0,x26,x13
  # Check if x0 contains the expected result. x20 is the signature ptr, x5 is the link ptr, x4 is a temp reg.
  RVTEST_SIGUPD(x20, x5, x4, x0, I_sll_cg_cp_rd_b0, I_sll_cg_cp_rd_b0_str)
     b90:	000a2203          	lw	x4,0(x20)
     b94:	00020863          	beq	x4,x0,ba4 <I_sll_cg_cp_rd_b0+0x18>
     b98:	125032ef          	jal	x5,44bc <failedtest_x5_x4>
     b9c:	00000b8c          	.word	0x00000b8c
     ba0:	000098f3          	.word	0x000098f3
     ba4:	004a0a13          	addi	x20,x20,4

# Testcase cp_rd (Test destination rd = x1)
  RVTEST_TESTDATA_LOAD_INT(x2, x21) # load rs1: x21 = 0x418164f0
     ba8:	00012a83          	lw	x21,0(x2)
     bac:	00410113          	addi	x2,x2,4
  RVTEST_TESTDATA_LOAD_INT(x2, x23) # load rs2: x23 = 0x24b3f627
     bb0:	00012b83          	lw	x23,0(x2)
     bb4:	00410113          	addi	x2,x2,4

00000bb8 <I_sll_cg_cp_rd_b1>:
I_sll_cg_cp_rd_b1:
  sll x1, x21, x23 # perform operation
     bb8:	017a90b3          	sll	x1,x21,x23
  # Check if x1 contains the expected result. x20 is the signature ptr, x5 is the link ptr, x4 is a temp reg.
  RVTEST_SIGUPD(x20, x5, x4, x1, I_sll_cg_cp_rd_b1, I_sll_cg_cp_rd_b1_str)
     bbc:	000a2203          	lw	x4,0(x20)
     bc0:	00120863          	beq	x4,x1,bd0 <I_sll_cg_cp_rd_b1+0x18>
     bc4:	0f9032ef          	jal	x5,44bc <failedtest_x5_x4>
     bc8:	00000bb8          	.word	0x00000bb8
     bcc:	00009920          	.word	0x00009920
     bd0:	004a0a13          	addi	x20,x20,4

  mv x28, x2 # switch data pointer register to avoid conflict with test
     bd4:	00010e13          	addi	x28,x2,0
# Testcase cp_rd (Test destination rd = x2)
  RVTEST_TESTDATA_LOAD_INT(x28, x14) # load rs1: x14 = 0x80f1fe36
     bd8:	000e2703          	lw	x14,0(x28)
     bdc:	004e0e13          	addi	x28,x28,4
  RVTEST_TESTDATA_LOAD_INT(x28, x8) # load rs2: x8 = 0x6fa72a7d
     be0:	000e2403          	lw	x8,0(x28)
     be4:	004e0e13          	addi	x28,x28,4

00000be8 <I_sll_cg_cp_rd_b2>:
I_sll_cg_cp_rd_b2:
  sll x2, x14, x8 # perform operation
     be8:	00871133          	sll	x2,x14,x8
  # Check if x2 contains the expected result. x20 is the signature ptr, x5 is the link ptr, x4 is a temp reg.
  RVTEST_SIGUPD(x20, x5, x4, x2, I_sll_cg_cp_rd_b2, I_sll_cg_cp_rd_b2_str)
     bec:	000a2203          	lw	x4,0(x20)
     bf0:	00220863          	beq	x4,x2,c00 <I_sll_cg_cp_rd_b2+0x18>
     bf4:	0c9032ef          	jal	x5,44bc <failedtest_x5_x4>
     bf8:	00000be8          	.word	0x00000be8
     bfc:	0000994d          	.word	0x0000994d
     c00:	004a0a13          	addi	x20,x20,4

# Testcase cp_rd (Test destination rd = x3)
  RVTEST_TESTDATA_LOAD_INT(x28, x15) # load rs1: x15 = 0xa98af095
     c04:	000e2783          	lw	x15,0(x28)
     c08:	004e0e13          	addi	x28,x28,4
  RVTEST_TESTDATA_LOAD_INT(x28, x17) # load rs2: x17 = 0xd1402e29
     c0c:	000e2883          	lw	x17,0(x28)
     c10:	004e0e13          	addi	x28,x28,4

00000c14 <I_sll_cg_cp_rd_b3>:
I_sll_cg_cp_rd_b3:
  sll x3, x15, x17 # perform operation
     c14:	011791b3          	sll	x3,x15,x17
  # Check if x3 contains the expected result. x20 is the signature ptr, x5 is the link ptr, x4 is a temp reg.
  RVTEST_SIGUPD(x20, x5, x4, x3, I_sll_cg_cp_rd_b3, I_sll_cg_cp_rd_b3_str)
     c18:	000a2203          	lw	x4,0(x20)
     c1c:	00320863          	beq	x4,x3,c2c <I_sll_cg_cp_rd_b3+0x18>
     c20:	09d032ef          	jal	x5,44bc <failedtest_x5_x4>
     c24:	00000c14          	.word	0x00000c14
     c28:	0000997a          	.word	0x0000997a
     c2c:	004a0a13          	addi	x20,x20,4

  mv x13, x4 # switch temp register to avoid conflict with test
     c30:	00020693          	addi	x13,x4,0 # 0 <rvtest_entry_point>
  mv x14, x5 # switch link pointer register to avoid conflict with test
     c34:	00028713          	addi	x14,x5,0
# Testcase cp_rd (Test destination rd = x4)
  RVTEST_TESTDATA_LOAD_INT(x28, x5) # load rs1: x5 = 0x5bb36bc2
     c38:	000e2283          	lw	x5,0(x28)
     c3c:	004e0e13          	addi	x28,x28,4
  RVTEST_TESTDATA_LOAD_INT(x28, x30) # load rs2: x30 = 0x80ee1823
     c40:	000e2f03          	lw	x30,0(x28)
     c44:	004e0e13          	addi	x28,x28,4

00000c48 <I_sll_cg_cp_rd_b4>:
I_sll_cg_cp_rd_b4:
  sll x4, x5, x30 # perform operation
     c48:	01e29233          	sll	x4,x5,x30
  # Check if x4 contains the expected result. x20 is the signature ptr, x14 is the link ptr, x13 is a temp reg.
  RVTEST_SIGUPD(x20, x14, x13, x4, I_sll_cg_cp_rd_b4, I_sll_cg_cp_rd_b4_str)
     c4c:	000a2683          	lw	x13,0(x20)
     c50:	00468863          	beq	x13,x4,c60 <I_sll_cg_cp_rd_b4+0x18>
     c54:	0a90376f          	jal	x14,44fc <failedtest_x14_x13>
     c58:	00000c48          	.word	0x00000c48
     c5c:	000099a7          	.word	0x000099a7
     c60:	004a0a13          	addi	x20,x20,4

# Testcase cp_rd (Test destination rd = x5)
  RVTEST_TESTDATA_LOAD_INT(x28, x8) # load rs1: x8 = 0x32d11d83
     c64:	000e2403          	lw	x8,0(x28)
     c68:	004e0e13          	addi	x28,x28,4
  RVTEST_TESTDATA_LOAD_INT(x28, x2) # load rs2: x2 = 0x2bbd6391
     c6c:	000e2103          	lw	x2,0(x28)
     c70:	004e0e13          	addi	x28,x28,4

00000c74 <I_sll_cg_cp_rd_b5>:
I_sll_cg_cp_rd_b5:
  sll x5, x8, x2 # perform operation
     c74:	002412b3          	sll	x5,x8,x2
  # Check if x5 contains the expected result. x20 is the signature ptr, x14 is the link ptr, x13 is a temp reg.
  RVTEST_SIGUPD(x20, x14, x13, x5, I_sll_cg_cp_rd_b5, I_sll_cg_cp_rd_b5_str)
     c78:	000a2683          	lw	x13,0(x20)
     c7c:	00568863          	beq	x13,x5,c8c <I_sll_cg_cp_rd_b5+0x18>
     c80:	07d0376f          	jal	x14,44fc <failedtest_x14_x13>
     c84:	00000c74          	.word	0x00000c74
     c88:	000099d4          	.word	0x000099d4
     c8c:	004a0a13          	addi	x20,x20,4

# Testcase cp_rd (Test destination rd = x6)
  RVTEST_TESTDATA_LOAD_INT(x28, x15) # load rs1: x15 = 0xd7769227
     c90:	000e2783          	lw	x15,0(x28)
     c94:	004e0e13          	addi	x28,x28,4
  RVTEST_TESTDATA_LOAD_INT(x28, x17) # load rs2: x17 = 0x53192a50
     c98:	000e2883          	lw	x17,0(x28)
     c9c:	004e0e13          	addi	x28,x28,4

00000ca0 <I_sll_cg_cp_rd_b6>:
I_sll_cg_cp_rd_b6:
  sll x6, x15, x17 # perform operation
     ca0:	01179333          	sll	x6,x15,x17
  # Check if x6 contains the expected result. x20 is the signature ptr, x14 is the link ptr, x13 is a temp reg.
  RVTEST_SIGUPD(x20, x14, x13, x6, I_sll_cg_cp_rd_b6, I_sll_cg_cp_rd_b6_str)
     ca4:	000a2683          	lw	x13,0(x20)
     ca8:	00668863          	beq	x13,x6,cb8 <I_sll_cg_cp_rd_b6+0x18>
     cac:	0510376f          	jal	x14,44fc <failedtest_x14_x13>
     cb0:	00000ca0          	.word	0x00000ca0
     cb4:	00009a01          	.word	0x00009a01
     cb8:	004a0a13          	addi	x20,x20,4

# Testcase cp_rd (Test destination rd = x7)
  RVTEST_TESTDATA_LOAD_INT(x28, x10) # load rs1: x10 = 0xec72b77b
     cbc:	000e2503          	lw	x10,0(x28)
     cc0:	004e0e13          	addi	x28,x28,4
  RVTEST_TESTDATA_LOAD_INT(x28, x3) # load rs2: x3 = 0x30833779
     cc4:	000e2183          	lw	x3,0(x28)
     cc8:	004e0e13          	addi	x28,x28,4

00000ccc <I_sll_cg_cp_rd_b7>:
I_sll_cg_cp_rd_b7:
  sll x7, x10, x3 # perform operation
     ccc:	003513b3          	sll	x7,x10,x3
  # Check if x7 contains the expected result. x20 is the signature ptr, x14 is the link ptr, x13 is a temp reg.
  RVTEST_SIGUPD(x20, x14, x13, x7, I_sll_cg_cp_rd_b7, I_sll_cg_cp_rd_b7_str)
     cd0:	000a2683          	lw	x13,0(x20)
     cd4:	00768863          	beq	x13,x7,ce4 <I_sll_cg_cp_rd_b7+0x18>
     cd8:	0250376f          	jal	x14,44fc <failedtest_x14_x13>
     cdc:	00000ccc          	.word	0x00000ccc
     ce0:	00009a2e          	.word	0x00009a2e
     ce4:	004a0a13          	addi	x20,x20,4

# Testcase cp_rd (Test destination rd = x8)
  RVTEST_TESTDATA_LOAD_INT(x28, x9) # load rs1: x9 = 0xe9b44353
     ce8:	000e2483          	lw	x9,0(x28)
     cec:	004e0e13          	addi	x28,x28,4
  RVTEST_TESTDATA_LOAD_INT(x28, x27) # load rs2: x27 = 0x7c635469
     cf0:	000e2d83          	lw	x27,0(x28)
     cf4:	004e0e13          	addi	x28,x28,4

00000cf8 <I_sll_cg_cp_rd_b8>:
I_sll_cg_cp_rd_b8:
  sll x8, x9, x27 # perform operation
     cf8:	01b49433          	sll	x8,x9,x27
  # Check if x8 contains the expected result. x20 is the signature ptr, x14 is the link ptr, x13 is a temp reg.
  RVTEST_SIGUPD(x20, x14, x13, x8, I_sll_cg_cp_rd_b8, I_sll_cg_cp_rd_b8_str)
     cfc:	000a2683          	lw	x13,0(x20)
     d00:	00868863          	beq	x13,x8,d10 <I_sll_cg_cp_rd_b8+0x18>
     d04:	7f80376f          	jal	x14,44fc <failedtest_x14_x13>
     d08:	00000cf8          	.word	0x00000cf8
     d0c:	00009a5b          	.word	0x00009a5b
     d10:	004a0a13          	addi	x20,x20,4

# Testcase cp_rd (Test destination rd = x9)
  RVTEST_TESTDATA_LOAD_INT(x28, x2) # load rs1: x2 = 0x0f581ead
     d14:	000e2103          	lw	x2,0(x28)
     d18:	004e0e13          	addi	x28,x28,4
  RVTEST_TESTDATA_LOAD_INT(x28, x24) # load rs2: x24 = 0xce617ba3
     d1c:	000e2c03          	lw	x24,0(x28)
     d20:	004e0e13          	addi	x28,x28,4

00000d24 <I_sll_cg_cp_rd_b9>:
I_sll_cg_cp_rd_b9:
  sll x9, x2, x24 # perform operation
     d24:	018114b3          	sll	x9,x2,x24
  # Check if x9 contains the expected result. x20 is the signature ptr, x14 is the link ptr, x13 is a temp reg.
  RVTEST_SIGUPD(x20, x14, x13, x9, I_sll_cg_cp_rd_b9, I_sll_cg_cp_rd_b9_str)
     d28:	000a2683          	lw	x13,0(x20)
     d2c:	00968863          	beq	x13,x9,d3c <I_sll_cg_cp_rd_b9+0x18>
     d30:	7cc0376f          	jal	x14,44fc <failedtest_x14_x13>
     d34:	00000d24          	.word	0x00000d24
     d38:	00009a88          	.word	0x00009a88
     d3c:	004a0a13          	addi	x20,x20,4

# Testcase cp_rd (Test destination rd = x10)
  RVTEST_TESTDATA_LOAD_INT(x28, x31) # load rs1: x31 = 0x7311fdb2
     d40:	000e2f83          	lw	x31,0(x28)
     d44:	004e0e13          	addi	x28,x28,4
  RVTEST_TESTDATA_LOAD_INT(x28, x16) # load rs2: x16 = 0x584ca30e
     d48:	000e2803          	lw	x16,0(x28)
     d4c:	004e0e13          	addi	x28,x28,4

00000d50 <I_sll_cg_cp_rd_b10>:
I_sll_cg_cp_rd_b10:
  sll x10, x31, x16 # perform operation
     d50:	010f9533          	sll	x10,x31,x16
  # Check if x10 contains the expected result. x20 is the signature ptr, x14 is the link ptr, x13 is a temp reg.
  RVTEST_SIGUPD(x20, x14, x13, x10, I_sll_cg_cp_rd_b10, I_sll_cg_cp_rd_b10_str)
     d54:	000a2683          	lw	x13,0(x20)
     d58:	00a68863          	beq	x13,x10,d68 <I_sll_cg_cp_rd_b10+0x18>
     d5c:	7a00376f          	jal	x14,44fc <failedtest_x14_x13>
     d60:	00000d50          	.word	0x00000d50
     d64:	00009ab5          	.word	0x00009ab5
     d68:	004a0a13          	addi	x20,x20,4

# Testcase cp_rd (Test destination rd = x11)
  RVTEST_TESTDATA_LOAD_INT(x28, x27) # load rs1: x27 = 0x4374cf4c
     d6c:	000e2d83          	lw	x27,0(x28)
     d70:	004e0e13          	addi	x28,x28,4
  RVTEST_TESTDATA_LOAD_INT(x28, x12) # load rs2: x12 = 0xb783b83f
     d74:	000e2603          	lw	x12,0(x28)
     d78:	004e0e13          	addi	x28,x28,4

00000d7c <I_sll_cg_cp_rd_b11>:
I_sll_cg_cp_rd_b11:
  sll x11, x27, x12 # perform operation
     d7c:	00cd95b3          	sll	x11,x27,x12
  # Check if x11 contains the expected result. x20 is the signature ptr, x14 is the link ptr, x13 is a temp reg.
  RVTEST_SIGUPD(x20, x14, x13, x11, I_sll_cg_cp_rd_b11, I_sll_cg_cp_rd_b11_str)
     d80:	000a2683          	lw	x13,0(x20)
     d84:	00b68863          	beq	x13,x11,d94 <I_sll_cg_cp_rd_b11+0x18>
     d88:	7740376f          	jal	x14,44fc <failedtest_x14_x13>
     d8c:	00000d7c          	.word	0x00000d7c
     d90:	00009ae3          	.word	0x00009ae3
     d94:	004a0a13          	addi	x20,x20,4

# Testcase cp_rd (Test destination rd = x12)
  RVTEST_TESTDATA_LOAD_INT(x28, x9) # load rs1: x9 = 0x00d6c4ea
     d98:	000e2483          	lw	x9,0(x28)
     d9c:	004e0e13          	addi	x28,x28,4
  RVTEST_TESTDATA_LOAD_INT(x28, x17) # load rs2: x17 = 0x8f19ed7c
     da0:	000e2883          	lw	x17,0(x28)
     da4:	004e0e13          	addi	x28,x28,4

00000da8 <I_sll_cg_cp_rd_b12>:
I_sll_cg_cp_rd_b12:
  sll x12, x9, x17 # perform operation
     da8:	01149633          	sll	x12,x9,x17
  # Check if x12 contains the expected result. x20 is the signature ptr, x14 is the link ptr, x13 is a temp reg.
  RVTEST_SIGUPD(x20, x14, x13, x12, I_sll_cg_cp_rd_b12, I_sll_cg_cp_rd_b12_str)
     dac:	000a2683          	lw	x13,0(x20)
     db0:	00c68863          	beq	x13,x12,dc0 <I_sll_cg_cp_rd_b12+0x18>
     db4:	7480376f          	jal	x14,44fc <failedtest_x14_x13>
     db8:	00000da8          	.word	0x00000da8
     dbc:	00009b11          	.word	0x00009b11
     dc0:	004a0a13          	addi	x20,x20,4

  mv x7, x13 # switch temp register to avoid conflict with test
     dc4:	00068393          	addi	x7,x13,0
  mv x8, x14 # switch link pointer register to avoid conflict with test
     dc8:	00070413          	addi	x8,x14,0
# Testcase cp_rd (Test destination rd = x13)
  RVTEST_TESTDATA_LOAD_INT(x28, x4) # load rs1: x4 = 0xefb26bcb
     dcc:	000e2203          	lw	x4,0(x28)
     dd0:	004e0e13          	addi	x28,x28,4
  RVTEST_TESTDATA_LOAD_INT(x28, x0) # load rs2: x0 = 0x8ab1e350
     dd4:	000e2003          	lw	x0,0(x28)
     dd8:	004e0e13          	addi	x28,x28,4

00000ddc <I_sll_cg_cp_rd_b13>:
I_sll_cg_cp_rd_b13:
  sll x13, x4, x0 # perform operation
     ddc:	000216b3          	sll	x13,x4,x0
  # Check if x13 contains the expected result. x20 is the signature ptr, x8 is the link ptr, x7 is a temp reg.
  RVTEST_SIGUPD(x20, x8, x7, x13, I_sll_cg_cp_rd_b13, I_sll_cg_cp_rd_b13_str)
     de0:	000a2383          	lw	x7,0(x20)
     de4:	00d38863          	beq	x7,x13,df4 <I_sll_cg_cp_rd_b13+0x18>
     de8:	6ec0346f          	jal	x8,44d4 <failedtest_x8_x7>
     dec:	00000ddc          	.word	0x00000ddc
     df0:	00009b3f          	.word	0x00009b3f
     df4:	004a0a13          	addi	x20,x20,4

# Testcase cp_rd (Test destination rd = x14)
  RVTEST_TESTDATA_LOAD_INT(x28, x21) # load rs1: x21 = 0xbf829d4d
     df8:	000e2a83          	lw	x21,0(x28)
     dfc:	004e0e13          	addi	x28,x28,4
  RVTEST_TESTDATA_LOAD_INT(x28, x12) # load rs2: x12 = 0x551b0550
     e00:	000e2603          	lw	x12,0(x28)
     e04:	004e0e13          	addi	x28,x28,4

00000e08 <I_sll_cg_cp_rd_b14>:
I_sll_cg_cp_rd_b14:
  sll x14, x21, x12 # perform operation
     e08:	00ca9733          	sll	x14,x21,x12
  # Check if x14 contains the expected result. x20 is the signature ptr, x8 is the link ptr, x7 is a temp reg.
  RVTEST_SIGUPD(x20, x8, x7, x14, I_sll_cg_cp_rd_b14, I_sll_cg_cp_rd_b14_str)
     e0c:	000a2383          	lw	x7,0(x20)
     e10:	00e38863          	beq	x7,x14,e20 <I_sll_cg_cp_rd_b14+0x18>
     e14:	6c00346f          	jal	x8,44d4 <failedtest_x8_x7>
     e18:	00000e08          	.word	0x00000e08
     e1c:	00009b6d          	.word	0x00009b6d
     e20:	004a0a13          	addi	x20,x20,4

# Testcase cp_rd (Test destination rd = x15)
  RVTEST_TESTDATA_LOAD_INT(x28, x1) # load rs1: x1 = 0x98a55e93
     e24:	000e2083          	lw	x1,0(x28)
     e28:	004e0e13          	addi	x28,x28,4
  RVTEST_TESTDATA_LOAD_INT(x28, x2) # load rs2: x2 = 0x105a57fe
     e2c:	000e2103          	lw	x2,0(x28)
     e30:	004e0e13          	addi	x28,x28,4

00000e34 <I_sll_cg_cp_rd_b15>:
I_sll_cg_cp_rd_b15:
  sll x15, x1, x2 # perform operation
     e34:	002097b3          	sll	x15,x1,x2
  # Check if x15 contains the expected result. x20 is the signature ptr, x8 is the link ptr, x7 is a temp reg.
  RVTEST_SIGUPD(x20, x8, x7, x15, I_sll_cg_cp_rd_b15, I_sll_cg_cp_rd_b15_str)
     e38:	000a2383          	lw	x7,0(x20)
     e3c:	00f38863          	beq	x7,x15,e4c <I_sll_cg_cp_rd_b15+0x18>
     e40:	6940346f          	jal	x8,44d4 <failedtest_x8_x7>
     e44:	00000e34          	.word	0x00000e34
     e48:	00009b9b          	.word	0x00009b9b
     e4c:	004a0a13          	addi	x20,x20,4

# Testcase cp_rd (Test destination rd = x16)
  RVTEST_TESTDATA_LOAD_INT(x28, x21) # load rs1: x21 = 0x887a297c
     e50:	000e2a83          	lw	x21,0(x28)
     e54:	004e0e13          	addi	x28,x28,4
  RVTEST_TESTDATA_LOAD_INT(x28, x12) # load rs2: x12 = 0x5cf1ac60
     e58:	000e2603          	lw	x12,0(x28)
     e5c:	004e0e13          	addi	x28,x28,4

00000e60 <I_sll_cg_cp_rd_b16>:
I_sll_cg_cp_rd_b16:
  sll x16, x21, x12 # perform operation
     e60:	00ca9833          	sll	x16,x21,x12
  # Check if x16 contains the expected result. x20 is the signature ptr, x8 is the link ptr, x7 is a temp reg.
  RVTEST_SIGUPD(x20, x8, x7, x16, I_sll_cg_cp_rd_b16, I_sll_cg_cp_rd_b16_str)
     e64:	000a2383          	lw	x7,0(x20)
     e68:	01038863          	beq	x7,x16,e78 <I_sll_cg_cp_rd_b16+0x18>
     e6c:	6680346f          	jal	x8,44d4 <failedtest_x8_x7>
     e70:	00000e60          	.word	0x00000e60
     e74:	00009bc9          	.word	0x00009bc9
     e78:	004a0a13          	addi	x20,x20,4

# Testcase cp_rd (Test destination rd = x17)
  RVTEST_TESTDATA_LOAD_INT(x28, x21) # load rs1: x21 = 0xcd5eaeba
     e7c:	000e2a83          	lw	x21,0(x28)
     e80:	004e0e13          	addi	x28,x28,4
  RVTEST_TESTDATA_LOAD_INT(x28, x13) # load rs2: x13 = 0xf8cff694
     e84:	000e2683          	lw	x13,0(x28)
     e88:	004e0e13          	addi	x28,x28,4

00000e8c <I_sll_cg_cp_rd_b17>:
I_sll_cg_cp_rd_b17:
  sll x17, x21, x13 # perform operation
     e8c:	00da98b3          	sll	x17,x21,x13
  # Check if x17 contains the expected result. x20 is the signature ptr, x8 is the link ptr, x7 is a temp reg.
  RVTEST_SIGUPD(x20, x8, x7, x17, I_sll_cg_cp_rd_b17, I_sll_cg_cp_rd_b17_str)
     e90:	000a2383          	lw	x7,0(x20)
     e94:	01138863          	beq	x7,x17,ea4 <I_sll_cg_cp_rd_b17+0x18>
     e98:	63c0346f          	jal	x8,44d4 <failedtest_x8_x7>
     e9c:	00000e8c          	.word	0x00000e8c
     ea0:	00009bf7          	.word	0x00009bf7
     ea4:	004a0a13          	addi	x20,x20,4

# Testcase cp_rd (Test destination rd = x18)
  RVTEST_TESTDATA_LOAD_INT(x28, x12) # load rs1: x12 = 0xee8e8a63
     ea8:	000e2603          	lw	x12,0(x28)
     eac:	004e0e13          	addi	x28,x28,4
  RVTEST_TESTDATA_LOAD_INT(x28, x2) # load rs2: x2 = 0xeef062fe
     eb0:	000e2103          	lw	x2,0(x28)
     eb4:	004e0e13          	addi	x28,x28,4

00000eb8 <I_sll_cg_cp_rd_b18>:
I_sll_cg_cp_rd_b18:
  sll x18, x12, x2 # perform operation
     eb8:	00261933          	sll	x18,x12,x2
  # Check if x18 contains the expected result. x20 is the signature ptr, x8 is the link ptr, x7 is a temp reg.
  RVTEST_SIGUPD(x20, x8, x7, x18, I_sll_cg_cp_rd_b18, I_sll_cg_cp_rd_b18_str)
     ebc:	000a2383          	lw	x7,0(x20)
     ec0:	01238863          	beq	x7,x18,ed0 <I_sll_cg_cp_rd_b18+0x18>
     ec4:	6100346f          	jal	x8,44d4 <failedtest_x8_x7>
     ec8:	00000eb8          	.word	0x00000eb8
     ecc:	00009c25          	.word	0x00009c25
     ed0:	004a0a13          	addi	x20,x20,4

# Testcase cp_rd (Test destination rd = x19)
  RVTEST_TESTDATA_LOAD_INT(x28, x18) # load rs1: x18 = 0xcd89279b
     ed4:	000e2903          	lw	x18,0(x28)
     ed8:	004e0e13          	addi	x28,x28,4
  RVTEST_TESTDATA_LOAD_INT(x28, x11) # load rs2: x11 = 0x38352b10
     edc:	000e2583          	lw	x11,0(x28)
     ee0:	004e0e13          	addi	x28,x28,4

00000ee4 <I_sll_cg_cp_rd_b19>:
I_sll_cg_cp_rd_b19:
  sll x19, x18, x11 # perform operation
     ee4:	00b919b3          	sll	x19,x18,x11
  # Check if x19 contains the expected result. x20 is the signature ptr, x8 is the link ptr, x7 is a temp reg.
  RVTEST_SIGUPD(x20, x8, x7, x19, I_sll_cg_cp_rd_b19, I_sll_cg_cp_rd_b19_str)
     ee8:	000a2383          	lw	x7,0(x20)
     eec:	01338863          	beq	x7,x19,efc <I_sll_cg_cp_rd_b19+0x18>
     ef0:	5e40346f          	jal	x8,44d4 <failedtest_x8_x7>
     ef4:	00000ee4          	.word	0x00000ee4
     ef8:	00009c53          	.word	0x00009c53
     efc:	004a0a13          	addi	x20,x20,4

  mv x30, x20 # switch signature pointer register to avoid conflict with test
     f00:	000a0f13          	addi	x30,x20,0
# Testcase cp_rd (Test destination rd = x20)
  RVTEST_TESTDATA_LOAD_INT(x28, x26) # load rs1: x26 = 0x69ee35e3
     f04:	000e2d03          	lw	x26,0(x28)
     f08:	004e0e13          	addi	x28,x28,4
  RVTEST_TESTDATA_LOAD_INT(x28, x21) # load rs2: x21 = 0x70af984d
     f0c:	000e2a83          	lw	x21,0(x28)
     f10:	004e0e13          	addi	x28,x28,4

00000f14 <I_sll_cg_cp_rd_b20>:
I_sll_cg_cp_rd_b20:
  sll x20, x26, x21 # perform operation
     f14:	015d1a33          	sll	x20,x26,x21
  # Check if x20 contains the expected result. x30 is the signature ptr, x8 is the link ptr, x7 is a temp reg.
  RVTEST_SIGUPD(x30, x8, x7, x20, I_sll_cg_cp_rd_b20, I_sll_cg_cp_rd_b20_str)
     f18:	000f2383          	lw	x7,0(x30)
     f1c:	01438863          	beq	x7,x20,f2c <I_sll_cg_cp_rd_b20+0x18>
     f20:	5b40346f          	jal	x8,44d4 <failedtest_x8_x7>
     f24:	00000f14          	.word	0x00000f14
     f28:	00009c81          	.word	0x00009c81
     f2c:	004f0f13          	addi	x30,x30,4

# Testcase cp_rd (Test destination rd = x21)
  RVTEST_TESTDATA_LOAD_INT(x28, x4) # load rs1: x4 = 0x0b968088
     f30:	000e2203          	lw	x4,0(x28)
     f34:	004e0e13          	addi	x28,x28,4
  RVTEST_TESTDATA_LOAD_INT(x28, x6) # load rs2: x6 = 0xfbd1037e
     f38:	000e2303          	lw	x6,0(x28)
     f3c:	004e0e13          	addi	x28,x28,4

00000f40 <I_sll_cg_cp_rd_b21>:
I_sll_cg_cp_rd_b21:
  sll x21, x4, x6 # perform operation
     f40:	00621ab3          	sll	x21,x4,x6
  # Check if x21 contains the expected result. x30 is the signature ptr, x8 is the link ptr, x7 is a temp reg.
  RVTEST_SIGUPD(x30, x8, x7, x21, I_sll_cg_cp_rd_b21, I_sll_cg_cp_rd_b21_str)
     f44:	000f2383          	lw	x7,0(x30)
     f48:	01538863          	beq	x7,x21,f58 <I_sll_cg_cp_rd_b21+0x18>
     f4c:	5880346f          	jal	x8,44d4 <failedtest_x8_x7>
     f50:	00000f40          	.word	0x00000f40
     f54:	00009caf          	.word	0x00009caf
     f58:	004f0f13          	addi	x30,x30,4

# Testcase cp_rd (Test destination rd = x22)
  RVTEST_TESTDATA_LOAD_INT(x28, x21) # load rs1: x21 = 0x1b28c5bf
     f5c:	000e2a83          	lw	x21,0(x28)
     f60:	004e0e13          	addi	x28,x28,4
  RVTEST_TESTDATA_LOAD_INT(x28, x25) # load rs2: x25 = 0xd4f050ec
     f64:	000e2c83          	lw	x25,0(x28)
     f68:	004e0e13          	addi	x28,x28,4

00000f6c <I_sll_cg_cp_rd_b22>:
I_sll_cg_cp_rd_b22:
  sll x22, x21, x25 # perform operation
     f6c:	019a9b33          	sll	x22,x21,x25
  # Check if x22 contains the expected result. x30 is the signature ptr, x8 is the link ptr, x7 is a temp reg.
  RVTEST_SIGUPD(x30, x8, x7, x22, I_sll_cg_cp_rd_b22, I_sll_cg_cp_rd_b22_str)
     f70:	000f2383          	lw	x7,0(x30)
     f74:	01638863          	beq	x7,x22,f84 <I_sll_cg_cp_rd_b22+0x18>
     f78:	55c0346f          	jal	x8,44d4 <failedtest_x8_x7>
     f7c:	00000f6c          	.word	0x00000f6c
     f80:	00009cdd          	.word	0x00009cdd
     f84:	004f0f13          	addi	x30,x30,4

# Testcase cp_rd (Test destination rd = x23)
  RVTEST_TESTDATA_LOAD_INT(x28, x29) # load rs1: x29 = 0x35496607
     f88:	000e2e83          	lw	x29,0(x28)
     f8c:	004e0e13          	addi	x28,x28,4
  RVTEST_TESTDATA_LOAD_INT(x28, x17) # load rs2: x17 = 0x2c865ae4
     f90:	000e2883          	lw	x17,0(x28)
     f94:	004e0e13          	addi	x28,x28,4

00000f98 <I_sll_cg_cp_rd_b23>:
I_sll_cg_cp_rd_b23:
  sll x23, x29, x17 # perform operation
     f98:	011e9bb3          	sll	x23,x29,x17
  # Check if x23 contains the expected result. x30 is the signature ptr, x8 is the link ptr, x7 is a temp reg.
  RVTEST_SIGUPD(x30, x8, x7, x23, I_sll_cg_cp_rd_b23, I_sll_cg_cp_rd_b23_str)
     f9c:	000f2383          	lw	x7,0(x30)
     fa0:	01738863          	beq	x7,x23,fb0 <I_sll_cg_cp_rd_b23+0x18>
     fa4:	5300346f          	jal	x8,44d4 <failedtest_x8_x7>
     fa8:	00000f98          	.word	0x00000f98
     fac:	00009d0b          	.word	0x00009d0b
     fb0:	004f0f13          	addi	x30,x30,4

# Testcase cp_rd (Test destination rd = x24)
  RVTEST_TESTDATA_LOAD_INT(x28, x13) # load rs1: x13 = 0x4e9fd116
     fb4:	000e2683          	lw	x13,0(x28)
     fb8:	004e0e13          	addi	x28,x28,4
  RVTEST_TESTDATA_LOAD_INT(x28, x25) # load rs2: x25 = 0x2b51e3c7
     fbc:	000e2c83          	lw	x25,0(x28)
     fc0:	004e0e13          	addi	x28,x28,4

00000fc4 <I_sll_cg_cp_rd_b24>:
I_sll_cg_cp_rd_b24:
  sll x24, x13, x25 # perform operation
     fc4:	01969c33          	sll	x24,x13,x25
  # Check if x24 contains the expected result. x30 is the signature ptr, x8 is the link ptr, x7 is a temp reg.
  RVTEST_SIGUPD(x30, x8, x7, x24, I_sll_cg_cp_rd_b24, I_sll_cg_cp_rd_b24_str)
     fc8:	000f2383          	lw	x7,0(x30)
     fcc:	01838863          	beq	x7,x24,fdc <I_sll_cg_cp_rd_b24+0x18>
     fd0:	5040346f          	jal	x8,44d4 <failedtest_x8_x7>
     fd4:	00000fc4          	.word	0x00000fc4
     fd8:	00009d39          	.word	0x00009d39
     fdc:	004f0f13          	addi	x30,x30,4

# Testcase cp_rd (Test destination rd = x25)
  RVTEST_TESTDATA_LOAD_INT(x28, x14) # load rs1: x14 = 0xe74c8a7e
     fe0:	000e2703          	lw	x14,0(x28)
     fe4:	004e0e13          	addi	x28,x28,4
  RVTEST_TESTDATA_LOAD_INT(x28, x3) # load rs2: x3 = 0xe9cc37c1
     fe8:	000e2183          	lw	x3,0(x28)
     fec:	004e0e13          	addi	x28,x28,4

00000ff0 <I_sll_cg_cp_rd_b25>:
I_sll_cg_cp_rd_b25:
  sll x25, x14, x3 # perform operation
     ff0:	00371cb3          	sll	x25,x14,x3
  # Check if x25 contains the expected result. x30 is the signature ptr, x8 is the link ptr, x7 is a temp reg.
  RVTEST_SIGUPD(x30, x8, x7, x25, I_sll_cg_cp_rd_b25, I_sll_cg_cp_rd_b25_str)
     ff4:	000f2383          	lw	x7,0(x30)
     ff8:	01938863          	beq	x7,x25,1008 <I_sll_cg_cp_rd_b25+0x18>
     ffc:	4d80346f          	jal	x8,44d4 <failedtest_x8_x7>
    1000:	00000ff0          	.word	0x00000ff0
    1004:	00009d67          	.word	0x00009d67
    1008:	004f0f13          	addi	x30,x30,4

# Testcase cp_rd (Test destination rd = x26)
  RVTEST_TESTDATA_LOAD_INT(x28, x5) # load rs1: x5 = 0x34f853e3
    100c:	000e2283          	lw	x5,0(x28)
    1010:	004e0e13          	addi	x28,x28,4
  RVTEST_TESTDATA_LOAD_INT(x28, x27) # load rs2: x27 = 0xa94e88da
    1014:	000e2d83          	lw	x27,0(x28)
    1018:	004e0e13          	addi	x28,x28,4

0000101c <I_sll_cg_cp_rd_b26>:
I_sll_cg_cp_rd_b26:
  sll x26, x5, x27 # perform operation
    101c:	01b29d33          	sll	x26,x5,x27
  # Check if x26 contains the expected result. x30 is the signature ptr, x8 is the link ptr, x7 is a temp reg.
  RVTEST_SIGUPD(x30, x8, x7, x26, I_sll_cg_cp_rd_b26, I_sll_cg_cp_rd_b26_str)
    1020:	000f2383          	lw	x7,0(x30)
    1024:	01a38863          	beq	x7,x26,1034 <I_sll_cg_cp_rd_b26+0x18>
    1028:	4ac0346f          	jal	x8,44d4 <failedtest_x8_x7>
    102c:	0000101c          	.word	0x0000101c
    1030:	00009d95          	.word	0x00009d95
    1034:	004f0f13          	addi	x30,x30,4

# Testcase cp_rd (Test destination rd = x27)
  RVTEST_TESTDATA_LOAD_INT(x28, x31) # load rs1: x31 = 0xbdc3dd89
    1038:	000e2f83          	lw	x31,0(x28)
    103c:	004e0e13          	addi	x28,x28,4
  RVTEST_TESTDATA_LOAD_INT(x28, x12) # load rs2: x12 = 0x236ba928
    1040:	000e2603          	lw	x12,0(x28)
    1044:	004e0e13          	addi	x28,x28,4

00001048 <I_sll_cg_cp_rd_b27>:
I_sll_cg_cp_rd_b27:
  sll x27, x31, x12 # perform operation
    1048:	00cf9db3          	sll	x27,x31,x12
  # Check if x27 contains the expected result. x30 is the signature ptr, x8 is the link ptr, x7 is a temp reg.
  RVTEST_SIGUPD(x30, x8, x7, x27, I_sll_cg_cp_rd_b27, I_sll_cg_cp_rd_b27_str)
    104c:	000f2383          	lw	x7,0(x30)
    1050:	01b38863          	beq	x7,x27,1060 <I_sll_cg_cp_rd_b27+0x18>
    1054:	4800346f          	jal	x8,44d4 <failedtest_x8_x7>
    1058:	00001048          	.word	0x00001048
    105c:	00009dc3          	.word	0x00009dc3
    1060:	004f0f13          	addi	x30,x30,4

  mv x23, x28 # switch data pointer register to avoid conflict with test
    1064:	000e0b93          	addi	x23,x28,0
# Testcase cp_rd (Test destination rd = x28)
  RVTEST_TESTDATA_LOAD_INT(x23, x31) # load rs1: x31 = 0x0464227f
    1068:	000baf83          	lw	x31,0(x23)
    106c:	004b8b93          	addi	x23,x23,4
  RVTEST_TESTDATA_LOAD_INT(x23, x16) # load rs2: x16 = 0xa4be1ca8
    1070:	000ba803          	lw	x16,0(x23)
    1074:	004b8b93          	addi	x23,x23,4

00001078 <I_sll_cg_cp_rd_b28>:
I_sll_cg_cp_rd_b28:
  sll x28, x31, x16 # perform operation
    1078:	010f9e33          	sll	x28,x31,x16
  # Check if x28 contains the expected result. x30 is the signature ptr, x8 is the link ptr, x7 is a temp reg.
  RVTEST_SIGUPD(x30, x8, x7, x28, I_sll_cg_cp_rd_b28, I_sll_cg_cp_rd_b28_str)
    107c:	000f2383          	lw	x7,0(x30)
    1080:	01c38863          	beq	x7,x28,1090 <I_sll_cg_cp_rd_b28+0x18>
    1084:	4500346f          	jal	x8,44d4 <failedtest_x8_x7>
    1088:	00001078          	.word	0x00001078
    108c:	00009df1          	.word	0x00009df1
    1090:	004f0f13          	addi	x30,x30,4

# Testcase cp_rd (Test destination rd = x29)
  RVTEST_TESTDATA_LOAD_INT(x23, x15) # load rs1: x15 = 0x5c5cbc95
    1094:	000ba783          	lw	x15,0(x23)
    1098:	004b8b93          	addi	x23,x23,4
  RVTEST_TESTDATA_LOAD_INT(x23, x12) # load rs2: x12 = 0x8dfd7d91
    109c:	000ba603          	lw	x12,0(x23)
    10a0:	004b8b93          	addi	x23,x23,4

000010a4 <I_sll_cg_cp_rd_b29>:
I_sll_cg_cp_rd_b29:
  sll x29, x15, x12 # perform operation
    10a4:	00c79eb3          	sll	x29,x15,x12
  # Check if x29 contains the expected result. x30 is the signature ptr, x8 is the link ptr, x7 is a temp reg.
  RVTEST_SIGUPD(x30, x8, x7, x29, I_sll_cg_cp_rd_b29, I_sll_cg_cp_rd_b29_str)
    10a8:	000f2383          	lw	x7,0(x30)
    10ac:	01d38863          	beq	x7,x29,10bc <I_sll_cg_cp_rd_b29+0x18>
    10b0:	4240346f          	jal	x8,44d4 <failedtest_x8_x7>
    10b4:	000010a4          	.word	0x000010a4
    10b8:	00009e1f          	.word	0x00009e1f
    10bc:	004f0f13          	addi	x30,x30,4

  mv x20, x30 # switch signature pointer register to avoid conflict with test
    10c0:	000f0a13          	addi	x20,x30,0
# Testcase cp_rd (Test destination rd = x30)
  RVTEST_TESTDATA_LOAD_INT(x23, x19) # load rs1: x19 = 0xedd07a79
    10c4:	000ba983          	lw	x19,0(x23)
    10c8:	004b8b93          	addi	x23,x23,4
  RVTEST_TESTDATA_LOAD_INT(x23, x14) # load rs2: x14 = 0x11bce7e5
    10cc:	000ba703          	lw	x14,0(x23)
    10d0:	004b8b93          	addi	x23,x23,4

000010d4 <I_sll_cg_cp_rd_b30>:
I_sll_cg_cp_rd_b30:
  sll x30, x19, x14 # perform operation
    10d4:	00e99f33          	sll	x30,x19,x14
  # Check if x30 contains the expected result. x20 is the signature ptr, x8 is the link ptr, x7 is a temp reg.
  RVTEST_SIGUPD(x20, x8, x7, x30, I_sll_cg_cp_rd_b30, I_sll_cg_cp_rd_b30_str)
    10d8:	000a2383          	lw	x7,0(x20)
    10dc:	01e38863          	beq	x7,x30,10ec <I_sll_cg_cp_rd_b30+0x18>
    10e0:	3f40346f          	jal	x8,44d4 <failedtest_x8_x7>
    10e4:	000010d4          	.word	0x000010d4
    10e8:	00009e4d          	.word	0x00009e4d
    10ec:	004a0a13          	addi	x20,x20,4

# Testcase cp_rd (Test destination rd = x31)
  RVTEST_TESTDATA_LOAD_INT(x23, x24) # load rs1: x24 = 0xf0a872a2
    10f0:	000bac03          	lw	x24,0(x23)
    10f4:	004b8b93          	addi	x23,x23,4
  RVTEST_TESTDATA_LOAD_INT(x23, x17) # load rs2: x17 = 0x2317d52c
    10f8:	000ba883          	lw	x17,0(x23)
    10fc:	004b8b93          	addi	x23,x23,4

00001100 <I_sll_cg_cp_rd_b31>:
I_sll_cg_cp_rd_b31:
  sll x31, x24, x17 # perform operation
    1100:	011c1fb3          	sll	x31,x24,x17
  # Check if x31 contains the expected result. x20 is the signature ptr, x8 is the link ptr, x7 is a temp reg.
  RVTEST_SIGUPD(x20, x8, x7, x31, I_sll_cg_cp_rd_b31, I_sll_cg_cp_rd_b31_str)
    1104:	000a2383          	lw	x7,0(x20)
    1108:	01f38863          	beq	x7,x31,1118 <I_sll_cg_cp_rd_b31+0x18>
    110c:	3c80346f          	jal	x8,44d4 <failedtest_x8_x7>
    1110:	00001100          	.word	0x00001100
    1114:	00009e7b          	.word	0x00009e7b
    1118:	004a0a13          	addi	x20,x20,4
/////////////////////////////////
// cp_rs1_edges
/////////////////////////////////

# Testcase cp_rs1_edges (Test source rs1 value = 0x00000000)
  RVTEST_TESTDATA_LOAD_INT(x23, x25) # load rs1: x25 = 0x00000000
    111c:	000bac83          	lw	x25,0(x23)
    1120:	004b8b93          	addi	x23,x23,4
  RVTEST_TESTDATA_LOAD_INT(x23, x3) # load rs2: x3 = 0x7aac8797
    1124:	000ba183          	lw	x3,0(x23)
    1128:	004b8b93          	addi	x23,x23,4

0000112c <I_sll_cg_cp_rs1_edges_0x0>:
I_sll_cg_cp_rs1_edges_0x0:
  sll x26, x25, x3 # perform operation
    112c:	003c9d33          	sll	x26,x25,x3
  # Check if x26 contains the expected result. x20 is the signature ptr, x8 is the link ptr, x7 is a temp reg.
  RVTEST_SIGUPD(x20, x8, x7, x26, I_sll_cg_cp_rs1_edges_0x0, I_sll_cg_cp_rs1_edges_0x0_str)
    1130:	000a2383          	lw	x7,0(x20)
    1134:	01a38863          	beq	x7,x26,1144 <I_sll_cg_cp_rs1_edges_0x0+0x18>
    1138:	39c0346f          	jal	x8,44d4 <failedtest_x8_x7>
    113c:	0000112c          	.word	0x0000112c
    1140:	00009ea9          	.word	0x00009ea9
    1144:	004a0a13          	addi	x20,x20,4

# Testcase cp_rs1_edges (Test source rs1 value = 0x00000001)
  RVTEST_TESTDATA_LOAD_INT(x23, x2) # load rs1: x2 = 0x00000001
    1148:	000ba103          	lw	x2,0(x23)
    114c:	004b8b93          	addi	x23,x23,4
  RVTEST_TESTDATA_LOAD_INT(x23, x3) # load rs2: x3 = 0xd7c36ab6
    1150:	000ba183          	lw	x3,0(x23)
    1154:	004b8b93          	addi	x23,x23,4

00001158 <I_sll_cg_cp_rs1_edges_0x1>:
I_sll_cg_cp_rs1_edges_0x1:
  sll x5, x2, x3 # perform operation
    1158:	003112b3          	sll	x5,x2,x3
  # Check if x5 contains the expected result. x20 is the signature ptr, x8 is the link ptr, x7 is a temp reg.
  RVTEST_SIGUPD(x20, x8, x7, x5, I_sll_cg_cp_rs1_edges_0x1, I_sll_cg_cp_rs1_edges_0x1_str)
    115c:	000a2383          	lw	x7,0(x20)
    1160:	00538863          	beq	x7,x5,1170 <I_sll_cg_cp_rs1_edges_0x1+0x18>
    1164:	3700346f          	jal	x8,44d4 <failedtest_x8_x7>
    1168:	00001158          	.word	0x00001158
    116c:	00009ede          	.word	0x00009ede
    1170:	004a0a13          	addi	x20,x20,4

# Testcase cp_rs1_edges (Test source rs1 value = 0x00000002)
  RVTEST_TESTDATA_LOAD_INT(x23, x17) # load rs1: x17 = 0x00000002
    1174:	000ba883          	lw	x17,0(x23)
    1178:	004b8b93          	addi	x23,x23,4
  RVTEST_TESTDATA_LOAD_INT(x23, x18) # load rs2: x18 = 0x3901982d
    117c:	000ba903          	lw	x18,0(x23)
    1180:	004b8b93          	addi	x23,x23,4

00001184 <I_sll_cg_cp_rs1_edges_0x2>:
I_sll_cg_cp_rs1_edges_0x2:
  sll x31, x17, x18 # perform operation
    1184:	01289fb3          	sll	x31,x17,x18
  # Check if x31 contains the expected result. x20 is the signature ptr, x8 is the link ptr, x7 is a temp reg.
  RVTEST_SIGUPD(x20, x8, x7, x31, I_sll_cg_cp_rs1_edges_0x2, I_sll_cg_cp_rs1_edges_0x2_str)
    1188:	000a2383          	lw	x7,0(x20)
    118c:	01f38863          	beq	x7,x31,119c <I_sll_cg_cp_rs1_edges_0x2+0x18>
    1190:	3440346f          	jal	x8,44d4 <failedtest_x8_x7>
    1194:	00001184          	.word	0x00001184
    1198:	00009f13          	.word	0x00009f13
    119c:	004a0a13          	addi	x20,x20,4

# Testcase cp_rs1_edges (Test source rs1 value = 0x80000000)
  RVTEST_TESTDATA_LOAD_INT(x23, x28) # load rs1: x28 = 0x80000000
    11a0:	000bae03          	lw	x28,0(x23)
    11a4:	004b8b93          	addi	x23,x23,4
  RVTEST_TESTDATA_LOAD_INT(x23, x31) # load rs2: x31 = 0xa4c4230f
    11a8:	000baf83          	lw	x31,0(x23)
    11ac:	004b8b93          	addi	x23,x23,4

000011b0 <I_sll_cg_cp_rs1_edges_0x80000000>:
I_sll_cg_cp_rs1_edges_0x80000000:
  sll x13, x28, x31 # perform operation
    11b0:	01fe16b3          	sll	x13,x28,x31
  # Check if x13 contains the expected result. x20 is the signature ptr, x8 is the link ptr, x7 is a temp reg.
  RVTEST_SIGUPD(x20, x8, x7, x13, I_sll_cg_cp_rs1_edges_0x80000000, I_sll_cg_cp_rs1_edges_0x80000000_str)
    11b4:	000a2383          	lw	x7,0(x20)
    11b8:	00d38863          	beq	x7,x13,11c8 <I_sll_cg_cp_rs1_edges_0x80000000+0x18>
    11bc:	3180346f          	jal	x8,44d4 <failedtest_x8_x7>
    11c0:	000011b0          	.word	0x000011b0
    11c4:	00009f48          	.word	0x00009f48
    11c8:	004a0a13          	addi	x20,x20,4

# Testcase cp_rs1_edges (Test source rs1 value = 0x80000001)
  RVTEST_TESTDATA_LOAD_INT(x23, x28) # load rs1: x28 = 0x80000001
    11cc:	000bae03          	lw	x28,0(x23)
    11d0:	004b8b93          	addi	x23,x23,4
  RVTEST_TESTDATA_LOAD_INT(x23, x17) # load rs2: x17 = 0xdb45c4e5
    11d4:	000ba883          	lw	x17,0(x23)
    11d8:	004b8b93          	addi	x23,x23,4

000011dc <I_sll_cg_cp_rs1_edges_0x80000001>:
I_sll_cg_cp_rs1_edges_0x80000001:
  sll x25, x28, x17 # perform operation
    11dc:	011e1cb3          	sll	x25,x28,x17
  # Check if x25 contains the expected result. x20 is the signature ptr, x8 is the link ptr, x7 is a temp reg.
  RVTEST_SIGUPD(x20, x8, x7, x25, I_sll_cg_cp_rs1_edges_0x80000001, I_sll_cg_cp_rs1_edges_0x80000001_str)
    11e0:	000a2383          	lw	x7,0(x20)
    11e4:	01938863          	beq	x7,x25,11f4 <I_sll_cg_cp_rs1_edges_0x80000001+0x18>
    11e8:	2ec0346f          	jal	x8,44d4 <failedtest_x8_x7>
    11ec:	000011dc          	.word	0x000011dc
    11f0:	00009f85          	.word	0x00009f85
    11f4:	004a0a13          	addi	x20,x20,4

# Testcase cp_rs1_edges (Test source rs1 value = 0x7fffffff)
  RVTEST_TESTDATA_LOAD_INT(x23, x22) # load rs1: x22 = 0x7fffffff
    11f8:	000bab03          	lw	x22,0(x23)
    11fc:	004b8b93          	addi	x23,x23,4
  RVTEST_TESTDATA_LOAD_INT(x23, x30) # load rs2: x30 = 0xeffe7dd9
    1200:	000baf03          	lw	x30,0(x23)
    1204:	004b8b93          	addi	x23,x23,4

00001208 <I_sll_cg_cp_rs1_edges_0x7fffffff>:
I_sll_cg_cp_rs1_edges_0x7fffffff:
  sll x26, x22, x30 # perform operation
    1208:	01eb1d33          	sll	x26,x22,x30
  # Check if x26 contains the expected result. x20 is the signature ptr, x8 is the link ptr, x7 is a temp reg.
  RVTEST_SIGUPD(x20, x8, x7, x26, I_sll_cg_cp_rs1_edges_0x7fffffff, I_sll_cg_cp_rs1_edges_0x7fffffff_str)
    120c:	000a2383          	lw	x7,0(x20)
    1210:	01a38863          	beq	x7,x26,1220 <I_sll_cg_cp_rs1_edges_0x7fffffff+0x18>
    1214:	2c00346f          	jal	x8,44d4 <failedtest_x8_x7>
    1218:	00001208          	.word	0x00001208
    121c:	00009fc2          	.word	0x00009fc2
    1220:	004a0a13          	addi	x20,x20,4

# Testcase cp_rs1_edges (Test source rs1 value = 0x7ffffffe)
  RVTEST_TESTDATA_LOAD_INT(x23, x10) # load rs1: x10 = 0x7ffffffe
    1224:	000ba503          	lw	x10,0(x23)
    1228:	004b8b93          	addi	x23,x23,4
  RVTEST_TESTDATA_LOAD_INT(x23, x3) # load rs2: x3 = 0xa08d6f7c
    122c:	000ba183          	lw	x3,0(x23)
    1230:	004b8b93          	addi	x23,x23,4

00001234 <I_sll_cg_cp_rs1_edges_0x7ffffffe>:
I_sll_cg_cp_rs1_edges_0x7ffffffe:
  sll x4, x10, x3 # perform operation
    1234:	00351233          	sll	x4,x10,x3
  # Check if x4 contains the expected result. x20 is the signature ptr, x8 is the link ptr, x7 is a temp reg.
  RVTEST_SIGUPD(x20, x8, x7, x4, I_sll_cg_cp_rs1_edges_0x7ffffffe, I_sll_cg_cp_rs1_edges_0x7ffffffe_str)
    1238:	000a2383          	lw	x7,0(x20)
    123c:	00438863          	beq	x7,x4,124c <I_sll_cg_cp_rs1_edges_0x7ffffffe+0x18>
    1240:	2940346f          	jal	x8,44d4 <failedtest_x8_x7>
    1244:	00001234          	.word	0x00001234
    1248:	00009fff          	.word	0x00009fff
    124c:	004a0a13          	addi	x20,x20,4

# Testcase cp_rs1_edges (Test source rs1 value = 0xffffffff)
  RVTEST_TESTDATA_LOAD_INT(x23, x4) # load rs1: x4 = 0xffffffff
    1250:	000ba203          	lw	x4,0(x23)
    1254:	004b8b93          	addi	x23,x23,4
  RVTEST_TESTDATA_LOAD_INT(x23, x9) # load rs2: x9 = 0xa38a5578
    1258:	000ba483          	lw	x9,0(x23)
    125c:	004b8b93          	addi	x23,x23,4

00001260 <I_sll_cg_cp_rs1_edges_0xffffffff>:
I_sll_cg_cp_rs1_edges_0xffffffff:
  sll x28, x4, x9 # perform operation
    1260:	00921e33          	sll	x28,x4,x9
  # Check if x28 contains the expected result. x20 is the signature ptr, x8 is the link ptr, x7 is a temp reg.
  RVTEST_SIGUPD(x20, x8, x7, x28, I_sll_cg_cp_rs1_edges_0xffffffff, I_sll_cg_cp_rs1_edges_0xffffffff_str)
    1264:	000a2383          	lw	x7,0(x20)
    1268:	01c38863          	beq	x7,x28,1278 <I_sll_cg_cp_rs1_edges_0xffffffff+0x18>
    126c:	2680346f          	jal	x8,44d4 <failedtest_x8_x7>
    1270:	00001260          	.word	0x00001260
    1274:	0000a03c          	.word	0x0000a03c
    1278:	004a0a13          	addi	x20,x20,4

# Testcase cp_rs1_edges (Test source rs1 value = 0xfffffffe)
  RVTEST_TESTDATA_LOAD_INT(x23, x29) # load rs1: x29 = 0xfffffffe
    127c:	000bae83          	lw	x29,0(x23)
    1280:	004b8b93          	addi	x23,x23,4
  RVTEST_TESTDATA_LOAD_INT(x23, x21) # load rs2: x21 = 0x21af4d04
    1284:	000baa83          	lw	x21,0(x23)
    1288:	004b8b93          	addi	x23,x23,4

0000128c <I_sll_cg_cp_rs1_edges_0xfffffffe>:
I_sll_cg_cp_rs1_edges_0xfffffffe:
  sll x27, x29, x21 # perform operation
    128c:	015e9db3          	sll	x27,x29,x21
  # Check if x27 contains the expected result. x20 is the signature ptr, x8 is the link ptr, x7 is a temp reg.
  RVTEST_SIGUPD(x20, x8, x7, x27, I_sll_cg_cp_rs1_edges_0xfffffffe, I_sll_cg_cp_rs1_edges_0xfffffffe_str)
    1290:	000a2383          	lw	x7,0(x20)
    1294:	01b38863          	beq	x7,x27,12a4 <I_sll_cg_cp_rs1_edges_0xfffffffe+0x18>
    1298:	23c0346f          	jal	x8,44d4 <failedtest_x8_x7>
    129c:	0000128c          	.word	0x0000128c
    12a0:	0000a079          	.word	0x0000a079
    12a4:	004a0a13          	addi	x20,x20,4

# Testcase cp_rs1_edges (Test source rs1 value = 0x5bbc8872)
  RVTEST_TESTDATA_LOAD_INT(x23, x9) # load rs1: x9 = 0x5bbc8872
    12a8:	000ba483          	lw	x9,0(x23)
    12ac:	004b8b93          	addi	x23,x23,4
  RVTEST_TESTDATA_LOAD_INT(x23, x31) # load rs2: x31 = 0x3ec092ca
    12b0:	000baf83          	lw	x31,0(x23)
    12b4:	004b8b93          	addi	x23,x23,4

000012b8 <I_sll_cg_cp_rs1_edges_0x5bbc8872>:
I_sll_cg_cp_rs1_edges_0x5bbc8872:
  sll x17, x9, x31 # perform operation
    12b8:	01f498b3          	sll	x17,x9,x31
  # Check if x17 contains the expected result. x20 is the signature ptr, x8 is the link ptr, x7 is a temp reg.
  RVTEST_SIGUPD(x20, x8, x7, x17, I_sll_cg_cp_rs1_edges_0x5bbc8872, I_sll_cg_cp_rs1_edges_0x5bbc8872_str)
    12bc:	000a2383          	lw	x7,0(x20)
    12c0:	01138863          	beq	x7,x17,12d0 <I_sll_cg_cp_rs1_edges_0x5bbc8872+0x18>
    12c4:	2100346f          	jal	x8,44d4 <failedtest_x8_x7>
    12c8:	000012b8          	.word	0x000012b8
    12cc:	0000a0b6          	.word	0x0000a0b6
    12d0:	004a0a13          	addi	x20,x20,4

# Testcase cp_rs1_edges (Test source rs1 value = 0xaaaaaaaa)
  RVTEST_TESTDATA_LOAD_INT(x23, x14) # load rs1: x14 = 0xaaaaaaaa
    12d4:	000ba703          	lw	x14,0(x23)
    12d8:	004b8b93          	addi	x23,x23,4
  RVTEST_TESTDATA_LOAD_INT(x23, x30) # load rs2: x30 = 0xbd8152bf
    12dc:	000baf03          	lw	x30,0(x23)
    12e0:	004b8b93          	addi	x23,x23,4

000012e4 <I_sll_cg_cp_rs1_edges_0xaaaaaaaa>:
I_sll_cg_cp_rs1_edges_0xaaaaaaaa:
  sll x15, x14, x30 # perform operation
    12e4:	01e717b3          	sll	x15,x14,x30
  # Check if x15 contains the expected result. x20 is the signature ptr, x8 is the link ptr, x7 is a temp reg.
  RVTEST_SIGUPD(x20, x8, x7, x15, I_sll_cg_cp_rs1_edges_0xaaaaaaaa, I_sll_cg_cp_rs1_edges_0xaaaaaaaa_str)
    12e8:	000a2383          	lw	x7,0(x20)
    12ec:	00f38863          	beq	x7,x15,12fc <I_sll_cg_cp_rs1_edges_0xaaaaaaaa+0x18>
    12f0:	1e40346f          	jal	x8,44d4 <failedtest_x8_x7>
    12f4:	000012e4          	.word	0x000012e4
    12f8:	0000a0f3          	.word	0x0000a0f3
    12fc:	004a0a13          	addi	x20,x20,4

# Testcase cp_rs1_edges (Test source rs1 value = 0x55555555)
  RVTEST_TESTDATA_LOAD_INT(x23, x9) # load rs1: x9 = 0x55555555
    1300:	000ba483          	lw	x9,0(x23)
    1304:	004b8b93          	addi	x23,x23,4
  RVTEST_TESTDATA_LOAD_INT(x23, x22) # load rs2: x22 = 0x3cc4b95f
    1308:	000bab03          	lw	x22,0(x23)
    130c:	004b8b93          	addi	x23,x23,4

00001310 <I_sll_cg_cp_rs1_edges_0x55555555>:
I_sll_cg_cp_rs1_edges_0x55555555:
  sll x11, x9, x22 # perform operation
    1310:	016495b3          	sll	x11,x9,x22
  # Check if x11 contains the expected result. x20 is the signature ptr, x8 is the link ptr, x7 is a temp reg.
  RVTEST_SIGUPD(x20, x8, x7, x11, I_sll_cg_cp_rs1_edges_0x55555555, I_sll_cg_cp_rs1_edges_0x55555555_str)
    1314:	000a2383          	lw	x7,0(x20)
    1318:	00b38863          	beq	x7,x11,1328 <I_sll_cg_cp_rs1_edges_0x55555555+0x18>
    131c:	1b80346f          	jal	x8,44d4 <failedtest_x8_x7>
    1320:	00001310          	.word	0x00001310
    1324:	0000a130          	.word	0x0000a130
    1328:	004a0a13          	addi	x20,x20,4
/////////////////////////////////
// cp_rs2_edges
/////////////////////////////////

# Testcase cp_rs2_edges (Test source rs2 value = 0x00000000)
  RVTEST_TESTDATA_LOAD_INT(x23, x18) # load rs1: x18 = 0x6f2a7872
    132c:	000ba903          	lw	x18,0(x23)
    1330:	004b8b93          	addi	x23,x23,4
  RVTEST_TESTDATA_LOAD_INT(x23, x4) # load rs2: x4 = 0x00000000
    1334:	000ba203          	lw	x4,0(x23)
    1338:	004b8b93          	addi	x23,x23,4

0000133c <I_sll_cg_cp_rs2_edges_0x0>:
I_sll_cg_cp_rs2_edges_0x0:
  sll x31, x18, x4 # perform operation
    133c:	00491fb3          	sll	x31,x18,x4
  # Check if x31 contains the expected result. x20 is the signature ptr, x8 is the link ptr, x7 is a temp reg.
  RVTEST_SIGUPD(x20, x8, x7, x31, I_sll_cg_cp_rs2_edges_0x0, I_sll_cg_cp_rs2_edges_0x0_str)
    1340:	000a2383          	lw	x7,0(x20)
    1344:	01f38863          	beq	x7,x31,1354 <I_sll_cg_cp_rs2_edges_0x0+0x18>
    1348:	18c0346f          	jal	x8,44d4 <failedtest_x8_x7>
    134c:	0000133c          	.word	0x0000133c
    1350:	0000a16d          	.word	0x0000a16d
    1354:	004a0a13          	addi	x20,x20,4

# Testcase cp_rs2_edges (Test source rs2 value = 0x00000001)
  RVTEST_TESTDATA_LOAD_INT(x23, x3) # load rs1: x3 = 0x0ec07319
    1358:	000ba183          	lw	x3,0(x23)
    135c:	004b8b93          	addi	x23,x23,4
  RVTEST_TESTDATA_LOAD_INT(x23, x26) # load rs2: x26 = 0x00000001
    1360:	000bad03          	lw	x26,0(x23)
    1364:	004b8b93          	addi	x23,x23,4

00001368 <I_sll_cg_cp_rs2_edges_0x1>:
I_sll_cg_cp_rs2_edges_0x1:
  sll x17, x3, x26 # perform operation
    1368:	01a198b3          	sll	x17,x3,x26
  # Check if x17 contains the expected result. x20 is the signature ptr, x8 is the link ptr, x7 is a temp reg.
  RVTEST_SIGUPD(x20, x8, x7, x17, I_sll_cg_cp_rs2_edges_0x1, I_sll_cg_cp_rs2_edges_0x1_str)
    136c:	000a2383          	lw	x7,0(x20)
    1370:	01138863          	beq	x7,x17,1380 <I_sll_cg_cp_rs2_edges_0x1+0x18>
    1374:	1600346f          	jal	x8,44d4 <failedtest_x8_x7>
    1378:	00001368          	.word	0x00001368
    137c:	0000a1a3          	.word	0x0000a1a3
    1380:	004a0a13          	addi	x20,x20,4

# Testcase cp_rs2_edges (Test source rs2 value = 0x00000002)
  RVTEST_TESTDATA_LOAD_INT(x23, x1) # load rs1: x1 = 0xdb72b101
    1384:	000ba083          	lw	x1,0(x23)
    1388:	004b8b93          	addi	x23,x23,4
  RVTEST_TESTDATA_LOAD_INT(x23, x19) # load rs2: x19 = 0x00000002
    138c:	000ba983          	lw	x19,0(x23)
    1390:	004b8b93          	addi	x23,x23,4

00001394 <I_sll_cg_cp_rs2_edges_0x2>:
I_sll_cg_cp_rs2_edges_0x2:
  sll x29, x1, x19 # perform operation
    1394:	01309eb3          	sll	x29,x1,x19
  # Check if x29 contains the expected result. x20 is the signature ptr, x8 is the link ptr, x7 is a temp reg.
  RVTEST_SIGUPD(x20, x8, x7, x29, I_sll_cg_cp_rs2_edges_0x2, I_sll_cg_cp_rs2_edges_0x2_str)
    1398:	000a2383          	lw	x7,0(x20)
    139c:	01d38863          	beq	x7,x29,13ac <I_sll_cg_cp_rs2_edges_0x2+0x18>
    13a0:	1340346f          	jal	x8,44d4 <failedtest_x8_x7>
    13a4:	00001394          	.word	0x00001394
    13a8:	0000a1d9          	.word	0x0000a1d9
    13ac:	004a0a13          	addi	x20,x20,4

# Testcase cp_rs2_edges (Test source rs2 value = 0x80000000)
  RVTEST_TESTDATA_LOAD_INT(x23, x28) # load rs1: x28 = 0xc5830ee3
    13b0:	000bae03          	lw	x28,0(x23)
    13b4:	004b8b93          	addi	x23,x23,4
  RVTEST_TESTDATA_LOAD_INT(x23, x16) # load rs2: x16 = 0x80000000
    13b8:	000ba803          	lw	x16,0(x23)
    13bc:	004b8b93          	addi	x23,x23,4

000013c0 <I_sll_cg_cp_rs2_edges_0x80000000>:
I_sll_cg_cp_rs2_edges_0x80000000:
  sll x21, x28, x16 # perform operation
    13c0:	010e1ab3          	sll	x21,x28,x16
  # Check if x21 contains the expected result. x20 is the signature ptr, x8 is the link ptr, x7 is a temp reg.
  RVTEST_SIGUPD(x20, x8, x7, x21, I_sll_cg_cp_rs2_edges_0x80000000, I_sll_cg_cp_rs2_edges_0x80000000_str)
    13c4:	000a2383          	lw	x7,0(x20)
    13c8:	01538863          	beq	x7,x21,13d8 <I_sll_cg_cp_rs2_edges_0x80000000+0x18>
    13cc:	1080346f          	jal	x8,44d4 <failedtest_x8_x7>
    13d0:	000013c0          	.word	0x000013c0
    13d4:	0000a20f          	.word	0x0000a20f
    13d8:	004a0a13          	addi	x20,x20,4

# Testcase cp_rs2_edges (Test source rs2 value = 0x80000001)
  RVTEST_TESTDATA_LOAD_INT(x23, x18) # load rs1: x18 = 0x43e9c135
    13dc:	000ba903          	lw	x18,0(x23)
    13e0:	004b8b93          	addi	x23,x23,4
  RVTEST_TESTDATA_LOAD_INT(x23, x17) # load rs2: x17 = 0x80000001
    13e4:	000ba883          	lw	x17,0(x23)
    13e8:	004b8b93          	addi	x23,x23,4

000013ec <I_sll_cg_cp_rs2_edges_0x80000001>:
I_sll_cg_cp_rs2_edges_0x80000001:
  sll x31, x18, x17 # perform operation
    13ec:	01191fb3          	sll	x31,x18,x17
  # Check if x31 contains the expected result. x20 is the signature ptr, x8 is the link ptr, x7 is a temp reg.
  RVTEST_SIGUPD(x20, x8, x7, x31, I_sll_cg_cp_rs2_edges_0x80000001, I_sll_cg_cp_rs2_edges_0x80000001_str)
    13f0:	000a2383          	lw	x7,0(x20)
    13f4:	01f38863          	beq	x7,x31,1404 <I_sll_cg_cp_rs2_edges_0x80000001+0x18>
    13f8:	0dc0346f          	jal	x8,44d4 <failedtest_x8_x7>
    13fc:	000013ec          	.word	0x000013ec
    1400:	0000a24c          	.word	0x0000a24c
    1404:	004a0a13          	addi	x20,x20,4

# Testcase cp_rs2_edges (Test source rs2 value = 0x7fffffff)
  RVTEST_TESTDATA_LOAD_INT(x23, x27) # load rs1: x27 = 0x5c5e6763
    1408:	000bad83          	lw	x27,0(x23)
    140c:	004b8b93          	addi	x23,x23,4
  RVTEST_TESTDATA_LOAD_INT(x23, x30) # load rs2: x30 = 0x7fffffff
    1410:	000baf03          	lw	x30,0(x23)
    1414:	004b8b93          	addi	x23,x23,4

00001418 <I_sll_cg_cp_rs2_edges_0x7fffffff>:
I_sll_cg_cp_rs2_edges_0x7fffffff:
  sll x25, x27, x30 # perform operation
    1418:	01ed9cb3          	sll	x25,x27,x30
  # Check if x25 contains the expected result. x20 is the signature ptr, x8 is the link ptr, x7 is a temp reg.
  RVTEST_SIGUPD(x20, x8, x7, x25, I_sll_cg_cp_rs2_edges_0x7fffffff, I_sll_cg_cp_rs2_edges_0x7fffffff_str)
    141c:	000a2383          	lw	x7,0(x20)
    1420:	01938863          	beq	x7,x25,1430 <I_sll_cg_cp_rs2_edges_0x7fffffff+0x18>
    1424:	0b00346f          	jal	x8,44d4 <failedtest_x8_x7>
    1428:	00001418          	.word	0x00001418
    142c:	0000a289          	.word	0x0000a289
    1430:	004a0a13          	addi	x20,x20,4

# Testcase cp_rs2_edges (Test source rs2 value = 0x7ffffffe)
  RVTEST_TESTDATA_LOAD_INT(x23, x25) # load rs1: x25 = 0x1c564e8a
    1434:	000bac83          	lw	x25,0(x23)
    1438:	004b8b93          	addi	x23,x23,4
  RVTEST_TESTDATA_LOAD_INT(x23, x2) # load rs2: x2 = 0x7ffffffe
    143c:	000ba103          	lw	x2,0(x23)
    1440:	004b8b93          	addi	x23,x23,4

00001444 <I_sll_cg_cp_rs2_edges_0x7ffffffe>:
I_sll_cg_cp_rs2_edges_0x7ffffffe:
  sll x19, x25, x2 # perform operation
    1444:	002c99b3          	sll	x19,x25,x2
  # Check if x19 contains the expected result. x20 is the signature ptr, x8 is the link ptr, x7 is a temp reg.
  RVTEST_SIGUPD(x20, x8, x7, x19, I_sll_cg_cp_rs2_edges_0x7ffffffe, I_sll_cg_cp_rs2_edges_0x7ffffffe_str)
    1448:	000a2383          	lw	x7,0(x20)
    144c:	01338863          	beq	x7,x19,145c <I_sll_cg_cp_rs2_edges_0x7ffffffe+0x18>
    1450:	0840346f          	jal	x8,44d4 <failedtest_x8_x7>
    1454:	00001444          	.word	0x00001444
    1458:	0000a2c6          	.word	0x0000a2c6
    145c:	004a0a13          	addi	x20,x20,4

# Testcase cp_rs2_edges (Test source rs2 value = 0xffffffff)
  RVTEST_TESTDATA_LOAD_INT(x23, x13) # load rs1: x13 = 0x8548af6a
    1460:	000ba683          	lw	x13,0(x23)
    1464:	004b8b93          	addi	x23,x23,4
  RVTEST_TESTDATA_LOAD_INT(x23, x4) # load rs2: x4 = 0xffffffff
    1468:	000ba203          	lw	x4,0(x23)
    146c:	004b8b93          	addi	x23,x23,4

00001470 <I_sll_cg_cp_rs2_edges_0xffffffff>:
I_sll_cg_cp_rs2_edges_0xffffffff:
  sll x1, x13, x4 # perform operation
    1470:	004690b3          	sll	x1,x13,x4
  # Check if x1 contains the expected result. x20 is the signature ptr, x8 is the link ptr, x7 is a temp reg.
  RVTEST_SIGUPD(x20, x8, x7, x1, I_sll_cg_cp_rs2_edges_0xffffffff, I_sll_cg_cp_rs2_edges_0xffffffff_str)
    1474:	000a2383          	lw	x7,0(x20)
    1478:	00138863          	beq	x7,x1,1488 <I_sll_cg_cp_rs2_edges_0xffffffff+0x18>
    147c:	0580346f          	jal	x8,44d4 <failedtest_x8_x7>
    1480:	00001470          	.word	0x00001470
    1484:	0000a303          	.word	0x0000a303
    1488:	004a0a13          	addi	x20,x20,4

# Testcase cp_rs2_edges (Test source rs2 value = 0xfffffffe)
  RVTEST_TESTDATA_LOAD_INT(x23, x14) # load rs1: x14 = 0x09753e1d
    148c:	000ba703          	lw	x14,0(x23)
    1490:	004b8b93          	addi	x23,x23,4
  RVTEST_TESTDATA_LOAD_INT(x23, x9) # load rs2: x9 = 0xfffffffe
    1494:	000ba483          	lw	x9,0(x23)
    1498:	004b8b93          	addi	x23,x23,4

0000149c <I_sll_cg_cp_rs2_edges_0xfffffffe>:
I_sll_cg_cp_rs2_edges_0xfffffffe:
  sll x6, x14, x9 # perform operation
    149c:	00971333          	sll	x6,x14,x9
  # Check if x6 contains the expected result. x20 is the signature ptr, x8 is the link ptr, x7 is a temp reg.
  RVTEST_SIGUPD(x20, x8, x7, x6, I_sll_cg_cp_rs2_edges_0xfffffffe, I_sll_cg_cp_rs2_edges_0xfffffffe_str)
    14a0:	000a2383          	lw	x7,0(x20)
    14a4:	00638863          	beq	x7,x6,14b4 <I_sll_cg_cp_rs2_edges_0xfffffffe+0x18>
    14a8:	02c0346f          	jal	x8,44d4 <failedtest_x8_x7>
    14ac:	0000149c          	.word	0x0000149c
    14b0:	0000a340          	.word	0x0000a340
    14b4:	004a0a13          	addi	x20,x20,4

# Testcase cp_rs2_edges (Test source rs2 value = 0x5bbc8872)
  RVTEST_TESTDATA_LOAD_INT(x23, x19) # load rs1: x19 = 0x4c4748a6
    14b8:	000ba983          	lw	x19,0(x23)
    14bc:	004b8b93          	addi	x23,x23,4
  RVTEST_TESTDATA_LOAD_INT(x23, x25) # load rs2: x25 = 0x5bbc8872
    14c0:	000bac83          	lw	x25,0(x23)
    14c4:	004b8b93          	addi	x23,x23,4

000014c8 <I_sll_cg_cp_rs2_edges_0x5bbc8872>:
I_sll_cg_cp_rs2_edges_0x5bbc8872:
  sll x12, x19, x25 # perform operation
    14c8:	01999633          	sll	x12,x19,x25
  # Check if x12 contains the expected result. x20 is the signature ptr, x8 is the link ptr, x7 is a temp reg.
  RVTEST_SIGUPD(x20, x8, x7, x12, I_sll_cg_cp_rs2_edges_0x5bbc8872, I_sll_cg_cp_rs2_edges_0x5bbc8872_str)
    14cc:	000a2383          	lw	x7,0(x20)
    14d0:	00c38863          	beq	x7,x12,14e0 <I_sll_cg_cp_rs2_edges_0x5bbc8872+0x18>
    14d4:	0000346f          	jal	x8,44d4 <failedtest_x8_x7>
    14d8:	000014c8          	.word	0x000014c8
    14dc:	0000a37d          	.word	0x0000a37d
    14e0:	004a0a13          	addi	x20,x20,4

# Testcase cp_rs2_edges (Test source rs2 value = 0xaaaaaaaa)
  RVTEST_TESTDATA_LOAD_INT(x23, x30) # load rs1: x30 = 0x7d9fef05
    14e4:	000baf03          	lw	x30,0(x23)
    14e8:	004b8b93          	addi	x23,x23,4
  RVTEST_TESTDATA_LOAD_INT(x23, x4) # load rs2: x4 = 0xaaaaaaaa
    14ec:	000ba203          	lw	x4,0(x23)
    14f0:	004b8b93          	addi	x23,x23,4

000014f4 <I_sll_cg_cp_rs2_edges_0xaaaaaaaa>:
I_sll_cg_cp_rs2_edges_0xaaaaaaaa:
  sll x17, x30, x4 # perform operation
    14f4:	004f18b3          	sll	x17,x30,x4
  # Check if x17 contains the expected result. x20 is the signature ptr, x8 is the link ptr, x7 is a temp reg.
  RVTEST_SIGUPD(x20, x8, x7, x17, I_sll_cg_cp_rs2_edges_0xaaaaaaaa, I_sll_cg_cp_rs2_edges_0xaaaaaaaa_str)
    14f8:	000a2383          	lw	x7,0(x20)
    14fc:	01138863          	beq	x7,x17,150c <I_sll_cg_cp_rs2_edges_0xaaaaaaaa+0x18>
    1500:	7d50246f          	jal	x8,44d4 <failedtest_x8_x7>
    1504:	000014f4          	.word	0x000014f4
    1508:	0000a3ba          	.word	0x0000a3ba
    150c:	004a0a13          	addi	x20,x20,4

# Testcase cp_rs2_edges (Test source rs2 value = 0x55555555)
  RVTEST_TESTDATA_LOAD_INT(x23, x22) # load rs1: x22 = 0x824de8bc
    1510:	000bab03          	lw	x22,0(x23)
    1514:	004b8b93          	addi	x23,x23,4
  RVTEST_TESTDATA_LOAD_INT(x23, x1) # load rs2: x1 = 0x55555555
    1518:	000ba083          	lw	x1,0(x23)
    151c:	004b8b93          	addi	x23,x23,4

00001520 <I_sll_cg_cp_rs2_edges_0x55555555>:
I_sll_cg_cp_rs2_edges_0x55555555:
  sll x26, x22, x1 # perform operation
    1520:	001b1d33          	sll	x26,x22,x1
  # Check if x26 contains the expected result. x20 is the signature ptr, x8 is the link ptr, x7 is a temp reg.
  RVTEST_SIGUPD(x20, x8, x7, x26, I_sll_cg_cp_rs2_edges_0x55555555, I_sll_cg_cp_rs2_edges_0x55555555_str)
    1524:	000a2383          	lw	x7,0(x20)
    1528:	01a38863          	beq	x7,x26,1538 <I_sll_cg_cp_rs2_edges_0x55555555+0x18>
    152c:	7a90246f          	jal	x8,44d4 <failedtest_x8_x7>
    1530:	00001520          	.word	0x00001520
    1534:	0000a3f7          	.word	0x0000a3f7
    1538:	004a0a13          	addi	x20,x20,4
/////////////////////////////////
// cr_rs1_rs2_edges
/////////////////////////////////

# Testcase cr_rs1_rs2_edges (Test source rs1 = 0x00000000 rs2 = 0x00000000)
  RVTEST_TESTDATA_LOAD_INT(x23, x4) # load rs1: x4 = 0x00000000
    153c:	000ba203          	lw	x4,0(x23)
    1540:	004b8b93          	addi	x23,x23,4
  RVTEST_TESTDATA_LOAD_INT(x23, x30) # load rs2: x30 = 0x00000000
    1544:	000baf03          	lw	x30,0(x23)
    1548:	004b8b93          	addi	x23,x23,4

0000154c <I_sll_cg_cr_rs1_rs2_edges_rs1val_0x0_rs2val_0x0>:
I_sll_cg_cr_rs1_rs2_edges_rs1val_0x0_rs2val_0x0:
  sll x5, x4, x30 # perform operation
    154c:	01e212b3          	sll	x5,x4,x30
  # Check if x5 contains the expected result. x20 is the signature ptr, x8 is the link ptr, x7 is a temp reg.
  RVTEST_SIGUPD(x20, x8, x7, x5, I_sll_cg_cr_rs1_rs2_edges_rs1val_0x0_rs2val_0x0, I_sll_cg_cr_rs1_rs2_edges_rs1val_0x0_rs2val_0x0_str)
    1550:	000a2383          	lw	x7,0(x20)
    1554:	00538863          	beq	x7,x5,1564 <I_sll_cg_cr_rs1_rs2_edges_rs1val_0x0_rs2val_0x0+0x18>
    1558:	77d0246f          	jal	x8,44d4 <failedtest_x8_x7>
    155c:	0000154c          	.word	0x0000154c
    1560:	0000a434          	.word	0x0000a434
    1564:	004a0a13          	addi	x20,x20,4

# Testcase cr_rs1_rs2_edges (Test source rs1 = 0x00000000 rs2 = 0x00000001)
  RVTEST_TESTDATA_LOAD_INT(x23, x11) # load rs1: x11 = 0x00000000
    1568:	000ba583          	lw	x11,0(x23)
    156c:	004b8b93          	addi	x23,x23,4
  RVTEST_TESTDATA_LOAD_INT(x23, x28) # load rs2: x28 = 0x00000001
    1570:	000bae03          	lw	x28,0(x23)
    1574:	004b8b93          	addi	x23,x23,4

00001578 <I_sll_cg_cr_rs1_rs2_edges_rs1val_0x0_rs2val_0x1>:
I_sll_cg_cr_rs1_rs2_edges_rs1val_0x0_rs2val_0x1:
  sll x6, x11, x28 # perform operation
    1578:	01c59333          	sll	x6,x11,x28
  # Check if x6 contains the expected result. x20 is the signature ptr, x8 is the link ptr, x7 is a temp reg.
  RVTEST_SIGUPD(x20, x8, x7, x6, I_sll_cg_cr_rs1_rs2_edges_rs1val_0x0_rs2val_0x1, I_sll_cg_cr_rs1_rs2_edges_rs1val_0x0_rs2val_0x1_str)
    157c:	000a2383          	lw	x7,0(x20)
    1580:	00638863          	beq	x7,x6,1590 <I_sll_cg_cr_rs1_rs2_edges_rs1val_0x0_rs2val_0x1+0x18>
    1584:	7510246f          	jal	x8,44d4 <failedtest_x8_x7>
    1588:	00001578          	.word	0x00001578
    158c:	0000a481          	.word	0x0000a481
    1590:	004a0a13          	addi	x20,x20,4

# Testcase cr_rs1_rs2_edges (Test source rs1 = 0x00000000 rs2 = 0x00000002)
  RVTEST_TESTDATA_LOAD_INT(x23, x2) # load rs1: x2 = 0x00000000
    1594:	000ba103          	lw	x2,0(x23)
    1598:	004b8b93          	addi	x23,x23,4
  RVTEST_TESTDATA_LOAD_INT(x23, x29) # load rs2: x29 = 0x00000002
    159c:	000bae83          	lw	x29,0(x23)
    15a0:	004b8b93          	addi	x23,x23,4

000015a4 <I_sll_cg_cr_rs1_rs2_edges_rs1val_0x0_rs2val_0x2>:
I_sll_cg_cr_rs1_rs2_edges_rs1val_0x0_rs2val_0x2:
  sll x10, x2, x29 # perform operation
    15a4:	01d11533          	sll	x10,x2,x29
  # Check if x10 contains the expected result. x20 is the signature ptr, x8 is the link ptr, x7 is a temp reg.
  RVTEST_SIGUPD(x20, x8, x7, x10, I_sll_cg_cr_rs1_rs2_edges_rs1val_0x0_rs2val_0x2, I_sll_cg_cr_rs1_rs2_edges_rs1val_0x0_rs2val_0x2_str)
    15a8:	000a2383          	lw	x7,0(x20)
    15ac:	00a38863          	beq	x7,x10,15bc <I_sll_cg_cr_rs1_rs2_edges_rs1val_0x0_rs2val_0x2+0x18>
    15b0:	7250246f          	jal	x8,44d4 <failedtest_x8_x7>
    15b4:	000015a4          	.word	0x000015a4
    15b8:	0000a4ce          	.word	0x0000a4ce
    15bc:	004a0a13          	addi	x20,x20,4

# Testcase cr_rs1_rs2_edges (Test source rs1 = 0x00000000 rs2 = 0x80000000)
  RVTEST_TESTDATA_LOAD_INT(x23, x28) # load rs1: x28 = 0x00000000
    15c0:	000bae03          	lw	x28,0(x23)
    15c4:	004b8b93          	addi	x23,x23,4
  RVTEST_TESTDATA_LOAD_INT(x23, x3) # load rs2: x3 = 0x80000000
    15c8:	000ba183          	lw	x3,0(x23)
    15cc:	004b8b93          	addi	x23,x23,4

000015d0 <I_sll_cg_cr_rs1_rs2_edges_rs1val_0x0_rs2val_0x80000000>:
I_sll_cg_cr_rs1_rs2_edges_rs1val_0x0_rs2val_0x80000000:
  sll x19, x28, x3 # perform operation
    15d0:	003e19b3          	sll	x19,x28,x3
  # Check if x19 contains the expected result. x20 is the signature ptr, x8 is the link ptr, x7 is a temp reg.
  RVTEST_SIGUPD(x20, x8, x7, x19, I_sll_cg_cr_rs1_rs2_edges_rs1val_0x0_rs2val_0x80000000, I_sll_cg_cr_rs1_rs2_edges_rs1val_0x0_rs2val_0x80000000_str)
    15d4:	000a2383          	lw	x7,0(x20)
    15d8:	01338863          	beq	x7,x19,15e8 <I_sll_cg_cr_rs1_rs2_edges_rs1val_0x0_rs2val_0x80000000+0x18>
    15dc:	6f90246f          	jal	x8,44d4 <failedtest_x8_x7>
    15e0:	000015d0          	.word	0x000015d0
    15e4:	0000a51b          	.word	0x0000a51b
    15e8:	004a0a13          	addi	x20,x20,4

# Testcase cr_rs1_rs2_edges (Test source rs1 = 0x00000000 rs2 = 0x80000001)
  RVTEST_TESTDATA_LOAD_INT(x23, x2) # load rs1: x2 = 0x00000000
    15ec:	000ba103          	lw	x2,0(x23)
    15f0:	004b8b93          	addi	x23,x23,4
  RVTEST_TESTDATA_LOAD_INT(x23, x9) # load rs2: x9 = 0x80000001
    15f4:	000ba483          	lw	x9,0(x23)
    15f8:	004b8b93          	addi	x23,x23,4

000015fc <I_sll_cg_cr_rs1_rs2_edges_rs1val_0x0_rs2val_0x80000001>:
I_sll_cg_cr_rs1_rs2_edges_rs1val_0x0_rs2val_0x80000001:
  sll x1, x2, x9 # perform operation
    15fc:	009110b3          	sll	x1,x2,x9
  # Check if x1 contains the expected result. x20 is the signature ptr, x8 is the link ptr, x7 is a temp reg.
  RVTEST_SIGUPD(x20, x8, x7, x1, I_sll_cg_cr_rs1_rs2_edges_rs1val_0x0_rs2val_0x80000001, I_sll_cg_cr_rs1_rs2_edges_rs1val_0x0_rs2val_0x80000001_str)
    1600:	000a2383          	lw	x7,0(x20)
    1604:	00138863          	beq	x7,x1,1614 <I_sll_cg_cr_rs1_rs2_edges_rs1val_0x0_rs2val_0x80000001+0x18>
    1608:	6cd0246f          	jal	x8,44d4 <failedtest_x8_x7>
    160c:	000015fc          	.word	0x000015fc
    1610:	0000a56f          	.word	0x0000a56f
    1614:	004a0a13          	addi	x20,x20,4

# Testcase cr_rs1_rs2_edges (Test source rs1 = 0x00000000 rs2 = 0x7fffffff)
  RVTEST_TESTDATA_LOAD_INT(x23, x11) # load rs1: x11 = 0x00000000
    1618:	000ba583          	lw	x11,0(x23)
    161c:	004b8b93          	addi	x23,x23,4
  RVTEST_TESTDATA_LOAD_INT(x23, x26) # load rs2: x26 = 0x7fffffff
    1620:	000bad03          	lw	x26,0(x23)
    1624:	004b8b93          	addi	x23,x23,4

00001628 <I_sll_cg_cr_rs1_rs2_edges_rs1val_0x0_rs2val_0x7fffffff>:
I_sll_cg_cr_rs1_rs2_edges_rs1val_0x0_rs2val_0x7fffffff:
  sll x15, x11, x26 # perform operation
    1628:	01a597b3          	sll	x15,x11,x26
  # Check if x15 contains the expected result. x20 is the signature ptr, x8 is the link ptr, x7 is a temp reg.
  RVTEST_SIGUPD(x20, x8, x7, x15, I_sll_cg_cr_rs1_rs2_edges_rs1val_0x0_rs2val_0x7fffffff, I_sll_cg_cr_rs1_rs2_edges_rs1val_0x0_rs2val_0x7fffffff_str)
    162c:	000a2383          	lw	x7,0(x20)
    1630:	00f38863          	beq	x7,x15,1640 <I_sll_cg_cr_rs1_rs2_edges_rs1val_0x0_rs2val_0x7fffffff+0x18>
    1634:	6a10246f          	jal	x8,44d4 <failedtest_x8_x7>
    1638:	00001628          	.word	0x00001628
    163c:	0000a5c3          	.word	0x0000a5c3
    1640:	004a0a13          	addi	x20,x20,4

# Testcase cr_rs1_rs2_edges (Test source rs1 = 0x00000000 rs2 = 0x7ffffffe)
  RVTEST_TESTDATA_LOAD_INT(x23, x2) # load rs1: x2 = 0x00000000
    1644:	000ba103          	lw	x2,0(x23)
    1648:	004b8b93          	addi	x23,x23,4
  RVTEST_TESTDATA_LOAD_INT(x23, x13) # load rs2: x13 = 0x7ffffffe
    164c:	000ba683          	lw	x13,0(x23)
    1650:	004b8b93          	addi	x23,x23,4

00001654 <I_sll_cg_cr_rs1_rs2_edges_rs1val_0x0_rs2val_0x7ffffffe>:
I_sll_cg_cr_rs1_rs2_edges_rs1val_0x0_rs2val_0x7ffffffe:
  sll x19, x2, x13 # perform operation
    1654:	00d119b3          	sll	x19,x2,x13
  # Check if x19 contains the expected result. x20 is the signature ptr, x8 is the link ptr, x7 is a temp reg.
  RVTEST_SIGUPD(x20, x8, x7, x19, I_sll_cg_cr_rs1_rs2_edges_rs1val_0x0_rs2val_0x7ffffffe, I_sll_cg_cr_rs1_rs2_edges_rs1val_0x0_rs2val_0x7ffffffe_str)
    1658:	000a2383          	lw	x7,0(x20)
    165c:	01338863          	beq	x7,x19,166c <I_sll_cg_cr_rs1_rs2_edges_rs1val_0x0_rs2val_0x7ffffffe+0x18>
    1660:	6750246f          	jal	x8,44d4 <failedtest_x8_x7>
    1664:	00001654          	.word	0x00001654
    1668:	0000a617          	.word	0x0000a617
    166c:	004a0a13          	addi	x20,x20,4

# Testcase cr_rs1_rs2_edges (Test source rs1 = 0x00000000 rs2 = 0xffffffff)
  RVTEST_TESTDATA_LOAD_INT(x23, x12) # load rs1: x12 = 0x00000000
    1670:	000ba603          	lw	x12,0(x23)
    1674:	004b8b93          	addi	x23,x23,4
  RVTEST_TESTDATA_LOAD_INT(x23, x6) # load rs2: x6 = 0xffffffff
    1678:	000ba303          	lw	x6,0(x23)
    167c:	004b8b93          	addi	x23,x23,4

00001680 <I_sll_cg_cr_rs1_rs2_edges_rs1val_0x0_rs2val_0xffffffff>:
I_sll_cg_cr_rs1_rs2_edges_rs1val_0x0_rs2val_0xffffffff:
  sll x25, x12, x6 # perform operation
    1680:	00661cb3          	sll	x25,x12,x6
  # Check if x25 contains the expected result. x20 is the signature ptr, x8 is the link ptr, x7 is a temp reg.
  RVTEST_SIGUPD(x20, x8, x7, x25, I_sll_cg_cr_rs1_rs2_edges_rs1val_0x0_rs2val_0xffffffff, I_sll_cg_cr_rs1_rs2_edges_rs1val_0x0_rs2val_0xffffffff_str)
    1684:	000a2383          	lw	x7,0(x20)
    1688:	01938863          	beq	x7,x25,1698 <I_sll_cg_cr_rs1_rs2_edges_rs1val_0x0_rs2val_0xffffffff+0x18>
    168c:	6490246f          	jal	x8,44d4 <failedtest_x8_x7>
    1690:	00001680          	.word	0x00001680
    1694:	0000a66b          	.word	0x0000a66b
    1698:	004a0a13          	addi	x20,x20,4

# Testcase cr_rs1_rs2_edges (Test source rs1 = 0x00000000 rs2 = 0xfffffffe)
  RVTEST_TESTDATA_LOAD_INT(x23, x29) # load rs1: x29 = 0x00000000
    169c:	000bae83          	lw	x29,0(x23)
    16a0:	004b8b93          	addi	x23,x23,4
  RVTEST_TESTDATA_LOAD_INT(x23, x18) # load rs2: x18 = 0xfffffffe
    16a4:	000ba903          	lw	x18,0(x23)
    16a8:	004b8b93          	addi	x23,x23,4

000016ac <I_sll_cg_cr_rs1_rs2_edges_rs1val_0x0_rs2val_0xfffffffe>:
I_sll_cg_cr_rs1_rs2_edges_rs1val_0x0_rs2val_0xfffffffe:
  sll x1, x29, x18 # perform operation
    16ac:	012e90b3          	sll	x1,x29,x18
  # Check if x1 contains the expected result. x20 is the signature ptr, x8 is the link ptr, x7 is a temp reg.
  RVTEST_SIGUPD(x20, x8, x7, x1, I_sll_cg_cr_rs1_rs2_edges_rs1val_0x0_rs2val_0xfffffffe, I_sll_cg_cr_rs1_rs2_edges_rs1val_0x0_rs2val_0xfffffffe_str)
    16b0:	000a2383          	lw	x7,0(x20)
    16b4:	00138863          	beq	x7,x1,16c4 <I_sll_cg_cr_rs1_rs2_edges_rs1val_0x0_rs2val_0xfffffffe+0x18>
    16b8:	61d0246f          	jal	x8,44d4 <failedtest_x8_x7>
    16bc:	000016ac          	.word	0x000016ac
    16c0:	0000a6bf          	.word	0x0000a6bf
    16c4:	004a0a13          	addi	x20,x20,4

# Testcase cr_rs1_rs2_edges (Test source rs1 = 0x00000000 rs2 = 0x5bbc8872)
  RVTEST_TESTDATA_LOAD_INT(x23, x18) # load rs1: x18 = 0x00000000
    16c8:	000ba903          	lw	x18,0(x23)
    16cc:	004b8b93          	addi	x23,x23,4
  RVTEST_TESTDATA_LOAD_INT(x23, x2) # load rs2: x2 = 0x5bbc8872
    16d0:	000ba103          	lw	x2,0(x23)
    16d4:	004b8b93          	addi	x23,x23,4

000016d8 <I_sll_cg_cr_rs1_rs2_edges_rs1val_0x0_rs2val_0x5bbc8872>:
I_sll_cg_cr_rs1_rs2_edges_rs1val_0x0_rs2val_0x5bbc8872:
  sll x19, x18, x2 # perform operation
    16d8:	002919b3          	sll	x19,x18,x2
  # Check if x19 contains the expected result. x20 is the signature ptr, x8 is the link ptr, x7 is a temp reg.
  RVTEST_SIGUPD(x20, x8, x7, x19, I_sll_cg_cr_rs1_rs2_edges_rs1val_0x0_rs2val_0x5bbc8872, I_sll_cg_cr_rs1_rs2_edges_rs1val_0x0_rs2val_0x5bbc8872_str)
    16dc:	000a2383          	lw	x7,0(x20)
    16e0:	01338863          	beq	x7,x19,16f0 <I_sll_cg_cr_rs1_rs2_edges_rs1val_0x0_rs2val_0x5bbc8872+0x18>
    16e4:	5f10246f          	jal	x8,44d4 <failedtest_x8_x7>
    16e8:	000016d8          	.word	0x000016d8
    16ec:	0000a713          	.word	0x0000a713
    16f0:	004a0a13          	addi	x20,x20,4

# Testcase cr_rs1_rs2_edges (Test source rs1 = 0x00000000 rs2 = 0xaaaaaaaa)
  RVTEST_TESTDATA_LOAD_INT(x23, x18) # load rs1: x18 = 0x00000000
    16f4:	000ba903          	lw	x18,0(x23)
    16f8:	004b8b93          	addi	x23,x23,4
  RVTEST_TESTDATA_LOAD_INT(x23, x3) # load rs2: x3 = 0xaaaaaaaa
    16fc:	000ba183          	lw	x3,0(x23)
    1700:	004b8b93          	addi	x23,x23,4

00001704 <I_sll_cg_cr_rs1_rs2_edges_rs1val_0x0_rs2val_0xaaaaaaaa>:
I_sll_cg_cr_rs1_rs2_edges_rs1val_0x0_rs2val_0xaaaaaaaa:
  sll x24, x18, x3 # perform operation
    1704:	00391c33          	sll	x24,x18,x3
  # Check if x24 contains the expected result. x20 is the signature ptr, x8 is the link ptr, x7 is a temp reg.
  RVTEST_SIGUPD(x20, x8, x7, x24, I_sll_cg_cr_rs1_rs2_edges_rs1val_0x0_rs2val_0xaaaaaaaa, I_sll_cg_cr_rs1_rs2_edges_rs1val_0x0_rs2val_0xaaaaaaaa_str)
    1708:	000a2383          	lw	x7,0(x20)
    170c:	01838863          	beq	x7,x24,171c <I_sll_cg_cr_rs1_rs2_edges_rs1val_0x0_rs2val_0xaaaaaaaa+0x18>
    1710:	5c50246f          	jal	x8,44d4 <failedtest_x8_x7>
    1714:	00001704          	.word	0x00001704
    1718:	0000a767          	.word	0x0000a767
    171c:	004a0a13          	addi	x20,x20,4

# Testcase cr_rs1_rs2_edges (Test source rs1 = 0x00000000 rs2 = 0x55555555)
  RVTEST_TESTDATA_LOAD_INT(x23, x28) # load rs1: x28 = 0x00000000
    1720:	000bae03          	lw	x28,0(x23)
    1724:	004b8b93          	addi	x23,x23,4
  RVTEST_TESTDATA_LOAD_INT(x23, x16) # load rs2: x16 = 0x55555555
    1728:	000ba803          	lw	x16,0(x23)
    172c:	004b8b93          	addi	x23,x23,4

00001730 <I_sll_cg_cr_rs1_rs2_edges_rs1val_0x0_rs2val_0x55555555>:
I_sll_cg_cr_rs1_rs2_edges_rs1val_0x0_rs2val_0x55555555:
  sll x14, x28, x16 # perform operation
    1730:	010e1733          	sll	x14,x28,x16
  # Check if x14 contains the expected result. x20 is the signature ptr, x8 is the link ptr, x7 is a temp reg.
  RVTEST_SIGUPD(x20, x8, x7, x14, I_sll_cg_cr_rs1_rs2_edges_rs1val_0x0_rs2val_0x55555555, I_sll_cg_cr_rs1_rs2_edges_rs1val_0x0_rs2val_0x55555555_str)
    1734:	000a2383          	lw	x7,0(x20)
    1738:	00e38863          	beq	x7,x14,1748 <I_sll_cg_cr_rs1_rs2_edges_rs1val_0x0_rs2val_0x55555555+0x18>
    173c:	5990246f          	jal	x8,44d4 <failedtest_x8_x7>
    1740:	00001730          	.word	0x00001730
    1744:	0000a7bb          	.word	0x0000a7bb
    1748:	004a0a13          	addi	x20,x20,4

# Testcase cr_rs1_rs2_edges (Test source rs1 = 0x00000001 rs2 = 0x00000000)
  RVTEST_TESTDATA_LOAD_INT(x23, x18) # load rs1: x18 = 0x00000001
    174c:	000ba903          	lw	x18,0(x23)
    1750:	004b8b93          	addi	x23,x23,4
  RVTEST_TESTDATA_LOAD_INT(x23, x14) # load rs2: x14 = 0x00000000
    1754:	000ba703          	lw	x14,0(x23)
    1758:	004b8b93          	addi	x23,x23,4

0000175c <I_sll_cg_cr_rs1_rs2_edges_rs1val_0x1_rs2val_0x0>:
I_sll_cg_cr_rs1_rs2_edges_rs1val_0x1_rs2val_0x0:
  sll x27, x18, x14 # perform operation
    175c:	00e91db3          	sll	x27,x18,x14
  # Check if x27 contains the expected result. x20 is the signature ptr, x8 is the link ptr, x7 is a temp reg.
  RVTEST_SIGUPD(x20, x8, x7, x27, I_sll_cg_cr_rs1_rs2_edges_rs1val_0x1_rs2val_0x0, I_sll_cg_cr_rs1_rs2_edges_rs1val_0x1_rs2val_0x0_str)
    1760:	000a2383          	lw	x7,0(x20)
    1764:	01b38863          	beq	x7,x27,1774 <I_sll_cg_cr_rs1_rs2_edges_rs1val_0x1_rs2val_0x0+0x18>
    1768:	56d0246f          	jal	x8,44d4 <failedtest_x8_x7>
    176c:	0000175c          	.word	0x0000175c
    1770:	0000a80f          	.word	0x0000a80f
    1774:	004a0a13          	addi	x20,x20,4

# Testcase cr_rs1_rs2_edges (Test source rs1 = 0x00000001 rs2 = 0x00000001)
  RVTEST_TESTDATA_LOAD_INT(x23, x6) # load rs1: x6 = 0x00000001
    1778:	000ba303          	lw	x6,0(x23)
    177c:	004b8b93          	addi	x23,x23,4
  RVTEST_TESTDATA_LOAD_INT(x23, x29) # load rs2: x29 = 0x00000001
    1780:	000bae83          	lw	x29,0(x23)
    1784:	004b8b93          	addi	x23,x23,4

00001788 <I_sll_cg_cr_rs1_rs2_edges_rs1val_0x1_rs2val_0x1>:
I_sll_cg_cr_rs1_rs2_edges_rs1val_0x1_rs2val_0x1:
  sll x9, x6, x29 # perform operation
    1788:	01d314b3          	sll	x9,x6,x29
  # Check if x9 contains the expected result. x20 is the signature ptr, x8 is the link ptr, x7 is a temp reg.
  RVTEST_SIGUPD(x20, x8, x7, x9, I_sll_cg_cr_rs1_rs2_edges_rs1val_0x1_rs2val_0x1, I_sll_cg_cr_rs1_rs2_edges_rs1val_0x1_rs2val_0x1_str)
    178c:	000a2383          	lw	x7,0(x20)
    1790:	00938863          	beq	x7,x9,17a0 <I_sll_cg_cr_rs1_rs2_edges_rs1val_0x1_rs2val_0x1+0x18>
    1794:	5410246f          	jal	x8,44d4 <failedtest_x8_x7>
    1798:	00001788          	.word	0x00001788
    179c:	0000a85c          	.word	0x0000a85c
    17a0:	004a0a13          	addi	x20,x20,4

# Testcase cr_rs1_rs2_edges (Test source rs1 = 0x00000001 rs2 = 0x00000002)
  RVTEST_TESTDATA_LOAD_INT(x23, x1) # load rs1: x1 = 0x00000001
    17a4:	000ba083          	lw	x1,0(x23)
    17a8:	004b8b93          	addi	x23,x23,4
  RVTEST_TESTDATA_LOAD_INT(x23, x3) # load rs2: x3 = 0x00000002
    17ac:	000ba183          	lw	x3,0(x23)
    17b0:	004b8b93          	addi	x23,x23,4

000017b4 <I_sll_cg_cr_rs1_rs2_edges_rs1val_0x1_rs2val_0x2>:
I_sll_cg_cr_rs1_rs2_edges_rs1val_0x1_rs2val_0x2:
  sll x30, x1, x3 # perform operation
    17b4:	00309f33          	sll	x30,x1,x3
  # Check if x30 contains the expected result. x20 is the signature ptr, x8 is the link ptr, x7 is a temp reg.
  RVTEST_SIGUPD(x20, x8, x7, x30, I_sll_cg_cr_rs1_rs2_edges_rs1val_0x1_rs2val_0x2, I_sll_cg_cr_rs1_rs2_edges_rs1val_0x1_rs2val_0x2_str)
    17b8:	000a2383          	lw	x7,0(x20)
    17bc:	01e38863          	beq	x7,x30,17cc <I_sll_cg_cr_rs1_rs2_edges_rs1val_0x1_rs2val_0x2+0x18>
    17c0:	5150246f          	jal	x8,44d4 <failedtest_x8_x7>
    17c4:	000017b4          	.word	0x000017b4
    17c8:	0000a8a9          	.word	0x0000a8a9
    17cc:	004a0a13          	addi	x20,x20,4

# Testcase cr_rs1_rs2_edges (Test source rs1 = 0x00000001 rs2 = 0x80000000)
  RVTEST_TESTDATA_LOAD_INT(x23, x13) # load rs1: x13 = 0x00000001
    17d0:	000ba683          	lw	x13,0(x23)
    17d4:	004b8b93          	addi	x23,x23,4
  RVTEST_TESTDATA_LOAD_INT(x23, x25) # load rs2: x25 = 0x80000000
    17d8:	000bac83          	lw	x25,0(x23)
    17dc:	004b8b93          	addi	x23,x23,4

000017e0 <I_sll_cg_cr_rs1_rs2_edges_rs1val_0x1_rs2val_0x80000000>:
I_sll_cg_cr_rs1_rs2_edges_rs1val_0x1_rs2val_0x80000000:
  sll x11, x13, x25 # perform operation
    17e0:	019695b3          	sll	x11,x13,x25
  # Check if x11 contains the expected result. x20 is the signature ptr, x8 is the link ptr, x7 is a temp reg.
  RVTEST_SIGUPD(x20, x8, x7, x11, I_sll_cg_cr_rs1_rs2_edges_rs1val_0x1_rs2val_0x80000000, I_sll_cg_cr_rs1_rs2_edges_rs1val_0x1_rs2val_0x80000000_str)
    17e4:	000a2383          	lw	x7,0(x20)
    17e8:	00b38863          	beq	x7,x11,17f8 <I_sll_cg_cr_rs1_rs2_edges_rs1val_0x1_rs2val_0x80000000+0x18>
    17ec:	4e90246f          	jal	x8,44d4 <failedtest_x8_x7>
    17f0:	000017e0          	.word	0x000017e0
    17f4:	0000a8f6          	.word	0x0000a8f6
    17f8:	004a0a13          	addi	x20,x20,4

# Testcase cr_rs1_rs2_edges (Test source rs1 = 0x00000001 rs2 = 0x80000001)
  RVTEST_TESTDATA_LOAD_INT(x23, x21) # load rs1: x21 = 0x00000001
    17fc:	000baa83          	lw	x21,0(x23)
    1800:	004b8b93          	addi	x23,x23,4
  RVTEST_TESTDATA_LOAD_INT(x23, x11) # load rs2: x11 = 0x80000001
    1804:	000ba583          	lw	x11,0(x23)
    1808:	004b8b93          	addi	x23,x23,4

0000180c <I_sll_cg_cr_rs1_rs2_edges_rs1val_0x1_rs2val_0x80000001>:
I_sll_cg_cr_rs1_rs2_edges_rs1val_0x1_rs2val_0x80000001:
  sll x30, x21, x11 # perform operation
    180c:	00ba9f33          	sll	x30,x21,x11
  # Check if x30 contains the expected result. x20 is the signature ptr, x8 is the link ptr, x7 is a temp reg.
  RVTEST_SIGUPD(x20, x8, x7, x30, I_sll_cg_cr_rs1_rs2_edges_rs1val_0x1_rs2val_0x80000001, I_sll_cg_cr_rs1_rs2_edges_rs1val_0x1_rs2val_0x80000001_str)
    1810:	000a2383          	lw	x7,0(x20)
    1814:	01e38863          	beq	x7,x30,1824 <I_sll_cg_cr_rs1_rs2_edges_rs1val_0x1_rs2val_0x80000001+0x18>
    1818:	4bd0246f          	jal	x8,44d4 <failedtest_x8_x7>
    181c:	0000180c          	.word	0x0000180c
    1820:	0000a94a          	.word	0x0000a94a
    1824:	004a0a13          	addi	x20,x20,4

# Testcase cr_rs1_rs2_edges (Test source rs1 = 0x00000001 rs2 = 0x7fffffff)
  RVTEST_TESTDATA_LOAD_INT(x23, x30) # load rs1: x30 = 0x00000001
    1828:	000baf03          	lw	x30,0(x23)
    182c:	004b8b93          	addi	x23,x23,4
  RVTEST_TESTDATA_LOAD_INT(x23, x18) # load rs2: x18 = 0x7fffffff
    1830:	000ba903          	lw	x18,0(x23)
    1834:	004b8b93          	addi	x23,x23,4

00001838 <I_sll_cg_cr_rs1_rs2_edges_rs1val_0x1_rs2val_0x7fffffff>:
I_sll_cg_cr_rs1_rs2_edges_rs1val_0x1_rs2val_0x7fffffff:
  sll x31, x30, x18 # perform operation
    1838:	012f1fb3          	sll	x31,x30,x18
  # Check if x31 contains the expected result. x20 is the signature ptr, x8 is the link ptr, x7 is a temp reg.
  RVTEST_SIGUPD(x20, x8, x7, x31, I_sll_cg_cr_rs1_rs2_edges_rs1val_0x1_rs2val_0x7fffffff, I_sll_cg_cr_rs1_rs2_edges_rs1val_0x1_rs2val_0x7fffffff_str)
    183c:	000a2383          	lw	x7,0(x20)
    1840:	01f38863          	beq	x7,x31,1850 <I_sll_cg_cr_rs1_rs2_edges_rs1val_0x1_rs2val_0x7fffffff+0x18>
    1844:	4910246f          	jal	x8,44d4 <failedtest_x8_x7>
    1848:	00001838          	.word	0x00001838
    184c:	0000a99e          	.word	0x0000a99e
    1850:	004a0a13          	addi	x20,x20,4

# Testcase cr_rs1_rs2_edges (Test source rs1 = 0x00000001 rs2 = 0x7ffffffe)
  RVTEST_TESTDATA_LOAD_INT(x23, x14) # load rs1: x14 = 0x00000001
    1854:	000ba703          	lw	x14,0(x23)
    1858:	004b8b93          	addi	x23,x23,4
  RVTEST_TESTDATA_LOAD_INT(x23, x24) # load rs2: x24 = 0x7ffffffe
    185c:	000bac03          	lw	x24,0(x23)
    1860:	004b8b93          	addi	x23,x23,4

00001864 <I_sll_cg_cr_rs1_rs2_edges_rs1val_0x1_rs2val_0x7ffffffe>:
I_sll_cg_cr_rs1_rs2_edges_rs1val_0x1_rs2val_0x7ffffffe:
  sll x30, x14, x24 # perform operation
    1864:	01871f33          	sll	x30,x14,x24
  # Check if x30 contains the expected result. x20 is the signature ptr, x8 is the link ptr, x7 is a temp reg.
  RVTEST_SIGUPD(x20, x8, x7, x30, I_sll_cg_cr_rs1_rs2_edges_rs1val_0x1_rs2val_0x7ffffffe, I_sll_cg_cr_rs1_rs2_edges_rs1val_0x1_rs2val_0x7ffffffe_str)
    1868:	000a2383          	lw	x7,0(x20)
    186c:	01e38863          	beq	x7,x30,187c <I_sll_cg_cr_rs1_rs2_edges_rs1val_0x1_rs2val_0x7ffffffe+0x18>
    1870:	4650246f          	jal	x8,44d4 <failedtest_x8_x7>
    1874:	00001864          	.word	0x00001864
    1878:	0000a9f2          	.word	0x0000a9f2
    187c:	004a0a13          	addi	x20,x20,4

# Testcase cr_rs1_rs2_edges (Test source rs1 = 0x00000001 rs2 = 0xffffffff)
  RVTEST_TESTDATA_LOAD_INT(x23, x14) # load rs1: x14 = 0x00000001
    1880:	000ba703          	lw	x14,0(x23)
    1884:	004b8b93          	addi	x23,x23,4
  RVTEST_TESTDATA_LOAD_INT(x23, x6) # load rs2: x6 = 0xffffffff
    1888:	000ba303          	lw	x6,0(x23)
    188c:	004b8b93          	addi	x23,x23,4

00001890 <I_sll_cg_cr_rs1_rs2_edges_rs1val_0x1_rs2val_0xffffffff>:
I_sll_cg_cr_rs1_rs2_edges_rs1val_0x1_rs2val_0xffffffff:
  sll x22, x14, x6 # perform operation
    1890:	00671b33          	sll	x22,x14,x6
  # Check if x22 contains the expected result. x20 is the signature ptr, x8 is the link ptr, x7 is a temp reg.
  RVTEST_SIGUPD(x20, x8, x7, x22, I_sll_cg_cr_rs1_rs2_edges_rs1val_0x1_rs2val_0xffffffff, I_sll_cg_cr_rs1_rs2_edges_rs1val_0x1_rs2val_0xffffffff_str)
    1894:	000a2383          	lw	x7,0(x20)
    1898:	01638863          	beq	x7,x22,18a8 <I_sll_cg_cr_rs1_rs2_edges_rs1val_0x1_rs2val_0xffffffff+0x18>
    189c:	4390246f          	jal	x8,44d4 <failedtest_x8_x7>
    18a0:	00001890          	.word	0x00001890
    18a4:	0000aa46          	.word	0x0000aa46
    18a8:	004a0a13          	addi	x20,x20,4

# Testcase cr_rs1_rs2_edges (Test source rs1 = 0x00000001 rs2 = 0xfffffffe)
  RVTEST_TESTDATA_LOAD_INT(x23, x3) # load rs1: x3 = 0x00000001
    18ac:	000ba183          	lw	x3,0(x23)
    18b0:	004b8b93          	addi	x23,x23,4
  RVTEST_TESTDATA_LOAD_INT(x23, x25) # load rs2: x25 = 0xfffffffe
    18b4:	000bac83          	lw	x25,0(x23)
    18b8:	004b8b93          	addi	x23,x23,4

000018bc <I_sll_cg_cr_rs1_rs2_edges_rs1val_0x1_rs2val_0xfffffffe>:
I_sll_cg_cr_rs1_rs2_edges_rs1val_0x1_rs2val_0xfffffffe:
  sll x17, x3, x25 # perform operation
    18bc:	019198b3          	sll	x17,x3,x25
  # Check if x17 contains the expected result. x20 is the signature ptr, x8 is the link ptr, x7 is a temp reg.
  RVTEST_SIGUPD(x20, x8, x7, x17, I_sll_cg_cr_rs1_rs2_edges_rs1val_0x1_rs2val_0xfffffffe, I_sll_cg_cr_rs1_rs2_edges_rs1val_0x1_rs2val_0xfffffffe_str)
    18c0:	000a2383          	lw	x7,0(x20)
    18c4:	01138863          	beq	x7,x17,18d4 <I_sll_cg_cr_rs1_rs2_edges_rs1val_0x1_rs2val_0xfffffffe+0x18>
    18c8:	40d0246f          	jal	x8,44d4 <failedtest_x8_x7>
    18cc:	000018bc          	.word	0x000018bc
    18d0:	0000aa9a          	.word	0x0000aa9a
    18d4:	004a0a13          	addi	x20,x20,4

# Testcase cr_rs1_rs2_edges (Test source rs1 = 0x00000001 rs2 = 0x5bbc8872)
  RVTEST_TESTDATA_LOAD_INT(x23, x27) # load rs1: x27 = 0x00000001
    18d8:	000bad83          	lw	x27,0(x23)
    18dc:	004b8b93          	addi	x23,x23,4
  RVTEST_TESTDATA_LOAD_INT(x23, x31) # load rs2: x31 = 0x5bbc8872
    18e0:	000baf83          	lw	x31,0(x23)
    18e4:	004b8b93          	addi	x23,x23,4

000018e8 <I_sll_cg_cr_rs1_rs2_edges_rs1val_0x1_rs2val_0x5bbc8872>:
I_sll_cg_cr_rs1_rs2_edges_rs1val_0x1_rs2val_0x5bbc8872:
  sll x30, x27, x31 # perform operation
    18e8:	01fd9f33          	sll	x30,x27,x31
  # Check if x30 contains the expected result. x20 is the signature ptr, x8 is the link ptr, x7 is a temp reg.
  RVTEST_SIGUPD(x20, x8, x7, x30, I_sll_cg_cr_rs1_rs2_edges_rs1val_0x1_rs2val_0x5bbc8872, I_sll_cg_cr_rs1_rs2_edges_rs1val_0x1_rs2val_0x5bbc8872_str)
    18ec:	000a2383          	lw	x7,0(x20)
    18f0:	01e38863          	beq	x7,x30,1900 <I_sll_cg_cr_rs1_rs2_edges_rs1val_0x1_rs2val_0x5bbc8872+0x18>
    18f4:	3e10246f          	jal	x8,44d4 <failedtest_x8_x7>
    18f8:	000018e8          	.word	0x000018e8
    18fc:	0000aaee          	.word	0x0000aaee
    1900:	004a0a13          	addi	x20,x20,4

# Testcase cr_rs1_rs2_edges (Test source rs1 = 0x00000001 rs2 = 0xaaaaaaaa)
  RVTEST_TESTDATA_LOAD_INT(x23, x3) # load rs1: x3 = 0x00000001
    1904:	000ba183          	lw	x3,0(x23)
    1908:	004b8b93          	addi	x23,x23,4
  RVTEST_TESTDATA_LOAD_INT(x23, x1) # load rs2: x1 = 0xaaaaaaaa
    190c:	000ba083          	lw	x1,0(x23)
    1910:	004b8b93          	addi	x23,x23,4

00001914 <I_sll_cg_cr_rs1_rs2_edges_rs1val_0x1_rs2val_0xaaaaaaaa>:
I_sll_cg_cr_rs1_rs2_edges_rs1val_0x1_rs2val_0xaaaaaaaa:
  sll x11, x3, x1 # perform operation
    1914:	001195b3          	sll	x11,x3,x1
  # Check if x11 contains the expected result. x20 is the signature ptr, x8 is the link ptr, x7 is a temp reg.
  RVTEST_SIGUPD(x20, x8, x7, x11, I_sll_cg_cr_rs1_rs2_edges_rs1val_0x1_rs2val_0xaaaaaaaa, I_sll_cg_cr_rs1_rs2_edges_rs1val_0x1_rs2val_0xaaaaaaaa_str)
    1918:	000a2383          	lw	x7,0(x20)
    191c:	00b38863          	beq	x7,x11,192c <I_sll_cg_cr_rs1_rs2_edges_rs1val_0x1_rs2val_0xaaaaaaaa+0x18>
    1920:	3b50246f          	jal	x8,44d4 <failedtest_x8_x7>
    1924:	00001914          	.word	0x00001914
    1928:	0000ab42          	.word	0x0000ab42
    192c:	004a0a13          	addi	x20,x20,4

# Testcase cr_rs1_rs2_edges (Test source rs1 = 0x00000001 rs2 = 0x55555555)
  RVTEST_TESTDATA_LOAD_INT(x23, x4) # load rs1: x4 = 0x00000001
    1930:	000ba203          	lw	x4,0(x23)
    1934:	004b8b93          	addi	x23,x23,4
  RVTEST_TESTDATA_LOAD_INT(x23, x27) # load rs2: x27 = 0x55555555
    1938:	000bad83          	lw	x27,0(x23)
    193c:	004b8b93          	addi	x23,x23,4

00001940 <I_sll_cg_cr_rs1_rs2_edges_rs1val_0x1_rs2val_0x55555555>:
I_sll_cg_cr_rs1_rs2_edges_rs1val_0x1_rs2val_0x55555555:
  sll x31, x4, x27 # perform operation
    1940:	01b21fb3          	sll	x31,x4,x27
  # Check if x31 contains the expected result. x20 is the signature ptr, x8 is the link ptr, x7 is a temp reg.
  RVTEST_SIGUPD(x20, x8, x7, x31, I_sll_cg_cr_rs1_rs2_edges_rs1val_0x1_rs2val_0x55555555, I_sll_cg_cr_rs1_rs2_edges_rs1val_0x1_rs2val_0x55555555_str)
    1944:	000a2383          	lw	x7,0(x20)
    1948:	01f38863          	beq	x7,x31,1958 <I_sll_cg_cr_rs1_rs2_edges_rs1val_0x1_rs2val_0x55555555+0x18>
    194c:	3890246f          	jal	x8,44d4 <failedtest_x8_x7>
    1950:	00001940          	.word	0x00001940
    1954:	0000ab96          	.word	0x0000ab96
    1958:	004a0a13          	addi	x20,x20,4

# Testcase cr_rs1_rs2_edges (Test source rs1 = 0x00000002 rs2 = 0x00000000)
  RVTEST_TESTDATA_LOAD_INT(x23, x17) # load rs1: x17 = 0x00000002
    195c:	000ba883          	lw	x17,0(x23)
    1960:	004b8b93          	addi	x23,x23,4
  RVTEST_TESTDATA_LOAD_INT(x23, x1) # load rs2: x1 = 0x00000000
    1964:	000ba083          	lw	x1,0(x23)
    1968:	004b8b93          	addi	x23,x23,4

0000196c <I_sll_cg_cr_rs1_rs2_edges_rs1val_0x2_rs2val_0x0>:
I_sll_cg_cr_rs1_rs2_edges_rs1val_0x2_rs2val_0x0:
  sll x16, x17, x1 # perform operation
    196c:	00189833          	sll	x16,x17,x1
  # Check if x16 contains the expected result. x20 is the signature ptr, x8 is the link ptr, x7 is a temp reg.
  RVTEST_SIGUPD(x20, x8, x7, x16, I_sll_cg_cr_rs1_rs2_edges_rs1val_0x2_rs2val_0x0, I_sll_cg_cr_rs1_rs2_edges_rs1val_0x2_rs2val_0x0_str)
    1970:	000a2383          	lw	x7,0(x20)
    1974:	01038863          	beq	x7,x16,1984 <I_sll_cg_cr_rs1_rs2_edges_rs1val_0x2_rs2val_0x0+0x18>
    1978:	35d0246f          	jal	x8,44d4 <failedtest_x8_x7>
    197c:	0000196c          	.word	0x0000196c
    1980:	0000abea          	.word	0x0000abea
    1984:	004a0a13          	addi	x20,x20,4

# Testcase cr_rs1_rs2_edges (Test source rs1 = 0x00000002 rs2 = 0x00000001)
  RVTEST_TESTDATA_LOAD_INT(x23, x22) # load rs1: x22 = 0x00000002
    1988:	000bab03          	lw	x22,0(x23)
    198c:	004b8b93          	addi	x23,x23,4
  RVTEST_TESTDATA_LOAD_INT(x23, x19) # load rs2: x19 = 0x00000001
    1990:	000ba983          	lw	x19,0(x23)
    1994:	004b8b93          	addi	x23,x23,4

00001998 <I_sll_cg_cr_rs1_rs2_edges_rs1val_0x2_rs2val_0x1>:
I_sll_cg_cr_rs1_rs2_edges_rs1val_0x2_rs2val_0x1:
  sll x17, x22, x19 # perform operation
    1998:	013b18b3          	sll	x17,x22,x19
  # Check if x17 contains the expected result. x20 is the signature ptr, x8 is the link ptr, x7 is a temp reg.
  RVTEST_SIGUPD(x20, x8, x7, x17, I_sll_cg_cr_rs1_rs2_edges_rs1val_0x2_rs2val_0x1, I_sll_cg_cr_rs1_rs2_edges_rs1val_0x2_rs2val_0x1_str)
    199c:	000a2383          	lw	x7,0(x20)
    19a0:	01138863          	beq	x7,x17,19b0 <I_sll_cg_cr_rs1_rs2_edges_rs1val_0x2_rs2val_0x1+0x18>
    19a4:	3310246f          	jal	x8,44d4 <failedtest_x8_x7>
    19a8:	00001998          	.word	0x00001998
    19ac:	0000ac37          	.word	0x0000ac37
    19b0:	004a0a13          	addi	x20,x20,4

# Testcase cr_rs1_rs2_edges (Test source rs1 = 0x00000002 rs2 = 0x00000002)
  RVTEST_TESTDATA_LOAD_INT(x23, x18) # load rs1: x18 = 0x00000002
    19b4:	000ba903          	lw	x18,0(x23)
    19b8:	004b8b93          	addi	x23,x23,4
  RVTEST_TESTDATA_LOAD_INT(x23, x24) # load rs2: x24 = 0x00000002
    19bc:	000bac03          	lw	x24,0(x23)
    19c0:	004b8b93          	addi	x23,x23,4

000019c4 <I_sll_cg_cr_rs1_rs2_edges_rs1val_0x2_rs2val_0x2>:
I_sll_cg_cr_rs1_rs2_edges_rs1val_0x2_rs2val_0x2:
  sll x13, x18, x24 # perform operation
    19c4:	018916b3          	sll	x13,x18,x24
  # Check if x13 contains the expected result. x20 is the signature ptr, x8 is the link ptr, x7 is a temp reg.
  RVTEST_SIGUPD(x20, x8, x7, x13, I_sll_cg_cr_rs1_rs2_edges_rs1val_0x2_rs2val_0x2, I_sll_cg_cr_rs1_rs2_edges_rs1val_0x2_rs2val_0x2_str)
    19c8:	000a2383          	lw	x7,0(x20)
    19cc:	00d38863          	beq	x7,x13,19dc <I_sll_cg_cr_rs1_rs2_edges_rs1val_0x2_rs2val_0x2+0x18>
    19d0:	3050246f          	jal	x8,44d4 <failedtest_x8_x7>
    19d4:	000019c4          	.word	0x000019c4
    19d8:	0000ac84          	.word	0x0000ac84
    19dc:	004a0a13          	addi	x20,x20,4

# Testcase cr_rs1_rs2_edges (Test source rs1 = 0x00000002 rs2 = 0x80000000)
  RVTEST_TESTDATA_LOAD_INT(x23, x24) # load rs1: x24 = 0x00000002
    19e0:	000bac03          	lw	x24,0(x23)
    19e4:	004b8b93          	addi	x23,x23,4
  RVTEST_TESTDATA_LOAD_INT(x23, x26) # load rs2: x26 = 0x80000000
    19e8:	000bad03          	lw	x26,0(x23)
    19ec:	004b8b93          	addi	x23,x23,4

000019f0 <I_sll_cg_cr_rs1_rs2_edges_rs1val_0x2_rs2val_0x80000000>:
I_sll_cg_cr_rs1_rs2_edges_rs1val_0x2_rs2val_0x80000000:
  sll x1, x24, x26 # perform operation
    19f0:	01ac10b3          	sll	x1,x24,x26
  # Check if x1 contains the expected result. x20 is the signature ptr, x8 is the link ptr, x7 is a temp reg.
  RVTEST_SIGUPD(x20, x8, x7, x1, I_sll_cg_cr_rs1_rs2_edges_rs1val_0x2_rs2val_0x80000000, I_sll_cg_cr_rs1_rs2_edges_rs1val_0x2_rs2val_0x80000000_str)
    19f4:	000a2383          	lw	x7,0(x20)
    19f8:	00138863          	beq	x7,x1,1a08 <I_sll_cg_cr_rs1_rs2_edges_rs1val_0x2_rs2val_0x80000000+0x18>
    19fc:	2d90246f          	jal	x8,44d4 <failedtest_x8_x7>
    1a00:	000019f0          	.word	0x000019f0
    1a04:	0000acd1          	.word	0x0000acd1
    1a08:	004a0a13          	addi	x20,x20,4

# Testcase cr_rs1_rs2_edges (Test source rs1 = 0x00000002 rs2 = 0x80000001)
  RVTEST_TESTDATA_LOAD_INT(x23, x19) # load rs1: x19 = 0x00000002
    1a0c:	000ba983          	lw	x19,0(x23)
    1a10:	004b8b93          	addi	x23,x23,4
  RVTEST_TESTDATA_LOAD_INT(x23, x4) # load rs2: x4 = 0x80000001
    1a14:	000ba203          	lw	x4,0(x23)
    1a18:	004b8b93          	addi	x23,x23,4

00001a1c <I_sll_cg_cr_rs1_rs2_edges_rs1val_0x2_rs2val_0x80000001>:
I_sll_cg_cr_rs1_rs2_edges_rs1val_0x2_rs2val_0x80000001:
  sll x26, x19, x4 # perform operation
    1a1c:	00499d33          	sll	x26,x19,x4
  # Check if x26 contains the expected result. x20 is the signature ptr, x8 is the link ptr, x7 is a temp reg.
  RVTEST_SIGUPD(x20, x8, x7, x26, I_sll_cg_cr_rs1_rs2_edges_rs1val_0x2_rs2val_0x80000001, I_sll_cg_cr_rs1_rs2_edges_rs1val_0x2_rs2val_0x80000001_str)
    1a20:	000a2383          	lw	x7,0(x20)
    1a24:	01a38863          	beq	x7,x26,1a34 <I_sll_cg_cr_rs1_rs2_edges_rs1val_0x2_rs2val_0x80000001+0x18>
    1a28:	2ad0246f          	jal	x8,44d4 <failedtest_x8_x7>
    1a2c:	00001a1c          	.word	0x00001a1c
    1a30:	0000ad25          	.word	0x0000ad25
    1a34:	004a0a13          	addi	x20,x20,4

# Testcase cr_rs1_rs2_edges (Test source rs1 = 0x00000002 rs2 = 0x7fffffff)
  RVTEST_TESTDATA_LOAD_INT(x23, x1) # load rs1: x1 = 0x00000002
    1a38:	000ba083          	lw	x1,0(x23)
    1a3c:	004b8b93          	addi	x23,x23,4
  RVTEST_TESTDATA_LOAD_INT(x23, x31) # load rs2: x31 = 0x7fffffff
    1a40:	000baf83          	lw	x31,0(x23)
    1a44:	004b8b93          	addi	x23,x23,4

00001a48 <I_sll_cg_cr_rs1_rs2_edges_rs1val_0x2_rs2val_0x7fffffff>:
I_sll_cg_cr_rs1_rs2_edges_rs1val_0x2_rs2val_0x7fffffff:
  sll x10, x1, x31 # perform operation
    1a48:	01f09533          	sll	x10,x1,x31
  # Check if x10 contains the expected result. x20 is the signature ptr, x8 is the link ptr, x7 is a temp reg.
  RVTEST_SIGUPD(x20, x8, x7, x10, I_sll_cg_cr_rs1_rs2_edges_rs1val_0x2_rs2val_0x7fffffff, I_sll_cg_cr_rs1_rs2_edges_rs1val_0x2_rs2val_0x7fffffff_str)
    1a4c:	000a2383          	lw	x7,0(x20)
    1a50:	00a38863          	beq	x7,x10,1a60 <I_sll_cg_cr_rs1_rs2_edges_rs1val_0x2_rs2val_0x7fffffff+0x18>
    1a54:	2810246f          	jal	x8,44d4 <failedtest_x8_x7>
    1a58:	00001a48          	.word	0x00001a48
    1a5c:	0000ad79          	.word	0x0000ad79
    1a60:	004a0a13          	addi	x20,x20,4

# Testcase cr_rs1_rs2_edges (Test source rs1 = 0x00000002 rs2 = 0x7ffffffe)
  RVTEST_TESTDATA_LOAD_INT(x23, x5) # load rs1: x5 = 0x00000002
    1a64:	000ba283          	lw	x5,0(x23)
    1a68:	004b8b93          	addi	x23,x23,4
  RVTEST_TESTDATA_LOAD_INT(x23, x6) # load rs2: x6 = 0x7ffffffe
    1a6c:	000ba303          	lw	x6,0(x23)
    1a70:	004b8b93          	addi	x23,x23,4

00001a74 <I_sll_cg_cr_rs1_rs2_edges_rs1val_0x2_rs2val_0x7ffffffe>:
I_sll_cg_cr_rs1_rs2_edges_rs1val_0x2_rs2val_0x7ffffffe:
  sll x11, x5, x6 # perform operation
    1a74:	006295b3          	sll	x11,x5,x6
  # Check if x11 contains the expected result. x20 is the signature ptr, x8 is the link ptr, x7 is a temp reg.
  RVTEST_SIGUPD(x20, x8, x7, x11, I_sll_cg_cr_rs1_rs2_edges_rs1val_0x2_rs2val_0x7ffffffe, I_sll_cg_cr_rs1_rs2_edges_rs1val_0x2_rs2val_0x7ffffffe_str)
    1a78:	000a2383          	lw	x7,0(x20)
    1a7c:	00b38863          	beq	x7,x11,1a8c <I_sll_cg_cr_rs1_rs2_edges_rs1val_0x2_rs2val_0x7ffffffe+0x18>
    1a80:	2550246f          	jal	x8,44d4 <failedtest_x8_x7>
    1a84:	00001a74          	.word	0x00001a74
    1a88:	0000adcd          	.word	0x0000adcd
    1a8c:	004a0a13          	addi	x20,x20,4

# Testcase cr_rs1_rs2_edges (Test source rs1 = 0x00000002 rs2 = 0xffffffff)
  RVTEST_TESTDATA_LOAD_INT(x23, x14) # load rs1: x14 = 0x00000002
    1a90:	000ba703          	lw	x14,0(x23)
    1a94:	004b8b93          	addi	x23,x23,4
  RVTEST_TESTDATA_LOAD_INT(x23, x16) # load rs2: x16 = 0xffffffff
    1a98:	000ba803          	lw	x16,0(x23)
    1a9c:	004b8b93          	addi	x23,x23,4

00001aa0 <I_sll_cg_cr_rs1_rs2_edges_rs1val_0x2_rs2val_0xffffffff>:
I_sll_cg_cr_rs1_rs2_edges_rs1val_0x2_rs2val_0xffffffff:
  sll x18, x14, x16 # perform operation
    1aa0:	01071933          	sll	x18,x14,x16
  # Check if x18 contains the expected result. x20 is the signature ptr, x8 is the link ptr, x7 is a temp reg.
  RVTEST_SIGUPD(x20, x8, x7, x18, I_sll_cg_cr_rs1_rs2_edges_rs1val_0x2_rs2val_0xffffffff, I_sll_cg_cr_rs1_rs2_edges_rs1val_0x2_rs2val_0xffffffff_str)
    1aa4:	000a2383          	lw	x7,0(x20)
    1aa8:	01238863          	beq	x7,x18,1ab8 <I_sll_cg_cr_rs1_rs2_edges_rs1val_0x2_rs2val_0xffffffff+0x18>
    1aac:	2290246f          	jal	x8,44d4 <failedtest_x8_x7>
    1ab0:	00001aa0          	.word	0x00001aa0
    1ab4:	0000ae21          	.word	0x0000ae21
    1ab8:	004a0a13          	addi	x20,x20,4

# Testcase cr_rs1_rs2_edges (Test source rs1 = 0x00000002 rs2 = 0xfffffffe)
  RVTEST_TESTDATA_LOAD_INT(x23, x14) # load rs1: x14 = 0x00000002
    1abc:	000ba703          	lw	x14,0(x23)
    1ac0:	004b8b93          	addi	x23,x23,4
  RVTEST_TESTDATA_LOAD_INT(x23, x1) # load rs2: x1 = 0xfffffffe
    1ac4:	000ba083          	lw	x1,0(x23)
    1ac8:	004b8b93          	addi	x23,x23,4

00001acc <I_sll_cg_cr_rs1_rs2_edges_rs1val_0x2_rs2val_0xfffffffe>:
I_sll_cg_cr_rs1_rs2_edges_rs1val_0x2_rs2val_0xfffffffe:
  sll x19, x14, x1 # perform operation
    1acc:	001719b3          	sll	x19,x14,x1
  # Check if x19 contains the expected result. x20 is the signature ptr, x8 is the link ptr, x7 is a temp reg.
  RVTEST_SIGUPD(x20, x8, x7, x19, I_sll_cg_cr_rs1_rs2_edges_rs1val_0x2_rs2val_0xfffffffe, I_sll_cg_cr_rs1_rs2_edges_rs1val_0x2_rs2val_0xfffffffe_str)
    1ad0:	000a2383          	lw	x7,0(x20)
    1ad4:	01338863          	beq	x7,x19,1ae4 <I_sll_cg_cr_rs1_rs2_edges_rs1val_0x2_rs2val_0xfffffffe+0x18>
    1ad8:	1fd0246f          	jal	x8,44d4 <failedtest_x8_x7>
    1adc:	00001acc          	.word	0x00001acc
    1ae0:	0000ae75          	.word	0x0000ae75
    1ae4:	004a0a13          	addi	x20,x20,4

# Testcase cr_rs1_rs2_edges (Test source rs1 = 0x00000002 rs2 = 0x5bbc8872)
  RVTEST_TESTDATA_LOAD_INT(x23, x28) # load rs1: x28 = 0x00000002
    1ae8:	000bae03          	lw	x28,0(x23)
    1aec:	004b8b93          	addi	x23,x23,4
  RVTEST_TESTDATA_LOAD_INT(x23, x21) # load rs2: x21 = 0x5bbc8872
    1af0:	000baa83          	lw	x21,0(x23)
    1af4:	004b8b93          	addi	x23,x23,4

00001af8 <I_sll_cg_cr_rs1_rs2_edges_rs1val_0x2_rs2val_0x5bbc8872>:
I_sll_cg_cr_rs1_rs2_edges_rs1val_0x2_rs2val_0x5bbc8872:
  sll x9, x28, x21 # perform operation
    1af8:	015e14b3          	sll	x9,x28,x21
  # Check if x9 contains the expected result. x20 is the signature ptr, x8 is the link ptr, x7 is a temp reg.
  RVTEST_SIGUPD(x20, x8, x7, x9, I_sll_cg_cr_rs1_rs2_edges_rs1val_0x2_rs2val_0x5bbc8872, I_sll_cg_cr_rs1_rs2_edges_rs1val_0x2_rs2val_0x5bbc8872_str)
    1afc:	000a2383          	lw	x7,0(x20)
    1b00:	00938863          	beq	x7,x9,1b10 <I_sll_cg_cr_rs1_rs2_edges_rs1val_0x2_rs2val_0x5bbc8872+0x18>
    1b04:	1d10246f          	jal	x8,44d4 <failedtest_x8_x7>
    1b08:	00001af8          	.word	0x00001af8
    1b0c:	0000aec9          	.word	0x0000aec9
    1b10:	004a0a13          	addi	x20,x20,4

# Testcase cr_rs1_rs2_edges (Test source rs1 = 0x00000002 rs2 = 0xaaaaaaaa)
  RVTEST_TESTDATA_LOAD_INT(x23, x6) # load rs1: x6 = 0x00000002
    1b14:	000ba303          	lw	x6,0(x23)
    1b18:	004b8b93          	addi	x23,x23,4
  RVTEST_TESTDATA_LOAD_INT(x23, x27) # load rs2: x27 = 0xaaaaaaaa
    1b1c:	000bad83          	lw	x27,0(x23)
    1b20:	004b8b93          	addi	x23,x23,4

00001b24 <I_sll_cg_cr_rs1_rs2_edges_rs1val_0x2_rs2val_0xaaaaaaaa>:
I_sll_cg_cr_rs1_rs2_edges_rs1val_0x2_rs2val_0xaaaaaaaa:
  sll x31, x6, x27 # perform operation
    1b24:	01b31fb3          	sll	x31,x6,x27
  # Check if x31 contains the expected result. x20 is the signature ptr, x8 is the link ptr, x7 is a temp reg.
  RVTEST_SIGUPD(x20, x8, x7, x31, I_sll_cg_cr_rs1_rs2_edges_rs1val_0x2_rs2val_0xaaaaaaaa, I_sll_cg_cr_rs1_rs2_edges_rs1val_0x2_rs2val_0xaaaaaaaa_str)
    1b28:	000a2383          	lw	x7,0(x20)
    1b2c:	01f38863          	beq	x7,x31,1b3c <I_sll_cg_cr_rs1_rs2_edges_rs1val_0x2_rs2val_0xaaaaaaaa+0x18>
    1b30:	1a50246f          	jal	x8,44d4 <failedtest_x8_x7>
    1b34:	00001b24          	.word	0x00001b24
    1b38:	0000af1d          	.word	0x0000af1d
    1b3c:	004a0a13          	addi	x20,x20,4

# Testcase cr_rs1_rs2_edges (Test source rs1 = 0x00000002 rs2 = 0x55555555)
  RVTEST_TESTDATA_LOAD_INT(x23, x30) # load rs1: x30 = 0x00000002
    1b40:	000baf03          	lw	x30,0(x23)
    1b44:	004b8b93          	addi	x23,x23,4
  RVTEST_TESTDATA_LOAD_INT(x23, x1) # load rs2: x1 = 0x55555555
    1b48:	000ba083          	lw	x1,0(x23)
    1b4c:	004b8b93          	addi	x23,x23,4

00001b50 <I_sll_cg_cr_rs1_rs2_edges_rs1val_0x2_rs2val_0x55555555>:
I_sll_cg_cr_rs1_rs2_edges_rs1val_0x2_rs2val_0x55555555:
  sll x15, x30, x1 # perform operation
    1b50:	001f17b3          	sll	x15,x30,x1
  # Check if x15 contains the expected result. x20 is the signature ptr, x8 is the link ptr, x7 is a temp reg.
  RVTEST_SIGUPD(x20, x8, x7, x15, I_sll_cg_cr_rs1_rs2_edges_rs1val_0x2_rs2val_0x55555555, I_sll_cg_cr_rs1_rs2_edges_rs1val_0x2_rs2val_0x55555555_str)
    1b54:	000a2383          	lw	x7,0(x20)
    1b58:	00f38863          	beq	x7,x15,1b68 <I_sll_cg_cr_rs1_rs2_edges_rs1val_0x2_rs2val_0x55555555+0x18>
    1b5c:	1790246f          	jal	x8,44d4 <failedtest_x8_x7>
    1b60:	00001b50          	.word	0x00001b50
    1b64:	0000af71          	.word	0x0000af71
    1b68:	004a0a13          	addi	x20,x20,4

# Testcase cr_rs1_rs2_edges (Test source rs1 = 0x80000000 rs2 = 0x00000000)
  RVTEST_TESTDATA_LOAD_INT(x23, x30) # load rs1: x30 = 0x80000000
    1b6c:	000baf03          	lw	x30,0(x23)
    1b70:	004b8b93          	addi	x23,x23,4
  RVTEST_TESTDATA_LOAD_INT(x23, x1) # load rs2: x1 = 0x00000000
    1b74:	000ba083          	lw	x1,0(x23)
    1b78:	004b8b93          	addi	x23,x23,4

00001b7c <I_sll_cg_cr_rs1_rs2_edges_rs1val_0x80000000_rs2val_0x0>:
I_sll_cg_cr_rs1_rs2_edges_rs1val_0x80000000_rs2val_0x0:
  sll x28, x30, x1 # perform operation
    1b7c:	001f1e33          	sll	x28,x30,x1
  # Check if x28 contains the expected result. x20 is the signature ptr, x8 is the link ptr, x7 is a temp reg.
  RVTEST_SIGUPD(x20, x8, x7, x28, I_sll_cg_cr_rs1_rs2_edges_rs1val_0x80000000_rs2val_0x0, I_sll_cg_cr_rs1_rs2_edges_rs1val_0x80000000_rs2val_0x0_str)
    1b80:	000a2383          	lw	x7,0(x20)
    1b84:	01c38863          	beq	x7,x28,1b94 <I_sll_cg_cr_rs1_rs2_edges_rs1val_0x80000000_rs2val_0x0+0x18>
    1b88:	14d0246f          	jal	x8,44d4 <failedtest_x8_x7>
    1b8c:	00001b7c          	.word	0x00001b7c
    1b90:	0000afc5          	.word	0x0000afc5
    1b94:	004a0a13          	addi	x20,x20,4

# Testcase cr_rs1_rs2_edges (Test source rs1 = 0x80000000 rs2 = 0x00000001)
  RVTEST_TESTDATA_LOAD_INT(x23, x19) # load rs1: x19 = 0x80000000
    1b98:	000ba983          	lw	x19,0(x23)
    1b9c:	004b8b93          	addi	x23,x23,4
  RVTEST_TESTDATA_LOAD_INT(x23, x15) # load rs2: x15 = 0x00000001
    1ba0:	000ba783          	lw	x15,0(x23)
    1ba4:	004b8b93          	addi	x23,x23,4

00001ba8 <I_sll_cg_cr_rs1_rs2_edges_rs1val_0x80000000_rs2val_0x1>:
I_sll_cg_cr_rs1_rs2_edges_rs1val_0x80000000_rs2val_0x1:
  sll x11, x19, x15 # perform operation
    1ba8:	00f995b3          	sll	x11,x19,x15
  # Check if x11 contains the expected result. x20 is the signature ptr, x8 is the link ptr, x7 is a temp reg.
  RVTEST_SIGUPD(x20, x8, x7, x11, I_sll_cg_cr_rs1_rs2_edges_rs1val_0x80000000_rs2val_0x1, I_sll_cg_cr_rs1_rs2_edges_rs1val_0x80000000_rs2val_0x1_str)
    1bac:	000a2383          	lw	x7,0(x20)
    1bb0:	00b38863          	beq	x7,x11,1bc0 <I_sll_cg_cr_rs1_rs2_edges_rs1val_0x80000000_rs2val_0x1+0x18>
    1bb4:	1210246f          	jal	x8,44d4 <failedtest_x8_x7>
    1bb8:	00001ba8          	.word	0x00001ba8
    1bbc:	0000b019          	.word	0x0000b019
    1bc0:	004a0a13          	addi	x20,x20,4

# Testcase cr_rs1_rs2_edges (Test source rs1 = 0x80000000 rs2 = 0x00000002)
  RVTEST_TESTDATA_LOAD_INT(x23, x16) # load rs1: x16 = 0x80000000
    1bc4:	000ba803          	lw	x16,0(x23)
    1bc8:	004b8b93          	addi	x23,x23,4
  RVTEST_TESTDATA_LOAD_INT(x23, x31) # load rs2: x31 = 0x00000002
    1bcc:	000baf83          	lw	x31,0(x23)
    1bd0:	004b8b93          	addi	x23,x23,4

00001bd4 <I_sll_cg_cr_rs1_rs2_edges_rs1val_0x80000000_rs2val_0x2>:
I_sll_cg_cr_rs1_rs2_edges_rs1val_0x80000000_rs2val_0x2:
  sll x25, x16, x31 # perform operation
    1bd4:	01f81cb3          	sll	x25,x16,x31
  # Check if x25 contains the expected result. x20 is the signature ptr, x8 is the link ptr, x7 is a temp reg.
  RVTEST_SIGUPD(x20, x8, x7, x25, I_sll_cg_cr_rs1_rs2_edges_rs1val_0x80000000_rs2val_0x2, I_sll_cg_cr_rs1_rs2_edges_rs1val_0x80000000_rs2val_0x2_str)
    1bd8:	000a2383          	lw	x7,0(x20)
    1bdc:	01938863          	beq	x7,x25,1bec <I_sll_cg_cr_rs1_rs2_edges_rs1val_0x80000000_rs2val_0x2+0x18>
    1be0:	0f50246f          	jal	x8,44d4 <failedtest_x8_x7>
    1be4:	00001bd4          	.word	0x00001bd4
    1be8:	0000b06d          	.word	0x0000b06d
    1bec:	004a0a13          	addi	x20,x20,4

# Testcase cr_rs1_rs2_edges (Test source rs1 = 0x80000000 rs2 = 0x80000000)
  RVTEST_TESTDATA_LOAD_INT(x23, x2) # load rs1: x2 = 0x80000000
    1bf0:	000ba103          	lw	x2,0(x23)
    1bf4:	004b8b93          	addi	x23,x23,4
  RVTEST_TESTDATA_LOAD_INT(x23, x16) # load rs2: x16 = 0x80000000
    1bf8:	000ba803          	lw	x16,0(x23)
    1bfc:	004b8b93          	addi	x23,x23,4

00001c00 <I_sll_cg_cr_rs1_rs2_edges_rs1val_0x80000000_rs2val_0x80000000>:
I_sll_cg_cr_rs1_rs2_edges_rs1val_0x80000000_rs2val_0x80000000:
  sll x21, x2, x16 # perform operation
    1c00:	01011ab3          	sll	x21,x2,x16
  # Check if x21 contains the expected result. x20 is the signature ptr, x8 is the link ptr, x7 is a temp reg.
  RVTEST_SIGUPD(x20, x8, x7, x21, I_sll_cg_cr_rs1_rs2_edges_rs1val_0x80000000_rs2val_0x80000000, I_sll_cg_cr_rs1_rs2_edges_rs1val_0x80000000_rs2val_0x80000000_str)
    1c04:	000a2383          	lw	x7,0(x20)
    1c08:	01538863          	beq	x7,x21,1c18 <I_sll_cg_cr_rs1_rs2_edges_rs1val_0x80000000_rs2val_0x80000000+0x18>
    1c0c:	0c90246f          	jal	x8,44d4 <failedtest_x8_x7>
    1c10:	00001c00          	.word	0x00001c00
    1c14:	0000b0c1          	.word	0x0000b0c1
    1c18:	004a0a13          	addi	x20,x20,4

# Testcase cr_rs1_rs2_edges (Test source rs1 = 0x80000000 rs2 = 0x80000001)
  RVTEST_TESTDATA_LOAD_INT(x23, x27) # load rs1: x27 = 0x80000000
    1c1c:	000bad83          	lw	x27,0(x23)
    1c20:	004b8b93          	addi	x23,x23,4
  RVTEST_TESTDATA_LOAD_INT(x23, x16) # load rs2: x16 = 0x80000001
    1c24:	000ba803          	lw	x16,0(x23)
    1c28:	004b8b93          	addi	x23,x23,4

00001c2c <I_sll_cg_cr_rs1_rs2_edges_rs1val_0x80000000_rs2val_0x80000001>:
I_sll_cg_cr_rs1_rs2_edges_rs1val_0x80000000_rs2val_0x80000001:
  sll x26, x27, x16 # perform operation
    1c2c:	010d9d33          	sll	x26,x27,x16
  # Check if x26 contains the expected result. x20 is the signature ptr, x8 is the link ptr, x7 is a temp reg.
  RVTEST_SIGUPD(x20, x8, x7, x26, I_sll_cg_cr_rs1_rs2_edges_rs1val_0x80000000_rs2val_0x80000001, I_sll_cg_cr_rs1_rs2_edges_rs1val_0x80000000_rs2val_0x80000001_str)
    1c30:	000a2383          	lw	x7,0(x20)
    1c34:	01a38863          	beq	x7,x26,1c44 <I_sll_cg_cr_rs1_rs2_edges_rs1val_0x80000000_rs2val_0x80000001+0x18>
    1c38:	09d0246f          	jal	x8,44d4 <failedtest_x8_x7>
    1c3c:	00001c2c          	.word	0x00001c2c
    1c40:	0000b11c          	.word	0x0000b11c
    1c44:	004a0a13          	addi	x20,x20,4

# Testcase cr_rs1_rs2_edges (Test source rs1 = 0x80000000 rs2 = 0x7fffffff)
  RVTEST_TESTDATA_LOAD_INT(x23, x28) # load rs1: x28 = 0x80000000
    1c48:	000bae03          	lw	x28,0(x23)
    1c4c:	004b8b93          	addi	x23,x23,4
  RVTEST_TESTDATA_LOAD_INT(x23, x5) # load rs2: x5 = 0x7fffffff
    1c50:	000ba283          	lw	x5,0(x23)
    1c54:	004b8b93          	addi	x23,x23,4

00001c58 <I_sll_cg_cr_rs1_rs2_edges_rs1val_0x80000000_rs2val_0x7fffffff>:
I_sll_cg_cr_rs1_rs2_edges_rs1val_0x80000000_rs2val_0x7fffffff:
  sll x14, x28, x5 # perform operation
    1c58:	005e1733          	sll	x14,x28,x5
  # Check if x14 contains the expected result. x20 is the signature ptr, x8 is the link ptr, x7 is a temp reg.
  RVTEST_SIGUPD(x20, x8, x7, x14, I_sll_cg_cr_rs1_rs2_edges_rs1val_0x80000000_rs2val_0x7fffffff, I_sll_cg_cr_rs1_rs2_edges_rs1val_0x80000000_rs2val_0x7fffffff_str)
    1c5c:	000a2383          	lw	x7,0(x20)
    1c60:	00e38863          	beq	x7,x14,1c70 <I_sll_cg_cr_rs1_rs2_edges_rs1val_0x80000000_rs2val_0x7fffffff+0x18>
    1c64:	0710246f          	jal	x8,44d4 <failedtest_x8_x7>
    1c68:	00001c58          	.word	0x00001c58
    1c6c:	0000b177          	.word	0x0000b177
    1c70:	004a0a13          	addi	x20,x20,4

# Testcase cr_rs1_rs2_edges (Test source rs1 = 0x80000000 rs2 = 0x7ffffffe)
  RVTEST_TESTDATA_LOAD_INT(x23, x11) # load rs1: x11 = 0x80000000
    1c74:	000ba583          	lw	x11,0(x23)
    1c78:	004b8b93          	addi	x23,x23,4
  RVTEST_TESTDATA_LOAD_INT(x23, x22) # load rs2: x22 = 0x7ffffffe
    1c7c:	000bab03          	lw	x22,0(x23)
    1c80:	004b8b93          	addi	x23,x23,4

00001c84 <I_sll_cg_cr_rs1_rs2_edges_rs1val_0x80000000_rs2val_0x7ffffffe>:
I_sll_cg_cr_rs1_rs2_edges_rs1val_0x80000000_rs2val_0x7ffffffe:
  sll x30, x11, x22 # perform operation
    1c84:	01659f33          	sll	x30,x11,x22
  # Check if x30 contains the expected result. x20 is the signature ptr, x8 is the link ptr, x7 is a temp reg.
  RVTEST_SIGUPD(x20, x8, x7, x30, I_sll_cg_cr_rs1_rs2_edges_rs1val_0x80000000_rs2val_0x7ffffffe, I_sll_cg_cr_rs1_rs2_edges_rs1val_0x80000000_rs2val_0x7ffffffe_str)
    1c88:	000a2383          	lw	x7,0(x20)
    1c8c:	01e38863          	beq	x7,x30,1c9c <I_sll_cg_cr_rs1_rs2_edges_rs1val_0x80000000_rs2val_0x7ffffffe+0x18>
    1c90:	0450246f          	jal	x8,44d4 <failedtest_x8_x7>
    1c94:	00001c84          	.word	0x00001c84
    1c98:	0000b1d2          	.word	0x0000b1d2
    1c9c:	004a0a13          	addi	x20,x20,4

# Testcase cr_rs1_rs2_edges (Test source rs1 = 0x80000000 rs2 = 0xffffffff)
  RVTEST_TESTDATA_LOAD_INT(x23, x18) # load rs1: x18 = 0x80000000
    1ca0:	000ba903          	lw	x18,0(x23)
    1ca4:	004b8b93          	addi	x23,x23,4
  RVTEST_TESTDATA_LOAD_INT(x23, x17) # load rs2: x17 = 0xffffffff
    1ca8:	000ba883          	lw	x17,0(x23)
    1cac:	004b8b93          	addi	x23,x23,4

00001cb0 <I_sll_cg_cr_rs1_rs2_edges_rs1val_0x80000000_rs2val_0xffffffff>:
I_sll_cg_cr_rs1_rs2_edges_rs1val_0x80000000_rs2val_0xffffffff:
  sll x22, x18, x17 # perform operation
    1cb0:	01191b33          	sll	x22,x18,x17
  # Check if x22 contains the expected result. x20 is the signature ptr, x8 is the link ptr, x7 is a temp reg.
  RVTEST_SIGUPD(x20, x8, x7, x22, I_sll_cg_cr_rs1_rs2_edges_rs1val_0x80000000_rs2val_0xffffffff, I_sll_cg_cr_rs1_rs2_edges_rs1val_0x80000000_rs2val_0xffffffff_str)
    1cb4:	000a2383          	lw	x7,0(x20)
    1cb8:	01638863          	beq	x7,x22,1cc8 <I_sll_cg_cr_rs1_rs2_edges_rs1val_0x80000000_rs2val_0xffffffff+0x18>
    1cbc:	0190246f          	jal	x8,44d4 <failedtest_x8_x7>
    1cc0:	00001cb0          	.word	0x00001cb0
    1cc4:	0000b22d          	.word	0x0000b22d
    1cc8:	004a0a13          	addi	x20,x20,4

# Testcase cr_rs1_rs2_edges (Test source rs1 = 0x80000000 rs2 = 0xfffffffe)
  RVTEST_TESTDATA_LOAD_INT(x23, x26) # load rs1: x26 = 0x80000000
    1ccc:	000bad03          	lw	x26,0(x23)
    1cd0:	004b8b93          	addi	x23,x23,4
  RVTEST_TESTDATA_LOAD_INT(x23, x18) # load rs2: x18 = 0xfffffffe
    1cd4:	000ba903          	lw	x18,0(x23)
    1cd8:	004b8b93          	addi	x23,x23,4

00001cdc <I_sll_cg_cr_rs1_rs2_edges_rs1val_0x80000000_rs2val_0xfffffffe>:
