
/home/dev/github/clones/riscv-arch-test/work/rv32i-core/elfs/rv32i/I/I-sltiu-00.elf:     file format elf32-littleriscv
/home/dev/github/clones/riscv-arch-test/work/rv32i-core/elfs/rv32i/I/I-sltiu-00.elf
architecture: riscv:rv32, flags 0x00000112:
EXEC_P, HAS_SYMS, D_PAGED
start address 0x00000000

Program Header:
0x70000003 off    0x0001e240 vaddr 0x00000000 paddr 0x00000000 align 2**0
         filesz 0x00000033 memsz 0x00000000 flags r--
    LOAD off    0x00001000 vaddr 0x00000000 paddr 0x00000000 align 2**12
         filesz 0x00004f20 memsz 0x00004f20 flags r-x
    LOAD off    0x00006000 vaddr 0x00008000 paddr 0x00008000 align 2**12
         filesz 0x00018240 memsz 0x00018240 flags rwx

Sections:
Idx Name          Size      VMA       LMA       File off  Algn
  0 .text.init    00000040  00000000  00000000  00001000  2**5
                  CONTENTS, ALLOC, LOAD, READONLY, CODE
  1 .text.rvtest  00004ee0  00000040  00000040  00001040  2**5
                  CONTENTS, ALLOC, LOAD, READONLY, CODE
  2 .data         00017e10  00008000  00008000  00006000  2**8
                  CONTENTS, ALLOC, LOAD, DATA
  3 .text.rvmodel 00000240  00020000  00020000  0001e000  2**5
                  CONTENTS, ALLOC, LOAD, READONLY, CODE
  4 .riscv.attributes 00000033  00000000  00000000  0001e240  2**0
                  CONTENTS, READONLY
  5 .debug_line   00001abe  00000000  00000000  0001e273  2**0
                  CONTENTS, READONLY, DEBUGGING, OCTETS
  6 .debug_line_str 0000006b  00000000  00000000  0001fd31  2**0
                  CONTENTS, READONLY, DEBUGGING, OCTETS
  7 .debug_info   00000023  00000000  00000000  0001fd9c  2**0
                  CONTENTS, READONLY, DEBUGGING, OCTETS
  8 .debug_abbrev 00000012  00000000  00000000  0001fdbf  2**0
                  CONTENTS, READONLY, DEBUGGING, OCTETS
  9 .debug_aranges 00000028  00000000  00000000  0001fdd8  2**3
                  CONTENTS, READONLY, DEBUGGING, OCTETS
 10 .debug_str    00000077  00000000  00000000  0001fe00  2**0
                  CONTENTS, READONLY, DEBUGGING, OCTETS
 11 .debug_rnglists 0000001b  00000000  00000000  0001fe77  2**0
                  CONTENTS, READONLY, DEBUGGING, OCTETS
SYMBOL TABLE:
00000000 l    d  .text.init	00000000 .text.init
00000040 l    d  .text.rvtest	00000000 .text.rvtest
00008000 l    d  .data	00000000 .data
00020000 l    d  .text.rvmodel	00000000 .text.rvmodel
00000000 l    d  .riscv.attributes	00000000 .riscv.attributes
00000000 l    d  .debug_line	00000000 .debug_line
00000000 l    d  .debug_line_str	00000000 .debug_line_str
00000000 l    d  .debug_info	00000000 .debug_info
00000000 l    d  .debug_abbrev	00000000 .debug_abbrev
00000000 l    d  .debug_aranges	00000000 .debug_aranges
00000000 l    d  .debug_str	00000000 .debug_str
00000000 l    d  .debug_rnglists	00000000 .debug_rnglists
00000000 l    df *ABS*	00000000 ccDN8dMa.o
00000003 l       *ABS*	00000000 MMODE_SIG
00000001 l       *ABS*	00000000 SMODE_SIG
00000001 l       *ABS*	00000000 HMODE_SIG
00000002 l       *ABS*	00000000 VMODE_SIG
00020000 l       .text.rvmodel	00000000 rvmodel_boot
00000048 l       .text.rvtest	00000000 I_sltiu_cg_cp_rs1_b0
0000349c l       .text.rvtest	00000000 failedtest_x5_x4
000086d0 l       .data	00000000 I_sltiu_cg_cp_rs1_b0_str
0000006c l       .text.rvtest	00000000 I_sltiu_cg_cp_rs1_b1
000086ff l       .data	00000000 I_sltiu_cg_cp_rs1_b1_str
00000094 l       .text.rvtest	00000000 I_sltiu_cg_cp_rs1_b2
0000872e l       .data	00000000 I_sltiu_cg_cp_rs1_b2_str
000000bc l       .text.rvtest	00000000 I_sltiu_cg_cp_rs1_b3
0000875d l       .data	00000000 I_sltiu_cg_cp_rs1_b3_str
000000e8 l       .text.rvtest	00000000 I_sltiu_cg_cp_rs1_b4
000034b4 l       .text.rvtest	00000000 failedtest_x8_x7
0000878c l       .data	00000000 I_sltiu_cg_cp_rs1_b4_str
0000010c l       .text.rvtest	00000000 I_sltiu_cg_cp_rs1_b5
000087bb l       .data	00000000 I_sltiu_cg_cp_rs1_b5_str
00000130 l       .text.rvtest	00000000 I_sltiu_cg_cp_rs1_b6
000087ea l       .data	00000000 I_sltiu_cg_cp_rs1_b6_str
0000015c l       .text.rvtest	00000000 I_sltiu_cg_cp_rs1_b7
00008819 l       .data	00000000 I_sltiu_cg_cp_rs1_b7_str
00000180 l       .text.rvtest	00000000 I_sltiu_cg_cp_rs1_b8
00008848 l       .data	00000000 I_sltiu_cg_cp_rs1_b8_str
000001a4 l       .text.rvtest	00000000 I_sltiu_cg_cp_rs1_b9
00008877 l       .data	00000000 I_sltiu_cg_cp_rs1_b9_str
000001c8 l       .text.rvtest	00000000 I_sltiu_cg_cp_rs1_b10
000088a7 l       .data	00000000 I_sltiu_cg_cp_rs1_b10_str
000001ec l       .text.rvtest	00000000 I_sltiu_cg_cp_rs1_b11
000088d8 l       .data	00000000 I_sltiu_cg_cp_rs1_b11_str
00000210 l       .text.rvtest	00000000 I_sltiu_cg_cp_rs1_b12
00008909 l       .data	00000000 I_sltiu_cg_cp_rs1_b12_str
00000234 l       .text.rvtest	00000000 I_sltiu_cg_cp_rs1_b13
0000893a l       .data	00000000 I_sltiu_cg_cp_rs1_b13_str
00000258 l       .text.rvtest	00000000 I_sltiu_cg_cp_rs1_b14
0000896b l       .data	00000000 I_sltiu_cg_cp_rs1_b14_str
0000027c l       .text.rvtest	00000000 I_sltiu_cg_cp_rs1_b15
0000899c l       .data	00000000 I_sltiu_cg_cp_rs1_b15_str
000002a0 l       .text.rvtest	00000000 I_sltiu_cg_cp_rs1_b16
000089cd l       .data	00000000 I_sltiu_cg_cp_rs1_b16_str
000002c4 l       .text.rvtest	00000000 I_sltiu_cg_cp_rs1_b17
000089fe l       .data	00000000 I_sltiu_cg_cp_rs1_b17_str
000002e8 l       .text.rvtest	00000000 I_sltiu_cg_cp_rs1_b18
00008a2f l       .data	00000000 I_sltiu_cg_cp_rs1_b18_str
0000030c l       .text.rvtest	00000000 I_sltiu_cg_cp_rs1_b19
00008a60 l       .data	00000000 I_sltiu_cg_cp_rs1_b19_str
00000334 l       .text.rvtest	00000000 I_sltiu_cg_cp_rs1_b20
00008a91 l       .data	00000000 I_sltiu_cg_cp_rs1_b20_str
00000358 l       .text.rvtest	00000000 I_sltiu_cg_cp_rs1_b21
00008ac2 l       .data	00000000 I_sltiu_cg_cp_rs1_b21_str
0000037c l       .text.rvtest	00000000 I_sltiu_cg_cp_rs1_b22
00008af3 l       .data	00000000 I_sltiu_cg_cp_rs1_b22_str
000003a0 l       .text.rvtest	00000000 I_sltiu_cg_cp_rs1_b23
00008b24 l       .data	00000000 I_sltiu_cg_cp_rs1_b23_str
000003c4 l       .text.rvtest	00000000 I_sltiu_cg_cp_rs1_b24
00008b55 l       .data	00000000 I_sltiu_cg_cp_rs1_b24_str
000003e8 l       .text.rvtest	00000000 I_sltiu_cg_cp_rs1_b25
00008b86 l       .data	00000000 I_sltiu_cg_cp_rs1_b25_str
0000040c l       .text.rvtest	00000000 I_sltiu_cg_cp_rs1_b26
00008bb7 l       .data	00000000 I_sltiu_cg_cp_rs1_b26_str
00000430 l       .text.rvtest	00000000 I_sltiu_cg_cp_rs1_b27
00008be8 l       .data	00000000 I_sltiu_cg_cp_rs1_b27_str
00000454 l       .text.rvtest	00000000 I_sltiu_cg_cp_rs1_b28
00008c19 l       .data	00000000 I_sltiu_cg_cp_rs1_b28_str
00000478 l       .text.rvtest	00000000 I_sltiu_cg_cp_rs1_b29
00008c4a l       .data	00000000 I_sltiu_cg_cp_rs1_b29_str
0000049c l       .text.rvtest	00000000 I_sltiu_cg_cp_rs1_b30
00008c7b l       .data	00000000 I_sltiu_cg_cp_rs1_b30_str
000004c0 l       .text.rvtest	00000000 I_sltiu_cg_cp_rs1_b31
00008cac l       .data	00000000 I_sltiu_cg_cp_rs1_b31_str
000004e4 l       .text.rvtest	00000000 I_sltiu_cg_cp_rd_b0
00008cdd l       .data	00000000 I_sltiu_cg_cp_rd_b0_str
0000050c l       .text.rvtest	00000000 I_sltiu_cg_cp_rd_b1
00008d0c l       .data	00000000 I_sltiu_cg_cp_rd_b1_str
00000530 l       .text.rvtest	00000000 I_sltiu_cg_cp_rd_b2
00008d3b l       .data	00000000 I_sltiu_cg_cp_rd_b2_str
00000554 l       .text.rvtest	00000000 I_sltiu_cg_cp_rd_b3
00008d6a l       .data	00000000 I_sltiu_cg_cp_rd_b3_str
00000580 l       .text.rvtest	00000000 I_sltiu_cg_cp_rd_b4
000034dc l       .text.rvtest	00000000 failedtest_x14_x13
00008d99 l       .data	00000000 I_sltiu_cg_cp_rd_b4_str
000005a4 l       .text.rvtest	00000000 I_sltiu_cg_cp_rd_b5
00008dc8 l       .data	00000000 I_sltiu_cg_cp_rd_b5_str
000005c8 l       .text.rvtest	00000000 I_sltiu_cg_cp_rd_b6
00008df7 l       .data	00000000 I_sltiu_cg_cp_rd_b6_str
000005ec l       .text.rvtest	00000000 I_sltiu_cg_cp_rd_b7
00008e26 l       .data	00000000 I_sltiu_cg_cp_rd_b7_str
00000610 l       .text.rvtest	00000000 I_sltiu_cg_cp_rd_b8
00008e55 l       .data	00000000 I_sltiu_cg_cp_rd_b8_str
00000638 l       .text.rvtest	00000000 I_sltiu_cg_cp_rd_b9
00008e84 l       .data	00000000 I_sltiu_cg_cp_rd_b9_str
0000065c l       .text.rvtest	00000000 I_sltiu_cg_cp_rd_b10
00008eb3 l       .data	00000000 I_sltiu_cg_cp_rd_b10_str
00000680 l       .text.rvtest	00000000 I_sltiu_cg_cp_rd_b11
00008ee3 l       .data	00000000 I_sltiu_cg_cp_rd_b11_str
000006a4 l       .text.rvtest	00000000 I_sltiu_cg_cp_rd_b12
00008f13 l       .data	00000000 I_sltiu_cg_cp_rd_b12_str
000006d0 l       .text.rvtest	00000000 I_sltiu_cg_cp_rd_b13
00008f43 l       .data	00000000 I_sltiu_cg_cp_rd_b13_str
000006f4 l       .text.rvtest	00000000 I_sltiu_cg_cp_rd_b14
00008f73 l       .data	00000000 I_sltiu_cg_cp_rd_b14_str
00000718 l       .text.rvtest	00000000 I_sltiu_cg_cp_rd_b15
00008fa3 l       .data	00000000 I_sltiu_cg_cp_rd_b15_str
0000073c l       .text.rvtest	00000000 I_sltiu_cg_cp_rd_b16
00008fd3 l       .data	00000000 I_sltiu_cg_cp_rd_b16_str
00000760 l       .text.rvtest	00000000 I_sltiu_cg_cp_rd_b17
00009003 l       .data	00000000 I_sltiu_cg_cp_rd_b17_str
00000784 l       .text.rvtest	00000000 I_sltiu_cg_cp_rd_b18
00009033 l       .data	00000000 I_sltiu_cg_cp_rd_b18_str
000007ac l       .text.rvtest	00000000 I_sltiu_cg_cp_rd_b19
00009063 l       .data	00000000 I_sltiu_cg_cp_rd_b19_str
000007d0 l       .text.rvtest	00000000 I_sltiu_cg_cp_rd_b20
00009093 l       .data	00000000 I_sltiu_cg_cp_rd_b20_str
000007f4 l       .text.rvtest	00000000 I_sltiu_cg_cp_rd_b21
000090c3 l       .data	00000000 I_sltiu_cg_cp_rd_b21_str
00000818 l       .text.rvtest	00000000 I_sltiu_cg_cp_rd_b22
000090f3 l       .data	00000000 I_sltiu_cg_cp_rd_b22_str
0000083c l       .text.rvtest	00000000 I_sltiu_cg_cp_rd_b23
00009123 l       .data	00000000 I_sltiu_cg_cp_rd_b23_str
00000860 l       .text.rvtest	00000000 I_sltiu_cg_cp_rd_b24
00009153 l       .data	00000000 I_sltiu_cg_cp_rd_b24_str
00000884 l       .text.rvtest	00000000 I_sltiu_cg_cp_rd_b25
00009183 l       .data	00000000 I_sltiu_cg_cp_rd_b25_str
000008a8 l       .text.rvtest	00000000 I_sltiu_cg_cp_rd_b26
000091b3 l       .data	00000000 I_sltiu_cg_cp_rd_b26_str
000008cc l       .text.rvtest	00000000 I_sltiu_cg_cp_rd_b27
000091e3 l       .data	00000000 I_sltiu_cg_cp_rd_b27_str
000008f0 l       .text.rvtest	00000000 I_sltiu_cg_cp_rd_b28
00009213 l       .data	00000000 I_sltiu_cg_cp_rd_b28_str
00000914 l       .text.rvtest	00000000 I_sltiu_cg_cp_rd_b29
00009243 l       .data	00000000 I_sltiu_cg_cp_rd_b29_str
00000938 l       .text.rvtest	00000000 I_sltiu_cg_cp_rd_b30
00009273 l       .data	00000000 I_sltiu_cg_cp_rd_b30_str
0000095c l       .text.rvtest	00000000 I_sltiu_cg_cp_rd_b31
000092a3 l       .data	00000000 I_sltiu_cg_cp_rd_b31_str
00000980 l       .text.rvtest	00000000 I_sltiu_cg_cp_rs1_edges_0x0
000092d3 l       .data	00000000 I_sltiu_cg_cp_rs1_edges_0x0_str
000009a4 l       .text.rvtest	00000000 I_sltiu_cg_cp_rs1_edges_0x1
0000930a l       .data	00000000 I_sltiu_cg_cp_rs1_edges_0x1_str
000009c8 l       .text.rvtest	00000000 I_sltiu_cg_cp_rs1_edges_0x2
00009341 l       .data	00000000 I_sltiu_cg_cp_rs1_edges_0x2_str
000009ec l       .text.rvtest	00000000 I_sltiu_cg_cp_rs1_edges_0x80000000
00009378 l       .data	00000000 I_sltiu_cg_cp_rs1_edges_0x80000000_str
00000a10 l       .text.rvtest	00000000 I_sltiu_cg_cp_rs1_edges_0x80000001
000093b6 l       .data	00000000 I_sltiu_cg_cp_rs1_edges_0x80000001_str
00000a34 l       .text.rvtest	00000000 I_sltiu_cg_cp_rs1_edges_0x7fffffff
000093f4 l       .data	00000000 I_sltiu_cg_cp_rs1_edges_0x7fffffff_str
00000a58 l       .text.rvtest	00000000 I_sltiu_cg_cp_rs1_edges_0x7ffffffe
00009432 l       .data	00000000 I_sltiu_cg_cp_rs1_edges_0x7ffffffe_str
00000a7c l       .text.rvtest	00000000 I_sltiu_cg_cp_rs1_edges_0xffffffff
00009470 l       .data	00000000 I_sltiu_cg_cp_rs1_edges_0xffffffff_str
00000aa0 l       .text.rvtest	00000000 I_sltiu_cg_cp_rs1_edges_0xfffffffe
000094ae l       .data	00000000 I_sltiu_cg_cp_rs1_edges_0xfffffffe_str
00000ac4 l       .text.rvtest	00000000 I_sltiu_cg_cp_rs1_edges_0x5bbc8872
000094ec l       .data	00000000 I_sltiu_cg_cp_rs1_edges_0x5bbc8872_str
00000ae8 l       .text.rvtest	00000000 I_sltiu_cg_cp_rs1_edges_0xaaaaaaaa
0000952a l       .data	00000000 I_sltiu_cg_cp_rs1_edges_0xaaaaaaaa_str
00000b0c l       .text.rvtest	00000000 I_sltiu_cg_cp_rs1_edges_0x55555555
00009568 l       .data	00000000 I_sltiu_cg_cp_rs1_edges_0x55555555_str
00000b30 l       .text.rvtest	00000000 I_sltiu_cg_cr_rs1_imm_edges_rs1val_0x0_immval_0x0
000095a6 l       .data	00000000 I_sltiu_cg_cr_rs1_imm_edges_rs1val_0x0_immval_0x0_str
00000b54 l       .text.rvtest	00000000 I_sltiu_cg_cr_rs1_imm_edges_rs1val_0x0_immval_0x1
000095f4 l       .data	00000000 I_sltiu_cg_cr_rs1_imm_edges_rs1val_0x0_immval_0x1_str
00000b78 l       .text.rvtest	00000000 I_sltiu_cg_cr_rs1_imm_edges_rs1val_0x0_immval_0x2
00009642 l       .data	00000000 I_sltiu_cg_cr_rs1_imm_edges_rs1val_0x0_immval_0x2_str
00000b9c l       .text.rvtest	00000000 I_sltiu_cg_cr_rs1_imm_edges_rs1val_0x0_immval_0x3
00009690 l       .data	00000000 I_sltiu_cg_cr_rs1_imm_edges_rs1val_0x0_immval_0x3_str
00000bc0 l       .text.rvtest	00000000 I_sltiu_cg_cr_rs1_imm_edges_rs1val_0x0_immval_0x4
000096de l       .data	00000000 I_sltiu_cg_cr_rs1_imm_edges_rs1val_0x0_immval_0x4_str
00000be4 l       .text.rvtest	00000000 I_sltiu_cg_cr_rs1_imm_edges_rs1val_0x0_immval_0x8
0000972c l       .data	00000000 I_sltiu_cg_cr_rs1_imm_edges_rs1val_0x0_immval_0x8_str
00000c08 l       .text.rvtest	00000000 I_sltiu_cg_cr_rs1_imm_edges_rs1val_0x0_immval_0x10
0000977a l       .data	00000000 I_sltiu_cg_cr_rs1_imm_edges_rs1val_0x0_immval_0x10_str
00000c2c l       .text.rvtest	00000000 I_sltiu_cg_cr_rs1_imm_edges_rs1val_0x0_immval_0x20
000097c9 l       .data	00000000 I_sltiu_cg_cr_rs1_imm_edges_rs1val_0x0_immval_0x20_str
00000c50 l       .text.rvtest	00000000 I_sltiu_cg_cr_rs1_imm_edges_rs1val_0x0_immval_0x40
00009818 l       .data	00000000 I_sltiu_cg_cr_rs1_imm_edges_rs1val_0x0_immval_0x40_str
00000c74 l       .text.rvtest	00000000 I_sltiu_cg_cr_rs1_imm_edges_rs1val_0x0_immval_0x80
00009867 l       .data	00000000 I_sltiu_cg_cr_rs1_imm_edges_rs1val_0x0_immval_0x80_str
00000c98 l       .text.rvtest	00000000 I_sltiu_cg_cr_rs1_imm_edges_rs1val_0x0_immval_0x100
000098b6 l       .data	00000000 I_sltiu_cg_cr_rs1_imm_edges_rs1val_0x0_immval_0x100_str
00000cbc l       .text.rvtest	00000000 I_sltiu_cg_cr_rs1_imm_edges_rs1val_0x0_immval_0x200
00009906 l       .data	00000000 I_sltiu_cg_cr_rs1_imm_edges_rs1val_0x0_immval_0x200_str
00000ce0 l       .text.rvtest	00000000 I_sltiu_cg_cr_rs1_imm_edges_rs1val_0x0_immval_0x3ff
00009956 l       .data	00000000 I_sltiu_cg_cr_rs1_imm_edges_rs1val_0x0_immval_0x3ff_str
00000d04 l       .text.rvtest	00000000 I_sltiu_cg_cr_rs1_imm_edges_rs1val_0x0_immval_0x400
000099a6 l       .data	00000000 I_sltiu_cg_cr_rs1_imm_edges_rs1val_0x0_immval_0x400_str
00000d28 l       .text.rvtest	00000000 I_sltiu_cg_cr_rs1_imm_edges_rs1val_0x0_immval_0x703
000099f6 l       .data	00000000 I_sltiu_cg_cr_rs1_imm_edges_rs1val_0x0_immval_0x703_str
00000d4c l       .text.rvtest	00000000 I_sltiu_cg_cr_rs1_imm_edges_rs1val_0x0_immval_0x7ff
00009a46 l       .data	00000000 I_sltiu_cg_cr_rs1_imm_edges_rs1val_0x0_immval_0x7ff_str
00000d70 l       .text.rvtest	00000000 I_sltiu_cg_cr_rs1_imm_edges_rs1val_0x0_immval_m0x800
00009a96 l       .data	00000000 I_sltiu_cg_cr_rs1_imm_edges_rs1val_0x0_immval_m0x800_str
00000d94 l       .text.rvtest	00000000 I_sltiu_cg_cr_rs1_imm_edges_rs1val_0x0_immval_m0x7ff
00009ae7 l       .data	00000000 I_sltiu_cg_cr_rs1_imm_edges_rs1val_0x0_immval_m0x7ff_str
00000db8 l       .text.rvtest	00000000 I_sltiu_cg_cr_rs1_imm_edges_rs1val_0x0_immval_m0x2
00009b38 l       .data	00000000 I_sltiu_cg_cr_rs1_imm_edges_rs1val_0x0_immval_m0x2_str
00000ddc l       .text.rvtest	00000000 I_sltiu_cg_cr_rs1_imm_edges_rs1val_0x0_immval_m0x1
00009b87 l       .data	00000000 I_sltiu_cg_cr_rs1_imm_edges_rs1val_0x0_immval_m0x1_str
00000e00 l       .text.rvtest	00000000 I_sltiu_cg_cr_rs1_imm_edges_rs1val_0x1_immval_0x0
00009bd6 l       .data	00000000 I_sltiu_cg_cr_rs1_imm_edges_rs1val_0x1_immval_0x0_str
00000e24 l       .text.rvtest	00000000 I_sltiu_cg_cr_rs1_imm_edges_rs1val_0x1_immval_0x1
00009c24 l       .data	00000000 I_sltiu_cg_cr_rs1_imm_edges_rs1val_0x1_immval_0x1_str
00000e48 l       .text.rvtest	00000000 I_sltiu_cg_cr_rs1_imm_edges_rs1val_0x1_immval_0x2
00009c72 l       .data	00000000 I_sltiu_cg_cr_rs1_imm_edges_rs1val_0x1_immval_0x2_str
00000e6c l       .text.rvtest	00000000 I_sltiu_cg_cr_rs1_imm_edges_rs1val_0x1_immval_0x3
00009cc0 l       .data	00000000 I_sltiu_cg_cr_rs1_imm_edges_rs1val_0x1_immval_0x3_str
00000e90 l       .text.rvtest	00000000 I_sltiu_cg_cr_rs1_imm_edges_rs1val_0x1_immval_0x4
00009d0f l       .data	00000000 I_sltiu_cg_cr_rs1_imm_edges_rs1val_0x1_immval_0x4_str
00000eb4 l       .text.rvtest	00000000 I_sltiu_cg_cr_rs1_imm_edges_rs1val_0x1_immval_0x8
00009d5e l       .data	00000000 I_sltiu_cg_cr_rs1_imm_edges_rs1val_0x1_immval_0x8_str
00000ed8 l       .text.rvtest	00000000 I_sltiu_cg_cr_rs1_imm_edges_rs1val_0x1_immval_0x10
00009dad l       .data	00000000 I_sltiu_cg_cr_rs1_imm_edges_rs1val_0x1_immval_0x10_str
00000efc l       .text.rvtest	00000000 I_sltiu_cg_cr_rs1_imm_edges_rs1val_0x1_immval_0x20
00009dfd l       .data	00000000 I_sltiu_cg_cr_rs1_imm_edges_rs1val_0x1_immval_0x20_str
00000f20 l       .text.rvtest	00000000 I_sltiu_cg_cr_rs1_imm_edges_rs1val_0x1_immval_0x40
00009e4d l       .data	00000000 I_sltiu_cg_cr_rs1_imm_edges_rs1val_0x1_immval_0x40_str
00000f44 l       .text.rvtest	00000000 I_sltiu_cg_cr_rs1_imm_edges_rs1val_0x1_immval_0x80
00009e9d l       .data	00000000 I_sltiu_cg_cr_rs1_imm_edges_rs1val_0x1_immval_0x80_str
00000f68 l       .text.rvtest	00000000 I_sltiu_cg_cr_rs1_imm_edges_rs1val_0x1_immval_0x100
00009eed l       .data	00000000 I_sltiu_cg_cr_rs1_imm_edges_rs1val_0x1_immval_0x100_str
00000f8c l       .text.rvtest	00000000 I_sltiu_cg_cr_rs1_imm_edges_rs1val_0x1_immval_0x200
00009f3e l       .data	00000000 I_sltiu_cg_cr_rs1_imm_edges_rs1val_0x1_immval_0x200_str
00000fb0 l       .text.rvtest	00000000 I_sltiu_cg_cr_rs1_imm_edges_rs1val_0x1_immval_0x3ff
00009f8f l       .data	00000000 I_sltiu_cg_cr_rs1_imm_edges_rs1val_0x1_immval_0x3ff_str
00000fd4 l       .text.rvtest	00000000 I_sltiu_cg_cr_rs1_imm_edges_rs1val_0x1_immval_0x400
00009fe0 l       .data	00000000 I_sltiu_cg_cr_rs1_imm_edges_rs1val_0x1_immval_0x400_str
00000ff8 l       .text.rvtest	00000000 I_sltiu_cg_cr_rs1_imm_edges_rs1val_0x1_immval_0x703
0000a031 l       .data	00000000 I_sltiu_cg_cr_rs1_imm_edges_rs1val_0x1_immval_0x703_str
0000101c l       .text.rvtest	00000000 I_sltiu_cg_cr_rs1_imm_edges_rs1val_0x1_immval_0x7ff
0000a082 l       .data	00000000 I_sltiu_cg_cr_rs1_imm_edges_rs1val_0x1_immval_0x7ff_str
00001040 l       .text.rvtest	00000000 I_sltiu_cg_cr_rs1_imm_edges_rs1val_0x1_immval_m0x800
0000a0d3 l       .data	00000000 I_sltiu_cg_cr_rs1_imm_edges_rs1val_0x1_immval_m0x800_str
00001064 l       .text.rvtest	00000000 I_sltiu_cg_cr_rs1_imm_edges_rs1val_0x1_immval_m0x7ff
0000a125 l       .data	00000000 I_sltiu_cg_cr_rs1_imm_edges_rs1val_0x1_immval_m0x7ff_str
00001088 l       .text.rvtest	00000000 I_sltiu_cg_cr_rs1_imm_edges_rs1val_0x1_immval_m0x2
0000a177 l       .data	00000000 I_sltiu_cg_cr_rs1_imm_edges_rs1val_0x1_immval_m0x2_str
000010ac l       .text.rvtest	00000000 I_sltiu_cg_cr_rs1_imm_edges_rs1val_0x1_immval_m0x1
0000a1c7 l       .data	00000000 I_sltiu_cg_cr_rs1_imm_edges_rs1val_0x1_immval_m0x1_str
000010d0 l       .text.rvtest	00000000 I_sltiu_cg_cr_rs1_imm_edges_rs1val_0x2_immval_0x0
0000a217 l       .data	00000000 I_sltiu_cg_cr_rs1_imm_edges_rs1val_0x2_immval_0x0_str
000010f4 l       .text.rvtest	00000000 I_sltiu_cg_cr_rs1_imm_edges_rs1val_0x2_immval_0x1
0000a266 l       .data	00000000 I_sltiu_cg_cr_rs1_imm_edges_rs1val_0x2_immval_0x1_str
00001118 l       .text.rvtest	00000000 I_sltiu_cg_cr_rs1_imm_edges_rs1val_0x2_immval_0x2
0000a2b5 l       .data	00000000 I_sltiu_cg_cr_rs1_imm_edges_rs1val_0x2_immval_0x2_str
0000113c l       .text.rvtest	00000000 I_sltiu_cg_cr_rs1_imm_edges_rs1val_0x2_immval_0x3
0000a304 l       .data	00000000 I_sltiu_cg_cr_rs1_imm_edges_rs1val_0x2_immval_0x3_str
00001160 l       .text.rvtest	00000000 I_sltiu_cg_cr_rs1_imm_edges_rs1val_0x2_immval_0x4
0000a353 l       .data	00000000 I_sltiu_cg_cr_rs1_imm_edges_rs1val_0x2_immval_0x4_str
00001184 l       .text.rvtest	00000000 I_sltiu_cg_cr_rs1_imm_edges_rs1val_0x2_immval_0x8
0000a3a2 l       .data	00000000 I_sltiu_cg_cr_rs1_imm_edges_rs1val_0x2_immval_0x8_str
000011a8 l       .text.rvtest	00000000 I_sltiu_cg_cr_rs1_imm_edges_rs1val_0x2_immval_0x10
0000a3f1 l       .data	00000000 I_sltiu_cg_cr_rs1_imm_edges_rs1val_0x2_immval_0x10_str
000011cc l       .text.rvtest	00000000 I_sltiu_cg_cr_rs1_imm_edges_rs1val_0x2_immval_0x20
0000a441 l       .data	00000000 I_sltiu_cg_cr_rs1_imm_edges_rs1val_0x2_immval_0x20_str
000011f0 l       .text.rvtest	00000000 I_sltiu_cg_cr_rs1_imm_edges_rs1val_0x2_immval_0x40
0000a491 l       .data	00000000 I_sltiu_cg_cr_rs1_imm_edges_rs1val_0x2_immval_0x40_str
00001214 l       .text.rvtest	00000000 I_sltiu_cg_cr_rs1_imm_edges_rs1val_0x2_immval_0x80
0000a4e1 l       .data	00000000 I_sltiu_cg_cr_rs1_imm_edges_rs1val_0x2_immval_0x80_str
00001238 l       .text.rvtest	00000000 I_sltiu_cg_cr_rs1_imm_edges_rs1val_0x2_immval_0x100
0000a531 l       .data	00000000 I_sltiu_cg_cr_rs1_imm_edges_rs1val_0x2_immval_0x100_str
0000125c l       .text.rvtest	00000000 I_sltiu_cg_cr_rs1_imm_edges_rs1val_0x2_immval_0x200
0000a582 l       .data	00000000 I_sltiu_cg_cr_rs1_imm_edges_rs1val_0x2_immval_0x200_str
00001280 l       .text.rvtest	00000000 I_sltiu_cg_cr_rs1_imm_edges_rs1val_0x2_immval_0x3ff
0000a5d3 l       .data	00000000 I_sltiu_cg_cr_rs1_imm_edges_rs1val_0x2_immval_0x3ff_str
000012a4 l       .text.rvtest	00000000 I_sltiu_cg_cr_rs1_imm_edges_rs1val_0x2_immval_0x400
0000a624 l       .data	00000000 I_sltiu_cg_cr_rs1_imm_edges_rs1val_0x2_immval_0x400_str
000012c8 l       .text.rvtest	00000000 I_sltiu_cg_cr_rs1_imm_edges_rs1val_0x2_immval_0x703
0000a675 l       .data	00000000 I_sltiu_cg_cr_rs1_imm_edges_rs1val_0x2_immval_0x703_str
000012ec l       .text.rvtest	00000000 I_sltiu_cg_cr_rs1_imm_edges_rs1val_0x2_immval_0x7ff
0000a6c6 l       .data	00000000 I_sltiu_cg_cr_rs1_imm_edges_rs1val_0x2_immval_0x7ff_str
00001310 l       .text.rvtest	00000000 I_sltiu_cg_cr_rs1_imm_edges_rs1val_0x2_immval_m0x800
0000a717 l       .data	00000000 I_sltiu_cg_cr_rs1_imm_edges_rs1val_0x2_immval_m0x800_str
00001334 l       .text.rvtest	00000000 I_sltiu_cg_cr_rs1_imm_edges_rs1val_0x2_immval_m0x7ff
0000a769 l       .data	00000000 I_sltiu_cg_cr_rs1_imm_edges_rs1val_0x2_immval_m0x7ff_str
00001358 l       .text.rvtest	00000000 I_sltiu_cg_cr_rs1_imm_edges_rs1val_0x2_immval_m0x2
0000a7bb l       .data	00000000 I_sltiu_cg_cr_rs1_imm_edges_rs1val_0x2_immval_m0x2_str
0000137c l       .text.rvtest	00000000 I_sltiu_cg_cr_rs1_imm_edges_rs1val_0x2_immval_m0x1
0000a80b l       .data	00000000 I_sltiu_cg_cr_rs1_imm_edges_rs1val_0x2_immval_m0x1_str
000013a0 l       .text.rvtest	00000000 I_sltiu_cg_cr_rs1_imm_edges_rs1val_0x80000000_immval_0x0
0000a85b l       .data	00000000 I_sltiu_cg_cr_rs1_imm_edges_rs1val_0x80000000_immval_0x0_str
000013c4 l       .text.rvtest	00000000 I_sltiu_cg_cr_rs1_imm_edges_rs1val_0x80000000_immval_0x1
0000a8b1 l       .data	00000000 I_sltiu_cg_cr_rs1_imm_edges_rs1val_0x80000000_immval_0x1_str
000013e8 l       .text.rvtest	00000000 I_sltiu_cg_cr_rs1_imm_edges_rs1val_0x80000000_immval_0x2
0000a907 l       .data	00000000 I_sltiu_cg_cr_rs1_imm_edges_rs1val_0x80000000_immval_0x2_str
0000140c l       .text.rvtest	00000000 I_sltiu_cg_cr_rs1_imm_edges_rs1val_0x80000000_immval_0x3
0000a95d l       .data	00000000 I_sltiu_cg_cr_rs1_imm_edges_rs1val_0x80000000_immval_0x3_str
00001430 l       .text.rvtest	00000000 I_sltiu_cg_cr_rs1_imm_edges_rs1val_0x80000000_immval_0x4
0000a9b3 l       .data	00000000 I_sltiu_cg_cr_rs1_imm_edges_rs1val_0x80000000_immval_0x4_str
00001454 l       .text.rvtest	00000000 I_sltiu_cg_cr_rs1_imm_edges_rs1val_0x80000000_immval_0x8
0000aa09 l       .data	00000000 I_sltiu_cg_cr_rs1_imm_edges_rs1val_0x80000000_immval_0x8_str
00001478 l       .text.rvtest	00000000 I_sltiu_cg_cr_rs1_imm_edges_rs1val_0x80000000_immval_0x10
0000aa5f l       .data	00000000 I_sltiu_cg_cr_rs1_imm_edges_rs1val_0x80000000_immval_0x10_str
0000149c l       .text.rvtest	00000000 I_sltiu_cg_cr_rs1_imm_edges_rs1val_0x80000000_immval_0x20
0000aab6 l       .data	00000000 I_sltiu_cg_cr_rs1_imm_edges_rs1val_0x80000000_immval_0x20_str
000014c0 l       .text.rvtest	00000000 I_sltiu_cg_cr_rs1_imm_edges_rs1val_0x80000000_immval_0x40
0000ab0d l       .data	00000000 I_sltiu_cg_cr_rs1_imm_edges_rs1val_0x80000000_immval_0x40_str
000014e4 l       .text.rvtest	00000000 I_sltiu_cg_cr_rs1_imm_edges_rs1val_0x80000000_immval_0x80
0000ab64 l       .data	00000000 I_sltiu_cg_cr_rs1_imm_edges_rs1val_0x80000000_immval_0x80_str
00001508 l       .text.rvtest	00000000 I_sltiu_cg_cr_rs1_imm_edges_rs1val_0x80000000_immval_0x100
0000abbb l       .data	00000000 I_sltiu_cg_cr_rs1_imm_edges_rs1val_0x80000000_immval_0x100_str
0000152c l       .text.rvtest	00000000 I_sltiu_cg_cr_rs1_imm_edges_rs1val_0x80000000_immval_0x200
0000ac13 l       .data	00000000 I_sltiu_cg_cr_rs1_imm_edges_rs1val_0x80000000_immval_0x200_str
00001550 l       .text.rvtest	00000000 I_sltiu_cg_cr_rs1_imm_edges_rs1val_0x80000000_immval_0x3ff
0000ac6b l       .data	00000000 I_sltiu_cg_cr_rs1_imm_edges_rs1val_0x80000000_immval_0x3ff_str
00001574 l       .text.rvtest	00000000 I_sltiu_cg_cr_rs1_imm_edges_rs1val_0x80000000_immval_0x400
0000acc3 l       .data	00000000 I_sltiu_cg_cr_rs1_imm_edges_rs1val_0x80000000_immval_0x400_str
00001598 l       .text.rvtest	00000000 I_sltiu_cg_cr_rs1_imm_edges_rs1val_0x80000000_immval_0x703
0000ad1b l       .data	00000000 I_sltiu_cg_cr_rs1_imm_edges_rs1val_0x80000000_immval_0x703_str
000015bc l       .text.rvtest	00000000 I_sltiu_cg_cr_rs1_imm_edges_rs1val_0x80000000_immval_0x7ff
0000ad73 l       .data	00000000 I_sltiu_cg_cr_rs1_imm_edges_rs1val_0x80000000_immval_0x7ff_str
000015e0 l       .text.rvtest	00000000 I_sltiu_cg_cr_rs1_imm_edges_rs1val_0x80000000_immval_m0x800
0000adcb l       .data	00000000 I_sltiu_cg_cr_rs1_imm_edges_rs1val_0x80000000_immval_m0x800_str
00001604 l       .text.rvtest	00000000 I_sltiu_cg_cr_rs1_imm_edges_rs1val_0x80000000_immval_m0x7ff
0000ae24 l       .data	00000000 I_sltiu_cg_cr_rs1_imm_edges_rs1val_0x80000000_immval_m0x7ff_str
00001628 l       .text.rvtest	00000000 I_sltiu_cg_cr_rs1_imm_edges_rs1val_0x80000000_immval_m0x2
0000ae7d l       .data	00000000 I_sltiu_cg_cr_rs1_imm_edges_rs1val_0x80000000_immval_m0x2_str
0000164c l       .text.rvtest	00000000 I_sltiu_cg_cr_rs1_imm_edges_rs1val_0x80000000_immval_m0x1
0000aed4 l       .data	00000000 I_sltiu_cg_cr_rs1_imm_edges_rs1val_0x80000000_immval_m0x1_str
00001670 l       .text.rvtest	00000000 I_sltiu_cg_cr_rs1_imm_edges_rs1val_0x80000001_immval_0x0
0000af2b l       .data	00000000 I_sltiu_cg_cr_rs1_imm_edges_rs1val_0x80000001_immval_0x0_str
00001694 l       .text.rvtest	00000000 I_sltiu_cg_cr_rs1_imm_edges_rs1val_0x80000001_immval_0x1
0000af81 l       .data	00000000 I_sltiu_cg_cr_rs1_imm_edges_rs1val_0x80000001_immval_0x1_str
000016b8 l       .text.rvtest	00000000 I_sltiu_cg_cr_rs1_imm_edges_rs1val_0x80000001_immval_0x2
0000afd7 l       .data	00000000 I_sltiu_cg_cr_rs1_imm_edges_rs1val_0x80000001_immval_0x2_str
000016dc l       .text.rvtest	00000000 I_sltiu_cg_cr_rs1_imm_edges_rs1val_0x80000001_immval_0x3
0000b02d l       .data	00000000 I_sltiu_cg_cr_rs1_imm_edges_rs1val_0x80000001_immval_0x3_str
00001700 l       .text.rvtest	00000000 I_sltiu_cg_cr_rs1_imm_edges_rs1val_0x80000001_immval_0x4
0000b083 l       .data	00000000 I_sltiu_cg_cr_rs1_imm_edges_rs1val_0x80000001_immval_0x4_str
00001724 l       .text.rvtest	00000000 I_sltiu_cg_cr_rs1_imm_edges_rs1val_0x80000001_immval_0x8
0000b0d9 l       .data	00000000 I_sltiu_cg_cr_rs1_imm_edges_rs1val_0x80000001_immval_0x8_str
00001748 l       .text.rvtest	00000000 I_sltiu_cg_cr_rs1_imm_edges_rs1val_0x80000001_immval_0x10
0000b12f l       .data	00000000 I_sltiu_cg_cr_rs1_imm_edges_rs1val_0x80000001_immval_0x10_str
0000176c l       .text.rvtest	00000000 I_sltiu_cg_cr_rs1_imm_edges_rs1val_0x80000001_immval_0x20
0000b186 l       .data	00000000 I_sltiu_cg_cr_rs1_imm_edges_rs1val_0x80000001_immval_0x20_str
00001790 l       .text.rvtest	00000000 I_sltiu_cg_cr_rs1_imm_edges_rs1val_0x80000001_immval_0x40
0000b1dd l       .data	00000000 I_sltiu_cg_cr_rs1_imm_edges_rs1val_0x80000001_immval_0x40_str
000017b4 l       .text.rvtest	00000000 I_sltiu_cg_cr_rs1_imm_edges_rs1val_0x80000001_immval_0x80
0000b234 l       .data	00000000 I_sltiu_cg_cr_rs1_imm_edges_rs1val_0x80000001_immval_0x80_str
000017d8 l       .text.rvtest	00000000 I_sltiu_cg_cr_rs1_imm_edges_rs1val_0x80000001_immval_0x100
0000b28b l       .data	00000000 I_sltiu_cg_cr_rs1_imm_edges_rs1val_0x80000001_immval_0x100_str
000017fc l       .text.rvtest	00000000 I_sltiu_cg_cr_rs1_imm_edges_rs1val_0x80000001_immval_0x200
0000b2e3 l       .data	00000000 I_sltiu_cg_cr_rs1_imm_edges_rs1val_0x80000001_immval_0x200_str
00001820 l       .text.rvtest	00000000 I_sltiu_cg_cr_rs1_imm_edges_rs1val_0x80000001_immval_0x3ff
0000b33b l       .data	00000000 I_sltiu_cg_cr_rs1_imm_edges_rs1val_0x80000001_immval_0x3ff_str
00001844 l       .text.rvtest	00000000 I_sltiu_cg_cr_rs1_imm_edges_rs1val_0x80000001_immval_0x400
0000b393 l       .data	00000000 I_sltiu_cg_cr_rs1_imm_edges_rs1val_0x80000001_immval_0x400_str
00001868 l       .text.rvtest	00000000 I_sltiu_cg_cr_rs1_imm_edges_rs1val_0x80000001_immval_0x703
0000b3eb l       .data	00000000 I_sltiu_cg_cr_rs1_imm_edges_rs1val_0x80000001_immval_0x703_str
0000188c l       .text.rvtest	00000000 I_sltiu_cg_cr_rs1_imm_edges_rs1val_0x80000001_immval_0x7ff
0000b443 l       .data	00000000 I_sltiu_cg_cr_rs1_imm_edges_rs1val_0x80000001_immval_0x7ff_str
000018b0 l       .text.rvtest	00000000 I_sltiu_cg_cr_rs1_imm_edges_rs1val_0x80000001_immval_m0x800
0000b49b l       .data	00000000 I_sltiu_cg_cr_rs1_imm_edges_rs1val_0x80000001_immval_m0x800_str
000018d4 l       .text.rvtest	00000000 I_sltiu_cg_cr_rs1_imm_edges_rs1val_0x80000001_immval_m0x7ff
0000b4f4 l       .data	00000000 I_sltiu_cg_cr_rs1_imm_edges_rs1val_0x80000001_immval_m0x7ff_str
000018f8 l       .text.rvtest	00000000 I_sltiu_cg_cr_rs1_imm_edges_rs1val_0x80000001_immval_m0x2
0000b54d l       .data	00000000 I_sltiu_cg_cr_rs1_imm_edges_rs1val_0x80000001_immval_m0x2_str
0000191c l       .text.rvtest	00000000 I_sltiu_cg_cr_rs1_imm_edges_rs1val_0x80000001_immval_m0x1
0000b5a4 l       .data	00000000 I_sltiu_cg_cr_rs1_imm_edges_rs1val_0x80000001_immval_m0x1_str
00001940 l       .text.rvtest	00000000 I_sltiu_cg_cr_rs1_imm_edges_rs1val_0x7fffffff_immval_0x0
0000b5fb l       .data	00000000 I_sltiu_cg_cr_rs1_imm_edges_rs1val_0x7fffffff_immval_0x0_str
00001964 l       .text.rvtest	00000000 I_sltiu_cg_cr_rs1_imm_edges_rs1val_0x7fffffff_immval_0x1
0000b651 l       .data	00000000 I_sltiu_cg_cr_rs1_imm_edges_rs1val_0x7fffffff_immval_0x1_str
00001988 l       .text.rvtest	00000000 I_sltiu_cg_cr_rs1_imm_edges_rs1val_0x7fffffff_immval_0x2
0000b6a7 l       .data	00000000 I_sltiu_cg_cr_rs1_imm_edges_rs1val_0x7fffffff_immval_0x2_str
000019ac l       .text.rvtest	00000000 I_sltiu_cg_cr_rs1_imm_edges_rs1val_0x7fffffff_immval_0x3
0000b6fd l       .data	00000000 I_sltiu_cg_cr_rs1_imm_edges_rs1val_0x7fffffff_immval_0x3_str
000019d0 l       .text.rvtest	00000000 I_sltiu_cg_cr_rs1_imm_edges_rs1val_0x7fffffff_immval_0x4
0000b753 l       .data	00000000 I_sltiu_cg_cr_rs1_imm_edges_rs1val_0x7fffffff_immval_0x4_str
000019f4 l       .text.rvtest	00000000 I_sltiu_cg_cr_rs1_imm_edges_rs1val_0x7fffffff_immval_0x8
0000b7a9 l       .data	00000000 I_sltiu_cg_cr_rs1_imm_edges_rs1val_0x7fffffff_immval_0x8_str
00001a18 l       .text.rvtest	00000000 I_sltiu_cg_cr_rs1_imm_edges_rs1val_0x7fffffff_immval_0x10
0000b7ff l       .data	00000000 I_sltiu_cg_cr_rs1_imm_edges_rs1val_0x7fffffff_immval_0x10_str
00001a3c l       .text.rvtest	00000000 I_sltiu_cg_cr_rs1_imm_edges_rs1val_0x7fffffff_immval_0x20
0000b856 l       .data	00000000 I_sltiu_cg_cr_rs1_imm_edges_rs1val_0x7fffffff_immval_0x20_str
00001a60 l       .text.rvtest	00000000 I_sltiu_cg_cr_rs1_imm_edges_rs1val_0x7fffffff_immval_0x40
0000b8ad l       .data	00000000 I_sltiu_cg_cr_rs1_imm_edges_rs1val_0x7fffffff_immval_0x40_str
00001a84 l       .text.rvtest	00000000 I_sltiu_cg_cr_rs1_imm_edges_rs1val_0x7fffffff_immval_0x80
0000b904 l       .data	00000000 I_sltiu_cg_cr_rs1_imm_edges_rs1val_0x7fffffff_immval_0x80_str
00001aa8 l       .text.rvtest	00000000 I_sltiu_cg_cr_rs1_imm_edges_rs1val_0x7fffffff_immval_0x100
0000b95b l       .data	00000000 I_sltiu_cg_cr_rs1_imm_edges_rs1val_0x7fffffff_immval_0x100_str
00001acc l       .text.rvtest	00000000 I_sltiu_cg_cr_rs1_imm_edges_rs1val_0x7fffffff_immval_0x200
0000b9b3 l       .data	00000000 I_sltiu_cg_cr_rs1_imm_edges_rs1val_0x7fffffff_immval_0x200_str
00001af0 l       .text.rvtest	00000000 I_sltiu_cg_cr_rs1_imm_edges_rs1val_0x7fffffff_immval_0x3ff
0000ba0b l       .data	00000000 I_sltiu_cg_cr_rs1_imm_edges_rs1val_0x7fffffff_immval_0x3ff_str
00001b14 l       .text.rvtest	00000000 I_sltiu_cg_cr_rs1_imm_edges_rs1val_0x7fffffff_immval_0x400
0000ba63 l       .data	00000000 I_sltiu_cg_cr_rs1_imm_edges_rs1val_0x7fffffff_immval_0x400_str
00001b38 l       .text.rvtest	00000000 I_sltiu_cg_cr_rs1_imm_edges_rs1val_0x7fffffff_immval_0x703
0000babb l       .data	00000000 I_sltiu_cg_cr_rs1_imm_edges_rs1val_0x7fffffff_immval_0x703_str
00001b5c l       .text.rvtest	00000000 I_sltiu_cg_cr_rs1_imm_edges_rs1val_0x7fffffff_immval_0x7ff
0000bb13 l       .data	00000000 I_sltiu_cg_cr_rs1_imm_edges_rs1val_0x7fffffff_immval_0x7ff_str
00001b80 l       .text.rvtest	00000000 I_sltiu_cg_cr_rs1_imm_edges_rs1val_0x7fffffff_immval_m0x800
0000bb6b l       .data	00000000 I_sltiu_cg_cr_rs1_imm_edges_rs1val_0x7fffffff_immval_m0x800_str
00001ba4 l       .text.rvtest	00000000 I_sltiu_cg_cr_rs1_imm_edges_rs1val_0x7fffffff_immval_m0x7ff
0000bbc4 l       .data	00000000 I_sltiu_cg_cr_rs1_imm_edges_rs1val_0x7fffffff_immval_m0x7ff_str
00001bc8 l       .text.rvtest	00000000 I_sltiu_cg_cr_rs1_imm_edges_rs1val_0x7fffffff_immval_m0x2
0000bc1d l       .data	00000000 I_sltiu_cg_cr_rs1_imm_edges_rs1val_0x7fffffff_immval_m0x2_str
00001bec l       .text.rvtest	00000000 I_sltiu_cg_cr_rs1_imm_edges_rs1val_0x7fffffff_immval_m0x1
0000bc74 l       .data	00000000 I_sltiu_cg_cr_rs1_imm_edges_rs1val_0x7fffffff_immval_m0x1_str
00001c10 l       .text.rvtest	00000000 I_sltiu_cg_cr_rs1_imm_edges_rs1val_0x7ffffffe_immval_0x0
0000bccb l       .data	00000000 I_sltiu_cg_cr_rs1_imm_edges_rs1val_0x7ffffffe_immval_0x0_str
00001c34 l       .text.rvtest	00000000 I_sltiu_cg_cr_rs1_imm_edges_rs1val_0x7ffffffe_immval_0x1
0000bd21 l       .data	00000000 I_sltiu_cg_cr_rs1_imm_edges_rs1val_0x7ffffffe_immval_0x1_str
00001c58 l       .text.rvtest	00000000 I_sltiu_cg_cr_rs1_imm_edges_rs1val_0x7ffffffe_immval_0x2
0000bd77 l       .data	00000000 I_sltiu_cg_cr_rs1_imm_edges_rs1val_0x7ffffffe_immval_0x2_str
00001c7c l       .text.rvtest	00000000 I_sltiu_cg_cr_rs1_imm_edges_rs1val_0x7ffffffe_immval_0x3
0000bdcd l       .data	00000000 I_sltiu_cg_cr_rs1_imm_edges_rs1val_0x7ffffffe_immval_0x3_str
00001ca0 l       .text.rvtest	00000000 I_sltiu_cg_cr_rs1_imm_edges_rs1val_0x7ffffffe_immval_0x4
0000be23 l       .data	00000000 I_sltiu_cg_cr_rs1_imm_edges_rs1val_0x7ffffffe_immval_0x4_str
00001cc4 l       .text.rvtest	00000000 I_sltiu_cg_cr_rs1_imm_edges_rs1val_0x7ffffffe_immval_0x8
0000be79 l       .data	00000000 I_sltiu_cg_cr_rs1_imm_edges_rs1val_0x7ffffffe_immval_0x8_str
00001ce8 l       .text.rvtest	00000000 I_sltiu_cg_cr_rs1_imm_edges_rs1val_0x7ffffffe_immval_0x10
0000becf l       .data	00000000 I_sltiu_cg_cr_rs1_imm_edges_rs1val_0x7ffffffe_immval_0x10_str
00001d0c l       .text.rvtest	00000000 I_sltiu_cg_cr_rs1_imm_edges_rs1val_0x7ffffffe_immval_0x20
0000bf26 l       .data	00000000 I_sltiu_cg_cr_rs1_imm_edges_rs1val_0x7ffffffe_immval_0x20_str
00001d30 l       .text.rvtest	00000000 I_sltiu_cg_cr_rs1_imm_edges_rs1val_0x7ffffffe_immval_0x40
0000bf7d l       .data	00000000 I_sltiu_cg_cr_rs1_imm_edges_rs1val_0x7ffffffe_immval_0x40_str
00001d54 l       .text.rvtest	00000000 I_sltiu_cg_cr_rs1_imm_edges_rs1val_0x7ffffffe_immval_0x80
0000bfd4 l       .data	00000000 I_sltiu_cg_cr_rs1_imm_edges_rs1val_0x7ffffffe_immval_0x80_str
00001d78 l       .text.rvtest	00000000 I_sltiu_cg_cr_rs1_imm_edges_rs1val_0x7ffffffe_immval_0x100
0000c02b l       .data	00000000 I_sltiu_cg_cr_rs1_imm_edges_rs1val_0x7ffffffe_immval_0x100_str
00001d9c l       .text.rvtest	00000000 I_sltiu_cg_cr_rs1_imm_edges_rs1val_0x7ffffffe_immval_0x200
0000c083 l       .data	00000000 I_sltiu_cg_cr_rs1_imm_edges_rs1val_0x7ffffffe_immval_0x200_str
00001dc0 l       .text.rvtest	00000000 I_sltiu_cg_cr_rs1_imm_edges_rs1val_0x7ffffffe_immval_0x3ff
0000c0db l       .data	00000000 I_sltiu_cg_cr_rs1_imm_edges_rs1val_0x7ffffffe_immval_0x3ff_str
00001de4 l       .text.rvtest	00000000 I_sltiu_cg_cr_rs1_imm_edges_rs1val_0x7ffffffe_immval_0x400
0000c133 l       .data	00000000 I_sltiu_cg_cr_rs1_imm_edges_rs1val_0x7ffffffe_immval_0x400_str
00001e08 l       .text.rvtest	00000000 I_sltiu_cg_cr_rs1_imm_edges_rs1val_0x7ffffffe_immval_0x703
0000c18b l       .data	00000000 I_sltiu_cg_cr_rs1_imm_edges_rs1val_0x7ffffffe_immval_0x703_str
00001e2c l       .text.rvtest	00000000 I_sltiu_cg_cr_rs1_imm_edges_rs1val_0x7ffffffe_immval_0x7ff
0000c1e3 l       .data	00000000 I_sltiu_cg_cr_rs1_imm_edges_rs1val_0x7ffffffe_immval_0x7ff_str
00001e50 l       .text.rvtest	00000000 I_sltiu_cg_cr_rs1_imm_edges_rs1val_0x7ffffffe_immval_m0x800
0000c23b l       .data	00000000 I_sltiu_cg_cr_rs1_imm_edges_rs1val_0x7ffffffe_immval_m0x800_str
00001e74 l       .text.rvtest	00000000 I_sltiu_cg_cr_rs1_imm_edges_rs1val_0x7ffffffe_immval_m0x7ff
0000c294 l       .data	00000000 I_sltiu_cg_cr_rs1_imm_edges_rs1val_0x7ffffffe_immval_m0x7ff_str
00001e98 l       .text.rvtest	00000000 I_sltiu_cg_cr_rs1_imm_edges_rs1val_0x7ffffffe_immval_m0x2
0000c2ed l       .data	00000000 I_sltiu_cg_cr_rs1_imm_edges_rs1val_0x7ffffffe_immval_m0x2_str
00001ebc l       .text.rvtest	00000000 I_sltiu_cg_cr_rs1_imm_edges_rs1val_0x7ffffffe_immval_m0x1
0000c344 l       .data	00000000 I_sltiu_cg_cr_rs1_imm_edges_rs1val_0x7ffffffe_immval_m0x1_str
00001ee0 l       .text.rvtest	00000000 I_sltiu_cg_cr_rs1_imm_edges_rs1val_0xffffffff_immval_0x0
0000c39b l       .data	00000000 I_sltiu_cg_cr_rs1_imm_edges_rs1val_0xffffffff_immval_0x0_str
00001f04 l       .text.rvtest	00000000 I_sltiu_cg_cr_rs1_imm_edges_rs1val_0xffffffff_immval_0x1
0000c3f1 l       .data	00000000 I_sltiu_cg_cr_rs1_imm_edges_rs1val_0xffffffff_immval_0x1_str
00001f28 l       .text.rvtest	00000000 I_sltiu_cg_cr_rs1_imm_edges_rs1val_0xffffffff_immval_0x2
0000c447 l       .data	00000000 I_sltiu_cg_cr_rs1_imm_edges_rs1val_0xffffffff_immval_0x2_str
00001f4c l       .text.rvtest	00000000 I_sltiu_cg_cr_rs1_imm_edges_rs1val_0xffffffff_immval_0x3
0000c49d l       .data	00000000 I_sltiu_cg_cr_rs1_imm_edges_rs1val_0xffffffff_immval_0x3_str
00001f70 l       .text.rvtest	00000000 I_sltiu_cg_cr_rs1_imm_edges_rs1val_0xffffffff_immval_0x4
0000c4f3 l       .data	00000000 I_sltiu_cg_cr_rs1_imm_edges_rs1val_0xffffffff_immval_0x4_str
00001f94 l       .text.rvtest	00000000 I_sltiu_cg_cr_rs1_imm_edges_rs1val_0xffffffff_immval_0x8
0000c549 l       .data	00000000 I_sltiu_cg_cr_rs1_imm_edges_rs1val_0xffffffff_immval_0x8_str
00001fb8 l       .text.rvtest	00000000 I_sltiu_cg_cr_rs1_imm_edges_rs1val_0xffffffff_immval_0x10
0000c59f l       .data	00000000 I_sltiu_cg_cr_rs1_imm_edges_rs1val_0xffffffff_immval_0x10_str
00001fdc l       .text.rvtest	00000000 I_sltiu_cg_cr_rs1_imm_edges_rs1val_0xffffffff_immval_0x20
0000c5f6 l       .data	00000000 I_sltiu_cg_cr_rs1_imm_edges_rs1val_0xffffffff_immval_0x20_str
00002000 l       .text.rvtest	00000000 I_sltiu_cg_cr_rs1_imm_edges_rs1val_0xffffffff_immval_0x40
0000c64d l       .data	00000000 I_sltiu_cg_cr_rs1_imm_edges_rs1val_0xffffffff_immval_0x40_str
00002024 l       .text.rvtest	00000000 I_sltiu_cg_cr_rs1_imm_edges_rs1val_0xffffffff_immval_0x80
0000c6a4 l       .data	00000000 I_sltiu_cg_cr_rs1_imm_edges_rs1val_0xffffffff_immval_0x80_str
00002048 l       .text.rvtest	00000000 I_sltiu_cg_cr_rs1_imm_edges_rs1val_0xffffffff_immval_0x100
0000c6fb l       .data	00000000 I_sltiu_cg_cr_rs1_imm_edges_rs1val_0xffffffff_immval_0x100_str
0000206c l       .text.rvtest	00000000 I_sltiu_cg_cr_rs1_imm_edges_rs1val_0xffffffff_immval_0x200
0000c753 l       .data	00000000 I_sltiu_cg_cr_rs1_imm_edges_rs1val_0xffffffff_immval_0x200_str
00002090 l       .text.rvtest	00000000 I_sltiu_cg_cr_rs1_imm_edges_rs1val_0xffffffff_immval_0x3ff
0000c7ab l       .data	00000000 I_sltiu_cg_cr_rs1_imm_edges_rs1val_0xffffffff_immval_0x3ff_str
000020b4 l       .text.rvtest	00000000 I_sltiu_cg_cr_rs1_imm_edges_rs1val_0xffffffff_immval_0x400
0000c803 l       .data	00000000 I_sltiu_cg_cr_rs1_imm_edges_rs1val_0xffffffff_immval_0x400_str
000020d8 l       .text.rvtest	00000000 I_sltiu_cg_cr_rs1_imm_edges_rs1val_0xffffffff_immval_0x703
0000c85b l       .data	00000000 I_sltiu_cg_cr_rs1_imm_edges_rs1val_0xffffffff_immval_0x703_str
000020fc l       .text.rvtest	00000000 I_sltiu_cg_cr_rs1_imm_edges_rs1val_0xffffffff_immval_0x7ff
0000c8b3 l       .data	00000000 I_sltiu_cg_cr_rs1_imm_edges_rs1val_0xffffffff_immval_0x7ff_str
00002120 l       .text.rvtest	00000000 I_sltiu_cg_cr_rs1_imm_edges_rs1val_0xffffffff_immval_m0x800
0000c90b l       .data	00000000 I_sltiu_cg_cr_rs1_imm_edges_rs1val_0xffffffff_immval_m0x800_str
00002144 l       .text.rvtest	00000000 I_sltiu_cg_cr_rs1_imm_edges_rs1val_0xffffffff_immval_m0x7ff
0000c964 l       .data	00000000 I_sltiu_cg_cr_rs1_imm_edges_rs1val_0xffffffff_immval_m0x7ff_str
00002168 l       .text.rvtest	00000000 I_sltiu_cg_cr_rs1_imm_edges_rs1val_0xffffffff_immval_m0x2
0000c9bd l       .data	00000000 I_sltiu_cg_cr_rs1_imm_edges_rs1val_0xffffffff_immval_m0x2_str
0000218c l       .text.rvtest	00000000 I_sltiu_cg_cr_rs1_imm_edges_rs1val_0xffffffff_immval_m0x1
0000ca14 l       .data	00000000 I_sltiu_cg_cr_rs1_imm_edges_rs1val_0xffffffff_immval_m0x1_str
000021b0 l       .text.rvtest	00000000 I_sltiu_cg_cr_rs1_imm_edges_rs1val_0xfffffffe_immval_0x0
0000ca6b l       .data	00000000 I_sltiu_cg_cr_rs1_imm_edges_rs1val_0xfffffffe_immval_0x0_str
000021d4 l       .text.rvtest	00000000 I_sltiu_cg_cr_rs1_imm_edges_rs1val_0xfffffffe_immval_0x1
0000cac1 l       .data	00000000 I_sltiu_cg_cr_rs1_imm_edges_rs1val_0xfffffffe_immval_0x1_str
000021f8 l       .text.rvtest	00000000 I_sltiu_cg_cr_rs1_imm_edges_rs1val_0xfffffffe_immval_0x2
0000cb17 l       .data	00000000 I_sltiu_cg_cr_rs1_imm_edges_rs1val_0xfffffffe_immval_0x2_str
0000221c l       .text.rvtest	00000000 I_sltiu_cg_cr_rs1_imm_edges_rs1val_0xfffffffe_immval_0x3
0000cb6d l       .data	00000000 I_sltiu_cg_cr_rs1_imm_edges_rs1val_0xfffffffe_immval_0x3_str
00002240 l       .text.rvtest	00000000 I_sltiu_cg_cr_rs1_imm_edges_rs1val_0xfffffffe_immval_0x4
0000cbc3 l       .data	00000000 I_sltiu_cg_cr_rs1_imm_edges_rs1val_0xfffffffe_immval_0x4_str
00002264 l       .text.rvtest	00000000 I_sltiu_cg_cr_rs1_imm_edges_rs1val_0xfffffffe_immval_0x8
0000cc19 l       .data	00000000 I_sltiu_cg_cr_rs1_imm_edges_rs1val_0xfffffffe_immval_0x8_str
00002288 l       .text.rvtest	00000000 I_sltiu_cg_cr_rs1_imm_edges_rs1val_0xfffffffe_immval_0x10
0000cc6f l       .data	00000000 I_sltiu_cg_cr_rs1_imm_edges_rs1val_0xfffffffe_immval_0x10_str
000022ac l       .text.rvtest	00000000 I_sltiu_cg_cr_rs1_imm_edges_rs1val_0xfffffffe_immval_0x20
0000ccc6 l       .data	00000000 I_sltiu_cg_cr_rs1_imm_edges_rs1val_0xfffffffe_immval_0x20_str
000022d0 l       .text.rvtest	00000000 I_sltiu_cg_cr_rs1_imm_edges_rs1val_0xfffffffe_immval_0x40
0000cd1d l       .data	00000000 I_sltiu_cg_cr_rs1_imm_edges_rs1val_0xfffffffe_immval_0x40_str
000022f4 l       .text.rvtest	00000000 I_sltiu_cg_cr_rs1_imm_edges_rs1val_0xfffffffe_immval_0x80
0000cd74 l       .data	00000000 I_sltiu_cg_cr_rs1_imm_edges_rs1val_0xfffffffe_immval_0x80_str
00002318 l       .text.rvtest	00000000 I_sltiu_cg_cr_rs1_imm_edges_rs1val_0xfffffffe_immval_0x100
0000cdcb l       .data	00000000 I_sltiu_cg_cr_rs1_imm_edges_rs1val_0xfffffffe_immval_0x100_str
0000233c l       .text.rvtest	00000000 I_sltiu_cg_cr_rs1_imm_edges_rs1val_0xfffffffe_immval_0x200
0000ce23 l       .data	00000000 I_sltiu_cg_cr_rs1_imm_edges_rs1val_0xfffffffe_immval_0x200_str
00002360 l       .text.rvtest	00000000 I_sltiu_cg_cr_rs1_imm_edges_rs1val_0xfffffffe_immval_0x3ff
0000ce7b l       .data	00000000 I_sltiu_cg_cr_rs1_imm_edges_rs1val_0xfffffffe_immval_0x3ff_str
00002384 l       .text.rvtest	00000000 I_sltiu_cg_cr_rs1_imm_edges_rs1val_0xfffffffe_immval_0x400
0000ced3 l       .data	00000000 I_sltiu_cg_cr_rs1_imm_edges_rs1val_0xfffffffe_immval_0x400_str
000023a8 l       .text.rvtest	00000000 I_sltiu_cg_cr_rs1_imm_edges_rs1val_0xfffffffe_immval_0x703
0000cf2b l       .data	00000000 I_sltiu_cg_cr_rs1_imm_edges_rs1val_0xfffffffe_immval_0x703_str
000023cc l       .text.rvtest	00000000 I_sltiu_cg_cr_rs1_imm_edges_rs1val_0xfffffffe_immval_0x7ff
0000cf83 l       .data	00000000 I_sltiu_cg_cr_rs1_imm_edges_rs1val_0xfffffffe_immval_0x7ff_str
000023f0 l       .text.rvtest	00000000 I_sltiu_cg_cr_rs1_imm_edges_rs1val_0xfffffffe_immval_m0x800
0000cfdb l       .data	00000000 I_sltiu_cg_cr_rs1_imm_edges_rs1val_0xfffffffe_immval_m0x800_str
00002414 l       .text.rvtest	00000000 I_sltiu_cg_cr_rs1_imm_edges_rs1val_0xfffffffe_immval_m0x7ff
0000d034 l       .data	00000000 I_sltiu_cg_cr_rs1_imm_edges_rs1val_0xfffffffe_immval_m0x7ff_str
00002438 l       .text.rvtest	00000000 I_sltiu_cg_cr_rs1_imm_edges_rs1val_0xfffffffe_immval_m0x2
0000d08d l       .data	00000000 I_sltiu_cg_cr_rs1_imm_edges_rs1val_0xfffffffe_immval_m0x2_str
0000245c l       .text.rvtest	00000000 I_sltiu_cg_cr_rs1_imm_edges_rs1val_0xfffffffe_immval_m0x1
0000d0e4 l       .data	00000000 I_sltiu_cg_cr_rs1_imm_edges_rs1val_0xfffffffe_immval_m0x1_str
00002480 l       .text.rvtest	00000000 I_sltiu_cg_cr_rs1_imm_edges_rs1val_0x5bbc8872_immval_0x0
0000d13b l       .data	00000000 I_sltiu_cg_cr_rs1_imm_edges_rs1val_0x5bbc8872_immval_0x0_str
000024a4 l       .text.rvtest	00000000 I_sltiu_cg_cr_rs1_imm_edges_rs1val_0x5bbc8872_immval_0x1
0000d191 l       .data	00000000 I_sltiu_cg_cr_rs1_imm_edges_rs1val_0x5bbc8872_immval_0x1_str
000024c8 l       .text.rvtest	00000000 I_sltiu_cg_cr_rs1_imm_edges_rs1val_0x5bbc8872_immval_0x2
0000d1e7 l       .data	00000000 I_sltiu_cg_cr_rs1_imm_edges_rs1val_0x5bbc8872_immval_0x2_str
000024ec l       .text.rvtest	00000000 I_sltiu_cg_cr_rs1_imm_edges_rs1val_0x5bbc8872_immval_0x3
0000d23d l       .data	00000000 I_sltiu_cg_cr_rs1_imm_edges_rs1val_0x5bbc8872_immval_0x3_str
00002510 l       .text.rvtest	00000000 I_sltiu_cg_cr_rs1_imm_edges_rs1val_0x5bbc8872_immval_0x4
0000d293 l       .data	00000000 I_sltiu_cg_cr_rs1_imm_edges_rs1val_0x5bbc8872_immval_0x4_str
00002534 l       .text.rvtest	00000000 I_sltiu_cg_cr_rs1_imm_edges_rs1val_0x5bbc8872_immval_0x8
0000d2e9 l       .data	00000000 I_sltiu_cg_cr_rs1_imm_edges_rs1val_0x5bbc8872_immval_0x8_str
00002558 l       .text.rvtest	00000000 I_sltiu_cg_cr_rs1_imm_edges_rs1val_0x5bbc8872_immval_0x10
0000d33f l       .data	00000000 I_sltiu_cg_cr_rs1_imm_edges_rs1val_0x5bbc8872_immval_0x10_str
0000257c l       .text.rvtest	00000000 I_sltiu_cg_cr_rs1_imm_edges_rs1val_0x5bbc8872_immval_0x20
0000d396 l       .data	00000000 I_sltiu_cg_cr_rs1_imm_edges_rs1val_0x5bbc8872_immval_0x20_str
000025a0 l       .text.rvtest	00000000 I_sltiu_cg_cr_rs1_imm_edges_rs1val_0x5bbc8872_immval_0x40
0000d3ed l       .data	00000000 I_sltiu_cg_cr_rs1_imm_edges_rs1val_0x5bbc8872_immval_0x40_str
000025c4 l       .text.rvtest	00000000 I_sltiu_cg_cr_rs1_imm_edges_rs1val_0x5bbc8872_immval_0x80
0000d444 l       .data	00000000 I_sltiu_cg_cr_rs1_imm_edges_rs1val_0x5bbc8872_immval_0x80_str
000025e8 l       .text.rvtest	00000000 I_sltiu_cg_cr_rs1_imm_edges_rs1val_0x5bbc8872_immval_0x100
0000d49b l       .data	00000000 I_sltiu_cg_cr_rs1_imm_edges_rs1val_0x5bbc8872_immval_0x100_str
0000260c l       .text.rvtest	00000000 I_sltiu_cg_cr_rs1_imm_edges_rs1val_0x5bbc8872_immval_0x200
0000d4f3 l       .data	00000000 I_sltiu_cg_cr_rs1_imm_edges_rs1val_0x5bbc8872_immval_0x200_str
00002630 l       .text.rvtest	00000000 I_sltiu_cg_cr_rs1_imm_edges_rs1val_0x5bbc8872_immval_0x3ff
0000d54b l       .data	00000000 I_sltiu_cg_cr_rs1_imm_edges_rs1val_0x5bbc8872_immval_0x3ff_str
00002654 l       .text.rvtest	00000000 I_sltiu_cg_cr_rs1_imm_edges_rs1val_0x5bbc8872_immval_0x400
0000d5a3 l       .data	00000000 I_sltiu_cg_cr_rs1_imm_edges_rs1val_0x5bbc8872_immval_0x400_str
00002678 l       .text.rvtest	00000000 I_sltiu_cg_cr_rs1_imm_edges_rs1val_0x5bbc8872_immval_0x703
0000d5fb l       .data	00000000 I_sltiu_cg_cr_rs1_imm_edges_rs1val_0x5bbc8872_immval_0x703_str
0000269c l       .text.rvtest	00000000 I_sltiu_cg_cr_rs1_imm_edges_rs1val_0x5bbc8872_immval_0x7ff
0000d653 l       .data	00000000 I_sltiu_cg_cr_rs1_imm_edges_rs1val_0x5bbc8872_immval_0x7ff_str
000026c0 l       .text.rvtest	00000000 I_sltiu_cg_cr_rs1_imm_edges_rs1val_0x5bbc8872_immval_m0x800
0000d6ab l       .data	00000000 I_sltiu_cg_cr_rs1_imm_edges_rs1val_0x5bbc8872_immval_m0x800_str
000026e4 l       .text.rvtest	00000000 I_sltiu_cg_cr_rs1_imm_edges_rs1val_0x5bbc8872_immval_m0x7ff
0000d704 l       .data	00000000 I_sltiu_cg_cr_rs1_imm_edges_rs1val_0x5bbc8872_immval_m0x7ff_str
00002708 l       .text.rvtest	00000000 I_sltiu_cg_cr_rs1_imm_edges_rs1val_0x5bbc8872_immval_m0x2
0000d75d l       .data	00000000 I_sltiu_cg_cr_rs1_imm_edges_rs1val_0x5bbc8872_immval_m0x2_str
0000272c l       .text.rvtest	00000000 I_sltiu_cg_cr_rs1_imm_edges_rs1val_0x5bbc8872_immval_m0x1
0000d7b4 l       .data	00000000 I_sltiu_cg_cr_rs1_imm_edges_rs1val_0x5bbc8872_immval_m0x1_str
00002750 l       .text.rvtest	00000000 I_sltiu_cg_cr_rs1_imm_edges_rs1val_0xaaaaaaaa_immval_0x0
0000d80b l       .data	00000000 I_sltiu_cg_cr_rs1_imm_edges_rs1val_0xaaaaaaaa_immval_0x0_str
00002774 l       .text.rvtest	00000000 I_sltiu_cg_cr_rs1_imm_edges_rs1val_0xaaaaaaaa_immval_0x1
0000d861 l       .data	00000000 I_sltiu_cg_cr_rs1_imm_edges_rs1val_0xaaaaaaaa_immval_0x1_str
00002798 l       .text.rvtest	00000000 I_sltiu_cg_cr_rs1_imm_edges_rs1val_0xaaaaaaaa_immval_0x2
0000d8b7 l       .data	00000000 I_sltiu_cg_cr_rs1_imm_edges_rs1val_0xaaaaaaaa_immval_0x2_str
000027bc l       .text.rvtest	00000000 I_sltiu_cg_cr_rs1_imm_edges_rs1val_0xaaaaaaaa_immval_0x3
0000d90d l       .data	00000000 I_sltiu_cg_cr_rs1_imm_edges_rs1val_0xaaaaaaaa_immval_0x3_str
000027e0 l       .text.rvtest	00000000 I_sltiu_cg_cr_rs1_imm_edges_rs1val_0xaaaaaaaa_immval_0x4
0000d963 l       .data	00000000 I_sltiu_cg_cr_rs1_imm_edges_rs1val_0xaaaaaaaa_immval_0x4_str
00002804 l       .text.rvtest	00000000 I_sltiu_cg_cr_rs1_imm_edges_rs1val_0xaaaaaaaa_immval_0x8
0000d9b9 l       .data	00000000 I_sltiu_cg_cr_rs1_imm_edges_rs1val_0xaaaaaaaa_immval_0x8_str
00002828 l       .text.rvtest	00000000 I_sltiu_cg_cr_rs1_imm_edges_rs1val_0xaaaaaaaa_immval_0x10
0000da0f l       .data	00000000 I_sltiu_cg_cr_rs1_imm_edges_rs1val_0xaaaaaaaa_immval_0x10_str
0000284c l       .text.rvtest	00000000 I_sltiu_cg_cr_rs1_imm_edges_rs1val_0xaaaaaaaa_immval_0x20
0000da66 l       .data	00000000 I_sltiu_cg_cr_rs1_imm_edges_rs1val_0xaaaaaaaa_immval_0x20_str
00002870 l       .text.rvtest	00000000 I_sltiu_cg_cr_rs1_imm_edges_rs1val_0xaaaaaaaa_immval_0x40
0000dabd l       .data	00000000 I_sltiu_cg_cr_rs1_imm_edges_rs1val_0xaaaaaaaa_immval_0x40_str
00002894 l       .text.rvtest	00000000 I_sltiu_cg_cr_rs1_imm_edges_rs1val_0xaaaaaaaa_immval_0x80
0000db14 l       .data	00000000 I_sltiu_cg_cr_rs1_imm_edges_rs1val_0xaaaaaaaa_immval_0x80_str
000028b8 l       .text.rvtest	00000000 I_sltiu_cg_cr_rs1_imm_edges_rs1val_0xaaaaaaaa_immval_0x100
0000db6b l       .data	00000000 I_sltiu_cg_cr_rs1_imm_edges_rs1val_0xaaaaaaaa_immval_0x100_str
000028dc l       .text.rvtest	00000000 I_sltiu_cg_cr_rs1_imm_edges_rs1val_0xaaaaaaaa_immval_0x200
0000dbc3 l       .data	00000000 I_sltiu_cg_cr_rs1_imm_edges_rs1val_0xaaaaaaaa_immval_0x200_str
00002900 l       .text.rvtest	00000000 I_sltiu_cg_cr_rs1_imm_edges_rs1val_0xaaaaaaaa_immval_0x3ff
0000dc1b l       .data	00000000 I_sltiu_cg_cr_rs1_imm_edges_rs1val_0xaaaaaaaa_immval_0x3ff_str
00002924 l       .text.rvtest	00000000 I_sltiu_cg_cr_rs1_imm_edges_rs1val_0xaaaaaaaa_immval_0x400
0000dc73 l       .data	00000000 I_sltiu_cg_cr_rs1_imm_edges_rs1val_0xaaaaaaaa_immval_0x400_str
00002948 l       .text.rvtest	00000000 I_sltiu_cg_cr_rs1_imm_edges_rs1val_0xaaaaaaaa_immval_0x703
0000dccb l       .data	00000000 I_sltiu_cg_cr_rs1_imm_edges_rs1val_0xaaaaaaaa_immval_0x703_str
0000296c l       .text.rvtest	00000000 I_sltiu_cg_cr_rs1_imm_edges_rs1val_0xaaaaaaaa_immval_0x7ff
0000dd23 l       .data	00000000 I_sltiu_cg_cr_rs1_imm_edges_rs1val_0xaaaaaaaa_immval_0x7ff_str
00002990 l       .text.rvtest	00000000 I_sltiu_cg_cr_rs1_imm_edges_rs1val_0xaaaaaaaa_immval_m0x800
0000dd7b l       .data	00000000 I_sltiu_cg_cr_rs1_imm_edges_rs1val_0xaaaaaaaa_immval_m0x800_str
000029b4 l       .text.rvtest	00000000 I_sltiu_cg_cr_rs1_imm_edges_rs1val_0xaaaaaaaa_immval_m0x7ff
0000ddd4 l       .data	00000000 I_sltiu_cg_cr_rs1_imm_edges_rs1val_0xaaaaaaaa_immval_m0x7ff_str
000029d8 l       .text.rvtest	00000000 I_sltiu_cg_cr_rs1_imm_edges_rs1val_0xaaaaaaaa_immval_m0x2
0000de2d l       .data	00000000 I_sltiu_cg_cr_rs1_imm_edges_rs1val_0xaaaaaaaa_immval_m0x2_str
000029fc l       .text.rvtest	00000000 I_sltiu_cg_cr_rs1_imm_edges_rs1val_0xaaaaaaaa_immval_m0x1
0000de84 l       .data	00000000 I_sltiu_cg_cr_rs1_imm_edges_rs1val_0xaaaaaaaa_immval_m0x1_str
00002a20 l       .text.rvtest	00000000 I_sltiu_cg_cr_rs1_imm_edges_rs1val_0x55555555_immval_0x0
0000dedb l       .data	00000000 I_sltiu_cg_cr_rs1_imm_edges_rs1val_0x55555555_immval_0x0_str
00002a44 l       .text.rvtest	00000000 I_sltiu_cg_cr_rs1_imm_edges_rs1val_0x55555555_immval_0x1
0000df31 l       .data	00000000 I_sltiu_cg_cr_rs1_imm_edges_rs1val_0x55555555_immval_0x1_str
00002a68 l       .text.rvtest	00000000 I_sltiu_cg_cr_rs1_imm_edges_rs1val_0x55555555_immval_0x2
0000df87 l       .data	00000000 I_sltiu_cg_cr_rs1_imm_edges_rs1val_0x55555555_immval_0x2_str
00002a8c l       .text.rvtest	00000000 I_sltiu_cg_cr_rs1_imm_edges_rs1val_0x55555555_immval_0x3
0000dfdd l       .data	00000000 I_sltiu_cg_cr_rs1_imm_edges_rs1val_0x55555555_immval_0x3_str
00002ab0 l       .text.rvtest	00000000 I_sltiu_cg_cr_rs1_imm_edges_rs1val_0x55555555_immval_0x4
0000e033 l       .data	00000000 I_sltiu_cg_cr_rs1_imm_edges_rs1val_0x55555555_immval_0x4_str
00002ad4 l       .text.rvtest	00000000 I_sltiu_cg_cr_rs1_imm_edges_rs1val_0x55555555_immval_0x8
0000e089 l       .data	00000000 I_sltiu_cg_cr_rs1_imm_edges_rs1val_0x55555555_immval_0x8_str
00002af8 l       .text.rvtest	00000000 I_sltiu_cg_cr_rs1_imm_edges_rs1val_0x55555555_immval_0x10
0000e0df l       .data	00000000 I_sltiu_cg_cr_rs1_imm_edges_rs1val_0x55555555_immval_0x10_str
00002b1c l       .text.rvtest	00000000 I_sltiu_cg_cr_rs1_imm_edges_rs1val_0x55555555_immval_0x20
0000e136 l       .data	00000000 I_sltiu_cg_cr_rs1_imm_edges_rs1val_0x55555555_immval_0x20_str
00002b40 l       .text.rvtest	00000000 I_sltiu_cg_cr_rs1_imm_edges_rs1val_0x55555555_immval_0x40
0000e18d l       .data	00000000 I_sltiu_cg_cr_rs1_imm_edges_rs1val_0x55555555_immval_0x40_str
00002b64 l       .text.rvtest	00000000 I_sltiu_cg_cr_rs1_imm_edges_rs1val_0x55555555_immval_0x80
0000e1e4 l       .data	00000000 I_sltiu_cg_cr_rs1_imm_edges_rs1val_0x55555555_immval_0x80_str
00002b88 l       .text.rvtest	00000000 I_sltiu_cg_cr_rs1_imm_edges_rs1val_0x55555555_immval_0x100
0000e23b l       .data	00000000 I_sltiu_cg_cr_rs1_imm_edges_rs1val_0x55555555_immval_0x100_str
00002bac l       .text.rvtest	00000000 I_sltiu_cg_cr_rs1_imm_edges_rs1val_0x55555555_immval_0x200
0000e293 l       .data	00000000 I_sltiu_cg_cr_rs1_imm_edges_rs1val_0x55555555_immval_0x200_str
00002bd0 l       .text.rvtest	00000000 I_sltiu_cg_cr_rs1_imm_edges_rs1val_0x55555555_immval_0x3ff
0000e2eb l       .data	00000000 I_sltiu_cg_cr_rs1_imm_edges_rs1val_0x55555555_immval_0x3ff_str
00002bf4 l       .text.rvtest	00000000 I_sltiu_cg_cr_rs1_imm_edges_rs1val_0x55555555_immval_0x400
0000e343 l       .data	00000000 I_sltiu_cg_cr_rs1_imm_edges_rs1val_0x55555555_immval_0x400_str
00002c18 l       .text.rvtest	00000000 I_sltiu_cg_cr_rs1_imm_edges_rs1val_0x55555555_immval_0x703
0000e39b l       .data	00000000 I_sltiu_cg_cr_rs1_imm_edges_rs1val_0x55555555_immval_0x703_str
00002c3c l       .text.rvtest	00000000 I_sltiu_cg_cr_rs1_imm_edges_rs1val_0x55555555_immval_0x7ff
0000e3f3 l       .data	00000000 I_sltiu_cg_cr_rs1_imm_edges_rs1val_0x55555555_immval_0x7ff_str
00002c60 l       .text.rvtest	00000000 I_sltiu_cg_cr_rs1_imm_edges_rs1val_0x55555555_immval_m0x800
0000e44b l       .data	00000000 I_sltiu_cg_cr_rs1_imm_edges_rs1val_0x55555555_immval_m0x800_str
00002c84 l       .text.rvtest	00000000 I_sltiu_cg_cr_rs1_imm_edges_rs1val_0x55555555_immval_m0x7ff
0000e4a4 l       .data	00000000 I_sltiu_cg_cr_rs1_imm_edges_rs1val_0x55555555_immval_m0x7ff_str
00002ca8 l       .text.rvtest	00000000 I_sltiu_cg_cr_rs1_imm_edges_rs1val_0x55555555_immval_m0x2
0000e4fd l       .data	00000000 I_sltiu_cg_cr_rs1_imm_edges_rs1val_0x55555555_immval_m0x2_str
00002ccc l       .text.rvtest	00000000 I_sltiu_cg_cr_rs1_imm_edges_rs1val_0x55555555_immval_m0x1
0000e554 l       .data	00000000 I_sltiu_cg_cr_rs1_imm_edges_rs1val_0x55555555_immval_m0x1_str
00002cf0 l       .text.rvtest	00000000 I_sltiu_cg_cmp_rd_rs1_b0
0000e5ab l       .data	00000000 I_sltiu_cg_cmp_rd_rs1_b0_str
00002d18 l       .text.rvtest	00000000 I_sltiu_cg_cmp_rd_rs1_b1
0000e5e0 l       .data	00000000 I_sltiu_cg_cmp_rd_rs1_b1_str
00002d3c l       .text.rvtest	00000000 I_sltiu_cg_cmp_rd_rs1_b2
0000e615 l       .data	00000000 I_sltiu_cg_cmp_rd_rs1_b2_str
00002d60 l       .text.rvtest	00000000 I_sltiu_cg_cmp_rd_rs1_b3
0000e64a l       .data	00000000 I_sltiu_cg_cmp_rd_rs1_b3_str
00002d84 l       .text.rvtest	00000000 I_sltiu_cg_cmp_rd_rs1_b4
0000e67f l       .data	00000000 I_sltiu_cg_cmp_rd_rs1_b4_str
00002da8 l       .text.rvtest	00000000 I_sltiu_cg_cmp_rd_rs1_b5
0000e6b4 l       .data	00000000 I_sltiu_cg_cmp_rd_rs1_b5_str
00002dcc l       .text.rvtest	00000000 I_sltiu_cg_cmp_rd_rs1_b6
0000e6e9 l       .data	00000000 I_sltiu_cg_cmp_rd_rs1_b6_str
00002df8 l       .text.rvtest	00000000 I_sltiu_cg_cmp_rd_rs1_b7
0000e71e l       .data	00000000 I_sltiu_cg_cmp_rd_rs1_b7_str
00002e1c l       .text.rvtest	00000000 I_sltiu_cg_cmp_rd_rs1_b8
0000e753 l       .data	00000000 I_sltiu_cg_cmp_rd_rs1_b8_str
00002e44 l       .text.rvtest	00000000 I_sltiu_cg_cmp_rd_rs1_b9
0000e788 l       .data	00000000 I_sltiu_cg_cmp_rd_rs1_b9_str
00002e68 l       .text.rvtest	00000000 I_sltiu_cg_cmp_rd_rs1_b10
0000e7bd l       .data	00000000 I_sltiu_cg_cmp_rd_rs1_b10_str
00002e8c l       .text.rvtest	00000000 I_sltiu_cg_cmp_rd_rs1_b11
0000e7f3 l       .data	00000000 I_sltiu_cg_cmp_rd_rs1_b11_str
00002eb4 l       .text.rvtest	00000000 I_sltiu_cg_cmp_rd_rs1_b12
0000e829 l       .data	00000000 I_sltiu_cg_cmp_rd_rs1_b12_str
00002ee0 l       .text.rvtest	00000000 I_sltiu_cg_cmp_rd_rs1_b13
0000e85f l       .data	00000000 I_sltiu_cg_cmp_rd_rs1_b13_str
00002f04 l       .text.rvtest	00000000 I_sltiu_cg_cmp_rd_rs1_b14
0000e895 l       .data	00000000 I_sltiu_cg_cmp_rd_rs1_b14_str
00002f28 l       .text.rvtest	00000000 I_sltiu_cg_cmp_rd_rs1_b15
0000e8cb l       .data	00000000 I_sltiu_cg_cmp_rd_rs1_b15_str
00002f4c l       .text.rvtest	00000000 I_sltiu_cg_cmp_rd_rs1_b16
0000e901 l       .data	00000000 I_sltiu_cg_cmp_rd_rs1_b16_str
00002f70 l       .text.rvtest	00000000 I_sltiu_cg_cmp_rd_rs1_b17
0000e937 l       .data	00000000 I_sltiu_cg_cmp_rd_rs1_b17_str
00002f98 l       .text.rvtest	00000000 I_sltiu_cg_cmp_rd_rs1_b18
0000e96d l       .data	00000000 I_sltiu_cg_cmp_rd_rs1_b18_str
00002fbc l       .text.rvtest	00000000 I_sltiu_cg_cmp_rd_rs1_b19
0000e9a3 l       .data	00000000 I_sltiu_cg_cmp_rd_rs1_b19_str
00002fe0 l       .text.rvtest	00000000 I_sltiu_cg_cmp_rd_rs1_b20
0000e9d9 l       .data	00000000 I_sltiu_cg_cmp_rd_rs1_b20_str
00003004 l       .text.rvtest	00000000 I_sltiu_cg_cmp_rd_rs1_b21
0000ea0f l       .data	00000000 I_sltiu_cg_cmp_rd_rs1_b21_str
00003028 l       .text.rvtest	00000000 I_sltiu_cg_cmp_rd_rs1_b22
0000ea45 l       .data	00000000 I_sltiu_cg_cmp_rd_rs1_b22_str
0000304c l       .text.rvtest	00000000 I_sltiu_cg_cmp_rd_rs1_b23
0000ea7b l       .data	00000000 I_sltiu_cg_cmp_rd_rs1_b23_str
00003070 l       .text.rvtest	00000000 I_sltiu_cg_cmp_rd_rs1_b24
0000eab1 l       .data	00000000 I_sltiu_cg_cmp_rd_rs1_b24_str
00003094 l       .text.rvtest	00000000 I_sltiu_cg_cmp_rd_rs1_b25
0000eae7 l       .data	00000000 I_sltiu_cg_cmp_rd_rs1_b25_str
000030b8 l       .text.rvtest	00000000 I_sltiu_cg_cmp_rd_rs1_b26
0000eb1d l       .data	00000000 I_sltiu_cg_cmp_rd_rs1_b26_str
000030dc l       .text.rvtest	00000000 I_sltiu_cg_cmp_rd_rs1_b27
0000eb53 l       .data	00000000 I_sltiu_cg_cmp_rd_rs1_b27_str
00003100 l       .text.rvtest	00000000 I_sltiu_cg_cmp_rd_rs1_b28
0000eb89 l       .data	00000000 I_sltiu_cg_cmp_rd_rs1_b28_str
00003124 l       .text.rvtest	00000000 I_sltiu_cg_cmp_rd_rs1_b29
0000ebbf l       .data	00000000 I_sltiu_cg_cmp_rd_rs1_b29_str
00003148 l       .text.rvtest	00000000 I_sltiu_cg_cmp_rd_rs1_b30
0000ebf5 l       .data	00000000 I_sltiu_cg_cmp_rd_rs1_b30_str
0000316c l       .text.rvtest	00000000 I_sltiu_cg_cmp_rd_rs1_b31
0000ec2b l       .data	00000000 I_sltiu_cg_cmp_rd_rs1_b31_str
00003190 l       .text.rvtest	00000000 I_sltiu_cg_cp_imm_edges_0x0
0000ec61 l       .data	00000000 I_sltiu_cg_cp_imm_edges_0x0_str
000031b4 l       .text.rvtest	00000000 I_sltiu_cg_cp_imm_edges_0x1
0000ec99 l       .data	00000000 I_sltiu_cg_cp_imm_edges_0x1_str
000031d8 l       .text.rvtest	00000000 I_sltiu_cg_cp_imm_edges_0x2
0000ecd1 l       .data	00000000 I_sltiu_cg_cp_imm_edges_0x2_str
000031fc l       .text.rvtest	00000000 I_sltiu_cg_cp_imm_edges_0x3
0000ed09 l       .data	00000000 I_sltiu_cg_cp_imm_edges_0x3_str
00003220 l       .text.rvtest	00000000 I_sltiu_cg_cp_imm_edges_0x4
0000ed41 l       .data	00000000 I_sltiu_cg_cp_imm_edges_0x4_str
00003244 l       .text.rvtest	00000000 I_sltiu_cg_cp_imm_edges_0x8
0000ed79 l       .data	00000000 I_sltiu_cg_cp_imm_edges_0x8_str
00003268 l       .text.rvtest	00000000 I_sltiu_cg_cp_imm_edges_0x10
0000edb1 l       .data	00000000 I_sltiu_cg_cp_imm_edges_0x10_str
0000328c l       .text.rvtest	00000000 I_sltiu_cg_cp_imm_edges_0x20
0000edea l       .data	00000000 I_sltiu_cg_cp_imm_edges_0x20_str
000032b0 l       .text.rvtest	00000000 I_sltiu_cg_cp_imm_edges_0x40
0000ee23 l       .data	00000000 I_sltiu_cg_cp_imm_edges_0x40_str
000032d4 l       .text.rvtest	00000000 I_sltiu_cg_cp_imm_edges_0x80
0000ee5c l       .data	00000000 I_sltiu_cg_cp_imm_edges_0x80_str
000032f8 l       .text.rvtest	00000000 I_sltiu_cg_cp_imm_edges_0x100
0000ee95 l       .data	00000000 I_sltiu_cg_cp_imm_edges_0x100_str
0000331c l       .text.rvtest	00000000 I_sltiu_cg_cp_imm_edges_0x200
0000eecf l       .data	00000000 I_sltiu_cg_cp_imm_edges_0x200_str
00003340 l       .text.rvtest	00000000 I_sltiu_cg_cp_imm_edges_0x3ff
0000ef09 l       .data	00000000 I_sltiu_cg_cp_imm_edges_0x3ff_str
00003364 l       .text.rvtest	00000000 I_sltiu_cg_cp_imm_edges_0x400
0000ef43 l       .data	00000000 I_sltiu_cg_cp_imm_edges_0x400_str
00003388 l       .text.rvtest	00000000 I_sltiu_cg_cp_imm_edges_0x703
0000ef7d l       .data	00000000 I_sltiu_cg_cp_imm_edges_0x703_str
000033ac l       .text.rvtest	00000000 I_sltiu_cg_cp_imm_edges_0x7ff
0000efb7 l       .data	00000000 I_sltiu_cg_cp_imm_edges_0x7ff_str
000033d0 l       .text.rvtest	00000000 I_sltiu_cg_cp_imm_edges_m0x800
0000eff1 l       .data	00000000 I_sltiu_cg_cp_imm_edges_m0x800_str
000033f4 l       .text.rvtest	00000000 I_sltiu_cg_cp_imm_edges_m0x7ff
0000f02c l       .data	00000000 I_sltiu_cg_cp_imm_edges_m0x7ff_str
00003418 l       .text.rvtest	00000000 I_sltiu_cg_cp_imm_edges_m0x2
0000f067 l       .data	00000000 I_sltiu_cg_cp_imm_edges_m0x2_str
0000343c l       .text.rvtest	00000000 I_sltiu_cg_cp_imm_edges_m0x1
0000f0a0 l       .data	00000000 I_sltiu_cg_cp_imm_edges_m0x1_str
00003458 l       .text.rvtest	00000000 exit_cleanup
0000f744 l       .data	00000000 successstr
00020204 l       .text.rvmodel	00000000 rvmodel_io_write_str
00020208 l       .text.rvmodel	00000000 rvmodel_halt_pass
00003490 l       .text.rvtest	00000000 abort_test
6f5ca309 l       *ABS*	00000000 immx
6f5ca309 l       *ABS*	00000000 absimm
00000000 l       *ABS*	00000000 cry
00000309 l       *ABS*	00000000 imm12
0000f0e0 l       .data	00000000 begin_failure_scratch
00003560 l       .text.rvtest	00000000 failedtest_saveregs
00003504 l       .text.rvtest	00000000 failedtest_trap_x7_x9
0000f250 l       .data	00000000 saved_mcause
0000f258 l       .data	00000000 saved_mtval
0000f260 l       .data	00000000 saved_mstatus
000035d0 l       .text.rvtest	00000000 failedtest_saveresults
0000f0e0 l       .data	00000000 failure_type
0000364c l       .text.rvtest	00000000 failedtest_saveresults_trap
000035e0 l       .text.rvtest	00000000 failedtest_saveresults_int
00003a20 l       .text.rvtest	00000000 failedtest_saveresults_common
0000f238 l       .data	00000000 trap_diag_fail_str_ptr
0000f90e l       .data	00000000 trap_sig_offset_mismatch
00003900 l       .text.rvtest	00000000 trap_diag_offset_mismatch
0000f210 l       .data	00000000 trap_diag_subtype
0000f972 l       .data	00000000 sv_Mvect_str
00003980 l       .text.rvtest	00000000 trap_diag_field_identified
0000fa74 l       .data	00000000 sv_Mcause_str
0000fb6f l       .data	00000000 sv_Mepc_str
0000fc62 l       .data	00000000 sv_Mtval_str
0000fdd5 l       .data	00000000 sv_Mip_str
0000fd59 l       .data	00000000 sv_Mtval2_str
0000fd97 l       .data	00000000 sv_Mtinst_str
0000f9b2 l       .data	00000000 sv_Svect_str
0000fab2 l       .data	00000000 sv_Scause_str
0000fbab l       .data	00000000 sv_Sepc_str
0000fc9f l       .data	00000000 sv_Stval_str
0000fe10 l       .data	00000000 sv_Sip_str
0000f9f2 l       .data	00000000 sv_Hvect_str
0000faf0 l       .data	00000000 sv_Hcause_str
0000fbe7 l       .data	00000000 sv_Hepc_str
0000fcdc l       .data	00000000 sv_Htval_str
0000fe4b l       .data	00000000 sv_Hip_str
0000fa33 l       .data	00000000 sv_Vvect_str
0000fb2f l       .data	00000000 sv_Vcause_str
0000fc24 l       .data	00000000 sv_Vepc_str
0000fd1a l       .data	00000000 sv_Vtval_str
0000fe87 l       .data	00000000 sv_Vip_str
0000fec4 l       .data	00000000 Mclr_Mext_int_str
0000ff13 l       .data	00000000 Mclr_Sext_int_str
0001000e l       .data	00000000 Sclr_Sext_int_str
0001010a l       .data	00000000 Hclr_Sext_int_str
00003a10 l       .text.rvtest	00000000 trap_diag_generic_report
0000f228 l       .data	00000000 trap_diag_actual_offset
0000f230 l       .data	00000000 trap_diag_expected_offset
0000f214 l       .data	00000000 trap_diag_mode
0000f218 l       .data	00000000 trap_diag_actual_value
0000f220 l       .data	00000000 trap_diag_expected_value
00003a50 l       .text.rvtest	00000000 failedtest_report
00003a50 l       .text.rvtest	00000000 print_failstr
0000f77c l       .data	00000000 failstr
00003a88 l       .text.rvtest	00000000 print_testnamestr
0000f811 l       .data	00000000 testnamestr
00003ac8 l       .text.rvtest	00000000 print_failure_test_name_str
0000f200 l       .data	00000000 failure_string_ptr
00003ad8 l       .text.rvtest	00000000 print_newline_str
0000f823 l       .data	00000000 newlinestr
00003f0c l       .text.rvtest	00000000 failedtest_report_trap_detailed
0000f825 l       .data	00000000 inststr
0000f1e0 l       .data	00000000 failing_instruction
00004e58 l       .text.rvtest	00000000 failedtest_hex_to_str
0000f268 l       .data	00000000 ascii_buffer
0000f839 l       .data	00000000 addrstr
0000f1e8 l       .data	00000000 failing_addr
000102b6 l       .data	00000000 regstr
00003cb8 l       .text.rvtest	00000000 failedtest_report_not_intreg
0000f1e4 l       .data	00000000 failing_reg
00004ed4 l       .text.rvtest	00000000 failedtest_dec_to_str
00003d94 l       .text.rvtest	00000000 failedtest_report_print_regstr
00003d0c l       .text.rvtest	00000000 failedtest_report_fpreg
00003d58 l       .text.rvtest	00000000 failedtest_report_vecreg
00010316 l       .data	00000000 fflagsstr
00003dc8 l       .text.rvtest	00000000 failedtest_report_after_reg
000102c7 l       .data	00000000 badvalstr
00003e2c l       .text.rvtest	00000000 failedtest_report_badval_not_fp
0000f1f0 l       .data	00000000 failing_value
00003e3c l       .text.rvtest	00000000 failedtest_report_badval_done
000102de l       .data	00000000 expvalstr
00003ecc l       .text.rvtest	00000000 failedtest_report_expval_not_fp
0000f1f8 l       .data	00000000 expected_value
00003edc l       .text.rvtest	00000000 failedtest_report_expval_done
00004c04 l       .text.rvtest	00000000 failedtest_report_end
00010342 l       .data	00000000 trap_diag_header_str
0001036e l       .data	00000000 trap_diag_origstr_label
00003fe0 l       .text.rvtest	00000000 trap_report_offset_mismatch
00004a90 l       .text.rvtest	00000000 trap_report_generic
00004354 l       .text.rvtest	00000000 trap_report_field_mismatch
0001037e l       .data	00000000 trap_diag_count_mismatch_str
000103df l       .data	00000000 trap_diag_expected_offset_str
00010406 l       .data	00000000 trap_diag_actual_offset_str
00004234 l       .text.rvtest	00000000 trap_report_missing_traps
0000411c l       .text.rvtest	00000000 trap_report_extra_traps
0001042d l       .data	00000000 trap_diag_extra_traps_str
000104b2 l       .data	00000000 trap_diag_extra_bytes_str
000104dd l       .data	00000000 trap_diag_extra_hint_str
00004c50 l       .text.rvtest	00000000 failedtest_print_csr_context
00010467 l       .data	00000000 trap_diag_missing_traps_str
000105c5 l       .data	00000000 trap_diag_missing_hint_str
000106ac l       .data	00000000 trap_diag_handler_mode_str
000043e4 l       .text.rvtest	00000000 trap_mode_m
00004424 l       .text.rvtest	00000000 trap_mode_s
00004464 l       .text.rvtest	00000000 trap_mode_h
000044a4 l       .text.rvtest	00000000 trap_mode_v
000106e8 l       .data	00000000 trap_diag_mode_unknown_str
000044e0 l       .text.rvtest	00000000 trap_mode_print
000106c6 l       .data	00000000 trap_diag_mode_m_str
000106ce l       .data	00000000 trap_diag_mode_s_str
000106d6 l       .data	00000000 trap_diag_mode_hs_str
000106df l       .data	00000000 trap_diag_mode_vs_str
000106f1 l       .data	00000000 trap_diag_field_str
000045a4 l       .text.rvtest	00000000 trap_field_vect
000045e4 l       .text.rvtest	00000000 trap_field_cause
00004624 l       .text.rvtest	00000000 trap_field_epc
00004664 l       .text.rvtest	00000000 trap_field_tval
000046a4 l       .text.rvtest	00000000 trap_field_ip
000046e4 l       .text.rvtest	00000000 trap_field_tval2
00004724 l       .text.rvtest	00000000 trap_field_tinst
00004764 l       .text.rvtest	00000000 trap_field_intid
00010848 l       .data	00000000 trap_diag_field_unknown_str
000047a0 l       .text.rvtest	00000000 trap_field_print
0001070b l       .data	00000000 trap_diag_field_vect_str
0001073c l       .data	00000000 trap_diag_field_cause_str
0001075c l       .data	00000000 trap_diag_field_epc_str
0001077a l       .data	00000000 trap_diag_field_tval_str
00010799 l       .data	00000000 trap_diag_field_ip_str
000107c1 l       .data	00000000 trap_diag_field_tval2_str
000107ed l       .data	00000000 trap_diag_field_tinst_str
00010819 l       .data	00000000 trap_diag_field_intid_str
00010857 l       .data	00000000 trap_diag_expected_str
0001086e l       .data	00000000 trap_diag_actual_str
0000493c l       .text.rvtest	00000000 trap_field_not_cause
00010885 l       .data	00000000 trap_diag_expected_cause_name_str
00004b74 l       .text.rvtest	00000000 trap_cause_to_str
0001089c l       .data	00000000 trap_diag_actual_cause_name_str
0000493c l       .text.rvtest	00000000 trap_field_not_epc
00010912 l       .data	00000000 trap_diag_hint_vect_str
000109e8 l       .data	00000000 trap_diag_hint_cause_str
00010adb l       .data	00000000 trap_diag_hint_epc_str
00010bd6 l       .data	00000000 trap_diag_hint_tval_str
00010cbd l       .data	00000000 trap_diag_hint_ip_str
000108ca l       .data	00000000 trap_diag_generic_str
0000f248 l       .data	00000000 saved_mepc
0000f8ad l       .data	00000000 xepcinstrstr
00004b98 l       .text.rvtest	00000000 trap_cause_interrupt
00004b78 l       .text.rvtest	00000000 trap_cause_exception
00004bc4 l       .text.rvtest	00000000 trap_cause_unknown
0000f290 l       .data	00000000 trap_excpt_name_tbl
0000f2f0 l       .data	00000000 trap_int_name_tbl
0000f72e l       .data	00000000 trap_cause_unknown_str
000102f5 l       .data	00000000 endstr
00004c48 l       .text.rvtest	00000000 failedtest_terminate
00020214 l       .text.rvmodel	00000000 rvmodel_halt_fail
0000f240 l       .data	00000000 csr_context_ret_addr
0000f8ce l       .data	00000000 mepcstr
0000f8de l       .data	00000000 mcausestr
0000f8ee l       .data	00000000 mtvalstr
0000f8fe l       .data	00000000 mstatusstr
00004e98 l       .text.rvtest	00000000 failedtest_hex_to_str_loop
00004eb4 l       .text.rvtest	00000000 failedtest_hex_to_str_digit
00004eb8 l       .text.rvtest	00000000 failedtest_hex_to_str_write
00020000 l       .text.rvmodel	00000000 rvtest_boot_to_mmode
00020000 l       .text.rvmodel	00000000 rvtest_init_regs
00010db0 l       .data	00000000 signature_base
000201a0 l       .text.rvmodel	00000000 canary_check
0001031e l       .data	00000000 canary_mismatch
00008000 l       .data	00000000 scratch
0000f290 l       .data	00000000 end_failure_scratch
0000f330 l       .data	00000000 trap_excpt_name_0
0000f350 l       .data	00000000 trap_excpt_name_1
0000f36a l       .data	00000000 trap_excpt_name_2
0000f37f l       .data	00000000 trap_excpt_name_3
0000f38b l       .data	00000000 trap_excpt_name_4
0000f3a4 l       .data	00000000 trap_excpt_name_5
0000f3b7 l       .data	00000000 trap_excpt_name_6
0000f3d5 l       .data	00000000 trap_excpt_name_7
0000f3ed l       .data	00000000 trap_excpt_name_8
0000f40b l       .data	00000000 trap_excpt_name_9
0000f429 l       .data	00000000 trap_excpt_name_10
0000f448 l       .data	00000000 trap_excpt_name_11
0000f466 l       .data	00000000 trap_excpt_name_12
0000f47e l       .data	00000000 trap_excpt_name_13
0000f48f l       .data	00000000 trap_excpt_name_14
0000f49e l       .data	00000000 trap_excpt_name_15
0000f4b4 l       .data	00000000 trap_excpt_name_16
0000f4c1 l       .data	00000000 trap_excpt_name_17
0000f4d0 l       .data	00000000 trap_excpt_name_18
0000f4e0 l       .data	00000000 trap_excpt_name_19
0000f4f0 l       .data	00000000 trap_excpt_name_20
0000f50e l       .data	00000000 trap_excpt_name_21
0000f525 l       .data	00000000 trap_excpt_name_22
0000f53a l       .data	00000000 trap_excpt_name_23
0000f556 l       .data	00000000 trap_int_name_0
0000f56e l       .data	00000000 trap_int_name_1
0000f58d l       .data	00000000 trap_int_name_2
0000f5b4 l       .data	00000000 trap_int_name_3
0000f5d0 l       .data	00000000 trap_int_name_4
0000f5e8 l       .data	00000000 trap_int_name_5
0000f604 l       .data	00000000 trap_int_name_6
0000f628 l       .data	00000000 trap_int_name_7
0000f641 l       .data	00000000 trap_int_name_8
0000f659 l       .data	00000000 trap_int_name_9
0000f678 l       .data	00000000 trap_int_name_10
0000f69f l       .data	00000000 trap_int_name_11
0000f6bb l       .data	00000000 trap_int_name_12
0000f6e0 l       .data	00000000 trap_int_name_13
0000f6fc l       .data	00000000 trap_int_name_14
0000f715 l       .data	00000000 trap_int_name_15
0000f7d3 l       .data	00000000 abortstr
0000f87a l       .data	00000000 xepcstr
0000ff65 l       .data	00000000 Mclr_Vext_int_str
0000ffbf l       .data	00000000 Sclr_Mext_int_str
00010060 l       .data	00000000 Sclr_Vext_int_str
000100ba l       .data	00000000 Hclr_Mext_int_str
0001015d l       .data	00000000 Hclr_Vext_int_str
000101b8 l       .data	00000000 Vclr_Mext_int_str
00010208 l       .data	00000000 Vclr_Sext_int_str
0001025b l       .data	00000000 Vclr_Vext_int_str
000108b3 l       .data	00000000 trap_diag_curr_xepc_str
000113a0 l       .data	00000000 trap_sigptr
0001fe10 g       .data	00000000 end_signature
0001fe10 g       .data	00000000 rvtest_sig_end
00000000 g       .text.init	00000000 rvtest_entry_point
00010db0 g       .data	00000000 begin_signature
00003458 g       .text.rvtest	00000000 rvtest_code_end
00000040 g       .text.rvtest	00000000 rvtest_code_begin
00010db0 g       .data	00000000 rvtest_sig_begin
00008110 g       .data	00000000 rvtest_data_begin
00010da2 g       .data	00000000 rvtest_data_end
00003458 g       .text.rvtest	00000000 cleanup_epilogs
00021000 g       .text.rvmodel	00000000 _end



Disassembly of section .text.init:

00000000 <rvtest_entry_point>:

// Include framework macros
#include "riscv_arch_test.h"

// Set up test environment and declare main entry point
RVTEST_BEGIN
   0:	00020097          	auipc	x1,0x20
   4:	00008093          	addi	x1,x1,0 # 20000 <rvmodel_boot>
   8:	00000013          	addi	x0,x0,0
   c:	00000013          	addi	x0,x0,0
  10:	00000013          	addi	x0,x0,0
  14:	00000013          	addi	x0,x0,0
  18:	00000013          	addi	x0,x0,0
  1c:	00000013          	addi	x0,x0,0
  20:	000080e7          	jalr	x1,0(x1)
  24:	00000013          	addi	x0,x0,0
  28:	00000013          	addi	x0,x0,0
  2c:	00000013          	addi	x0,x0,0
  30:	00000013          	addi	x0,x0,0
  34:	00000013          	addi	x0,x0,0
  38:	00000013          	addi	x0,x0,0
  3c:	00000013          	addi	x0,x0,0

Disassembly of section .text.rvtest:

00000040 <rvtest_code_begin>:
/////////////////////////////////
// cp_rs1
/////////////////////////////////

# Testcase cp_rs1 (Test source rs1 = x0)
  RVTEST_TESTDATA_LOAD_INT(x3, x0) # load rs1: x0 = 0xca1d6ea7
      40:	0001a003          	lw	x0,0(x3)
      44:	00418193          	addi	x3,x3,4

00000048 <I_sltiu_cg_cp_rs1_b0>:
I_sltiu_cg_cp_rs1_b0:
  sltiu x24, x0, -176 # perform operation
      48:	f5003c13          	sltiu	x24,x0,-176
  # Check if x24 contains the expected result. x2 is the signature ptr, x5 is the link ptr, x4 is a temp reg.
  RVTEST_SIGUPD(x2, x5, x4, x24, I_sltiu_cg_cp_rs1_b0, I_sltiu_cg_cp_rs1_b0_str)
      4c:	00012203          	lw	x4,0(x2)
      50:	01820863          	beq	x4,x24,60 <I_sltiu_cg_cp_rs1_b0+0x18>
      54:	448032ef          	jal	x5,349c <failedtest_x5_x4>
      58:	00000048          	.word	0x00000048
      5c:	000086d0          	.word	0x000086d0
      60:	00410113          	addi	x2,x2,4

# Testcase cp_rs1 (Test source rs1 = x1)
  RVTEST_TESTDATA_LOAD_INT(x3, x1) # load rs1: x1 = 0xc1e796a9
      64:	0001a083          	lw	x1,0(x3)
      68:	00418193          	addi	x3,x3,4

0000006c <I_sltiu_cg_cp_rs1_b1>:
I_sltiu_cg_cp_rs1_b1:
  sltiu x23, x1, 759 # perform operation
      6c:	2f70bb93          	sltiu	x23,x1,759
  # Check if x23 contains the expected result. x2 is the signature ptr, x5 is the link ptr, x4 is a temp reg.
  RVTEST_SIGUPD(x2, x5, x4, x23, I_sltiu_cg_cp_rs1_b1, I_sltiu_cg_cp_rs1_b1_str)
      70:	00012203          	lw	x4,0(x2)
      74:	01720863          	beq	x4,x23,84 <I_sltiu_cg_cp_rs1_b1+0x18>
      78:	424032ef          	jal	x5,349c <failedtest_x5_x4>
      7c:	0000006c          	.word	0x0000006c
      80:	000086ff          	.word	0x000086ff
      84:	00410113          	addi	x2,x2,4

  mv x20, x2 # switch signature pointer register to avoid conflict with test
      88:	00010a13          	addi	x20,x2,0
# Testcase cp_rs1 (Test source rs1 = x2)
  RVTEST_TESTDATA_LOAD_INT(x3, x2) # load rs1: x2 = 0x298259d3
      8c:	0001a103          	lw	x2,0(x3)
      90:	00418193          	addi	x3,x3,4

00000094 <I_sltiu_cg_cp_rs1_b2>:
I_sltiu_cg_cp_rs1_b2:
  sltiu x27, x2, 1238 # perform operation
      94:	4d613d93          	sltiu	x27,x2,1238
  # Check if x27 contains the expected result. x20 is the signature ptr, x5 is the link ptr, x4 is a temp reg.
  RVTEST_SIGUPD(x20, x5, x4, x27, I_sltiu_cg_cp_rs1_b2, I_sltiu_cg_cp_rs1_b2_str)
      98:	000a2203          	lw	x4,0(x20)
      9c:	01b20863          	beq	x4,x27,ac <I_sltiu_cg_cp_rs1_b2+0x18>
      a0:	3fc032ef          	jal	x5,349c <failedtest_x5_x4>
      a4:	00000094          	.word	0x00000094
      a8:	0000872e          	.word	0x0000872e
      ac:	004a0a13          	addi	x20,x20,4

  mv x1, x3 # switch data pointer register to avoid conflict with test
      b0:	00018093          	addi	x1,x3,0
# Testcase cp_rs1 (Test source rs1 = x3)
  RVTEST_TESTDATA_LOAD_INT(x1, x3) # load rs1: x3 = 0xd518127c
      b4:	0000a183          	lw	x3,0(x1)
      b8:	00408093          	addi	x1,x1,4

000000bc <I_sltiu_cg_cp_rs1_b3>:
I_sltiu_cg_cp_rs1_b3:
  sltiu x9, x3, -676 # perform operation
      bc:	d5c1b493          	sltiu	x9,x3,-676
  # Check if x9 contains the expected result. x20 is the signature ptr, x5 is the link ptr, x4 is a temp reg.
  RVTEST_SIGUPD(x20, x5, x4, x9, I_sltiu_cg_cp_rs1_b3, I_sltiu_cg_cp_rs1_b3_str)
      c0:	000a2203          	lw	x4,0(x20)
      c4:	00920863          	beq	x4,x9,d4 <I_sltiu_cg_cp_rs1_b3+0x18>
      c8:	3d4032ef          	jal	x5,349c <failedtest_x5_x4>
      cc:	000000bc          	.word	0x000000bc
      d0:	0000875d          	.word	0x0000875d
      d4:	004a0a13          	addi	x20,x20,4

  mv x7, x4 # switch temp register to avoid conflict with test
      d8:	00020393          	addi	x7,x4,0 # 0 <rvtest_entry_point>
  mv x8, x5 # switch link pointer register to avoid conflict with test
      dc:	00028413          	addi	x8,x5,0
# Testcase cp_rs1 (Test source rs1 = x4)
  RVTEST_TESTDATA_LOAD_INT(x1, x4) # load rs1: x4 = 0x254c4a76
      e0:	0000a203          	lw	x4,0(x1)
      e4:	00408093          	addi	x1,x1,4

000000e8 <I_sltiu_cg_cp_rs1_b4>:
I_sltiu_cg_cp_rs1_b4:
  sltiu x29, x4, 999 # perform operation
      e8:	3e723e93          	sltiu	x29,x4,999
  # Check if x29 contains the expected result. x20 is the signature ptr, x8 is the link ptr, x7 is a temp reg.
  RVTEST_SIGUPD(x20, x8, x7, x29, I_sltiu_cg_cp_rs1_b4, I_sltiu_cg_cp_rs1_b4_str)
      ec:	000a2383          	lw	x7,0(x20)
      f0:	01d38863          	beq	x7,x29,100 <I_sltiu_cg_cp_rs1_b4+0x18>
      f4:	3c00346f          	jal	x8,34b4 <failedtest_x8_x7>
      f8:	000000e8          	.word	0x000000e8
      fc:	0000878c          	.word	0x0000878c
     100:	004a0a13          	addi	x20,x20,4

# Testcase cp_rs1 (Test source rs1 = x5)
  RVTEST_TESTDATA_LOAD_INT(x1, x5) # load rs1: x5 = 0x883a6091
     104:	0000a283          	lw	x5,0(x1)
     108:	00408093          	addi	x1,x1,4

0000010c <I_sltiu_cg_cp_rs1_b5>:
I_sltiu_cg_cp_rs1_b5:
  sltiu x14, x5, -1053 # perform operation
     10c:	be32b713          	sltiu	x14,x5,-1053
  # Check if x14 contains the expected result. x20 is the signature ptr, x8 is the link ptr, x7 is a temp reg.
  RVTEST_SIGUPD(x20, x8, x7, x14, I_sltiu_cg_cp_rs1_b5, I_sltiu_cg_cp_rs1_b5_str)
     110:	000a2383          	lw	x7,0(x20)
     114:	00e38863          	beq	x7,x14,124 <I_sltiu_cg_cp_rs1_b5+0x18>
     118:	39c0346f          	jal	x8,34b4 <failedtest_x8_x7>
     11c:	0000010c          	.word	0x0000010c
     120:	000087bb          	.word	0x000087bb
     124:	004a0a13          	addi	x20,x20,4

# Testcase cp_rs1 (Test source rs1 = x6)
  RVTEST_TESTDATA_LOAD_INT(x1, x6) # load rs1: x6 = 0x42dc77c0
     128:	0000a303          	lw	x6,0(x1)
     12c:	00408093          	addi	x1,x1,4

00000130 <I_sltiu_cg_cp_rs1_b6>:
I_sltiu_cg_cp_rs1_b6:
  sltiu x21, x6, 1675 # perform operation
     130:	68b33a93          	sltiu	x21,x6,1675
  # Check if x21 contains the expected result. x20 is the signature ptr, x8 is the link ptr, x7 is a temp reg.
  RVTEST_SIGUPD(x20, x8, x7, x21, I_sltiu_cg_cp_rs1_b6, I_sltiu_cg_cp_rs1_b6_str)
     134:	000a2383          	lw	x7,0(x20)
     138:	01538863          	beq	x7,x21,148 <I_sltiu_cg_cp_rs1_b6+0x18>
     13c:	3780346f          	jal	x8,34b4 <failedtest_x8_x7>
     140:	00000130          	.word	0x00000130
     144:	000087ea          	.word	0x000087ea
     148:	004a0a13          	addi	x20,x20,4

  mv x4, x7 # switch temp register to avoid conflict with test
     14c:	00038213          	addi	x4,x7,0
  mv x5, x8 # switch link pointer register to avoid conflict with test
     150:	00040293          	addi	x5,x8,0
# Testcase cp_rs1 (Test source rs1 = x7)
  RVTEST_TESTDATA_LOAD_INT(x1, x7) # load rs1: x7 = 0x7fa51180
     154:	0000a383          	lw	x7,0(x1)
     158:	00408093          	addi	x1,x1,4

0000015c <I_sltiu_cg_cp_rs1_b7>:
I_sltiu_cg_cp_rs1_b7:
  sltiu x23, x7, -1138 # perform operation
     15c:	b8e3bb93          	sltiu	x23,x7,-1138
  # Check if x23 contains the expected result. x20 is the signature ptr, x5 is the link ptr, x4 is a temp reg.
  RVTEST_SIGUPD(x20, x5, x4, x23, I_sltiu_cg_cp_rs1_b7, I_sltiu_cg_cp_rs1_b7_str)
     160:	000a2203          	lw	x4,0(x20)
     164:	01720863          	beq	x4,x23,174 <I_sltiu_cg_cp_rs1_b7+0x18>
     168:	334032ef          	jal	x5,349c <failedtest_x5_x4>
     16c:	0000015c          	.word	0x0000015c
     170:	00008819          	.word	0x00008819
     174:	004a0a13          	addi	x20,x20,4

# Testcase cp_rs1 (Test source rs1 = x8)
  RVTEST_TESTDATA_LOAD_INT(x1, x8) # load rs1: x8 = 0xc49996bc
     178:	0000a403          	lw	x8,0(x1)
     17c:	00408093          	addi	x1,x1,4

00000180 <I_sltiu_cg_cp_rs1_b8>:
I_sltiu_cg_cp_rs1_b8:
  sltiu x26, x8, -1001 # perform operation
     180:	c1743d13          	sltiu	x26,x8,-1001
  # Check if x26 contains the expected result. x20 is the signature ptr, x5 is the link ptr, x4 is a temp reg.
  RVTEST_SIGUPD(x20, x5, x4, x26, I_sltiu_cg_cp_rs1_b8, I_sltiu_cg_cp_rs1_b8_str)
     184:	000a2203          	lw	x4,0(x20)
     188:	01a20863          	beq	x4,x26,198 <I_sltiu_cg_cp_rs1_b8+0x18>
     18c:	310032ef          	jal	x5,349c <failedtest_x5_x4>
     190:	00000180          	.word	0x00000180
     194:	00008848          	.word	0x00008848
     198:	004a0a13          	addi	x20,x20,4

# Testcase cp_rs1 (Test source rs1 = x9)
  RVTEST_TESTDATA_LOAD_INT(x1, x9) # load rs1: x9 = 0xfb9efb75
     19c:	0000a483          	lw	x9,0(x1)
     1a0:	00408093          	addi	x1,x1,4

000001a4 <I_sltiu_cg_cp_rs1_b9>:
I_sltiu_cg_cp_rs1_b9:
  sltiu x27, x9, 368 # perform operation
     1a4:	1704bd93          	sltiu	x27,x9,368
  # Check if x27 contains the expected result. x20 is the signature ptr, x5 is the link ptr, x4 is a temp reg.
  RVTEST_SIGUPD(x20, x5, x4, x27, I_sltiu_cg_cp_rs1_b9, I_sltiu_cg_cp_rs1_b9_str)
     1a8:	000a2203          	lw	x4,0(x20)
     1ac:	01b20863          	beq	x4,x27,1bc <I_sltiu_cg_cp_rs1_b9+0x18>
     1b0:	2ec032ef          	jal	x5,349c <failedtest_x5_x4>
     1b4:	000001a4          	.word	0x000001a4
     1b8:	00008877          	.word	0x00008877
     1bc:	004a0a13          	addi	x20,x20,4

# Testcase cp_rs1 (Test source rs1 = x10)
  RVTEST_TESTDATA_LOAD_INT(x1, x10) # load rs1: x10 = 0xeef6c945
     1c0:	0000a503          	lw	x10,0(x1)
     1c4:	00408093          	addi	x1,x1,4

000001c8 <I_sltiu_cg_cp_rs1_b10>:
I_sltiu_cg_cp_rs1_b10:
  sltiu x23, x10, 1308 # perform operation
     1c8:	51c53b93          	sltiu	x23,x10,1308
  # Check if x23 contains the expected result. x20 is the signature ptr, x5 is the link ptr, x4 is a temp reg.
  RVTEST_SIGUPD(x20, x5, x4, x23, I_sltiu_cg_cp_rs1_b10, I_sltiu_cg_cp_rs1_b10_str)
     1cc:	000a2203          	lw	x4,0(x20)
     1d0:	01720863          	beq	x4,x23,1e0 <I_sltiu_cg_cp_rs1_b10+0x18>
     1d4:	2c8032ef          	jal	x5,349c <failedtest_x5_x4>
     1d8:	000001c8          	.word	0x000001c8
     1dc:	000088a7          	.word	0x000088a7
     1e0:	004a0a13          	addi	x20,x20,4

# Testcase cp_rs1 (Test source rs1 = x11)
  RVTEST_TESTDATA_LOAD_INT(x1, x11) # load rs1: x11 = 0xda459775
     1e4:	0000a583          	lw	x11,0(x1)
     1e8:	00408093          	addi	x1,x1,4

000001ec <I_sltiu_cg_cp_rs1_b11>:
I_sltiu_cg_cp_rs1_b11:
  sltiu x29, x11, 1078 # perform operation
     1ec:	4365be93          	sltiu	x29,x11,1078
  # Check if x29 contains the expected result. x20 is the signature ptr, x5 is the link ptr, x4 is a temp reg.
  RVTEST_SIGUPD(x20, x5, x4, x29, I_sltiu_cg_cp_rs1_b11, I_sltiu_cg_cp_rs1_b11_str)
     1f0:	000a2203          	lw	x4,0(x20)
     1f4:	01d20863          	beq	x4,x29,204 <I_sltiu_cg_cp_rs1_b11+0x18>
     1f8:	2a4032ef          	jal	x5,349c <failedtest_x5_x4>
     1fc:	000001ec          	.word	0x000001ec
     200:	000088d8          	.word	0x000088d8
     204:	004a0a13          	addi	x20,x20,4

# Testcase cp_rs1 (Test source rs1 = x12)
  RVTEST_TESTDATA_LOAD_INT(x1, x12) # load rs1: x12 = 0x56fda1f0
     208:	0000a603          	lw	x12,0(x1)
     20c:	00408093          	addi	x1,x1,4

00000210 <I_sltiu_cg_cp_rs1_b12>:
I_sltiu_cg_cp_rs1_b12:
  sltiu x18, x12, -636 # perform operation
     210:	d8463913          	sltiu	x18,x12,-636
  # Check if x18 contains the expected result. x20 is the signature ptr, x5 is the link ptr, x4 is a temp reg.
  RVTEST_SIGUPD(x20, x5, x4, x18, I_sltiu_cg_cp_rs1_b12, I_sltiu_cg_cp_rs1_b12_str)
     214:	000a2203          	lw	x4,0(x20)
     218:	01220863          	beq	x4,x18,228 <I_sltiu_cg_cp_rs1_b12+0x18>
     21c:	280032ef          	jal	x5,349c <failedtest_x5_x4>
     220:	00000210          	.word	0x00000210
     224:	00008909          	.word	0x00008909
     228:	004a0a13          	addi	x20,x20,4

# Testcase cp_rs1 (Test source rs1 = x13)
  RVTEST_TESTDATA_LOAD_INT(x1, x13) # load rs1: x13 = 0x7796bc7b
     22c:	0000a683          	lw	x13,0(x1)
     230:	00408093          	addi	x1,x1,4

00000234 <I_sltiu_cg_cp_rs1_b13>:
I_sltiu_cg_cp_rs1_b13:
  sltiu x16, x13, -1602 # perform operation
     234:	9be6b813          	sltiu	x16,x13,-1602
  # Check if x16 contains the expected result. x20 is the signature ptr, x5 is the link ptr, x4 is a temp reg.
  RVTEST_SIGUPD(x20, x5, x4, x16, I_sltiu_cg_cp_rs1_b13, I_sltiu_cg_cp_rs1_b13_str)
     238:	000a2203          	lw	x4,0(x20)
     23c:	01020863          	beq	x4,x16,24c <I_sltiu_cg_cp_rs1_b13+0x18>
     240:	25c032ef          	jal	x5,349c <failedtest_x5_x4>
     244:	00000234          	.word	0x00000234
     248:	0000893a          	.word	0x0000893a
     24c:	004a0a13          	addi	x20,x20,4

# Testcase cp_rs1 (Test source rs1 = x14)
  RVTEST_TESTDATA_LOAD_INT(x1, x14) # load rs1: x14 = 0xaa604d53
     250:	0000a703          	lw	x14,0(x1)
     254:	00408093          	addi	x1,x1,4

00000258 <I_sltiu_cg_cp_rs1_b14>:
I_sltiu_cg_cp_rs1_b14:
  sltiu x6, x14, 288 # perform operation
     258:	12073313          	sltiu	x6,x14,288
  # Check if x6 contains the expected result. x20 is the signature ptr, x5 is the link ptr, x4 is a temp reg.
  RVTEST_SIGUPD(x20, x5, x4, x6, I_sltiu_cg_cp_rs1_b14, I_sltiu_cg_cp_rs1_b14_str)
     25c:	000a2203          	lw	x4,0(x20)
     260:	00620863          	beq	x4,x6,270 <I_sltiu_cg_cp_rs1_b14+0x18>
     264:	238032ef          	jal	x5,349c <failedtest_x5_x4>
     268:	00000258          	.word	0x00000258
     26c:	0000896b          	.word	0x0000896b
     270:	004a0a13          	addi	x20,x20,4

# Testcase cp_rs1 (Test source rs1 = x15)
  RVTEST_TESTDATA_LOAD_INT(x1, x15) # load rs1: x15 = 0xe02e2995
     274:	0000a783          	lw	x15,0(x1)
     278:	00408093          	addi	x1,x1,4

0000027c <I_sltiu_cg_cp_rs1_b15>:
I_sltiu_cg_cp_rs1_b15:
  sltiu x27, x15, -236 # perform operation
     27c:	f147bd93          	sltiu	x27,x15,-236
  # Check if x27 contains the expected result. x20 is the signature ptr, x5 is the link ptr, x4 is a temp reg.
  RVTEST_SIGUPD(x20, x5, x4, x27, I_sltiu_cg_cp_rs1_b15, I_sltiu_cg_cp_rs1_b15_str)
     280:	000a2203          	lw	x4,0(x20)
     284:	01b20863          	beq	x4,x27,294 <I_sltiu_cg_cp_rs1_b15+0x18>
     288:	214032ef          	jal	x5,349c <failedtest_x5_x4>
     28c:	0000027c          	.word	0x0000027c
     290:	0000899c          	.word	0x0000899c
     294:	004a0a13          	addi	x20,x20,4

# Testcase cp_rs1 (Test source rs1 = x16)
  RVTEST_TESTDATA_LOAD_INT(x1, x16) # load rs1: x16 = 0x4ec1e5bc
     298:	0000a803          	lw	x16,0(x1)
     29c:	00408093          	addi	x1,x1,4

000002a0 <I_sltiu_cg_cp_rs1_b16>:
I_sltiu_cg_cp_rs1_b16:
  sltiu x14, x16, -1679 # perform operation
     2a0:	97183713          	sltiu	x14,x16,-1679
  # Check if x14 contains the expected result. x20 is the signature ptr, x5 is the link ptr, x4 is a temp reg.
  RVTEST_SIGUPD(x20, x5, x4, x14, I_sltiu_cg_cp_rs1_b16, I_sltiu_cg_cp_rs1_b16_str)
     2a4:	000a2203          	lw	x4,0(x20)
     2a8:	00e20863          	beq	x4,x14,2b8 <I_sltiu_cg_cp_rs1_b16+0x18>
     2ac:	1f0032ef          	jal	x5,349c <failedtest_x5_x4>
     2b0:	000002a0          	.word	0x000002a0
     2b4:	000089cd          	.word	0x000089cd
     2b8:	004a0a13          	addi	x20,x20,4

# Testcase cp_rs1 (Test source rs1 = x17)
  RVTEST_TESTDATA_LOAD_INT(x1, x17) # load rs1: x17 = 0x79d6e4ed
     2bc:	0000a883          	lw	x17,0(x1)
     2c0:	00408093          	addi	x1,x1,4

000002c4 <I_sltiu_cg_cp_rs1_b17>:
I_sltiu_cg_cp_rs1_b17:
  sltiu x7, x17, -1635 # perform operation
     2c4:	99d8b393          	sltiu	x7,x17,-1635
  # Check if x7 contains the expected result. x20 is the signature ptr, x5 is the link ptr, x4 is a temp reg.
  RVTEST_SIGUPD(x20, x5, x4, x7, I_sltiu_cg_cp_rs1_b17, I_sltiu_cg_cp_rs1_b17_str)
     2c8:	000a2203          	lw	x4,0(x20)
     2cc:	00720863          	beq	x4,x7,2dc <I_sltiu_cg_cp_rs1_b17+0x18>
     2d0:	1cc032ef          	jal	x5,349c <failedtest_x5_x4>
     2d4:	000002c4          	.word	0x000002c4
     2d8:	000089fe          	.word	0x000089fe
     2dc:	004a0a13          	addi	x20,x20,4

# Testcase cp_rs1 (Test source rs1 = x18)
  RVTEST_TESTDATA_LOAD_INT(x1, x18) # load rs1: x18 = 0xcca2d58a
     2e0:	0000a903          	lw	x18,0(x1)
     2e4:	00408093          	addi	x1,x1,4

000002e8 <I_sltiu_cg_cp_rs1_b18>:
I_sltiu_cg_cp_rs1_b18:
  sltiu x26, x18, 1648 # perform operation
     2e8:	67093d13          	sltiu	x26,x18,1648
  # Check if x26 contains the expected result. x20 is the signature ptr, x5 is the link ptr, x4 is a temp reg.
  RVTEST_SIGUPD(x20, x5, x4, x26, I_sltiu_cg_cp_rs1_b18, I_sltiu_cg_cp_rs1_b18_str)
     2ec:	000a2203          	lw	x4,0(x20)
     2f0:	01a20863          	beq	x4,x26,300 <I_sltiu_cg_cp_rs1_b18+0x18>
     2f4:	1a8032ef          	jal	x5,349c <failedtest_x5_x4>
     2f8:	000002e8          	.word	0x000002e8
     2fc:	00008a2f          	.word	0x00008a2f
     300:	004a0a13          	addi	x20,x20,4

# Testcase cp_rs1 (Test source rs1 = x19)
  RVTEST_TESTDATA_LOAD_INT(x1, x19) # load rs1: x19 = 0xea3e0fe6
     304:	0000a983          	lw	x19,0(x1)
     308:	00408093          	addi	x1,x1,4

0000030c <I_sltiu_cg_cp_rs1_b19>:
I_sltiu_cg_cp_rs1_b19:
  sltiu x26, x19, -701 # perform operation
     30c:	d439bd13          	sltiu	x26,x19,-701
  # Check if x26 contains the expected result. x20 is the signature ptr, x5 is the link ptr, x4 is a temp reg.
  RVTEST_SIGUPD(x20, x5, x4, x26, I_sltiu_cg_cp_rs1_b19, I_sltiu_cg_cp_rs1_b19_str)
     310:	000a2203          	lw	x4,0(x20)
     314:	01a20863          	beq	x4,x26,324 <I_sltiu_cg_cp_rs1_b19+0x18>
     318:	184032ef          	jal	x5,349c <failedtest_x5_x4>
     31c:	0000030c          	.word	0x0000030c
     320:	00008a60          	.word	0x00008a60
     324:	004a0a13          	addi	x20,x20,4

  mv x19, x20 # switch signature pointer register to avoid conflict with test
     328:	000a0993          	addi	x19,x20,0
# Testcase cp_rs1 (Test source rs1 = x20)
  RVTEST_TESTDATA_LOAD_INT(x1, x20) # load rs1: x20 = 0x8be1a001
     32c:	0000aa03          	lw	x20,0(x1)
     330:	00408093          	addi	x1,x1,4

00000334 <I_sltiu_cg_cp_rs1_b20>:
I_sltiu_cg_cp_rs1_b20:
  sltiu x9, x20, -574 # perform operation
     334:	dc2a3493          	sltiu	x9,x20,-574
  # Check if x9 contains the expected result. x19 is the signature ptr, x5 is the link ptr, x4 is a temp reg.
  RVTEST_SIGUPD(x19, x5, x4, x9, I_sltiu_cg_cp_rs1_b20, I_sltiu_cg_cp_rs1_b20_str)
     338:	0009a203          	lw	x4,0(x19)
     33c:	00920863          	beq	x4,x9,34c <I_sltiu_cg_cp_rs1_b20+0x18>
     340:	15c032ef          	jal	x5,349c <failedtest_x5_x4>
     344:	00000334          	.word	0x00000334
     348:	00008a91          	.word	0x00008a91
     34c:	00498993          	addi	x19,x19,4

# Testcase cp_rs1 (Test source rs1 = x21)
  RVTEST_TESTDATA_LOAD_INT(x1, x21) # load rs1: x21 = 0x50451747
     350:	0000aa83          	lw	x21,0(x1)
     354:	00408093          	addi	x1,x1,4

00000358 <I_sltiu_cg_cp_rs1_b21>:
I_sltiu_cg_cp_rs1_b21:
  sltiu x17, x21, 237 # perform operation
     358:	0edab893          	sltiu	x17,x21,237
  # Check if x17 contains the expected result. x19 is the signature ptr, x5 is the link ptr, x4 is a temp reg.
  RVTEST_SIGUPD(x19, x5, x4, x17, I_sltiu_cg_cp_rs1_b21, I_sltiu_cg_cp_rs1_b21_str)
     35c:	0009a203          	lw	x4,0(x19)
     360:	01120863          	beq	x4,x17,370 <I_sltiu_cg_cp_rs1_b21+0x18>
     364:	138032ef          	jal	x5,349c <failedtest_x5_x4>
     368:	00000358          	.word	0x00000358
     36c:	00008ac2          	.word	0x00008ac2
     370:	00498993          	addi	x19,x19,4

# Testcase cp_rs1 (Test source rs1 = x22)
  RVTEST_TESTDATA_LOAD_INT(x1, x22) # load rs1: x22 = 0xf80dbb4a
     374:	0000ab03          	lw	x22,0(x1)
     378:	00408093          	addi	x1,x1,4

0000037c <I_sltiu_cg_cp_rs1_b22>:
I_sltiu_cg_cp_rs1_b22:
  sltiu x16, x22, -33 # perform operation
     37c:	fdfb3813          	sltiu	x16,x22,-33
  # Check if x16 contains the expected result. x19 is the signature ptr, x5 is the link ptr, x4 is a temp reg.
  RVTEST_SIGUPD(x19, x5, x4, x16, I_sltiu_cg_cp_rs1_b22, I_sltiu_cg_cp_rs1_b22_str)
     380:	0009a203          	lw	x4,0(x19)
     384:	01020863          	beq	x4,x16,394 <I_sltiu_cg_cp_rs1_b22+0x18>
     388:	114032ef          	jal	x5,349c <failedtest_x5_x4>
     38c:	0000037c          	.word	0x0000037c
     390:	00008af3          	.word	0x00008af3
     394:	00498993          	addi	x19,x19,4

# Testcase cp_rs1 (Test source rs1 = x23)
  RVTEST_TESTDATA_LOAD_INT(x1, x23) # load rs1: x23 = 0xf8f39a1a
     398:	0000ab83          	lw	x23,0(x1)
     39c:	00408093          	addi	x1,x1,4

000003a0 <I_sltiu_cg_cp_rs1_b23>:
I_sltiu_cg_cp_rs1_b23:
  sltiu x18, x23, -1738 # perform operation
     3a0:	936bb913          	sltiu	x18,x23,-1738
  # Check if x18 contains the expected result. x19 is the signature ptr, x5 is the link ptr, x4 is a temp reg.
  RVTEST_SIGUPD(x19, x5, x4, x18, I_sltiu_cg_cp_rs1_b23, I_sltiu_cg_cp_rs1_b23_str)
     3a4:	0009a203          	lw	x4,0(x19)
     3a8:	01220863          	beq	x4,x18,3b8 <I_sltiu_cg_cp_rs1_b23+0x18>
     3ac:	0f0032ef          	jal	x5,349c <failedtest_x5_x4>
     3b0:	000003a0          	.word	0x000003a0
     3b4:	00008b24          	.word	0x00008b24
     3b8:	00498993          	addi	x19,x19,4

# Testcase cp_rs1 (Test source rs1 = x24)
  RVTEST_TESTDATA_LOAD_INT(x1, x24) # load rs1: x24 = 0xcbababed
     3bc:	0000ac03          	lw	x24,0(x1)
     3c0:	00408093          	addi	x1,x1,4

000003c4 <I_sltiu_cg_cp_rs1_b24>:
I_sltiu_cg_cp_rs1_b24:
  sltiu x25, x24, -1877 # perform operation
     3c4:	8abc3c93          	sltiu	x25,x24,-1877
  # Check if x25 contains the expected result. x19 is the signature ptr, x5 is the link ptr, x4 is a temp reg.
  RVTEST_SIGUPD(x19, x5, x4, x25, I_sltiu_cg_cp_rs1_b24, I_sltiu_cg_cp_rs1_b24_str)
     3c8:	0009a203          	lw	x4,0(x19)
     3cc:	01920863          	beq	x4,x25,3dc <I_sltiu_cg_cp_rs1_b24+0x18>
     3d0:	0cc032ef          	jal	x5,349c <failedtest_x5_x4>
     3d4:	000003c4          	.word	0x000003c4
     3d8:	00008b55          	.word	0x00008b55
     3dc:	00498993          	addi	x19,x19,4

# Testcase cp_rs1 (Test source rs1 = x25)
  RVTEST_TESTDATA_LOAD_INT(x1, x25) # load rs1: x25 = 0x01418510
     3e0:	0000ac83          	lw	x25,0(x1)
     3e4:	00408093          	addi	x1,x1,4

000003e8 <I_sltiu_cg_cp_rs1_b25>:
I_sltiu_cg_cp_rs1_b25:
  sltiu x16, x25, 1159 # perform operation
     3e8:	487cb813          	sltiu	x16,x25,1159
  # Check if x16 contains the expected result. x19 is the signature ptr, x5 is the link ptr, x4 is a temp reg.
  RVTEST_SIGUPD(x19, x5, x4, x16, I_sltiu_cg_cp_rs1_b25, I_sltiu_cg_cp_rs1_b25_str)
     3ec:	0009a203          	lw	x4,0(x19)
     3f0:	01020863          	beq	x4,x16,400 <I_sltiu_cg_cp_rs1_b25+0x18>
     3f4:	0a8032ef          	jal	x5,349c <failedtest_x5_x4>
     3f8:	000003e8          	.word	0x000003e8
     3fc:	00008b86          	.word	0x00008b86
     400:	00498993          	addi	x19,x19,4

# Testcase cp_rs1 (Test source rs1 = x26)
  RVTEST_TESTDATA_LOAD_INT(x1, x26) # load rs1: x26 = 0x93b91cd0
     404:	0000ad03          	lw	x26,0(x1)
     408:	00408093          	addi	x1,x1,4

0000040c <I_sltiu_cg_cp_rs1_b26>:
I_sltiu_cg_cp_rs1_b26:
  sltiu x12, x26, -954 # perform operation
     40c:	c46d3613          	sltiu	x12,x26,-954
  # Check if x12 contains the expected result. x19 is the signature ptr, x5 is the link ptr, x4 is a temp reg.
  RVTEST_SIGUPD(x19, x5, x4, x12, I_sltiu_cg_cp_rs1_b26, I_sltiu_cg_cp_rs1_b26_str)
     410:	0009a203          	lw	x4,0(x19)
     414:	00c20863          	beq	x4,x12,424 <I_sltiu_cg_cp_rs1_b26+0x18>
     418:	084032ef          	jal	x5,349c <failedtest_x5_x4>
     41c:	0000040c          	.word	0x0000040c
     420:	00008bb7          	.word	0x00008bb7
     424:	00498993          	addi	x19,x19,4

# Testcase cp_rs1 (Test source rs1 = x27)
  RVTEST_TESTDATA_LOAD_INT(x1, x27) # load rs1: x27 = 0x1edd43cd
     428:	0000ad83          	lw	x27,0(x1)
     42c:	00408093          	addi	x1,x1,4

00000430 <I_sltiu_cg_cp_rs1_b27>:
I_sltiu_cg_cp_rs1_b27:
  sltiu x9, x27, -871 # perform operation
     430:	c99db493          	sltiu	x9,x27,-871
  # Check if x9 contains the expected result. x19 is the signature ptr, x5 is the link ptr, x4 is a temp reg.
  RVTEST_SIGUPD(x19, x5, x4, x9, I_sltiu_cg_cp_rs1_b27, I_sltiu_cg_cp_rs1_b27_str)
     434:	0009a203          	lw	x4,0(x19)
     438:	00920863          	beq	x4,x9,448 <I_sltiu_cg_cp_rs1_b27+0x18>
     43c:	060032ef          	jal	x5,349c <failedtest_x5_x4>
     440:	00000430          	.word	0x00000430
     444:	00008be8          	.word	0x00008be8
     448:	00498993          	addi	x19,x19,4

# Testcase cp_rs1 (Test source rs1 = x28)
  RVTEST_TESTDATA_LOAD_INT(x1, x28) # load rs1: x28 = 0xf36da2c7
     44c:	0000ae03          	lw	x28,0(x1)
     450:	00408093          	addi	x1,x1,4

00000454 <I_sltiu_cg_cp_rs1_b28>:
I_sltiu_cg_cp_rs1_b28:
  sltiu x13, x28, 1473 # perform operation
     454:	5c1e3693          	sltiu	x13,x28,1473
  # Check if x13 contains the expected result. x19 is the signature ptr, x5 is the link ptr, x4 is a temp reg.
  RVTEST_SIGUPD(x19, x5, x4, x13, I_sltiu_cg_cp_rs1_b28, I_sltiu_cg_cp_rs1_b28_str)
     458:	0009a203          	lw	x4,0(x19)
     45c:	00d20863          	beq	x4,x13,46c <I_sltiu_cg_cp_rs1_b28+0x18>
     460:	03c032ef          	jal	x5,349c <failedtest_x5_x4>
     464:	00000454          	.word	0x00000454
     468:	00008c19          	.word	0x00008c19
     46c:	00498993          	addi	x19,x19,4

# Testcase cp_rs1 (Test source rs1 = x29)
  RVTEST_TESTDATA_LOAD_INT(x1, x29) # load rs1: x29 = 0x6f89140b
     470:	0000ae83          	lw	x29,0(x1)
     474:	00408093          	addi	x1,x1,4

00000478 <I_sltiu_cg_cp_rs1_b29>:
I_sltiu_cg_cp_rs1_b29:
  sltiu x23, x29, 671 # perform operation
     478:	29febb93          	sltiu	x23,x29,671
  # Check if x23 contains the expected result. x19 is the signature ptr, x5 is the link ptr, x4 is a temp reg.
  RVTEST_SIGUPD(x19, x5, x4, x23, I_sltiu_cg_cp_rs1_b29, I_sltiu_cg_cp_rs1_b29_str)
     47c:	0009a203          	lw	x4,0(x19)
     480:	01720863          	beq	x4,x23,490 <I_sltiu_cg_cp_rs1_b29+0x18>
     484:	018032ef          	jal	x5,349c <failedtest_x5_x4>
     488:	00000478          	.word	0x00000478
     48c:	00008c4a          	.word	0x00008c4a
     490:	00498993          	addi	x19,x19,4

# Testcase cp_rs1 (Test source rs1 = x30)
  RVTEST_TESTDATA_LOAD_INT(x1, x30) # load rs1: x30 = 0x935500f3
     494:	0000af03          	lw	x30,0(x1)
     498:	00408093          	addi	x1,x1,4

0000049c <I_sltiu_cg_cp_rs1_b30>:
I_sltiu_cg_cp_rs1_b30:
  sltiu x20, x30, -1416 # perform operation
     49c:	a78f3a13          	sltiu	x20,x30,-1416
  # Check if x20 contains the expected result. x19 is the signature ptr, x5 is the link ptr, x4 is a temp reg.
  RVTEST_SIGUPD(x19, x5, x4, x20, I_sltiu_cg_cp_rs1_b30, I_sltiu_cg_cp_rs1_b30_str)
     4a0:	0009a203          	lw	x4,0(x19)
     4a4:	01420863          	beq	x4,x20,4b4 <I_sltiu_cg_cp_rs1_b30+0x18>
     4a8:	7f5022ef          	jal	x5,349c <failedtest_x5_x4>
     4ac:	0000049c          	.word	0x0000049c
     4b0:	00008c7b          	.word	0x00008c7b
     4b4:	00498993          	addi	x19,x19,4

# Testcase cp_rs1 (Test source rs1 = x31)
  RVTEST_TESTDATA_LOAD_INT(x1, x31) # load rs1: x31 = 0x647a2819
     4b8:	0000af83          	lw	x31,0(x1)
     4bc:	00408093          	addi	x1,x1,4

000004c0 <I_sltiu_cg_cp_rs1_b31>:
I_sltiu_cg_cp_rs1_b31:
  sltiu x14, x31, -1798 # perform operation
     4c0:	8fafb713          	sltiu	x14,x31,-1798
  # Check if x14 contains the expected result. x19 is the signature ptr, x5 is the link ptr, x4 is a temp reg.
  RVTEST_SIGUPD(x19, x5, x4, x14, I_sltiu_cg_cp_rs1_b31, I_sltiu_cg_cp_rs1_b31_str)
     4c4:	0009a203          	lw	x4,0(x19)
     4c8:	00e20863          	beq	x4,x14,4d8 <I_sltiu_cg_cp_rs1_b31+0x18>
     4cc:	7d1022ef          	jal	x5,349c <failedtest_x5_x4>
     4d0:	000004c0          	.word	0x000004c0
     4d4:	00008cac          	.word	0x00008cac
     4d8:	00498993          	addi	x19,x19,4
/////////////////////////////////
// cp_rd
/////////////////////////////////

# Testcase cp_rd (Test destination rd = x0)
  RVTEST_TESTDATA_LOAD_INT(x1, x3) # load rs1: x3 = 0x3d42acb8
     4dc:	0000a183          	lw	x3,0(x1)
     4e0:	00408093          	addi	x1,x1,4

000004e4 <I_sltiu_cg_cp_rd_b0>:
I_sltiu_cg_cp_rd_b0:
  sltiu x0, x3, 1048 # perform operation
     4e4:	4181b013          	sltiu	x0,x3,1048
  # Check if x0 contains the expected result. x19 is the signature ptr, x5 is the link ptr, x4 is a temp reg.
  RVTEST_SIGUPD(x19, x5, x4, x0, I_sltiu_cg_cp_rd_b0, I_sltiu_cg_cp_rd_b0_str)
     4e8:	0009a203          	lw	x4,0(x19)
     4ec:	00020863          	beq	x4,x0,4fc <I_sltiu_cg_cp_rd_b0+0x18>
     4f0:	7ad022ef          	jal	x5,349c <failedtest_x5_x4>
     4f4:	000004e4          	.word	0x000004e4
     4f8:	00008cdd          	.word	0x00008cdd
     4fc:	00498993          	addi	x19,x19,4

  mv x9, x1 # switch data pointer register to avoid conflict with test
     500:	00008493          	addi	x9,x1,0
# Testcase cp_rd (Test destination rd = x1)
  RVTEST_TESTDATA_LOAD_INT(x9, x22) # load rs1: x22 = 0x8110d4df
     504:	0004ab03          	lw	x22,0(x9)
     508:	00448493          	addi	x9,x9,4

0000050c <I_sltiu_cg_cp_rd_b1>:
I_sltiu_cg_cp_rd_b1:
  sltiu x1, x22, -1770 # perform operation
     50c:	916b3093          	sltiu	x1,x22,-1770
  # Check if x1 contains the expected result. x19 is the signature ptr, x5 is the link ptr, x4 is a temp reg.
  RVTEST_SIGUPD(x19, x5, x4, x1, I_sltiu_cg_cp_rd_b1, I_sltiu_cg_cp_rd_b1_str)
     510:	0009a203          	lw	x4,0(x19)
     514:	00120863          	beq	x4,x1,524 <I_sltiu_cg_cp_rd_b1+0x18>
     518:	785022ef          	jal	x5,349c <failedtest_x5_x4>
     51c:	0000050c          	.word	0x0000050c
     520:	00008d0c          	.word	0x00008d0c
     524:	00498993          	addi	x19,x19,4

# Testcase cp_rd (Test destination rd = x2)
  RVTEST_TESTDATA_LOAD_INT(x9, x28) # load rs1: x28 = 0xbc132aab
     528:	0004ae03          	lw	x28,0(x9)
     52c:	00448493          	addi	x9,x9,4

00000530 <I_sltiu_cg_cp_rd_b2>:
I_sltiu_cg_cp_rd_b2:
  sltiu x2, x28, 1471 # perform operation
     530:	5bfe3113          	sltiu	x2,x28,1471
  # Check if x2 contains the expected result. x19 is the signature ptr, x5 is the link ptr, x4 is a temp reg.
  RVTEST_SIGUPD(x19, x5, x4, x2, I_sltiu_cg_cp_rd_b2, I_sltiu_cg_cp_rd_b2_str)
     534:	0009a203          	lw	x4,0(x19)
     538:	00220863          	beq	x4,x2,548 <I_sltiu_cg_cp_rd_b2+0x18>
     53c:	761022ef          	jal	x5,349c <failedtest_x5_x4>
     540:	00000530          	.word	0x00000530
     544:	00008d3b          	.word	0x00008d3b
     548:	00498993          	addi	x19,x19,4

# Testcase cp_rd (Test destination rd = x3)
  RVTEST_TESTDATA_LOAD_INT(x9, x21) # load rs1: x21 = 0x0572aacb
     54c:	0004aa83          	lw	x21,0(x9)
     550:	00448493          	addi	x9,x9,4

00000554 <I_sltiu_cg_cp_rd_b3>:
I_sltiu_cg_cp_rd_b3:
  sltiu x3, x21, 1628 # perform operation
     554:	65cab193          	sltiu	x3,x21,1628
  # Check if x3 contains the expected result. x19 is the signature ptr, x5 is the link ptr, x4 is a temp reg.
  RVTEST_SIGUPD(x19, x5, x4, x3, I_sltiu_cg_cp_rd_b3, I_sltiu_cg_cp_rd_b3_str)
     558:	0009a203          	lw	x4,0(x19)
     55c:	00320863          	beq	x4,x3,56c <I_sltiu_cg_cp_rd_b3+0x18>
     560:	73d022ef          	jal	x5,349c <failedtest_x5_x4>
     564:	00000554          	.word	0x00000554
     568:	00008d6a          	.word	0x00008d6a
     56c:	00498993          	addi	x19,x19,4

  mv x13, x4 # switch temp register to avoid conflict with test
     570:	00020693          	addi	x13,x4,0 # 0 <rvtest_entry_point>
  mv x14, x5 # switch link pointer register to avoid conflict with test
     574:	00028713          	addi	x14,x5,0
# Testcase cp_rd (Test destination rd = x4)
  RVTEST_TESTDATA_LOAD_INT(x9, x1) # load rs1: x1 = 0xfbfe258b
     578:	0004a083          	lw	x1,0(x9)
     57c:	00448493          	addi	x9,x9,4

00000580 <I_sltiu_cg_cp_rd_b4>:
I_sltiu_cg_cp_rd_b4:
  sltiu x4, x1, -532 # perform operation
     580:	dec0b213          	sltiu	x4,x1,-532
  # Check if x4 contains the expected result. x19 is the signature ptr, x14 is the link ptr, x13 is a temp reg.
  RVTEST_SIGUPD(x19, x14, x13, x4, I_sltiu_cg_cp_rd_b4, I_sltiu_cg_cp_rd_b4_str)
     584:	0009a683          	lw	x13,0(x19)
     588:	00468863          	beq	x13,x4,598 <I_sltiu_cg_cp_rd_b4+0x18>
     58c:	7510276f          	jal	x14,34dc <failedtest_x14_x13>
     590:	00000580          	.word	0x00000580
     594:	00008d99          	.word	0x00008d99
     598:	00498993          	addi	x19,x19,4

# Testcase cp_rd (Test destination rd = x5)
  RVTEST_TESTDATA_LOAD_INT(x9, x12) # load rs1: x12 = 0x0906d9f5
     59c:	0004a603          	lw	x12,0(x9)
     5a0:	00448493          	addi	x9,x9,4

000005a4 <I_sltiu_cg_cp_rd_b5>:
I_sltiu_cg_cp_rd_b5:
  sltiu x5, x12, 869 # perform operation
     5a4:	36563293          	sltiu	x5,x12,869
  # Check if x5 contains the expected result. x19 is the signature ptr, x14 is the link ptr, x13 is a temp reg.
  RVTEST_SIGUPD(x19, x14, x13, x5, I_sltiu_cg_cp_rd_b5, I_sltiu_cg_cp_rd_b5_str)
     5a8:	0009a683          	lw	x13,0(x19)
     5ac:	00568863          	beq	x13,x5,5bc <I_sltiu_cg_cp_rd_b5+0x18>
     5b0:	72d0276f          	jal	x14,34dc <failedtest_x14_x13>
     5b4:	000005a4          	.word	0x000005a4
     5b8:	00008dc8          	.word	0x00008dc8
     5bc:	00498993          	addi	x19,x19,4

# Testcase cp_rd (Test destination rd = x6)
  RVTEST_TESTDATA_LOAD_INT(x9, x17) # load rs1: x17 = 0x61b27aac
     5c0:	0004a883          	lw	x17,0(x9)
     5c4:	00448493          	addi	x9,x9,4

000005c8 <I_sltiu_cg_cp_rd_b6>:
I_sltiu_cg_cp_rd_b6:
  sltiu x6, x17, -1759 # perform operation
     5c8:	9218b313          	sltiu	x6,x17,-1759
  # Check if x6 contains the expected result. x19 is the signature ptr, x14 is the link ptr, x13 is a temp reg.
  RVTEST_SIGUPD(x19, x14, x13, x6, I_sltiu_cg_cp_rd_b6, I_sltiu_cg_cp_rd_b6_str)
     5cc:	0009a683          	lw	x13,0(x19)
     5d0:	00668863          	beq	x13,x6,5e0 <I_sltiu_cg_cp_rd_b6+0x18>
     5d4:	7090276f          	jal	x14,34dc <failedtest_x14_x13>
     5d8:	000005c8          	.word	0x000005c8
     5dc:	00008df7          	.word	0x00008df7
     5e0:	00498993          	addi	x19,x19,4

# Testcase cp_rd (Test destination rd = x7)
  RVTEST_TESTDATA_LOAD_INT(x9, x5) # load rs1: x5 = 0xde9f6b38
     5e4:	0004a283          	lw	x5,0(x9)
     5e8:	00448493          	addi	x9,x9,4

000005ec <I_sltiu_cg_cp_rd_b7>:
I_sltiu_cg_cp_rd_b7:
  sltiu x7, x5, -51 # perform operation
     5ec:	fcd2b393          	sltiu	x7,x5,-51
  # Check if x7 contains the expected result. x19 is the signature ptr, x14 is the link ptr, x13 is a temp reg.
  RVTEST_SIGUPD(x19, x14, x13, x7, I_sltiu_cg_cp_rd_b7, I_sltiu_cg_cp_rd_b7_str)
     5f0:	0009a683          	lw	x13,0(x19)
     5f4:	00768863          	beq	x13,x7,604 <I_sltiu_cg_cp_rd_b7+0x18>
     5f8:	6e50276f          	jal	x14,34dc <failedtest_x14_x13>
     5fc:	000005ec          	.word	0x000005ec
     600:	00008e26          	.word	0x00008e26
     604:	00498993          	addi	x19,x19,4

# Testcase cp_rd (Test destination rd = x8)
  RVTEST_TESTDATA_LOAD_INT(x9, x22) # load rs1: x22 = 0x7594d503
     608:	0004ab03          	lw	x22,0(x9)
     60c:	00448493          	addi	x9,x9,4

00000610 <I_sltiu_cg_cp_rd_b8>:
I_sltiu_cg_cp_rd_b8:
  sltiu x8, x22, -124 # perform operation
     610:	f84b3413          	sltiu	x8,x22,-124
  # Check if x8 contains the expected result. x19 is the signature ptr, x14 is the link ptr, x13 is a temp reg.
  RVTEST_SIGUPD(x19, x14, x13, x8, I_sltiu_cg_cp_rd_b8, I_sltiu_cg_cp_rd_b8_str)
     614:	0009a683          	lw	x13,0(x19)
     618:	00868863          	beq	x13,x8,628 <I_sltiu_cg_cp_rd_b8+0x18>
     61c:	6c10276f          	jal	x14,34dc <failedtest_x14_x13>
     620:	00000610          	.word	0x00000610
     624:	00008e55          	.word	0x00008e55
     628:	00498993          	addi	x19,x19,4

  mv x1, x9 # switch data pointer register to avoid conflict with test
     62c:	00048093          	addi	x1,x9,0
# Testcase cp_rd (Test destination rd = x9)
  RVTEST_TESTDATA_LOAD_INT(x1, x6) # load rs1: x6 = 0x5feb13ae
     630:	0000a303          	lw	x6,0(x1)
     634:	00408093          	addi	x1,x1,4

00000638 <I_sltiu_cg_cp_rd_b9>:
I_sltiu_cg_cp_rd_b9:
  sltiu x9, x6, 472 # perform operation
     638:	1d833493          	sltiu	x9,x6,472
  # Check if x9 contains the expected result. x19 is the signature ptr, x14 is the link ptr, x13 is a temp reg.
  RVTEST_SIGUPD(x19, x14, x13, x9, I_sltiu_cg_cp_rd_b9, I_sltiu_cg_cp_rd_b9_str)
     63c:	0009a683          	lw	x13,0(x19)
     640:	00968863          	beq	x13,x9,650 <I_sltiu_cg_cp_rd_b9+0x18>
     644:	6990276f          	jal	x14,34dc <failedtest_x14_x13>
     648:	00000638          	.word	0x00000638
     64c:	00008e84          	.word	0x00008e84
     650:	00498993          	addi	x19,x19,4

# Testcase cp_rd (Test destination rd = x10)
  RVTEST_TESTDATA_LOAD_INT(x1, x2) # load rs1: x2 = 0x382fcc9d
     654:	0000a103          	lw	x2,0(x1)
     658:	00408093          	addi	x1,x1,4

0000065c <I_sltiu_cg_cp_rd_b10>:
I_sltiu_cg_cp_rd_b10:
  sltiu x10, x2, 1301 # perform operation
     65c:	51513513          	sltiu	x10,x2,1301
  # Check if x10 contains the expected result. x19 is the signature ptr, x14 is the link ptr, x13 is a temp reg.
  RVTEST_SIGUPD(x19, x14, x13, x10, I_sltiu_cg_cp_rd_b10, I_sltiu_cg_cp_rd_b10_str)
     660:	0009a683          	lw	x13,0(x19)
     664:	00a68863          	beq	x13,x10,674 <I_sltiu_cg_cp_rd_b10+0x18>
     668:	6750276f          	jal	x14,34dc <failedtest_x14_x13>
     66c:	0000065c          	.word	0x0000065c
     670:	00008eb3          	.word	0x00008eb3
     674:	00498993          	addi	x19,x19,4

# Testcase cp_rd (Test destination rd = x11)
  RVTEST_TESTDATA_LOAD_INT(x1, x21) # load rs1: x21 = 0x12fef087
     678:	0000aa83          	lw	x21,0(x1)
     67c:	00408093          	addi	x1,x1,4

00000680 <I_sltiu_cg_cp_rd_b11>:
I_sltiu_cg_cp_rd_b11:
  sltiu x11, x21, -972 # perform operation
     680:	c34ab593          	sltiu	x11,x21,-972
  # Check if x11 contains the expected result. x19 is the signature ptr, x14 is the link ptr, x13 is a temp reg.
  RVTEST_SIGUPD(x19, x14, x13, x11, I_sltiu_cg_cp_rd_b11, I_sltiu_cg_cp_rd_b11_str)
     684:	0009a683          	lw	x13,0(x19)
     688:	00b68863          	beq	x13,x11,698 <I_sltiu_cg_cp_rd_b11+0x18>
     68c:	6510276f          	jal	x14,34dc <failedtest_x14_x13>
     690:	00000680          	.word	0x00000680
     694:	00008ee3          	.word	0x00008ee3
     698:	00498993          	addi	x19,x19,4

# Testcase cp_rd (Test destination rd = x12)
  RVTEST_TESTDATA_LOAD_INT(x1, x8) # load rs1: x8 = 0x74a6c9bb
     69c:	0000a403          	lw	x8,0(x1)
     6a0:	00408093          	addi	x1,x1,4

000006a4 <I_sltiu_cg_cp_rd_b12>:
I_sltiu_cg_cp_rd_b12:
  sltiu x12, x8, 1073 # perform operation
     6a4:	43143613          	sltiu	x12,x8,1073
  # Check if x12 contains the expected result. x19 is the signature ptr, x14 is the link ptr, x13 is a temp reg.
  RVTEST_SIGUPD(x19, x14, x13, x12, I_sltiu_cg_cp_rd_b12, I_sltiu_cg_cp_rd_b12_str)
     6a8:	0009a683          	lw	x13,0(x19)
     6ac:	00c68863          	beq	x13,x12,6bc <I_sltiu_cg_cp_rd_b12+0x18>
     6b0:	62d0276f          	jal	x14,34dc <failedtest_x14_x13>
     6b4:	000006a4          	.word	0x000006a4
     6b8:	00008f13          	.word	0x00008f13
     6bc:	00498993          	addi	x19,x19,4

  mv x7, x13 # switch temp register to avoid conflict with test
     6c0:	00068393          	addi	x7,x13,0
  mv x8, x14 # switch link pointer register to avoid conflict with test
     6c4:	00070413          	addi	x8,x14,0
# Testcase cp_rd (Test destination rd = x13)
  RVTEST_TESTDATA_LOAD_INT(x1, x14) # load rs1: x14 = 0xf22ab94b
     6c8:	0000a703          	lw	x14,0(x1)
     6cc:	00408093          	addi	x1,x1,4

000006d0 <I_sltiu_cg_cp_rd_b13>:
I_sltiu_cg_cp_rd_b13:
  sltiu x13, x14, -1526 # perform operation
     6d0:	a0a73693          	sltiu	x13,x14,-1526
  # Check if x13 contains the expected result. x19 is the signature ptr, x8 is the link ptr, x7 is a temp reg.
  RVTEST_SIGUPD(x19, x8, x7, x13, I_sltiu_cg_cp_rd_b13, I_sltiu_cg_cp_rd_b13_str)
     6d4:	0009a383          	lw	x7,0(x19)
     6d8:	00d38863          	beq	x7,x13,6e8 <I_sltiu_cg_cp_rd_b13+0x18>
     6dc:	5d90246f          	jal	x8,34b4 <failedtest_x8_x7>
     6e0:	000006d0          	.word	0x000006d0
     6e4:	00008f43          	.word	0x00008f43
     6e8:	00498993          	addi	x19,x19,4

# Testcase cp_rd (Test destination rd = x14)
  RVTEST_TESTDATA_LOAD_INT(x1, x31) # load rs1: x31 = 0x13791787
     6ec:	0000af83          	lw	x31,0(x1)
     6f0:	00408093          	addi	x1,x1,4

000006f4 <I_sltiu_cg_cp_rd_b14>:
I_sltiu_cg_cp_rd_b14:
  sltiu x14, x31, -465 # perform operation
     6f4:	e2ffb713          	sltiu	x14,x31,-465
  # Check if x14 contains the expected result. x19 is the signature ptr, x8 is the link ptr, x7 is a temp reg.
  RVTEST_SIGUPD(x19, x8, x7, x14, I_sltiu_cg_cp_rd_b14, I_sltiu_cg_cp_rd_b14_str)
     6f8:	0009a383          	lw	x7,0(x19)
     6fc:	00e38863          	beq	x7,x14,70c <I_sltiu_cg_cp_rd_b14+0x18>
     700:	5b50246f          	jal	x8,34b4 <failedtest_x8_x7>
     704:	000006f4          	.word	0x000006f4
     708:	00008f73          	.word	0x00008f73
     70c:	00498993          	addi	x19,x19,4

# Testcase cp_rd (Test destination rd = x15)
  RVTEST_TESTDATA_LOAD_INT(x1, x22) # load rs1: x22 = 0xe21b2afe
     710:	0000ab03          	lw	x22,0(x1)
     714:	00408093          	addi	x1,x1,4

00000718 <I_sltiu_cg_cp_rd_b15>:
I_sltiu_cg_cp_rd_b15:
  sltiu x15, x22, 1195 # perform operation
     718:	4abb3793          	sltiu	x15,x22,1195
  # Check if x15 contains the expected result. x19 is the signature ptr, x8 is the link ptr, x7 is a temp reg.
  RVTEST_SIGUPD(x19, x8, x7, x15, I_sltiu_cg_cp_rd_b15, I_sltiu_cg_cp_rd_b15_str)
     71c:	0009a383          	lw	x7,0(x19)
     720:	00f38863          	beq	x7,x15,730 <I_sltiu_cg_cp_rd_b15+0x18>
     724:	5910246f          	jal	x8,34b4 <failedtest_x8_x7>
     728:	00000718          	.word	0x00000718
     72c:	00008fa3          	.word	0x00008fa3
     730:	00498993          	addi	x19,x19,4

# Testcase cp_rd (Test destination rd = x16)
  RVTEST_TESTDATA_LOAD_INT(x1, x0) # load rs1: x0 = 0x59c07162
     734:	0000a003          	lw	x0,0(x1)
     738:	00408093          	addi	x1,x1,4

0000073c <I_sltiu_cg_cp_rd_b16>:
I_sltiu_cg_cp_rd_b16:
  sltiu x16, x0, 1918 # perform operation
     73c:	77e03813          	sltiu	x16,x0,1918
  # Check if x16 contains the expected result. x19 is the signature ptr, x8 is the link ptr, x7 is a temp reg.
  RVTEST_SIGUPD(x19, x8, x7, x16, I_sltiu_cg_cp_rd_b16, I_sltiu_cg_cp_rd_b16_str)
     740:	0009a383          	lw	x7,0(x19)
     744:	01038863          	beq	x7,x16,754 <I_sltiu_cg_cp_rd_b16+0x18>
     748:	56d0246f          	jal	x8,34b4 <failedtest_x8_x7>
     74c:	0000073c          	.word	0x0000073c
     750:	00008fd3          	.word	0x00008fd3
     754:	00498993          	addi	x19,x19,4

# Testcase cp_rd (Test destination rd = x17)
  RVTEST_TESTDATA_LOAD_INT(x1, x5) # load rs1: x5 = 0xd42604ca
     758:	0000a283          	lw	x5,0(x1)
     75c:	00408093          	addi	x1,x1,4

00000760 <I_sltiu_cg_cp_rd_b17>:
I_sltiu_cg_cp_rd_b17:
  sltiu x17, x5, -527 # perform operation
     760:	df12b893          	sltiu	x17,x5,-527
  # Check if x17 contains the expected result. x19 is the signature ptr, x8 is the link ptr, x7 is a temp reg.
  RVTEST_SIGUPD(x19, x8, x7, x17, I_sltiu_cg_cp_rd_b17, I_sltiu_cg_cp_rd_b17_str)
     764:	0009a383          	lw	x7,0(x19)
     768:	01138863          	beq	x7,x17,778 <I_sltiu_cg_cp_rd_b17+0x18>
     76c:	5490246f          	jal	x8,34b4 <failedtest_x8_x7>
     770:	00000760          	.word	0x00000760
     774:	00009003          	.word	0x00009003
     778:	00498993          	addi	x19,x19,4

# Testcase cp_rd (Test destination rd = x18)
  RVTEST_TESTDATA_LOAD_INT(x1, x27) # load rs1: x27 = 0xdaf0b669
     77c:	0000ad83          	lw	x27,0(x1)
     780:	00408093          	addi	x1,x1,4

00000784 <I_sltiu_cg_cp_rd_b18>:
I_sltiu_cg_cp_rd_b18:
  sltiu x18, x27, -439 # perform operation
     784:	e49db913          	sltiu	x18,x27,-439
  # Check if x18 contains the expected result. x19 is the signature ptr, x8 is the link ptr, x7 is a temp reg.
  RVTEST_SIGUPD(x19, x8, x7, x18, I_sltiu_cg_cp_rd_b18, I_sltiu_cg_cp_rd_b18_str)
     788:	0009a383          	lw	x7,0(x19)
     78c:	01238863          	beq	x7,x18,79c <I_sltiu_cg_cp_rd_b18+0x18>
     790:	5250246f          	jal	x8,34b4 <failedtest_x8_x7>
     794:	00000784          	.word	0x00000784
     798:	00009033          	.word	0x00009033
     79c:	00498993          	addi	x19,x19,4

  mv x12, x19 # switch signature pointer register to avoid conflict with test
     7a0:	00098613          	addi	x12,x19,0
# Testcase cp_rd (Test destination rd = x19)
  RVTEST_TESTDATA_LOAD_INT(x1, x4) # load rs1: x4 = 0x3e33a099
     7a4:	0000a203          	lw	x4,0(x1)
     7a8:	00408093          	addi	x1,x1,4

000007ac <I_sltiu_cg_cp_rd_b19>:
I_sltiu_cg_cp_rd_b19:
  sltiu x19, x4, 511 # perform operation
     7ac:	1ff23993          	sltiu	x19,x4,511
  # Check if x19 contains the expected result. x12 is the signature ptr, x8 is the link ptr, x7 is a temp reg.
  RVTEST_SIGUPD(x12, x8, x7, x19, I_sltiu_cg_cp_rd_b19, I_sltiu_cg_cp_rd_b19_str)
     7b0:	00062383          	lw	x7,0(x12)
     7b4:	01338863          	beq	x7,x19,7c4 <I_sltiu_cg_cp_rd_b19+0x18>
     7b8:	4fd0246f          	jal	x8,34b4 <failedtest_x8_x7>
     7bc:	000007ac          	.word	0x000007ac
     7c0:	00009063          	.word	0x00009063
     7c4:	00460613          	addi	x12,x12,4

# Testcase cp_rd (Test destination rd = x20)
  RVTEST_TESTDATA_LOAD_INT(x1, x3) # load rs1: x3 = 0x0e383f8d
     7c8:	0000a183          	lw	x3,0(x1)
     7cc:	00408093          	addi	x1,x1,4

000007d0 <I_sltiu_cg_cp_rd_b20>:
I_sltiu_cg_cp_rd_b20:
  sltiu x20, x3, -1249 # perform operation
     7d0:	b1f1ba13          	sltiu	x20,x3,-1249
  # Check if x20 contains the expected result. x12 is the signature ptr, x8 is the link ptr, x7 is a temp reg.
  RVTEST_SIGUPD(x12, x8, x7, x20, I_sltiu_cg_cp_rd_b20, I_sltiu_cg_cp_rd_b20_str)
     7d4:	00062383          	lw	x7,0(x12)
     7d8:	01438863          	beq	x7,x20,7e8 <I_sltiu_cg_cp_rd_b20+0x18>
     7dc:	4d90246f          	jal	x8,34b4 <failedtest_x8_x7>
     7e0:	000007d0          	.word	0x000007d0
     7e4:	00009093          	.word	0x00009093
     7e8:	00460613          	addi	x12,x12,4

# Testcase cp_rd (Test destination rd = x21)
  RVTEST_TESTDATA_LOAD_INT(x1, x26) # load rs1: x26 = 0x49865084
     7ec:	0000ad03          	lw	x26,0(x1)
     7f0:	00408093          	addi	x1,x1,4

000007f4 <I_sltiu_cg_cp_rd_b21>:
I_sltiu_cg_cp_rd_b21:
  sltiu x21, x26, 1838 # perform operation
     7f4:	72ed3a93          	sltiu	x21,x26,1838
  # Check if x21 contains the expected result. x12 is the signature ptr, x8 is the link ptr, x7 is a temp reg.
  RVTEST_SIGUPD(x12, x8, x7, x21, I_sltiu_cg_cp_rd_b21, I_sltiu_cg_cp_rd_b21_str)
     7f8:	00062383          	lw	x7,0(x12)
     7fc:	01538863          	beq	x7,x21,80c <I_sltiu_cg_cp_rd_b21+0x18>
     800:	4b50246f          	jal	x8,34b4 <failedtest_x8_x7>
     804:	000007f4          	.word	0x000007f4
     808:	000090c3          	.word	0x000090c3
     80c:	00460613          	addi	x12,x12,4

# Testcase cp_rd (Test destination rd = x22)
  RVTEST_TESTDATA_LOAD_INT(x1, x28) # load rs1: x28 = 0x2c8ef682
     810:	0000ae03          	lw	x28,0(x1)
     814:	00408093          	addi	x1,x1,4

00000818 <I_sltiu_cg_cp_rd_b22>:
I_sltiu_cg_cp_rd_b22:
  sltiu x22, x28, -1196 # perform operation
     818:	b54e3b13          	sltiu	x22,x28,-1196
  # Check if x22 contains the expected result. x12 is the signature ptr, x8 is the link ptr, x7 is a temp reg.
  RVTEST_SIGUPD(x12, x8, x7, x22, I_sltiu_cg_cp_rd_b22, I_sltiu_cg_cp_rd_b22_str)
     81c:	00062383          	lw	x7,0(x12)
     820:	01638863          	beq	x7,x22,830 <I_sltiu_cg_cp_rd_b22+0x18>
     824:	4910246f          	jal	x8,34b4 <failedtest_x8_x7>
     828:	00000818          	.word	0x00000818
     82c:	000090f3          	.word	0x000090f3
     830:	00460613          	addi	x12,x12,4

# Testcase cp_rd (Test destination rd = x23)
  RVTEST_TESTDATA_LOAD_INT(x1, x31) # load rs1: x31 = 0x29b35f02
     834:	0000af83          	lw	x31,0(x1)
     838:	00408093          	addi	x1,x1,4

0000083c <I_sltiu_cg_cp_rd_b23>:
I_sltiu_cg_cp_rd_b23:
  sltiu x23, x31, 896 # perform operation
     83c:	380fbb93          	sltiu	x23,x31,896
  # Check if x23 contains the expected result. x12 is the signature ptr, x8 is the link ptr, x7 is a temp reg.
  RVTEST_SIGUPD(x12, x8, x7, x23, I_sltiu_cg_cp_rd_b23, I_sltiu_cg_cp_rd_b23_str)
     840:	00062383          	lw	x7,0(x12)
     844:	01738863          	beq	x7,x23,854 <I_sltiu_cg_cp_rd_b23+0x18>
     848:	46d0246f          	jal	x8,34b4 <failedtest_x8_x7>
     84c:	0000083c          	.word	0x0000083c
     850:	00009123          	.word	0x00009123
     854:	00460613          	addi	x12,x12,4

# Testcase cp_rd (Test destination rd = x24)
  RVTEST_TESTDATA_LOAD_INT(x1, x27) # load rs1: x27 = 0x72679d81
     858:	0000ad83          	lw	x27,0(x1)
     85c:	00408093          	addi	x1,x1,4

00000860 <I_sltiu_cg_cp_rd_b24>:
I_sltiu_cg_cp_rd_b24:
  sltiu x24, x27, 1909 # perform operation
     860:	775dbc13          	sltiu	x24,x27,1909
  # Check if x24 contains the expected result. x12 is the signature ptr, x8 is the link ptr, x7 is a temp reg.
  RVTEST_SIGUPD(x12, x8, x7, x24, I_sltiu_cg_cp_rd_b24, I_sltiu_cg_cp_rd_b24_str)
     864:	00062383          	lw	x7,0(x12)
     868:	01838863          	beq	x7,x24,878 <I_sltiu_cg_cp_rd_b24+0x18>
     86c:	4490246f          	jal	x8,34b4 <failedtest_x8_x7>
     870:	00000860          	.word	0x00000860
     874:	00009153          	.word	0x00009153
     878:	00460613          	addi	x12,x12,4

# Testcase cp_rd (Test destination rd = x25)
  RVTEST_TESTDATA_LOAD_INT(x1, x20) # load rs1: x20 = 0x6053cfc9
     87c:	0000aa03          	lw	x20,0(x1)
     880:	00408093          	addi	x1,x1,4

00000884 <I_sltiu_cg_cp_rd_b25>:
I_sltiu_cg_cp_rd_b25:
  sltiu x25, x20, -1346 # perform operation
     884:	abea3c93          	sltiu	x25,x20,-1346
  # Check if x25 contains the expected result. x12 is the signature ptr, x8 is the link ptr, x7 is a temp reg.
  RVTEST_SIGUPD(x12, x8, x7, x25, I_sltiu_cg_cp_rd_b25, I_sltiu_cg_cp_rd_b25_str)
     888:	00062383          	lw	x7,0(x12)
     88c:	01938863          	beq	x7,x25,89c <I_sltiu_cg_cp_rd_b25+0x18>
     890:	4250246f          	jal	x8,34b4 <failedtest_x8_x7>
     894:	00000884          	.word	0x00000884
     898:	00009183          	.word	0x00009183
     89c:	00460613          	addi	x12,x12,4

# Testcase cp_rd (Test destination rd = x26)
  RVTEST_TESTDATA_LOAD_INT(x1, x9) # load rs1: x9 = 0x1eb046ea
     8a0:	0000a483          	lw	x9,0(x1)
     8a4:	00408093          	addi	x1,x1,4

000008a8 <I_sltiu_cg_cp_rd_b26>:
I_sltiu_cg_cp_rd_b26:
  sltiu x26, x9, -1658 # perform operation
     8a8:	9864bd13          	sltiu	x26,x9,-1658
  # Check if x26 contains the expected result. x12 is the signature ptr, x8 is the link ptr, x7 is a temp reg.
  RVTEST_SIGUPD(x12, x8, x7, x26, I_sltiu_cg_cp_rd_b26, I_sltiu_cg_cp_rd_b26_str)
     8ac:	00062383          	lw	x7,0(x12)
     8b0:	01a38863          	beq	x7,x26,8c0 <I_sltiu_cg_cp_rd_b26+0x18>
     8b4:	4010246f          	jal	x8,34b4 <failedtest_x8_x7>
     8b8:	000008a8          	.word	0x000008a8
     8bc:	000091b3          	.word	0x000091b3
     8c0:	00460613          	addi	x12,x12,4

# Testcase cp_rd (Test destination rd = x27)
  RVTEST_TESTDATA_LOAD_INT(x1, x15) # load rs1: x15 = 0xbab5d0ce
     8c4:	0000a783          	lw	x15,0(x1)
     8c8:	00408093          	addi	x1,x1,4

000008cc <I_sltiu_cg_cp_rd_b27>:
I_sltiu_cg_cp_rd_b27:
  sltiu x27, x15, -1453 # perform operation
     8cc:	a537bd93          	sltiu	x27,x15,-1453
  # Check if x27 contains the expected result. x12 is the signature ptr, x8 is the link ptr, x7 is a temp reg.
  RVTEST_SIGUPD(x12, x8, x7, x27, I_sltiu_cg_cp_rd_b27, I_sltiu_cg_cp_rd_b27_str)
     8d0:	00062383          	lw	x7,0(x12)
     8d4:	01b38863          	beq	x7,x27,8e4 <I_sltiu_cg_cp_rd_b27+0x18>
     8d8:	3dd0246f          	jal	x8,34b4 <failedtest_x8_x7>
     8dc:	000008cc          	.word	0x000008cc
     8e0:	000091e3          	.word	0x000091e3
     8e4:	00460613          	addi	x12,x12,4

# Testcase cp_rd (Test destination rd = x28)
  RVTEST_TESTDATA_LOAD_INT(x1, x24) # load rs1: x24 = 0xb9f08e08
     8e8:	0000ac03          	lw	x24,0(x1)
     8ec:	00408093          	addi	x1,x1,4

000008f0 <I_sltiu_cg_cp_rd_b28>:
I_sltiu_cg_cp_rd_b28:
  sltiu x28, x24, -1125 # perform operation
     8f0:	b9bc3e13          	sltiu	x28,x24,-1125
  # Check if x28 contains the expected result. x12 is the signature ptr, x8 is the link ptr, x7 is a temp reg.
  RVTEST_SIGUPD(x12, x8, x7, x28, I_sltiu_cg_cp_rd_b28, I_sltiu_cg_cp_rd_b28_str)
     8f4:	00062383          	lw	x7,0(x12)
     8f8:	01c38863          	beq	x7,x28,908 <I_sltiu_cg_cp_rd_b28+0x18>
     8fc:	3b90246f          	jal	x8,34b4 <failedtest_x8_x7>
     900:	000008f0          	.word	0x000008f0
     904:	00009213          	.word	0x00009213
     908:	00460613          	addi	x12,x12,4

# Testcase cp_rd (Test destination rd = x29)
  RVTEST_TESTDATA_LOAD_INT(x1, x28) # load rs1: x28 = 0xaebf35ae
     90c:	0000ae03          	lw	x28,0(x1)
     910:	00408093          	addi	x1,x1,4

00000914 <I_sltiu_cg_cp_rd_b29>:
I_sltiu_cg_cp_rd_b29:
  sltiu x29, x28, 1741 # perform operation
     914:	6cde3e93          	sltiu	x29,x28,1741
  # Check if x29 contains the expected result. x12 is the signature ptr, x8 is the link ptr, x7 is a temp reg.
  RVTEST_SIGUPD(x12, x8, x7, x29, I_sltiu_cg_cp_rd_b29, I_sltiu_cg_cp_rd_b29_str)
     918:	00062383          	lw	x7,0(x12)
     91c:	01d38863          	beq	x7,x29,92c <I_sltiu_cg_cp_rd_b29+0x18>
     920:	3950246f          	jal	x8,34b4 <failedtest_x8_x7>
     924:	00000914          	.word	0x00000914
     928:	00009243          	.word	0x00009243
     92c:	00460613          	addi	x12,x12,4

# Testcase cp_rd (Test destination rd = x30)
  RVTEST_TESTDATA_LOAD_INT(x1, x13) # load rs1: x13 = 0xe2913ba9
     930:	0000a683          	lw	x13,0(x1)
     934:	00408093          	addi	x1,x1,4

00000938 <I_sltiu_cg_cp_rd_b30>:
I_sltiu_cg_cp_rd_b30:
  sltiu x30, x13, 1648 # perform operation
     938:	6706bf13          	sltiu	x30,x13,1648
  # Check if x30 contains the expected result. x12 is the signature ptr, x8 is the link ptr, x7 is a temp reg.
  RVTEST_SIGUPD(x12, x8, x7, x30, I_sltiu_cg_cp_rd_b30, I_sltiu_cg_cp_rd_b30_str)
     93c:	00062383          	lw	x7,0(x12)
     940:	01e38863          	beq	x7,x30,950 <I_sltiu_cg_cp_rd_b30+0x18>
     944:	3710246f          	jal	x8,34b4 <failedtest_x8_x7>
     948:	00000938          	.word	0x00000938
     94c:	00009273          	.word	0x00009273
     950:	00460613          	addi	x12,x12,4

# Testcase cp_rd (Test destination rd = x31)
  RVTEST_TESTDATA_LOAD_INT(x1, x5) # load rs1: x5 = 0x234c5f11
     954:	0000a283          	lw	x5,0(x1)
     958:	00408093          	addi	x1,x1,4

0000095c <I_sltiu_cg_cp_rd_b31>:
I_sltiu_cg_cp_rd_b31:
  sltiu x31, x5, 1260 # perform operation
     95c:	4ec2bf93          	sltiu	x31,x5,1260
  # Check if x31 contains the expected result. x12 is the signature ptr, x8 is the link ptr, x7 is a temp reg.
  RVTEST_SIGUPD(x12, x8, x7, x31, I_sltiu_cg_cp_rd_b31, I_sltiu_cg_cp_rd_b31_str)
     960:	00062383          	lw	x7,0(x12)
     964:	01f38863          	beq	x7,x31,974 <I_sltiu_cg_cp_rd_b31+0x18>
     968:	34d0246f          	jal	x8,34b4 <failedtest_x8_x7>
     96c:	0000095c          	.word	0x0000095c
     970:	000092a3          	.word	0x000092a3
     974:	00460613          	addi	x12,x12,4
/////////////////////////////////
// cp_rs1_edges
/////////////////////////////////

# Testcase cp_rs1_edges (Test source rs1 value = 0x00000000)
  RVTEST_TESTDATA_LOAD_INT(x1, x23) # load rs1: x23 = 0x00000000
     978:	0000ab83          	lw	x23,0(x1)
     97c:	00408093          	addi	x1,x1,4

00000980 <I_sltiu_cg_cp_rs1_edges_0x0>:
I_sltiu_cg_cp_rs1_edges_0x0:
  sltiu x17, x23, 396 # perform operation
     980:	18cbb893          	sltiu	x17,x23,396
  # Check if x17 contains the expected result. x12 is the signature ptr, x8 is the link ptr, x7 is a temp reg.
  RVTEST_SIGUPD(x12, x8, x7, x17, I_sltiu_cg_cp_rs1_edges_0x0, I_sltiu_cg_cp_rs1_edges_0x0_str)
     984:	00062383          	lw	x7,0(x12)
     988:	01138863          	beq	x7,x17,998 <I_sltiu_cg_cp_rs1_edges_0x0+0x18>
     98c:	3290246f          	jal	x8,34b4 <failedtest_x8_x7>
     990:	00000980          	.word	0x00000980
     994:	000092d3          	.word	0x000092d3
     998:	00460613          	addi	x12,x12,4

# Testcase cp_rs1_edges (Test source rs1 value = 0x00000001)
  RVTEST_TESTDATA_LOAD_INT(x1, x11) # load rs1: x11 = 0x00000001
     99c:	0000a583          	lw	x11,0(x1)
     9a0:	00408093          	addi	x1,x1,4

000009a4 <I_sltiu_cg_cp_rs1_edges_0x1>:
I_sltiu_cg_cp_rs1_edges_0x1:
  sltiu x31, x11, 843 # perform operation
     9a4:	34b5bf93          	sltiu	x31,x11,843
  # Check if x31 contains the expected result. x12 is the signature ptr, x8 is the link ptr, x7 is a temp reg.
  RVTEST_SIGUPD(x12, x8, x7, x31, I_sltiu_cg_cp_rs1_edges_0x1, I_sltiu_cg_cp_rs1_edges_0x1_str)
     9a8:	00062383          	lw	x7,0(x12)
     9ac:	01f38863          	beq	x7,x31,9bc <I_sltiu_cg_cp_rs1_edges_0x1+0x18>
     9b0:	3050246f          	jal	x8,34b4 <failedtest_x8_x7>
     9b4:	000009a4          	.word	0x000009a4
     9b8:	0000930a          	.word	0x0000930a
     9bc:	00460613          	addi	x12,x12,4

# Testcase cp_rs1_edges (Test source rs1 value = 0x00000002)
  RVTEST_TESTDATA_LOAD_INT(x1, x23) # load rs1: x23 = 0x00000002
     9c0:	0000ab83          	lw	x23,0(x1)
     9c4:	00408093          	addi	x1,x1,4

000009c8 <I_sltiu_cg_cp_rs1_edges_0x2>:
I_sltiu_cg_cp_rs1_edges_0x2:
  sltiu x6, x23, -638 # perform operation
     9c8:	d82bb313          	sltiu	x6,x23,-638
  # Check if x6 contains the expected result. x12 is the signature ptr, x8 is the link ptr, x7 is a temp reg.
  RVTEST_SIGUPD(x12, x8, x7, x6, I_sltiu_cg_cp_rs1_edges_0x2, I_sltiu_cg_cp_rs1_edges_0x2_str)
     9cc:	00062383          	lw	x7,0(x12)
     9d0:	00638863          	beq	x7,x6,9e0 <I_sltiu_cg_cp_rs1_edges_0x2+0x18>
     9d4:	2e10246f          	jal	x8,34b4 <failedtest_x8_x7>
     9d8:	000009c8          	.word	0x000009c8
     9dc:	00009341          	.word	0x00009341
     9e0:	00460613          	addi	x12,x12,4

# Testcase cp_rs1_edges (Test source rs1 value = 0x80000000)
  RVTEST_TESTDATA_LOAD_INT(x1, x13) # load rs1: x13 = 0x80000000
     9e4:	0000a683          	lw	x13,0(x1)
     9e8:	00408093          	addi	x1,x1,4

000009ec <I_sltiu_cg_cp_rs1_edges_0x80000000>:
I_sltiu_cg_cp_rs1_edges_0x80000000:
  sltiu x20, x13, 847 # perform operation
     9ec:	34f6ba13          	sltiu	x20,x13,847
  # Check if x20 contains the expected result. x12 is the signature ptr, x8 is the link ptr, x7 is a temp reg.
  RVTEST_SIGUPD(x12, x8, x7, x20, I_sltiu_cg_cp_rs1_edges_0x80000000, I_sltiu_cg_cp_rs1_edges_0x80000000_str)
     9f0:	00062383          	lw	x7,0(x12)
     9f4:	01438863          	beq	x7,x20,a04 <I_sltiu_cg_cp_rs1_edges_0x80000000+0x18>
     9f8:	2bd0246f          	jal	x8,34b4 <failedtest_x8_x7>
     9fc:	000009ec          	.word	0x000009ec
     a00:	00009378          	.word	0x00009378
     a04:	00460613          	addi	x12,x12,4

# Testcase cp_rs1_edges (Test source rs1 value = 0x80000001)
  RVTEST_TESTDATA_LOAD_INT(x1, x23) # load rs1: x23 = 0x80000001
     a08:	0000ab83          	lw	x23,0(x1)
     a0c:	00408093          	addi	x1,x1,4

00000a10 <I_sltiu_cg_cp_rs1_edges_0x80000001>:
I_sltiu_cg_cp_rs1_edges_0x80000001:
  sltiu x28, x23, -196 # perform operation
     a10:	f3cbbe13          	sltiu	x28,x23,-196
  # Check if x28 contains the expected result. x12 is the signature ptr, x8 is the link ptr, x7 is a temp reg.
  RVTEST_SIGUPD(x12, x8, x7, x28, I_sltiu_cg_cp_rs1_edges_0x80000001, I_sltiu_cg_cp_rs1_edges_0x80000001_str)
     a14:	00062383          	lw	x7,0(x12)
     a18:	01c38863          	beq	x7,x28,a28 <I_sltiu_cg_cp_rs1_edges_0x80000001+0x18>
     a1c:	2990246f          	jal	x8,34b4 <failedtest_x8_x7>
     a20:	00000a10          	.word	0x00000a10
     a24:	000093b6          	.word	0x000093b6
     a28:	00460613          	addi	x12,x12,4

# Testcase cp_rs1_edges (Test source rs1 value = 0x7fffffff)
  RVTEST_TESTDATA_LOAD_INT(x1, x24) # load rs1: x24 = 0x7fffffff
     a2c:	0000ac03          	lw	x24,0(x1)
     a30:	00408093          	addi	x1,x1,4

00000a34 <I_sltiu_cg_cp_rs1_edges_0x7fffffff>:
I_sltiu_cg_cp_rs1_edges_0x7fffffff:
  sltiu x25, x24, 685 # perform operation
     a34:	2adc3c93          	sltiu	x25,x24,685
  # Check if x25 contains the expected result. x12 is the signature ptr, x8 is the link ptr, x7 is a temp reg.
  RVTEST_SIGUPD(x12, x8, x7, x25, I_sltiu_cg_cp_rs1_edges_0x7fffffff, I_sltiu_cg_cp_rs1_edges_0x7fffffff_str)
     a38:	00062383          	lw	x7,0(x12)
     a3c:	01938863          	beq	x7,x25,a4c <I_sltiu_cg_cp_rs1_edges_0x7fffffff+0x18>
     a40:	2750246f          	jal	x8,34b4 <failedtest_x8_x7>
     a44:	00000a34          	.word	0x00000a34
     a48:	000093f4          	.word	0x000093f4
     a4c:	00460613          	addi	x12,x12,4

# Testcase cp_rs1_edges (Test source rs1 value = 0x7ffffffe)
  RVTEST_TESTDATA_LOAD_INT(x1, x21) # load rs1: x21 = 0x7ffffffe
     a50:	0000aa83          	lw	x21,0(x1)
     a54:	00408093          	addi	x1,x1,4

00000a58 <I_sltiu_cg_cp_rs1_edges_0x7ffffffe>:
I_sltiu_cg_cp_rs1_edges_0x7ffffffe:
  sltiu x19, x21, -394 # perform operation
     a58:	e76ab993          	sltiu	x19,x21,-394
  # Check if x19 contains the expected result. x12 is the signature ptr, x8 is the link ptr, x7 is a temp reg.
  RVTEST_SIGUPD(x12, x8, x7, x19, I_sltiu_cg_cp_rs1_edges_0x7ffffffe, I_sltiu_cg_cp_rs1_edges_0x7ffffffe_str)
     a5c:	00062383          	lw	x7,0(x12)
     a60:	01338863          	beq	x7,x19,a70 <I_sltiu_cg_cp_rs1_edges_0x7ffffffe+0x18>
     a64:	2510246f          	jal	x8,34b4 <failedtest_x8_x7>
     a68:	00000a58          	.word	0x00000a58
     a6c:	00009432          	.word	0x00009432
     a70:	00460613          	addi	x12,x12,4

# Testcase cp_rs1_edges (Test source rs1 value = 0xffffffff)
  RVTEST_TESTDATA_LOAD_INT(x1, x9) # load rs1: x9 = 0xffffffff
     a74:	0000a483          	lw	x9,0(x1)
     a78:	00408093          	addi	x1,x1,4

00000a7c <I_sltiu_cg_cp_rs1_edges_0xffffffff>:
I_sltiu_cg_cp_rs1_edges_0xffffffff:
  sltiu x29, x9, 116 # perform operation
     a7c:	0744be93          	sltiu	x29,x9,116
  # Check if x29 contains the expected result. x12 is the signature ptr, x8 is the link ptr, x7 is a temp reg.
  RVTEST_SIGUPD(x12, x8, x7, x29, I_sltiu_cg_cp_rs1_edges_0xffffffff, I_sltiu_cg_cp_rs1_edges_0xffffffff_str)
     a80:	00062383          	lw	x7,0(x12)
     a84:	01d38863          	beq	x7,x29,a94 <I_sltiu_cg_cp_rs1_edges_0xffffffff+0x18>
     a88:	22d0246f          	jal	x8,34b4 <failedtest_x8_x7>
     a8c:	00000a7c          	.word	0x00000a7c
     a90:	00009470          	.word	0x00009470
     a94:	00460613          	addi	x12,x12,4

# Testcase cp_rs1_edges (Test source rs1 value = 0xfffffffe)
  RVTEST_TESTDATA_LOAD_INT(x1, x20) # load rs1: x20 = 0xfffffffe
     a98:	0000aa03          	lw	x20,0(x1)
     a9c:	00408093          	addi	x1,x1,4

00000aa0 <I_sltiu_cg_cp_rs1_edges_0xfffffffe>:
I_sltiu_cg_cp_rs1_edges_0xfffffffe:
  sltiu x28, x20, -1574 # perform operation
     aa0:	9daa3e13          	sltiu	x28,x20,-1574
  # Check if x28 contains the expected result. x12 is the signature ptr, x8 is the link ptr, x7 is a temp reg.
  RVTEST_SIGUPD(x12, x8, x7, x28, I_sltiu_cg_cp_rs1_edges_0xfffffffe, I_sltiu_cg_cp_rs1_edges_0xfffffffe_str)
     aa4:	00062383          	lw	x7,0(x12)
     aa8:	01c38863          	beq	x7,x28,ab8 <I_sltiu_cg_cp_rs1_edges_0xfffffffe+0x18>
     aac:	2090246f          	jal	x8,34b4 <failedtest_x8_x7>
     ab0:	00000aa0          	.word	0x00000aa0
     ab4:	000094ae          	.word	0x000094ae
     ab8:	00460613          	addi	x12,x12,4

# Testcase cp_rs1_edges (Test source rs1 value = 0x5bbc8872)
  RVTEST_TESTDATA_LOAD_INT(x1, x13) # load rs1: x13 = 0x5bbc8872
     abc:	0000a683          	lw	x13,0(x1)
     ac0:	00408093          	addi	x1,x1,4

00000ac4 <I_sltiu_cg_cp_rs1_edges_0x5bbc8872>:
I_sltiu_cg_cp_rs1_edges_0x5bbc8872:
  sltiu x2, x13, -1253 # perform operation
     ac4:	b1b6b113          	sltiu	x2,x13,-1253
  # Check if x2 contains the expected result. x12 is the signature ptr, x8 is the link ptr, x7 is a temp reg.
  RVTEST_SIGUPD(x12, x8, x7, x2, I_sltiu_cg_cp_rs1_edges_0x5bbc8872, I_sltiu_cg_cp_rs1_edges_0x5bbc8872_str)
     ac8:	00062383          	lw	x7,0(x12)
     acc:	00238863          	beq	x7,x2,adc <I_sltiu_cg_cp_rs1_edges_0x5bbc8872+0x18>
     ad0:	1e50246f          	jal	x8,34b4 <failedtest_x8_x7>
     ad4:	00000ac4          	.word	0x00000ac4
     ad8:	000094ec          	.word	0x000094ec
     adc:	00460613          	addi	x12,x12,4

# Testcase cp_rs1_edges (Test source rs1 value = 0xaaaaaaaa)
  RVTEST_TESTDATA_LOAD_INT(x1, x27) # load rs1: x27 = 0xaaaaaaaa
     ae0:	0000ad83          	lw	x27,0(x1)
     ae4:	00408093          	addi	x1,x1,4

00000ae8 <I_sltiu_cg_cp_rs1_edges_0xaaaaaaaa>:
I_sltiu_cg_cp_rs1_edges_0xaaaaaaaa:
  sltiu x25, x27, 351 # perform operation
     ae8:	15fdbc93          	sltiu	x25,x27,351
  # Check if x25 contains the expected result. x12 is the signature ptr, x8 is the link ptr, x7 is a temp reg.
  RVTEST_SIGUPD(x12, x8, x7, x25, I_sltiu_cg_cp_rs1_edges_0xaaaaaaaa, I_sltiu_cg_cp_rs1_edges_0xaaaaaaaa_str)
     aec:	00062383          	lw	x7,0(x12)
     af0:	01938863          	beq	x7,x25,b00 <I_sltiu_cg_cp_rs1_edges_0xaaaaaaaa+0x18>
     af4:	1c10246f          	jal	x8,34b4 <failedtest_x8_x7>
     af8:	00000ae8          	.word	0x00000ae8
     afc:	0000952a          	.word	0x0000952a
     b00:	00460613          	addi	x12,x12,4

# Testcase cp_rs1_edges (Test source rs1 value = 0x55555555)
  RVTEST_TESTDATA_LOAD_INT(x1, x16) # load rs1: x16 = 0x55555555
     b04:	0000a803          	lw	x16,0(x1)
     b08:	00408093          	addi	x1,x1,4

00000b0c <I_sltiu_cg_cp_rs1_edges_0x55555555>:
I_sltiu_cg_cp_rs1_edges_0x55555555:
  sltiu x27, x16, -70 # perform operation
     b0c:	fba83d93          	sltiu	x27,x16,-70
  # Check if x27 contains the expected result. x12 is the signature ptr, x8 is the link ptr, x7 is a temp reg.
  RVTEST_SIGUPD(x12, x8, x7, x27, I_sltiu_cg_cp_rs1_edges_0x55555555, I_sltiu_cg_cp_rs1_edges_0x55555555_str)
     b10:	00062383          	lw	x7,0(x12)
     b14:	01b38863          	beq	x7,x27,b24 <I_sltiu_cg_cp_rs1_edges_0x55555555+0x18>
     b18:	19d0246f          	jal	x8,34b4 <failedtest_x8_x7>
     b1c:	00000b0c          	.word	0x00000b0c
     b20:	00009568          	.word	0x00009568
     b24:	00460613          	addi	x12,x12,4
/////////////////////////////////
// cr_rs1_imm_edges
/////////////////////////////////

# Testcase cr_rs1_imm_edges (rs1 = 0x00000000, imm = 0)
  RVTEST_TESTDATA_LOAD_INT(x1, x3) # load rs1: x3 = 0x00000000
     b28:	0000a183          	lw	x3,0(x1)
     b2c:	00408093          	addi	x1,x1,4

00000b30 <I_sltiu_cg_cr_rs1_imm_edges_rs1val_0x0_immval_0x0>:
I_sltiu_cg_cr_rs1_imm_edges_rs1val_0x0_immval_0x0:
  sltiu x11, x3, 0 # perform operation
     b30:	0001b593          	sltiu	x11,x3,0
  # Check if x11 contains the expected result. x12 is the signature ptr, x8 is the link ptr, x7 is a temp reg.
  RVTEST_SIGUPD(x12, x8, x7, x11, I_sltiu_cg_cr_rs1_imm_edges_rs1val_0x0_immval_0x0, I_sltiu_cg_cr_rs1_imm_edges_rs1val_0x0_immval_0x0_str)
     b34:	00062383          	lw	x7,0(x12)
     b38:	00b38863          	beq	x7,x11,b48 <I_sltiu_cg_cr_rs1_imm_edges_rs1val_0x0_immval_0x0+0x18>
     b3c:	1790246f          	jal	x8,34b4 <failedtest_x8_x7>
     b40:	00000b30          	.word	0x00000b30
     b44:	000095a6          	.word	0x000095a6
     b48:	00460613          	addi	x12,x12,4

# Testcase cr_rs1_imm_edges (rs1 = 0x00000000, imm = 1)
  RVTEST_TESTDATA_LOAD_INT(x1, x16) # load rs1: x16 = 0x00000000
     b4c:	0000a803          	lw	x16,0(x1)
     b50:	00408093          	addi	x1,x1,4

00000b54 <I_sltiu_cg_cr_rs1_imm_edges_rs1val_0x0_immval_0x1>:
I_sltiu_cg_cr_rs1_imm_edges_rs1val_0x0_immval_0x1:
  sltiu x4, x16, 1 # perform operation
     b54:	00183213          	sltiu	x4,x16,1
  # Check if x4 contains the expected result. x12 is the signature ptr, x8 is the link ptr, x7 is a temp reg.
  RVTEST_SIGUPD(x12, x8, x7, x4, I_sltiu_cg_cr_rs1_imm_edges_rs1val_0x0_immval_0x1, I_sltiu_cg_cr_rs1_imm_edges_rs1val_0x0_immval_0x1_str)
     b58:	00062383          	lw	x7,0(x12)
     b5c:	00438863          	beq	x7,x4,b6c <I_sltiu_cg_cr_rs1_imm_edges_rs1val_0x0_immval_0x1+0x18>
     b60:	1550246f          	jal	x8,34b4 <failedtest_x8_x7>
     b64:	00000b54          	.word	0x00000b54
     b68:	000095f4          	.word	0x000095f4
     b6c:	00460613          	addi	x12,x12,4

# Testcase cr_rs1_imm_edges (rs1 = 0x00000000, imm = 2)
  RVTEST_TESTDATA_LOAD_INT(x1, x28) # load rs1: x28 = 0x00000000
     b70:	0000ae03          	lw	x28,0(x1)
     b74:	00408093          	addi	x1,x1,4

00000b78 <I_sltiu_cg_cr_rs1_imm_edges_rs1val_0x0_immval_0x2>:
I_sltiu_cg_cr_rs1_imm_edges_rs1val_0x0_immval_0x2:
  sltiu x19, x28, 2 # perform operation
     b78:	002e3993          	sltiu	x19,x28,2
  # Check if x19 contains the expected result. x12 is the signature ptr, x8 is the link ptr, x7 is a temp reg.
  RVTEST_SIGUPD(x12, x8, x7, x19, I_sltiu_cg_cr_rs1_imm_edges_rs1val_0x0_immval_0x2, I_sltiu_cg_cr_rs1_imm_edges_rs1val_0x0_immval_0x2_str)
     b7c:	00062383          	lw	x7,0(x12)
     b80:	01338863          	beq	x7,x19,b90 <I_sltiu_cg_cr_rs1_imm_edges_rs1val_0x0_immval_0x2+0x18>
     b84:	1310246f          	jal	x8,34b4 <failedtest_x8_x7>
     b88:	00000b78          	.word	0x00000b78
     b8c:	00009642          	.word	0x00009642
     b90:	00460613          	addi	x12,x12,4

# Testcase cr_rs1_imm_edges (rs1 = 0x00000000, imm = 3)
  RVTEST_TESTDATA_LOAD_INT(x1, x17) # load rs1: x17 = 0x00000000
     b94:	0000a883          	lw	x17,0(x1)
     b98:	00408093          	addi	x1,x1,4

00000b9c <I_sltiu_cg_cr_rs1_imm_edges_rs1val_0x0_immval_0x3>:
I_sltiu_cg_cr_rs1_imm_edges_rs1val_0x0_immval_0x3:
  sltiu x24, x17, 3 # perform operation
     b9c:	0038bc13          	sltiu	x24,x17,3
  # Check if x24 contains the expected result. x12 is the signature ptr, x8 is the link ptr, x7 is a temp reg.
  RVTEST_SIGUPD(x12, x8, x7, x24, I_sltiu_cg_cr_rs1_imm_edges_rs1val_0x0_immval_0x3, I_sltiu_cg_cr_rs1_imm_edges_rs1val_0x0_immval_0x3_str)
     ba0:	00062383          	lw	x7,0(x12)
     ba4:	01838863          	beq	x7,x24,bb4 <I_sltiu_cg_cr_rs1_imm_edges_rs1val_0x0_immval_0x3+0x18>
     ba8:	10d0246f          	jal	x8,34b4 <failedtest_x8_x7>
     bac:	00000b9c          	.word	0x00000b9c
     bb0:	00009690          	.word	0x00009690
     bb4:	00460613          	addi	x12,x12,4

# Testcase cr_rs1_imm_edges (rs1 = 0x00000000, imm = 4)
  RVTEST_TESTDATA_LOAD_INT(x1, x13) # load rs1: x13 = 0x00000000
     bb8:	0000a683          	lw	x13,0(x1)
     bbc:	00408093          	addi	x1,x1,4

00000bc0 <I_sltiu_cg_cr_rs1_imm_edges_rs1val_0x0_immval_0x4>:
I_sltiu_cg_cr_rs1_imm_edges_rs1val_0x0_immval_0x4:
  sltiu x16, x13, 4 # perform operation
     bc0:	0046b813          	sltiu	x16,x13,4
  # Check if x16 contains the expected result. x12 is the signature ptr, x8 is the link ptr, x7 is a temp reg.
  RVTEST_SIGUPD(x12, x8, x7, x16, I_sltiu_cg_cr_rs1_imm_edges_rs1val_0x0_immval_0x4, I_sltiu_cg_cr_rs1_imm_edges_rs1val_0x0_immval_0x4_str)
     bc4:	00062383          	lw	x7,0(x12)
     bc8:	01038863          	beq	x7,x16,bd8 <I_sltiu_cg_cr_rs1_imm_edges_rs1val_0x0_immval_0x4+0x18>
     bcc:	0e90246f          	jal	x8,34b4 <failedtest_x8_x7>
     bd0:	00000bc0          	.word	0x00000bc0
     bd4:	000096de          	.word	0x000096de
     bd8:	00460613          	addi	x12,x12,4

# Testcase cr_rs1_imm_edges (rs1 = 0x00000000, imm = 8)
  RVTEST_TESTDATA_LOAD_INT(x1, x6) # load rs1: x6 = 0x00000000
     bdc:	0000a303          	lw	x6,0(x1)
     be0:	00408093          	addi	x1,x1,4

00000be4 <I_sltiu_cg_cr_rs1_imm_edges_rs1val_0x0_immval_0x8>:
I_sltiu_cg_cr_rs1_imm_edges_rs1val_0x0_immval_0x8:
  sltiu x20, x6, 8 # perform operation
     be4:	00833a13          	sltiu	x20,x6,8
  # Check if x20 contains the expected result. x12 is the signature ptr, x8 is the link ptr, x7 is a temp reg.
  RVTEST_SIGUPD(x12, x8, x7, x20, I_sltiu_cg_cr_rs1_imm_edges_rs1val_0x0_immval_0x8, I_sltiu_cg_cr_rs1_imm_edges_rs1val_0x0_immval_0x8_str)
     be8:	00062383          	lw	x7,0(x12)
     bec:	01438863          	beq	x7,x20,bfc <I_sltiu_cg_cr_rs1_imm_edges_rs1val_0x0_immval_0x8+0x18>
     bf0:	0c50246f          	jal	x8,34b4 <failedtest_x8_x7>
     bf4:	00000be4          	.word	0x00000be4
     bf8:	0000972c          	.word	0x0000972c
     bfc:	00460613          	addi	x12,x12,4

# Testcase cr_rs1_imm_edges (rs1 = 0x00000000, imm = 16)
  RVTEST_TESTDATA_LOAD_INT(x1, x18) # load rs1: x18 = 0x00000000
     c00:	0000a903          	lw	x18,0(x1)
     c04:	00408093          	addi	x1,x1,4

00000c08 <I_sltiu_cg_cr_rs1_imm_edges_rs1val_0x0_immval_0x10>:
I_sltiu_cg_cr_rs1_imm_edges_rs1val_0x0_immval_0x10:
  sltiu x26, x18, 16 # perform operation
     c08:	01093d13          	sltiu	x26,x18,16
  # Check if x26 contains the expected result. x12 is the signature ptr, x8 is the link ptr, x7 is a temp reg.
  RVTEST_SIGUPD(x12, x8, x7, x26, I_sltiu_cg_cr_rs1_imm_edges_rs1val_0x0_immval_0x10, I_sltiu_cg_cr_rs1_imm_edges_rs1val_0x0_immval_0x10_str)
     c0c:	00062383          	lw	x7,0(x12)
     c10:	01a38863          	beq	x7,x26,c20 <I_sltiu_cg_cr_rs1_imm_edges_rs1val_0x0_immval_0x10+0x18>
     c14:	0a10246f          	jal	x8,34b4 <failedtest_x8_x7>
     c18:	00000c08          	.word	0x00000c08
     c1c:	0000977a          	.word	0x0000977a
     c20:	00460613          	addi	x12,x12,4

# Testcase cr_rs1_imm_edges (rs1 = 0x00000000, imm = 32)
  RVTEST_TESTDATA_LOAD_INT(x1, x22) # load rs1: x22 = 0x00000000
     c24:	0000ab03          	lw	x22,0(x1)
     c28:	00408093          	addi	x1,x1,4

00000c2c <I_sltiu_cg_cr_rs1_imm_edges_rs1val_0x0_immval_0x20>:
I_sltiu_cg_cr_rs1_imm_edges_rs1val_0x0_immval_0x20:
  sltiu x28, x22, 32 # perform operation
     c2c:	020b3e13          	sltiu	x28,x22,32
  # Check if x28 contains the expected result. x12 is the signature ptr, x8 is the link ptr, x7 is a temp reg.
  RVTEST_SIGUPD(x12, x8, x7, x28, I_sltiu_cg_cr_rs1_imm_edges_rs1val_0x0_immval_0x20, I_sltiu_cg_cr_rs1_imm_edges_rs1val_0x0_immval_0x20_str)
     c30:	00062383          	lw	x7,0(x12)
     c34:	01c38863          	beq	x7,x28,c44 <I_sltiu_cg_cr_rs1_imm_edges_rs1val_0x0_immval_0x20+0x18>
     c38:	07d0246f          	jal	x8,34b4 <failedtest_x8_x7>
     c3c:	00000c2c          	.word	0x00000c2c
     c40:	000097c9          	.word	0x000097c9
     c44:	00460613          	addi	x12,x12,4

# Testcase cr_rs1_imm_edges (rs1 = 0x00000000, imm = 64)
  RVTEST_TESTDATA_LOAD_INT(x1, x28) # load rs1: x28 = 0x00000000
     c48:	0000ae03          	lw	x28,0(x1)
     c4c:	00408093          	addi	x1,x1,4

00000c50 <I_sltiu_cg_cr_rs1_imm_edges_rs1val_0x0_immval_0x40>:
I_sltiu_cg_cr_rs1_imm_edges_rs1val_0x0_immval_0x40:
  sltiu x25, x28, 64 # perform operation
     c50:	040e3c93          	sltiu	x25,x28,64
  # Check if x25 contains the expected result. x12 is the signature ptr, x8 is the link ptr, x7 is a temp reg.
  RVTEST_SIGUPD(x12, x8, x7, x25, I_sltiu_cg_cr_rs1_imm_edges_rs1val_0x0_immval_0x40, I_sltiu_cg_cr_rs1_imm_edges_rs1val_0x0_immval_0x40_str)
     c54:	00062383          	lw	x7,0(x12)
     c58:	01938863          	beq	x7,x25,c68 <I_sltiu_cg_cr_rs1_imm_edges_rs1val_0x0_immval_0x40+0x18>
     c5c:	0590246f          	jal	x8,34b4 <failedtest_x8_x7>
     c60:	00000c50          	.word	0x00000c50
     c64:	00009818          	.word	0x00009818
     c68:	00460613          	addi	x12,x12,4

# Testcase cr_rs1_imm_edges (rs1 = 0x00000000, imm = 128)
  RVTEST_TESTDATA_LOAD_INT(x1, x25) # load rs1: x25 = 0x00000000
     c6c:	0000ac83          	lw	x25,0(x1)
     c70:	00408093          	addi	x1,x1,4

00000c74 <I_sltiu_cg_cr_rs1_imm_edges_rs1val_0x0_immval_0x80>:
I_sltiu_cg_cr_rs1_imm_edges_rs1val_0x0_immval_0x80:
  sltiu x28, x25, 128 # perform operation
     c74:	080cbe13          	sltiu	x28,x25,128
  # Check if x28 contains the expected result. x12 is the signature ptr, x8 is the link ptr, x7 is a temp reg.
  RVTEST_SIGUPD(x12, x8, x7, x28, I_sltiu_cg_cr_rs1_imm_edges_rs1val_0x0_immval_0x80, I_sltiu_cg_cr_rs1_imm_edges_rs1val_0x0_immval_0x80_str)
     c78:	00062383          	lw	x7,0(x12)
     c7c:	01c38863          	beq	x7,x28,c8c <I_sltiu_cg_cr_rs1_imm_edges_rs1val_0x0_immval_0x80+0x18>
     c80:	0350246f          	jal	x8,34b4 <failedtest_x8_x7>
     c84:	00000c74          	.word	0x00000c74
     c88:	00009867          	.word	0x00009867
     c8c:	00460613          	addi	x12,x12,4

# Testcase cr_rs1_imm_edges (rs1 = 0x00000000, imm = 256)
  RVTEST_TESTDATA_LOAD_INT(x1, x4) # load rs1: x4 = 0x00000000
     c90:	0000a203          	lw	x4,0(x1)
     c94:	00408093          	addi	x1,x1,4

00000c98 <I_sltiu_cg_cr_rs1_imm_edges_rs1val_0x0_immval_0x100>:
I_sltiu_cg_cr_rs1_imm_edges_rs1val_0x0_immval_0x100:
  sltiu x29, x4, 256 # perform operation
     c98:	10023e93          	sltiu	x29,x4,256
  # Check if x29 contains the expected result. x12 is the signature ptr, x8 is the link ptr, x7 is a temp reg.
  RVTEST_SIGUPD(x12, x8, x7, x29, I_sltiu_cg_cr_rs1_imm_edges_rs1val_0x0_immval_0x100, I_sltiu_cg_cr_rs1_imm_edges_rs1val_0x0_immval_0x100_str)
     c9c:	00062383          	lw	x7,0(x12)
     ca0:	01d38863          	beq	x7,x29,cb0 <I_sltiu_cg_cr_rs1_imm_edges_rs1val_0x0_immval_0x100+0x18>
     ca4:	0110246f          	jal	x8,34b4 <failedtest_x8_x7>
     ca8:	00000c98          	.word	0x00000c98
     cac:	000098b6          	.word	0x000098b6
     cb0:	00460613          	addi	x12,x12,4

# Testcase cr_rs1_imm_edges (rs1 = 0x00000000, imm = 512)
  RVTEST_TESTDATA_LOAD_INT(x1, x23) # load rs1: x23 = 0x00000000
     cb4:	0000ab83          	lw	x23,0(x1)
     cb8:	00408093          	addi	x1,x1,4

00000cbc <I_sltiu_cg_cr_rs1_imm_edges_rs1val_0x0_immval_0x200>:
I_sltiu_cg_cr_rs1_imm_edges_rs1val_0x0_immval_0x200:
  sltiu x9, x23, 512 # perform operation
     cbc:	200bb493          	sltiu	x9,x23,512
  # Check if x9 contains the expected result. x12 is the signature ptr, x8 is the link ptr, x7 is a temp reg.
  RVTEST_SIGUPD(x12, x8, x7, x9, I_sltiu_cg_cr_rs1_imm_edges_rs1val_0x0_immval_0x200, I_sltiu_cg_cr_rs1_imm_edges_rs1val_0x0_immval_0x200_str)
     cc0:	00062383          	lw	x7,0(x12)
     cc4:	00938863          	beq	x7,x9,cd4 <I_sltiu_cg_cr_rs1_imm_edges_rs1val_0x0_immval_0x200+0x18>
     cc8:	7ec0246f          	jal	x8,34b4 <failedtest_x8_x7>
     ccc:	00000cbc          	.word	0x00000cbc
     cd0:	00009906          	.word	0x00009906
     cd4:	00460613          	addi	x12,x12,4

# Testcase cr_rs1_imm_edges (rs1 = 0x00000000, imm = 1023)
  RVTEST_TESTDATA_LOAD_INT(x1, x19) # load rs1: x19 = 0x00000000
     cd8:	0000a983          	lw	x19,0(x1)
     cdc:	00408093          	addi	x1,x1,4

00000ce0 <I_sltiu_cg_cr_rs1_imm_edges_rs1val_0x0_immval_0x3ff>:
I_sltiu_cg_cr_rs1_imm_edges_rs1val_0x0_immval_0x3ff:
  sltiu x5, x19, 1023 # perform operation
     ce0:	3ff9b293          	sltiu	x5,x19,1023
  # Check if x5 contains the expected result. x12 is the signature ptr, x8 is the link ptr, x7 is a temp reg.
  RVTEST_SIGUPD(x12, x8, x7, x5, I_sltiu_cg_cr_rs1_imm_edges_rs1val_0x0_immval_0x3ff, I_sltiu_cg_cr_rs1_imm_edges_rs1val_0x0_immval_0x3ff_str)
     ce4:	00062383          	lw	x7,0(x12)
     ce8:	00538863          	beq	x7,x5,cf8 <I_sltiu_cg_cr_rs1_imm_edges_rs1val_0x0_immval_0x3ff+0x18>
     cec:	7c80246f          	jal	x8,34b4 <failedtest_x8_x7>
     cf0:	00000ce0          	.word	0x00000ce0
     cf4:	00009956          	.word	0x00009956
     cf8:	00460613          	addi	x12,x12,4

# Testcase cr_rs1_imm_edges (rs1 = 0x00000000, imm = 1024)
  RVTEST_TESTDATA_LOAD_INT(x1, x3) # load rs1: x3 = 0x00000000
     cfc:	0000a183          	lw	x3,0(x1)
     d00:	00408093          	addi	x1,x1,4

00000d04 <I_sltiu_cg_cr_rs1_imm_edges_rs1val_0x0_immval_0x400>:
I_sltiu_cg_cr_rs1_imm_edges_rs1val_0x0_immval_0x400:
  sltiu x9, x3, 1024 # perform operation
     d04:	4001b493          	sltiu	x9,x3,1024
  # Check if x9 contains the expected result. x12 is the signature ptr, x8 is the link ptr, x7 is a temp reg.
  RVTEST_SIGUPD(x12, x8, x7, x9, I_sltiu_cg_cr_rs1_imm_edges_rs1val_0x0_immval_0x400, I_sltiu_cg_cr_rs1_imm_edges_rs1val_0x0_immval_0x400_str)
     d08:	00062383          	lw	x7,0(x12)
     d0c:	00938863          	beq	x7,x9,d1c <I_sltiu_cg_cr_rs1_imm_edges_rs1val_0x0_immval_0x400+0x18>
     d10:	7a40246f          	jal	x8,34b4 <failedtest_x8_x7>
     d14:	00000d04          	.word	0x00000d04
     d18:	000099a6          	.word	0x000099a6
     d1c:	00460613          	addi	x12,x12,4

# Testcase cr_rs1_imm_edges (rs1 = 0x00000000, imm = 1795)
  RVTEST_TESTDATA_LOAD_INT(x1, x11) # load rs1: x11 = 0x00000000
     d20:	0000a583          	lw	x11,0(x1)
     d24:	00408093          	addi	x1,x1,4

00000d28 <I_sltiu_cg_cr_rs1_imm_edges_rs1val_0x0_immval_0x703>:
I_sltiu_cg_cr_rs1_imm_edges_rs1val_0x0_immval_0x703:
  sltiu x9, x11, 1795 # perform operation
     d28:	7035b493          	sltiu	x9,x11,1795
  # Check if x9 contains the expected result. x12 is the signature ptr, x8 is the link ptr, x7 is a temp reg.
  RVTEST_SIGUPD(x12, x8, x7, x9, I_sltiu_cg_cr_rs1_imm_edges_rs1val_0x0_immval_0x703, I_sltiu_cg_cr_rs1_imm_edges_rs1val_0x0_immval_0x703_str)
     d2c:	00062383          	lw	x7,0(x12)
     d30:	00938863          	beq	x7,x9,d40 <I_sltiu_cg_cr_rs1_imm_edges_rs1val_0x0_immval_0x703+0x18>
     d34:	7800246f          	jal	x8,34b4 <failedtest_x8_x7>
     d38:	00000d28          	.word	0x00000d28
     d3c:	000099f6          	.word	0x000099f6
     d40:	00460613          	addi	x12,x12,4

# Testcase cr_rs1_imm_edges (rs1 = 0x00000000, imm = 2047)
  RVTEST_TESTDATA_LOAD_INT(x1, x9) # load rs1: x9 = 0x00000000
     d44:	0000a483          	lw	x9,0(x1)
     d48:	00408093          	addi	x1,x1,4

00000d4c <I_sltiu_cg_cr_rs1_imm_edges_rs1val_0x0_immval_0x7ff>:
I_sltiu_cg_cr_rs1_imm_edges_rs1val_0x0_immval_0x7ff:
  sltiu x6, x9, 2047 # perform operation
     d4c:	7ff4b313          	sltiu	x6,x9,2047
  # Check if x6 contains the expected result. x12 is the signature ptr, x8 is the link ptr, x7 is a temp reg.
  RVTEST_SIGUPD(x12, x8, x7, x6, I_sltiu_cg_cr_rs1_imm_edges_rs1val_0x0_immval_0x7ff, I_sltiu_cg_cr_rs1_imm_edges_rs1val_0x0_immval_0x7ff_str)
     d50:	00062383          	lw	x7,0(x12)
     d54:	00638863          	beq	x7,x6,d64 <I_sltiu_cg_cr_rs1_imm_edges_rs1val_0x0_immval_0x7ff+0x18>
     d58:	75c0246f          	jal	x8,34b4 <failedtest_x8_x7>
     d5c:	00000d4c          	.word	0x00000d4c
     d60:	00009a46          	.word	0x00009a46
     d64:	00460613          	addi	x12,x12,4

# Testcase cr_rs1_imm_edges (rs1 = 0x00000000, imm = -2048)
  RVTEST_TESTDATA_LOAD_INT(x1, x17) # load rs1: x17 = 0x00000000
     d68:	0000a883          	lw	x17,0(x1)
     d6c:	00408093          	addi	x1,x1,4

00000d70 <I_sltiu_cg_cr_rs1_imm_edges_rs1val_0x0_immval_m0x800>:
I_sltiu_cg_cr_rs1_imm_edges_rs1val_0x0_immval_m0x800:
  sltiu x16, x17, -2048 # perform operation
     d70:	8008b813          	sltiu	x16,x17,-2048
  # Check if x16 contains the expected result. x12 is the signature ptr, x8 is the link ptr, x7 is a temp reg.
  RVTEST_SIGUPD(x12, x8, x7, x16, I_sltiu_cg_cr_rs1_imm_edges_rs1val_0x0_immval_m0x800, I_sltiu_cg_cr_rs1_imm_edges_rs1val_0x0_immval_m0x800_str)
     d74:	00062383          	lw	x7,0(x12)
     d78:	01038863          	beq	x7,x16,d88 <I_sltiu_cg_cr_rs1_imm_edges_rs1val_0x0_immval_m0x800+0x18>
     d7c:	7380246f          	jal	x8,34b4 <failedtest_x8_x7>
     d80:	00000d70          	.word	0x00000d70
     d84:	00009a96          	.word	0x00009a96
     d88:	00460613          	addi	x12,x12,4

# Testcase cr_rs1_imm_edges (rs1 = 0x00000000, imm = -2047)
  RVTEST_TESTDATA_LOAD_INT(x1, x5) # load rs1: x5 = 0x00000000
     d8c:	0000a283          	lw	x5,0(x1)
     d90:	00408093          	addi	x1,x1,4

00000d94 <I_sltiu_cg_cr_rs1_imm_edges_rs1val_0x0_immval_m0x7ff>:
I_sltiu_cg_cr_rs1_imm_edges_rs1val_0x0_immval_m0x7ff:
  sltiu x16, x5, -2047 # perform operation
     d94:	8012b813          	sltiu	x16,x5,-2047
  # Check if x16 contains the expected result. x12 is the signature ptr, x8 is the link ptr, x7 is a temp reg.
  RVTEST_SIGUPD(x12, x8, x7, x16, I_sltiu_cg_cr_rs1_imm_edges_rs1val_0x0_immval_m0x7ff, I_sltiu_cg_cr_rs1_imm_edges_rs1val_0x0_immval_m0x7ff_str)
     d98:	00062383          	lw	x7,0(x12)
     d9c:	01038863          	beq	x7,x16,dac <I_sltiu_cg_cr_rs1_imm_edges_rs1val_0x0_immval_m0x7ff+0x18>
     da0:	7140246f          	jal	x8,34b4 <failedtest_x8_x7>
     da4:	00000d94          	.word	0x00000d94
     da8:	00009ae7          	.word	0x00009ae7
     dac:	00460613          	addi	x12,x12,4

# Testcase cr_rs1_imm_edges (rs1 = 0x00000000, imm = -2)
  RVTEST_TESTDATA_LOAD_INT(x1, x18) # load rs1: x18 = 0x00000000
     db0:	0000a903          	lw	x18,0(x1)
     db4:	00408093          	addi	x1,x1,4

00000db8 <I_sltiu_cg_cr_rs1_imm_edges_rs1val_0x0_immval_m0x2>:
I_sltiu_cg_cr_rs1_imm_edges_rs1val_0x0_immval_m0x2:
  sltiu x2, x18, -2 # perform operation
     db8:	ffe93113          	sltiu	x2,x18,-2
  # Check if x2 contains the expected result. x12 is the signature ptr, x8 is the link ptr, x7 is a temp reg.
  RVTEST_SIGUPD(x12, x8, x7, x2, I_sltiu_cg_cr_rs1_imm_edges_rs1val_0x0_immval_m0x2, I_sltiu_cg_cr_rs1_imm_edges_rs1val_0x0_immval_m0x2_str)
     dbc:	00062383          	lw	x7,0(x12)
     dc0:	00238863          	beq	x7,x2,dd0 <I_sltiu_cg_cr_rs1_imm_edges_rs1val_0x0_immval_m0x2+0x18>
     dc4:	6f00246f          	jal	x8,34b4 <failedtest_x8_x7>
     dc8:	00000db8          	.word	0x00000db8
     dcc:	00009b38          	.word	0x00009b38
     dd0:	00460613          	addi	x12,x12,4

# Testcase cr_rs1_imm_edges (rs1 = 0x00000000, imm = -1)
  RVTEST_TESTDATA_LOAD_INT(x1, x3) # load rs1: x3 = 0x00000000
     dd4:	0000a183          	lw	x3,0(x1)
     dd8:	00408093          	addi	x1,x1,4

00000ddc <I_sltiu_cg_cr_rs1_imm_edges_rs1val_0x0_immval_m0x1>:
I_sltiu_cg_cr_rs1_imm_edges_rs1val_0x0_immval_m0x1:
  sltiu x18, x3, -1 # perform operation
     ddc:	fff1b913          	sltiu	x18,x3,-1
  # Check if x18 contains the expected result. x12 is the signature ptr, x8 is the link ptr, x7 is a temp reg.
  RVTEST_SIGUPD(x12, x8, x7, x18, I_sltiu_cg_cr_rs1_imm_edges_rs1val_0x0_immval_m0x1, I_sltiu_cg_cr_rs1_imm_edges_rs1val_0x0_immval_m0x1_str)
     de0:	00062383          	lw	x7,0(x12)
     de4:	01238863          	beq	x7,x18,df4 <I_sltiu_cg_cr_rs1_imm_edges_rs1val_0x0_immval_m0x1+0x18>
     de8:	6cc0246f          	jal	x8,34b4 <failedtest_x8_x7>
     dec:	00000ddc          	.word	0x00000ddc
     df0:	00009b87          	.word	0x00009b87
     df4:	00460613          	addi	x12,x12,4

# Testcase cr_rs1_imm_edges (rs1 = 0x00000001, imm = 0)
  RVTEST_TESTDATA_LOAD_INT(x1, x17) # load rs1: x17 = 0x00000001
     df8:	0000a883          	lw	x17,0(x1)
     dfc:	00408093          	addi	x1,x1,4

00000e00 <I_sltiu_cg_cr_rs1_imm_edges_rs1val_0x1_immval_0x0>:
I_sltiu_cg_cr_rs1_imm_edges_rs1val_0x1_immval_0x0:
  sltiu x5, x17, 0 # perform operation
     e00:	0008b293          	sltiu	x5,x17,0
  # Check if x5 contains the expected result. x12 is the signature ptr, x8 is the link ptr, x7 is a temp reg.
  RVTEST_SIGUPD(x12, x8, x7, x5, I_sltiu_cg_cr_rs1_imm_edges_rs1val_0x1_immval_0x0, I_sltiu_cg_cr_rs1_imm_edges_rs1val_0x1_immval_0x0_str)
     e04:	00062383          	lw	x7,0(x12)
     e08:	00538863          	beq	x7,x5,e18 <I_sltiu_cg_cr_rs1_imm_edges_rs1val_0x1_immval_0x0+0x18>
     e0c:	6a80246f          	jal	x8,34b4 <failedtest_x8_x7>
     e10:	00000e00          	.word	0x00000e00
     e14:	00009bd6          	.word	0x00009bd6
     e18:	00460613          	addi	x12,x12,4

# Testcase cr_rs1_imm_edges (rs1 = 0x00000001, imm = 1)
  RVTEST_TESTDATA_LOAD_INT(x1, x16) # load rs1: x16 = 0x00000001
     e1c:	0000a803          	lw	x16,0(x1)
     e20:	00408093          	addi	x1,x1,4

00000e24 <I_sltiu_cg_cr_rs1_imm_edges_rs1val_0x1_immval_0x1>:
I_sltiu_cg_cr_rs1_imm_edges_rs1val_0x1_immval_0x1:
  sltiu x17, x16, 1 # perform operation
     e24:	00183893          	sltiu	x17,x16,1
  # Check if x17 contains the expected result. x12 is the signature ptr, x8 is the link ptr, x7 is a temp reg.
  RVTEST_SIGUPD(x12, x8, x7, x17, I_sltiu_cg_cr_rs1_imm_edges_rs1val_0x1_immval_0x1, I_sltiu_cg_cr_rs1_imm_edges_rs1val_0x1_immval_0x1_str)
     e28:	00062383          	lw	x7,0(x12)
     e2c:	01138863          	beq	x7,x17,e3c <I_sltiu_cg_cr_rs1_imm_edges_rs1val_0x1_immval_0x1+0x18>
     e30:	6840246f          	jal	x8,34b4 <failedtest_x8_x7>
     e34:	00000e24          	.word	0x00000e24
     e38:	00009c24          	.word	0x00009c24
     e3c:	00460613          	addi	x12,x12,4

# Testcase cr_rs1_imm_edges (rs1 = 0x00000001, imm = 2)
  RVTEST_TESTDATA_LOAD_INT(x1, x11) # load rs1: x11 = 0x00000001
     e40:	0000a583          	lw	x11,0(x1)
     e44:	00408093          	addi	x1,x1,4

00000e48 <I_sltiu_cg_cr_rs1_imm_edges_rs1val_0x1_immval_0x2>:
I_sltiu_cg_cr_rs1_imm_edges_rs1val_0x1_immval_0x2:
  sltiu x2, x11, 2 # perform operation
     e48:	0025b113          	sltiu	x2,x11,2
  # Check if x2 contains the expected result. x12 is the signature ptr, x8 is the link ptr, x7 is a temp reg.
  RVTEST_SIGUPD(x12, x8, x7, x2, I_sltiu_cg_cr_rs1_imm_edges_rs1val_0x1_immval_0x2, I_sltiu_cg_cr_rs1_imm_edges_rs1val_0x1_immval_0x2_str)
     e4c:	00062383          	lw	x7,0(x12)
     e50:	00238863          	beq	x7,x2,e60 <I_sltiu_cg_cr_rs1_imm_edges_rs1val_0x1_immval_0x2+0x18>
     e54:	6600246f          	jal	x8,34b4 <failedtest_x8_x7>
     e58:	00000e48          	.word	0x00000e48
     e5c:	00009c72          	.word	0x00009c72
     e60:	00460613          	addi	x12,x12,4

# Testcase cr_rs1_imm_edges (rs1 = 0x00000001, imm = 3)
  RVTEST_TESTDATA_LOAD_INT(x1, x13) # load rs1: x13 = 0x00000001
     e64:	0000a683          	lw	x13,0(x1)
     e68:	00408093          	addi	x1,x1,4

00000e6c <I_sltiu_cg_cr_rs1_imm_edges_rs1val_0x1_immval_0x3>:
I_sltiu_cg_cr_rs1_imm_edges_rs1val_0x1_immval_0x3:
  sltiu x15, x13, 3 # perform operation
     e6c:	0036b793          	sltiu	x15,x13,3
  # Check if x15 contains the expected result. x12 is the signature ptr, x8 is the link ptr, x7 is a temp reg.
  RVTEST_SIGUPD(x12, x8, x7, x15, I_sltiu_cg_cr_rs1_imm_edges_rs1val_0x1_immval_0x3, I_sltiu_cg_cr_rs1_imm_edges_rs1val_0x1_immval_0x3_str)
     e70:	00062383          	lw	x7,0(x12)
     e74:	00f38863          	beq	x7,x15,e84 <I_sltiu_cg_cr_rs1_imm_edges_rs1val_0x1_immval_0x3+0x18>
     e78:	63c0246f          	jal	x8,34b4 <failedtest_x8_x7>
     e7c:	00000e6c          	.word	0x00000e6c
     e80:	00009cc0          	.word	0x00009cc0
     e84:	00460613          	addi	x12,x12,4

# Testcase cr_rs1_imm_edges (rs1 = 0x00000001, imm = 4)
  RVTEST_TESTDATA_LOAD_INT(x1, x2) # load rs1: x2 = 0x00000001
     e88:	0000a103          	lw	x2,0(x1)
     e8c:	00408093          	addi	x1,x1,4

00000e90 <I_sltiu_cg_cr_rs1_imm_edges_rs1val_0x1_immval_0x4>:
I_sltiu_cg_cr_rs1_imm_edges_rs1val_0x1_immval_0x4:
  sltiu x17, x2, 4 # perform operation
     e90:	00413893          	sltiu	x17,x2,4
  # Check if x17 contains the expected result. x12 is the signature ptr, x8 is the link ptr, x7 is a temp reg.
  RVTEST_SIGUPD(x12, x8, x7, x17, I_sltiu_cg_cr_rs1_imm_edges_rs1val_0x1_immval_0x4, I_sltiu_cg_cr_rs1_imm_edges_rs1val_0x1_immval_0x4_str)
     e94:	00062383          	lw	x7,0(x12)
     e98:	01138863          	beq	x7,x17,ea8 <I_sltiu_cg_cr_rs1_imm_edges_rs1val_0x1_immval_0x4+0x18>
     e9c:	6180246f          	jal	x8,34b4 <failedtest_x8_x7>
     ea0:	00000e90          	.word	0x00000e90
     ea4:	00009d0f          	.word	0x00009d0f
     ea8:	00460613          	addi	x12,x12,4

# Testcase cr_rs1_imm_edges (rs1 = 0x00000001, imm = 8)
  RVTEST_TESTDATA_LOAD_INT(x1, x20) # load rs1: x20 = 0x00000001
     eac:	0000aa03          	lw	x20,0(x1)
     eb0:	00408093          	addi	x1,x1,4

00000eb4 <I_sltiu_cg_cr_rs1_imm_edges_rs1val_0x1_immval_0x8>:
I_sltiu_cg_cr_rs1_imm_edges_rs1val_0x1_immval_0x8:
  sltiu x10, x20, 8 # perform operation
     eb4:	008a3513          	sltiu	x10,x20,8
  # Check if x10 contains the expected result. x12 is the signature ptr, x8 is the link ptr, x7 is a temp reg.
  RVTEST_SIGUPD(x12, x8, x7, x10, I_sltiu_cg_cr_rs1_imm_edges_rs1val_0x1_immval_0x8, I_sltiu_cg_cr_rs1_imm_edges_rs1val_0x1_immval_0x8_str)
     eb8:	00062383          	lw	x7,0(x12)
     ebc:	00a38863          	beq	x7,x10,ecc <I_sltiu_cg_cr_rs1_imm_edges_rs1val_0x1_immval_0x8+0x18>
     ec0:	5f40246f          	jal	x8,34b4 <failedtest_x8_x7>
     ec4:	00000eb4          	.word	0x00000eb4
     ec8:	00009d5e          	.word	0x00009d5e
     ecc:	00460613          	addi	x12,x12,4

# Testcase cr_rs1_imm_edges (rs1 = 0x00000001, imm = 16)
  RVTEST_TESTDATA_LOAD_INT(x1, x18) # load rs1: x18 = 0x00000001
     ed0:	0000a903          	lw	x18,0(x1)
     ed4:	00408093          	addi	x1,x1,4

00000ed8 <I_sltiu_cg_cr_rs1_imm_edges_rs1val_0x1_immval_0x10>:
I_sltiu_cg_cr_rs1_imm_edges_rs1val_0x1_immval_0x10:
  sltiu x29, x18, 16 # perform operation
     ed8:	01093e93          	sltiu	x29,x18,16
  # Check if x29 contains the expected result. x12 is the signature ptr, x8 is the link ptr, x7 is a temp reg.
  RVTEST_SIGUPD(x12, x8, x7, x29, I_sltiu_cg_cr_rs1_imm_edges_rs1val_0x1_immval_0x10, I_sltiu_cg_cr_rs1_imm_edges_rs1val_0x1_immval_0x10_str)
     edc:	00062383          	lw	x7,0(x12)
     ee0:	01d38863          	beq	x7,x29,ef0 <I_sltiu_cg_cr_rs1_imm_edges_rs1val_0x1_immval_0x10+0x18>
     ee4:	5d00246f          	jal	x8,34b4 <failedtest_x8_x7>
     ee8:	00000ed8          	.word	0x00000ed8
     eec:	00009dad          	.word	0x00009dad
     ef0:	00460613          	addi	x12,x12,4

# Testcase cr_rs1_imm_edges (rs1 = 0x00000001, imm = 32)
  RVTEST_TESTDATA_LOAD_INT(x1, x15) # load rs1: x15 = 0x00000001
     ef4:	0000a783          	lw	x15,0(x1)
     ef8:	00408093          	addi	x1,x1,4

00000efc <I_sltiu_cg_cr_rs1_imm_edges_rs1val_0x1_immval_0x20>:
I_sltiu_cg_cr_rs1_imm_edges_rs1val_0x1_immval_0x20:
  sltiu x30, x15, 32 # perform operation
     efc:	0207bf13          	sltiu	x30,x15,32
  # Check if x30 contains the expected result. x12 is the signature ptr, x8 is the link ptr, x7 is a temp reg.
  RVTEST_SIGUPD(x12, x8, x7, x30, I_sltiu_cg_cr_rs1_imm_edges_rs1val_0x1_immval_0x20, I_sltiu_cg_cr_rs1_imm_edges_rs1val_0x1_immval_0x20_str)
     f00:	00062383          	lw	x7,0(x12)
     f04:	01e38863          	beq	x7,x30,f14 <I_sltiu_cg_cr_rs1_imm_edges_rs1val_0x1_immval_0x20+0x18>
     f08:	5ac0246f          	jal	x8,34b4 <failedtest_x8_x7>
     f0c:	00000efc          	.word	0x00000efc
     f10:	00009dfd          	.word	0x00009dfd
     f14:	00460613          	addi	x12,x12,4

# Testcase cr_rs1_imm_edges (rs1 = 0x00000001, imm = 64)
  RVTEST_TESTDATA_LOAD_INT(x1, x28) # load rs1: x28 = 0x00000001
     f18:	0000ae03          	lw	x28,0(x1)
     f1c:	00408093          	addi	x1,x1,4

00000f20 <I_sltiu_cg_cr_rs1_imm_edges_rs1val_0x1_immval_0x40>:
I_sltiu_cg_cr_rs1_imm_edges_rs1val_0x1_immval_0x40:
  sltiu x13, x28, 64 # perform operation
     f20:	040e3693          	sltiu	x13,x28,64
  # Check if x13 contains the expected result. x12 is the signature ptr, x8 is the link ptr, x7 is a temp reg.
  RVTEST_SIGUPD(x12, x8, x7, x13, I_sltiu_cg_cr_rs1_imm_edges_rs1val_0x1_immval_0x40, I_sltiu_cg_cr_rs1_imm_edges_rs1val_0x1_immval_0x40_str)
     f24:	00062383          	lw	x7,0(x12)
     f28:	00d38863          	beq	x7,x13,f38 <I_sltiu_cg_cr_rs1_imm_edges_rs1val_0x1_immval_0x40+0x18>
     f2c:	5880246f          	jal	x8,34b4 <failedtest_x8_x7>
     f30:	00000f20          	.word	0x00000f20
     f34:	00009e4d          	.word	0x00009e4d
     f38:	00460613          	addi	x12,x12,4

# Testcase cr_rs1_imm_edges (rs1 = 0x00000001, imm = 128)
  RVTEST_TESTDATA_LOAD_INT(x1, x18) # load rs1: x18 = 0x00000001
     f3c:	0000a903          	lw	x18,0(x1)
     f40:	00408093          	addi	x1,x1,4

00000f44 <I_sltiu_cg_cr_rs1_imm_edges_rs1val_0x1_immval_0x80>:
I_sltiu_cg_cr_rs1_imm_edges_rs1val_0x1_immval_0x80:
  sltiu x16, x18, 128 # perform operation
     f44:	08093813          	sltiu	x16,x18,128
  # Check if x16 contains the expected result. x12 is the signature ptr, x8 is the link ptr, x7 is a temp reg.
  RVTEST_SIGUPD(x12, x8, x7, x16, I_sltiu_cg_cr_rs1_imm_edges_rs1val_0x1_immval_0x80, I_sltiu_cg_cr_rs1_imm_edges_rs1val_0x1_immval_0x80_str)
     f48:	00062383          	lw	x7,0(x12)
     f4c:	01038863          	beq	x7,x16,f5c <I_sltiu_cg_cr_rs1_imm_edges_rs1val_0x1_immval_0x80+0x18>
     f50:	5640246f          	jal	x8,34b4 <failedtest_x8_x7>
     f54:	00000f44          	.word	0x00000f44
     f58:	00009e9d          	.word	0x00009e9d
     f5c:	00460613          	addi	x12,x12,4

# Testcase cr_rs1_imm_edges (rs1 = 0x00000001, imm = 256)
  RVTEST_TESTDATA_LOAD_INT(x1, x13) # load rs1: x13 = 0x00000001
     f60:	0000a683          	lw	x13,0(x1)
     f64:	00408093          	addi	x1,x1,4

00000f68 <I_sltiu_cg_cr_rs1_imm_edges_rs1val_0x1_immval_0x100>:
I_sltiu_cg_cr_rs1_imm_edges_rs1val_0x1_immval_0x100:
  sltiu x27, x13, 256 # perform operation
     f68:	1006bd93          	sltiu	x27,x13,256
  # Check if x27 contains the expected result. x12 is the signature ptr, x8 is the link ptr, x7 is a temp reg.
  RVTEST_SIGUPD(x12, x8, x7, x27, I_sltiu_cg_cr_rs1_imm_edges_rs1val_0x1_immval_0x100, I_sltiu_cg_cr_rs1_imm_edges_rs1val_0x1_immval_0x100_str)
     f6c:	00062383          	lw	x7,0(x12)
     f70:	01b38863          	beq	x7,x27,f80 <I_sltiu_cg_cr_rs1_imm_edges_rs1val_0x1_immval_0x100+0x18>
     f74:	5400246f          	jal	x8,34b4 <failedtest_x8_x7>
     f78:	00000f68          	.word	0x00000f68
     f7c:	00009eed          	.word	0x00009eed
     f80:	00460613          	addi	x12,x12,4

# Testcase cr_rs1_imm_edges (rs1 = 0x00000001, imm = 512)
  RVTEST_TESTDATA_LOAD_INT(x1, x18) # load rs1: x18 = 0x00000001
     f84:	0000a903          	lw	x18,0(x1)
     f88:	00408093          	addi	x1,x1,4

00000f8c <I_sltiu_cg_cr_rs1_imm_edges_rs1val_0x1_immval_0x200>:
I_sltiu_cg_cr_rs1_imm_edges_rs1val_0x1_immval_0x200:
  sltiu x28, x18, 512 # perform operation
     f8c:	20093e13          	sltiu	x28,x18,512
  # Check if x28 contains the expected result. x12 is the signature ptr, x8 is the link ptr, x7 is a temp reg.
  RVTEST_SIGUPD(x12, x8, x7, x28, I_sltiu_cg_cr_rs1_imm_edges_rs1val_0x1_immval_0x200, I_sltiu_cg_cr_rs1_imm_edges_rs1val_0x1_immval_0x200_str)
     f90:	00062383          	lw	x7,0(x12)
     f94:	01c38863          	beq	x7,x28,fa4 <I_sltiu_cg_cr_rs1_imm_edges_rs1val_0x1_immval_0x200+0x18>
     f98:	51c0246f          	jal	x8,34b4 <failedtest_x8_x7>
     f9c:	00000f8c          	.word	0x00000f8c
     fa0:	00009f3e          	.word	0x00009f3e
     fa4:	00460613          	addi	x12,x12,4

# Testcase cr_rs1_imm_edges (rs1 = 0x00000001, imm = 1023)
  RVTEST_TESTDATA_LOAD_INT(x1, x21) # load rs1: x21 = 0x00000001
     fa8:	0000aa83          	lw	x21,0(x1)
     fac:	00408093          	addi	x1,x1,4

00000fb0 <I_sltiu_cg_cr_rs1_imm_edges_rs1val_0x1_immval_0x3ff>:
I_sltiu_cg_cr_rs1_imm_edges_rs1val_0x1_immval_0x3ff:
  sltiu x16, x21, 1023 # perform operation
     fb0:	3ffab813          	sltiu	x16,x21,1023
  # Check if x16 contains the expected result. x12 is the signature ptr, x8 is the link ptr, x7 is a temp reg.
  RVTEST_SIGUPD(x12, x8, x7, x16, I_sltiu_cg_cr_rs1_imm_edges_rs1val_0x1_immval_0x3ff, I_sltiu_cg_cr_rs1_imm_edges_rs1val_0x1_immval_0x3ff_str)
     fb4:	00062383          	lw	x7,0(x12)
     fb8:	01038863          	beq	x7,x16,fc8 <I_sltiu_cg_cr_rs1_imm_edges_rs1val_0x1_immval_0x3ff+0x18>
     fbc:	4f80246f          	jal	x8,34b4 <failedtest_x8_x7>
     fc0:	00000fb0          	.word	0x00000fb0
     fc4:	00009f8f          	.word	0x00009f8f
     fc8:	00460613          	addi	x12,x12,4

# Testcase cr_rs1_imm_edges (rs1 = 0x00000001, imm = 1024)
  RVTEST_TESTDATA_LOAD_INT(x1, x16) # load rs1: x16 = 0x00000001
     fcc:	0000a803          	lw	x16,0(x1)
     fd0:	00408093          	addi	x1,x1,4

00000fd4 <I_sltiu_cg_cr_rs1_imm_edges_rs1val_0x1_immval_0x400>:
I_sltiu_cg_cr_rs1_imm_edges_rs1val_0x1_immval_0x400:
  sltiu x20, x16, 1024 # perform operation
     fd4:	40083a13          	sltiu	x20,x16,1024
  # Check if x20 contains the expected result. x12 is the signature ptr, x8 is the link ptr, x7 is a temp reg.
  RVTEST_SIGUPD(x12, x8, x7, x20, I_sltiu_cg_cr_rs1_imm_edges_rs1val_0x1_immval_0x400, I_sltiu_cg_cr_rs1_imm_edges_rs1val_0x1_immval_0x400_str)
     fd8:	00062383          	lw	x7,0(x12)
     fdc:	01438863          	beq	x7,x20,fec <I_sltiu_cg_cr_rs1_imm_edges_rs1val_0x1_immval_0x400+0x18>
     fe0:	4d40246f          	jal	x8,34b4 <failedtest_x8_x7>
     fe4:	00000fd4          	.word	0x00000fd4
     fe8:	00009fe0          	.word	0x00009fe0
     fec:	00460613          	addi	x12,x12,4

# Testcase cr_rs1_imm_edges (rs1 = 0x00000001, imm = 1795)
  RVTEST_TESTDATA_LOAD_INT(x1, x31) # load rs1: x31 = 0x00000001
     ff0:	0000af83          	lw	x31,0(x1)
     ff4:	00408093          	addi	x1,x1,4

00000ff8 <I_sltiu_cg_cr_rs1_imm_edges_rs1val_0x1_immval_0x703>:
I_sltiu_cg_cr_rs1_imm_edges_rs1val_0x1_immval_0x703:
  sltiu x27, x31, 1795 # perform operation
     ff8:	703fbd93          	sltiu	x27,x31,1795
  # Check if x27 contains the expected result. x12 is the signature ptr, x8 is the link ptr, x7 is a temp reg.
  RVTEST_SIGUPD(x12, x8, x7, x27, I_sltiu_cg_cr_rs1_imm_edges_rs1val_0x1_immval_0x703, I_sltiu_cg_cr_rs1_imm_edges_rs1val_0x1_immval_0x703_str)
     ffc:	00062383          	lw	x7,0(x12)
    1000:	01b38863          	beq	x7,x27,1010 <I_sltiu_cg_cr_rs1_imm_edges_rs1val_0x1_immval_0x703+0x18>
    1004:	4b00246f          	jal	x8,34b4 <failedtest_x8_x7>
    1008:	00000ff8          	.word	0x00000ff8
    100c:	0000a031          	.word	0x0000a031
    1010:	00460613          	addi	x12,x12,4

# Testcase cr_rs1_imm_edges (rs1 = 0x00000001, imm = 2047)
  RVTEST_TESTDATA_LOAD_INT(x1, x23) # load rs1: x23 = 0x00000001
    1014:	0000ab83          	lw	x23,0(x1)
    1018:	00408093          	addi	x1,x1,4

0000101c <I_sltiu_cg_cr_rs1_imm_edges_rs1val_0x1_immval_0x7ff>:
I_sltiu_cg_cr_rs1_imm_edges_rs1val_0x1_immval_0x7ff:
  sltiu x25, x23, 2047 # perform operation
    101c:	7ffbbc93          	sltiu	x25,x23,2047
  # Check if x25 contains the expected result. x12 is the signature ptr, x8 is the link ptr, x7 is a temp reg.
  RVTEST_SIGUPD(x12, x8, x7, x25, I_sltiu_cg_cr_rs1_imm_edges_rs1val_0x1_immval_0x7ff, I_sltiu_cg_cr_rs1_imm_edges_rs1val_0x1_immval_0x7ff_str)
    1020:	00062383          	lw	x7,0(x12)
    1024:	01938863          	beq	x7,x25,1034 <I_sltiu_cg_cr_rs1_imm_edges_rs1val_0x1_immval_0x7ff+0x18>
    1028:	48c0246f          	jal	x8,34b4 <failedtest_x8_x7>
    102c:	0000101c          	.word	0x0000101c
    1030:	0000a082          	.word	0x0000a082
    1034:	00460613          	addi	x12,x12,4

# Testcase cr_rs1_imm_edges (rs1 = 0x00000001, imm = -2048)
  RVTEST_TESTDATA_LOAD_INT(x1, x11) # load rs1: x11 = 0x00000001
    1038:	0000a583          	lw	x11,0(x1)
    103c:	00408093          	addi	x1,x1,4

00001040 <I_sltiu_cg_cr_rs1_imm_edges_rs1val_0x1_immval_m0x800>:
I_sltiu_cg_cr_rs1_imm_edges_rs1val_0x1_immval_m0x800:
  sltiu x21, x11, -2048 # perform operation
    1040:	8005ba93          	sltiu	x21,x11,-2048
  # Check if x21 contains the expected result. x12 is the signature ptr, x8 is the link ptr, x7 is a temp reg.
  RVTEST_SIGUPD(x12, x8, x7, x21, I_sltiu_cg_cr_rs1_imm_edges_rs1val_0x1_immval_m0x800, I_sltiu_cg_cr_rs1_imm_edges_rs1val_0x1_immval_m0x800_str)
    1044:	00062383          	lw	x7,0(x12)
    1048:	01538863          	beq	x7,x21,1058 <I_sltiu_cg_cr_rs1_imm_edges_rs1val_0x1_immval_m0x800+0x18>
    104c:	4680246f          	jal	x8,34b4 <failedtest_x8_x7>
    1050:	00001040          	.word	0x00001040
    1054:	0000a0d3          	.word	0x0000a0d3
    1058:	00460613          	addi	x12,x12,4

# Testcase cr_rs1_imm_edges (rs1 = 0x00000001, imm = -2047)
  RVTEST_TESTDATA_LOAD_INT(x1, x19) # load rs1: x19 = 0x00000001
    105c:	0000a983          	lw	x19,0(x1)
    1060:	00408093          	addi	x1,x1,4

00001064 <I_sltiu_cg_cr_rs1_imm_edges_rs1val_0x1_immval_m0x7ff>:
I_sltiu_cg_cr_rs1_imm_edges_rs1val_0x1_immval_m0x7ff:
  sltiu x5, x19, -2047 # perform operation
    1064:	8019b293          	sltiu	x5,x19,-2047
  # Check if x5 contains the expected result. x12 is the signature ptr, x8 is the link ptr, x7 is a temp reg.
  RVTEST_SIGUPD(x12, x8, x7, x5, I_sltiu_cg_cr_rs1_imm_edges_rs1val_0x1_immval_m0x7ff, I_sltiu_cg_cr_rs1_imm_edges_rs1val_0x1_immval_m0x7ff_str)
    1068:	00062383          	lw	x7,0(x12)
    106c:	00538863          	beq	x7,x5,107c <I_sltiu_cg_cr_rs1_imm_edges_rs1val_0x1_immval_m0x7ff+0x18>
    1070:	4440246f          	jal	x8,34b4 <failedtest_x8_x7>
    1074:	00001064          	.word	0x00001064
    1078:	0000a125          	.word	0x0000a125
    107c:	00460613          	addi	x12,x12,4

# Testcase cr_rs1_imm_edges (rs1 = 0x00000001, imm = -2)
  RVTEST_TESTDATA_LOAD_INT(x1, x16) # load rs1: x16 = 0x00000001
    1080:	0000a803          	lw	x16,0(x1)
    1084:	00408093          	addi	x1,x1,4

00001088 <I_sltiu_cg_cr_rs1_imm_edges_rs1val_0x1_immval_m0x2>:
I_sltiu_cg_cr_rs1_imm_edges_rs1val_0x1_immval_m0x2:
  sltiu x22, x16, -2 # perform operation
    1088:	ffe83b13          	sltiu	x22,x16,-2
  # Check if x22 contains the expected result. x12 is the signature ptr, x8 is the link ptr, x7 is a temp reg.
  RVTEST_SIGUPD(x12, x8, x7, x22, I_sltiu_cg_cr_rs1_imm_edges_rs1val_0x1_immval_m0x2, I_sltiu_cg_cr_rs1_imm_edges_rs1val_0x1_immval_m0x2_str)
    108c:	00062383          	lw	x7,0(x12)
    1090:	01638863          	beq	x7,x22,10a0 <I_sltiu_cg_cr_rs1_imm_edges_rs1val_0x1_immval_m0x2+0x18>
    1094:	4200246f          	jal	x8,34b4 <failedtest_x8_x7>
    1098:	00001088          	.word	0x00001088
    109c:	0000a177          	.word	0x0000a177
    10a0:	00460613          	addi	x12,x12,4

# Testcase cr_rs1_imm_edges (rs1 = 0x00000001, imm = -1)
  RVTEST_TESTDATA_LOAD_INT(x1, x27) # load rs1: x27 = 0x00000001
    10a4:	0000ad83          	lw	x27,0(x1)
    10a8:	00408093          	addi	x1,x1,4

000010ac <I_sltiu_cg_cr_rs1_imm_edges_rs1val_0x1_immval_m0x1>:
I_sltiu_cg_cr_rs1_imm_edges_rs1val_0x1_immval_m0x1:
  sltiu x28, x27, -1 # perform operation
    10ac:	fffdbe13          	sltiu	x28,x27,-1
  # Check if x28 contains the expected result. x12 is the signature ptr, x8 is the link ptr, x7 is a temp reg.
  RVTEST_SIGUPD(x12, x8, x7, x28, I_sltiu_cg_cr_rs1_imm_edges_rs1val_0x1_immval_m0x1, I_sltiu_cg_cr_rs1_imm_edges_rs1val_0x1_immval_m0x1_str)
    10b0:	00062383          	lw	x7,0(x12)
    10b4:	01c38863          	beq	x7,x28,10c4 <I_sltiu_cg_cr_rs1_imm_edges_rs1val_0x1_immval_m0x1+0x18>
    10b8:	3fc0246f          	jal	x8,34b4 <failedtest_x8_x7>
    10bc:	000010ac          	.word	0x000010ac
    10c0:	0000a1c7          	.word	0x0000a1c7
    10c4:	00460613          	addi	x12,x12,4

# Testcase cr_rs1_imm_edges (rs1 = 0x00000002, imm = 0)
  RVTEST_TESTDATA_LOAD_INT(x1, x17) # load rs1: x17 = 0x00000002
    10c8:	0000a883          	lw	x17,0(x1)
    10cc:	00408093          	addi	x1,x1,4

000010d0 <I_sltiu_cg_cr_rs1_imm_edges_rs1val_0x2_immval_0x0>:
I_sltiu_cg_cr_rs1_imm_edges_rs1val_0x2_immval_0x0:
  sltiu x24, x17, 0 # perform operation
    10d0:	0008bc13          	sltiu	x24,x17,0
  # Check if x24 contains the expected result. x12 is the signature ptr, x8 is the link ptr, x7 is a temp reg.
  RVTEST_SIGUPD(x12, x8, x7, x24, I_sltiu_cg_cr_rs1_imm_edges_rs1val_0x2_immval_0x0, I_sltiu_cg_cr_rs1_imm_edges_rs1val_0x2_immval_0x0_str)
    10d4:	00062383          	lw	x7,0(x12)
    10d8:	01838863          	beq	x7,x24,10e8 <I_sltiu_cg_cr_rs1_imm_edges_rs1val_0x2_immval_0x0+0x18>
    10dc:	3d80246f          	jal	x8,34b4 <failedtest_x8_x7>
    10e0:	000010d0          	.word	0x000010d0
    10e4:	0000a217          	.word	0x0000a217
    10e8:	00460613          	addi	x12,x12,4

# Testcase cr_rs1_imm_edges (rs1 = 0x00000002, imm = 1)
  RVTEST_TESTDATA_LOAD_INT(x1, x3) # load rs1: x3 = 0x00000002
    10ec:	0000a183          	lw	x3,0(x1)
    10f0:	00408093          	addi	x1,x1,4

000010f4 <I_sltiu_cg_cr_rs1_imm_edges_rs1val_0x2_immval_0x1>:
I_sltiu_cg_cr_rs1_imm_edges_rs1val_0x2_immval_0x1:
  sltiu x16, x3, 1 # perform operation
    10f4:	0011b813          	sltiu	x16,x3,1
  # Check if x16 contains the expected result. x12 is the signature ptr, x8 is the link ptr, x7 is a temp reg.
  RVTEST_SIGUPD(x12, x8, x7, x16, I_sltiu_cg_cr_rs1_imm_edges_rs1val_0x2_immval_0x1, I_sltiu_cg_cr_rs1_imm_edges_rs1val_0x2_immval_0x1_str)
    10f8:	00062383          	lw	x7,0(x12)
    10fc:	01038863          	beq	x7,x16,110c <I_sltiu_cg_cr_rs1_imm_edges_rs1val_0x2_immval_0x1+0x18>
    1100:	3b40246f          	jal	x8,34b4 <failedtest_x8_x7>
    1104:	000010f4          	.word	0x000010f4
    1108:	0000a266          	.word	0x0000a266
    110c:	00460613          	addi	x12,x12,4

# Testcase cr_rs1_imm_edges (rs1 = 0x00000002, imm = 2)
  RVTEST_TESTDATA_LOAD_INT(x1, x3) # load rs1: x3 = 0x00000002
    1110:	0000a183          	lw	x3,0(x1)
    1114:	00408093          	addi	x1,x1,4

00001118 <I_sltiu_cg_cr_rs1_imm_edges_rs1val_0x2_immval_0x2>:
I_sltiu_cg_cr_rs1_imm_edges_rs1val_0x2_immval_0x2:
  sltiu x6, x3, 2 # perform operation
    1118:	0021b313          	sltiu	x6,x3,2
  # Check if x6 contains the expected result. x12 is the signature ptr, x8 is the link ptr, x7 is a temp reg.
  RVTEST_SIGUPD(x12, x8, x7, x6, I_sltiu_cg_cr_rs1_imm_edges_rs1val_0x2_immval_0x2, I_sltiu_cg_cr_rs1_imm_edges_rs1val_0x2_immval_0x2_str)
    111c:	00062383          	lw	x7,0(x12)
    1120:	00638863          	beq	x7,x6,1130 <I_sltiu_cg_cr_rs1_imm_edges_rs1val_0x2_immval_0x2+0x18>
    1124:	3900246f          	jal	x8,34b4 <failedtest_x8_x7>
    1128:	00001118          	.word	0x00001118
    112c:	0000a2b5          	.word	0x0000a2b5
    1130:	00460613          	addi	x12,x12,4

# Testcase cr_rs1_imm_edges (rs1 = 0x00000002, imm = 3)
  RVTEST_TESTDATA_LOAD_INT(x1, x5) # load rs1: x5 = 0x00000002
    1134:	0000a283          	lw	x5,0(x1)
    1138:	00408093          	addi	x1,x1,4

0000113c <I_sltiu_cg_cr_rs1_imm_edges_rs1val_0x2_immval_0x3>:
I_sltiu_cg_cr_rs1_imm_edges_rs1val_0x2_immval_0x3:
  sltiu x17, x5, 3 # perform operation
    113c:	0032b893          	sltiu	x17,x5,3
  # Check if x17 contains the expected result. x12 is the signature ptr, x8 is the link ptr, x7 is a temp reg.
  RVTEST_SIGUPD(x12, x8, x7, x17, I_sltiu_cg_cr_rs1_imm_edges_rs1val_0x2_immval_0x3, I_sltiu_cg_cr_rs1_imm_edges_rs1val_0x2_immval_0x3_str)
    1140:	00062383          	lw	x7,0(x12)
    1144:	01138863          	beq	x7,x17,1154 <I_sltiu_cg_cr_rs1_imm_edges_rs1val_0x2_immval_0x3+0x18>
    1148:	36c0246f          	jal	x8,34b4 <failedtest_x8_x7>
    114c:	0000113c          	.word	0x0000113c
    1150:	0000a304          	.word	0x0000a304
    1154:	00460613          	addi	x12,x12,4

# Testcase cr_rs1_imm_edges (rs1 = 0x00000002, imm = 4)
  RVTEST_TESTDATA_LOAD_INT(x1, x24) # load rs1: x24 = 0x00000002
    1158:	0000ac03          	lw	x24,0(x1)
    115c:	00408093          	addi	x1,x1,4

00001160 <I_sltiu_cg_cr_rs1_imm_edges_rs1val_0x2_immval_0x4>:
I_sltiu_cg_cr_rs1_imm_edges_rs1val_0x2_immval_0x4:
  sltiu x26, x24, 4 # perform operation
    1160:	004c3d13          	sltiu	x26,x24,4
  # Check if x26 contains the expected result. x12 is the signature ptr, x8 is the link ptr, x7 is a temp reg.
  RVTEST_SIGUPD(x12, x8, x7, x26, I_sltiu_cg_cr_rs1_imm_edges_rs1val_0x2_immval_0x4, I_sltiu_cg_cr_rs1_imm_edges_rs1val_0x2_immval_0x4_str)
    1164:	00062383          	lw	x7,0(x12)
    1168:	01a38863          	beq	x7,x26,1178 <I_sltiu_cg_cr_rs1_imm_edges_rs1val_0x2_immval_0x4+0x18>
    116c:	3480246f          	jal	x8,34b4 <failedtest_x8_x7>
    1170:	00001160          	.word	0x00001160
    1174:	0000a353          	.word	0x0000a353
    1178:	00460613          	addi	x12,x12,4

# Testcase cr_rs1_imm_edges (rs1 = 0x00000002, imm = 8)
  RVTEST_TESTDATA_LOAD_INT(x1, x5) # load rs1: x5 = 0x00000002
    117c:	0000a283          	lw	x5,0(x1)
    1180:	00408093          	addi	x1,x1,4

00001184 <I_sltiu_cg_cr_rs1_imm_edges_rs1val_0x2_immval_0x8>:
I_sltiu_cg_cr_rs1_imm_edges_rs1val_0x2_immval_0x8:
  sltiu x18, x5, 8 # perform operation
    1184:	0082b913          	sltiu	x18,x5,8
  # Check if x18 contains the expected result. x12 is the signature ptr, x8 is the link ptr, x7 is a temp reg.
  RVTEST_SIGUPD(x12, x8, x7, x18, I_sltiu_cg_cr_rs1_imm_edges_rs1val_0x2_immval_0x8, I_sltiu_cg_cr_rs1_imm_edges_rs1val_0x2_immval_0x8_str)
    1188:	00062383          	lw	x7,0(x12)
    118c:	01238863          	beq	x7,x18,119c <I_sltiu_cg_cr_rs1_imm_edges_rs1val_0x2_immval_0x8+0x18>
    1190:	3240246f          	jal	x8,34b4 <failedtest_x8_x7>
    1194:	00001184          	.word	0x00001184
    1198:	0000a3a2          	.word	0x0000a3a2
    119c:	00460613          	addi	x12,x12,4

# Testcase cr_rs1_imm_edges (rs1 = 0x00000002, imm = 16)
  RVTEST_TESTDATA_LOAD_INT(x1, x2) # load rs1: x2 = 0x00000002
    11a0:	0000a103          	lw	x2,0(x1)
    11a4:	00408093          	addi	x1,x1,4

000011a8 <I_sltiu_cg_cr_rs1_imm_edges_rs1val_0x2_immval_0x10>:
I_sltiu_cg_cr_rs1_imm_edges_rs1val_0x2_immval_0x10:
  sltiu x31, x2, 16 # perform operation
    11a8:	01013f93          	sltiu	x31,x2,16
  # Check if x31 contains the expected result. x12 is the signature ptr, x8 is the link ptr, x7 is a temp reg.
  RVTEST_SIGUPD(x12, x8, x7, x31, I_sltiu_cg_cr_rs1_imm_edges_rs1val_0x2_immval_0x10, I_sltiu_cg_cr_rs1_imm_edges_rs1val_0x2_immval_0x10_str)
    11ac:	00062383          	lw	x7,0(x12)
    11b0:	01f38863          	beq	x7,x31,11c0 <I_sltiu_cg_cr_rs1_imm_edges_rs1val_0x2_immval_0x10+0x18>
    11b4:	3000246f          	jal	x8,34b4 <failedtest_x8_x7>
    11b8:	000011a8          	.word	0x000011a8
    11bc:	0000a3f1          	.word	0x0000a3f1
    11c0:	00460613          	addi	x12,x12,4

# Testcase cr_rs1_imm_edges (rs1 = 0x00000002, imm = 32)
  RVTEST_TESTDATA_LOAD_INT(x1, x2) # load rs1: x2 = 0x00000002
    11c4:	0000a103          	lw	x2,0(x1)
    11c8:	00408093          	addi	x1,x1,4

000011cc <I_sltiu_cg_cr_rs1_imm_edges_rs1val_0x2_immval_0x20>:
I_sltiu_cg_cr_rs1_imm_edges_rs1val_0x2_immval_0x20:
  sltiu x13, x2, 32 # perform operation
    11cc:	02013693          	sltiu	x13,x2,32
  # Check if x13 contains the expected result. x12 is the signature ptr, x8 is the link ptr, x7 is a temp reg.
  RVTEST_SIGUPD(x12, x8, x7, x13, I_sltiu_cg_cr_rs1_imm_edges_rs1val_0x2_immval_0x20, I_sltiu_cg_cr_rs1_imm_edges_rs1val_0x2_immval_0x20_str)
    11d0:	00062383          	lw	x7,0(x12)
    11d4:	00d38863          	beq	x7,x13,11e4 <I_sltiu_cg_cr_rs1_imm_edges_rs1val_0x2_immval_0x20+0x18>
    11d8:	2dc0246f          	jal	x8,34b4 <failedtest_x8_x7>
    11dc:	000011cc          	.word	0x000011cc
    11e0:	0000a441          	.word	0x0000a441
    11e4:	00460613          	addi	x12,x12,4

# Testcase cr_rs1_imm_edges (rs1 = 0x00000002, imm = 64)
  RVTEST_TESTDATA_LOAD_INT(x1, x19) # load rs1: x19 = 0x00000002
    11e8:	0000a983          	lw	x19,0(x1)
    11ec:	00408093          	addi	x1,x1,4

000011f0 <I_sltiu_cg_cr_rs1_imm_edges_rs1val_0x2_immval_0x40>:
I_sltiu_cg_cr_rs1_imm_edges_rs1val_0x2_immval_0x40:
  sltiu x21, x19, 64 # perform operation
    11f0:	0409ba93          	sltiu	x21,x19,64
  # Check if x21 contains the expected result. x12 is the signature ptr, x8 is the link ptr, x7 is a temp reg.
  RVTEST_SIGUPD(x12, x8, x7, x21, I_sltiu_cg_cr_rs1_imm_edges_rs1val_0x2_immval_0x40, I_sltiu_cg_cr_rs1_imm_edges_rs1val_0x2_immval_0x40_str)
    11f4:	00062383          	lw	x7,0(x12)
    11f8:	01538863          	beq	x7,x21,1208 <I_sltiu_cg_cr_rs1_imm_edges_rs1val_0x2_immval_0x40+0x18>
    11fc:	2b80246f          	jal	x8,34b4 <failedtest_x8_x7>
    1200:	000011f0          	.word	0x000011f0
    1204:	0000a491          	.word	0x0000a491
    1208:	00460613          	addi	x12,x12,4

# Testcase cr_rs1_imm_edges (rs1 = 0x00000002, imm = 128)
  RVTEST_TESTDATA_LOAD_INT(x1, x21) # load rs1: x21 = 0x00000002
    120c:	0000aa83          	lw	x21,0(x1)
    1210:	00408093          	addi	x1,x1,4

00001214 <I_sltiu_cg_cr_rs1_imm_edges_rs1val_0x2_immval_0x80>:
I_sltiu_cg_cr_rs1_imm_edges_rs1val_0x2_immval_0x80:
  sltiu x22, x21, 128 # perform operation
    1214:	080abb13          	sltiu	x22,x21,128
  # Check if x22 contains the expected result. x12 is the signature ptr, x8 is the link ptr, x7 is a temp reg.
  RVTEST_SIGUPD(x12, x8, x7, x22, I_sltiu_cg_cr_rs1_imm_edges_rs1val_0x2_immval_0x80, I_sltiu_cg_cr_rs1_imm_edges_rs1val_0x2_immval_0x80_str)
    1218:	00062383          	lw	x7,0(x12)
    121c:	01638863          	beq	x7,x22,122c <I_sltiu_cg_cr_rs1_imm_edges_rs1val_0x2_immval_0x80+0x18>
    1220:	2940246f          	jal	x8,34b4 <failedtest_x8_x7>
    1224:	00001214          	.word	0x00001214
    1228:	0000a4e1          	.word	0x0000a4e1
    122c:	00460613          	addi	x12,x12,4

# Testcase cr_rs1_imm_edges (rs1 = 0x00000002, imm = 256)
  RVTEST_TESTDATA_LOAD_INT(x1, x5) # load rs1: x5 = 0x00000002
    1230:	0000a283          	lw	x5,0(x1)
    1234:	00408093          	addi	x1,x1,4

00001238 <I_sltiu_cg_cr_rs1_imm_edges_rs1val_0x2_immval_0x100>:
I_sltiu_cg_cr_rs1_imm_edges_rs1val_0x2_immval_0x100:
  sltiu x27, x5, 256 # perform operation
    1238:	1002bd93          	sltiu	x27,x5,256
  # Check if x27 contains the expected result. x12 is the signature ptr, x8 is the link ptr, x7 is a temp reg.
  RVTEST_SIGUPD(x12, x8, x7, x27, I_sltiu_cg_cr_rs1_imm_edges_rs1val_0x2_immval_0x100, I_sltiu_cg_cr_rs1_imm_edges_rs1val_0x2_immval_0x100_str)
    123c:	00062383          	lw	x7,0(x12)
    1240:	01b38863          	beq	x7,x27,1250 <I_sltiu_cg_cr_rs1_imm_edges_rs1val_0x2_immval_0x100+0x18>
    1244:	2700246f          	jal	x8,34b4 <failedtest_x8_x7>
    1248:	00001238          	.word	0x00001238
    124c:	0000a531          	.word	0x0000a531
    1250:	00460613          	addi	x12,x12,4

# Testcase cr_rs1_imm_edges (rs1 = 0x00000002, imm = 512)
  RVTEST_TESTDATA_LOAD_INT(x1, x27) # load rs1: x27 = 0x00000002
    1254:	0000ad83          	lw	x27,0(x1)
    1258:	00408093          	addi	x1,x1,4

0000125c <I_sltiu_cg_cr_rs1_imm_edges_rs1val_0x2_immval_0x200>:
I_sltiu_cg_cr_rs1_imm_edges_rs1val_0x2_immval_0x200:
  sltiu x25, x27, 512 # perform operation
    125c:	200dbc93          	sltiu	x25,x27,512
  # Check if x25 contains the expected result. x12 is the signature ptr, x8 is the link ptr, x7 is a temp reg.
  RVTEST_SIGUPD(x12, x8, x7, x25, I_sltiu_cg_cr_rs1_imm_edges_rs1val_0x2_immval_0x200, I_sltiu_cg_cr_rs1_imm_edges_rs1val_0x2_immval_0x200_str)
    1260:	00062383          	lw	x7,0(x12)
    1264:	01938863          	beq	x7,x25,1274 <I_sltiu_cg_cr_rs1_imm_edges_rs1val_0x2_immval_0x200+0x18>
    1268:	24c0246f          	jal	x8,34b4 <failedtest_x8_x7>
    126c:	0000125c          	.word	0x0000125c
    1270:	0000a582          	.word	0x0000a582
    1274:	00460613          	addi	x12,x12,4

# Testcase cr_rs1_imm_edges (rs1 = 0x00000002, imm = 1023)
  RVTEST_TESTDATA_LOAD_INT(x1, x16) # load rs1: x16 = 0x00000002
    1278:	0000a803          	lw	x16,0(x1)
    127c:	00408093          	addi	x1,x1,4

00001280 <I_sltiu_cg_cr_rs1_imm_edges_rs1val_0x2_immval_0x3ff>:
I_sltiu_cg_cr_rs1_imm_edges_rs1val_0x2_immval_0x3ff:
  sltiu x20, x16, 1023 # perform operation
    1280:	3ff83a13          	sltiu	x20,x16,1023
  # Check if x20 contains the expected result. x12 is the signature ptr, x8 is the link ptr, x7 is a temp reg.
  RVTEST_SIGUPD(x12, x8, x7, x20, I_sltiu_cg_cr_rs1_imm_edges_rs1val_0x2_immval_0x3ff, I_sltiu_cg_cr_rs1_imm_edges_rs1val_0x2_immval_0x3ff_str)
    1284:	00062383          	lw	x7,0(x12)
    1288:	01438863          	beq	x7,x20,1298 <I_sltiu_cg_cr_rs1_imm_edges_rs1val_0x2_immval_0x3ff+0x18>
    128c:	2280246f          	jal	x8,34b4 <failedtest_x8_x7>
    1290:	00001280          	.word	0x00001280
    1294:	0000a5d3          	.word	0x0000a5d3
    1298:	00460613          	addi	x12,x12,4

# Testcase cr_rs1_imm_edges (rs1 = 0x00000002, imm = 1024)
  RVTEST_TESTDATA_LOAD_INT(x1, x3) # load rs1: x3 = 0x00000002
    129c:	0000a183          	lw	x3,0(x1)
    12a0:	00408093          	addi	x1,x1,4

000012a4 <I_sltiu_cg_cr_rs1_imm_edges_rs1val_0x2_immval_0x400>:
I_sltiu_cg_cr_rs1_imm_edges_rs1val_0x2_immval_0x400:
  sltiu x22, x3, 1024 # perform operation
    12a4:	4001bb13          	sltiu	x22,x3,1024
  # Check if x22 contains the expected result. x12 is the signature ptr, x8 is the link ptr, x7 is a temp reg.
  RVTEST_SIGUPD(x12, x8, x7, x22, I_sltiu_cg_cr_rs1_imm_edges_rs1val_0x2_immval_0x400, I_sltiu_cg_cr_rs1_imm_edges_rs1val_0x2_immval_0x400_str)
    12a8:	00062383          	lw	x7,0(x12)
    12ac:	01638863          	beq	x7,x22,12bc <I_sltiu_cg_cr_rs1_imm_edges_rs1val_0x2_immval_0x400+0x18>
    12b0:	2040246f          	jal	x8,34b4 <failedtest_x8_x7>
    12b4:	000012a4          	.word	0x000012a4
    12b8:	0000a624          	.word	0x0000a624
    12bc:	00460613          	addi	x12,x12,4

# Testcase cr_rs1_imm_edges (rs1 = 0x00000002, imm = 1795)
  RVTEST_TESTDATA_LOAD_INT(x1, x21) # load rs1: x21 = 0x00000002
    12c0:	0000aa83          	lw	x21,0(x1)
    12c4:	00408093          	addi	x1,x1,4

000012c8 <I_sltiu_cg_cr_rs1_imm_edges_rs1val_0x2_immval_0x703>:
I_sltiu_cg_cr_rs1_imm_edges_rs1val_0x2_immval_0x703:
  sltiu x3, x21, 1795 # perform operation
    12c8:	703ab193          	sltiu	x3,x21,1795
  # Check if x3 contains the expected result. x12 is the signature ptr, x8 is the link ptr, x7 is a temp reg.
  RVTEST_SIGUPD(x12, x8, x7, x3, I_sltiu_cg_cr_rs1_imm_edges_rs1val_0x2_immval_0x703, I_sltiu_cg_cr_rs1_imm_edges_rs1val_0x2_immval_0x703_str)
    12cc:	00062383          	lw	x7,0(x12)
    12d0:	00338863          	beq	x7,x3,12e0 <I_sltiu_cg_cr_rs1_imm_edges_rs1val_0x2_immval_0x703+0x18>
    12d4:	1e00246f          	jal	x8,34b4 <failedtest_x8_x7>
    12d8:	000012c8          	.word	0x000012c8
    12dc:	0000a675          	.word	0x0000a675
    12e0:	00460613          	addi	x12,x12,4

# Testcase cr_rs1_imm_edges (rs1 = 0x00000002, imm = 2047)
  RVTEST_TESTDATA_LOAD_INT(x1, x22) # load rs1: x22 = 0x00000002
    12e4:	0000ab03          	lw	x22,0(x1)
    12e8:	00408093          	addi	x1,x1,4

000012ec <I_sltiu_cg_cr_rs1_imm_edges_rs1val_0x2_immval_0x7ff>:
I_sltiu_cg_cr_rs1_imm_edges_rs1val_0x2_immval_0x7ff:
  sltiu x31, x22, 2047 # perform operation
    12ec:	7ffb3f93          	sltiu	x31,x22,2047
  # Check if x31 contains the expected result. x12 is the signature ptr, x8 is the link ptr, x7 is a temp reg.
  RVTEST_SIGUPD(x12, x8, x7, x31, I_sltiu_cg_cr_rs1_imm_edges_rs1val_0x2_immval_0x7ff, I_sltiu_cg_cr_rs1_imm_edges_rs1val_0x2_immval_0x7ff_str)
    12f0:	00062383          	lw	x7,0(x12)
    12f4:	01f38863          	beq	x7,x31,1304 <I_sltiu_cg_cr_rs1_imm_edges_rs1val_0x2_immval_0x7ff+0x18>
    12f8:	1bc0246f          	jal	x8,34b4 <failedtest_x8_x7>
    12fc:	000012ec          	.word	0x000012ec
    1300:	0000a6c6          	.word	0x0000a6c6
    1304:	00460613          	addi	x12,x12,4

# Testcase cr_rs1_imm_edges (rs1 = 0x00000002, imm = -2048)
  RVTEST_TESTDATA_LOAD_INT(x1, x13) # load rs1: x13 = 0x00000002
    1308:	0000a683          	lw	x13,0(x1)
    130c:	00408093          	addi	x1,x1,4

00001310 <I_sltiu_cg_cr_rs1_imm_edges_rs1val_0x2_immval_m0x800>:
I_sltiu_cg_cr_rs1_imm_edges_rs1val_0x2_immval_m0x800:
  sltiu x25, x13, -2048 # perform operation
    1310:	8006bc93          	sltiu	x25,x13,-2048
  # Check if x25 contains the expected result. x12 is the signature ptr, x8 is the link ptr, x7 is a temp reg.
  RVTEST_SIGUPD(x12, x8, x7, x25, I_sltiu_cg_cr_rs1_imm_edges_rs1val_0x2_immval_m0x800, I_sltiu_cg_cr_rs1_imm_edges_rs1val_0x2_immval_m0x800_str)
    1314:	00062383          	lw	x7,0(x12)
    1318:	01938863          	beq	x7,x25,1328 <I_sltiu_cg_cr_rs1_imm_edges_rs1val_0x2_immval_m0x800+0x18>
    131c:	1980246f          	jal	x8,34b4 <failedtest_x8_x7>
    1320:	00001310          	.word	0x00001310
    1324:	0000a717          	.word	0x0000a717
    1328:	00460613          	addi	x12,x12,4

# Testcase cr_rs1_imm_edges (rs1 = 0x00000002, imm = -2047)
  RVTEST_TESTDATA_LOAD_INT(x1, x11) # load rs1: x11 = 0x00000002
    132c:	0000a583          	lw	x11,0(x1)
    1330:	00408093          	addi	x1,x1,4

00001334 <I_sltiu_cg_cr_rs1_imm_edges_rs1val_0x2_immval_m0x7ff>:
I_sltiu_cg_cr_rs1_imm_edges_rs1val_0x2_immval_m0x7ff:
  sltiu x31, x11, -2047 # perform operation
    1334:	8015bf93          	sltiu	x31,x11,-2047
  # Check if x31 contains the expected result. x12 is the signature ptr, x8 is the link ptr, x7 is a temp reg.
  RVTEST_SIGUPD(x12, x8, x7, x31, I_sltiu_cg_cr_rs1_imm_edges_rs1val_0x2_immval_m0x7ff, I_sltiu_cg_cr_rs1_imm_edges_rs1val_0x2_immval_m0x7ff_str)
    1338:	00062383          	lw	x7,0(x12)
    133c:	01f38863          	beq	x7,x31,134c <I_sltiu_cg_cr_rs1_imm_edges_rs1val_0x2_immval_m0x7ff+0x18>
    1340:	1740246f          	jal	x8,34b4 <failedtest_x8_x7>
    1344:	00001334          	.word	0x00001334
    1348:	0000a769          	.word	0x0000a769
    134c:	00460613          	addi	x12,x12,4

# Testcase cr_rs1_imm_edges (rs1 = 0x00000002, imm = -2)
  RVTEST_TESTDATA_LOAD_INT(x1, x3) # load rs1: x3 = 0x00000002
    1350:	0000a183          	lw	x3,0(x1)
    1354:	00408093          	addi	x1,x1,4

00001358 <I_sltiu_cg_cr_rs1_imm_edges_rs1val_0x2_immval_m0x2>:
I_sltiu_cg_cr_rs1_imm_edges_rs1val_0x2_immval_m0x2:
  sltiu x16, x3, -2 # perform operation
    1358:	ffe1b813          	sltiu	x16,x3,-2
  # Check if x16 contains the expected result. x12 is the signature ptr, x8 is the link ptr, x7 is a temp reg.
  RVTEST_SIGUPD(x12, x8, x7, x16, I_sltiu_cg_cr_rs1_imm_edges_rs1val_0x2_immval_m0x2, I_sltiu_cg_cr_rs1_imm_edges_rs1val_0x2_immval_m0x2_str)
    135c:	00062383          	lw	x7,0(x12)
    1360:	01038863          	beq	x7,x16,1370 <I_sltiu_cg_cr_rs1_imm_edges_rs1val_0x2_immval_m0x2+0x18>
    1364:	1500246f          	jal	x8,34b4 <failedtest_x8_x7>
    1368:	00001358          	.word	0x00001358
    136c:	0000a7bb          	.word	0x0000a7bb
    1370:	00460613          	addi	x12,x12,4

# Testcase cr_rs1_imm_edges (rs1 = 0x00000002, imm = -1)
  RVTEST_TESTDATA_LOAD_INT(x1, x19) # load rs1: x19 = 0x00000002
    1374:	0000a983          	lw	x19,0(x1)
    1378:	00408093          	addi	x1,x1,4

0000137c <I_sltiu_cg_cr_rs1_imm_edges_rs1val_0x2_immval_m0x1>:
I_sltiu_cg_cr_rs1_imm_edges_rs1val_0x2_immval_m0x1:
  sltiu x21, x19, -1 # perform operation
    137c:	fff9ba93          	sltiu	x21,x19,-1
  # Check if x21 contains the expected result. x12 is the signature ptr, x8 is the link ptr, x7 is a temp reg.
  RVTEST_SIGUPD(x12, x8, x7, x21, I_sltiu_cg_cr_rs1_imm_edges_rs1val_0x2_immval_m0x1, I_sltiu_cg_cr_rs1_imm_edges_rs1val_0x2_immval_m0x1_str)
    1380:	00062383          	lw	x7,0(x12)
    1384:	01538863          	beq	x7,x21,1394 <I_sltiu_cg_cr_rs1_imm_edges_rs1val_0x2_immval_m0x1+0x18>
    1388:	12c0246f          	jal	x8,34b4 <failedtest_x8_x7>
    138c:	0000137c          	.word	0x0000137c
    1390:	0000a80b          	.word	0x0000a80b
    1394:	00460613          	addi	x12,x12,4

# Testcase cr_rs1_imm_edges (rs1 = 0x80000000, imm = 0)
  RVTEST_TESTDATA_LOAD_INT(x1, x28) # load rs1: x28 = 0x80000000
    1398:	0000ae03          	lw	x28,0(x1)
    139c:	00408093          	addi	x1,x1,4

000013a0 <I_sltiu_cg_cr_rs1_imm_edges_rs1val_0x80000000_immval_0x0>:
I_sltiu_cg_cr_rs1_imm_edges_rs1val_0x80000000_immval_0x0:
  sltiu x13, x28, 0 # perform operation
    13a0:	000e3693          	sltiu	x13,x28,0
  # Check if x13 contains the expected result. x12 is the signature ptr, x8 is the link ptr, x7 is a temp reg.
  RVTEST_SIGUPD(x12, x8, x7, x13, I_sltiu_cg_cr_rs1_imm_edges_rs1val_0x80000000_immval_0x0, I_sltiu_cg_cr_rs1_imm_edges_rs1val_0x80000000_immval_0x0_str)
    13a4:	00062383          	lw	x7,0(x12)
    13a8:	00d38863          	beq	x7,x13,13b8 <I_sltiu_cg_cr_rs1_imm_edges_rs1val_0x80000000_immval_0x0+0x18>
    13ac:	1080246f          	jal	x8,34b4 <failedtest_x8_x7>
    13b0:	000013a0          	.word	0x000013a0
    13b4:	0000a85b          	.word	0x0000a85b
    13b8:	00460613          	addi	x12,x12,4

# Testcase cr_rs1_imm_edges (rs1 = 0x80000000, imm = 1)
  RVTEST_TESTDATA_LOAD_INT(x1, x18) # load rs1: x18 = 0x80000000
    13bc:	0000a903          	lw	x18,0(x1)
    13c0:	00408093          	addi	x1,x1,4

000013c4 <I_sltiu_cg_cr_rs1_imm_edges_rs1val_0x80000000_immval_0x1>:
I_sltiu_cg_cr_rs1_imm_edges_rs1val_0x80000000_immval_0x1:
  sltiu x23, x18, 1 # perform operation
    13c4:	00193b93          	sltiu	x23,x18,1
  # Check if x23 contains the expected result. x12 is the signature ptr, x8 is the link ptr, x7 is a temp reg.
  RVTEST_SIGUPD(x12, x8, x7, x23, I_sltiu_cg_cr_rs1_imm_edges_rs1val_0x80000000_immval_0x1, I_sltiu_cg_cr_rs1_imm_edges_rs1val_0x80000000_immval_0x1_str)
    13c8:	00062383          	lw	x7,0(x12)
    13cc:	01738863          	beq	x7,x23,13dc <I_sltiu_cg_cr_rs1_imm_edges_rs1val_0x80000000_immval_0x1+0x18>
    13d0:	0e40246f          	jal	x8,34b4 <failedtest_x8_x7>
    13d4:	000013c4          	.word	0x000013c4
    13d8:	0000a8b1          	.word	0x0000a8b1
    13dc:	00460613          	addi	x12,x12,4

# Testcase cr_rs1_imm_edges (rs1 = 0x80000000, imm = 2)
  RVTEST_TESTDATA_LOAD_INT(x1, x27) # load rs1: x27 = 0x80000000
    13e0:	0000ad83          	lw	x27,0(x1)
    13e4:	00408093          	addi	x1,x1,4

000013e8 <I_sltiu_cg_cr_rs1_imm_edges_rs1val_0x80000000_immval_0x2>:
I_sltiu_cg_cr_rs1_imm_edges_rs1val_0x80000000_immval_0x2:
  sltiu x14, x27, 2 # perform operation
    13e8:	002db713          	sltiu	x14,x27,2
  # Check if x14 contains the expected result. x12 is the signature ptr, x8 is the link ptr, x7 is a temp reg.
  RVTEST_SIGUPD(x12, x8, x7, x14, I_sltiu_cg_cr_rs1_imm_edges_rs1val_0x80000000_immval_0x2, I_sltiu_cg_cr_rs1_imm_edges_rs1val_0x80000000_immval_0x2_str)
    13ec:	00062383          	lw	x7,0(x12)
    13f0:	00e38863          	beq	x7,x14,1400 <I_sltiu_cg_cr_rs1_imm_edges_rs1val_0x80000000_immval_0x2+0x18>
    13f4:	0c00246f          	jal	x8,34b4 <failedtest_x8_x7>
    13f8:	000013e8          	.word	0x000013e8
    13fc:	0000a907          	.word	0x0000a907
    1400:	00460613          	addi	x12,x12,4

# Testcase cr_rs1_imm_edges (rs1 = 0x80000000, imm = 3)
  RVTEST_TESTDATA_LOAD_INT(x1, x26) # load rs1: x26 = 0x80000000
    1404:	0000ad03          	lw	x26,0(x1)
    1408:	00408093          	addi	x1,x1,4

0000140c <I_sltiu_cg_cr_rs1_imm_edges_rs1val_0x80000000_immval_0x3>:
I_sltiu_cg_cr_rs1_imm_edges_rs1val_0x80000000_immval_0x3:
  sltiu x30, x26, 3 # perform operation
    140c:	003d3f13          	sltiu	x30,x26,3
  # Check if x30 contains the expected result. x12 is the signature ptr, x8 is the link ptr, x7 is a temp reg.
  RVTEST_SIGUPD(x12, x8, x7, x30, I_sltiu_cg_cr_rs1_imm_edges_rs1val_0x80000000_immval_0x3, I_sltiu_cg_cr_rs1_imm_edges_rs1val_0x80000000_immval_0x3_str)
    1410:	00062383          	lw	x7,0(x12)
    1414:	01e38863          	beq	x7,x30,1424 <I_sltiu_cg_cr_rs1_imm_edges_rs1val_0x80000000_immval_0x3+0x18>
    1418:	09c0246f          	jal	x8,34b4 <failedtest_x8_x7>
    141c:	0000140c          	.word	0x0000140c
    1420:	0000a95d          	.word	0x0000a95d
    1424:	00460613          	addi	x12,x12,4

# Testcase cr_rs1_imm_edges (rs1 = 0x80000000, imm = 4)
  RVTEST_TESTDATA_LOAD_INT(x1, x9) # load rs1: x9 = 0x80000000
    1428:	0000a483          	lw	x9,0(x1)
    142c:	00408093          	addi	x1,x1,4

00001430 <I_sltiu_cg_cr_rs1_imm_edges_rs1val_0x80000000_immval_0x4>:
I_sltiu_cg_cr_rs1_imm_edges_rs1val_0x80000000_immval_0x4:
  sltiu x26, x9, 4 # perform operation
    1430:	0044bd13          	sltiu	x26,x9,4
  # Check if x26 contains the expected result. x12 is the signature ptr, x8 is the link ptr, x7 is a temp reg.
  RVTEST_SIGUPD(x12, x8, x7, x26, I_sltiu_cg_cr_rs1_imm_edges_rs1val_0x80000000_immval_0x4, I_sltiu_cg_cr_rs1_imm_edges_rs1val_0x80000000_immval_0x4_str)
    1434:	00062383          	lw	x7,0(x12)
    1438:	01a38863          	beq	x7,x26,1448 <I_sltiu_cg_cr_rs1_imm_edges_rs1val_0x80000000_immval_0x4+0x18>
    143c:	0780246f          	jal	x8,34b4 <failedtest_x8_x7>
    1440:	00001430          	.word	0x00001430
    1444:	0000a9b3          	.word	0x0000a9b3
    1448:	00460613          	addi	x12,x12,4

# Testcase cr_rs1_imm_edges (rs1 = 0x80000000, imm = 8)
  RVTEST_TESTDATA_LOAD_INT(x1, x6) # load rs1: x6 = 0x80000000
    144c:	0000a303          	lw	x6,0(x1)
    1450:	00408093          	addi	x1,x1,4

00001454 <I_sltiu_cg_cr_rs1_imm_edges_rs1val_0x80000000_immval_0x8>:
I_sltiu_cg_cr_rs1_imm_edges_rs1val_0x80000000_immval_0x8:
  sltiu x15, x6, 8 # perform operation
    1454:	00833793          	sltiu	x15,x6,8
  # Check if x15 contains the expected result. x12 is the signature ptr, x8 is the link ptr, x7 is a temp reg.
  RVTEST_SIGUPD(x12, x8, x7, x15, I_sltiu_cg_cr_rs1_imm_edges_rs1val_0x80000000_immval_0x8, I_sltiu_cg_cr_rs1_imm_edges_rs1val_0x80000000_immval_0x8_str)
    1458:	00062383          	lw	x7,0(x12)
    145c:	00f38863          	beq	x7,x15,146c <I_sltiu_cg_cr_rs1_imm_edges_rs1val_0x80000000_immval_0x8+0x18>
    1460:	0540246f          	jal	x8,34b4 <failedtest_x8_x7>
    1464:	00001454          	.word	0x00001454
    1468:	0000aa09          	.word	0x0000aa09
    146c:	00460613          	addi	x12,x12,4

# Testcase cr_rs1_imm_edges (rs1 = 0x80000000, imm = 16)
  RVTEST_TESTDATA_LOAD_INT(x1, x6) # load rs1: x6 = 0x80000000
    1470:	0000a303          	lw	x6,0(x1)
    1474:	00408093          	addi	x1,x1,4

00001478 <I_sltiu_cg_cr_rs1_imm_edges_rs1val_0x80000000_immval_0x10>:
I_sltiu_cg_cr_rs1_imm_edges_rs1val_0x80000000_immval_0x10:
  sltiu x30, x6, 16 # perform operation
    1478:	01033f13          	sltiu	x30,x6,16
  # Check if x30 contains the expected result. x12 is the signature ptr, x8 is the link ptr, x7 is a temp reg.
  RVTEST_SIGUPD(x12, x8, x7, x30, I_sltiu_cg_cr_rs1_imm_edges_rs1val_0x80000000_immval_0x10, I_sltiu_cg_cr_rs1_imm_edges_rs1val_0x80000000_immval_0x10_str)
    147c:	00062383          	lw	x7,0(x12)
    1480:	01e38863          	beq	x7,x30,1490 <I_sltiu_cg_cr_rs1_imm_edges_rs1val_0x80000000_immval_0x10+0x18>
    1484:	0300246f          	jal	x8,34b4 <failedtest_x8_x7>
    1488:	00001478          	.word	0x00001478
    148c:	0000aa5f          	.word	0x0000aa5f
    1490:	00460613          	addi	x12,x12,4

# Testcase cr_rs1_imm_edges (rs1 = 0x80000000, imm = 32)
  RVTEST_TESTDATA_LOAD_INT(x1, x16) # load rs1: x16 = 0x80000000
    1494:	0000a803          	lw	x16,0(x1)
    1498:	00408093          	addi	x1,x1,4

0000149c <I_sltiu_cg_cr_rs1_imm_edges_rs1val_0x80000000_immval_0x20>:
I_sltiu_cg_cr_rs1_imm_edges_rs1val_0x80000000_immval_0x20:
  sltiu x2, x16, 32 # perform operation
    149c:	02083113          	sltiu	x2,x16,32
  # Check if x2 contains the expected result. x12 is the signature ptr, x8 is the link ptr, x7 is a temp reg.
  RVTEST_SIGUPD(x12, x8, x7, x2, I_sltiu_cg_cr_rs1_imm_edges_rs1val_0x80000000_immval_0x20, I_sltiu_cg_cr_rs1_imm_edges_rs1val_0x80000000_immval_0x20_str)
    14a0:	00062383          	lw	x7,0(x12)
    14a4:	00238863          	beq	x7,x2,14b4 <I_sltiu_cg_cr_rs1_imm_edges_rs1val_0x80000000_immval_0x20+0x18>
    14a8:	00c0246f          	jal	x8,34b4 <failedtest_x8_x7>
    14ac:	0000149c          	.word	0x0000149c
    14b0:	0000aab6          	.word	0x0000aab6
    14b4:	00460613          	addi	x12,x12,4

# Testcase cr_rs1_imm_edges (rs1 = 0x80000000, imm = 64)
  RVTEST_TESTDATA_LOAD_INT(x1, x4) # load rs1: x4 = 0x80000000
    14b8:	0000a203          	lw	x4,0(x1)
    14bc:	00408093          	addi	x1,x1,4

000014c0 <I_sltiu_cg_cr_rs1_imm_edges_rs1val_0x80000000_immval_0x40>:
I_sltiu_cg_cr_rs1_imm_edges_rs1val_0x80000000_immval_0x40:
  sltiu x31, x4, 64 # perform operation
    14c0:	04023f93          	sltiu	x31,x4,64
  # Check if x31 contains the expected result. x12 is the signature ptr, x8 is the link ptr, x7 is a temp reg.
  RVTEST_SIGUPD(x12, x8, x7, x31, I_sltiu_cg_cr_rs1_imm_edges_rs1val_0x80000000_immval_0x40, I_sltiu_cg_cr_rs1_imm_edges_rs1val_0x80000000_immval_0x40_str)
    14c4:	00062383          	lw	x7,0(x12)
    14c8:	01f38863          	beq	x7,x31,14d8 <I_sltiu_cg_cr_rs1_imm_edges_rs1val_0x80000000_immval_0x40+0x18>
    14cc:	7e90146f          	jal	x8,34b4 <failedtest_x8_x7>
    14d0:	000014c0          	.word	0x000014c0
    14d4:	0000ab0d          	.word	0x0000ab0d
    14d8:	00460613          	addi	x12,x12,4

# Testcase cr_rs1_imm_edges (rs1 = 0x80000000, imm = 128)
  RVTEST_TESTDATA_LOAD_INT(x1, x14) # load rs1: x14 = 0x80000000
    14dc:	0000a703          	lw	x14,0(x1)
    14e0:	00408093          	addi	x1,x1,4

000014e4 <I_sltiu_cg_cr_rs1_imm_edges_rs1val_0x80000000_immval_0x80>:
I_sltiu_cg_cr_rs1_imm_edges_rs1val_0x80000000_immval_0x80:
  sltiu x26, x14, 128 # perform operation
    14e4:	08073d13          	sltiu	x26,x14,128
  # Check if x26 contains the expected result. x12 is the signature ptr, x8 is the link ptr, x7 is a temp reg.
  RVTEST_SIGUPD(x12, x8, x7, x26, I_sltiu_cg_cr_rs1_imm_edges_rs1val_0x80000000_immval_0x80, I_sltiu_cg_cr_rs1_imm_edges_rs1val_0x80000000_immval_0x80_str)
    14e8:	00062383          	lw	x7,0(x12)
    14ec:	01a38863          	beq	x7,x26,14fc <I_sltiu_cg_cr_rs1_imm_edges_rs1val_0x80000000_immval_0x80+0x18>
    14f0:	7c50146f          	jal	x8,34b4 <failedtest_x8_x7>
    14f4:	000014e4          	.word	0x000014e4
    14f8:	0000ab64          	.word	0x0000ab64
    14fc:	00460613          	addi	x12,x12,4

# Testcase cr_rs1_imm_edges (rs1 = 0x80000000, imm = 256)
  RVTEST_TESTDATA_LOAD_INT(x1, x6) # load rs1: x6 = 0x80000000
    1500:	0000a303          	lw	x6,0(x1)
    1504:	00408093          	addi	x1,x1,4

00001508 <I_sltiu_cg_cr_rs1_imm_edges_rs1val_0x80000000_immval_0x100>:
I_sltiu_cg_cr_rs1_imm_edges_rs1val_0x80000000_immval_0x100:
  sltiu x22, x6, 256 # perform operation
    1508:	10033b13          	sltiu	x22,x6,256
  # Check if x22 contains the expected result. x12 is the signature ptr, x8 is the link ptr, x7 is a temp reg.
  RVTEST_SIGUPD(x12, x8, x7, x22, I_sltiu_cg_cr_rs1_imm_edges_rs1val_0x80000000_immval_0x100, I_sltiu_cg_cr_rs1_imm_edges_rs1val_0x80000000_immval_0x100_str)
    150c:	00062383          	lw	x7,0(x12)
    1510:	01638863          	beq	x7,x22,1520 <I_sltiu_cg_cr_rs1_imm_edges_rs1val_0x80000000_immval_0x100+0x18>
    1514:	7a10146f          	jal	x8,34b4 <failedtest_x8_x7>
    1518:	00001508          	.word	0x00001508
    151c:	0000abbb          	.word	0x0000abbb
    1520:	00460613          	addi	x12,x12,4

# Testcase cr_rs1_imm_edges (rs1 = 0x80000000, imm = 512)
  RVTEST_TESTDATA_LOAD_INT(x1, x23) # load rs1: x23 = 0x80000000
    1524:	0000ab83          	lw	x23,0(x1)
    1528:	00408093          	addi	x1,x1,4

0000152c <I_sltiu_cg_cr_rs1_imm_edges_rs1val_0x80000000_immval_0x200>:
I_sltiu_cg_cr_rs1_imm_edges_rs1val_0x80000000_immval_0x200:
  sltiu x15, x23, 512 # perform operation
    152c:	200bb793          	sltiu	x15,x23,512
  # Check if x15 contains the expected result. x12 is the signature ptr, x8 is the link ptr, x7 is a temp reg.
  RVTEST_SIGUPD(x12, x8, x7, x15, I_sltiu_cg_cr_rs1_imm_edges_rs1val_0x80000000_immval_0x200, I_sltiu_cg_cr_rs1_imm_edges_rs1val_0x80000000_immval_0x200_str)
    1530:	00062383          	lw	x7,0(x12)
    1534:	00f38863          	beq	x7,x15,1544 <I_sltiu_cg_cr_rs1_imm_edges_rs1val_0x80000000_immval_0x200+0x18>
    1538:	77d0146f          	jal	x8,34b4 <failedtest_x8_x7>
    153c:	0000152c          	.word	0x0000152c
    1540:	0000ac13          	.word	0x0000ac13
    1544:	00460613          	addi	x12,x12,4

# Testcase cr_rs1_imm_edges (rs1 = 0x80000000, imm = 1023)
  RVTEST_TESTDATA_LOAD_INT(x1, x26) # load rs1: x26 = 0x80000000
    1548:	0000ad03          	lw	x26,0(x1)
    154c:	00408093          	addi	x1,x1,4

00001550 <I_sltiu_cg_cr_rs1_imm_edges_rs1val_0x80000000_immval_0x3ff>:
I_sltiu_cg_cr_rs1_imm_edges_rs1val_0x80000000_immval_0x3ff:
  sltiu x29, x26, 1023 # perform operation
    1550:	3ffd3e93          	sltiu	x29,x26,1023
  # Check if x29 contains the expected result. x12 is the signature ptr, x8 is the link ptr, x7 is a temp reg.
  RVTEST_SIGUPD(x12, x8, x7, x29, I_sltiu_cg_cr_rs1_imm_edges_rs1val_0x80000000_immval_0x3ff, I_sltiu_cg_cr_rs1_imm_edges_rs1val_0x80000000_immval_0x3ff_str)
    1554:	00062383          	lw	x7,0(x12)
    1558:	01d38863          	beq	x7,x29,1568 <I_sltiu_cg_cr_rs1_imm_edges_rs1val_0x80000000_immval_0x3ff+0x18>
    155c:	7590146f          	jal	x8,34b4 <failedtest_x8_x7>
    1560:	00001550          	.word	0x00001550
    1564:	0000ac6b          	.word	0x0000ac6b
    1568:	00460613          	addi	x12,x12,4

# Testcase cr_rs1_imm_edges (rs1 = 0x80000000, imm = 1024)
  RVTEST_TESTDATA_LOAD_INT(x1, x6) # load rs1: x6 = 0x80000000
    156c:	0000a303          	lw	x6,0(x1)
    1570:	00408093          	addi	x1,x1,4

00001574 <I_sltiu_cg_cr_rs1_imm_edges_rs1val_0x80000000_immval_0x400>:
I_sltiu_cg_cr_rs1_imm_edges_rs1val_0x80000000_immval_0x400:
  sltiu x21, x6, 1024 # perform operation
    1574:	40033a93          	sltiu	x21,x6,1024
  # Check if x21 contains the expected result. x12 is the signature ptr, x8 is the link ptr, x7 is a temp reg.
  RVTEST_SIGUPD(x12, x8, x7, x21, I_sltiu_cg_cr_rs1_imm_edges_rs1val_0x80000000_immval_0x400, I_sltiu_cg_cr_rs1_imm_edges_rs1val_0x80000000_immval_0x400_str)
    1578:	00062383          	lw	x7,0(x12)
    157c:	01538863          	beq	x7,x21,158c <I_sltiu_cg_cr_rs1_imm_edges_rs1val_0x80000000_immval_0x400+0x18>
    1580:	7350146f          	jal	x8,34b4 <failedtest_x8_x7>
    1584:	00001574          	.word	0x00001574
    1588:	0000acc3          	.word	0x0000acc3
    158c:	00460613          	addi	x12,x12,4

# Testcase cr_rs1_imm_edges (rs1 = 0x80000000, imm = 1795)
  RVTEST_TESTDATA_LOAD_INT(x1, x23) # load rs1: x23 = 0x80000000
    1590:	0000ab83          	lw	x23,0(x1)
    1594:	00408093          	addi	x1,x1,4

00001598 <I_sltiu_cg_cr_rs1_imm_edges_rs1val_0x80000000_immval_0x703>:
I_sltiu_cg_cr_rs1_imm_edges_rs1val_0x80000000_immval_0x703:
  sltiu x6, x23, 1795 # perform operation
    1598:	703bb313          	sltiu	x6,x23,1795
  # Check if x6 contains the expected result. x12 is the signature ptr, x8 is the link ptr, x7 is a temp reg.
  RVTEST_SIGUPD(x12, x8, x7, x6, I_sltiu_cg_cr_rs1_imm_edges_rs1val_0x80000000_immval_0x703, I_sltiu_cg_cr_rs1_imm_edges_rs1val_0x80000000_immval_0x703_str)
    159c:	00062383          	lw	x7,0(x12)
    15a0:	00638863          	beq	x7,x6,15b0 <I_sltiu_cg_cr_rs1_imm_edges_rs1val_0x80000000_immval_0x703+0x18>
    15a4:	7110146f          	jal	x8,34b4 <failedtest_x8_x7>
    15a8:	00001598          	.word	0x00001598
    15ac:	0000ad1b          	.word	0x0000ad1b
    15b0:	00460613          	addi	x12,x12,4

# Testcase cr_rs1_imm_edges (rs1 = 0x80000000, imm = 2047)
  RVTEST_TESTDATA_LOAD_INT(x1, x16) # load rs1: x16 = 0x80000000
    15b4:	0000a803          	lw	x16,0(x1)
    15b8:	00408093          	addi	x1,x1,4

000015bc <I_sltiu_cg_cr_rs1_imm_edges_rs1val_0x80000000_immval_0x7ff>:
I_sltiu_cg_cr_rs1_imm_edges_rs1val_0x80000000_immval_0x7ff:
  sltiu x11, x16, 2047 # perform operation
    15bc:	7ff83593          	sltiu	x11,x16,2047
  # Check if x11 contains the expected result. x12 is the signature ptr, x8 is the link ptr, x7 is a temp reg.
  RVTEST_SIGUPD(x12, x8, x7, x11, I_sltiu_cg_cr_rs1_imm_edges_rs1val_0x80000000_immval_0x7ff, I_sltiu_cg_cr_rs1_imm_edges_rs1val_0x80000000_immval_0x7ff_str)
    15c0:	00062383          	lw	x7,0(x12)
    15c4:	00b38863          	beq	x7,x11,15d4 <I_sltiu_cg_cr_rs1_imm_edges_rs1val_0x80000000_immval_0x7ff+0x18>
    15c8:	6ed0146f          	jal	x8,34b4 <failedtest_x8_x7>
    15cc:	000015bc          	.word	0x000015bc
    15d0:	0000ad73          	.word	0x0000ad73
    15d4:	00460613          	addi	x12,x12,4

# Testcase cr_rs1_imm_edges (rs1 = 0x80000000, imm = -2048)
  RVTEST_TESTDATA_LOAD_INT(x1, x15) # load rs1: x15 = 0x80000000
    15d8:	0000a783          	lw	x15,0(x1)
    15dc:	00408093          	addi	x1,x1,4

000015e0 <I_sltiu_cg_cr_rs1_imm_edges_rs1val_0x80000000_immval_m0x800>:
I_sltiu_cg_cr_rs1_imm_edges_rs1val_0x80000000_immval_m0x800:
  sltiu x19, x15, -2048 # perform operation
    15e0:	8007b993          	sltiu	x19,x15,-2048
  # Check if x19 contains the expected result. x12 is the signature ptr, x8 is the link ptr, x7 is a temp reg.
  RVTEST_SIGUPD(x12, x8, x7, x19, I_sltiu_cg_cr_rs1_imm_edges_rs1val_0x80000000_immval_m0x800, I_sltiu_cg_cr_rs1_imm_edges_rs1val_0x80000000_immval_m0x800_str)
    15e4:	00062383          	lw	x7,0(x12)
    15e8:	01338863          	beq	x7,x19,15f8 <I_sltiu_cg_cr_rs1_imm_edges_rs1val_0x80000000_immval_m0x800+0x18>
    15ec:	6c90146f          	jal	x8,34b4 <failedtest_x8_x7>
    15f0:	000015e0          	.word	0x000015e0
    15f4:	0000adcb          	.word	0x0000adcb
    15f8:	00460613          	addi	x12,x12,4

# Testcase cr_rs1_imm_edges (rs1 = 0x80000000, imm = -2047)
  RVTEST_TESTDATA_LOAD_INT(x1, x17) # load rs1: x17 = 0x80000000
    15fc:	0000a883          	lw	x17,0(x1)
    1600:	00408093          	addi	x1,x1,4

00001604 <I_sltiu_cg_cr_rs1_imm_edges_rs1val_0x80000000_immval_m0x7ff>:
I_sltiu_cg_cr_rs1_imm_edges_rs1val_0x80000000_immval_m0x7ff:
  sltiu x31, x17, -2047 # perform operation
    1604:	8018bf93          	sltiu	x31,x17,-2047
  # Check if x31 contains the expected result. x12 is the signature ptr, x8 is the link ptr, x7 is a temp reg.
  RVTEST_SIGUPD(x12, x8, x7, x31, I_sltiu_cg_cr_rs1_imm_edges_rs1val_0x80000000_immval_m0x7ff, I_sltiu_cg_cr_rs1_imm_edges_rs1val_0x80000000_immval_m0x7ff_str)
    1608:	00062383          	lw	x7,0(x12)
    160c:	01f38863          	beq	x7,x31,161c <I_sltiu_cg_cr_rs1_imm_edges_rs1val_0x80000000_immval_m0x7ff+0x18>
    1610:	6a50146f          	jal	x8,34b4 <failedtest_x8_x7>
    1614:	00001604          	.word	0x00001604
    1618:	0000ae24          	.word	0x0000ae24
    161c:	00460613          	addi	x12,x12,4

# Testcase cr_rs1_imm_edges (rs1 = 0x80000000, imm = -2)
  RVTEST_TESTDATA_LOAD_INT(x1, x28) # load rs1: x28 = 0x80000000
    1620:	0000ae03          	lw	x28,0(x1)
    1624:	00408093          	addi	x1,x1,4

00001628 <I_sltiu_cg_cr_rs1_imm_edges_rs1val_0x80000000_immval_m0x2>:
I_sltiu_cg_cr_rs1_imm_edges_rs1val_0x80000000_immval_m0x2:
  sltiu x10, x28, -2 # perform operation
    1628:	ffee3513          	sltiu	x10,x28,-2
  # Check if x10 contains the expected result. x12 is the signature ptr, x8 is the link ptr, x7 is a temp reg.
  RVTEST_SIGUPD(x12, x8, x7, x10, I_sltiu_cg_cr_rs1_imm_edges_rs1val_0x80000000_immval_m0x2, I_sltiu_cg_cr_rs1_imm_edges_rs1val_0x80000000_immval_m0x2_str)
    162c:	00062383          	lw	x7,0(x12)
    1630:	00a38863          	beq	x7,x10,1640 <I_sltiu_cg_cr_rs1_imm_edges_rs1val_0x80000000_immval_m0x2+0x18>
    1634:	6810146f          	jal	x8,34b4 <failedtest_x8_x7>
    1638:	00001628          	.word	0x00001628
    163c:	0000ae7d          	.word	0x0000ae7d
    1640:	00460613          	addi	x12,x12,4

# Testcase cr_rs1_imm_edges (rs1 = 0x80000000, imm = -1)
  RVTEST_TESTDATA_LOAD_INT(x1, x24) # load rs1: x24 = 0x80000000
    1644:	0000ac03          	lw	x24,0(x1)
    1648:	00408093          	addi	x1,x1,4

0000164c <I_sltiu_cg_cr_rs1_imm_edges_rs1val_0x80000000_immval_m0x1>:
I_sltiu_cg_cr_rs1_imm_edges_rs1val_0x80000000_immval_m0x1:
  sltiu x22, x24, -1 # perform operation
    164c:	fffc3b13          	sltiu	x22,x24,-1
  # Check if x22 contains the expected result. x12 is the signature ptr, x8 is the link ptr, x7 is a temp reg.
  RVTEST_SIGUPD(x12, x8, x7, x22, I_sltiu_cg_cr_rs1_imm_edges_rs1val_0x80000000_immval_m0x1, I_sltiu_cg_cr_rs1_imm_edges_rs1val_0x80000000_immval_m0x1_str)
    1650:	00062383          	lw	x7,0(x12)
    1654:	01638863          	beq	x7,x22,1664 <I_sltiu_cg_cr_rs1_imm_edges_rs1val_0x80000000_immval_m0x1+0x18>
    1658:	65d0146f          	jal	x8,34b4 <failedtest_x8_x7>
    165c:	0000164c          	.word	0x0000164c
    1660:	0000aed4          	.word	0x0000aed4
    1664:	00460613          	addi	x12,x12,4

# Testcase cr_rs1_imm_edges (rs1 = 0x80000001, imm = 0)
  RVTEST_TESTDATA_LOAD_INT(x1, x4) # load rs1: x4 = 0x80000001
    1668:	0000a203          	lw	x4,0(x1)
    166c:	00408093          	addi	x1,x1,4

00001670 <I_sltiu_cg_cr_rs1_imm_edges_rs1val_0x80000001_immval_0x0>:
I_sltiu_cg_cr_rs1_imm_edges_rs1val_0x80000001_immval_0x0:
  sltiu x29, x4, 0 # perform operation
    1670:	00023e93          	sltiu	x29,x4,0
  # Check if x29 contains the expected result. x12 is the signature ptr, x8 is the link ptr, x7 is a temp reg.
  RVTEST_SIGUPD(x12, x8, x7, x29, I_sltiu_cg_cr_rs1_imm_edges_rs1val_0x80000001_immval_0x0, I_sltiu_cg_cr_rs1_imm_edges_rs1val_0x80000001_immval_0x0_str)
    1674:	00062383          	lw	x7,0(x12)
    1678:	01d38863          	beq	x7,x29,1688 <I_sltiu_cg_cr_rs1_imm_edges_rs1val_0x80000001_immval_0x0+0x18>
    167c:	6390146f          	jal	x8,34b4 <failedtest_x8_x7>
    1680:	00001670          	.word	0x00001670
    1684:	0000af2b          	.word	0x0000af2b
    1688:	00460613          	addi	x12,x12,4

# Testcase cr_rs1_imm_edges (rs1 = 0x80000001, imm = 1)
  RVTEST_TESTDATA_LOAD_INT(x1, x14) # load rs1: x14 = 0x80000001
    168c:	0000a703          	lw	x14,0(x1)
    1690:	00408093          	addi	x1,x1,4

00001694 <I_sltiu_cg_cr_rs1_imm_edges_rs1val_0x80000001_immval_0x1>:
I_sltiu_cg_cr_rs1_imm_edges_rs1val_0x80000001_immval_0x1:
  sltiu x6, x14, 1 # perform operation
    1694:	00173313          	sltiu	x6,x14,1
  # Check if x6 contains the expected result. x12 is the signature ptr, x8 is the link ptr, x7 is a temp reg.
  RVTEST_SIGUPD(x12, x8, x7, x6, I_sltiu_cg_cr_rs1_imm_edges_rs1val_0x80000001_immval_0x1, I_sltiu_cg_cr_rs1_imm_edges_rs1val_0x80000001_immval_0x1_str)
    1698:	00062383          	lw	x7,0(x12)
    169c:	00638863          	beq	x7,x6,16ac <I_sltiu_cg_cr_rs1_imm_edges_rs1val_0x80000001_immval_0x1+0x18>
    16a0:	6150146f          	jal	x8,34b4 <failedtest_x8_x7>
    16a4:	00001694          	.word	0x00001694
    16a8:	0000af81          	.word	0x0000af81
    16ac:	00460613          	addi	x12,x12,4

# Testcase cr_rs1_imm_edges (rs1 = 0x80000001, imm = 2)
  RVTEST_TESTDATA_LOAD_INT(x1, x9) # load rs1: x9 = 0x80000001
    16b0:	0000a483          	lw	x9,0(x1)
    16b4:	00408093          	addi	x1,x1,4

000016b8 <I_sltiu_cg_cr_rs1_imm_edges_rs1val_0x80000001_immval_0x2>:
I_sltiu_cg_cr_rs1_imm_edges_rs1val_0x80000001_immval_0x2:
  sltiu x29, x9, 2 # perform operation
    16b8:	0024be93          	sltiu	x29,x9,2
  # Check if x29 contains the expected result. x12 is the signature ptr, x8 is the link ptr, x7 is a temp reg.
  RVTEST_SIGUPD(x12, x8, x7, x29, I_sltiu_cg_cr_rs1_imm_edges_rs1val_0x80000001_immval_0x2, I_sltiu_cg_cr_rs1_imm_edges_rs1val_0x80000001_immval_0x2_str)
    16bc:	00062383          	lw	x7,0(x12)
    16c0:	01d38863          	beq	x7,x29,16d0 <I_sltiu_cg_cr_rs1_imm_edges_rs1val_0x80000001_immval_0x2+0x18>
    16c4:	5f10146f          	jal	x8,34b4 <failedtest_x8_x7>
    16c8:	000016b8          	.word	0x000016b8
    16cc:	0000afd7          	.word	0x0000afd7
    16d0:	00460613          	addi	x12,x12,4

# Testcase cr_rs1_imm_edges (rs1 = 0x80000001, imm = 3)
  RVTEST_TESTDATA_LOAD_INT(x1, x27) # load rs1: x27 = 0x80000001
    16d4:	0000ad83          	lw	x27,0(x1)
    16d8:	00408093          	addi	x1,x1,4

000016dc <I_sltiu_cg_cr_rs1_imm_edges_rs1val_0x80000001_immval_0x3>:
I_sltiu_cg_cr_rs1_imm_edges_rs1val_0x80000001_immval_0x3:
  sltiu x30, x27, 3 # perform operation
    16dc:	003dbf13          	sltiu	x30,x27,3
  # Check if x30 contains the expected result. x12 is the signature ptr, x8 is the link ptr, x7 is a temp reg.
  RVTEST_SIGUPD(x12, x8, x7, x30, I_sltiu_cg_cr_rs1_imm_edges_rs1val_0x80000001_immval_0x3, I_sltiu_cg_cr_rs1_imm_edges_rs1val_0x80000001_immval_0x3_str)
    16e0:	00062383          	lw	x7,0(x12)
    16e4:	01e38863          	beq	x7,x30,16f4 <I_sltiu_cg_cr_rs1_imm_edges_rs1val_0x80000001_immval_0x3+0x18>
    16e8:	5cd0146f          	jal	x8,34b4 <failedtest_x8_x7>
    16ec:	000016dc          	.word	0x000016dc
    16f0:	0000b02d          	.word	0x0000b02d
    16f4:	00460613          	addi	x12,x12,4

# Testcase cr_rs1_imm_edges (rs1 = 0x80000001, imm = 4)
  RVTEST_TESTDATA_LOAD_INT(x1, x28) # load rs1: x28 = 0x80000001
    16f8:	0000ae03          	lw	x28,0(x1)
    16fc:	00408093          	addi	x1,x1,4

00001700 <I_sltiu_cg_cr_rs1_imm_edges_rs1val_0x80000001_immval_0x4>:
I_sltiu_cg_cr_rs1_imm_edges_rs1val_0x80000001_immval_0x4:
  sltiu x26, x28, 4 # perform operation
    1700:	004e3d13          	sltiu	x26,x28,4
  # Check if x26 contains the expected result. x12 is the signature ptr, x8 is the link ptr, x7 is a temp reg.
  RVTEST_SIGUPD(x12, x8, x7, x26, I_sltiu_cg_cr_rs1_imm_edges_rs1val_0x80000001_immval_0x4, I_sltiu_cg_cr_rs1_imm_edges_rs1val_0x80000001_immval_0x4_str)
    1704:	00062383          	lw	x7,0(x12)
    1708:	01a38863          	beq	x7,x26,1718 <I_sltiu_cg_cr_rs1_imm_edges_rs1val_0x80000001_immval_0x4+0x18>
    170c:	5a90146f          	jal	x8,34b4 <failedtest_x8_x7>
    1710:	00001700          	.word	0x00001700
    1714:	0000b083          	.word	0x0000b083
    1718:	00460613          	addi	x12,x12,4

# Testcase cr_rs1_imm_edges (rs1 = 0x80000001, imm = 8)
  RVTEST_TESTDATA_LOAD_INT(x1, x26) # load rs1: x26 = 0x80000001
    171c:	0000ad03          	lw	x26,0(x1)
    1720:	00408093          	addi	x1,x1,4

00001724 <I_sltiu_cg_cr_rs1_imm_edges_rs1val_0x80000001_immval_0x8>:
I_sltiu_cg_cr_rs1_imm_edges_rs1val_0x80000001_immval_0x8:
  sltiu x10, x26, 8 # perform operation
    1724:	008d3513          	sltiu	x10,x26,8
  # Check if x10 contains the expected result. x12 is the signature ptr, x8 is the link ptr, x7 is a temp reg.
  RVTEST_SIGUPD(x12, x8, x7, x10, I_sltiu_cg_cr_rs1_imm_edges_rs1val_0x80000001_immval_0x8, I_sltiu_cg_cr_rs1_imm_edges_rs1val_0x80000001_immval_0x8_str)
    1728:	00062383          	lw	x7,0(x12)
    172c:	00a38863          	beq	x7,x10,173c <I_sltiu_cg_cr_rs1_imm_edges_rs1val_0x80000001_immval_0x8+0x18>
    1730:	5850146f          	jal	x8,34b4 <failedtest_x8_x7>
    1734:	00001724          	.word	0x00001724
    1738:	0000b0d9          	.word	0x0000b0d9
    173c:	00460613          	addi	x12,x12,4

# Testcase cr_rs1_imm_edges (rs1 = 0x80000001, imm = 16)
  RVTEST_TESTDATA_LOAD_INT(x1, x4) # load rs1: x4 = 0x80000001
    1740:	0000a203          	lw	x4,0(x1)
    1744:	00408093          	addi	x1,x1,4

00001748 <I_sltiu_cg_cr_rs1_imm_edges_rs1val_0x80000001_immval_0x10>:
I_sltiu_cg_cr_rs1_imm_edges_rs1val_0x80000001_immval_0x10:
  sltiu x19, x4, 16 # perform operation
    1748:	01023993          	sltiu	x19,x4,16
  # Check if x19 contains the expected result. x12 is the signature ptr, x8 is the link ptr, x7 is a temp reg.
  RVTEST_SIGUPD(x12, x8, x7, x19, I_sltiu_cg_cr_rs1_imm_edges_rs1val_0x80000001_immval_0x10, I_sltiu_cg_cr_rs1_imm_edges_rs1val_0x80000001_immval_0x10_str)
    174c:	00062383          	lw	x7,0(x12)
    1750:	01338863          	beq	x7,x19,1760 <I_sltiu_cg_cr_rs1_imm_edges_rs1val_0x80000001_immval_0x10+0x18>
    1754:	5610146f          	jal	x8,34b4 <failedtest_x8_x7>
    1758:	00001748          	.word	0x00001748
    175c:	0000b12f          	.word	0x0000b12f
    1760:	00460613          	addi	x12,x12,4

# Testcase cr_rs1_imm_edges (rs1 = 0x80000001, imm = 32)
  RVTEST_TESTDATA_LOAD_INT(x1, x15) # load rs1: x15 = 0x80000001
    1764:	0000a783          	lw	x15,0(x1)
    1768:	00408093          	addi	x1,x1,4

0000176c <I_sltiu_cg_cr_rs1_imm_edges_rs1val_0x80000001_immval_0x20>:
I_sltiu_cg_cr_rs1_imm_edges_rs1val_0x80000001_immval_0x20:
  sltiu x2, x15, 32 # perform operation
    176c:	0207b113          	sltiu	x2,x15,32
  # Check if x2 contains the expected result. x12 is the signature ptr, x8 is the link ptr, x7 is a temp reg.
  RVTEST_SIGUPD(x12, x8, x7, x2, I_sltiu_cg_cr_rs1_imm_edges_rs1val_0x80000001_immval_0x20, I_sltiu_cg_cr_rs1_imm_edges_rs1val_0x80000001_immval_0x20_str)
    1770:	00062383          	lw	x7,0(x12)
    1774:	00238863          	beq	x7,x2,1784 <I_sltiu_cg_cr_rs1_imm_edges_rs1val_0x80000001_immval_0x20+0x18>
    1778:	53d0146f          	jal	x8,34b4 <failedtest_x8_x7>
    177c:	0000176c          	.word	0x0000176c
    1780:	0000b186          	.word	0x0000b186
    1784:	00460613          	addi	x12,x12,4

# Testcase cr_rs1_imm_edges (rs1 = 0x80000001, imm = 64)
  RVTEST_TESTDATA_LOAD_INT(x1, x23) # load rs1: x23 = 0x80000001
    1788:	0000ab83          	lw	x23,0(x1)
    178c:	00408093          	addi	x1,x1,4

00001790 <I_sltiu_cg_cr_rs1_imm_edges_rs1val_0x80000001_immval_0x40>:
I_sltiu_cg_cr_rs1_imm_edges_rs1val_0x80000001_immval_0x40:
  sltiu x29, x23, 64 # perform operation
    1790:	040bbe93          	sltiu	x29,x23,64
  # Check if x29 contains the expected result. x12 is the signature ptr, x8 is the link ptr, x7 is a temp reg.
  RVTEST_SIGUPD(x12, x8, x7, x29, I_sltiu_cg_cr_rs1_imm_edges_rs1val_0x80000001_immval_0x40, I_sltiu_cg_cr_rs1_imm_edges_rs1val_0x80000001_immval_0x40_str)
    1794:	00062383          	lw	x7,0(x12)
    1798:	01d38863          	beq	x7,x29,17a8 <I_sltiu_cg_cr_rs1_imm_edges_rs1val_0x80000001_immval_0x40+0x18>
    179c:	5190146f          	jal	x8,34b4 <failedtest_x8_x7>
    17a0:	00001790          	.word	0x00001790
    17a4:	0000b1dd          	.word	0x0000b1dd
    17a8:	00460613          	addi	x12,x12,4

# Testcase cr_rs1_imm_edges (rs1 = 0x80000001, imm = 128)
  RVTEST_TESTDATA_LOAD_INT(x1, x17) # load rs1: x17 = 0x80000001
    17ac:	0000a883          	lw	x17,0(x1)
    17b0:	00408093          	addi	x1,x1,4

000017b4 <I_sltiu_cg_cr_rs1_imm_edges_rs1val_0x80000001_immval_0x80>:
I_sltiu_cg_cr_rs1_imm_edges_rs1val_0x80000001_immval_0x80:
  sltiu x22, x17, 128 # perform operation
    17b4:	0808bb13          	sltiu	x22,x17,128
  # Check if x22 contains the expected result. x12 is the signature ptr, x8 is the link ptr, x7 is a temp reg.
  RVTEST_SIGUPD(x12, x8, x7, x22, I_sltiu_cg_cr_rs1_imm_edges_rs1val_0x80000001_immval_0x80, I_sltiu_cg_cr_rs1_imm_edges_rs1val_0x80000001_immval_0x80_str)
    17b8:	00062383          	lw	x7,0(x12)
    17bc:	01638863          	beq	x7,x22,17cc <I_sltiu_cg_cr_rs1_imm_edges_rs1val_0x80000001_immval_0x80+0x18>
    17c0:	4f50146f          	jal	x8,34b4 <failedtest_x8_x7>
    17c4:	000017b4          	.word	0x000017b4
    17c8:	0000b234          	.word	0x0000b234
    17cc:	00460613          	addi	x12,x12,4

# Testcase cr_rs1_imm_edges (rs1 = 0x80000001, imm = 256)
  RVTEST_TESTDATA_LOAD_INT(x1, x28) # load rs1: x28 = 0x80000001
    17d0:	0000ae03          	lw	x28,0(x1)
    17d4:	00408093          	addi	x1,x1,4

000017d8 <I_sltiu_cg_cr_rs1_imm_edges_rs1val_0x80000001_immval_0x100>:
I_sltiu_cg_cr_rs1_imm_edges_rs1val_0x80000001_immval_0x100:
  sltiu x13, x28, 256 # perform operation
    17d8:	100e3693          	sltiu	x13,x28,256
  # Check if x13 contains the expected result. x12 is the signature ptr, x8 is the link ptr, x7 is a temp reg.
  RVTEST_SIGUPD(x12, x8, x7, x13, I_sltiu_cg_cr_rs1_imm_edges_rs1val_0x80000001_immval_0x100, I_sltiu_cg_cr_rs1_imm_edges_rs1val_0x80000001_immval_0x100_str)
    17dc:	00062383          	lw	x7,0(x12)
    17e0:	00d38863          	beq	x7,x13,17f0 <I_sltiu_cg_cr_rs1_imm_edges_rs1val_0x80000001_immval_0x100+0x18>
    17e4:	4d10146f          	jal	x8,34b4 <failedtest_x8_x7>
    17e8:	000017d8          	.word	0x000017d8
    17ec:	0000b28b          	.word	0x0000b28b
    17f0:	00460613          	addi	x12,x12,4

# Testcase cr_rs1_imm_edges (rs1 = 0x80000001, imm = 512)
  RVTEST_TESTDATA_LOAD_INT(x1, x26) # load rs1: x26 = 0x80000001
    17f4:	0000ad03          	lw	x26,0(x1)
    17f8:	00408093          	addi	x1,x1,4

000017fc <I_sltiu_cg_cr_rs1_imm_edges_rs1val_0x80000001_immval_0x200>:
I_sltiu_cg_cr_rs1_imm_edges_rs1val_0x80000001_immval_0x200:
  sltiu x18, x26, 512 # perform operation
    17fc:	200d3913          	sltiu	x18,x26,512
  # Check if x18 contains the expected result. x12 is the signature ptr, x8 is the link ptr, x7 is a temp reg.
  RVTEST_SIGUPD(x12, x8, x7, x18, I_sltiu_cg_cr_rs1_imm_edges_rs1val_0x80000001_immval_0x200, I_sltiu_cg_cr_rs1_imm_edges_rs1val_0x80000001_immval_0x200_str)
    1800:	00062383          	lw	x7,0(x12)
    1804:	01238863          	beq	x7,x18,1814 <I_sltiu_cg_cr_rs1_imm_edges_rs1val_0x80000001_immval_0x200+0x18>
    1808:	4ad0146f          	jal	x8,34b4 <failedtest_x8_x7>
    180c:	000017fc          	.word	0x000017fc
    1810:	0000b2e3          	.word	0x0000b2e3
    1814:	00460613          	addi	x12,x12,4

# Testcase cr_rs1_imm_edges (rs1 = 0x80000001, imm = 1023)
  RVTEST_TESTDATA_LOAD_INT(x1, x15) # load rs1: x15 = 0x80000001
    1818:	0000a783          	lw	x15,0(x1)
    181c:	00408093          	addi	x1,x1,4

00001820 <I_sltiu_cg_cr_rs1_imm_edges_rs1val_0x80000001_immval_0x3ff>:
I_sltiu_cg_cr_rs1_imm_edges_rs1val_0x80000001_immval_0x3ff:
  sltiu x11, x15, 1023 # perform operation
    1820:	3ff7b593          	sltiu	x11,x15,1023
  # Check if x11 contains the expected result. x12 is the signature ptr, x8 is the link ptr, x7 is a temp reg.
  RVTEST_SIGUPD(x12, x8, x7, x11, I_sltiu_cg_cr_rs1_imm_edges_rs1val_0x80000001_immval_0x3ff, I_sltiu_cg_cr_rs1_imm_edges_rs1val_0x80000001_immval_0x3ff_str)
    1824:	00062383          	lw	x7,0(x12)
    1828:	00b38863          	beq	x7,x11,1838 <I_sltiu_cg_cr_rs1_imm_edges_rs1val_0x80000001_immval_0x3ff+0x18>
    182c:	4890146f          	jal	x8,34b4 <failedtest_x8_x7>
    1830:	00001820          	.word	0x00001820
    1834:	0000b33b          	.word	0x0000b33b
    1838:	00460613          	addi	x12,x12,4

# Testcase cr_rs1_imm_edges (rs1 = 0x80000001, imm = 1024)
  RVTEST_TESTDATA_LOAD_INT(x1, x15) # load rs1: x15 = 0x80000001
    183c:	0000a783          	lw	x15,0(x1)
    1840:	00408093          	addi	x1,x1,4

00001844 <I_sltiu_cg_cr_rs1_imm_edges_rs1val_0x80000001_immval_0x400>:
I_sltiu_cg_cr_rs1_imm_edges_rs1val_0x80000001_immval_0x400:
  sltiu x18, x15, 1024 # perform operation
    1844:	4007b913          	sltiu	x18,x15,1024
  # Check if x18 contains the expected result. x12 is the signature ptr, x8 is the link ptr, x7 is a temp reg.
  RVTEST_SIGUPD(x12, x8, x7, x18, I_sltiu_cg_cr_rs1_imm_edges_rs1val_0x80000001_immval_0x400, I_sltiu_cg_cr_rs1_imm_edges_rs1val_0x80000001_immval_0x400_str)
    1848:	00062383          	lw	x7,0(x12)
    184c:	01238863          	beq	x7,x18,185c <I_sltiu_cg_cr_rs1_imm_edges_rs1val_0x80000001_immval_0x400+0x18>
    1850:	4650146f          	jal	x8,34b4 <failedtest_x8_x7>
    1854:	00001844          	.word	0x00001844
    1858:	0000b393          	.word	0x0000b393
    185c:	00460613          	addi	x12,x12,4

# Testcase cr_rs1_imm_edges (rs1 = 0x80000001, imm = 1795)
  RVTEST_TESTDATA_LOAD_INT(x1, x5) # load rs1: x5 = 0x80000001
    1860:	0000a283          	lw	x5,0(x1)
    1864:	00408093          	addi	x1,x1,4

00001868 <I_sltiu_cg_cr_rs1_imm_edges_rs1val_0x80000001_immval_0x703>:
I_sltiu_cg_cr_rs1_imm_edges_rs1val_0x80000001_immval_0x703:
  sltiu x17, x5, 1795 # perform operation
    1868:	7032b893          	sltiu	x17,x5,1795
  # Check if x17 contains the expected result. x12 is the signature ptr, x8 is the link ptr, x7 is a temp reg.
  RVTEST_SIGUPD(x12, x8, x7, x17, I_sltiu_cg_cr_rs1_imm_edges_rs1val_0x80000001_immval_0x703, I_sltiu_cg_cr_rs1_imm_edges_rs1val_0x80000001_immval_0x703_str)
    186c:	00062383          	lw	x7,0(x12)
    1870:	01138863          	beq	x7,x17,1880 <I_sltiu_cg_cr_rs1_imm_edges_rs1val_0x80000001_immval_0x703+0x18>
    1874:	4410146f          	jal	x8,34b4 <failedtest_x8_x7>
    1878:	00001868          	.word	0x00001868
    187c:	0000b3eb          	.word	0x0000b3eb
    1880:	00460613          	addi	x12,x12,4

# Testcase cr_rs1_imm_edges (rs1 = 0x80000001, imm = 2047)
  RVTEST_TESTDATA_LOAD_INT(x1, x15) # load rs1: x15 = 0x80000001
    1884:	0000a783          	lw	x15,0(x1)
    1888:	00408093          	addi	x1,x1,4

0000188c <I_sltiu_cg_cr_rs1_imm_edges_rs1val_0x80000001_immval_0x7ff>:
I_sltiu_cg_cr_rs1_imm_edges_rs1val_0x80000001_immval_0x7ff:
  sltiu x23, x15, 2047 # perform operation
    188c:	7ff7bb93          	sltiu	x23,x15,2047
  # Check if x23 contains the expected result. x12 is the signature ptr, x8 is the link ptr, x7 is a temp reg.
  RVTEST_SIGUPD(x12, x8, x7, x23, I_sltiu_cg_cr_rs1_imm_edges_rs1val_0x80000001_immval_0x7ff, I_sltiu_cg_cr_rs1_imm_edges_rs1val_0x80000001_immval_0x7ff_str)
    1890:	00062383          	lw	x7,0(x12)
    1894:	01738863          	beq	x7,x23,18a4 <I_sltiu_cg_cr_rs1_imm_edges_rs1val_0x80000001_immval_0x7ff+0x18>
    1898:	41d0146f          	jal	x8,34b4 <failedtest_x8_x7>
    189c:	0000188c          	.word	0x0000188c
    18a0:	0000b443          	.word	0x0000b443
    18a4:	00460613          	addi	x12,x12,4

# Testcase cr_rs1_imm_edges (rs1 = 0x80000001, imm = -2048)
  RVTEST_TESTDATA_LOAD_INT(x1, x17) # load rs1: x17 = 0x80000001
    18a8:	0000a883          	lw	x17,0(x1)
    18ac:	00408093          	addi	x1,x1,4

000018b0 <I_sltiu_cg_cr_rs1_imm_edges_rs1val_0x80000001_immval_m0x800>:
I_sltiu_cg_cr_rs1_imm_edges_rs1val_0x80000001_immval_m0x800:
  sltiu x15, x17, -2048 # perform operation
    18b0:	8008b793          	sltiu	x15,x17,-2048
  # Check if x15 contains the expected result. x12 is the signature ptr, x8 is the link ptr, x7 is a temp reg.
  RVTEST_SIGUPD(x12, x8, x7, x15, I_sltiu_cg_cr_rs1_imm_edges_rs1val_0x80000001_immval_m0x800, I_sltiu_cg_cr_rs1_imm_edges_rs1val_0x80000001_immval_m0x800_str)
    18b4:	00062383          	lw	x7,0(x12)
    18b8:	00f38863          	beq	x7,x15,18c8 <I_sltiu_cg_cr_rs1_imm_edges_rs1val_0x80000001_immval_m0x800+0x18>
    18bc:	3f90146f          	jal	x8,34b4 <failedtest_x8_x7>
    18c0:	000018b0          	.word	0x000018b0
    18c4:	0000b49b          	.word	0x0000b49b
    18c8:	00460613          	addi	x12,x12,4

# Testcase cr_rs1_imm_edges (rs1 = 0x80000001, imm = -2047)
  RVTEST_TESTDATA_LOAD_INT(x1, x26) # load rs1: x26 = 0x80000001
    18cc:	0000ad03          	lw	x26,0(x1)
    18d0:	00408093          	addi	x1,x1,4

000018d4 <I_sltiu_cg_cr_rs1_imm_edges_rs1val_0x80000001_immval_m0x7ff>:
I_sltiu_cg_cr_rs1_imm_edges_rs1val_0x80000001_immval_m0x7ff:
  sltiu x15, x26, -2047 # perform operation
    18d4:	801d3793          	sltiu	x15,x26,-2047
  # Check if x15 contains the expected result. x12 is the signature ptr, x8 is the link ptr, x7 is a temp reg.
  RVTEST_SIGUPD(x12, x8, x7, x15, I_sltiu_cg_cr_rs1_imm_edges_rs1val_0x80000001_immval_m0x7ff, I_sltiu_cg_cr_rs1_imm_edges_rs1val_0x80000001_immval_m0x7ff_str)
    18d8:	00062383          	lw	x7,0(x12)
    18dc:	00f38863          	beq	x7,x15,18ec <I_sltiu_cg_cr_rs1_imm_edges_rs1val_0x80000001_immval_m0x7ff+0x18>
    18e0:	3d50146f          	jal	x8,34b4 <failedtest_x8_x7>
    18e4:	000018d4          	.word	0x000018d4
    18e8:	0000b4f4          	.word	0x0000b4f4
    18ec:	00460613          	addi	x12,x12,4

# Testcase cr_rs1_imm_edges (rs1 = 0x80000001, imm = -2)
  RVTEST_TESTDATA_LOAD_INT(x1, x16) # load rs1: x16 = 0x80000001
    18f0:	0000a803          	lw	x16,0(x1)
    18f4:	00408093          	addi	x1,x1,4

000018f8 <I_sltiu_cg_cr_rs1_imm_edges_rs1val_0x80000001_immval_m0x2>:
I_sltiu_cg_cr_rs1_imm_edges_rs1val_0x80000001_immval_m0x2:
  sltiu x22, x16, -2 # perform operation
    18f8:	ffe83b13          	sltiu	x22,x16,-2
  # Check if x22 contains the expected result. x12 is the signature ptr, x8 is the link ptr, x7 is a temp reg.
  RVTEST_SIGUPD(x12, x8, x7, x22, I_sltiu_cg_cr_rs1_imm_edges_rs1val_0x80000001_immval_m0x2, I_sltiu_cg_cr_rs1_imm_edges_rs1val_0x80000001_immval_m0x2_str)
    18fc:	00062383          	lw	x7,0(x12)
    1900:	01638863          	beq	x7,x22,1910 <I_sltiu_cg_cr_rs1_imm_edges_rs1val_0x80000001_immval_m0x2+0x18>
    1904:	3b10146f          	jal	x8,34b4 <failedtest_x8_x7>
    1908:	000018f8          	.word	0x000018f8
    190c:	0000b54d          	.word	0x0000b54d
    1910:	00460613          	addi	x12,x12,4

# Testcase cr_rs1_imm_edges (rs1 = 0x80000001, imm = -1)
  RVTEST_TESTDATA_LOAD_INT(x1, x21) # load rs1: x21 = 0x80000001
    1914:	0000aa83          	lw	x21,0(x1)
    1918:	00408093          	addi	x1,x1,4

0000191c <I_sltiu_cg_cr_rs1_imm_edges_rs1val_0x80000001_immval_m0x1>:
I_sltiu_cg_cr_rs1_imm_edges_rs1val_0x80000001_immval_m0x1:
  sltiu x23, x21, -1 # perform operation
    191c:	fffabb93          	sltiu	x23,x21,-1
  # Check if x23 contains the expected result. x12 is the signature ptr, x8 is the link ptr, x7 is a temp reg.
  RVTEST_SIGUPD(x12, x8, x7, x23, I_sltiu_cg_cr_rs1_imm_edges_rs1val_0x80000001_immval_m0x1, I_sltiu_cg_cr_rs1_imm_edges_rs1val_0x80000001_immval_m0x1_str)
    1920:	00062383          	lw	x7,0(x12)
    1924:	01738863          	beq	x7,x23,1934 <I_sltiu_cg_cr_rs1_imm_edges_rs1val_0x80000001_immval_m0x1+0x18>
    1928:	38d0146f          	jal	x8,34b4 <failedtest_x8_x7>
    192c:	0000191c          	.word	0x0000191c
    1930:	0000b5a4          	.word	0x0000b5a4
    1934:	00460613          	addi	x12,x12,4

# Testcase cr_rs1_imm_edges (rs1 = 0x7fffffff, imm = 0)
  RVTEST_TESTDATA_LOAD_INT(x1, x22) # load rs1: x22 = 0x7fffffff
    1938:	0000ab03          	lw	x22,0(x1)
    193c:	00408093          	addi	x1,x1,4

00001940 <I_sltiu_cg_cr_rs1_imm_edges_rs1val_0x7fffffff_immval_0x0>:
I_sltiu_cg_cr_rs1_imm_edges_rs1val_0x7fffffff_immval_0x0:
  sltiu x10, x22, 0 # perform operation
    1940:	000b3513          	sltiu	x10,x22,0
  # Check if x10 contains the expected result. x12 is the signature ptr, x8 is the link ptr, x7 is a temp reg.
  RVTEST_SIGUPD(x12, x8, x7, x10, I_sltiu_cg_cr_rs1_imm_edges_rs1val_0x7fffffff_immval_0x0, I_sltiu_cg_cr_rs1_imm_edges_rs1val_0x7fffffff_immval_0x0_str)
    1944:	00062383          	lw	x7,0(x12)
    1948:	00a38863          	beq	x7,x10,1958 <I_sltiu_cg_cr_rs1_imm_edges_rs1val_0x7fffffff_immval_0x0+0x18>
    194c:	3690146f          	jal	x8,34b4 <failedtest_x8_x7>
    1950:	00001940          	.word	0x00001940
    1954:	0000b5fb          	.word	0x0000b5fb
    1958:	00460613          	addi	x12,x12,4

# Testcase cr_rs1_imm_edges (rs1 = 0x7fffffff, imm = 1)
  RVTEST_TESTDATA_LOAD_INT(x1, x13) # load rs1: x13 = 0x7fffffff
    195c:	0000a683          	lw	x13,0(x1)
    1960:	00408093          	addi	x1,x1,4

00001964 <I_sltiu_cg_cr_rs1_imm_edges_rs1val_0x7fffffff_immval_0x1>:
I_sltiu_cg_cr_rs1_imm_edges_rs1val_0x7fffffff_immval_0x1:
  sltiu x25, x13, 1 # perform operation
    1964:	0016bc93          	sltiu	x25,x13,1
  # Check if x25 contains the expected result. x12 is the signature ptr, x8 is the link ptr, x7 is a temp reg.
  RVTEST_SIGUPD(x12, x8, x7, x25, I_sltiu_cg_cr_rs1_imm_edges_rs1val_0x7fffffff_immval_0x1, I_sltiu_cg_cr_rs1_imm_edges_rs1val_0x7fffffff_immval_0x1_str)
    1968:	00062383          	lw	x7,0(x12)
    196c:	01938863          	beq	x7,x25,197c <I_sltiu_cg_cr_rs1_imm_edges_rs1val_0x7fffffff_immval_0x1+0x18>
    1970:	3450146f          	jal	x8,34b4 <failedtest_x8_x7>
    1974:	00001964          	.word	0x00001964
    1978:	0000b651          	.word	0x0000b651
    197c:	00460613          	addi	x12,x12,4

# Testcase cr_rs1_imm_edges (rs1 = 0x7fffffff, imm = 2)
  RVTEST_TESTDATA_LOAD_INT(x1, x11) # load rs1: x11 = 0x7fffffff
    1980:	0000a583          	lw	x11,0(x1)
    1984:	00408093          	addi	x1,x1,4

00001988 <I_sltiu_cg_cr_rs1_imm_edges_rs1val_0x7fffffff_immval_0x2>:
I_sltiu_cg_cr_rs1_imm_edges_rs1val_0x7fffffff_immval_0x2:
  sltiu x3, x11, 2 # perform operation
    1988:	0025b193          	sltiu	x3,x11,2
  # Check if x3 contains the expected result. x12 is the signature ptr, x8 is the link ptr, x7 is a temp reg.
  RVTEST_SIGUPD(x12, x8, x7, x3, I_sltiu_cg_cr_rs1_imm_edges_rs1val_0x7fffffff_immval_0x2, I_sltiu_cg_cr_rs1_imm_edges_rs1val_0x7fffffff_immval_0x2_str)
    198c:	00062383          	lw	x7,0(x12)
    1990:	00338863          	beq	x7,x3,19a0 <I_sltiu_cg_cr_rs1_imm_edges_rs1val_0x7fffffff_immval_0x2+0x18>
    1994:	3210146f          	jal	x8,34b4 <failedtest_x8_x7>
    1998:	00001988          	.word	0x00001988
    199c:	0000b6a7          	.word	0x0000b6a7
    19a0:	00460613          	addi	x12,x12,4

# Testcase cr_rs1_imm_edges (rs1 = 0x7fffffff, imm = 3)
  RVTEST_TESTDATA_LOAD_INT(x1, x11) # load rs1: x11 = 0x7fffffff
    19a4:	0000a583          	lw	x11,0(x1)
    19a8:	00408093          	addi	x1,x1,4

000019ac <I_sltiu_cg_cr_rs1_imm_edges_rs1val_0x7fffffff_immval_0x3>:
I_sltiu_cg_cr_rs1_imm_edges_rs1val_0x7fffffff_immval_0x3:
  sltiu x16, x11, 3 # perform operation
    19ac:	0035b813          	sltiu	x16,x11,3
  # Check if x16 contains the expected result. x12 is the signature ptr, x8 is the link ptr, x7 is a temp reg.
  RVTEST_SIGUPD(x12, x8, x7, x16, I_sltiu_cg_cr_rs1_imm_edges_rs1val_0x7fffffff_immval_0x3, I_sltiu_cg_cr_rs1_imm_edges_rs1val_0x7fffffff_immval_0x3_str)
    19b0:	00062383          	lw	x7,0(x12)
    19b4:	01038863          	beq	x7,x16,19c4 <I_sltiu_cg_cr_rs1_imm_edges_rs1val_0x7fffffff_immval_0x3+0x18>
    19b8:	2fd0146f          	jal	x8,34b4 <failedtest_x8_x7>
    19bc:	000019ac          	.word	0x000019ac
    19c0:	0000b6fd          	.word	0x0000b6fd
    19c4:	00460613          	addi	x12,x12,4

# Testcase cr_rs1_imm_edges (rs1 = 0x7fffffff, imm = 4)
  RVTEST_TESTDATA_LOAD_INT(x1, x31) # load rs1: x31 = 0x7fffffff
    19c8:	0000af83          	lw	x31,0(x1)
    19cc:	00408093          	addi	x1,x1,4

000019d0 <I_sltiu_cg_cr_rs1_imm_edges_rs1val_0x7fffffff_immval_0x4>:
I_sltiu_cg_cr_rs1_imm_edges_rs1val_0x7fffffff_immval_0x4:
  sltiu x5, x31, 4 # perform operation
    19d0:	004fb293          	sltiu	x5,x31,4
  # Check if x5 contains the expected result. x12 is the signature ptr, x8 is the link ptr, x7 is a temp reg.
  RVTEST_SIGUPD(x12, x8, x7, x5, I_sltiu_cg_cr_rs1_imm_edges_rs1val_0x7fffffff_immval_0x4, I_sltiu_cg_cr_rs1_imm_edges_rs1val_0x7fffffff_immval_0x4_str)
    19d4:	00062383          	lw	x7,0(x12)
    19d8:	00538863          	beq	x7,x5,19e8 <I_sltiu_cg_cr_rs1_imm_edges_rs1val_0x7fffffff_immval_0x4+0x18>
    19dc:	2d90146f          	jal	x8,34b4 <failedtest_x8_x7>
    19e0:	000019d0          	.word	0x000019d0
    19e4:	0000b753          	.word	0x0000b753
    19e8:	00460613          	addi	x12,x12,4

# Testcase cr_rs1_imm_edges (rs1 = 0x7fffffff, imm = 8)
  RVTEST_TESTDATA_LOAD_INT(x1, x28) # load rs1: x28 = 0x7fffffff
    19ec:	0000ae03          	lw	x28,0(x1)
    19f0:	00408093          	addi	x1,x1,4

000019f4 <I_sltiu_cg_cr_rs1_imm_edges_rs1val_0x7fffffff_immval_0x8>:
I_sltiu_cg_cr_rs1_imm_edges_rs1val_0x7fffffff_immval_0x8:
  sltiu x4, x28, 8 # perform operation
    19f4:	008e3213          	sltiu	x4,x28,8
  # Check if x4 contains the expected result. x12 is the signature ptr, x8 is the link ptr, x7 is a temp reg.
  RVTEST_SIGUPD(x12, x8, x7, x4, I_sltiu_cg_cr_rs1_imm_edges_rs1val_0x7fffffff_immval_0x8, I_sltiu_cg_cr_rs1_imm_edges_rs1val_0x7fffffff_immval_0x8_str)
    19f8:	00062383          	lw	x7,0(x12)
    19fc:	00438863          	beq	x7,x4,1a0c <I_sltiu_cg_cr_rs1_imm_edges_rs1val_0x7fffffff_immval_0x8+0x18>
    1a00:	2b50146f          	jal	x8,34b4 <failedtest_x8_x7>
    1a04:	000019f4          	.word	0x000019f4
    1a08:	0000b7a9          	.word	0x0000b7a9
    1a0c:	00460613          	addi	x12,x12,4

# Testcase cr_rs1_imm_edges (rs1 = 0x7fffffff, imm = 16)
  RVTEST_TESTDATA_LOAD_INT(x1, x23) # load rs1: x23 = 0x7fffffff
    1a10:	0000ab83          	lw	x23,0(x1)
    1a14:	00408093          	addi	x1,x1,4

00001a18 <I_sltiu_cg_cr_rs1_imm_edges_rs1val_0x7fffffff_immval_0x10>:
I_sltiu_cg_cr_rs1_imm_edges_rs1val_0x7fffffff_immval_0x10:
  sltiu x19, x23, 16 # perform operation
    1a18:	010bb993          	sltiu	x19,x23,16
  # Check if x19 contains the expected result. x12 is the signature ptr, x8 is the link ptr, x7 is a temp reg.
  RVTEST_SIGUPD(x12, x8, x7, x19, I_sltiu_cg_cr_rs1_imm_edges_rs1val_0x7fffffff_immval_0x10, I_sltiu_cg_cr_rs1_imm_edges_rs1val_0x7fffffff_immval_0x10_str)
    1a1c:	00062383          	lw	x7,0(x12)
    1a20:	01338863          	beq	x7,x19,1a30 <I_sltiu_cg_cr_rs1_imm_edges_rs1val_0x7fffffff_immval_0x10+0x18>
    1a24:	2910146f          	jal	x8,34b4 <failedtest_x8_x7>
    1a28:	00001a18          	.word	0x00001a18
    1a2c:	0000b7ff          	.word	0x0000b7ff
    1a30:	00460613          	addi	x12,x12,4

# Testcase cr_rs1_imm_edges (rs1 = 0x7fffffff, imm = 32)
  RVTEST_TESTDATA_LOAD_INT(x1, x21) # load rs1: x21 = 0x7fffffff
    1a34:	0000aa83          	lw	x21,0(x1)
    1a38:	00408093          	addi	x1,x1,4

00001a3c <I_sltiu_cg_cr_rs1_imm_edges_rs1val_0x7fffffff_immval_0x20>:
I_sltiu_cg_cr_rs1_imm_edges_rs1val_0x7fffffff_immval_0x20:
  sltiu x15, x21, 32 # perform operation
    1a3c:	020ab793          	sltiu	x15,x21,32
  # Check if x15 contains the expected result. x12 is the signature ptr, x8 is the link ptr, x7 is a temp reg.
  RVTEST_SIGUPD(x12, x8, x7, x15, I_sltiu_cg_cr_rs1_imm_edges_rs1val_0x7fffffff_immval_0x20, I_sltiu_cg_cr_rs1_imm_edges_rs1val_0x7fffffff_immval_0x20_str)
    1a40:	00062383          	lw	x7,0(x12)
    1a44:	00f38863          	beq	x7,x15,1a54 <I_sltiu_cg_cr_rs1_imm_edges_rs1val_0x7fffffff_immval_0x20+0x18>
    1a48:	26d0146f          	jal	x8,34b4 <failedtest_x8_x7>
    1a4c:	00001a3c          	.word	0x00001a3c
    1a50:	0000b856          	.word	0x0000b856
    1a54:	00460613          	addi	x12,x12,4

# Testcase cr_rs1_imm_edges (rs1 = 0x7fffffff, imm = 64)
  RVTEST_TESTDATA_LOAD_INT(x1, x30) # load rs1: x30 = 0x7fffffff
    1a58:	0000af03          	lw	x30,0(x1)
    1a5c:	00408093          	addi	x1,x1,4

00001a60 <I_sltiu_cg_cr_rs1_imm_edges_rs1val_0x7fffffff_immval_0x40>:
I_sltiu_cg_cr_rs1_imm_edges_rs1val_0x7fffffff_immval_0x40:
  sltiu x17, x30, 64 # perform operation
    1a60:	040f3893          	sltiu	x17,x30,64
  # Check if x17 contains the expected result. x12 is the signature ptr, x8 is the link ptr, x7 is a temp reg.
  RVTEST_SIGUPD(x12, x8, x7, x17, I_sltiu_cg_cr_rs1_imm_edges_rs1val_0x7fffffff_immval_0x40, I_sltiu_cg_cr_rs1_imm_edges_rs1val_0x7fffffff_immval_0x40_str)
    1a64:	00062383          	lw	x7,0(x12)
    1a68:	01138863          	beq	x7,x17,1a78 <I_sltiu_cg_cr_rs1_imm_edges_rs1val_0x7fffffff_immval_0x40+0x18>
    1a6c:	2490146f          	jal	x8,34b4 <failedtest_x8_x7>
    1a70:	00001a60          	.word	0x00001a60
    1a74:	0000b8ad          	.word	0x0000b8ad
    1a78:	00460613          	addi	x12,x12,4

# Testcase cr_rs1_imm_edges (rs1 = 0x7fffffff, imm = 128)
  RVTEST_TESTDATA_LOAD_INT(x1, x4) # load rs1: x4 = 0x7fffffff
    1a7c:	0000a203          	lw	x4,0(x1)
    1a80:	00408093          	addi	x1,x1,4

00001a84 <I_sltiu_cg_cr_rs1_imm_edges_rs1val_0x7fffffff_immval_0x80>:
I_sltiu_cg_cr_rs1_imm_edges_rs1val_0x7fffffff_immval_0x80:
  sltiu x6, x4, 128 # perform operation
    1a84:	08023313          	sltiu	x6,x4,128
  # Check if x6 contains the expected result. x12 is the signature ptr, x8 is the link ptr, x7 is a temp reg.
  RVTEST_SIGUPD(x12, x8, x7, x6, I_sltiu_cg_cr_rs1_imm_edges_rs1val_0x7fffffff_immval_0x80, I_sltiu_cg_cr_rs1_imm_edges_rs1val_0x7fffffff_immval_0x80_str)
    1a88:	00062383          	lw	x7,0(x12)
    1a8c:	00638863          	beq	x7,x6,1a9c <I_sltiu_cg_cr_rs1_imm_edges_rs1val_0x7fffffff_immval_0x80+0x18>
    1a90:	2250146f          	jal	x8,34b4 <failedtest_x8_x7>
    1a94:	00001a84          	.word	0x00001a84
    1a98:	0000b904          	.word	0x0000b904
    1a9c:	00460613          	addi	x12,x12,4

# Testcase cr_rs1_imm_edges (rs1 = 0x7fffffff, imm = 256)
  RVTEST_TESTDATA_LOAD_INT(x1, x23) # load rs1: x23 = 0x7fffffff
    1aa0:	0000ab83          	lw	x23,0(x1)
    1aa4:	00408093          	addi	x1,x1,4

00001aa8 <I_sltiu_cg_cr_rs1_imm_edges_rs1val_0x7fffffff_immval_0x100>:
I_sltiu_cg_cr_rs1_imm_edges_rs1val_0x7fffffff_immval_0x100:
  sltiu x3, x23, 256 # perform operation
    1aa8:	100bb193          	sltiu	x3,x23,256
  # Check if x3 contains the expected result. x12 is the signature ptr, x8 is the link ptr, x7 is a temp reg.
  RVTEST_SIGUPD(x12, x8, x7, x3, I_sltiu_cg_cr_rs1_imm_edges_rs1val_0x7fffffff_immval_0x100, I_sltiu_cg_cr_rs1_imm_edges_rs1val_0x7fffffff_immval_0x100_str)
    1aac:	00062383          	lw	x7,0(x12)
    1ab0:	00338863          	beq	x7,x3,1ac0 <I_sltiu_cg_cr_rs1_imm_edges_rs1val_0x7fffffff_immval_0x100+0x18>
    1ab4:	2010146f          	jal	x8,34b4 <failedtest_x8_x7>
    1ab8:	00001aa8          	.word	0x00001aa8
    1abc:	0000b95b          	.word	0x0000b95b
    1ac0:	00460613          	addi	x12,x12,4

# Testcase cr_rs1_imm_edges (rs1 = 0x7fffffff, imm = 512)
  RVTEST_TESTDATA_LOAD_INT(x1, x19) # load rs1: x19 = 0x7fffffff
    1ac4:	0000a983          	lw	x19,0(x1)
    1ac8:	00408093          	addi	x1,x1,4

00001acc <I_sltiu_cg_cr_rs1_imm_edges_rs1val_0x7fffffff_immval_0x200>:
I_sltiu_cg_cr_rs1_imm_edges_rs1val_0x7fffffff_immval_0x200:
  sltiu x3, x19, 512 # perform operation
    1acc:	2009b193          	sltiu	x3,x19,512
  # Check if x3 contains the expected result. x12 is the signature ptr, x8 is the link ptr, x7 is a temp reg.
  RVTEST_SIGUPD(x12, x8, x7, x3, I_sltiu_cg_cr_rs1_imm_edges_rs1val_0x7fffffff_immval_0x200, I_sltiu_cg_cr_rs1_imm_edges_rs1val_0x7fffffff_immval_0x200_str)
    1ad0:	00062383          	lw	x7,0(x12)
    1ad4:	00338863          	beq	x7,x3,1ae4 <I_sltiu_cg_cr_rs1_imm_edges_rs1val_0x7fffffff_immval_0x200+0x18>
    1ad8:	1dd0146f          	jal	x8,34b4 <failedtest_x8_x7>
    1adc:	00001acc          	.word	0x00001acc
    1ae0:	0000b9b3          	.word	0x0000b9b3
    1ae4:	00460613          	addi	x12,x12,4

# Testcase cr_rs1_imm_edges (rs1 = 0x7fffffff, imm = 1023)
  RVTEST_TESTDATA_LOAD_INT(x1, x21) # load rs1: x21 = 0x7fffffff
    1ae8:	0000aa83          	lw	x21,0(x1)
    1aec:	00408093          	addi	x1,x1,4

00001af0 <I_sltiu_cg_cr_rs1_imm_edges_rs1val_0x7fffffff_immval_0x3ff>:
I_sltiu_cg_cr_rs1_imm_edges_rs1val_0x7fffffff_immval_0x3ff:
  sltiu x3, x21, 1023 # perform operation
    1af0:	3ffab193          	sltiu	x3,x21,1023
  # Check if x3 contains the expected result. x12 is the signature ptr, x8 is the link ptr, x7 is a temp reg.
  RVTEST_SIGUPD(x12, x8, x7, x3, I_sltiu_cg_cr_rs1_imm_edges_rs1val_0x7fffffff_immval_0x3ff, I_sltiu_cg_cr_rs1_imm_edges_rs1val_0x7fffffff_immval_0x3ff_str)
    1af4:	00062383          	lw	x7,0(x12)
    1af8:	00338863          	beq	x7,x3,1b08 <I_sltiu_cg_cr_rs1_imm_edges_rs1val_0x7fffffff_immval_0x3ff+0x18>
    1afc:	1b90146f          	jal	x8,34b4 <failedtest_x8_x7>
    1b00:	00001af0          	.word	0x00001af0
    1b04:	0000ba0b          	.word	0x0000ba0b
    1b08:	00460613          	addi	x12,x12,4

# Testcase cr_rs1_imm_edges (rs1 = 0x7fffffff, imm = 1024)
  RVTEST_TESTDATA_LOAD_INT(x1, x2) # load rs1: x2 = 0x7fffffff
    1b0c:	0000a103          	lw	x2,0(x1)
    1b10:	00408093          	addi	x1,x1,4

00001b14 <I_sltiu_cg_cr_rs1_imm_edges_rs1val_0x7fffffff_immval_0x400>:
I_sltiu_cg_cr_rs1_imm_edges_rs1val_0x7fffffff_immval_0x400:
  sltiu x25, x2, 1024 # perform operation
    1b14:	40013c93          	sltiu	x25,x2,1024
  # Check if x25 contains the expected result. x12 is the signature ptr, x8 is the link ptr, x7 is a temp reg.
  RVTEST_SIGUPD(x12, x8, x7, x25, I_sltiu_cg_cr_rs1_imm_edges_rs1val_0x7fffffff_immval_0x400, I_sltiu_cg_cr_rs1_imm_edges_rs1val_0x7fffffff_immval_0x400_str)
    1b18:	00062383          	lw	x7,0(x12)
    1b1c:	01938863          	beq	x7,x25,1b2c <I_sltiu_cg_cr_rs1_imm_edges_rs1val_0x7fffffff_immval_0x400+0x18>
    1b20:	1950146f          	jal	x8,34b4 <failedtest_x8_x7>
    1b24:	00001b14          	.word	0x00001b14
    1b28:	0000ba63          	.word	0x0000ba63
    1b2c:	00460613          	addi	x12,x12,4

# Testcase cr_rs1_imm_edges (rs1 = 0x7fffffff, imm = 1795)
  RVTEST_TESTDATA_LOAD_INT(x1, x25) # load rs1: x25 = 0x7fffffff
    1b30:	0000ac83          	lw	x25,0(x1)
    1b34:	00408093          	addi	x1,x1,4

00001b38 <I_sltiu_cg_cr_rs1_imm_edges_rs1val_0x7fffffff_immval_0x703>:
I_sltiu_cg_cr_rs1_imm_edges_rs1val_0x7fffffff_immval_0x703:
  sltiu x20, x25, 1795 # perform operation
    1b38:	703cba13          	sltiu	x20,x25,1795
  # Check if x20 contains the expected result. x12 is the signature ptr, x8 is the link ptr, x7 is a temp reg.
  RVTEST_SIGUPD(x12, x8, x7, x20, I_sltiu_cg_cr_rs1_imm_edges_rs1val_0x7fffffff_immval_0x703, I_sltiu_cg_cr_rs1_imm_edges_rs1val_0x7fffffff_immval_0x703_str)
    1b3c:	00062383          	lw	x7,0(x12)
    1b40:	01438863          	beq	x7,x20,1b50 <I_sltiu_cg_cr_rs1_imm_edges_rs1val_0x7fffffff_immval_0x703+0x18>
    1b44:	1710146f          	jal	x8,34b4 <failedtest_x8_x7>
    1b48:	00001b38          	.word	0x00001b38
    1b4c:	0000babb          	.word	0x0000babb
    1b50:	00460613          	addi	x12,x12,4

# Testcase cr_rs1_imm_edges (rs1 = 0x7fffffff, imm = 2047)
  RVTEST_TESTDATA_LOAD_INT(x1, x11) # load rs1: x11 = 0x7fffffff
    1b54:	0000a583          	lw	x11,0(x1)
    1b58:	00408093          	addi	x1,x1,4

00001b5c <I_sltiu_cg_cr_rs1_imm_edges_rs1val_0x7fffffff_immval_0x7ff>:
I_sltiu_cg_cr_rs1_imm_edges_rs1val_0x7fffffff_immval_0x7ff:
  sltiu x10, x11, 2047 # perform operation
    1b5c:	7ff5b513          	sltiu	x10,x11,2047
  # Check if x10 contains the expected result. x12 is the signature ptr, x8 is the link ptr, x7 is a temp reg.
  RVTEST_SIGUPD(x12, x8, x7, x10, I_sltiu_cg_cr_rs1_imm_edges_rs1val_0x7fffffff_immval_0x7ff, I_sltiu_cg_cr_rs1_imm_edges_rs1val_0x7fffffff_immval_0x7ff_str)
    1b60:	00062383          	lw	x7,0(x12)
    1b64:	00a38863          	beq	x7,x10,1b74 <I_sltiu_cg_cr_rs1_imm_edges_rs1val_0x7fffffff_immval_0x7ff+0x18>
    1b68:	14d0146f          	jal	x8,34b4 <failedtest_x8_x7>
    1b6c:	00001b5c          	.word	0x00001b5c
    1b70:	0000bb13          	.word	0x0000bb13
    1b74:	00460613          	addi	x12,x12,4

# Testcase cr_rs1_imm_edges (rs1 = 0x7fffffff, imm = -2048)
  RVTEST_TESTDATA_LOAD_INT(x1, x14) # load rs1: x14 = 0x7fffffff
    1b78:	0000a703          	lw	x14,0(x1)
    1b7c:	00408093          	addi	x1,x1,4

00001b80 <I_sltiu_cg_cr_rs1_imm_edges_rs1val_0x7fffffff_immval_m0x800>:
I_sltiu_cg_cr_rs1_imm_edges_rs1val_0x7fffffff_immval_m0x800:
  sltiu x2, x14, -2048 # perform operation
    1b80:	80073113          	sltiu	x2,x14,-2048
  # Check if x2 contains the expected result. x12 is the signature ptr, x8 is the link ptr, x7 is a temp reg.
  RVTEST_SIGUPD(x12, x8, x7, x2, I_sltiu_cg_cr_rs1_imm_edges_rs1val_0x7fffffff_immval_m0x800, I_sltiu_cg_cr_rs1_imm_edges_rs1val_0x7fffffff_immval_m0x800_str)
    1b84:	00062383          	lw	x7,0(x12)
    1b88:	00238863          	beq	x7,x2,1b98 <I_sltiu_cg_cr_rs1_imm_edges_rs1val_0x7fffffff_immval_m0x800+0x18>
    1b8c:	1290146f          	jal	x8,34b4 <failedtest_x8_x7>
    1b90:	00001b80          	.word	0x00001b80
    1b94:	0000bb6b          	.word	0x0000bb6b
    1b98:	00460613          	addi	x12,x12,4

# Testcase cr_rs1_imm_edges (rs1 = 0x7fffffff, imm = -2047)
  RVTEST_TESTDATA_LOAD_INT(x1, x25) # load rs1: x25 = 0x7fffffff
    1b9c:	0000ac83          	lw	x25,0(x1)
    1ba0:	00408093          	addi	x1,x1,4

00001ba4 <I_sltiu_cg_cr_rs1_imm_edges_rs1val_0x7fffffff_immval_m0x7ff>:
I_sltiu_cg_cr_rs1_imm_edges_rs1val_0x7fffffff_immval_m0x7ff:
  sltiu x18, x25, -2047 # perform operation
    1ba4:	801cb913          	sltiu	x18,x25,-2047
  # Check if x18 contains the expected result. x12 is the signature ptr, x8 is the link ptr, x7 is a temp reg.
  RVTEST_SIGUPD(x12, x8, x7, x18, I_sltiu_cg_cr_rs1_imm_edges_rs1val_0x7fffffff_immval_m0x7ff, I_sltiu_cg_cr_rs1_imm_edges_rs1val_0x7fffffff_immval_m0x7ff_str)
    1ba8:	00062383          	lw	x7,0(x12)
    1bac:	01238863          	beq	x7,x18,1bbc <I_sltiu_cg_cr_rs1_imm_edges_rs1val_0x7fffffff_immval_m0x7ff+0x18>
    1bb0:	1050146f          	jal	x8,34b4 <failedtest_x8_x7>
    1bb4:	00001ba4          	.word	0x00001ba4
    1bb8:	0000bbc4          	.word	0x0000bbc4
    1bbc:	00460613          	addi	x12,x12,4

# Testcase cr_rs1_imm_edges (rs1 = 0x7fffffff, imm = -2)
  RVTEST_TESTDATA_LOAD_INT(x1, x31) # load rs1: x31 = 0x7fffffff
    1bc0:	0000af83          	lw	x31,0(x1)
    1bc4:	00408093          	addi	x1,x1,4

00001bc8 <I_sltiu_cg_cr_rs1_imm_edges_rs1val_0x7fffffff_immval_m0x2>:
I_sltiu_cg_cr_rs1_imm_edges_rs1val_0x7fffffff_immval_m0x2:
  sltiu x18, x31, -2 # perform operation
    1bc8:	ffefb913          	sltiu	x18,x31,-2
  # Check if x18 contains the expected result. x12 is the signature ptr, x8 is the link ptr, x7 is a temp reg.
  RVTEST_SIGUPD(x12, x8, x7, x18, I_sltiu_cg_cr_rs1_imm_edges_rs1val_0x7fffffff_immval_m0x2, I_sltiu_cg_cr_rs1_imm_edges_rs1val_0x7fffffff_immval_m0x2_str)
    1bcc:	00062383          	lw	x7,0(x12)
    1bd0:	01238863          	beq	x7,x18,1be0 <I_sltiu_cg_cr_rs1_imm_edges_rs1val_0x7fffffff_immval_m0x2+0x18>
    1bd4:	0e10146f          	jal	x8,34b4 <failedtest_x8_x7>
    1bd8:	00001bc8          	.word	0x00001bc8
    1bdc:	0000bc1d          	.word	0x0000bc1d
    1be0:	00460613          	addi	x12,x12,4

# Testcase cr_rs1_imm_edges (rs1 = 0x7fffffff, imm = -1)
  RVTEST_TESTDATA_LOAD_INT(x1, x13) # load rs1: x13 = 0x7fffffff
    1be4:	0000a683          	lw	x13,0(x1)
    1be8:	00408093          	addi	x1,x1,4

00001bec <I_sltiu_cg_cr_rs1_imm_edges_rs1val_0x7fffffff_immval_m0x1>:
I_sltiu_cg_cr_rs1_imm_edges_rs1val_0x7fffffff_immval_m0x1:
  sltiu x21, x13, -1 # perform operation
    1bec:	fff6ba93          	sltiu	x21,x13,-1
  # Check if x21 contains the expected result. x12 is the signature ptr, x8 is the link ptr, x7 is a temp reg.
  RVTEST_SIGUPD(x12, x8, x7, x21, I_sltiu_cg_cr_rs1_imm_edges_rs1val_0x7fffffff_immval_m0x1, I_sltiu_cg_cr_rs1_imm_edges_rs1val_0x7fffffff_immval_m0x1_str)
    1bf0:	00062383          	lw	x7,0(x12)
    1bf4:	01538863          	beq	x7,x21,1c04 <I_sltiu_cg_cr_rs1_imm_edges_rs1val_0x7fffffff_immval_m0x1+0x18>
    1bf8:	0bd0146f          	jal	x8,34b4 <failedtest_x8_x7>
    1bfc:	00001bec          	.word	0x00001bec
    1c00:	0000bc74          	.word	0x0000bc74
    1c04:	00460613          	addi	x12,x12,4

# Testcase cr_rs1_imm_edges (rs1 = 0x7ffffffe, imm = 0)
  RVTEST_TESTDATA_LOAD_INT(x1, x29) # load rs1: x29 = 0x7ffffffe
    1c08:	0000ae83          	lw	x29,0(x1)
    1c0c:	00408093          	addi	x1,x1,4

00001c10 <I_sltiu_cg_cr_rs1_imm_edges_rs1val_0x7ffffffe_immval_0x0>:
I_sltiu_cg_cr_rs1_imm_edges_rs1val_0x7ffffffe_immval_0x0:
  sltiu x13, x29, 0 # perform operation
    1c10:	000eb693          	sltiu	x13,x29,0
  # Check if x13 contains the expected result. x12 is the signature ptr, x8 is the link ptr, x7 is a temp reg.
  RVTEST_SIGUPD(x12, x8, x7, x13, I_sltiu_cg_cr_rs1_imm_edges_rs1val_0x7ffffffe_immval_0x0, I_sltiu_cg_cr_rs1_imm_edges_rs1val_0x7ffffffe_immval_0x0_str)
    1c14:	00062383          	lw	x7,0(x12)
    1c18:	00d38863          	beq	x7,x13,1c28 <I_sltiu_cg_cr_rs1_imm_edges_rs1val_0x7ffffffe_immval_0x0+0x18>
    1c1c:	0990146f          	jal	x8,34b4 <failedtest_x8_x7>
    1c20:	00001c10          	.word	0x00001c10
    1c24:	0000bccb          	.word	0x0000bccb
    1c28:	00460613          	addi	x12,x12,4

# Testcase cr_rs1_imm_edges (rs1 = 0x7ffffffe, imm = 1)
  RVTEST_TESTDATA_LOAD_INT(x1, x30) # load rs1: x30 = 0x7ffffffe
    1c2c:	0000af03          	lw	x30,0(x1)
    1c30:	00408093          	addi	x1,x1,4

00001c34 <I_sltiu_cg_cr_rs1_imm_edges_rs1val_0x7ffffffe_immval_0x1>:
I_sltiu_cg_cr_rs1_imm_edges_rs1val_0x7ffffffe_immval_0x1:
  sltiu x17, x30, 1 # perform operation
    1c34:	001f3893          	sltiu	x17,x30,1
  # Check if x17 contains the expected result. x12 is the signature ptr, x8 is the link ptr, x7 is a temp reg.
  RVTEST_SIGUPD(x12, x8, x7, x17, I_sltiu_cg_cr_rs1_imm_edges_rs1val_0x7ffffffe_immval_0x1, I_sltiu_cg_cr_rs1_imm_edges_rs1val_0x7ffffffe_immval_0x1_str)
    1c38:	00062383          	lw	x7,0(x12)
    1c3c:	01138863          	beq	x7,x17,1c4c <I_sltiu_cg_cr_rs1_imm_edges_rs1val_0x7ffffffe_immval_0x1+0x18>
    1c40:	0750146f          	jal	x8,34b4 <failedtest_x8_x7>
    1c44:	00001c34          	.word	0x00001c34
    1c48:	0000bd21          	.word	0x0000bd21
    1c4c:	00460613          	addi	x12,x12,4

# Testcase cr_rs1_imm_edges (rs1 = 0x7ffffffe, imm = 2)
  RVTEST_TESTDATA_LOAD_INT(x1, x18) # load rs1: x18 = 0x7ffffffe
    1c50:	0000a903          	lw	x18,0(x1)
    1c54:	00408093          	addi	x1,x1,4

00001c58 <I_sltiu_cg_cr_rs1_imm_edges_rs1val_0x7ffffffe_immval_0x2>:
I_sltiu_cg_cr_rs1_imm_edges_rs1val_0x7ffffffe_immval_0x2:
  sltiu x5, x18, 2 # perform operation
    1c58:	00293293          	sltiu	x5,x18,2
  # Check if x5 contains the expected result. x12 is the signature ptr, x8 is the link ptr, x7 is a temp reg.
  RVTEST_SIGUPD(x12, x8, x7, x5, I_sltiu_cg_cr_rs1_imm_edges_rs1val_0x7ffffffe_immval_0x2, I_sltiu_cg_cr_rs1_imm_edges_rs1val_0x7ffffffe_immval_0x2_str)
    1c5c:	00062383          	lw	x7,0(x12)
    1c60:	00538863          	beq	x7,x5,1c70 <I_sltiu_cg_cr_rs1_imm_edges_rs1val_0x7ffffffe_immval_0x2+0x18>
    1c64:	0510146f          	jal	x8,34b4 <failedtest_x8_x7>
    1c68:	00001c58          	.word	0x00001c58
    1c6c:	0000bd77          	.word	0x0000bd77
    1c70:	00460613          	addi	x12,x12,4

# Testcase cr_rs1_imm_edges (rs1 = 0x7ffffffe, imm = 3)
  RVTEST_TESTDATA_LOAD_INT(x1, x4) # load rs1: x4 = 0x7ffffffe
    1c74:	0000a203          	lw	x4,0(x1)
    1c78:	00408093          	addi	x1,x1,4

00001c7c <I_sltiu_cg_cr_rs1_imm_edges_rs1val_0x7ffffffe_immval_0x3>:
I_sltiu_cg_cr_rs1_imm_edges_rs1val_0x7ffffffe_immval_0x3:
  sltiu x31, x4, 3 # perform operation
    1c7c:	00323f93          	sltiu	x31,x4,3
  # Check if x31 contains the expected result. x12 is the signature ptr, x8 is the link ptr, x7 is a temp reg.
  RVTEST_SIGUPD(x12, x8, x7, x31, I_sltiu_cg_cr_rs1_imm_edges_rs1val_0x7ffffffe_immval_0x3, I_sltiu_cg_cr_rs1_imm_edges_rs1val_0x7ffffffe_immval_0x3_str)
    1c80:	00062383          	lw	x7,0(x12)
    1c84:	01f38863          	beq	x7,x31,1c94 <I_sltiu_cg_cr_rs1_imm_edges_rs1val_0x7ffffffe_immval_0x3+0x18>
    1c88:	02d0146f          	jal	x8,34b4 <failedtest_x8_x7>
    1c8c:	00001c7c          	.word	0x00001c7c
    1c90:	0000bdcd          	.word	0x0000bdcd
    1c94:	00460613          	addi	x12,x12,4

# Testcase cr_rs1_imm_edges (rs1 = 0x7ffffffe, imm = 4)
  RVTEST_TESTDATA_LOAD_INT(x1, x24) # load rs1: x24 = 0x7ffffffe
    1c98:	0000ac03          	lw	x24,0(x1)
    1c9c:	00408093          	addi	x1,x1,4

00001ca0 <I_sltiu_cg_cr_rs1_imm_edges_rs1val_0x7ffffffe_immval_0x4>:
I_sltiu_cg_cr_rs1_imm_edges_rs1val_0x7ffffffe_immval_0x4:
  sltiu x4, x24, 4 # perform operation
    1ca0:	004c3213          	sltiu	x4,x24,4
  # Check if x4 contains the expected result. x12 is the signature ptr, x8 is the link ptr, x7 is a temp reg.
  RVTEST_SIGUPD(x12, x8, x7, x4, I_sltiu_cg_cr_rs1_imm_edges_rs1val_0x7ffffffe_immval_0x4, I_sltiu_cg_cr_rs1_imm_edges_rs1val_0x7ffffffe_immval_0x4_str)
    1ca4:	00062383          	lw	x7,0(x12)
    1ca8:	00438863          	beq	x7,x4,1cb8 <I_sltiu_cg_cr_rs1_imm_edges_rs1val_0x7ffffffe_immval_0x4+0x18>
    1cac:	0090146f          	jal	x8,34b4 <failedtest_x8_x7>
    1cb0:	00001ca0          	.word	0x00001ca0
    1cb4:	0000be23          	.word	0x0000be23
    1cb8:	00460613          	addi	x12,x12,4

# Testcase cr_rs1_imm_edges (rs1 = 0x7ffffffe, imm = 8)
  RVTEST_TESTDATA_LOAD_INT(x1, x25) # load rs1: x25 = 0x7ffffffe
    1cbc:	0000ac83          	lw	x25,0(x1)
    1cc0:	00408093          	addi	x1,x1,4

00001cc4 <I_sltiu_cg_cr_rs1_imm_edges_rs1val_0x7ffffffe_immval_0x8>:
I_sltiu_cg_cr_rs1_imm_edges_rs1val_0x7ffffffe_immval_0x8:
  sltiu x22, x25, 8 # perform operation
    1cc4:	008cbb13          	sltiu	x22,x25,8
  # Check if x22 contains the expected result. x12 is the signature ptr, x8 is the link ptr, x7 is a temp reg.
  RVTEST_SIGUPD(x12, x8, x7, x22, I_sltiu_cg_cr_rs1_imm_edges_rs1val_0x7ffffffe_immval_0x8, I_sltiu_cg_cr_rs1_imm_edges_rs1val_0x7ffffffe_immval_0x8_str)
    1cc8:	00062383          	lw	x7,0(x12)
    1ccc:	01638863          	beq	x7,x22,1cdc <I_sltiu_cg_cr_rs1_imm_edges_rs1val_0x7ffffffe_immval_0x8+0x18>
    1cd0:	7e40146f          	jal	x8,34b4 <failedtest_x8_x7>
    1cd4:	00001cc4          	.word	0x00001cc4
    1cd8:	0000be79          	.word	0x0000be79
    1cdc:	00460613          	addi	x12,x12,4

# Testcase cr_rs1_imm_edges (rs1 = 0x7ffffffe, imm = 16)
  RVTEST_TESTDATA_LOAD_INT(x1, x29) # load rs1: x29 = 0x7ffffffe
    1ce0:	0000ae83          	lw	x29,0(x1)
    1ce4:	00408093          	addi	x1,x1,4

00001ce8 <I_sltiu_cg_cr_rs1_imm_edges_rs1val_0x7ffffffe_immval_0x10>:
I_sltiu_cg_cr_rs1_imm_edges_rs1val_0x7ffffffe_immval_0x10:
  sltiu x22, x29, 16 # perform operation
    1ce8:	010ebb13          	sltiu	x22,x29,16
  # Check if x22 contains the expected result. x12 is the signature ptr, x8 is the link ptr, x7 is a temp reg.
  RVTEST_SIGUPD(x12, x8, x7, x22, I_sltiu_cg_cr_rs1_imm_edges_rs1val_0x7ffffffe_immval_0x10, I_sltiu_cg_cr_rs1_imm_edges_rs1val_0x7ffffffe_immval_0x10_str)
    1cec:	00062383          	lw	x7,0(x12)
    1cf0:	01638863          	beq	x7,x22,1d00 <I_sltiu_cg_cr_rs1_imm_edges_rs1val_0x7ffffffe_immval_0x10+0x18>
    1cf4:	7c00146f          	jal	x8,34b4 <failedtest_x8_x7>
    1cf8:	00001ce8          	.word	0x00001ce8
    1cfc:	0000becf          	.word	0x0000becf
    1d00:	00460613          	addi	x12,x12,4

# Testcase cr_rs1_imm_edges (rs1 = 0x7ffffffe, imm = 32)
  RVTEST_TESTDATA_LOAD_INT(x1, x11) # load rs1: x11 = 0x7ffffffe
    1d04:	0000a583          	lw	x11,0(x1)
    1d08:	00408093          	addi	x1,x1,4

00001d0c <I_sltiu_cg_cr_rs1_imm_edges_rs1val_0x7ffffffe_immval_0x20>:
I_sltiu_cg_cr_rs1_imm_edges_rs1val_0x7ffffffe_immval_0x20:
  sltiu x15, x11, 32 # perform operation
    1d0c:	0205b793          	sltiu	x15,x11,32
  # Check if x15 contains the expected result. x12 is the signature ptr, x8 is the link ptr, x7 is a temp reg.
  RVTEST_SIGUPD(x12, x8, x7, x15, I_sltiu_cg_cr_rs1_imm_edges_rs1val_0x7ffffffe_immval_0x20, I_sltiu_cg_cr_rs1_imm_edges_rs1val_0x7ffffffe_immval_0x20_str)
    1d10:	00062383          	lw	x7,0(x12)
    1d14:	00f38863          	beq	x7,x15,1d24 <I_sltiu_cg_cr_rs1_imm_edges_rs1val_0x7ffffffe_immval_0x20+0x18>
    1d18:	79c0146f          	jal	x8,34b4 <failedtest_x8_x7>
    1d1c:	00001d0c          	.word	0x00001d0c
    1d20:	0000bf26          	.word	0x0000bf26
    1d24:	00460613          	addi	x12,x12,4

# Testcase cr_rs1_imm_edges (rs1 = 0x7ffffffe, imm = 64)
  RVTEST_TESTDATA_LOAD_INT(x1, x15) # load rs1: x15 = 0x7ffffffe
    1d28:	0000a783          	lw	x15,0(x1)
    1d2c:	00408093          	addi	x1,x1,4

00001d30 <I_sltiu_cg_cr_rs1_imm_edges_rs1val_0x7ffffffe_immval_0x40>:
I_sltiu_cg_cr_rs1_imm_edges_rs1val_0x7ffffffe_immval_0x40:
  sltiu x2, x15, 64 # perform operation
    1d30:	0407b113          	sltiu	x2,x15,64
  # Check if x2 contains the expected result. x12 is the signature ptr, x8 is the link ptr, x7 is a temp reg.
  RVTEST_SIGUPD(x12, x8, x7, x2, I_sltiu_cg_cr_rs1_imm_edges_rs1val_0x7ffffffe_immval_0x40, I_sltiu_cg_cr_rs1_imm_edges_rs1val_0x7ffffffe_immval_0x40_str)
    1d34:	00062383          	lw	x7,0(x12)
    1d38:	00238863          	beq	x7,x2,1d48 <I_sltiu_cg_cr_rs1_imm_edges_rs1val_0x7ffffffe_immval_0x40+0x18>
    1d3c:	7780146f          	jal	x8,34b4 <failedtest_x8_x7>
    1d40:	00001d30          	.word	0x00001d30
    1d44:	0000bf7d          	.word	0x0000bf7d
    1d48:	00460613          	addi	x12,x12,4

# Testcase cr_rs1_imm_edges (rs1 = 0x7ffffffe, imm = 128)
  RVTEST_TESTDATA_LOAD_INT(x1, x4) # load rs1: x4 = 0x7ffffffe
    1d4c:	0000a203          	lw	x4,0(x1)
    1d50:	00408093          	addi	x1,x1,4

00001d54 <I_sltiu_cg_cr_rs1_imm_edges_rs1val_0x7ffffffe_immval_0x80>:
I_sltiu_cg_cr_rs1_imm_edges_rs1val_0x7ffffffe_immval_0x80:
  sltiu x26, x4, 128 # perform operation
    1d54:	08023d13          	sltiu	x26,x4,128
  # Check if x26 contains the expected result. x12 is the signature ptr, x8 is the link ptr, x7 is a temp reg.
  RVTEST_SIGUPD(x12, x8, x7, x26, I_sltiu_cg_cr_rs1_imm_edges_rs1val_0x7ffffffe_immval_0x80, I_sltiu_cg_cr_rs1_imm_edges_rs1val_0x7ffffffe_immval_0x80_str)
    1d58:	00062383          	lw	x7,0(x12)
    1d5c:	01a38863          	beq	x7,x26,1d6c <I_sltiu_cg_cr_rs1_imm_edges_rs1val_0x7ffffffe_immval_0x80+0x18>
    1d60:	7540146f          	jal	x8,34b4 <failedtest_x8_x7>
    1d64:	00001d54          	.word	0x00001d54
    1d68:	0000bfd4          	.word	0x0000bfd4
    1d6c:	00460613          	addi	x12,x12,4

# Testcase cr_rs1_imm_edges (rs1 = 0x7ffffffe, imm = 256)
  RVTEST_TESTDATA_LOAD_INT(x1, x27) # load rs1: x27 = 0x7ffffffe
    1d70:	0000ad83          	lw	x27,0(x1)
    1d74:	00408093          	addi	x1,x1,4

00001d78 <I_sltiu_cg_cr_rs1_imm_edges_rs1val_0x7ffffffe_immval_0x100>:
I_sltiu_cg_cr_rs1_imm_edges_rs1val_0x7ffffffe_immval_0x100:
  sltiu x28, x27, 256 # perform operation
    1d78:	100dbe13          	sltiu	x28,x27,256
  # Check if x28 contains the expected result. x12 is the signature ptr, x8 is the link ptr, x7 is a temp reg.
  RVTEST_SIGUPD(x12, x8, x7, x28, I_sltiu_cg_cr_rs1_imm_edges_rs1val_0x7ffffffe_immval_0x100, I_sltiu_cg_cr_rs1_imm_edges_rs1val_0x7ffffffe_immval_0x100_str)
    1d7c:	00062383          	lw	x7,0(x12)
    1d80:	01c38863          	beq	x7,x28,1d90 <I_sltiu_cg_cr_rs1_imm_edges_rs1val_0x7ffffffe_immval_0x100+0x18>
    1d84:	7300146f          	jal	x8,34b4 <failedtest_x8_x7>
    1d88:	00001d78          	.word	0x00001d78
    1d8c:	0000c02b          	.word	0x0000c02b
    1d90:	00460613          	addi	x12,x12,4

# Testcase cr_rs1_imm_edges (rs1 = 0x7ffffffe, imm = 512)
  RVTEST_TESTDATA_LOAD_INT(x1, x10) # load rs1: x10 = 0x7ffffffe
    1d94:	0000a503          	lw	x10,0(x1)
    1d98:	00408093          	addi	x1,x1,4

00001d9c <I_sltiu_cg_cr_rs1_imm_edges_rs1val_0x7ffffffe_immval_0x200>:
I_sltiu_cg_cr_rs1_imm_edges_rs1val_0x7ffffffe_immval_0x200:
  sltiu x15, x10, 512 # perform operation
    1d9c:	20053793          	sltiu	x15,x10,512
  # Check if x15 contains the expected result. x12 is the signature ptr, x8 is the link ptr, x7 is a temp reg.
  RVTEST_SIGUPD(x12, x8, x7, x15, I_sltiu_cg_cr_rs1_imm_edges_rs1val_0x7ffffffe_immval_0x200, I_sltiu_cg_cr_rs1_imm_edges_rs1val_0x7ffffffe_immval_0x200_str)
    1da0:	00062383          	lw	x7,0(x12)
    1da4:	00f38863          	beq	x7,x15,1db4 <I_sltiu_cg_cr_rs1_imm_edges_rs1val_0x7ffffffe_immval_0x200+0x18>
    1da8:	70c0146f          	jal	x8,34b4 <failedtest_x8_x7>
    1dac:	00001d9c          	.word	0x00001d9c
    1db0:	0000c083          	.word	0x0000c083
    1db4:	00460613          	addi	x12,x12,4

# Testcase cr_rs1_imm_edges (rs1 = 0x7ffffffe, imm = 1023)
  RVTEST_TESTDATA_LOAD_INT(x1, x25) # load rs1: x25 = 0x7ffffffe
    1db8:	0000ac83          	lw	x25,0(x1)
    1dbc:	00408093          	addi	x1,x1,4

00001dc0 <I_sltiu_cg_cr_rs1_imm_edges_rs1val_0x7ffffffe_immval_0x3ff>:
I_sltiu_cg_cr_rs1_imm_edges_rs1val_0x7ffffffe_immval_0x3ff:
  sltiu x29, x25, 1023 # perform operation
    1dc0:	3ffcbe93          	sltiu	x29,x25,1023
  # Check if x29 contains the expected result. x12 is the signature ptr, x8 is the link ptr, x7 is a temp reg.
  RVTEST_SIGUPD(x12, x8, x7, x29, I_sltiu_cg_cr_rs1_imm_edges_rs1val_0x7ffffffe_immval_0x3ff, I_sltiu_cg_cr_rs1_imm_edges_rs1val_0x7ffffffe_immval_0x3ff_str)
    1dc4:	00062383          	lw	x7,0(x12)
    1dc8:	01d38863          	beq	x7,x29,1dd8 <I_sltiu_cg_cr_rs1_imm_edges_rs1val_0x7ffffffe_immval_0x3ff+0x18>
    1dcc:	6e80146f          	jal	x8,34b4 <failedtest_x8_x7>
    1dd0:	00001dc0          	.word	0x00001dc0
    1dd4:	0000c0db          	.word	0x0000c0db
    1dd8:	00460613          	addi	x12,x12,4

# Testcase cr_rs1_imm_edges (rs1 = 0x7ffffffe, imm = 1024)
  RVTEST_TESTDATA_LOAD_INT(x1, x4) # load rs1: x4 = 0x7ffffffe
    1ddc:	0000a203          	lw	x4,0(x1)
    1de0:	00408093          	addi	x1,x1,4

00001de4 <I_sltiu_cg_cr_rs1_imm_edges_rs1val_0x7ffffffe_immval_0x400>:
I_sltiu_cg_cr_rs1_imm_edges_rs1val_0x7ffffffe_immval_0x400:
  sltiu x22, x4, 1024 # perform operation
    1de4:	40023b13          	sltiu	x22,x4,1024
  # Check if x22 contains the expected result. x12 is the signature ptr, x8 is the link ptr, x7 is a temp reg.
  RVTEST_SIGUPD(x12, x8, x7, x22, I_sltiu_cg_cr_rs1_imm_edges_rs1val_0x7ffffffe_immval_0x400, I_sltiu_cg_cr_rs1_imm_edges_rs1val_0x7ffffffe_immval_0x400_str)
    1de8:	00062383          	lw	x7,0(x12)
    1dec:	01638863          	beq	x7,x22,1dfc <I_sltiu_cg_cr_rs1_imm_edges_rs1val_0x7ffffffe_immval_0x400+0x18>
    1df0:	6c40146f          	jal	x8,34b4 <failedtest_x8_x7>
    1df4:	00001de4          	.word	0x00001de4
    1df8:	0000c133          	.word	0x0000c133
    1dfc:	00460613          	addi	x12,x12,4

# Testcase cr_rs1_imm_edges (rs1 = 0x7ffffffe, imm = 1795)
  RVTEST_TESTDATA_LOAD_INT(x1, x9) # load rs1: x9 = 0x7ffffffe
    1e00:	0000a483          	lw	x9,0(x1)
    1e04:	00408093          	addi	x1,x1,4

00001e08 <I_sltiu_cg_cr_rs1_imm_edges_rs1val_0x7ffffffe_immval_0x703>:
I_sltiu_cg_cr_rs1_imm_edges_rs1val_0x7ffffffe_immval_0x703:
  sltiu x31, x9, 1795 # perform operation
    1e08:	7034bf93          	sltiu	x31,x9,1795
  # Check if x31 contains the expected result. x12 is the signature ptr, x8 is the link ptr, x7 is a temp reg.
  RVTEST_SIGUPD(x12, x8, x7, x31, I_sltiu_cg_cr_rs1_imm_edges_rs1val_0x7ffffffe_immval_0x703, I_sltiu_cg_cr_rs1_imm_edges_rs1val_0x7ffffffe_immval_0x703_str)
    1e0c:	00062383          	lw	x7,0(x12)
    1e10:	01f38863          	beq	x7,x31,1e20 <I_sltiu_cg_cr_rs1_imm_edges_rs1val_0x7ffffffe_immval_0x703+0x18>
    1e14:	6a00146f          	jal	x8,34b4 <failedtest_x8_x7>
    1e18:	00001e08          	.word	0x00001e08
    1e1c:	0000c18b          	.word	0x0000c18b
    1e20:	00460613          	addi	x12,x12,4

# Testcase cr_rs1_imm_edges (rs1 = 0x7ffffffe, imm = 2047)
  RVTEST_TESTDATA_LOAD_INT(x1, x16) # load rs1: x16 = 0x7ffffffe
    1e24:	0000a803          	lw	x16,0(x1)
    1e28:	00408093          	addi	x1,x1,4

00001e2c <I_sltiu_cg_cr_rs1_imm_edges_rs1val_0x7ffffffe_immval_0x7ff>:
I_sltiu_cg_cr_rs1_imm_edges_rs1val_0x7ffffffe_immval_0x7ff:
  sltiu x26, x16, 2047 # perform operation
    1e2c:	7ff83d13          	sltiu	x26,x16,2047
  # Check if x26 contains the expected result. x12 is the signature ptr, x8 is the link ptr, x7 is a temp reg.
  RVTEST_SIGUPD(x12, x8, x7, x26, I_sltiu_cg_cr_rs1_imm_edges_rs1val_0x7ffffffe_immval_0x7ff, I_sltiu_cg_cr_rs1_imm_edges_rs1val_0x7ffffffe_immval_0x7ff_str)
    1e30:	00062383          	lw	x7,0(x12)
    1e34:	01a38863          	beq	x7,x26,1e44 <I_sltiu_cg_cr_rs1_imm_edges_rs1val_0x7ffffffe_immval_0x7ff+0x18>
    1e38:	67c0146f          	jal	x8,34b4 <failedtest_x8_x7>
    1e3c:	00001e2c          	.word	0x00001e2c
    1e40:	0000c1e3          	.word	0x0000c1e3
    1e44:	00460613          	addi	x12,x12,4

# Testcase cr_rs1_imm_edges (rs1 = 0x7ffffffe, imm = -2048)
  RVTEST_TESTDATA_LOAD_INT(x1, x13) # load rs1: x13 = 0x7ffffffe
    1e48:	0000a683          	lw	x13,0(x1)
    1e4c:	00408093          	addi	x1,x1,4

00001e50 <I_sltiu_cg_cr_rs1_imm_edges_rs1val_0x7ffffffe_immval_m0x800>:
I_sltiu_cg_cr_rs1_imm_edges_rs1val_0x7ffffffe_immval_m0x800:
  sltiu x19, x13, -2048 # perform operation
    1e50:	8006b993          	sltiu	x19,x13,-2048
  # Check if x19 contains the expected result. x12 is the signature ptr, x8 is the link ptr, x7 is a temp reg.
  RVTEST_SIGUPD(x12, x8, x7, x19, I_sltiu_cg_cr_rs1_imm_edges_rs1val_0x7ffffffe_immval_m0x800, I_sltiu_cg_cr_rs1_imm_edges_rs1val_0x7ffffffe_immval_m0x800_str)
    1e54:	00062383          	lw	x7,0(x12)
    1e58:	01338863          	beq	x7,x19,1e68 <I_sltiu_cg_cr_rs1_imm_edges_rs1val_0x7ffffffe_immval_m0x800+0x18>
    1e5c:	6580146f          	jal	x8,34b4 <failedtest_x8_x7>
    1e60:	00001e50          	.word	0x00001e50
    1e64:	0000c23b          	.word	0x0000c23b
    1e68:	00460613          	addi	x12,x12,4

# Testcase cr_rs1_imm_edges (rs1 = 0x7ffffffe, imm = -2047)
  RVTEST_TESTDATA_LOAD_INT(x1, x21) # load rs1: x21 = 0x7ffffffe
    1e6c:	0000aa83          	lw	x21,0(x1)
    1e70:	00408093          	addi	x1,x1,4

00001e74 <I_sltiu_cg_cr_rs1_imm_edges_rs1val_0x7ffffffe_immval_m0x7ff>:
I_sltiu_cg_cr_rs1_imm_edges_rs1val_0x7ffffffe_immval_m0x7ff:
  sltiu x20, x21, -2047 # perform operation
    1e74:	801aba13          	sltiu	x20,x21,-2047
  # Check if x20 contains the expected result. x12 is the signature ptr, x8 is the link ptr, x7 is a temp reg.
  RVTEST_SIGUPD(x12, x8, x7, x20, I_sltiu_cg_cr_rs1_imm_edges_rs1val_0x7ffffffe_immval_m0x7ff, I_sltiu_cg_cr_rs1_imm_edges_rs1val_0x7ffffffe_immval_m0x7ff_str)
    1e78:	00062383          	lw	x7,0(x12)
    1e7c:	01438863          	beq	x7,x20,1e8c <I_sltiu_cg_cr_rs1_imm_edges_rs1val_0x7ffffffe_immval_m0x7ff+0x18>
    1e80:	6340146f          	jal	x8,34b4 <failedtest_x8_x7>
    1e84:	00001e74          	.word	0x00001e74
    1e88:	0000c294          	.word	0x0000c294
    1e8c:	00460613          	addi	x12,x12,4

# Testcase cr_rs1_imm_edges (rs1 = 0x7ffffffe, imm = -2)
  RVTEST_TESTDATA_LOAD_INT(x1, x15) # load rs1: x15 = 0x7ffffffe
    1e90:	0000a783          	lw	x15,0(x1)
    1e94:	00408093          	addi	x1,x1,4

00001e98 <I_sltiu_cg_cr_rs1_imm_edges_rs1val_0x7ffffffe_immval_m0x2>:
I_sltiu_cg_cr_rs1_imm_edges_rs1val_0x7ffffffe_immval_m0x2:
  sltiu x9, x15, -2 # perform operation
    1e98:	ffe7b493          	sltiu	x9,x15,-2
  # Check if x9 contains the expected result. x12 is the signature ptr, x8 is the link ptr, x7 is a temp reg.
  RVTEST_SIGUPD(x12, x8, x7, x9, I_sltiu_cg_cr_rs1_imm_edges_rs1val_0x7ffffffe_immval_m0x2, I_sltiu_cg_cr_rs1_imm_edges_rs1val_0x7ffffffe_immval_m0x2_str)
    1e9c:	00062383          	lw	x7,0(x12)
    1ea0:	00938863          	beq	x7,x9,1eb0 <I_sltiu_cg_cr_rs1_imm_edges_rs1val_0x7ffffffe_immval_m0x2+0x18>
    1ea4:	6100146f          	jal	x8,34b4 <failedtest_x8_x7>
    1ea8:	00001e98          	.word	0x00001e98
    1eac:	0000c2ed          	.word	0x0000c2ed
    1eb0:	00460613          	addi	x12,x12,4

# Testcase cr_rs1_imm_edges (rs1 = 0x7ffffffe, imm = -1)
  RVTEST_TESTDATA_LOAD_INT(x1, x2) # load rs1: x2 = 0x7ffffffe
    1eb4:	0000a103          	lw	x2,0(x1)
    1eb8:	00408093          	addi	x1,x1,4

00001ebc <I_sltiu_cg_cr_rs1_imm_edges_rs1val_0x7ffffffe_immval_m0x1>:
I_sltiu_cg_cr_rs1_imm_edges_rs1val_0x7ffffffe_immval_m0x1:
  sltiu x19, x2, -1 # perform operation
    1ebc:	fff13993          	sltiu	x19,x2,-1
  # Check if x19 contains the expected result. x12 is the signature ptr, x8 is the link ptr, x7 is a temp reg.
  RVTEST_SIGUPD(x12, x8, x7, x19, I_sltiu_cg_cr_rs1_imm_edges_rs1val_0x7ffffffe_immval_m0x1, I_sltiu_cg_cr_rs1_imm_edges_rs1val_0x7ffffffe_immval_m0x1_str)
    1ec0:	00062383          	lw	x7,0(x12)
    1ec4:	01338863          	beq	x7,x19,1ed4 <I_sltiu_cg_cr_rs1_imm_edges_rs1val_0x7ffffffe_immval_m0x1+0x18>
    1ec8:	5ec0146f          	jal	x8,34b4 <failedtest_x8_x7>
    1ecc:	00001ebc          	.word	0x00001ebc
    1ed0:	0000c344          	.word	0x0000c344
    1ed4:	00460613          	addi	x12,x12,4

# Testcase cr_rs1_imm_edges (rs1 = 0xffffffff, imm = 0)
  RVTEST_TESTDATA_LOAD_INT(x1, x27) # load rs1: x27 = 0xffffffff
    1ed8:	0000ad83          	lw	x27,0(x1)
    1edc:	00408093          	addi	x1,x1,4

00001ee0 <I_sltiu_cg_cr_rs1_imm_edges_rs1val_0xffffffff_immval_0x0>:
I_sltiu_cg_cr_rs1_imm_edges_rs1val_0xffffffff_immval_0x0:
  sltiu x22, x27, 0 # perform operation
    1ee0:	000dbb13          	sltiu	x22,x27,0
  # Check if x22 contains the expected result. x12 is the signature ptr, x8 is the link ptr, x7 is a temp reg.
  RVTEST_SIGUPD(x12, x8, x7, x22, I_sltiu_cg_cr_rs1_imm_edges_rs1val_0xffffffff_immval_0x0, I_sltiu_cg_cr_rs1_imm_edges_rs1val_0xffffffff_immval_0x0_str)
    1ee4:	00062383          	lw	x7,0(x12)
    1ee8:	01638863          	beq	x7,x22,1ef8 <I_sltiu_cg_cr_rs1_imm_edges_rs1val_0xffffffff_immval_0x0+0x18>
    1eec:	5c80146f          	jal	x8,34b4 <failedtest_x8_x7>
    1ef0:	00001ee0          	.word	0x00001ee0
    1ef4:	0000c39b          	.word	0x0000c39b
    1ef8:	00460613          	addi	x12,x12,4

# Testcase cr_rs1_imm_edges (rs1 = 0xffffffff, imm = 1)
  RVTEST_TESTDATA_LOAD_INT(x1, x13) # load rs1: x13 = 0xffffffff
    1efc:	0000a683          	lw	x13,0(x1)
    1f00:	00408093          	addi	x1,x1,4

00001f04 <I_sltiu_cg_cr_rs1_imm_edges_rs1val_0xffffffff_immval_0x1>:
I_sltiu_cg_cr_rs1_imm_edges_rs1val_0xffffffff_immval_0x1:
  sltiu x28, x13, 1 # perform operation
    1f04:	0016be13          	sltiu	x28,x13,1
  # Check if x28 contains the expected result. x12 is the signature ptr, x8 is the link ptr, x7 is a temp reg.
  RVTEST_SIGUPD(x12, x8, x7, x28, I_sltiu_cg_cr_rs1_imm_edges_rs1val_0xffffffff_immval_0x1, I_sltiu_cg_cr_rs1_imm_edges_rs1val_0xffffffff_immval_0x1_str)
    1f08:	00062383          	lw	x7,0(x12)
    1f0c:	01c38863          	beq	x7,x28,1f1c <I_sltiu_cg_cr_rs1_imm_edges_rs1val_0xffffffff_immval_0x1+0x18>
    1f10:	5a40146f          	jal	x8,34b4 <failedtest_x8_x7>
    1f14:	00001f04          	.word	0x00001f04
    1f18:	0000c3f1          	.word	0x0000c3f1
    1f1c:	00460613          	addi	x12,x12,4

# Testcase cr_rs1_imm_edges (rs1 = 0xffffffff, imm = 2)
  RVTEST_TESTDATA_LOAD_INT(x1, x15) # load rs1: x15 = 0xffffffff
    1f20:	0000a783          	lw	x15,0(x1)
    1f24:	00408093          	addi	x1,x1,4

00001f28 <I_sltiu_cg_cr_rs1_imm_edges_rs1val_0xffffffff_immval_0x2>:
I_sltiu_cg_cr_rs1_imm_edges_rs1val_0xffffffff_immval_0x2:
  sltiu x10, x15, 2 # perform operation
    1f28:	0027b513          	sltiu	x10,x15,2
  # Check if x10 contains the expected result. x12 is the signature ptr, x8 is the link ptr, x7 is a temp reg.
  RVTEST_SIGUPD(x12, x8, x7, x10, I_sltiu_cg_cr_rs1_imm_edges_rs1val_0xffffffff_immval_0x2, I_sltiu_cg_cr_rs1_imm_edges_rs1val_0xffffffff_immval_0x2_str)
    1f2c:	00062383          	lw	x7,0(x12)
    1f30:	00a38863          	beq	x7,x10,1f40 <I_sltiu_cg_cr_rs1_imm_edges_rs1val_0xffffffff_immval_0x2+0x18>
    1f34:	5800146f          	jal	x8,34b4 <failedtest_x8_x7>
    1f38:	00001f28          	.word	0x00001f28
    1f3c:	0000c447          	.word	0x0000c447
    1f40:	00460613          	addi	x12,x12,4

# Testcase cr_rs1_imm_edges (rs1 = 0xffffffff, imm = 3)
  RVTEST_TESTDATA_LOAD_INT(x1, x18) # load rs1: x18 = 0xffffffff
    1f44:	0000a903          	lw	x18,0(x1)
    1f48:	00408093          	addi	x1,x1,4

00001f4c <I_sltiu_cg_cr_rs1_imm_edges_rs1val_0xffffffff_immval_0x3>:
I_sltiu_cg_cr_rs1_imm_edges_rs1val_0xffffffff_immval_0x3:
  sltiu x17, x18, 3 # perform operation
    1f4c:	00393893          	sltiu	x17,x18,3
  # Check if x17 contains the expected result. x12 is the signature ptr, x8 is the link ptr, x7 is a temp reg.
  RVTEST_SIGUPD(x12, x8, x7, x17, I_sltiu_cg_cr_rs1_imm_edges_rs1val_0xffffffff_immval_0x3, I_sltiu_cg_cr_rs1_imm_edges_rs1val_0xffffffff_immval_0x3_str)
    1f50:	00062383          	lw	x7,0(x12)
    1f54:	01138863          	beq	x7,x17,1f64 <I_sltiu_cg_cr_rs1_imm_edges_rs1val_0xffffffff_immval_0x3+0x18>
    1f58:	55c0146f          	jal	x8,34b4 <failedtest_x8_x7>
    1f5c:	00001f4c          	.word	0x00001f4c
    1f60:	0000c49d          	.word	0x0000c49d
    1f64:	00460613          	addi	x12,x12,4

# Testcase cr_rs1_imm_edges (rs1 = 0xffffffff, imm = 4)
  RVTEST_TESTDATA_LOAD_INT(x1, x2) # load rs1: x2 = 0xffffffff
    1f68:	0000a103          	lw	x2,0(x1)
    1f6c:	00408093          	addi	x1,x1,4

00001f70 <I_sltiu_cg_cr_rs1_imm_edges_rs1val_0xffffffff_immval_0x4>:
I_sltiu_cg_cr_rs1_imm_edges_rs1val_0xffffffff_immval_0x4:
  sltiu x25, x2, 4 # perform operation
    1f70:	00413c93          	sltiu	x25,x2,4
  # Check if x25 contains the expected result. x12 is the signature ptr, x8 is the link ptr, x7 is a temp reg.
  RVTEST_SIGUPD(x12, x8, x7, x25, I_sltiu_cg_cr_rs1_imm_edges_rs1val_0xffffffff_immval_0x4, I_sltiu_cg_cr_rs1_imm_edges_rs1val_0xffffffff_immval_0x4_str)
    1f74:	00062383          	lw	x7,0(x12)
    1f78:	01938863          	beq	x7,x25,1f88 <I_sltiu_cg_cr_rs1_imm_edges_rs1val_0xffffffff_immval_0x4+0x18>
    1f7c:	5380146f          	jal	x8,34b4 <failedtest_x8_x7>
    1f80:	00001f70          	.word	0x00001f70
    1f84:	0000c4f3          	.word	0x0000c4f3
    1f88:	00460613          	addi	x12,x12,4

# Testcase cr_rs1_imm_edges (rs1 = 0xffffffff, imm = 8)
  RVTEST_TESTDATA_LOAD_INT(x1, x14) # load rs1: x14 = 0xffffffff
    1f8c:	0000a703          	lw	x14,0(x1)
    1f90:	00408093          	addi	x1,x1,4

00001f94 <I_sltiu_cg_cr_rs1_imm_edges_rs1val_0xffffffff_immval_0x8>:
I_sltiu_cg_cr_rs1_imm_edges_rs1val_0xffffffff_immval_0x8:
  sltiu x15, x14, 8 # perform operation
    1f94:	00873793          	sltiu	x15,x14,8
  # Check if x15 contains the expected result. x12 is the signature ptr, x8 is the link ptr, x7 is a temp reg.
  RVTEST_SIGUPD(x12, x8, x7, x15, I_sltiu_cg_cr_rs1_imm_edges_rs1val_0xffffffff_immval_0x8, I_sltiu_cg_cr_rs1_imm_edges_rs1val_0xffffffff_immval_0x8_str)
    1f98:	00062383          	lw	x7,0(x12)
    1f9c:	00f38863          	beq	x7,x15,1fac <I_sltiu_cg_cr_rs1_imm_edges_rs1val_0xffffffff_immval_0x8+0x18>
    1fa0:	5140146f          	jal	x8,34b4 <failedtest_x8_x7>
    1fa4:	00001f94          	.word	0x00001f94
    1fa8:	0000c549          	.word	0x0000c549
    1fac:	00460613          	addi	x12,x12,4

# Testcase cr_rs1_imm_edges (rs1 = 0xffffffff, imm = 16)
  RVTEST_TESTDATA_LOAD_INT(x1, x23) # load rs1: x23 = 0xffffffff
    1fb0:	0000ab83          	lw	x23,0(x1)
    1fb4:	00408093          	addi	x1,x1,4

00001fb8 <I_sltiu_cg_cr_rs1_imm_edges_rs1val_0xffffffff_immval_0x10>:
I_sltiu_cg_cr_rs1_imm_edges_rs1val_0xffffffff_immval_0x10:
  sltiu x18, x23, 16 # perform operation
    1fb8:	010bb913          	sltiu	x18,x23,16
  # Check if x18 contains the expected result. x12 is the signature ptr, x8 is the link ptr, x7 is a temp reg.
  RVTEST_SIGUPD(x12, x8, x7, x18, I_sltiu_cg_cr_rs1_imm_edges_rs1val_0xffffffff_immval_0x10, I_sltiu_cg_cr_rs1_imm_edges_rs1val_0xffffffff_immval_0x10_str)
    1fbc:	00062383          	lw	x7,0(x12)
    1fc0:	01238863          	beq	x7,x18,1fd0 <I_sltiu_cg_cr_rs1_imm_edges_rs1val_0xffffffff_immval_0x10+0x18>
    1fc4:	4f00146f          	jal	x8,34b4 <failedtest_x8_x7>
    1fc8:	00001fb8          	.word	0x00001fb8
    1fcc:	0000c59f          	.word	0x0000c59f
    1fd0:	00460613          	addi	x12,x12,4

# Testcase cr_rs1_imm_edges (rs1 = 0xffffffff, imm = 32)
  RVTEST_TESTDATA_LOAD_INT(x1, x5) # load rs1: x5 = 0xffffffff
    1fd4:	0000a283          	lw	x5,0(x1)
    1fd8:	00408093          	addi	x1,x1,4

00001fdc <I_sltiu_cg_cr_rs1_imm_edges_rs1val_0xffffffff_immval_0x20>:
I_sltiu_cg_cr_rs1_imm_edges_rs1val_0xffffffff_immval_0x20:
  sltiu x3, x5, 32 # perform operation
    1fdc:	0202b193          	sltiu	x3,x5,32
  # Check if x3 contains the expected result. x12 is the signature ptr, x8 is the link ptr, x7 is a temp reg.
  RVTEST_SIGUPD(x12, x8, x7, x3, I_sltiu_cg_cr_rs1_imm_edges_rs1val_0xffffffff_immval_0x20, I_sltiu_cg_cr_rs1_imm_edges_rs1val_0xffffffff_immval_0x20_str)
    1fe0:	00062383          	lw	x7,0(x12)
    1fe4:	00338863          	beq	x7,x3,1ff4 <I_sltiu_cg_cr_rs1_imm_edges_rs1val_0xffffffff_immval_0x20+0x18>
    1fe8:	4cc0146f          	jal	x8,34b4 <failedtest_x8_x7>
    1fec:	00001fdc          	.word	0x00001fdc
    1ff0:	0000c5f6          	.word	0x0000c5f6
    1ff4:	00460613          	addi	x12,x12,4

# Testcase cr_rs1_imm_edges (rs1 = 0xffffffff, imm = 64)
  RVTEST_TESTDATA_LOAD_INT(x1, x30) # load rs1: x30 = 0xffffffff
    1ff8:	0000af03          	lw	x30,0(x1)
    1ffc:	00408093          	addi	x1,x1,4

00002000 <I_sltiu_cg_cr_rs1_imm_edges_rs1val_0xffffffff_immval_0x40>:
I_sltiu_cg_cr_rs1_imm_edges_rs1val_0xffffffff_immval_0x40:
  sltiu x14, x30, 64 # perform operation
    2000:	040f3713          	sltiu	x14,x30,64
  # Check if x14 contains the expected result. x12 is the signature ptr, x8 is the link ptr, x7 is a temp reg.
  RVTEST_SIGUPD(x12, x8, x7, x14, I_sltiu_cg_cr_rs1_imm_edges_rs1val_0xffffffff_immval_0x40, I_sltiu_cg_cr_rs1_imm_edges_rs1val_0xffffffff_immval_0x40_str)
    2004:	00062383          	lw	x7,0(x12)
    2008:	00e38863          	beq	x7,x14,2018 <I_sltiu_cg_cr_rs1_imm_edges_rs1val_0xffffffff_immval_0x40+0x18>
    200c:	4a80146f          	jal	x8,34b4 <failedtest_x8_x7>
    2010:	00002000          	.word	0x00002000
    2014:	0000c64d          	.word	0x0000c64d
    2018:	00460613          	addi	x12,x12,4

# Testcase cr_rs1_imm_edges (rs1 = 0xffffffff, imm = 128)
  RVTEST_TESTDATA_LOAD_INT(x1, x10) # load rs1: x10 = 0xffffffff
    201c:	0000a503          	lw	x10,0(x1)
    2020:	00408093          	addi	x1,x1,4

00002024 <I_sltiu_cg_cr_rs1_imm_edges_rs1val_0xffffffff_immval_0x80>:
I_sltiu_cg_cr_rs1_imm_edges_rs1val_0xffffffff_immval_0x80:
  sltiu x11, x10, 128 # perform operation
    2024:	08053593          	sltiu	x11,x10,128
  # Check if x11 contains the expected result. x12 is the signature ptr, x8 is the link ptr, x7 is a temp reg.
  RVTEST_SIGUPD(x12, x8, x7, x11, I_sltiu_cg_cr_rs1_imm_edges_rs1val_0xffffffff_immval_0x80, I_sltiu_cg_cr_rs1_imm_edges_rs1val_0xffffffff_immval_0x80_str)
    2028:	00062383          	lw	x7,0(x12)
    202c:	00b38863          	beq	x7,x11,203c <I_sltiu_cg_cr_rs1_imm_edges_rs1val_0xffffffff_immval_0x80+0x18>
    2030:	4840146f          	jal	x8,34b4 <failedtest_x8_x7>
    2034:	00002024          	.word	0x00002024
    2038:	0000c6a4          	.word	0x0000c6a4
    203c:	00460613          	addi	x12,x12,4

# Testcase cr_rs1_imm_edges (rs1 = 0xffffffff, imm = 256)
  RVTEST_TESTDATA_LOAD_INT(x1, x17) # load rs1: x17 = 0xffffffff
    2040:	0000a883          	lw	x17,0(x1)
    2044:	00408093          	addi	x1,x1,4

00002048 <I_sltiu_cg_cr_rs1_imm_edges_rs1val_0xffffffff_immval_0x100>:
I_sltiu_cg_cr_rs1_imm_edges_rs1val_0xffffffff_immval_0x100:
  sltiu x18, x17, 256 # perform operation
    2048:	1008b913          	sltiu	x18,x17,256
  # Check if x18 contains the expected result. x12 is the signature ptr, x8 is the link ptr, x7 is a temp reg.
  RVTEST_SIGUPD(x12, x8, x7, x18, I_sltiu_cg_cr_rs1_imm_edges_rs1val_0xffffffff_immval_0x100, I_sltiu_cg_cr_rs1_imm_edges_rs1val_0xffffffff_immval_0x100_str)
    204c:	00062383          	lw	x7,0(x12)
    2050:	01238863          	beq	x7,x18,2060 <I_sltiu_cg_cr_rs1_imm_edges_rs1val_0xffffffff_immval_0x100+0x18>
    2054:	4600146f          	jal	x8,34b4 <failedtest_x8_x7>
    2058:	00002048          	.word	0x00002048
    205c:	0000c6fb          	.word	0x0000c6fb
    2060:	00460613          	addi	x12,x12,4

# Testcase cr_rs1_imm_edges (rs1 = 0xffffffff, imm = 512)
  RVTEST_TESTDATA_LOAD_INT(x1, x22) # load rs1: x22 = 0xffffffff
    2064:	0000ab03          	lw	x22,0(x1)
    2068:	00408093          	addi	x1,x1,4

0000206c <I_sltiu_cg_cr_rs1_imm_edges_rs1val_0xffffffff_immval_0x200>:
I_sltiu_cg_cr_rs1_imm_edges_rs1val_0xffffffff_immval_0x200:
  sltiu x27, x22, 512 # perform operation
    206c:	200b3d93          	sltiu	x27,x22,512
  # Check if x27 contains the expected result. x12 is the signature ptr, x8 is the link ptr, x7 is a temp reg.
  RVTEST_SIGUPD(x12, x8, x7, x27, I_sltiu_cg_cr_rs1_imm_edges_rs1val_0xffffffff_immval_0x200, I_sltiu_cg_cr_rs1_imm_edges_rs1val_0xffffffff_immval_0x200_str)
    2070:	00062383          	lw	x7,0(x12)
    2074:	01b38863          	beq	x7,x27,2084 <I_sltiu_cg_cr_rs1_imm_edges_rs1val_0xffffffff_immval_0x200+0x18>
    2078:	43c0146f          	jal	x8,34b4 <failedtest_x8_x7>
    207c:	0000206c          	.word	0x0000206c
    2080:	0000c753          	.word	0x0000c753
    2084:	00460613          	addi	x12,x12,4

# Testcase cr_rs1_imm_edges (rs1 = 0xffffffff, imm = 1023)
  RVTEST_TESTDATA_LOAD_INT(x1, x17) # load rs1: x17 = 0xffffffff
    2088:	0000a883          	lw	x17,0(x1)
    208c:	00408093          	addi	x1,x1,4

00002090 <I_sltiu_cg_cr_rs1_imm_edges_rs1val_0xffffffff_immval_0x3ff>:
I_sltiu_cg_cr_rs1_imm_edges_rs1val_0xffffffff_immval_0x3ff:
  sltiu x3, x17, 1023 # perform operation
    2090:	3ff8b193          	sltiu	x3,x17,1023
  # Check if x3 contains the expected result. x12 is the signature ptr, x8 is the link ptr, x7 is a temp reg.
  RVTEST_SIGUPD(x12, x8, x7, x3, I_sltiu_cg_cr_rs1_imm_edges_rs1val_0xffffffff_immval_0x3ff, I_sltiu_cg_cr_rs1_imm_edges_rs1val_0xffffffff_immval_0x3ff_str)
    2094:	00062383          	lw	x7,0(x12)
    2098:	00338863          	beq	x7,x3,20a8 <I_sltiu_cg_cr_rs1_imm_edges_rs1val_0xffffffff_immval_0x3ff+0x18>
    209c:	4180146f          	jal	x8,34b4 <failedtest_x8_x7>
    20a0:	00002090          	.word	0x00002090
    20a4:	0000c7ab          	.word	0x0000c7ab
    20a8:	00460613          	addi	x12,x12,4

# Testcase cr_rs1_imm_edges (rs1 = 0xffffffff, imm = 1024)
  RVTEST_TESTDATA_LOAD_INT(x1, x3) # load rs1: x3 = 0xffffffff
    20ac:	0000a183          	lw	x3,0(x1)
    20b0:	00408093          	addi	x1,x1,4

000020b4 <I_sltiu_cg_cr_rs1_imm_edges_rs1val_0xffffffff_immval_0x400>:
I_sltiu_cg_cr_rs1_imm_edges_rs1val_0xffffffff_immval_0x400:
  sltiu x31, x3, 1024 # perform operation
    20b4:	4001bf93          	sltiu	x31,x3,1024
  # Check if x31 contains the expected result. x12 is the signature ptr, x8 is the link ptr, x7 is a temp reg.
  RVTEST_SIGUPD(x12, x8, x7, x31, I_sltiu_cg_cr_rs1_imm_edges_rs1val_0xffffffff_immval_0x400, I_sltiu_cg_cr_rs1_imm_edges_rs1val_0xffffffff_immval_0x400_str)
    20b8:	00062383          	lw	x7,0(x12)
    20bc:	01f38863          	beq	x7,x31,20cc <I_sltiu_cg_cr_rs1_imm_edges_rs1val_0xffffffff_immval_0x400+0x18>
    20c0:	3f40146f          	jal	x8,34b4 <failedtest_x8_x7>
    20c4:	000020b4          	.word	0x000020b4
    20c8:	0000c803          	.word	0x0000c803
    20cc:	00460613          	addi	x12,x12,4

# Testcase cr_rs1_imm_edges (rs1 = 0xffffffff, imm = 1795)
  RVTEST_TESTDATA_LOAD_INT(x1, x9) # load rs1: x9 = 0xffffffff
    20d0:	0000a483          	lw	x9,0(x1)
    20d4:	00408093          	addi	x1,x1,4

000020d8 <I_sltiu_cg_cr_rs1_imm_edges_rs1val_0xffffffff_immval_0x703>:
I_sltiu_cg_cr_rs1_imm_edges_rs1val_0xffffffff_immval_0x703:
  sltiu x10, x9, 1795 # perform operation
    20d8:	7034b513          	sltiu	x10,x9,1795
  # Check if x10 contains the expected result. x12 is the signature ptr, x8 is the link ptr, x7 is a temp reg.
  RVTEST_SIGUPD(x12, x8, x7, x10, I_sltiu_cg_cr_rs1_imm_edges_rs1val_0xffffffff_immval_0x703, I_sltiu_cg_cr_rs1_imm_edges_rs1val_0xffffffff_immval_0x703_str)
    20dc:	00062383          	lw	x7,0(x12)
    20e0:	00a38863          	beq	x7,x10,20f0 <I_sltiu_cg_cr_rs1_imm_edges_rs1val_0xffffffff_immval_0x703+0x18>
    20e4:	3d00146f          	jal	x8,34b4 <failedtest_x8_x7>
    20e8:	000020d8          	.word	0x000020d8
    20ec:	0000c85b          	.word	0x0000c85b
    20f0:	00460613          	addi	x12,x12,4

# Testcase cr_rs1_imm_edges (rs1 = 0xffffffff, imm = 2047)
  RVTEST_TESTDATA_LOAD_INT(x1, x16) # load rs1: x16 = 0xffffffff
    20f4:	0000a803          	lw	x16,0(x1)
    20f8:	00408093          	addi	x1,x1,4

000020fc <I_sltiu_cg_cr_rs1_imm_edges_rs1val_0xffffffff_immval_0x7ff>:
I_sltiu_cg_cr_rs1_imm_edges_rs1val_0xffffffff_immval_0x7ff:
  sltiu x17, x16, 2047 # perform operation
    20fc:	7ff83893          	sltiu	x17,x16,2047
  # Check if x17 contains the expected result. x12 is the signature ptr, x8 is the link ptr, x7 is a temp reg.
  RVTEST_SIGUPD(x12, x8, x7, x17, I_sltiu_cg_cr_rs1_imm_edges_rs1val_0xffffffff_immval_0x7ff, I_sltiu_cg_cr_rs1_imm_edges_rs1val_0xffffffff_immval_0x7ff_str)
    2100:	00062383          	lw	x7,0(x12)
    2104:	01138863          	beq	x7,x17,2114 <I_sltiu_cg_cr_rs1_imm_edges_rs1val_0xffffffff_immval_0x7ff+0x18>
    2108:	3ac0146f          	jal	x8,34b4 <failedtest_x8_x7>
    210c:	000020fc          	.word	0x000020fc
    2110:	0000c8b3          	.word	0x0000c8b3
    2114:	00460613          	addi	x12,x12,4

# Testcase cr_rs1_imm_edges (rs1 = 0xffffffff, imm = -2048)
  RVTEST_TESTDATA_LOAD_INT(x1, x5) # load rs1: x5 = 0xffffffff
    2118:	0000a283          	lw	x5,0(x1)
    211c:	00408093          	addi	x1,x1,4

00002120 <I_sltiu_cg_cr_rs1_imm_edges_rs1val_0xffffffff_immval_m0x800>:
I_sltiu_cg_cr_rs1_imm_edges_rs1val_0xffffffff_immval_m0x800:
  sltiu x11, x5, -2048 # perform operation
    2120:	8002b593          	sltiu	x11,x5,-2048
  # Check if x11 contains the expected result. x12 is the signature ptr, x8 is the link ptr, x7 is a temp reg.
  RVTEST_SIGUPD(x12, x8, x7, x11, I_sltiu_cg_cr_rs1_imm_edges_rs1val_0xffffffff_immval_m0x800, I_sltiu_cg_cr_rs1_imm_edges_rs1val_0xffffffff_immval_m0x800_str)
    2124:	00062383          	lw	x7,0(x12)
    2128:	00b38863          	beq	x7,x11,2138 <I_sltiu_cg_cr_rs1_imm_edges_rs1val_0xffffffff_immval_m0x800+0x18>
    212c:	3880146f          	jal	x8,34b4 <failedtest_x8_x7>
    2130:	00002120          	.word	0x00002120
    2134:	0000c90b          	.word	0x0000c90b
    2138:	00460613          	addi	x12,x12,4

# Testcase cr_rs1_imm_edges (rs1 = 0xffffffff, imm = -2047)
  RVTEST_TESTDATA_LOAD_INT(x1, x9) # load rs1: x9 = 0xffffffff
    213c:	0000a483          	lw	x9,0(x1)
    2140:	00408093          	addi	x1,x1,4

00002144 <I_sltiu_cg_cr_rs1_imm_edges_rs1val_0xffffffff_immval_m0x7ff>:
I_sltiu_cg_cr_rs1_imm_edges_rs1val_0xffffffff_immval_m0x7ff:
  sltiu x23, x9, -2047 # perform operation
    2144:	8014bb93          	sltiu	x23,x9,-2047
  # Check if x23 contains the expected result. x12 is the signature ptr, x8 is the link ptr, x7 is a temp reg.
  RVTEST_SIGUPD(x12, x8, x7, x23, I_sltiu_cg_cr_rs1_imm_edges_rs1val_0xffffffff_immval_m0x7ff, I_sltiu_cg_cr_rs1_imm_edges_rs1val_0xffffffff_immval_m0x7ff_str)
    2148:	00062383          	lw	x7,0(x12)
    214c:	01738863          	beq	x7,x23,215c <I_sltiu_cg_cr_rs1_imm_edges_rs1val_0xffffffff_immval_m0x7ff+0x18>
    2150:	3640146f          	jal	x8,34b4 <failedtest_x8_x7>
    2154:	00002144          	.word	0x00002144
    2158:	0000c964          	.word	0x0000c964
    215c:	00460613          	addi	x12,x12,4

# Testcase cr_rs1_imm_edges (rs1 = 0xffffffff, imm = -2)
  RVTEST_TESTDATA_LOAD_INT(x1, x9) # load rs1: x9 = 0xffffffff
    2160:	0000a483          	lw	x9,0(x1)
    2164:	00408093          	addi	x1,x1,4

00002168 <I_sltiu_cg_cr_rs1_imm_edges_rs1val_0xffffffff_immval_m0x2>:
I_sltiu_cg_cr_rs1_imm_edges_rs1val_0xffffffff_immval_m0x2:
  sltiu x6, x9, -2 # perform operation
    2168:	ffe4b313          	sltiu	x6,x9,-2
  # Check if x6 contains the expected result. x12 is the signature ptr, x8 is the link ptr, x7 is a temp reg.
  RVTEST_SIGUPD(x12, x8, x7, x6, I_sltiu_cg_cr_rs1_imm_edges_rs1val_0xffffffff_immval_m0x2, I_sltiu_cg_cr_rs1_imm_edges_rs1val_0xffffffff_immval_m0x2_str)
    216c:	00062383          	lw	x7,0(x12)
    2170:	00638863          	beq	x7,x6,2180 <I_sltiu_cg_cr_rs1_imm_edges_rs1val_0xffffffff_immval_m0x2+0x18>
    2174:	3400146f          	jal	x8,34b4 <failedtest_x8_x7>
    2178:	00002168          	.word	0x00002168
    217c:	0000c9bd          	.word	0x0000c9bd
    2180:	00460613          	addi	x12,x12,4

# Testcase cr_rs1_imm_edges (rs1 = 0xffffffff, imm = -1)
  RVTEST_TESTDATA_LOAD_INT(x1, x16) # load rs1: x16 = 0xffffffff
    2184:	0000a803          	lw	x16,0(x1)
    2188:	00408093          	addi	x1,x1,4

0000218c <I_sltiu_cg_cr_rs1_imm_edges_rs1val_0xffffffff_immval_m0x1>:
I_sltiu_cg_cr_rs1_imm_edges_rs1val_0xffffffff_immval_m0x1:
  sltiu x19, x16, -1 # perform operation
    218c:	fff83993          	sltiu	x19,x16,-1
  # Check if x19 contains the expected result. x12 is the signature ptr, x8 is the link ptr, x7 is a temp reg.
  RVTEST_SIGUPD(x12, x8, x7, x19, I_sltiu_cg_cr_rs1_imm_edges_rs1val_0xffffffff_immval_m0x1, I_sltiu_cg_cr_rs1_imm_edges_rs1val_0xffffffff_immval_m0x1_str)
    2190:	00062383          	lw	x7,0(x12)
    2194:	01338863          	beq	x7,x19,21a4 <I_sltiu_cg_cr_rs1_imm_edges_rs1val_0xffffffff_immval_m0x1+0x18>
    2198:	31c0146f          	jal	x8,34b4 <failedtest_x8_x7>
    219c:	0000218c          	.word	0x0000218c
    21a0:	0000ca14          	.word	0x0000ca14
    21a4:	00460613          	addi	x12,x12,4

# Testcase cr_rs1_imm_edges (rs1 = 0xfffffffe, imm = 0)
  RVTEST_TESTDATA_LOAD_INT(x1, x3) # load rs1: x3 = 0xfffffffe
    21a8:	0000a183          	lw	x3,0(x1)
    21ac:	00408093          	addi	x1,x1,4

000021b0 <I_sltiu_cg_cr_rs1_imm_edges_rs1val_0xfffffffe_immval_0x0>:
I_sltiu_cg_cr_rs1_imm_edges_rs1val_0xfffffffe_immval_0x0:
  sltiu x21, x3, 0 # perform operation
    21b0:	0001ba93          	sltiu	x21,x3,0
  # Check if x21 contains the expected result. x12 is the signature ptr, x8 is the link ptr, x7 is a temp reg.
  RVTEST_SIGUPD(x12, x8, x7, x21, I_sltiu_cg_cr_rs1_imm_edges_rs1val_0xfffffffe_immval_0x0, I_sltiu_cg_cr_rs1_imm_edges_rs1val_0xfffffffe_immval_0x0_str)
    21b4:	00062383          	lw	x7,0(x12)
    21b8:	01538863          	beq	x7,x21,21c8 <I_sltiu_cg_cr_rs1_imm_edges_rs1val_0xfffffffe_immval_0x0+0x18>
    21bc:	2f80146f          	jal	x8,34b4 <failedtest_x8_x7>
    21c0:	000021b0          	.word	0x000021b0
    21c4:	0000ca6b          	.word	0x0000ca6b
    21c8:	00460613          	addi	x12,x12,4

# Testcase cr_rs1_imm_edges (rs1 = 0xfffffffe, imm = 1)
  RVTEST_TESTDATA_LOAD_INT(x1, x25) # load rs1: x25 = 0xfffffffe
    21cc:	0000ac83          	lw	x25,0(x1)
    21d0:	00408093          	addi	x1,x1,4

000021d4 <I_sltiu_cg_cr_rs1_imm_edges_rs1val_0xfffffffe_immval_0x1>:
I_sltiu_cg_cr_rs1_imm_edges_rs1val_0xfffffffe_immval_0x1:
  sltiu x17, x25, 1 # perform operation
    21d4:	001cb893          	sltiu	x17,x25,1
  # Check if x17 contains the expected result. x12 is the signature ptr, x8 is the link ptr, x7 is a temp reg.
  RVTEST_SIGUPD(x12, x8, x7, x17, I_sltiu_cg_cr_rs1_imm_edges_rs1val_0xfffffffe_immval_0x1, I_sltiu_cg_cr_rs1_imm_edges_rs1val_0xfffffffe_immval_0x1_str)
    21d8:	00062383          	lw	x7,0(x12)
    21dc:	01138863          	beq	x7,x17,21ec <I_sltiu_cg_cr_rs1_imm_edges_rs1val_0xfffffffe_immval_0x1+0x18>
    21e0:	2d40146f          	jal	x8,34b4 <failedtest_x8_x7>
    21e4:	000021d4          	.word	0x000021d4
    21e8:	0000cac1          	.word	0x0000cac1
    21ec:	00460613          	addi	x12,x12,4

# Testcase cr_rs1_imm_edges (rs1 = 0xfffffffe, imm = 2)
  RVTEST_TESTDATA_LOAD_INT(x1, x13) # load rs1: x13 = 0xfffffffe
    21f0:	0000a683          	lw	x13,0(x1)
    21f4:	00408093          	addi	x1,x1,4

000021f8 <I_sltiu_cg_cr_rs1_imm_edges_rs1val_0xfffffffe_immval_0x2>:
I_sltiu_cg_cr_rs1_imm_edges_rs1val_0xfffffffe_immval_0x2:
  sltiu x28, x13, 2 # perform operation
    21f8:	0026be13          	sltiu	x28,x13,2
  # Check if x28 contains the expected result. x12 is the signature ptr, x8 is the link ptr, x7 is a temp reg.
  RVTEST_SIGUPD(x12, x8, x7, x28, I_sltiu_cg_cr_rs1_imm_edges_rs1val_0xfffffffe_immval_0x2, I_sltiu_cg_cr_rs1_imm_edges_rs1val_0xfffffffe_immval_0x2_str)
    21fc:	00062383          	lw	x7,0(x12)
    2200:	01c38863          	beq	x7,x28,2210 <I_sltiu_cg_cr_rs1_imm_edges_rs1val_0xfffffffe_immval_0x2+0x18>
    2204:	2b00146f          	jal	x8,34b4 <failedtest_x8_x7>
    2208:	000021f8          	.word	0x000021f8
    220c:	0000cb17          	.word	0x0000cb17
    2210:	00460613          	addi	x12,x12,4

# Testcase cr_rs1_imm_edges (rs1 = 0xfffffffe, imm = 3)
  RVTEST_TESTDATA_LOAD_INT(x1, x5) # load rs1: x5 = 0xfffffffe
    2214:	0000a283          	lw	x5,0(x1)
    2218:	00408093          	addi	x1,x1,4

0000221c <I_sltiu_cg_cr_rs1_imm_edges_rs1val_0xfffffffe_immval_0x3>:
I_sltiu_cg_cr_rs1_imm_edges_rs1val_0xfffffffe_immval_0x3:
  sltiu x25, x5, 3 # perform operation
    221c:	0032bc93          	sltiu	x25,x5,3
  # Check if x25 contains the expected result. x12 is the signature ptr, x8 is the link ptr, x7 is a temp reg.
  RVTEST_SIGUPD(x12, x8, x7, x25, I_sltiu_cg_cr_rs1_imm_edges_rs1val_0xfffffffe_immval_0x3, I_sltiu_cg_cr_rs1_imm_edges_rs1val_0xfffffffe_immval_0x3_str)
    2220:	00062383          	lw	x7,0(x12)
    2224:	01938863          	beq	x7,x25,2234 <I_sltiu_cg_cr_rs1_imm_edges_rs1val_0xfffffffe_immval_0x3+0x18>
    2228:	28c0146f          	jal	x8,34b4 <failedtest_x8_x7>
    222c:	0000221c          	.word	0x0000221c
    2230:	0000cb6d          	.word	0x0000cb6d
    2234:	00460613          	addi	x12,x12,4

# Testcase cr_rs1_imm_edges (rs1 = 0xfffffffe, imm = 4)
  RVTEST_TESTDATA_LOAD_INT(x1, x6) # load rs1: x6 = 0xfffffffe
    2238:	0000a303          	lw	x6,0(x1)
    223c:	00408093          	addi	x1,x1,4

00002240 <I_sltiu_cg_cr_rs1_imm_edges_rs1val_0xfffffffe_immval_0x4>:
I_sltiu_cg_cr_rs1_imm_edges_rs1val_0xfffffffe_immval_0x4:
  sltiu x13, x6, 4 # perform operation
    2240:	00433693          	sltiu	x13,x6,4
  # Check if x13 contains the expected result. x12 is the signature ptr, x8 is the link ptr, x7 is a temp reg.
  RVTEST_SIGUPD(x12, x8, x7, x13, I_sltiu_cg_cr_rs1_imm_edges_rs1val_0xfffffffe_immval_0x4, I_sltiu_cg_cr_rs1_imm_edges_rs1val_0xfffffffe_immval_0x4_str)
    2244:	00062383          	lw	x7,0(x12)
    2248:	00d38863          	beq	x7,x13,2258 <I_sltiu_cg_cr_rs1_imm_edges_rs1val_0xfffffffe_immval_0x4+0x18>
    224c:	2680146f          	jal	x8,34b4 <failedtest_x8_x7>
    2250:	00002240          	.word	0x00002240
    2254:	0000cbc3          	.word	0x0000cbc3
    2258:	00460613          	addi	x12,x12,4

# Testcase cr_rs1_imm_edges (rs1 = 0xfffffffe, imm = 8)
  RVTEST_TESTDATA_LOAD_INT(x1, x18) # load rs1: x18 = 0xfffffffe
    225c:	0000a903          	lw	x18,0(x1)
    2260:	00408093          	addi	x1,x1,4

00002264 <I_sltiu_cg_cr_rs1_imm_edges_rs1val_0xfffffffe_immval_0x8>:
I_sltiu_cg_cr_rs1_imm_edges_rs1val_0xfffffffe_immval_0x8:
  sltiu x31, x18, 8 # perform operation
    2264:	00893f93          	sltiu	x31,x18,8
  # Check if x31 contains the expected result. x12 is the signature ptr, x8 is the link ptr, x7 is a temp reg.
  RVTEST_SIGUPD(x12, x8, x7, x31, I_sltiu_cg_cr_rs1_imm_edges_rs1val_0xfffffffe_immval_0x8, I_sltiu_cg_cr_rs1_imm_edges_rs1val_0xfffffffe_immval_0x8_str)
    2268:	00062383          	lw	x7,0(x12)
    226c:	01f38863          	beq	x7,x31,227c <I_sltiu_cg_cr_rs1_imm_edges_rs1val_0xfffffffe_immval_0x8+0x18>
    2270:	2440146f          	jal	x8,34b4 <failedtest_x8_x7>
    2274:	00002264          	.word	0x00002264
    2278:	0000cc19          	.word	0x0000cc19
    227c:	00460613          	addi	x12,x12,4

# Testcase cr_rs1_imm_edges (rs1 = 0xfffffffe, imm = 16)
  RVTEST_TESTDATA_LOAD_INT(x1, x25) # load rs1: x25 = 0xfffffffe
    2280:	0000ac83          	lw	x25,0(x1)
    2284:	00408093          	addi	x1,x1,4

00002288 <I_sltiu_cg_cr_rs1_imm_edges_rs1val_0xfffffffe_immval_0x10>:
I_sltiu_cg_cr_rs1_imm_edges_rs1val_0xfffffffe_immval_0x10:
  sltiu x2, x25, 16 # perform operation
    2288:	010cb113          	sltiu	x2,x25,16
  # Check if x2 contains the expected result. x12 is the signature ptr, x8 is the link ptr, x7 is a temp reg.
  RVTEST_SIGUPD(x12, x8, x7, x2, I_sltiu_cg_cr_rs1_imm_edges_rs1val_0xfffffffe_immval_0x10, I_sltiu_cg_cr_rs1_imm_edges_rs1val_0xfffffffe_immval_0x10_str)
    228c:	00062383          	lw	x7,0(x12)
    2290:	00238863          	beq	x7,x2,22a0 <I_sltiu_cg_cr_rs1_imm_edges_rs1val_0xfffffffe_immval_0x10+0x18>
    2294:	2200146f          	jal	x8,34b4 <failedtest_x8_x7>
    2298:	00002288          	.word	0x00002288
    229c:	0000cc6f          	.word	0x0000cc6f
    22a0:	00460613          	addi	x12,x12,4

# Testcase cr_rs1_imm_edges (rs1 = 0xfffffffe, imm = 32)
  RVTEST_TESTDATA_LOAD_INT(x1, x18) # load rs1: x18 = 0xfffffffe
    22a4:	0000a903          	lw	x18,0(x1)
    22a8:	00408093          	addi	x1,x1,4

000022ac <I_sltiu_cg_cr_rs1_imm_edges_rs1val_0xfffffffe_immval_0x20>:
I_sltiu_cg_cr_rs1_imm_edges_rs1val_0xfffffffe_immval_0x20:
  sltiu x4, x18, 32 # perform operation
    22ac:	02093213          	sltiu	x4,x18,32
  # Check if x4 contains the expected result. x12 is the signature ptr, x8 is the link ptr, x7 is a temp reg.
  RVTEST_SIGUPD(x12, x8, x7, x4, I_sltiu_cg_cr_rs1_imm_edges_rs1val_0xfffffffe_immval_0x20, I_sltiu_cg_cr_rs1_imm_edges_rs1val_0xfffffffe_immval_0x20_str)
    22b0:	00062383          	lw	x7,0(x12)
    22b4:	00438863          	beq	x7,x4,22c4 <I_sltiu_cg_cr_rs1_imm_edges_rs1val_0xfffffffe_immval_0x20+0x18>
    22b8:	1fc0146f          	jal	x8,34b4 <failedtest_x8_x7>
    22bc:	000022ac          	.word	0x000022ac
    22c0:	0000ccc6          	.word	0x0000ccc6
    22c4:	00460613          	addi	x12,x12,4

# Testcase cr_rs1_imm_edges (rs1 = 0xfffffffe, imm = 64)
  RVTEST_TESTDATA_LOAD_INT(x1, x3) # load rs1: x3 = 0xfffffffe
    22c8:	0000a183          	lw	x3,0(x1)
    22cc:	00408093          	addi	x1,x1,4

000022d0 <I_sltiu_cg_cr_rs1_imm_edges_rs1val_0xfffffffe_immval_0x40>:
I_sltiu_cg_cr_rs1_imm_edges_rs1val_0xfffffffe_immval_0x40:
  sltiu x25, x3, 64 # perform operation
    22d0:	0401bc93          	sltiu	x25,x3,64
  # Check if x25 contains the expected result. x12 is the signature ptr, x8 is the link ptr, x7 is a temp reg.
  RVTEST_SIGUPD(x12, x8, x7, x25, I_sltiu_cg_cr_rs1_imm_edges_rs1val_0xfffffffe_immval_0x40, I_sltiu_cg_cr_rs1_imm_edges_rs1val_0xfffffffe_immval_0x40_str)
    22d4:	00062383          	lw	x7,0(x12)
    22d8:	01938863          	beq	x7,x25,22e8 <I_sltiu_cg_cr_rs1_imm_edges_rs1val_0xfffffffe_immval_0x40+0x18>
    22dc:	1d80146f          	jal	x8,34b4 <failedtest_x8_x7>
    22e0:	000022d0          	.word	0x000022d0
    22e4:	0000cd1d          	.word	0x0000cd1d
    22e8:	00460613          	addi	x12,x12,4

# Testcase cr_rs1_imm_edges (rs1 = 0xfffffffe, imm = 128)
  RVTEST_TESTDATA_LOAD_INT(x1, x21) # load rs1: x21 = 0xfffffffe
    22ec:	0000aa83          	lw	x21,0(x1)
    22f0:	00408093          	addi	x1,x1,4

000022f4 <I_sltiu_cg_cr_rs1_imm_edges_rs1val_0xfffffffe_immval_0x80>:
I_sltiu_cg_cr_rs1_imm_edges_rs1val_0xfffffffe_immval_0x80:
  sltiu x31, x21, 128 # perform operation
    22f4:	080abf93          	sltiu	x31,x21,128
  # Check if x31 contains the expected result. x12 is the signature ptr, x8 is the link ptr, x7 is a temp reg.
  RVTEST_SIGUPD(x12, x8, x7, x31, I_sltiu_cg_cr_rs1_imm_edges_rs1val_0xfffffffe_immval_0x80, I_sltiu_cg_cr_rs1_imm_edges_rs1val_0xfffffffe_immval_0x80_str)
    22f8:	00062383          	lw	x7,0(x12)
    22fc:	01f38863          	beq	x7,x31,230c <I_sltiu_cg_cr_rs1_imm_edges_rs1val_0xfffffffe_immval_0x80+0x18>
    2300:	1b40146f          	jal	x8,34b4 <failedtest_x8_x7>
    2304:	000022f4          	.word	0x000022f4
    2308:	0000cd74          	.word	0x0000cd74
    230c:	00460613          	addi	x12,x12,4

# Testcase cr_rs1_imm_edges (rs1 = 0xfffffffe, imm = 256)
  RVTEST_TESTDATA_LOAD_INT(x1, x15) # load rs1: x15 = 0xfffffffe
    2310:	0000a783          	lw	x15,0(x1)
    2314:	00408093          	addi	x1,x1,4

00002318 <I_sltiu_cg_cr_rs1_imm_edges_rs1val_0xfffffffe_immval_0x100>:
I_sltiu_cg_cr_rs1_imm_edges_rs1val_0xfffffffe_immval_0x100:
  sltiu x19, x15, 256 # perform operation
    2318:	1007b993          	sltiu	x19,x15,256
  # Check if x19 contains the expected result. x12 is the signature ptr, x8 is the link ptr, x7 is a temp reg.
  RVTEST_SIGUPD(x12, x8, x7, x19, I_sltiu_cg_cr_rs1_imm_edges_rs1val_0xfffffffe_immval_0x100, I_sltiu_cg_cr_rs1_imm_edges_rs1val_0xfffffffe_immval_0x100_str)
    231c:	00062383          	lw	x7,0(x12)
    2320:	01338863          	beq	x7,x19,2330 <I_sltiu_cg_cr_rs1_imm_edges_rs1val_0xfffffffe_immval_0x100+0x18>
    2324:	1900146f          	jal	x8,34b4 <failedtest_x8_x7>
    2328:	00002318          	.word	0x00002318
    232c:	0000cdcb          	.word	0x0000cdcb
    2330:	00460613          	addi	x12,x12,4

# Testcase cr_rs1_imm_edges (rs1 = 0xfffffffe, imm = 512)
  RVTEST_TESTDATA_LOAD_INT(x1, x25) # load rs1: x25 = 0xfffffffe
    2334:	0000ac83          	lw	x25,0(x1)
    2338:	00408093          	addi	x1,x1,4

0000233c <I_sltiu_cg_cr_rs1_imm_edges_rs1val_0xfffffffe_immval_0x200>:
I_sltiu_cg_cr_rs1_imm_edges_rs1val_0xfffffffe_immval_0x200:
  sltiu x18, x25, 512 # perform operation
    233c:	200cb913          	sltiu	x18,x25,512
  # Check if x18 contains the expected result. x12 is the signature ptr, x8 is the link ptr, x7 is a temp reg.
  RVTEST_SIGUPD(x12, x8, x7, x18, I_sltiu_cg_cr_rs1_imm_edges_rs1val_0xfffffffe_immval_0x200, I_sltiu_cg_cr_rs1_imm_edges_rs1val_0xfffffffe_immval_0x200_str)
    2340:	00062383          	lw	x7,0(x12)
    2344:	01238863          	beq	x7,x18,2354 <I_sltiu_cg_cr_rs1_imm_edges_rs1val_0xfffffffe_immval_0x200+0x18>
    2348:	16c0146f          	jal	x8,34b4 <failedtest_x8_x7>
    234c:	0000233c          	.word	0x0000233c
    2350:	0000ce23          	.word	0x0000ce23
    2354:	00460613          	addi	x12,x12,4

# Testcase cr_rs1_imm_edges (rs1 = 0xfffffffe, imm = 1023)
  RVTEST_TESTDATA_LOAD_INT(x1, x15) # load rs1: x15 = 0xfffffffe
    2358:	0000a783          	lw	x15,0(x1)
    235c:	00408093          	addi	x1,x1,4

00002360 <I_sltiu_cg_cr_rs1_imm_edges_rs1val_0xfffffffe_immval_0x3ff>:
I_sltiu_cg_cr_rs1_imm_edges_rs1val_0xfffffffe_immval_0x3ff:
  sltiu x27, x15, 1023 # perform operation
    2360:	3ff7bd93          	sltiu	x27,x15,1023
  # Check if x27 contains the expected result. x12 is the signature ptr, x8 is the link ptr, x7 is a temp reg.
  RVTEST_SIGUPD(x12, x8, x7, x27, I_sltiu_cg_cr_rs1_imm_edges_rs1val_0xfffffffe_immval_0x3ff, I_sltiu_cg_cr_rs1_imm_edges_rs1val_0xfffffffe_immval_0x3ff_str)
    2364:	00062383          	lw	x7,0(x12)
    2368:	01b38863          	beq	x7,x27,2378 <I_sltiu_cg_cr_rs1_imm_edges_rs1val_0xfffffffe_immval_0x3ff+0x18>
    236c:	1480146f          	jal	x8,34b4 <failedtest_x8_x7>
    2370:	00002360          	.word	0x00002360
    2374:	0000ce7b          	.word	0x0000ce7b
    2378:	00460613          	addi	x12,x12,4

# Testcase cr_rs1_imm_edges (rs1 = 0xfffffffe, imm = 1024)
  RVTEST_TESTDATA_LOAD_INT(x1, x11) # load rs1: x11 = 0xfffffffe
    237c:	0000a583          	lw	x11,0(x1)
    2380:	00408093          	addi	x1,x1,4

00002384 <I_sltiu_cg_cr_rs1_imm_edges_rs1val_0xfffffffe_immval_0x400>:
I_sltiu_cg_cr_rs1_imm_edges_rs1val_0xfffffffe_immval_0x400:
  sltiu x17, x11, 1024 # perform operation
    2384:	4005b893          	sltiu	x17,x11,1024
  # Check if x17 contains the expected result. x12 is the signature ptr, x8 is the link ptr, x7 is a temp reg.
  RVTEST_SIGUPD(x12, x8, x7, x17, I_sltiu_cg_cr_rs1_imm_edges_rs1val_0xfffffffe_immval_0x400, I_sltiu_cg_cr_rs1_imm_edges_rs1val_0xfffffffe_immval_0x400_str)
    2388:	00062383          	lw	x7,0(x12)
    238c:	01138863          	beq	x7,x17,239c <I_sltiu_cg_cr_rs1_imm_edges_rs1val_0xfffffffe_immval_0x400+0x18>
    2390:	1240146f          	jal	x8,34b4 <failedtest_x8_x7>
    2394:	00002384          	.word	0x00002384
    2398:	0000ced3          	.word	0x0000ced3
    239c:	00460613          	addi	x12,x12,4

# Testcase cr_rs1_imm_edges (rs1 = 0xfffffffe, imm = 1795)
  RVTEST_TESTDATA_LOAD_INT(x1, x26) # load rs1: x26 = 0xfffffffe
    23a0:	0000ad03          	lw	x26,0(x1)
    23a4:	00408093          	addi	x1,x1,4

000023a8 <I_sltiu_cg_cr_rs1_imm_edges_rs1val_0xfffffffe_immval_0x703>:
I_sltiu_cg_cr_rs1_imm_edges_rs1val_0xfffffffe_immval_0x703:
  sltiu x11, x26, 1795 # perform operation
    23a8:	703d3593          	sltiu	x11,x26,1795
  # Check if x11 contains the expected result. x12 is the signature ptr, x8 is the link ptr, x7 is a temp reg.
  RVTEST_SIGUPD(x12, x8, x7, x11, I_sltiu_cg_cr_rs1_imm_edges_rs1val_0xfffffffe_immval_0x703, I_sltiu_cg_cr_rs1_imm_edges_rs1val_0xfffffffe_immval_0x703_str)
    23ac:	00062383          	lw	x7,0(x12)
    23b0:	00b38863          	beq	x7,x11,23c0 <I_sltiu_cg_cr_rs1_imm_edges_rs1val_0xfffffffe_immval_0x703+0x18>
    23b4:	1000146f          	jal	x8,34b4 <failedtest_x8_x7>
    23b8:	000023a8          	.word	0x000023a8
    23bc:	0000cf2b          	.word	0x0000cf2b
    23c0:	00460613          	addi	x12,x12,4

# Testcase cr_rs1_imm_edges (rs1 = 0xfffffffe, imm = 2047)
  RVTEST_TESTDATA_LOAD_INT(x1, x14) # load rs1: x14 = 0xfffffffe
    23c4:	0000a703          	lw	x14,0(x1)
    23c8:	00408093          	addi	x1,x1,4

000023cc <I_sltiu_cg_cr_rs1_imm_edges_rs1val_0xfffffffe_immval_0x7ff>:
I_sltiu_cg_cr_rs1_imm_edges_rs1val_0xfffffffe_immval_0x7ff:
  sltiu x6, x14, 2047 # perform operation
    23cc:	7ff73313          	sltiu	x6,x14,2047
  # Check if x6 contains the expected result. x12 is the signature ptr, x8 is the link ptr, x7 is a temp reg.
  RVTEST_SIGUPD(x12, x8, x7, x6, I_sltiu_cg_cr_rs1_imm_edges_rs1val_0xfffffffe_immval_0x7ff, I_sltiu_cg_cr_rs1_imm_edges_rs1val_0xfffffffe_immval_0x7ff_str)
    23d0:	00062383          	lw	x7,0(x12)
    23d4:	00638863          	beq	x7,x6,23e4 <I_sltiu_cg_cr_rs1_imm_edges_rs1val_0xfffffffe_immval_0x7ff+0x18>
    23d8:	0dc0146f          	jal	x8,34b4 <failedtest_x8_x7>
    23dc:	000023cc          	.word	0x000023cc
    23e0:	0000cf83          	.word	0x0000cf83
    23e4:	00460613          	addi	x12,x12,4

# Testcase cr_rs1_imm_edges (rs1 = 0xfffffffe, imm = -2048)
  RVTEST_TESTDATA_LOAD_INT(x1, x20) # load rs1: x20 = 0xfffffffe
    23e8:	0000aa03          	lw	x20,0(x1)
    23ec:	00408093          	addi	x1,x1,4

000023f0 <I_sltiu_cg_cr_rs1_imm_edges_rs1val_0xfffffffe_immval_m0x800>:
I_sltiu_cg_cr_rs1_imm_edges_rs1val_0xfffffffe_immval_m0x800:
  sltiu x29, x20, -2048 # perform operation
    23f0:	800a3e93          	sltiu	x29,x20,-2048
  # Check if x29 contains the expected result. x12 is the signature ptr, x8 is the link ptr, x7 is a temp reg.
  RVTEST_SIGUPD(x12, x8, x7, x29, I_sltiu_cg_cr_rs1_imm_edges_rs1val_0xfffffffe_immval_m0x800, I_sltiu_cg_cr_rs1_imm_edges_rs1val_0xfffffffe_immval_m0x800_str)
    23f4:	00062383          	lw	x7,0(x12)
    23f8:	01d38863          	beq	x7,x29,2408 <I_sltiu_cg_cr_rs1_imm_edges_rs1val_0xfffffffe_immval_m0x800+0x18>
    23fc:	0b80146f          	jal	x8,34b4 <failedtest_x8_x7>
    2400:	000023f0          	.word	0x000023f0
    2404:	0000cfdb          	.word	0x0000cfdb
    2408:	00460613          	addi	x12,x12,4

# Testcase cr_rs1_imm_edges (rs1 = 0xfffffffe, imm = -2047)
  RVTEST_TESTDATA_LOAD_INT(x1, x31) # load rs1: x31 = 0xfffffffe
    240c:	0000af83          	lw	x31,0(x1)
    2410:	00408093          	addi	x1,x1,4

00002414 <I_sltiu_cg_cr_rs1_imm_edges_rs1val_0xfffffffe_immval_m0x7ff>:
I_sltiu_cg_cr_rs1_imm_edges_rs1val_0xfffffffe_immval_m0x7ff:
  sltiu x5, x31, -2047 # perform operation
    2414:	801fb293          	sltiu	x5,x31,-2047
  # Check if x5 contains the expected result. x12 is the signature ptr, x8 is the link ptr, x7 is a temp reg.
  RVTEST_SIGUPD(x12, x8, x7, x5, I_sltiu_cg_cr_rs1_imm_edges_rs1val_0xfffffffe_immval_m0x7ff, I_sltiu_cg_cr_rs1_imm_edges_rs1val_0xfffffffe_immval_m0x7ff_str)
    2418:	00062383          	lw	x7,0(x12)
    241c:	00538863          	beq	x7,x5,242c <I_sltiu_cg_cr_rs1_imm_edges_rs1val_0xfffffffe_immval_m0x7ff+0x18>
    2420:	0940146f          	jal	x8,34b4 <failedtest_x8_x7>
    2424:	00002414          	.word	0x00002414
    2428:	0000d034          	.word	0x0000d034
    242c:	00460613          	addi	x12,x12,4

# Testcase cr_rs1_imm_edges (rs1 = 0xfffffffe, imm = -2)
  RVTEST_TESTDATA_LOAD_INT(x1, x2) # load rs1: x2 = 0xfffffffe
    2430:	0000a103          	lw	x2,0(x1)
    2434:	00408093          	addi	x1,x1,4

00002438 <I_sltiu_cg_cr_rs1_imm_edges_rs1val_0xfffffffe_immval_m0x2>:
I_sltiu_cg_cr_rs1_imm_edges_rs1val_0xfffffffe_immval_m0x2:
  sltiu x26, x2, -2 # perform operation
    2438:	ffe13d13          	sltiu	x26,x2,-2
  # Check if x26 contains the expected result. x12 is the signature ptr, x8 is the link ptr, x7 is a temp reg.
  RVTEST_SIGUPD(x12, x8, x7, x26, I_sltiu_cg_cr_rs1_imm_edges_rs1val_0xfffffffe_immval_m0x2, I_sltiu_cg_cr_rs1_imm_edges_rs1val_0xfffffffe_immval_m0x2_str)
    243c:	00062383          	lw	x7,0(x12)
    2440:	01a38863          	beq	x7,x26,2450 <I_sltiu_cg_cr_rs1_imm_edges_rs1val_0xfffffffe_immval_m0x2+0x18>
    2444:	0700146f          	jal	x8,34b4 <failedtest_x8_x7>
    2448:	00002438          	.word	0x00002438
    244c:	0000d08d          	.word	0x0000d08d
    2450:	00460613          	addi	x12,x12,4

# Testcase cr_rs1_imm_edges (rs1 = 0xfffffffe, imm = -1)
  RVTEST_TESTDATA_LOAD_INT(x1, x6) # load rs1: x6 = 0xfffffffe
    2454:	0000a303          	lw	x6,0(x1)
    2458:	00408093          	addi	x1,x1,4

0000245c <I_sltiu_cg_cr_rs1_imm_edges_rs1val_0xfffffffe_immval_m0x1>:
I_sltiu_cg_cr_rs1_imm_edges_rs1val_0xfffffffe_immval_m0x1:
  sltiu x5, x6, -1 # perform operation
    245c:	fff33293          	sltiu	x5,x6,-1
  # Check if x5 contains the expected result. x12 is the signature ptr, x8 is the link ptr, x7 is a temp reg.
  RVTEST_SIGUPD(x12, x8, x7, x5, I_sltiu_cg_cr_rs1_imm_edges_rs1val_0xfffffffe_immval_m0x1, I_sltiu_cg_cr_rs1_imm_edges_rs1val_0xfffffffe_immval_m0x1_str)
    2460:	00062383          	lw	x7,0(x12)
    2464:	00538863          	beq	x7,x5,2474 <I_sltiu_cg_cr_rs1_imm_edges_rs1val_0xfffffffe_immval_m0x1+0x18>
    2468:	04c0146f          	jal	x8,34b4 <failedtest_x8_x7>
    246c:	0000245c          	.word	0x0000245c
    2470:	0000d0e4          	.word	0x0000d0e4
    2474:	00460613          	addi	x12,x12,4

# Testcase cr_rs1_imm_edges (rs1 = 0x5bbc8872, imm = 0)
  RVTEST_TESTDATA_LOAD_INT(x1, x11) # load rs1: x11 = 0x5bbc8872
    2478:	0000a583          	lw	x11,0(x1)
    247c:	00408093          	addi	x1,x1,4

00002480 <I_sltiu_cg_cr_rs1_imm_edges_rs1val_0x5bbc8872_immval_0x0>:
I_sltiu_cg_cr_rs1_imm_edges_rs1val_0x5bbc8872_immval_0x0:
  sltiu x18, x11, 0 # perform operation
    2480:	0005b913          	sltiu	x18,x11,0
  # Check if x18 contains the expected result. x12 is the signature ptr, x8 is the link ptr, x7 is a temp reg.
  RVTEST_SIGUPD(x12, x8, x7, x18, I_sltiu_cg_cr_rs1_imm_edges_rs1val_0x5bbc8872_immval_0x0, I_sltiu_cg_cr_rs1_imm_edges_rs1val_0x5bbc8872_immval_0x0_str)
    2484:	00062383          	lw	x7,0(x12)
    2488:	01238863          	beq	x7,x18,2498 <I_sltiu_cg_cr_rs1_imm_edges_rs1val_0x5bbc8872_immval_0x0+0x18>
    248c:	0280146f          	jal	x8,34b4 <failedtest_x8_x7>
    2490:	00002480          	.word	0x00002480
    2494:	0000d13b          	.word	0x0000d13b
    2498:	00460613          	addi	x12,x12,4

# Testcase cr_rs1_imm_edges (rs1 = 0x5bbc8872, imm = 1)
  RVTEST_TESTDATA_LOAD_INT(x1, x27) # load rs1: x27 = 0x5bbc8872
    249c:	0000ad83          	lw	x27,0(x1)
    24a0:	00408093          	addi	x1,x1,4

000024a4 <I_sltiu_cg_cr_rs1_imm_edges_rs1val_0x5bbc8872_immval_0x1>:
I_sltiu_cg_cr_rs1_imm_edges_rs1val_0x5bbc8872_immval_0x1:
  sltiu x18, x27, 1 # perform operation
    24a4:	001db913          	sltiu	x18,x27,1
  # Check if x18 contains the expected result. x12 is the signature ptr, x8 is the link ptr, x7 is a temp reg.
  RVTEST_SIGUPD(x12, x8, x7, x18, I_sltiu_cg_cr_rs1_imm_edges_rs1val_0x5bbc8872_immval_0x1, I_sltiu_cg_cr_rs1_imm_edges_rs1val_0x5bbc8872_immval_0x1_str)
    24a8:	00062383          	lw	x7,0(x12)
    24ac:	01238863          	beq	x7,x18,24bc <I_sltiu_cg_cr_rs1_imm_edges_rs1val_0x5bbc8872_immval_0x1+0x18>
    24b0:	0040146f          	jal	x8,34b4 <failedtest_x8_x7>
    24b4:	000024a4          	.word	0x000024a4
    24b8:	0000d191          	.word	0x0000d191
    24bc:	00460613          	addi	x12,x12,4

# Testcase cr_rs1_imm_edges (rs1 = 0x5bbc8872, imm = 2)
  RVTEST_TESTDATA_LOAD_INT(x1, x9) # load rs1: x9 = 0x5bbc8872
    24c0:	0000a483          	lw	x9,0(x1)
    24c4:	00408093          	addi	x1,x1,4

000024c8 <I_sltiu_cg_cr_rs1_imm_edges_rs1val_0x5bbc8872_immval_0x2>:
I_sltiu_cg_cr_rs1_imm_edges_rs1val_0x5bbc8872_immval_0x2:
  sltiu x10, x9, 2 # perform operation
    24c8:	0024b513          	sltiu	x10,x9,2
  # Check if x10 contains the expected result. x12 is the signature ptr, x8 is the link ptr, x7 is a temp reg.
  RVTEST_SIGUPD(x12, x8, x7, x10, I_sltiu_cg_cr_rs1_imm_edges_rs1val_0x5bbc8872_immval_0x2, I_sltiu_cg_cr_rs1_imm_edges_rs1val_0x5bbc8872_immval_0x2_str)
    24cc:	00062383          	lw	x7,0(x12)
    24d0:	00a38863          	beq	x7,x10,24e0 <I_sltiu_cg_cr_rs1_imm_edges_rs1val_0x5bbc8872_immval_0x2+0x18>
    24d4:	7e10046f          	jal	x8,34b4 <failedtest_x8_x7>
    24d8:	000024c8          	.word	0x000024c8
    24dc:	0000d1e7          	.word	0x0000d1e7
    24e0:	00460613          	addi	x12,x12,4

# Testcase cr_rs1_imm_edges (rs1 = 0x5bbc8872, imm = 3)
  RVTEST_TESTDATA_LOAD_INT(x1, x9) # load rs1: x9 = 0x5bbc8872
    24e4:	0000a483          	lw	x9,0(x1)
    24e8:	00408093          	addi	x1,x1,4

000024ec <I_sltiu_cg_cr_rs1_imm_edges_rs1val_0x5bbc8872_immval_0x3>:
I_sltiu_cg_cr_rs1_imm_edges_rs1val_0x5bbc8872_immval_0x3:
  sltiu x4, x9, 3 # perform operation
    24ec:	0034b213          	sltiu	x4,x9,3
  # Check if x4 contains the expected result. x12 is the signature ptr, x8 is the link ptr, x7 is a temp reg.
  RVTEST_SIGUPD(x12, x8, x7, x4, I_sltiu_cg_cr_rs1_imm_edges_rs1val_0x5bbc8872_immval_0x3, I_sltiu_cg_cr_rs1_imm_edges_rs1val_0x5bbc8872_immval_0x3_str)
    24f0:	00062383          	lw	x7,0(x12)
    24f4:	00438863          	beq	x7,x4,2504 <I_sltiu_cg_cr_rs1_imm_edges_rs1val_0x5bbc8872_immval_0x3+0x18>
    24f8:	7bd0046f          	jal	x8,34b4 <failedtest_x8_x7>
    24fc:	000024ec          	.word	0x000024ec
    2500:	0000d23d          	.word	0x0000d23d
    2504:	00460613          	addi	x12,x12,4

# Testcase cr_rs1_imm_edges (rs1 = 0x5bbc8872, imm = 4)
  RVTEST_TESTDATA_LOAD_INT(x1, x4) # load rs1: x4 = 0x5bbc8872
    2508:	0000a203          	lw	x4,0(x1)
    250c:	00408093          	addi	x1,x1,4

00002510 <I_sltiu_cg_cr_rs1_imm_edges_rs1val_0x5bbc8872_immval_0x4>:
I_sltiu_cg_cr_rs1_imm_edges_rs1val_0x5bbc8872_immval_0x4:
  sltiu x29, x4, 4 # perform operation
    2510:	00423e93          	sltiu	x29,x4,4
  # Check if x29 contains the expected result. x12 is the signature ptr, x8 is the link ptr, x7 is a temp reg.
  RVTEST_SIGUPD(x12, x8, x7, x29, I_sltiu_cg_cr_rs1_imm_edges_rs1val_0x5bbc8872_immval_0x4, I_sltiu_cg_cr_rs1_imm_edges_rs1val_0x5bbc8872_immval_0x4_str)
    2514:	00062383          	lw	x7,0(x12)
    2518:	01d38863          	beq	x7,x29,2528 <I_sltiu_cg_cr_rs1_imm_edges_rs1val_0x5bbc8872_immval_0x4+0x18>
    251c:	7990046f          	jal	x8,34b4 <failedtest_x8_x7>
    2520:	00002510          	.word	0x00002510
    2524:	0000d293          	.word	0x0000d293
    2528:	00460613          	addi	x12,x12,4

# Testcase cr_rs1_imm_edges (rs1 = 0x5bbc8872, imm = 8)
  RVTEST_TESTDATA_LOAD_INT(x1, x11) # load rs1: x11 = 0x5bbc8872
    252c:	0000a583          	lw	x11,0(x1)
    2530:	00408093          	addi	x1,x1,4

00002534 <I_sltiu_cg_cr_rs1_imm_edges_rs1val_0x5bbc8872_immval_0x8>:
I_sltiu_cg_cr_rs1_imm_edges_rs1val_0x5bbc8872_immval_0x8:
  sltiu x31, x11, 8 # perform operation
    2534:	0085bf93          	sltiu	x31,x11,8
  # Check if x31 contains the expected result. x12 is the signature ptr, x8 is the link ptr, x7 is a temp reg.
  RVTEST_SIGUPD(x12, x8, x7, x31, I_sltiu_cg_cr_rs1_imm_edges_rs1val_0x5bbc8872_immval_0x8, I_sltiu_cg_cr_rs1_imm_edges_rs1val_0x5bbc8872_immval_0x8_str)
    2538:	00062383          	lw	x7,0(x12)
    253c:	01f38863          	beq	x7,x31,254c <I_sltiu_cg_cr_rs1_imm_edges_rs1val_0x5bbc8872_immval_0x8+0x18>
    2540:	7750046f          	jal	x8,34b4 <failedtest_x8_x7>
    2544:	00002534          	.word	0x00002534
    2548:	0000d2e9          	.word	0x0000d2e9
    254c:	00460613          	addi	x12,x12,4

# Testcase cr_rs1_imm_edges (rs1 = 0x5bbc8872, imm = 16)
  RVTEST_TESTDATA_LOAD_INT(x1, x23) # load rs1: x23 = 0x5bbc8872
    2550:	0000ab83          	lw	x23,0(x1)
    2554:	00408093          	addi	x1,x1,4

00002558 <I_sltiu_cg_cr_rs1_imm_edges_rs1val_0x5bbc8872_immval_0x10>:
I_sltiu_cg_cr_rs1_imm_edges_rs1val_0x5bbc8872_immval_0x10:
  sltiu x14, x23, 16 # perform operation
    2558:	010bb713          	sltiu	x14,x23,16
  # Check if x14 contains the expected result. x12 is the signature ptr, x8 is the link ptr, x7 is a temp reg.
  RVTEST_SIGUPD(x12, x8, x7, x14, I_sltiu_cg_cr_rs1_imm_edges_rs1val_0x5bbc8872_immval_0x10, I_sltiu_cg_cr_rs1_imm_edges_rs1val_0x5bbc8872_immval_0x10_str)
    255c:	00062383          	lw	x7,0(x12)
    2560:	00e38863          	beq	x7,x14,2570 <I_sltiu_cg_cr_rs1_imm_edges_rs1val_0x5bbc8872_immval_0x10+0x18>
    2564:	7510046f          	jal	x8,34b4 <failedtest_x8_x7>
    2568:	00002558          	.word	0x00002558
    256c:	0000d33f          	.word	0x0000d33f
    2570:	00460613          	addi	x12,x12,4

# Testcase cr_rs1_imm_edges (rs1 = 0x5bbc8872, imm = 32)
  RVTEST_TESTDATA_LOAD_INT(x1, x14) # load rs1: x14 = 0x5bbc8872
    2574:	0000a703          	lw	x14,0(x1)
    2578:	00408093          	addi	x1,x1,4

0000257c <I_sltiu_cg_cr_rs1_imm_edges_rs1val_0x5bbc8872_immval_0x20>:
I_sltiu_cg_cr_rs1_imm_edges_rs1val_0x5bbc8872_immval_0x20:
  sltiu x13, x14, 32 # perform operation
    257c:	02073693          	sltiu	x13,x14,32
  # Check if x13 contains the expected result. x12 is the signature ptr, x8 is the link ptr, x7 is a temp reg.
  RVTEST_SIGUPD(x12, x8, x7, x13, I_sltiu_cg_cr_rs1_imm_edges_rs1val_0x5bbc8872_immval_0x20, I_sltiu_cg_cr_rs1_imm_edges_rs1val_0x5bbc8872_immval_0x20_str)
    2580:	00062383          	lw	x7,0(x12)
    2584:	00d38863          	beq	x7,x13,2594 <I_sltiu_cg_cr_rs1_imm_edges_rs1val_0x5bbc8872_immval_0x20+0x18>
    2588:	72d0046f          	jal	x8,34b4 <failedtest_x8_x7>
    258c:	0000257c          	.word	0x0000257c
    2590:	0000d396          	.word	0x0000d396
    2594:	00460613          	addi	x12,x12,4

# Testcase cr_rs1_imm_edges (rs1 = 0x5bbc8872, imm = 64)
  RVTEST_TESTDATA_LOAD_INT(x1, x10) # load rs1: x10 = 0x5bbc8872
    2598:	0000a503          	lw	x10,0(x1)
    259c:	00408093          	addi	x1,x1,4

000025a0 <I_sltiu_cg_cr_rs1_imm_edges_rs1val_0x5bbc8872_immval_0x40>:
I_sltiu_cg_cr_rs1_imm_edges_rs1val_0x5bbc8872_immval_0x40:
  sltiu x15, x10, 64 # perform operation
    25a0:	04053793          	sltiu	x15,x10,64
  # Check if x15 contains the expected result. x12 is the signature ptr, x8 is the link ptr, x7 is a temp reg.
  RVTEST_SIGUPD(x12, x8, x7, x15, I_sltiu_cg_cr_rs1_imm_edges_rs1val_0x5bbc8872_immval_0x40, I_sltiu_cg_cr_rs1_imm_edges_rs1val_0x5bbc8872_immval_0x40_str)
    25a4:	00062383          	lw	x7,0(x12)
    25a8:	00f38863          	beq	x7,x15,25b8 <I_sltiu_cg_cr_rs1_imm_edges_rs1val_0x5bbc8872_immval_0x40+0x18>
    25ac:	7090046f          	jal	x8,34b4 <failedtest_x8_x7>
    25b0:	000025a0          	.word	0x000025a0
    25b4:	0000d3ed          	.word	0x0000d3ed
    25b8:	00460613          	addi	x12,x12,4

# Testcase cr_rs1_imm_edges (rs1 = 0x5bbc8872, imm = 128)
  RVTEST_TESTDATA_LOAD_INT(x1, x18) # load rs1: x18 = 0x5bbc8872
    25bc:	0000a903          	lw	x18,0(x1)
    25c0:	00408093          	addi	x1,x1,4

000025c4 <I_sltiu_cg_cr_rs1_imm_edges_rs1val_0x5bbc8872_immval_0x80>:
I_sltiu_cg_cr_rs1_imm_edges_rs1val_0x5bbc8872_immval_0x80:
  sltiu x13, x18, 128 # perform operation
    25c4:	08093693          	sltiu	x13,x18,128
  # Check if x13 contains the expected result. x12 is the signature ptr, x8 is the link ptr, x7 is a temp reg.
  RVTEST_SIGUPD(x12, x8, x7, x13, I_sltiu_cg_cr_rs1_imm_edges_rs1val_0x5bbc8872_immval_0x80, I_sltiu_cg_cr_rs1_imm_edges_rs1val_0x5bbc8872_immval_0x80_str)
    25c8:	00062383          	lw	x7,0(x12)
    25cc:	00d38863          	beq	x7,x13,25dc <I_sltiu_cg_cr_rs1_imm_edges_rs1val_0x5bbc8872_immval_0x80+0x18>
    25d0:	6e50046f          	jal	x8,34b4 <failedtest_x8_x7>
    25d4:	000025c4          	.word	0x000025c4
    25d8:	0000d444          	.word	0x0000d444
    25dc:	00460613          	addi	x12,x12,4

# Testcase cr_rs1_imm_edges (rs1 = 0x5bbc8872, imm = 256)
  RVTEST_TESTDATA_LOAD_INT(x1, x22) # load rs1: x22 = 0x5bbc8872
    25e0:	0000ab03          	lw	x22,0(x1)
    25e4:	00408093          	addi	x1,x1,4

000025e8 <I_sltiu_cg_cr_rs1_imm_edges_rs1val_0x5bbc8872_immval_0x100>:
I_sltiu_cg_cr_rs1_imm_edges_rs1val_0x5bbc8872_immval_0x100:
  sltiu x24, x22, 256 # perform operation
    25e8:	100b3c13          	sltiu	x24,x22,256
  # Check if x24 contains the expected result. x12 is the signature ptr, x8 is the link ptr, x7 is a temp reg.
  RVTEST_SIGUPD(x12, x8, x7, x24, I_sltiu_cg_cr_rs1_imm_edges_rs1val_0x5bbc8872_immval_0x100, I_sltiu_cg_cr_rs1_imm_edges_rs1val_0x5bbc8872_immval_0x100_str)
    25ec:	00062383          	lw	x7,0(x12)
    25f0:	01838863          	beq	x7,x24,2600 <I_sltiu_cg_cr_rs1_imm_edges_rs1val_0x5bbc8872_immval_0x100+0x18>
    25f4:	6c10046f          	jal	x8,34b4 <failedtest_x8_x7>
    25f8:	000025e8          	.word	0x000025e8
    25fc:	0000d49b          	.word	0x0000d49b
    2600:	00460613          	addi	x12,x12,4

# Testcase cr_rs1_imm_edges (rs1 = 0x5bbc8872, imm = 512)
  RVTEST_TESTDATA_LOAD_INT(x1, x16) # load rs1: x16 = 0x5bbc8872
    2604:	0000a803          	lw	x16,0(x1)
    2608:	00408093          	addi	x1,x1,4

0000260c <I_sltiu_cg_cr_rs1_imm_edges_rs1val_0x5bbc8872_immval_0x200>:
I_sltiu_cg_cr_rs1_imm_edges_rs1val_0x5bbc8872_immval_0x200:
  sltiu x19, x16, 512 # perform operation
    260c:	20083993          	sltiu	x19,x16,512
  # Check if x19 contains the expected result. x12 is the signature ptr, x8 is the link ptr, x7 is a temp reg.
  RVTEST_SIGUPD(x12, x8, x7, x19, I_sltiu_cg_cr_rs1_imm_edges_rs1val_0x5bbc8872_immval_0x200, I_sltiu_cg_cr_rs1_imm_edges_rs1val_0x5bbc8872_immval_0x200_str)
    2610:	00062383          	lw	x7,0(x12)
    2614:	01338863          	beq	x7,x19,2624 <I_sltiu_cg_cr_rs1_imm_edges_rs1val_0x5bbc8872_immval_0x200+0x18>
    2618:	69d0046f          	jal	x8,34b4 <failedtest_x8_x7>
    261c:	0000260c          	.word	0x0000260c
    2620:	0000d4f3          	.word	0x0000d4f3
    2624:	00460613          	addi	x12,x12,4

# Testcase cr_rs1_imm_edges (rs1 = 0x5bbc8872, imm = 1023)
  RVTEST_TESTDATA_LOAD_INT(x1, x18) # load rs1: x18 = 0x5bbc8872
    2628:	0000a903          	lw	x18,0(x1)
    262c:	00408093          	addi	x1,x1,4

00002630 <I_sltiu_cg_cr_rs1_imm_edges_rs1val_0x5bbc8872_immval_0x3ff>:
I_sltiu_cg_cr_rs1_imm_edges_rs1val_0x5bbc8872_immval_0x3ff:
  sltiu x20, x18, 1023 # perform operation
    2630:	3ff93a13          	sltiu	x20,x18,1023
  # Check if x20 contains the expected result. x12 is the signature ptr, x8 is the link ptr, x7 is a temp reg.
  RVTEST_SIGUPD(x12, x8, x7, x20, I_sltiu_cg_cr_rs1_imm_edges_rs1val_0x5bbc8872_immval_0x3ff, I_sltiu_cg_cr_rs1_imm_edges_rs1val_0x5bbc8872_immval_0x3ff_str)
    2634:	00062383          	lw	x7,0(x12)
    2638:	01438863          	beq	x7,x20,2648 <I_sltiu_cg_cr_rs1_imm_edges_rs1val_0x5bbc8872_immval_0x3ff+0x18>
    263c:	6790046f          	jal	x8,34b4 <failedtest_x8_x7>
    2640:	00002630          	.word	0x00002630
    2644:	0000d54b          	.word	0x0000d54b
    2648:	00460613          	addi	x12,x12,4

# Testcase cr_rs1_imm_edges (rs1 = 0x5bbc8872, imm = 1024)
  RVTEST_TESTDATA_LOAD_INT(x1, x16) # load rs1: x16 = 0x5bbc8872
    264c:	0000a803          	lw	x16,0(x1)
    2650:	00408093          	addi	x1,x1,4

00002654 <I_sltiu_cg_cr_rs1_imm_edges_rs1val_0x5bbc8872_immval_0x400>:
I_sltiu_cg_cr_rs1_imm_edges_rs1val_0x5bbc8872_immval_0x400:
  sltiu x20, x16, 1024 # perform operation
    2654:	40083a13          	sltiu	x20,x16,1024
  # Check if x20 contains the expected result. x12 is the signature ptr, x8 is the link ptr, x7 is a temp reg.
  RVTEST_SIGUPD(x12, x8, x7, x20, I_sltiu_cg_cr_rs1_imm_edges_rs1val_0x5bbc8872_immval_0x400, I_sltiu_cg_cr_rs1_imm_edges_rs1val_0x5bbc8872_immval_0x400_str)
    2658:	00062383          	lw	x7,0(x12)
    265c:	01438863          	beq	x7,x20,266c <I_sltiu_cg_cr_rs1_imm_edges_rs1val_0x5bbc8872_immval_0x400+0x18>
    2660:	6550046f          	jal	x8,34b4 <failedtest_x8_x7>
    2664:	00002654          	.word	0x00002654
    2668:	0000d5a3          	.word	0x0000d5a3
    266c:	00460613          	addi	x12,x12,4

# Testcase cr_rs1_imm_edges (rs1 = 0x5bbc8872, imm = 1795)
  RVTEST_TESTDATA_LOAD_INT(x1, x3) # load rs1: x3 = 0x5bbc8872
    2670:	0000a183          	lw	x3,0(x1)
    2674:	00408093          	addi	x1,x1,4

00002678 <I_sltiu_cg_cr_rs1_imm_edges_rs1val_0x5bbc8872_immval_0x703>:
I_sltiu_cg_cr_rs1_imm_edges_rs1val_0x5bbc8872_immval_0x703:
  sltiu x2, x3, 1795 # perform operation
    2678:	7031b113          	sltiu	x2,x3,1795
  # Check if x2 contains the expected result. x12 is the signature ptr, x8 is the link ptr, x7 is a temp reg.
  RVTEST_SIGUPD(x12, x8, x7, x2, I_sltiu_cg_cr_rs1_imm_edges_rs1val_0x5bbc8872_immval_0x703, I_sltiu_cg_cr_rs1_imm_edges_rs1val_0x5bbc8872_immval_0x703_str)
    267c:	00062383          	lw	x7,0(x12)
    2680:	00238863          	beq	x7,x2,2690 <I_sltiu_cg_cr_rs1_imm_edges_rs1val_0x5bbc8872_immval_0x703+0x18>
    2684:	6310046f          	jal	x8,34b4 <failedtest_x8_x7>
    2688:	00002678          	.word	0x00002678
    268c:	0000d5fb          	.word	0x0000d5fb
    2690:	00460613          	addi	x12,x12,4

# Testcase cr_rs1_imm_edges (rs1 = 0x5bbc8872, imm = 2047)
  RVTEST_TESTDATA_LOAD_INT(x1, x31) # load rs1: x31 = 0x5bbc8872
    2694:	0000af83          	lw	x31,0(x1)
    2698:	00408093          	addi	x1,x1,4

0000269c <I_sltiu_cg_cr_rs1_imm_edges_rs1val_0x5bbc8872_immval_0x7ff>:
I_sltiu_cg_cr_rs1_imm_edges_rs1val_0x5bbc8872_immval_0x7ff:
  sltiu x15, x31, 2047 # perform operation
    269c:	7fffb793          	sltiu	x15,x31,2047
  # Check if x15 contains the expected result. x12 is the signature ptr, x8 is the link ptr, x7 is a temp reg.
  RVTEST_SIGUPD(x12, x8, x7, x15, I_sltiu_cg_cr_rs1_imm_edges_rs1val_0x5bbc8872_immval_0x7ff, I_sltiu_cg_cr_rs1_imm_edges_rs1val_0x5bbc8872_immval_0x7ff_str)
    26a0:	00062383          	lw	x7,0(x12)
    26a4:	00f38863          	beq	x7,x15,26b4 <I_sltiu_cg_cr_rs1_imm_edges_rs1val_0x5bbc8872_immval_0x7ff+0x18>
    26a8:	60d0046f          	jal	x8,34b4 <failedtest_x8_x7>
    26ac:	0000269c          	.word	0x0000269c
    26b0:	0000d653          	.word	0x0000d653
    26b4:	00460613          	addi	x12,x12,4

# Testcase cr_rs1_imm_edges (rs1 = 0x5bbc8872, imm = -2048)
  RVTEST_TESTDATA_LOAD_INT(x1, x17) # load rs1: x17 = 0x5bbc8872
    26b8:	0000a883          	lw	x17,0(x1)
    26bc:	00408093          	addi	x1,x1,4

000026c0 <I_sltiu_cg_cr_rs1_imm_edges_rs1val_0x5bbc8872_immval_m0x800>:
I_sltiu_cg_cr_rs1_imm_edges_rs1val_0x5bbc8872_immval_m0x800:
  sltiu x13, x17, -2048 # perform operation
    26c0:	8008b693          	sltiu	x13,x17,-2048
  # Check if x13 contains the expected result. x12 is the signature ptr, x8 is the link ptr, x7 is a temp reg.
  RVTEST_SIGUPD(x12, x8, x7, x13, I_sltiu_cg_cr_rs1_imm_edges_rs1val_0x5bbc8872_immval_m0x800, I_sltiu_cg_cr_rs1_imm_edges_rs1val_0x5bbc8872_immval_m0x800_str)
    26c4:	00062383          	lw	x7,0(x12)
    26c8:	00d38863          	beq	x7,x13,26d8 <I_sltiu_cg_cr_rs1_imm_edges_rs1val_0x5bbc8872_immval_m0x800+0x18>
    26cc:	5e90046f          	jal	x8,34b4 <failedtest_x8_x7>
    26d0:	000026c0          	.word	0x000026c0
    26d4:	0000d6ab          	.word	0x0000d6ab
    26d8:	00460613          	addi	x12,x12,4

# Testcase cr_rs1_imm_edges (rs1 = 0x5bbc8872, imm = -2047)
  RVTEST_TESTDATA_LOAD_INT(x1, x28) # load rs1: x28 = 0x5bbc8872
    26dc:	0000ae03          	lw	x28,0(x1)
    26e0:	00408093          	addi	x1,x1,4

000026e4 <I_sltiu_cg_cr_rs1_imm_edges_rs1val_0x5bbc8872_immval_m0x7ff>:
I_sltiu_cg_cr_rs1_imm_edges_rs1val_0x5bbc8872_immval_m0x7ff:
  sltiu x22, x28, -2047 # perform operation
    26e4:	801e3b13          	sltiu	x22,x28,-2047
  # Check if x22 contains the expected result. x12 is the signature ptr, x8 is the link ptr, x7 is a temp reg.
  RVTEST_SIGUPD(x12, x8, x7, x22, I_sltiu_cg_cr_rs1_imm_edges_rs1val_0x5bbc8872_immval_m0x7ff, I_sltiu_cg_cr_rs1_imm_edges_rs1val_0x5bbc8872_immval_m0x7ff_str)
    26e8:	00062383          	lw	x7,0(x12)
    26ec:	01638863          	beq	x7,x22,26fc <I_sltiu_cg_cr_rs1_imm_edges_rs1val_0x5bbc8872_immval_m0x7ff+0x18>
    26f0:	5c50046f          	jal	x8,34b4 <failedtest_x8_x7>
    26f4:	000026e4          	.word	0x000026e4
    26f8:	0000d704          	.word	0x0000d704
    26fc:	00460613          	addi	x12,x12,4

# Testcase cr_rs1_imm_edges (rs1 = 0x5bbc8872, imm = -2)
  RVTEST_TESTDATA_LOAD_INT(x1, x5) # load rs1: x5 = 0x5bbc8872
    2700:	0000a283          	lw	x5,0(x1)
    2704:	00408093          	addi	x1,x1,4

00002708 <I_sltiu_cg_cr_rs1_imm_edges_rs1val_0x5bbc8872_immval_m0x2>:
I_sltiu_cg_cr_rs1_imm_edges_rs1val_0x5bbc8872_immval_m0x2:
  sltiu x14, x5, -2 # perform operation
    2708:	ffe2b713          	sltiu	x14,x5,-2
  # Check if x14 contains the expected result. x12 is the signature ptr, x8 is the link ptr, x7 is a temp reg.
  RVTEST_SIGUPD(x12, x8, x7, x14, I_sltiu_cg_cr_rs1_imm_edges_rs1val_0x5bbc8872_immval_m0x2, I_sltiu_cg_cr_rs1_imm_edges_rs1val_0x5bbc8872_immval_m0x2_str)
    270c:	00062383          	lw	x7,0(x12)
    2710:	00e38863          	beq	x7,x14,2720 <I_sltiu_cg_cr_rs1_imm_edges_rs1val_0x5bbc8872_immval_m0x2+0x18>
    2714:	5a10046f          	jal	x8,34b4 <failedtest_x8_x7>
    2718:	00002708          	.word	0x00002708
    271c:	0000d75d          	.word	0x0000d75d
    2720:	00460613          	addi	x12,x12,4

# Testcase cr_rs1_imm_edges (rs1 = 0x5bbc8872, imm = -1)
  RVTEST_TESTDATA_LOAD_INT(x1, x23) # load rs1: x23 = 0x5bbc8872
    2724:	0000ab83          	lw	x23,0(x1)
    2728:	00408093          	addi	x1,x1,4

0000272c <I_sltiu_cg_cr_rs1_imm_edges_rs1val_0x5bbc8872_immval_m0x1>:
I_sltiu_cg_cr_rs1_imm_edges_rs1val_0x5bbc8872_immval_m0x1:
  sltiu x15, x23, -1 # perform operation
    272c:	fffbb793          	sltiu	x15,x23,-1
  # Check if x15 contains the expected result. x12 is the signature ptr, x8 is the link ptr, x7 is a temp reg.
  RVTEST_SIGUPD(x12, x8, x7, x15, I_sltiu_cg_cr_rs1_imm_edges_rs1val_0x5bbc8872_immval_m0x1, I_sltiu_cg_cr_rs1_imm_edges_rs1val_0x5bbc8872_immval_m0x1_str)
    2730:	00062383          	lw	x7,0(x12)
    2734:	00f38863          	beq	x7,x15,2744 <I_sltiu_cg_cr_rs1_imm_edges_rs1val_0x5bbc8872_immval_m0x1+0x18>
    2738:	57d0046f          	jal	x8,34b4 <failedtest_x8_x7>
    273c:	0000272c          	.word	0x0000272c
    2740:	0000d7b4          	.word	0x0000d7b4
    2744:	00460613          	addi	x12,x12,4

# Testcase cr_rs1_imm_edges (rs1 = 0xaaaaaaaa, imm = 0)
  RVTEST_TESTDATA_LOAD_INT(x1, x28) # load rs1: x28 = 0xaaaaaaaa
    2748:	0000ae03          	lw	x28,0(x1)
    274c:	00408093          	addi	x1,x1,4

00002750 <I_sltiu_cg_cr_rs1_imm_edges_rs1val_0xaaaaaaaa_immval_0x0>:
I_sltiu_cg_cr_rs1_imm_edges_rs1val_0xaaaaaaaa_immval_0x0:
  sltiu x26, x28, 0 # perform operation
    2750:	000e3d13          	sltiu	x26,x28,0
  # Check if x26 contains the expected result. x12 is the signature ptr, x8 is the link ptr, x7 is a temp reg.
  RVTEST_SIGUPD(x12, x8, x7, x26, I_sltiu_cg_cr_rs1_imm_edges_rs1val_0xaaaaaaaa_immval_0x0, I_sltiu_cg_cr_rs1_imm_edges_rs1val_0xaaaaaaaa_immval_0x0_str)
    2754:	00062383          	lw	x7,0(x12)
    2758:	01a38863          	beq	x7,x26,2768 <I_sltiu_cg_cr_rs1_imm_edges_rs1val_0xaaaaaaaa_immval_0x0+0x18>
    275c:	5590046f          	jal	x8,34b4 <failedtest_x8_x7>
    2760:	00002750          	.word	0x00002750
    2764:	0000d80b          	.word	0x0000d80b
    2768:	00460613          	addi	x12,x12,4

# Testcase cr_rs1_imm_edges (rs1 = 0xaaaaaaaa, imm = 1)
  RVTEST_TESTDATA_LOAD_INT(x1, x11) # load rs1: x11 = 0xaaaaaaaa
    276c:	0000a583          	lw	x11,0(x1)
    2770:	00408093          	addi	x1,x1,4

00002774 <I_sltiu_cg_cr_rs1_imm_edges_rs1val_0xaaaaaaaa_immval_0x1>:
I_sltiu_cg_cr_rs1_imm_edges_rs1val_0xaaaaaaaa_immval_0x1:
  sltiu x4, x11, 1 # perform operation
    2774:	0015b213          	sltiu	x4,x11,1
  # Check if x4 contains the expected result. x12 is the signature ptr, x8 is the link ptr, x7 is a temp reg.
  RVTEST_SIGUPD(x12, x8, x7, x4, I_sltiu_cg_cr_rs1_imm_edges_rs1val_0xaaaaaaaa_immval_0x1, I_sltiu_cg_cr_rs1_imm_edges_rs1val_0xaaaaaaaa_immval_0x1_str)
    2778:	00062383          	lw	x7,0(x12)
    277c:	00438863          	beq	x7,x4,278c <I_sltiu_cg_cr_rs1_imm_edges_rs1val_0xaaaaaaaa_immval_0x1+0x18>
    2780:	5350046f          	jal	x8,34b4 <failedtest_x8_x7>
    2784:	00002774          	.word	0x00002774
    2788:	0000d861          	.word	0x0000d861
    278c:	00460613          	addi	x12,x12,4

# Testcase cr_rs1_imm_edges (rs1 = 0xaaaaaaaa, imm = 2)
  RVTEST_TESTDATA_LOAD_INT(x1, x9) # load rs1: x9 = 0xaaaaaaaa
    2790:	0000a483          	lw	x9,0(x1)
    2794:	00408093          	addi	x1,x1,4

00002798 <I_sltiu_cg_cr_rs1_imm_edges_rs1val_0xaaaaaaaa_immval_0x2>:
I_sltiu_cg_cr_rs1_imm_edges_rs1val_0xaaaaaaaa_immval_0x2:
  sltiu x19, x9, 2 # perform operation
    2798:	0024b993          	sltiu	x19,x9,2
  # Check if x19 contains the expected result. x12 is the signature ptr, x8 is the link ptr, x7 is a temp reg.
  RVTEST_SIGUPD(x12, x8, x7, x19, I_sltiu_cg_cr_rs1_imm_edges_rs1val_0xaaaaaaaa_immval_0x2, I_sltiu_cg_cr_rs1_imm_edges_rs1val_0xaaaaaaaa_immval_0x2_str)
    279c:	00062383          	lw	x7,0(x12)
    27a0:	01338863          	beq	x7,x19,27b0 <I_sltiu_cg_cr_rs1_imm_edges_rs1val_0xaaaaaaaa_immval_0x2+0x18>
    27a4:	5110046f          	jal	x8,34b4 <failedtest_x8_x7>
    27a8:	00002798          	.word	0x00002798
    27ac:	0000d8b7          	.word	0x0000d8b7
    27b0:	00460613          	addi	x12,x12,4

# Testcase cr_rs1_imm_edges (rs1 = 0xaaaaaaaa, imm = 3)
  RVTEST_TESTDATA_LOAD_INT(x1, x16) # load rs1: x16 = 0xaaaaaaaa
    27b4:	0000a803          	lw	x16,0(x1)
    27b8:	00408093          	addi	x1,x1,4

000027bc <I_sltiu_cg_cr_rs1_imm_edges_rs1val_0xaaaaaaaa_immval_0x3>:
I_sltiu_cg_cr_rs1_imm_edges_rs1val_0xaaaaaaaa_immval_0x3:
  sltiu x14, x16, 3 # perform operation
    27bc:	00383713          	sltiu	x14,x16,3
  # Check if x14 contains the expected result. x12 is the signature ptr, x8 is the link ptr, x7 is a temp reg.
  RVTEST_SIGUPD(x12, x8, x7, x14, I_sltiu_cg_cr_rs1_imm_edges_rs1val_0xaaaaaaaa_immval_0x3, I_sltiu_cg_cr_rs1_imm_edges_rs1val_0xaaaaaaaa_immval_0x3_str)
    27c0:	00062383          	lw	x7,0(x12)
    27c4:	00e38863          	beq	x7,x14,27d4 <I_sltiu_cg_cr_rs1_imm_edges_rs1val_0xaaaaaaaa_immval_0x3+0x18>
    27c8:	4ed0046f          	jal	x8,34b4 <failedtest_x8_x7>
    27cc:	000027bc          	.word	0x000027bc
    27d0:	0000d90d          	.word	0x0000d90d
    27d4:	00460613          	addi	x12,x12,4

# Testcase cr_rs1_imm_edges (rs1 = 0xaaaaaaaa, imm = 4)
  RVTEST_TESTDATA_LOAD_INT(x1, x23) # load rs1: x23 = 0xaaaaaaaa
    27d8:	0000ab83          	lw	x23,0(x1)
    27dc:	00408093          	addi	x1,x1,4

000027e0 <I_sltiu_cg_cr_rs1_imm_edges_rs1val_0xaaaaaaaa_immval_0x4>:
I_sltiu_cg_cr_rs1_imm_edges_rs1val_0xaaaaaaaa_immval_0x4:
  sltiu x19, x23, 4 # perform operation
    27e0:	004bb993          	sltiu	x19,x23,4
  # Check if x19 contains the expected result. x12 is the signature ptr, x8 is the link ptr, x7 is a temp reg.
  RVTEST_SIGUPD(x12, x8, x7, x19, I_sltiu_cg_cr_rs1_imm_edges_rs1val_0xaaaaaaaa_immval_0x4, I_sltiu_cg_cr_rs1_imm_edges_rs1val_0xaaaaaaaa_immval_0x4_str)
    27e4:	00062383          	lw	x7,0(x12)
    27e8:	01338863          	beq	x7,x19,27f8 <I_sltiu_cg_cr_rs1_imm_edges_rs1val_0xaaaaaaaa_immval_0x4+0x18>
    27ec:	4c90046f          	jal	x8,34b4 <failedtest_x8_x7>
    27f0:	000027e0          	.word	0x000027e0
    27f4:	0000d963          	.word	0x0000d963
    27f8:	00460613          	addi	x12,x12,4

# Testcase cr_rs1_imm_edges (rs1 = 0xaaaaaaaa, imm = 8)
  RVTEST_TESTDATA_LOAD_INT(x1, x16) # load rs1: x16 = 0xaaaaaaaa
    27fc:	0000a803          	lw	x16,0(x1)
    2800:	00408093          	addi	x1,x1,4

00002804 <I_sltiu_cg_cr_rs1_imm_edges_rs1val_0xaaaaaaaa_immval_0x8>:
I_sltiu_cg_cr_rs1_imm_edges_rs1val_0xaaaaaaaa_immval_0x8:
  sltiu x23, x16, 8 # perform operation
    2804:	00883b93          	sltiu	x23,x16,8
  # Check if x23 contains the expected result. x12 is the signature ptr, x8 is the link ptr, x7 is a temp reg.
  RVTEST_SIGUPD(x12, x8, x7, x23, I_sltiu_cg_cr_rs1_imm_edges_rs1val_0xaaaaaaaa_immval_0x8, I_sltiu_cg_cr_rs1_imm_edges_rs1val_0xaaaaaaaa_immval_0x8_str)
    2808:	00062383          	lw	x7,0(x12)
    280c:	01738863          	beq	x7,x23,281c <I_sltiu_cg_cr_rs1_imm_edges_rs1val_0xaaaaaaaa_immval_0x8+0x18>
    2810:	4a50046f          	jal	x8,34b4 <failedtest_x8_x7>
    2814:	00002804          	.word	0x00002804
    2818:	0000d9b9          	.word	0x0000d9b9
    281c:	00460613          	addi	x12,x12,4

# Testcase cr_rs1_imm_edges (rs1 = 0xaaaaaaaa, imm = 16)
  RVTEST_TESTDATA_LOAD_INT(x1, x22) # load rs1: x22 = 0xaaaaaaaa
    2820:	0000ab03          	lw	x22,0(x1)
    2824:	00408093          	addi	x1,x1,4

00002828 <I_sltiu_cg_cr_rs1_imm_edges_rs1val_0xaaaaaaaa_immval_0x10>:
I_sltiu_cg_cr_rs1_imm_edges_rs1val_0xaaaaaaaa_immval_0x10:
  sltiu x4, x22, 16 # perform operation
    2828:	010b3213          	sltiu	x4,x22,16
  # Check if x4 contains the expected result. x12 is the signature ptr, x8 is the link ptr, x7 is a temp reg.
  RVTEST_SIGUPD(x12, x8, x7, x4, I_sltiu_cg_cr_rs1_imm_edges_rs1val_0xaaaaaaaa_immval_0x10, I_sltiu_cg_cr_rs1_imm_edges_rs1val_0xaaaaaaaa_immval_0x10_str)
    282c:	00062383          	lw	x7,0(x12)
    2830:	00438863          	beq	x7,x4,2840 <I_sltiu_cg_cr_rs1_imm_edges_rs1val_0xaaaaaaaa_immval_0x10+0x18>
    2834:	4810046f          	jal	x8,34b4 <failedtest_x8_x7>
    2838:	00002828          	.word	0x00002828
    283c:	0000da0f          	.word	0x0000da0f
    2840:	00460613          	addi	x12,x12,4

# Testcase cr_rs1_imm_edges (rs1 = 0xaaaaaaaa, imm = 32)
  RVTEST_TESTDATA_LOAD_INT(x1, x2) # load rs1: x2 = 0xaaaaaaaa
    2844:	0000a103          	lw	x2,0(x1)
    2848:	00408093          	addi	x1,x1,4

0000284c <I_sltiu_cg_cr_rs1_imm_edges_rs1val_0xaaaaaaaa_immval_0x20>:
I_sltiu_cg_cr_rs1_imm_edges_rs1val_0xaaaaaaaa_immval_0x20:
  sltiu x6, x2, 32 # perform operation
    284c:	02013313          	sltiu	x6,x2,32
  # Check if x6 contains the expected result. x12 is the signature ptr, x8 is the link ptr, x7 is a temp reg.
  RVTEST_SIGUPD(x12, x8, x7, x6, I_sltiu_cg_cr_rs1_imm_edges_rs1val_0xaaaaaaaa_immval_0x20, I_sltiu_cg_cr_rs1_imm_edges_rs1val_0xaaaaaaaa_immval_0x20_str)
    2850:	00062383          	lw	x7,0(x12)
    2854:	00638863          	beq	x7,x6,2864 <I_sltiu_cg_cr_rs1_imm_edges_rs1val_0xaaaaaaaa_immval_0x20+0x18>
    2858:	45d0046f          	jal	x8,34b4 <failedtest_x8_x7>
    285c:	0000284c          	.word	0x0000284c
    2860:	0000da66          	.word	0x0000da66
    2864:	00460613          	addi	x12,x12,4

# Testcase cr_rs1_imm_edges (rs1 = 0xaaaaaaaa, imm = 64)
  RVTEST_TESTDATA_LOAD_INT(x1, x29) # load rs1: x29 = 0xaaaaaaaa
    2868:	0000ae83          	lw	x29,0(x1)
    286c:	00408093          	addi	x1,x1,4

00002870 <I_sltiu_cg_cr_rs1_imm_edges_rs1val_0xaaaaaaaa_immval_0x40>:
I_sltiu_cg_cr_rs1_imm_edges_rs1val_0xaaaaaaaa_immval_0x40:
  sltiu x22, x29, 64 # perform operation
    2870:	040ebb13          	sltiu	x22,x29,64
  # Check if x22 contains the expected result. x12 is the signature ptr, x8 is the link ptr, x7 is a temp reg.
  RVTEST_SIGUPD(x12, x8, x7, x22, I_sltiu_cg_cr_rs1_imm_edges_rs1val_0xaaaaaaaa_immval_0x40, I_sltiu_cg_cr_rs1_imm_edges_rs1val_0xaaaaaaaa_immval_0x40_str)
    2874:	00062383          	lw	x7,0(x12)
    2878:	01638863          	beq	x7,x22,2888 <I_sltiu_cg_cr_rs1_imm_edges_rs1val_0xaaaaaaaa_immval_0x40+0x18>
    287c:	4390046f          	jal	x8,34b4 <failedtest_x8_x7>
    2880:	00002870          	.word	0x00002870
    2884:	0000dabd          	.word	0x0000dabd
    2888:	00460613          	addi	x12,x12,4

# Testcase cr_rs1_imm_edges (rs1 = 0xaaaaaaaa, imm = 128)
  RVTEST_TESTDATA_LOAD_INT(x1, x10) # load rs1: x10 = 0xaaaaaaaa
    288c:	0000a503          	lw	x10,0(x1)
    2890:	00408093          	addi	x1,x1,4

00002894 <I_sltiu_cg_cr_rs1_imm_edges_rs1val_0xaaaaaaaa_immval_0x80>:
I_sltiu_cg_cr_rs1_imm_edges_rs1val_0xaaaaaaaa_immval_0x80:
  sltiu x9, x10, 128 # perform operation
    2894:	08053493          	sltiu	x9,x10,128
  # Check if x9 contains the expected result. x12 is the signature ptr, x8 is the link ptr, x7 is a temp reg.
  RVTEST_SIGUPD(x12, x8, x7, x9, I_sltiu_cg_cr_rs1_imm_edges_rs1val_0xaaaaaaaa_immval_0x80, I_sltiu_cg_cr_rs1_imm_edges_rs1val_0xaaaaaaaa_immval_0x80_str)
    2898:	00062383          	lw	x7,0(x12)
    289c:	00938863          	beq	x7,x9,28ac <I_sltiu_cg_cr_rs1_imm_edges_rs1val_0xaaaaaaaa_immval_0x80+0x18>
    28a0:	4150046f          	jal	x8,34b4 <failedtest_x8_x7>
    28a4:	00002894          	.word	0x00002894
    28a8:	0000db14          	.word	0x0000db14
    28ac:	00460613          	addi	x12,x12,4

# Testcase cr_rs1_imm_edges (rs1 = 0xaaaaaaaa, imm = 256)
  RVTEST_TESTDATA_LOAD_INT(x1, x19) # load rs1: x19 = 0xaaaaaaaa
    28b0:	0000a983          	lw	x19,0(x1)
    28b4:	00408093          	addi	x1,x1,4

000028b8 <I_sltiu_cg_cr_rs1_imm_edges_rs1val_0xaaaaaaaa_immval_0x100>:
I_sltiu_cg_cr_rs1_imm_edges_rs1val_0xaaaaaaaa_immval_0x100:
  sltiu x10, x19, 256 # perform operation
    28b8:	1009b513          	sltiu	x10,x19,256
  # Check if x10 contains the expected result. x12 is the signature ptr, x8 is the link ptr, x7 is a temp reg.
  RVTEST_SIGUPD(x12, x8, x7, x10, I_sltiu_cg_cr_rs1_imm_edges_rs1val_0xaaaaaaaa_immval_0x100, I_sltiu_cg_cr_rs1_imm_edges_rs1val_0xaaaaaaaa_immval_0x100_str)
    28bc:	00062383          	lw	x7,0(x12)
    28c0:	00a38863          	beq	x7,x10,28d0 <I_sltiu_cg_cr_rs1_imm_edges_rs1val_0xaaaaaaaa_immval_0x100+0x18>
    28c4:	3f10046f          	jal	x8,34b4 <failedtest_x8_x7>
    28c8:	000028b8          	.word	0x000028b8
    28cc:	0000db6b          	.word	0x0000db6b
    28d0:	00460613          	addi	x12,x12,4

# Testcase cr_rs1_imm_edges (rs1 = 0xaaaaaaaa, imm = 512)
  RVTEST_TESTDATA_LOAD_INT(x1, x29) # load rs1: x29 = 0xaaaaaaaa
    28d4:	0000ae83          	lw	x29,0(x1)
    28d8:	00408093          	addi	x1,x1,4

000028dc <I_sltiu_cg_cr_rs1_imm_edges_rs1val_0xaaaaaaaa_immval_0x200>:
I_sltiu_cg_cr_rs1_imm_edges_rs1val_0xaaaaaaaa_immval_0x200:
  sltiu x22, x29, 512 # perform operation
    28dc:	200ebb13          	sltiu	x22,x29,512
  # Check if x22 contains the expected result. x12 is the signature ptr, x8 is the link ptr, x7 is a temp reg.
  RVTEST_SIGUPD(x12, x8, x7, x22, I_sltiu_cg_cr_rs1_imm_edges_rs1val_0xaaaaaaaa_immval_0x200, I_sltiu_cg_cr_rs1_imm_edges_rs1val_0xaaaaaaaa_immval_0x200_str)
    28e0:	00062383          	lw	x7,0(x12)
    28e4:	01638863          	beq	x7,x22,28f4 <I_sltiu_cg_cr_rs1_imm_edges_rs1val_0xaaaaaaaa_immval_0x200+0x18>
    28e8:	3cd0046f          	jal	x8,34b4 <failedtest_x8_x7>
    28ec:	000028dc          	.word	0x000028dc
    28f0:	0000dbc3          	.word	0x0000dbc3
    28f4:	00460613          	addi	x12,x12,4

# Testcase cr_rs1_imm_edges (rs1 = 0xaaaaaaaa, imm = 1023)
  RVTEST_TESTDATA_LOAD_INT(x1, x9) # load rs1: x9 = 0xaaaaaaaa
    28f8:	0000a483          	lw	x9,0(x1)
    28fc:	00408093          	addi	x1,x1,4

00002900 <I_sltiu_cg_cr_rs1_imm_edges_rs1val_0xaaaaaaaa_immval_0x3ff>:
I_sltiu_cg_cr_rs1_imm_edges_rs1val_0xaaaaaaaa_immval_0x3ff:
  sltiu x13, x9, 1023 # perform operation
    2900:	3ff4b693          	sltiu	x13,x9,1023
  # Check if x13 contains the expected result. x12 is the signature ptr, x8 is the link ptr, x7 is a temp reg.
  RVTEST_SIGUPD(x12, x8, x7, x13, I_sltiu_cg_cr_rs1_imm_edges_rs1val_0xaaaaaaaa_immval_0x3ff, I_sltiu_cg_cr_rs1_imm_edges_rs1val_0xaaaaaaaa_immval_0x3ff_str)
    2904:	00062383          	lw	x7,0(x12)
    2908:	00d38863          	beq	x7,x13,2918 <I_sltiu_cg_cr_rs1_imm_edges_rs1val_0xaaaaaaaa_immval_0x3ff+0x18>
    290c:	3a90046f          	jal	x8,34b4 <failedtest_x8_x7>
    2910:	00002900          	.word	0x00002900
    2914:	0000dc1b          	.word	0x0000dc1b
    2918:	00460613          	addi	x12,x12,4

# Testcase cr_rs1_imm_edges (rs1 = 0xaaaaaaaa, imm = 1024)
  RVTEST_TESTDATA_LOAD_INT(x1, x26) # load rs1: x26 = 0xaaaaaaaa
    291c:	0000ad03          	lw	x26,0(x1)
    2920:	00408093          	addi	x1,x1,4

00002924 <I_sltiu_cg_cr_rs1_imm_edges_rs1val_0xaaaaaaaa_immval_0x400>:
I_sltiu_cg_cr_rs1_imm_edges_rs1val_0xaaaaaaaa_immval_0x400:
  sltiu x22, x26, 1024 # perform operation
    2924:	400d3b13          	sltiu	x22,x26,1024
  # Check if x22 contains the expected result. x12 is the signature ptr, x8 is the link ptr, x7 is a temp reg.
  RVTEST_SIGUPD(x12, x8, x7, x22, I_sltiu_cg_cr_rs1_imm_edges_rs1val_0xaaaaaaaa_immval_0x400, I_sltiu_cg_cr_rs1_imm_edges_rs1val_0xaaaaaaaa_immval_0x400_str)
    2928:	00062383          	lw	x7,0(x12)
    292c:	01638863          	beq	x7,x22,293c <I_sltiu_cg_cr_rs1_imm_edges_rs1val_0xaaaaaaaa_immval_0x400+0x18>
    2930:	3850046f          	jal	x8,34b4 <failedtest_x8_x7>
    2934:	00002924          	.word	0x00002924
    2938:	0000dc73          	.word	0x0000dc73
    293c:	00460613          	addi	x12,x12,4

# Testcase cr_rs1_imm_edges (rs1 = 0xaaaaaaaa, imm = 1795)
  RVTEST_TESTDATA_LOAD_INT(x1, x21) # load rs1: x21 = 0xaaaaaaaa
    2940:	0000aa83          	lw	x21,0(x1)
    2944:	00408093          	addi	x1,x1,4

00002948 <I_sltiu_cg_cr_rs1_imm_edges_rs1val_0xaaaaaaaa_immval_0x703>:
I_sltiu_cg_cr_rs1_imm_edges_rs1val_0xaaaaaaaa_immval_0x703:
  sltiu x17, x21, 1795 # perform operation
    2948:	703ab893          	sltiu	x17,x21,1795
  # Check if x17 contains the expected result. x12 is the signature ptr, x8 is the link ptr, x7 is a temp reg.
  RVTEST_SIGUPD(x12, x8, x7, x17, I_sltiu_cg_cr_rs1_imm_edges_rs1val_0xaaaaaaaa_immval_0x703, I_sltiu_cg_cr_rs1_imm_edges_rs1val_0xaaaaaaaa_immval_0x703_str)
    294c:	00062383          	lw	x7,0(x12)
    2950:	01138863          	beq	x7,x17,2960 <I_sltiu_cg_cr_rs1_imm_edges_rs1val_0xaaaaaaaa_immval_0x703+0x18>
    2954:	3610046f          	jal	x8,34b4 <failedtest_x8_x7>
    2958:	00002948          	.word	0x00002948
    295c:	0000dccb          	.word	0x0000dccb
    2960:	00460613          	addi	x12,x12,4

# Testcase cr_rs1_imm_edges (rs1 = 0xaaaaaaaa, imm = 2047)
  RVTEST_TESTDATA_LOAD_INT(x1, x24) # load rs1: x24 = 0xaaaaaaaa
    2964:	0000ac03          	lw	x24,0(x1)
    2968:	00408093          	addi	x1,x1,4

0000296c <I_sltiu_cg_cr_rs1_imm_edges_rs1val_0xaaaaaaaa_immval_0x7ff>:
I_sltiu_cg_cr_rs1_imm_edges_rs1val_0xaaaaaaaa_immval_0x7ff:
  sltiu x3, x24, 2047 # perform operation
    296c:	7ffc3193          	sltiu	x3,x24,2047
  # Check if x3 contains the expected result. x12 is the signature ptr, x8 is the link ptr, x7 is a temp reg.
  RVTEST_SIGUPD(x12, x8, x7, x3, I_sltiu_cg_cr_rs1_imm_edges_rs1val_0xaaaaaaaa_immval_0x7ff, I_sltiu_cg_cr_rs1_imm_edges_rs1val_0xaaaaaaaa_immval_0x7ff_str)
    2970:	00062383          	lw	x7,0(x12)
    2974:	00338863          	beq	x7,x3,2984 <I_sltiu_cg_cr_rs1_imm_edges_rs1val_0xaaaaaaaa_immval_0x7ff+0x18>
    2978:	33d0046f          	jal	x8,34b4 <failedtest_x8_x7>
    297c:	0000296c          	.word	0x0000296c
    2980:	0000dd23          	.word	0x0000dd23
    2984:	00460613          	addi	x12,x12,4

# Testcase cr_rs1_imm_edges (rs1 = 0xaaaaaaaa, imm = -2048)
  RVTEST_TESTDATA_LOAD_INT(x1, x24) # load rs1: x24 = 0xaaaaaaaa
    2988:	0000ac03          	lw	x24,0(x1)
    298c:	00408093          	addi	x1,x1,4

00002990 <I_sltiu_cg_cr_rs1_imm_edges_rs1val_0xaaaaaaaa_immval_m0x800>:
I_sltiu_cg_cr_rs1_imm_edges_rs1val_0xaaaaaaaa_immval_m0x800:
  sltiu x5, x24, -2048 # perform operation
    2990:	800c3293          	sltiu	x5,x24,-2048
  # Check if x5 contains the expected result. x12 is the signature ptr, x8 is the link ptr, x7 is a temp reg.
  RVTEST_SIGUPD(x12, x8, x7, x5, I_sltiu_cg_cr_rs1_imm_edges_rs1val_0xaaaaaaaa_immval_m0x800, I_sltiu_cg_cr_rs1_imm_edges_rs1val_0xaaaaaaaa_immval_m0x800_str)
    2994:	00062383          	lw	x7,0(x12)
    2998:	00538863          	beq	x7,x5,29a8 <I_sltiu_cg_cr_rs1_imm_edges_rs1val_0xaaaaaaaa_immval_m0x800+0x18>
    299c:	3190046f          	jal	x8,34b4 <failedtest_x8_x7>
    29a0:	00002990          	.word	0x00002990
    29a4:	0000dd7b          	.word	0x0000dd7b
    29a8:	00460613          	addi	x12,x12,4

# Testcase cr_rs1_imm_edges (rs1 = 0xaaaaaaaa, imm = -2047)
  RVTEST_TESTDATA_LOAD_INT(x1, x3) # load rs1: x3 = 0xaaaaaaaa
    29ac:	0000a183          	lw	x3,0(x1)
    29b0:	00408093          	addi	x1,x1,4

000029b4 <I_sltiu_cg_cr_rs1_imm_edges_rs1val_0xaaaaaaaa_immval_m0x7ff>:
I_sltiu_cg_cr_rs1_imm_edges_rs1val_0xaaaaaaaa_immval_m0x7ff:
  sltiu x9, x3, -2047 # perform operation
    29b4:	8011b493          	sltiu	x9,x3,-2047
  # Check if x9 contains the expected result. x12 is the signature ptr, x8 is the link ptr, x7 is a temp reg.
  RVTEST_SIGUPD(x12, x8, x7, x9, I_sltiu_cg_cr_rs1_imm_edges_rs1val_0xaaaaaaaa_immval_m0x7ff, I_sltiu_cg_cr_rs1_imm_edges_rs1val_0xaaaaaaaa_immval_m0x7ff_str)
    29b8:	00062383          	lw	x7,0(x12)
    29bc:	00938863          	beq	x7,x9,29cc <I_sltiu_cg_cr_rs1_imm_edges_rs1val_0xaaaaaaaa_immval_m0x7ff+0x18>
    29c0:	2f50046f          	jal	x8,34b4 <failedtest_x8_x7>
    29c4:	000029b4          	.word	0x000029b4
    29c8:	0000ddd4          	.word	0x0000ddd4
    29cc:	00460613          	addi	x12,x12,4

# Testcase cr_rs1_imm_edges (rs1 = 0xaaaaaaaa, imm = -2)
  RVTEST_TESTDATA_LOAD_INT(x1, x23) # load rs1: x23 = 0xaaaaaaaa
    29d0:	0000ab83          	lw	x23,0(x1)
    29d4:	00408093          	addi	x1,x1,4

000029d8 <I_sltiu_cg_cr_rs1_imm_edges_rs1val_0xaaaaaaaa_immval_m0x2>:
I_sltiu_cg_cr_rs1_imm_edges_rs1val_0xaaaaaaaa_immval_m0x2:
  sltiu x24, x23, -2 # perform operation
    29d8:	ffebbc13          	sltiu	x24,x23,-2
  # Check if x24 contains the expected result. x12 is the signature ptr, x8 is the link ptr, x7 is a temp reg.
  RVTEST_SIGUPD(x12, x8, x7, x24, I_sltiu_cg_cr_rs1_imm_edges_rs1val_0xaaaaaaaa_immval_m0x2, I_sltiu_cg_cr_rs1_imm_edges_rs1val_0xaaaaaaaa_immval_m0x2_str)
    29dc:	00062383          	lw	x7,0(x12)
    29e0:	01838863          	beq	x7,x24,29f0 <I_sltiu_cg_cr_rs1_imm_edges_rs1val_0xaaaaaaaa_immval_m0x2+0x18>
    29e4:	2d10046f          	jal	x8,34b4 <failedtest_x8_x7>
    29e8:	000029d8          	.word	0x000029d8
    29ec:	0000de2d          	.word	0x0000de2d
    29f0:	00460613          	addi	x12,x12,4

# Testcase cr_rs1_imm_edges (rs1 = 0xaaaaaaaa, imm = -1)
  RVTEST_TESTDATA_LOAD_INT(x1, x17) # load rs1: x17 = 0xaaaaaaaa
    29f4:	0000a883          	lw	x17,0(x1)
    29f8:	00408093          	addi	x1,x1,4

000029fc <I_sltiu_cg_cr_rs1_imm_edges_rs1val_0xaaaaaaaa_immval_m0x1>:
I_sltiu_cg_cr_rs1_imm_edges_rs1val_0xaaaaaaaa_immval_m0x1:
  sltiu x23, x17, -1 # perform operation
    29fc:	fff8bb93          	sltiu	x23,x17,-1
  # Check if x23 contains the expected result. x12 is the signature ptr, x8 is the link ptr, x7 is a temp reg.
  RVTEST_SIGUPD(x12, x8, x7, x23, I_sltiu_cg_cr_rs1_imm_edges_rs1val_0xaaaaaaaa_immval_m0x1, I_sltiu_cg_cr_rs1_imm_edges_rs1val_0xaaaaaaaa_immval_m0x1_str)
    2a00:	00062383          	lw	x7,0(x12)
    2a04:	01738863          	beq	x7,x23,2a14 <I_sltiu_cg_cr_rs1_imm_edges_rs1val_0xaaaaaaaa_immval_m0x1+0x18>
    2a08:	2ad0046f          	jal	x8,34b4 <failedtest_x8_x7>
    2a0c:	000029fc          	.word	0x000029fc
    2a10:	0000de84          	.word	0x0000de84
    2a14:	00460613          	addi	x12,x12,4

# Testcase cr_rs1_imm_edges (rs1 = 0x55555555, imm = 0)
  RVTEST_TESTDATA_LOAD_INT(x1, x2) # load rs1: x2 = 0x55555555
    2a18:	0000a103          	lw	x2,0(x1)
    2a1c:	00408093          	addi	x1,x1,4

00002a20 <I_sltiu_cg_cr_rs1_imm_edges_rs1val_0x55555555_immval_0x0>:
I_sltiu_cg_cr_rs1_imm_edges_rs1val_0x55555555_immval_0x0:
  sltiu x21, x2, 0 # perform operation
    2a20:	00013a93          	sltiu	x21,x2,0
  # Check if x21 contains the expected result. x12 is the signature ptr, x8 is the link ptr, x7 is a temp reg.
  RVTEST_SIGUPD(x12, x8, x7, x21, I_sltiu_cg_cr_rs1_imm_edges_rs1val_0x55555555_immval_0x0, I_sltiu_cg_cr_rs1_imm_edges_rs1val_0x55555555_immval_0x0_str)
    2a24:	00062383          	lw	x7,0(x12)
    2a28:	01538863          	beq	x7,x21,2a38 <I_sltiu_cg_cr_rs1_imm_edges_rs1val_0x55555555_immval_0x0+0x18>
    2a2c:	2890046f          	jal	x8,34b4 <failedtest_x8_x7>
    2a30:	00002a20          	.word	0x00002a20
    2a34:	0000dedb          	.word	0x0000dedb
    2a38:	00460613          	addi	x12,x12,4

# Testcase cr_rs1_imm_edges (rs1 = 0x55555555, imm = 1)
  RVTEST_TESTDATA_LOAD_INT(x1, x23) # load rs1: x23 = 0x55555555
    2a3c:	0000ab83          	lw	x23,0(x1)
    2a40:	00408093          	addi	x1,x1,4

00002a44 <I_sltiu_cg_cr_rs1_imm_edges_rs1val_0x55555555_immval_0x1>:
I_sltiu_cg_cr_rs1_imm_edges_rs1val_0x55555555_immval_0x1:
  sltiu x28, x23, 1 # perform operation
    2a44:	001bbe13          	sltiu	x28,x23,1
  # Check if x28 contains the expected result. x12 is the signature ptr, x8 is the link ptr, x7 is a temp reg.
  RVTEST_SIGUPD(x12, x8, x7, x28, I_sltiu_cg_cr_rs1_imm_edges_rs1val_0x55555555_immval_0x1, I_sltiu_cg_cr_rs1_imm_edges_rs1val_0x55555555_immval_0x1_str)
    2a48:	00062383          	lw	x7,0(x12)
    2a4c:	01c38863          	beq	x7,x28,2a5c <I_sltiu_cg_cr_rs1_imm_edges_rs1val_0x55555555_immval_0x1+0x18>
    2a50:	2650046f          	jal	x8,34b4 <failedtest_x8_x7>
    2a54:	00002a44          	.word	0x00002a44
    2a58:	0000df31          	.word	0x0000df31
    2a5c:	00460613          	addi	x12,x12,4

# Testcase cr_rs1_imm_edges (rs1 = 0x55555555, imm = 2)
  RVTEST_TESTDATA_LOAD_INT(x1, x19) # load rs1: x19 = 0x55555555
    2a60:	0000a983          	lw	x19,0(x1)
    2a64:	00408093          	addi	x1,x1,4

00002a68 <I_sltiu_cg_cr_rs1_imm_edges_rs1val_0x55555555_immval_0x2>:
I_sltiu_cg_cr_rs1_imm_edges_rs1val_0x55555555_immval_0x2:
  sltiu x29, x19, 2 # perform operation
    2a68:	0029be93          	sltiu	x29,x19,2
  # Check if x29 contains the expected result. x12 is the signature ptr, x8 is the link ptr, x7 is a temp reg.
  RVTEST_SIGUPD(x12, x8, x7, x29, I_sltiu_cg_cr_rs1_imm_edges_rs1val_0x55555555_immval_0x2, I_sltiu_cg_cr_rs1_imm_edges_rs1val_0x55555555_immval_0x2_str)
    2a6c:	00062383          	lw	x7,0(x12)
    2a70:	01d38863          	beq	x7,x29,2a80 <I_sltiu_cg_cr_rs1_imm_edges_rs1val_0x55555555_immval_0x2+0x18>
    2a74:	2410046f          	jal	x8,34b4 <failedtest_x8_x7>
    2a78:	00002a68          	.word	0x00002a68
    2a7c:	0000df87          	.word	0x0000df87
    2a80:	00460613          	addi	x12,x12,4

# Testcase cr_rs1_imm_edges (rs1 = 0x55555555, imm = 3)
  RVTEST_TESTDATA_LOAD_INT(x1, x24) # load rs1: x24 = 0x55555555
    2a84:	0000ac03          	lw	x24,0(x1)
    2a88:	00408093          	addi	x1,x1,4

00002a8c <I_sltiu_cg_cr_rs1_imm_edges_rs1val_0x55555555_immval_0x3>:
I_sltiu_cg_cr_rs1_imm_edges_rs1val_0x55555555_immval_0x3:
  sltiu x14, x24, 3 # perform operation
    2a8c:	003c3713          	sltiu	x14,x24,3
  # Check if x14 contains the expected result. x12 is the signature ptr, x8 is the link ptr, x7 is a temp reg.
  RVTEST_SIGUPD(x12, x8, x7, x14, I_sltiu_cg_cr_rs1_imm_edges_rs1val_0x55555555_immval_0x3, I_sltiu_cg_cr_rs1_imm_edges_rs1val_0x55555555_immval_0x3_str)
    2a90:	00062383          	lw	x7,0(x12)
    2a94:	00e38863          	beq	x7,x14,2aa4 <I_sltiu_cg_cr_rs1_imm_edges_rs1val_0x55555555_immval_0x3+0x18>
    2a98:	21d0046f          	jal	x8,34b4 <failedtest_x8_x7>
    2a9c:	00002a8c          	.word	0x00002a8c
    2aa0:	0000dfdd          	.word	0x0000dfdd
    2aa4:	00460613          	addi	x12,x12,4

# Testcase cr_rs1_imm_edges (rs1 = 0x55555555, imm = 4)
  RVTEST_TESTDATA_LOAD_INT(x1, x19) # load rs1: x19 = 0x55555555
    2aa8:	0000a983          	lw	x19,0(x1)
    2aac:	00408093          	addi	x1,x1,4

00002ab0 <I_sltiu_cg_cr_rs1_imm_edges_rs1val_0x55555555_immval_0x4>:
I_sltiu_cg_cr_rs1_imm_edges_rs1val_0x55555555_immval_0x4:
  sltiu x10, x19, 4 # perform operation
    2ab0:	0049b513          	sltiu	x10,x19,4
  # Check if x10 contains the expected result. x12 is the signature ptr, x8 is the link ptr, x7 is a temp reg.
  RVTEST_SIGUPD(x12, x8, x7, x10, I_sltiu_cg_cr_rs1_imm_edges_rs1val_0x55555555_immval_0x4, I_sltiu_cg_cr_rs1_imm_edges_rs1val_0x55555555_immval_0x4_str)
    2ab4:	00062383          	lw	x7,0(x12)
    2ab8:	00a38863          	beq	x7,x10,2ac8 <I_sltiu_cg_cr_rs1_imm_edges_rs1val_0x55555555_immval_0x4+0x18>
    2abc:	1f90046f          	jal	x8,34b4 <failedtest_x8_x7>
    2ac0:	00002ab0          	.word	0x00002ab0
    2ac4:	0000e033          	.word	0x0000e033
    2ac8:	00460613          	addi	x12,x12,4

# Testcase cr_rs1_imm_edges (rs1 = 0x55555555, imm = 8)
  RVTEST_TESTDATA_LOAD_INT(x1, x3) # load rs1: x3 = 0x55555555
    2acc:	0000a183          	lw	x3,0(x1)
    2ad0:	00408093          	addi	x1,x1,4

00002ad4 <I_sltiu_cg_cr_rs1_imm_edges_rs1val_0x55555555_immval_0x8>:
I_sltiu_cg_cr_rs1_imm_edges_rs1val_0x55555555_immval_0x8:
  sltiu x26, x3, 8 # perform operation
    2ad4:	0081bd13          	sltiu	x26,x3,8
  # Check if x26 contains the expected result. x12 is the signature ptr, x8 is the link ptr, x7 is a temp reg.
  RVTEST_SIGUPD(x12, x8, x7, x26, I_sltiu_cg_cr_rs1_imm_edges_rs1val_0x55555555_immval_0x8, I_sltiu_cg_cr_rs1_imm_edges_rs1val_0x55555555_immval_0x8_str)
    2ad8:	00062383          	lw	x7,0(x12)
    2adc:	01a38863          	beq	x7,x26,2aec <I_sltiu_cg_cr_rs1_imm_edges_rs1val_0x55555555_immval_0x8+0x18>
    2ae0:	1d50046f          	jal	x8,34b4 <failedtest_x8_x7>
    2ae4:	00002ad4          	.word	0x00002ad4
    2ae8:	0000e089          	.word	0x0000e089
    2aec:	00460613          	addi	x12,x12,4

# Testcase cr_rs1_imm_edges (rs1 = 0x55555555, imm = 16)
  RVTEST_TESTDATA_LOAD_INT(x1, x4) # load rs1: x4 = 0x55555555
    2af0:	0000a203          	lw	x4,0(x1)
    2af4:	00408093          	addi	x1,x1,4

00002af8 <I_sltiu_cg_cr_rs1_imm_edges_rs1val_0x55555555_immval_0x10>:
I_sltiu_cg_cr_rs1_imm_edges_rs1val_0x55555555_immval_0x10:
  sltiu x11, x4, 16 # perform operation
    2af8:	01023593          	sltiu	x11,x4,16
  # Check if x11 contains the expected result. x12 is the signature ptr, x8 is the link ptr, x7 is a temp reg.
  RVTEST_SIGUPD(x12, x8, x7, x11, I_sltiu_cg_cr_rs1_imm_edges_rs1val_0x55555555_immval_0x10, I_sltiu_cg_cr_rs1_imm_edges_rs1val_0x55555555_immval_0x10_str)
    2afc:	00062383          	lw	x7,0(x12)
    2b00:	00b38863          	beq	x7,x11,2b10 <I_sltiu_cg_cr_rs1_imm_edges_rs1val_0x55555555_immval_0x10+0x18>
    2b04:	1b10046f          	jal	x8,34b4 <failedtest_x8_x7>
    2b08:	00002af8          	.word	0x00002af8
    2b0c:	0000e0df          	.word	0x0000e0df
    2b10:	00460613          	addi	x12,x12,4

# Testcase cr_rs1_imm_edges (rs1 = 0x55555555, imm = 32)
  RVTEST_TESTDATA_LOAD_INT(x1, x15) # load rs1: x15 = 0x55555555
    2b14:	0000a783          	lw	x15,0(x1)
    2b18:	00408093          	addi	x1,x1,4

00002b1c <I_sltiu_cg_cr_rs1_imm_edges_rs1val_0x55555555_immval_0x20>:
I_sltiu_cg_cr_rs1_imm_edges_rs1val_0x55555555_immval_0x20:
  sltiu x24, x15, 32 # perform operation
    2b1c:	0207bc13          	sltiu	x24,x15,32
  # Check if x24 contains the expected result. x12 is the signature ptr, x8 is the link ptr, x7 is a temp reg.
  RVTEST_SIGUPD(x12, x8, x7, x24, I_sltiu_cg_cr_rs1_imm_edges_rs1val_0x55555555_immval_0x20, I_sltiu_cg_cr_rs1_imm_edges_rs1val_0x55555555_immval_0x20_str)
    2b20:	00062383          	lw	x7,0(x12)
    2b24:	01838863          	beq	x7,x24,2b34 <I_sltiu_cg_cr_rs1_imm_edges_rs1val_0x55555555_immval_0x20+0x18>
    2b28:	18d0046f          	jal	x8,34b4 <failedtest_x8_x7>
    2b2c:	00002b1c          	.word	0x00002b1c
    2b30:	0000e136          	.word	0x0000e136
    2b34:	00460613          	addi	x12,x12,4

# Testcase cr_rs1_imm_edges (rs1 = 0x55555555, imm = 64)
  RVTEST_TESTDATA_LOAD_INT(x1, x29) # load rs1: x29 = 0x55555555
    2b38:	0000ae83          	lw	x29,0(x1)
    2b3c:	00408093          	addi	x1,x1,4

00002b40 <I_sltiu_cg_cr_rs1_imm_edges_rs1val_0x55555555_immval_0x40>:
I_sltiu_cg_cr_rs1_imm_edges_rs1val_0x55555555_immval_0x40:
  sltiu x26, x29, 64 # perform operation
    2b40:	040ebd13          	sltiu	x26,x29,64
  # Check if x26 contains the expected result. x12 is the signature ptr, x8 is the link ptr, x7 is a temp reg.
  RVTEST_SIGUPD(x12, x8, x7, x26, I_sltiu_cg_cr_rs1_imm_edges_rs1val_0x55555555_immval_0x40, I_sltiu_cg_cr_rs1_imm_edges_rs1val_0x55555555_immval_0x40_str)
    2b44:	00062383          	lw	x7,0(x12)
    2b48:	01a38863          	beq	x7,x26,2b58 <I_sltiu_cg_cr_rs1_imm_edges_rs1val_0x55555555_immval_0x40+0x18>
    2b4c:	1690046f          	jal	x8,34b4 <failedtest_x8_x7>
    2b50:	00002b40          	.word	0x00002b40
    2b54:	0000e18d          	.word	0x0000e18d
    2b58:	00460613          	addi	x12,x12,4

# Testcase cr_rs1_imm_edges (rs1 = 0x55555555, imm = 128)
  RVTEST_TESTDATA_LOAD_INT(x1, x20) # load rs1: x20 = 0x55555555
    2b5c:	0000aa03          	lw	x20,0(x1)
    2b60:	00408093          	addi	x1,x1,4

00002b64 <I_sltiu_cg_cr_rs1_imm_edges_rs1val_0x55555555_immval_0x80>:
I_sltiu_cg_cr_rs1_imm_edges_rs1val_0x55555555_immval_0x80:
  sltiu x29, x20, 128 # perform operation
    2b64:	080a3e93          	sltiu	x29,x20,128
  # Check if x29 contains the expected result. x12 is the signature ptr, x8 is the link ptr, x7 is a temp reg.
  RVTEST_SIGUPD(x12, x8, x7, x29, I_sltiu_cg_cr_rs1_imm_edges_rs1val_0x55555555_immval_0x80, I_sltiu_cg_cr_rs1_imm_edges_rs1val_0x55555555_immval_0x80_str)
    2b68:	00062383          	lw	x7,0(x12)
    2b6c:	01d38863          	beq	x7,x29,2b7c <I_sltiu_cg_cr_rs1_imm_edges_rs1val_0x55555555_immval_0x80+0x18>
    2b70:	1450046f          	jal	x8,34b4 <failedtest_x8_x7>
    2b74:	00002b64          	.word	0x00002b64
    2b78:	0000e1e4          	.word	0x0000e1e4
    2b7c:	00460613          	addi	x12,x12,4

# Testcase cr_rs1_imm_edges (rs1 = 0x55555555, imm = 256)
  RVTEST_TESTDATA_LOAD_INT(x1, x15) # load rs1: x15 = 0x55555555
    2b80:	0000a783          	lw	x15,0(x1)
    2b84:	00408093          	addi	x1,x1,4

00002b88 <I_sltiu_cg_cr_rs1_imm_edges_rs1val_0x55555555_immval_0x100>:
I_sltiu_cg_cr_rs1_imm_edges_rs1val_0x55555555_immval_0x100:
  sltiu x19, x15, 256 # perform operation
    2b88:	1007b993          	sltiu	x19,x15,256
  # Check if x19 contains the expected result. x12 is the signature ptr, x8 is the link ptr, x7 is a temp reg.
  RVTEST_SIGUPD(x12, x8, x7, x19, I_sltiu_cg_cr_rs1_imm_edges_rs1val_0x55555555_immval_0x100, I_sltiu_cg_cr_rs1_imm_edges_rs1val_0x55555555_immval_0x100_str)
    2b8c:	00062383          	lw	x7,0(x12)
    2b90:	01338863          	beq	x7,x19,2ba0 <I_sltiu_cg_cr_rs1_imm_edges_rs1val_0x55555555_immval_0x100+0x18>
    2b94:	1210046f          	jal	x8,34b4 <failedtest_x8_x7>
    2b98:	00002b88          	.word	0x00002b88
    2b9c:	0000e23b          	.word	0x0000e23b
    2ba0:	00460613          	addi	x12,x12,4

# Testcase cr_rs1_imm_edges (rs1 = 0x55555555, imm = 512)
  RVTEST_TESTDATA_LOAD_INT(x1, x27) # load rs1: x27 = 0x55555555
    2ba4:	0000ad83          	lw	x27,0(x1)
    2ba8:	00408093          	addi	x1,x1,4

00002bac <I_sltiu_cg_cr_rs1_imm_edges_rs1val_0x55555555_immval_0x200>:
I_sltiu_cg_cr_rs1_imm_edges_rs1val_0x55555555_immval_0x200:
  sltiu x2, x27, 512 # perform operation
    2bac:	200db113          	sltiu	x2,x27,512
  # Check if x2 contains the expected result. x12 is the signature ptr, x8 is the link ptr, x7 is a temp reg.
  RVTEST_SIGUPD(x12, x8, x7, x2, I_sltiu_cg_cr_rs1_imm_edges_rs1val_0x55555555_immval_0x200, I_sltiu_cg_cr_rs1_imm_edges_rs1val_0x55555555_immval_0x200_str)
    2bb0:	00062383          	lw	x7,0(x12)
    2bb4:	00238863          	beq	x7,x2,2bc4 <I_sltiu_cg_cr_rs1_imm_edges_rs1val_0x55555555_immval_0x200+0x18>
    2bb8:	0fd0046f          	jal	x8,34b4 <failedtest_x8_x7>
    2bbc:	00002bac          	.word	0x00002bac
    2bc0:	0000e293          	.word	0x0000e293
    2bc4:	00460613          	addi	x12,x12,4

# Testcase cr_rs1_imm_edges (rs1 = 0x55555555, imm = 1023)
  RVTEST_TESTDATA_LOAD_INT(x1, x19) # load rs1: x19 = 0x55555555
    2bc8:	0000a983          	lw	x19,0(x1)
    2bcc:	00408093          	addi	x1,x1,4

00002bd0 <I_sltiu_cg_cr_rs1_imm_edges_rs1val_0x55555555_immval_0x3ff>:
I_sltiu_cg_cr_rs1_imm_edges_rs1val_0x55555555_immval_0x3ff:
  sltiu x24, x19, 1023 # perform operation
    2bd0:	3ff9bc13          	sltiu	x24,x19,1023
  # Check if x24 contains the expected result. x12 is the signature ptr, x8 is the link ptr, x7 is a temp reg.
  RVTEST_SIGUPD(x12, x8, x7, x24, I_sltiu_cg_cr_rs1_imm_edges_rs1val_0x55555555_immval_0x3ff, I_sltiu_cg_cr_rs1_imm_edges_rs1val_0x55555555_immval_0x3ff_str)
    2bd4:	00062383          	lw	x7,0(x12)
    2bd8:	01838863          	beq	x7,x24,2be8 <I_sltiu_cg_cr_rs1_imm_edges_rs1val_0x55555555_immval_0x3ff+0x18>
    2bdc:	0d90046f          	jal	x8,34b4 <failedtest_x8_x7>
    2be0:	00002bd0          	.word	0x00002bd0
    2be4:	0000e2eb          	.word	0x0000e2eb
    2be8:	00460613          	addi	x12,x12,4

# Testcase cr_rs1_imm_edges (rs1 = 0x55555555, imm = 1024)
  RVTEST_TESTDATA_LOAD_INT(x1, x30) # load rs1: x30 = 0x55555555
    2bec:	0000af03          	lw	x30,0(x1)
    2bf0:	00408093          	addi	x1,x1,4

00002bf4 <I_sltiu_cg_cr_rs1_imm_edges_rs1val_0x55555555_immval_0x400>:
I_sltiu_cg_cr_rs1_imm_edges_rs1val_0x55555555_immval_0x400:
  sltiu x24, x30, 1024 # perform operation
    2bf4:	400f3c13          	sltiu	x24,x30,1024
  # Check if x24 contains the expected result. x12 is the signature ptr, x8 is the link ptr, x7 is a temp reg.
  RVTEST_SIGUPD(x12, x8, x7, x24, I_sltiu_cg_cr_rs1_imm_edges_rs1val_0x55555555_immval_0x400, I_sltiu_cg_cr_rs1_imm_edges_rs1val_0x55555555_immval_0x400_str)
    2bf8:	00062383          	lw	x7,0(x12)
    2bfc:	01838863          	beq	x7,x24,2c0c <I_sltiu_cg_cr_rs1_imm_edges_rs1val_0x55555555_immval_0x400+0x18>
    2c00:	0b50046f          	jal	x8,34b4 <failedtest_x8_x7>
    2c04:	00002bf4          	.word	0x00002bf4
    2c08:	0000e343          	.word	0x0000e343
    2c0c:	00460613          	addi	x12,x12,4

# Testcase cr_rs1_imm_edges (rs1 = 0x55555555, imm = 1795)
  RVTEST_TESTDATA_LOAD_INT(x1, x17) # load rs1: x17 = 0x55555555
    2c10:	0000a883          	lw	x17,0(x1)
    2c14:	00408093          	addi	x1,x1,4

00002c18 <I_sltiu_cg_cr_rs1_imm_edges_rs1val_0x55555555_immval_0x703>:
I_sltiu_cg_cr_rs1_imm_edges_rs1val_0x55555555_immval_0x703:
  sltiu x2, x17, 1795 # perform operation
    2c18:	7038b113          	sltiu	x2,x17,1795
  # Check if x2 contains the expected result. x12 is the signature ptr, x8 is the link ptr, x7 is a temp reg.
  RVTEST_SIGUPD(x12, x8, x7, x2, I_sltiu_cg_cr_rs1_imm_edges_rs1val_0x55555555_immval_0x703, I_sltiu_cg_cr_rs1_imm_edges_rs1val_0x55555555_immval_0x703_str)
    2c1c:	00062383          	lw	x7,0(x12)
    2c20:	00238863          	beq	x7,x2,2c30 <I_sltiu_cg_cr_rs1_imm_edges_rs1val_0x55555555_immval_0x703+0x18>
    2c24:	0910046f          	jal	x8,34b4 <failedtest_x8_x7>
    2c28:	00002c18          	.word	0x00002c18
    2c2c:	0000e39b          	.word	0x0000e39b
    2c30:	00460613          	addi	x12,x12,4

# Testcase cr_rs1_imm_edges (rs1 = 0x55555555, imm = 2047)
  RVTEST_TESTDATA_LOAD_INT(x1, x19) # load rs1: x19 = 0x55555555
    2c34:	0000a983          	lw	x19,0(x1)
    2c38:	00408093          	addi	x1,x1,4

00002c3c <I_sltiu_cg_cr_rs1_imm_edges_rs1val_0x55555555_immval_0x7ff>:
I_sltiu_cg_cr_rs1_imm_edges_rs1val_0x55555555_immval_0x7ff:
  sltiu x11, x19, 2047 # perform operation
    2c3c:	7ff9b593          	sltiu	x11,x19,2047
  # Check if x11 contains the expected result. x12 is the signature ptr, x8 is the link ptr, x7 is a temp reg.
  RVTEST_SIGUPD(x12, x8, x7, x11, I_sltiu_cg_cr_rs1_imm_edges_rs1val_0x55555555_immval_0x7ff, I_sltiu_cg_cr_rs1_imm_edges_rs1val_0x55555555_immval_0x7ff_str)
    2c40:	00062383          	lw	x7,0(x12)
    2c44:	00b38863          	beq	x7,x11,2c54 <I_sltiu_cg_cr_rs1_imm_edges_rs1val_0x55555555_immval_0x7ff+0x18>
    2c48:	06d0046f          	jal	x8,34b4 <failedtest_x8_x7>
    2c4c:	00002c3c          	.word	0x00002c3c
    2c50:	0000e3f3          	.word	0x0000e3f3
    2c54:	00460613          	addi	x12,x12,4

# Testcase cr_rs1_imm_edges (rs1 = 0x55555555, imm = -2048)
  RVTEST_TESTDATA_LOAD_INT(x1, x27) # load rs1: x27 = 0x55555555
    2c58:	0000ad83          	lw	x27,0(x1)
    2c5c:	00408093          	addi	x1,x1,4

00002c60 <I_sltiu_cg_cr_rs1_imm_edges_rs1val_0x55555555_immval_m0x800>:
I_sltiu_cg_cr_rs1_imm_edges_rs1val_0x55555555_immval_m0x800:
  sltiu x5, x27, -2048 # perform operation
    2c60:	800db293          	sltiu	x5,x27,-2048
  # Check if x5 contains the expected result. x12 is the signature ptr, x8 is the link ptr, x7 is a temp reg.
  RVTEST_SIGUPD(x12, x8, x7, x5, I_sltiu_cg_cr_rs1_imm_edges_rs1val_0x55555555_immval_m0x800, I_sltiu_cg_cr_rs1_imm_edges_rs1val_0x55555555_immval_m0x800_str)
    2c64:	00062383          	lw	x7,0(x12)
    2c68:	00538863          	beq	x7,x5,2c78 <I_sltiu_cg_cr_rs1_imm_edges_rs1val_0x55555555_immval_m0x800+0x18>
    2c6c:	0490046f          	jal	x8,34b4 <failedtest_x8_x7>
    2c70:	00002c60          	.word	0x00002c60
    2c74:	0000e44b          	.word	0x0000e44b
    2c78:	00460613          	addi	x12,x12,4

# Testcase cr_rs1_imm_edges (rs1 = 0x55555555, imm = -2047)
  RVTEST_TESTDATA_LOAD_INT(x1, x2) # load rs1: x2 = 0x55555555
    2c7c:	0000a103          	lw	x2,0(x1)
    2c80:	00408093          	addi	x1,x1,4

00002c84 <I_sltiu_cg_cr_rs1_imm_edges_rs1val_0x55555555_immval_m0x7ff>:
I_sltiu_cg_cr_rs1_imm_edges_rs1val_0x55555555_immval_m0x7ff:
  sltiu x28, x2, -2047 # perform operation
    2c84:	80113e13          	sltiu	x28,x2,-2047
  # Check if x28 contains the expected result. x12 is the signature ptr, x8 is the link ptr, x7 is a temp reg.
  RVTEST_SIGUPD(x12, x8, x7, x28, I_sltiu_cg_cr_rs1_imm_edges_rs1val_0x55555555_immval_m0x7ff, I_sltiu_cg_cr_rs1_imm_edges_rs1val_0x55555555_immval_m0x7ff_str)
    2c88:	00062383          	lw	x7,0(x12)
    2c8c:	01c38863          	beq	x7,x28,2c9c <I_sltiu_cg_cr_rs1_imm_edges_rs1val_0x55555555_immval_m0x7ff+0x18>
    2c90:	0250046f          	jal	x8,34b4 <failedtest_x8_x7>
    2c94:	00002c84          	.word	0x00002c84
    2c98:	0000e4a4          	.word	0x0000e4a4
    2c9c:	00460613          	addi	x12,x12,4

# Testcase cr_rs1_imm_edges (rs1 = 0x55555555, imm = -2)
  RVTEST_TESTDATA_LOAD_INT(x1, x17) # load rs1: x17 = 0x55555555
    2ca0:	0000a883          	lw	x17,0(x1)
    2ca4:	00408093          	addi	x1,x1,4

00002ca8 <I_sltiu_cg_cr_rs1_imm_edges_rs1val_0x55555555_immval_m0x2>:
I_sltiu_cg_cr_rs1_imm_edges_rs1val_0x55555555_immval_m0x2:
  sltiu x27, x17, -2 # perform operation
    2ca8:	ffe8bd93          	sltiu	x27,x17,-2
  # Check if x27 contains the expected result. x12 is the signature ptr, x8 is the link ptr, x7 is a temp reg.
  RVTEST_SIGUPD(x12, x8, x7, x27, I_sltiu_cg_cr_rs1_imm_edges_rs1val_0x55555555_immval_m0x2, I_sltiu_cg_cr_rs1_imm_edges_rs1val_0x55555555_immval_m0x2_str)
    2cac:	00062383          	lw	x7,0(x12)
    2cb0:	01b38863          	beq	x7,x27,2cc0 <I_sltiu_cg_cr_rs1_imm_edges_rs1val_0x55555555_immval_m0x2+0x18>
    2cb4:	0010046f          	jal	x8,34b4 <failedtest_x8_x7>
    2cb8:	00002ca8          	.word	0x00002ca8
    2cbc:	0000e4fd          	.word	0x0000e4fd
    2cc0:	00460613          	addi	x12,x12,4

# Testcase cr_rs1_imm_edges (rs1 = 0x55555555, imm = -1)
  RVTEST_TESTDATA_LOAD_INT(x1, x14) # load rs1: x14 = 0x55555555
    2cc4:	0000a703          	lw	x14,0(x1)
    2cc8:	00408093          	addi	x1,x1,4

00002ccc <I_sltiu_cg_cr_rs1_imm_edges_rs1val_0x55555555_immval_m0x1>:
I_sltiu_cg_cr_rs1_imm_edges_rs1val_0x55555555_immval_m0x1:
  sltiu x19, x14, -1 # perform operation
    2ccc:	fff73993          	sltiu	x19,x14,-1
  # Check if x19 contains the expected result. x12 is the signature ptr, x8 is the link ptr, x7 is a temp reg.
  RVTEST_SIGUPD(x12, x8, x7, x19, I_sltiu_cg_cr_rs1_imm_edges_rs1val_0x55555555_immval_m0x1, I_sltiu_cg_cr_rs1_imm_edges_rs1val_0x55555555_immval_m0x1_str)
    2cd0:	00062383          	lw	x7,0(x12)
    2cd4:	01338863          	beq	x7,x19,2ce4 <I_sltiu_cg_cr_rs1_imm_edges_rs1val_0x55555555_immval_m0x1+0x18>
    2cd8:	7dc0046f          	jal	x8,34b4 <failedtest_x8_x7>
    2cdc:	00002ccc          	.word	0x00002ccc
    2ce0:	0000e554          	.word	0x0000e554
    2ce4:	00460613          	addi	x12,x12,4
/////////////////////////////////
// cmp_rd_rs1
/////////////////////////////////

# Testcase cmp_rd_rs1 (Test rd = rs1 = x0)
  RVTEST_TESTDATA_LOAD_INT(x1, x0) # load rs1: x0 = 0xdee61409
    2ce8:	0000a003          	lw	x0,0(x1)
    2cec:	00408093          	addi	x1,x1,4

00002cf0 <I_sltiu_cg_cmp_rd_rs1_b0>:
I_sltiu_cg_cmp_rd_rs1_b0:
  sltiu x0, x0, -1313 # perform operation
    2cf0:	adf03013          	sltiu	x0,x0,-1313
  # Check if x0 contains the expected result. x12 is the signature ptr, x8 is the link ptr, x7 is a temp reg.
  RVTEST_SIGUPD(x12, x8, x7, x0, I_sltiu_cg_cmp_rd_rs1_b0, I_sltiu_cg_cmp_rd_rs1_b0_str)
    2cf4:	00062383          	lw	x7,0(x12)
    2cf8:	00038863          	beq	x7,x0,2d08 <I_sltiu_cg_cmp_rd_rs1_b0+0x18>
    2cfc:	7b80046f          	jal	x8,34b4 <failedtest_x8_x7>
    2d00:	00002cf0          	.word	0x00002cf0
    2d04:	0000e5ab          	.word	0x0000e5ab
    2d08:	00460613          	addi	x12,x12,4

  mv x9, x1 # switch data pointer register to avoid conflict with test
    2d0c:	00008493          	addi	x9,x1,0
# Testcase cmp_rd_rs1 (Test rd = rs1 = x1)
  RVTEST_TESTDATA_LOAD_INT(x9, x1) # load rs1: x1 = 0x76cff065
    2d10:	0004a083          	lw	x1,0(x9)
    2d14:	00448493          	addi	x9,x9,4

00002d18 <I_sltiu_cg_cmp_rd_rs1_b1>:
I_sltiu_cg_cmp_rd_rs1_b1:
  sltiu x1, x1, -1481 # perform operation
    2d18:	a370b093          	sltiu	x1,x1,-1481
  # Check if x1 contains the expected result. x12 is the signature ptr, x8 is the link ptr, x7 is a temp reg.
  RVTEST_SIGUPD(x12, x8, x7, x1, I_sltiu_cg_cmp_rd_rs1_b1, I_sltiu_cg_cmp_rd_rs1_b1_str)
    2d1c:	00062383          	lw	x7,0(x12)
    2d20:	00138863          	beq	x7,x1,2d30 <I_sltiu_cg_cmp_rd_rs1_b1+0x18>
    2d24:	7900046f          	jal	x8,34b4 <failedtest_x8_x7>
    2d28:	00002d18          	.word	0x00002d18
    2d2c:	0000e5e0          	.word	0x0000e5e0
    2d30:	00460613          	addi	x12,x12,4

# Testcase cmp_rd_rs1 (Test rd = rs1 = x2)
  RVTEST_TESTDATA_LOAD_INT(x9, x2) # load rs1: x2 = 0xb8dc8dcd
    2d34:	0004a103          	lw	x2,0(x9)
    2d38:	00448493          	addi	x9,x9,4

00002d3c <I_sltiu_cg_cmp_rd_rs1_b2>:
I_sltiu_cg_cmp_rd_rs1_b2:
  sltiu x2, x2, -1479 # perform operation
    2d3c:	a3913113          	sltiu	x2,x2,-1479
  # Check if x2 contains the expected result. x12 is the signature ptr, x8 is the link ptr, x7 is a temp reg.
  RVTEST_SIGUPD(x12, x8, x7, x2, I_sltiu_cg_cmp_rd_rs1_b2, I_sltiu_cg_cmp_rd_rs1_b2_str)
    2d40:	00062383          	lw	x7,0(x12)
    2d44:	00238863          	beq	x7,x2,2d54 <I_sltiu_cg_cmp_rd_rs1_b2+0x18>
    2d48:	76c0046f          	jal	x8,34b4 <failedtest_x8_x7>
    2d4c:	00002d3c          	.word	0x00002d3c
    2d50:	0000e615          	.word	0x0000e615
    2d54:	00460613          	addi	x12,x12,4

# Testcase cmp_rd_rs1 (Test rd = rs1 = x3)
  RVTEST_TESTDATA_LOAD_INT(x9, x3) # load rs1: x3 = 0x6d1261dd
    2d58:	0004a183          	lw	x3,0(x9)
    2d5c:	00448493          	addi	x9,x9,4

00002d60 <I_sltiu_cg_cmp_rd_rs1_b3>:
I_sltiu_cg_cmp_rd_rs1_b3:
  sltiu x3, x3, 1549 # perform operation
    2d60:	60d1b193          	sltiu	x3,x3,1549
  # Check if x3 contains the expected result. x12 is the signature ptr, x8 is the link ptr, x7 is a temp reg.
  RVTEST_SIGUPD(x12, x8, x7, x3, I_sltiu_cg_cmp_rd_rs1_b3, I_sltiu_cg_cmp_rd_rs1_b3_str)
    2d64:	00062383          	lw	x7,0(x12)
    2d68:	00338863          	beq	x7,x3,2d78 <I_sltiu_cg_cmp_rd_rs1_b3+0x18>
    2d6c:	7480046f          	jal	x8,34b4 <failedtest_x8_x7>
    2d70:	00002d60          	.word	0x00002d60
    2d74:	0000e64a          	.word	0x0000e64a
    2d78:	00460613          	addi	x12,x12,4

# Testcase cmp_rd_rs1 (Test rd = rs1 = x4)
  RVTEST_TESTDATA_LOAD_INT(x9, x4) # load rs1: x4 = 0x7000e520
    2d7c:	0004a203          	lw	x4,0(x9)
    2d80:	00448493          	addi	x9,x9,4

00002d84 <I_sltiu_cg_cmp_rd_rs1_b4>:
I_sltiu_cg_cmp_rd_rs1_b4:
  sltiu x4, x4, -782 # perform operation
    2d84:	cf223213          	sltiu	x4,x4,-782
  # Check if x4 contains the expected result. x12 is the signature ptr, x8 is the link ptr, x7 is a temp reg.
  RVTEST_SIGUPD(x12, x8, x7, x4, I_sltiu_cg_cmp_rd_rs1_b4, I_sltiu_cg_cmp_rd_rs1_b4_str)
    2d88:	00062383          	lw	x7,0(x12)
    2d8c:	00438863          	beq	x7,x4,2d9c <I_sltiu_cg_cmp_rd_rs1_b4+0x18>
    2d90:	7240046f          	jal	x8,34b4 <failedtest_x8_x7>
    2d94:	00002d84          	.word	0x00002d84
    2d98:	0000e67f          	.word	0x0000e67f
    2d9c:	00460613          	addi	x12,x12,4

# Testcase cmp_rd_rs1 (Test rd = rs1 = x5)
  RVTEST_TESTDATA_LOAD_INT(x9, x5) # load rs1: x5 = 0x3cafa77a
    2da0:	0004a283          	lw	x5,0(x9)
    2da4:	00448493          	addi	x9,x9,4

00002da8 <I_sltiu_cg_cmp_rd_rs1_b5>:
I_sltiu_cg_cmp_rd_rs1_b5:
  sltiu x5, x5, -1227 # perform operation
    2da8:	b352b293          	sltiu	x5,x5,-1227
  # Check if x5 contains the expected result. x12 is the signature ptr, x8 is the link ptr, x7 is a temp reg.
  RVTEST_SIGUPD(x12, x8, x7, x5, I_sltiu_cg_cmp_rd_rs1_b5, I_sltiu_cg_cmp_rd_rs1_b5_str)
    2dac:	00062383          	lw	x7,0(x12)
    2db0:	00538863          	beq	x7,x5,2dc0 <I_sltiu_cg_cmp_rd_rs1_b5+0x18>
    2db4:	7000046f          	jal	x8,34b4 <failedtest_x8_x7>
    2db8:	00002da8          	.word	0x00002da8
    2dbc:	0000e6b4          	.word	0x0000e6b4
    2dc0:	00460613          	addi	x12,x12,4

# Testcase cmp_rd_rs1 (Test rd = rs1 = x6)
  RVTEST_TESTDATA_LOAD_INT(x9, x6) # load rs1: x6 = 0xa03af6be
    2dc4:	0004a303          	lw	x6,0(x9)
    2dc8:	00448493          	addi	x9,x9,4

00002dcc <I_sltiu_cg_cmp_rd_rs1_b6>:
I_sltiu_cg_cmp_rd_rs1_b6:
  sltiu x6, x6, -960 # perform operation
    2dcc:	c4033313          	sltiu	x6,x6,-960
  # Check if x6 contains the expected result. x12 is the signature ptr, x8 is the link ptr, x7 is a temp reg.
  RVTEST_SIGUPD(x12, x8, x7, x6, I_sltiu_cg_cmp_rd_rs1_b6, I_sltiu_cg_cmp_rd_rs1_b6_str)
    2dd0:	00062383          	lw	x7,0(x12)
    2dd4:	00638863          	beq	x7,x6,2de4 <I_sltiu_cg_cmp_rd_rs1_b6+0x18>
    2dd8:	6dc0046f          	jal	x8,34b4 <failedtest_x8_x7>
    2ddc:	00002dcc          	.word	0x00002dcc
    2de0:	0000e6e9          	.word	0x0000e6e9
    2de4:	00460613          	addi	x12,x12,4

  mv x13, x7 # switch temp register to avoid conflict with test
    2de8:	00038693          	addi	x13,x7,0
  mv x14, x8 # switch link pointer register to avoid conflict with test
    2dec:	00040713          	addi	x14,x8,0
# Testcase cmp_rd_rs1 (Test rd = rs1 = x7)
  RVTEST_TESTDATA_LOAD_INT(x9, x7) # load rs1: x7 = 0x7dd21def
    2df0:	0004a383          	lw	x7,0(x9)
    2df4:	00448493          	addi	x9,x9,4

00002df8 <I_sltiu_cg_cmp_rd_rs1_b7>:
I_sltiu_cg_cmp_rd_rs1_b7:
  sltiu x7, x7, 1058 # perform operation
    2df8:	4223b393          	sltiu	x7,x7,1058
  # Check if x7 contains the expected result. x12 is the signature ptr, x14 is the link ptr, x13 is a temp reg.
  RVTEST_SIGUPD(x12, x14, x13, x7, I_sltiu_cg_cmp_rd_rs1_b7, I_sltiu_cg_cmp_rd_rs1_b7_str)
    2dfc:	00062683          	lw	x13,0(x12)
    2e00:	00768863          	beq	x13,x7,2e10 <I_sltiu_cg_cmp_rd_rs1_b7+0x18>
    2e04:	6d80076f          	jal	x14,34dc <failedtest_x14_x13>
    2e08:	00002df8          	.word	0x00002df8
    2e0c:	0000e71e          	.word	0x0000e71e
    2e10:	00460613          	addi	x12,x12,4

# Testcase cmp_rd_rs1 (Test rd = rs1 = x8)
  RVTEST_TESTDATA_LOAD_INT(x9, x8) # load rs1: x8 = 0x0239bceb
    2e14:	0004a403          	lw	x8,0(x9)
    2e18:	00448493          	addi	x9,x9,4

00002e1c <I_sltiu_cg_cmp_rd_rs1_b8>:
I_sltiu_cg_cmp_rd_rs1_b8:
  sltiu x8, x8, -550 # perform operation
    2e1c:	dda43413          	sltiu	x8,x8,-550
  # Check if x8 contains the expected result. x12 is the signature ptr, x14 is the link ptr, x13 is a temp reg.
  RVTEST_SIGUPD(x12, x14, x13, x8, I_sltiu_cg_cmp_rd_rs1_b8, I_sltiu_cg_cmp_rd_rs1_b8_str)
    2e20:	00062683          	lw	x13,0(x12)
    2e24:	00868863          	beq	x13,x8,2e34 <I_sltiu_cg_cmp_rd_rs1_b8+0x18>
    2e28:	6b40076f          	jal	x14,34dc <failedtest_x14_x13>
    2e2c:	00002e1c          	.word	0x00002e1c
    2e30:	0000e753          	.word	0x0000e753
    2e34:	00460613          	addi	x12,x12,4

  mv x18, x9 # switch data pointer register to avoid conflict with test
    2e38:	00048913          	addi	x18,x9,0
# Testcase cmp_rd_rs1 (Test rd = rs1 = x9)
  RVTEST_TESTDATA_LOAD_INT(x18, x9) # load rs1: x9 = 0x380623cf
    2e3c:	00092483          	lw	x9,0(x18)
    2e40:	00490913          	addi	x18,x18,4

00002e44 <I_sltiu_cg_cmp_rd_rs1_b9>:
I_sltiu_cg_cmp_rd_rs1_b9:
  sltiu x9, x9, 360 # perform operation
    2e44:	1684b493          	sltiu	x9,x9,360
  # Check if x9 contains the expected result. x12 is the signature ptr, x14 is the link ptr, x13 is a temp reg.
  RVTEST_SIGUPD(x12, x14, x13, x9, I_sltiu_cg_cmp_rd_rs1_b9, I_sltiu_cg_cmp_rd_rs1_b9_str)
    2e48:	00062683          	lw	x13,0(x12)
    2e4c:	00968863          	beq	x13,x9,2e5c <I_sltiu_cg_cmp_rd_rs1_b9+0x18>
    2e50:	68c0076f          	jal	x14,34dc <failedtest_x14_x13>
    2e54:	00002e44          	.word	0x00002e44
    2e58:	0000e788          	.word	0x0000e788
    2e5c:	00460613          	addi	x12,x12,4

# Testcase cmp_rd_rs1 (Test rd = rs1 = x10)
  RVTEST_TESTDATA_LOAD_INT(x18, x10) # load rs1: x10 = 0xa8d87b69
    2e60:	00092503          	lw	x10,0(x18)
    2e64:	00490913          	addi	x18,x18,4

00002e68 <I_sltiu_cg_cmp_rd_rs1_b10>:
I_sltiu_cg_cmp_rd_rs1_b10:
  sltiu x10, x10, -1170 # perform operation
    2e68:	b6e53513          	sltiu	x10,x10,-1170
  # Check if x10 contains the expected result. x12 is the signature ptr, x14 is the link ptr, x13 is a temp reg.
  RVTEST_SIGUPD(x12, x14, x13, x10, I_sltiu_cg_cmp_rd_rs1_b10, I_sltiu_cg_cmp_rd_rs1_b10_str)
    2e6c:	00062683          	lw	x13,0(x12)
    2e70:	00a68863          	beq	x13,x10,2e80 <I_sltiu_cg_cmp_rd_rs1_b10+0x18>
    2e74:	6680076f          	jal	x14,34dc <failedtest_x14_x13>
    2e78:	00002e68          	.word	0x00002e68
    2e7c:	0000e7bd          	.word	0x0000e7bd
    2e80:	00460613          	addi	x12,x12,4

# Testcase cmp_rd_rs1 (Test rd = rs1 = x11)
  RVTEST_TESTDATA_LOAD_INT(x18, x11) # load rs1: x11 = 0x88f978cc
    2e84:	00092583          	lw	x11,0(x18)
    2e88:	00490913          	addi	x18,x18,4

00002e8c <I_sltiu_cg_cmp_rd_rs1_b11>:
I_sltiu_cg_cmp_rd_rs1_b11:
  sltiu x11, x11, -501 # perform operation
    2e8c:	e0b5b593          	sltiu	x11,x11,-501
  # Check if x11 contains the expected result. x12 is the signature ptr, x14 is the link ptr, x13 is a temp reg.
  RVTEST_SIGUPD(x12, x14, x13, x11, I_sltiu_cg_cmp_rd_rs1_b11, I_sltiu_cg_cmp_rd_rs1_b11_str)
    2e90:	00062683          	lw	x13,0(x12)
    2e94:	00b68863          	beq	x13,x11,2ea4 <I_sltiu_cg_cmp_rd_rs1_b11+0x18>
    2e98:	6440076f          	jal	x14,34dc <failedtest_x14_x13>
    2e9c:	00002e8c          	.word	0x00002e8c
    2ea0:	0000e7f3          	.word	0x0000e7f3
    2ea4:	00460613          	addi	x12,x12,4

  mv x2, x12 # switch signature pointer register to avoid conflict with test
    2ea8:	00060113          	addi	x2,x12,0
# Testcase cmp_rd_rs1 (Test rd = rs1 = x12)
  RVTEST_TESTDATA_LOAD_INT(x18, x12) # load rs1: x12 = 0x1a63eb68
    2eac:	00092603          	lw	x12,0(x18)
    2eb0:	00490913          	addi	x18,x18,4

00002eb4 <I_sltiu_cg_cmp_rd_rs1_b12>:
I_sltiu_cg_cmp_rd_rs1_b12:
  sltiu x12, x12, 430 # perform operation
    2eb4:	1ae63613          	sltiu	x12,x12,430
  # Check if x12 contains the expected result. x2 is the signature ptr, x14 is the link ptr, x13 is a temp reg.
  RVTEST_SIGUPD(x2, x14, x13, x12, I_sltiu_cg_cmp_rd_rs1_b12, I_sltiu_cg_cmp_rd_rs1_b12_str)
    2eb8:	00012683          	lw	x13,0(x2)
    2ebc:	00c68863          	beq	x13,x12,2ecc <I_sltiu_cg_cmp_rd_rs1_b12+0x18>
    2ec0:	61c0076f          	jal	x14,34dc <failedtest_x14_x13>
    2ec4:	00002eb4          	.word	0x00002eb4
    2ec8:	0000e829          	.word	0x0000e829
    2ecc:	00410113          	addi	x2,x2,4

  mv x7, x13 # switch temp register to avoid conflict with test
    2ed0:	00068393          	addi	x7,x13,0
  mv x8, x14 # switch link pointer register to avoid conflict with test
    2ed4:	00070413          	addi	x8,x14,0
# Testcase cmp_rd_rs1 (Test rd = rs1 = x13)
  RVTEST_TESTDATA_LOAD_INT(x18, x13) # load rs1: x13 = 0xb8b4d223
    2ed8:	00092683          	lw	x13,0(x18)
    2edc:	00490913          	addi	x18,x18,4

00002ee0 <I_sltiu_cg_cmp_rd_rs1_b13>:
I_sltiu_cg_cmp_rd_rs1_b13:
  sltiu x13, x13, -1788 # perform operation
    2ee0:	9046b693          	sltiu	x13,x13,-1788
  # Check if x13 contains the expected result. x2 is the signature ptr, x8 is the link ptr, x7 is a temp reg.
  RVTEST_SIGUPD(x2, x8, x7, x13, I_sltiu_cg_cmp_rd_rs1_b13, I_sltiu_cg_cmp_rd_rs1_b13_str)
    2ee4:	00012383          	lw	x7,0(x2)
    2ee8:	00d38863          	beq	x7,x13,2ef8 <I_sltiu_cg_cmp_rd_rs1_b13+0x18>
    2eec:	5c80046f          	jal	x8,34b4 <failedtest_x8_x7>
    2ef0:	00002ee0          	.word	0x00002ee0
    2ef4:	0000e85f          	.word	0x0000e85f
    2ef8:	00410113          	addi	x2,x2,4

# Testcase cmp_rd_rs1 (Test rd = rs1 = x14)
  RVTEST_TESTDATA_LOAD_INT(x18, x14) # load rs1: x14 = 0x340a8d9c
    2efc:	00092703          	lw	x14,0(x18)
    2f00:	00490913          	addi	x18,x18,4

00002f04 <I_sltiu_cg_cmp_rd_rs1_b14>:
I_sltiu_cg_cmp_rd_rs1_b14:
  sltiu x14, x14, -1809 # perform operation
    2f04:	8ef73713          	sltiu	x14,x14,-1809
  # Check if x14 contains the expected result. x2 is the signature ptr, x8 is the link ptr, x7 is a temp reg.
  RVTEST_SIGUPD(x2, x8, x7, x14, I_sltiu_cg_cmp_rd_rs1_b14, I_sltiu_cg_cmp_rd_rs1_b14_str)
    2f08:	00012383          	lw	x7,0(x2)
    2f0c:	00e38863          	beq	x7,x14,2f1c <I_sltiu_cg_cmp_rd_rs1_b14+0x18>
    2f10:	5a40046f          	jal	x8,34b4 <failedtest_x8_x7>
    2f14:	00002f04          	.word	0x00002f04
    2f18:	0000e895          	.word	0x0000e895
    2f1c:	00410113          	addi	x2,x2,4

# Testcase cmp_rd_rs1 (Test rd = rs1 = x15)
  RVTEST_TESTDATA_LOAD_INT(x18, x15) # load rs1: x15 = 0x9ca1d153
    2f20:	00092783          	lw	x15,0(x18)
    2f24:	00490913          	addi	x18,x18,4

00002f28 <I_sltiu_cg_cmp_rd_rs1_b15>:
I_sltiu_cg_cmp_rd_rs1_b15:
  sltiu x15, x15, 1026 # perform operation
    2f28:	4027b793          	sltiu	x15,x15,1026
  # Check if x15 contains the expected result. x2 is the signature ptr, x8 is the link ptr, x7 is a temp reg.
  RVTEST_SIGUPD(x2, x8, x7, x15, I_sltiu_cg_cmp_rd_rs1_b15, I_sltiu_cg_cmp_rd_rs1_b15_str)
    2f2c:	00012383          	lw	x7,0(x2)
    2f30:	00f38863          	beq	x7,x15,2f40 <I_sltiu_cg_cmp_rd_rs1_b15+0x18>
    2f34:	5800046f          	jal	x8,34b4 <failedtest_x8_x7>
    2f38:	00002f28          	.word	0x00002f28
    2f3c:	0000e8cb          	.word	0x0000e8cb
    2f40:	00410113          	addi	x2,x2,4

# Testcase cmp_rd_rs1 (Test rd = rs1 = x16)
  RVTEST_TESTDATA_LOAD_INT(x18, x16) # load rs1: x16 = 0xc8717957
    2f44:	00092803          	lw	x16,0(x18)
    2f48:	00490913          	addi	x18,x18,4

00002f4c <I_sltiu_cg_cmp_rd_rs1_b16>:
I_sltiu_cg_cmp_rd_rs1_b16:
  sltiu x16, x16, 2003 # perform operation
    2f4c:	7d383813          	sltiu	x16,x16,2003
  # Check if x16 contains the expected result. x2 is the signature ptr, x8 is the link ptr, x7 is a temp reg.
  RVTEST_SIGUPD(x2, x8, x7, x16, I_sltiu_cg_cmp_rd_rs1_b16, I_sltiu_cg_cmp_rd_rs1_b16_str)
    2f50:	00012383          	lw	x7,0(x2)
    2f54:	01038863          	beq	x7,x16,2f64 <I_sltiu_cg_cmp_rd_rs1_b16+0x18>
    2f58:	55c0046f          	jal	x8,34b4 <failedtest_x8_x7>
    2f5c:	00002f4c          	.word	0x00002f4c
    2f60:	0000e901          	.word	0x0000e901
    2f64:	00410113          	addi	x2,x2,4

# Testcase cmp_rd_rs1 (Test rd = rs1 = x17)
  RVTEST_TESTDATA_LOAD_INT(x18, x17) # load rs1: x17 = 0x808c9740
    2f68:	00092883          	lw	x17,0(x18)
    2f6c:	00490913          	addi	x18,x18,4

00002f70 <I_sltiu_cg_cmp_rd_rs1_b17>:
I_sltiu_cg_cmp_rd_rs1_b17:
  sltiu x17, x17, -1266 # perform operation
    2f70:	b0e8b893          	sltiu	x17,x17,-1266
  # Check if x17 contains the expected result. x2 is the signature ptr, x8 is the link ptr, x7 is a temp reg.
  RVTEST_SIGUPD(x2, x8, x7, x17, I_sltiu_cg_cmp_rd_rs1_b17, I_sltiu_cg_cmp_rd_rs1_b17_str)
    2f74:	00012383          	lw	x7,0(x2)
    2f78:	01138863          	beq	x7,x17,2f88 <I_sltiu_cg_cmp_rd_rs1_b17+0x18>
    2f7c:	5380046f          	jal	x8,34b4 <failedtest_x8_x7>
    2f80:	00002f70          	.word	0x00002f70
    2f84:	0000e937          	.word	0x0000e937
    2f88:	00410113          	addi	x2,x2,4

  mv x16, x18 # switch data pointer register to avoid conflict with test
    2f8c:	00090813          	addi	x16,x18,0
# Testcase cmp_rd_rs1 (Test rd = rs1 = x18)
  RVTEST_TESTDATA_LOAD_INT(x16, x18) # load rs1: x18 = 0x5b868fe2
    2f90:	00082903          	lw	x18,0(x16)
    2f94:	00480813          	addi	x16,x16,4

00002f98 <I_sltiu_cg_cmp_rd_rs1_b18>:
I_sltiu_cg_cmp_rd_rs1_b18:
  sltiu x18, x18, 1386 # perform operation
    2f98:	56a93913          	sltiu	x18,x18,1386
  # Check if x18 contains the expected result. x2 is the signature ptr, x8 is the link ptr, x7 is a temp reg.
  RVTEST_SIGUPD(x2, x8, x7, x18, I_sltiu_cg_cmp_rd_rs1_b18, I_sltiu_cg_cmp_rd_rs1_b18_str)
    2f9c:	00012383          	lw	x7,0(x2)
    2fa0:	01238863          	beq	x7,x18,2fb0 <I_sltiu_cg_cmp_rd_rs1_b18+0x18>
    2fa4:	5100046f          	jal	x8,34b4 <failedtest_x8_x7>
    2fa8:	00002f98          	.word	0x00002f98
    2fac:	0000e96d          	.word	0x0000e96d
    2fb0:	00410113          	addi	x2,x2,4

# Testcase cmp_rd_rs1 (Test rd = rs1 = x19)
  RVTEST_TESTDATA_LOAD_INT(x16, x19) # load rs1: x19 = 0x2af71abd
    2fb4:	00082983          	lw	x19,0(x16)
    2fb8:	00480813          	addi	x16,x16,4

00002fbc <I_sltiu_cg_cmp_rd_rs1_b19>:
I_sltiu_cg_cmp_rd_rs1_b19:
  sltiu x19, x19, 1035 # perform operation
    2fbc:	40b9b993          	sltiu	x19,x19,1035
  # Check if x19 contains the expected result. x2 is the signature ptr, x8 is the link ptr, x7 is a temp reg.
  RVTEST_SIGUPD(x2, x8, x7, x19, I_sltiu_cg_cmp_rd_rs1_b19, I_sltiu_cg_cmp_rd_rs1_b19_str)
    2fc0:	00012383          	lw	x7,0(x2)
    2fc4:	01338863          	beq	x7,x19,2fd4 <I_sltiu_cg_cmp_rd_rs1_b19+0x18>
    2fc8:	4ec0046f          	jal	x8,34b4 <failedtest_x8_x7>
    2fcc:	00002fbc          	.word	0x00002fbc
    2fd0:	0000e9a3          	.word	0x0000e9a3
    2fd4:	00410113          	addi	x2,x2,4

# Testcase cmp_rd_rs1 (Test rd = rs1 = x20)
  RVTEST_TESTDATA_LOAD_INT(x16, x20) # load rs1: x20 = 0xc6648d56
    2fd8:	00082a03          	lw	x20,0(x16)
    2fdc:	00480813          	addi	x16,x16,4

00002fe0 <I_sltiu_cg_cmp_rd_rs1_b20>:
I_sltiu_cg_cmp_rd_rs1_b20:
  sltiu x20, x20, -528 # perform operation
    2fe0:	df0a3a13          	sltiu	x20,x20,-528
  # Check if x20 contains the expected result. x2 is the signature ptr, x8 is the link ptr, x7 is a temp reg.
  RVTEST_SIGUPD(x2, x8, x7, x20, I_sltiu_cg_cmp_rd_rs1_b20, I_sltiu_cg_cmp_rd_rs1_b20_str)
    2fe4:	00012383          	lw	x7,0(x2)
    2fe8:	01438863          	beq	x7,x20,2ff8 <I_sltiu_cg_cmp_rd_rs1_b20+0x18>
    2fec:	4c80046f          	jal	x8,34b4 <failedtest_x8_x7>
    2ff0:	00002fe0          	.word	0x00002fe0
    2ff4:	0000e9d9          	.word	0x0000e9d9
    2ff8:	00410113          	addi	x2,x2,4

# Testcase cmp_rd_rs1 (Test rd = rs1 = x21)
  RVTEST_TESTDATA_LOAD_INT(x16, x21) # load rs1: x21 = 0x4c56d409
    2ffc:	00082a83          	lw	x21,0(x16)
    3000:	00480813          	addi	x16,x16,4

00003004 <I_sltiu_cg_cmp_rd_rs1_b21>:
I_sltiu_cg_cmp_rd_rs1_b21:
  sltiu x21, x21, 1323 # perform operation
    3004:	52baba93          	sltiu	x21,x21,1323
  # Check if x21 contains the expected result. x2 is the signature ptr, x8 is the link ptr, x7 is a temp reg.
  RVTEST_SIGUPD(x2, x8, x7, x21, I_sltiu_cg_cmp_rd_rs1_b21, I_sltiu_cg_cmp_rd_rs1_b21_str)
    3008:	00012383          	lw	x7,0(x2)
    300c:	01538863          	beq	x7,x21,301c <I_sltiu_cg_cmp_rd_rs1_b21+0x18>
    3010:	4a40046f          	jal	x8,34b4 <failedtest_x8_x7>
    3014:	00003004          	.word	0x00003004
    3018:	0000ea0f          	.word	0x0000ea0f
    301c:	00410113          	addi	x2,x2,4

# Testcase cmp_rd_rs1 (Test rd = rs1 = x22)
  RVTEST_TESTDATA_LOAD_INT(x16, x22) # load rs1: x22 = 0xc10869ad
    3020:	00082b03          	lw	x22,0(x16)
    3024:	00480813          	addi	x16,x16,4

00003028 <I_sltiu_cg_cmp_rd_rs1_b22>:
I_sltiu_cg_cmp_rd_rs1_b22:
  sltiu x22, x22, -1469 # perform operation
    3028:	a43b3b13          	sltiu	x22,x22,-1469
  # Check if x22 contains the expected result. x2 is the signature ptr, x8 is the link ptr, x7 is a temp reg.
  RVTEST_SIGUPD(x2, x8, x7, x22, I_sltiu_cg_cmp_rd_rs1_b22, I_sltiu_cg_cmp_rd_rs1_b22_str)
    302c:	00012383          	lw	x7,0(x2)
    3030:	01638863          	beq	x7,x22,3040 <I_sltiu_cg_cmp_rd_rs1_b22+0x18>
    3034:	4800046f          	jal	x8,34b4 <failedtest_x8_x7>
    3038:	00003028          	.word	0x00003028
    303c:	0000ea45          	.word	0x0000ea45
    3040:	00410113          	addi	x2,x2,4

# Testcase cmp_rd_rs1 (Test rd = rs1 = x23)
  RVTEST_TESTDATA_LOAD_INT(x16, x23) # load rs1: x23 = 0x59123e90
    3044:	00082b83          	lw	x23,0(x16)
    3048:	00480813          	addi	x16,x16,4

0000304c <I_sltiu_cg_cmp_rd_rs1_b23>:
I_sltiu_cg_cmp_rd_rs1_b23:
  sltiu x23, x23, -1570 # perform operation
    304c:	9debbb93          	sltiu	x23,x23,-1570
  # Check if x23 contains the expected result. x2 is the signature ptr, x8 is the link ptr, x7 is a temp reg.
  RVTEST_SIGUPD(x2, x8, x7, x23, I_sltiu_cg_cmp_rd_rs1_b23, I_sltiu_cg_cmp_rd_rs1_b23_str)
    3050:	00012383          	lw	x7,0(x2)
    3054:	01738863          	beq	x7,x23,3064 <I_sltiu_cg_cmp_rd_rs1_b23+0x18>
    3058:	45c0046f          	jal	x8,34b4 <failedtest_x8_x7>
    305c:	0000304c          	.word	0x0000304c
    3060:	0000ea7b          	.word	0x0000ea7b
    3064:	00410113          	addi	x2,x2,4

# Testcase cmp_rd_rs1 (Test rd = rs1 = x24)
  RVTEST_TESTDATA_LOAD_INT(x16, x24) # load rs1: x24 = 0xd13afbcd
    3068:	00082c03          	lw	x24,0(x16)
    306c:	00480813          	addi	x16,x16,4

00003070 <I_sltiu_cg_cmp_rd_rs1_b24>:
I_sltiu_cg_cmp_rd_rs1_b24:
  sltiu x24, x24, 80 # perform operation
    3070:	050c3c13          	sltiu	x24,x24,80
  # Check if x24 contains the expected result. x2 is the signature ptr, x8 is the link ptr, x7 is a temp reg.
  RVTEST_SIGUPD(x2, x8, x7, x24, I_sltiu_cg_cmp_rd_rs1_b24, I_sltiu_cg_cmp_rd_rs1_b24_str)
    3074:	00012383          	lw	x7,0(x2)
    3078:	01838863          	beq	x7,x24,3088 <I_sltiu_cg_cmp_rd_rs1_b24+0x18>
    307c:	4380046f          	jal	x8,34b4 <failedtest_x8_x7>
    3080:	00003070          	.word	0x00003070
    3084:	0000eab1          	.word	0x0000eab1
    3088:	00410113          	addi	x2,x2,4

# Testcase cmp_rd_rs1 (Test rd = rs1 = x25)
  RVTEST_TESTDATA_LOAD_INT(x16, x25) # load rs1: x25 = 0xbc6bcb60
    308c:	00082c83          	lw	x25,0(x16)
    3090:	00480813          	addi	x16,x16,4

00003094 <I_sltiu_cg_cmp_rd_rs1_b25>:
I_sltiu_cg_cmp_rd_rs1_b25:
  sltiu x25, x25, 1957 # perform operation
    3094:	7a5cbc93          	sltiu	x25,x25,1957
  # Check if x25 contains the expected result. x2 is the signature ptr, x8 is the link ptr, x7 is a temp reg.
  RVTEST_SIGUPD(x2, x8, x7, x25, I_sltiu_cg_cmp_rd_rs1_b25, I_sltiu_cg_cmp_rd_rs1_b25_str)
    3098:	00012383          	lw	x7,0(x2)
    309c:	01938863          	beq	x7,x25,30ac <I_sltiu_cg_cmp_rd_rs1_b25+0x18>
    30a0:	4140046f          	jal	x8,34b4 <failedtest_x8_x7>
    30a4:	00003094          	.word	0x00003094
    30a8:	0000eae7          	.word	0x0000eae7
    30ac:	00410113          	addi	x2,x2,4

# Testcase cmp_rd_rs1 (Test rd = rs1 = x26)
  RVTEST_TESTDATA_LOAD_INT(x16, x26) # load rs1: x26 = 0x4db6c85b
    30b0:	00082d03          	lw	x26,0(x16)
    30b4:	00480813          	addi	x16,x16,4

000030b8 <I_sltiu_cg_cmp_rd_rs1_b26>:
I_sltiu_cg_cmp_rd_rs1_b26:
  sltiu x26, x26, 1614 # perform operation
    30b8:	64ed3d13          	sltiu	x26,x26,1614
  # Check if x26 contains the expected result. x2 is the signature ptr, x8 is the link ptr, x7 is a temp reg.
  RVTEST_SIGUPD(x2, x8, x7, x26, I_sltiu_cg_cmp_rd_rs1_b26, I_sltiu_cg_cmp_rd_rs1_b26_str)
    30bc:	00012383          	lw	x7,0(x2)
    30c0:	01a38863          	beq	x7,x26,30d0 <I_sltiu_cg_cmp_rd_rs1_b26+0x18>
    30c4:	3f00046f          	jal	x8,34b4 <failedtest_x8_x7>
    30c8:	000030b8          	.word	0x000030b8
    30cc:	0000eb1d          	.word	0x0000eb1d
    30d0:	00410113          	addi	x2,x2,4

# Testcase cmp_rd_rs1 (Test rd = rs1 = x27)
  RVTEST_TESTDATA_LOAD_INT(x16, x27) # load rs1: x27 = 0x8552bb2e
    30d4:	00082d83          	lw	x27,0(x16)
    30d8:	00480813          	addi	x16,x16,4

000030dc <I_sltiu_cg_cmp_rd_rs1_b27>:
I_sltiu_cg_cmp_rd_rs1_b27:
  sltiu x27, x27, -1850 # perform operation
    30dc:	8c6dbd93          	sltiu	x27,x27,-1850
  # Check if x27 contains the expected result. x2 is the signature ptr, x8 is the link ptr, x7 is a temp reg.
  RVTEST_SIGUPD(x2, x8, x7, x27, I_sltiu_cg_cmp_rd_rs1_b27, I_sltiu_cg_cmp_rd_rs1_b27_str)
    30e0:	00012383          	lw	x7,0(x2)
    30e4:	01b38863          	beq	x7,x27,30f4 <I_sltiu_cg_cmp_rd_rs1_b27+0x18>
    30e8:	3cc0046f          	jal	x8,34b4 <failedtest_x8_x7>
    30ec:	000030dc          	.word	0x000030dc
    30f0:	0000eb53          	.word	0x0000eb53
    30f4:	00410113          	addi	x2,x2,4

# Testcase cmp_rd_rs1 (Test rd = rs1 = x28)
  RVTEST_TESTDATA_LOAD_INT(x16, x28) # load rs1: x28 = 0xd4e8fe8b
    30f8:	00082e03          	lw	x28,0(x16)
    30fc:	00480813          	addi	x16,x16,4

00003100 <I_sltiu_cg_cmp_rd_rs1_b28>:
I_sltiu_cg_cmp_rd_rs1_b28:
  sltiu x28, x28, 480 # perform operation
    3100:	1e0e3e13          	sltiu	x28,x28,480
  # Check if x28 contains the expected result. x2 is the signature ptr, x8 is the link ptr, x7 is a temp reg.
  RVTEST_SIGUPD(x2, x8, x7, x28, I_sltiu_cg_cmp_rd_rs1_b28, I_sltiu_cg_cmp_rd_rs1_b28_str)
    3104:	00012383          	lw	x7,0(x2)
    3108:	01c38863          	beq	x7,x28,3118 <I_sltiu_cg_cmp_rd_rs1_b28+0x18>
    310c:	3a80046f          	jal	x8,34b4 <failedtest_x8_x7>
    3110:	00003100          	.word	0x00003100
    3114:	0000eb89          	.word	0x0000eb89
    3118:	00410113          	addi	x2,x2,4

# Testcase cmp_rd_rs1 (Test rd = rs1 = x29)
  RVTEST_TESTDATA_LOAD_INT(x16, x29) # load rs1: x29 = 0x5213ac8f
    311c:	00082e83          	lw	x29,0(x16)
    3120:	00480813          	addi	x16,x16,4

00003124 <I_sltiu_cg_cmp_rd_rs1_b29>:
I_sltiu_cg_cmp_rd_rs1_b29:
  sltiu x29, x29, 1704 # perform operation
    3124:	6a8ebe93          	sltiu	x29,x29,1704
  # Check if x29 contains the expected result. x2 is the signature ptr, x8 is the link ptr, x7 is a temp reg.
  RVTEST_SIGUPD(x2, x8, x7, x29, I_sltiu_cg_cmp_rd_rs1_b29, I_sltiu_cg_cmp_rd_rs1_b29_str)
    3128:	00012383          	lw	x7,0(x2)
    312c:	01d38863          	beq	x7,x29,313c <I_sltiu_cg_cmp_rd_rs1_b29+0x18>
    3130:	3840046f          	jal	x8,34b4 <failedtest_x8_x7>
    3134:	00003124          	.word	0x00003124
    3138:	0000ebbf          	.word	0x0000ebbf
    313c:	00410113          	addi	x2,x2,4

# Testcase cmp_rd_rs1 (Test rd = rs1 = x30)
  RVTEST_TESTDATA_LOAD_INT(x16, x30) # load rs1: x30 = 0xa1580c25
    3140:	00082f03          	lw	x30,0(x16)
    3144:	00480813          	addi	x16,x16,4

00003148 <I_sltiu_cg_cmp_rd_rs1_b30>:
I_sltiu_cg_cmp_rd_rs1_b30:
  sltiu x30, x30, -1077 # perform operation
    3148:	bcbf3f13          	sltiu	x30,x30,-1077
  # Check if x30 contains the expected result. x2 is the signature ptr, x8 is the link ptr, x7 is a temp reg.
  RVTEST_SIGUPD(x2, x8, x7, x30, I_sltiu_cg_cmp_rd_rs1_b30, I_sltiu_cg_cmp_rd_rs1_b30_str)
    314c:	00012383          	lw	x7,0(x2)
    3150:	01e38863          	beq	x7,x30,3160 <I_sltiu_cg_cmp_rd_rs1_b30+0x18>
    3154:	3600046f          	jal	x8,34b4 <failedtest_x8_x7>
    3158:	00003148          	.word	0x00003148
    315c:	0000ebf5          	.word	0x0000ebf5
    3160:	00410113          	addi	x2,x2,4

# Testcase cmp_rd_rs1 (Test rd = rs1 = x31)
  RVTEST_TESTDATA_LOAD_INT(x16, x31) # load rs1: x31 = 0x17e77f8e
    3164:	00082f83          	lw	x31,0(x16)
    3168:	00480813          	addi	x16,x16,4

0000316c <I_sltiu_cg_cmp_rd_rs1_b31>:
I_sltiu_cg_cmp_rd_rs1_b31:
  sltiu x31, x31, 204 # perform operation
    316c:	0ccfbf93          	sltiu	x31,x31,204
  # Check if x31 contains the expected result. x2 is the signature ptr, x8 is the link ptr, x7 is a temp reg.
  RVTEST_SIGUPD(x2, x8, x7, x31, I_sltiu_cg_cmp_rd_rs1_b31, I_sltiu_cg_cmp_rd_rs1_b31_str)
    3170:	00012383          	lw	x7,0(x2)
    3174:	01f38863          	beq	x7,x31,3184 <I_sltiu_cg_cmp_rd_rs1_b31+0x18>
    3178:	33c0046f          	jal	x8,34b4 <failedtest_x8_x7>
    317c:	0000316c          	.word	0x0000316c
    3180:	0000ec2b          	.word	0x0000ec2b
    3184:	00410113          	addi	x2,x2,4
/////////////////////////////////
// cp_imm_edges
/////////////////////////////////

# Testcase cp_imm_edges (imm = 0)
  RVTEST_TESTDATA_LOAD_INT(x16, x29) # load rs1: x29 = 0x40098e00
    3188:	00082e83          	lw	x29,0(x16)
    318c:	00480813          	addi	x16,x16,4

00003190 <I_sltiu_cg_cp_imm_edges_0x0>:
I_sltiu_cg_cp_imm_edges_0x0:
  sltiu x4, x29, 0 # perform operation
    3190:	000eb213          	sltiu	x4,x29,0
  # Check if x4 contains the expected result. x2 is the signature ptr, x8 is the link ptr, x7 is a temp reg.
  RVTEST_SIGUPD(x2, x8, x7, x4, I_sltiu_cg_cp_imm_edges_0x0, I_sltiu_cg_cp_imm_edges_0x0_str)
    3194:	00012383          	lw	x7,0(x2)
    3198:	00438863          	beq	x7,x4,31a8 <I_sltiu_cg_cp_imm_edges_0x0+0x18>
    319c:	3180046f          	jal	x8,34b4 <failedtest_x8_x7>
    31a0:	00003190          	.word	0x00003190
    31a4:	0000ec61          	.word	0x0000ec61
    31a8:	00410113          	addi	x2,x2,4

# Testcase cp_imm_edges (imm = 1)
  RVTEST_TESTDATA_LOAD_INT(x16, x27) # load rs1: x27 = 0xa3d8ac2d
    31ac:	00082d83          	lw	x27,0(x16)
    31b0:	00480813          	addi	x16,x16,4

000031b4 <I_sltiu_cg_cp_imm_edges_0x1>:
I_sltiu_cg_cp_imm_edges_0x1:
  sltiu x23, x27, 1 # perform operation
    31b4:	001dbb93          	sltiu	x23,x27,1
  # Check if x23 contains the expected result. x2 is the signature ptr, x8 is the link ptr, x7 is a temp reg.
  RVTEST_SIGUPD(x2, x8, x7, x23, I_sltiu_cg_cp_imm_edges_0x1, I_sltiu_cg_cp_imm_edges_0x1_str)
    31b8:	00012383          	lw	x7,0(x2)
    31bc:	01738863          	beq	x7,x23,31cc <I_sltiu_cg_cp_imm_edges_0x1+0x18>
    31c0:	2f40046f          	jal	x8,34b4 <failedtest_x8_x7>
    31c4:	000031b4          	.word	0x000031b4
    31c8:	0000ec99          	.word	0x0000ec99
    31cc:	00410113          	addi	x2,x2,4

# Testcase cp_imm_edges (imm = 2)
  RVTEST_TESTDATA_LOAD_INT(x16, x4) # load rs1: x4 = 0xcee61c09
    31d0:	00082203          	lw	x4,0(x16)
    31d4:	00480813          	addi	x16,x16,4

000031d8 <I_sltiu_cg_cp_imm_edges_0x2>:
I_sltiu_cg_cp_imm_edges_0x2:
  sltiu x23, x4, 2 # perform operation
    31d8:	00223b93          	sltiu	x23,x4,2
  # Check if x23 contains the expected result. x2 is the signature ptr, x8 is the link ptr, x7 is a temp reg.
  RVTEST_SIGUPD(x2, x8, x7, x23, I_sltiu_cg_cp_imm_edges_0x2, I_sltiu_cg_cp_imm_edges_0x2_str)
    31dc:	00012383          	lw	x7,0(x2)
    31e0:	01738863          	beq	x7,x23,31f0 <I_sltiu_cg_cp_imm_edges_0x2+0x18>
    31e4:	2d00046f          	jal	x8,34b4 <failedtest_x8_x7>
    31e8:	000031d8          	.word	0x000031d8
    31ec:	0000ecd1          	.word	0x0000ecd1
    31f0:	00410113          	addi	x2,x2,4

# Testcase cp_imm_edges (imm = 3)
  RVTEST_TESTDATA_LOAD_INT(x16, x3) # load rs1: x3 = 0x034efe4e
    31f4:	00082183          	lw	x3,0(x16)
    31f8:	00480813          	addi	x16,x16,4

000031fc <I_sltiu_cg_cp_imm_edges_0x3>:
I_sltiu_cg_cp_imm_edges_0x3:
  sltiu x11, x3, 3 # perform operation
    31fc:	0031b593          	sltiu	x11,x3,3
  # Check if x11 contains the expected result. x2 is the signature ptr, x8 is the link ptr, x7 is a temp reg.
  RVTEST_SIGUPD(x2, x8, x7, x11, I_sltiu_cg_cp_imm_edges_0x3, I_sltiu_cg_cp_imm_edges_0x3_str)
    3200:	00012383          	lw	x7,0(x2)
    3204:	00b38863          	beq	x7,x11,3214 <I_sltiu_cg_cp_imm_edges_0x3+0x18>
    3208:	2ac0046f          	jal	x8,34b4 <failedtest_x8_x7>
    320c:	000031fc          	.word	0x000031fc
    3210:	0000ed09          	.word	0x0000ed09
    3214:	00410113          	addi	x2,x2,4

# Testcase cp_imm_edges (imm = 4)
  RVTEST_TESTDATA_LOAD_INT(x16, x31) # load rs1: x31 = 0x4431c8e5
    3218:	00082f83          	lw	x31,0(x16)
    321c:	00480813          	addi	x16,x16,4

00003220 <I_sltiu_cg_cp_imm_edges_0x4>:
I_sltiu_cg_cp_imm_edges_0x4:
  sltiu x23, x31, 4 # perform operation
    3220:	004fbb93          	sltiu	x23,x31,4
  # Check if x23 contains the expected result. x2 is the signature ptr, x8 is the link ptr, x7 is a temp reg.
  RVTEST_SIGUPD(x2, x8, x7, x23, I_sltiu_cg_cp_imm_edges_0x4, I_sltiu_cg_cp_imm_edges_0x4_str)
    3224:	00012383          	lw	x7,0(x2)
    3228:	01738863          	beq	x7,x23,3238 <I_sltiu_cg_cp_imm_edges_0x4+0x18>
    322c:	2880046f          	jal	x8,34b4 <failedtest_x8_x7>
    3230:	00003220          	.word	0x00003220
    3234:	0000ed41          	.word	0x0000ed41
    3238:	00410113          	addi	x2,x2,4

# Testcase cp_imm_edges (imm = 8)
  RVTEST_TESTDATA_LOAD_INT(x16, x25) # load rs1: x25 = 0xb29a403f
    323c:	00082c83          	lw	x25,0(x16)
    3240:	00480813          	addi	x16,x16,4

00003244 <I_sltiu_cg_cp_imm_edges_0x8>:
I_sltiu_cg_cp_imm_edges_0x8:
  sltiu x1, x25, 8 # perform operation
    3244:	008cb093          	sltiu	x1,x25,8
  # Check if x1 contains the expected result. x2 is the signature ptr, x8 is the link ptr, x7 is a temp reg.
  RVTEST_SIGUPD(x2, x8, x7, x1, I_sltiu_cg_cp_imm_edges_0x8, I_sltiu_cg_cp_imm_edges_0x8_str)
    3248:	00012383          	lw	x7,0(x2)
    324c:	00138863          	beq	x7,x1,325c <I_sltiu_cg_cp_imm_edges_0x8+0x18>
    3250:	2640046f          	jal	x8,34b4 <failedtest_x8_x7>
    3254:	00003244          	.word	0x00003244
    3258:	0000ed79          	.word	0x0000ed79
    325c:	00410113          	addi	x2,x2,4

# Testcase cp_imm_edges (imm = 16)
  RVTEST_TESTDATA_LOAD_INT(x16, x14) # load rs1: x14 = 0x52d6211a
    3260:	00082703          	lw	x14,0(x16)
    3264:	00480813          	addi	x16,x16,4

00003268 <I_sltiu_cg_cp_imm_edges_0x10>:
I_sltiu_cg_cp_imm_edges_0x10:
  sltiu x5, x14, 16 # perform operation
    3268:	01073293          	sltiu	x5,x14,16
  # Check if x5 contains the expected result. x2 is the signature ptr, x8 is the link ptr, x7 is a temp reg.
  RVTEST_SIGUPD(x2, x8, x7, x5, I_sltiu_cg_cp_imm_edges_0x10, I_sltiu_cg_cp_imm_edges_0x10_str)
    326c:	00012383          	lw	x7,0(x2)
    3270:	00538863          	beq	x7,x5,3280 <I_sltiu_cg_cp_imm_edges_0x10+0x18>
    3274:	2400046f          	jal	x8,34b4 <failedtest_x8_x7>
    3278:	00003268          	.word	0x00003268
    327c:	0000edb1          	.word	0x0000edb1
    3280:	00410113          	addi	x2,x2,4

# Testcase cp_imm_edges (imm = 32)
  RVTEST_TESTDATA_LOAD_INT(x16, x21) # load rs1: x21 = 0x8d8c0637
    3284:	00082a83          	lw	x21,0(x16)
    3288:	00480813          	addi	x16,x16,4

0000328c <I_sltiu_cg_cp_imm_edges_0x20>:
I_sltiu_cg_cp_imm_edges_0x20:
  sltiu x9, x21, 32 # perform operation
    328c:	020ab493          	sltiu	x9,x21,32
  # Check if x9 contains the expected result. x2 is the signature ptr, x8 is the link ptr, x7 is a temp reg.
  RVTEST_SIGUPD(x2, x8, x7, x9, I_sltiu_cg_cp_imm_edges_0x20, I_sltiu_cg_cp_imm_edges_0x20_str)
    3290:	00012383          	lw	x7,0(x2)
    3294:	00938863          	beq	x7,x9,32a4 <I_sltiu_cg_cp_imm_edges_0x20+0x18>
    3298:	21c0046f          	jal	x8,34b4 <failedtest_x8_x7>
    329c:	0000328c          	.word	0x0000328c
    32a0:	0000edea          	.word	0x0000edea
    32a4:	00410113          	addi	x2,x2,4

# Testcase cp_imm_edges (imm = 64)
  RVTEST_TESTDATA_LOAD_INT(x16, x4) # load rs1: x4 = 0x9aa10edd
    32a8:	00082203          	lw	x4,0(x16)
    32ac:	00480813          	addi	x16,x16,4

000032b0 <I_sltiu_cg_cp_imm_edges_0x40>:
I_sltiu_cg_cp_imm_edges_0x40:
  sltiu x15, x4, 64 # perform operation
    32b0:	04023793          	sltiu	x15,x4,64
  # Check if x15 contains the expected result. x2 is the signature ptr, x8 is the link ptr, x7 is a temp reg.
  RVTEST_SIGUPD(x2, x8, x7, x15, I_sltiu_cg_cp_imm_edges_0x40, I_sltiu_cg_cp_imm_edges_0x40_str)
    32b4:	00012383          	lw	x7,0(x2)
    32b8:	00f38863          	beq	x7,x15,32c8 <I_sltiu_cg_cp_imm_edges_0x40+0x18>
    32bc:	1f80046f          	jal	x8,34b4 <failedtest_x8_x7>
    32c0:	000032b0          	.word	0x000032b0
    32c4:	0000ee23          	.word	0x0000ee23
    32c8:	00410113          	addi	x2,x2,4

# Testcase cp_imm_edges (imm = 128)
  RVTEST_TESTDATA_LOAD_INT(x16, x9) # load rs1: x9 = 0xf88579da
    32cc:	00082483          	lw	x9,0(x16)
    32d0:	00480813          	addi	x16,x16,4

000032d4 <I_sltiu_cg_cp_imm_edges_0x80>:
I_sltiu_cg_cp_imm_edges_0x80:
  sltiu x5, x9, 128 # perform operation
    32d4:	0804b293          	sltiu	x5,x9,128
  # Check if x5 contains the expected result. x2 is the signature ptr, x8 is the link ptr, x7 is a temp reg.
  RVTEST_SIGUPD(x2, x8, x7, x5, I_sltiu_cg_cp_imm_edges_0x80, I_sltiu_cg_cp_imm_edges_0x80_str)
    32d8:	00012383          	lw	x7,0(x2)
    32dc:	00538863          	beq	x7,x5,32ec <I_sltiu_cg_cp_imm_edges_0x80+0x18>
    32e0:	1d40046f          	jal	x8,34b4 <failedtest_x8_x7>
    32e4:	000032d4          	.word	0x000032d4
    32e8:	0000ee5c          	.word	0x0000ee5c
    32ec:	00410113          	addi	x2,x2,4

# Testcase cp_imm_edges (imm = 256)
  RVTEST_TESTDATA_LOAD_INT(x16, x21) # load rs1: x21 = 0x9a2785fd
    32f0:	00082a83          	lw	x21,0(x16)
    32f4:	00480813          	addi	x16,x16,4

000032f8 <I_sltiu_cg_cp_imm_edges_0x100>:
I_sltiu_cg_cp_imm_edges_0x100:
  sltiu x17, x21, 256 # perform operation
    32f8:	100ab893          	sltiu	x17,x21,256
  # Check if x17 contains the expected result. x2 is the signature ptr, x8 is the link ptr, x7 is a temp reg.
  RVTEST_SIGUPD(x2, x8, x7, x17, I_sltiu_cg_cp_imm_edges_0x100, I_sltiu_cg_cp_imm_edges_0x100_str)
    32fc:	00012383          	lw	x7,0(x2)
    3300:	01138863          	beq	x7,x17,3310 <I_sltiu_cg_cp_imm_edges_0x100+0x18>
    3304:	1b00046f          	jal	x8,34b4 <failedtest_x8_x7>
    3308:	000032f8          	.word	0x000032f8
    330c:	0000ee95          	.word	0x0000ee95
    3310:	00410113          	addi	x2,x2,4

# Testcase cp_imm_edges (imm = 512)
  RVTEST_TESTDATA_LOAD_INT(x16, x18) # load rs1: x18 = 0x34177acd
    3314:	00082903          	lw	x18,0(x16)
    3318:	00480813          	addi	x16,x16,4

0000331c <I_sltiu_cg_cp_imm_edges_0x200>:
I_sltiu_cg_cp_imm_edges_0x200:
  sltiu x13, x18, 512 # perform operation
    331c:	20093693          	sltiu	x13,x18,512
  # Check if x13 contains the expected result. x2 is the signature ptr, x8 is the link ptr, x7 is a temp reg.
  RVTEST_SIGUPD(x2, x8, x7, x13, I_sltiu_cg_cp_imm_edges_0x200, I_sltiu_cg_cp_imm_edges_0x200_str)
    3320:	00012383          	lw	x7,0(x2)
    3324:	00d38863          	beq	x7,x13,3334 <I_sltiu_cg_cp_imm_edges_0x200+0x18>
    3328:	18c0046f          	jal	x8,34b4 <failedtest_x8_x7>
    332c:	0000331c          	.word	0x0000331c
    3330:	0000eecf          	.word	0x0000eecf
    3334:	00410113          	addi	x2,x2,4

# Testcase cp_imm_edges (imm = 1023)
  RVTEST_TESTDATA_LOAD_INT(x16, x10) # load rs1: x10 = 0xb51eefd2
    3338:	00082503          	lw	x10,0(x16)
    333c:	00480813          	addi	x16,x16,4

00003340 <I_sltiu_cg_cp_imm_edges_0x3ff>:
I_sltiu_cg_cp_imm_edges_0x3ff:
  sltiu x27, x10, 1023 # perform operation
    3340:	3ff53d93          	sltiu	x27,x10,1023
  # Check if x27 contains the expected result. x2 is the signature ptr, x8 is the link ptr, x7 is a temp reg.
  RVTEST_SIGUPD(x2, x8, x7, x27, I_sltiu_cg_cp_imm_edges_0x3ff, I_sltiu_cg_cp_imm_edges_0x3ff_str)
    3344:	00012383          	lw	x7,0(x2)
    3348:	01b38863          	beq	x7,x27,3358 <I_sltiu_cg_cp_imm_edges_0x3ff+0x18>
    334c:	1680046f          	jal	x8,34b4 <failedtest_x8_x7>
    3350:	00003340          	.word	0x00003340
    3354:	0000ef09          	.word	0x0000ef09
    3358:	00410113          	addi	x2,x2,4

# Testcase cp_imm_edges (imm = 1024)
  RVTEST_TESTDATA_LOAD_INT(x16, x5) # load rs1: x5 = 0xc7a9d5fe
    335c:	00082283          	lw	x5,0(x16)
    3360:	00480813          	addi	x16,x16,4

00003364 <I_sltiu_cg_cp_imm_edges_0x400>:
I_sltiu_cg_cp_imm_edges_0x400:
  sltiu x20, x5, 1024 # perform operation
    3364:	4002ba13          	sltiu	x20,x5,1024
  # Check if x20 contains the expected result. x2 is the signature ptr, x8 is the link ptr, x7 is a temp reg.
  RVTEST_SIGUPD(x2, x8, x7, x20, I_sltiu_cg_cp_imm_edges_0x400, I_sltiu_cg_cp_imm_edges_0x400_str)
    3368:	00012383          	lw	x7,0(x2)
    336c:	01438863          	beq	x7,x20,337c <I_sltiu_cg_cp_imm_edges_0x400+0x18>
    3370:	1440046f          	jal	x8,34b4 <failedtest_x8_x7>
    3374:	00003364          	.word	0x00003364
    3378:	0000ef43          	.word	0x0000ef43
    337c:	00410113          	addi	x2,x2,4

# Testcase cp_imm_edges (imm = 1795)
  RVTEST_TESTDATA_LOAD_INT(x16, x21) # load rs1: x21 = 0x103e153c
    3380:	00082a83          	lw	x21,0(x16)
    3384:	00480813          	addi	x16,x16,4

00003388 <I_sltiu_cg_cp_imm_edges_0x703>:
I_sltiu_cg_cp_imm_edges_0x703:
  sltiu x31, x21, 1795 # perform operation
    3388:	703abf93          	sltiu	x31,x21,1795
  # Check if x31 contains the expected result. x2 is the signature ptr, x8 is the link ptr, x7 is a temp reg.
  RVTEST_SIGUPD(x2, x8, x7, x31, I_sltiu_cg_cp_imm_edges_0x703, I_sltiu_cg_cp_imm_edges_0x703_str)
    338c:	00012383          	lw	x7,0(x2)
    3390:	01f38863          	beq	x7,x31,33a0 <I_sltiu_cg_cp_imm_edges_0x703+0x18>
    3394:	1200046f          	jal	x8,34b4 <failedtest_x8_x7>
    3398:	00003388          	.word	0x00003388
    339c:	0000ef7d          	.word	0x0000ef7d
    33a0:	00410113          	addi	x2,x2,4

# Testcase cp_imm_edges (imm = 2047)
  RVTEST_TESTDATA_LOAD_INT(x16, x22) # load rs1: x22 = 0x5bda1c2b
    33a4:	00082b03          	lw	x22,0(x16)
    33a8:	00480813          	addi	x16,x16,4

000033ac <I_sltiu_cg_cp_imm_edges_0x7ff>:
I_sltiu_cg_cp_imm_edges_0x7ff:
  sltiu x29, x22, 2047 # perform operation
    33ac:	7ffb3e93          	sltiu	x29,x22,2047
  # Check if x29 contains the expected result. x2 is the signature ptr, x8 is the link ptr, x7 is a temp reg.
  RVTEST_SIGUPD(x2, x8, x7, x29, I_sltiu_cg_cp_imm_edges_0x7ff, I_sltiu_cg_cp_imm_edges_0x7ff_str)
    33b0:	00012383          	lw	x7,0(x2)
    33b4:	01d38863          	beq	x7,x29,33c4 <I_sltiu_cg_cp_imm_edges_0x7ff+0x18>
    33b8:	0fc0046f          	jal	x8,34b4 <failedtest_x8_x7>
    33bc:	000033ac          	.word	0x000033ac
    33c0:	0000efb7          	.word	0x0000efb7
    33c4:	00410113          	addi	x2,x2,4

# Testcase cp_imm_edges (imm = -2048)
  RVTEST_TESTDATA_LOAD_INT(x16, x22) # load rs1: x22 = 0x4b03a6d5
    33c8:	00082b03          	lw	x22,0(x16)
    33cc:	00480813          	addi	x16,x16,4

000033d0 <I_sltiu_cg_cp_imm_edges_m0x800>:
I_sltiu_cg_cp_imm_edges_m0x800:
  sltiu x1, x22, -2048 # perform operation
    33d0:	800b3093          	sltiu	x1,x22,-2048
  # Check if x1 contains the expected result. x2 is the signature ptr, x8 is the link ptr, x7 is a temp reg.
  RVTEST_SIGUPD(x2, x8, x7, x1, I_sltiu_cg_cp_imm_edges_m0x800, I_sltiu_cg_cp_imm_edges_m0x800_str)
    33d4:	00012383          	lw	x7,0(x2)
    33d8:	00138863          	beq	x7,x1,33e8 <I_sltiu_cg_cp_imm_edges_m0x800+0x18>
    33dc:	0d80046f          	jal	x8,34b4 <failedtest_x8_x7>
    33e0:	000033d0          	.word	0x000033d0
    33e4:	0000eff1          	.word	0x0000eff1
    33e8:	00410113          	addi	x2,x2,4

# Testcase cp_imm_edges (imm = -2047)
  RVTEST_TESTDATA_LOAD_INT(x16, x12) # load rs1: x12 = 0x503e96d3
    33ec:	00082603          	lw	x12,0(x16)
    33f0:	00480813          	addi	x16,x16,4

000033f4 <I_sltiu_cg_cp_imm_edges_m0x7ff>:
I_sltiu_cg_cp_imm_edges_m0x7ff:
  sltiu x28, x12, -2047 # perform operation
    33f4:	80163e13          	sltiu	x28,x12,-2047
  # Check if x28 contains the expected result. x2 is the signature ptr, x8 is the link ptr, x7 is a temp reg.
  RVTEST_SIGUPD(x2, x8, x7, x28, I_sltiu_cg_cp_imm_edges_m0x7ff, I_sltiu_cg_cp_imm_edges_m0x7ff_str)
    33f8:	00012383          	lw	x7,0(x2)
    33fc:	01c38863          	beq	x7,x28,340c <I_sltiu_cg_cp_imm_edges_m0x7ff+0x18>
    3400:	0b40046f          	jal	x8,34b4 <failedtest_x8_x7>
    3404:	000033f4          	.word	0x000033f4
    3408:	0000f02c          	.word	0x0000f02c
    340c:	00410113          	addi	x2,x2,4

# Testcase cp_imm_edges (imm = -2)
  RVTEST_TESTDATA_LOAD_INT(x16, x27) # load rs1: x27 = 0xf080f921
    3410:	00082d83          	lw	x27,0(x16)
    3414:	00480813          	addi	x16,x16,4

00003418 <I_sltiu_cg_cp_imm_edges_m0x2>:
I_sltiu_cg_cp_imm_edges_m0x2:
  sltiu x28, x27, -2 # perform operation
    3418:	ffedbe13          	sltiu	x28,x27,-2
  # Check if x28 contains the expected result. x2 is the signature ptr, x8 is the link ptr, x7 is a temp reg.
  RVTEST_SIGUPD(x2, x8, x7, x28, I_sltiu_cg_cp_imm_edges_m0x2, I_sltiu_cg_cp_imm_edges_m0x2_str)
    341c:	00012383          	lw	x7,0(x2)
    3420:	01c38863          	beq	x7,x28,3430 <I_sltiu_cg_cp_imm_edges_m0x2+0x18>
    3424:	0900046f          	jal	x8,34b4 <failedtest_x8_x7>
    3428:	00003418          	.word	0x00003418
    342c:	0000f067          	.word	0x0000f067
    3430:	00410113          	addi	x2,x2,4

# Testcase cp_imm_edges (imm = -1)
  RVTEST_TESTDATA_LOAD_INT(x16, x11) # load rs1: x11 = 0x2b1b57e4
    3434:	00082583          	lw	x11,0(x16)
    3438:	00480813          	addi	x16,x16,4

0000343c <I_sltiu_cg_cp_imm_edges_m0x1>:
I_sltiu_cg_cp_imm_edges_m0x1:
  sltiu x23, x11, -1 # perform operation
    343c:	fff5bb93          	sltiu	x23,x11,-1
  # Check if x23 contains the expected result. x2 is the signature ptr, x8 is the link ptr, x7 is a temp reg.
  RVTEST_SIGUPD(x2, x8, x7, x23, I_sltiu_cg_cp_imm_edges_m0x1, I_sltiu_cg_cp_imm_edges_m0x1_str)
    3440:	00012383          	lw	x7,0(x2)
    3444:	01738863          	beq	x7,x23,3454 <I_sltiu_cg_cp_imm_edges_m0x1+0x18>
    3448:	06c0046f          	jal	x8,34b4 <failedtest_x8_x7>
    344c:	0000343c          	.word	0x0000343c
    3450:	0000f0a0          	.word	0x0000f0a0
    3454:	00410113          	addi	x2,x2,4

00003458 <cleanup_epilogs>:
    3458:	00000013          	addi	x0,x0,0
    345c:	00000013          	addi	x0,x0,0

// Instantiate trap handlers and other epilog code, call RVMODEL_HALT at end of test
RVTEST_CODE_END
    3460:	0000c517          	auipc	x10,0xc
    3464:	2e450513          	addi	x10,x10,740 # f744 <successstr>
    3468:	00000013          	addi	x0,x0,0
    346c:	00000013          	addi	x0,x0,0
    3470:	00000013          	addi	x0,x0,0
    3474:	00000013          	addi	x0,x0,0
    3478:	00000013          	addi	x0,x0,0
    347c:	00000013          	addi	x0,x0,0
    3480:	0001d097          	auipc	x1,0x1d
    3484:	d84080e7          	jalr	x1,-636(x1) # 20204 <rvmodel_io_write_str>
    3488:	0001d097          	auipc	x1,0x1d
    348c:	d80080e7          	jalr	x1,-640(x1) # 20208 <rvmodel_halt_pass>

00003490 <abort_test>:
    3490:	bad0e737          	lui	x14,0xbad0e
    3494:	ead70713          	addi	x14,x14,-339 # bad0dead <absimm+0x4b743ba4>
    3498:	fc1ff06f          	jal	x0,3458 <cleanup_epilogs>

0000349c <failedtest_x5_x4>:
    349c:	0000c217          	auipc	x4,0xc
    34a0:	c4420213          	addi	x4,x4,-956 # f0e0 <begin_failure_scratch>
    34a4:	02522423          	sw	x5,40(x4) # 28 <MMODE_SIG+0x25>
    34a8:	00122423          	sw	x1,8(x4) # 8 <MMODE_SIG+0x5>
    34ac:	00022023          	sw	x0,0(x4) # 0 <rvtest_entry_point>
    34b0:	0b00006f          	jal	x0,3560 <failedtest_saveregs>

000034b4 <failedtest_x8_x7>:
    34b4:	0000c397          	auipc	x7,0xc
    34b8:	c2c38393          	addi	x7,x7,-980 # f0e0 <begin_failure_scratch>
    34bc:	0483a023          	sw	x8,64(x7)
    34c0:	0243a023          	sw	x4,32(x7)
    34c4:	0253a423          	sw	x5,40(x7)
    34c8:	0013a423          	sw	x1,8(x7)
    34cc:	0003a023          	sw	x0,0(x7)
    34d0:	00038213          	addi	x4,x7,0
    34d4:	00040293          	addi	x5,x8,0
    34d8:	0880006f          	jal	x0,3560 <failedtest_saveregs>

000034dc <failedtest_x14_x13>:
    34dc:	0000c697          	auipc	x13,0xc
    34e0:	c0468693          	addi	x13,x13,-1020 # f0e0 <begin_failure_scratch>
    34e4:	06e6a823          	sw	x14,112(x13)
    34e8:	0246a023          	sw	x4,32(x13)
    34ec:	0256a423          	sw	x5,40(x13)
    34f0:	0016a423          	sw	x1,8(x13)
    34f4:	0006a023          	sw	x0,0(x13)
    34f8:	00068213          	addi	x4,x13,0
    34fc:	00070293          	addi	x5,x14,0
    3500:	0600006f          	jal	x0,3560 <failedtest_saveregs>

00003504 <failedtest_trap_x7_x9>:
    3504:	0000c497          	auipc	x9,0xc
    3508:	bdc48493          	addi	x9,x9,-1060 # f0e0 <begin_failure_scratch>
    350c:	0674a423          	sw	x7,104(x9)
    3510:	0244a023          	sw	x4,32(x9)
    3514:	0254a423          	sw	x5,40(x9)
    3518:	0014a423          	sw	x1,8(x9)
    351c:	00300093          	addi	x1,x0,3
    3520:	0014a023          	sw	x1,0(x9)
    3524:	00048213          	addi	x4,x9,0
    3528:	00038293          	addi	x5,x7,0
    352c:	342020f3          	csrrs	x1,mcause,x0
    3530:	0000c497          	auipc	x9,0xc
    3534:	d2048493          	addi	x9,x9,-736 # f250 <saved_mcause>
    3538:	0014a023          	sw	x1,0(x9)
    353c:	343020f3          	csrrs	x1,mtval,x0
    3540:	0000c497          	auipc	x9,0xc
    3544:	d1848493          	addi	x9,x9,-744 # f258 <saved_mtval>
    3548:	0014a023          	sw	x1,0(x9)
    354c:	300020f3          	csrrs	x1,mstatus,x0
    3550:	0000c497          	auipc	x9,0xc
    3554:	d1048493          	addi	x9,x9,-752 # f260 <saved_mstatus>
    3558:	0014a023          	sw	x1,0(x9)
    355c:	0040006f          	jal	x0,3560 <failedtest_saveregs>

00003560 <failedtest_saveregs>:
    3560:	00222823          	sw	x2,16(x4) # 10 <MMODE_SIG+0xd>
    3564:	00322c23          	sw	x3,24(x4) # 18 <MMODE_SIG+0x15>
    3568:	02622823          	sw	x6,48(x4) # 30 <MMODE_SIG+0x2d>
    356c:	02722c23          	sw	x7,56(x4) # 38 <MMODE_SIG+0x35>
    3570:	04822023          	sw	x8,64(x4) # 40 <rvtest_code_begin>
    3574:	04922423          	sw	x9,72(x4) # 48 <I_sltiu_cg_cp_rs1_b0>
    3578:	04a22823          	sw	x10,80(x4) # 50 <I_sltiu_cg_cp_rs1_b0+0x8>
    357c:	04b22c23          	sw	x11,88(x4) # 58 <I_sltiu_cg_cp_rs1_b0+0x10>
    3580:	06c22023          	sw	x12,96(x4) # 60 <I_sltiu_cg_cp_rs1_b0+0x18>
    3584:	06d22423          	sw	x13,104(x4) # 68 <I_sltiu_cg_cp_rs1_b0+0x20>
    3588:	06e22823          	sw	x14,112(x4) # 70 <I_sltiu_cg_cp_rs1_b1+0x4>
    358c:	06f22c23          	sw	x15,120(x4) # 78 <I_sltiu_cg_cp_rs1_b1+0xc>
    3590:	09022023          	sw	x16,128(x4) # 80 <I_sltiu_cg_cp_rs1_b1+0x14>
    3594:	09122423          	sw	x17,136(x4) # 88 <I_sltiu_cg_cp_rs1_b1+0x1c>
    3598:	09222823          	sw	x18,144(x4) # 90 <I_sltiu_cg_cp_rs1_b1+0x24>
    359c:	09322c23          	sw	x19,152(x4) # 98 <I_sltiu_cg_cp_rs1_b2+0x4>
    35a0:	0b422023          	sw	x20,160(x4) # a0 <I_sltiu_cg_cp_rs1_b2+0xc>
    35a4:	0b522423          	sw	x21,168(x4) # a8 <I_sltiu_cg_cp_rs1_b2+0x14>
    35a8:	0b622823          	sw	x22,176(x4) # b0 <I_sltiu_cg_cp_rs1_b2+0x1c>
    35ac:	0b722c23          	sw	x23,184(x4) # b8 <I_sltiu_cg_cp_rs1_b2+0x24>
    35b0:	0d822023          	sw	x24,192(x4) # c0 <I_sltiu_cg_cp_rs1_b3+0x4>
    35b4:	0d922423          	sw	x25,200(x4) # c8 <I_sltiu_cg_cp_rs1_b3+0xc>
    35b8:	0da22823          	sw	x26,208(x4) # d0 <I_sltiu_cg_cp_rs1_b3+0x14>
    35bc:	0db22c23          	sw	x27,216(x4) # d8 <I_sltiu_cg_cp_rs1_b3+0x1c>
    35c0:	0fc22023          	sw	x28,224(x4) # e0 <I_sltiu_cg_cp_rs1_b3+0x24>
    35c4:	0fd22423          	sw	x29,232(x4) # e8 <I_sltiu_cg_cp_rs1_b4>
    35c8:	0fe22823          	sw	x30,240(x4) # f0 <I_sltiu_cg_cp_rs1_b4+0x8>
    35cc:	0ff22c23          	sw	x31,248(x4) # f8 <I_sltiu_cg_cp_rs1_b4+0x10>

000035d0 <failedtest_saveresults>:
    35d0:	0000c497          	auipc	x9,0xc
    35d4:	b104a483          	lw	x9,-1264(x9) # f0e0 <begin_failure_scratch>
    35d8:	00300513          	addi	x10,x0,3
    35dc:	06a48863          	beq	x9,x10,364c <failedtest_saveresults_trap>

000035e0 <failedtest_saveresults_int>:
    35e0:	ffa2d303          	lhu	x6,-6(x5)
    35e4:	ff82d383          	lhu	x7,-8(x5)
    35e8:	01031313          	slli	x6,x6,0x10
    35ec:	00736333          	or	x6,x6,x7
    35f0:	00f35393          	srli	x7,x6,0xf
    35f4:	01f3f393          	andi	x7,x7,31
    35f8:	01435413          	srli	x8,x6,0x14
    35fc:	01f47413          	andi	x8,x8,31
    3600:	10822223          	sw	x8,260(x4) # 104 <I_sltiu_cg_cp_rs1_b4+0x1c>
    3604:	00341313          	slli	x6,x8,0x3
    3608:	00620333          	add	x6,x4,x6
    360c:	00032303          	lw	x6,0(x6)
    3610:	10622823          	sw	x6,272(x4) # 110 <I_sltiu_cg_cp_rs1_b5+0x4>
    3614:	ff62d303          	lhu	x6,-10(x5)
    3618:	ff42d383          	lhu	x7,-12(x5)
    361c:	01031313          	slli	x6,x6,0x10
    3620:	00736333          	or	x6,x6,x7
    3624:	41435393          	srai	x7,x6,0x14
    3628:	00f35313          	srli	x6,x6,0xf
    362c:	01f37313          	andi	x6,x6,31
    3630:	00331313          	slli	x6,x6,0x3
    3634:	00620333          	add	x6,x4,x6
    3638:	00032303          	lw	x6,0(x6)
    363c:	00730333          	add	x6,x6,x7
    3640:	00032303          	lw	x6,0(x6)
    3644:	10622c23          	sw	x6,280(x4) # 118 <I_sltiu_cg_cp_rs1_b5+0xc>
    3648:	3d80006f          	jal	x0,3a20 <failedtest_saveresults_common>

0000364c <failedtest_saveresults_trap>:
    364c:	0042a303          	lw	x6,4(x5)
    3650:	0000c817          	auipc	x16,0xc
    3654:	be880813          	addi	x16,x16,-1048 # f238 <trap_diag_fail_str_ptr>
    3658:	00682023          	sw	x6,0(x16)
    365c:	0002a303          	lw	x6,0(x5)
    3660:	10622423          	sw	x6,264(x4) # 108 <I_sltiu_cg_cp_rs1_b4+0x20>
    3664:	0000c817          	auipc	x16,0xc
    3668:	bd480813          	addi	x16,x16,-1068 # f238 <trap_diag_fail_str_ptr>
    366c:	00082303          	lw	x6,0(x16)
    3670:	0000c397          	auipc	x7,0xc
    3674:	29e38393          	addi	x7,x7,670 # f90e <trap_sig_offset_mismatch>
    3678:	28730463          	beq	x6,x7,3900 <trap_diag_offset_mismatch>
    367c:	00000413          	addi	x8,x0,0
    3680:	0000c817          	auipc	x16,0xc
    3684:	b9080813          	addi	x16,x16,-1136 # f210 <trap_diag_subtype>
    3688:	00882023          	sw	x8,0(x16)
    368c:	0000c397          	auipc	x7,0xc
    3690:	2e638393          	addi	x7,x7,742 # f972 <sv_Mvect_str>
    3694:	00731863          	bne	x6,x7,36a4 <failedtest_saveresults_trap+0x58>
    3698:	00100413          	addi	x8,x0,1
    369c:	00000493          	addi	x9,x0,0
    36a0:	2e00006f          	jal	x0,3980 <trap_diag_field_identified>
    36a4:	0000c397          	auipc	x7,0xc
    36a8:	3d038393          	addi	x7,x7,976 # fa74 <sv_Mcause_str>
    36ac:	00731863          	bne	x6,x7,36bc <failedtest_saveresults_trap+0x70>
    36b0:	00200413          	addi	x8,x0,2
    36b4:	00000493          	addi	x9,x0,0
    36b8:	2c80006f          	jal	x0,3980 <trap_diag_field_identified>
    36bc:	0000c397          	auipc	x7,0xc
    36c0:	4b338393          	addi	x7,x7,1203 # fb6f <sv_Mepc_str>
    36c4:	00731863          	bne	x6,x7,36d4 <failedtest_saveresults_trap+0x88>
    36c8:	00300413          	addi	x8,x0,3
    36cc:	00000493          	addi	x9,x0,0
    36d0:	2b00006f          	jal	x0,3980 <trap_diag_field_identified>
    36d4:	0000c397          	auipc	x7,0xc
    36d8:	58e38393          	addi	x7,x7,1422 # fc62 <sv_Mtval_str>
    36dc:	00731863          	bne	x6,x7,36ec <failedtest_saveresults_trap+0xa0>
    36e0:	00400413          	addi	x8,x0,4
    36e4:	00000493          	addi	x9,x0,0
    36e8:	2980006f          	jal	x0,3980 <trap_diag_field_identified>
    36ec:	0000c397          	auipc	x7,0xc
    36f0:	6e938393          	addi	x7,x7,1769 # fdd5 <sv_Mip_str>
    36f4:	00731863          	bne	x6,x7,3704 <failedtest_saveresults_trap+0xb8>
    36f8:	00500413          	addi	x8,x0,5
    36fc:	00000493          	addi	x9,x0,0
    3700:	2800006f          	jal	x0,3980 <trap_diag_field_identified>
    3704:	0000c397          	auipc	x7,0xc
    3708:	65538393          	addi	x7,x7,1621 # fd59 <sv_Mtval2_str>
    370c:	00731863          	bne	x6,x7,371c <failedtest_saveresults_trap+0xd0>
    3710:	00600413          	addi	x8,x0,6
    3714:	00000493          	addi	x9,x0,0
    3718:	2680006f          	jal	x0,3980 <trap_diag_field_identified>
    371c:	0000c397          	auipc	x7,0xc
    3720:	67b38393          	addi	x7,x7,1659 # fd97 <sv_Mtinst_str>
    3724:	00731863          	bne	x6,x7,3734 <failedtest_saveresults_trap+0xe8>
    3728:	00700413          	addi	x8,x0,7
    372c:	00000493          	addi	x9,x0,0
    3730:	2500006f          	jal	x0,3980 <trap_diag_field_identified>
    3734:	0000c397          	auipc	x7,0xc
    3738:	27e38393          	addi	x7,x7,638 # f9b2 <sv_Svect_str>
    373c:	00731863          	bne	x6,x7,374c <failedtest_saveresults_trap+0x100>
    3740:	00100413          	addi	x8,x0,1
    3744:	00100493          	addi	x9,x0,1
    3748:	2380006f          	jal	x0,3980 <trap_diag_field_identified>
    374c:	0000c397          	auipc	x7,0xc
    3750:	36638393          	addi	x7,x7,870 # fab2 <sv_Scause_str>
    3754:	00731863          	bne	x6,x7,3764 <failedtest_saveresults_trap+0x118>
    3758:	00200413          	addi	x8,x0,2
    375c:	00100493          	addi	x9,x0,1
    3760:	2200006f          	jal	x0,3980 <trap_diag_field_identified>
    3764:	0000c397          	auipc	x7,0xc
    3768:	44738393          	addi	x7,x7,1095 # fbab <sv_Sepc_str>
    376c:	00731863          	bne	x6,x7,377c <failedtest_saveresults_trap+0x130>
    3770:	00300413          	addi	x8,x0,3
    3774:	00100493          	addi	x9,x0,1
    3778:	2080006f          	jal	x0,3980 <trap_diag_field_identified>
    377c:	0000c397          	auipc	x7,0xc
    3780:	52338393          	addi	x7,x7,1315 # fc9f <sv_Stval_str>
    3784:	00731863          	bne	x6,x7,3794 <failedtest_saveresults_trap+0x148>
    3788:	00400413          	addi	x8,x0,4
    378c:	00100493          	addi	x9,x0,1
    3790:	1f00006f          	jal	x0,3980 <trap_diag_field_identified>
    3794:	0000c397          	auipc	x7,0xc
    3798:	67c38393          	addi	x7,x7,1660 # fe10 <sv_Sip_str>
    379c:	00731863          	bne	x6,x7,37ac <failedtest_saveresults_trap+0x160>
    37a0:	00500413          	addi	x8,x0,5
    37a4:	00100493          	addi	x9,x0,1
    37a8:	1d80006f          	jal	x0,3980 <trap_diag_field_identified>
    37ac:	0000c397          	auipc	x7,0xc
    37b0:	24638393          	addi	x7,x7,582 # f9f2 <sv_Hvect_str>
    37b4:	00731863          	bne	x6,x7,37c4 <failedtest_saveresults_trap+0x178>
    37b8:	00100413          	addi	x8,x0,1
    37bc:	00200493          	addi	x9,x0,2
    37c0:	1c00006f          	jal	x0,3980 <trap_diag_field_identified>
    37c4:	0000c397          	auipc	x7,0xc
    37c8:	32c38393          	addi	x7,x7,812 # faf0 <sv_Hcause_str>
    37cc:	00731863          	bne	x6,x7,37dc <failedtest_saveresults_trap+0x190>
    37d0:	00200413          	addi	x8,x0,2
    37d4:	00200493          	addi	x9,x0,2
    37d8:	1a80006f          	jal	x0,3980 <trap_diag_field_identified>
    37dc:	0000c397          	auipc	x7,0xc
    37e0:	40b38393          	addi	x7,x7,1035 # fbe7 <sv_Hepc_str>
    37e4:	00731863          	bne	x6,x7,37f4 <failedtest_saveresults_trap+0x1a8>
    37e8:	00300413          	addi	x8,x0,3
    37ec:	00200493          	addi	x9,x0,2
    37f0:	1900006f          	jal	x0,3980 <trap_diag_field_identified>
    37f4:	0000c397          	auipc	x7,0xc
    37f8:	4e838393          	addi	x7,x7,1256 # fcdc <sv_Htval_str>
    37fc:	00731863          	bne	x6,x7,380c <failedtest_saveresults_trap+0x1c0>
    3800:	00400413          	addi	x8,x0,4
    3804:	00200493          	addi	x9,x0,2
    3808:	1780006f          	jal	x0,3980 <trap_diag_field_identified>
    380c:	0000c397          	auipc	x7,0xc
    3810:	63f38393          	addi	x7,x7,1599 # fe4b <sv_Hip_str>
    3814:	00731863          	bne	x6,x7,3824 <failedtest_saveresults_trap+0x1d8>
    3818:	00500413          	addi	x8,x0,5
    381c:	00200493          	addi	x9,x0,2
    3820:	1600006f          	jal	x0,3980 <trap_diag_field_identified>
    3824:	0000c397          	auipc	x7,0xc
    3828:	20f38393          	addi	x7,x7,527 # fa33 <sv_Vvect_str>
    382c:	00731863          	bne	x6,x7,383c <failedtest_saveresults_trap+0x1f0>
    3830:	00100413          	addi	x8,x0,1
    3834:	00300493          	addi	x9,x0,3
    3838:	1480006f          	jal	x0,3980 <trap_diag_field_identified>
    383c:	0000c397          	auipc	x7,0xc
    3840:	2f338393          	addi	x7,x7,755 # fb2f <sv_Vcause_str>
    3844:	00731863          	bne	x6,x7,3854 <failedtest_saveresults_trap+0x208>
    3848:	00200413          	addi	x8,x0,2
    384c:	00300493          	addi	x9,x0,3
    3850:	1300006f          	jal	x0,3980 <trap_diag_field_identified>
    3854:	0000c397          	auipc	x7,0xc
    3858:	3d038393          	addi	x7,x7,976 # fc24 <sv_Vepc_str>
    385c:	00731863          	bne	x6,x7,386c <failedtest_saveresults_trap+0x220>
    3860:	00300413          	addi	x8,x0,3
    3864:	00300493          	addi	x9,x0,3
    3868:	1180006f          	jal	x0,3980 <trap_diag_field_identified>
    386c:	0000c397          	auipc	x7,0xc
    3870:	4ae38393          	addi	x7,x7,1198 # fd1a <sv_Vtval_str>
    3874:	00731863          	bne	x6,x7,3884 <failedtest_saveresults_trap+0x238>
    3878:	00400413          	addi	x8,x0,4
    387c:	00300493          	addi	x9,x0,3
    3880:	1000006f          	jal	x0,3980 <trap_diag_field_identified>
    3884:	0000c397          	auipc	x7,0xc
    3888:	60338393          	addi	x7,x7,1539 # fe87 <sv_Vip_str>
    388c:	00731863          	bne	x6,x7,389c <failedtest_saveresults_trap+0x250>
    3890:	00500413          	addi	x8,x0,5
    3894:	00300493          	addi	x9,x0,3
    3898:	0e80006f          	jal	x0,3980 <trap_diag_field_identified>
    389c:	0000c397          	auipc	x7,0xc
    38a0:	62838393          	addi	x7,x7,1576 # fec4 <Mclr_Mext_int_str>
    38a4:	00731863          	bne	x6,x7,38b4 <failedtest_saveresults_trap+0x268>
    38a8:	00800413          	addi	x8,x0,8
    38ac:	00000493          	addi	x9,x0,0
    38b0:	0d00006f          	jal	x0,3980 <trap_diag_field_identified>
    38b4:	0000c397          	auipc	x7,0xc
    38b8:	65f38393          	addi	x7,x7,1631 # ff13 <Mclr_Sext_int_str>
    38bc:	00731863          	bne	x6,x7,38cc <failedtest_saveresults_trap+0x280>
    38c0:	00800413          	addi	x8,x0,8
    38c4:	00000493          	addi	x9,x0,0
    38c8:	0b80006f          	jal	x0,3980 <trap_diag_field_identified>
    38cc:	0000c397          	auipc	x7,0xc
    38d0:	74238393          	addi	x7,x7,1858 # 1000e <Sclr_Sext_int_str>
    38d4:	00731863          	bne	x6,x7,38e4 <failedtest_saveresults_trap+0x298>
    38d8:	00800413          	addi	x8,x0,8
    38dc:	00100493          	addi	x9,x0,1
    38e0:	0a00006f          	jal	x0,3980 <trap_diag_field_identified>
    38e4:	0000d397          	auipc	x7,0xd
    38e8:	82638393          	addi	x7,x7,-2010 # 1010a <Hclr_Sext_int_str>
    38ec:	00731863          	bne	x6,x7,38fc <failedtest_saveresults_trap+0x2b0>
    38f0:	00800413          	addi	x8,x0,8
    38f4:	00200493          	addi	x9,x0,2
    38f8:	0880006f          	jal	x0,3980 <trap_diag_field_identified>
    38fc:	1140006f          	jal	x0,3a10 <trap_diag_generic_report>

00003900 <trap_diag_offset_mismatch>:
    3900:	00900413          	addi	x8,x0,9
    3904:	0000c817          	auipc	x16,0xc
    3908:	90c80813          	addi	x16,x16,-1780 # f210 <trap_diag_subtype>
    390c:	00882023          	sw	x8,0(x16)
    3910:	ffa2d303          	lhu	x6,-6(x5)
    3914:	ff82d383          	lhu	x7,-8(x5)
    3918:	01031313          	slli	x6,x6,0x10
    391c:	00736333          	or	x6,x6,x7
    3920:	01435413          	srli	x8,x6,0x14
    3924:	01f47413          	andi	x8,x8,31
    3928:	00341313          	slli	x6,x8,0x3
    392c:	00620333          	add	x6,x4,x6
    3930:	00032303          	lw	x6,0(x6)
    3934:	0000c817          	auipc	x16,0xc
    3938:	8f480813          	addi	x16,x16,-1804 # f228 <trap_diag_actual_offset>
    393c:	00682023          	sw	x6,0(x16)
    3940:	ff62d303          	lhu	x6,-10(x5)
    3944:	ff42d383          	lhu	x7,-12(x5)
    3948:	01031313          	slli	x6,x6,0x10
    394c:	00736333          	or	x6,x6,x7
    3950:	41435393          	srai	x7,x6,0x14
    3954:	00f35313          	srli	x6,x6,0xf
    3958:	01f37313          	andi	x6,x6,31
    395c:	00331313          	slli	x6,x6,0x3
    3960:	00620333          	add	x6,x4,x6
    3964:	00032303          	lw	x6,0(x6)
    3968:	00730333          	add	x6,x6,x7
    396c:	00032303          	lw	x6,0(x6)
    3970:	0000c817          	auipc	x16,0xc
    3974:	8c080813          	addi	x16,x16,-1856 # f230 <trap_diag_expected_offset>
    3978:	00682023          	sw	x6,0(x16)
    397c:	0a40006f          	jal	x0,3a20 <failedtest_saveresults_common>

00003980 <trap_diag_field_identified>:
    3980:	0000c817          	auipc	x16,0xc
    3984:	89080813          	addi	x16,x16,-1904 # f210 <trap_diag_subtype>
    3988:	00882023          	sw	x8,0(x16)
    398c:	0000c817          	auipc	x16,0xc
    3990:	88880813          	addi	x16,x16,-1912 # f214 <trap_diag_mode>
    3994:	00982023          	sw	x9,0(x16)
    3998:	ffa2d303          	lhu	x6,-6(x5)
    399c:	ff82d383          	lhu	x7,-8(x5)
    39a0:	01031313          	slli	x6,x6,0x10
    39a4:	00736333          	or	x6,x6,x7
    39a8:	01435713          	srli	x14,x6,0x14
    39ac:	01f77713          	andi	x14,x14,31
    39b0:	00371313          	slli	x6,x14,0x3
    39b4:	00620333          	add	x6,x4,x6
    39b8:	00032303          	lw	x6,0(x6)
    39bc:	10622823          	sw	x6,272(x4) # 110 <I_sltiu_cg_cp_rs1_b5+0x4>
    39c0:	0000c817          	auipc	x16,0xc
    39c4:	85880813          	addi	x16,x16,-1960 # f218 <trap_diag_actual_value>
    39c8:	00682023          	sw	x6,0(x16)
    39cc:	ff62d303          	lhu	x6,-10(x5)
    39d0:	ff42d383          	lhu	x7,-12(x5)
    39d4:	01031313          	slli	x6,x6,0x10
    39d8:	00736333          	or	x6,x6,x7
    39dc:	41435393          	srai	x7,x6,0x14
    39e0:	00f35313          	srli	x6,x6,0xf
    39e4:	01f37313          	andi	x6,x6,31
    39e8:	00331313          	slli	x6,x6,0x3
    39ec:	00620333          	add	x6,x4,x6
    39f0:	00032303          	lw	x6,0(x6)
    39f4:	00730333          	add	x6,x6,x7
    39f8:	00032303          	lw	x6,0(x6)
    39fc:	10622c23          	sw	x6,280(x4) # 118 <I_sltiu_cg_cp_rs1_b5+0xc>
    3a00:	0000c817          	auipc	x16,0xc
    3a04:	82080813          	addi	x16,x16,-2016 # f220 <trap_diag_expected_value>
    3a08:	00682023          	sw	x6,0(x16)
    3a0c:	0140006f          	jal	x0,3a20 <failedtest_saveresults_common>

00003a10 <trap_diag_generic_report>:
    3a10:	0000c817          	auipc	x16,0xc
    3a14:	80080813          	addi	x16,x16,-2048 # f210 <trap_diag_subtype>
    3a18:	00082023          	sw	x0,0(x16)
    3a1c:	0040006f          	jal	x0,3a20 <failedtest_saveresults_common>

00003a20 <failedtest_saveresults_common>:
    3a20:	0002a303          	lw	x6,0(x5)
    3a24:	10622423          	sw	x6,264(x4) # 108 <I_sltiu_cg_cp_rs1_b4+0x20>
    3a28:	00035383          	lhu	x7,0(x6)
    3a2c:	0033f413          	andi	x8,x7,3
    3a30:	00300493          	addi	x9,x0,3
    3a34:	00941863          	bne	x8,x9,3a44 <failedtest_saveresults_common+0x24>
    3a38:	00235403          	lhu	x8,2(x6)
    3a3c:	01041413          	slli	x8,x8,0x10
    3a40:	0083e3b3          	or	x7,x7,x8
    3a44:	10722023          	sw	x7,256(x4) # 100 <I_sltiu_cg_cp_rs1_b4+0x18>
    3a48:	0042a303          	lw	x6,4(x5)
    3a4c:	12622023          	sw	x6,288(x4) # 120 <I_sltiu_cg_cp_rs1_b5+0x14>

00003a50 <failedtest_report>:
    3a50:	00000013          	addi	x0,x0,0
    3a54:	00000013          	addi	x0,x0,0
    3a58:	00000013          	addi	x0,x0,0
    3a5c:	00000013          	addi	x0,x0,0
    3a60:	0000c517          	auipc	x10,0xc
    3a64:	d1c50513          	addi	x10,x10,-740 # f77c <failstr>
    3a68:	00000013          	addi	x0,x0,0
    3a6c:	00000013          	addi	x0,x0,0
    3a70:	00000013          	addi	x0,x0,0
    3a74:	00000013          	addi	x0,x0,0
    3a78:	00000013          	addi	x0,x0,0
    3a7c:	00000013          	addi	x0,x0,0
    3a80:	0001c097          	auipc	x1,0x1c
    3a84:	784080e7          	jalr	x1,1924(x1) # 20204 <rvmodel_io_write_str>

00003a88 <print_testnamestr>:
    3a88:	00000013          	addi	x0,x0,0
    3a8c:	00000013          	addi	x0,x0,0
    3a90:	00000013          	addi	x0,x0,0
    3a94:	00000013          	addi	x0,x0,0
    3a98:	00000013          	addi	x0,x0,0
    3a9c:	00000013          	addi	x0,x0,0
    3aa0:	0000c517          	auipc	x10,0xc
    3aa4:	d7150513          	addi	x10,x10,-655 # f811 <testnamestr>
    3aa8:	00000013          	addi	x0,x0,0
    3aac:	00000013          	addi	x0,x0,0
    3ab0:	00000013          	addi	x0,x0,0
    3ab4:	00000013          	addi	x0,x0,0
    3ab8:	00000013          	addi	x0,x0,0
    3abc:	00000013          	addi	x0,x0,0
    3ac0:	0001c097          	auipc	x1,0x1c
    3ac4:	744080e7          	jalr	x1,1860(x1) # 20204 <rvmodel_io_write_str>

00003ac8 <print_failure_test_name_str>:
    3ac8:	0000b517          	auipc	x10,0xb
    3acc:	73852503          	lw	x10,1848(x10) # f200 <failure_string_ptr>
    3ad0:	0001c097          	auipc	x1,0x1c
    3ad4:	734080e7          	jalr	x1,1844(x1) # 20204 <rvmodel_io_write_str>

00003ad8 <print_newline_str>:
    3ad8:	00000013          	addi	x0,x0,0
    3adc:	00000013          	addi	x0,x0,0
    3ae0:	0000c517          	auipc	x10,0xc
    3ae4:	d4350513          	addi	x10,x10,-701 # f823 <newlinestr>
    3ae8:	00000013          	addi	x0,x0,0
    3aec:	00000013          	addi	x0,x0,0
    3af0:	00000013          	addi	x0,x0,0
    3af4:	00000013          	addi	x0,x0,0
    3af8:	00000013          	addi	x0,x0,0
    3afc:	00000013          	addi	x0,x0,0
    3b00:	0001c097          	auipc	x1,0x1c
    3b04:	704080e7          	jalr	x1,1796(x1) # 20204 <rvmodel_io_write_str>
    3b08:	0000b517          	auipc	x10,0xb
    3b0c:	5d852503          	lw	x10,1496(x10) # f0e0 <begin_failure_scratch>
    3b10:	00300593          	addi	x11,x0,3
    3b14:	3eb50c63          	beq	x10,x11,3f0c <failedtest_report_trap_detailed>
    3b18:	00000013          	addi	x0,x0,0
    3b1c:	00000013          	addi	x0,x0,0
    3b20:	0000c517          	auipc	x10,0xc
    3b24:	d0550513          	addi	x10,x10,-763 # f825 <inststr>
    3b28:	00000013          	addi	x0,x0,0
    3b2c:	00000013          	addi	x0,x0,0
    3b30:	00000013          	addi	x0,x0,0
    3b34:	00000013          	addi	x0,x0,0
    3b38:	00000013          	addi	x0,x0,0
    3b3c:	00000013          	addi	x0,x0,0
    3b40:	0001c097          	auipc	x1,0x1c
    3b44:	6c4080e7          	jalr	x1,1732(x1) # 20204 <rvmodel_io_write_str>
    3b48:	0000b517          	auipc	x10,0xb
    3b4c:	69852503          	lw	x10,1688(x10) # f1e0 <failing_instruction>
    3b50:	02000593          	addi	x11,x0,32
    3b54:	00357613          	andi	x12,x10,3
    3b58:	00300693          	addi	x13,x0,3
    3b5c:	00d60463          	beq	x12,x13,3b64 <print_newline_str+0x8c>
    3b60:	01000593          	addi	x11,x0,16
    3b64:	2f4010ef          	jal	x1,4e58 <failedtest_hex_to_str>
    3b68:	00000013          	addi	x0,x0,0
    3b6c:	00000013          	addi	x0,x0,0
    3b70:	00000013          	addi	x0,x0,0
    3b74:	00000013          	addi	x0,x0,0
    3b78:	00000013          	addi	x0,x0,0
    3b7c:	00000013          	addi	x0,x0,0
    3b80:	0000b517          	auipc	x10,0xb
    3b84:	6e850513          	addi	x10,x10,1768 # f268 <ascii_buffer>
    3b88:	00000013          	addi	x0,x0,0
    3b8c:	00000013          	addi	x0,x0,0
    3b90:	00000013          	addi	x0,x0,0
    3b94:	00000013          	addi	x0,x0,0
    3b98:	00000013          	addi	x0,x0,0
    3b9c:	00000013          	addi	x0,x0,0
    3ba0:	0001c097          	auipc	x1,0x1c
    3ba4:	664080e7          	jalr	x1,1636(x1) # 20204 <rvmodel_io_write_str>
    3ba8:	00000013          	addi	x0,x0,0
    3bac:	00000013          	addi	x0,x0,0
    3bb0:	00000013          	addi	x0,x0,0
    3bb4:	00000013          	addi	x0,x0,0
    3bb8:	00000013          	addi	x0,x0,0
    3bbc:	00000013          	addi	x0,x0,0
    3bc0:	0000c517          	auipc	x10,0xc
    3bc4:	c7950513          	addi	x10,x10,-903 # f839 <addrstr>
    3bc8:	00000013          	addi	x0,x0,0
    3bcc:	00000013          	addi	x0,x0,0
    3bd0:	00000013          	addi	x0,x0,0
    3bd4:	00000013          	addi	x0,x0,0
    3bd8:	00000013          	addi	x0,x0,0
    3bdc:	00000013          	addi	x0,x0,0
    3be0:	0001c097          	auipc	x1,0x1c
    3be4:	624080e7          	jalr	x1,1572(x1) # 20204 <rvmodel_io_write_str>
    3be8:	0000b517          	auipc	x10,0xb
    3bec:	60052503          	lw	x10,1536(x10) # f1e8 <failing_addr>
    3bf0:	02000593          	addi	x11,x0,32
    3bf4:	264010ef          	jal	x1,4e58 <failedtest_hex_to_str>
    3bf8:	00000013          	addi	x0,x0,0
    3bfc:	00000013          	addi	x0,x0,0
    3c00:	0000b517          	auipc	x10,0xb
    3c04:	66850513          	addi	x10,x10,1640 # f268 <ascii_buffer>
    3c08:	00000013          	addi	x0,x0,0
    3c0c:	00000013          	addi	x0,x0,0
    3c10:	00000013          	addi	x0,x0,0
    3c14:	00000013          	addi	x0,x0,0
    3c18:	00000013          	addi	x0,x0,0
    3c1c:	00000013          	addi	x0,x0,0
    3c20:	0001c097          	auipc	x1,0x1c
    3c24:	5e4080e7          	jalr	x1,1508(x1) # 20204 <rvmodel_io_write_str>
    3c28:	00000013          	addi	x0,x0,0
    3c2c:	00000013          	addi	x0,x0,0
    3c30:	00000013          	addi	x0,x0,0
    3c34:	00000013          	addi	x0,x0,0
    3c38:	00000013          	addi	x0,x0,0
    3c3c:	00000013          	addi	x0,x0,0
    3c40:	0000c517          	auipc	x10,0xc
    3c44:	67650513          	addi	x10,x10,1654 # 102b6 <regstr>
    3c48:	00000013          	addi	x0,x0,0
    3c4c:	00000013          	addi	x0,x0,0
    3c50:	00000013          	addi	x0,x0,0
    3c54:	00000013          	addi	x0,x0,0
    3c58:	00000013          	addi	x0,x0,0
    3c5c:	00000013          	addi	x0,x0,0
    3c60:	0001c097          	auipc	x1,0x1c
    3c64:	5a4080e7          	jalr	x1,1444(x1) # 20204 <rvmodel_io_write_str>
    3c68:	0000b517          	auipc	x10,0xb
    3c6c:	47852503          	lw	x10,1144(x10) # f0e0 <begin_failure_scratch>
    3c70:	00050663          	beq	x10,x0,3c7c <print_newline_str+0x1a4>
    3c74:	00300593          	addi	x11,x0,3
    3c78:	04b51063          	bne	x10,x11,3cb8 <failedtest_report_not_intreg>
    3c7c:	07800593          	addi	x11,x0,120
    3c80:	0000b617          	auipc	x12,0xb
    3c84:	5e860613          	addi	x12,x12,1512 # f268 <ascii_buffer>
    3c88:	00000013          	addi	x0,x0,0
    3c8c:	00000013          	addi	x0,x0,0
    3c90:	00000013          	addi	x0,x0,0
    3c94:	00000013          	addi	x0,x0,0
    3c98:	00000013          	addi	x0,x0,0
    3c9c:	00000013          	addi	x0,x0,0
    3ca0:	00b60023          	sb	x11,0(x12)
    3ca4:	00160613          	addi	x12,x12,1
    3ca8:	0000b517          	auipc	x10,0xb
    3cac:	53c52503          	lw	x10,1340(x10) # f1e4 <failing_reg>
    3cb0:	224010ef          	jal	x1,4ed4 <failedtest_dec_to_str>
    3cb4:	0e00006f          	jal	x0,3d94 <failedtest_report_print_regstr>

00003cb8 <failedtest_report_not_intreg>:
    3cb8:	00100593          	addi	x11,x0,1
    3cbc:	04b50863          	beq	x10,x11,3d0c <failedtest_report_fpreg>
    3cc0:	00400593          	addi	x11,x0,4
    3cc4:	08b50a63          	beq	x10,x11,3d58 <failedtest_report_vecreg>
    3cc8:	00000013          	addi	x0,x0,0
    3ccc:	00000013          	addi	x0,x0,0
    3cd0:	00000013          	addi	x0,x0,0
    3cd4:	00000013          	addi	x0,x0,0
    3cd8:	00000013          	addi	x0,x0,0
    3cdc:	00000013          	addi	x0,x0,0
    3ce0:	0000c517          	auipc	x10,0xc
    3ce4:	63650513          	addi	x10,x10,1590 # 10316 <fflagsstr>
    3ce8:	00000013          	addi	x0,x0,0
    3cec:	00000013          	addi	x0,x0,0
    3cf0:	00000013          	addi	x0,x0,0
    3cf4:	00000013          	addi	x0,x0,0
    3cf8:	00000013          	addi	x0,x0,0
    3cfc:	00000013          	addi	x0,x0,0
    3d00:	0001c097          	auipc	x1,0x1c
    3d04:	504080e7          	jalr	x1,1284(x1) # 20204 <rvmodel_io_write_str>
    3d08:	0c00006f          	jal	x0,3dc8 <failedtest_report_after_reg>

00003d0c <failedtest_report_fpreg>:
    3d0c:	06600593          	addi	x11,x0,102
    3d10:	00000013          	addi	x0,x0,0
    3d14:	00000013          	addi	x0,x0,0
    3d18:	00000013          	addi	x0,x0,0
    3d1c:	00000013          	addi	x0,x0,0
    3d20:	0000b617          	auipc	x12,0xb
    3d24:	54860613          	addi	x12,x12,1352 # f268 <ascii_buffer>
    3d28:	00000013          	addi	x0,x0,0
    3d2c:	00000013          	addi	x0,x0,0
    3d30:	00000013          	addi	x0,x0,0
    3d34:	00000013          	addi	x0,x0,0
    3d38:	00000013          	addi	x0,x0,0
    3d3c:	00000013          	addi	x0,x0,0
    3d40:	00b60023          	sb	x11,0(x12)
    3d44:	00160613          	addi	x12,x12,1
    3d48:	0000b517          	auipc	x10,0xb
    3d4c:	49c52503          	lw	x10,1180(x10) # f1e4 <failing_reg>
    3d50:	184010ef          	jal	x1,4ed4 <failedtest_dec_to_str>
    3d54:	0400006f          	jal	x0,3d94 <failedtest_report_print_regstr>

00003d58 <failedtest_report_vecreg>:
    3d58:	07600593          	addi	x11,x0,118
    3d5c:	00000013          	addi	x0,x0,0
    3d60:	0000b617          	auipc	x12,0xb
    3d64:	50860613          	addi	x12,x12,1288 # f268 <ascii_buffer>
    3d68:	00000013          	addi	x0,x0,0
    3d6c:	00000013          	addi	x0,x0,0
    3d70:	00000013          	addi	x0,x0,0
    3d74:	00000013          	addi	x0,x0,0
    3d78:	00000013          	addi	x0,x0,0
    3d7c:	00000013          	addi	x0,x0,0
    3d80:	00b60023          	sb	x11,0(x12)
    3d84:	00160613          	addi	x12,x12,1
    3d88:	0000b517          	auipc	x10,0xb
    3d8c:	45c52503          	lw	x10,1116(x10) # f1e4 <failing_reg>
    3d90:	144010ef          	jal	x1,4ed4 <failedtest_dec_to_str>

00003d94 <failedtest_report_print_regstr>:
    3d94:	00000013          	addi	x0,x0,0
    3d98:	00000013          	addi	x0,x0,0
    3d9c:	00000013          	addi	x0,x0,0
    3da0:	0000b517          	auipc	x10,0xb
    3da4:	4c850513          	addi	x10,x10,1224 # f268 <ascii_buffer>
    3da8:	00000013          	addi	x0,x0,0
    3dac:	00000013          	addi	x0,x0,0
    3db0:	00000013          	addi	x0,x0,0
    3db4:	00000013          	addi	x0,x0,0
    3db8:	00000013          	addi	x0,x0,0
    3dbc:	00000013          	addi	x0,x0,0
    3dc0:	0001c097          	auipc	x1,0x1c
    3dc4:	444080e7          	jalr	x1,1092(x1) # 20204 <rvmodel_io_write_str>

00003dc8 <failedtest_report_after_reg>:
    3dc8:	00000013          	addi	x0,x0,0
    3dcc:	00000013          	addi	x0,x0,0
    3dd0:	00000013          	addi	x0,x0,0
    3dd4:	00000013          	addi	x0,x0,0
    3dd8:	00000013          	addi	x0,x0,0
    3ddc:	00000013          	addi	x0,x0,0
    3de0:	0000c517          	auipc	x10,0xc
    3de4:	4e750513          	addi	x10,x10,1255 # 102c7 <badvalstr>
    3de8:	00000013          	addi	x0,x0,0
    3dec:	00000013          	addi	x0,x0,0
    3df0:	00000013          	addi	x0,x0,0
    3df4:	00000013          	addi	x0,x0,0
    3df8:	00000013          	addi	x0,x0,0
    3dfc:	00000013          	addi	x0,x0,0
    3e00:	0001c097          	auipc	x1,0x1c
    3e04:	404080e7          	jalr	x1,1028(x1) # 20204 <rvmodel_io_write_str>
    3e08:	0000b517          	auipc	x10,0xb
    3e0c:	2d852503          	lw	x10,728(x10) # f0e0 <begin_failure_scratch>
    3e10:	00100593          	addi	x11,x0,1
    3e14:	00b51c63          	bne	x10,x11,3e2c <failedtest_report_badval_not_fp>
    3e18:	0000b517          	auipc	x10,0xb
    3e1c:	3d852503          	lw	x10,984(x10) # f1f0 <failing_value>
    3e20:	02000593          	addi	x11,x0,32
    3e24:	034010ef          	jal	x1,4e58 <failedtest_hex_to_str>
    3e28:	0140006f          	jal	x0,3e3c <failedtest_report_badval_done>

00003e2c <failedtest_report_badval_not_fp>:
    3e2c:	0000b517          	auipc	x10,0xb
    3e30:	3c452503          	lw	x10,964(x10) # f1f0 <failing_value>
    3e34:	02000593          	addi	x11,x0,32
    3e38:	020010ef          	jal	x1,4e58 <failedtest_hex_to_str>

00003e3c <failedtest_report_badval_done>:
    3e3c:	00000013          	addi	x0,x0,0
    3e40:	0000b517          	auipc	x10,0xb
    3e44:	42850513          	addi	x10,x10,1064 # f268 <ascii_buffer>
    3e48:	00000013          	addi	x0,x0,0
    3e4c:	00000013          	addi	x0,x0,0
    3e50:	00000013          	addi	x0,x0,0
    3e54:	00000013          	addi	x0,x0,0
    3e58:	00000013          	addi	x0,x0,0
    3e5c:	00000013          	addi	x0,x0,0
    3e60:	0001c097          	auipc	x1,0x1c
    3e64:	3a4080e7          	jalr	x1,932(x1) # 20204 <rvmodel_io_write_str>
    3e68:	00000013          	addi	x0,x0,0
    3e6c:	00000013          	addi	x0,x0,0
    3e70:	00000013          	addi	x0,x0,0
    3e74:	00000013          	addi	x0,x0,0
    3e78:	00000013          	addi	x0,x0,0
    3e7c:	00000013          	addi	x0,x0,0
    3e80:	0000c517          	auipc	x10,0xc
    3e84:	45e50513          	addi	x10,x10,1118 # 102de <expvalstr>
    3e88:	00000013          	addi	x0,x0,0
    3e8c:	00000013          	addi	x0,x0,0
    3e90:	00000013          	addi	x0,x0,0
    3e94:	00000013          	addi	x0,x0,0
    3e98:	00000013          	addi	x0,x0,0
    3e9c:	00000013          	addi	x0,x0,0
    3ea0:	0001c097          	auipc	x1,0x1c
    3ea4:	364080e7          	jalr	x1,868(x1) # 20204 <rvmodel_io_write_str>
    3ea8:	0000b517          	auipc	x10,0xb
    3eac:	23852503          	lw	x10,568(x10) # f0e0 <begin_failure_scratch>
    3eb0:	00100593          	addi	x11,x0,1
    3eb4:	00b51c63          	bne	x10,x11,3ecc <failedtest_report_expval_not_fp>
    3eb8:	0000b517          	auipc	x10,0xb
    3ebc:	34052503          	lw	x10,832(x10) # f1f8 <expected_value>
    3ec0:	02000593          	addi	x11,x0,32
    3ec4:	795000ef          	jal	x1,4e58 <failedtest_hex_to_str>
    3ec8:	0140006f          	jal	x0,3edc <failedtest_report_expval_done>

00003ecc <failedtest_report_expval_not_fp>:
    3ecc:	0000b517          	auipc	x10,0xb
    3ed0:	32c52503          	lw	x10,812(x10) # f1f8 <expected_value>
    3ed4:	02000593          	addi	x11,x0,32
    3ed8:	781000ef          	jal	x1,4e58 <failedtest_hex_to_str>

00003edc <failedtest_report_expval_done>:
    3edc:	00000013          	addi	x0,x0,0
    3ee0:	0000b517          	auipc	x10,0xb
    3ee4:	38850513          	addi	x10,x10,904 # f268 <ascii_buffer>
    3ee8:	00000013          	addi	x0,x0,0
    3eec:	00000013          	addi	x0,x0,0
    3ef0:	00000013          	addi	x0,x0,0
    3ef4:	00000013          	addi	x0,x0,0
    3ef8:	00000013          	addi	x0,x0,0
    3efc:	00000013          	addi	x0,x0,0
    3f00:	0001c097          	auipc	x1,0x1c
    3f04:	304080e7          	jalr	x1,772(x1) # 20204 <rvmodel_io_write_str>
    3f08:	4fd0006f          	jal	x0,4c04 <failedtest_report_end>

00003f0c <failedtest_report_trap_detailed>:
    3f0c:	00000013          	addi	x0,x0,0
    3f10:	00000013          	addi	x0,x0,0
    3f14:	00000013          	addi	x0,x0,0
    3f18:	00000013          	addi	x0,x0,0
    3f1c:	00000013          	addi	x0,x0,0
    3f20:	0000c517          	auipc	x10,0xc
    3f24:	42250513          	addi	x10,x10,1058 # 10342 <trap_diag_header_str>
    3f28:	00000013          	addi	x0,x0,0
    3f2c:	00000013          	addi	x0,x0,0
    3f30:	00000013          	addi	x0,x0,0
    3f34:	00000013          	addi	x0,x0,0
    3f38:	00000013          	addi	x0,x0,0
    3f3c:	00000013          	addi	x0,x0,0
    3f40:	0001c097          	auipc	x1,0x1c
    3f44:	2c4080e7          	jalr	x1,708(x1) # 20204 <rvmodel_io_write_str>
    3f48:	00000013          	addi	x0,x0,0
    3f4c:	00000013          	addi	x0,x0,0
    3f50:	00000013          	addi	x0,x0,0
    3f54:	00000013          	addi	x0,x0,0
    3f58:	00000013          	addi	x0,x0,0
    3f5c:	00000013          	addi	x0,x0,0
    3f60:	0000c517          	auipc	x10,0xc
    3f64:	40e50513          	addi	x10,x10,1038 # 1036e <trap_diag_origstr_label>
    3f68:	00000013          	addi	x0,x0,0
    3f6c:	00000013          	addi	x0,x0,0
    3f70:	00000013          	addi	x0,x0,0
    3f74:	00000013          	addi	x0,x0,0
    3f78:	00000013          	addi	x0,x0,0
    3f7c:	00000013          	addi	x0,x0,0
    3f80:	0001c097          	auipc	x1,0x1c
    3f84:	284080e7          	jalr	x1,644(x1) # 20204 <rvmodel_io_write_str>
    3f88:	0000b817          	auipc	x16,0xb
    3f8c:	2b080813          	addi	x16,x16,688 # f238 <trap_diag_fail_str_ptr>
    3f90:	00082503          	lw	x10,0(x16)
    3f94:	0001c097          	auipc	x1,0x1c
    3f98:	270080e7          	jalr	x1,624(x1) # 20204 <rvmodel_io_write_str>
    3f9c:	00000013          	addi	x0,x0,0
    3fa0:	0000c517          	auipc	x10,0xc
    3fa4:	88350513          	addi	x10,x10,-1917 # f823 <newlinestr>
    3fa8:	00000013          	addi	x0,x0,0
    3fac:	00000013          	addi	x0,x0,0
    3fb0:	00000013          	addi	x0,x0,0
    3fb4:	00000013          	addi	x0,x0,0
    3fb8:	00000013          	addi	x0,x0,0
    3fbc:	00000013          	addi	x0,x0,0
    3fc0:	0001c097          	auipc	x1,0x1c
    3fc4:	244080e7          	jalr	x1,580(x1) # 20204 <rvmodel_io_write_str>
    3fc8:	0000b417          	auipc	x8,0xb
    3fcc:	24842403          	lw	x8,584(x8) # f210 <trap_diag_subtype>
    3fd0:	00900493          	addi	x9,x0,9
    3fd4:	00940663          	beq	x8,x9,3fe0 <trap_report_offset_mismatch>
    3fd8:	2a040ce3          	beq	x8,x0,4a90 <trap_report_generic>
    3fdc:	3780006f          	jal	x0,4354 <trap_report_field_mismatch>

00003fe0 <trap_report_offset_mismatch>:
    3fe0:	0000c517          	auipc	x10,0xc
    3fe4:	39e50513          	addi	x10,x10,926 # 1037e <trap_diag_count_mismatch_str>
    3fe8:	00000013          	addi	x0,x0,0
    3fec:	00000013          	addi	x0,x0,0
    3ff0:	00000013          	addi	x0,x0,0
    3ff4:	00000013          	addi	x0,x0,0
    3ff8:	00000013          	addi	x0,x0,0
    3ffc:	00000013          	addi	x0,x0,0
    4000:	0001c097          	auipc	x1,0x1c
    4004:	204080e7          	jalr	x1,516(x1) # 20204 <rvmodel_io_write_str>
    4008:	00000013          	addi	x0,x0,0
    400c:	00000013          	addi	x0,x0,0
    4010:	00000013          	addi	x0,x0,0
    4014:	00000013          	addi	x0,x0,0
    4018:	00000013          	addi	x0,x0,0
    401c:	00000013          	addi	x0,x0,0
    4020:	0000c517          	auipc	x10,0xc
    4024:	3bf50513          	addi	x10,x10,959 # 103df <trap_diag_expected_offset_str>
    4028:	00000013          	addi	x0,x0,0
    402c:	00000013          	addi	x0,x0,0
    4030:	00000013          	addi	x0,x0,0
    4034:	00000013          	addi	x0,x0,0
    4038:	00000013          	addi	x0,x0,0
    403c:	00000013          	addi	x0,x0,0
    4040:	0001c097          	auipc	x1,0x1c
    4044:	1c4080e7          	jalr	x1,452(x1) # 20204 <rvmodel_io_write_str>
    4048:	0000b517          	auipc	x10,0xb
    404c:	1e852503          	lw	x10,488(x10) # f230 <trap_diag_expected_offset>
    4050:	02000593          	addi	x11,x0,32
    4054:	605000ef          	jal	x1,4e58 <failedtest_hex_to_str>
    4058:	00000013          	addi	x0,x0,0
    405c:	00000013          	addi	x0,x0,0
    4060:	0000b517          	auipc	x10,0xb
    4064:	20850513          	addi	x10,x10,520 # f268 <ascii_buffer>
    4068:	00000013          	addi	x0,x0,0
    406c:	00000013          	addi	x0,x0,0
    4070:	00000013          	addi	x0,x0,0
    4074:	00000013          	addi	x0,x0,0
    4078:	00000013          	addi	x0,x0,0
    407c:	00000013          	addi	x0,x0,0
    4080:	0001c097          	auipc	x1,0x1c
    4084:	184080e7          	jalr	x1,388(x1) # 20204 <rvmodel_io_write_str>
    4088:	00000013          	addi	x0,x0,0
    408c:	00000013          	addi	x0,x0,0
    4090:	00000013          	addi	x0,x0,0
    4094:	00000013          	addi	x0,x0,0
    4098:	00000013          	addi	x0,x0,0
    409c:	00000013          	addi	x0,x0,0
    40a0:	0000c517          	auipc	x10,0xc
    40a4:	36650513          	addi	x10,x10,870 # 10406 <trap_diag_actual_offset_str>
    40a8:	00000013          	addi	x0,x0,0
    40ac:	00000013          	addi	x0,x0,0
    40b0:	00000013          	addi	x0,x0,0
    40b4:	00000013          	addi	x0,x0,0
    40b8:	00000013          	addi	x0,x0,0
    40bc:	00000013          	addi	x0,x0,0
    40c0:	0001c097          	auipc	x1,0x1c
    40c4:	144080e7          	jalr	x1,324(x1) # 20204 <rvmodel_io_write_str>
    40c8:	0000b517          	auipc	x10,0xb
    40cc:	16052503          	lw	x10,352(x10) # f228 <trap_diag_actual_offset>
    40d0:	02000593          	addi	x11,x0,32
    40d4:	585000ef          	jal	x1,4e58 <failedtest_hex_to_str>
    40d8:	00000013          	addi	x0,x0,0
    40dc:	00000013          	addi	x0,x0,0
    40e0:	0000b517          	auipc	x10,0xb
    40e4:	18850513          	addi	x10,x10,392 # f268 <ascii_buffer>
    40e8:	00000013          	addi	x0,x0,0
    40ec:	00000013          	addi	x0,x0,0
    40f0:	00000013          	addi	x0,x0,0
    40f4:	00000013          	addi	x0,x0,0
    40f8:	00000013          	addi	x0,x0,0
    40fc:	00000013          	addi	x0,x0,0
    4100:	0001c097          	auipc	x1,0x1c
    4104:	104080e7          	jalr	x1,260(x1) # 20204 <rvmodel_io_write_str>
    4108:	0000b317          	auipc	x6,0xb
    410c:	12032303          	lw	x6,288(x6) # f228 <trap_diag_actual_offset>
    4110:	0000b397          	auipc	x7,0xb
    4114:	1203a383          	lw	x7,288(x7) # f230 <trap_diag_expected_offset>
    4118:	10734e63          	blt	x6,x7,4234 <trap_report_missing_traps>

0000411c <trap_report_extra_traps>:
    411c:	00000013          	addi	x0,x0,0
    4120:	0000c517          	auipc	x10,0xc
    4124:	30d50513          	addi	x10,x10,781 # 1042d <trap_diag_extra_traps_str>
    4128:	00000013          	addi	x0,x0,0
    412c:	00000013          	addi	x0,x0,0
    4130:	00000013          	addi	x0,x0,0
    4134:	00000013          	addi	x0,x0,0
    4138:	00000013          	addi	x0,x0,0
    413c:	00000013          	addi	x0,x0,0
    4140:	0001c097          	auipc	x1,0x1c
    4144:	0c4080e7          	jalr	x1,196(x1) # 20204 <rvmodel_io_write_str>
    4148:	0000b317          	auipc	x6,0xb
    414c:	0e032303          	lw	x6,224(x6) # f228 <trap_diag_actual_offset>
    4150:	0000b397          	auipc	x7,0xb
    4154:	0e03a383          	lw	x7,224(x7) # f230 <trap_diag_expected_offset>
    4158:	40730333          	sub	x6,x6,x7
    415c:	00235313          	srli	x6,x6,0x2
    4160:	0000c517          	auipc	x10,0xc
    4164:	35250513          	addi	x10,x10,850 # 104b2 <trap_diag_extra_bytes_str>
    4168:	00000013          	addi	x0,x0,0
    416c:	00000013          	addi	x0,x0,0
    4170:	00000013          	addi	x0,x0,0
    4174:	00000013          	addi	x0,x0,0
    4178:	00000013          	addi	x0,x0,0
    417c:	00000013          	addi	x0,x0,0
    4180:	0001c097          	auipc	x1,0x1c
    4184:	084080e7          	jalr	x1,132(x1) # 20204 <rvmodel_io_write_str>
    4188:	0000b317          	auipc	x6,0xb
    418c:	0a032303          	lw	x6,160(x6) # f228 <trap_diag_actual_offset>
    4190:	0000b397          	auipc	x7,0xb
    4194:	0a03a383          	lw	x7,160(x7) # f230 <trap_diag_expected_offset>
    4198:	40730533          	sub	x10,x6,x7
    419c:	02000593          	addi	x11,x0,32
    41a0:	4b9000ef          	jal	x1,4e58 <failedtest_hex_to_str>
    41a4:	00000013          	addi	x0,x0,0
    41a8:	00000013          	addi	x0,x0,0
    41ac:	00000013          	addi	x0,x0,0
    41b0:	00000013          	addi	x0,x0,0
    41b4:	00000013          	addi	x0,x0,0
    41b8:	00000013          	addi	x0,x0,0
    41bc:	00000013          	addi	x0,x0,0
    41c0:	0000b517          	auipc	x10,0xb
    41c4:	0a850513          	addi	x10,x10,168 # f268 <ascii_buffer>
    41c8:	00000013          	addi	x0,x0,0
    41cc:	00000013          	addi	x0,x0,0
    41d0:	00000013          	addi	x0,x0,0
    41d4:	00000013          	addi	x0,x0,0
    41d8:	00000013          	addi	x0,x0,0
    41dc:	00000013          	addi	x0,x0,0
    41e0:	0001c097          	auipc	x1,0x1c
    41e4:	024080e7          	jalr	x1,36(x1) # 20204 <rvmodel_io_write_str>
    41e8:	00000013          	addi	x0,x0,0
    41ec:	00000013          	addi	x0,x0,0
    41f0:	00000013          	addi	x0,x0,0
    41f4:	00000013          	addi	x0,x0,0
    41f8:	00000013          	addi	x0,x0,0
    41fc:	00000013          	addi	x0,x0,0
    4200:	0000c517          	auipc	x10,0xc
    4204:	2dd50513          	addi	x10,x10,733 # 104dd <trap_diag_extra_hint_str>
    4208:	00000013          	addi	x0,x0,0
    420c:	00000013          	addi	x0,x0,0
    4210:	00000013          	addi	x0,x0,0
    4214:	00000013          	addi	x0,x0,0
    4218:	00000013          	addi	x0,x0,0
    421c:	00000013          	addi	x0,x0,0
    4220:	0001c097          	auipc	x1,0x1c
    4224:	fe4080e7          	jalr	x1,-28(x1) # 20204 <rvmodel_io_write_str>
    4228:	00001097          	auipc	x1,0x1
    422c:	a28080e7          	jalr	x1,-1496(x1) # 4c50 <failedtest_print_csr_context>
    4230:	1d50006f          	jal	x0,4c04 <failedtest_report_end>

00004234 <trap_report_missing_traps>:
    4234:	00000013          	addi	x0,x0,0
    4238:	00000013          	addi	x0,x0,0
    423c:	00000013          	addi	x0,x0,0
    4240:	0000c517          	auipc	x10,0xc
    4244:	22750513          	addi	x10,x10,551 # 10467 <trap_diag_missing_traps_str>
    4248:	00000013          	addi	x0,x0,0
    424c:	00000013          	addi	x0,x0,0
    4250:	00000013          	addi	x0,x0,0
    4254:	00000013          	addi	x0,x0,0
    4258:	00000013          	addi	x0,x0,0
    425c:	00000013          	addi	x0,x0,0
    4260:	0001c097          	auipc	x1,0x1c
    4264:	fa4080e7          	jalr	x1,-92(x1) # 20204 <rvmodel_io_write_str>
    4268:	00000013          	addi	x0,x0,0
    426c:	00000013          	addi	x0,x0,0
    4270:	00000013          	addi	x0,x0,0
    4274:	00000013          	addi	x0,x0,0
    4278:	00000013          	addi	x0,x0,0
    427c:	00000013          	addi	x0,x0,0
    4280:	0000c517          	auipc	x10,0xc
    4284:	23250513          	addi	x10,x10,562 # 104b2 <trap_diag_extra_bytes_str>
    4288:	00000013          	addi	x0,x0,0
    428c:	00000013          	addi	x0,x0,0
    4290:	00000013          	addi	x0,x0,0
    4294:	00000013          	addi	x0,x0,0
    4298:	00000013          	addi	x0,x0,0
    429c:	00000013          	addi	x0,x0,0
    42a0:	0001c097          	auipc	x1,0x1c
    42a4:	f64080e7          	jalr	x1,-156(x1) # 20204 <rvmodel_io_write_str>
    42a8:	0000b317          	auipc	x6,0xb
    42ac:	f8832303          	lw	x6,-120(x6) # f230 <trap_diag_expected_offset>
    42b0:	0000b397          	auipc	x7,0xb
    42b4:	f783a383          	lw	x7,-136(x7) # f228 <trap_diag_actual_offset>
    42b8:	40730533          	sub	x10,x6,x7
    42bc:	02000593          	addi	x11,x0,32
    42c0:	399000ef          	jal	x1,4e58 <failedtest_hex_to_str>
    42c4:	00000013          	addi	x0,x0,0
    42c8:	00000013          	addi	x0,x0,0
    42cc:	00000013          	addi	x0,x0,0
    42d0:	00000013          	addi	x0,x0,0
    42d4:	00000013          	addi	x0,x0,0
    42d8:	00000013          	addi	x0,x0,0
    42dc:	00000013          	addi	x0,x0,0
    42e0:	0000b517          	auipc	x10,0xb
    42e4:	f8850513          	addi	x10,x10,-120 # f268 <ascii_buffer>
    42e8:	00000013          	addi	x0,x0,0
    42ec:	00000013          	addi	x0,x0,0
    42f0:	00000013          	addi	x0,x0,0
    42f4:	00000013          	addi	x0,x0,0
    42f8:	00000013          	addi	x0,x0,0
    42fc:	00000013          	addi	x0,x0,0
    4300:	0001c097          	auipc	x1,0x1c
    4304:	f04080e7          	jalr	x1,-252(x1) # 20204 <rvmodel_io_write_str>
    4308:	00000013          	addi	x0,x0,0
    430c:	00000013          	addi	x0,x0,0
    4310:	00000013          	addi	x0,x0,0
    4314:	00000013          	addi	x0,x0,0
    4318:	00000013          	addi	x0,x0,0
    431c:	00000013          	addi	x0,x0,0
    4320:	0000c517          	auipc	x10,0xc
    4324:	2a550513          	addi	x10,x10,677 # 105c5 <trap_diag_missing_hint_str>
    4328:	00000013          	addi	x0,x0,0
    432c:	00000013          	addi	x0,x0,0
    4330:	00000013          	addi	x0,x0,0
    4334:	00000013          	addi	x0,x0,0
    4338:	00000013          	addi	x0,x0,0
    433c:	00000013          	addi	x0,x0,0
    4340:	0001c097          	auipc	x1,0x1c
    4344:	ec4080e7          	jalr	x1,-316(x1) # 20204 <rvmodel_io_write_str>
    4348:	00001097          	auipc	x1,0x1
    434c:	908080e7          	jalr	x1,-1784(x1) # 4c50 <failedtest_print_csr_context>
    4350:	0b50006f          	jal	x0,4c04 <failedtest_report_end>

00004354 <trap_report_field_mismatch>:
    4354:	00000013          	addi	x0,x0,0
    4358:	00000013          	addi	x0,x0,0
    435c:	00000013          	addi	x0,x0,0
    4360:	0000c517          	auipc	x10,0xc
    4364:	34c50513          	addi	x10,x10,844 # 106ac <trap_diag_handler_mode_str>
    4368:	00000013          	addi	x0,x0,0
    436c:	00000013          	addi	x0,x0,0
    4370:	00000013          	addi	x0,x0,0
    4374:	00000013          	addi	x0,x0,0
    4378:	00000013          	addi	x0,x0,0
    437c:	00000013          	addi	x0,x0,0
    4380:	0001c097          	auipc	x1,0x1c
    4384:	e84080e7          	jalr	x1,-380(x1) # 20204 <rvmodel_io_write_str>
    4388:	0000b517          	auipc	x10,0xb
    438c:	e8c52503          	lw	x10,-372(x10) # f214 <trap_diag_mode>
    4390:	04050a63          	beq	x10,x0,43e4 <trap_mode_m>
    4394:	00100593          	addi	x11,x0,1
    4398:	08b50663          	beq	x10,x11,4424 <trap_mode_s>
    439c:	00200593          	addi	x11,x0,2
    43a0:	0cb50263          	beq	x10,x11,4464 <trap_mode_h>
    43a4:	00300593          	addi	x11,x0,3
    43a8:	0eb50e63          	beq	x10,x11,44a4 <trap_mode_v>
    43ac:	00000013          	addi	x0,x0,0
    43b0:	00000013          	addi	x0,x0,0
    43b4:	00000013          	addi	x0,x0,0
    43b8:	00000013          	addi	x0,x0,0
    43bc:	00000013          	addi	x0,x0,0
    43c0:	0000c517          	auipc	x10,0xc
    43c4:	32850513          	addi	x10,x10,808 # 106e8 <trap_diag_mode_unknown_str>
    43c8:	00000013          	addi	x0,x0,0
    43cc:	00000013          	addi	x0,x0,0
    43d0:	00000013          	addi	x0,x0,0
    43d4:	00000013          	addi	x0,x0,0
    43d8:	00000013          	addi	x0,x0,0
    43dc:	00000013          	addi	x0,x0,0
    43e0:	1000006f          	jal	x0,44e0 <trap_mode_print>

000043e4 <trap_mode_m>:
    43e4:	00000013          	addi	x0,x0,0
    43e8:	00000013          	addi	x0,x0,0
    43ec:	00000013          	addi	x0,x0,0
    43f0:	00000013          	addi	x0,x0,0
    43f4:	00000013          	addi	x0,x0,0
    43f8:	00000013          	addi	x0,x0,0
    43fc:	00000013          	addi	x0,x0,0
    4400:	0000c517          	auipc	x10,0xc
    4404:	2c650513          	addi	x10,x10,710 # 106c6 <trap_diag_mode_m_str>
    4408:	00000013          	addi	x0,x0,0
    440c:	00000013          	addi	x0,x0,0
    4410:	00000013          	addi	x0,x0,0
    4414:	00000013          	addi	x0,x0,0
    4418:	00000013          	addi	x0,x0,0
    441c:	00000013          	addi	x0,x0,0
    4420:	0c00006f          	jal	x0,44e0 <trap_mode_print>

00004424 <trap_mode_s>:
    4424:	00000013          	addi	x0,x0,0
    4428:	00000013          	addi	x0,x0,0
    442c:	00000013          	addi	x0,x0,0
    4430:	00000013          	addi	x0,x0,0
    4434:	00000013          	addi	x0,x0,0
    4438:	00000013          	addi	x0,x0,0
    443c:	00000013          	addi	x0,x0,0
    4440:	0000c517          	auipc	x10,0xc
    4444:	28e50513          	addi	x10,x10,654 # 106ce <trap_diag_mode_s_str>
    4448:	00000013          	addi	x0,x0,0
    444c:	00000013          	addi	x0,x0,0
    4450:	00000013          	addi	x0,x0,0
    4454:	00000013          	addi	x0,x0,0
    4458:	00000013          	addi	x0,x0,0
    445c:	00000013          	addi	x0,x0,0
    4460:	0800006f          	jal	x0,44e0 <trap_mode_print>

00004464 <trap_mode_h>:
    4464:	00000013          	addi	x0,x0,0
    4468:	00000013          	addi	x0,x0,0
    446c:	00000013          	addi	x0,x0,0
    4470:	00000013          	addi	x0,x0,0
    4474:	00000013          	addi	x0,x0,0
    4478:	00000013          	addi	x0,x0,0
    447c:	00000013          	addi	x0,x0,0
    4480:	0000c517          	auipc	x10,0xc
    4484:	25650513          	addi	x10,x10,598 # 106d6 <trap_diag_mode_hs_str>
    4488:	00000013          	addi	x0,x0,0
    448c:	00000013          	addi	x0,x0,0
    4490:	00000013          	addi	x0,x0,0
    4494:	00000013          	addi	x0,x0,0
    4498:	00000013          	addi	x0,x0,0
    449c:	00000013          	addi	x0,x0,0
    44a0:	0400006f          	jal	x0,44e0 <trap_mode_print>

000044a4 <trap_mode_v>:
    44a4:	00000013          	addi	x0,x0,0
    44a8:	00000013          	addi	x0,x0,0
    44ac:	00000013          	addi	x0,x0,0
    44b0:	00000013          	addi	x0,x0,0
    44b4:	00000013          	addi	x0,x0,0
    44b8:	00000013          	addi	x0,x0,0
    44bc:	00000013          	addi	x0,x0,0
    44c0:	0000c517          	auipc	x10,0xc
    44c4:	21f50513          	addi	x10,x10,543 # 106df <trap_diag_mode_vs_str>
    44c8:	00000013          	addi	x0,x0,0
    44cc:	00000013          	addi	x0,x0,0
    44d0:	00000013          	addi	x0,x0,0
    44d4:	00000013          	addi	x0,x0,0
    44d8:	00000013          	addi	x0,x0,0
    44dc:	00000013          	addi	x0,x0,0

000044e0 <trap_mode_print>:
    44e0:	0001c097          	auipc	x1,0x1c
    44e4:	d24080e7          	jalr	x1,-732(x1) # 20204 <rvmodel_io_write_str>
    44e8:	00000013          	addi	x0,x0,0
    44ec:	00000013          	addi	x0,x0,0
    44f0:	00000013          	addi	x0,x0,0
    44f4:	00000013          	addi	x0,x0,0
    44f8:	00000013          	addi	x0,x0,0
    44fc:	00000013          	addi	x0,x0,0
    4500:	0000c517          	auipc	x10,0xc
    4504:	1f150513          	addi	x10,x10,497 # 106f1 <trap_diag_field_str>
    4508:	00000013          	addi	x0,x0,0
    450c:	00000013          	addi	x0,x0,0
    4510:	00000013          	addi	x0,x0,0
    4514:	00000013          	addi	x0,x0,0
    4518:	00000013          	addi	x0,x0,0
    451c:	00000013          	addi	x0,x0,0
    4520:	0001c097          	auipc	x1,0x1c
    4524:	ce4080e7          	jalr	x1,-796(x1) # 20204 <rvmodel_io_write_str>
    4528:	0000b517          	auipc	x10,0xb
    452c:	ce852503          	lw	x10,-792(x10) # f210 <trap_diag_subtype>
    4530:	00100593          	addi	x11,x0,1
    4534:	06b50863          	beq	x10,x11,45a4 <trap_field_vect>
    4538:	00200593          	addi	x11,x0,2
    453c:	0ab50463          	beq	x10,x11,45e4 <trap_field_cause>
    4540:	00300593          	addi	x11,x0,3
    4544:	0eb50063          	beq	x10,x11,4624 <trap_field_epc>
    4548:	00400593          	addi	x11,x0,4
    454c:	10b50c63          	beq	x10,x11,4664 <trap_field_tval>
    4550:	00500593          	addi	x11,x0,5
    4554:	14b50863          	beq	x10,x11,46a4 <trap_field_ip>
    4558:	00600593          	addi	x11,x0,6
    455c:	18b50463          	beq	x10,x11,46e4 <trap_field_tval2>
    4560:	00700593          	addi	x11,x0,7
    4564:	1cb50063          	beq	x10,x11,4724 <trap_field_tinst>
    4568:	00800593          	addi	x11,x0,8
    456c:	1eb50c63          	beq	x10,x11,4764 <trap_field_intid>
    4570:	00000013          	addi	x0,x0,0
    4574:	00000013          	addi	x0,x0,0
    4578:	00000013          	addi	x0,x0,0
    457c:	00000013          	addi	x0,x0,0
    4580:	0000c517          	auipc	x10,0xc
    4584:	2c850513          	addi	x10,x10,712 # 10848 <trap_diag_field_unknown_str>
    4588:	00000013          	addi	x0,x0,0
    458c:	00000013          	addi	x0,x0,0
    4590:	00000013          	addi	x0,x0,0
    4594:	00000013          	addi	x0,x0,0
    4598:	00000013          	addi	x0,x0,0
    459c:	00000013          	addi	x0,x0,0
    45a0:	2000006f          	jal	x0,47a0 <trap_field_print>

000045a4 <trap_field_vect>:
    45a4:	00000013          	addi	x0,x0,0
    45a8:	00000013          	addi	x0,x0,0
    45ac:	00000013          	addi	x0,x0,0
    45b0:	00000013          	addi	x0,x0,0
    45b4:	00000013          	addi	x0,x0,0
    45b8:	00000013          	addi	x0,x0,0
    45bc:	00000013          	addi	x0,x0,0
    45c0:	0000c517          	auipc	x10,0xc
    45c4:	14b50513          	addi	x10,x10,331 # 1070b <trap_diag_field_vect_str>
    45c8:	00000013          	addi	x0,x0,0
    45cc:	00000013          	addi	x0,x0,0
    45d0:	00000013          	addi	x0,x0,0
    45d4:	00000013          	addi	x0,x0,0
    45d8:	00000013          	addi	x0,x0,0
    45dc:	00000013          	addi	x0,x0,0
    45e0:	1c00006f          	jal	x0,47a0 <trap_field_print>

000045e4 <trap_field_cause>:
    45e4:	00000013          	addi	x0,x0,0
    45e8:	00000013          	addi	x0,x0,0
    45ec:	00000013          	addi	x0,x0,0
    45f0:	00000013          	addi	x0,x0,0
    45f4:	00000013          	addi	x0,x0,0
    45f8:	00000013          	addi	x0,x0,0
    45fc:	00000013          	addi	x0,x0,0
    4600:	0000c517          	auipc	x10,0xc
    4604:	13c50513          	addi	x10,x10,316 # 1073c <trap_diag_field_cause_str>
    4608:	00000013          	addi	x0,x0,0
    460c:	00000013          	addi	x0,x0,0
    4610:	00000013          	addi	x0,x0,0
    4614:	00000013          	addi	x0,x0,0
    4618:	00000013          	addi	x0,x0,0
    461c:	00000013          	addi	x0,x0,0
    4620:	1800006f          	jal	x0,47a0 <trap_field_print>

00004624 <trap_field_epc>:
    4624:	00000013          	addi	x0,x0,0
    4628:	00000013          	addi	x0,x0,0
    462c:	00000013          	addi	x0,x0,0
    4630:	00000013          	addi	x0,x0,0
    4634:	00000013          	addi	x0,x0,0
    4638:	00000013          	addi	x0,x0,0
    463c:	00000013          	addi	x0,x0,0
    4640:	0000c517          	auipc	x10,0xc
    4644:	11c50513          	addi	x10,x10,284 # 1075c <trap_diag_field_epc_str>
    4648:	00000013          	addi	x0,x0,0
    464c:	00000013          	addi	x0,x0,0
    4650:	00000013          	addi	x0,x0,0
    4654:	00000013          	addi	x0,x0,0
    4658:	00000013          	addi	x0,x0,0
    465c:	00000013          	addi	x0,x0,0
    4660:	1400006f          	jal	x0,47a0 <trap_field_print>

00004664 <trap_field_tval>:
    4664:	00000013          	addi	x0,x0,0
    4668:	00000013          	addi	x0,x0,0
    466c:	00000013          	addi	x0,x0,0
    4670:	00000013          	addi	x0,x0,0
    4674:	00000013          	addi	x0,x0,0
    4678:	00000013          	addi	x0,x0,0
    467c:	00000013          	addi	x0,x0,0
    4680:	0000c517          	auipc	x10,0xc
    4684:	0fa50513          	addi	x10,x10,250 # 1077a <trap_diag_field_tval_str>
    4688:	00000013          	addi	x0,x0,0
    468c:	00000013          	addi	x0,x0,0
    4690:	00000013          	addi	x0,x0,0
    4694:	00000013          	addi	x0,x0,0
    4698:	00000013          	addi	x0,x0,0
    469c:	00000013          	addi	x0,x0,0
    46a0:	1000006f          	jal	x0,47a0 <trap_field_print>

000046a4 <trap_field_ip>:
    46a4:	00000013          	addi	x0,x0,0
    46a8:	00000013          	addi	x0,x0,0
    46ac:	00000013          	addi	x0,x0,0
    46b0:	00000013          	addi	x0,x0,0
    46b4:	00000013          	addi	x0,x0,0
    46b8:	00000013          	addi	x0,x0,0
    46bc:	00000013          	addi	x0,x0,0
    46c0:	0000c517          	auipc	x10,0xc
    46c4:	0d950513          	addi	x10,x10,217 # 10799 <trap_diag_field_ip_str>
    46c8:	00000013          	addi	x0,x0,0
    46cc:	00000013          	addi	x0,x0,0
    46d0:	00000013          	addi	x0,x0,0
    46d4:	00000013          	addi	x0,x0,0
    46d8:	00000013          	addi	x0,x0,0
    46dc:	00000013          	addi	x0,x0,0
    46e0:	0c00006f          	jal	x0,47a0 <trap_field_print>

000046e4 <trap_field_tval2>:
    46e4:	00000013          	addi	x0,x0,0
    46e8:	00000013          	addi	x0,x0,0
    46ec:	00000013          	addi	x0,x0,0
    46f0:	00000013          	addi	x0,x0,0
    46f4:	00000013          	addi	x0,x0,0
    46f8:	00000013          	addi	x0,x0,0
    46fc:	00000013          	addi	x0,x0,0
    4700:	0000c517          	auipc	x10,0xc
    4704:	0c150513          	addi	x10,x10,193 # 107c1 <trap_diag_field_tval2_str>
    4708:	00000013          	addi	x0,x0,0
    470c:	00000013          	addi	x0,x0,0
    4710:	00000013          	addi	x0,x0,0
    4714:	00000013          	addi	x0,x0,0
    4718:	00000013          	addi	x0,x0,0
    471c:	00000013          	addi	x0,x0,0
    4720:	0800006f          	jal	x0,47a0 <trap_field_print>

00004724 <trap_field_tinst>:
    4724:	00000013          	addi	x0,x0,0
    4728:	00000013          	addi	x0,x0,0
    472c:	00000013          	addi	x0,x0,0
    4730:	00000013          	addi	x0,x0,0
    4734:	00000013          	addi	x0,x0,0
    4738:	00000013          	addi	x0,x0,0
    473c:	00000013          	addi	x0,x0,0
    4740:	0000c517          	auipc	x10,0xc
    4744:	0ad50513          	addi	x10,x10,173 # 107ed <trap_diag_field_tinst_str>
    4748:	00000013          	addi	x0,x0,0
    474c:	00000013          	addi	x0,x0,0
    4750:	00000013          	addi	x0,x0,0
    4754:	00000013          	addi	x0,x0,0
    4758:	00000013          	addi	x0,x0,0
    475c:	00000013          	addi	x0,x0,0
    4760:	0400006f          	jal	x0,47a0 <trap_field_print>

00004764 <trap_field_intid>:
    4764:	00000013          	addi	x0,x0,0
    4768:	00000013          	addi	x0,x0,0
    476c:	00000013          	addi	x0,x0,0
    4770:	00000013          	addi	x0,x0,0
    4774:	00000013          	addi	x0,x0,0
    4778:	00000013          	addi	x0,x0,0
    477c:	00000013          	addi	x0,x0,0
    4780:	0000c517          	auipc	x10,0xc
    4784:	09950513          	addi	x10,x10,153 # 10819 <trap_diag_field_intid_str>
    4788:	00000013          	addi	x0,x0,0
    478c:	00000013          	addi	x0,x0,0
    4790:	00000013          	addi	x0,x0,0
    4794:	00000013          	addi	x0,x0,0
    4798:	00000013          	addi	x0,x0,0
    479c:	00000013          	addi	x0,x0,0

000047a0 <trap_field_print>:
    47a0:	0001c097          	auipc	x1,0x1c
    47a4:	a64080e7          	jalr	x1,-1436(x1) # 20204 <rvmodel_io_write_str>
    47a8:	00000013          	addi	x0,x0,0
    47ac:	00000013          	addi	x0,x0,0
    47b0:	00000013          	addi	x0,x0,0
    47b4:	00000013          	addi	x0,x0,0
    47b8:	00000013          	addi	x0,x0,0
    47bc:	00000013          	addi	x0,x0,0
    47c0:	0000c517          	auipc	x10,0xc
    47c4:	09750513          	addi	x10,x10,151 # 10857 <trap_diag_expected_str>
    47c8:	00000013          	addi	x0,x0,0
    47cc:	00000013          	addi	x0,x0,0
    47d0:	00000013          	addi	x0,x0,0
    47d4:	00000013          	addi	x0,x0,0
    47d8:	00000013          	addi	x0,x0,0
    47dc:	00000013          	addi	x0,x0,0
    47e0:	0001c097          	auipc	x1,0x1c
    47e4:	a24080e7          	jalr	x1,-1500(x1) # 20204 <rvmodel_io_write_str>
    47e8:	0000b517          	auipc	x10,0xb
    47ec:	a3852503          	lw	x10,-1480(x10) # f220 <trap_diag_expected_value>
    47f0:	02000593          	addi	x11,x0,32
    47f4:	664000ef          	jal	x1,4e58 <failedtest_hex_to_str>
    47f8:	00000013          	addi	x0,x0,0
    47fc:	00000013          	addi	x0,x0,0
    4800:	0000b517          	auipc	x10,0xb
    4804:	a6850513          	addi	x10,x10,-1432 # f268 <ascii_buffer>
    4808:	00000013          	addi	x0,x0,0
    480c:	00000013          	addi	x0,x0,0
    4810:	00000013          	addi	x0,x0,0
    4814:	00000013          	addi	x0,x0,0
    4818:	00000013          	addi	x0,x0,0
    481c:	00000013          	addi	x0,x0,0
    4820:	0001c097          	auipc	x1,0x1c
    4824:	9e4080e7          	jalr	x1,-1564(x1) # 20204 <rvmodel_io_write_str>
    4828:	00000013          	addi	x0,x0,0
    482c:	00000013          	addi	x0,x0,0
    4830:	00000013          	addi	x0,x0,0
    4834:	00000013          	addi	x0,x0,0
    4838:	00000013          	addi	x0,x0,0
    483c:	00000013          	addi	x0,x0,0
    4840:	0000c517          	auipc	x10,0xc
    4844:	02e50513          	addi	x10,x10,46 # 1086e <trap_diag_actual_str>
    4848:	00000013          	addi	x0,x0,0
    484c:	00000013          	addi	x0,x0,0
    4850:	00000013          	addi	x0,x0,0
    4854:	00000013          	addi	x0,x0,0
    4858:	00000013          	addi	x0,x0,0
    485c:	00000013          	addi	x0,x0,0
    4860:	0001c097          	auipc	x1,0x1c
    4864:	9a4080e7          	jalr	x1,-1628(x1) # 20204 <rvmodel_io_write_str>
    4868:	0000b517          	auipc	x10,0xb
    486c:	9b052503          	lw	x10,-1616(x10) # f218 <trap_diag_actual_value>
    4870:	02000593          	addi	x11,x0,32
    4874:	5e4000ef          	jal	x1,4e58 <failedtest_hex_to_str>
    4878:	00000013          	addi	x0,x0,0
    487c:	00000013          	addi	x0,x0,0
    4880:	0000b517          	auipc	x10,0xb
    4884:	9e850513          	addi	x10,x10,-1560 # f268 <ascii_buffer>
    4888:	00000013          	addi	x0,x0,0
    488c:	00000013          	addi	x0,x0,0
    4890:	00000013          	addi	x0,x0,0
    4894:	00000013          	addi	x0,x0,0
    4898:	00000013          	addi	x0,x0,0
    489c:	00000013          	addi	x0,x0,0
    48a0:	0001c097          	auipc	x1,0x1c
    48a4:	964080e7          	jalr	x1,-1692(x1) # 20204 <rvmodel_io_write_str>
    48a8:	0000b517          	auipc	x10,0xb
    48ac:	96852503          	lw	x10,-1688(x10) # f210 <trap_diag_subtype>
    48b0:	00200593          	addi	x11,x0,2
    48b4:	08b51463          	bne	x10,x11,493c <trap_field_not_cause>
    48b8:	00000013          	addi	x0,x0,0
    48bc:	00000013          	addi	x0,x0,0
    48c0:	0000c517          	auipc	x10,0xc
    48c4:	fc550513          	addi	x10,x10,-59 # 10885 <trap_diag_expected_cause_name_str>
    48c8:	00000013          	addi	x0,x0,0
    48cc:	00000013          	addi	x0,x0,0
    48d0:	00000013          	addi	x0,x0,0
    48d4:	00000013          	addi	x0,x0,0
    48d8:	00000013          	addi	x0,x0,0
    48dc:	00000013          	addi	x0,x0,0
    48e0:	0001c097          	auipc	x1,0x1c
    48e4:	924080e7          	jalr	x1,-1756(x1) # 20204 <rvmodel_io_write_str>
    48e8:	0000b517          	auipc	x10,0xb
    48ec:	93852503          	lw	x10,-1736(x10) # f220 <trap_diag_expected_value>
    48f0:	284000ef          	jal	x1,4b74 <trap_cause_to_str>
    48f4:	0001c097          	auipc	x1,0x1c
    48f8:	910080e7          	jalr	x1,-1776(x1) # 20204 <rvmodel_io_write_str>
    48fc:	00000013          	addi	x0,x0,0
    4900:	0000c517          	auipc	x10,0xc
    4904:	f9c50513          	addi	x10,x10,-100 # 1089c <trap_diag_actual_cause_name_str>
    4908:	00000013          	addi	x0,x0,0
    490c:	00000013          	addi	x0,x0,0
    4910:	00000013          	addi	x0,x0,0
    4914:	00000013          	addi	x0,x0,0
    4918:	00000013          	addi	x0,x0,0
    491c:	00000013          	addi	x0,x0,0
    4920:	0001c097          	auipc	x1,0x1c
    4924:	8e4080e7          	jalr	x1,-1820(x1) # 20204 <rvmodel_io_write_str>
    4928:	0000b517          	auipc	x10,0xb
    492c:	8f052503          	lw	x10,-1808(x10) # f218 <trap_diag_actual_value>
    4930:	244000ef          	jal	x1,4b74 <trap_cause_to_str>
    4934:	0001c097          	auipc	x1,0x1c
    4938:	8d0080e7          	jalr	x1,-1840(x1) # 20204 <rvmodel_io_write_str>

0000493c <trap_field_not_cause>:
    493c:	00000097          	auipc	x1,0x0
    4940:	314080e7          	jalr	x1,788(x1) # 4c50 <failedtest_print_csr_context>
    4944:	0000b517          	auipc	x10,0xb
    4948:	8cc52503          	lw	x10,-1844(x10) # f210 <trap_diag_subtype>
    494c:	00100593          	addi	x11,x0,1
    4950:	02b51e63          	bne	x10,x11,498c <trap_field_not_cause+0x50>
    4954:	00000013          	addi	x0,x0,0
    4958:	00000013          	addi	x0,x0,0
    495c:	00000013          	addi	x0,x0,0
    4960:	0000c517          	auipc	x10,0xc
    4964:	fb250513          	addi	x10,x10,-78 # 10912 <trap_diag_hint_vect_str>
    4968:	00000013          	addi	x0,x0,0
    496c:	00000013          	addi	x0,x0,0
    4970:	00000013          	addi	x0,x0,0
    4974:	00000013          	addi	x0,x0,0
    4978:	00000013          	addi	x0,x0,0
    497c:	00000013          	addi	x0,x0,0
    4980:	0001c097          	auipc	x1,0x1c
    4984:	884080e7          	jalr	x1,-1916(x1) # 20204 <rvmodel_io_write_str>
    4988:	27c0006f          	jal	x0,4c04 <failedtest_report_end>
    498c:	00200593          	addi	x11,x0,2
    4990:	02b51e63          	bne	x10,x11,49cc <trap_field_not_cause+0x90>
    4994:	00000013          	addi	x0,x0,0
    4998:	00000013          	addi	x0,x0,0
    499c:	00000013          	addi	x0,x0,0
    49a0:	0000c517          	auipc	x10,0xc
    49a4:	04850513          	addi	x10,x10,72 # 109e8 <trap_diag_hint_cause_str>
    49a8:	00000013          	addi	x0,x0,0
    49ac:	00000013          	addi	x0,x0,0
    49b0:	00000013          	addi	x0,x0,0
    49b4:	00000013          	addi	x0,x0,0
    49b8:	00000013          	addi	x0,x0,0
    49bc:	00000013          	addi	x0,x0,0
    49c0:	0001c097          	auipc	x1,0x1c
    49c4:	844080e7          	jalr	x1,-1980(x1) # 20204 <rvmodel_io_write_str>
    49c8:	23c0006f          	jal	x0,4c04 <failedtest_report_end>
    49cc:	00300593          	addi	x11,x0,3
    49d0:	02b51e63          	bne	x10,x11,4a0c <trap_field_not_cause+0xd0>
    49d4:	00000013          	addi	x0,x0,0
    49d8:	00000013          	addi	x0,x0,0
    49dc:	00000013          	addi	x0,x0,0
    49e0:	0000c517          	auipc	x10,0xc
    49e4:	0fb50513          	addi	x10,x10,251 # 10adb <trap_diag_hint_epc_str>
    49e8:	00000013          	addi	x0,x0,0
    49ec:	00000013          	addi	x0,x0,0
    49f0:	00000013          	addi	x0,x0,0
    49f4:	00000013          	addi	x0,x0,0
    49f8:	00000013          	addi	x0,x0,0
    49fc:	00000013          	addi	x0,x0,0
    4a00:	0001c097          	auipc	x1,0x1c
    4a04:	804080e7          	jalr	x1,-2044(x1) # 20204 <rvmodel_io_write_str>
    4a08:	1fc0006f          	jal	x0,4c04 <failedtest_report_end>
    4a0c:	00400593          	addi	x11,x0,4
    4a10:	02b51e63          	bne	x10,x11,4a4c <trap_field_not_cause+0x110>
    4a14:	00000013          	addi	x0,x0,0
    4a18:	00000013          	addi	x0,x0,0
    4a1c:	00000013          	addi	x0,x0,0
    4a20:	0000c517          	auipc	x10,0xc
    4a24:	1b650513          	addi	x10,x10,438 # 10bd6 <trap_diag_hint_tval_str>
    4a28:	00000013          	addi	x0,x0,0
    4a2c:	00000013          	addi	x0,x0,0
    4a30:	00000013          	addi	x0,x0,0
    4a34:	00000013          	addi	x0,x0,0
    4a38:	00000013          	addi	x0,x0,0
    4a3c:	00000013          	addi	x0,x0,0
    4a40:	0001b097          	auipc	x1,0x1b
    4a44:	7c4080e7          	jalr	x1,1988(x1) # 20204 <rvmodel_io_write_str>
    4a48:	1bc0006f          	jal	x0,4c04 <failedtest_report_end>
    4a4c:	00500593          	addi	x11,x0,5
    4a50:	02b51e63          	bne	x10,x11,4a8c <trap_field_not_cause+0x150>
    4a54:	00000013          	addi	x0,x0,0
    4a58:	00000013          	addi	x0,x0,0
    4a5c:	00000013          	addi	x0,x0,0
    4a60:	0000c517          	auipc	x10,0xc
    4a64:	25d50513          	addi	x10,x10,605 # 10cbd <trap_diag_hint_ip_str>
    4a68:	00000013          	addi	x0,x0,0
    4a6c:	00000013          	addi	x0,x0,0
    4a70:	00000013          	addi	x0,x0,0
    4a74:	00000013          	addi	x0,x0,0
    4a78:	00000013          	addi	x0,x0,0
    4a7c:	00000013          	addi	x0,x0,0
    4a80:	0001b097          	auipc	x1,0x1b
    4a84:	784080e7          	jalr	x1,1924(x1) # 20204 <rvmodel_io_write_str>
    4a88:	17c0006f          	jal	x0,4c04 <failedtest_report_end>
    4a8c:	1780006f          	jal	x0,4c04 <failedtest_report_end>

00004a90 <trap_report_generic>:
    4a90:	00000013          	addi	x0,x0,0
    4a94:	00000013          	addi	x0,x0,0
    4a98:	00000013          	addi	x0,x0,0
    4a9c:	00000013          	addi	x0,x0,0
    4aa0:	0000c517          	auipc	x10,0xc
    4aa4:	e2a50513          	addi	x10,x10,-470 # 108ca <trap_diag_generic_str>
    4aa8:	00000013          	addi	x0,x0,0
    4aac:	00000013          	addi	x0,x0,0
    4ab0:	00000013          	addi	x0,x0,0
    4ab4:	00000013          	addi	x0,x0,0
    4ab8:	00000013          	addi	x0,x0,0
    4abc:	00000013          	addi	x0,x0,0
    4ac0:	0001b097          	auipc	x1,0x1b
    4ac4:	744080e7          	jalr	x1,1860(x1) # 20204 <rvmodel_io_write_str>
    4ac8:	0000a617          	auipc	x12,0xa
    4acc:	78062603          	lw	x12,1920(x12) # f248 <saved_mepc>
    4ad0:	00000013          	addi	x0,x0,0
    4ad4:	00000013          	addi	x0,x0,0
    4ad8:	00000013          	addi	x0,x0,0
    4adc:	00000013          	addi	x0,x0,0
    4ae0:	0000b517          	auipc	x10,0xb
    4ae4:	dcd50513          	addi	x10,x10,-563 # f8ad <xepcinstrstr>
    4ae8:	00000013          	addi	x0,x0,0
    4aec:	00000013          	addi	x0,x0,0
    4af0:	00000013          	addi	x0,x0,0
    4af4:	00000013          	addi	x0,x0,0
    4af8:	00000013          	addi	x0,x0,0
    4afc:	00000013          	addi	x0,x0,0
    4b00:	0001b097          	auipc	x1,0x1b
    4b04:	704080e7          	jalr	x1,1796(x1) # 20204 <rvmodel_io_write_str>
    4b08:	00065503          	lhu	x10,0(x12)
    4b0c:	01000593          	addi	x11,x0,16
    4b10:	00357413          	andi	x8,x10,3
    4b14:	00300493          	addi	x9,x0,3
    4b18:	00941a63          	bne	x8,x9,4b2c <trap_report_generic+0x9c>
    4b1c:	00265403          	lhu	x8,2(x12)
    4b20:	01041413          	slli	x8,x8,0x10
    4b24:	00856533          	or	x10,x10,x8
    4b28:	02000593          	addi	x11,x0,32
    4b2c:	32c000ef          	jal	x1,4e58 <failedtest_hex_to_str>
    4b30:	00000013          	addi	x0,x0,0
    4b34:	00000013          	addi	x0,x0,0
    4b38:	00000013          	addi	x0,x0,0
    4b3c:	00000013          	addi	x0,x0,0
    4b40:	0000a517          	auipc	x10,0xa
    4b44:	72850513          	addi	x10,x10,1832 # f268 <ascii_buffer>
    4b48:	00000013          	addi	x0,x0,0
    4b4c:	00000013          	addi	x0,x0,0
    4b50:	00000013          	addi	x0,x0,0
    4b54:	00000013          	addi	x0,x0,0
    4b58:	00000013          	addi	x0,x0,0
    4b5c:	00000013          	addi	x0,x0,0
    4b60:	0001b097          	auipc	x1,0x1b
    4b64:	6a4080e7          	jalr	x1,1700(x1) # 20204 <rvmodel_io_write_str>
    4b68:	00000097          	auipc	x1,0x0
    4b6c:	0e8080e7          	jalr	x1,232(x1) # 4c50 <failedtest_print_csr_context>
    4b70:	0940006f          	jal	x0,4c04 <failedtest_report_end>

00004b74 <trap_cause_to_str>:
    4b74:	02054263          	blt	x10,x0,4b98 <trap_cause_interrupt>

00004b78 <trap_cause_exception>:
    4b78:	01800593          	addi	x11,x0,24
    4b7c:	04b55463          	bge	x10,x11,4bc4 <trap_cause_unknown>
    4b80:	0000a597          	auipc	x11,0xa
    4b84:	71058593          	addi	x11,x11,1808 # f290 <end_failure_scratch>
    4b88:	00251613          	slli	x12,x10,0x2
    4b8c:	00c585b3          	add	x11,x11,x12
    4b90:	0005a503          	lw	x10,0(x11)
    4b94:	00008067          	jalr	x0,0(x1)

00004b98 <trap_cause_interrupt>:
    4b98:	00100593          	addi	x11,x0,1
    4b9c:	01f59593          	slli	x11,x11,0x1f
    4ba0:	00b54533          	xor	x10,x10,x11
    4ba4:	01000593          	addi	x11,x0,16
    4ba8:	00b55e63          	bge	x10,x11,4bc4 <trap_cause_unknown>
    4bac:	0000a597          	auipc	x11,0xa
    4bb0:	74458593          	addi	x11,x11,1860 # f2f0 <trap_int_name_tbl>
    4bb4:	00251613          	slli	x12,x10,0x2
    4bb8:	00c585b3          	add	x11,x11,x12
    4bbc:	0005a503          	lw	x10,0(x11)
    4bc0:	00008067          	jalr	x0,0(x1)

00004bc4 <trap_cause_unknown>:
    4bc4:	00000013          	addi	x0,x0,0
    4bc8:	00000013          	addi	x0,x0,0
    4bcc:	00000013          	addi	x0,x0,0
    4bd0:	00000013          	addi	x0,x0,0
    4bd4:	00000013          	addi	x0,x0,0
    4bd8:	00000013          	addi	x0,x0,0
    4bdc:	00000013          	addi	x0,x0,0
    4be0:	0000b517          	auipc	x10,0xb
    4be4:	b4e50513          	addi	x10,x10,-1202 # f72e <trap_cause_unknown_str>
    4be8:	00000013          	addi	x0,x0,0
    4bec:	00000013          	addi	x0,x0,0
    4bf0:	00000013          	addi	x0,x0,0
    4bf4:	00000013          	addi	x0,x0,0
    4bf8:	00000013          	addi	x0,x0,0
    4bfc:	00000013          	addi	x0,x0,0
    4c00:	00008067          	jalr	x0,0(x1)

00004c04 <failedtest_report_end>:
    4c04:	00000013          	addi	x0,x0,0
    4c08:	00000013          	addi	x0,x0,0
    4c0c:	00000013          	addi	x0,x0,0
    4c10:	00000013          	addi	x0,x0,0
    4c14:	00000013          	addi	x0,x0,0
    4c18:	00000013          	addi	x0,x0,0
    4c1c:	00000013          	addi	x0,x0,0
    4c20:	0000b517          	auipc	x10,0xb
    4c24:	6d550513          	addi	x10,x10,1749 # 102f5 <endstr>
    4c28:	00000013          	addi	x0,x0,0
    4c2c:	00000013          	addi	x0,x0,0
    4c30:	00000013          	addi	x0,x0,0
    4c34:	00000013          	addi	x0,x0,0
    4c38:	00000013          	addi	x0,x0,0
    4c3c:	00000013          	addi	x0,x0,0
    4c40:	0001b097          	auipc	x1,0x1b
    4c44:	5c4080e7          	jalr	x1,1476(x1) # 20204 <rvmodel_io_write_str>

00004c48 <failedtest_terminate>:
    4c48:	0001b097          	auipc	x1,0x1b
    4c4c:	5cc080e7          	jalr	x1,1484(x1) # 20214 <rvmodel_halt_fail>

00004c50 <failedtest_print_csr_context>:
    4c50:	0000a617          	auipc	x12,0xa
    4c54:	5f060613          	addi	x12,x12,1520 # f240 <csr_context_ret_addr>
    4c58:	00162023          	sw	x1,0(x12)
    4c5c:	00000013          	addi	x0,x0,0
    4c60:	0000b517          	auipc	x10,0xb
    4c64:	c6e50513          	addi	x10,x10,-914 # f8ce <mepcstr>
    4c68:	00000013          	addi	x0,x0,0
    4c6c:	00000013          	addi	x0,x0,0
    4c70:	00000013          	addi	x0,x0,0
    4c74:	00000013          	addi	x0,x0,0
    4c78:	00000013          	addi	x0,x0,0
    4c7c:	00000013          	addi	x0,x0,0
    4c80:	0001b097          	auipc	x1,0x1b
    4c84:	584080e7          	jalr	x1,1412(x1) # 20204 <rvmodel_io_write_str>
    4c88:	0000a517          	auipc	x10,0xa
    4c8c:	5c052503          	lw	x10,1472(x10) # f248 <saved_mepc>
    4c90:	02000593          	addi	x11,x0,32
    4c94:	1c4000ef          	jal	x1,4e58 <failedtest_hex_to_str>
    4c98:	00000013          	addi	x0,x0,0
    4c9c:	00000013          	addi	x0,x0,0
    4ca0:	0000a517          	auipc	x10,0xa
    4ca4:	5c850513          	addi	x10,x10,1480 # f268 <ascii_buffer>
    4ca8:	00000013          	addi	x0,x0,0
    4cac:	00000013          	addi	x0,x0,0
    4cb0:	00000013          	addi	x0,x0,0
    4cb4:	00000013          	addi	x0,x0,0
    4cb8:	00000013          	addi	x0,x0,0
    4cbc:	00000013          	addi	x0,x0,0
    4cc0:	0001b097          	auipc	x1,0x1b
    4cc4:	544080e7          	jalr	x1,1348(x1) # 20204 <rvmodel_io_write_str>
    4cc8:	00000013          	addi	x0,x0,0
    4ccc:	00000013          	addi	x0,x0,0
    4cd0:	00000013          	addi	x0,x0,0
    4cd4:	00000013          	addi	x0,x0,0
    4cd8:	00000013          	addi	x0,x0,0
    4cdc:	00000013          	addi	x0,x0,0
    4ce0:	0000b517          	auipc	x10,0xb
    4ce4:	bfe50513          	addi	x10,x10,-1026 # f8de <mcausestr>
    4ce8:	00000013          	addi	x0,x0,0
    4cec:	00000013          	addi	x0,x0,0
    4cf0:	00000013          	addi	x0,x0,0
    4cf4:	00000013          	addi	x0,x0,0
    4cf8:	00000013          	addi	x0,x0,0
    4cfc:	00000013          	addi	x0,x0,0
    4d00:	0001b097          	auipc	x1,0x1b
    4d04:	504080e7          	jalr	x1,1284(x1) # 20204 <rvmodel_io_write_str>
    4d08:	0000a517          	auipc	x10,0xa
    4d0c:	54852503          	lw	x10,1352(x10) # f250 <saved_mcause>
    4d10:	02000593          	addi	x11,x0,32
    4d14:	144000ef          	jal	x1,4e58 <failedtest_hex_to_str>
    4d18:	00000013          	addi	x0,x0,0
    4d1c:	00000013          	addi	x0,x0,0
    4d20:	0000a517          	auipc	x10,0xa
    4d24:	54850513          	addi	x10,x10,1352 # f268 <ascii_buffer>
    4d28:	00000013          	addi	x0,x0,0
    4d2c:	00000013          	addi	x0,x0,0
    4d30:	00000013          	addi	x0,x0,0
    4d34:	00000013          	addi	x0,x0,0
    4d38:	00000013          	addi	x0,x0,0
    4d3c:	00000013          	addi	x0,x0,0
    4d40:	0001b097          	auipc	x1,0x1b
    4d44:	4c4080e7          	jalr	x1,1220(x1) # 20204 <rvmodel_io_write_str>
    4d48:	00000013          	addi	x0,x0,0
    4d4c:	00000013          	addi	x0,x0,0
    4d50:	00000013          	addi	x0,x0,0
    4d54:	00000013          	addi	x0,x0,0
    4d58:	00000013          	addi	x0,x0,0
    4d5c:	00000013          	addi	x0,x0,0
    4d60:	0000b517          	auipc	x10,0xb
    4d64:	b8e50513          	addi	x10,x10,-1138 # f8ee <mtvalstr>
    4d68:	00000013          	addi	x0,x0,0
    4d6c:	00000013          	addi	x0,x0,0
    4d70:	00000013          	addi	x0,x0,0
    4d74:	00000013          	addi	x0,x0,0
    4d78:	00000013          	addi	x0,x0,0
    4d7c:	00000013          	addi	x0,x0,0
    4d80:	0001b097          	auipc	x1,0x1b
    4d84:	484080e7          	jalr	x1,1156(x1) # 20204 <rvmodel_io_write_str>
    4d88:	0000a517          	auipc	x10,0xa
    4d8c:	4d052503          	lw	x10,1232(x10) # f258 <saved_mtval>
    4d90:	02000593          	addi	x11,x0,32
    4d94:	0c4000ef          	jal	x1,4e58 <failedtest_hex_to_str>
    4d98:	00000013          	addi	x0,x0,0
    4d9c:	00000013          	addi	x0,x0,0
    4da0:	0000a517          	auipc	x10,0xa
    4da4:	4c850513          	addi	x10,x10,1224 # f268 <ascii_buffer>
    4da8:	00000013          	addi	x0,x0,0
    4dac:	00000013          	addi	x0,x0,0
    4db0:	00000013          	addi	x0,x0,0
    4db4:	00000013          	addi	x0,x0,0
    4db8:	00000013          	addi	x0,x0,0
    4dbc:	00000013          	addi	x0,x0,0
    4dc0:	0001b097          	auipc	x1,0x1b
    4dc4:	444080e7          	jalr	x1,1092(x1) # 20204 <rvmodel_io_write_str>
    4dc8:	00000013          	addi	x0,x0,0
    4dcc:	00000013          	addi	x0,x0,0
    4dd0:	00000013          	addi	x0,x0,0
    4dd4:	00000013          	addi	x0,x0,0
    4dd8:	00000013          	addi	x0,x0,0
    4ddc:	00000013          	addi	x0,x0,0
    4de0:	0000b517          	auipc	x10,0xb
    4de4:	b1e50513          	addi	x10,x10,-1250 # f8fe <mstatusstr>
    4de8:	00000013          	addi	x0,x0,0
    4dec:	00000013          	addi	x0,x0,0
    4df0:	00000013          	addi	x0,x0,0
    4df4:	00000013          	addi	x0,x0,0
    4df8:	00000013          	addi	x0,x0,0
    4dfc:	00000013          	addi	x0,x0,0
    4e00:	0001b097          	auipc	x1,0x1b
    4e04:	404080e7          	jalr	x1,1028(x1) # 20204 <rvmodel_io_write_str>
    4e08:	0000a517          	auipc	x10,0xa
    4e0c:	45852503          	lw	x10,1112(x10) # f260 <saved_mstatus>
    4e10:	02000593          	addi	x11,x0,32
    4e14:	044000ef          	jal	x1,4e58 <failedtest_hex_to_str>
    4e18:	00000013          	addi	x0,x0,0
    4e1c:	00000013          	addi	x0,x0,0
    4e20:	0000a517          	auipc	x10,0xa
    4e24:	44850513          	addi	x10,x10,1096 # f268 <ascii_buffer>
    4e28:	00000013          	addi	x0,x0,0
    4e2c:	00000013          	addi	x0,x0,0
    4e30:	00000013          	addi	x0,x0,0
    4e34:	00000013          	addi	x0,x0,0
    4e38:	00000013          	addi	x0,x0,0
    4e3c:	00000013          	addi	x0,x0,0
    4e40:	0001b097          	auipc	x1,0x1b
    4e44:	3c4080e7          	jalr	x1,964(x1) # 20204 <rvmodel_io_write_str>
    4e48:	0000a617          	auipc	x12,0xa
    4e4c:	3f860613          	addi	x12,x12,1016 # f240 <csr_context_ret_addr>
    4e50:	00062083          	lw	x1,0(x12)
    4e54:	00008067          	jalr	x0,0(x1)

00004e58 <failedtest_hex_to_str>:
    4e58:	00000013          	addi	x0,x0,0
    4e5c:	00000013          	addi	x0,x0,0
    4e60:	0000a617          	auipc	x12,0xa
    4e64:	40860613          	addi	x12,x12,1032 # f268 <ascii_buffer>
    4e68:	00000013          	addi	x0,x0,0
    4e6c:	00000013          	addi	x0,x0,0
    4e70:	00000013          	addi	x0,x0,0
    4e74:	00000013          	addi	x0,x0,0
    4e78:	00000013          	addi	x0,x0,0
    4e7c:	00000013          	addi	x0,x0,0
    4e80:	03000693          	addi	x13,x0,48
    4e84:	00d60023          	sb	x13,0(x12)
    4e88:	07800693          	addi	x13,x0,120
    4e8c:	00d600a3          	sb	x13,1(x12)
    4e90:	00260613          	addi	x12,x12,2
    4e94:	00058693          	addi	x13,x11,0

00004e98 <failedtest_hex_to_str_loop>:
    4e98:	ffc68693          	addi	x13,x13,-4
    4e9c:	00d55733          	srl	x14,x10,x13
    4ea0:	00f77713          	andi	x14,x14,15
    4ea4:	00a00793          	addi	x15,x0,10
    4ea8:	00f74663          	blt	x14,x15,4eb4 <failedtest_hex_to_str_digit>
    4eac:	05770713          	addi	x14,x14,87
    4eb0:	0080006f          	jal	x0,4eb8 <failedtest_hex_to_str_write>

00004eb4 <failedtest_hex_to_str_digit>:
    4eb4:	03070713          	addi	x14,x14,48

00004eb8 <failedtest_hex_to_str_write>:
    4eb8:	00e60023          	sb	x14,0(x12)
    4ebc:	00160613          	addi	x12,x12,1
    4ec0:	fc069ce3          	bne	x13,x0,4e98 <failedtest_hex_to_str_loop>
    4ec4:	00a00693          	addi	x13,x0,10
    4ec8:	00d60023          	sb	x13,0(x12)
    4ecc:	000600a3          	sb	x0,1(x12)
    4ed0:	00008067          	jalr	x0,0(x1)

00004ed4 <failedtest_dec_to_str>:
    4ed4:	00a00693          	addi	x13,x0,10
    4ed8:	02d54663          	blt	x10,x13,4f04 <failedtest_dec_to_str+0x30>
    4edc:	ff650513          	addi	x10,x10,-10
    4ee0:	03100713          	addi	x14,x0,49
    4ee4:	00d54c63          	blt	x10,x13,4efc <failedtest_dec_to_str+0x28>
    4ee8:	ff650513          	addi	x10,x10,-10
    4eec:	03200713          	addi	x14,x0,50
    4ef0:	00d54663          	blt	x10,x13,4efc <failedtest_dec_to_str+0x28>
    4ef4:	ff650513          	addi	x10,x10,-10
    4ef8:	03300713          	addi	x14,x0,51
    4efc:	00e60023          	sb	x14,0(x12)
    4f00:	00160613          	addi	x12,x12,1
    4f04:	03050513          	addi	x10,x10,48
    4f08:	00a60023          	sb	x10,0(x12)
    4f0c:	00a00693          	addi	x13,x0,10
    4f10:	00d600a3          	sb	x13,1(x12)
    4f14:	00060123          	sb	x0,2(x12)
    4f18:	00008067          	jalr	x0,0(x1)
    4f1c:	00000013          	addi	x0,x0,0

Disassembly of section .text.rvmodel:

00020000 <rvmodel_boot>:
   20000:	feedc0b7          	lui	x1,0xfeedc
   20004:	ead08093          	addi	x1,x1,-339 # feedbead <absimm+0x8f911ba4>
   20008:	01909793          	slli	x15,x1,0x19
   2000c:	0070d113          	srli	x2,x1,0x7
   20010:	00f16133          	or	x2,x2,x15
   20014:	01911793          	slli	x15,x2,0x19
   20018:	00715193          	srli	x3,x2,0x7
   2001c:	00f1e1b3          	or	x3,x3,x15
   20020:	01919793          	slli	x15,x3,0x19
   20024:	0071d213          	srli	x4,x3,0x7
   20028:	00f26233          	or	x4,x4,x15
   2002c:	01921793          	slli	x15,x4,0x19
   20030:	00725293          	srli	x5,x4,0x7
   20034:	00f2e2b3          	or	x5,x5,x15
   20038:	01929793          	slli	x15,x5,0x19
   2003c:	0072d313          	srli	x6,x5,0x7
   20040:	00f36333          	or	x6,x6,x15
   20044:	01931793          	slli	x15,x6,0x19
   20048:	00735393          	srli	x7,x6,0x7
   2004c:	00f3e3b3          	or	x7,x7,x15
   20050:	01939793          	slli	x15,x7,0x19
   20054:	0073d413          	srli	x8,x7,0x7
   20058:	00f46433          	or	x8,x8,x15
   2005c:	01941793          	slli	x15,x8,0x19
   20060:	00745493          	srli	x9,x8,0x7
   20064:	00f4e4b3          	or	x9,x9,x15
   20068:	01949793          	slli	x15,x9,0x19
   2006c:	0074d513          	srli	x10,x9,0x7
   20070:	00f56533          	or	x10,x10,x15
   20074:	01951793          	slli	x15,x10,0x19
   20078:	00755593          	srli	x11,x10,0x7
   2007c:	00f5e5b3          	or	x11,x11,x15
   20080:	01959793          	slli	x15,x11,0x19
   20084:	0075d613          	srli	x12,x11,0x7
   20088:	00f66633          	or	x12,x12,x15
   2008c:	01961793          	slli	x15,x12,0x19
   20090:	00765693          	srli	x13,x12,0x7
   20094:	00f6e6b3          	or	x13,x13,x15
   20098:	01969793          	slli	x15,x13,0x19
   2009c:	0076d713          	srli	x14,x13,0x7
   200a0:	00f76733          	or	x14,x14,x15
   200a4:	fab807b7          	lui	x15,0xfab80
   200a8:	bb678793          	addi	x15,x15,-1098 # fab7fbb6 <absimm+0x8b5b58ad>
   200ac:	7d5c0837          	lui	x16,0x7d5c0
   200b0:	ddb80813          	addi	x16,x16,-549 # 7d5bfddb <absimm+0xdff5ad2>
   200b4:	01981793          	slli	x15,x16,0x19
   200b8:	00785893          	srli	x17,x16,0x7
   200bc:	00f8e8b3          	or	x17,x17,x15
   200c0:	01989793          	slli	x15,x17,0x19
   200c4:	0078d913          	srli	x18,x17,0x7
   200c8:	00f96933          	or	x18,x18,x15
   200cc:	01991793          	slli	x15,x18,0x19
   200d0:	00795993          	srli	x19,x18,0x7
   200d4:	00f9e9b3          	or	x19,x19,x15
   200d8:	01999793          	slli	x15,x19,0x19
   200dc:	0079da13          	srli	x20,x19,0x7
   200e0:	00fa6a33          	or	x20,x20,x15
   200e4:	019a1793          	slli	x15,x20,0x19
   200e8:	007a5a93          	srli	x21,x20,0x7
   200ec:	00faeab3          	or	x21,x21,x15
   200f0:	019a9793          	slli	x15,x21,0x19
   200f4:	007adb13          	srli	x22,x21,0x7
   200f8:	00fb6b33          	or	x22,x22,x15
   200fc:	019b1793          	slli	x15,x22,0x19
   20100:	007b5b93          	srli	x23,x22,0x7
   20104:	00fbebb3          	or	x23,x23,x15
   20108:	019b9793          	slli	x15,x23,0x19
   2010c:	007bdc13          	srli	x24,x23,0x7
   20110:	00fc6c33          	or	x24,x24,x15
   20114:	019c1793          	slli	x15,x24,0x19
   20118:	007c5c93          	srli	x25,x24,0x7
   2011c:	00fcecb3          	or	x25,x25,x15
   20120:	019c9793          	slli	x15,x25,0x19
   20124:	007cdd13          	srli	x26,x25,0x7
   20128:	00fd6d33          	or	x26,x26,x15
   2012c:	019d1793          	slli	x15,x26,0x19
   20130:	007d5d93          	srli	x27,x26,0x7
   20134:	00fdedb3          	or	x27,x27,x15
   20138:	019d9793          	slli	x15,x27,0x19
   2013c:	007dde13          	srli	x28,x27,0x7
   20140:	00fe6e33          	or	x28,x28,x15
   20144:	019e1793          	slli	x15,x28,0x19
   20148:	007e5e93          	srli	x29,x28,0x7
   2014c:	00feeeb3          	or	x29,x29,x15
   20150:	019e9793          	slli	x15,x29,0x19
   20154:	007edf13          	srli	x30,x29,0x7
   20158:	00ff6f33          	or	x30,x30,x15
   2015c:	019f1793          	slli	x15,x30,0x19
   20160:	007f5f93          	srli	x31,x30,0x7
   20164:	00ffefb3          	or	x31,x31,x15
   20168:	00000013          	addi	x0,x0,0
   2016c:	00000013          	addi	x0,x0,0
   20170:	00000013          	addi	x0,x0,0
   20174:	00000013          	addi	x0,x0,0
   20178:	00000013          	addi	x0,x0,0
   2017c:	00000013          	addi	x0,x0,0
   20180:	ffff1117          	auipc	x2,0xffff1
   20184:	c3010113          	addi	x2,x2,-976 # 10db0 <begin_signature>
   20188:	00000013          	addi	x0,x0,0
   2018c:	00000013          	addi	x0,x0,0
   20190:	00000013          	addi	x0,x0,0
   20194:	00000013          	addi	x0,x0,0
   20198:	00000013          	addi	x0,x0,0
   2019c:	00000013          	addi	x0,x0,0

000201a0 <canary_check>:
   201a0:	6f5ca337          	lui	x6,0x6f5ca
   201a4:	30930313          	addi	x6,x6,777 # 6f5ca309 <absimm>
   201a8:	00012203          	lw	x4,0(x2)
   201ac:	00620863          	beq	x4,x6,201bc <canary_check+0x1c>
   201b0:	aece32ef          	jal	x5,349c <failedtest_x5_x4>
   201b4:	000201a0          	.word	0x000201a0
   201b8:	0001031e          	.word	0x0001031e
   201bc:	00410113          	addi	x2,x2,4
   201c0:	fffe8197          	auipc	x3,0xfffe8
   201c4:	f5018193          	addi	x3,x3,-176 # 8110 <rvtest_data_begin>
   201c8:	00000013          	addi	x0,x0,0
   201cc:	00000013          	addi	x0,x0,0
   201d0:	00000013          	addi	x0,x0,0
   201d4:	00000013          	addi	x0,x0,0
   201d8:	00000013          	addi	x0,x0,0
   201dc:	00000013          	addi	x0,x0,0
   201e0:	fffe0317          	auipc	x6,0xfffe0
   201e4:	e6030313          	addi	x6,x6,-416 # 40 <rvtest_code_begin>
   201e8:	00000013          	addi	x0,x0,0
   201ec:	00000013          	addi	x0,x0,0
   201f0:	00000013          	addi	x0,x0,0
   201f4:	00000013          	addi	x0,x0,0
   201f8:	00000013          	addi	x0,x0,0
   201fc:	00000013          	addi	x0,x0,0
   20200:	00030067          	jalr	x0,0(x6)

00020204 <rvmodel_io_write_str>:
   20204:	00008067          	jalr	x0,0(x1)

00020208 <rvmodel_halt_pass>:
   20208:	00000513          	addi	x10,x0,0
   2020c:	00000073          	ecall
   20210:	0000006f          	jal	x0,20210 <rvmodel_halt_pass+0x8>

00020214 <rvmodel_halt_fail>:
   20214:	00100513          	addi	x10,x0,1
   20218:	00000073          	ecall
   2021c:	0000006f          	jal	x0,2021c <rvmodel_halt_fail+0x8>
   20220:	00000013          	addi	x0,x0,0
   20224:	00000013          	addi	x0,x0,0
   20228:	00000013          	addi	x0,x0,0
   2022c:	00000013          	addi	x0,x0,0
   20230:	00000013          	addi	x0,x0,0
   20234:	00000013          	addi	x0,x0,0
   20238:	00000013          	addi	x0,x0,0
   2023c:	00000013          	addi	x0,x0,0
