
/home/dev/github/clones/riscv-arch-test/work/rv32i-core/elfs/rv32i/I/I-slli-00.elf:     file format elf32-littleriscv
/home/dev/github/clones/riscv-arch-test/work/rv32i-core/elfs/rv32i/I/I-slli-00.elf
architecture: riscv:rv32, flags 0x00000112:
EXEC_P, HAS_SYMS, D_PAGED
start address 0x00000000

Program Header:
0x70000003 off    0x00019240 vaddr 0x00000000 paddr 0x00000000 align 2**0
         filesz 0x00000033 memsz 0x00000000 flags r--
    LOAD off    0x00001000 vaddr 0x00000000 paddr 0x00000000 align 2**12
         filesz 0x00003780 memsz 0x00003780 flags r-x
    LOAD off    0x00005000 vaddr 0x00004000 paddr 0x00004000 align 2**12
         filesz 0x00014240 memsz 0x00014240 flags rwx

Sections:
Idx Name          Size      VMA       LMA       File off  Algn
  0 .text.init    00000040  00000000  00000000  00001000  2**5
                  CONTENTS, ALLOC, LOAD, READONLY, CODE
  1 .text.rvtest  00003740  00000040  00000040  00001040  2**5
                  CONTENTS, ALLOC, LOAD, READONLY, CODE
  2 .data         00013f30  00004000  00004000  00005000  2**8
                  CONTENTS, ALLOC, LOAD, DATA
  3 .text.rvmodel 00000240  00018000  00018000  00019000  2**5
                  CONTENTS, ALLOC, LOAD, READONLY, CODE
  4 .riscv.attributes 00000033  00000000  00000000  00019240  2**0
                  CONTENTS, READONLY
  5 .debug_line   00000efa  00000000  00000000  00019273  2**0
                  CONTENTS, READONLY, DEBUGGING, OCTETS
  6 .debug_line_str 0000006a  00000000  00000000  0001a16d  2**0
                  CONTENTS, READONLY, DEBUGGING, OCTETS
  7 .debug_info   00000023  00000000  00000000  0001a1d7  2**0
                  CONTENTS, READONLY, DEBUGGING, OCTETS
  8 .debug_abbrev 00000012  00000000  00000000  0001a1fa  2**0
                  CONTENTS, READONLY, DEBUGGING, OCTETS
  9 .debug_aranges 00000028  00000000  00000000  0001a210  2**3
                  CONTENTS, READONLY, DEBUGGING, OCTETS
 10 .debug_str    00000076  00000000  00000000  0001a238  2**0
                  CONTENTS, READONLY, DEBUGGING, OCTETS
 11 .debug_rnglists 0000001a  00000000  00000000  0001a2ae  2**0
                  CONTENTS, READONLY, DEBUGGING, OCTETS
SYMBOL TABLE:
00000000 l    d  .text.init	00000000 .text.init
00000040 l    d  .text.rvtest	00000000 .text.rvtest
00004000 l    d  .data	00000000 .data
00018000 l    d  .text.rvmodel	00000000 .text.rvmodel
00000000 l    d  .riscv.attributes	00000000 .riscv.attributes
00000000 l    d  .debug_line	00000000 .debug_line
00000000 l    d  .debug_line_str	00000000 .debug_line_str
00000000 l    d  .debug_info	00000000 .debug_info
00000000 l    d  .debug_abbrev	00000000 .debug_abbrev
00000000 l    d  .debug_aranges	00000000 .debug_aranges
00000000 l    d  .debug_str	00000000 .debug_str
00000000 l    d  .debug_rnglists	00000000 .debug_rnglists
00000000 l    df *ABS*	00000000 ccUpqVhv.o
00000003 l       *ABS*	00000000 MMODE_SIG
00000001 l       *ABS*	00000000 SMODE_SIG
00000001 l       *ABS*	00000000 HMODE_SIG
00000002 l       *ABS*	00000000 VMODE_SIG
00018000 l       .text.rvmodel	00000000 rvmodel_boot
00000048 l       .text.rvtest	00000000 I_slli_cg_cp_rs1_b0
00001cfc l       .text.rvtest	00000000 failedtest_x5_x4
00004430 l       .data	00000000 I_slli_cg_cp_rs1_b0_str
0000006c l       .text.rvtest	00000000 I_slli_cg_cp_rs1_b1
0000445e l       .data	00000000 I_slli_cg_cp_rs1_b1_str
00000094 l       .text.rvtest	00000000 I_slli_cg_cp_rs1_b2
0000448c l       .data	00000000 I_slli_cg_cp_rs1_b2_str
000000bc l       .text.rvtest	00000000 I_slli_cg_cp_rs1_b3
000044ba l       .data	00000000 I_slli_cg_cp_rs1_b3_str
000000e8 l       .text.rvtest	00000000 I_slli_cg_cp_rs1_b4
00001d14 l       .text.rvtest	00000000 failedtest_x8_x7
000044e8 l       .data	00000000 I_slli_cg_cp_rs1_b4_str
0000010c l       .text.rvtest	00000000 I_slli_cg_cp_rs1_b5
00004516 l       .data	00000000 I_slli_cg_cp_rs1_b5_str
00000130 l       .text.rvtest	00000000 I_slli_cg_cp_rs1_b6
00004544 l       .data	00000000 I_slli_cg_cp_rs1_b6_str
0000015c l       .text.rvtest	00000000 I_slli_cg_cp_rs1_b7
00004572 l       .data	00000000 I_slli_cg_cp_rs1_b7_str
00000180 l       .text.rvtest	00000000 I_slli_cg_cp_rs1_b8
000045a0 l       .data	00000000 I_slli_cg_cp_rs1_b8_str
000001a4 l       .text.rvtest	00000000 I_slli_cg_cp_rs1_b9
000045ce l       .data	00000000 I_slli_cg_cp_rs1_b9_str
000001c8 l       .text.rvtest	00000000 I_slli_cg_cp_rs1_b10
000045fd l       .data	00000000 I_slli_cg_cp_rs1_b10_str
000001ec l       .text.rvtest	00000000 I_slli_cg_cp_rs1_b11
0000462d l       .data	00000000 I_slli_cg_cp_rs1_b11_str
00000210 l       .text.rvtest	00000000 I_slli_cg_cp_rs1_b12
0000465d l       .data	00000000 I_slli_cg_cp_rs1_b12_str
00000234 l       .text.rvtest	00000000 I_slli_cg_cp_rs1_b13
0000468d l       .data	00000000 I_slli_cg_cp_rs1_b13_str
00000258 l       .text.rvtest	00000000 I_slli_cg_cp_rs1_b14
000046bd l       .data	00000000 I_slli_cg_cp_rs1_b14_str
0000027c l       .text.rvtest	00000000 I_slli_cg_cp_rs1_b15
000046ed l       .data	00000000 I_slli_cg_cp_rs1_b15_str
000002a0 l       .text.rvtest	00000000 I_slli_cg_cp_rs1_b16
0000471d l       .data	00000000 I_slli_cg_cp_rs1_b16_str
000002c4 l       .text.rvtest	00000000 I_slli_cg_cp_rs1_b17
0000474d l       .data	00000000 I_slli_cg_cp_rs1_b17_str
000002e8 l       .text.rvtest	00000000 I_slli_cg_cp_rs1_b18
0000477d l       .data	00000000 I_slli_cg_cp_rs1_b18_str
00000310 l       .text.rvtest	00000000 I_slli_cg_cp_rs1_b19
000047ad l       .data	00000000 I_slli_cg_cp_rs1_b19_str
00000334 l       .text.rvtest	00000000 I_slli_cg_cp_rs1_b20
000047dd l       .data	00000000 I_slli_cg_cp_rs1_b20_str
00000358 l       .text.rvtest	00000000 I_slli_cg_cp_rs1_b21
0000480d l       .data	00000000 I_slli_cg_cp_rs1_b21_str
0000037c l       .text.rvtest	00000000 I_slli_cg_cp_rs1_b22
0000483d l       .data	00000000 I_slli_cg_cp_rs1_b22_str
000003a0 l       .text.rvtest	00000000 I_slli_cg_cp_rs1_b23
0000486d l       .data	00000000 I_slli_cg_cp_rs1_b23_str
000003c4 l       .text.rvtest	00000000 I_slli_cg_cp_rs1_b24
0000489d l       .data	00000000 I_slli_cg_cp_rs1_b24_str
000003ec l       .text.rvtest	00000000 I_slli_cg_cp_rs1_b25
000048cd l       .data	00000000 I_slli_cg_cp_rs1_b25_str
00000410 l       .text.rvtest	00000000 I_slli_cg_cp_rs1_b26
000048fd l       .data	00000000 I_slli_cg_cp_rs1_b26_str
00000434 l       .text.rvtest	00000000 I_slli_cg_cp_rs1_b27
0000492d l       .data	00000000 I_slli_cg_cp_rs1_b27_str
00000458 l       .text.rvtest	00000000 I_slli_cg_cp_rs1_b28
0000495d l       .data	00000000 I_slli_cg_cp_rs1_b28_str
00000480 l       .text.rvtest	00000000 I_slli_cg_cp_rs1_b29
0000498d l       .data	00000000 I_slli_cg_cp_rs1_b29_str
000004a4 l       .text.rvtest	00000000 I_slli_cg_cp_rs1_b30
000049bd l       .data	00000000 I_slli_cg_cp_rs1_b30_str
000004c8 l       .text.rvtest	00000000 I_slli_cg_cp_rs1_b31
000049ed l       .data	00000000 I_slli_cg_cp_rs1_b31_str
000004ec l       .text.rvtest	00000000 I_slli_cg_cp_rd_b0
00004a1d l       .data	00000000 I_slli_cg_cp_rd_b0_str
00000510 l       .text.rvtest	00000000 I_slli_cg_cp_rd_b1
00004a4b l       .data	00000000 I_slli_cg_cp_rd_b1_str
00000534 l       .text.rvtest	00000000 I_slli_cg_cp_rd_b2
00004a79 l       .data	00000000 I_slli_cg_cp_rd_b2_str
00000558 l       .text.rvtest	00000000 I_slli_cg_cp_rd_b3
00004aa7 l       .data	00000000 I_slli_cg_cp_rd_b3_str
00000584 l       .text.rvtest	00000000 I_slli_cg_cp_rd_b4
00001d3c l       .text.rvtest	00000000 failedtest_x14_x13
00004ad5 l       .data	00000000 I_slli_cg_cp_rd_b4_str
000005a8 l       .text.rvtest	00000000 I_slli_cg_cp_rd_b5
00004b03 l       .data	00000000 I_slli_cg_cp_rd_b5_str
000005cc l       .text.rvtest	00000000 I_slli_cg_cp_rd_b6
00004b31 l       .data	00000000 I_slli_cg_cp_rd_b6_str
000005f0 l       .text.rvtest	00000000 I_slli_cg_cp_rd_b7
00004b5f l       .data	00000000 I_slli_cg_cp_rd_b7_str
00000614 l       .text.rvtest	00000000 I_slli_cg_cp_rd_b8
00004b8d l       .data	00000000 I_slli_cg_cp_rd_b8_str
00000638 l       .text.rvtest	00000000 I_slli_cg_cp_rd_b9
00004bbb l       .data	00000000 I_slli_cg_cp_rd_b9_str
0000065c l       .text.rvtest	00000000 I_slli_cg_cp_rd_b10
00004be9 l       .data	00000000 I_slli_cg_cp_rd_b10_str
00000680 l       .text.rvtest	00000000 I_slli_cg_cp_rd_b11
00004c18 l       .data	00000000 I_slli_cg_cp_rd_b11_str
000006a4 l       .text.rvtest	00000000 I_slli_cg_cp_rd_b12
00004c47 l       .data	00000000 I_slli_cg_cp_rd_b12_str
000006d0 l       .text.rvtest	00000000 I_slli_cg_cp_rd_b13
00004c76 l       .data	00000000 I_slli_cg_cp_rd_b13_str
000006f4 l       .text.rvtest	00000000 I_slli_cg_cp_rd_b14
00004ca5 l       .data	00000000 I_slli_cg_cp_rd_b14_str
00000718 l       .text.rvtest	00000000 I_slli_cg_cp_rd_b15
00004cd4 l       .data	00000000 I_slli_cg_cp_rd_b15_str
00000740 l       .text.rvtest	00000000 I_slli_cg_cp_rd_b16
00004d03 l       .data	00000000 I_slli_cg_cp_rd_b16_str
00000764 l       .text.rvtest	00000000 I_slli_cg_cp_rd_b17
00004d32 l       .data	00000000 I_slli_cg_cp_rd_b17_str
00000788 l       .text.rvtest	00000000 I_slli_cg_cp_rd_b18
00004d61 l       .data	00000000 I_slli_cg_cp_rd_b18_str
000007ac l       .text.rvtest	00000000 I_slli_cg_cp_rd_b19
00004d90 l       .data	00000000 I_slli_cg_cp_rd_b19_str
000007d0 l       .text.rvtest	00000000 I_slli_cg_cp_rd_b20
00004dbf l       .data	00000000 I_slli_cg_cp_rd_b20_str
000007f4 l       .text.rvtest	00000000 I_slli_cg_cp_rd_b21
00004dee l       .data	00000000 I_slli_cg_cp_rd_b21_str
00000818 l       .text.rvtest	00000000 I_slli_cg_cp_rd_b22
00004e1d l       .data	00000000 I_slli_cg_cp_rd_b22_str
0000083c l       .text.rvtest	00000000 I_slli_cg_cp_rd_b23
00004e4c l       .data	00000000 I_slli_cg_cp_rd_b23_str
00000860 l       .text.rvtest	00000000 I_slli_cg_cp_rd_b24
00004e7b l       .data	00000000 I_slli_cg_cp_rd_b24_str
00000888 l       .text.rvtest	00000000 I_slli_cg_cp_rd_b25
00004eaa l       .data	00000000 I_slli_cg_cp_rd_b25_str
000008ac l       .text.rvtest	00000000 I_slli_cg_cp_rd_b26
00004ed9 l       .data	00000000 I_slli_cg_cp_rd_b26_str
000008d0 l       .text.rvtest	00000000 I_slli_cg_cp_rd_b27
00004f08 l       .data	00000000 I_slli_cg_cp_rd_b27_str
000008f4 l       .text.rvtest	00000000 I_slli_cg_cp_rd_b28
00004f37 l       .data	00000000 I_slli_cg_cp_rd_b28_str
00000918 l       .text.rvtest	00000000 I_slli_cg_cp_rd_b29
00004f66 l       .data	00000000 I_slli_cg_cp_rd_b29_str
0000093c l       .text.rvtest	00000000 I_slli_cg_cp_rd_b30
00004f95 l       .data	00000000 I_slli_cg_cp_rd_b30_str
00000960 l       .text.rvtest	00000000 I_slli_cg_cp_rd_b31
00004fc4 l       .data	00000000 I_slli_cg_cp_rd_b31_str
00000984 l       .text.rvtest	00000000 I_slli_cg_cp_rs1_edges_0x0
00004ff3 l       .data	00000000 I_slli_cg_cp_rs1_edges_0x0_str
000009a8 l       .text.rvtest	00000000 I_slli_cg_cp_rs1_edges_0x1
00005029 l       .data	00000000 I_slli_cg_cp_rs1_edges_0x1_str
000009cc l       .text.rvtest	00000000 I_slli_cg_cp_rs1_edges_0x2
0000505f l       .data	00000000 I_slli_cg_cp_rs1_edges_0x2_str
000009f0 l       .text.rvtest	00000000 I_slli_cg_cp_rs1_edges_0x80000000
00005095 l       .data	00000000 I_slli_cg_cp_rs1_edges_0x80000000_str
00000a14 l       .text.rvtest	00000000 I_slli_cg_cp_rs1_edges_0x80000001
000050d2 l       .data	00000000 I_slli_cg_cp_rs1_edges_0x80000001_str
00000a38 l       .text.rvtest	00000000 I_slli_cg_cp_rs1_edges_0x7fffffff
0000510f l       .data	00000000 I_slli_cg_cp_rs1_edges_0x7fffffff_str
00000a5c l       .text.rvtest	00000000 I_slli_cg_cp_rs1_edges_0x7ffffffe
0000514c l       .data	00000000 I_slli_cg_cp_rs1_edges_0x7ffffffe_str
00000a80 l       .text.rvtest	00000000 I_slli_cg_cp_rs1_edges_0xffffffff
00005189 l       .data	00000000 I_slli_cg_cp_rs1_edges_0xffffffff_str
00000aa4 l       .text.rvtest	00000000 I_slli_cg_cp_rs1_edges_0xfffffffe
000051c6 l       .data	00000000 I_slli_cg_cp_rs1_edges_0xfffffffe_str
00000ac8 l       .text.rvtest	00000000 I_slli_cg_cp_rs1_edges_0x5bbc8872
00005203 l       .data	00000000 I_slli_cg_cp_rs1_edges_0x5bbc8872_str
00000aec l       .text.rvtest	00000000 I_slli_cg_cp_rs1_edges_0xaaaaaaaa
00005240 l       .data	00000000 I_slli_cg_cp_rs1_edges_0xaaaaaaaa_str
00000b10 l       .text.rvtest	00000000 I_slli_cg_cp_rs1_edges_0x55555555
0000527d l       .data	00000000 I_slli_cg_cp_rs1_edges_0x55555555_str
00000b34 l       .text.rvtest	00000000 I_slli_cg_cr_rs1_imm_edges_uimm_rs1val_0x0_immval_0x0
000052ba l       .data	00000000 I_slli_cg_cr_rs1_imm_edges_uimm_rs1val_0x0_immval_0x0_str
00000b58 l       .text.rvtest	00000000 I_slli_cg_cr_rs1_imm_edges_uimm_rs1val_0x0_immval_0x1
0000530c l       .data	00000000 I_slli_cg_cr_rs1_imm_edges_uimm_rs1val_0x0_immval_0x1_str
00000b7c l       .text.rvtest	00000000 I_slli_cg_cr_rs1_imm_edges_uimm_rs1val_0x0_immval_0x13
0000535e l       .data	00000000 I_slli_cg_cr_rs1_imm_edges_uimm_rs1val_0x0_immval_0x13_str
00000ba0 l       .text.rvtest	00000000 I_slli_cg_cr_rs1_imm_edges_uimm_rs1val_0x0_immval_0x1e
000053b1 l       .data	00000000 I_slli_cg_cr_rs1_imm_edges_uimm_rs1val_0x0_immval_0x1e_str
00000bc4 l       .text.rvtest	00000000 I_slli_cg_cr_rs1_imm_edges_uimm_rs1val_0x0_immval_0x1f
00005404 l       .data	00000000 I_slli_cg_cr_rs1_imm_edges_uimm_rs1val_0x0_immval_0x1f_str
00000be8 l       .text.rvtest	00000000 I_slli_cg_cr_rs1_imm_edges_uimm_rs1val_0x1_immval_0x0
00005457 l       .data	00000000 I_slli_cg_cr_rs1_imm_edges_uimm_rs1val_0x1_immval_0x0_str
00000c0c l       .text.rvtest	00000000 I_slli_cg_cr_rs1_imm_edges_uimm_rs1val_0x1_immval_0x1
000054a9 l       .data	00000000 I_slli_cg_cr_rs1_imm_edges_uimm_rs1val_0x1_immval_0x1_str
00000c30 l       .text.rvtest	00000000 I_slli_cg_cr_rs1_imm_edges_uimm_rs1val_0x1_immval_0x13
000054fb l       .data	00000000 I_slli_cg_cr_rs1_imm_edges_uimm_rs1val_0x1_immval_0x13_str
00000c54 l       .text.rvtest	00000000 I_slli_cg_cr_rs1_imm_edges_uimm_rs1val_0x1_immval_0x1e
0000554e l       .data	00000000 I_slli_cg_cr_rs1_imm_edges_uimm_rs1val_0x1_immval_0x1e_str
00000c78 l       .text.rvtest	00000000 I_slli_cg_cr_rs1_imm_edges_uimm_rs1val_0x1_immval_0x1f
000055a1 l       .data	00000000 I_slli_cg_cr_rs1_imm_edges_uimm_rs1val_0x1_immval_0x1f_str
00000c9c l       .text.rvtest	00000000 I_slli_cg_cr_rs1_imm_edges_uimm_rs1val_0x2_immval_0x0
000055f4 l       .data	00000000 I_slli_cg_cr_rs1_imm_edges_uimm_rs1val_0x2_immval_0x0_str
00000cc0 l       .text.rvtest	00000000 I_slli_cg_cr_rs1_imm_edges_uimm_rs1val_0x2_immval_0x1
00005646 l       .data	00000000 I_slli_cg_cr_rs1_imm_edges_uimm_rs1val_0x2_immval_0x1_str
00000ce4 l       .text.rvtest	00000000 I_slli_cg_cr_rs1_imm_edges_uimm_rs1val_0x2_immval_0x13
00005698 l       .data	00000000 I_slli_cg_cr_rs1_imm_edges_uimm_rs1val_0x2_immval_0x13_str
00000d08 l       .text.rvtest	00000000 I_slli_cg_cr_rs1_imm_edges_uimm_rs1val_0x2_immval_0x1e
000056eb l       .data	00000000 I_slli_cg_cr_rs1_imm_edges_uimm_rs1val_0x2_immval_0x1e_str
00000d2c l       .text.rvtest	00000000 I_slli_cg_cr_rs1_imm_edges_uimm_rs1val_0x2_immval_0x1f
0000573e l       .data	00000000 I_slli_cg_cr_rs1_imm_edges_uimm_rs1val_0x2_immval_0x1f_str
00000d50 l       .text.rvtest	00000000 I_slli_cg_cr_rs1_imm_edges_uimm_rs1val_0x80000000_immval_0x0
00005791 l       .data	00000000 I_slli_cg_cr_rs1_imm_edges_uimm_rs1val_0x80000000_immval_0x0_str
00000d74 l       .text.rvtest	00000000 I_slli_cg_cr_rs1_imm_edges_uimm_rs1val_0x80000000_immval_0x1
000057ea l       .data	00000000 I_slli_cg_cr_rs1_imm_edges_uimm_rs1val_0x80000000_immval_0x1_str
00000d98 l       .text.rvtest	00000000 I_slli_cg_cr_rs1_imm_edges_uimm_rs1val_0x80000000_immval_0x13
00005843 l       .data	00000000 I_slli_cg_cr_rs1_imm_edges_uimm_rs1val_0x80000000_immval_0x13_str
00000dbc l       .text.rvtest	00000000 I_slli_cg_cr_rs1_imm_edges_uimm_rs1val_0x80000000_immval_0x1e
0000589d l       .data	00000000 I_slli_cg_cr_rs1_imm_edges_uimm_rs1val_0x80000000_immval_0x1e_str
00000de0 l       .text.rvtest	00000000 I_slli_cg_cr_rs1_imm_edges_uimm_rs1val_0x80000000_immval_0x1f
000058f7 l       .data	00000000 I_slli_cg_cr_rs1_imm_edges_uimm_rs1val_0x80000000_immval_0x1f_str
00000e04 l       .text.rvtest	00000000 I_slli_cg_cr_rs1_imm_edges_uimm_rs1val_0x80000001_immval_0x0
00005951 l       .data	00000000 I_slli_cg_cr_rs1_imm_edges_uimm_rs1val_0x80000001_immval_0x0_str
00000e28 l       .text.rvtest	00000000 I_slli_cg_cr_rs1_imm_edges_uimm_rs1val_0x80000001_immval_0x1
000059aa l       .data	00000000 I_slli_cg_cr_rs1_imm_edges_uimm_rs1val_0x80000001_immval_0x1_str
00000e4c l       .text.rvtest	00000000 I_slli_cg_cr_rs1_imm_edges_uimm_rs1val_0x80000001_immval_0x13
00005a03 l       .data	00000000 I_slli_cg_cr_rs1_imm_edges_uimm_rs1val_0x80000001_immval_0x13_str
00000e70 l       .text.rvtest	00000000 I_slli_cg_cr_rs1_imm_edges_uimm_rs1val_0x80000001_immval_0x1e
00005a5d l       .data	00000000 I_slli_cg_cr_rs1_imm_edges_uimm_rs1val_0x80000001_immval_0x1e_str
00000e94 l       .text.rvtest	00000000 I_slli_cg_cr_rs1_imm_edges_uimm_rs1val_0x80000001_immval_0x1f
00005ab8 l       .data	00000000 I_slli_cg_cr_rs1_imm_edges_uimm_rs1val_0x80000001_immval_0x1f_str
00000eb8 l       .text.rvtest	00000000 I_slli_cg_cr_rs1_imm_edges_uimm_rs1val_0x7fffffff_immval_0x0
00005b13 l       .data	00000000 I_slli_cg_cr_rs1_imm_edges_uimm_rs1val_0x7fffffff_immval_0x0_str
00000edc l       .text.rvtest	00000000 I_slli_cg_cr_rs1_imm_edges_uimm_rs1val_0x7fffffff_immval_0x1
00005b6d l       .data	00000000 I_slli_cg_cr_rs1_imm_edges_uimm_rs1val_0x7fffffff_immval_0x1_str
00000f00 l       .text.rvtest	00000000 I_slli_cg_cr_rs1_imm_edges_uimm_rs1val_0x7fffffff_immval_0x13
00005bc7 l       .data	00000000 I_slli_cg_cr_rs1_imm_edges_uimm_rs1val_0x7fffffff_immval_0x13_str
00000f24 l       .text.rvtest	00000000 I_slli_cg_cr_rs1_imm_edges_uimm_rs1val_0x7fffffff_immval_0x1e
00005c22 l       .data	00000000 I_slli_cg_cr_rs1_imm_edges_uimm_rs1val_0x7fffffff_immval_0x1e_str
00000f48 l       .text.rvtest	00000000 I_slli_cg_cr_rs1_imm_edges_uimm_rs1val_0x7fffffff_immval_0x1f
00005c7d l       .data	00000000 I_slli_cg_cr_rs1_imm_edges_uimm_rs1val_0x7fffffff_immval_0x1f_str
00000f6c l       .text.rvtest	00000000 I_slli_cg_cr_rs1_imm_edges_uimm_rs1val_0x7ffffffe_immval_0x0
00005cd8 l       .data	00000000 I_slli_cg_cr_rs1_imm_edges_uimm_rs1val_0x7ffffffe_immval_0x0_str
00000f90 l       .text.rvtest	00000000 I_slli_cg_cr_rs1_imm_edges_uimm_rs1val_0x7ffffffe_immval_0x1
00005d32 l       .data	00000000 I_slli_cg_cr_rs1_imm_edges_uimm_rs1val_0x7ffffffe_immval_0x1_str
00000fb4 l       .text.rvtest	00000000 I_slli_cg_cr_rs1_imm_edges_uimm_rs1val_0x7ffffffe_immval_0x13
00005d8c l       .data	00000000 I_slli_cg_cr_rs1_imm_edges_uimm_rs1val_0x7ffffffe_immval_0x13_str
00000fd8 l       .text.rvtest	00000000 I_slli_cg_cr_rs1_imm_edges_uimm_rs1val_0x7ffffffe_immval_0x1e
00005de7 l       .data	00000000 I_slli_cg_cr_rs1_imm_edges_uimm_rs1val_0x7ffffffe_immval_0x1e_str
00000ffc l       .text.rvtest	00000000 I_slli_cg_cr_rs1_imm_edges_uimm_rs1val_0x7ffffffe_immval_0x1f
00005e42 l       .data	00000000 I_slli_cg_cr_rs1_imm_edges_uimm_rs1val_0x7ffffffe_immval_0x1f_str
00001020 l       .text.rvtest	00000000 I_slli_cg_cr_rs1_imm_edges_uimm_rs1val_0xffffffff_immval_0x0
00005e9d l       .data	00000000 I_slli_cg_cr_rs1_imm_edges_uimm_rs1val_0xffffffff_immval_0x0_str
00001044 l       .text.rvtest	00000000 I_slli_cg_cr_rs1_imm_edges_uimm_rs1val_0xffffffff_immval_0x1
00005ef7 l       .data	00000000 I_slli_cg_cr_rs1_imm_edges_uimm_rs1val_0xffffffff_immval_0x1_str
00001068 l       .text.rvtest	00000000 I_slli_cg_cr_rs1_imm_edges_uimm_rs1val_0xffffffff_immval_0x13
00005f51 l       .data	00000000 I_slli_cg_cr_rs1_imm_edges_uimm_rs1val_0xffffffff_immval_0x13_str
0000108c l       .text.rvtest	00000000 I_slli_cg_cr_rs1_imm_edges_uimm_rs1val_0xffffffff_immval_0x1e
00005fac l       .data	00000000 I_slli_cg_cr_rs1_imm_edges_uimm_rs1val_0xffffffff_immval_0x1e_str
000010b0 l       .text.rvtest	00000000 I_slli_cg_cr_rs1_imm_edges_uimm_rs1val_0xffffffff_immval_0x1f
00006007 l       .data	00000000 I_slli_cg_cr_rs1_imm_edges_uimm_rs1val_0xffffffff_immval_0x1f_str
000010d4 l       .text.rvtest	00000000 I_slli_cg_cr_rs1_imm_edges_uimm_rs1val_0xfffffffe_immval_0x0
00006062 l       .data	00000000 I_slli_cg_cr_rs1_imm_edges_uimm_rs1val_0xfffffffe_immval_0x0_str
000010f8 l       .text.rvtest	00000000 I_slli_cg_cr_rs1_imm_edges_uimm_rs1val_0xfffffffe_immval_0x1
000060bc l       .data	00000000 I_slli_cg_cr_rs1_imm_edges_uimm_rs1val_0xfffffffe_immval_0x1_str
0000111c l       .text.rvtest	00000000 I_slli_cg_cr_rs1_imm_edges_uimm_rs1val_0xfffffffe_immval_0x13
00006116 l       .data	00000000 I_slli_cg_cr_rs1_imm_edges_uimm_rs1val_0xfffffffe_immval_0x13_str
00001140 l       .text.rvtest	00000000 I_slli_cg_cr_rs1_imm_edges_uimm_rs1val_0xfffffffe_immval_0x1e
00006171 l       .data	00000000 I_slli_cg_cr_rs1_imm_edges_uimm_rs1val_0xfffffffe_immval_0x1e_str
00001164 l       .text.rvtest	00000000 I_slli_cg_cr_rs1_imm_edges_uimm_rs1val_0xfffffffe_immval_0x1f
000061cc l       .data	00000000 I_slli_cg_cr_rs1_imm_edges_uimm_rs1val_0xfffffffe_immval_0x1f_str
00001188 l       .text.rvtest	00000000 I_slli_cg_cr_rs1_imm_edges_uimm_rs1val_0x5bbc8872_immval_0x0
00006227 l       .data	00000000 I_slli_cg_cr_rs1_imm_edges_uimm_rs1val_0x5bbc8872_immval_0x0_str
000011ac l       .text.rvtest	00000000 I_slli_cg_cr_rs1_imm_edges_uimm_rs1val_0x5bbc8872_immval_0x1
00006281 l       .data	00000000 I_slli_cg_cr_rs1_imm_edges_uimm_rs1val_0x5bbc8872_immval_0x1_str
000011d0 l       .text.rvtest	00000000 I_slli_cg_cr_rs1_imm_edges_uimm_rs1val_0x5bbc8872_immval_0x13
000062db l       .data	00000000 I_slli_cg_cr_rs1_imm_edges_uimm_rs1val_0x5bbc8872_immval_0x13_str
000011f4 l       .text.rvtest	00000000 I_slli_cg_cr_rs1_imm_edges_uimm_rs1val_0x5bbc8872_immval_0x1e
00006336 l       .data	00000000 I_slli_cg_cr_rs1_imm_edges_uimm_rs1val_0x5bbc8872_immval_0x1e_str
00001218 l       .text.rvtest	00000000 I_slli_cg_cr_rs1_imm_edges_uimm_rs1val_0x5bbc8872_immval_0x1f
00006391 l       .data	00000000 I_slli_cg_cr_rs1_imm_edges_uimm_rs1val_0x5bbc8872_immval_0x1f_str
0000123c l       .text.rvtest	00000000 I_slli_cg_cr_rs1_imm_edges_uimm_rs1val_0xaaaaaaaa_immval_0x0
000063ec l       .data	00000000 I_slli_cg_cr_rs1_imm_edges_uimm_rs1val_0xaaaaaaaa_immval_0x0_str
00001260 l       .text.rvtest	00000000 I_slli_cg_cr_rs1_imm_edges_uimm_rs1val_0xaaaaaaaa_immval_0x1
00006446 l       .data	00000000 I_slli_cg_cr_rs1_imm_edges_uimm_rs1val_0xaaaaaaaa_immval_0x1_str
00001284 l       .text.rvtest	00000000 I_slli_cg_cr_rs1_imm_edges_uimm_rs1val_0xaaaaaaaa_immval_0x13
000064a0 l       .data	00000000 I_slli_cg_cr_rs1_imm_edges_uimm_rs1val_0xaaaaaaaa_immval_0x13_str
000012a8 l       .text.rvtest	00000000 I_slli_cg_cr_rs1_imm_edges_uimm_rs1val_0xaaaaaaaa_immval_0x1e
000064fb l       .data	00000000 I_slli_cg_cr_rs1_imm_edges_uimm_rs1val_0xaaaaaaaa_immval_0x1e_str
000012cc l       .text.rvtest	00000000 I_slli_cg_cr_rs1_imm_edges_uimm_rs1val_0xaaaaaaaa_immval_0x1f
00006556 l       .data	00000000 I_slli_cg_cr_rs1_imm_edges_uimm_rs1val_0xaaaaaaaa_immval_0x1f_str
000012f0 l       .text.rvtest	00000000 I_slli_cg_cr_rs1_imm_edges_uimm_rs1val_0x55555555_immval_0x0
000065b1 l       .data	00000000 I_slli_cg_cr_rs1_imm_edges_uimm_rs1val_0x55555555_immval_0x0_str
00001314 l       .text.rvtest	00000000 I_slli_cg_cr_rs1_imm_edges_uimm_rs1val_0x55555555_immval_0x1
0000660b l       .data	00000000 I_slli_cg_cr_rs1_imm_edges_uimm_rs1val_0x55555555_immval_0x1_str
00001338 l       .text.rvtest	00000000 I_slli_cg_cr_rs1_imm_edges_uimm_rs1val_0x55555555_immval_0x13
00006665 l       .data	00000000 I_slli_cg_cr_rs1_imm_edges_uimm_rs1val_0x55555555_immval_0x13_str
0000135c l       .text.rvtest	00000000 I_slli_cg_cr_rs1_imm_edges_uimm_rs1val_0x55555555_immval_0x1e
000066c0 l       .data	00000000 I_slli_cg_cr_rs1_imm_edges_uimm_rs1val_0x55555555_immval_0x1e_str
00001380 l       .text.rvtest	00000000 I_slli_cg_cr_rs1_imm_edges_uimm_rs1val_0x55555555_immval_0x1f
0000671b l       .data	00000000 I_slli_cg_cr_rs1_imm_edges_uimm_rs1val_0x55555555_immval_0x1f_str
000013a4 l       .text.rvtest	00000000 I_slli_cg_cmp_rd_rs1_b0
00006776 l       .data	00000000 I_slli_cg_cmp_rd_rs1_b0_str
000013c8 l       .text.rvtest	00000000 I_slli_cg_cmp_rd_rs1_b1
000067aa l       .data	00000000 I_slli_cg_cmp_rd_rs1_b1_str
000013ec l       .text.rvtest	00000000 I_slli_cg_cmp_rd_rs1_b2
000067de l       .data	00000000 I_slli_cg_cmp_rd_rs1_b2_str
00001410 l       .text.rvtest	00000000 I_slli_cg_cmp_rd_rs1_b3
00006812 l       .data	00000000 I_slli_cg_cmp_rd_rs1_b3_str
00001434 l       .text.rvtest	00000000 I_slli_cg_cmp_rd_rs1_b4
00006846 l       .data	00000000 I_slli_cg_cmp_rd_rs1_b4_str
00001458 l       .text.rvtest	00000000 I_slli_cg_cmp_rd_rs1_b5
0000687a l       .data	00000000 I_slli_cg_cmp_rd_rs1_b5_str
0000147c l       .text.rvtest	00000000 I_slli_cg_cmp_rd_rs1_b6
000068ae l       .data	00000000 I_slli_cg_cmp_rd_rs1_b6_str
000014a8 l       .text.rvtest	00000000 I_slli_cg_cmp_rd_rs1_b7
000068e2 l       .data	00000000 I_slli_cg_cmp_rd_rs1_b7_str
000014cc l       .text.rvtest	00000000 I_slli_cg_cmp_rd_rs1_b8
00006916 l       .data	00000000 I_slli_cg_cmp_rd_rs1_b8_str
000014f4 l       .text.rvtest	00000000 I_slli_cg_cmp_rd_rs1_b9
0000694a l       .data	00000000 I_slli_cg_cmp_rd_rs1_b9_str
00001518 l       .text.rvtest	00000000 I_slli_cg_cmp_rd_rs1_b10
0000697e l       .data	00000000 I_slli_cg_cmp_rd_rs1_b10_str
0000153c l       .text.rvtest	00000000 I_slli_cg_cmp_rd_rs1_b11
000069b3 l       .data	00000000 I_slli_cg_cmp_rd_rs1_b11_str
00001564 l       .text.rvtest	00000000 I_slli_cg_cmp_rd_rs1_b12
000069e8 l       .data	00000000 I_slli_cg_cmp_rd_rs1_b12_str
00001590 l       .text.rvtest	00000000 I_slli_cg_cmp_rd_rs1_b13
00006a1d l       .data	00000000 I_slli_cg_cmp_rd_rs1_b13_str
000015b4 l       .text.rvtest	00000000 I_slli_cg_cmp_rd_rs1_b14
00006a52 l       .data	00000000 I_slli_cg_cmp_rd_rs1_b14_str
000015d8 l       .text.rvtest	00000000 I_slli_cg_cmp_rd_rs1_b15
00006a87 l       .data	00000000 I_slli_cg_cmp_rd_rs1_b15_str
000015fc l       .text.rvtest	00000000 I_slli_cg_cmp_rd_rs1_b16
00006abc l       .data	00000000 I_slli_cg_cmp_rd_rs1_b16_str
00001620 l       .text.rvtest	00000000 I_slli_cg_cmp_rd_rs1_b17
00006af1 l       .data	00000000 I_slli_cg_cmp_rd_rs1_b17_str
00001644 l       .text.rvtest	00000000 I_slli_cg_cmp_rd_rs1_b18
00006b26 l       .data	00000000 I_slli_cg_cmp_rd_rs1_b18_str
00001668 l       .text.rvtest	00000000 I_slli_cg_cmp_rd_rs1_b19
00006b5b l       .data	00000000 I_slli_cg_cmp_rd_rs1_b19_str
0000168c l       .text.rvtest	00000000 I_slli_cg_cmp_rd_rs1_b20
00006b90 l       .data	00000000 I_slli_cg_cmp_rd_rs1_b20_str
000016b0 l       .text.rvtest	00000000 I_slli_cg_cmp_rd_rs1_b21
00006bc5 l       .data	00000000 I_slli_cg_cmp_rd_rs1_b21_str
000016d4 l       .text.rvtest	00000000 I_slli_cg_cmp_rd_rs1_b22
00006bfa l       .data	00000000 I_slli_cg_cmp_rd_rs1_b22_str
000016f8 l       .text.rvtest	00000000 I_slli_cg_cmp_rd_rs1_b23
00006c2f l       .data	00000000 I_slli_cg_cmp_rd_rs1_b23_str
0000171c l       .text.rvtest	00000000 I_slli_cg_cmp_rd_rs1_b24
00006c64 l       .data	00000000 I_slli_cg_cmp_rd_rs1_b24_str
00001740 l       .text.rvtest	00000000 I_slli_cg_cmp_rd_rs1_b25
00006c99 l       .data	00000000 I_slli_cg_cmp_rd_rs1_b25_str
00001764 l       .text.rvtest	00000000 I_slli_cg_cmp_rd_rs1_b26
00006cce l       .data	00000000 I_slli_cg_cmp_rd_rs1_b26_str
00001788 l       .text.rvtest	00000000 I_slli_cg_cmp_rd_rs1_b27
00006d03 l       .data	00000000 I_slli_cg_cmp_rd_rs1_b27_str
000017ac l       .text.rvtest	00000000 I_slli_cg_cmp_rd_rs1_b28
00006d38 l       .data	00000000 I_slli_cg_cmp_rd_rs1_b28_str
000017d4 l       .text.rvtest	00000000 I_slli_cg_cmp_rd_rs1_b29
00006d6d l       .data	00000000 I_slli_cg_cmp_rd_rs1_b29_str
000017fc l       .text.rvtest	00000000 I_slli_cg_cmp_rd_rs1_b30
00006da2 l       .data	00000000 I_slli_cg_cmp_rd_rs1_b30_str
00001820 l       .text.rvtest	00000000 I_slli_cg_cmp_rd_rs1_b31
00006dd7 l       .data	00000000 I_slli_cg_cmp_rd_rs1_b31_str
00001844 l       .text.rvtest	00000000 I_slli_cg_cp_uimm_uimm0
00006e0c l       .data	00000000 I_slli_cg_cp_uimm_uimm0_str
00001868 l       .text.rvtest	00000000 I_slli_cg_cp_uimm_uimm1
00006e40 l       .data	00000000 I_slli_cg_cp_uimm_uimm1_str
0000188c l       .text.rvtest	00000000 I_slli_cg_cp_uimm_uimm2
00006e74 l       .data	00000000 I_slli_cg_cp_uimm_uimm2_str
000018b0 l       .text.rvtest	00000000 I_slli_cg_cp_uimm_uimm3
00006ea8 l       .data	00000000 I_slli_cg_cp_uimm_uimm3_str
000018d4 l       .text.rvtest	00000000 I_slli_cg_cp_uimm_uimm4
00006edc l       .data	00000000 I_slli_cg_cp_uimm_uimm4_str
000018f8 l       .text.rvtest	00000000 I_slli_cg_cp_uimm_uimm5
00006f10 l       .data	00000000 I_slli_cg_cp_uimm_uimm5_str
0000191c l       .text.rvtest	00000000 I_slli_cg_cp_uimm_uimm6
00006f44 l       .data	00000000 I_slli_cg_cp_uimm_uimm6_str
00001940 l       .text.rvtest	00000000 I_slli_cg_cp_uimm_uimm7
00006f78 l       .data	00000000 I_slli_cg_cp_uimm_uimm7_str
00001964 l       .text.rvtest	00000000 I_slli_cg_cp_uimm_uimm8
00006fac l       .data	00000000 I_slli_cg_cp_uimm_uimm8_str
00001988 l       .text.rvtest	00000000 I_slli_cg_cp_uimm_uimm9
00006fe0 l       .data	00000000 I_slli_cg_cp_uimm_uimm9_str
000019ac l       .text.rvtest	00000000 I_slli_cg_cp_uimm_uimm10
00007014 l       .data	00000000 I_slli_cg_cp_uimm_uimm10_str
000019d0 l       .text.rvtest	00000000 I_slli_cg_cp_uimm_uimm11
00007049 l       .data	00000000 I_slli_cg_cp_uimm_uimm11_str
000019f4 l       .text.rvtest	00000000 I_slli_cg_cp_uimm_uimm12
0000707e l       .data	00000000 I_slli_cg_cp_uimm_uimm12_str
00001a18 l       .text.rvtest	00000000 I_slli_cg_cp_uimm_uimm13
000070b3 l       .data	00000000 I_slli_cg_cp_uimm_uimm13_str
00001a3c l       .text.rvtest	00000000 I_slli_cg_cp_uimm_uimm14
000070e8 l       .data	00000000 I_slli_cg_cp_uimm_uimm14_str
00001a60 l       .text.rvtest	00000000 I_slli_cg_cp_uimm_uimm15
0000711d l       .data	00000000 I_slli_cg_cp_uimm_uimm15_str
00001a84 l       .text.rvtest	00000000 I_slli_cg_cp_uimm_uimm16
00007152 l       .data	00000000 I_slli_cg_cp_uimm_uimm16_str
00001aa8 l       .text.rvtest	00000000 I_slli_cg_cp_uimm_uimm17
00007187 l       .data	00000000 I_slli_cg_cp_uimm_uimm17_str
00001acc l       .text.rvtest	00000000 I_slli_cg_cp_uimm_uimm18
000071bc l       .data	00000000 I_slli_cg_cp_uimm_uimm18_str
00001af0 l       .text.rvtest	00000000 I_slli_cg_cp_uimm_uimm19
000071f1 l       .data	00000000 I_slli_cg_cp_uimm_uimm19_str
00001b14 l       .text.rvtest	00000000 I_slli_cg_cp_uimm_uimm20
00007226 l       .data	00000000 I_slli_cg_cp_uimm_uimm20_str
00001b38 l       .text.rvtest	00000000 I_slli_cg_cp_uimm_uimm21
0000725b l       .data	00000000 I_slli_cg_cp_uimm_uimm21_str
00001b5c l       .text.rvtest	00000000 I_slli_cg_cp_uimm_uimm22
00007290 l       .data	00000000 I_slli_cg_cp_uimm_uimm22_str
00001b80 l       .text.rvtest	00000000 I_slli_cg_cp_uimm_uimm23
000072c5 l       .data	00000000 I_slli_cg_cp_uimm_uimm23_str
00001ba4 l       .text.rvtest	00000000 I_slli_cg_cp_uimm_uimm24
000072fa l       .data	00000000 I_slli_cg_cp_uimm_uimm24_str
00001bc8 l       .text.rvtest	00000000 I_slli_cg_cp_uimm_uimm25
0000732f l       .data	00000000 I_slli_cg_cp_uimm_uimm25_str
00001bec l       .text.rvtest	00000000 I_slli_cg_cp_uimm_uimm26
00007364 l       .data	00000000 I_slli_cg_cp_uimm_uimm26_str
00001c10 l       .text.rvtest	00000000 I_slli_cg_cp_uimm_uimm27
00007399 l       .data	00000000 I_slli_cg_cp_uimm_uimm27_str
00001c34 l       .text.rvtest	00000000 I_slli_cg_cp_uimm_uimm28
000073ce l       .data	00000000 I_slli_cg_cp_uimm_uimm28_str
00001c58 l       .text.rvtest	00000000 I_slli_cg_cp_uimm_uimm29
00007403 l       .data	00000000 I_slli_cg_cp_uimm_uimm29_str
00001c7c l       .text.rvtest	00000000 I_slli_cg_cp_uimm_uimm30
00007438 l       .data	00000000 I_slli_cg_cp_uimm_uimm30_str
00001ca0 l       .text.rvtest	00000000 I_slli_cg_cp_uimm_uimm31
0000746d l       .data	00000000 I_slli_cg_cp_uimm_uimm31_str
00001cc0 l       .text.rvtest	00000000 exit_cleanup
00007b14 l       .data	00000000 successstr
00018204 l       .text.rvmodel	00000000 rvmodel_io_write_str
00018208 l       .text.rvmodel	00000000 rvmodel_halt_pass
00001cf0 l       .text.rvtest	00000000 abort_test
6f5ca309 l       *ABS*	00000000 immx
6f5ca309 l       *ABS*	00000000 absimm
00000000 l       *ABS*	00000000 cry
00000309 l       *ABS*	00000000 imm12
000074b0 l       .data	00000000 begin_failure_scratch
00001dc0 l       .text.rvtest	00000000 failedtest_saveregs
00001d64 l       .text.rvtest	00000000 failedtest_trap_x7_x9
00007620 l       .data	00000000 saved_mcause
00007628 l       .data	00000000 saved_mtval
00007630 l       .data	00000000 saved_mstatus
00001e30 l       .text.rvtest	00000000 failedtest_saveresults
000074b0 l       .data	00000000 failure_type
00001eac l       .text.rvtest	00000000 failedtest_saveresults_trap
00001e40 l       .text.rvtest	00000000 failedtest_saveresults_int
00002280 l       .text.rvtest	00000000 failedtest_saveresults_common
00007608 l       .data	00000000 trap_diag_fail_str_ptr
00007cdc l       .data	00000000 trap_sig_offset_mismatch
00002160 l       .text.rvtest	00000000 trap_diag_offset_mismatch
000075e0 l       .data	00000000 trap_diag_subtype
00007d40 l       .data	00000000 sv_Mvect_str
000021e0 l       .text.rvtest	00000000 trap_diag_field_identified
00007e42 l       .data	00000000 sv_Mcause_str
00007f3d l       .data	00000000 sv_Mepc_str
00008030 l       .data	00000000 sv_Mtval_str
000081a3 l       .data	00000000 sv_Mip_str
00008127 l       .data	00000000 sv_Mtval2_str
00008165 l       .data	00000000 sv_Mtinst_str
00007d80 l       .data	00000000 sv_Svect_str
00007e80 l       .data	00000000 sv_Scause_str
00007f79 l       .data	00000000 sv_Sepc_str
0000806d l       .data	00000000 sv_Stval_str
000081de l       .data	00000000 sv_Sip_str
00007dc0 l       .data	00000000 sv_Hvect_str
00007ebe l       .data	00000000 sv_Hcause_str
00007fb5 l       .data	00000000 sv_Hepc_str
000080aa l       .data	00000000 sv_Htval_str
00008219 l       .data	00000000 sv_Hip_str
00007e01 l       .data	00000000 sv_Vvect_str
00007efd l       .data	00000000 sv_Vcause_str
00007ff2 l       .data	00000000 sv_Vepc_str
000080e8 l       .data	00000000 sv_Vtval_str
00008255 l       .data	00000000 sv_Vip_str
00008292 l       .data	00000000 Mclr_Mext_int_str
000082e1 l       .data	00000000 Mclr_Sext_int_str
000083dc l       .data	00000000 Sclr_Sext_int_str
000084d8 l       .data	00000000 Hclr_Sext_int_str
00002270 l       .text.rvtest	00000000 trap_diag_generic_report
000075f8 l       .data	00000000 trap_diag_actual_offset
00007600 l       .data	00000000 trap_diag_expected_offset
000075e4 l       .data	00000000 trap_diag_mode
000075e8 l       .data	00000000 trap_diag_actual_value
000075f0 l       .data	00000000 trap_diag_expected_value
000022b0 l       .text.rvtest	00000000 failedtest_report
000022b0 l       .text.rvtest	00000000 print_failstr
00007b4b l       .data	00000000 failstr
000022e8 l       .text.rvtest	00000000 print_testnamestr
00007bdf l       .data	00000000 testnamestr
00002328 l       .text.rvtest	00000000 print_failure_test_name_str
000075d0 l       .data	00000000 failure_string_ptr
00002338 l       .text.rvtest	00000000 print_newline_str
00007bf1 l       .data	00000000 newlinestr
0000276c l       .text.rvtest	00000000 failedtest_report_trap_detailed
00007bf3 l       .data	00000000 inststr
000075b0 l       .data	00000000 failing_instruction
000036b8 l       .text.rvtest	00000000 failedtest_hex_to_str
00007638 l       .data	00000000 ascii_buffer
00007c07 l       .data	00000000 addrstr
000075b8 l       .data	00000000 failing_addr
00008684 l       .data	00000000 regstr
00002518 l       .text.rvtest	00000000 failedtest_report_not_intreg
000075b4 l       .data	00000000 failing_reg
00003734 l       .text.rvtest	00000000 failedtest_dec_to_str
000025f4 l       .text.rvtest	00000000 failedtest_report_print_regstr
0000256c l       .text.rvtest	00000000 failedtest_report_fpreg
000025b8 l       .text.rvtest	00000000 failedtest_report_vecreg
000086e4 l       .data	00000000 fflagsstr
00002628 l       .text.rvtest	00000000 failedtest_report_after_reg
00008695 l       .data	00000000 badvalstr
0000268c l       .text.rvtest	00000000 failedtest_report_badval_not_fp
000075c0 l       .data	00000000 failing_value
0000269c l       .text.rvtest	00000000 failedtest_report_badval_done
000086ac l       .data	00000000 expvalstr
0000272c l       .text.rvtest	00000000 failedtest_report_expval_not_fp
000075c8 l       .data	00000000 expected_value
0000273c l       .text.rvtest	00000000 failedtest_report_expval_done
00003464 l       .text.rvtest	00000000 failedtest_report_end
00008710 l       .data	00000000 trap_diag_header_str
0000873c l       .data	00000000 trap_diag_origstr_label
00002840 l       .text.rvtest	00000000 trap_report_offset_mismatch
000032f0 l       .text.rvtest	00000000 trap_report_generic
00002bb4 l       .text.rvtest	00000000 trap_report_field_mismatch
0000874c l       .data	00000000 trap_diag_count_mismatch_str
000087ad l       .data	00000000 trap_diag_expected_offset_str
000087d4 l       .data	00000000 trap_diag_actual_offset_str
00002a94 l       .text.rvtest	00000000 trap_report_missing_traps
0000297c l       .text.rvtest	00000000 trap_report_extra_traps
000087fb l       .data	00000000 trap_diag_extra_traps_str
00008880 l       .data	00000000 trap_diag_extra_bytes_str
000088ab l       .data	00000000 trap_diag_extra_hint_str
000034b0 l       .text.rvtest	00000000 failedtest_print_csr_context
00008835 l       .data	00000000 trap_diag_missing_traps_str
00008993 l       .data	00000000 trap_diag_missing_hint_str
00008a7a l       .data	00000000 trap_diag_handler_mode_str
00002c44 l       .text.rvtest	00000000 trap_mode_m
00002c84 l       .text.rvtest	00000000 trap_mode_s
00002cc4 l       .text.rvtest	00000000 trap_mode_h
00002d04 l       .text.rvtest	00000000 trap_mode_v
00008ab6 l       .data	00000000 trap_diag_mode_unknown_str
00002d40 l       .text.rvtest	00000000 trap_mode_print
00008a94 l       .data	00000000 trap_diag_mode_m_str
00008a9c l       .data	00000000 trap_diag_mode_s_str
00008aa4 l       .data	00000000 trap_diag_mode_hs_str
00008aad l       .data	00000000 trap_diag_mode_vs_str
00008abf l       .data	00000000 trap_diag_field_str
00002e04 l       .text.rvtest	00000000 trap_field_vect
00002e44 l       .text.rvtest	00000000 trap_field_cause
00002e84 l       .text.rvtest	00000000 trap_field_epc
00002ec4 l       .text.rvtest	00000000 trap_field_tval
00002f04 l       .text.rvtest	00000000 trap_field_ip
00002f44 l       .text.rvtest	00000000 trap_field_tval2
00002f84 l       .text.rvtest	00000000 trap_field_tinst
00002fc4 l       .text.rvtest	00000000 trap_field_intid
00008c16 l       .data	00000000 trap_diag_field_unknown_str
00003000 l       .text.rvtest	00000000 trap_field_print
00008ad9 l       .data	00000000 trap_diag_field_vect_str
00008b0a l       .data	00000000 trap_diag_field_cause_str
00008b2a l       .data	00000000 trap_diag_field_epc_str
00008b48 l       .data	00000000 trap_diag_field_tval_str
00008b67 l       .data	00000000 trap_diag_field_ip_str
00008b8f l       .data	00000000 trap_diag_field_tval2_str
00008bbb l       .data	00000000 trap_diag_field_tinst_str
00008be7 l       .data	00000000 trap_diag_field_intid_str
00008c25 l       .data	00000000 trap_diag_expected_str
00008c3c l       .data	00000000 trap_diag_actual_str
0000319c l       .text.rvtest	00000000 trap_field_not_cause
00008c53 l       .data	00000000 trap_diag_expected_cause_name_str
000033d4 l       .text.rvtest	00000000 trap_cause_to_str
00008c6a l       .data	00000000 trap_diag_actual_cause_name_str
0000319c l       .text.rvtest	00000000 trap_field_not_epc
00008ce0 l       .data	00000000 trap_diag_hint_vect_str
00008db6 l       .data	00000000 trap_diag_hint_cause_str
00008ea9 l       .data	00000000 trap_diag_hint_epc_str
00008fa4 l       .data	00000000 trap_diag_hint_tval_str
0000908b l       .data	00000000 trap_diag_hint_ip_str
00008c98 l       .data	00000000 trap_diag_generic_str
00007618 l       .data	00000000 saved_mepc
00007c7b l       .data	00000000 xepcinstrstr
000033f8 l       .text.rvtest	00000000 trap_cause_interrupt
000033d8 l       .text.rvtest	00000000 trap_cause_exception
00003424 l       .text.rvtest	00000000 trap_cause_unknown
00007660 l       .data	00000000 trap_excpt_name_tbl
000076c0 l       .data	00000000 trap_int_name_tbl
00007afe l       .data	00000000 trap_cause_unknown_str
000086c3 l       .data	00000000 endstr
000034a8 l       .text.rvtest	00000000 failedtest_terminate
00018214 l       .text.rvmodel	00000000 rvmodel_halt_fail
00007610 l       .data	00000000 csr_context_ret_addr
00007c9c l       .data	00000000 mepcstr
00007cac l       .data	00000000 mcausestr
00007cbc l       .data	00000000 mtvalstr
00007ccc l       .data	00000000 mstatusstr
000036f8 l       .text.rvtest	00000000 failedtest_hex_to_str_loop
00003714 l       .text.rvtest	00000000 failedtest_hex_to_str_digit
00003718 l       .text.rvtest	00000000 failedtest_hex_to_str_write
00018000 l       .text.rvmodel	00000000 rvtest_boot_to_mmode
00018000 l       .text.rvmodel	00000000 rvtest_init_regs
00009170 l       .data	00000000 signature_base
000181a0 l       .text.rvmodel	00000000 canary_check
000086ec l       .data	00000000 canary_mismatch
00004000 l       .data	00000000 scratch
00007660 l       .data	00000000 end_failure_scratch
00007700 l       .data	00000000 trap_excpt_name_0
00007720 l       .data	00000000 trap_excpt_name_1
0000773a l       .data	00000000 trap_excpt_name_2
0000774f l       .data	00000000 trap_excpt_name_3
0000775b l       .data	00000000 trap_excpt_name_4
00007774 l       .data	00000000 trap_excpt_name_5
00007787 l       .data	00000000 trap_excpt_name_6
000077a5 l       .data	00000000 trap_excpt_name_7
000077bd l       .data	00000000 trap_excpt_name_8
000077db l       .data	00000000 trap_excpt_name_9
000077f9 l       .data	00000000 trap_excpt_name_10
00007818 l       .data	00000000 trap_excpt_name_11
00007836 l       .data	00000000 trap_excpt_name_12
0000784e l       .data	00000000 trap_excpt_name_13
0000785f l       .data	00000000 trap_excpt_name_14
0000786e l       .data	00000000 trap_excpt_name_15
00007884 l       .data	00000000 trap_excpt_name_16
00007891 l       .data	00000000 trap_excpt_name_17
000078a0 l       .data	00000000 trap_excpt_name_18
000078b0 l       .data	00000000 trap_excpt_name_19
000078c0 l       .data	00000000 trap_excpt_name_20
000078de l       .data	00000000 trap_excpt_name_21
000078f5 l       .data	00000000 trap_excpt_name_22
0000790a l       .data	00000000 trap_excpt_name_23
00007926 l       .data	00000000 trap_int_name_0
0000793e l       .data	00000000 trap_int_name_1
0000795d l       .data	00000000 trap_int_name_2
00007984 l       .data	00000000 trap_int_name_3
000079a0 l       .data	00000000 trap_int_name_4
000079b8 l       .data	00000000 trap_int_name_5
000079d4 l       .data	00000000 trap_int_name_6
000079f8 l       .data	00000000 trap_int_name_7
00007a11 l       .data	00000000 trap_int_name_8
00007a29 l       .data	00000000 trap_int_name_9
00007a48 l       .data	00000000 trap_int_name_10
00007a6f l       .data	00000000 trap_int_name_11
00007a8b l       .data	00000000 trap_int_name_12
00007ab0 l       .data	00000000 trap_int_name_13
00007acc l       .data	00000000 trap_int_name_14
00007ae5 l       .data	00000000 trap_int_name_15
00007ba1 l       .data	00000000 abortstr
00007c48 l       .data	00000000 xepcstr
00008333 l       .data	00000000 Mclr_Vext_int_str
0000838d l       .data	00000000 Sclr_Mext_int_str
0000842e l       .data	00000000 Sclr_Vext_int_str
00008488 l       .data	00000000 Hclr_Mext_int_str
0000852b l       .data	00000000 Hclr_Vext_int_str
00008586 l       .data	00000000 Vclr_Mext_int_str
000085d6 l       .data	00000000 Vclr_Sext_int_str
00008629 l       .data	00000000 Vclr_Vext_int_str
00008c81 l       .data	00000000 trap_diag_curr_xepc_str
000094c0 l       .data	00000000 trap_sigptr
00017f30 g       .data	00000000 end_signature
00017f30 g       .data	00000000 rvtest_sig_end
00000000 g       .text.init	00000000 rvtest_entry_point
00009170 g       .data	00000000 begin_signature
00001cc0 g       .text.rvtest	00000000 rvtest_code_end
00000040 g       .text.rvtest	00000000 rvtest_code_begin
00009170 g       .data	00000000 rvtest_sig_begin
00004110 g       .data	00000000 rvtest_data_begin
00009170 g       .data	00000000 rvtest_data_end
00001cc0 g       .text.rvtest	00000000 cleanup_epilogs
00019000 g       .text.rvmodel	00000000 _end



Disassembly of section .text.init:

00000000 <rvtest_entry_point>:

// Include framework macros
#include "riscv_arch_test.h"

// Set up test environment and declare main entry point
RVTEST_BEGIN
   0:	00018097          	auipc	x1,0x18
   4:	00008093          	addi	x1,x1,0 # 18000 <rvmodel_boot>
   8:	00000013          	addi	x0,x0,0
   c:	00000013          	addi	x0,x0,0
  10:	00000013          	addi	x0,x0,0
  14:	00000013          	addi	x0,x0,0
  18:	00000013          	addi	x0,x0,0
  1c:	00000013          	addi	x0,x0,0
  20:	000080e7          	jalr	x1,0(x1)
  24:	00000013          	addi	x0,x0,0
  28:	00000013          	addi	x0,x0,0
  2c:	00000013          	addi	x0,x0,0
  30:	00000013          	addi	x0,x0,0
  34:	00000013          	addi	x0,x0,0
  38:	00000013          	addi	x0,x0,0
  3c:	00000013          	addi	x0,x0,0

Disassembly of section .text.rvtest:

00000040 <rvtest_code_begin>:
/////////////////////////////////
// cp_rs1
/////////////////////////////////

# Testcase cp_rs1 (Test source rs1 = x0)
  RVTEST_TESTDATA_LOAD_INT(x3, x0) # load rs1: x0 = 0x98576df9
      40:	0001a003          	lw	x0,0(x3)
      44:	00418193          	addi	x3,x3,4

00000048 <I_slli_cg_cp_rs1_b0>:
I_slli_cg_cp_rs1_b0:
  slli x25, x0, 24 # perform operation
      48:	01801c93          	slli	x25,x0,0x18
  # Check if x25 contains the expected result. x2 is the signature ptr, x5 is the link ptr, x4 is a temp reg.
  RVTEST_SIGUPD(x2, x5, x4, x25, I_slli_cg_cp_rs1_b0, I_slli_cg_cp_rs1_b0_str)
      4c:	00012203          	lw	x4,0(x2)
      50:	01920863          	beq	x4,x25,60 <I_slli_cg_cp_rs1_b0+0x18>
      54:	4a9012ef          	jal	x5,1cfc <failedtest_x5_x4>
      58:	00000048          	.word	0x00000048
      5c:	00004430          	.word	0x00004430
      60:	00410113          	addi	x2,x2,4

# Testcase cp_rs1 (Test source rs1 = x1)
  RVTEST_TESTDATA_LOAD_INT(x3, x1) # load rs1: x1 = 0x71610c8e
      64:	0001a083          	lw	x1,0(x3)
      68:	00418193          	addi	x3,x3,4

0000006c <I_slli_cg_cp_rs1_b1>:
I_slli_cg_cp_rs1_b1:
  slli x29, x1, 31 # perform operation
      6c:	01f09e93          	slli	x29,x1,0x1f
  # Check if x29 contains the expected result. x2 is the signature ptr, x5 is the link ptr, x4 is a temp reg.
  RVTEST_SIGUPD(x2, x5, x4, x29, I_slli_cg_cp_rs1_b1, I_slli_cg_cp_rs1_b1_str)
      70:	00012203          	lw	x4,0(x2)
      74:	01d20863          	beq	x4,x29,84 <I_slli_cg_cp_rs1_b1+0x18>
      78:	485012ef          	jal	x5,1cfc <failedtest_x5_x4>
      7c:	0000006c          	.word	0x0000006c
      80:	0000445e          	.word	0x0000445e
      84:	00410113          	addi	x2,x2,4

  mv x19, x2 # switch signature pointer register to avoid conflict with test
      88:	00010993          	addi	x19,x2,0
# Testcase cp_rs1 (Test source rs1 = x2)
  RVTEST_TESTDATA_LOAD_INT(x3, x2) # load rs1: x2 = 0x7f31b5cf
      8c:	0001a103          	lw	x2,0(x3)
      90:	00418193          	addi	x3,x3,4

00000094 <I_slli_cg_cp_rs1_b2>:
I_slli_cg_cp_rs1_b2:
  slli x9, x2, 29 # perform operation
      94:	01d11493          	slli	x9,x2,0x1d
  # Check if x9 contains the expected result. x19 is the signature ptr, x5 is the link ptr, x4 is a temp reg.
  RVTEST_SIGUPD(x19, x5, x4, x9, I_slli_cg_cp_rs1_b2, I_slli_cg_cp_rs1_b2_str)
      98:	0009a203          	lw	x4,0(x19)
      9c:	00920863          	beq	x4,x9,ac <I_slli_cg_cp_rs1_b2+0x18>
      a0:	45d012ef          	jal	x5,1cfc <failedtest_x5_x4>
      a4:	00000094          	.word	0x00000094
      a8:	0000448c          	.word	0x0000448c
      ac:	00498993          	addi	x19,x19,4

  mv x25, x3 # switch data pointer register to avoid conflict with test
      b0:	00018c93          	addi	x25,x3,0
# Testcase cp_rs1 (Test source rs1 = x3)
  RVTEST_TESTDATA_LOAD_INT(x25, x3) # load rs1: x3 = 0xed2db53a
      b4:	000ca183          	lw	x3,0(x25)
      b8:	004c8c93          	addi	x25,x25,4

000000bc <I_slli_cg_cp_rs1_b3>:
I_slli_cg_cp_rs1_b3:
  slli x0, x3, 12 # perform operation
      bc:	00c19013          	slli	x0,x3,0xc
  # Check if x0 contains the expected result. x19 is the signature ptr, x5 is the link ptr, x4 is a temp reg.
  RVTEST_SIGUPD(x19, x5, x4, x0, I_slli_cg_cp_rs1_b3, I_slli_cg_cp_rs1_b3_str)
      c0:	0009a203          	lw	x4,0(x19)
      c4:	00020863          	beq	x4,x0,d4 <I_slli_cg_cp_rs1_b3+0x18>
      c8:	435012ef          	jal	x5,1cfc <failedtest_x5_x4>
      cc:	000000bc          	.word	0x000000bc
      d0:	000044ba          	.word	0x000044ba
      d4:	00498993          	addi	x19,x19,4

  mv x7, x4 # switch temp register to avoid conflict with test
      d8:	00020393          	addi	x7,x4,0 # 0 <rvtest_entry_point>
  mv x8, x5 # switch link pointer register to avoid conflict with test
      dc:	00028413          	addi	x8,x5,0
# Testcase cp_rs1 (Test source rs1 = x4)
  RVTEST_TESTDATA_LOAD_INT(x25, x4) # load rs1: x4 = 0xcb7492f3
      e0:	000ca203          	lw	x4,0(x25)
      e4:	004c8c93          	addi	x25,x25,4

000000e8 <I_slli_cg_cp_rs1_b4>:
I_slli_cg_cp_rs1_b4:
  slli x11, x4, 20 # perform operation
      e8:	01421593          	slli	x11,x4,0x14
  # Check if x11 contains the expected result. x19 is the signature ptr, x8 is the link ptr, x7 is a temp reg.
  RVTEST_SIGUPD(x19, x8, x7, x11, I_slli_cg_cp_rs1_b4, I_slli_cg_cp_rs1_b4_str)
      ec:	0009a383          	lw	x7,0(x19)
      f0:	00b38863          	beq	x7,x11,100 <I_slli_cg_cp_rs1_b4+0x18>
      f4:	4210146f          	jal	x8,1d14 <failedtest_x8_x7>
      f8:	000000e8          	.word	0x000000e8
      fc:	000044e8          	.word	0x000044e8
     100:	00498993          	addi	x19,x19,4

# Testcase cp_rs1 (Test source rs1 = x5)
  RVTEST_TESTDATA_LOAD_INT(x25, x5) # load rs1: x5 = 0x37a36361
     104:	000ca283          	lw	x5,0(x25)
     108:	004c8c93          	addi	x25,x25,4

0000010c <I_slli_cg_cp_rs1_b5>:
I_slli_cg_cp_rs1_b5:
  slli x2, x5, 13 # perform operation
     10c:	00d29113          	slli	x2,x5,0xd
  # Check if x2 contains the expected result. x19 is the signature ptr, x8 is the link ptr, x7 is a temp reg.
  RVTEST_SIGUPD(x19, x8, x7, x2, I_slli_cg_cp_rs1_b5, I_slli_cg_cp_rs1_b5_str)
     110:	0009a383          	lw	x7,0(x19)
     114:	00238863          	beq	x7,x2,124 <I_slli_cg_cp_rs1_b5+0x18>
     118:	3fd0146f          	jal	x8,1d14 <failedtest_x8_x7>
     11c:	0000010c          	.word	0x0000010c
     120:	00004516          	.word	0x00004516
     124:	00498993          	addi	x19,x19,4

# Testcase cp_rs1 (Test source rs1 = x6)
  RVTEST_TESTDATA_LOAD_INT(x25, x6) # load rs1: x6 = 0xf46a23a6
     128:	000ca303          	lw	x6,0(x25)
     12c:	004c8c93          	addi	x25,x25,4

00000130 <I_slli_cg_cp_rs1_b6>:
I_slli_cg_cp_rs1_b6:
  slli x24, x6, 16 # perform operation
     130:	01031c13          	slli	x24,x6,0x10
  # Check if x24 contains the expected result. x19 is the signature ptr, x8 is the link ptr, x7 is a temp reg.
  RVTEST_SIGUPD(x19, x8, x7, x24, I_slli_cg_cp_rs1_b6, I_slli_cg_cp_rs1_b6_str)
     134:	0009a383          	lw	x7,0(x19)
     138:	01838863          	beq	x7,x24,148 <I_slli_cg_cp_rs1_b6+0x18>
     13c:	3d90146f          	jal	x8,1d14 <failedtest_x8_x7>
     140:	00000130          	.word	0x00000130
     144:	00004544          	.word	0x00004544
     148:	00498993          	addi	x19,x19,4

  mv x4, x7 # switch temp register to avoid conflict with test
     14c:	00038213          	addi	x4,x7,0
  mv x5, x8 # switch link pointer register to avoid conflict with test
     150:	00040293          	addi	x5,x8,0
# Testcase cp_rs1 (Test source rs1 = x7)
  RVTEST_TESTDATA_LOAD_INT(x25, x7) # load rs1: x7 = 0x114ded87
     154:	000ca383          	lw	x7,0(x25)
     158:	004c8c93          	addi	x25,x25,4

0000015c <I_slli_cg_cp_rs1_b7>:
I_slli_cg_cp_rs1_b7:
  slli x23, x7, 8 # perform operation
     15c:	00839b93          	slli	x23,x7,0x8
  # Check if x23 contains the expected result. x19 is the signature ptr, x5 is the link ptr, x4 is a temp reg.
  RVTEST_SIGUPD(x19, x5, x4, x23, I_slli_cg_cp_rs1_b7, I_slli_cg_cp_rs1_b7_str)
     160:	0009a203          	lw	x4,0(x19)
     164:	01720863          	beq	x4,x23,174 <I_slli_cg_cp_rs1_b7+0x18>
     168:	395012ef          	jal	x5,1cfc <failedtest_x5_x4>
     16c:	0000015c          	.word	0x0000015c
     170:	00004572          	.word	0x00004572
     174:	00498993          	addi	x19,x19,4

# Testcase cp_rs1 (Test source rs1 = x8)
  RVTEST_TESTDATA_LOAD_INT(x25, x8) # load rs1: x8 = 0x2ea2355e
     178:	000ca403          	lw	x8,0(x25)
     17c:	004c8c93          	addi	x25,x25,4

00000180 <I_slli_cg_cp_rs1_b8>:
I_slli_cg_cp_rs1_b8:
  slli x13, x8, 4 # perform operation
     180:	00441693          	slli	x13,x8,0x4
  # Check if x13 contains the expected result. x19 is the signature ptr, x5 is the link ptr, x4 is a temp reg.
  RVTEST_SIGUPD(x19, x5, x4, x13, I_slli_cg_cp_rs1_b8, I_slli_cg_cp_rs1_b8_str)
     184:	0009a203          	lw	x4,0(x19)
     188:	00d20863          	beq	x4,x13,198 <I_slli_cg_cp_rs1_b8+0x18>
     18c:	371012ef          	jal	x5,1cfc <failedtest_x5_x4>
     190:	00000180          	.word	0x00000180
     194:	000045a0          	.word	0x000045a0
     198:	00498993          	addi	x19,x19,4

# Testcase cp_rs1 (Test source rs1 = x9)
  RVTEST_TESTDATA_LOAD_INT(x25, x9) # load rs1: x9 = 0x19f9c199
     19c:	000ca483          	lw	x9,0(x25)
     1a0:	004c8c93          	addi	x25,x25,4

000001a4 <I_slli_cg_cp_rs1_b9>:
I_slli_cg_cp_rs1_b9:
  slli x26, x9, 13 # perform operation
     1a4:	00d49d13          	slli	x26,x9,0xd
  # Check if x26 contains the expected result. x19 is the signature ptr, x5 is the link ptr, x4 is a temp reg.
  RVTEST_SIGUPD(x19, x5, x4, x26, I_slli_cg_cp_rs1_b9, I_slli_cg_cp_rs1_b9_str)
     1a8:	0009a203          	lw	x4,0(x19)
     1ac:	01a20863          	beq	x4,x26,1bc <I_slli_cg_cp_rs1_b9+0x18>
     1b0:	34d012ef          	jal	x5,1cfc <failedtest_x5_x4>
     1b4:	000001a4          	.word	0x000001a4
     1b8:	000045ce          	.word	0x000045ce
     1bc:	00498993          	addi	x19,x19,4

# Testcase cp_rs1 (Test source rs1 = x10)
  RVTEST_TESTDATA_LOAD_INT(x25, x10) # load rs1: x10 = 0x3d101865
     1c0:	000ca503          	lw	x10,0(x25)
     1c4:	004c8c93          	addi	x25,x25,4

000001c8 <I_slli_cg_cp_rs1_b10>:
I_slli_cg_cp_rs1_b10:
  slli x9, x10, 31 # perform operation
     1c8:	01f51493          	slli	x9,x10,0x1f
  # Check if x9 contains the expected result. x19 is the signature ptr, x5 is the link ptr, x4 is a temp reg.
  RVTEST_SIGUPD(x19, x5, x4, x9, I_slli_cg_cp_rs1_b10, I_slli_cg_cp_rs1_b10_str)
     1cc:	0009a203          	lw	x4,0(x19)
     1d0:	00920863          	beq	x4,x9,1e0 <I_slli_cg_cp_rs1_b10+0x18>
     1d4:	329012ef          	jal	x5,1cfc <failedtest_x5_x4>
     1d8:	000001c8          	.word	0x000001c8
     1dc:	000045fd          	.word	0x000045fd
     1e0:	00498993          	addi	x19,x19,4

# Testcase cp_rs1 (Test source rs1 = x11)
  RVTEST_TESTDATA_LOAD_INT(x25, x11) # load rs1: x11 = 0x9130c530
     1e4:	000ca583          	lw	x11,0(x25)
     1e8:	004c8c93          	addi	x25,x25,4

000001ec <I_slli_cg_cp_rs1_b11>:
I_slli_cg_cp_rs1_b11:
  slli x22, x11, 9 # perform operation
     1ec:	00959b13          	slli	x22,x11,0x9
  # Check if x22 contains the expected result. x19 is the signature ptr, x5 is the link ptr, x4 is a temp reg.
  RVTEST_SIGUPD(x19, x5, x4, x22, I_slli_cg_cp_rs1_b11, I_slli_cg_cp_rs1_b11_str)
     1f0:	0009a203          	lw	x4,0(x19)
     1f4:	01620863          	beq	x4,x22,204 <I_slli_cg_cp_rs1_b11+0x18>
     1f8:	305012ef          	jal	x5,1cfc <failedtest_x5_x4>
     1fc:	000001ec          	.word	0x000001ec
     200:	0000462d          	.word	0x0000462d
     204:	00498993          	addi	x19,x19,4

# Testcase cp_rs1 (Test source rs1 = x12)
  RVTEST_TESTDATA_LOAD_INT(x25, x12) # load rs1: x12 = 0xbfb8cca7
     208:	000ca603          	lw	x12,0(x25)
     20c:	004c8c93          	addi	x25,x25,4

00000210 <I_slli_cg_cp_rs1_b12>:
I_slli_cg_cp_rs1_b12:
  slli x18, x12, 11 # perform operation
     210:	00b61913          	slli	x18,x12,0xb
  # Check if x18 contains the expected result. x19 is the signature ptr, x5 is the link ptr, x4 is a temp reg.
  RVTEST_SIGUPD(x19, x5, x4, x18, I_slli_cg_cp_rs1_b12, I_slli_cg_cp_rs1_b12_str)
     214:	0009a203          	lw	x4,0(x19)
     218:	01220863          	beq	x4,x18,228 <I_slli_cg_cp_rs1_b12+0x18>
     21c:	2e1012ef          	jal	x5,1cfc <failedtest_x5_x4>
     220:	00000210          	.word	0x00000210
     224:	0000465d          	.word	0x0000465d
     228:	00498993          	addi	x19,x19,4

# Testcase cp_rs1 (Test source rs1 = x13)
  RVTEST_TESTDATA_LOAD_INT(x25, x13) # load rs1: x13 = 0x0baf74a8
     22c:	000ca683          	lw	x13,0(x25)
     230:	004c8c93          	addi	x25,x25,4

00000234 <I_slli_cg_cp_rs1_b13>:
I_slli_cg_cp_rs1_b13:
  slli x23, x13, 14 # perform operation
     234:	00e69b93          	slli	x23,x13,0xe
  # Check if x23 contains the expected result. x19 is the signature ptr, x5 is the link ptr, x4 is a temp reg.
  RVTEST_SIGUPD(x19, x5, x4, x23, I_slli_cg_cp_rs1_b13, I_slli_cg_cp_rs1_b13_str)
     238:	0009a203          	lw	x4,0(x19)
     23c:	01720863          	beq	x4,x23,24c <I_slli_cg_cp_rs1_b13+0x18>
     240:	2bd012ef          	jal	x5,1cfc <failedtest_x5_x4>
     244:	00000234          	.word	0x00000234
     248:	0000468d          	.word	0x0000468d
     24c:	00498993          	addi	x19,x19,4

# Testcase cp_rs1 (Test source rs1 = x14)
  RVTEST_TESTDATA_LOAD_INT(x25, x14) # load rs1: x14 = 0xb426afb9
     250:	000ca703          	lw	x14,0(x25)
     254:	004c8c93          	addi	x25,x25,4

00000258 <I_slli_cg_cp_rs1_b14>:
I_slli_cg_cp_rs1_b14:
  slli x21, x14, 12 # perform operation
     258:	00c71a93          	slli	x21,x14,0xc
  # Check if x21 contains the expected result. x19 is the signature ptr, x5 is the link ptr, x4 is a temp reg.
  RVTEST_SIGUPD(x19, x5, x4, x21, I_slli_cg_cp_rs1_b14, I_slli_cg_cp_rs1_b14_str)
     25c:	0009a203          	lw	x4,0(x19)
     260:	01520863          	beq	x4,x21,270 <I_slli_cg_cp_rs1_b14+0x18>
     264:	299012ef          	jal	x5,1cfc <failedtest_x5_x4>
     268:	00000258          	.word	0x00000258
     26c:	000046bd          	.word	0x000046bd
     270:	00498993          	addi	x19,x19,4

# Testcase cp_rs1 (Test source rs1 = x15)
  RVTEST_TESTDATA_LOAD_INT(x25, x15) # load rs1: x15 = 0xdb9edbb2
     274:	000ca783          	lw	x15,0(x25)
     278:	004c8c93          	addi	x25,x25,4

0000027c <I_slli_cg_cp_rs1_b15>:
I_slli_cg_cp_rs1_b15:
  slli x26, x15, 9 # perform operation
     27c:	00979d13          	slli	x26,x15,0x9
  # Check if x26 contains the expected result. x19 is the signature ptr, x5 is the link ptr, x4 is a temp reg.
  RVTEST_SIGUPD(x19, x5, x4, x26, I_slli_cg_cp_rs1_b15, I_slli_cg_cp_rs1_b15_str)
     280:	0009a203          	lw	x4,0(x19)
     284:	01a20863          	beq	x4,x26,294 <I_slli_cg_cp_rs1_b15+0x18>
     288:	275012ef          	jal	x5,1cfc <failedtest_x5_x4>
     28c:	0000027c          	.word	0x0000027c
     290:	000046ed          	.word	0x000046ed
     294:	00498993          	addi	x19,x19,4

# Testcase cp_rs1 (Test source rs1 = x16)
  RVTEST_TESTDATA_LOAD_INT(x25, x16) # load rs1: x16 = 0xe40a6c62
     298:	000ca803          	lw	x16,0(x25)
     29c:	004c8c93          	addi	x25,x25,4

000002a0 <I_slli_cg_cp_rs1_b16>:
I_slli_cg_cp_rs1_b16:
  slli x6, x16, 6 # perform operation
     2a0:	00681313          	slli	x6,x16,0x6
  # Check if x6 contains the expected result. x19 is the signature ptr, x5 is the link ptr, x4 is a temp reg.
  RVTEST_SIGUPD(x19, x5, x4, x6, I_slli_cg_cp_rs1_b16, I_slli_cg_cp_rs1_b16_str)
     2a4:	0009a203          	lw	x4,0(x19)
     2a8:	00620863          	beq	x4,x6,2b8 <I_slli_cg_cp_rs1_b16+0x18>
     2ac:	251012ef          	jal	x5,1cfc <failedtest_x5_x4>
     2b0:	000002a0          	.word	0x000002a0
     2b4:	0000471d          	.word	0x0000471d
     2b8:	00498993          	addi	x19,x19,4

# Testcase cp_rs1 (Test source rs1 = x17)
  RVTEST_TESTDATA_LOAD_INT(x25, x17) # load rs1: x17 = 0xbd694183
     2bc:	000ca883          	lw	x17,0(x25)
     2c0:	004c8c93          	addi	x25,x25,4

000002c4 <I_slli_cg_cp_rs1_b17>:
I_slli_cg_cp_rs1_b17:
  slli x10, x17, 5 # perform operation
     2c4:	00589513          	slli	x10,x17,0x5
  # Check if x10 contains the expected result. x19 is the signature ptr, x5 is the link ptr, x4 is a temp reg.
  RVTEST_SIGUPD(x19, x5, x4, x10, I_slli_cg_cp_rs1_b17, I_slli_cg_cp_rs1_b17_str)
     2c8:	0009a203          	lw	x4,0(x19)
     2cc:	00a20863          	beq	x4,x10,2dc <I_slli_cg_cp_rs1_b17+0x18>
     2d0:	22d012ef          	jal	x5,1cfc <failedtest_x5_x4>
     2d4:	000002c4          	.word	0x000002c4
     2d8:	0000474d          	.word	0x0000474d
     2dc:	00498993          	addi	x19,x19,4

# Testcase cp_rs1 (Test source rs1 = x18)
  RVTEST_TESTDATA_LOAD_INT(x25, x18) # load rs1: x18 = 0x860b5dfc
     2e0:	000ca903          	lw	x18,0(x25)
     2e4:	004c8c93          	addi	x25,x25,4

000002e8 <I_slli_cg_cp_rs1_b18>:
I_slli_cg_cp_rs1_b18:
  slli x0, x18, 17 # perform operation
     2e8:	01191013          	slli	x0,x18,0x11
  # Check if x0 contains the expected result. x19 is the signature ptr, x5 is the link ptr, x4 is a temp reg.
  RVTEST_SIGUPD(x19, x5, x4, x0, I_slli_cg_cp_rs1_b18, I_slli_cg_cp_rs1_b18_str)
     2ec:	0009a203          	lw	x4,0(x19)
     2f0:	00020863          	beq	x4,x0,300 <I_slli_cg_cp_rs1_b18+0x18>
     2f4:	209012ef          	jal	x5,1cfc <failedtest_x5_x4>
     2f8:	000002e8          	.word	0x000002e8
     2fc:	0000477d          	.word	0x0000477d
     300:	00498993          	addi	x19,x19,4

  mv x16, x19 # switch signature pointer register to avoid conflict with test
     304:	00098813          	addi	x16,x19,0
# Testcase cp_rs1 (Test source rs1 = x19)
  RVTEST_TESTDATA_LOAD_INT(x25, x19) # load rs1: x19 = 0x19536ebf
     308:	000ca983          	lw	x19,0(x25)
     30c:	004c8c93          	addi	x25,x25,4

00000310 <I_slli_cg_cp_rs1_b19>:
I_slli_cg_cp_rs1_b19:
  slli x1, x19, 16 # perform operation
     310:	01099093          	slli	x1,x19,0x10
  # Check if x1 contains the expected result. x16 is the signature ptr, x5 is the link ptr, x4 is a temp reg.
  RVTEST_SIGUPD(x16, x5, x4, x1, I_slli_cg_cp_rs1_b19, I_slli_cg_cp_rs1_b19_str)
     314:	00082203          	lw	x4,0(x16)
     318:	00120863          	beq	x4,x1,328 <I_slli_cg_cp_rs1_b19+0x18>
     31c:	1e1012ef          	jal	x5,1cfc <failedtest_x5_x4>
     320:	00000310          	.word	0x00000310
     324:	000047ad          	.word	0x000047ad
     328:	00480813          	addi	x16,x16,4

# Testcase cp_rs1 (Test source rs1 = x20)
  RVTEST_TESTDATA_LOAD_INT(x25, x20) # load rs1: x20 = 0x46f035a9
     32c:	000caa03          	lw	x20,0(x25)
     330:	004c8c93          	addi	x25,x25,4

00000334 <I_slli_cg_cp_rs1_b20>:
I_slli_cg_cp_rs1_b20:
  slli x13, x20, 25 # perform operation
     334:	019a1693          	slli	x13,x20,0x19
  # Check if x13 contains the expected result. x16 is the signature ptr, x5 is the link ptr, x4 is a temp reg.
  RVTEST_SIGUPD(x16, x5, x4, x13, I_slli_cg_cp_rs1_b20, I_slli_cg_cp_rs1_b20_str)
     338:	00082203          	lw	x4,0(x16)
     33c:	00d20863          	beq	x4,x13,34c <I_slli_cg_cp_rs1_b20+0x18>
     340:	1bd012ef          	jal	x5,1cfc <failedtest_x5_x4>
     344:	00000334          	.word	0x00000334
     348:	000047dd          	.word	0x000047dd
     34c:	00480813          	addi	x16,x16,4

# Testcase cp_rs1 (Test source rs1 = x21)
  RVTEST_TESTDATA_LOAD_INT(x25, x21) # load rs1: x21 = 0x6a22a56c
     350:	000caa83          	lw	x21,0(x25)
     354:	004c8c93          	addi	x25,x25,4

00000358 <I_slli_cg_cp_rs1_b21>:
I_slli_cg_cp_rs1_b21:
  slli x20, x21, 6 # perform operation
     358:	006a9a13          	slli	x20,x21,0x6
  # Check if x20 contains the expected result. x16 is the signature ptr, x5 is the link ptr, x4 is a temp reg.
  RVTEST_SIGUPD(x16, x5, x4, x20, I_slli_cg_cp_rs1_b21, I_slli_cg_cp_rs1_b21_str)
     35c:	00082203          	lw	x4,0(x16)
     360:	01420863          	beq	x4,x20,370 <I_slli_cg_cp_rs1_b21+0x18>
     364:	199012ef          	jal	x5,1cfc <failedtest_x5_x4>
     368:	00000358          	.word	0x00000358
     36c:	0000480d          	.word	0x0000480d
     370:	00480813          	addi	x16,x16,4

# Testcase cp_rs1 (Test source rs1 = x22)
  RVTEST_TESTDATA_LOAD_INT(x25, x22) # load rs1: x22 = 0x63190267
     374:	000cab03          	lw	x22,0(x25)
     378:	004c8c93          	addi	x25,x25,4

0000037c <I_slli_cg_cp_rs1_b22>:
I_slli_cg_cp_rs1_b22:
  slli x28, x22, 31 # perform operation
     37c:	01fb1e13          	slli	x28,x22,0x1f
  # Check if x28 contains the expected result. x16 is the signature ptr, x5 is the link ptr, x4 is a temp reg.
  RVTEST_SIGUPD(x16, x5, x4, x28, I_slli_cg_cp_rs1_b22, I_slli_cg_cp_rs1_b22_str)
     380:	00082203          	lw	x4,0(x16)
     384:	01c20863          	beq	x4,x28,394 <I_slli_cg_cp_rs1_b22+0x18>
     388:	175012ef          	jal	x5,1cfc <failedtest_x5_x4>
     38c:	0000037c          	.word	0x0000037c
     390:	0000483d          	.word	0x0000483d
     394:	00480813          	addi	x16,x16,4

# Testcase cp_rs1 (Test source rs1 = x23)
  RVTEST_TESTDATA_LOAD_INT(x25, x23) # load rs1: x23 = 0xa8782b9d
     398:	000cab83          	lw	x23,0(x25)
     39c:	004c8c93          	addi	x25,x25,4

000003a0 <I_slli_cg_cp_rs1_b23>:
I_slli_cg_cp_rs1_b23:
  slli x11, x23, 25 # perform operation
     3a0:	019b9593          	slli	x11,x23,0x19
  # Check if x11 contains the expected result. x16 is the signature ptr, x5 is the link ptr, x4 is a temp reg.
  RVTEST_SIGUPD(x16, x5, x4, x11, I_slli_cg_cp_rs1_b23, I_slli_cg_cp_rs1_b23_str)
     3a4:	00082203          	lw	x4,0(x16)
     3a8:	00b20863          	beq	x4,x11,3b8 <I_slli_cg_cp_rs1_b23+0x18>
     3ac:	151012ef          	jal	x5,1cfc <failedtest_x5_x4>
     3b0:	000003a0          	.word	0x000003a0
     3b4:	0000486d          	.word	0x0000486d
     3b8:	00480813          	addi	x16,x16,4

# Testcase cp_rs1 (Test source rs1 = x24)
  RVTEST_TESTDATA_LOAD_INT(x25, x24) # load rs1: x24 = 0x4e52e7ee
     3bc:	000cac03          	lw	x24,0(x25)
     3c0:	004c8c93          	addi	x25,x25,4

000003c4 <I_slli_cg_cp_rs1_b24>:
I_slli_cg_cp_rs1_b24:
  slli x2, x24, 26 # perform operation
     3c4:	01ac1113          	slli	x2,x24,0x1a
  # Check if x2 contains the expected result. x16 is the signature ptr, x5 is the link ptr, x4 is a temp reg.
  RVTEST_SIGUPD(x16, x5, x4, x2, I_slli_cg_cp_rs1_b24, I_slli_cg_cp_rs1_b24_str)
     3c8:	00082203          	lw	x4,0(x16)
     3cc:	00220863          	beq	x4,x2,3dc <I_slli_cg_cp_rs1_b24+0x18>
     3d0:	12d012ef          	jal	x5,1cfc <failedtest_x5_x4>
     3d4:	000003c4          	.word	0x000003c4
     3d8:	0000489d          	.word	0x0000489d
     3dc:	00480813          	addi	x16,x16,4

  mv x29, x25 # switch data pointer register to avoid conflict with test
     3e0:	000c8e93          	addi	x29,x25,0
# Testcase cp_rs1 (Test source rs1 = x25)
  RVTEST_TESTDATA_LOAD_INT(x29, x25) # load rs1: x25 = 0x8c34f775
     3e4:	000eac83          	lw	x25,0(x29)
     3e8:	004e8e93          	addi	x29,x29,4

000003ec <I_slli_cg_cp_rs1_b25>:
I_slli_cg_cp_rs1_b25:
  slli x23, x25, 29 # perform operation
     3ec:	01dc9b93          	slli	x23,x25,0x1d
  # Check if x23 contains the expected result. x16 is the signature ptr, x5 is the link ptr, x4 is a temp reg.
  RVTEST_SIGUPD(x16, x5, x4, x23, I_slli_cg_cp_rs1_b25, I_slli_cg_cp_rs1_b25_str)
     3f0:	00082203          	lw	x4,0(x16)
     3f4:	01720863          	beq	x4,x23,404 <I_slli_cg_cp_rs1_b25+0x18>
     3f8:	105012ef          	jal	x5,1cfc <failedtest_x5_x4>
     3fc:	000003ec          	.word	0x000003ec
     400:	000048cd          	.word	0x000048cd
     404:	00480813          	addi	x16,x16,4

# Testcase cp_rs1 (Test source rs1 = x26)
  RVTEST_TESTDATA_LOAD_INT(x29, x26) # load rs1: x26 = 0x410dd8a7
     408:	000ead03          	lw	x26,0(x29)
     40c:	004e8e93          	addi	x29,x29,4

00000410 <I_slli_cg_cp_rs1_b26>:
I_slli_cg_cp_rs1_b26:
  slli x24, x26, 8 # perform operation
     410:	008d1c13          	slli	x24,x26,0x8
  # Check if x24 contains the expected result. x16 is the signature ptr, x5 is the link ptr, x4 is a temp reg.
  RVTEST_SIGUPD(x16, x5, x4, x24, I_slli_cg_cp_rs1_b26, I_slli_cg_cp_rs1_b26_str)
     414:	00082203          	lw	x4,0(x16)
     418:	01820863          	beq	x4,x24,428 <I_slli_cg_cp_rs1_b26+0x18>
     41c:	0e1012ef          	jal	x5,1cfc <failedtest_x5_x4>
     420:	00000410          	.word	0x00000410
     424:	000048fd          	.word	0x000048fd
     428:	00480813          	addi	x16,x16,4

# Testcase cp_rs1 (Test source rs1 = x27)
  RVTEST_TESTDATA_LOAD_INT(x29, x27) # load rs1: x27 = 0xb6d624ad
     42c:	000ead83          	lw	x27,0(x29)
     430:	004e8e93          	addi	x29,x29,4

00000434 <I_slli_cg_cp_rs1_b27>:
I_slli_cg_cp_rs1_b27:
  slli x0, x27, 2 # perform operation
     434:	002d9013          	slli	x0,x27,0x2
  # Check if x0 contains the expected result. x16 is the signature ptr, x5 is the link ptr, x4 is a temp reg.
  RVTEST_SIGUPD(x16, x5, x4, x0, I_slli_cg_cp_rs1_b27, I_slli_cg_cp_rs1_b27_str)
     438:	00082203          	lw	x4,0(x16)
     43c:	00020863          	beq	x4,x0,44c <I_slli_cg_cp_rs1_b27+0x18>
     440:	0bd012ef          	jal	x5,1cfc <failedtest_x5_x4>
     444:	00000434          	.word	0x00000434
     448:	0000492d          	.word	0x0000492d
     44c:	00480813          	addi	x16,x16,4

# Testcase cp_rs1 (Test source rs1 = x28)
  RVTEST_TESTDATA_LOAD_INT(x29, x28) # load rs1: x28 = 0xbf413d52
     450:	000eae03          	lw	x28,0(x29)
     454:	004e8e93          	addi	x29,x29,4

00000458 <I_slli_cg_cp_rs1_b28>:
I_slli_cg_cp_rs1_b28:
  slli x26, x28, 9 # perform operation
     458:	009e1d13          	slli	x26,x28,0x9
  # Check if x26 contains the expected result. x16 is the signature ptr, x5 is the link ptr, x4 is a temp reg.
  RVTEST_SIGUPD(x16, x5, x4, x26, I_slli_cg_cp_rs1_b28, I_slli_cg_cp_rs1_b28_str)
     45c:	00082203          	lw	x4,0(x16)
     460:	01a20863          	beq	x4,x26,470 <I_slli_cg_cp_rs1_b28+0x18>
     464:	099012ef          	jal	x5,1cfc <failedtest_x5_x4>
     468:	00000458          	.word	0x00000458
     46c:	0000495d          	.word	0x0000495d
     470:	00480813          	addi	x16,x16,4

  mv x25, x29 # switch data pointer register to avoid conflict with test
     474:	000e8c93          	addi	x25,x29,0
# Testcase cp_rs1 (Test source rs1 = x29)
  RVTEST_TESTDATA_LOAD_INT(x25, x29) # load rs1: x29 = 0x59975815
     478:	000cae83          	lw	x29,0(x25)
     47c:	004c8c93          	addi	x25,x25,4

00000480 <I_slli_cg_cp_rs1_b29>:
I_slli_cg_cp_rs1_b29:
  slli x14, x29, 31 # perform operation
     480:	01fe9713          	slli	x14,x29,0x1f
  # Check if x14 contains the expected result. x16 is the signature ptr, x5 is the link ptr, x4 is a temp reg.
  RVTEST_SIGUPD(x16, x5, x4, x14, I_slli_cg_cp_rs1_b29, I_slli_cg_cp_rs1_b29_str)
     484:	00082203          	lw	x4,0(x16)
     488:	00e20863          	beq	x4,x14,498 <I_slli_cg_cp_rs1_b29+0x18>
     48c:	071012ef          	jal	x5,1cfc <failedtest_x5_x4>
     490:	00000480          	.word	0x00000480
     494:	0000498d          	.word	0x0000498d
     498:	00480813          	addi	x16,x16,4

# Testcase cp_rs1 (Test source rs1 = x30)
  RVTEST_TESTDATA_LOAD_INT(x25, x30) # load rs1: x30 = 0x8efed71d
     49c:	000caf03          	lw	x30,0(x25)
     4a0:	004c8c93          	addi	x25,x25,4

000004a4 <I_slli_cg_cp_rs1_b30>:
I_slli_cg_cp_rs1_b30:
  slli x23, x30, 1 # perform operation
     4a4:	001f1b93          	slli	x23,x30,0x1
  # Check if x23 contains the expected result. x16 is the signature ptr, x5 is the link ptr, x4 is a temp reg.
  RVTEST_SIGUPD(x16, x5, x4, x23, I_slli_cg_cp_rs1_b30, I_slli_cg_cp_rs1_b30_str)
     4a8:	00082203          	lw	x4,0(x16)
     4ac:	01720863          	beq	x4,x23,4bc <I_slli_cg_cp_rs1_b30+0x18>
     4b0:	04d012ef          	jal	x5,1cfc <failedtest_x5_x4>
     4b4:	000004a4          	.word	0x000004a4
     4b8:	000049bd          	.word	0x000049bd
     4bc:	00480813          	addi	x16,x16,4

# Testcase cp_rs1 (Test source rs1 = x31)
  RVTEST_TESTDATA_LOAD_INT(x25, x31) # load rs1: x31 = 0x22e3f804
     4c0:	000caf83          	lw	x31,0(x25)
     4c4:	004c8c93          	addi	x25,x25,4

000004c8 <I_slli_cg_cp_rs1_b31>:
I_slli_cg_cp_rs1_b31:
  slli x12, x31, 15 # perform operation
     4c8:	00ff9613          	slli	x12,x31,0xf
  # Check if x12 contains the expected result. x16 is the signature ptr, x5 is the link ptr, x4 is a temp reg.
  RVTEST_SIGUPD(x16, x5, x4, x12, I_slli_cg_cp_rs1_b31, I_slli_cg_cp_rs1_b31_str)
     4cc:	00082203          	lw	x4,0(x16)
     4d0:	00c20863          	beq	x4,x12,4e0 <I_slli_cg_cp_rs1_b31+0x18>
     4d4:	029012ef          	jal	x5,1cfc <failedtest_x5_x4>
     4d8:	000004c8          	.word	0x000004c8
     4dc:	000049ed          	.word	0x000049ed
     4e0:	00480813          	addi	x16,x16,4
/////////////////////////////////
// cp_rd
/////////////////////////////////

# Testcase cp_rd (Test destination rd = x0)
  RVTEST_TESTDATA_LOAD_INT(x25, x3) # load rs1: x3 = 0x3766477d
     4e4:	000ca183          	lw	x3,0(x25)
     4e8:	004c8c93          	addi	x25,x25,4

000004ec <I_slli_cg_cp_rd_b0>:
I_slli_cg_cp_rd_b0:
  slli x0, x3, 5 # perform operation
     4ec:	00519013          	slli	x0,x3,0x5
  # Check if x0 contains the expected result. x16 is the signature ptr, x5 is the link ptr, x4 is a temp reg.
  RVTEST_SIGUPD(x16, x5, x4, x0, I_slli_cg_cp_rd_b0, I_slli_cg_cp_rd_b0_str)
     4f0:	00082203          	lw	x4,0(x16)
     4f4:	00020863          	beq	x4,x0,504 <I_slli_cg_cp_rd_b0+0x18>
     4f8:	005012ef          	jal	x5,1cfc <failedtest_x5_x4>
     4fc:	000004ec          	.word	0x000004ec
     500:	00004a1d          	.word	0x00004a1d
     504:	00480813          	addi	x16,x16,4

# Testcase cp_rd (Test destination rd = x1)
  RVTEST_TESTDATA_LOAD_INT(x25, x14) # load rs1: x14 = 0x7fb42a40
     508:	000ca703          	lw	x14,0(x25)
     50c:	004c8c93          	addi	x25,x25,4

00000510 <I_slli_cg_cp_rd_b1>:
I_slli_cg_cp_rd_b1:
  slli x1, x14, 16 # perform operation
     510:	01071093          	slli	x1,x14,0x10
  # Check if x1 contains the expected result. x16 is the signature ptr, x5 is the link ptr, x4 is a temp reg.
  RVTEST_SIGUPD(x16, x5, x4, x1, I_slli_cg_cp_rd_b1, I_slli_cg_cp_rd_b1_str)
     514:	00082203          	lw	x4,0(x16)
     518:	00120863          	beq	x4,x1,528 <I_slli_cg_cp_rd_b1+0x18>
     51c:	7e0012ef          	jal	x5,1cfc <failedtest_x5_x4>
     520:	00000510          	.word	0x00000510
     524:	00004a4b          	.word	0x00004a4b
     528:	00480813          	addi	x16,x16,4

# Testcase cp_rd (Test destination rd = x2)
  RVTEST_TESTDATA_LOAD_INT(x25, x12) # load rs1: x12 = 0xe9eaebcd
     52c:	000ca603          	lw	x12,0(x25)
     530:	004c8c93          	addi	x25,x25,4

00000534 <I_slli_cg_cp_rd_b2>:
I_slli_cg_cp_rd_b2:
  slli x2, x12, 8 # perform operation
     534:	00861113          	slli	x2,x12,0x8
  # Check if x2 contains the expected result. x16 is the signature ptr, x5 is the link ptr, x4 is a temp reg.
  RVTEST_SIGUPD(x16, x5, x4, x2, I_slli_cg_cp_rd_b2, I_slli_cg_cp_rd_b2_str)
     538:	00082203          	lw	x4,0(x16)
     53c:	00220863          	beq	x4,x2,54c <I_slli_cg_cp_rd_b2+0x18>
     540:	7bc012ef          	jal	x5,1cfc <failedtest_x5_x4>
     544:	00000534          	.word	0x00000534
     548:	00004a79          	.word	0x00004a79
     54c:	00480813          	addi	x16,x16,4

# Testcase cp_rd (Test destination rd = x3)
  RVTEST_TESTDATA_LOAD_INT(x25, x12) # load rs1: x12 = 0x36fc4201
     550:	000ca603          	lw	x12,0(x25)
     554:	004c8c93          	addi	x25,x25,4

00000558 <I_slli_cg_cp_rd_b3>:
I_slli_cg_cp_rd_b3:
  slli x3, x12, 20 # perform operation
     558:	01461193          	slli	x3,x12,0x14
  # Check if x3 contains the expected result. x16 is the signature ptr, x5 is the link ptr, x4 is a temp reg.
  RVTEST_SIGUPD(x16, x5, x4, x3, I_slli_cg_cp_rd_b3, I_slli_cg_cp_rd_b3_str)
     55c:	00082203          	lw	x4,0(x16)
     560:	00320863          	beq	x4,x3,570 <I_slli_cg_cp_rd_b3+0x18>
     564:	798012ef          	jal	x5,1cfc <failedtest_x5_x4>
     568:	00000558          	.word	0x00000558
     56c:	00004aa7          	.word	0x00004aa7
     570:	00480813          	addi	x16,x16,4

  mv x13, x4 # switch temp register to avoid conflict with test
     574:	00020693          	addi	x13,x4,0 # 0 <rvtest_entry_point>
  mv x14, x5 # switch link pointer register to avoid conflict with test
     578:	00028713          	addi	x14,x5,0
# Testcase cp_rd (Test destination rd = x4)
  RVTEST_TESTDATA_LOAD_INT(x25, x28) # load rs1: x28 = 0x4ba0142a
     57c:	000cae03          	lw	x28,0(x25)
     580:	004c8c93          	addi	x25,x25,4

00000584 <I_slli_cg_cp_rd_b4>:
I_slli_cg_cp_rd_b4:
  slli x4, x28, 16 # perform operation
     584:	010e1213          	slli	x4,x28,0x10
  # Check if x4 contains the expected result. x16 is the signature ptr, x14 is the link ptr, x13 is a temp reg.
  RVTEST_SIGUPD(x16, x14, x13, x4, I_slli_cg_cp_rd_b4, I_slli_cg_cp_rd_b4_str)
     588:	00082683          	lw	x13,0(x16)
     58c:	00468863          	beq	x13,x4,59c <I_slli_cg_cp_rd_b4+0x18>
     590:	7ac0176f          	jal	x14,1d3c <failedtest_x14_x13>
     594:	00000584          	.word	0x00000584
     598:	00004ad5          	.word	0x00004ad5
     59c:	00480813          	addi	x16,x16,4

# Testcase cp_rd (Test destination rd = x5)
  RVTEST_TESTDATA_LOAD_INT(x25, x2) # load rs1: x2 = 0x7653d623
     5a0:	000ca103          	lw	x2,0(x25)
     5a4:	004c8c93          	addi	x25,x25,4

000005a8 <I_slli_cg_cp_rd_b5>:
I_slli_cg_cp_rd_b5:
  slli x5, x2, 24 # perform operation
     5a8:	01811293          	slli	x5,x2,0x18
  # Check if x5 contains the expected result. x16 is the signature ptr, x14 is the link ptr, x13 is a temp reg.
  RVTEST_SIGUPD(x16, x14, x13, x5, I_slli_cg_cp_rd_b5, I_slli_cg_cp_rd_b5_str)
     5ac:	00082683          	lw	x13,0(x16)
     5b0:	00568863          	beq	x13,x5,5c0 <I_slli_cg_cp_rd_b5+0x18>
     5b4:	7880176f          	jal	x14,1d3c <failedtest_x14_x13>
     5b8:	000005a8          	.word	0x000005a8
     5bc:	00004b03          	.word	0x00004b03
     5c0:	00480813          	addi	x16,x16,4

# Testcase cp_rd (Test destination rd = x6)
  RVTEST_TESTDATA_LOAD_INT(x25, x27) # load rs1: x27 = 0x91231380
     5c4:	000cad83          	lw	x27,0(x25)
     5c8:	004c8c93          	addi	x25,x25,4

000005cc <I_slli_cg_cp_rd_b6>:
I_slli_cg_cp_rd_b6:
  slli x6, x27, 0 # perform operation
     5cc:	000d9313          	slli	x6,x27,0x0
  # Check if x6 contains the expected result. x16 is the signature ptr, x14 is the link ptr, x13 is a temp reg.
  RVTEST_SIGUPD(x16, x14, x13, x6, I_slli_cg_cp_rd_b6, I_slli_cg_cp_rd_b6_str)
     5d0:	00082683          	lw	x13,0(x16)
     5d4:	00668863          	beq	x13,x6,5e4 <I_slli_cg_cp_rd_b6+0x18>
     5d8:	7640176f          	jal	x14,1d3c <failedtest_x14_x13>
     5dc:	000005cc          	.word	0x000005cc
     5e0:	00004b31          	.word	0x00004b31
     5e4:	00480813          	addi	x16,x16,4

# Testcase cp_rd (Test destination rd = x7)
  RVTEST_TESTDATA_LOAD_INT(x25, x6) # load rs1: x6 = 0xbccf7e7e
     5e8:	000ca303          	lw	x6,0(x25)
     5ec:	004c8c93          	addi	x25,x25,4

000005f0 <I_slli_cg_cp_rd_b7>:
I_slli_cg_cp_rd_b7:
  slli x7, x6, 7 # perform operation
     5f0:	00731393          	slli	x7,x6,0x7
  # Check if x7 contains the expected result. x16 is the signature ptr, x14 is the link ptr, x13 is a temp reg.
  RVTEST_SIGUPD(x16, x14, x13, x7, I_slli_cg_cp_rd_b7, I_slli_cg_cp_rd_b7_str)
     5f4:	00082683          	lw	x13,0(x16)
     5f8:	00768863          	beq	x13,x7,608 <I_slli_cg_cp_rd_b7+0x18>
     5fc:	7400176f          	jal	x14,1d3c <failedtest_x14_x13>
     600:	000005f0          	.word	0x000005f0
     604:	00004b5f          	.word	0x00004b5f
     608:	00480813          	addi	x16,x16,4

# Testcase cp_rd (Test destination rd = x8)
  RVTEST_TESTDATA_LOAD_INT(x25, x4) # load rs1: x4 = 0x9e6a9a3b
     60c:	000ca203          	lw	x4,0(x25)
     610:	004c8c93          	addi	x25,x25,4

00000614 <I_slli_cg_cp_rd_b8>:
I_slli_cg_cp_rd_b8:
  slli x8, x4, 23 # perform operation
     614:	01721413          	slli	x8,x4,0x17
  # Check if x8 contains the expected result. x16 is the signature ptr, x14 is the link ptr, x13 is a temp reg.
  RVTEST_SIGUPD(x16, x14, x13, x8, I_slli_cg_cp_rd_b8, I_slli_cg_cp_rd_b8_str)
     618:	00082683          	lw	x13,0(x16)
     61c:	00868863          	beq	x13,x8,62c <I_slli_cg_cp_rd_b8+0x18>
     620:	71c0176f          	jal	x14,1d3c <failedtest_x14_x13>
     624:	00000614          	.word	0x00000614
     628:	00004b8d          	.word	0x00004b8d
     62c:	00480813          	addi	x16,x16,4

# Testcase cp_rd (Test destination rd = x9)
  RVTEST_TESTDATA_LOAD_INT(x25, x12) # load rs1: x12 = 0x998fcbac
     630:	000ca603          	lw	x12,0(x25)
     634:	004c8c93          	addi	x25,x25,4

00000638 <I_slli_cg_cp_rd_b9>:
I_slli_cg_cp_rd_b9:
  slli x9, x12, 23 # perform operation
     638:	01761493          	slli	x9,x12,0x17
  # Check if x9 contains the expected result. x16 is the signature ptr, x14 is the link ptr, x13 is a temp reg.
  RVTEST_SIGUPD(x16, x14, x13, x9, I_slli_cg_cp_rd_b9, I_slli_cg_cp_rd_b9_str)
     63c:	00082683          	lw	x13,0(x16)
     640:	00968863          	beq	x13,x9,650 <I_slli_cg_cp_rd_b9+0x18>
     644:	6f80176f          	jal	x14,1d3c <failedtest_x14_x13>
     648:	00000638          	.word	0x00000638
     64c:	00004bbb          	.word	0x00004bbb
     650:	00480813          	addi	x16,x16,4

# Testcase cp_rd (Test destination rd = x10)
  RVTEST_TESTDATA_LOAD_INT(x25, x21) # load rs1: x21 = 0xcb0a0061
     654:	000caa83          	lw	x21,0(x25)
     658:	004c8c93          	addi	x25,x25,4

0000065c <I_slli_cg_cp_rd_b10>:
I_slli_cg_cp_rd_b10:
  slli x10, x21, 5 # perform operation
     65c:	005a9513          	slli	x10,x21,0x5
  # Check if x10 contains the expected result. x16 is the signature ptr, x14 is the link ptr, x13 is a temp reg.
  RVTEST_SIGUPD(x16, x14, x13, x10, I_slli_cg_cp_rd_b10, I_slli_cg_cp_rd_b10_str)
     660:	00082683          	lw	x13,0(x16)
     664:	00a68863          	beq	x13,x10,674 <I_slli_cg_cp_rd_b10+0x18>
     668:	6d40176f          	jal	x14,1d3c <failedtest_x14_x13>
     66c:	0000065c          	.word	0x0000065c
     670:	00004be9          	.word	0x00004be9
     674:	00480813          	addi	x16,x16,4

# Testcase cp_rd (Test destination rd = x11)
  RVTEST_TESTDATA_LOAD_INT(x25, x3) # load rs1: x3 = 0xcd5d0947
     678:	000ca183          	lw	x3,0(x25)
     67c:	004c8c93          	addi	x25,x25,4

00000680 <I_slli_cg_cp_rd_b11>:
I_slli_cg_cp_rd_b11:
  slli x11, x3, 20 # perform operation
     680:	01419593          	slli	x11,x3,0x14
  # Check if x11 contains the expected result. x16 is the signature ptr, x14 is the link ptr, x13 is a temp reg.
  RVTEST_SIGUPD(x16, x14, x13, x11, I_slli_cg_cp_rd_b11, I_slli_cg_cp_rd_b11_str)
     684:	00082683          	lw	x13,0(x16)
     688:	00b68863          	beq	x13,x11,698 <I_slli_cg_cp_rd_b11+0x18>
     68c:	6b00176f          	jal	x14,1d3c <failedtest_x14_x13>
     690:	00000680          	.word	0x00000680
     694:	00004c18          	.word	0x00004c18
     698:	00480813          	addi	x16,x16,4

# Testcase cp_rd (Test destination rd = x12)
  RVTEST_TESTDATA_LOAD_INT(x25, x10) # load rs1: x10 = 0x09577dc4
     69c:	000ca503          	lw	x10,0(x25)
     6a0:	004c8c93          	addi	x25,x25,4

000006a4 <I_slli_cg_cp_rd_b12>:
I_slli_cg_cp_rd_b12:
  slli x12, x10, 7 # perform operation
     6a4:	00751613          	slli	x12,x10,0x7
  # Check if x12 contains the expected result. x16 is the signature ptr, x14 is the link ptr, x13 is a temp reg.
  RVTEST_SIGUPD(x16, x14, x13, x12, I_slli_cg_cp_rd_b12, I_slli_cg_cp_rd_b12_str)
     6a8:	00082683          	lw	x13,0(x16)
     6ac:	00c68863          	beq	x13,x12,6bc <I_slli_cg_cp_rd_b12+0x18>
     6b0:	68c0176f          	jal	x14,1d3c <failedtest_x14_x13>
     6b4:	000006a4          	.word	0x000006a4
     6b8:	00004c47          	.word	0x00004c47
     6bc:	00480813          	addi	x16,x16,4

  mv x7, x13 # switch temp register to avoid conflict with test
     6c0:	00068393          	addi	x7,x13,0
  mv x8, x14 # switch link pointer register to avoid conflict with test
     6c4:	00070413          	addi	x8,x14,0
# Testcase cp_rd (Test destination rd = x13)
  RVTEST_TESTDATA_LOAD_INT(x25, x23) # load rs1: x23 = 0xfd4db2ce
     6c8:	000cab83          	lw	x23,0(x25)
     6cc:	004c8c93          	addi	x25,x25,4

000006d0 <I_slli_cg_cp_rd_b13>:
I_slli_cg_cp_rd_b13:
  slli x13, x23, 12 # perform operation
     6d0:	00cb9693          	slli	x13,x23,0xc
  # Check if x13 contains the expected result. x16 is the signature ptr, x8 is the link ptr, x7 is a temp reg.
  RVTEST_SIGUPD(x16, x8, x7, x13, I_slli_cg_cp_rd_b13, I_slli_cg_cp_rd_b13_str)
     6d4:	00082383          	lw	x7,0(x16)
     6d8:	00d38863          	beq	x7,x13,6e8 <I_slli_cg_cp_rd_b13+0x18>
     6dc:	6380146f          	jal	x8,1d14 <failedtest_x8_x7>
     6e0:	000006d0          	.word	0x000006d0
     6e4:	00004c76          	.word	0x00004c76
     6e8:	00480813          	addi	x16,x16,4

# Testcase cp_rd (Test destination rd = x14)
  RVTEST_TESTDATA_LOAD_INT(x25, x13) # load rs1: x13 = 0xaf03a6d1
     6ec:	000ca683          	lw	x13,0(x25)
     6f0:	004c8c93          	addi	x25,x25,4

000006f4 <I_slli_cg_cp_rd_b14>:
I_slli_cg_cp_rd_b14:
  slli x14, x13, 9 # perform operation
     6f4:	00969713          	slli	x14,x13,0x9
  # Check if x14 contains the expected result. x16 is the signature ptr, x8 is the link ptr, x7 is a temp reg.
  RVTEST_SIGUPD(x16, x8, x7, x14, I_slli_cg_cp_rd_b14, I_slli_cg_cp_rd_b14_str)
     6f8:	00082383          	lw	x7,0(x16)
     6fc:	00e38863          	beq	x7,x14,70c <I_slli_cg_cp_rd_b14+0x18>
     700:	6140146f          	jal	x8,1d14 <failedtest_x8_x7>
     704:	000006f4          	.word	0x000006f4
     708:	00004ca5          	.word	0x00004ca5
     70c:	00480813          	addi	x16,x16,4

# Testcase cp_rd (Test destination rd = x15)
  RVTEST_TESTDATA_LOAD_INT(x25, x30) # load rs1: x30 = 0xabb18f78
     710:	000caf03          	lw	x30,0(x25)
     714:	004c8c93          	addi	x25,x25,4

00000718 <I_slli_cg_cp_rd_b15>:
I_slli_cg_cp_rd_b15:
  slli x15, x30, 3 # perform operation
     718:	003f1793          	slli	x15,x30,0x3
  # Check if x15 contains the expected result. x16 is the signature ptr, x8 is the link ptr, x7 is a temp reg.
  RVTEST_SIGUPD(x16, x8, x7, x15, I_slli_cg_cp_rd_b15, I_slli_cg_cp_rd_b15_str)
     71c:	00082383          	lw	x7,0(x16)
     720:	00f38863          	beq	x7,x15,730 <I_slli_cg_cp_rd_b15+0x18>
     724:	5f00146f          	jal	x8,1d14 <failedtest_x8_x7>
     728:	00000718          	.word	0x00000718
     72c:	00004cd4          	.word	0x00004cd4
     730:	00480813          	addi	x16,x16,4

  mv x12, x16 # switch signature pointer register to avoid conflict with test
     734:	00080613          	addi	x12,x16,0
# Testcase cp_rd (Test destination rd = x16)
  RVTEST_TESTDATA_LOAD_INT(x25, x5) # load rs1: x5 = 0xb45b96c8
     738:	000ca283          	lw	x5,0(x25)
     73c:	004c8c93          	addi	x25,x25,4

00000740 <I_slli_cg_cp_rd_b16>:
I_slli_cg_cp_rd_b16:
  slli x16, x5, 11 # perform operation
     740:	00b29813          	slli	x16,x5,0xb
  # Check if x16 contains the expected result. x12 is the signature ptr, x8 is the link ptr, x7 is a temp reg.
  RVTEST_SIGUPD(x12, x8, x7, x16, I_slli_cg_cp_rd_b16, I_slli_cg_cp_rd_b16_str)
     744:	00062383          	lw	x7,0(x12)
     748:	01038863          	beq	x7,x16,758 <I_slli_cg_cp_rd_b16+0x18>
     74c:	5c80146f          	jal	x8,1d14 <failedtest_x8_x7>
     750:	00000740          	.word	0x00000740
     754:	00004d03          	.word	0x00004d03
     758:	00460613          	addi	x12,x12,4

# Testcase cp_rd (Test destination rd = x17)
  RVTEST_TESTDATA_LOAD_INT(x25, x26) # load rs1: x26 = 0x7a0e6404
     75c:	000cad03          	lw	x26,0(x25)
     760:	004c8c93          	addi	x25,x25,4

00000764 <I_slli_cg_cp_rd_b17>:
I_slli_cg_cp_rd_b17:
  slli x17, x26, 24 # perform operation
     764:	018d1893          	slli	x17,x26,0x18
  # Check if x17 contains the expected result. x12 is the signature ptr, x8 is the link ptr, x7 is a temp reg.
  RVTEST_SIGUPD(x12, x8, x7, x17, I_slli_cg_cp_rd_b17, I_slli_cg_cp_rd_b17_str)
     768:	00062383          	lw	x7,0(x12)
     76c:	01138863          	beq	x7,x17,77c <I_slli_cg_cp_rd_b17+0x18>
     770:	5a40146f          	jal	x8,1d14 <failedtest_x8_x7>
     774:	00000764          	.word	0x00000764
     778:	00004d32          	.word	0x00004d32
     77c:	00460613          	addi	x12,x12,4

# Testcase cp_rd (Test destination rd = x18)
  RVTEST_TESTDATA_LOAD_INT(x25, x24) # load rs1: x24 = 0x7bffff94
     780:	000cac03          	lw	x24,0(x25)
     784:	004c8c93          	addi	x25,x25,4

00000788 <I_slli_cg_cp_rd_b18>:
I_slli_cg_cp_rd_b18:
  slli x18, x24, 30 # perform operation
     788:	01ec1913          	slli	x18,x24,0x1e
  # Check if x18 contains the expected result. x12 is the signature ptr, x8 is the link ptr, x7 is a temp reg.
  RVTEST_SIGUPD(x12, x8, x7, x18, I_slli_cg_cp_rd_b18, I_slli_cg_cp_rd_b18_str)
     78c:	00062383          	lw	x7,0(x12)
     790:	01238863          	beq	x7,x18,7a0 <I_slli_cg_cp_rd_b18+0x18>
     794:	5800146f          	jal	x8,1d14 <failedtest_x8_x7>
     798:	00000788          	.word	0x00000788
     79c:	00004d61          	.word	0x00004d61
     7a0:	00460613          	addi	x12,x12,4

# Testcase cp_rd (Test destination rd = x19)
  RVTEST_TESTDATA_LOAD_INT(x25, x30) # load rs1: x30 = 0xeda91224
     7a4:	000caf03          	lw	x30,0(x25)
     7a8:	004c8c93          	addi	x25,x25,4

000007ac <I_slli_cg_cp_rd_b19>:
I_slli_cg_cp_rd_b19:
  slli x19, x30, 28 # perform operation
     7ac:	01cf1993          	slli	x19,x30,0x1c
  # Check if x19 contains the expected result. x12 is the signature ptr, x8 is the link ptr, x7 is a temp reg.
  RVTEST_SIGUPD(x12, x8, x7, x19, I_slli_cg_cp_rd_b19, I_slli_cg_cp_rd_b19_str)
     7b0:	00062383          	lw	x7,0(x12)
     7b4:	01338863          	beq	x7,x19,7c4 <I_slli_cg_cp_rd_b19+0x18>
     7b8:	55c0146f          	jal	x8,1d14 <failedtest_x8_x7>
     7bc:	000007ac          	.word	0x000007ac
     7c0:	00004d90          	.word	0x00004d90
     7c4:	00460613          	addi	x12,x12,4

# Testcase cp_rd (Test destination rd = x20)
  RVTEST_TESTDATA_LOAD_INT(x25, x31) # load rs1: x31 = 0x32c799ba
     7c8:	000caf83          	lw	x31,0(x25)
     7cc:	004c8c93          	addi	x25,x25,4

000007d0 <I_slli_cg_cp_rd_b20>:
I_slli_cg_cp_rd_b20:
  slli x20, x31, 1 # perform operation
     7d0:	001f9a13          	slli	x20,x31,0x1
  # Check if x20 contains the expected result. x12 is the signature ptr, x8 is the link ptr, x7 is a temp reg.
  RVTEST_SIGUPD(x12, x8, x7, x20, I_slli_cg_cp_rd_b20, I_slli_cg_cp_rd_b20_str)
     7d4:	00062383          	lw	x7,0(x12)
     7d8:	01438863          	beq	x7,x20,7e8 <I_slli_cg_cp_rd_b20+0x18>
     7dc:	5380146f          	jal	x8,1d14 <failedtest_x8_x7>
     7e0:	000007d0          	.word	0x000007d0
     7e4:	00004dbf          	.word	0x00004dbf
     7e8:	00460613          	addi	x12,x12,4

# Testcase cp_rd (Test destination rd = x21)
  RVTEST_TESTDATA_LOAD_INT(x25, x20) # load rs1: x20 = 0x35bb5395
     7ec:	000caa03          	lw	x20,0(x25)
     7f0:	004c8c93          	addi	x25,x25,4

000007f4 <I_slli_cg_cp_rd_b21>:
I_slli_cg_cp_rd_b21:
  slli x21, x20, 5 # perform operation
     7f4:	005a1a93          	slli	x21,x20,0x5
  # Check if x21 contains the expected result. x12 is the signature ptr, x8 is the link ptr, x7 is a temp reg.
  RVTEST_SIGUPD(x12, x8, x7, x21, I_slli_cg_cp_rd_b21, I_slli_cg_cp_rd_b21_str)
     7f8:	00062383          	lw	x7,0(x12)
     7fc:	01538863          	beq	x7,x21,80c <I_slli_cg_cp_rd_b21+0x18>
     800:	5140146f          	jal	x8,1d14 <failedtest_x8_x7>
     804:	000007f4          	.word	0x000007f4
     808:	00004dee          	.word	0x00004dee
     80c:	00460613          	addi	x12,x12,4

# Testcase cp_rd (Test destination rd = x22)
  RVTEST_TESTDATA_LOAD_INT(x25, x15) # load rs1: x15 = 0xf773f7ad
     810:	000ca783          	lw	x15,0(x25)
     814:	004c8c93          	addi	x25,x25,4

00000818 <I_slli_cg_cp_rd_b22>:
I_slli_cg_cp_rd_b22:
  slli x22, x15, 22 # perform operation
     818:	01679b13          	slli	x22,x15,0x16
  # Check if x22 contains the expected result. x12 is the signature ptr, x8 is the link ptr, x7 is a temp reg.
  RVTEST_SIGUPD(x12, x8, x7, x22, I_slli_cg_cp_rd_b22, I_slli_cg_cp_rd_b22_str)
     81c:	00062383          	lw	x7,0(x12)
     820:	01638863          	beq	x7,x22,830 <I_slli_cg_cp_rd_b22+0x18>
     824:	4f00146f          	jal	x8,1d14 <failedtest_x8_x7>
     828:	00000818          	.word	0x00000818
     82c:	00004e1d          	.word	0x00004e1d
     830:	00460613          	addi	x12,x12,4

# Testcase cp_rd (Test destination rd = x23)
  RVTEST_TESTDATA_LOAD_INT(x25, x2) # load rs1: x2 = 0x14bb64f6
     834:	000ca103          	lw	x2,0(x25)
     838:	004c8c93          	addi	x25,x25,4

0000083c <I_slli_cg_cp_rd_b23>:
I_slli_cg_cp_rd_b23:
  slli x23, x2, 26 # perform operation
     83c:	01a11b93          	slli	x23,x2,0x1a
  # Check if x23 contains the expected result. x12 is the signature ptr, x8 is the link ptr, x7 is a temp reg.
  RVTEST_SIGUPD(x12, x8, x7, x23, I_slli_cg_cp_rd_b23, I_slli_cg_cp_rd_b23_str)
     840:	00062383          	lw	x7,0(x12)
     844:	01738863          	beq	x7,x23,854 <I_slli_cg_cp_rd_b23+0x18>
     848:	4cc0146f          	jal	x8,1d14 <failedtest_x8_x7>
     84c:	0000083c          	.word	0x0000083c
     850:	00004e4c          	.word	0x00004e4c
     854:	00460613          	addi	x12,x12,4

# Testcase cp_rd (Test destination rd = x24)
  RVTEST_TESTDATA_LOAD_INT(x25, x21) # load rs1: x21 = 0x1f9fbab8
     858:	000caa83          	lw	x21,0(x25)
     85c:	004c8c93          	addi	x25,x25,4

00000860 <I_slli_cg_cp_rd_b24>:
I_slli_cg_cp_rd_b24:
  slli x24, x21, 7 # perform operation
     860:	007a9c13          	slli	x24,x21,0x7
  # Check if x24 contains the expected result. x12 is the signature ptr, x8 is the link ptr, x7 is a temp reg.
  RVTEST_SIGUPD(x12, x8, x7, x24, I_slli_cg_cp_rd_b24, I_slli_cg_cp_rd_b24_str)
     864:	00062383          	lw	x7,0(x12)
     868:	01838863          	beq	x7,x24,878 <I_slli_cg_cp_rd_b24+0x18>
     86c:	4a80146f          	jal	x8,1d14 <failedtest_x8_x7>
     870:	00000860          	.word	0x00000860
     874:	00004e7b          	.word	0x00004e7b
     878:	00460613          	addi	x12,x12,4

  mv x9, x25 # switch data pointer register to avoid conflict with test
     87c:	000c8493          	addi	x9,x25,0
# Testcase cp_rd (Test destination rd = x25)
  RVTEST_TESTDATA_LOAD_INT(x9, x5) # load rs1: x5 = 0xc500a874
     880:	0004a283          	lw	x5,0(x9)
     884:	00448493          	addi	x9,x9,4

00000888 <I_slli_cg_cp_rd_b25>:
I_slli_cg_cp_rd_b25:
  slli x25, x5, 4 # perform operation
     888:	00429c93          	slli	x25,x5,0x4
  # Check if x25 contains the expected result. x12 is the signature ptr, x8 is the link ptr, x7 is a temp reg.
  RVTEST_SIGUPD(x12, x8, x7, x25, I_slli_cg_cp_rd_b25, I_slli_cg_cp_rd_b25_str)
     88c:	00062383          	lw	x7,0(x12)
     890:	01938863          	beq	x7,x25,8a0 <I_slli_cg_cp_rd_b25+0x18>
     894:	4800146f          	jal	x8,1d14 <failedtest_x8_x7>
     898:	00000888          	.word	0x00000888
     89c:	00004eaa          	.word	0x00004eaa
     8a0:	00460613          	addi	x12,x12,4

# Testcase cp_rd (Test destination rd = x26)
  RVTEST_TESTDATA_LOAD_INT(x9, x31) # load rs1: x31 = 0x5b3180e4
     8a4:	0004af83          	lw	x31,0(x9)
     8a8:	00448493          	addi	x9,x9,4

000008ac <I_slli_cg_cp_rd_b26>:
I_slli_cg_cp_rd_b26:
  slli x26, x31, 0 # perform operation
     8ac:	000f9d13          	slli	x26,x31,0x0
  # Check if x26 contains the expected result. x12 is the signature ptr, x8 is the link ptr, x7 is a temp reg.
  RVTEST_SIGUPD(x12, x8, x7, x26, I_slli_cg_cp_rd_b26, I_slli_cg_cp_rd_b26_str)
     8b0:	00062383          	lw	x7,0(x12)
     8b4:	01a38863          	beq	x7,x26,8c4 <I_slli_cg_cp_rd_b26+0x18>
     8b8:	45c0146f          	jal	x8,1d14 <failedtest_x8_x7>
     8bc:	000008ac          	.word	0x000008ac
     8c0:	00004ed9          	.word	0x00004ed9
     8c4:	00460613          	addi	x12,x12,4

# Testcase cp_rd (Test destination rd = x27)
  RVTEST_TESTDATA_LOAD_INT(x9, x0) # load rs1: x0 = 0x0b36b889
     8c8:	0004a003          	lw	x0,0(x9)
     8cc:	00448493          	addi	x9,x9,4

000008d0 <I_slli_cg_cp_rd_b27>:
I_slli_cg_cp_rd_b27:
  slli x27, x0, 17 # perform operation
     8d0:	01101d93          	slli	x27,x0,0x11
  # Check if x27 contains the expected result. x12 is the signature ptr, x8 is the link ptr, x7 is a temp reg.
  RVTEST_SIGUPD(x12, x8, x7, x27, I_slli_cg_cp_rd_b27, I_slli_cg_cp_rd_b27_str)
     8d4:	00062383          	lw	x7,0(x12)
     8d8:	01b38863          	beq	x7,x27,8e8 <I_slli_cg_cp_rd_b27+0x18>
     8dc:	4380146f          	jal	x8,1d14 <failedtest_x8_x7>
     8e0:	000008d0          	.word	0x000008d0
     8e4:	00004f08          	.word	0x00004f08
     8e8:	00460613          	addi	x12,x12,4

# Testcase cp_rd (Test destination rd = x28)
  RVTEST_TESTDATA_LOAD_INT(x9, x17) # load rs1: x17 = 0x2352c835
     8ec:	0004a883          	lw	x17,0(x9)
     8f0:	00448493          	addi	x9,x9,4

000008f4 <I_slli_cg_cp_rd_b28>:
I_slli_cg_cp_rd_b28:
  slli x28, x17, 4 # perform operation
     8f4:	00489e13          	slli	x28,x17,0x4
  # Check if x28 contains the expected result. x12 is the signature ptr, x8 is the link ptr, x7 is a temp reg.
  RVTEST_SIGUPD(x12, x8, x7, x28, I_slli_cg_cp_rd_b28, I_slli_cg_cp_rd_b28_str)
     8f8:	00062383          	lw	x7,0(x12)
     8fc:	01c38863          	beq	x7,x28,90c <I_slli_cg_cp_rd_b28+0x18>
     900:	4140146f          	jal	x8,1d14 <failedtest_x8_x7>
     904:	000008f4          	.word	0x000008f4
     908:	00004f37          	.word	0x00004f37
     90c:	00460613          	addi	x12,x12,4

# Testcase cp_rd (Test destination rd = x29)
  RVTEST_TESTDATA_LOAD_INT(x9, x16) # load rs1: x16 = 0x6c88f4c1
     910:	0004a803          	lw	x16,0(x9)
     914:	00448493          	addi	x9,x9,4

00000918 <I_slli_cg_cp_rd_b29>:
I_slli_cg_cp_rd_b29:
  slli x29, x16, 14 # perform operation
     918:	00e81e93          	slli	x29,x16,0xe
  # Check if x29 contains the expected result. x12 is the signature ptr, x8 is the link ptr, x7 is a temp reg.
  RVTEST_SIGUPD(x12, x8, x7, x29, I_slli_cg_cp_rd_b29, I_slli_cg_cp_rd_b29_str)
     91c:	00062383          	lw	x7,0(x12)
     920:	01d38863          	beq	x7,x29,930 <I_slli_cg_cp_rd_b29+0x18>
     924:	3f00146f          	jal	x8,1d14 <failedtest_x8_x7>
     928:	00000918          	.word	0x00000918
     92c:	00004f66          	.word	0x00004f66
     930:	00460613          	addi	x12,x12,4

# Testcase cp_rd (Test destination rd = x30)
  RVTEST_TESTDATA_LOAD_INT(x9, x18) # load rs1: x18 = 0x611bc7b8
     934:	0004a903          	lw	x18,0(x9)
     938:	00448493          	addi	x9,x9,4

0000093c <I_slli_cg_cp_rd_b30>:
I_slli_cg_cp_rd_b30:
  slli x30, x18, 12 # perform operation
     93c:	00c91f13          	slli	x30,x18,0xc
  # Check if x30 contains the expected result. x12 is the signature ptr, x8 is the link ptr, x7 is a temp reg.
  RVTEST_SIGUPD(x12, x8, x7, x30, I_slli_cg_cp_rd_b30, I_slli_cg_cp_rd_b30_str)
     940:	00062383          	lw	x7,0(x12)
     944:	01e38863          	beq	x7,x30,954 <I_slli_cg_cp_rd_b30+0x18>
     948:	3cc0146f          	jal	x8,1d14 <failedtest_x8_x7>
     94c:	0000093c          	.word	0x0000093c
     950:	00004f95          	.word	0x00004f95
     954:	00460613          	addi	x12,x12,4

# Testcase cp_rd (Test destination rd = x31)
  RVTEST_TESTDATA_LOAD_INT(x9, x16) # load rs1: x16 = 0xc9c62c4b
     958:	0004a803          	lw	x16,0(x9)
     95c:	00448493          	addi	x9,x9,4

00000960 <I_slli_cg_cp_rd_b31>:
I_slli_cg_cp_rd_b31:
  slli x31, x16, 30 # perform operation
     960:	01e81f93          	slli	x31,x16,0x1e
  # Check if x31 contains the expected result. x12 is the signature ptr, x8 is the link ptr, x7 is a temp reg.
  RVTEST_SIGUPD(x12, x8, x7, x31, I_slli_cg_cp_rd_b31, I_slli_cg_cp_rd_b31_str)
     964:	00062383          	lw	x7,0(x12)
     968:	01f38863          	beq	x7,x31,978 <I_slli_cg_cp_rd_b31+0x18>
     96c:	3a80146f          	jal	x8,1d14 <failedtest_x8_x7>
     970:	00000960          	.word	0x00000960
     974:	00004fc4          	.word	0x00004fc4
     978:	00460613          	addi	x12,x12,4
/////////////////////////////////
// cp_rs1_edges
/////////////////////////////////

# Testcase cp_rs1_edges (Test source rs1 value = 0x00000000)
  RVTEST_TESTDATA_LOAD_INT(x9, x14) # load rs1: x14 = 0x00000000
     97c:	0004a703          	lw	x14,0(x9)
     980:	00448493          	addi	x9,x9,4

00000984 <I_slli_cg_cp_rs1_edges_0x0>:
I_slli_cg_cp_rs1_edges_0x0:
  slli x26, x14, 25 # perform operation
     984:	01971d13          	slli	x26,x14,0x19
  # Check if x26 contains the expected result. x12 is the signature ptr, x8 is the link ptr, x7 is a temp reg.
  RVTEST_SIGUPD(x12, x8, x7, x26, I_slli_cg_cp_rs1_edges_0x0, I_slli_cg_cp_rs1_edges_0x0_str)
     988:	00062383          	lw	x7,0(x12)
     98c:	01a38863          	beq	x7,x26,99c <I_slli_cg_cp_rs1_edges_0x0+0x18>
     990:	3840146f          	jal	x8,1d14 <failedtest_x8_x7>
     994:	00000984          	.word	0x00000984
     998:	00004ff3          	.word	0x00004ff3
     99c:	00460613          	addi	x12,x12,4

# Testcase cp_rs1_edges (Test source rs1 value = 0x00000001)
  RVTEST_TESTDATA_LOAD_INT(x9, x4) # load rs1: x4 = 0x00000001
     9a0:	0004a203          	lw	x4,0(x9)
     9a4:	00448493          	addi	x9,x9,4

000009a8 <I_slli_cg_cp_rs1_edges_0x1>:
I_slli_cg_cp_rs1_edges_0x1:
  slli x25, x4, 1 # perform operation
     9a8:	00121c93          	slli	x25,x4,0x1
  # Check if x25 contains the expected result. x12 is the signature ptr, x8 is the link ptr, x7 is a temp reg.
  RVTEST_SIGUPD(x12, x8, x7, x25, I_slli_cg_cp_rs1_edges_0x1, I_slli_cg_cp_rs1_edges_0x1_str)
     9ac:	00062383          	lw	x7,0(x12)
     9b0:	01938863          	beq	x7,x25,9c0 <I_slli_cg_cp_rs1_edges_0x1+0x18>
     9b4:	3600146f          	jal	x8,1d14 <failedtest_x8_x7>
     9b8:	000009a8          	.word	0x000009a8
     9bc:	00005029          	.word	0x00005029
     9c0:	00460613          	addi	x12,x12,4

# Testcase cp_rs1_edges (Test source rs1 value = 0x00000002)
  RVTEST_TESTDATA_LOAD_INT(x9, x27) # load rs1: x27 = 0x00000002
     9c4:	0004ad83          	lw	x27,0(x9)
     9c8:	00448493          	addi	x9,x9,4

000009cc <I_slli_cg_cp_rs1_edges_0x2>:
I_slli_cg_cp_rs1_edges_0x2:
  slli x31, x27, 12 # perform operation
     9cc:	00cd9f93          	slli	x31,x27,0xc
  # Check if x31 contains the expected result. x12 is the signature ptr, x8 is the link ptr, x7 is a temp reg.
  RVTEST_SIGUPD(x12, x8, x7, x31, I_slli_cg_cp_rs1_edges_0x2, I_slli_cg_cp_rs1_edges_0x2_str)
     9d0:	00062383          	lw	x7,0(x12)
     9d4:	01f38863          	beq	x7,x31,9e4 <I_slli_cg_cp_rs1_edges_0x2+0x18>
     9d8:	33c0146f          	jal	x8,1d14 <failedtest_x8_x7>
     9dc:	000009cc          	.word	0x000009cc
     9e0:	0000505f          	.word	0x0000505f
     9e4:	00460613          	addi	x12,x12,4

# Testcase cp_rs1_edges (Test source rs1 value = 0x80000000)
  RVTEST_TESTDATA_LOAD_INT(x9, x23) # load rs1: x23 = 0x80000000
     9e8:	0004ab83          	lw	x23,0(x9)
     9ec:	00448493          	addi	x9,x9,4

000009f0 <I_slli_cg_cp_rs1_edges_0x80000000>:
I_slli_cg_cp_rs1_edges_0x80000000:
  slli x4, x23, 20 # perform operation
     9f0:	014b9213          	slli	x4,x23,0x14
  # Check if x4 contains the expected result. x12 is the signature ptr, x8 is the link ptr, x7 is a temp reg.
  RVTEST_SIGUPD(x12, x8, x7, x4, I_slli_cg_cp_rs1_edges_0x80000000, I_slli_cg_cp_rs1_edges_0x80000000_str)
     9f4:	00062383          	lw	x7,0(x12)
     9f8:	00438863          	beq	x7,x4,a08 <I_slli_cg_cp_rs1_edges_0x80000000+0x18>
     9fc:	3180146f          	jal	x8,1d14 <failedtest_x8_x7>
     a00:	000009f0          	.word	0x000009f0
     a04:	00005095          	.word	0x00005095
     a08:	00460613          	addi	x12,x12,4

# Testcase cp_rs1_edges (Test source rs1 value = 0x80000001)
  RVTEST_TESTDATA_LOAD_INT(x9, x25) # load rs1: x25 = 0x80000001
     a0c:	0004ac83          	lw	x25,0(x9)
     a10:	00448493          	addi	x9,x9,4

00000a14 <I_slli_cg_cp_rs1_edges_0x80000001>:
I_slli_cg_cp_rs1_edges_0x80000001:
  slli x14, x25, 24 # perform operation
     a14:	018c9713          	slli	x14,x25,0x18
  # Check if x14 contains the expected result. x12 is the signature ptr, x8 is the link ptr, x7 is a temp reg.
  RVTEST_SIGUPD(x12, x8, x7, x14, I_slli_cg_cp_rs1_edges_0x80000001, I_slli_cg_cp_rs1_edges_0x80000001_str)
     a18:	00062383          	lw	x7,0(x12)
     a1c:	00e38863          	beq	x7,x14,a2c <I_slli_cg_cp_rs1_edges_0x80000001+0x18>
     a20:	2f40146f          	jal	x8,1d14 <failedtest_x8_x7>
     a24:	00000a14          	.word	0x00000a14
     a28:	000050d2          	.word	0x000050d2
     a2c:	00460613          	addi	x12,x12,4

# Testcase cp_rs1_edges (Test source rs1 value = 0x7fffffff)
  RVTEST_TESTDATA_LOAD_INT(x9, x24) # load rs1: x24 = 0x7fffffff
     a30:	0004ac03          	lw	x24,0(x9)
     a34:	00448493          	addi	x9,x9,4

00000a38 <I_slli_cg_cp_rs1_edges_0x7fffffff>:
I_slli_cg_cp_rs1_edges_0x7fffffff:
  slli x5, x24, 31 # perform operation
     a38:	01fc1293          	slli	x5,x24,0x1f
  # Check if x5 contains the expected result. x12 is the signature ptr, x8 is the link ptr, x7 is a temp reg.
  RVTEST_SIGUPD(x12, x8, x7, x5, I_slli_cg_cp_rs1_edges_0x7fffffff, I_slli_cg_cp_rs1_edges_0x7fffffff_str)
     a3c:	00062383          	lw	x7,0(x12)
     a40:	00538863          	beq	x7,x5,a50 <I_slli_cg_cp_rs1_edges_0x7fffffff+0x18>
     a44:	2d00146f          	jal	x8,1d14 <failedtest_x8_x7>
     a48:	00000a38          	.word	0x00000a38
     a4c:	0000510f          	.word	0x0000510f
     a50:	00460613          	addi	x12,x12,4

# Testcase cp_rs1_edges (Test source rs1 value = 0x7ffffffe)
  RVTEST_TESTDATA_LOAD_INT(x9, x30) # load rs1: x30 = 0x7ffffffe
     a54:	0004af03          	lw	x30,0(x9)
     a58:	00448493          	addi	x9,x9,4

00000a5c <I_slli_cg_cp_rs1_edges_0x7ffffffe>:
I_slli_cg_cp_rs1_edges_0x7ffffffe:
  slli x17, x30, 28 # perform operation
     a5c:	01cf1893          	slli	x17,x30,0x1c
  # Check if x17 contains the expected result. x12 is the signature ptr, x8 is the link ptr, x7 is a temp reg.
  RVTEST_SIGUPD(x12, x8, x7, x17, I_slli_cg_cp_rs1_edges_0x7ffffffe, I_slli_cg_cp_rs1_edges_0x7ffffffe_str)
     a60:	00062383          	lw	x7,0(x12)
     a64:	01138863          	beq	x7,x17,a74 <I_slli_cg_cp_rs1_edges_0x7ffffffe+0x18>
     a68:	2ac0146f          	jal	x8,1d14 <failedtest_x8_x7>
     a6c:	00000a5c          	.word	0x00000a5c
     a70:	0000514c          	.word	0x0000514c
     a74:	00460613          	addi	x12,x12,4

# Testcase cp_rs1_edges (Test source rs1 value = 0xffffffff)
  RVTEST_TESTDATA_LOAD_INT(x9, x24) # load rs1: x24 = 0xffffffff
     a78:	0004ac03          	lw	x24,0(x9)
     a7c:	00448493          	addi	x9,x9,4

00000a80 <I_slli_cg_cp_rs1_edges_0xffffffff>:
I_slli_cg_cp_rs1_edges_0xffffffff:
  slli x15, x24, 3 # perform operation
     a80:	003c1793          	slli	x15,x24,0x3
  # Check if x15 contains the expected result. x12 is the signature ptr, x8 is the link ptr, x7 is a temp reg.
  RVTEST_SIGUPD(x12, x8, x7, x15, I_slli_cg_cp_rs1_edges_0xffffffff, I_slli_cg_cp_rs1_edges_0xffffffff_str)
     a84:	00062383          	lw	x7,0(x12)
     a88:	00f38863          	beq	x7,x15,a98 <I_slli_cg_cp_rs1_edges_0xffffffff+0x18>
     a8c:	2880146f          	jal	x8,1d14 <failedtest_x8_x7>
     a90:	00000a80          	.word	0x00000a80
     a94:	00005189          	.word	0x00005189
     a98:	00460613          	addi	x12,x12,4

# Testcase cp_rs1_edges (Test source rs1 value = 0xfffffffe)
  RVTEST_TESTDATA_LOAD_INT(x9, x26) # load rs1: x26 = 0xfffffffe
     a9c:	0004ad03          	lw	x26,0(x9)
     aa0:	00448493          	addi	x9,x9,4

00000aa4 <I_slli_cg_cp_rs1_edges_0xfffffffe>:
I_slli_cg_cp_rs1_edges_0xfffffffe:
  slli x1, x26, 0 # perform operation
     aa4:	000d1093          	slli	x1,x26,0x0
  # Check if x1 contains the expected result. x12 is the signature ptr, x8 is the link ptr, x7 is a temp reg.
  RVTEST_SIGUPD(x12, x8, x7, x1, I_slli_cg_cp_rs1_edges_0xfffffffe, I_slli_cg_cp_rs1_edges_0xfffffffe_str)
     aa8:	00062383          	lw	x7,0(x12)
     aac:	00138863          	beq	x7,x1,abc <I_slli_cg_cp_rs1_edges_0xfffffffe+0x18>
     ab0:	2640146f          	jal	x8,1d14 <failedtest_x8_x7>
     ab4:	00000aa4          	.word	0x00000aa4
     ab8:	000051c6          	.word	0x000051c6
     abc:	00460613          	addi	x12,x12,4

# Testcase cp_rs1_edges (Test source rs1 value = 0x5bbc8872)
  RVTEST_TESTDATA_LOAD_INT(x9, x17) # load rs1: x17 = 0x5bbc8872
     ac0:	0004a883          	lw	x17,0(x9)
     ac4:	00448493          	addi	x9,x9,4

00000ac8 <I_slli_cg_cp_rs1_edges_0x5bbc8872>:
I_slli_cg_cp_rs1_edges_0x5bbc8872:
  slli x16, x17, 16 # perform operation
     ac8:	01089813          	slli	x16,x17,0x10
  # Check if x16 contains the expected result. x12 is the signature ptr, x8 is the link ptr, x7 is a temp reg.
  RVTEST_SIGUPD(x12, x8, x7, x16, I_slli_cg_cp_rs1_edges_0x5bbc8872, I_slli_cg_cp_rs1_edges_0x5bbc8872_str)
     acc:	00062383          	lw	x7,0(x12)
     ad0:	01038863          	beq	x7,x16,ae0 <I_slli_cg_cp_rs1_edges_0x5bbc8872+0x18>
     ad4:	2400146f          	jal	x8,1d14 <failedtest_x8_x7>
     ad8:	00000ac8          	.word	0x00000ac8
     adc:	00005203          	.word	0x00005203
     ae0:	00460613          	addi	x12,x12,4

# Testcase cp_rs1_edges (Test source rs1 value = 0xaaaaaaaa)
  RVTEST_TESTDATA_LOAD_INT(x9, x10) # load rs1: x10 = 0xaaaaaaaa
     ae4:	0004a503          	lw	x10,0(x9)
     ae8:	00448493          	addi	x9,x9,4

00000aec <I_slli_cg_cp_rs1_edges_0xaaaaaaaa>:
I_slli_cg_cp_rs1_edges_0xaaaaaaaa:
  slli x6, x10, 8 # perform operation
     aec:	00851313          	slli	x6,x10,0x8
  # Check if x6 contains the expected result. x12 is the signature ptr, x8 is the link ptr, x7 is a temp reg.
  RVTEST_SIGUPD(x12, x8, x7, x6, I_slli_cg_cp_rs1_edges_0xaaaaaaaa, I_slli_cg_cp_rs1_edges_0xaaaaaaaa_str)
     af0:	00062383          	lw	x7,0(x12)
     af4:	00638863          	beq	x7,x6,b04 <I_slli_cg_cp_rs1_edges_0xaaaaaaaa+0x18>
     af8:	21c0146f          	jal	x8,1d14 <failedtest_x8_x7>
     afc:	00000aec          	.word	0x00000aec
     b00:	00005240          	.word	0x00005240
     b04:	00460613          	addi	x12,x12,4

# Testcase cp_rs1_edges (Test source rs1 value = 0x55555555)
  RVTEST_TESTDATA_LOAD_INT(x9, x18) # load rs1: x18 = 0x55555555
     b08:	0004a903          	lw	x18,0(x9)
     b0c:	00448493          	addi	x9,x9,4

00000b10 <I_slli_cg_cp_rs1_edges_0x55555555>:
I_slli_cg_cp_rs1_edges_0x55555555:
  slli x26, x18, 30 # perform operation
     b10:	01e91d13          	slli	x26,x18,0x1e
  # Check if x26 contains the expected result. x12 is the signature ptr, x8 is the link ptr, x7 is a temp reg.
  RVTEST_SIGUPD(x12, x8, x7, x26, I_slli_cg_cp_rs1_edges_0x55555555, I_slli_cg_cp_rs1_edges_0x55555555_str)
     b14:	00062383          	lw	x7,0(x12)
     b18:	01a38863          	beq	x7,x26,b28 <I_slli_cg_cp_rs1_edges_0x55555555+0x18>
     b1c:	1f80146f          	jal	x8,1d14 <failedtest_x8_x7>
     b20:	00000b10          	.word	0x00000b10
     b24:	0000527d          	.word	0x0000527d
     b28:	00460613          	addi	x12,x12,4
/////////////////////////////////
// cr_rs1_imm_edges_uimm
/////////////////////////////////

# Testcase cr_rs1_imm_edges_uimm (rs1 = 0x00000000, imm = 0)
  RVTEST_TESTDATA_LOAD_INT(x9, x5) # load rs1: x5 = 0x00000000
     b2c:	0004a283          	lw	x5,0(x9)
     b30:	00448493          	addi	x9,x9,4

00000b34 <I_slli_cg_cr_rs1_imm_edges_uimm_rs1val_0x0_immval_0x0>:
I_slli_cg_cr_rs1_imm_edges_uimm_rs1val_0x0_immval_0x0:
  slli x18, x5, 0 # perform operation
     b34:	00029913          	slli	x18,x5,0x0
  # Check if x18 contains the expected result. x12 is the signature ptr, x8 is the link ptr, x7 is a temp reg.
  RVTEST_SIGUPD(x12, x8, x7, x18, I_slli_cg_cr_rs1_imm_edges_uimm_rs1val_0x0_immval_0x0, I_slli_cg_cr_rs1_imm_edges_uimm_rs1val_0x0_immval_0x0_str)
     b38:	00062383          	lw	x7,0(x12)
     b3c:	01238863          	beq	x7,x18,b4c <I_slli_cg_cr_rs1_imm_edges_uimm_rs1val_0x0_immval_0x0+0x18>
     b40:	1d40146f          	jal	x8,1d14 <failedtest_x8_x7>
     b44:	00000b34          	.word	0x00000b34
     b48:	000052ba          	.word	0x000052ba
     b4c:	00460613          	addi	x12,x12,4

# Testcase cr_rs1_imm_edges_uimm (rs1 = 0x00000000, imm = 1)
  RVTEST_TESTDATA_LOAD_INT(x9, x18) # load rs1: x18 = 0x00000000
     b50:	0004a903          	lw	x18,0(x9)
     b54:	00448493          	addi	x9,x9,4

00000b58 <I_slli_cg_cr_rs1_imm_edges_uimm_rs1val_0x0_immval_0x1>:
I_slli_cg_cr_rs1_imm_edges_uimm_rs1val_0x0_immval_0x1:
  slli x22, x18, 1 # perform operation
     b58:	00191b13          	slli	x22,x18,0x1
  # Check if x22 contains the expected result. x12 is the signature ptr, x8 is the link ptr, x7 is a temp reg.
  RVTEST_SIGUPD(x12, x8, x7, x22, I_slli_cg_cr_rs1_imm_edges_uimm_rs1val_0x0_immval_0x1, I_slli_cg_cr_rs1_imm_edges_uimm_rs1val_0x0_immval_0x1_str)
     b5c:	00062383          	lw	x7,0(x12)
     b60:	01638863          	beq	x7,x22,b70 <I_slli_cg_cr_rs1_imm_edges_uimm_rs1val_0x0_immval_0x1+0x18>
     b64:	1b00146f          	jal	x8,1d14 <failedtest_x8_x7>
     b68:	00000b58          	.word	0x00000b58
     b6c:	0000530c          	.word	0x0000530c
     b70:	00460613          	addi	x12,x12,4

# Testcase cr_rs1_imm_edges_uimm (rs1 = 0x00000000, imm = 19)
  RVTEST_TESTDATA_LOAD_INT(x9, x24) # load rs1: x24 = 0x00000000
     b74:	0004ac03          	lw	x24,0(x9)
     b78:	00448493          	addi	x9,x9,4

00000b7c <I_slli_cg_cr_rs1_imm_edges_uimm_rs1val_0x0_immval_0x13>:
I_slli_cg_cr_rs1_imm_edges_uimm_rs1val_0x0_immval_0x13:
  slli x26, x24, 19 # perform operation
     b7c:	013c1d13          	slli	x26,x24,0x13
  # Check if x26 contains the expected result. x12 is the signature ptr, x8 is the link ptr, x7 is a temp reg.
  RVTEST_SIGUPD(x12, x8, x7, x26, I_slli_cg_cr_rs1_imm_edges_uimm_rs1val_0x0_immval_0x13, I_slli_cg_cr_rs1_imm_edges_uimm_rs1val_0x0_immval_0x13_str)
     b80:	00062383          	lw	x7,0(x12)
     b84:	01a38863          	beq	x7,x26,b94 <I_slli_cg_cr_rs1_imm_edges_uimm_rs1val_0x0_immval_0x13+0x18>
     b88:	18c0146f          	jal	x8,1d14 <failedtest_x8_x7>
     b8c:	00000b7c          	.word	0x00000b7c
     b90:	0000535e          	.word	0x0000535e
     b94:	00460613          	addi	x12,x12,4

# Testcase cr_rs1_imm_edges_uimm (rs1 = 0x00000000, imm = 30)
  RVTEST_TESTDATA_LOAD_INT(x9, x22) # load rs1: x22 = 0x00000000
     b98:	0004ab03          	lw	x22,0(x9)
     b9c:	00448493          	addi	x9,x9,4

00000ba0 <I_slli_cg_cr_rs1_imm_edges_uimm_rs1val_0x0_immval_0x1e>:
I_slli_cg_cr_rs1_imm_edges_uimm_rs1val_0x0_immval_0x1e:
  slli x28, x22, 30 # perform operation
     ba0:	01eb1e13          	slli	x28,x22,0x1e
  # Check if x28 contains the expected result. x12 is the signature ptr, x8 is the link ptr, x7 is a temp reg.
  RVTEST_SIGUPD(x12, x8, x7, x28, I_slli_cg_cr_rs1_imm_edges_uimm_rs1val_0x0_immval_0x1e, I_slli_cg_cr_rs1_imm_edges_uimm_rs1val_0x0_immval_0x1e_str)
     ba4:	00062383          	lw	x7,0(x12)
     ba8:	01c38863          	beq	x7,x28,bb8 <I_slli_cg_cr_rs1_imm_edges_uimm_rs1val_0x0_immval_0x1e+0x18>
     bac:	1680146f          	jal	x8,1d14 <failedtest_x8_x7>
     bb0:	00000ba0          	.word	0x00000ba0
     bb4:	000053b1          	.word	0x000053b1
     bb8:	00460613          	addi	x12,x12,4

# Testcase cr_rs1_imm_edges_uimm (rs1 = 0x00000000, imm = 31)
  RVTEST_TESTDATA_LOAD_INT(x9, x20) # load rs1: x20 = 0x00000000
     bbc:	0004aa03          	lw	x20,0(x9)
     bc0:	00448493          	addi	x9,x9,4

00000bc4 <I_slli_cg_cr_rs1_imm_edges_uimm_rs1val_0x0_immval_0x1f>:
I_slli_cg_cr_rs1_imm_edges_uimm_rs1val_0x0_immval_0x1f:
  slli x25, x20, 31 # perform operation
     bc4:	01fa1c93          	slli	x25,x20,0x1f
  # Check if x25 contains the expected result. x12 is the signature ptr, x8 is the link ptr, x7 is a temp reg.
  RVTEST_SIGUPD(x12, x8, x7, x25, I_slli_cg_cr_rs1_imm_edges_uimm_rs1val_0x0_immval_0x1f, I_slli_cg_cr_rs1_imm_edges_uimm_rs1val_0x0_immval_0x1f_str)
     bc8:	00062383          	lw	x7,0(x12)
     bcc:	01938863          	beq	x7,x25,bdc <I_slli_cg_cr_rs1_imm_edges_uimm_rs1val_0x0_immval_0x1f+0x18>
     bd0:	1440146f          	jal	x8,1d14 <failedtest_x8_x7>
     bd4:	00000bc4          	.word	0x00000bc4
     bd8:	00005404          	.word	0x00005404
     bdc:	00460613          	addi	x12,x12,4

# Testcase cr_rs1_imm_edges_uimm (rs1 = 0x00000001, imm = 0)
  RVTEST_TESTDATA_LOAD_INT(x9, x25) # load rs1: x25 = 0x00000001
     be0:	0004ac83          	lw	x25,0(x9)
     be4:	00448493          	addi	x9,x9,4

00000be8 <I_slli_cg_cr_rs1_imm_edges_uimm_rs1val_0x1_immval_0x0>:
I_slli_cg_cr_rs1_imm_edges_uimm_rs1val_0x1_immval_0x0:
  slli x19, x25, 0 # perform operation
     be8:	000c9993          	slli	x19,x25,0x0
  # Check if x19 contains the expected result. x12 is the signature ptr, x8 is the link ptr, x7 is a temp reg.
  RVTEST_SIGUPD(x12, x8, x7, x19, I_slli_cg_cr_rs1_imm_edges_uimm_rs1val_0x1_immval_0x0, I_slli_cg_cr_rs1_imm_edges_uimm_rs1val_0x1_immval_0x0_str)
     bec:	00062383          	lw	x7,0(x12)
     bf0:	01338863          	beq	x7,x19,c00 <I_slli_cg_cr_rs1_imm_edges_uimm_rs1val_0x1_immval_0x0+0x18>
     bf4:	1200146f          	jal	x8,1d14 <failedtest_x8_x7>
     bf8:	00000be8          	.word	0x00000be8
     bfc:	00005457          	.word	0x00005457
     c00:	00460613          	addi	x12,x12,4

# Testcase cr_rs1_imm_edges_uimm (rs1 = 0x00000001, imm = 1)
  RVTEST_TESTDATA_LOAD_INT(x9, x14) # load rs1: x14 = 0x00000001
     c04:	0004a703          	lw	x14,0(x9)
     c08:	00448493          	addi	x9,x9,4

00000c0c <I_slli_cg_cr_rs1_imm_edges_uimm_rs1val_0x1_immval_0x1>:
I_slli_cg_cr_rs1_imm_edges_uimm_rs1val_0x1_immval_0x1:
  slli x10, x14, 1 # perform operation
     c0c:	00171513          	slli	x10,x14,0x1
  # Check if x10 contains the expected result. x12 is the signature ptr, x8 is the link ptr, x7 is a temp reg.
  RVTEST_SIGUPD(x12, x8, x7, x10, I_slli_cg_cr_rs1_imm_edges_uimm_rs1val_0x1_immval_0x1, I_slli_cg_cr_rs1_imm_edges_uimm_rs1val_0x1_immval_0x1_str)
     c10:	00062383          	lw	x7,0(x12)
     c14:	00a38863          	beq	x7,x10,c24 <I_slli_cg_cr_rs1_imm_edges_uimm_rs1val_0x1_immval_0x1+0x18>
     c18:	0fc0146f          	jal	x8,1d14 <failedtest_x8_x7>
     c1c:	00000c0c          	.word	0x00000c0c
     c20:	000054a9          	.word	0x000054a9
     c24:	00460613          	addi	x12,x12,4

# Testcase cr_rs1_imm_edges_uimm (rs1 = 0x00000001, imm = 19)
  RVTEST_TESTDATA_LOAD_INT(x9, x17) # load rs1: x17 = 0x00000001
     c28:	0004a883          	lw	x17,0(x9)
     c2c:	00448493          	addi	x9,x9,4

00000c30 <I_slli_cg_cr_rs1_imm_edges_uimm_rs1val_0x1_immval_0x13>:
I_slli_cg_cr_rs1_imm_edges_uimm_rs1val_0x1_immval_0x13:
  slli x15, x17, 19 # perform operation
     c30:	01389793          	slli	x15,x17,0x13
  # Check if x15 contains the expected result. x12 is the signature ptr, x8 is the link ptr, x7 is a temp reg.
  RVTEST_SIGUPD(x12, x8, x7, x15, I_slli_cg_cr_rs1_imm_edges_uimm_rs1val_0x1_immval_0x13, I_slli_cg_cr_rs1_imm_edges_uimm_rs1val_0x1_immval_0x13_str)
     c34:	00062383          	lw	x7,0(x12)
     c38:	00f38863          	beq	x7,x15,c48 <I_slli_cg_cr_rs1_imm_edges_uimm_rs1val_0x1_immval_0x13+0x18>
     c3c:	0d80146f          	jal	x8,1d14 <failedtest_x8_x7>
     c40:	00000c30          	.word	0x00000c30
     c44:	000054fb          	.word	0x000054fb
     c48:	00460613          	addi	x12,x12,4

# Testcase cr_rs1_imm_edges_uimm (rs1 = 0x00000001, imm = 30)
  RVTEST_TESTDATA_LOAD_INT(x9, x31) # load rs1: x31 = 0x00000001
     c4c:	0004af83          	lw	x31,0(x9)
     c50:	00448493          	addi	x9,x9,4

00000c54 <I_slli_cg_cr_rs1_imm_edges_uimm_rs1val_0x1_immval_0x1e>:
I_slli_cg_cr_rs1_imm_edges_uimm_rs1val_0x1_immval_0x1e:
  slli x18, x31, 30 # perform operation
     c54:	01ef9913          	slli	x18,x31,0x1e
  # Check if x18 contains the expected result. x12 is the signature ptr, x8 is the link ptr, x7 is a temp reg.
  RVTEST_SIGUPD(x12, x8, x7, x18, I_slli_cg_cr_rs1_imm_edges_uimm_rs1val_0x1_immval_0x1e, I_slli_cg_cr_rs1_imm_edges_uimm_rs1val_0x1_immval_0x1e_str)
     c58:	00062383          	lw	x7,0(x12)
     c5c:	01238863          	beq	x7,x18,c6c <I_slli_cg_cr_rs1_imm_edges_uimm_rs1val_0x1_immval_0x1e+0x18>
     c60:	0b40146f          	jal	x8,1d14 <failedtest_x8_x7>
     c64:	00000c54          	.word	0x00000c54
     c68:	0000554e          	.word	0x0000554e
     c6c:	00460613          	addi	x12,x12,4

# Testcase cr_rs1_imm_edges_uimm (rs1 = 0x00000001, imm = 31)
  RVTEST_TESTDATA_LOAD_INT(x9, x26) # load rs1: x26 = 0x00000001
     c70:	0004ad03          	lw	x26,0(x9)
     c74:	00448493          	addi	x9,x9,4

00000c78 <I_slli_cg_cr_rs1_imm_edges_uimm_rs1val_0x1_immval_0x1f>:
I_slli_cg_cr_rs1_imm_edges_uimm_rs1val_0x1_immval_0x1f:
  slli x11, x26, 31 # perform operation
     c78:	01fd1593          	slli	x11,x26,0x1f
  # Check if x11 contains the expected result. x12 is the signature ptr, x8 is the link ptr, x7 is a temp reg.
  RVTEST_SIGUPD(x12, x8, x7, x11, I_slli_cg_cr_rs1_imm_edges_uimm_rs1val_0x1_immval_0x1f, I_slli_cg_cr_rs1_imm_edges_uimm_rs1val_0x1_immval_0x1f_str)
     c7c:	00062383          	lw	x7,0(x12)
     c80:	00b38863          	beq	x7,x11,c90 <I_slli_cg_cr_rs1_imm_edges_uimm_rs1val_0x1_immval_0x1f+0x18>
     c84:	0900146f          	jal	x8,1d14 <failedtest_x8_x7>
     c88:	00000c78          	.word	0x00000c78
     c8c:	000055a1          	.word	0x000055a1
     c90:	00460613          	addi	x12,x12,4

# Testcase cr_rs1_imm_edges_uimm (rs1 = 0x00000002, imm = 0)
  RVTEST_TESTDATA_LOAD_INT(x9, x21) # load rs1: x21 = 0x00000002
     c94:	0004aa83          	lw	x21,0(x9)
     c98:	00448493          	addi	x9,x9,4

00000c9c <I_slli_cg_cr_rs1_imm_edges_uimm_rs1val_0x2_immval_0x0>:
I_slli_cg_cr_rs1_imm_edges_uimm_rs1val_0x2_immval_0x0:
  slli x1, x21, 0 # perform operation
     c9c:	000a9093          	slli	x1,x21,0x0
  # Check if x1 contains the expected result. x12 is the signature ptr, x8 is the link ptr, x7 is a temp reg.
  RVTEST_SIGUPD(x12, x8, x7, x1, I_slli_cg_cr_rs1_imm_edges_uimm_rs1val_0x2_immval_0x0, I_slli_cg_cr_rs1_imm_edges_uimm_rs1val_0x2_immval_0x0_str)
     ca0:	00062383          	lw	x7,0(x12)
     ca4:	00138863          	beq	x7,x1,cb4 <I_slli_cg_cr_rs1_imm_edges_uimm_rs1val_0x2_immval_0x0+0x18>
     ca8:	06c0146f          	jal	x8,1d14 <failedtest_x8_x7>
     cac:	00000c9c          	.word	0x00000c9c
     cb0:	000055f4          	.word	0x000055f4
     cb4:	00460613          	addi	x12,x12,4

# Testcase cr_rs1_imm_edges_uimm (rs1 = 0x00000002, imm = 1)
  RVTEST_TESTDATA_LOAD_INT(x9, x14) # load rs1: x14 = 0x00000002
     cb8:	0004a703          	lw	x14,0(x9)
     cbc:	00448493          	addi	x9,x9,4

00000cc0 <I_slli_cg_cr_rs1_imm_edges_uimm_rs1val_0x2_immval_0x1>:
I_slli_cg_cr_rs1_imm_edges_uimm_rs1val_0x2_immval_0x1:
  slli x13, x14, 1 # perform operation
     cc0:	00171693          	slli	x13,x14,0x1
  # Check if x13 contains the expected result. x12 is the signature ptr, x8 is the link ptr, x7 is a temp reg.
  RVTEST_SIGUPD(x12, x8, x7, x13, I_slli_cg_cr_rs1_imm_edges_uimm_rs1val_0x2_immval_0x1, I_slli_cg_cr_rs1_imm_edges_uimm_rs1val_0x2_immval_0x1_str)
     cc4:	00062383          	lw	x7,0(x12)
     cc8:	00d38863          	beq	x7,x13,cd8 <I_slli_cg_cr_rs1_imm_edges_uimm_rs1val_0x2_immval_0x1+0x18>
     ccc:	0480146f          	jal	x8,1d14 <failedtest_x8_x7>
     cd0:	00000cc0          	.word	0x00000cc0
     cd4:	00005646          	.word	0x00005646
     cd8:	00460613          	addi	x12,x12,4

# Testcase cr_rs1_imm_edges_uimm (rs1 = 0x00000002, imm = 19)
  RVTEST_TESTDATA_LOAD_INT(x9, x14) # load rs1: x14 = 0x00000002
     cdc:	0004a703          	lw	x14,0(x9)
     ce0:	00448493          	addi	x9,x9,4

00000ce4 <I_slli_cg_cr_rs1_imm_edges_uimm_rs1val_0x2_immval_0x13>:
I_slli_cg_cr_rs1_imm_edges_uimm_rs1val_0x2_immval_0x13:
  slli x13, x14, 19 # perform operation
     ce4:	01371693          	slli	x13,x14,0x13
  # Check if x13 contains the expected result. x12 is the signature ptr, x8 is the link ptr, x7 is a temp reg.
  RVTEST_SIGUPD(x12, x8, x7, x13, I_slli_cg_cr_rs1_imm_edges_uimm_rs1val_0x2_immval_0x13, I_slli_cg_cr_rs1_imm_edges_uimm_rs1val_0x2_immval_0x13_str)
     ce8:	00062383          	lw	x7,0(x12)
     cec:	00d38863          	beq	x7,x13,cfc <I_slli_cg_cr_rs1_imm_edges_uimm_rs1val_0x2_immval_0x13+0x18>
     cf0:	0240146f          	jal	x8,1d14 <failedtest_x8_x7>
     cf4:	00000ce4          	.word	0x00000ce4
     cf8:	00005698          	.word	0x00005698
     cfc:	00460613          	addi	x12,x12,4

# Testcase cr_rs1_imm_edges_uimm (rs1 = 0x00000002, imm = 30)
  RVTEST_TESTDATA_LOAD_INT(x9, x26) # load rs1: x26 = 0x00000002
     d00:	0004ad03          	lw	x26,0(x9)
     d04:	00448493          	addi	x9,x9,4

00000d08 <I_slli_cg_cr_rs1_imm_edges_uimm_rs1val_0x2_immval_0x1e>:
I_slli_cg_cr_rs1_imm_edges_uimm_rs1val_0x2_immval_0x1e:
  slli x29, x26, 30 # perform operation
     d08:	01ed1e93          	slli	x29,x26,0x1e
  # Check if x29 contains the expected result. x12 is the signature ptr, x8 is the link ptr, x7 is a temp reg.
  RVTEST_SIGUPD(x12, x8, x7, x29, I_slli_cg_cr_rs1_imm_edges_uimm_rs1val_0x2_immval_0x1e, I_slli_cg_cr_rs1_imm_edges_uimm_rs1val_0x2_immval_0x1e_str)
     d0c:	00062383          	lw	x7,0(x12)
     d10:	01d38863          	beq	x7,x29,d20 <I_slli_cg_cr_rs1_imm_edges_uimm_rs1val_0x2_immval_0x1e+0x18>
     d14:	0000146f          	jal	x8,1d14 <failedtest_x8_x7>
     d18:	00000d08          	.word	0x00000d08
     d1c:	000056eb          	.word	0x000056eb
     d20:	00460613          	addi	x12,x12,4

# Testcase cr_rs1_imm_edges_uimm (rs1 = 0x00000002, imm = 31)
  RVTEST_TESTDATA_LOAD_INT(x9, x27) # load rs1: x27 = 0x00000002
     d24:	0004ad83          	lw	x27,0(x9)
     d28:	00448493          	addi	x9,x9,4

00000d2c <I_slli_cg_cr_rs1_imm_edges_uimm_rs1val_0x2_immval_0x1f>:
I_slli_cg_cr_rs1_imm_edges_uimm_rs1val_0x2_immval_0x1f:
  slli x1, x27, 31 # perform operation
     d2c:	01fd9093          	slli	x1,x27,0x1f
  # Check if x1 contains the expected result. x12 is the signature ptr, x8 is the link ptr, x7 is a temp reg.
  RVTEST_SIGUPD(x12, x8, x7, x1, I_slli_cg_cr_rs1_imm_edges_uimm_rs1val_0x2_immval_0x1f, I_slli_cg_cr_rs1_imm_edges_uimm_rs1val_0x2_immval_0x1f_str)
     d30:	00062383          	lw	x7,0(x12)
     d34:	00138863          	beq	x7,x1,d44 <I_slli_cg_cr_rs1_imm_edges_uimm_rs1val_0x2_immval_0x1f+0x18>
     d38:	7dd0046f          	jal	x8,1d14 <failedtest_x8_x7>
     d3c:	00000d2c          	.word	0x00000d2c
     d40:	0000573e          	.word	0x0000573e
     d44:	00460613          	addi	x12,x12,4

# Testcase cr_rs1_imm_edges_uimm (rs1 = 0x80000000, imm = 0)
  RVTEST_TESTDATA_LOAD_INT(x9, x28) # load rs1: x28 = 0x80000000
     d48:	0004ae03          	lw	x28,0(x9)
     d4c:	00448493          	addi	x9,x9,4

00000d50 <I_slli_cg_cr_rs1_imm_edges_uimm_rs1val_0x80000000_immval_0x0>:
I_slli_cg_cr_rs1_imm_edges_uimm_rs1val_0x80000000_immval_0x0:
  slli x10, x28, 0 # perform operation
     d50:	000e1513          	slli	x10,x28,0x0
  # Check if x10 contains the expected result. x12 is the signature ptr, x8 is the link ptr, x7 is a temp reg.
  RVTEST_SIGUPD(x12, x8, x7, x10, I_slli_cg_cr_rs1_imm_edges_uimm_rs1val_0x80000000_immval_0x0, I_slli_cg_cr_rs1_imm_edges_uimm_rs1val_0x80000000_immval_0x0_str)
     d54:	00062383          	lw	x7,0(x12)
     d58:	00a38863          	beq	x7,x10,d68 <I_slli_cg_cr_rs1_imm_edges_uimm_rs1val_0x80000000_immval_0x0+0x18>
     d5c:	7b90046f          	jal	x8,1d14 <failedtest_x8_x7>
     d60:	00000d50          	.word	0x00000d50
     d64:	00005791          	.word	0x00005791
     d68:	00460613          	addi	x12,x12,4

# Testcase cr_rs1_imm_edges_uimm (rs1 = 0x80000000, imm = 1)
  RVTEST_TESTDATA_LOAD_INT(x9, x27) # load rs1: x27 = 0x80000000
     d6c:	0004ad83          	lw	x27,0(x9)
     d70:	00448493          	addi	x9,x9,4

00000d74 <I_slli_cg_cr_rs1_imm_edges_uimm_rs1val_0x80000000_immval_0x1>:
I_slli_cg_cr_rs1_imm_edges_uimm_rs1val_0x80000000_immval_0x1:
  slli x29, x27, 1 # perform operation
     d74:	001d9e93          	slli	x29,x27,0x1
  # Check if x29 contains the expected result. x12 is the signature ptr, x8 is the link ptr, x7 is a temp reg.
  RVTEST_SIGUPD(x12, x8, x7, x29, I_slli_cg_cr_rs1_imm_edges_uimm_rs1val_0x80000000_immval_0x1, I_slli_cg_cr_rs1_imm_edges_uimm_rs1val_0x80000000_immval_0x1_str)
     d78:	00062383          	lw	x7,0(x12)
     d7c:	01d38863          	beq	x7,x29,d8c <I_slli_cg_cr_rs1_imm_edges_uimm_rs1val_0x80000000_immval_0x1+0x18>
     d80:	7950046f          	jal	x8,1d14 <failedtest_x8_x7>
     d84:	00000d74          	.word	0x00000d74
     d88:	000057ea          	.word	0x000057ea
     d8c:	00460613          	addi	x12,x12,4

# Testcase cr_rs1_imm_edges_uimm (rs1 = 0x80000000, imm = 19)
  RVTEST_TESTDATA_LOAD_INT(x9, x29) # load rs1: x29 = 0x80000000
     d90:	0004ae83          	lw	x29,0(x9)
     d94:	00448493          	addi	x9,x9,4

00000d98 <I_slli_cg_cr_rs1_imm_edges_uimm_rs1val_0x80000000_immval_0x13>:
I_slli_cg_cr_rs1_imm_edges_uimm_rs1val_0x80000000_immval_0x13:
  slli x27, x29, 19 # perform operation
     d98:	013e9d93          	slli	x27,x29,0x13
  # Check if x27 contains the expected result. x12 is the signature ptr, x8 is the link ptr, x7 is a temp reg.
  RVTEST_SIGUPD(x12, x8, x7, x27, I_slli_cg_cr_rs1_imm_edges_uimm_rs1val_0x80000000_immval_0x13, I_slli_cg_cr_rs1_imm_edges_uimm_rs1val_0x80000000_immval_0x13_str)
     d9c:	00062383          	lw	x7,0(x12)
     da0:	01b38863          	beq	x7,x27,db0 <I_slli_cg_cr_rs1_imm_edges_uimm_rs1val_0x80000000_immval_0x13+0x18>
     da4:	7710046f          	jal	x8,1d14 <failedtest_x8_x7>
     da8:	00000d98          	.word	0x00000d98
     dac:	00005843          	.word	0x00005843
     db0:	00460613          	addi	x12,x12,4

# Testcase cr_rs1_imm_edges_uimm (rs1 = 0x80000000, imm = 30)
  RVTEST_TESTDATA_LOAD_INT(x9, x21) # load rs1: x21 = 0x80000000
     db4:	0004aa83          	lw	x21,0(x9)
     db8:	00448493          	addi	x9,x9,4

00000dbc <I_slli_cg_cr_rs1_imm_edges_uimm_rs1val_0x80000000_immval_0x1e>:
I_slli_cg_cr_rs1_imm_edges_uimm_rs1val_0x80000000_immval_0x1e:
  slli x19, x21, 30 # perform operation
     dbc:	01ea9993          	slli	x19,x21,0x1e
  # Check if x19 contains the expected result. x12 is the signature ptr, x8 is the link ptr, x7 is a temp reg.
  RVTEST_SIGUPD(x12, x8, x7, x19, I_slli_cg_cr_rs1_imm_edges_uimm_rs1val_0x80000000_immval_0x1e, I_slli_cg_cr_rs1_imm_edges_uimm_rs1val_0x80000000_immval_0x1e_str)
     dc0:	00062383          	lw	x7,0(x12)
     dc4:	01338863          	beq	x7,x19,dd4 <I_slli_cg_cr_rs1_imm_edges_uimm_rs1val_0x80000000_immval_0x1e+0x18>
     dc8:	74d0046f          	jal	x8,1d14 <failedtest_x8_x7>
     dcc:	00000dbc          	.word	0x00000dbc
     dd0:	0000589d          	.word	0x0000589d
     dd4:	00460613          	addi	x12,x12,4

# Testcase cr_rs1_imm_edges_uimm (rs1 = 0x80000000, imm = 31)
  RVTEST_TESTDATA_LOAD_INT(x9, x1) # load rs1: x1 = 0x80000000
     dd8:	0004a083          	lw	x1,0(x9)
     ddc:	00448493          	addi	x9,x9,4

00000de0 <I_slli_cg_cr_rs1_imm_edges_uimm_rs1val_0x80000000_immval_0x1f>:
I_slli_cg_cr_rs1_imm_edges_uimm_rs1val_0x80000000_immval_0x1f:
  slli x28, x1, 31 # perform operation
     de0:	01f09e13          	slli	x28,x1,0x1f
  # Check if x28 contains the expected result. x12 is the signature ptr, x8 is the link ptr, x7 is a temp reg.
  RVTEST_SIGUPD(x12, x8, x7, x28, I_slli_cg_cr_rs1_imm_edges_uimm_rs1val_0x80000000_immval_0x1f, I_slli_cg_cr_rs1_imm_edges_uimm_rs1val_0x80000000_immval_0x1f_str)
     de4:	00062383          	lw	x7,0(x12)
     de8:	01c38863          	beq	x7,x28,df8 <I_slli_cg_cr_rs1_imm_edges_uimm_rs1val_0x80000000_immval_0x1f+0x18>
     dec:	7290046f          	jal	x8,1d14 <failedtest_x8_x7>
     df0:	00000de0          	.word	0x00000de0
     df4:	000058f7          	.word	0x000058f7
     df8:	00460613          	addi	x12,x12,4

# Testcase cr_rs1_imm_edges_uimm (rs1 = 0x80000001, imm = 0)
  RVTEST_TESTDATA_LOAD_INT(x9, x23) # load rs1: x23 = 0x80000001
     dfc:	0004ab83          	lw	x23,0(x9)
     e00:	00448493          	addi	x9,x9,4

00000e04 <I_slli_cg_cr_rs1_imm_edges_uimm_rs1val_0x80000001_immval_0x0>:
I_slli_cg_cr_rs1_imm_edges_uimm_rs1val_0x80000001_immval_0x0:
  slli x19, x23, 0 # perform operation
     e04:	000b9993          	slli	x19,x23,0x0
  # Check if x19 contains the expected result. x12 is the signature ptr, x8 is the link ptr, x7 is a temp reg.
  RVTEST_SIGUPD(x12, x8, x7, x19, I_slli_cg_cr_rs1_imm_edges_uimm_rs1val_0x80000001_immval_0x0, I_slli_cg_cr_rs1_imm_edges_uimm_rs1val_0x80000001_immval_0x0_str)
     e08:	00062383          	lw	x7,0(x12)
     e0c:	01338863          	beq	x7,x19,e1c <I_slli_cg_cr_rs1_imm_edges_uimm_rs1val_0x80000001_immval_0x0+0x18>
     e10:	7050046f          	jal	x8,1d14 <failedtest_x8_x7>
     e14:	00000e04          	.word	0x00000e04
     e18:	00005951          	.word	0x00005951
     e1c:	00460613          	addi	x12,x12,4

# Testcase cr_rs1_imm_edges_uimm (rs1 = 0x80000001, imm = 1)
  RVTEST_TESTDATA_LOAD_INT(x9, x19) # load rs1: x19 = 0x80000001
     e20:	0004a983          	lw	x19,0(x9)
     e24:	00448493          	addi	x9,x9,4

00000e28 <I_slli_cg_cr_rs1_imm_edges_uimm_rs1val_0x80000001_immval_0x1>:
I_slli_cg_cr_rs1_imm_edges_uimm_rs1val_0x80000001_immval_0x1:
  slli x3, x19, 1 # perform operation
     e28:	00199193          	slli	x3,x19,0x1
  # Check if x3 contains the expected result. x12 is the signature ptr, x8 is the link ptr, x7 is a temp reg.
  RVTEST_SIGUPD(x12, x8, x7, x3, I_slli_cg_cr_rs1_imm_edges_uimm_rs1val_0x80000001_immval_0x1, I_slli_cg_cr_rs1_imm_edges_uimm_rs1val_0x80000001_immval_0x1_str)
     e2c:	00062383          	lw	x7,0(x12)
     e30:	00338863          	beq	x7,x3,e40 <I_slli_cg_cr_rs1_imm_edges_uimm_rs1val_0x80000001_immval_0x1+0x18>
     e34:	6e10046f          	jal	x8,1d14 <failedtest_x8_x7>
     e38:	00000e28          	.word	0x00000e28
     e3c:	000059aa          	.word	0x000059aa
     e40:	00460613          	addi	x12,x12,4

# Testcase cr_rs1_imm_edges_uimm (rs1 = 0x80000001, imm = 19)
  RVTEST_TESTDATA_LOAD_INT(x9, x5) # load rs1: x5 = 0x80000001
     e44:	0004a283          	lw	x5,0(x9)
     e48:	00448493          	addi	x9,x9,4

00000e4c <I_slli_cg_cr_rs1_imm_edges_uimm_rs1val_0x80000001_immval_0x13>:
I_slli_cg_cr_rs1_imm_edges_uimm_rs1val_0x80000001_immval_0x13:
  slli x25, x5, 19 # perform operation
     e4c:	01329c93          	slli	x25,x5,0x13
  # Check if x25 contains the expected result. x12 is the signature ptr, x8 is the link ptr, x7 is a temp reg.
  RVTEST_SIGUPD(x12, x8, x7, x25, I_slli_cg_cr_rs1_imm_edges_uimm_rs1val_0x80000001_immval_0x13, I_slli_cg_cr_rs1_imm_edges_uimm_rs1val_0x80000001_immval_0x13_str)
     e50:	00062383          	lw	x7,0(x12)
     e54:	01938863          	beq	x7,x25,e64 <I_slli_cg_cr_rs1_imm_edges_uimm_rs1val_0x80000001_immval_0x13+0x18>
     e58:	6bd0046f          	jal	x8,1d14 <failedtest_x8_x7>
     e5c:	00000e4c          	.word	0x00000e4c
     e60:	00005a03          	.word	0x00005a03
     e64:	00460613          	addi	x12,x12,4

# Testcase cr_rs1_imm_edges_uimm (rs1 = 0x80000001, imm = 30)
  RVTEST_TESTDATA_LOAD_INT(x9, x24) # load rs1: x24 = 0x80000001
     e68:	0004ac03          	lw	x24,0(x9)
     e6c:	00448493          	addi	x9,x9,4

00000e70 <I_slli_cg_cr_rs1_imm_edges_uimm_rs1val_0x80000001_immval_0x1e>:
I_slli_cg_cr_rs1_imm_edges_uimm_rs1val_0x80000001_immval_0x1e:
  slli x16, x24, 30 # perform operation
     e70:	01ec1813          	slli	x16,x24,0x1e
  # Check if x16 contains the expected result. x12 is the signature ptr, x8 is the link ptr, x7 is a temp reg.
  RVTEST_SIGUPD(x12, x8, x7, x16, I_slli_cg_cr_rs1_imm_edges_uimm_rs1val_0x80000001_immval_0x1e, I_slli_cg_cr_rs1_imm_edges_uimm_rs1val_0x80000001_immval_0x1e_str)
     e74:	00062383          	lw	x7,0(x12)
     e78:	01038863          	beq	x7,x16,e88 <I_slli_cg_cr_rs1_imm_edges_uimm_rs1val_0x80000001_immval_0x1e+0x18>
     e7c:	6990046f          	jal	x8,1d14 <failedtest_x8_x7>
     e80:	00000e70          	.word	0x00000e70
     e84:	00005a5d          	.word	0x00005a5d
     e88:	00460613          	addi	x12,x12,4

# Testcase cr_rs1_imm_edges_uimm (rs1 = 0x80000001, imm = 31)
  RVTEST_TESTDATA_LOAD_INT(x9, x4) # load rs1: x4 = 0x80000001
     e8c:	0004a203          	lw	x4,0(x9)
     e90:	00448493          	addi	x9,x9,4

00000e94 <I_slli_cg_cr_rs1_imm_edges_uimm_rs1val_0x80000001_immval_0x1f>:
I_slli_cg_cr_rs1_imm_edges_uimm_rs1val_0x80000001_immval_0x1f:
  slli x10, x4, 31 # perform operation
     e94:	01f21513          	slli	x10,x4,0x1f
  # Check if x10 contains the expected result. x12 is the signature ptr, x8 is the link ptr, x7 is a temp reg.
  RVTEST_SIGUPD(x12, x8, x7, x10, I_slli_cg_cr_rs1_imm_edges_uimm_rs1val_0x80000001_immval_0x1f, I_slli_cg_cr_rs1_imm_edges_uimm_rs1val_0x80000001_immval_0x1f_str)
     e98:	00062383          	lw	x7,0(x12)
     e9c:	00a38863          	beq	x7,x10,eac <I_slli_cg_cr_rs1_imm_edges_uimm_rs1val_0x80000001_immval_0x1f+0x18>
     ea0:	6750046f          	jal	x8,1d14 <failedtest_x8_x7>
     ea4:	00000e94          	.word	0x00000e94
     ea8:	00005ab8          	.word	0x00005ab8
     eac:	00460613          	addi	x12,x12,4

# Testcase cr_rs1_imm_edges_uimm (rs1 = 0x7fffffff, imm = 0)
  RVTEST_TESTDATA_LOAD_INT(x9, x22) # load rs1: x22 = 0x7fffffff
     eb0:	0004ab03          	lw	x22,0(x9)
     eb4:	00448493          	addi	x9,x9,4

00000eb8 <I_slli_cg_cr_rs1_imm_edges_uimm_rs1val_0x7fffffff_immval_0x0>:
I_slli_cg_cr_rs1_imm_edges_uimm_rs1val_0x7fffffff_immval_0x0:
  slli x27, x22, 0 # perform operation
     eb8:	000b1d93          	slli	x27,x22,0x0
  # Check if x27 contains the expected result. x12 is the signature ptr, x8 is the link ptr, x7 is a temp reg.
  RVTEST_SIGUPD(x12, x8, x7, x27, I_slli_cg_cr_rs1_imm_edges_uimm_rs1val_0x7fffffff_immval_0x0, I_slli_cg_cr_rs1_imm_edges_uimm_rs1val_0x7fffffff_immval_0x0_str)
     ebc:	00062383          	lw	x7,0(x12)
     ec0:	01b38863          	beq	x7,x27,ed0 <I_slli_cg_cr_rs1_imm_edges_uimm_rs1val_0x7fffffff_immval_0x0+0x18>
     ec4:	6510046f          	jal	x8,1d14 <failedtest_x8_x7>
     ec8:	00000eb8          	.word	0x00000eb8
     ecc:	00005b13          	.word	0x00005b13
     ed0:	00460613          	addi	x12,x12,4

# Testcase cr_rs1_imm_edges_uimm (rs1 = 0x7fffffff, imm = 1)
  RVTEST_TESTDATA_LOAD_INT(x9, x13) # load rs1: x13 = 0x7fffffff
     ed4:	0004a683          	lw	x13,0(x9)
     ed8:	00448493          	addi	x9,x9,4

00000edc <I_slli_cg_cr_rs1_imm_edges_uimm_rs1val_0x7fffffff_immval_0x1>:
I_slli_cg_cr_rs1_imm_edges_uimm_rs1val_0x7fffffff_immval_0x1:
  slli x6, x13, 1 # perform operation
     edc:	00169313          	slli	x6,x13,0x1
  # Check if x6 contains the expected result. x12 is the signature ptr, x8 is the link ptr, x7 is a temp reg.
  RVTEST_SIGUPD(x12, x8, x7, x6, I_slli_cg_cr_rs1_imm_edges_uimm_rs1val_0x7fffffff_immval_0x1, I_slli_cg_cr_rs1_imm_edges_uimm_rs1val_0x7fffffff_immval_0x1_str)
     ee0:	00062383          	lw	x7,0(x12)
     ee4:	00638863          	beq	x7,x6,ef4 <I_slli_cg_cr_rs1_imm_edges_uimm_rs1val_0x7fffffff_immval_0x1+0x18>
     ee8:	62d0046f          	jal	x8,1d14 <failedtest_x8_x7>
     eec:	00000edc          	.word	0x00000edc
     ef0:	00005b6d          	.word	0x00005b6d
     ef4:	00460613          	addi	x12,x12,4

# Testcase cr_rs1_imm_edges_uimm (rs1 = 0x7fffffff, imm = 19)
  RVTEST_TESTDATA_LOAD_INT(x9, x19) # load rs1: x19 = 0x7fffffff
     ef8:	0004a983          	lw	x19,0(x9)
     efc:	00448493          	addi	x9,x9,4

00000f00 <I_slli_cg_cr_rs1_imm_edges_uimm_rs1val_0x7fffffff_immval_0x13>:
I_slli_cg_cr_rs1_imm_edges_uimm_rs1val_0x7fffffff_immval_0x13:
  slli x1, x19, 19 # perform operation
     f00:	01399093          	slli	x1,x19,0x13
  # Check if x1 contains the expected result. x12 is the signature ptr, x8 is the link ptr, x7 is a temp reg.
  RVTEST_SIGUPD(x12, x8, x7, x1, I_slli_cg_cr_rs1_imm_edges_uimm_rs1val_0x7fffffff_immval_0x13, I_slli_cg_cr_rs1_imm_edges_uimm_rs1val_0x7fffffff_immval_0x13_str)
     f04:	00062383          	lw	x7,0(x12)
     f08:	00138863          	beq	x7,x1,f18 <I_slli_cg_cr_rs1_imm_edges_uimm_rs1val_0x7fffffff_immval_0x13+0x18>
     f0c:	6090046f          	jal	x8,1d14 <failedtest_x8_x7>
     f10:	00000f00          	.word	0x00000f00
     f14:	00005bc7          	.word	0x00005bc7
     f18:	00460613          	addi	x12,x12,4

# Testcase cr_rs1_imm_edges_uimm (rs1 = 0x7fffffff, imm = 30)
  RVTEST_TESTDATA_LOAD_INT(x9, x19) # load rs1: x19 = 0x7fffffff
     f1c:	0004a983          	lw	x19,0(x9)
     f20:	00448493          	addi	x9,x9,4

00000f24 <I_slli_cg_cr_rs1_imm_edges_uimm_rs1val_0x7fffffff_immval_0x1e>:
I_slli_cg_cr_rs1_imm_edges_uimm_rs1val_0x7fffffff_immval_0x1e:
  slli x28, x19, 30 # perform operation
     f24:	01e99e13          	slli	x28,x19,0x1e
  # Check if x28 contains the expected result. x12 is the signature ptr, x8 is the link ptr, x7 is a temp reg.
  RVTEST_SIGUPD(x12, x8, x7, x28, I_slli_cg_cr_rs1_imm_edges_uimm_rs1val_0x7fffffff_immval_0x1e, I_slli_cg_cr_rs1_imm_edges_uimm_rs1val_0x7fffffff_immval_0x1e_str)
     f28:	00062383          	lw	x7,0(x12)
     f2c:	01c38863          	beq	x7,x28,f3c <I_slli_cg_cr_rs1_imm_edges_uimm_rs1val_0x7fffffff_immval_0x1e+0x18>
     f30:	5e50046f          	jal	x8,1d14 <failedtest_x8_x7>
     f34:	00000f24          	.word	0x00000f24
     f38:	00005c22          	.word	0x00005c22
     f3c:	00460613          	addi	x12,x12,4

# Testcase cr_rs1_imm_edges_uimm (rs1 = 0x7fffffff, imm = 31)
  RVTEST_TESTDATA_LOAD_INT(x9, x15) # load rs1: x15 = 0x7fffffff
     f40:	0004a783          	lw	x15,0(x9)
     f44:	00448493          	addi	x9,x9,4

00000f48 <I_slli_cg_cr_rs1_imm_edges_uimm_rs1val_0x7fffffff_immval_0x1f>:
I_slli_cg_cr_rs1_imm_edges_uimm_rs1val_0x7fffffff_immval_0x1f:
  slli x4, x15, 31 # perform operation
     f48:	01f79213          	slli	x4,x15,0x1f
  # Check if x4 contains the expected result. x12 is the signature ptr, x8 is the link ptr, x7 is a temp reg.
  RVTEST_SIGUPD(x12, x8, x7, x4, I_slli_cg_cr_rs1_imm_edges_uimm_rs1val_0x7fffffff_immval_0x1f, I_slli_cg_cr_rs1_imm_edges_uimm_rs1val_0x7fffffff_immval_0x1f_str)
     f4c:	00062383          	lw	x7,0(x12)
     f50:	00438863          	beq	x7,x4,f60 <I_slli_cg_cr_rs1_imm_edges_uimm_rs1val_0x7fffffff_immval_0x1f+0x18>
     f54:	5c10046f          	jal	x8,1d14 <failedtest_x8_x7>
     f58:	00000f48          	.word	0x00000f48
     f5c:	00005c7d          	.word	0x00005c7d
     f60:	00460613          	addi	x12,x12,4

# Testcase cr_rs1_imm_edges_uimm (rs1 = 0x7ffffffe, imm = 0)
  RVTEST_TESTDATA_LOAD_INT(x9, x27) # load rs1: x27 = 0x7ffffffe
     f64:	0004ad83          	lw	x27,0(x9)
     f68:	00448493          	addi	x9,x9,4

00000f6c <I_slli_cg_cr_rs1_imm_edges_uimm_rs1val_0x7ffffffe_immval_0x0>:
I_slli_cg_cr_rs1_imm_edges_uimm_rs1val_0x7ffffffe_immval_0x0:
  slli x16, x27, 0 # perform operation
     f6c:	000d9813          	slli	x16,x27,0x0
  # Check if x16 contains the expected result. x12 is the signature ptr, x8 is the link ptr, x7 is a temp reg.
  RVTEST_SIGUPD(x12, x8, x7, x16, I_slli_cg_cr_rs1_imm_edges_uimm_rs1val_0x7ffffffe_immval_0x0, I_slli_cg_cr_rs1_imm_edges_uimm_rs1val_0x7ffffffe_immval_0x0_str)
     f70:	00062383          	lw	x7,0(x12)
     f74:	01038863          	beq	x7,x16,f84 <I_slli_cg_cr_rs1_imm_edges_uimm_rs1val_0x7ffffffe_immval_0x0+0x18>
     f78:	59d0046f          	jal	x8,1d14 <failedtest_x8_x7>
     f7c:	00000f6c          	.word	0x00000f6c
     f80:	00005cd8          	.word	0x00005cd8
     f84:	00460613          	addi	x12,x12,4

# Testcase cr_rs1_imm_edges_uimm (rs1 = 0x7ffffffe, imm = 1)
  RVTEST_TESTDATA_LOAD_INT(x9, x31) # load rs1: x31 = 0x7ffffffe
     f88:	0004af83          	lw	x31,0(x9)
     f8c:	00448493          	addi	x9,x9,4

00000f90 <I_slli_cg_cr_rs1_imm_edges_uimm_rs1val_0x7ffffffe_immval_0x1>:
I_slli_cg_cr_rs1_imm_edges_uimm_rs1val_0x7ffffffe_immval_0x1:
  slli x22, x31, 1 # perform operation
     f90:	001f9b13          	slli	x22,x31,0x1
  # Check if x22 contains the expected result. x12 is the signature ptr, x8 is the link ptr, x7 is a temp reg.
  RVTEST_SIGUPD(x12, x8, x7, x22, I_slli_cg_cr_rs1_imm_edges_uimm_rs1val_0x7ffffffe_immval_0x1, I_slli_cg_cr_rs1_imm_edges_uimm_rs1val_0x7ffffffe_immval_0x1_str)
     f94:	00062383          	lw	x7,0(x12)
     f98:	01638863          	beq	x7,x22,fa8 <I_slli_cg_cr_rs1_imm_edges_uimm_rs1val_0x7ffffffe_immval_0x1+0x18>
     f9c:	5790046f          	jal	x8,1d14 <failedtest_x8_x7>
     fa0:	00000f90          	.word	0x00000f90
     fa4:	00005d32          	.word	0x00005d32
     fa8:	00460613          	addi	x12,x12,4

# Testcase cr_rs1_imm_edges_uimm (rs1 = 0x7ffffffe, imm = 19)
  RVTEST_TESTDATA_LOAD_INT(x9, x4) # load rs1: x4 = 0x7ffffffe
     fac:	0004a203          	lw	x4,0(x9)
     fb0:	00448493          	addi	x9,x9,4

00000fb4 <I_slli_cg_cr_rs1_imm_edges_uimm_rs1val_0x7ffffffe_immval_0x13>:
I_slli_cg_cr_rs1_imm_edges_uimm_rs1val_0x7ffffffe_immval_0x13:
  slli x24, x4, 19 # perform operation
     fb4:	01321c13          	slli	x24,x4,0x13
  # Check if x24 contains the expected result. x12 is the signature ptr, x8 is the link ptr, x7 is a temp reg.
  RVTEST_SIGUPD(x12, x8, x7, x24, I_slli_cg_cr_rs1_imm_edges_uimm_rs1val_0x7ffffffe_immval_0x13, I_slli_cg_cr_rs1_imm_edges_uimm_rs1val_0x7ffffffe_immval_0x13_str)
     fb8:	00062383          	lw	x7,0(x12)
     fbc:	01838863          	beq	x7,x24,fcc <I_slli_cg_cr_rs1_imm_edges_uimm_rs1val_0x7ffffffe_immval_0x13+0x18>
     fc0:	5550046f          	jal	x8,1d14 <failedtest_x8_x7>
     fc4:	00000fb4          	.word	0x00000fb4
     fc8:	00005d8c          	.word	0x00005d8c
     fcc:	00460613          	addi	x12,x12,4

# Testcase cr_rs1_imm_edges_uimm (rs1 = 0x7ffffffe, imm = 30)
  RVTEST_TESTDATA_LOAD_INT(x9, x14) # load rs1: x14 = 0x7ffffffe
     fd0:	0004a703          	lw	x14,0(x9)
     fd4:	00448493          	addi	x9,x9,4

00000fd8 <I_slli_cg_cr_rs1_imm_edges_uimm_rs1val_0x7ffffffe_immval_0x1e>:
I_slli_cg_cr_rs1_imm_edges_uimm_rs1val_0x7ffffffe_immval_0x1e:
  slli x22, x14, 30 # perform operation
     fd8:	01e71b13          	slli	x22,x14,0x1e
  # Check if x22 contains the expected result. x12 is the signature ptr, x8 is the link ptr, x7 is a temp reg.
  RVTEST_SIGUPD(x12, x8, x7, x22, I_slli_cg_cr_rs1_imm_edges_uimm_rs1val_0x7ffffffe_immval_0x1e, I_slli_cg_cr_rs1_imm_edges_uimm_rs1val_0x7ffffffe_immval_0x1e_str)
     fdc:	00062383          	lw	x7,0(x12)
     fe0:	01638863          	beq	x7,x22,ff0 <I_slli_cg_cr_rs1_imm_edges_uimm_rs1val_0x7ffffffe_immval_0x1e+0x18>
     fe4:	5310046f          	jal	x8,1d14 <failedtest_x8_x7>
     fe8:	00000fd8          	.word	0x00000fd8
     fec:	00005de7          	.word	0x00005de7
     ff0:	00460613          	addi	x12,x12,4

# Testcase cr_rs1_imm_edges_uimm (rs1 = 0x7ffffffe, imm = 31)
  RVTEST_TESTDATA_LOAD_INT(x9, x1) # load rs1: x1 = 0x7ffffffe
     ff4:	0004a083          	lw	x1,0(x9)
     ff8:	00448493          	addi	x9,x9,4

00000ffc <I_slli_cg_cr_rs1_imm_edges_uimm_rs1val_0x7ffffffe_immval_0x1f>:
I_slli_cg_cr_rs1_imm_edges_uimm_rs1val_0x7ffffffe_immval_0x1f:
  slli x5, x1, 31 # perform operation
     ffc:	01f09293          	slli	x5,x1,0x1f
  # Check if x5 contains the expected result. x12 is the signature ptr, x8 is the link ptr, x7 is a temp reg.
  RVTEST_SIGUPD(x12, x8, x7, x5, I_slli_cg_cr_rs1_imm_edges_uimm_rs1val_0x7ffffffe_immval_0x1f, I_slli_cg_cr_rs1_imm_edges_uimm_rs1val_0x7ffffffe_immval_0x1f_str)
    1000:	00062383          	lw	x7,0(x12)
    1004:	00538863          	beq	x7,x5,1014 <I_slli_cg_cr_rs1_imm_edges_uimm_rs1val_0x7ffffffe_immval_0x1f+0x18>
    1008:	50d0046f          	jal	x8,1d14 <failedtest_x8_x7>
    100c:	00000ffc          	.word	0x00000ffc
    1010:	00005e42          	.word	0x00005e42
    1014:	00460613          	addi	x12,x12,4

# Testcase cr_rs1_imm_edges_uimm (rs1 = 0xffffffff, imm = 0)
  RVTEST_TESTDATA_LOAD_INT(x9, x11) # load rs1: x11 = 0xffffffff
    1018:	0004a583          	lw	x11,0(x9)
    101c:	00448493          	addi	x9,x9,4

00001020 <I_slli_cg_cr_rs1_imm_edges_uimm_rs1val_0xffffffff_immval_0x0>:
I_slli_cg_cr_rs1_imm_edges_uimm_rs1val_0xffffffff_immval_0x0:
  slli x19, x11, 0 # perform operation
    1020:	00059993          	slli	x19,x11,0x0
  # Check if x19 contains the expected result. x12 is the signature ptr, x8 is the link ptr, x7 is a temp reg.
  RVTEST_SIGUPD(x12, x8, x7, x19, I_slli_cg_cr_rs1_imm_edges_uimm_rs1val_0xffffffff_immval_0x0, I_slli_cg_cr_rs1_imm_edges_uimm_rs1val_0xffffffff_immval_0x0_str)
    1024:	00062383          	lw	x7,0(x12)
    1028:	01338863          	beq	x7,x19,1038 <I_slli_cg_cr_rs1_imm_edges_uimm_rs1val_0xffffffff_immval_0x0+0x18>
    102c:	4e90046f          	jal	x8,1d14 <failedtest_x8_x7>
    1030:	00001020          	.word	0x00001020
    1034:	00005e9d          	.word	0x00005e9d
    1038:	00460613          	addi	x12,x12,4

# Testcase cr_rs1_imm_edges_uimm (rs1 = 0xffffffff, imm = 1)
  RVTEST_TESTDATA_LOAD_INT(x9, x16) # load rs1: x16 = 0xffffffff
    103c:	0004a803          	lw	x16,0(x9)
    1040:	00448493          	addi	x9,x9,4

00001044 <I_slli_cg_cr_rs1_imm_edges_uimm_rs1val_0xffffffff_immval_0x1>:
I_slli_cg_cr_rs1_imm_edges_uimm_rs1val_0xffffffff_immval_0x1:
  slli x6, x16, 1 # perform operation
    1044:	00181313          	slli	x6,x16,0x1
  # Check if x6 contains the expected result. x12 is the signature ptr, x8 is the link ptr, x7 is a temp reg.
  RVTEST_SIGUPD(x12, x8, x7, x6, I_slli_cg_cr_rs1_imm_edges_uimm_rs1val_0xffffffff_immval_0x1, I_slli_cg_cr_rs1_imm_edges_uimm_rs1val_0xffffffff_immval_0x1_str)
    1048:	00062383          	lw	x7,0(x12)
    104c:	00638863          	beq	x7,x6,105c <I_slli_cg_cr_rs1_imm_edges_uimm_rs1val_0xffffffff_immval_0x1+0x18>
    1050:	4c50046f          	jal	x8,1d14 <failedtest_x8_x7>
    1054:	00001044          	.word	0x00001044
    1058:	00005ef7          	.word	0x00005ef7
    105c:	00460613          	addi	x12,x12,4

# Testcase cr_rs1_imm_edges_uimm (rs1 = 0xffffffff, imm = 19)
  RVTEST_TESTDATA_LOAD_INT(x9, x15) # load rs1: x15 = 0xffffffff
    1060:	0004a783          	lw	x15,0(x9)
    1064:	00448493          	addi	x9,x9,4

00001068 <I_slli_cg_cr_rs1_imm_edges_uimm_rs1val_0xffffffff_immval_0x13>:
I_slli_cg_cr_rs1_imm_edges_uimm_rs1val_0xffffffff_immval_0x13:
  slli x21, x15, 19 # perform operation
    1068:	01379a93          	slli	x21,x15,0x13
  # Check if x21 contains the expected result. x12 is the signature ptr, x8 is the link ptr, x7 is a temp reg.
  RVTEST_SIGUPD(x12, x8, x7, x21, I_slli_cg_cr_rs1_imm_edges_uimm_rs1val_0xffffffff_immval_0x13, I_slli_cg_cr_rs1_imm_edges_uimm_rs1val_0xffffffff_immval_0x13_str)
    106c:	00062383          	lw	x7,0(x12)
    1070:	01538863          	beq	x7,x21,1080 <I_slli_cg_cr_rs1_imm_edges_uimm_rs1val_0xffffffff_immval_0x13+0x18>
    1074:	4a10046f          	jal	x8,1d14 <failedtest_x8_x7>
    1078:	00001068          	.word	0x00001068
    107c:	00005f51          	.word	0x00005f51
    1080:	00460613          	addi	x12,x12,4

# Testcase cr_rs1_imm_edges_uimm (rs1 = 0xffffffff, imm = 30)
  RVTEST_TESTDATA_LOAD_INT(x9, x10) # load rs1: x10 = 0xffffffff
    1084:	0004a503          	lw	x10,0(x9)
    1088:	00448493          	addi	x9,x9,4

0000108c <I_slli_cg_cr_rs1_imm_edges_uimm_rs1val_0xffffffff_immval_0x1e>:
I_slli_cg_cr_rs1_imm_edges_uimm_rs1val_0xffffffff_immval_0x1e:
  slli x3, x10, 30 # perform operation
    108c:	01e51193          	slli	x3,x10,0x1e
  # Check if x3 contains the expected result. x12 is the signature ptr, x8 is the link ptr, x7 is a temp reg.
  RVTEST_SIGUPD(x12, x8, x7, x3, I_slli_cg_cr_rs1_imm_edges_uimm_rs1val_0xffffffff_immval_0x1e, I_slli_cg_cr_rs1_imm_edges_uimm_rs1val_0xffffffff_immval_0x1e_str)
    1090:	00062383          	lw	x7,0(x12)
    1094:	00338863          	beq	x7,x3,10a4 <I_slli_cg_cr_rs1_imm_edges_uimm_rs1val_0xffffffff_immval_0x1e+0x18>
    1098:	47d0046f          	jal	x8,1d14 <failedtest_x8_x7>
    109c:	0000108c          	.word	0x0000108c
    10a0:	00005fac          	.word	0x00005fac
    10a4:	00460613          	addi	x12,x12,4

# Testcase cr_rs1_imm_edges_uimm (rs1 = 0xffffffff, imm = 31)
  RVTEST_TESTDATA_LOAD_INT(x9, x28) # load rs1: x28 = 0xffffffff
    10a8:	0004ae03          	lw	x28,0(x9)
    10ac:	00448493          	addi	x9,x9,4

000010b0 <I_slli_cg_cr_rs1_imm_edges_uimm_rs1val_0xffffffff_immval_0x1f>:
I_slli_cg_cr_rs1_imm_edges_uimm_rs1val_0xffffffff_immval_0x1f:
  slli x26, x28, 31 # perform operation
    10b0:	01fe1d13          	slli	x26,x28,0x1f
  # Check if x26 contains the expected result. x12 is the signature ptr, x8 is the link ptr, x7 is a temp reg.
  RVTEST_SIGUPD(x12, x8, x7, x26, I_slli_cg_cr_rs1_imm_edges_uimm_rs1val_0xffffffff_immval_0x1f, I_slli_cg_cr_rs1_imm_edges_uimm_rs1val_0xffffffff_immval_0x1f_str)
    10b4:	00062383          	lw	x7,0(x12)
    10b8:	01a38863          	beq	x7,x26,10c8 <I_slli_cg_cr_rs1_imm_edges_uimm_rs1val_0xffffffff_immval_0x1f+0x18>
    10bc:	4590046f          	jal	x8,1d14 <failedtest_x8_x7>
    10c0:	000010b0          	.word	0x000010b0
    10c4:	00006007          	.word	0x00006007
    10c8:	00460613          	addi	x12,x12,4

# Testcase cr_rs1_imm_edges_uimm (rs1 = 0xfffffffe, imm = 0)
  RVTEST_TESTDATA_LOAD_INT(x9, x31) # load rs1: x31 = 0xfffffffe
    10cc:	0004af83          	lw	x31,0(x9)
    10d0:	00448493          	addi	x9,x9,4

000010d4 <I_slli_cg_cr_rs1_imm_edges_uimm_rs1val_0xfffffffe_immval_0x0>:
I_slli_cg_cr_rs1_imm_edges_uimm_rs1val_0xfffffffe_immval_0x0:
  slli x24, x31, 0 # perform operation
    10d4:	000f9c13          	slli	x24,x31,0x0
  # Check if x24 contains the expected result. x12 is the signature ptr, x8 is the link ptr, x7 is a temp reg.
  RVTEST_SIGUPD(x12, x8, x7, x24, I_slli_cg_cr_rs1_imm_edges_uimm_rs1val_0xfffffffe_immval_0x0, I_slli_cg_cr_rs1_imm_edges_uimm_rs1val_0xfffffffe_immval_0x0_str)
    10d8:	00062383          	lw	x7,0(x12)
    10dc:	01838863          	beq	x7,x24,10ec <I_slli_cg_cr_rs1_imm_edges_uimm_rs1val_0xfffffffe_immval_0x0+0x18>
    10e0:	4350046f          	jal	x8,1d14 <failedtest_x8_x7>
    10e4:	000010d4          	.word	0x000010d4
    10e8:	00006062          	.word	0x00006062
    10ec:	00460613          	addi	x12,x12,4

# Testcase cr_rs1_imm_edges_uimm (rs1 = 0xfffffffe, imm = 1)
  RVTEST_TESTDATA_LOAD_INT(x9, x5) # load rs1: x5 = 0xfffffffe
    10f0:	0004a283          	lw	x5,0(x9)
    10f4:	00448493          	addi	x9,x9,4

000010f8 <I_slli_cg_cr_rs1_imm_edges_uimm_rs1val_0xfffffffe_immval_0x1>:
I_slli_cg_cr_rs1_imm_edges_uimm_rs1val_0xfffffffe_immval_0x1:
  slli x2, x5, 1 # perform operation
    10f8:	00129113          	slli	x2,x5,0x1
  # Check if x2 contains the expected result. x12 is the signature ptr, x8 is the link ptr, x7 is a temp reg.
  RVTEST_SIGUPD(x12, x8, x7, x2, I_slli_cg_cr_rs1_imm_edges_uimm_rs1val_0xfffffffe_immval_0x1, I_slli_cg_cr_rs1_imm_edges_uimm_rs1val_0xfffffffe_immval_0x1_str)
    10fc:	00062383          	lw	x7,0(x12)
    1100:	00238863          	beq	x7,x2,1110 <I_slli_cg_cr_rs1_imm_edges_uimm_rs1val_0xfffffffe_immval_0x1+0x18>
    1104:	4110046f          	jal	x8,1d14 <failedtest_x8_x7>
    1108:	000010f8          	.word	0x000010f8
    110c:	000060bc          	.word	0x000060bc
    1110:	00460613          	addi	x12,x12,4

# Testcase cr_rs1_imm_edges_uimm (rs1 = 0xfffffffe, imm = 19)
  RVTEST_TESTDATA_LOAD_INT(x9, x11) # load rs1: x11 = 0xfffffffe
    1114:	0004a583          	lw	x11,0(x9)
    1118:	00448493          	addi	x9,x9,4

0000111c <I_slli_cg_cr_rs1_imm_edges_uimm_rs1val_0xfffffffe_immval_0x13>:
I_slli_cg_cr_rs1_imm_edges_uimm_rs1val_0xfffffffe_immval_0x13:
  slli x25, x11, 19 # perform operation
    111c:	01359c93          	slli	x25,x11,0x13
  # Check if x25 contains the expected result. x12 is the signature ptr, x8 is the link ptr, x7 is a temp reg.
  RVTEST_SIGUPD(x12, x8, x7, x25, I_slli_cg_cr_rs1_imm_edges_uimm_rs1val_0xfffffffe_immval_0x13, I_slli_cg_cr_rs1_imm_edges_uimm_rs1val_0xfffffffe_immval_0x13_str)
    1120:	00062383          	lw	x7,0(x12)
    1124:	01938863          	beq	x7,x25,1134 <I_slli_cg_cr_rs1_imm_edges_uimm_rs1val_0xfffffffe_immval_0x13+0x18>
    1128:	3ed0046f          	jal	x8,1d14 <failedtest_x8_x7>
    112c:	0000111c          	.word	0x0000111c
    1130:	00006116          	.word	0x00006116
    1134:	00460613          	addi	x12,x12,4

# Testcase cr_rs1_imm_edges_uimm (rs1 = 0xfffffffe, imm = 30)
  RVTEST_TESTDATA_LOAD_INT(x9, x13) # load rs1: x13 = 0xfffffffe
    1138:	0004a683          	lw	x13,0(x9)
    113c:	00448493          	addi	x9,x9,4

00001140 <I_slli_cg_cr_rs1_imm_edges_uimm_rs1val_0xfffffffe_immval_0x1e>:
I_slli_cg_cr_rs1_imm_edges_uimm_rs1val_0xfffffffe_immval_0x1e:
  slli x19, x13, 30 # perform operation
    1140:	01e69993          	slli	x19,x13,0x1e
  # Check if x19 contains the expected result. x12 is the signature ptr, x8 is the link ptr, x7 is a temp reg.
  RVTEST_SIGUPD(x12, x8, x7, x19, I_slli_cg_cr_rs1_imm_edges_uimm_rs1val_0xfffffffe_immval_0x1e, I_slli_cg_cr_rs1_imm_edges_uimm_rs1val_0xfffffffe_immval_0x1e_str)
    1144:	00062383          	lw	x7,0(x12)
    1148:	01338863          	beq	x7,x19,1158 <I_slli_cg_cr_rs1_imm_edges_uimm_rs1val_0xfffffffe_immval_0x1e+0x18>
    114c:	3c90046f          	jal	x8,1d14 <failedtest_x8_x7>
    1150:	00001140          	.word	0x00001140
    1154:	00006171          	.word	0x00006171
    1158:	00460613          	addi	x12,x12,4

# Testcase cr_rs1_imm_edges_uimm (rs1 = 0xfffffffe, imm = 31)
  RVTEST_TESTDATA_LOAD_INT(x9, x21) # load rs1: x21 = 0xfffffffe
    115c:	0004aa83          	lw	x21,0(x9)
    1160:	00448493          	addi	x9,x9,4

00001164 <I_slli_cg_cr_rs1_imm_edges_uimm_rs1val_0xfffffffe_immval_0x1f>:
I_slli_cg_cr_rs1_imm_edges_uimm_rs1val_0xfffffffe_immval_0x1f:
  slli x30, x21, 31 # perform operation
    1164:	01fa9f13          	slli	x30,x21,0x1f
  # Check if x30 contains the expected result. x12 is the signature ptr, x8 is the link ptr, x7 is a temp reg.
  RVTEST_SIGUPD(x12, x8, x7, x30, I_slli_cg_cr_rs1_imm_edges_uimm_rs1val_0xfffffffe_immval_0x1f, I_slli_cg_cr_rs1_imm_edges_uimm_rs1val_0xfffffffe_immval_0x1f_str)
    1168:	00062383          	lw	x7,0(x12)
    116c:	01e38863          	beq	x7,x30,117c <I_slli_cg_cr_rs1_imm_edges_uimm_rs1val_0xfffffffe_immval_0x1f+0x18>
    1170:	3a50046f          	jal	x8,1d14 <failedtest_x8_x7>
    1174:	00001164          	.word	0x00001164
    1178:	000061cc          	.word	0x000061cc
    117c:	00460613          	addi	x12,x12,4

# Testcase cr_rs1_imm_edges_uimm (rs1 = 0x5bbc8872, imm = 0)
  RVTEST_TESTDATA_LOAD_INT(x9, x17) # load rs1: x17 = 0x5bbc8872
    1180:	0004a883          	lw	x17,0(x9)
    1184:	00448493          	addi	x9,x9,4

00001188 <I_slli_cg_cr_rs1_imm_edges_uimm_rs1val_0x5bbc8872_immval_0x0>:
I_slli_cg_cr_rs1_imm_edges_uimm_rs1val_0x5bbc8872_immval_0x0:
  slli x13, x17, 0 # perform operation
    1188:	00089693          	slli	x13,x17,0x0
  # Check if x13 contains the expected result. x12 is the signature ptr, x8 is the link ptr, x7 is a temp reg.
  RVTEST_SIGUPD(x12, x8, x7, x13, I_slli_cg_cr_rs1_imm_edges_uimm_rs1val_0x5bbc8872_immval_0x0, I_slli_cg_cr_rs1_imm_edges_uimm_rs1val_0x5bbc8872_immval_0x0_str)
    118c:	00062383          	lw	x7,0(x12)
    1190:	00d38863          	beq	x7,x13,11a0 <I_slli_cg_cr_rs1_imm_edges_uimm_rs1val_0x5bbc8872_immval_0x0+0x18>
    1194:	3810046f          	jal	x8,1d14 <failedtest_x8_x7>
    1198:	00001188          	.word	0x00001188
    119c:	00006227          	.word	0x00006227
    11a0:	00460613          	addi	x12,x12,4

# Testcase cr_rs1_imm_edges_uimm (rs1 = 0x5bbc8872, imm = 1)
  RVTEST_TESTDATA_LOAD_INT(x9, x26) # load rs1: x26 = 0x5bbc8872
    11a4:	0004ad03          	lw	x26,0(x9)
    11a8:	00448493          	addi	x9,x9,4

000011ac <I_slli_cg_cr_rs1_imm_edges_uimm_rs1val_0x5bbc8872_immval_0x1>:
I_slli_cg_cr_rs1_imm_edges_uimm_rs1val_0x5bbc8872_immval_0x1:
  slli x25, x26, 1 # perform operation
    11ac:	001d1c93          	slli	x25,x26,0x1
  # Check if x25 contains the expected result. x12 is the signature ptr, x8 is the link ptr, x7 is a temp reg.
  RVTEST_SIGUPD(x12, x8, x7, x25, I_slli_cg_cr_rs1_imm_edges_uimm_rs1val_0x5bbc8872_immval_0x1, I_slli_cg_cr_rs1_imm_edges_uimm_rs1val_0x5bbc8872_immval_0x1_str)
    11b0:	00062383          	lw	x7,0(x12)
    11b4:	01938863          	beq	x7,x25,11c4 <I_slli_cg_cr_rs1_imm_edges_uimm_rs1val_0x5bbc8872_immval_0x1+0x18>
    11b8:	35d0046f          	jal	x8,1d14 <failedtest_x8_x7>
    11bc:	000011ac          	.word	0x000011ac
    11c0:	00006281          	.word	0x00006281
    11c4:	00460613          	addi	x12,x12,4

# Testcase cr_rs1_imm_edges_uimm (rs1 = 0x5bbc8872, imm = 19)
  RVTEST_TESTDATA_LOAD_INT(x9, x1) # load rs1: x1 = 0x5bbc8872
    11c8:	0004a083          	lw	x1,0(x9)
    11cc:	00448493          	addi	x9,x9,4

000011d0 <I_slli_cg_cr_rs1_imm_edges_uimm_rs1val_0x5bbc8872_immval_0x13>:
I_slli_cg_cr_rs1_imm_edges_uimm_rs1val_0x5bbc8872_immval_0x13:
  slli x5, x1, 19 # perform operation
    11d0:	01309293          	slli	x5,x1,0x13
  # Check if x5 contains the expected result. x12 is the signature ptr, x8 is the link ptr, x7 is a temp reg.
  RVTEST_SIGUPD(x12, x8, x7, x5, I_slli_cg_cr_rs1_imm_edges_uimm_rs1val_0x5bbc8872_immval_0x13, I_slli_cg_cr_rs1_imm_edges_uimm_rs1val_0x5bbc8872_immval_0x13_str)
    11d4:	00062383          	lw	x7,0(x12)
    11d8:	00538863          	beq	x7,x5,11e8 <I_slli_cg_cr_rs1_imm_edges_uimm_rs1val_0x5bbc8872_immval_0x13+0x18>
    11dc:	3390046f          	jal	x8,1d14 <failedtest_x8_x7>
    11e0:	000011d0          	.word	0x000011d0
    11e4:	000062db          	.word	0x000062db
    11e8:	00460613          	addi	x12,x12,4

# Testcase cr_rs1_imm_edges_uimm (rs1 = 0x5bbc8872, imm = 30)
  RVTEST_TESTDATA_LOAD_INT(x9, x29) # load rs1: x29 = 0x5bbc8872
    11ec:	0004ae83          	lw	x29,0(x9)
    11f0:	00448493          	addi	x9,x9,4

000011f4 <I_slli_cg_cr_rs1_imm_edges_uimm_rs1val_0x5bbc8872_immval_0x1e>:
I_slli_cg_cr_rs1_imm_edges_uimm_rs1val_0x5bbc8872_immval_0x1e:
  slli x23, x29, 30 # perform operation
    11f4:	01ee9b93          	slli	x23,x29,0x1e
  # Check if x23 contains the expected result. x12 is the signature ptr, x8 is the link ptr, x7 is a temp reg.
  RVTEST_SIGUPD(x12, x8, x7, x23, I_slli_cg_cr_rs1_imm_edges_uimm_rs1val_0x5bbc8872_immval_0x1e, I_slli_cg_cr_rs1_imm_edges_uimm_rs1val_0x5bbc8872_immval_0x1e_str)
    11f8:	00062383          	lw	x7,0(x12)
    11fc:	01738863          	beq	x7,x23,120c <I_slli_cg_cr_rs1_imm_edges_uimm_rs1val_0x5bbc8872_immval_0x1e+0x18>
    1200:	3150046f          	jal	x8,1d14 <failedtest_x8_x7>
    1204:	000011f4          	.word	0x000011f4
    1208:	00006336          	.word	0x00006336
    120c:	00460613          	addi	x12,x12,4

# Testcase cr_rs1_imm_edges_uimm (rs1 = 0x5bbc8872, imm = 31)
  RVTEST_TESTDATA_LOAD_INT(x9, x19) # load rs1: x19 = 0x5bbc8872
    1210:	0004a983          	lw	x19,0(x9)
    1214:	00448493          	addi	x9,x9,4

00001218 <I_slli_cg_cr_rs1_imm_edges_uimm_rs1val_0x5bbc8872_immval_0x1f>:
I_slli_cg_cr_rs1_imm_edges_uimm_rs1val_0x5bbc8872_immval_0x1f:
  slli x6, x19, 31 # perform operation
    1218:	01f99313          	slli	x6,x19,0x1f
  # Check if x6 contains the expected result. x12 is the signature ptr, x8 is the link ptr, x7 is a temp reg.
  RVTEST_SIGUPD(x12, x8, x7, x6, I_slli_cg_cr_rs1_imm_edges_uimm_rs1val_0x5bbc8872_immval_0x1f, I_slli_cg_cr_rs1_imm_edges_uimm_rs1val_0x5bbc8872_immval_0x1f_str)
    121c:	00062383          	lw	x7,0(x12)
    1220:	00638863          	beq	x7,x6,1230 <I_slli_cg_cr_rs1_imm_edges_uimm_rs1val_0x5bbc8872_immval_0x1f+0x18>
    1224:	2f10046f          	jal	x8,1d14 <failedtest_x8_x7>
    1228:	00001218          	.word	0x00001218
    122c:	00006391          	.word	0x00006391
    1230:	00460613          	addi	x12,x12,4

# Testcase cr_rs1_imm_edges_uimm (rs1 = 0xaaaaaaaa, imm = 0)
  RVTEST_TESTDATA_LOAD_INT(x9, x23) # load rs1: x23 = 0xaaaaaaaa
    1234:	0004ab83          	lw	x23,0(x9)
    1238:	00448493          	addi	x9,x9,4

0000123c <I_slli_cg_cr_rs1_imm_edges_uimm_rs1val_0xaaaaaaaa_immval_0x0>:
I_slli_cg_cr_rs1_imm_edges_uimm_rs1val_0xaaaaaaaa_immval_0x0:
  slli x19, x23, 0 # perform operation
    123c:	000b9993          	slli	x19,x23,0x0
  # Check if x19 contains the expected result. x12 is the signature ptr, x8 is the link ptr, x7 is a temp reg.
  RVTEST_SIGUPD(x12, x8, x7, x19, I_slli_cg_cr_rs1_imm_edges_uimm_rs1val_0xaaaaaaaa_immval_0x0, I_slli_cg_cr_rs1_imm_edges_uimm_rs1val_0xaaaaaaaa_immval_0x0_str)
    1240:	00062383          	lw	x7,0(x12)
    1244:	01338863          	beq	x7,x19,1254 <I_slli_cg_cr_rs1_imm_edges_uimm_rs1val_0xaaaaaaaa_immval_0x0+0x18>
    1248:	2cd0046f          	jal	x8,1d14 <failedtest_x8_x7>
    124c:	0000123c          	.word	0x0000123c
    1250:	000063ec          	.word	0x000063ec
    1254:	00460613          	addi	x12,x12,4

# Testcase cr_rs1_imm_edges_uimm (rs1 = 0xaaaaaaaa, imm = 1)
  RVTEST_TESTDATA_LOAD_INT(x9, x16) # load rs1: x16 = 0xaaaaaaaa
    1258:	0004a803          	lw	x16,0(x9)
    125c:	00448493          	addi	x9,x9,4

00001260 <I_slli_cg_cr_rs1_imm_edges_uimm_rs1val_0xaaaaaaaa_immval_0x1>:
I_slli_cg_cr_rs1_imm_edges_uimm_rs1val_0xaaaaaaaa_immval_0x1:
  slli x14, x16, 1 # perform operation
    1260:	00181713          	slli	x14,x16,0x1
  # Check if x14 contains the expected result. x12 is the signature ptr, x8 is the link ptr, x7 is a temp reg.
  RVTEST_SIGUPD(x12, x8, x7, x14, I_slli_cg_cr_rs1_imm_edges_uimm_rs1val_0xaaaaaaaa_immval_0x1, I_slli_cg_cr_rs1_imm_edges_uimm_rs1val_0xaaaaaaaa_immval_0x1_str)
    1264:	00062383          	lw	x7,0(x12)
    1268:	00e38863          	beq	x7,x14,1278 <I_slli_cg_cr_rs1_imm_edges_uimm_rs1val_0xaaaaaaaa_immval_0x1+0x18>
    126c:	2a90046f          	jal	x8,1d14 <failedtest_x8_x7>
    1270:	00001260          	.word	0x00001260
    1274:	00006446          	.word	0x00006446
    1278:	00460613          	addi	x12,x12,4

# Testcase cr_rs1_imm_edges_uimm (rs1 = 0xaaaaaaaa, imm = 19)
  RVTEST_TESTDATA_LOAD_INT(x9, x15) # load rs1: x15 = 0xaaaaaaaa
    127c:	0004a783          	lw	x15,0(x9)
    1280:	00448493          	addi	x9,x9,4

00001284 <I_slli_cg_cr_rs1_imm_edges_uimm_rs1val_0xaaaaaaaa_immval_0x13>:
I_slli_cg_cr_rs1_imm_edges_uimm_rs1val_0xaaaaaaaa_immval_0x13:
  slli x11, x15, 19 # perform operation
    1284:	01379593          	slli	x11,x15,0x13
  # Check if x11 contains the expected result. x12 is the signature ptr, x8 is the link ptr, x7 is a temp reg.
  RVTEST_SIGUPD(x12, x8, x7, x11, I_slli_cg_cr_rs1_imm_edges_uimm_rs1val_0xaaaaaaaa_immval_0x13, I_slli_cg_cr_rs1_imm_edges_uimm_rs1val_0xaaaaaaaa_immval_0x13_str)
    1288:	00062383          	lw	x7,0(x12)
    128c:	00b38863          	beq	x7,x11,129c <I_slli_cg_cr_rs1_imm_edges_uimm_rs1val_0xaaaaaaaa_immval_0x13+0x18>
    1290:	2850046f          	jal	x8,1d14 <failedtest_x8_x7>
    1294:	00001284          	.word	0x00001284
    1298:	000064a0          	.word	0x000064a0
    129c:	00460613          	addi	x12,x12,4

# Testcase cr_rs1_imm_edges_uimm (rs1 = 0xaaaaaaaa, imm = 30)
  RVTEST_TESTDATA_LOAD_INT(x9, x18) # load rs1: x18 = 0xaaaaaaaa
    12a0:	0004a903          	lw	x18,0(x9)
    12a4:	00448493          	addi	x9,x9,4

000012a8 <I_slli_cg_cr_rs1_imm_edges_uimm_rs1val_0xaaaaaaaa_immval_0x1e>:
I_slli_cg_cr_rs1_imm_edges_uimm_rs1val_0xaaaaaaaa_immval_0x1e:
  slli x22, x18, 30 # perform operation
    12a8:	01e91b13          	slli	x22,x18,0x1e
  # Check if x22 contains the expected result. x12 is the signature ptr, x8 is the link ptr, x7 is a temp reg.
  RVTEST_SIGUPD(x12, x8, x7, x22, I_slli_cg_cr_rs1_imm_edges_uimm_rs1val_0xaaaaaaaa_immval_0x1e, I_slli_cg_cr_rs1_imm_edges_uimm_rs1val_0xaaaaaaaa_immval_0x1e_str)
    12ac:	00062383          	lw	x7,0(x12)
    12b0:	01638863          	beq	x7,x22,12c0 <I_slli_cg_cr_rs1_imm_edges_uimm_rs1val_0xaaaaaaaa_immval_0x1e+0x18>
    12b4:	2610046f          	jal	x8,1d14 <failedtest_x8_x7>
    12b8:	000012a8          	.word	0x000012a8
    12bc:	000064fb          	.word	0x000064fb
    12c0:	00460613          	addi	x12,x12,4

# Testcase cr_rs1_imm_edges_uimm (rs1 = 0xaaaaaaaa, imm = 31)
  RVTEST_TESTDATA_LOAD_INT(x9, x31) # load rs1: x31 = 0xaaaaaaaa
    12c4:	0004af83          	lw	x31,0(x9)
    12c8:	00448493          	addi	x9,x9,4

000012cc <I_slli_cg_cr_rs1_imm_edges_uimm_rs1val_0xaaaaaaaa_immval_0x1f>:
I_slli_cg_cr_rs1_imm_edges_uimm_rs1val_0xaaaaaaaa_immval_0x1f:
  slli x2, x31, 31 # perform operation
    12cc:	01ff9113          	slli	x2,x31,0x1f
  # Check if x2 contains the expected result. x12 is the signature ptr, x8 is the link ptr, x7 is a temp reg.
  RVTEST_SIGUPD(x12, x8, x7, x2, I_slli_cg_cr_rs1_imm_edges_uimm_rs1val_0xaaaaaaaa_immval_0x1f, I_slli_cg_cr_rs1_imm_edges_uimm_rs1val_0xaaaaaaaa_immval_0x1f_str)
    12d0:	00062383          	lw	x7,0(x12)
    12d4:	00238863          	beq	x7,x2,12e4 <I_slli_cg_cr_rs1_imm_edges_uimm_rs1val_0xaaaaaaaa_immval_0x1f+0x18>
    12d8:	23d0046f          	jal	x8,1d14 <failedtest_x8_x7>
    12dc:	000012cc          	.word	0x000012cc
    12e0:	00006556          	.word	0x00006556
    12e4:	00460613          	addi	x12,x12,4

# Testcase cr_rs1_imm_edges_uimm (rs1 = 0x55555555, imm = 0)
  RVTEST_TESTDATA_LOAD_INT(x9, x6) # load rs1: x6 = 0x55555555
    12e8:	0004a303          	lw	x6,0(x9)
    12ec:	00448493          	addi	x9,x9,4

000012f0 <I_slli_cg_cr_rs1_imm_edges_uimm_rs1val_0x55555555_immval_0x0>:
I_slli_cg_cr_rs1_imm_edges_uimm_rs1val_0x55555555_immval_0x0:
  slli x25, x6, 0 # perform operation
    12f0:	00031c93          	slli	x25,x6,0x0
  # Check if x25 contains the expected result. x12 is the signature ptr, x8 is the link ptr, x7 is a temp reg.
  RVTEST_SIGUPD(x12, x8, x7, x25, I_slli_cg_cr_rs1_imm_edges_uimm_rs1val_0x55555555_immval_0x0, I_slli_cg_cr_rs1_imm_edges_uimm_rs1val_0x55555555_immval_0x0_str)
    12f4:	00062383          	lw	x7,0(x12)
    12f8:	01938863          	beq	x7,x25,1308 <I_slli_cg_cr_rs1_imm_edges_uimm_rs1val_0x55555555_immval_0x0+0x18>
    12fc:	2190046f          	jal	x8,1d14 <failedtest_x8_x7>
    1300:	000012f0          	.word	0x000012f0
    1304:	000065b1          	.word	0x000065b1
    1308:	00460613          	addi	x12,x12,4

# Testcase cr_rs1_imm_edges_uimm (rs1 = 0x55555555, imm = 1)
  RVTEST_TESTDATA_LOAD_INT(x9, x5) # load rs1: x5 = 0x55555555
    130c:	0004a283          	lw	x5,0(x9)
    1310:	00448493          	addi	x9,x9,4

00001314 <I_slli_cg_cr_rs1_imm_edges_uimm_rs1val_0x55555555_immval_0x1>:
I_slli_cg_cr_rs1_imm_edges_uimm_rs1val_0x55555555_immval_0x1:
  slli x24, x5, 1 # perform operation
    1314:	00129c13          	slli	x24,x5,0x1
  # Check if x24 contains the expected result. x12 is the signature ptr, x8 is the link ptr, x7 is a temp reg.
  RVTEST_SIGUPD(x12, x8, x7, x24, I_slli_cg_cr_rs1_imm_edges_uimm_rs1val_0x55555555_immval_0x1, I_slli_cg_cr_rs1_imm_edges_uimm_rs1val_0x55555555_immval_0x1_str)
    1318:	00062383          	lw	x7,0(x12)
    131c:	01838863          	beq	x7,x24,132c <I_slli_cg_cr_rs1_imm_edges_uimm_rs1val_0x55555555_immval_0x1+0x18>
    1320:	1f50046f          	jal	x8,1d14 <failedtest_x8_x7>
    1324:	00001314          	.word	0x00001314
    1328:	0000660b          	.word	0x0000660b
    132c:	00460613          	addi	x12,x12,4

# Testcase cr_rs1_imm_edges_uimm (rs1 = 0x55555555, imm = 19)
  RVTEST_TESTDATA_LOAD_INT(x9, x28) # load rs1: x28 = 0x55555555
    1330:	0004ae03          	lw	x28,0(x9)
    1334:	00448493          	addi	x9,x9,4

00001338 <I_slli_cg_cr_rs1_imm_edges_uimm_rs1val_0x55555555_immval_0x13>:
I_slli_cg_cr_rs1_imm_edges_uimm_rs1val_0x55555555_immval_0x13:
  slli x6, x28, 19 # perform operation
    1338:	013e1313          	slli	x6,x28,0x13
  # Check if x6 contains the expected result. x12 is the signature ptr, x8 is the link ptr, x7 is a temp reg.
  RVTEST_SIGUPD(x12, x8, x7, x6, I_slli_cg_cr_rs1_imm_edges_uimm_rs1val_0x55555555_immval_0x13, I_slli_cg_cr_rs1_imm_edges_uimm_rs1val_0x55555555_immval_0x13_str)
    133c:	00062383          	lw	x7,0(x12)
    1340:	00638863          	beq	x7,x6,1350 <I_slli_cg_cr_rs1_imm_edges_uimm_rs1val_0x55555555_immval_0x13+0x18>
    1344:	1d10046f          	jal	x8,1d14 <failedtest_x8_x7>
    1348:	00001338          	.word	0x00001338
    134c:	00006665          	.word	0x00006665
    1350:	00460613          	addi	x12,x12,4

# Testcase cr_rs1_imm_edges_uimm (rs1 = 0x55555555, imm = 30)
  RVTEST_TESTDATA_LOAD_INT(x9, x16) # load rs1: x16 = 0x55555555
    1354:	0004a803          	lw	x16,0(x9)
    1358:	00448493          	addi	x9,x9,4

0000135c <I_slli_cg_cr_rs1_imm_edges_uimm_rs1val_0x55555555_immval_0x1e>:
I_slli_cg_cr_rs1_imm_edges_uimm_rs1val_0x55555555_immval_0x1e:
  slli x5, x16, 30 # perform operation
    135c:	01e81293          	slli	x5,x16,0x1e
  # Check if x5 contains the expected result. x12 is the signature ptr, x8 is the link ptr, x7 is a temp reg.
  RVTEST_SIGUPD(x12, x8, x7, x5, I_slli_cg_cr_rs1_imm_edges_uimm_rs1val_0x55555555_immval_0x1e, I_slli_cg_cr_rs1_imm_edges_uimm_rs1val_0x55555555_immval_0x1e_str)
    1360:	00062383          	lw	x7,0(x12)
    1364:	00538863          	beq	x7,x5,1374 <I_slli_cg_cr_rs1_imm_edges_uimm_rs1val_0x55555555_immval_0x1e+0x18>
    1368:	1ad0046f          	jal	x8,1d14 <failedtest_x8_x7>
    136c:	0000135c          	.word	0x0000135c
    1370:	000066c0          	.word	0x000066c0
    1374:	00460613          	addi	x12,x12,4

# Testcase cr_rs1_imm_edges_uimm (rs1 = 0x55555555, imm = 31)
  RVTEST_TESTDATA_LOAD_INT(x9, x31) # load rs1: x31 = 0x55555555
    1378:	0004af83          	lw	x31,0(x9)
    137c:	00448493          	addi	x9,x9,4

00001380 <I_slli_cg_cr_rs1_imm_edges_uimm_rs1val_0x55555555_immval_0x1f>:
I_slli_cg_cr_rs1_imm_edges_uimm_rs1val_0x55555555_immval_0x1f:
  slli x6, x31, 31 # perform operation
    1380:	01ff9313          	slli	x6,x31,0x1f
  # Check if x6 contains the expected result. x12 is the signature ptr, x8 is the link ptr, x7 is a temp reg.
  RVTEST_SIGUPD(x12, x8, x7, x6, I_slli_cg_cr_rs1_imm_edges_uimm_rs1val_0x55555555_immval_0x1f, I_slli_cg_cr_rs1_imm_edges_uimm_rs1val_0x55555555_immval_0x1f_str)
    1384:	00062383          	lw	x7,0(x12)
    1388:	00638863          	beq	x7,x6,1398 <I_slli_cg_cr_rs1_imm_edges_uimm_rs1val_0x55555555_immval_0x1f+0x18>
    138c:	1890046f          	jal	x8,1d14 <failedtest_x8_x7>
    1390:	00001380          	.word	0x00001380
    1394:	0000671b          	.word	0x0000671b
    1398:	00460613          	addi	x12,x12,4
/////////////////////////////////
// cmp_rd_rs1
/////////////////////////////////

# Testcase cmp_rd_rs1 (Test rd = rs1 = x0)
  RVTEST_TESTDATA_LOAD_INT(x9, x0) # load rs1: x0 = 0x0cadda73
    139c:	0004a003          	lw	x0,0(x9)
    13a0:	00448493          	addi	x9,x9,4

000013a4 <I_slli_cg_cmp_rd_rs1_b0>:
I_slli_cg_cmp_rd_rs1_b0:
  slli x0, x0, 25 # perform operation
    13a4:	01901013          	slli	x0,x0,0x19
  # Check if x0 contains the expected result. x12 is the signature ptr, x8 is the link ptr, x7 is a temp reg.
  RVTEST_SIGUPD(x12, x8, x7, x0, I_slli_cg_cmp_rd_rs1_b0, I_slli_cg_cmp_rd_rs1_b0_str)
    13a8:	00062383          	lw	x7,0(x12)
    13ac:	00038863          	beq	x7,x0,13bc <I_slli_cg_cmp_rd_rs1_b0+0x18>
    13b0:	1650046f          	jal	x8,1d14 <failedtest_x8_x7>
    13b4:	000013a4          	.word	0x000013a4
    13b8:	00006776          	.word	0x00006776
    13bc:	00460613          	addi	x12,x12,4

# Testcase cmp_rd_rs1 (Test rd = rs1 = x1)
  RVTEST_TESTDATA_LOAD_INT(x9, x1) # load rs1: x1 = 0x029588b4
    13c0:	0004a083          	lw	x1,0(x9)
    13c4:	00448493          	addi	x9,x9,4

000013c8 <I_slli_cg_cmp_rd_rs1_b1>:
I_slli_cg_cmp_rd_rs1_b1:
  slli x1, x1, 14 # perform operation
    13c8:	00e09093          	slli	x1,x1,0xe
  # Check if x1 contains the expected result. x12 is the signature ptr, x8 is the link ptr, x7 is a temp reg.
  RVTEST_SIGUPD(x12, x8, x7, x1, I_slli_cg_cmp_rd_rs1_b1, I_slli_cg_cmp_rd_rs1_b1_str)
    13cc:	00062383          	lw	x7,0(x12)
    13d0:	00138863          	beq	x7,x1,13e0 <I_slli_cg_cmp_rd_rs1_b1+0x18>
    13d4:	1410046f          	jal	x8,1d14 <failedtest_x8_x7>
    13d8:	000013c8          	.word	0x000013c8
    13dc:	000067aa          	.word	0x000067aa
    13e0:	00460613          	addi	x12,x12,4

# Testcase cmp_rd_rs1 (Test rd = rs1 = x2)
  RVTEST_TESTDATA_LOAD_INT(x9, x2) # load rs1: x2 = 0xa4fa4efa
    13e4:	0004a103          	lw	x2,0(x9)
    13e8:	00448493          	addi	x9,x9,4

000013ec <I_slli_cg_cmp_rd_rs1_b2>:
I_slli_cg_cmp_rd_rs1_b2:
  slli x2, x2, 12 # perform operation
    13ec:	00c11113          	slli	x2,x2,0xc
  # Check if x2 contains the expected result. x12 is the signature ptr, x8 is the link ptr, x7 is a temp reg.
  RVTEST_SIGUPD(x12, x8, x7, x2, I_slli_cg_cmp_rd_rs1_b2, I_slli_cg_cmp_rd_rs1_b2_str)
    13f0:	00062383          	lw	x7,0(x12)
    13f4:	00238863          	beq	x7,x2,1404 <I_slli_cg_cmp_rd_rs1_b2+0x18>
    13f8:	11d0046f          	jal	x8,1d14 <failedtest_x8_x7>
    13fc:	000013ec          	.word	0x000013ec
    1400:	000067de          	.word	0x000067de
    1404:	00460613          	addi	x12,x12,4

# Testcase cmp_rd_rs1 (Test rd = rs1 = x3)
  RVTEST_TESTDATA_LOAD_INT(x9, x3) # load rs1: x3 = 0x8da4aeea
    1408:	0004a183          	lw	x3,0(x9)
    140c:	00448493          	addi	x9,x9,4

00001410 <I_slli_cg_cmp_rd_rs1_b3>:
I_slli_cg_cmp_rd_rs1_b3:
  slli x3, x3, 28 # perform operation
    1410:	01c19193          	slli	x3,x3,0x1c
  # Check if x3 contains the expected result. x12 is the signature ptr, x8 is the link ptr, x7 is a temp reg.
  RVTEST_SIGUPD(x12, x8, x7, x3, I_slli_cg_cmp_rd_rs1_b3, I_slli_cg_cmp_rd_rs1_b3_str)
    1414:	00062383          	lw	x7,0(x12)
    1418:	00338863          	beq	x7,x3,1428 <I_slli_cg_cmp_rd_rs1_b3+0x18>
    141c:	0f90046f          	jal	x8,1d14 <failedtest_x8_x7>
    1420:	00001410          	.word	0x00001410
    1424:	00006812          	.word	0x00006812
    1428:	00460613          	addi	x12,x12,4

# Testcase cmp_rd_rs1 (Test rd = rs1 = x4)
  RVTEST_TESTDATA_LOAD_INT(x9, x4) # load rs1: x4 = 0xb6e11713
    142c:	0004a203          	lw	x4,0(x9)
    1430:	00448493          	addi	x9,x9,4

00001434 <I_slli_cg_cmp_rd_rs1_b4>:
I_slli_cg_cmp_rd_rs1_b4:
  slli x4, x4, 8 # perform operation
    1434:	00821213          	slli	x4,x4,0x8
  # Check if x4 contains the expected result. x12 is the signature ptr, x8 is the link ptr, x7 is a temp reg.
  RVTEST_SIGUPD(x12, x8, x7, x4, I_slli_cg_cmp_rd_rs1_b4, I_slli_cg_cmp_rd_rs1_b4_str)
    1438:	00062383          	lw	x7,0(x12)
    143c:	00438863          	beq	x7,x4,144c <I_slli_cg_cmp_rd_rs1_b4+0x18>
    1440:	0d50046f          	jal	x8,1d14 <failedtest_x8_x7>
    1444:	00001434          	.word	0x00001434
    1448:	00006846          	.word	0x00006846
    144c:	00460613          	addi	x12,x12,4

# Testcase cmp_rd_rs1 (Test rd = rs1 = x5)
  RVTEST_TESTDATA_LOAD_INT(x9, x5) # load rs1: x5 = 0x55e341fd
    1450:	0004a283          	lw	x5,0(x9)
    1454:	00448493          	addi	x9,x9,4

00001458 <I_slli_cg_cmp_rd_rs1_b5>:
I_slli_cg_cmp_rd_rs1_b5:
  slli x5, x5, 10 # perform operation
    1458:	00a29293          	slli	x5,x5,0xa
  # Check if x5 contains the expected result. x12 is the signature ptr, x8 is the link ptr, x7 is a temp reg.
  RVTEST_SIGUPD(x12, x8, x7, x5, I_slli_cg_cmp_rd_rs1_b5, I_slli_cg_cmp_rd_rs1_b5_str)
    145c:	00062383          	lw	x7,0(x12)
    1460:	00538863          	beq	x7,x5,1470 <I_slli_cg_cmp_rd_rs1_b5+0x18>
    1464:	0b10046f          	jal	x8,1d14 <failedtest_x8_x7>
    1468:	00001458          	.word	0x00001458
    146c:	0000687a          	.word	0x0000687a
    1470:	00460613          	addi	x12,x12,4

# Testcase cmp_rd_rs1 (Test rd = rs1 = x6)
  RVTEST_TESTDATA_LOAD_INT(x9, x6) # load rs1: x6 = 0xbc3f99b4
    1474:	0004a303          	lw	x6,0(x9)
    1478:	00448493          	addi	x9,x9,4

0000147c <I_slli_cg_cmp_rd_rs1_b6>:
I_slli_cg_cmp_rd_rs1_b6:
  slli x6, x6, 9 # perform operation
    147c:	00931313          	slli	x6,x6,0x9
  # Check if x6 contains the expected result. x12 is the signature ptr, x8 is the link ptr, x7 is a temp reg.
  RVTEST_SIGUPD(x12, x8, x7, x6, I_slli_cg_cmp_rd_rs1_b6, I_slli_cg_cmp_rd_rs1_b6_str)
    1480:	00062383          	lw	x7,0(x12)
    1484:	00638863          	beq	x7,x6,1494 <I_slli_cg_cmp_rd_rs1_b6+0x18>
    1488:	08d0046f          	jal	x8,1d14 <failedtest_x8_x7>
    148c:	0000147c          	.word	0x0000147c
    1490:	000068ae          	.word	0x000068ae
    1494:	00460613          	addi	x12,x12,4

  mv x13, x7 # switch temp register to avoid conflict with test
    1498:	00038693          	addi	x13,x7,0
  mv x14, x8 # switch link pointer register to avoid conflict with test
    149c:	00040713          	addi	x14,x8,0
# Testcase cmp_rd_rs1 (Test rd = rs1 = x7)
  RVTEST_TESTDATA_LOAD_INT(x9, x7) # load rs1: x7 = 0x65012c56
    14a0:	0004a383          	lw	x7,0(x9)
    14a4:	00448493          	addi	x9,x9,4

000014a8 <I_slli_cg_cmp_rd_rs1_b7>:
I_slli_cg_cmp_rd_rs1_b7:
  slli x7, x7, 29 # perform operation
    14a8:	01d39393          	slli	x7,x7,0x1d
  # Check if x7 contains the expected result. x12 is the signature ptr, x14 is the link ptr, x13 is a temp reg.
  RVTEST_SIGUPD(x12, x14, x13, x7, I_slli_cg_cmp_rd_rs1_b7, I_slli_cg_cmp_rd_rs1_b7_str)
    14ac:	00062683          	lw	x13,0(x12)
    14b0:	00768863          	beq	x13,x7,14c0 <I_slli_cg_cmp_rd_rs1_b7+0x18>
    14b4:	0890076f          	jal	x14,1d3c <failedtest_x14_x13>
    14b8:	000014a8          	.word	0x000014a8
    14bc:	000068e2          	.word	0x000068e2
    14c0:	00460613          	addi	x12,x12,4

# Testcase cmp_rd_rs1 (Test rd = rs1 = x8)
  RVTEST_TESTDATA_LOAD_INT(x9, x8) # load rs1: x8 = 0xfda22a6d
    14c4:	0004a403          	lw	x8,0(x9)
    14c8:	00448493          	addi	x9,x9,4

000014cc <I_slli_cg_cmp_rd_rs1_b8>:
I_slli_cg_cmp_rd_rs1_b8:
  slli x8, x8, 18 # perform operation
    14cc:	01241413          	slli	x8,x8,0x12
  # Check if x8 contains the expected result. x12 is the signature ptr, x14 is the link ptr, x13 is a temp reg.
  RVTEST_SIGUPD(x12, x14, x13, x8, I_slli_cg_cmp_rd_rs1_b8, I_slli_cg_cmp_rd_rs1_b8_str)
    14d0:	00062683          	lw	x13,0(x12)
    14d4:	00868863          	beq	x13,x8,14e4 <I_slli_cg_cmp_rd_rs1_b8+0x18>
    14d8:	0650076f          	jal	x14,1d3c <failedtest_x14_x13>
    14dc:	000014cc          	.word	0x000014cc
    14e0:	00006916          	.word	0x00006916
    14e4:	00460613          	addi	x12,x12,4

  mv x29, x9 # switch data pointer register to avoid conflict with test
    14e8:	00048e93          	addi	x29,x9,0
# Testcase cmp_rd_rs1 (Test rd = rs1 = x9)
  RVTEST_TESTDATA_LOAD_INT(x29, x9) # load rs1: x9 = 0xbe8525eb
    14ec:	000ea483          	lw	x9,0(x29)
    14f0:	004e8e93          	addi	x29,x29,4

000014f4 <I_slli_cg_cmp_rd_rs1_b9>:
I_slli_cg_cmp_rd_rs1_b9:
  slli x9, x9, 10 # perform operation
    14f4:	00a49493          	slli	x9,x9,0xa
  # Check if x9 contains the expected result. x12 is the signature ptr, x14 is the link ptr, x13 is a temp reg.
  RVTEST_SIGUPD(x12, x14, x13, x9, I_slli_cg_cmp_rd_rs1_b9, I_slli_cg_cmp_rd_rs1_b9_str)
    14f8:	00062683          	lw	x13,0(x12)
    14fc:	00968863          	beq	x13,x9,150c <I_slli_cg_cmp_rd_rs1_b9+0x18>
    1500:	03d0076f          	jal	x14,1d3c <failedtest_x14_x13>
    1504:	000014f4          	.word	0x000014f4
    1508:	0000694a          	.word	0x0000694a
    150c:	00460613          	addi	x12,x12,4

# Testcase cmp_rd_rs1 (Test rd = rs1 = x10)
  RVTEST_TESTDATA_LOAD_INT(x29, x10) # load rs1: x10 = 0xd6ca6bff
    1510:	000ea503          	lw	x10,0(x29)
    1514:	004e8e93          	addi	x29,x29,4

00001518 <I_slli_cg_cmp_rd_rs1_b10>:
I_slli_cg_cmp_rd_rs1_b10:
  slli x10, x10, 31 # perform operation
    1518:	01f51513          	slli	x10,x10,0x1f
  # Check if x10 contains the expected result. x12 is the signature ptr, x14 is the link ptr, x13 is a temp reg.
  RVTEST_SIGUPD(x12, x14, x13, x10, I_slli_cg_cmp_rd_rs1_b10, I_slli_cg_cmp_rd_rs1_b10_str)
    151c:	00062683          	lw	x13,0(x12)
    1520:	00a68863          	beq	x13,x10,1530 <I_slli_cg_cmp_rd_rs1_b10+0x18>
    1524:	0190076f          	jal	x14,1d3c <failedtest_x14_x13>
    1528:	00001518          	.word	0x00001518
    152c:	0000697e          	.word	0x0000697e
    1530:	00460613          	addi	x12,x12,4

# Testcase cmp_rd_rs1 (Test rd = rs1 = x11)
  RVTEST_TESTDATA_LOAD_INT(x29, x11) # load rs1: x11 = 0x92eb29d5
    1534:	000ea583          	lw	x11,0(x29)
    1538:	004e8e93          	addi	x29,x29,4

0000153c <I_slli_cg_cmp_rd_rs1_b11>:
I_slli_cg_cmp_rd_rs1_b11:
  slli x11, x11, 25 # perform operation
    153c:	01959593          	slli	x11,x11,0x19
  # Check if x11 contains the expected result. x12 is the signature ptr, x14 is the link ptr, x13 is a temp reg.
  RVTEST_SIGUPD(x12, x14, x13, x11, I_slli_cg_cmp_rd_rs1_b11, I_slli_cg_cmp_rd_rs1_b11_str)
    1540:	00062683          	lw	x13,0(x12)
    1544:	00b68863          	beq	x13,x11,1554 <I_slli_cg_cmp_rd_rs1_b11+0x18>
    1548:	7f40076f          	jal	x14,1d3c <failedtest_x14_x13>
    154c:	0000153c          	.word	0x0000153c
    1550:	000069b3          	.word	0x000069b3
    1554:	00460613          	addi	x12,x12,4

  mv x30, x12 # switch signature pointer register to avoid conflict with test
    1558:	00060f13          	addi	x30,x12,0
# Testcase cmp_rd_rs1 (Test rd = rs1 = x12)
  RVTEST_TESTDATA_LOAD_INT(x29, x12) # load rs1: x12 = 0xbaa87b13
    155c:	000ea603          	lw	x12,0(x29)
    1560:	004e8e93          	addi	x29,x29,4

00001564 <I_slli_cg_cmp_rd_rs1_b12>:
I_slli_cg_cmp_rd_rs1_b12:
  slli x12, x12, 1 # perform operation
    1564:	00161613          	slli	x12,x12,0x1
  # Check if x12 contains the expected result. x30 is the signature ptr, x14 is the link ptr, x13 is a temp reg.
  RVTEST_SIGUPD(x30, x14, x13, x12, I_slli_cg_cmp_rd_rs1_b12, I_slli_cg_cmp_rd_rs1_b12_str)
    1568:	000f2683          	lw	x13,0(x30)
    156c:	00c68863          	beq	x13,x12,157c <I_slli_cg_cmp_rd_rs1_b12+0x18>
    1570:	7cc0076f          	jal	x14,1d3c <failedtest_x14_x13>
    1574:	00001564          	.word	0x00001564
    1578:	000069e8          	.word	0x000069e8
    157c:	004f0f13          	addi	x30,x30,4

  mv x4, x13 # switch temp register to avoid conflict with test
    1580:	00068213          	addi	x4,x13,0
  mv x5, x14 # switch link pointer register to avoid conflict with test
    1584:	00070293          	addi	x5,x14,0
# Testcase cmp_rd_rs1 (Test rd = rs1 = x13)
  RVTEST_TESTDATA_LOAD_INT(x29, x13) # load rs1: x13 = 0xfb354442
    1588:	000ea683          	lw	x13,0(x29)
    158c:	004e8e93          	addi	x29,x29,4

00001590 <I_slli_cg_cmp_rd_rs1_b13>:
I_slli_cg_cmp_rd_rs1_b13:
  slli x13, x13, 6 # perform operation
    1590:	00669693          	slli	x13,x13,0x6
  # Check if x13 contains the expected result. x30 is the signature ptr, x5 is the link ptr, x4 is a temp reg.
  RVTEST_SIGUPD(x30, x5, x4, x13, I_slli_cg_cmp_rd_rs1_b13, I_slli_cg_cmp_rd_rs1_b13_str)
    1594:	000f2203          	lw	x4,0(x30)
    1598:	00d20863          	beq	x4,x13,15a8 <I_slli_cg_cmp_rd_rs1_b13+0x18>
    159c:	760002ef          	jal	x5,1cfc <failedtest_x5_x4>
    15a0:	00001590          	.word	0x00001590
    15a4:	00006a1d          	.word	0x00006a1d
    15a8:	004f0f13          	addi	x30,x30,4

# Testcase cmp_rd_rs1 (Test rd = rs1 = x14)
  RVTEST_TESTDATA_LOAD_INT(x29, x14) # load rs1: x14 = 0xefe5946f
    15ac:	000ea703          	lw	x14,0(x29)
    15b0:	004e8e93          	addi	x29,x29,4

000015b4 <I_slli_cg_cmp_rd_rs1_b14>:
I_slli_cg_cmp_rd_rs1_b14:
  slli x14, x14, 1 # perform operation
    15b4:	00171713          	slli	x14,x14,0x1
  # Check if x14 contains the expected result. x30 is the signature ptr, x5 is the link ptr, x4 is a temp reg.
  RVTEST_SIGUPD(x30, x5, x4, x14, I_slli_cg_cmp_rd_rs1_b14, I_slli_cg_cmp_rd_rs1_b14_str)
    15b8:	000f2203          	lw	x4,0(x30)
    15bc:	00e20863          	beq	x4,x14,15cc <I_slli_cg_cmp_rd_rs1_b14+0x18>
    15c0:	73c002ef          	jal	x5,1cfc <failedtest_x5_x4>
    15c4:	000015b4          	.word	0x000015b4
    15c8:	00006a52          	.word	0x00006a52
    15cc:	004f0f13          	addi	x30,x30,4

# Testcase cmp_rd_rs1 (Test rd = rs1 = x15)
  RVTEST_TESTDATA_LOAD_INT(x29, x15) # load rs1: x15 = 0x82b35952
    15d0:	000ea783          	lw	x15,0(x29)
    15d4:	004e8e93          	addi	x29,x29,4

000015d8 <I_slli_cg_cmp_rd_rs1_b15>:
I_slli_cg_cmp_rd_rs1_b15:
  slli x15, x15, 23 # perform operation
    15d8:	01779793          	slli	x15,x15,0x17
  # Check if x15 contains the expected result. x30 is the signature ptr, x5 is the link ptr, x4 is a temp reg.
  RVTEST_SIGUPD(x30, x5, x4, x15, I_slli_cg_cmp_rd_rs1_b15, I_slli_cg_cmp_rd_rs1_b15_str)
    15dc:	000f2203          	lw	x4,0(x30)
    15e0:	00f20863          	beq	x4,x15,15f0 <I_slli_cg_cmp_rd_rs1_b15+0x18>
    15e4:	718002ef          	jal	x5,1cfc <failedtest_x5_x4>
    15e8:	000015d8          	.word	0x000015d8
    15ec:	00006a87          	.word	0x00006a87
    15f0:	004f0f13          	addi	x30,x30,4

# Testcase cmp_rd_rs1 (Test rd = rs1 = x16)
  RVTEST_TESTDATA_LOAD_INT(x29, x16) # load rs1: x16 = 0xa2638b84
    15f4:	000ea803          	lw	x16,0(x29)
    15f8:	004e8e93          	addi	x29,x29,4

000015fc <I_slli_cg_cmp_rd_rs1_b16>:
I_slli_cg_cmp_rd_rs1_b16:
  slli x16, x16, 2 # perform operation
    15fc:	00281813          	slli	x16,x16,0x2
  # Check if x16 contains the expected result. x30 is the signature ptr, x5 is the link ptr, x4 is a temp reg.
  RVTEST_SIGUPD(x30, x5, x4, x16, I_slli_cg_cmp_rd_rs1_b16, I_slli_cg_cmp_rd_rs1_b16_str)
    1600:	000f2203          	lw	x4,0(x30)
    1604:	01020863          	beq	x4,x16,1614 <I_slli_cg_cmp_rd_rs1_b16+0x18>
    1608:	6f4002ef          	jal	x5,1cfc <failedtest_x5_x4>
    160c:	000015fc          	.word	0x000015fc
    1610:	00006abc          	.word	0x00006abc
    1614:	004f0f13          	addi	x30,x30,4

# Testcase cmp_rd_rs1 (Test rd = rs1 = x17)
  RVTEST_TESTDATA_LOAD_INT(x29, x17) # load rs1: x17 = 0xb2790fcd
    1618:	000ea883          	lw	x17,0(x29)
    161c:	004e8e93          	addi	x29,x29,4

00001620 <I_slli_cg_cmp_rd_rs1_b17>:
I_slli_cg_cmp_rd_rs1_b17:
  slli x17, x17, 20 # perform operation
    1620:	01489893          	slli	x17,x17,0x14
  # Check if x17 contains the expected result. x30 is the signature ptr, x5 is the link ptr, x4 is a temp reg.
  RVTEST_SIGUPD(x30, x5, x4, x17, I_slli_cg_cmp_rd_rs1_b17, I_slli_cg_cmp_rd_rs1_b17_str)
    1624:	000f2203          	lw	x4,0(x30)
    1628:	01120863          	beq	x4,x17,1638 <I_slli_cg_cmp_rd_rs1_b17+0x18>
    162c:	6d0002ef          	jal	x5,1cfc <failedtest_x5_x4>
    1630:	00001620          	.word	0x00001620
    1634:	00006af1          	.word	0x00006af1
    1638:	004f0f13          	addi	x30,x30,4

# Testcase cmp_rd_rs1 (Test rd = rs1 = x18)
  RVTEST_TESTDATA_LOAD_INT(x29, x18) # load rs1: x18 = 0x7e3d29b2
    163c:	000ea903          	lw	x18,0(x29)
    1640:	004e8e93          	addi	x29,x29,4

00001644 <I_slli_cg_cmp_rd_rs1_b18>:
I_slli_cg_cmp_rd_rs1_b18:
  slli x18, x18, 23 # perform operation
    1644:	01791913          	slli	x18,x18,0x17
  # Check if x18 contains the expected result. x30 is the signature ptr, x5 is the link ptr, x4 is a temp reg.
  RVTEST_SIGUPD(x30, x5, x4, x18, I_slli_cg_cmp_rd_rs1_b18, I_slli_cg_cmp_rd_rs1_b18_str)
    1648:	000f2203          	lw	x4,0(x30)
    164c:	01220863          	beq	x4,x18,165c <I_slli_cg_cmp_rd_rs1_b18+0x18>
    1650:	6ac002ef          	jal	x5,1cfc <failedtest_x5_x4>
    1654:	00001644          	.word	0x00001644
    1658:	00006b26          	.word	0x00006b26
    165c:	004f0f13          	addi	x30,x30,4

# Testcase cmp_rd_rs1 (Test rd = rs1 = x19)
  RVTEST_TESTDATA_LOAD_INT(x29, x19) # load rs1: x19 = 0x5acc1204
    1660:	000ea983          	lw	x19,0(x29)
    1664:	004e8e93          	addi	x29,x29,4

00001668 <I_slli_cg_cmp_rd_rs1_b19>:
I_slli_cg_cmp_rd_rs1_b19:
  slli x19, x19, 19 # perform operation
    1668:	01399993          	slli	x19,x19,0x13
  # Check if x19 contains the expected result. x30 is the signature ptr, x5 is the link ptr, x4 is a temp reg.
  RVTEST_SIGUPD(x30, x5, x4, x19, I_slli_cg_cmp_rd_rs1_b19, I_slli_cg_cmp_rd_rs1_b19_str)
    166c:	000f2203          	lw	x4,0(x30)
    1670:	01320863          	beq	x4,x19,1680 <I_slli_cg_cmp_rd_rs1_b19+0x18>
    1674:	688002ef          	jal	x5,1cfc <failedtest_x5_x4>
    1678:	00001668          	.word	0x00001668
    167c:	00006b5b          	.word	0x00006b5b
    1680:	004f0f13          	addi	x30,x30,4

# Testcase cmp_rd_rs1 (Test rd = rs1 = x20)
  RVTEST_TESTDATA_LOAD_INT(x29, x20) # load rs1: x20 = 0x9b1ce959
    1684:	000eaa03          	lw	x20,0(x29)
    1688:	004e8e93          	addi	x29,x29,4

0000168c <I_slli_cg_cmp_rd_rs1_b20>:
I_slli_cg_cmp_rd_rs1_b20:
  slli x20, x20, 0 # perform operation
    168c:	000a1a13          	slli	x20,x20,0x0
  # Check if x20 contains the expected result. x30 is the signature ptr, x5 is the link ptr, x4 is a temp reg.
  RVTEST_SIGUPD(x30, x5, x4, x20, I_slli_cg_cmp_rd_rs1_b20, I_slli_cg_cmp_rd_rs1_b20_str)
    1690:	000f2203          	lw	x4,0(x30)
    1694:	01420863          	beq	x4,x20,16a4 <I_slli_cg_cmp_rd_rs1_b20+0x18>
    1698:	664002ef          	jal	x5,1cfc <failedtest_x5_x4>
    169c:	0000168c          	.word	0x0000168c
    16a0:	00006b90          	.word	0x00006b90
    16a4:	004f0f13          	addi	x30,x30,4

# Testcase cmp_rd_rs1 (Test rd = rs1 = x21)
  RVTEST_TESTDATA_LOAD_INT(x29, x21) # load rs1: x21 = 0xa2ada0ff
    16a8:	000eaa83          	lw	x21,0(x29)
    16ac:	004e8e93          	addi	x29,x29,4

000016b0 <I_slli_cg_cmp_rd_rs1_b21>:
I_slli_cg_cmp_rd_rs1_b21:
  slli x21, x21, 11 # perform operation
    16b0:	00ba9a93          	slli	x21,x21,0xb
  # Check if x21 contains the expected result. x30 is the signature ptr, x5 is the link ptr, x4 is a temp reg.
  RVTEST_SIGUPD(x30, x5, x4, x21, I_slli_cg_cmp_rd_rs1_b21, I_slli_cg_cmp_rd_rs1_b21_str)
    16b4:	000f2203          	lw	x4,0(x30)
    16b8:	01520863          	beq	x4,x21,16c8 <I_slli_cg_cmp_rd_rs1_b21+0x18>
    16bc:	640002ef          	jal	x5,1cfc <failedtest_x5_x4>
    16c0:	000016b0          	.word	0x000016b0
    16c4:	00006bc5          	.word	0x00006bc5
    16c8:	004f0f13          	addi	x30,x30,4

# Testcase cmp_rd_rs1 (Test rd = rs1 = x22)
  RVTEST_TESTDATA_LOAD_INT(x29, x22) # load rs1: x22 = 0xf674b1f3
    16cc:	000eab03          	lw	x22,0(x29)
    16d0:	004e8e93          	addi	x29,x29,4

000016d4 <I_slli_cg_cmp_rd_rs1_b22>:
I_slli_cg_cmp_rd_rs1_b22:
  slli x22, x22, 12 # perform operation
    16d4:	00cb1b13          	slli	x22,x22,0xc
  # Check if x22 contains the expected result. x30 is the signature ptr, x5 is the link ptr, x4 is a temp reg.
  RVTEST_SIGUPD(x30, x5, x4, x22, I_slli_cg_cmp_rd_rs1_b22, I_slli_cg_cmp_rd_rs1_b22_str)
    16d8:	000f2203          	lw	x4,0(x30)
    16dc:	01620863          	beq	x4,x22,16ec <I_slli_cg_cmp_rd_rs1_b22+0x18>
    16e0:	61c002ef          	jal	x5,1cfc <failedtest_x5_x4>
    16e4:	000016d4          	.word	0x000016d4
    16e8:	00006bfa          	.word	0x00006bfa
    16ec:	004f0f13          	addi	x30,x30,4

# Testcase cmp_rd_rs1 (Test rd = rs1 = x23)
  RVTEST_TESTDATA_LOAD_INT(x29, x23) # load rs1: x23 = 0x14346468
    16f0:	000eab83          	lw	x23,0(x29)
    16f4:	004e8e93          	addi	x29,x29,4

000016f8 <I_slli_cg_cmp_rd_rs1_b23>:
I_slli_cg_cmp_rd_rs1_b23:
  slli x23, x23, 10 # perform operation
    16f8:	00ab9b93          	slli	x23,x23,0xa
  # Check if x23 contains the expected result. x30 is the signature ptr, x5 is the link ptr, x4 is a temp reg.
  RVTEST_SIGUPD(x30, x5, x4, x23, I_slli_cg_cmp_rd_rs1_b23, I_slli_cg_cmp_rd_rs1_b23_str)
    16fc:	000f2203          	lw	x4,0(x30)
    1700:	01720863          	beq	x4,x23,1710 <I_slli_cg_cmp_rd_rs1_b23+0x18>
    1704:	5f8002ef          	jal	x5,1cfc <failedtest_x5_x4>
    1708:	000016f8          	.word	0x000016f8
    170c:	00006c2f          	.word	0x00006c2f
    1710:	004f0f13          	addi	x30,x30,4

# Testcase cmp_rd_rs1 (Test rd = rs1 = x24)
  RVTEST_TESTDATA_LOAD_INT(x29, x24) # load rs1: x24 = 0x5f871f85
    1714:	000eac03          	lw	x24,0(x29)
    1718:	004e8e93          	addi	x29,x29,4

0000171c <I_slli_cg_cmp_rd_rs1_b24>:
I_slli_cg_cmp_rd_rs1_b24:
  slli x24, x24, 31 # perform operation
    171c:	01fc1c13          	slli	x24,x24,0x1f
  # Check if x24 contains the expected result. x30 is the signature ptr, x5 is the link ptr, x4 is a temp reg.
  RVTEST_SIGUPD(x30, x5, x4, x24, I_slli_cg_cmp_rd_rs1_b24, I_slli_cg_cmp_rd_rs1_b24_str)
    1720:	000f2203          	lw	x4,0(x30)
    1724:	01820863          	beq	x4,x24,1734 <I_slli_cg_cmp_rd_rs1_b24+0x18>
    1728:	5d4002ef          	jal	x5,1cfc <failedtest_x5_x4>
    172c:	0000171c          	.word	0x0000171c
    1730:	00006c64          	.word	0x00006c64
    1734:	004f0f13          	addi	x30,x30,4

# Testcase cmp_rd_rs1 (Test rd = rs1 = x25)
  RVTEST_TESTDATA_LOAD_INT(x29, x25) # load rs1: x25 = 0xc5f472ef
    1738:	000eac83          	lw	x25,0(x29)
    173c:	004e8e93          	addi	x29,x29,4

00001740 <I_slli_cg_cmp_rd_rs1_b25>:
I_slli_cg_cmp_rd_rs1_b25:
  slli x25, x25, 25 # perform operation
    1740:	019c9c93          	slli	x25,x25,0x19
  # Check if x25 contains the expected result. x30 is the signature ptr, x5 is the link ptr, x4 is a temp reg.
  RVTEST_SIGUPD(x30, x5, x4, x25, I_slli_cg_cmp_rd_rs1_b25, I_slli_cg_cmp_rd_rs1_b25_str)
    1744:	000f2203          	lw	x4,0(x30)
    1748:	01920863          	beq	x4,x25,1758 <I_slli_cg_cmp_rd_rs1_b25+0x18>
    174c:	5b0002ef          	jal	x5,1cfc <failedtest_x5_x4>
    1750:	00001740          	.word	0x00001740
    1754:	00006c99          	.word	0x00006c99
    1758:	004f0f13          	addi	x30,x30,4

# Testcase cmp_rd_rs1 (Test rd = rs1 = x26)
  RVTEST_TESTDATA_LOAD_INT(x29, x26) # load rs1: x26 = 0x44443aae
    175c:	000ead03          	lw	x26,0(x29)
    1760:	004e8e93          	addi	x29,x29,4

00001764 <I_slli_cg_cmp_rd_rs1_b26>:
I_slli_cg_cmp_rd_rs1_b26:
  slli x26, x26, 11 # perform operation
    1764:	00bd1d13          	slli	x26,x26,0xb
  # Check if x26 contains the expected result. x30 is the signature ptr, x5 is the link ptr, x4 is a temp reg.
  RVTEST_SIGUPD(x30, x5, x4, x26, I_slli_cg_cmp_rd_rs1_b26, I_slli_cg_cmp_rd_rs1_b26_str)
    1768:	000f2203          	lw	x4,0(x30)
    176c:	01a20863          	beq	x4,x26,177c <I_slli_cg_cmp_rd_rs1_b26+0x18>
    1770:	58c002ef          	jal	x5,1cfc <failedtest_x5_x4>
    1774:	00001764          	.word	0x00001764
    1778:	00006cce          	.word	0x00006cce
    177c:	004f0f13          	addi	x30,x30,4

# Testcase cmp_rd_rs1 (Test rd = rs1 = x27)
  RVTEST_TESTDATA_LOAD_INT(x29, x27) # load rs1: x27 = 0x1a8aa4b3
    1780:	000ead83          	lw	x27,0(x29)
    1784:	004e8e93          	addi	x29,x29,4

00001788 <I_slli_cg_cmp_rd_rs1_b27>:
I_slli_cg_cmp_rd_rs1_b27:
  slli x27, x27, 8 # perform operation
    1788:	008d9d93          	slli	x27,x27,0x8
  # Check if x27 contains the expected result. x30 is the signature ptr, x5 is the link ptr, x4 is a temp reg.
  RVTEST_SIGUPD(x30, x5, x4, x27, I_slli_cg_cmp_rd_rs1_b27, I_slli_cg_cmp_rd_rs1_b27_str)
    178c:	000f2203          	lw	x4,0(x30)
    1790:	01b20863          	beq	x4,x27,17a0 <I_slli_cg_cmp_rd_rs1_b27+0x18>
    1794:	568002ef          	jal	x5,1cfc <failedtest_x5_x4>
    1798:	00001788          	.word	0x00001788
    179c:	00006d03          	.word	0x00006d03
    17a0:	004f0f13          	addi	x30,x30,4

# Testcase cmp_rd_rs1 (Test rd = rs1 = x28)
  RVTEST_TESTDATA_LOAD_INT(x29, x28) # load rs1: x28 = 0xb42378ec
    17a4:	000eae03          	lw	x28,0(x29)
    17a8:	004e8e93          	addi	x29,x29,4

000017ac <I_slli_cg_cmp_rd_rs1_b28>:
I_slli_cg_cmp_rd_rs1_b28:
  slli x28, x28, 29 # perform operation
    17ac:	01de1e13          	slli	x28,x28,0x1d
  # Check if x28 contains the expected result. x30 is the signature ptr, x5 is the link ptr, x4 is a temp reg.
  RVTEST_SIGUPD(x30, x5, x4, x28, I_slli_cg_cmp_rd_rs1_b28, I_slli_cg_cmp_rd_rs1_b28_str)
    17b0:	000f2203          	lw	x4,0(x30)
    17b4:	01c20863          	beq	x4,x28,17c4 <I_slli_cg_cmp_rd_rs1_b28+0x18>
    17b8:	544002ef          	jal	x5,1cfc <failedtest_x5_x4>
    17bc:	000017ac          	.word	0x000017ac
    17c0:	00006d38          	.word	0x00006d38
    17c4:	004f0f13          	addi	x30,x30,4

  mv x27, x29 # switch data pointer register to avoid conflict with test
    17c8:	000e8d93          	addi	x27,x29,0
# Testcase cmp_rd_rs1 (Test rd = rs1 = x29)
  RVTEST_TESTDATA_LOAD_INT(x27, x29) # load rs1: x29 = 0x4c0791b3
    17cc:	000dae83          	lw	x29,0(x27)
    17d0:	004d8d93          	addi	x27,x27,4

000017d4 <I_slli_cg_cmp_rd_rs1_b29>:
I_slli_cg_cmp_rd_rs1_b29:
  slli x29, x29, 23 # perform operation
    17d4:	017e9e93          	slli	x29,x29,0x17
  # Check if x29 contains the expected result. x30 is the signature ptr, x5 is the link ptr, x4 is a temp reg.
  RVTEST_SIGUPD(x30, x5, x4, x29, I_slli_cg_cmp_rd_rs1_b29, I_slli_cg_cmp_rd_rs1_b29_str)
    17d8:	000f2203          	lw	x4,0(x30)
    17dc:	01d20863          	beq	x4,x29,17ec <I_slli_cg_cmp_rd_rs1_b29+0x18>
    17e0:	51c002ef          	jal	x5,1cfc <failedtest_x5_x4>
    17e4:	000017d4          	.word	0x000017d4
    17e8:	00006d6d          	.word	0x00006d6d
    17ec:	004f0f13          	addi	x30,x30,4

  mv x25, x30 # switch signature pointer register to avoid conflict with test
    17f0:	000f0c93          	addi	x25,x30,0
# Testcase cmp_rd_rs1 (Test rd = rs1 = x30)
  RVTEST_TESTDATA_LOAD_INT(x27, x30) # load rs1: x30 = 0xa8271f73
    17f4:	000daf03          	lw	x30,0(x27)
    17f8:	004d8d93          	addi	x27,x27,4

000017fc <I_slli_cg_cmp_rd_rs1_b30>:
I_slli_cg_cmp_rd_rs1_b30:
  slli x30, x30, 2 # perform operation
    17fc:	002f1f13          	slli	x30,x30,0x2
  # Check if x30 contains the expected result. x25 is the signature ptr, x5 is the link ptr, x4 is a temp reg.
  RVTEST_SIGUPD(x25, x5, x4, x30, I_slli_cg_cmp_rd_rs1_b30, I_slli_cg_cmp_rd_rs1_b30_str)
    1800:	000ca203          	lw	x4,0(x25)
    1804:	01e20863          	beq	x4,x30,1814 <I_slli_cg_cmp_rd_rs1_b30+0x18>
    1808:	4f4002ef          	jal	x5,1cfc <failedtest_x5_x4>
    180c:	000017fc          	.word	0x000017fc
    1810:	00006da2          	.word	0x00006da2
    1814:	004c8c93          	addi	x25,x25,4

# Testcase cmp_rd_rs1 (Test rd = rs1 = x31)
  RVTEST_TESTDATA_LOAD_INT(x27, x31) # load rs1: x31 = 0xeb2986bc
    1818:	000daf83          	lw	x31,0(x27)
    181c:	004d8d93          	addi	x27,x27,4

00001820 <I_slli_cg_cmp_rd_rs1_b31>:
I_slli_cg_cmp_rd_rs1_b31:
  slli x31, x31, 23 # perform operation
    1820:	017f9f93          	slli	x31,x31,0x17
  # Check if x31 contains the expected result. x25 is the signature ptr, x5 is the link ptr, x4 is a temp reg.
  RVTEST_SIGUPD(x25, x5, x4, x31, I_slli_cg_cmp_rd_rs1_b31, I_slli_cg_cmp_rd_rs1_b31_str)
    1824:	000ca203          	lw	x4,0(x25)
    1828:	01f20863          	beq	x4,x31,1838 <I_slli_cg_cmp_rd_rs1_b31+0x18>
    182c:	4d0002ef          	jal	x5,1cfc <failedtest_x5_x4>
    1830:	00001820          	.word	0x00001820
    1834:	00006dd7          	.word	0x00006dd7
    1838:	004c8c93          	addi	x25,x25,4
/////////////////////////////////
// cp_uimm
/////////////////////////////////

# Testcase cp_uimm: imm=0
  RVTEST_TESTDATA_LOAD_INT(x27, x8) # load rs1: x8 = 0x8e0df9aa
    183c:	000da403          	lw	x8,0(x27)
    1840:	004d8d93          	addi	x27,x27,4

00001844 <I_slli_cg_cp_uimm_uimm0>:
I_slli_cg_cp_uimm_uimm0:
  slli x21, x8, 0 # perform operation
    1844:	00041a93          	slli	x21,x8,0x0
  # Check if x21 contains the expected result. x25 is the signature ptr, x5 is the link ptr, x4 is a temp reg.
  RVTEST_SIGUPD(x25, x5, x4, x21, I_slli_cg_cp_uimm_uimm0, I_slli_cg_cp_uimm_uimm0_str)
    1848:	000ca203          	lw	x4,0(x25)
    184c:	01520863          	beq	x4,x21,185c <I_slli_cg_cp_uimm_uimm0+0x18>
    1850:	4ac002ef          	jal	x5,1cfc <failedtest_x5_x4>
    1854:	00001844          	.word	0x00001844
    1858:	00006e0c          	.word	0x00006e0c
    185c:	004c8c93          	addi	x25,x25,4

# Testcase cp_uimm: imm=1
  RVTEST_TESTDATA_LOAD_INT(x27, x19) # load rs1: x19 = 0xe45cede5
    1860:	000da983          	lw	x19,0(x27)
    1864:	004d8d93          	addi	x27,x27,4

00001868 <I_slli_cg_cp_uimm_uimm1>:
I_slli_cg_cp_uimm_uimm1:
  slli x20, x19, 1 # perform operation
    1868:	00199a13          	slli	x20,x19,0x1
  # Check if x20 contains the expected result. x25 is the signature ptr, x5 is the link ptr, x4 is a temp reg.
  RVTEST_SIGUPD(x25, x5, x4, x20, I_slli_cg_cp_uimm_uimm1, I_slli_cg_cp_uimm_uimm1_str)
    186c:	000ca203          	lw	x4,0(x25)
    1870:	01420863          	beq	x4,x20,1880 <I_slli_cg_cp_uimm_uimm1+0x18>
    1874:	488002ef          	jal	x5,1cfc <failedtest_x5_x4>
    1878:	00001868          	.word	0x00001868
    187c:	00006e40          	.word	0x00006e40
    1880:	004c8c93          	addi	x25,x25,4

# Testcase cp_uimm: imm=2
  RVTEST_TESTDATA_LOAD_INT(x27, x22) # load rs1: x22 = 0xe23b5866
    1884:	000dab03          	lw	x22,0(x27)
    1888:	004d8d93          	addi	x27,x27,4

0000188c <I_slli_cg_cp_uimm_uimm2>:
I_slli_cg_cp_uimm_uimm2:
  slli x16, x22, 2 # perform operation
    188c:	002b1813          	slli	x16,x22,0x2
  # Check if x16 contains the expected result. x25 is the signature ptr, x5 is the link ptr, x4 is a temp reg.
  RVTEST_SIGUPD(x25, x5, x4, x16, I_slli_cg_cp_uimm_uimm2, I_slli_cg_cp_uimm_uimm2_str)
    1890:	000ca203          	lw	x4,0(x25)
    1894:	01020863          	beq	x4,x16,18a4 <I_slli_cg_cp_uimm_uimm2+0x18>
    1898:	464002ef          	jal	x5,1cfc <failedtest_x5_x4>
    189c:	0000188c          	.word	0x0000188c
    18a0:	00006e74          	.word	0x00006e74
    18a4:	004c8c93          	addi	x25,x25,4

# Testcase cp_uimm: imm=3
  RVTEST_TESTDATA_LOAD_INT(x27, x26) # load rs1: x26 = 0x0369447e
    18a8:	000dad03          	lw	x26,0(x27)
    18ac:	004d8d93          	addi	x27,x27,4

000018b0 <I_slli_cg_cp_uimm_uimm3>:
I_slli_cg_cp_uimm_uimm3:
  slli x6, x26, 3 # perform operation
    18b0:	003d1313          	slli	x6,x26,0x3
  # Check if x6 contains the expected result. x25 is the signature ptr, x5 is the link ptr, x4 is a temp reg.
  RVTEST_SIGUPD(x25, x5, x4, x6, I_slli_cg_cp_uimm_uimm3, I_slli_cg_cp_uimm_uimm3_str)
    18b4:	000ca203          	lw	x4,0(x25)
    18b8:	00620863          	beq	x4,x6,18c8 <I_slli_cg_cp_uimm_uimm3+0x18>
    18bc:	440002ef          	jal	x5,1cfc <failedtest_x5_x4>
    18c0:	000018b0          	.word	0x000018b0
    18c4:	00006ea8          	.word	0x00006ea8
    18c8:	004c8c93          	addi	x25,x25,4

# Testcase cp_uimm: imm=4
  RVTEST_TESTDATA_LOAD_INT(x27, x14) # load rs1: x14 = 0xea03d33c
    18cc:	000da703          	lw	x14,0(x27)
    18d0:	004d8d93          	addi	x27,x27,4

000018d4 <I_slli_cg_cp_uimm_uimm4>:
I_slli_cg_cp_uimm_uimm4:
  slli x11, x14, 4 # perform operation
    18d4:	00471593          	slli	x11,x14,0x4
  # Check if x11 contains the expected result. x25 is the signature ptr, x5 is the link ptr, x4 is a temp reg.
  RVTEST_SIGUPD(x25, x5, x4, x11, I_slli_cg_cp_uimm_uimm4, I_slli_cg_cp_uimm_uimm4_str)
    18d8:	000ca203          	lw	x4,0(x25)
    18dc:	00b20863          	beq	x4,x11,18ec <I_slli_cg_cp_uimm_uimm4+0x18>
    18e0:	41c002ef          	jal	x5,1cfc <failedtest_x5_x4>
    18e4:	000018d4          	.word	0x000018d4
    18e8:	00006edc          	.word	0x00006edc
    18ec:	004c8c93          	addi	x25,x25,4

# Testcase cp_uimm: imm=5
  RVTEST_TESTDATA_LOAD_INT(x27, x9) # load rs1: x9 = 0x1c5d3523
    18f0:	000da483          	lw	x9,0(x27)
    18f4:	004d8d93          	addi	x27,x27,4

000018f8 <I_slli_cg_cp_uimm_uimm5>:
I_slli_cg_cp_uimm_uimm5:
  slli x22, x9, 5 # perform operation
    18f8:	00549b13          	slli	x22,x9,0x5
  # Check if x22 contains the expected result. x25 is the signature ptr, x5 is the link ptr, x4 is a temp reg.
  RVTEST_SIGUPD(x25, x5, x4, x22, I_slli_cg_cp_uimm_uimm5, I_slli_cg_cp_uimm_uimm5_str)
    18fc:	000ca203          	lw	x4,0(x25)
    1900:	01620863          	beq	x4,x22,1910 <I_slli_cg_cp_uimm_uimm5+0x18>
    1904:	3f8002ef          	jal	x5,1cfc <failedtest_x5_x4>
    1908:	000018f8          	.word	0x000018f8
    190c:	00006f10          	.word	0x00006f10
    1910:	004c8c93          	addi	x25,x25,4

# Testcase cp_uimm: imm=6
  RVTEST_TESTDATA_LOAD_INT(x27, x13) # load rs1: x13 = 0x381baec8
    1914:	000da683          	lw	x13,0(x27)
    1918:	004d8d93          	addi	x27,x27,4

0000191c <I_slli_cg_cp_uimm_uimm6>:
I_slli_cg_cp_uimm_uimm6:
  slli x24, x13, 6 # perform operation
    191c:	00669c13          	slli	x24,x13,0x6
  # Check if x24 contains the expected result. x25 is the signature ptr, x5 is the link ptr, x4 is a temp reg.
  RVTEST_SIGUPD(x25, x5, x4, x24, I_slli_cg_cp_uimm_uimm6, I_slli_cg_cp_uimm_uimm6_str)
    1920:	000ca203          	lw	x4,0(x25)
    1924:	01820863          	beq	x4,x24,1934 <I_slli_cg_cp_uimm_uimm6+0x18>
    1928:	3d4002ef          	jal	x5,1cfc <failedtest_x5_x4>
    192c:	0000191c          	.word	0x0000191c
    1930:	00006f44          	.word	0x00006f44
    1934:	004c8c93          	addi	x25,x25,4

# Testcase cp_uimm: imm=7
  RVTEST_TESTDATA_LOAD_INT(x27, x28) # load rs1: x28 = 0x95f09d17
    1938:	000dae03          	lw	x28,0(x27)
    193c:	004d8d93          	addi	x27,x27,4

00001940 <I_slli_cg_cp_uimm_uimm7>:
I_slli_cg_cp_uimm_uimm7:
  slli x11, x28, 7 # perform operation
    1940:	007e1593          	slli	x11,x28,0x7
  # Check if x11 contains the expected result. x25 is the signature ptr, x5 is the link ptr, x4 is a temp reg.
  RVTEST_SIGUPD(x25, x5, x4, x11, I_slli_cg_cp_uimm_uimm7, I_slli_cg_cp_uimm_uimm7_str)
    1944:	000ca203          	lw	x4,0(x25)
    1948:	00b20863          	beq	x4,x11,1958 <I_slli_cg_cp_uimm_uimm7+0x18>
    194c:	3b0002ef          	jal	x5,1cfc <failedtest_x5_x4>
    1950:	00001940          	.word	0x00001940
    1954:	00006f78          	.word	0x00006f78
    1958:	004c8c93          	addi	x25,x25,4

# Testcase cp_uimm: imm=8
  RVTEST_TESTDATA_LOAD_INT(x27, x7) # load rs1: x7 = 0x1b3c48f0
    195c:	000da383          	lw	x7,0(x27)
    1960:	004d8d93          	addi	x27,x27,4

00001964 <I_slli_cg_cp_uimm_uimm8>:
I_slli_cg_cp_uimm_uimm8:
  slli x28, x7, 8 # perform operation
    1964:	00839e13          	slli	x28,x7,0x8
  # Check if x28 contains the expected result. x25 is the signature ptr, x5 is the link ptr, x4 is a temp reg.
  RVTEST_SIGUPD(x25, x5, x4, x28, I_slli_cg_cp_uimm_uimm8, I_slli_cg_cp_uimm_uimm8_str)
    1968:	000ca203          	lw	x4,0(x25)
    196c:	01c20863          	beq	x4,x28,197c <I_slli_cg_cp_uimm_uimm8+0x18>
    1970:	38c002ef          	jal	x5,1cfc <failedtest_x5_x4>
    1974:	00001964          	.word	0x00001964
    1978:	00006fac          	.word	0x00006fac
    197c:	004c8c93          	addi	x25,x25,4

# Testcase cp_uimm: imm=9
  RVTEST_TESTDATA_LOAD_INT(x27, x7) # load rs1: x7 = 0x2f69b097
    1980:	000da383          	lw	x7,0(x27)
    1984:	004d8d93          	addi	x27,x27,4

00001988 <I_slli_cg_cp_uimm_uimm9>:
I_slli_cg_cp_uimm_uimm9:
  slli x16, x7, 9 # perform operation
    1988:	00939813          	slli	x16,x7,0x9
  # Check if x16 contains the expected result. x25 is the signature ptr, x5 is the link ptr, x4 is a temp reg.
  RVTEST_SIGUPD(x25, x5, x4, x16, I_slli_cg_cp_uimm_uimm9, I_slli_cg_cp_uimm_uimm9_str)
    198c:	000ca203          	lw	x4,0(x25)
    1990:	01020863          	beq	x4,x16,19a0 <I_slli_cg_cp_uimm_uimm9+0x18>
    1994:	368002ef          	jal	x5,1cfc <failedtest_x5_x4>
    1998:	00001988          	.word	0x00001988
    199c:	00006fe0          	.word	0x00006fe0
    19a0:	004c8c93          	addi	x25,x25,4

# Testcase cp_uimm: imm=10
  RVTEST_TESTDATA_LOAD_INT(x27, x26) # load rs1: x26 = 0x4beb1388
    19a4:	000dad03          	lw	x26,0(x27)
    19a8:	004d8d93          	addi	x27,x27,4

000019ac <I_slli_cg_cp_uimm_uimm10>:
I_slli_cg_cp_uimm_uimm10:
  slli x23, x26, 10 # perform operation
    19ac:	00ad1b93          	slli	x23,x26,0xa
  # Check if x23 contains the expected result. x25 is the signature ptr, x5 is the link ptr, x4 is a temp reg.
  RVTEST_SIGUPD(x25, x5, x4, x23, I_slli_cg_cp_uimm_uimm10, I_slli_cg_cp_uimm_uimm10_str)
    19b0:	000ca203          	lw	x4,0(x25)
    19b4:	01720863          	beq	x4,x23,19c4 <I_slli_cg_cp_uimm_uimm10+0x18>
    19b8:	344002ef          	jal	x5,1cfc <failedtest_x5_x4>
    19bc:	000019ac          	.word	0x000019ac
    19c0:	00007014          	.word	0x00007014
    19c4:	004c8c93          	addi	x25,x25,4

# Testcase cp_uimm: imm=11
  RVTEST_TESTDATA_LOAD_INT(x27, x26) # load rs1: x26 = 0x6008c691
    19c8:	000dad03          	lw	x26,0(x27)
    19cc:	004d8d93          	addi	x27,x27,4

000019d0 <I_slli_cg_cp_uimm_uimm11>:
I_slli_cg_cp_uimm_uimm11:
  slli x11, x26, 11 # perform operation
    19d0:	00bd1593          	slli	x11,x26,0xb
  # Check if x11 contains the expected result. x25 is the signature ptr, x5 is the link ptr, x4 is a temp reg.
  RVTEST_SIGUPD(x25, x5, x4, x11, I_slli_cg_cp_uimm_uimm11, I_slli_cg_cp_uimm_uimm11_str)
    19d4:	000ca203          	lw	x4,0(x25)
    19d8:	00b20863          	beq	x4,x11,19e8 <I_slli_cg_cp_uimm_uimm11+0x18>
    19dc:	320002ef          	jal	x5,1cfc <failedtest_x5_x4>
    19e0:	000019d0          	.word	0x000019d0
    19e4:	00007049          	.word	0x00007049
    19e8:	004c8c93          	addi	x25,x25,4

# Testcase cp_uimm: imm=12
  RVTEST_TESTDATA_LOAD_INT(x27, x12) # load rs1: x12 = 0x24aa0ed6
    19ec:	000da603          	lw	x12,0(x27)
    19f0:	004d8d93          	addi	x27,x27,4

000019f4 <I_slli_cg_cp_uimm_uimm12>:
I_slli_cg_cp_uimm_uimm12:
  slli x1, x12, 12 # perform operation
    19f4:	00c61093          	slli	x1,x12,0xc
  # Check if x1 contains the expected result. x25 is the signature ptr, x5 is the link ptr, x4 is a temp reg.
  RVTEST_SIGUPD(x25, x5, x4, x1, I_slli_cg_cp_uimm_uimm12, I_slli_cg_cp_uimm_uimm12_str)
    19f8:	000ca203          	lw	x4,0(x25)
    19fc:	00120863          	beq	x4,x1,1a0c <I_slli_cg_cp_uimm_uimm12+0x18>
    1a00:	2fc002ef          	jal	x5,1cfc <failedtest_x5_x4>
    1a04:	000019f4          	.word	0x000019f4
    1a08:	0000707e          	.word	0x0000707e
    1a0c:	004c8c93          	addi	x25,x25,4

# Testcase cp_uimm: imm=13
  RVTEST_TESTDATA_LOAD_INT(x27, x6) # load rs1: x6 = 0x55d10f3c
    1a10:	000da303          	lw	x6,0(x27)
    1a14:	004d8d93          	addi	x27,x27,4

00001a18 <I_slli_cg_cp_uimm_uimm13>:
I_slli_cg_cp_uimm_uimm13:
  slli x29, x6, 13 # perform operation
    1a18:	00d31e93          	slli	x29,x6,0xd
  # Check if x29 contains the expected result. x25 is the signature ptr, x5 is the link ptr, x4 is a temp reg.
  RVTEST_SIGUPD(x25, x5, x4, x29, I_slli_cg_cp_uimm_uimm13, I_slli_cg_cp_uimm_uimm13_str)
    1a1c:	000ca203          	lw	x4,0(x25)
    1a20:	01d20863          	beq	x4,x29,1a30 <I_slli_cg_cp_uimm_uimm13+0x18>
    1a24:	2d8002ef          	jal	x5,1cfc <failedtest_x5_x4>
    1a28:	00001a18          	.word	0x00001a18
    1a2c:	000070b3          	.word	0x000070b3
    1a30:	004c8c93          	addi	x25,x25,4

# Testcase cp_uimm: imm=14
  RVTEST_TESTDATA_LOAD_INT(x27, x8) # load rs1: x8 = 0x8847a14a
    1a34:	000da403          	lw	x8,0(x27)
    1a38:	004d8d93          	addi	x27,x27,4

00001a3c <I_slli_cg_cp_uimm_uimm14>:
I_slli_cg_cp_uimm_uimm14:
  slli x28, x8, 14 # perform operation
    1a3c:	00e41e13          	slli	x28,x8,0xe
  # Check if x28 contains the expected result. x25 is the signature ptr, x5 is the link ptr, x4 is a temp reg.
  RVTEST_SIGUPD(x25, x5, x4, x28, I_slli_cg_cp_uimm_uimm14, I_slli_cg_cp_uimm_uimm14_str)
    1a40:	000ca203          	lw	x4,0(x25)
    1a44:	01c20863          	beq	x4,x28,1a54 <I_slli_cg_cp_uimm_uimm14+0x18>
    1a48:	2b4002ef          	jal	x5,1cfc <failedtest_x5_x4>
    1a4c:	00001a3c          	.word	0x00001a3c
    1a50:	000070e8          	.word	0x000070e8
    1a54:	004c8c93          	addi	x25,x25,4

# Testcase cp_uimm: imm=15
  RVTEST_TESTDATA_LOAD_INT(x27, x28) # load rs1: x28 = 0xf9f7172d
    1a58:	000dae03          	lw	x28,0(x27)
    1a5c:	004d8d93          	addi	x27,x27,4

00001a60 <I_slli_cg_cp_uimm_uimm15>:
I_slli_cg_cp_uimm_uimm15:
  slli x10, x28, 15 # perform operation
    1a60:	00fe1513          	slli	x10,x28,0xf
  # Check if x10 contains the expected result. x25 is the signature ptr, x5 is the link ptr, x4 is a temp reg.
  RVTEST_SIGUPD(x25, x5, x4, x10, I_slli_cg_cp_uimm_uimm15, I_slli_cg_cp_uimm_uimm15_str)
    1a64:	000ca203          	lw	x4,0(x25)
    1a68:	00a20863          	beq	x4,x10,1a78 <I_slli_cg_cp_uimm_uimm15+0x18>
    1a6c:	290002ef          	jal	x5,1cfc <failedtest_x5_x4>
    1a70:	00001a60          	.word	0x00001a60
    1a74:	0000711d          	.word	0x0000711d
    1a78:	004c8c93          	addi	x25,x25,4

# Testcase cp_uimm: imm=16
  RVTEST_TESTDATA_LOAD_INT(x27, x31) # load rs1: x31 = 0x18ffd9d7
    1a7c:	000daf83          	lw	x31,0(x27)
    1a80:	004d8d93          	addi	x27,x27,4

00001a84 <I_slli_cg_cp_uimm_uimm16>:
I_slli_cg_cp_uimm_uimm16:
  slli x28, x31, 16 # perform operation
    1a84:	010f9e13          	slli	x28,x31,0x10
  # Check if x28 contains the expected result. x25 is the signature ptr, x5 is the link ptr, x4 is a temp reg.
  RVTEST_SIGUPD(x25, x5, x4, x28, I_slli_cg_cp_uimm_uimm16, I_slli_cg_cp_uimm_uimm16_str)
    1a88:	000ca203          	lw	x4,0(x25)
    1a8c:	01c20863          	beq	x4,x28,1a9c <I_slli_cg_cp_uimm_uimm16+0x18>
    1a90:	26c002ef          	jal	x5,1cfc <failedtest_x5_x4>
    1a94:	00001a84          	.word	0x00001a84
    1a98:	00007152          	.word	0x00007152
    1a9c:	004c8c93          	addi	x25,x25,4

# Testcase cp_uimm: imm=17
  RVTEST_TESTDATA_LOAD_INT(x27, x31) # load rs1: x31 = 0x6d4dfe52
    1aa0:	000daf83          	lw	x31,0(x27)
    1aa4:	004d8d93          	addi	x27,x27,4

00001aa8 <I_slli_cg_cp_uimm_uimm17>:
I_slli_cg_cp_uimm_uimm17:
  slli x17, x31, 17 # perform operation
    1aa8:	011f9893          	slli	x17,x31,0x11
  # Check if x17 contains the expected result. x25 is the signature ptr, x5 is the link ptr, x4 is a temp reg.
  RVTEST_SIGUPD(x25, x5, x4, x17, I_slli_cg_cp_uimm_uimm17, I_slli_cg_cp_uimm_uimm17_str)
    1aac:	000ca203          	lw	x4,0(x25)
    1ab0:	01120863          	beq	x4,x17,1ac0 <I_slli_cg_cp_uimm_uimm17+0x18>
    1ab4:	248002ef          	jal	x5,1cfc <failedtest_x5_x4>
    1ab8:	00001aa8          	.word	0x00001aa8
    1abc:	00007187          	.word	0x00007187
    1ac0:	004c8c93          	addi	x25,x25,4

# Testcase cp_uimm: imm=18
  RVTEST_TESTDATA_LOAD_INT(x27, x7) # load rs1: x7 = 0x1941c57e
    1ac4:	000da383          	lw	x7,0(x27)
    1ac8:	004d8d93          	addi	x27,x27,4

00001acc <I_slli_cg_cp_uimm_uimm18>:
I_slli_cg_cp_uimm_uimm18:
  slli x16, x7, 18 # perform operation
    1acc:	01239813          	slli	x16,x7,0x12
  # Check if x16 contains the expected result. x25 is the signature ptr, x5 is the link ptr, x4 is a temp reg.
  RVTEST_SIGUPD(x25, x5, x4, x16, I_slli_cg_cp_uimm_uimm18, I_slli_cg_cp_uimm_uimm18_str)
    1ad0:	000ca203          	lw	x4,0(x25)
    1ad4:	01020863          	beq	x4,x16,1ae4 <I_slli_cg_cp_uimm_uimm18+0x18>
    1ad8:	224002ef          	jal	x5,1cfc <failedtest_x5_x4>
    1adc:	00001acc          	.word	0x00001acc
    1ae0:	000071bc          	.word	0x000071bc
    1ae4:	004c8c93          	addi	x25,x25,4

# Testcase cp_uimm: imm=19
  RVTEST_TESTDATA_LOAD_INT(x27, x28) # load rs1: x28 = 0xc577717b
    1ae8:	000dae03          	lw	x28,0(x27)
    1aec:	004d8d93          	addi	x27,x27,4

00001af0 <I_slli_cg_cp_uimm_uimm19>:
I_slli_cg_cp_uimm_uimm19:
  slli x8, x28, 19 # perform operation
    1af0:	013e1413          	slli	x8,x28,0x13
  # Check if x8 contains the expected result. x25 is the signature ptr, x5 is the link ptr, x4 is a temp reg.
  RVTEST_SIGUPD(x25, x5, x4, x8, I_slli_cg_cp_uimm_uimm19, I_slli_cg_cp_uimm_uimm19_str)
    1af4:	000ca203          	lw	x4,0(x25)
    1af8:	00820863          	beq	x4,x8,1b08 <I_slli_cg_cp_uimm_uimm19+0x18>
    1afc:	200002ef          	jal	x5,1cfc <failedtest_x5_x4>
    1b00:	00001af0          	.word	0x00001af0
    1b04:	000071f1          	.word	0x000071f1
    1b08:	004c8c93          	addi	x25,x25,4

# Testcase cp_uimm: imm=20
  RVTEST_TESTDATA_LOAD_INT(x27, x6) # load rs1: x6 = 0x48f755fd
    1b0c:	000da303          	lw	x6,0(x27)
    1b10:	004d8d93          	addi	x27,x27,4

00001b14 <I_slli_cg_cp_uimm_uimm20>:
I_slli_cg_cp_uimm_uimm20:
  slli x0, x6, 20 # perform operation
    1b14:	01431013          	slli	x0,x6,0x14
  # Check if x0 contains the expected result. x25 is the signature ptr, x5 is the link ptr, x4 is a temp reg.
  RVTEST_SIGUPD(x25, x5, x4, x0, I_slli_cg_cp_uimm_uimm20, I_slli_cg_cp_uimm_uimm20_str)
    1b18:	000ca203          	lw	x4,0(x25)
    1b1c:	00020863          	beq	x4,x0,1b2c <I_slli_cg_cp_uimm_uimm20+0x18>
    1b20:	1dc002ef          	jal	x5,1cfc <failedtest_x5_x4>
    1b24:	00001b14          	.word	0x00001b14
    1b28:	00007226          	.word	0x00007226
    1b2c:	004c8c93          	addi	x25,x25,4

# Testcase cp_uimm: imm=21
  RVTEST_TESTDATA_LOAD_INT(x27, x29) # load rs1: x29 = 0x84991cad
    1b30:	000dae83          	lw	x29,0(x27)
    1b34:	004d8d93          	addi	x27,x27,4

00001b38 <I_slli_cg_cp_uimm_uimm21>:
I_slli_cg_cp_uimm_uimm21:
  slli x28, x29, 21 # perform operation
    1b38:	015e9e13          	slli	x28,x29,0x15
  # Check if x28 contains the expected result. x25 is the signature ptr, x5 is the link ptr, x4 is a temp reg.
  RVTEST_SIGUPD(x25, x5, x4, x28, I_slli_cg_cp_uimm_uimm21, I_slli_cg_cp_uimm_uimm21_str)
    1b3c:	000ca203          	lw	x4,0(x25)
    1b40:	01c20863          	beq	x4,x28,1b50 <I_slli_cg_cp_uimm_uimm21+0x18>
    1b44:	1b8002ef          	jal	x5,1cfc <failedtest_x5_x4>
    1b48:	00001b38          	.word	0x00001b38
    1b4c:	0000725b          	.word	0x0000725b
    1b50:	004c8c93          	addi	x25,x25,4

# Testcase cp_uimm: imm=22
  RVTEST_TESTDATA_LOAD_INT(x27, x24) # load rs1: x24 = 0xcfd44be0
    1b54:	000dac03          	lw	x24,0(x27)
    1b58:	004d8d93          	addi	x27,x27,4

00001b5c <I_slli_cg_cp_uimm_uimm22>:
I_slli_cg_cp_uimm_uimm22:
  slli x19, x24, 22 # perform operation
    1b5c:	016c1993          	slli	x19,x24,0x16
  # Check if x19 contains the expected result. x25 is the signature ptr, x5 is the link ptr, x4 is a temp reg.
  RVTEST_SIGUPD(x25, x5, x4, x19, I_slli_cg_cp_uimm_uimm22, I_slli_cg_cp_uimm_uimm22_str)
    1b60:	000ca203          	lw	x4,0(x25)
    1b64:	01320863          	beq	x4,x19,1b74 <I_slli_cg_cp_uimm_uimm22+0x18>
    1b68:	194002ef          	jal	x5,1cfc <failedtest_x5_x4>
    1b6c:	00001b5c          	.word	0x00001b5c
    1b70:	00007290          	.word	0x00007290
    1b74:	004c8c93          	addi	x25,x25,4

# Testcase cp_uimm: imm=23
  RVTEST_TESTDATA_LOAD_INT(x27, x24) # load rs1: x24 = 0xed97164b
    1b78:	000dac03          	lw	x24,0(x27)
    1b7c:	004d8d93          	addi	x27,x27,4

00001b80 <I_slli_cg_cp_uimm_uimm23>:
I_slli_cg_cp_uimm_uimm23:
  slli x19, x24, 23 # perform operation
    1b80:	017c1993          	slli	x19,x24,0x17
  # Check if x19 contains the expected result. x25 is the signature ptr, x5 is the link ptr, x4 is a temp reg.
  RVTEST_SIGUPD(x25, x5, x4, x19, I_slli_cg_cp_uimm_uimm23, I_slli_cg_cp_uimm_uimm23_str)
    1b84:	000ca203          	lw	x4,0(x25)
    1b88:	01320863          	beq	x4,x19,1b98 <I_slli_cg_cp_uimm_uimm23+0x18>
    1b8c:	170002ef          	jal	x5,1cfc <failedtest_x5_x4>
    1b90:	00001b80          	.word	0x00001b80
    1b94:	000072c5          	.word	0x000072c5
    1b98:	004c8c93          	addi	x25,x25,4

# Testcase cp_uimm: imm=24
  RVTEST_TESTDATA_LOAD_INT(x27, x18) # load rs1: x18 = 0xf95ab8e4
    1b9c:	000da903          	lw	x18,0(x27)
    1ba0:	004d8d93          	addi	x27,x27,4

00001ba4 <I_slli_cg_cp_uimm_uimm24>:
I_slli_cg_cp_uimm_uimm24:
  slli x30, x18, 24 # perform operation
    1ba4:	01891f13          	slli	x30,x18,0x18
  # Check if x30 contains the expected result. x25 is the signature ptr, x5 is the link ptr, x4 is a temp reg.
  RVTEST_SIGUPD(x25, x5, x4, x30, I_slli_cg_cp_uimm_uimm24, I_slli_cg_cp_uimm_uimm24_str)
    1ba8:	000ca203          	lw	x4,0(x25)
    1bac:	01e20863          	beq	x4,x30,1bbc <I_slli_cg_cp_uimm_uimm24+0x18>
    1bb0:	14c002ef          	jal	x5,1cfc <failedtest_x5_x4>
    1bb4:	00001ba4          	.word	0x00001ba4
    1bb8:	000072fa          	.word	0x000072fa
    1bbc:	004c8c93          	addi	x25,x25,4

# Testcase cp_uimm: imm=25
  RVTEST_TESTDATA_LOAD_INT(x27, x28) # load rs1: x28 = 0xfd3f5220
    1bc0:	000dae03          	lw	x28,0(x27)
    1bc4:	004d8d93          	addi	x27,x27,4

00001bc8 <I_slli_cg_cp_uimm_uimm25>:
I_slli_cg_cp_uimm_uimm25:
  slli x15, x28, 25 # perform operation
    1bc8:	019e1793          	slli	x15,x28,0x19
  # Check if x15 contains the expected result. x25 is the signature ptr, x5 is the link ptr, x4 is a temp reg.
  RVTEST_SIGUPD(x25, x5, x4, x15, I_slli_cg_cp_uimm_uimm25, I_slli_cg_cp_uimm_uimm25_str)
    1bcc:	000ca203          	lw	x4,0(x25)
    1bd0:	00f20863          	beq	x4,x15,1be0 <I_slli_cg_cp_uimm_uimm25+0x18>
    1bd4:	128002ef          	jal	x5,1cfc <failedtest_x5_x4>
    1bd8:	00001bc8          	.word	0x00001bc8
    1bdc:	0000732f          	.word	0x0000732f
    1be0:	004c8c93          	addi	x25,x25,4

# Testcase cp_uimm: imm=26
  RVTEST_TESTDATA_LOAD_INT(x27, x16) # load rs1: x16 = 0xb622ee34
    1be4:	000da803          	lw	x16,0(x27)
    1be8:	004d8d93          	addi	x27,x27,4

00001bec <I_slli_cg_cp_uimm_uimm26>:
I_slli_cg_cp_uimm_uimm26:
  slli x7, x16, 26 # perform operation
    1bec:	01a81393          	slli	x7,x16,0x1a
  # Check if x7 contains the expected result. x25 is the signature ptr, x5 is the link ptr, x4 is a temp reg.
  RVTEST_SIGUPD(x25, x5, x4, x7, I_slli_cg_cp_uimm_uimm26, I_slli_cg_cp_uimm_uimm26_str)
    1bf0:	000ca203          	lw	x4,0(x25)
    1bf4:	00720863          	beq	x4,x7,1c04 <I_slli_cg_cp_uimm_uimm26+0x18>
    1bf8:	104002ef          	jal	x5,1cfc <failedtest_x5_x4>
    1bfc:	00001bec          	.word	0x00001bec
    1c00:	00007364          	.word	0x00007364
    1c04:	004c8c93          	addi	x25,x25,4

# Testcase cp_uimm: imm=27
  RVTEST_TESTDATA_LOAD_INT(x27, x9) # load rs1: x9 = 0x86ce8777
    1c08:	000da483          	lw	x9,0(x27)
    1c0c:	004d8d93          	addi	x27,x27,4

00001c10 <I_slli_cg_cp_uimm_uimm27>:
I_slli_cg_cp_uimm_uimm27:
  slli x10, x9, 27 # perform operation
    1c10:	01b49513          	slli	x10,x9,0x1b
  # Check if x10 contains the expected result. x25 is the signature ptr, x5 is the link ptr, x4 is a temp reg.
  RVTEST_SIGUPD(x25, x5, x4, x10, I_slli_cg_cp_uimm_uimm27, I_slli_cg_cp_uimm_uimm27_str)
    1c14:	000ca203          	lw	x4,0(x25)
    1c18:	00a20863          	beq	x4,x10,1c28 <I_slli_cg_cp_uimm_uimm27+0x18>
    1c1c:	0e0002ef          	jal	x5,1cfc <failedtest_x5_x4>
    1c20:	00001c10          	.word	0x00001c10
    1c24:	00007399          	.word	0x00007399
    1c28:	004c8c93          	addi	x25,x25,4

# Testcase cp_uimm: imm=28
  RVTEST_TESTDATA_LOAD_INT(x27, x28) # load rs1: x28 = 0x32ab27de
    1c2c:	000dae03          	lw	x28,0(x27)
    1c30:	004d8d93          	addi	x27,x27,4

00001c34 <I_slli_cg_cp_uimm_uimm28>:
I_slli_cg_cp_uimm_uimm28:
  slli x10, x28, 28 # perform operation
    1c34:	01ce1513          	slli	x10,x28,0x1c
  # Check if x10 contains the expected result. x25 is the signature ptr, x5 is the link ptr, x4 is a temp reg.
  RVTEST_SIGUPD(x25, x5, x4, x10, I_slli_cg_cp_uimm_uimm28, I_slli_cg_cp_uimm_uimm28_str)
    1c38:	000ca203          	lw	x4,0(x25)
    1c3c:	00a20863          	beq	x4,x10,1c4c <I_slli_cg_cp_uimm_uimm28+0x18>
    1c40:	0bc002ef          	jal	x5,1cfc <failedtest_x5_x4>
    1c44:	00001c34          	.word	0x00001c34
    1c48:	000073ce          	.word	0x000073ce
    1c4c:	004c8c93          	addi	x25,x25,4

# Testcase cp_uimm: imm=29
  RVTEST_TESTDATA_LOAD_INT(x27, x12) # load rs1: x12 = 0xd153a399
    1c50:	000da603          	lw	x12,0(x27)
    1c54:	004d8d93          	addi	x27,x27,4

00001c58 <I_slli_cg_cp_uimm_uimm29>:
I_slli_cg_cp_uimm_uimm29:
  slli x9, x12, 29 # perform operation
    1c58:	01d61493          	slli	x9,x12,0x1d
  # Check if x9 contains the expected result. x25 is the signature ptr, x5 is the link ptr, x4 is a temp reg.
  RVTEST_SIGUPD(x25, x5, x4, x9, I_slli_cg_cp_uimm_uimm29, I_slli_cg_cp_uimm_uimm29_str)
    1c5c:	000ca203          	lw	x4,0(x25)
    1c60:	00920863          	beq	x4,x9,1c70 <I_slli_cg_cp_uimm_uimm29+0x18>
    1c64:	098002ef          	jal	x5,1cfc <failedtest_x5_x4>
    1c68:	00001c58          	.word	0x00001c58
    1c6c:	00007403          	.word	0x00007403
    1c70:	004c8c93          	addi	x25,x25,4

# Testcase cp_uimm: imm=30
  RVTEST_TESTDATA_LOAD_INT(x27, x8) # load rs1: x8 = 0x145da9b7
    1c74:	000da403          	lw	x8,0(x27)
    1c78:	004d8d93          	addi	x27,x27,4

00001c7c <I_slli_cg_cp_uimm_uimm30>:
I_slli_cg_cp_uimm_uimm30:
  slli x24, x8, 30 # perform operation
    1c7c:	01e41c13          	slli	x24,x8,0x1e
  # Check if x24 contains the expected result. x25 is the signature ptr, x5 is the link ptr, x4 is a temp reg.
  RVTEST_SIGUPD(x25, x5, x4, x24, I_slli_cg_cp_uimm_uimm30, I_slli_cg_cp_uimm_uimm30_str)
    1c80:	000ca203          	lw	x4,0(x25)
    1c84:	01820863          	beq	x4,x24,1c94 <I_slli_cg_cp_uimm_uimm30+0x18>
    1c88:	074002ef          	jal	x5,1cfc <failedtest_x5_x4>
    1c8c:	00001c7c          	.word	0x00001c7c
    1c90:	00007438          	.word	0x00007438
    1c94:	004c8c93          	addi	x25,x25,4

# Testcase cp_uimm: imm=31
  RVTEST_TESTDATA_LOAD_INT(x27, x24) # load rs1: x24 = 0xc272c053
    1c98:	000dac03          	lw	x24,0(x27)
    1c9c:	004d8d93          	addi	x27,x27,4

00001ca0 <I_slli_cg_cp_uimm_uimm31>:
I_slli_cg_cp_uimm_uimm31:
  slli x20, x24, 31 # perform operation
    1ca0:	01fc1a13          	slli	x20,x24,0x1f
  # Check if x20 contains the expected result. x25 is the signature ptr, x5 is the link ptr, x4 is a temp reg.
  RVTEST_SIGUPD(x25, x5, x4, x20, I_slli_cg_cp_uimm_uimm31, I_slli_cg_cp_uimm_uimm31_str)
    1ca4:	000ca203          	lw	x4,0(x25)
    1ca8:	01420863          	beq	x4,x20,1cb8 <I_slli_cg_cp_uimm_uimm31+0x18>
    1cac:	050002ef          	jal	x5,1cfc <failedtest_x5_x4>
    1cb0:	00001ca0          	.word	0x00001ca0
    1cb4:	0000746d          	.word	0x0000746d
    1cb8:	004c8c93          	addi	x25,x25,4

  mv x2, x25 # restore signature pointer to default register for teardown
    1cbc:	000c8113          	addi	x2,x25,0

00001cc0 <cleanup_epilogs>:

// Instantiate trap handlers and other epilog code, call RVMODEL_HALT at end of test
RVTEST_CODE_END
    1cc0:	00006517          	auipc	x10,0x6
    1cc4:	e5450513          	addi	x10,x10,-428 # 7b14 <successstr>
    1cc8:	00000013          	addi	x0,x0,0
    1ccc:	00000013          	addi	x0,x0,0
    1cd0:	00000013          	addi	x0,x0,0
    1cd4:	00000013          	addi	x0,x0,0
    1cd8:	00000013          	addi	x0,x0,0
    1cdc:	00000013          	addi	x0,x0,0
    1ce0:	00016097          	auipc	x1,0x16
    1ce4:	524080e7          	jalr	x1,1316(x1) # 18204 <rvmodel_io_write_str>
    1ce8:	00016097          	auipc	x1,0x16
    1cec:	520080e7          	jalr	x1,1312(x1) # 18208 <rvmodel_halt_pass>

00001cf0 <abort_test>:
    1cf0:	bad0e737          	lui	x14,0xbad0e
    1cf4:	ead70713          	addi	x14,x14,-339 # bad0dead <absimm+0x4b743ba4>
    1cf8:	fc9ff06f          	jal	x0,1cc0 <cleanup_epilogs>

00001cfc <failedtest_x5_x4>:
    1cfc:	00005217          	auipc	x4,0x5
    1d00:	7b420213          	addi	x4,x4,1972 # 74b0 <begin_failure_scratch>
    1d04:	02522423          	sw	x5,40(x4) # 28 <MMODE_SIG+0x25>
    1d08:	00122423          	sw	x1,8(x4) # 8 <MMODE_SIG+0x5>
    1d0c:	00022023          	sw	x0,0(x4) # 0 <rvtest_entry_point>
    1d10:	0b00006f          	jal	x0,1dc0 <failedtest_saveregs>

00001d14 <failedtest_x8_x7>:
    1d14:	00005397          	auipc	x7,0x5
    1d18:	79c38393          	addi	x7,x7,1948 # 74b0 <begin_failure_scratch>
    1d1c:	0483a023          	sw	x8,64(x7)
    1d20:	0243a023          	sw	x4,32(x7)
    1d24:	0253a423          	sw	x5,40(x7)
    1d28:	0013a423          	sw	x1,8(x7)
    1d2c:	0003a023          	sw	x0,0(x7)
    1d30:	00038213          	addi	x4,x7,0
    1d34:	00040293          	addi	x5,x8,0
    1d38:	0880006f          	jal	x0,1dc0 <failedtest_saveregs>

00001d3c <failedtest_x14_x13>:
    1d3c:	00005697          	auipc	x13,0x5
    1d40:	77468693          	addi	x13,x13,1908 # 74b0 <begin_failure_scratch>
    1d44:	06e6a823          	sw	x14,112(x13)
    1d48:	0246a023          	sw	x4,32(x13)
    1d4c:	0256a423          	sw	x5,40(x13)
    1d50:	0016a423          	sw	x1,8(x13)
    1d54:	0006a023          	sw	x0,0(x13)
    1d58:	00068213          	addi	x4,x13,0
    1d5c:	00070293          	addi	x5,x14,0
    1d60:	0600006f          	jal	x0,1dc0 <failedtest_saveregs>

00001d64 <failedtest_trap_x7_x9>:
    1d64:	00005497          	auipc	x9,0x5
    1d68:	74c48493          	addi	x9,x9,1868 # 74b0 <begin_failure_scratch>
    1d6c:	0674a423          	sw	x7,104(x9)
    1d70:	0244a023          	sw	x4,32(x9)
    1d74:	0254a423          	sw	x5,40(x9)
    1d78:	0014a423          	sw	x1,8(x9)
    1d7c:	00300093          	addi	x1,x0,3
    1d80:	0014a023          	sw	x1,0(x9)
    1d84:	00048213          	addi	x4,x9,0
    1d88:	00038293          	addi	x5,x7,0
    1d8c:	342020f3          	csrrs	x1,mcause,x0
    1d90:	00006497          	auipc	x9,0x6
    1d94:	89048493          	addi	x9,x9,-1904 # 7620 <saved_mcause>
    1d98:	0014a023          	sw	x1,0(x9)
    1d9c:	343020f3          	csrrs	x1,mtval,x0
    1da0:	00006497          	auipc	x9,0x6
    1da4:	88848493          	addi	x9,x9,-1912 # 7628 <saved_mtval>
    1da8:	0014a023          	sw	x1,0(x9)
    1dac:	300020f3          	csrrs	x1,mstatus,x0
    1db0:	00006497          	auipc	x9,0x6
    1db4:	88048493          	addi	x9,x9,-1920 # 7630 <saved_mstatus>
    1db8:	0014a023          	sw	x1,0(x9)
    1dbc:	0040006f          	jal	x0,1dc0 <failedtest_saveregs>

00001dc0 <failedtest_saveregs>:
    1dc0:	00222823          	sw	x2,16(x4) # 10 <MMODE_SIG+0xd>
    1dc4:	00322c23          	sw	x3,24(x4) # 18 <MMODE_SIG+0x15>
    1dc8:	02622823          	sw	x6,48(x4) # 30 <MMODE_SIG+0x2d>
    1dcc:	02722c23          	sw	x7,56(x4) # 38 <MMODE_SIG+0x35>
    1dd0:	04822023          	sw	x8,64(x4) # 40 <rvtest_code_begin>
    1dd4:	04922423          	sw	x9,72(x4) # 48 <I_slli_cg_cp_rs1_b0>
    1dd8:	04a22823          	sw	x10,80(x4) # 50 <I_slli_cg_cp_rs1_b0+0x8>
    1ddc:	04b22c23          	sw	x11,88(x4) # 58 <I_slli_cg_cp_rs1_b0+0x10>
    1de0:	06c22023          	sw	x12,96(x4) # 60 <I_slli_cg_cp_rs1_b0+0x18>
    1de4:	06d22423          	sw	x13,104(x4) # 68 <I_slli_cg_cp_rs1_b0+0x20>
    1de8:	06e22823          	sw	x14,112(x4) # 70 <I_slli_cg_cp_rs1_b1+0x4>
    1dec:	06f22c23          	sw	x15,120(x4) # 78 <I_slli_cg_cp_rs1_b1+0xc>
    1df0:	09022023          	sw	x16,128(x4) # 80 <I_slli_cg_cp_rs1_b1+0x14>
    1df4:	09122423          	sw	x17,136(x4) # 88 <I_slli_cg_cp_rs1_b1+0x1c>
    1df8:	09222823          	sw	x18,144(x4) # 90 <I_slli_cg_cp_rs1_b1+0x24>
    1dfc:	09322c23          	sw	x19,152(x4) # 98 <I_slli_cg_cp_rs1_b2+0x4>
    1e00:	0b422023          	sw	x20,160(x4) # a0 <I_slli_cg_cp_rs1_b2+0xc>
    1e04:	0b522423          	sw	x21,168(x4) # a8 <I_slli_cg_cp_rs1_b2+0x14>
    1e08:	0b622823          	sw	x22,176(x4) # b0 <I_slli_cg_cp_rs1_b2+0x1c>
    1e0c:	0b722c23          	sw	x23,184(x4) # b8 <I_slli_cg_cp_rs1_b2+0x24>
    1e10:	0d822023          	sw	x24,192(x4) # c0 <I_slli_cg_cp_rs1_b3+0x4>
    1e14:	0d922423          	sw	x25,200(x4) # c8 <I_slli_cg_cp_rs1_b3+0xc>
    1e18:	0da22823          	sw	x26,208(x4) # d0 <I_slli_cg_cp_rs1_b3+0x14>
    1e1c:	0db22c23          	sw	x27,216(x4) # d8 <I_slli_cg_cp_rs1_b3+0x1c>
    1e20:	0fc22023          	sw	x28,224(x4) # e0 <I_slli_cg_cp_rs1_b3+0x24>
    1e24:	0fd22423          	sw	x29,232(x4) # e8 <I_slli_cg_cp_rs1_b4>
    1e28:	0fe22823          	sw	x30,240(x4) # f0 <I_slli_cg_cp_rs1_b4+0x8>
    1e2c:	0ff22c23          	sw	x31,248(x4) # f8 <I_slli_cg_cp_rs1_b4+0x10>

00001e30 <failedtest_saveresults>:
    1e30:	00005497          	auipc	x9,0x5
    1e34:	6804a483          	lw	x9,1664(x9) # 74b0 <begin_failure_scratch>
    1e38:	00300513          	addi	x10,x0,3
    1e3c:	06a48863          	beq	x9,x10,1eac <failedtest_saveresults_trap>

00001e40 <failedtest_saveresults_int>:
    1e40:	ffa2d303          	lhu	x6,-6(x5)
    1e44:	ff82d383          	lhu	x7,-8(x5)
    1e48:	01031313          	slli	x6,x6,0x10
    1e4c:	00736333          	or	x6,x6,x7
    1e50:	00f35393          	srli	x7,x6,0xf
    1e54:	01f3f393          	andi	x7,x7,31
    1e58:	01435413          	srli	x8,x6,0x14
    1e5c:	01f47413          	andi	x8,x8,31
    1e60:	10822223          	sw	x8,260(x4) # 104 <I_slli_cg_cp_rs1_b4+0x1c>
    1e64:	00341313          	slli	x6,x8,0x3
    1e68:	00620333          	add	x6,x4,x6
    1e6c:	00032303          	lw	x6,0(x6)
    1e70:	10622823          	sw	x6,272(x4) # 110 <I_slli_cg_cp_rs1_b5+0x4>
    1e74:	ff62d303          	lhu	x6,-10(x5)
    1e78:	ff42d383          	lhu	x7,-12(x5)
    1e7c:	01031313          	slli	x6,x6,0x10
    1e80:	00736333          	or	x6,x6,x7
    1e84:	41435393          	srai	x7,x6,0x14
    1e88:	00f35313          	srli	x6,x6,0xf
    1e8c:	01f37313          	andi	x6,x6,31
    1e90:	00331313          	slli	x6,x6,0x3
    1e94:	00620333          	add	x6,x4,x6
    1e98:	00032303          	lw	x6,0(x6)
    1e9c:	00730333          	add	x6,x6,x7
    1ea0:	00032303          	lw	x6,0(x6)
    1ea4:	10622c23          	sw	x6,280(x4) # 118 <I_slli_cg_cp_rs1_b5+0xc>
    1ea8:	3d80006f          	jal	x0,2280 <failedtest_saveresults_common>

00001eac <failedtest_saveresults_trap>:
    1eac:	0042a303          	lw	x6,4(x5)
    1eb0:	00005817          	auipc	x16,0x5
    1eb4:	75880813          	addi	x16,x16,1880 # 7608 <trap_diag_fail_str_ptr>
    1eb8:	00682023          	sw	x6,0(x16)
    1ebc:	0002a303          	lw	x6,0(x5)
    1ec0:	10622423          	sw	x6,264(x4) # 108 <I_slli_cg_cp_rs1_b4+0x20>
    1ec4:	00005817          	auipc	x16,0x5
    1ec8:	74480813          	addi	x16,x16,1860 # 7608 <trap_diag_fail_str_ptr>
    1ecc:	00082303          	lw	x6,0(x16)
    1ed0:	00006397          	auipc	x7,0x6
    1ed4:	e0c38393          	addi	x7,x7,-500 # 7cdc <trap_sig_offset_mismatch>
    1ed8:	28730463          	beq	x6,x7,2160 <trap_diag_offset_mismatch>
    1edc:	00000413          	addi	x8,x0,0
    1ee0:	00005817          	auipc	x16,0x5
    1ee4:	70080813          	addi	x16,x16,1792 # 75e0 <trap_diag_subtype>
    1ee8:	00882023          	sw	x8,0(x16)
    1eec:	00006397          	auipc	x7,0x6
    1ef0:	e5438393          	addi	x7,x7,-428 # 7d40 <sv_Mvect_str>
    1ef4:	00731863          	bne	x6,x7,1f04 <failedtest_saveresults_trap+0x58>
    1ef8:	00100413          	addi	x8,x0,1
    1efc:	00000493          	addi	x9,x0,0
    1f00:	2e00006f          	jal	x0,21e0 <trap_diag_field_identified>
    1f04:	00006397          	auipc	x7,0x6
    1f08:	f3e38393          	addi	x7,x7,-194 # 7e42 <sv_Mcause_str>
    1f0c:	00731863          	bne	x6,x7,1f1c <failedtest_saveresults_trap+0x70>
    1f10:	00200413          	addi	x8,x0,2
    1f14:	00000493          	addi	x9,x0,0
    1f18:	2c80006f          	jal	x0,21e0 <trap_diag_field_identified>
    1f1c:	00006397          	auipc	x7,0x6
    1f20:	02138393          	addi	x7,x7,33 # 7f3d <sv_Mepc_str>
    1f24:	00731863          	bne	x6,x7,1f34 <failedtest_saveresults_trap+0x88>
    1f28:	00300413          	addi	x8,x0,3
    1f2c:	00000493          	addi	x9,x0,0
    1f30:	2b00006f          	jal	x0,21e0 <trap_diag_field_identified>
    1f34:	00006397          	auipc	x7,0x6
    1f38:	0fc38393          	addi	x7,x7,252 # 8030 <sv_Mtval_str>
    1f3c:	00731863          	bne	x6,x7,1f4c <failedtest_saveresults_trap+0xa0>
    1f40:	00400413          	addi	x8,x0,4
    1f44:	00000493          	addi	x9,x0,0
    1f48:	2980006f          	jal	x0,21e0 <trap_diag_field_identified>
    1f4c:	00006397          	auipc	x7,0x6
    1f50:	25738393          	addi	x7,x7,599 # 81a3 <sv_Mip_str>
    1f54:	00731863          	bne	x6,x7,1f64 <failedtest_saveresults_trap+0xb8>
    1f58:	00500413          	addi	x8,x0,5
    1f5c:	00000493          	addi	x9,x0,0
    1f60:	2800006f          	jal	x0,21e0 <trap_diag_field_identified>
    1f64:	00006397          	auipc	x7,0x6
    1f68:	1c338393          	addi	x7,x7,451 # 8127 <sv_Mtval2_str>
    1f6c:	00731863          	bne	x6,x7,1f7c <failedtest_saveresults_trap+0xd0>
    1f70:	00600413          	addi	x8,x0,6
    1f74:	00000493          	addi	x9,x0,0
    1f78:	2680006f          	jal	x0,21e0 <trap_diag_field_identified>
    1f7c:	00006397          	auipc	x7,0x6
    1f80:	1e938393          	addi	x7,x7,489 # 8165 <sv_Mtinst_str>
    1f84:	00731863          	bne	x6,x7,1f94 <failedtest_saveresults_trap+0xe8>
    1f88:	00700413          	addi	x8,x0,7
    1f8c:	00000493          	addi	x9,x0,0
    1f90:	2500006f          	jal	x0,21e0 <trap_diag_field_identified>
    1f94:	00006397          	auipc	x7,0x6
    1f98:	dec38393          	addi	x7,x7,-532 # 7d80 <sv_Svect_str>
    1f9c:	00731863          	bne	x6,x7,1fac <failedtest_saveresults_trap+0x100>
    1fa0:	00100413          	addi	x8,x0,1
    1fa4:	00100493          	addi	x9,x0,1
    1fa8:	2380006f          	jal	x0,21e0 <trap_diag_field_identified>
    1fac:	00006397          	auipc	x7,0x6
    1fb0:	ed438393          	addi	x7,x7,-300 # 7e80 <sv_Scause_str>
    1fb4:	00731863          	bne	x6,x7,1fc4 <failedtest_saveresults_trap+0x118>
    1fb8:	00200413          	addi	x8,x0,2
    1fbc:	00100493          	addi	x9,x0,1
    1fc0:	2200006f          	jal	x0,21e0 <trap_diag_field_identified>
    1fc4:	00006397          	auipc	x7,0x6
    1fc8:	fb538393          	addi	x7,x7,-75 # 7f79 <sv_Sepc_str>
    1fcc:	00731863          	bne	x6,x7,1fdc <failedtest_saveresults_trap+0x130>
    1fd0:	00300413          	addi	x8,x0,3
    1fd4:	00100493          	addi	x9,x0,1
    1fd8:	2080006f          	jal	x0,21e0 <trap_diag_field_identified>
    1fdc:	00006397          	auipc	x7,0x6
    1fe0:	09138393          	addi	x7,x7,145 # 806d <sv_Stval_str>
    1fe4:	00731863          	bne	x6,x7,1ff4 <failedtest_saveresults_trap+0x148>
    1fe8:	00400413          	addi	x8,x0,4
    1fec:	00100493          	addi	x9,x0,1
    1ff0:	1f00006f          	jal	x0,21e0 <trap_diag_field_identified>
    1ff4:	00006397          	auipc	x7,0x6
    1ff8:	1ea38393          	addi	x7,x7,490 # 81de <sv_Sip_str>
    1ffc:	00731863          	bne	x6,x7,200c <failedtest_saveresults_trap+0x160>
    2000:	00500413          	addi	x8,x0,5
    2004:	00100493          	addi	x9,x0,1
    2008:	1d80006f          	jal	x0,21e0 <trap_diag_field_identified>
    200c:	00006397          	auipc	x7,0x6
    2010:	db438393          	addi	x7,x7,-588 # 7dc0 <sv_Hvect_str>
    2014:	00731863          	bne	x6,x7,2024 <failedtest_saveresults_trap+0x178>
    2018:	00100413          	addi	x8,x0,1
    201c:	00200493          	addi	x9,x0,2
    2020:	1c00006f          	jal	x0,21e0 <trap_diag_field_identified>
    2024:	00006397          	auipc	x7,0x6
    2028:	e9a38393          	addi	x7,x7,-358 # 7ebe <sv_Hcause_str>
    202c:	00731863          	bne	x6,x7,203c <failedtest_saveresults_trap+0x190>
    2030:	00200413          	addi	x8,x0,2
    2034:	00200493          	addi	x9,x0,2
    2038:	1a80006f          	jal	x0,21e0 <trap_diag_field_identified>
    203c:	00006397          	auipc	x7,0x6
    2040:	f7938393          	addi	x7,x7,-135 # 7fb5 <sv_Hepc_str>
    2044:	00731863          	bne	x6,x7,2054 <failedtest_saveresults_trap+0x1a8>
    2048:	00300413          	addi	x8,x0,3
    204c:	00200493          	addi	x9,x0,2
    2050:	1900006f          	jal	x0,21e0 <trap_diag_field_identified>
    2054:	00006397          	auipc	x7,0x6
    2058:	05638393          	addi	x7,x7,86 # 80aa <sv_Htval_str>
    205c:	00731863          	bne	x6,x7,206c <failedtest_saveresults_trap+0x1c0>
    2060:	00400413          	addi	x8,x0,4
    2064:	00200493          	addi	x9,x0,2
    2068:	1780006f          	jal	x0,21e0 <trap_diag_field_identified>
    206c:	00006397          	auipc	x7,0x6
    2070:	1ad38393          	addi	x7,x7,429 # 8219 <sv_Hip_str>
    2074:	00731863          	bne	x6,x7,2084 <failedtest_saveresults_trap+0x1d8>
    2078:	00500413          	addi	x8,x0,5
    207c:	00200493          	addi	x9,x0,2
    2080:	1600006f          	jal	x0,21e0 <trap_diag_field_identified>
    2084:	00006397          	auipc	x7,0x6
    2088:	d7d38393          	addi	x7,x7,-643 # 7e01 <sv_Vvect_str>
    208c:	00731863          	bne	x6,x7,209c <failedtest_saveresults_trap+0x1f0>
    2090:	00100413          	addi	x8,x0,1
    2094:	00300493          	addi	x9,x0,3
    2098:	1480006f          	jal	x0,21e0 <trap_diag_field_identified>
    209c:	00006397          	auipc	x7,0x6
    20a0:	e6138393          	addi	x7,x7,-415 # 7efd <sv_Vcause_str>
    20a4:	00731863          	bne	x6,x7,20b4 <failedtest_saveresults_trap+0x208>
    20a8:	00200413          	addi	x8,x0,2
    20ac:	00300493          	addi	x9,x0,3
    20b0:	1300006f          	jal	x0,21e0 <trap_diag_field_identified>
    20b4:	00006397          	auipc	x7,0x6
    20b8:	f3e38393          	addi	x7,x7,-194 # 7ff2 <sv_Vepc_str>
    20bc:	00731863          	bne	x6,x7,20cc <failedtest_saveresults_trap+0x220>
    20c0:	00300413          	addi	x8,x0,3
    20c4:	00300493          	addi	x9,x0,3
    20c8:	1180006f          	jal	x0,21e0 <trap_diag_field_identified>
    20cc:	00006397          	auipc	x7,0x6
    20d0:	01c38393          	addi	x7,x7,28 # 80e8 <sv_Vtval_str>
    20d4:	00731863          	bne	x6,x7,20e4 <failedtest_saveresults_trap+0x238>
    20d8:	00400413          	addi	x8,x0,4
    20dc:	00300493          	addi	x9,x0,3
    20e0:	1000006f          	jal	x0,21e0 <trap_diag_field_identified>
    20e4:	00006397          	auipc	x7,0x6
    20e8:	17138393          	addi	x7,x7,369 # 8255 <sv_Vip_str>
    20ec:	00731863          	bne	x6,x7,20fc <failedtest_saveresults_trap+0x250>
    20f0:	00500413          	addi	x8,x0,5
    20f4:	00300493          	addi	x9,x0,3
    20f8:	0e80006f          	jal	x0,21e0 <trap_diag_field_identified>
    20fc:	00006397          	auipc	x7,0x6
    2100:	19638393          	addi	x7,x7,406 # 8292 <Mclr_Mext_int_str>
    2104:	00731863          	bne	x6,x7,2114 <failedtest_saveresults_trap+0x268>
    2108:	00800413          	addi	x8,x0,8
    210c:	00000493          	addi	x9,x0,0
    2110:	0d00006f          	jal	x0,21e0 <trap_diag_field_identified>
    2114:	00006397          	auipc	x7,0x6
    2118:	1cd38393          	addi	x7,x7,461 # 82e1 <Mclr_Sext_int_str>
    211c:	00731863          	bne	x6,x7,212c <failedtest_saveresults_trap+0x280>
    2120:	00800413          	addi	x8,x0,8
    2124:	00000493          	addi	x9,x0,0
    2128:	0b80006f          	jal	x0,21e0 <trap_diag_field_identified>
    212c:	00006397          	auipc	x7,0x6
    2130:	2b038393          	addi	x7,x7,688 # 83dc <Sclr_Sext_int_str>
    2134:	00731863          	bne	x6,x7,2144 <failedtest_saveresults_trap+0x298>
    2138:	00800413          	addi	x8,x0,8
    213c:	00100493          	addi	x9,x0,1
    2140:	0a00006f          	jal	x0,21e0 <trap_diag_field_identified>
    2144:	00006397          	auipc	x7,0x6
    2148:	39438393          	addi	x7,x7,916 # 84d8 <Hclr_Sext_int_str>
    214c:	00731863          	bne	x6,x7,215c <failedtest_saveresults_trap+0x2b0>
    2150:	00800413          	addi	x8,x0,8
    2154:	00200493          	addi	x9,x0,2
    2158:	0880006f          	jal	x0,21e0 <trap_diag_field_identified>
    215c:	1140006f          	jal	x0,2270 <trap_diag_generic_report>

00002160 <trap_diag_offset_mismatch>:
    2160:	00900413          	addi	x8,x0,9
    2164:	00005817          	auipc	x16,0x5
    2168:	47c80813          	addi	x16,x16,1148 # 75e0 <trap_diag_subtype>
    216c:	00882023          	sw	x8,0(x16)
    2170:	ffa2d303          	lhu	x6,-6(x5)
    2174:	ff82d383          	lhu	x7,-8(x5)
    2178:	01031313          	slli	x6,x6,0x10
    217c:	00736333          	or	x6,x6,x7
    2180:	01435413          	srli	x8,x6,0x14
    2184:	01f47413          	andi	x8,x8,31
    2188:	00341313          	slli	x6,x8,0x3
    218c:	00620333          	add	x6,x4,x6
    2190:	00032303          	lw	x6,0(x6)
    2194:	00005817          	auipc	x16,0x5
    2198:	46480813          	addi	x16,x16,1124 # 75f8 <trap_diag_actual_offset>
    219c:	00682023          	sw	x6,0(x16)
    21a0:	ff62d303          	lhu	x6,-10(x5)
    21a4:	ff42d383          	lhu	x7,-12(x5)
    21a8:	01031313          	slli	x6,x6,0x10
    21ac:	00736333          	or	x6,x6,x7
    21b0:	41435393          	srai	x7,x6,0x14
    21b4:	00f35313          	srli	x6,x6,0xf
    21b8:	01f37313          	andi	x6,x6,31
    21bc:	00331313          	slli	x6,x6,0x3
    21c0:	00620333          	add	x6,x4,x6
    21c4:	00032303          	lw	x6,0(x6)
    21c8:	00730333          	add	x6,x6,x7
    21cc:	00032303          	lw	x6,0(x6)
    21d0:	00005817          	auipc	x16,0x5
    21d4:	43080813          	addi	x16,x16,1072 # 7600 <trap_diag_expected_offset>
    21d8:	00682023          	sw	x6,0(x16)
    21dc:	0a40006f          	jal	x0,2280 <failedtest_saveresults_common>

000021e0 <trap_diag_field_identified>:
    21e0:	00005817          	auipc	x16,0x5
    21e4:	40080813          	addi	x16,x16,1024 # 75e0 <trap_diag_subtype>
    21e8:	00882023          	sw	x8,0(x16)
    21ec:	00005817          	auipc	x16,0x5
    21f0:	3f880813          	addi	x16,x16,1016 # 75e4 <trap_diag_mode>
    21f4:	00982023          	sw	x9,0(x16)
    21f8:	ffa2d303          	lhu	x6,-6(x5)
    21fc:	ff82d383          	lhu	x7,-8(x5)
    2200:	01031313          	slli	x6,x6,0x10
    2204:	00736333          	or	x6,x6,x7
    2208:	01435713          	srli	x14,x6,0x14
    220c:	01f77713          	andi	x14,x14,31
    2210:	00371313          	slli	x6,x14,0x3
    2214:	00620333          	add	x6,x4,x6
    2218:	00032303          	lw	x6,0(x6)
    221c:	10622823          	sw	x6,272(x4) # 110 <I_slli_cg_cp_rs1_b5+0x4>
