
/home/dev/github/clones/riscv-arch-test/work/rv32i-core/elfs/rv32i/I/I-sltu-00.elf:     file format elf32-littleriscv
/home/dev/github/clones/riscv-arch-test/work/rv32i-core/elfs/rv32i/I/I-sltu-00.elf
architecture: riscv:rv32, flags 0x00000112:
EXEC_P, HAS_SYMS, D_PAGED
start address 0x00000000

Program Header:
0x70000003 off    0x0001f240 vaddr 0x00000000 paddr 0x00000000 align 2**0
         filesz 0x00000033 memsz 0x00000000 flags r--
    LOAD off    0x00001000 vaddr 0x00000000 paddr 0x00000000 align 2**12
         filesz 0x00005f80 memsz 0x00005f80 flags r-x
    LOAD off    0x00007000 vaddr 0x00008000 paddr 0x00008000 align 2**12
         filesz 0x00018240 memsz 0x00018240 flags rwx

Sections:
Idx Name          Size      VMA       LMA       File off  Algn
  0 .text.init    00000040  00000000  00000000  00001000  2**5
                  CONTENTS, ALLOC, LOAD, READONLY, CODE
  1 .text.rvtest  00005f40  00000040  00000040  00001040  2**5
                  CONTENTS, ALLOC, LOAD, READONLY, CODE
  2 .data         00017ef0  00008000  00008000  00007000  2**8
                  CONTENTS, ALLOC, LOAD, DATA
  3 .text.rvmodel 00000240  00020000  00020000  0001f000  2**5
                  CONTENTS, ALLOC, LOAD, READONLY, CODE
  4 .riscv.attributes 00000033  00000000  00000000  0001f240  2**0
                  CONTENTS, READONLY
  5 .debug_line   000026a0  00000000  00000000  0001f273  2**0
                  CONTENTS, READONLY, DEBUGGING, OCTETS
  6 .debug_line_str 0000006a  00000000  00000000  00021913  2**0
                  CONTENTS, READONLY, DEBUGGING, OCTETS
  7 .debug_info   00000023  00000000  00000000  0002197d  2**0
                  CONTENTS, READONLY, DEBUGGING, OCTETS
  8 .debug_abbrev 00000012  00000000  00000000  000219a0  2**0
                  CONTENTS, READONLY, DEBUGGING, OCTETS
  9 .debug_aranges 00000028  00000000  00000000  000219b8  2**3
                  CONTENTS, READONLY, DEBUGGING, OCTETS
 10 .debug_str    00000076  00000000  00000000  000219e0  2**0
                  CONTENTS, READONLY, DEBUGGING, OCTETS
 11 .debug_rnglists 0000001b  00000000  00000000  00021a56  2**0
                  CONTENTS, READONLY, DEBUGGING, OCTETS
SYMBOL TABLE:
00000000 l    d  .text.init	00000000 .text.init
00000040 l    d  .text.rvtest	00000000 .text.rvtest
00008000 l    d  .data	00000000 .data
00020000 l    d  .text.rvmodel	00000000 .text.rvmodel
00000000 l    d  .riscv.attributes	00000000 .riscv.attributes
00000000 l    d  .debug_line	00000000 .debug_line
00000000 l    d  .debug_line_str	00000000 .debug_line_str
00000000 l    d  .debug_info	00000000 .debug_info
00000000 l    d  .debug_abbrev	00000000 .debug_abbrev
00000000 l    d  .debug_aranges	00000000 .debug_aranges
00000000 l    d  .debug_str	00000000 .debug_str
00000000 l    d  .debug_rnglists	00000000 .debug_rnglists
00000000 l    df *ABS*	00000000 cczpu5HX.o
00000003 l       *ABS*	00000000 MMODE_SIG
00000001 l       *ABS*	00000000 SMODE_SIG
00000001 l       *ABS*	00000000 HMODE_SIG
00000002 l       *ABS*	00000000 VMODE_SIG
00020000 l       .text.rvmodel	00000000 rvmodel_boot
00000050 l       .text.rvtest	00000000 I_sltu_cg_cp_rs1_b0
000044fc l       .text.rvtest	00000000 failedtest_x5_x4
00008d50 l       .data	00000000 I_sltu_cg_cp_rs1_b0_str
0000007c l       .text.rvtest	00000000 I_sltu_cg_cp_rs1_b1
00008d7e l       .data	00000000 I_sltu_cg_cp_rs1_b1_str
000000ac l       .text.rvtest	00000000 I_sltu_cg_cp_rs1_b2
00008dac l       .data	00000000 I_sltu_cg_cp_rs1_b2_str
000000dc l       .text.rvtest	00000000 I_sltu_cg_cp_rs1_b3
00008dda l       .data	00000000 I_sltu_cg_cp_rs1_b3_str
00000110 l       .text.rvtest	00000000 I_sltu_cg_cp_rs1_b4
0000453c l       .text.rvtest	00000000 failedtest_x14_x13
00008e08 l       .data	00000000 I_sltu_cg_cp_rs1_b4_str
0000013c l       .text.rvtest	00000000 I_sltu_cg_cp_rs1_b5
00008e36 l       .data	00000000 I_sltu_cg_cp_rs1_b5_str
00000168 l       .text.rvtest	00000000 I_sltu_cg_cp_rs1_b6
00008e64 l       .data	00000000 I_sltu_cg_cp_rs1_b6_str
00000194 l       .text.rvtest	00000000 I_sltu_cg_cp_rs1_b7
00008e92 l       .data	00000000 I_sltu_cg_cp_rs1_b7_str
000001c0 l       .text.rvtest	00000000 I_sltu_cg_cp_rs1_b8
00008ec0 l       .data	00000000 I_sltu_cg_cp_rs1_b8_str
000001f0 l       .text.rvtest	00000000 I_sltu_cg_cp_rs1_b9
00008eee l       .data	00000000 I_sltu_cg_cp_rs1_b9_str
00000220 l       .text.rvtest	00000000 I_sltu_cg_cp_rs1_b10
00008f1d l       .data	00000000 I_sltu_cg_cp_rs1_b10_str
0000024c l       .text.rvtest	00000000 I_sltu_cg_cp_rs1_b11
00008f4d l       .data	00000000 I_sltu_cg_cp_rs1_b11_str
00000278 l       .text.rvtest	00000000 I_sltu_cg_cp_rs1_b12
00008f7d l       .data	00000000 I_sltu_cg_cp_rs1_b12_str
000002ac l       .text.rvtest	00000000 I_sltu_cg_cp_rs1_b13
00004514 l       .text.rvtest	00000000 failedtest_x8_x7
00008fad l       .data	00000000 I_sltu_cg_cp_rs1_b13_str
000002d8 l       .text.rvtest	00000000 I_sltu_cg_cp_rs1_b14
00008fdd l       .data	00000000 I_sltu_cg_cp_rs1_b14_str
00000304 l       .text.rvtest	00000000 I_sltu_cg_cp_rs1_b15
0000900d l       .data	00000000 I_sltu_cg_cp_rs1_b15_str
00000334 l       .text.rvtest	00000000 I_sltu_cg_cp_rs1_b16
0000903d l       .data	00000000 I_sltu_cg_cp_rs1_b16_str
00000360 l       .text.rvtest	00000000 I_sltu_cg_cp_rs1_b17
0000906d l       .data	00000000 I_sltu_cg_cp_rs1_b17_str
0000038c l       .text.rvtest	00000000 I_sltu_cg_cp_rs1_b18
0000909d l       .data	00000000 I_sltu_cg_cp_rs1_b18_str
000003b8 l       .text.rvtest	00000000 I_sltu_cg_cp_rs1_b19
000090cd l       .data	00000000 I_sltu_cg_cp_rs1_b19_str
000003e4 l       .text.rvtest	00000000 I_sltu_cg_cp_rs1_b20
000090fd l       .data	00000000 I_sltu_cg_cp_rs1_b20_str
00000410 l       .text.rvtest	00000000 I_sltu_cg_cp_rs1_b21
0000912d l       .data	00000000 I_sltu_cg_cp_rs1_b21_str
0000043c l       .text.rvtest	00000000 I_sltu_cg_cp_rs1_b22
0000915d l       .data	00000000 I_sltu_cg_cp_rs1_b22_str
0000046c l       .text.rvtest	00000000 I_sltu_cg_cp_rs1_b23
0000918d l       .data	00000000 I_sltu_cg_cp_rs1_b23_str
00000498 l       .text.rvtest	00000000 I_sltu_cg_cp_rs1_b24
000091bd l       .data	00000000 I_sltu_cg_cp_rs1_b24_str
000004c4 l       .text.rvtest	00000000 I_sltu_cg_cp_rs1_b25
000091ed l       .data	00000000 I_sltu_cg_cp_rs1_b25_str
000004f0 l       .text.rvtest	00000000 I_sltu_cg_cp_rs1_b26
0000921d l       .data	00000000 I_sltu_cg_cp_rs1_b26_str
0000051c l       .text.rvtest	00000000 I_sltu_cg_cp_rs1_b27
0000924d l       .data	00000000 I_sltu_cg_cp_rs1_b27_str
0000054c l       .text.rvtest	00000000 I_sltu_cg_cp_rs1_b28
0000927d l       .data	00000000 I_sltu_cg_cp_rs1_b28_str
00000578 l       .text.rvtest	00000000 I_sltu_cg_cp_rs1_b29
000092ad l       .data	00000000 I_sltu_cg_cp_rs1_b29_str
000005a4 l       .text.rvtest	00000000 I_sltu_cg_cp_rs1_b30
000092dd l       .data	00000000 I_sltu_cg_cp_rs1_b30_str
000005d0 l       .text.rvtest	00000000 I_sltu_cg_cp_rs1_b31
0000930d l       .data	00000000 I_sltu_cg_cp_rs1_b31_str
000005fc l       .text.rvtest	00000000 I_sltu_cg_cp_rs2_b0
0000933d l       .data	00000000 I_sltu_cg_cp_rs2_b0_str
00000628 l       .text.rvtest	00000000 I_sltu_cg_cp_rs2_b1
0000936c l       .data	00000000 I_sltu_cg_cp_rs2_b1_str
00000654 l       .text.rvtest	00000000 I_sltu_cg_cp_rs2_b2
0000939b l       .data	00000000 I_sltu_cg_cp_rs2_b2_str
00000680 l       .text.rvtest	00000000 I_sltu_cg_cp_rs2_b3
000093ca l       .data	00000000 I_sltu_cg_cp_rs2_b3_str
000006ac l       .text.rvtest	00000000 I_sltu_cg_cp_rs2_b4
000093f9 l       .data	00000000 I_sltu_cg_cp_rs2_b4_str
000006d8 l       .text.rvtest	00000000 I_sltu_cg_cp_rs2_b5
00009428 l       .data	00000000 I_sltu_cg_cp_rs2_b5_str
00000708 l       .text.rvtest	00000000 I_sltu_cg_cp_rs2_b6
00009457 l       .data	00000000 I_sltu_cg_cp_rs2_b6_str
0000073c l       .text.rvtest	00000000 I_sltu_cg_cp_rs2_b7
00009486 l       .data	00000000 I_sltu_cg_cp_rs2_b7_str
00000768 l       .text.rvtest	00000000 I_sltu_cg_cp_rs2_b8
000094b5 l       .data	00000000 I_sltu_cg_cp_rs2_b8_str
00000794 l       .text.rvtest	00000000 I_sltu_cg_cp_rs2_b9
000094e4 l       .data	00000000 I_sltu_cg_cp_rs2_b9_str
000007c0 l       .text.rvtest	00000000 I_sltu_cg_cp_rs2_b10
00009513 l       .data	00000000 I_sltu_cg_cp_rs2_b10_str
000007ec l       .text.rvtest	00000000 I_sltu_cg_cp_rs2_b11
00009543 l       .data	00000000 I_sltu_cg_cp_rs2_b11_str
00000818 l       .text.rvtest	00000000 I_sltu_cg_cp_rs2_b12
00009573 l       .data	00000000 I_sltu_cg_cp_rs2_b12_str
0000084c l       .text.rvtest	00000000 I_sltu_cg_cp_rs2_b13
000095a3 l       .data	00000000 I_sltu_cg_cp_rs2_b13_str
00000878 l       .text.rvtest	00000000 I_sltu_cg_cp_rs2_b14
000095d3 l       .data	00000000 I_sltu_cg_cp_rs2_b14_str
000008a4 l       .text.rvtest	00000000 I_sltu_cg_cp_rs2_b15
00009603 l       .data	00000000 I_sltu_cg_cp_rs2_b15_str
000008d4 l       .text.rvtest	00000000 I_sltu_cg_cp_rs2_b16
00009633 l       .data	00000000 I_sltu_cg_cp_rs2_b16_str
00000900 l       .text.rvtest	00000000 I_sltu_cg_cp_rs2_b17
00009663 l       .data	00000000 I_sltu_cg_cp_rs2_b17_str
0000092c l       .text.rvtest	00000000 I_sltu_cg_cp_rs2_b18
00009693 l       .data	00000000 I_sltu_cg_cp_rs2_b18_str
00000958 l       .text.rvtest	00000000 I_sltu_cg_cp_rs2_b19
000096c3 l       .data	00000000 I_sltu_cg_cp_rs2_b19_str
00000984 l       .text.rvtest	00000000 I_sltu_cg_cp_rs2_b20
000096f3 l       .data	00000000 I_sltu_cg_cp_rs2_b20_str
000009b4 l       .text.rvtest	00000000 I_sltu_cg_cp_rs2_b21
00009723 l       .data	00000000 I_sltu_cg_cp_rs2_b21_str
000009e4 l       .text.rvtest	00000000 I_sltu_cg_cp_rs2_b22
00009753 l       .data	00000000 I_sltu_cg_cp_rs2_b22_str
00000a10 l       .text.rvtest	00000000 I_sltu_cg_cp_rs2_b23
00009783 l       .data	00000000 I_sltu_cg_cp_rs2_b23_str
00000a3c l       .text.rvtest	00000000 I_sltu_cg_cp_rs2_b24
000097b3 l       .data	00000000 I_sltu_cg_cp_rs2_b24_str
00000a68 l       .text.rvtest	00000000 I_sltu_cg_cp_rs2_b25
000097e3 l       .data	00000000 I_sltu_cg_cp_rs2_b25_str
00000a94 l       .text.rvtest	00000000 I_sltu_cg_cp_rs2_b26
00009813 l       .data	00000000 I_sltu_cg_cp_rs2_b26_str
00000ac4 l       .text.rvtest	00000000 I_sltu_cg_cp_rs2_b27
00009843 l       .data	00000000 I_sltu_cg_cp_rs2_b27_str
00000af0 l       .text.rvtest	00000000 I_sltu_cg_cp_rs2_b28
00009873 l       .data	00000000 I_sltu_cg_cp_rs2_b28_str
00000b1c l       .text.rvtest	00000000 I_sltu_cg_cp_rs2_b29
000098a3 l       .data	00000000 I_sltu_cg_cp_rs2_b29_str
00000b48 l       .text.rvtest	00000000 I_sltu_cg_cp_rs2_b30
000098d3 l       .data	00000000 I_sltu_cg_cp_rs2_b30_str
00000b74 l       .text.rvtest	00000000 I_sltu_cg_cp_rs2_b31
00009903 l       .data	00000000 I_sltu_cg_cp_rs2_b31_str
00000ba0 l       .text.rvtest	00000000 I_sltu_cg_cp_rd_b0
00009933 l       .data	00000000 I_sltu_cg_cp_rd_b0_str
00000bcc l       .text.rvtest	00000000 I_sltu_cg_cp_rd_b1
00009961 l       .data	00000000 I_sltu_cg_cp_rd_b1_str
00000bfc l       .text.rvtest	00000000 I_sltu_cg_cp_rd_b2
0000998f l       .data	00000000 I_sltu_cg_cp_rd_b2_str
00000c28 l       .text.rvtest	00000000 I_sltu_cg_cp_rd_b3
000099bd l       .data	00000000 I_sltu_cg_cp_rd_b3_str
00000c54 l       .text.rvtest	00000000 I_sltu_cg_cp_rd_b4
000099eb l       .data	00000000 I_sltu_cg_cp_rd_b4_str
00000c80 l       .text.rvtest	00000000 I_sltu_cg_cp_rd_b5
00009a19 l       .data	00000000 I_sltu_cg_cp_rd_b5_str
00000cac l       .text.rvtest	00000000 I_sltu_cg_cp_rd_b6
00009a47 l       .data	00000000 I_sltu_cg_cp_rd_b6_str
00000ce0 l       .text.rvtest	00000000 I_sltu_cg_cp_rd_b7
00009a75 l       .data	00000000 I_sltu_cg_cp_rd_b7_str
00000d0c l       .text.rvtest	00000000 I_sltu_cg_cp_rd_b8
00009aa3 l       .data	00000000 I_sltu_cg_cp_rd_b8_str
00000d38 l       .text.rvtest	00000000 I_sltu_cg_cp_rd_b9
00009ad1 l       .data	00000000 I_sltu_cg_cp_rd_b9_str
00000d64 l       .text.rvtest	00000000 I_sltu_cg_cp_rd_b10
00009aff l       .data	00000000 I_sltu_cg_cp_rd_b10_str
00000d90 l       .text.rvtest	00000000 I_sltu_cg_cp_rd_b11
00009b2e l       .data	00000000 I_sltu_cg_cp_rd_b11_str
00000dc0 l       .text.rvtest	00000000 I_sltu_cg_cp_rd_b12
00009b5d l       .data	00000000 I_sltu_cg_cp_rd_b12_str
00000dec l       .text.rvtest	00000000 I_sltu_cg_cp_rd_b13
00009b8c l       .data	00000000 I_sltu_cg_cp_rd_b13_str
00000e18 l       .text.rvtest	00000000 I_sltu_cg_cp_rd_b14
00009bbb l       .data	00000000 I_sltu_cg_cp_rd_b14_str
00000e44 l       .text.rvtest	00000000 I_sltu_cg_cp_rd_b15
00009bea l       .data	00000000 I_sltu_cg_cp_rd_b15_str
00000e70 l       .text.rvtest	00000000 I_sltu_cg_cp_rd_b16
00009c19 l       .data	00000000 I_sltu_cg_cp_rd_b16_str
00000e9c l       .text.rvtest	00000000 I_sltu_cg_cp_rd_b17
00009c48 l       .data	00000000 I_sltu_cg_cp_rd_b17_str
00000ec8 l       .text.rvtest	00000000 I_sltu_cg_cp_rd_b18
00009c77 l       .data	00000000 I_sltu_cg_cp_rd_b18_str
00000ef4 l       .text.rvtest	00000000 I_sltu_cg_cp_rd_b19
00009ca6 l       .data	00000000 I_sltu_cg_cp_rd_b19_str
00000f20 l       .text.rvtest	00000000 I_sltu_cg_cp_rd_b20
00009cd5 l       .data	00000000 I_sltu_cg_cp_rd_b20_str
00000f4c l       .text.rvtest	00000000 I_sltu_cg_cp_rd_b21
00009d04 l       .data	00000000 I_sltu_cg_cp_rd_b21_str
00000f78 l       .text.rvtest	00000000 I_sltu_cg_cp_rd_b22
00009d33 l       .data	00000000 I_sltu_cg_cp_rd_b22_str
00000fa8 l       .text.rvtest	00000000 I_sltu_cg_cp_rd_b23
00009d62 l       .data	00000000 I_sltu_cg_cp_rd_b23_str
00000fd4 l       .text.rvtest	00000000 I_sltu_cg_cp_rd_b24
00009d91 l       .data	00000000 I_sltu_cg_cp_rd_b24_str
00001004 l       .text.rvtest	00000000 I_sltu_cg_cp_rd_b25
00009dc0 l       .data	00000000 I_sltu_cg_cp_rd_b25_str
00001034 l       .text.rvtest	00000000 I_sltu_cg_cp_rd_b26
00009def l       .data	00000000 I_sltu_cg_cp_rd_b26_str
00001060 l       .text.rvtest	00000000 I_sltu_cg_cp_rd_b27
00009e1e l       .data	00000000 I_sltu_cg_cp_rd_b27_str
0000108c l       .text.rvtest	00000000 I_sltu_cg_cp_rd_b28
00009e4d l       .data	00000000 I_sltu_cg_cp_rd_b28_str
000010b8 l       .text.rvtest	00000000 I_sltu_cg_cp_rd_b29
00009e7c l       .data	00000000 I_sltu_cg_cp_rd_b29_str
000010e4 l       .text.rvtest	00000000 I_sltu_cg_cp_rd_b30
00009eab l       .data	00000000 I_sltu_cg_cp_rd_b30_str
00001110 l       .text.rvtest	00000000 I_sltu_cg_cp_rd_b31
00009eda l       .data	00000000 I_sltu_cg_cp_rd_b31_str
0000113c l       .text.rvtest	00000000 I_sltu_cg_cp_rs1_edges_0x0
00009f09 l       .data	00000000 I_sltu_cg_cp_rs1_edges_0x0_str
00001168 l       .text.rvtest	00000000 I_sltu_cg_cp_rs1_edges_0x1
00009f3f l       .data	00000000 I_sltu_cg_cp_rs1_edges_0x1_str
00001194 l       .text.rvtest	00000000 I_sltu_cg_cp_rs1_edges_0x2
00009f75 l       .data	00000000 I_sltu_cg_cp_rs1_edges_0x2_str
000011c0 l       .text.rvtest	00000000 I_sltu_cg_cp_rs1_edges_0x80000000
00009fab l       .data	00000000 I_sltu_cg_cp_rs1_edges_0x80000000_str
000011ec l       .text.rvtest	00000000 I_sltu_cg_cp_rs1_edges_0x80000001
00009fe9 l       .data	00000000 I_sltu_cg_cp_rs1_edges_0x80000001_str
00001218 l       .text.rvtest	00000000 I_sltu_cg_cp_rs1_edges_0x7fffffff
0000a027 l       .data	00000000 I_sltu_cg_cp_rs1_edges_0x7fffffff_str
00001244 l       .text.rvtest	00000000 I_sltu_cg_cp_rs1_edges_0x7ffffffe
0000a065 l       .data	00000000 I_sltu_cg_cp_rs1_edges_0x7ffffffe_str
00001270 l       .text.rvtest	00000000 I_sltu_cg_cp_rs1_edges_0xffffffff
0000a0a3 l       .data	00000000 I_sltu_cg_cp_rs1_edges_0xffffffff_str
0000129c l       .text.rvtest	00000000 I_sltu_cg_cp_rs1_edges_0xfffffffe
0000a0e1 l       .data	00000000 I_sltu_cg_cp_rs1_edges_0xfffffffe_str
000012c8 l       .text.rvtest	00000000 I_sltu_cg_cp_rs1_edges_0x5bbc8872
0000a11f l       .data	00000000 I_sltu_cg_cp_rs1_edges_0x5bbc8872_str
000012f4 l       .text.rvtest	00000000 I_sltu_cg_cp_rs1_edges_0xaaaaaaaa
0000a15d l       .data	00000000 I_sltu_cg_cp_rs1_edges_0xaaaaaaaa_str
00001320 l       .text.rvtest	00000000 I_sltu_cg_cp_rs1_edges_0x55555555
0000a19b l       .data	00000000 I_sltu_cg_cp_rs1_edges_0x55555555_str
0000134c l       .text.rvtest	00000000 I_sltu_cg_cp_rs2_edges_0x0
0000a1d9 l       .data	00000000 I_sltu_cg_cp_rs2_edges_0x0_str
00001378 l       .text.rvtest	00000000 I_sltu_cg_cp_rs2_edges_0x1
0000a210 l       .data	00000000 I_sltu_cg_cp_rs2_edges_0x1_str
000013a4 l       .text.rvtest	00000000 I_sltu_cg_cp_rs2_edges_0x2
0000a247 l       .data	00000000 I_sltu_cg_cp_rs2_edges_0x2_str
000013d0 l       .text.rvtest	00000000 I_sltu_cg_cp_rs2_edges_0x80000000
0000a27e l       .data	00000000 I_sltu_cg_cp_rs2_edges_0x80000000_str
000013fc l       .text.rvtest	00000000 I_sltu_cg_cp_rs2_edges_0x80000001
0000a2bc l       .data	00000000 I_sltu_cg_cp_rs2_edges_0x80000001_str
00001428 l       .text.rvtest	00000000 I_sltu_cg_cp_rs2_edges_0x7fffffff
0000a2fa l       .data	00000000 I_sltu_cg_cp_rs2_edges_0x7fffffff_str
00001454 l       .text.rvtest	00000000 I_sltu_cg_cp_rs2_edges_0x7ffffffe
0000a338 l       .data	00000000 I_sltu_cg_cp_rs2_edges_0x7ffffffe_str
00001480 l       .text.rvtest	00000000 I_sltu_cg_cp_rs2_edges_0xffffffff
0000a376 l       .data	00000000 I_sltu_cg_cp_rs2_edges_0xffffffff_str
000014ac l       .text.rvtest	00000000 I_sltu_cg_cp_rs2_edges_0xfffffffe
0000a3b4 l       .data	00000000 I_sltu_cg_cp_rs2_edges_0xfffffffe_str
000014d8 l       .text.rvtest	00000000 I_sltu_cg_cp_rs2_edges_0x5bbc8872
0000a3f2 l       .data	00000000 I_sltu_cg_cp_rs2_edges_0x5bbc8872_str
00001504 l       .text.rvtest	00000000 I_sltu_cg_cp_rs2_edges_0xaaaaaaaa
0000a430 l       .data	00000000 I_sltu_cg_cp_rs2_edges_0xaaaaaaaa_str
00001530 l       .text.rvtest	00000000 I_sltu_cg_cp_rs2_edges_0x55555555
0000a46e l       .data	00000000 I_sltu_cg_cp_rs2_edges_0x55555555_str
0000155c l       .text.rvtest	00000000 I_sltu_cg_cr_rs1_rs2_edges_rs1val_0x0_rs2val_0x0
0000a4ac l       .data	00000000 I_sltu_cg_cr_rs1_rs2_edges_rs1val_0x0_rs2val_0x0_str
00001588 l       .text.rvtest	00000000 I_sltu_cg_cr_rs1_rs2_edges_rs1val_0x0_rs2val_0x1
0000a4fa l       .data	00000000 I_sltu_cg_cr_rs1_rs2_edges_rs1val_0x0_rs2val_0x1_str
000015b4 l       .text.rvtest	00000000 I_sltu_cg_cr_rs1_rs2_edges_rs1val_0x0_rs2val_0x2
0000a548 l       .data	00000000 I_sltu_cg_cr_rs1_rs2_edges_rs1val_0x0_rs2val_0x2_str
000015e0 l       .text.rvtest	00000000 I_sltu_cg_cr_rs1_rs2_edges_rs1val_0x0_rs2val_0x80000000
0000a596 l       .data	00000000 I_sltu_cg_cr_rs1_rs2_edges_rs1val_0x0_rs2val_0x80000000_str
0000160c l       .text.rvtest	00000000 I_sltu_cg_cr_rs1_rs2_edges_rs1val_0x0_rs2val_0x80000001
0000a5eb l       .data	00000000 I_sltu_cg_cr_rs1_rs2_edges_rs1val_0x0_rs2val_0x80000001_str
00001638 l       .text.rvtest	00000000 I_sltu_cg_cr_rs1_rs2_edges_rs1val_0x0_rs2val_0x7fffffff
0000a640 l       .data	00000000 I_sltu_cg_cr_rs1_rs2_edges_rs1val_0x0_rs2val_0x7fffffff_str
00001664 l       .text.rvtest	00000000 I_sltu_cg_cr_rs1_rs2_edges_rs1val_0x0_rs2val_0x7ffffffe
0000a695 l       .data	00000000 I_sltu_cg_cr_rs1_rs2_edges_rs1val_0x0_rs2val_0x7ffffffe_str
00001690 l       .text.rvtest	00000000 I_sltu_cg_cr_rs1_rs2_edges_rs1val_0x0_rs2val_0xffffffff
0000a6ea l       .data	00000000 I_sltu_cg_cr_rs1_rs2_edges_rs1val_0x0_rs2val_0xffffffff_str
000016bc l       .text.rvtest	00000000 I_sltu_cg_cr_rs1_rs2_edges_rs1val_0x0_rs2val_0xfffffffe
0000a73f l       .data	00000000 I_sltu_cg_cr_rs1_rs2_edges_rs1val_0x0_rs2val_0xfffffffe_str
000016e8 l       .text.rvtest	00000000 I_sltu_cg_cr_rs1_rs2_edges_rs1val_0x0_rs2val_0x5bbc8872
0000a794 l       .data	00000000 I_sltu_cg_cr_rs1_rs2_edges_rs1val_0x0_rs2val_0x5bbc8872_str
00001714 l       .text.rvtest	00000000 I_sltu_cg_cr_rs1_rs2_edges_rs1val_0x0_rs2val_0xaaaaaaaa
0000a7e9 l       .data	00000000 I_sltu_cg_cr_rs1_rs2_edges_rs1val_0x0_rs2val_0xaaaaaaaa_str
00001740 l       .text.rvtest	00000000 I_sltu_cg_cr_rs1_rs2_edges_rs1val_0x0_rs2val_0x55555555
0000a83e l       .data	00000000 I_sltu_cg_cr_rs1_rs2_edges_rs1val_0x0_rs2val_0x55555555_str
0000176c l       .text.rvtest	00000000 I_sltu_cg_cr_rs1_rs2_edges_rs1val_0x1_rs2val_0x0
0000a893 l       .data	00000000 I_sltu_cg_cr_rs1_rs2_edges_rs1val_0x1_rs2val_0x0_str
00001798 l       .text.rvtest	00000000 I_sltu_cg_cr_rs1_rs2_edges_rs1val_0x1_rs2val_0x1
0000a8e1 l       .data	00000000 I_sltu_cg_cr_rs1_rs2_edges_rs1val_0x1_rs2val_0x1_str
000017c4 l       .text.rvtest	00000000 I_sltu_cg_cr_rs1_rs2_edges_rs1val_0x1_rs2val_0x2
0000a92f l       .data	00000000 I_sltu_cg_cr_rs1_rs2_edges_rs1val_0x1_rs2val_0x2_str
000017f0 l       .text.rvtest	00000000 I_sltu_cg_cr_rs1_rs2_edges_rs1val_0x1_rs2val_0x80000000
0000a97d l       .data	00000000 I_sltu_cg_cr_rs1_rs2_edges_rs1val_0x1_rs2val_0x80000000_str
0000181c l       .text.rvtest	00000000 I_sltu_cg_cr_rs1_rs2_edges_rs1val_0x1_rs2val_0x80000001
0000a9d2 l       .data	00000000 I_sltu_cg_cr_rs1_rs2_edges_rs1val_0x1_rs2val_0x80000001_str
00001848 l       .text.rvtest	00000000 I_sltu_cg_cr_rs1_rs2_edges_rs1val_0x1_rs2val_0x7fffffff
0000aa27 l       .data	00000000 I_sltu_cg_cr_rs1_rs2_edges_rs1val_0x1_rs2val_0x7fffffff_str
00001874 l       .text.rvtest	00000000 I_sltu_cg_cr_rs1_rs2_edges_rs1val_0x1_rs2val_0x7ffffffe
0000aa7c l       .data	00000000 I_sltu_cg_cr_rs1_rs2_edges_rs1val_0x1_rs2val_0x7ffffffe_str
000018a0 l       .text.rvtest	00000000 I_sltu_cg_cr_rs1_rs2_edges_rs1val_0x1_rs2val_0xffffffff
0000aad1 l       .data	00000000 I_sltu_cg_cr_rs1_rs2_edges_rs1val_0x1_rs2val_0xffffffff_str
000018cc l       .text.rvtest	00000000 I_sltu_cg_cr_rs1_rs2_edges_rs1val_0x1_rs2val_0xfffffffe
0000ab26 l       .data	00000000 I_sltu_cg_cr_rs1_rs2_edges_rs1val_0x1_rs2val_0xfffffffe_str
000018f8 l       .text.rvtest	00000000 I_sltu_cg_cr_rs1_rs2_edges_rs1val_0x1_rs2val_0x5bbc8872
0000ab7b l       .data	00000000 I_sltu_cg_cr_rs1_rs2_edges_rs1val_0x1_rs2val_0x5bbc8872_str
00001924 l       .text.rvtest	00000000 I_sltu_cg_cr_rs1_rs2_edges_rs1val_0x1_rs2val_0xaaaaaaaa
0000abd0 l       .data	00000000 I_sltu_cg_cr_rs1_rs2_edges_rs1val_0x1_rs2val_0xaaaaaaaa_str
00001950 l       .text.rvtest	00000000 I_sltu_cg_cr_rs1_rs2_edges_rs1val_0x1_rs2val_0x55555555
0000ac25 l       .data	00000000 I_sltu_cg_cr_rs1_rs2_edges_rs1val_0x1_rs2val_0x55555555_str
0000197c l       .text.rvtest	00000000 I_sltu_cg_cr_rs1_rs2_edges_rs1val_0x2_rs2val_0x0
0000ac7a l       .data	00000000 I_sltu_cg_cr_rs1_rs2_edges_rs1val_0x2_rs2val_0x0_str
000019a8 l       .text.rvtest	00000000 I_sltu_cg_cr_rs1_rs2_edges_rs1val_0x2_rs2val_0x1
0000acc8 l       .data	00000000 I_sltu_cg_cr_rs1_rs2_edges_rs1val_0x2_rs2val_0x1_str
000019d4 l       .text.rvtest	00000000 I_sltu_cg_cr_rs1_rs2_edges_rs1val_0x2_rs2val_0x2
0000ad16 l       .data	00000000 I_sltu_cg_cr_rs1_rs2_edges_rs1val_0x2_rs2val_0x2_str
00001a00 l       .text.rvtest	00000000 I_sltu_cg_cr_rs1_rs2_edges_rs1val_0x2_rs2val_0x80000000
0000ad64 l       .data	00000000 I_sltu_cg_cr_rs1_rs2_edges_rs1val_0x2_rs2val_0x80000000_str
00001a2c l       .text.rvtest	00000000 I_sltu_cg_cr_rs1_rs2_edges_rs1val_0x2_rs2val_0x80000001
0000adb9 l       .data	00000000 I_sltu_cg_cr_rs1_rs2_edges_rs1val_0x2_rs2val_0x80000001_str
00001a58 l       .text.rvtest	00000000 I_sltu_cg_cr_rs1_rs2_edges_rs1val_0x2_rs2val_0x7fffffff
0000ae0e l       .data	00000000 I_sltu_cg_cr_rs1_rs2_edges_rs1val_0x2_rs2val_0x7fffffff_str
00001a84 l       .text.rvtest	00000000 I_sltu_cg_cr_rs1_rs2_edges_rs1val_0x2_rs2val_0x7ffffffe
0000ae63 l       .data	00000000 I_sltu_cg_cr_rs1_rs2_edges_rs1val_0x2_rs2val_0x7ffffffe_str
00001ab0 l       .text.rvtest	00000000 I_sltu_cg_cr_rs1_rs2_edges_rs1val_0x2_rs2val_0xffffffff
0000aeb8 l       .data	00000000 I_sltu_cg_cr_rs1_rs2_edges_rs1val_0x2_rs2val_0xffffffff_str
00001adc l       .text.rvtest	00000000 I_sltu_cg_cr_rs1_rs2_edges_rs1val_0x2_rs2val_0xfffffffe
0000af0d l       .data	00000000 I_sltu_cg_cr_rs1_rs2_edges_rs1val_0x2_rs2val_0xfffffffe_str
00001b08 l       .text.rvtest	00000000 I_sltu_cg_cr_rs1_rs2_edges_rs1val_0x2_rs2val_0x5bbc8872
0000af62 l       .data	00000000 I_sltu_cg_cr_rs1_rs2_edges_rs1val_0x2_rs2val_0x5bbc8872_str
00001b34 l       .text.rvtest	00000000 I_sltu_cg_cr_rs1_rs2_edges_rs1val_0x2_rs2val_0xaaaaaaaa
0000afb7 l       .data	00000000 I_sltu_cg_cr_rs1_rs2_edges_rs1val_0x2_rs2val_0xaaaaaaaa_str
00001b60 l       .text.rvtest	00000000 I_sltu_cg_cr_rs1_rs2_edges_rs1val_0x2_rs2val_0x55555555
0000b00c l       .data	00000000 I_sltu_cg_cr_rs1_rs2_edges_rs1val_0x2_rs2val_0x55555555_str
00001b8c l       .text.rvtest	00000000 I_sltu_cg_cr_rs1_rs2_edges_rs1val_0x80000000_rs2val_0x0
0000b061 l       .data	00000000 I_sltu_cg_cr_rs1_rs2_edges_rs1val_0x80000000_rs2val_0x0_str
00001bb8 l       .text.rvtest	00000000 I_sltu_cg_cr_rs1_rs2_edges_rs1val_0x80000000_rs2val_0x1
0000b0b6 l       .data	00000000 I_sltu_cg_cr_rs1_rs2_edges_rs1val_0x80000000_rs2val_0x1_str
00001be4 l       .text.rvtest	00000000 I_sltu_cg_cr_rs1_rs2_edges_rs1val_0x80000000_rs2val_0x2
0000b10b l       .data	00000000 I_sltu_cg_cr_rs1_rs2_edges_rs1val_0x80000000_rs2val_0x2_str
00001c10 l       .text.rvtest	00000000 I_sltu_cg_cr_rs1_rs2_edges_rs1val_0x80000000_rs2val_0x80000000
0000b160 l       .data	00000000 I_sltu_cg_cr_rs1_rs2_edges_rs1val_0x80000000_rs2val_0x80000000_str
00001c3c l       .text.rvtest	00000000 I_sltu_cg_cr_rs1_rs2_edges_rs1val_0x80000000_rs2val_0x80000001
0000b1bc l       .data	00000000 I_sltu_cg_cr_rs1_rs2_edges_rs1val_0x80000000_rs2val_0x80000001_str
00001c68 l       .text.rvtest	00000000 I_sltu_cg_cr_rs1_rs2_edges_rs1val_0x80000000_rs2val_0x7fffffff
0000b218 l       .data	00000000 I_sltu_cg_cr_rs1_rs2_edges_rs1val_0x80000000_rs2val_0x7fffffff_str
00001c94 l       .text.rvtest	00000000 I_sltu_cg_cr_rs1_rs2_edges_rs1val_0x80000000_rs2val_0x7ffffffe
0000b274 l       .data	00000000 I_sltu_cg_cr_rs1_rs2_edges_rs1val_0x80000000_rs2val_0x7ffffffe_str
00001cc0 l       .text.rvtest	00000000 I_sltu_cg_cr_rs1_rs2_edges_rs1val_0x80000000_rs2val_0xffffffff
0000b2d0 l       .data	00000000 I_sltu_cg_cr_rs1_rs2_edges_rs1val_0x80000000_rs2val_0xffffffff_str
00001cec l       .text.rvtest	00000000 I_sltu_cg_cr_rs1_rs2_edges_rs1val_0x80000000_rs2val_0xfffffffe
0000b32c l       .data	00000000 I_sltu_cg_cr_rs1_rs2_edges_rs1val_0x80000000_rs2val_0xfffffffe_str
00001d18 l       .text.rvtest	00000000 I_sltu_cg_cr_rs1_rs2_edges_rs1val_0x80000000_rs2val_0x5bbc8872
0000b388 l       .data	00000000 I_sltu_cg_cr_rs1_rs2_edges_rs1val_0x80000000_rs2val_0x5bbc8872_str
00001d44 l       .text.rvtest	00000000 I_sltu_cg_cr_rs1_rs2_edges_rs1val_0x80000000_rs2val_0xaaaaaaaa
0000b3e4 l       .data	00000000 I_sltu_cg_cr_rs1_rs2_edges_rs1val_0x80000000_rs2val_0xaaaaaaaa_str
00001d70 l       .text.rvtest	00000000 I_sltu_cg_cr_rs1_rs2_edges_rs1val_0x80000000_rs2val_0x55555555
0000b440 l       .data	00000000 I_sltu_cg_cr_rs1_rs2_edges_rs1val_0x80000000_rs2val_0x55555555_str
00001d9c l       .text.rvtest	00000000 I_sltu_cg_cr_rs1_rs2_edges_rs1val_0x80000001_rs2val_0x0
0000b49c l       .data	00000000 I_sltu_cg_cr_rs1_rs2_edges_rs1val_0x80000001_rs2val_0x0_str
00001dc8 l       .text.rvtest	00000000 I_sltu_cg_cr_rs1_rs2_edges_rs1val_0x80000001_rs2val_0x1
0000b4f1 l       .data	00000000 I_sltu_cg_cr_rs1_rs2_edges_rs1val_0x80000001_rs2val_0x1_str
00001df4 l       .text.rvtest	00000000 I_sltu_cg_cr_rs1_rs2_edges_rs1val_0x80000001_rs2val_0x2
0000b546 l       .data	00000000 I_sltu_cg_cr_rs1_rs2_edges_rs1val_0x80000001_rs2val_0x2_str
00001e20 l       .text.rvtest	00000000 I_sltu_cg_cr_rs1_rs2_edges_rs1val_0x80000001_rs2val_0x80000000
0000b59b l       .data	00000000 I_sltu_cg_cr_rs1_rs2_edges_rs1val_0x80000001_rs2val_0x80000000_str
00001e4c l       .text.rvtest	00000000 I_sltu_cg_cr_rs1_rs2_edges_rs1val_0x80000001_rs2val_0x80000001
0000b5f7 l       .data	00000000 I_sltu_cg_cr_rs1_rs2_edges_rs1val_0x80000001_rs2val_0x80000001_str
00001e78 l       .text.rvtest	00000000 I_sltu_cg_cr_rs1_rs2_edges_rs1val_0x80000001_rs2val_0x7fffffff
0000b653 l       .data	00000000 I_sltu_cg_cr_rs1_rs2_edges_rs1val_0x80000001_rs2val_0x7fffffff_str
00001ea4 l       .text.rvtest	00000000 I_sltu_cg_cr_rs1_rs2_edges_rs1val_0x80000001_rs2val_0x7ffffffe
0000b6af l       .data	00000000 I_sltu_cg_cr_rs1_rs2_edges_rs1val_0x80000001_rs2val_0x7ffffffe_str
00001ed0 l       .text.rvtest	00000000 I_sltu_cg_cr_rs1_rs2_edges_rs1val_0x80000001_rs2val_0xffffffff
0000b70b l       .data	00000000 I_sltu_cg_cr_rs1_rs2_edges_rs1val_0x80000001_rs2val_0xffffffff_str
00001efc l       .text.rvtest	00000000 I_sltu_cg_cr_rs1_rs2_edges_rs1val_0x80000001_rs2val_0xfffffffe
0000b767 l       .data	00000000 I_sltu_cg_cr_rs1_rs2_edges_rs1val_0x80000001_rs2val_0xfffffffe_str
00001f28 l       .text.rvtest	00000000 I_sltu_cg_cr_rs1_rs2_edges_rs1val_0x80000001_rs2val_0x5bbc8872
0000b7c3 l       .data	00000000 I_sltu_cg_cr_rs1_rs2_edges_rs1val_0x80000001_rs2val_0x5bbc8872_str
00001f54 l       .text.rvtest	00000000 I_sltu_cg_cr_rs1_rs2_edges_rs1val_0x80000001_rs2val_0xaaaaaaaa
0000b81f l       .data	00000000 I_sltu_cg_cr_rs1_rs2_edges_rs1val_0x80000001_rs2val_0xaaaaaaaa_str
00001f80 l       .text.rvtest	00000000 I_sltu_cg_cr_rs1_rs2_edges_rs1val_0x80000001_rs2val_0x55555555
0000b87b l       .data	00000000 I_sltu_cg_cr_rs1_rs2_edges_rs1val_0x80000001_rs2val_0x55555555_str
00001fac l       .text.rvtest	00000000 I_sltu_cg_cr_rs1_rs2_edges_rs1val_0x7fffffff_rs2val_0x0
0000b8d7 l       .data	00000000 I_sltu_cg_cr_rs1_rs2_edges_rs1val_0x7fffffff_rs2val_0x0_str
00001fd8 l       .text.rvtest	00000000 I_sltu_cg_cr_rs1_rs2_edges_rs1val_0x7fffffff_rs2val_0x1
0000b92c l       .data	00000000 I_sltu_cg_cr_rs1_rs2_edges_rs1val_0x7fffffff_rs2val_0x1_str
00002004 l       .text.rvtest	00000000 I_sltu_cg_cr_rs1_rs2_edges_rs1val_0x7fffffff_rs2val_0x2
0000b981 l       .data	00000000 I_sltu_cg_cr_rs1_rs2_edges_rs1val_0x7fffffff_rs2val_0x2_str
00002030 l       .text.rvtest	00000000 I_sltu_cg_cr_rs1_rs2_edges_rs1val_0x7fffffff_rs2val_0x80000000
0000b9d6 l       .data	00000000 I_sltu_cg_cr_rs1_rs2_edges_rs1val_0x7fffffff_rs2val_0x80000000_str
0000205c l       .text.rvtest	00000000 I_sltu_cg_cr_rs1_rs2_edges_rs1val_0x7fffffff_rs2val_0x80000001
0000ba32 l       .data	00000000 I_sltu_cg_cr_rs1_rs2_edges_rs1val_0x7fffffff_rs2val_0x80000001_str
00002088 l       .text.rvtest	00000000 I_sltu_cg_cr_rs1_rs2_edges_rs1val_0x7fffffff_rs2val_0x7fffffff
0000ba8e l       .data	00000000 I_sltu_cg_cr_rs1_rs2_edges_rs1val_0x7fffffff_rs2val_0x7fffffff_str
000020b4 l       .text.rvtest	00000000 I_sltu_cg_cr_rs1_rs2_edges_rs1val_0x7fffffff_rs2val_0x7ffffffe
0000baea l       .data	00000000 I_sltu_cg_cr_rs1_rs2_edges_rs1val_0x7fffffff_rs2val_0x7ffffffe_str
000020e0 l       .text.rvtest	00000000 I_sltu_cg_cr_rs1_rs2_edges_rs1val_0x7fffffff_rs2val_0xffffffff
0000bb46 l       .data	00000000 I_sltu_cg_cr_rs1_rs2_edges_rs1val_0x7fffffff_rs2val_0xffffffff_str
0000210c l       .text.rvtest	00000000 I_sltu_cg_cr_rs1_rs2_edges_rs1val_0x7fffffff_rs2val_0xfffffffe
0000bba2 l       .data	00000000 I_sltu_cg_cr_rs1_rs2_edges_rs1val_0x7fffffff_rs2val_0xfffffffe_str
00002138 l       .text.rvtest	00000000 I_sltu_cg_cr_rs1_rs2_edges_rs1val_0x7fffffff_rs2val_0x5bbc8872
0000bbfe l       .data	00000000 I_sltu_cg_cr_rs1_rs2_edges_rs1val_0x7fffffff_rs2val_0x5bbc8872_str
00002164 l       .text.rvtest	00000000 I_sltu_cg_cr_rs1_rs2_edges_rs1val_0x7fffffff_rs2val_0xaaaaaaaa
0000bc5a l       .data	00000000 I_sltu_cg_cr_rs1_rs2_edges_rs1val_0x7fffffff_rs2val_0xaaaaaaaa_str
00002190 l       .text.rvtest	00000000 I_sltu_cg_cr_rs1_rs2_edges_rs1val_0x7fffffff_rs2val_0x55555555
0000bcb6 l       .data	00000000 I_sltu_cg_cr_rs1_rs2_edges_rs1val_0x7fffffff_rs2val_0x55555555_str
000021bc l       .text.rvtest	00000000 I_sltu_cg_cr_rs1_rs2_edges_rs1val_0x7ffffffe_rs2val_0x0
0000bd12 l       .data	00000000 I_sltu_cg_cr_rs1_rs2_edges_rs1val_0x7ffffffe_rs2val_0x0_str
000021e8 l       .text.rvtest	00000000 I_sltu_cg_cr_rs1_rs2_edges_rs1val_0x7ffffffe_rs2val_0x1
0000bd67 l       .data	00000000 I_sltu_cg_cr_rs1_rs2_edges_rs1val_0x7ffffffe_rs2val_0x1_str
00002214 l       .text.rvtest	00000000 I_sltu_cg_cr_rs1_rs2_edges_rs1val_0x7ffffffe_rs2val_0x2
0000bdbc l       .data	00000000 I_sltu_cg_cr_rs1_rs2_edges_rs1val_0x7ffffffe_rs2val_0x2_str
00002240 l       .text.rvtest	00000000 I_sltu_cg_cr_rs1_rs2_edges_rs1val_0x7ffffffe_rs2val_0x80000000
0000be11 l       .data	00000000 I_sltu_cg_cr_rs1_rs2_edges_rs1val_0x7ffffffe_rs2val_0x80000000_str
0000226c l       .text.rvtest	00000000 I_sltu_cg_cr_rs1_rs2_edges_rs1val_0x7ffffffe_rs2val_0x80000001
0000be6d l       .data	00000000 I_sltu_cg_cr_rs1_rs2_edges_rs1val_0x7ffffffe_rs2val_0x80000001_str
00002298 l       .text.rvtest	00000000 I_sltu_cg_cr_rs1_rs2_edges_rs1val_0x7ffffffe_rs2val_0x7fffffff
0000bec9 l       .data	00000000 I_sltu_cg_cr_rs1_rs2_edges_rs1val_0x7ffffffe_rs2val_0x7fffffff_str
000022c4 l       .text.rvtest	00000000 I_sltu_cg_cr_rs1_rs2_edges_rs1val_0x7ffffffe_rs2val_0x7ffffffe
0000bf25 l       .data	00000000 I_sltu_cg_cr_rs1_rs2_edges_rs1val_0x7ffffffe_rs2val_0x7ffffffe_str
000022f0 l       .text.rvtest	00000000 I_sltu_cg_cr_rs1_rs2_edges_rs1val_0x7ffffffe_rs2val_0xffffffff
0000bf81 l       .data	00000000 I_sltu_cg_cr_rs1_rs2_edges_rs1val_0x7ffffffe_rs2val_0xffffffff_str
0000231c l       .text.rvtest	00000000 I_sltu_cg_cr_rs1_rs2_edges_rs1val_0x7ffffffe_rs2val_0xfffffffe
0000bfdd l       .data	00000000 I_sltu_cg_cr_rs1_rs2_edges_rs1val_0x7ffffffe_rs2val_0xfffffffe_str
00002348 l       .text.rvtest	00000000 I_sltu_cg_cr_rs1_rs2_edges_rs1val_0x7ffffffe_rs2val_0x5bbc8872
0000c039 l       .data	00000000 I_sltu_cg_cr_rs1_rs2_edges_rs1val_0x7ffffffe_rs2val_0x5bbc8872_str
00002374 l       .text.rvtest	00000000 I_sltu_cg_cr_rs1_rs2_edges_rs1val_0x7ffffffe_rs2val_0xaaaaaaaa
0000c095 l       .data	00000000 I_sltu_cg_cr_rs1_rs2_edges_rs1val_0x7ffffffe_rs2val_0xaaaaaaaa_str
000023a0 l       .text.rvtest	00000000 I_sltu_cg_cr_rs1_rs2_edges_rs1val_0x7ffffffe_rs2val_0x55555555
0000c0f1 l       .data	00000000 I_sltu_cg_cr_rs1_rs2_edges_rs1val_0x7ffffffe_rs2val_0x55555555_str
000023cc l       .text.rvtest	00000000 I_sltu_cg_cr_rs1_rs2_edges_rs1val_0xffffffff_rs2val_0x0
0000c14d l       .data	00000000 I_sltu_cg_cr_rs1_rs2_edges_rs1val_0xffffffff_rs2val_0x0_str
000023f8 l       .text.rvtest	00000000 I_sltu_cg_cr_rs1_rs2_edges_rs1val_0xffffffff_rs2val_0x1
0000c1a2 l       .data	00000000 I_sltu_cg_cr_rs1_rs2_edges_rs1val_0xffffffff_rs2val_0x1_str
00002424 l       .text.rvtest	00000000 I_sltu_cg_cr_rs1_rs2_edges_rs1val_0xffffffff_rs2val_0x2
0000c1f7 l       .data	00000000 I_sltu_cg_cr_rs1_rs2_edges_rs1val_0xffffffff_rs2val_0x2_str
00002450 l       .text.rvtest	00000000 I_sltu_cg_cr_rs1_rs2_edges_rs1val_0xffffffff_rs2val_0x80000000
0000c24c l       .data	00000000 I_sltu_cg_cr_rs1_rs2_edges_rs1val_0xffffffff_rs2val_0x80000000_str
0000247c l       .text.rvtest	00000000 I_sltu_cg_cr_rs1_rs2_edges_rs1val_0xffffffff_rs2val_0x80000001
0000c2a8 l       .data	00000000 I_sltu_cg_cr_rs1_rs2_edges_rs1val_0xffffffff_rs2val_0x80000001_str
000024a8 l       .text.rvtest	00000000 I_sltu_cg_cr_rs1_rs2_edges_rs1val_0xffffffff_rs2val_0x7fffffff
0000c304 l       .data	00000000 I_sltu_cg_cr_rs1_rs2_edges_rs1val_0xffffffff_rs2val_0x7fffffff_str
000024d4 l       .text.rvtest	00000000 I_sltu_cg_cr_rs1_rs2_edges_rs1val_0xffffffff_rs2val_0x7ffffffe
0000c360 l       .data	00000000 I_sltu_cg_cr_rs1_rs2_edges_rs1val_0xffffffff_rs2val_0x7ffffffe_str
00002500 l       .text.rvtest	00000000 I_sltu_cg_cr_rs1_rs2_edges_rs1val_0xffffffff_rs2val_0xffffffff
0000c3bc l       .data	00000000 I_sltu_cg_cr_rs1_rs2_edges_rs1val_0xffffffff_rs2val_0xffffffff_str
0000252c l       .text.rvtest	00000000 I_sltu_cg_cr_rs1_rs2_edges_rs1val_0xffffffff_rs2val_0xfffffffe
0000c418 l       .data	00000000 I_sltu_cg_cr_rs1_rs2_edges_rs1val_0xffffffff_rs2val_0xfffffffe_str
00002558 l       .text.rvtest	00000000 I_sltu_cg_cr_rs1_rs2_edges_rs1val_0xffffffff_rs2val_0x5bbc8872
0000c474 l       .data	00000000 I_sltu_cg_cr_rs1_rs2_edges_rs1val_0xffffffff_rs2val_0x5bbc8872_str
00002584 l       .text.rvtest	00000000 I_sltu_cg_cr_rs1_rs2_edges_rs1val_0xffffffff_rs2val_0xaaaaaaaa
0000c4d0 l       .data	00000000 I_sltu_cg_cr_rs1_rs2_edges_rs1val_0xffffffff_rs2val_0xaaaaaaaa_str
000025b0 l       .text.rvtest	00000000 I_sltu_cg_cr_rs1_rs2_edges_rs1val_0xffffffff_rs2val_0x55555555
0000c52c l       .data	00000000 I_sltu_cg_cr_rs1_rs2_edges_rs1val_0xffffffff_rs2val_0x55555555_str
000025dc l       .text.rvtest	00000000 I_sltu_cg_cr_rs1_rs2_edges_rs1val_0xfffffffe_rs2val_0x0
0000c588 l       .data	00000000 I_sltu_cg_cr_rs1_rs2_edges_rs1val_0xfffffffe_rs2val_0x0_str
00002608 l       .text.rvtest	00000000 I_sltu_cg_cr_rs1_rs2_edges_rs1val_0xfffffffe_rs2val_0x1
0000c5dd l       .data	00000000 I_sltu_cg_cr_rs1_rs2_edges_rs1val_0xfffffffe_rs2val_0x1_str
00002634 l       .text.rvtest	00000000 I_sltu_cg_cr_rs1_rs2_edges_rs1val_0xfffffffe_rs2val_0x2
0000c632 l       .data	00000000 I_sltu_cg_cr_rs1_rs2_edges_rs1val_0xfffffffe_rs2val_0x2_str
00002660 l       .text.rvtest	00000000 I_sltu_cg_cr_rs1_rs2_edges_rs1val_0xfffffffe_rs2val_0x80000000
0000c687 l       .data	00000000 I_sltu_cg_cr_rs1_rs2_edges_rs1val_0xfffffffe_rs2val_0x80000000_str
0000268c l       .text.rvtest	00000000 I_sltu_cg_cr_rs1_rs2_edges_rs1val_0xfffffffe_rs2val_0x80000001
0000c6e3 l       .data	00000000 I_sltu_cg_cr_rs1_rs2_edges_rs1val_0xfffffffe_rs2val_0x80000001_str
000026b8 l       .text.rvtest	00000000 I_sltu_cg_cr_rs1_rs2_edges_rs1val_0xfffffffe_rs2val_0x7fffffff
0000c73f l       .data	00000000 I_sltu_cg_cr_rs1_rs2_edges_rs1val_0xfffffffe_rs2val_0x7fffffff_str
000026e4 l       .text.rvtest	00000000 I_sltu_cg_cr_rs1_rs2_edges_rs1val_0xfffffffe_rs2val_0x7ffffffe
0000c79b l       .data	00000000 I_sltu_cg_cr_rs1_rs2_edges_rs1val_0xfffffffe_rs2val_0x7ffffffe_str
00002710 l       .text.rvtest	00000000 I_sltu_cg_cr_rs1_rs2_edges_rs1val_0xfffffffe_rs2val_0xffffffff
0000c7f7 l       .data	00000000 I_sltu_cg_cr_rs1_rs2_edges_rs1val_0xfffffffe_rs2val_0xffffffff_str
0000273c l       .text.rvtest	00000000 I_sltu_cg_cr_rs1_rs2_edges_rs1val_0xfffffffe_rs2val_0xfffffffe
0000c853 l       .data	00000000 I_sltu_cg_cr_rs1_rs2_edges_rs1val_0xfffffffe_rs2val_0xfffffffe_str
00002768 l       .text.rvtest	00000000 I_sltu_cg_cr_rs1_rs2_edges_rs1val_0xfffffffe_rs2val_0x5bbc8872
0000c8af l       .data	00000000 I_sltu_cg_cr_rs1_rs2_edges_rs1val_0xfffffffe_rs2val_0x5bbc8872_str
00002794 l       .text.rvtest	00000000 I_sltu_cg_cr_rs1_rs2_edges_rs1val_0xfffffffe_rs2val_0xaaaaaaaa
0000c90b l       .data	00000000 I_sltu_cg_cr_rs1_rs2_edges_rs1val_0xfffffffe_rs2val_0xaaaaaaaa_str
000027c0 l       .text.rvtest	00000000 I_sltu_cg_cr_rs1_rs2_edges_rs1val_0xfffffffe_rs2val_0x55555555
0000c967 l       .data	00000000 I_sltu_cg_cr_rs1_rs2_edges_rs1val_0xfffffffe_rs2val_0x55555555_str
000027ec l       .text.rvtest	00000000 I_sltu_cg_cr_rs1_rs2_edges_rs1val_0x5bbc8872_rs2val_0x0
0000c9c3 l       .data	00000000 I_sltu_cg_cr_rs1_rs2_edges_rs1val_0x5bbc8872_rs2val_0x0_str
00002818 l       .text.rvtest	00000000 I_sltu_cg_cr_rs1_rs2_edges_rs1val_0x5bbc8872_rs2val_0x1
0000ca18 l       .data	00000000 I_sltu_cg_cr_rs1_rs2_edges_rs1val_0x5bbc8872_rs2val_0x1_str
00002844 l       .text.rvtest	00000000 I_sltu_cg_cr_rs1_rs2_edges_rs1val_0x5bbc8872_rs2val_0x2
0000ca6d l       .data	00000000 I_sltu_cg_cr_rs1_rs2_edges_rs1val_0x5bbc8872_rs2val_0x2_str
00002870 l       .text.rvtest	00000000 I_sltu_cg_cr_rs1_rs2_edges_rs1val_0x5bbc8872_rs2val_0x80000000
0000cac2 l       .data	00000000 I_sltu_cg_cr_rs1_rs2_edges_rs1val_0x5bbc8872_rs2val_0x80000000_str
0000289c l       .text.rvtest	00000000 I_sltu_cg_cr_rs1_rs2_edges_rs1val_0x5bbc8872_rs2val_0x80000001
0000cb1e l       .data	00000000 I_sltu_cg_cr_rs1_rs2_edges_rs1val_0x5bbc8872_rs2val_0x80000001_str
000028c8 l       .text.rvtest	00000000 I_sltu_cg_cr_rs1_rs2_edges_rs1val_0x5bbc8872_rs2val_0x7fffffff
0000cb7a l       .data	00000000 I_sltu_cg_cr_rs1_rs2_edges_rs1val_0x5bbc8872_rs2val_0x7fffffff_str
000028f4 l       .text.rvtest	00000000 I_sltu_cg_cr_rs1_rs2_edges_rs1val_0x5bbc8872_rs2val_0x7ffffffe
0000cbd6 l       .data	00000000 I_sltu_cg_cr_rs1_rs2_edges_rs1val_0x5bbc8872_rs2val_0x7ffffffe_str
00002920 l       .text.rvtest	00000000 I_sltu_cg_cr_rs1_rs2_edges_rs1val_0x5bbc8872_rs2val_0xffffffff
0000cc32 l       .data	00000000 I_sltu_cg_cr_rs1_rs2_edges_rs1val_0x5bbc8872_rs2val_0xffffffff_str
0000294c l       .text.rvtest	00000000 I_sltu_cg_cr_rs1_rs2_edges_rs1val_0x5bbc8872_rs2val_0xfffffffe
0000cc8e l       .data	00000000 I_sltu_cg_cr_rs1_rs2_edges_rs1val_0x5bbc8872_rs2val_0xfffffffe_str
00002978 l       .text.rvtest	00000000 I_sltu_cg_cr_rs1_rs2_edges_rs1val_0x5bbc8872_rs2val_0x5bbc8872
0000ccea l       .data	00000000 I_sltu_cg_cr_rs1_rs2_edges_rs1val_0x5bbc8872_rs2val_0x5bbc8872_str
000029a4 l       .text.rvtest	00000000 I_sltu_cg_cr_rs1_rs2_edges_rs1val_0x5bbc8872_rs2val_0xaaaaaaaa
0000cd46 l       .data	00000000 I_sltu_cg_cr_rs1_rs2_edges_rs1val_0x5bbc8872_rs2val_0xaaaaaaaa_str
000029d0 l       .text.rvtest	00000000 I_sltu_cg_cr_rs1_rs2_edges_rs1val_0x5bbc8872_rs2val_0x55555555
0000cda2 l       .data	00000000 I_sltu_cg_cr_rs1_rs2_edges_rs1val_0x5bbc8872_rs2val_0x55555555_str
000029fc l       .text.rvtest	00000000 I_sltu_cg_cr_rs1_rs2_edges_rs1val_0xaaaaaaaa_rs2val_0x0
0000cdfe l       .data	00000000 I_sltu_cg_cr_rs1_rs2_edges_rs1val_0xaaaaaaaa_rs2val_0x0_str
00002a28 l       .text.rvtest	00000000 I_sltu_cg_cr_rs1_rs2_edges_rs1val_0xaaaaaaaa_rs2val_0x1
0000ce53 l       .data	00000000 I_sltu_cg_cr_rs1_rs2_edges_rs1val_0xaaaaaaaa_rs2val_0x1_str
00002a54 l       .text.rvtest	00000000 I_sltu_cg_cr_rs1_rs2_edges_rs1val_0xaaaaaaaa_rs2val_0x2
0000cea8 l       .data	00000000 I_sltu_cg_cr_rs1_rs2_edges_rs1val_0xaaaaaaaa_rs2val_0x2_str
00002a80 l       .text.rvtest	00000000 I_sltu_cg_cr_rs1_rs2_edges_rs1val_0xaaaaaaaa_rs2val_0x80000000
0000cefd l       .data	00000000 I_sltu_cg_cr_rs1_rs2_edges_rs1val_0xaaaaaaaa_rs2val_0x80000000_str
00002aac l       .text.rvtest	00000000 I_sltu_cg_cr_rs1_rs2_edges_rs1val_0xaaaaaaaa_rs2val_0x80000001
0000cf59 l       .data	00000000 I_sltu_cg_cr_rs1_rs2_edges_rs1val_0xaaaaaaaa_rs2val_0x80000001_str
00002ad8 l       .text.rvtest	00000000 I_sltu_cg_cr_rs1_rs2_edges_rs1val_0xaaaaaaaa_rs2val_0x7fffffff
0000cfb5 l       .data	00000000 I_sltu_cg_cr_rs1_rs2_edges_rs1val_0xaaaaaaaa_rs2val_0x7fffffff_str
00002b04 l       .text.rvtest	00000000 I_sltu_cg_cr_rs1_rs2_edges_rs1val_0xaaaaaaaa_rs2val_0x7ffffffe
0000d011 l       .data	00000000 I_sltu_cg_cr_rs1_rs2_edges_rs1val_0xaaaaaaaa_rs2val_0x7ffffffe_str
00002b30 l       .text.rvtest	00000000 I_sltu_cg_cr_rs1_rs2_edges_rs1val_0xaaaaaaaa_rs2val_0xffffffff
0000d06d l       .data	00000000 I_sltu_cg_cr_rs1_rs2_edges_rs1val_0xaaaaaaaa_rs2val_0xffffffff_str
00002b5c l       .text.rvtest	00000000 I_sltu_cg_cr_rs1_rs2_edges_rs1val_0xaaaaaaaa_rs2val_0xfffffffe
0000d0c9 l       .data	00000000 I_sltu_cg_cr_rs1_rs2_edges_rs1val_0xaaaaaaaa_rs2val_0xfffffffe_str
00002b88 l       .text.rvtest	00000000 I_sltu_cg_cr_rs1_rs2_edges_rs1val_0xaaaaaaaa_rs2val_0x5bbc8872
0000d125 l       .data	00000000 I_sltu_cg_cr_rs1_rs2_edges_rs1val_0xaaaaaaaa_rs2val_0x5bbc8872_str
00002bb4 l       .text.rvtest	00000000 I_sltu_cg_cr_rs1_rs2_edges_rs1val_0xaaaaaaaa_rs2val_0xaaaaaaaa
0000d181 l       .data	00000000 I_sltu_cg_cr_rs1_rs2_edges_rs1val_0xaaaaaaaa_rs2val_0xaaaaaaaa_str
00002be0 l       .text.rvtest	00000000 I_sltu_cg_cr_rs1_rs2_edges_rs1val_0xaaaaaaaa_rs2val_0x55555555
0000d1dd l       .data	00000000 I_sltu_cg_cr_rs1_rs2_edges_rs1val_0xaaaaaaaa_rs2val_0x55555555_str
00002c0c l       .text.rvtest	00000000 I_sltu_cg_cr_rs1_rs2_edges_rs1val_0x55555555_rs2val_0x0
0000d239 l       .data	00000000 I_sltu_cg_cr_rs1_rs2_edges_rs1val_0x55555555_rs2val_0x0_str
00002c38 l       .text.rvtest	00000000 I_sltu_cg_cr_rs1_rs2_edges_rs1val_0x55555555_rs2val_0x1
0000d28e l       .data	00000000 I_sltu_cg_cr_rs1_rs2_edges_rs1val_0x55555555_rs2val_0x1_str
00002c64 l       .text.rvtest	00000000 I_sltu_cg_cr_rs1_rs2_edges_rs1val_0x55555555_rs2val_0x2
0000d2e3 l       .data	00000000 I_sltu_cg_cr_rs1_rs2_edges_rs1val_0x55555555_rs2val_0x2_str
00002c90 l       .text.rvtest	00000000 I_sltu_cg_cr_rs1_rs2_edges_rs1val_0x55555555_rs2val_0x80000000
0000d338 l       .data	00000000 I_sltu_cg_cr_rs1_rs2_edges_rs1val_0x55555555_rs2val_0x80000000_str
00002cbc l       .text.rvtest	00000000 I_sltu_cg_cr_rs1_rs2_edges_rs1val_0x55555555_rs2val_0x80000001
0000d394 l       .data	00000000 I_sltu_cg_cr_rs1_rs2_edges_rs1val_0x55555555_rs2val_0x80000001_str
00002ce8 l       .text.rvtest	00000000 I_sltu_cg_cr_rs1_rs2_edges_rs1val_0x55555555_rs2val_0x7fffffff
0000d3f0 l       .data	00000000 I_sltu_cg_cr_rs1_rs2_edges_rs1val_0x55555555_rs2val_0x7fffffff_str
00002d14 l       .text.rvtest	00000000 I_sltu_cg_cr_rs1_rs2_edges_rs1val_0x55555555_rs2val_0x7ffffffe
0000d44c l       .data	00000000 I_sltu_cg_cr_rs1_rs2_edges_rs1val_0x55555555_rs2val_0x7ffffffe_str
00002d40 l       .text.rvtest	00000000 I_sltu_cg_cr_rs1_rs2_edges_rs1val_0x55555555_rs2val_0xffffffff
0000d4a8 l       .data	00000000 I_sltu_cg_cr_rs1_rs2_edges_rs1val_0x55555555_rs2val_0xffffffff_str
00002d6c l       .text.rvtest	00000000 I_sltu_cg_cr_rs1_rs2_edges_rs1val_0x55555555_rs2val_0xfffffffe
0000d504 l       .data	00000000 I_sltu_cg_cr_rs1_rs2_edges_rs1val_0x55555555_rs2val_0xfffffffe_str
00002d98 l       .text.rvtest	00000000 I_sltu_cg_cr_rs1_rs2_edges_rs1val_0x55555555_rs2val_0x5bbc8872
0000d560 l       .data	00000000 I_sltu_cg_cr_rs1_rs2_edges_rs1val_0x55555555_rs2val_0x5bbc8872_str
00002dc4 l       .text.rvtest	00000000 I_sltu_cg_cr_rs1_rs2_edges_rs1val_0x55555555_rs2val_0xaaaaaaaa
0000d5bc l       .data	00000000 I_sltu_cg_cr_rs1_rs2_edges_rs1val_0x55555555_rs2val_0xaaaaaaaa_str
00002df0 l       .text.rvtest	00000000 I_sltu_cg_cr_rs1_rs2_edges_rs1val_0x55555555_rs2val_0x55555555
0000d618 l       .data	00000000 I_sltu_cg_cr_rs1_rs2_edges_rs1val_0x55555555_rs2val_0x55555555_str
00002e1c l       .text.rvtest	00000000 I_sltu_cg_cmp_rs1_rs2_b0
0000d674 l       .data	00000000 I_sltu_cg_cmp_rs1_rs2_b0_str
00002e48 l       .text.rvtest	00000000 I_sltu_cg_cmp_rs1_rs2_b1
0000d6a9 l       .data	00000000 I_sltu_cg_cmp_rs1_rs2_b1_str
00002e74 l       .text.rvtest	00000000 I_sltu_cg_cmp_rs1_rs2_b2
0000d6de l       .data	00000000 I_sltu_cg_cmp_rs1_rs2_b2_str
00002ea0 l       .text.rvtest	00000000 I_sltu_cg_cmp_rs1_rs2_b3
0000d713 l       .data	00000000 I_sltu_cg_cmp_rs1_rs2_b3_str
00002ed4 l       .text.rvtest	00000000 I_sltu_cg_cmp_rs1_rs2_b4
0000d748 l       .data	00000000 I_sltu_cg_cmp_rs1_rs2_b4_str
00002f00 l       .text.rvtest	00000000 I_sltu_cg_cmp_rs1_rs2_b5
0000d77d l       .data	00000000 I_sltu_cg_cmp_rs1_rs2_b5_str
00002f30 l       .text.rvtest	00000000 I_sltu_cg_cmp_rs1_rs2_b6
0000d7b2 l       .data	00000000 I_sltu_cg_cmp_rs1_rs2_b6_str
00002f64 l       .text.rvtest	00000000 I_sltu_cg_cmp_rs1_rs2_b7
0000d7e7 l       .data	00000000 I_sltu_cg_cmp_rs1_rs2_b7_str
00002f90 l       .text.rvtest	00000000 I_sltu_cg_cmp_rs1_rs2_b8
0000d81c l       .data	00000000 I_sltu_cg_cmp_rs1_rs2_b8_str
00002fbc l       .text.rvtest	00000000 I_sltu_cg_cmp_rs1_rs2_b9
0000d851 l       .data	00000000 I_sltu_cg_cmp_rs1_rs2_b9_str
00002fe8 l       .text.rvtest	00000000 I_sltu_cg_cmp_rs1_rs2_b10
0000d886 l       .data	00000000 I_sltu_cg_cmp_rs1_rs2_b10_str
00003018 l       .text.rvtest	00000000 I_sltu_cg_cmp_rs1_rs2_b11
0000d8bc l       .data	00000000 I_sltu_cg_cmp_rs1_rs2_b11_str
00003044 l       .text.rvtest	00000000 I_sltu_cg_cmp_rs1_rs2_b12
0000d8f2 l       .data	00000000 I_sltu_cg_cmp_rs1_rs2_b12_str
00003078 l       .text.rvtest	00000000 I_sltu_cg_cmp_rs1_rs2_b13
0000d928 l       .data	00000000 I_sltu_cg_cmp_rs1_rs2_b13_str
000030a4 l       .text.rvtest	00000000 I_sltu_cg_cmp_rs1_rs2_b14
0000d95e l       .data	00000000 I_sltu_cg_cmp_rs1_rs2_b14_str
000030d0 l       .text.rvtest	00000000 I_sltu_cg_cmp_rs1_rs2_b15
0000d994 l       .data	00000000 I_sltu_cg_cmp_rs1_rs2_b15_str
000030fc l       .text.rvtest	00000000 I_sltu_cg_cmp_rs1_rs2_b16
0000d9ca l       .data	00000000 I_sltu_cg_cmp_rs1_rs2_b16_str
00003128 l       .text.rvtest	00000000 I_sltu_cg_cmp_rs1_rs2_b17
0000da00 l       .data	00000000 I_sltu_cg_cmp_rs1_rs2_b17_str
00003154 l       .text.rvtest	00000000 I_sltu_cg_cmp_rs1_rs2_b18
0000da36 l       .data	00000000 I_sltu_cg_cmp_rs1_rs2_b18_str
00003184 l       .text.rvtest	00000000 I_sltu_cg_cmp_rs1_rs2_b19
0000da6c l       .data	00000000 I_sltu_cg_cmp_rs1_rs2_b19_str
000031b0 l       .text.rvtest	00000000 I_sltu_cg_cmp_rs1_rs2_b20
0000daa2 l       .data	00000000 I_sltu_cg_cmp_rs1_rs2_b20_str
000031dc l       .text.rvtest	00000000 I_sltu_cg_cmp_rs1_rs2_b21
0000dad8 l       .data	00000000 I_sltu_cg_cmp_rs1_rs2_b21_str
00003208 l       .text.rvtest	00000000 I_sltu_cg_cmp_rs1_rs2_b22
0000db0e l       .data	00000000 I_sltu_cg_cmp_rs1_rs2_b22_str
00003234 l       .text.rvtest	00000000 I_sltu_cg_cmp_rs1_rs2_b23
0000db44 l       .data	00000000 I_sltu_cg_cmp_rs1_rs2_b23_str
00003260 l       .text.rvtest	00000000 I_sltu_cg_cmp_rs1_rs2_b24
0000db7a l       .data	00000000 I_sltu_cg_cmp_rs1_rs2_b24_str
0000328c l       .text.rvtest	00000000 I_sltu_cg_cmp_rs1_rs2_b25
0000dbb0 l       .data	00000000 I_sltu_cg_cmp_rs1_rs2_b25_str
000032b8 l       .text.rvtest	00000000 I_sltu_cg_cmp_rs1_rs2_b26
0000dbe6 l       .data	00000000 I_sltu_cg_cmp_rs1_rs2_b26_str
000032e4 l       .text.rvtest	00000000 I_sltu_cg_cmp_rs1_rs2_b27
0000dc1c l       .data	00000000 I_sltu_cg_cmp_rs1_rs2_b27_str
00003310 l       .text.rvtest	00000000 I_sltu_cg_cmp_rs1_rs2_b28
0000dc52 l       .data	00000000 I_sltu_cg_cmp_rs1_rs2_b28_str
00003340 l       .text.rvtest	00000000 I_sltu_cg_cmp_rs1_rs2_b29
0000dc88 l       .data	00000000 I_sltu_cg_cmp_rs1_rs2_b29_str
00003370 l       .text.rvtest	00000000 I_sltu_cg_cmp_rs1_rs2_b30
0000dcbe l       .data	00000000 I_sltu_cg_cmp_rs1_rs2_b30_str
0000339c l       .text.rvtest	00000000 I_sltu_cg_cmp_rs1_rs2_b31
0000dcf4 l       .data	00000000 I_sltu_cg_cmp_rs1_rs2_b31_str
000033c8 l       .text.rvtest	00000000 I_sltu_cg_cmp_rd_rs1_b0
0000dd2a l       .data	00000000 I_sltu_cg_cmp_rd_rs1_b0_str
000033f8 l       .text.rvtest	00000000 I_sltu_cg_cmp_rd_rs1_b1
0000dd5e l       .data	00000000 I_sltu_cg_cmp_rd_rs1_b1_str
00003424 l       .text.rvtest	00000000 I_sltu_cg_cmp_rd_rs1_b2
0000dd92 l       .data	00000000 I_sltu_cg_cmp_rd_rs1_b2_str
00003450 l       .text.rvtest	00000000 I_sltu_cg_cmp_rd_rs1_b3
0000ddc6 l       .data	00000000 I_sltu_cg_cmp_rd_rs1_b3_str
00003484 l       .text.rvtest	00000000 I_sltu_cg_cmp_rd_rs1_b4
0000ddfa l       .data	00000000 I_sltu_cg_cmp_rd_rs1_b4_str
000034b0 l       .text.rvtest	00000000 I_sltu_cg_cmp_rd_rs1_b5
0000de2e l       .data	00000000 I_sltu_cg_cmp_rd_rs1_b5_str
000034dc l       .text.rvtest	00000000 I_sltu_cg_cmp_rd_rs1_b6
0000de62 l       .data	00000000 I_sltu_cg_cmp_rd_rs1_b6_str
00003510 l       .text.rvtest	00000000 I_sltu_cg_cmp_rd_rs1_b7
0000de96 l       .data	00000000 I_sltu_cg_cmp_rd_rs1_b7_str
0000353c l       .text.rvtest	00000000 I_sltu_cg_cmp_rd_rs1_b8
0000deca l       .data	00000000 I_sltu_cg_cmp_rd_rs1_b8_str
00003568 l       .text.rvtest	00000000 I_sltu_cg_cmp_rd_rs1_b9
0000defe l       .data	00000000 I_sltu_cg_cmp_rd_rs1_b9_str
00003594 l       .text.rvtest	00000000 I_sltu_cg_cmp_rd_rs1_b10
0000df32 l       .data	00000000 I_sltu_cg_cmp_rd_rs1_b10_str
000035c0 l       .text.rvtest	00000000 I_sltu_cg_cmp_rd_rs1_b11
0000df67 l       .data	00000000 I_sltu_cg_cmp_rd_rs1_b11_str
000035ec l       .text.rvtest	00000000 I_sltu_cg_cmp_rd_rs1_b12
0000df9c l       .data	00000000 I_sltu_cg_cmp_rd_rs1_b12_str
00003618 l       .text.rvtest	00000000 I_sltu_cg_cmp_rd_rs1_b13
0000dfd1 l       .data	00000000 I_sltu_cg_cmp_rd_rs1_b13_str
00003644 l       .text.rvtest	00000000 I_sltu_cg_cmp_rd_rs1_b14
0000e006 l       .data	00000000 I_sltu_cg_cmp_rd_rs1_b14_str
00003670 l       .text.rvtest	00000000 I_sltu_cg_cmp_rd_rs1_b15
0000e03b l       .data	00000000 I_sltu_cg_cmp_rd_rs1_b15_str
0000369c l       .text.rvtest	00000000 I_sltu_cg_cmp_rd_rs1_b16
0000e070 l       .data	00000000 I_sltu_cg_cmp_rd_rs1_b16_str
000036c8 l       .text.rvtest	00000000 I_sltu_cg_cmp_rd_rs1_b17
0000e0a5 l       .data	00000000 I_sltu_cg_cmp_rd_rs1_b17_str
000036f4 l       .text.rvtest	00000000 I_sltu_cg_cmp_rd_rs1_b18
0000e0da l       .data	00000000 I_sltu_cg_cmp_rd_rs1_b18_str
00003720 l       .text.rvtest	00000000 I_sltu_cg_cmp_rd_rs1_b19
0000e10f l       .data	00000000 I_sltu_cg_cmp_rd_rs1_b19_str
00003750 l       .text.rvtest	00000000 I_sltu_cg_cmp_rd_rs1_b20
0000e144 l       .data	00000000 I_sltu_cg_cmp_rd_rs1_b20_str
0000377c l       .text.rvtest	00000000 I_sltu_cg_cmp_rd_rs1_b21
0000e179 l       .data	00000000 I_sltu_cg_cmp_rd_rs1_b21_str
000037a8 l       .text.rvtest	00000000 I_sltu_cg_cmp_rd_rs1_b22
0000e1ae l       .data	00000000 I_sltu_cg_cmp_rd_rs1_b22_str
000037d4 l       .text.rvtest	00000000 I_sltu_cg_cmp_rd_rs1_b23
0000e1e3 l       .data	00000000 I_sltu_cg_cmp_rd_rs1_b23_str
00003800 l       .text.rvtest	00000000 I_sltu_cg_cmp_rd_rs1_b24
0000e218 l       .data	00000000 I_sltu_cg_cmp_rd_rs1_b24_str
0000382c l       .text.rvtest	00000000 I_sltu_cg_cmp_rd_rs1_b25
0000e24d l       .data	00000000 I_sltu_cg_cmp_rd_rs1_b25_str
00003858 l       .text.rvtest	00000000 I_sltu_cg_cmp_rd_rs1_b26
0000e282 l       .data	00000000 I_sltu_cg_cmp_rd_rs1_b26_str
00003884 l       .text.rvtest	00000000 I_sltu_cg_cmp_rd_rs1_b27
0000e2b7 l       .data	00000000 I_sltu_cg_cmp_rd_rs1_b27_str
000038b0 l       .text.rvtest	00000000 I_sltu_cg_cmp_rd_rs1_b28
0000e2ec l       .data	00000000 I_sltu_cg_cmp_rd_rs1_b28_str
000038dc l       .text.rvtest	00000000 I_sltu_cg_cmp_rd_rs1_b29
0000e321 l       .data	00000000 I_sltu_cg_cmp_rd_rs1_b29_str
0000390c l       .text.rvtest	00000000 I_sltu_cg_cmp_rd_rs1_b30
0000e356 l       .data	00000000 I_sltu_cg_cmp_rd_rs1_b30_str
0000393c l       .text.rvtest	00000000 I_sltu_cg_cmp_rd_rs1_b31
0000e38b l       .data	00000000 I_sltu_cg_cmp_rd_rs1_b31_str
00003968 l       .text.rvtest	00000000 I_sltu_cg_cmp_rd_rs2_b0
0000e3c0 l       .data	00000000 I_sltu_cg_cmp_rd_rs2_b0_str
00003994 l       .text.rvtest	00000000 I_sltu_cg_cmp_rd_rs2_b1
0000e3f4 l       .data	00000000 I_sltu_cg_cmp_rd_rs2_b1_str
000039c0 l       .text.rvtest	00000000 I_sltu_cg_cmp_rd_rs2_b2
0000e428 l       .data	00000000 I_sltu_cg_cmp_rd_rs2_b2_str
000039ec l       .text.rvtest	00000000 I_sltu_cg_cmp_rd_rs2_b3
0000e45c l       .data	00000000 I_sltu_cg_cmp_rd_rs2_b3_str
00003a20 l       .text.rvtest	00000000 I_sltu_cg_cmp_rd_rs2_b4
0000e490 l       .data	00000000 I_sltu_cg_cmp_rd_rs2_b4_str
00003a4c l       .text.rvtest	00000000 I_sltu_cg_cmp_rd_rs2_b5
0000e4c4 l       .data	00000000 I_sltu_cg_cmp_rd_rs2_b5_str
00003a78 l       .text.rvtest	00000000 I_sltu_cg_cmp_rd_rs2_b6
0000e4f8 l       .data	00000000 I_sltu_cg_cmp_rd_rs2_b6_str
00003aac l       .text.rvtest	00000000 I_sltu_cg_cmp_rd_rs2_b7
0000e52c l       .data	00000000 I_sltu_cg_cmp_rd_rs2_b7_str
00003ad8 l       .text.rvtest	00000000 I_sltu_cg_cmp_rd_rs2_b8
0000e560 l       .data	00000000 I_sltu_cg_cmp_rd_rs2_b8_str
00003b04 l       .text.rvtest	00000000 I_sltu_cg_cmp_rd_rs2_b9
0000e594 l       .data	00000000 I_sltu_cg_cmp_rd_rs2_b9_str
00003b34 l       .text.rvtest	00000000 I_sltu_cg_cmp_rd_rs2_b10
0000e5c8 l       .data	00000000 I_sltu_cg_cmp_rd_rs2_b10_str
00003b60 l       .text.rvtest	00000000 I_sltu_cg_cmp_rd_rs2_b11
0000e5fd l       .data	00000000 I_sltu_cg_cmp_rd_rs2_b11_str
00003b8c l       .text.rvtest	00000000 I_sltu_cg_cmp_rd_rs2_b12
0000e632 l       .data	00000000 I_sltu_cg_cmp_rd_rs2_b12_str
00003bc0 l       .text.rvtest	00000000 I_sltu_cg_cmp_rd_rs2_b13
0000e667 l       .data	00000000 I_sltu_cg_cmp_rd_rs2_b13_str
00003bec l       .text.rvtest	00000000 I_sltu_cg_cmp_rd_rs2_b14
0000e69c l       .data	00000000 I_sltu_cg_cmp_rd_rs2_b14_str
00003c18 l       .text.rvtest	00000000 I_sltu_cg_cmp_rd_rs2_b15
0000e6d1 l       .data	00000000 I_sltu_cg_cmp_rd_rs2_b15_str
00003c44 l       .text.rvtest	00000000 I_sltu_cg_cmp_rd_rs2_b16
0000e706 l       .data	00000000 I_sltu_cg_cmp_rd_rs2_b16_str
00003c74 l       .text.rvtest	00000000 I_sltu_cg_cmp_rd_rs2_b17
0000e73b l       .data	00000000 I_sltu_cg_cmp_rd_rs2_b17_str
00003ca4 l       .text.rvtest	00000000 I_sltu_cg_cmp_rd_rs2_b18
0000e770 l       .data	00000000 I_sltu_cg_cmp_rd_rs2_b18_str
00003cd0 l       .text.rvtest	00000000 I_sltu_cg_cmp_rd_rs2_b19
0000e7a5 l       .data	00000000 I_sltu_cg_cmp_rd_rs2_b19_str
00003cfc l       .text.rvtest	00000000 I_sltu_cg_cmp_rd_rs2_b20
0000e7da l       .data	00000000 I_sltu_cg_cmp_rd_rs2_b20_str
00003d28 l       .text.rvtest	00000000 I_sltu_cg_cmp_rd_rs2_b21
0000e80f l       .data	00000000 I_sltu_cg_cmp_rd_rs2_b21_str
00003d54 l       .text.rvtest	00000000 I_sltu_cg_cmp_rd_rs2_b22
0000e844 l       .data	00000000 I_sltu_cg_cmp_rd_rs2_b22_str
00003d80 l       .text.rvtest	00000000 I_sltu_cg_cmp_rd_rs2_b23
0000e879 l       .data	00000000 I_sltu_cg_cmp_rd_rs2_b23_str
00003dac l       .text.rvtest	00000000 I_sltu_cg_cmp_rd_rs2_b24
0000e8ae l       .data	00000000 I_sltu_cg_cmp_rd_rs2_b24_str
00003dd8 l       .text.rvtest	00000000 I_sltu_cg_cmp_rd_rs2_b25
0000e8e3 l       .data	00000000 I_sltu_cg_cmp_rd_rs2_b25_str
00003e04 l       .text.rvtest	00000000 I_sltu_cg_cmp_rd_rs2_b26
0000e918 l       .data	00000000 I_sltu_cg_cmp_rd_rs2_b26_str
00003e30 l       .text.rvtest	00000000 I_sltu_cg_cmp_rd_rs2_b27
0000e94d l       .data	00000000 I_sltu_cg_cmp_rd_rs2_b27_str
00003e5c l       .text.rvtest	00000000 I_sltu_cg_cmp_rd_rs2_b28
0000e982 l       .data	00000000 I_sltu_cg_cmp_rd_rs2_b28_str
00003e88 l       .text.rvtest	00000000 I_sltu_cg_cmp_rd_rs2_b29
0000e9b7 l       .data	00000000 I_sltu_cg_cmp_rd_rs2_b29_str
00003eb4 l       .text.rvtest	00000000 I_sltu_cg_cmp_rd_rs2_b30
0000e9ec l       .data	00000000 I_sltu_cg_cmp_rd_rs2_b30_str
00003ee4 l       .text.rvtest	00000000 I_sltu_cg_cmp_rd_rs2_b31
0000ea21 l       .data	00000000 I_sltu_cg_cmp_rd_rs2_b31_str
00003f10 l       .text.rvtest	00000000 I_sltu_cg_cmp_rd_rs1_rs2_b0
0000ea56 l       .data	00000000 I_sltu_cg_cmp_rd_rs1_rs2_b0_str
00003f3c l       .text.rvtest	00000000 I_sltu_cg_cmp_rd_rs1_rs2_b1
0000ea8e l       .data	00000000 I_sltu_cg_cmp_rd_rs1_rs2_b1_str
00003f68 l       .text.rvtest	00000000 I_sltu_cg_cmp_rd_rs1_rs2_b2
0000eac6 l       .data	00000000 I_sltu_cg_cmp_rd_rs1_rs2_b2_str
00003f94 l       .text.rvtest	00000000 I_sltu_cg_cmp_rd_rs1_rs2_b3
0000eafe l       .data	00000000 I_sltu_cg_cmp_rd_rs1_rs2_b3_str
00003fc8 l       .text.rvtest	00000000 I_sltu_cg_cmp_rd_rs1_rs2_b4
0000eb36 l       .data	00000000 I_sltu_cg_cmp_rd_rs1_rs2_b4_str
00003ff4 l       .text.rvtest	00000000 I_sltu_cg_cmp_rd_rs1_rs2_b5
0000eb6e l       .data	00000000 I_sltu_cg_cmp_rd_rs1_rs2_b5_str
00004020 l       .text.rvtest	00000000 I_sltu_cg_cmp_rd_rs1_rs2_b6
0000eba6 l       .data	00000000 I_sltu_cg_cmp_rd_rs1_rs2_b6_str
0000404c l       .text.rvtest	00000000 I_sltu_cg_cmp_rd_rs1_rs2_b7
0000ebde l       .data	00000000 I_sltu_cg_cmp_rd_rs1_rs2_b7_str
00004078 l       .text.rvtest	00000000 I_sltu_cg_cmp_rd_rs1_rs2_b8
0000ec16 l       .data	00000000 I_sltu_cg_cmp_rd_rs1_rs2_b8_str
000040a4 l       .text.rvtest	00000000 I_sltu_cg_cmp_rd_rs1_rs2_b9
0000ec4e l       .data	00000000 I_sltu_cg_cmp_rd_rs1_rs2_b9_str
000040d0 l       .text.rvtest	00000000 I_sltu_cg_cmp_rd_rs1_rs2_b10
0000ec86 l       .data	00000000 I_sltu_cg_cmp_rd_rs1_rs2_b10_str
00004100 l       .text.rvtest	00000000 I_sltu_cg_cmp_rd_rs1_rs2_b11
0000ecbf l       .data	00000000 I_sltu_cg_cmp_rd_rs1_rs2_b11_str
00004130 l       .text.rvtest	00000000 I_sltu_cg_cmp_rd_rs1_rs2_b12
0000ecf8 l       .data	00000000 I_sltu_cg_cmp_rd_rs1_rs2_b12_str
00004164 l       .text.rvtest	00000000 I_sltu_cg_cmp_rd_rs1_rs2_b13
0000ed31 l       .data	00000000 I_sltu_cg_cmp_rd_rs1_rs2_b13_str
00004190 l       .text.rvtest	00000000 I_sltu_cg_cmp_rd_rs1_rs2_b14
0000ed6a l       .data	00000000 I_sltu_cg_cmp_rd_rs1_rs2_b14_str
000041bc l       .text.rvtest	00000000 I_sltu_cg_cmp_rd_rs1_rs2_b15
0000eda3 l       .data	00000000 I_sltu_cg_cmp_rd_rs1_rs2_b15_str
000041e8 l       .text.rvtest	00000000 I_sltu_cg_cmp_rd_rs1_rs2_b16
0000eddc l       .data	00000000 I_sltu_cg_cmp_rd_rs1_rs2_b16_str
00004214 l       .text.rvtest	00000000 I_sltu_cg_cmp_rd_rs1_rs2_b17
0000ee15 l       .data	00000000 I_sltu_cg_cmp_rd_rs1_rs2_b17_str
00004240 l       .text.rvtest	00000000 I_sltu_cg_cmp_rd_rs1_rs2_b18
0000ee4e l       .data	00000000 I_sltu_cg_cmp_rd_rs1_rs2_b18_str
0000426c l       .text.rvtest	00000000 I_sltu_cg_cmp_rd_rs1_rs2_b19
0000ee87 l       .data	00000000 I_sltu_cg_cmp_rd_rs1_rs2_b19_str
0000429c l       .text.rvtest	00000000 I_sltu_cg_cmp_rd_rs1_rs2_b20
0000eec0 l       .data	00000000 I_sltu_cg_cmp_rd_rs1_rs2_b20_str
000042c8 l       .text.rvtest	00000000 I_sltu_cg_cmp_rd_rs1_rs2_b21
0000eef9 l       .data	00000000 I_sltu_cg_cmp_rd_rs1_rs2_b21_str
000042f4 l       .text.rvtest	00000000 I_sltu_cg_cmp_rd_rs1_rs2_b22
0000ef32 l       .data	00000000 I_sltu_cg_cmp_rd_rs1_rs2_b22_str
00004320 l       .text.rvtest	00000000 I_sltu_cg_cmp_rd_rs1_rs2_b23
0000ef6b l       .data	00000000 I_sltu_cg_cmp_rd_rs1_rs2_b23_str
0000434c l       .text.rvtest	00000000 I_sltu_cg_cmp_rd_rs1_rs2_b24
0000efa4 l       .data	00000000 I_sltu_cg_cmp_rd_rs1_rs2_b24_str
00004378 l       .text.rvtest	00000000 I_sltu_cg_cmp_rd_rs1_rs2_b25
0000efdd l       .data	00000000 I_sltu_cg_cmp_rd_rs1_rs2_b25_str
000043a4 l       .text.rvtest	00000000 I_sltu_cg_cmp_rd_rs1_rs2_b26
0000f016 l       .data	00000000 I_sltu_cg_cmp_rd_rs1_rs2_b26_str
000043d0 l       .text.rvtest	00000000 I_sltu_cg_cmp_rd_rs1_rs2_b27
0000f04f l       .data	00000000 I_sltu_cg_cmp_rd_rs1_rs2_b27_str
000043fc l       .text.rvtest	00000000 I_sltu_cg_cmp_rd_rs1_rs2_b28
0000f088 l       .data	00000000 I_sltu_cg_cmp_rd_rs1_rs2_b28_str
00004428 l       .text.rvtest	00000000 I_sltu_cg_cmp_rd_rs1_rs2_b29
0000f0c1 l       .data	00000000 I_sltu_cg_cmp_rd_rs1_rs2_b29_str
00004454 l       .text.rvtest	00000000 I_sltu_cg_cmp_rd_rs1_rs2_b30
0000f0fa l       .data	00000000 I_sltu_cg_cmp_rd_rs1_rs2_b30_str
00004484 l       .text.rvtest	00000000 I_sltu_cg_cmp_rd_rs1_rs2_b31
0000f133 l       .data	00000000 I_sltu_cg_cmp_rd_rs1_rs2_b31_str
000044a4 l       .text.rvtest	00000000 exit_cleanup
0000f7d4 l       .data	00000000 successstr
00020204 l       .text.rvmodel	00000000 rvmodel_io_write_str
00020208 l       .text.rvmodel	00000000 rvmodel_halt_pass
000044f0 l       .text.rvtest	00000000 abort_test
6f5ca309 l       *ABS*	00000000 immx
6f5ca309 l       *ABS*	00000000 absimm
00000000 l       *ABS*	00000000 cry
00000309 l       *ABS*	00000000 imm12
0000f170 l       .data	00000000 begin_failure_scratch
000045c0 l       .text.rvtest	00000000 failedtest_saveregs
00004564 l       .text.rvtest	00000000 failedtest_trap_x7_x9
0000f2e0 l       .data	00000000 saved_mcause
0000f2e8 l       .data	00000000 saved_mtval
0000f2f0 l       .data	00000000 saved_mstatus
00004630 l       .text.rvtest	00000000 failedtest_saveresults
0000f170 l       .data	00000000 failure_type
000046ac l       .text.rvtest	00000000 failedtest_saveresults_trap
00004640 l       .text.rvtest	00000000 failedtest_saveresults_int
00004a80 l       .text.rvtest	00000000 failedtest_saveresults_common
0000f2c8 l       .data	00000000 trap_diag_fail_str_ptr
0000f99c l       .data	00000000 trap_sig_offset_mismatch
00004960 l       .text.rvtest	00000000 trap_diag_offset_mismatch
0000f2a0 l       .data	00000000 trap_diag_subtype
0000fa00 l       .data	00000000 sv_Mvect_str
000049e0 l       .text.rvtest	00000000 trap_diag_field_identified
0000fb02 l       .data	00000000 sv_Mcause_str
0000fbfd l       .data	00000000 sv_Mepc_str
0000fcf0 l       .data	00000000 sv_Mtval_str
0000fe63 l       .data	00000000 sv_Mip_str
0000fde7 l       .data	00000000 sv_Mtval2_str
0000fe25 l       .data	00000000 sv_Mtinst_str
0000fa40 l       .data	00000000 sv_Svect_str
0000fb40 l       .data	00000000 sv_Scause_str
0000fc39 l       .data	00000000 sv_Sepc_str
0000fd2d l       .data	00000000 sv_Stval_str
0000fe9e l       .data	00000000 sv_Sip_str
0000fa80 l       .data	00000000 sv_Hvect_str
0000fb7e l       .data	00000000 sv_Hcause_str
0000fc75 l       .data	00000000 sv_Hepc_str
0000fd6a l       .data	00000000 sv_Htval_str
0000fed9 l       .data	00000000 sv_Hip_str
0000fac1 l       .data	00000000 sv_Vvect_str
0000fbbd l       .data	00000000 sv_Vcause_str
0000fcb2 l       .data	00000000 sv_Vepc_str
0000fda8 l       .data	00000000 sv_Vtval_str
0000ff15 l       .data	00000000 sv_Vip_str
0000ff52 l       .data	00000000 Mclr_Mext_int_str
0000ffa1 l       .data	00000000 Mclr_Sext_int_str
0001009c l       .data	00000000 Sclr_Sext_int_str
00010198 l       .data	00000000 Hclr_Sext_int_str
00004a70 l       .text.rvtest	00000000 trap_diag_generic_report
0000f2b8 l       .data	00000000 trap_diag_actual_offset
0000f2c0 l       .data	00000000 trap_diag_expected_offset
0000f2a4 l       .data	00000000 trap_diag_mode
0000f2a8 l       .data	00000000 trap_diag_actual_value
0000f2b0 l       .data	00000000 trap_diag_expected_value
00004ab0 l       .text.rvtest	00000000 failedtest_report
00004ab0 l       .text.rvtest	00000000 print_failstr
0000f80b l       .data	00000000 failstr
00004ae8 l       .text.rvtest	00000000 print_testnamestr
0000f89f l       .data	00000000 testnamestr
00004b28 l       .text.rvtest	00000000 print_failure_test_name_str
0000f290 l       .data	00000000 failure_string_ptr
00004b38 l       .text.rvtest	00000000 print_newline_str
0000f8b1 l       .data	00000000 newlinestr
00004f6c l       .text.rvtest	00000000 failedtest_report_trap_detailed
0000f8b3 l       .data	00000000 inststr
0000f270 l       .data	00000000 failing_instruction
00005eb8 l       .text.rvtest	00000000 failedtest_hex_to_str
0000f2f8 l       .data	00000000 ascii_buffer
0000f8c7 l       .data	00000000 addrstr
0000f278 l       .data	00000000 failing_addr
00010344 l       .data	00000000 regstr
00004d18 l       .text.rvtest	00000000 failedtest_report_not_intreg
0000f274 l       .data	00000000 failing_reg
00005f34 l       .text.rvtest	00000000 failedtest_dec_to_str
00004df4 l       .text.rvtest	00000000 failedtest_report_print_regstr
00004d6c l       .text.rvtest	00000000 failedtest_report_fpreg
00004db8 l       .text.rvtest	00000000 failedtest_report_vecreg
000103a4 l       .data	00000000 fflagsstr
00004e28 l       .text.rvtest	00000000 failedtest_report_after_reg
00010355 l       .data	00000000 badvalstr
00004e8c l       .text.rvtest	00000000 failedtest_report_badval_not_fp
0000f280 l       .data	00000000 failing_value
00004e9c l       .text.rvtest	00000000 failedtest_report_badval_done
0001036c l       .data	00000000 expvalstr
00004f2c l       .text.rvtest	00000000 failedtest_report_expval_not_fp
0000f288 l       .data	00000000 expected_value
00004f3c l       .text.rvtest	00000000 failedtest_report_expval_done
00005c64 l       .text.rvtest	00000000 failedtest_report_end
000103d0 l       .data	00000000 trap_diag_header_str
000103fc l       .data	00000000 trap_diag_origstr_label
00005040 l       .text.rvtest	00000000 trap_report_offset_mismatch
00005af0 l       .text.rvtest	00000000 trap_report_generic
000053b4 l       .text.rvtest	00000000 trap_report_field_mismatch
0001040c l       .data	00000000 trap_diag_count_mismatch_str
0001046d l       .data	00000000 trap_diag_expected_offset_str
00010494 l       .data	00000000 trap_diag_actual_offset_str
00005294 l       .text.rvtest	00000000 trap_report_missing_traps
0000517c l       .text.rvtest	00000000 trap_report_extra_traps
000104bb l       .data	00000000 trap_diag_extra_traps_str
00010540 l       .data	00000000 trap_diag_extra_bytes_str
0001056b l       .data	00000000 trap_diag_extra_hint_str
00005cb0 l       .text.rvtest	00000000 failedtest_print_csr_context
000104f5 l       .data	00000000 trap_diag_missing_traps_str
00010653 l       .data	00000000 trap_diag_missing_hint_str
0001073a l       .data	00000000 trap_diag_handler_mode_str
00005444 l       .text.rvtest	00000000 trap_mode_m
00005484 l       .text.rvtest	00000000 trap_mode_s
000054c4 l       .text.rvtest	00000000 trap_mode_h
00005504 l       .text.rvtest	00000000 trap_mode_v
00010776 l       .data	00000000 trap_diag_mode_unknown_str
00005540 l       .text.rvtest	00000000 trap_mode_print
00010754 l       .data	00000000 trap_diag_mode_m_str
0001075c l       .data	00000000 trap_diag_mode_s_str
00010764 l       .data	00000000 trap_diag_mode_hs_str
0001076d l       .data	00000000 trap_diag_mode_vs_str
0001077f l       .data	00000000 trap_diag_field_str
00005604 l       .text.rvtest	00000000 trap_field_vect
00005644 l       .text.rvtest	00000000 trap_field_cause
00005684 l       .text.rvtest	00000000 trap_field_epc
000056c4 l       .text.rvtest	00000000 trap_field_tval
00005704 l       .text.rvtest	00000000 trap_field_ip
00005744 l       .text.rvtest	00000000 trap_field_tval2
00005784 l       .text.rvtest	00000000 trap_field_tinst
000057c4 l       .text.rvtest	00000000 trap_field_intid
000108d6 l       .data	00000000 trap_diag_field_unknown_str
00005800 l       .text.rvtest	00000000 trap_field_print
00010799 l       .data	00000000 trap_diag_field_vect_str
000107ca l       .data	00000000 trap_diag_field_cause_str
000107ea l       .data	00000000 trap_diag_field_epc_str
00010808 l       .data	00000000 trap_diag_field_tval_str
00010827 l       .data	00000000 trap_diag_field_ip_str
0001084f l       .data	00000000 trap_diag_field_tval2_str
0001087b l       .data	00000000 trap_diag_field_tinst_str
000108a7 l       .data	00000000 trap_diag_field_intid_str
000108e5 l       .data	00000000 trap_diag_expected_str
000108fc l       .data	00000000 trap_diag_actual_str
0000599c l       .text.rvtest	00000000 trap_field_not_cause
00010913 l       .data	00000000 trap_diag_expected_cause_name_str
00005bd4 l       .text.rvtest	00000000 trap_cause_to_str
0001092a l       .data	00000000 trap_diag_actual_cause_name_str
0000599c l       .text.rvtest	00000000 trap_field_not_epc
000109a0 l       .data	00000000 trap_diag_hint_vect_str
00010a76 l       .data	00000000 trap_diag_hint_cause_str
00010b69 l       .data	00000000 trap_diag_hint_epc_str
00010c64 l       .data	00000000 trap_diag_hint_tval_str
00010d4b l       .data	00000000 trap_diag_hint_ip_str
00010958 l       .data	00000000 trap_diag_generic_str
0000f2d8 l       .data	00000000 saved_mepc
0000f93b l       .data	00000000 xepcinstrstr
00005bf8 l       .text.rvtest	00000000 trap_cause_interrupt
00005bd8 l       .text.rvtest	00000000 trap_cause_exception
00005c24 l       .text.rvtest	00000000 trap_cause_unknown
0000f320 l       .data	00000000 trap_excpt_name_tbl
0000f380 l       .data	00000000 trap_int_name_tbl
0000f7be l       .data	00000000 trap_cause_unknown_str
00010383 l       .data	00000000 endstr
00005ca8 l       .text.rvtest	00000000 failedtest_terminate
00020214 l       .text.rvmodel	00000000 rvmodel_halt_fail
0000f2d0 l       .data	00000000 csr_context_ret_addr
0000f95c l       .data	00000000 mepcstr
0000f96c l       .data	00000000 mcausestr
0000f97c l       .data	00000000 mtvalstr
0000f98c l       .data	00000000 mstatusstr
00005ef8 l       .text.rvtest	00000000 failedtest_hex_to_str_loop
00005f14 l       .text.rvtest	00000000 failedtest_hex_to_str_digit
00005f18 l       .text.rvtest	00000000 failedtest_hex_to_str_write
00020000 l       .text.rvmodel	00000000 rvtest_boot_to_mmode
00020000 l       .text.rvmodel	00000000 rvtest_init_regs
00010e30 l       .data	00000000 signature_base
000201a0 l       .text.rvmodel	00000000 canary_check
000103ac l       .data	00000000 canary_mismatch
00008000 l       .data	00000000 scratch
0000f320 l       .data	00000000 end_failure_scratch
0000f3c0 l       .data	00000000 trap_excpt_name_0
0000f3e0 l       .data	00000000 trap_excpt_name_1
0000f3fa l       .data	00000000 trap_excpt_name_2
0000f40f l       .data	00000000 trap_excpt_name_3
0000f41b l       .data	00000000 trap_excpt_name_4
0000f434 l       .data	00000000 trap_excpt_name_5
0000f447 l       .data	00000000 trap_excpt_name_6
0000f465 l       .data	00000000 trap_excpt_name_7
0000f47d l       .data	00000000 trap_excpt_name_8
0000f49b l       .data	00000000 trap_excpt_name_9
0000f4b9 l       .data	00000000 trap_excpt_name_10
0000f4d8 l       .data	00000000 trap_excpt_name_11
0000f4f6 l       .data	00000000 trap_excpt_name_12
0000f50e l       .data	00000000 trap_excpt_name_13
0000f51f l       .data	00000000 trap_excpt_name_14
0000f52e l       .data	00000000 trap_excpt_name_15
0000f544 l       .data	00000000 trap_excpt_name_16
0000f551 l       .data	00000000 trap_excpt_name_17
0000f560 l       .data	00000000 trap_excpt_name_18
0000f570 l       .data	00000000 trap_excpt_name_19
0000f580 l       .data	00000000 trap_excpt_name_20
0000f59e l       .data	00000000 trap_excpt_name_21
0000f5b5 l       .data	00000000 trap_excpt_name_22
0000f5ca l       .data	00000000 trap_excpt_name_23
0000f5e6 l       .data	00000000 trap_int_name_0
0000f5fe l       .data	00000000 trap_int_name_1
0000f61d l       .data	00000000 trap_int_name_2
0000f644 l       .data	00000000 trap_int_name_3
0000f660 l       .data	00000000 trap_int_name_4
0000f678 l       .data	00000000 trap_int_name_5
0000f694 l       .data	00000000 trap_int_name_6
0000f6b8 l       .data	00000000 trap_int_name_7
0000f6d1 l       .data	00000000 trap_int_name_8
0000f6e9 l       .data	00000000 trap_int_name_9
0000f708 l       .data	00000000 trap_int_name_10
0000f72f l       .data	00000000 trap_int_name_11
0000f74b l       .data	00000000 trap_int_name_12
0000f770 l       .data	00000000 trap_int_name_13
0000f78c l       .data	00000000 trap_int_name_14
0000f7a5 l       .data	00000000 trap_int_name_15
0000f861 l       .data	00000000 abortstr
0000f908 l       .data	00000000 xepcstr
0000fff3 l       .data	00000000 Mclr_Vext_int_str
0001004d l       .data	00000000 Sclr_Mext_int_str
000100ee l       .data	00000000 Sclr_Vext_int_str
00010148 l       .data	00000000 Hclr_Mext_int_str
000101eb l       .data	00000000 Hclr_Vext_int_str
00010246 l       .data	00000000 Vclr_Mext_int_str
00010296 l       .data	00000000 Vclr_Sext_int_str
000102e9 l       .data	00000000 Vclr_Vext_int_str
00010941 l       .data	00000000 trap_diag_curr_xepc_str
00011480 l       .data	00000000 trap_sigptr
0001fef0 g       .data	00000000 end_signature
0001fef0 g       .data	00000000 rvtest_sig_end
00000000 g       .text.init	00000000 rvtest_entry_point
00010e30 g       .data	00000000 begin_signature
000044a4 g       .text.rvtest	00000000 rvtest_code_end
00000040 g       .text.rvtest	00000000 rvtest_code_begin
00010e30 g       .data	00000000 rvtest_sig_begin
00008110 g       .data	00000000 rvtest_data_begin
00010e30 g       .data	00000000 rvtest_data_end
000044a4 g       .text.rvtest	00000000 cleanup_epilogs
00021000 g       .text.rvmodel	00000000 _end



Disassembly of section .text.init:

00000000 <rvtest_entry_point>:

// Include framework macros
#include "riscv_arch_test.h"

// Set up test environment and declare main entry point
RVTEST_BEGIN
   0:	00020097          	auipc	x1,0x20
   4:	00008093          	addi	x1,x1,0 # 20000 <rvmodel_boot>
   8:	00000013          	addi	x0,x0,0
   c:	00000013          	addi	x0,x0,0
  10:	00000013          	addi	x0,x0,0
  14:	00000013          	addi	x0,x0,0
  18:	00000013          	addi	x0,x0,0
  1c:	00000013          	addi	x0,x0,0
  20:	000080e7          	jalr	x1,0(x1)
  24:	00000013          	addi	x0,x0,0
  28:	00000013          	addi	x0,x0,0
  2c:	00000013          	addi	x0,x0,0
  30:	00000013          	addi	x0,x0,0
  34:	00000013          	addi	x0,x0,0
  38:	00000013          	addi	x0,x0,0
  3c:	00000013          	addi	x0,x0,0

Disassembly of section .text.rvtest:

00000040 <rvtest_code_begin>:
/////////////////////////////////
// cp_rs1
/////////////////////////////////

# Testcase cp_rs1 (Test source rs1 = x0)
  RVTEST_TESTDATA_LOAD_INT(x3, x0) # load rs1: x0 = 0x285372ab
      40:	0001a003          	lw	x0,0(x3)
      44:	00418193          	addi	x3,x3,4
  RVTEST_TESTDATA_LOAD_INT(x3, x31) # load rs2: x31 = 0x6e6f3f5f
      48:	0001af83          	lw	x31,0(x3)
      4c:	00418193          	addi	x3,x3,4

00000050 <I_sltu_cg_cp_rs1_b0>:
I_sltu_cg_cp_rs1_b0:
  sltu x8, x0, x31 # perform operation
      50:	01f03433          	sltu	x8,x0,x31
  # Check if x8 contains the expected result. x2 is the signature ptr, x5 is the link ptr, x4 is a temp reg.
  RVTEST_SIGUPD(x2, x5, x4, x8, I_sltu_cg_cp_rs1_b0, I_sltu_cg_cp_rs1_b0_str)
      54:	00012203          	lw	x4,0(x2)
      58:	00820863          	beq	x4,x8,68 <I_sltu_cg_cp_rs1_b0+0x18>
      5c:	4a0042ef          	jal	x5,44fc <failedtest_x5_x4>
      60:	00000050          	.word	0x00000050
      64:	00008d50          	.word	0x00008d50
      68:	00410113          	addi	x2,x2,4

# Testcase cp_rs1 (Test source rs1 = x1)
  RVTEST_TESTDATA_LOAD_INT(x3, x1) # load rs1: x1 = 0xc4fb0733
      6c:	0001a083          	lw	x1,0(x3)
      70:	00418193          	addi	x3,x3,4
  RVTEST_TESTDATA_LOAD_INT(x3, x15) # load rs2: x15 = 0xd294b2d2
      74:	0001a783          	lw	x15,0(x3)
      78:	00418193          	addi	x3,x3,4

0000007c <I_sltu_cg_cp_rs1_b1>:
I_sltu_cg_cp_rs1_b1:
  sltu x31, x1, x15 # perform operation
      7c:	00f0bfb3          	sltu	x31,x1,x15
  # Check if x31 contains the expected result. x2 is the signature ptr, x5 is the link ptr, x4 is a temp reg.
  RVTEST_SIGUPD(x2, x5, x4, x31, I_sltu_cg_cp_rs1_b1, I_sltu_cg_cp_rs1_b1_str)
      80:	00012203          	lw	x4,0(x2)
      84:	01f20863          	beq	x4,x31,94 <I_sltu_cg_cp_rs1_b1+0x18>
      88:	474042ef          	jal	x5,44fc <failedtest_x5_x4>
      8c:	0000007c          	.word	0x0000007c
      90:	00008d7e          	.word	0x00008d7e
      94:	00410113          	addi	x2,x2,4

  mv x10, x2 # switch signature pointer register to avoid conflict with test
      98:	00010513          	addi	x10,x2,0
# Testcase cp_rs1 (Test source rs1 = x2)
  RVTEST_TESTDATA_LOAD_INT(x3, x2) # load rs1: x2 = 0x764db6b2
      9c:	0001a103          	lw	x2,0(x3)
      a0:	00418193          	addi	x3,x3,4
  RVTEST_TESTDATA_LOAD_INT(x3, x15) # load rs2: x15 = 0x3b62f598
      a4:	0001a783          	lw	x15,0(x3)
      a8:	00418193          	addi	x3,x3,4

000000ac <I_sltu_cg_cp_rs1_b2>:
I_sltu_cg_cp_rs1_b2:
  sltu x26, x2, x15 # perform operation
      ac:	00f13d33          	sltu	x26,x2,x15
  # Check if x26 contains the expected result. x10 is the signature ptr, x5 is the link ptr, x4 is a temp reg.
  RVTEST_SIGUPD(x10, x5, x4, x26, I_sltu_cg_cp_rs1_b2, I_sltu_cg_cp_rs1_b2_str)
      b0:	00052203          	lw	x4,0(x10)
      b4:	01a20863          	beq	x4,x26,c4 <I_sltu_cg_cp_rs1_b2+0x18>
      b8:	444042ef          	jal	x5,44fc <failedtest_x5_x4>
      bc:	000000ac          	.word	0x000000ac
      c0:	00008dac          	.word	0x00008dac
      c4:	00450513          	addi	x10,x10,4

  mv x9, x3 # switch data pointer register to avoid conflict with test
      c8:	00018493          	addi	x9,x3,0
# Testcase cp_rs1 (Test source rs1 = x3)
  RVTEST_TESTDATA_LOAD_INT(x9, x3) # load rs1: x3 = 0xe27f2a68
      cc:	0004a183          	lw	x3,0(x9)
      d0:	00448493          	addi	x9,x9,4
  RVTEST_TESTDATA_LOAD_INT(x9, x14) # load rs2: x14 = 0xec4caaff
      d4:	0004a703          	lw	x14,0(x9)
      d8:	00448493          	addi	x9,x9,4

000000dc <I_sltu_cg_cp_rs1_b3>:
I_sltu_cg_cp_rs1_b3:
  sltu x27, x3, x14 # perform operation
      dc:	00e1bdb3          	sltu	x27,x3,x14
  # Check if x27 contains the expected result. x10 is the signature ptr, x5 is the link ptr, x4 is a temp reg.
  RVTEST_SIGUPD(x10, x5, x4, x27, I_sltu_cg_cp_rs1_b3, I_sltu_cg_cp_rs1_b3_str)
      e0:	00052203          	lw	x4,0(x10)
      e4:	01b20863          	beq	x4,x27,f4 <I_sltu_cg_cp_rs1_b3+0x18>
      e8:	414042ef          	jal	x5,44fc <failedtest_x5_x4>
      ec:	000000dc          	.word	0x000000dc
      f0:	00008dda          	.word	0x00008dda
      f4:	00450513          	addi	x10,x10,4

  mv x13, x4 # switch temp register to avoid conflict with test
      f8:	00020693          	addi	x13,x4,0 # 0 <rvtest_entry_point>
  mv x14, x5 # switch link pointer register to avoid conflict with test
      fc:	00028713          	addi	x14,x5,0
# Testcase cp_rs1 (Test source rs1 = x4)
  RVTEST_TESTDATA_LOAD_INT(x9, x4) # load rs1: x4 = 0x7a6e1d68
     100:	0004a203          	lw	x4,0(x9)
     104:	00448493          	addi	x9,x9,4
  RVTEST_TESTDATA_LOAD_INT(x9, x17) # load rs2: x17 = 0xe1e7469e
     108:	0004a883          	lw	x17,0(x9)
     10c:	00448493          	addi	x9,x9,4

00000110 <I_sltu_cg_cp_rs1_b4>:
I_sltu_cg_cp_rs1_b4:
  sltu x27, x4, x17 # perform operation
     110:	01123db3          	sltu	x27,x4,x17
  # Check if x27 contains the expected result. x10 is the signature ptr, x14 is the link ptr, x13 is a temp reg.
  RVTEST_SIGUPD(x10, x14, x13, x27, I_sltu_cg_cp_rs1_b4, I_sltu_cg_cp_rs1_b4_str)
     114:	00052683          	lw	x13,0(x10)
     118:	01b68863          	beq	x13,x27,128 <I_sltu_cg_cp_rs1_b4+0x18>
     11c:	4200476f          	jal	x14,453c <failedtest_x14_x13>
     120:	00000110          	.word	0x00000110
     124:	00008e08          	.word	0x00008e08
     128:	00450513          	addi	x10,x10,4

# Testcase cp_rs1 (Test source rs1 = x5)
  RVTEST_TESTDATA_LOAD_INT(x9, x5) # load rs1: x5 = 0x7d4f54ac
     12c:	0004a283          	lw	x5,0(x9)
     130:	00448493          	addi	x9,x9,4
  RVTEST_TESTDATA_LOAD_INT(x9, x16) # load rs2: x16 = 0x00fe690c
     134:	0004a803          	lw	x16,0(x9)
     138:	00448493          	addi	x9,x9,4

0000013c <I_sltu_cg_cp_rs1_b5>:
I_sltu_cg_cp_rs1_b5:
  sltu x25, x5, x16 # perform operation
     13c:	0102bcb3          	sltu	x25,x5,x16
  # Check if x25 contains the expected result. x10 is the signature ptr, x14 is the link ptr, x13 is a temp reg.
  RVTEST_SIGUPD(x10, x14, x13, x25, I_sltu_cg_cp_rs1_b5, I_sltu_cg_cp_rs1_b5_str)
     140:	00052683          	lw	x13,0(x10)
     144:	01968863          	beq	x13,x25,154 <I_sltu_cg_cp_rs1_b5+0x18>
     148:	3f40476f          	jal	x14,453c <failedtest_x14_x13>
     14c:	0000013c          	.word	0x0000013c
     150:	00008e36          	.word	0x00008e36
     154:	00450513          	addi	x10,x10,4

# Testcase cp_rs1 (Test source rs1 = x6)
  RVTEST_TESTDATA_LOAD_INT(x9, x6) # load rs1: x6 = 0x7b70f30c
     158:	0004a303          	lw	x6,0(x9)
     15c:	00448493          	addi	x9,x9,4
  RVTEST_TESTDATA_LOAD_INT(x9, x5) # load rs2: x5 = 0x574aa154
     160:	0004a283          	lw	x5,0(x9)
     164:	00448493          	addi	x9,x9,4

00000168 <I_sltu_cg_cp_rs1_b6>:
I_sltu_cg_cp_rs1_b6:
  sltu x24, x6, x5 # perform operation
     168:	00533c33          	sltu	x24,x6,x5
  # Check if x24 contains the expected result. x10 is the signature ptr, x14 is the link ptr, x13 is a temp reg.
  RVTEST_SIGUPD(x10, x14, x13, x24, I_sltu_cg_cp_rs1_b6, I_sltu_cg_cp_rs1_b6_str)
     16c:	00052683          	lw	x13,0(x10)
     170:	01868863          	beq	x13,x24,180 <I_sltu_cg_cp_rs1_b6+0x18>
     174:	3c80476f          	jal	x14,453c <failedtest_x14_x13>
     178:	00000168          	.word	0x00000168
     17c:	00008e64          	.word	0x00008e64
     180:	00450513          	addi	x10,x10,4

# Testcase cp_rs1 (Test source rs1 = x7)
  RVTEST_TESTDATA_LOAD_INT(x9, x7) # load rs1: x7 = 0x61839ad4
     184:	0004a383          	lw	x7,0(x9)
     188:	00448493          	addi	x9,x9,4
  RVTEST_TESTDATA_LOAD_INT(x9, x28) # load rs2: x28 = 0xf99543c1
     18c:	0004ae03          	lw	x28,0(x9)
     190:	00448493          	addi	x9,x9,4

00000194 <I_sltu_cg_cp_rs1_b7>:
I_sltu_cg_cp_rs1_b7:
  sltu x27, x7, x28 # perform operation
     194:	01c3bdb3          	sltu	x27,x7,x28
  # Check if x27 contains the expected result. x10 is the signature ptr, x14 is the link ptr, x13 is a temp reg.
  RVTEST_SIGUPD(x10, x14, x13, x27, I_sltu_cg_cp_rs1_b7, I_sltu_cg_cp_rs1_b7_str)
     198:	00052683          	lw	x13,0(x10)
     19c:	01b68863          	beq	x13,x27,1ac <I_sltu_cg_cp_rs1_b7+0x18>
     1a0:	39c0476f          	jal	x14,453c <failedtest_x14_x13>
     1a4:	00000194          	.word	0x00000194
     1a8:	00008e92          	.word	0x00008e92
     1ac:	00450513          	addi	x10,x10,4

# Testcase cp_rs1 (Test source rs1 = x8)
  RVTEST_TESTDATA_LOAD_INT(x9, x8) # load rs1: x8 = 0x67730351
     1b0:	0004a403          	lw	x8,0(x9)
     1b4:	00448493          	addi	x9,x9,4
  RVTEST_TESTDATA_LOAD_INT(x9, x30) # load rs2: x30 = 0x4bd59f0e
     1b8:	0004af03          	lw	x30,0(x9)
     1bc:	00448493          	addi	x9,x9,4

000001c0 <I_sltu_cg_cp_rs1_b8>:
I_sltu_cg_cp_rs1_b8:
  sltu x5, x8, x30 # perform operation
     1c0:	01e432b3          	sltu	x5,x8,x30
  # Check if x5 contains the expected result. x10 is the signature ptr, x14 is the link ptr, x13 is a temp reg.
  RVTEST_SIGUPD(x10, x14, x13, x5, I_sltu_cg_cp_rs1_b8, I_sltu_cg_cp_rs1_b8_str)
     1c4:	00052683          	lw	x13,0(x10)
     1c8:	00568863          	beq	x13,x5,1d8 <I_sltu_cg_cp_rs1_b8+0x18>
     1cc:	3700476f          	jal	x14,453c <failedtest_x14_x13>
     1d0:	000001c0          	.word	0x000001c0
     1d4:	00008ec0          	.word	0x00008ec0
     1d8:	00450513          	addi	x10,x10,4

  mv x16, x9 # switch data pointer register to avoid conflict with test
     1dc:	00048813          	addi	x16,x9,0
# Testcase cp_rs1 (Test source rs1 = x9)
  RVTEST_TESTDATA_LOAD_INT(x16, x9) # load rs1: x9 = 0x26716f6a
     1e0:	00082483          	lw	x9,0(x16)
     1e4:	00480813          	addi	x16,x16,4
  RVTEST_TESTDATA_LOAD_INT(x16, x18) # load rs2: x18 = 0xe7105809
     1e8:	00082903          	lw	x18,0(x16)
     1ec:	00480813          	addi	x16,x16,4

000001f0 <I_sltu_cg_cp_rs1_b9>:
I_sltu_cg_cp_rs1_b9:
  sltu x25, x9, x18 # perform operation
     1f0:	0124bcb3          	sltu	x25,x9,x18
  # Check if x25 contains the expected result. x10 is the signature ptr, x14 is the link ptr, x13 is a temp reg.
  RVTEST_SIGUPD(x10, x14, x13, x25, I_sltu_cg_cp_rs1_b9, I_sltu_cg_cp_rs1_b9_str)
     1f4:	00052683          	lw	x13,0(x10)
     1f8:	01968863          	beq	x13,x25,208 <I_sltu_cg_cp_rs1_b9+0x18>
     1fc:	3400476f          	jal	x14,453c <failedtest_x14_x13>
     200:	000001f0          	.word	0x000001f0
     204:	00008eee          	.word	0x00008eee
     208:	00450513          	addi	x10,x10,4

  mv x23, x10 # switch signature pointer register to avoid conflict with test
     20c:	00050b93          	addi	x23,x10,0
# Testcase cp_rs1 (Test source rs1 = x10)
  RVTEST_TESTDATA_LOAD_INT(x16, x10) # load rs1: x10 = 0x551a0b4e
     210:	00082503          	lw	x10,0(x16)
     214:	00480813          	addi	x16,x16,4
  RVTEST_TESTDATA_LOAD_INT(x16, x12) # load rs2: x12 = 0x21e0ac99
     218:	00082603          	lw	x12,0(x16)
     21c:	00480813          	addi	x16,x16,4

00000220 <I_sltu_cg_cp_rs1_b10>:
I_sltu_cg_cp_rs1_b10:
  sltu x24, x10, x12 # perform operation
     220:	00c53c33          	sltu	x24,x10,x12
  # Check if x24 contains the expected result. x23 is the signature ptr, x14 is the link ptr, x13 is a temp reg.
  RVTEST_SIGUPD(x23, x14, x13, x24, I_sltu_cg_cp_rs1_b10, I_sltu_cg_cp_rs1_b10_str)
     224:	000ba683          	lw	x13,0(x23)
     228:	01868863          	beq	x13,x24,238 <I_sltu_cg_cp_rs1_b10+0x18>
     22c:	3100476f          	jal	x14,453c <failedtest_x14_x13>
     230:	00000220          	.word	0x00000220
     234:	00008f1d          	.word	0x00008f1d
     238:	004b8b93          	addi	x23,x23,4

# Testcase cp_rs1 (Test source rs1 = x11)
  RVTEST_TESTDATA_LOAD_INT(x16, x11) # load rs1: x11 = 0x2e017717
     23c:	00082583          	lw	x11,0(x16)
     240:	00480813          	addi	x16,x16,4
  RVTEST_TESTDATA_LOAD_INT(x16, x7) # load rs2: x7 = 0x02d7696e
     244:	00082383          	lw	x7,0(x16)
     248:	00480813          	addi	x16,x16,4

0000024c <I_sltu_cg_cp_rs1_b11>:
I_sltu_cg_cp_rs1_b11:
  sltu x9, x11, x7 # perform operation
     24c:	0075b4b3          	sltu	x9,x11,x7
  # Check if x9 contains the expected result. x23 is the signature ptr, x14 is the link ptr, x13 is a temp reg.
  RVTEST_SIGUPD(x23, x14, x13, x9, I_sltu_cg_cp_rs1_b11, I_sltu_cg_cp_rs1_b11_str)
     250:	000ba683          	lw	x13,0(x23)
     254:	00968863          	beq	x13,x9,264 <I_sltu_cg_cp_rs1_b11+0x18>
     258:	2e40476f          	jal	x14,453c <failedtest_x14_x13>
     25c:	0000024c          	.word	0x0000024c
     260:	00008f4d          	.word	0x00008f4d
     264:	004b8b93          	addi	x23,x23,4

# Testcase cp_rs1 (Test source rs1 = x12)
  RVTEST_TESTDATA_LOAD_INT(x16, x12) # load rs1: x12 = 0xdd56e6d8
     268:	00082603          	lw	x12,0(x16)
     26c:	00480813          	addi	x16,x16,4
  RVTEST_TESTDATA_LOAD_INT(x16, x30) # load rs2: x30 = 0x05688d0e
     270:	00082f03          	lw	x30,0(x16)
     274:	00480813          	addi	x16,x16,4

00000278 <I_sltu_cg_cp_rs1_b12>:
I_sltu_cg_cp_rs1_b12:
  sltu x25, x12, x30 # perform operation
     278:	01e63cb3          	sltu	x25,x12,x30
  # Check if x25 contains the expected result. x23 is the signature ptr, x14 is the link ptr, x13 is a temp reg.
  RVTEST_SIGUPD(x23, x14, x13, x25, I_sltu_cg_cp_rs1_b12, I_sltu_cg_cp_rs1_b12_str)
     27c:	000ba683          	lw	x13,0(x23)
     280:	01968863          	beq	x13,x25,290 <I_sltu_cg_cp_rs1_b12+0x18>
     284:	2b80476f          	jal	x14,453c <failedtest_x14_x13>
     288:	00000278          	.word	0x00000278
     28c:	00008f7d          	.word	0x00008f7d
     290:	004b8b93          	addi	x23,x23,4

  mv x7, x13 # switch temp register to avoid conflict with test
     294:	00068393          	addi	x7,x13,0
  mv x8, x14 # switch link pointer register to avoid conflict with test
     298:	00070413          	addi	x8,x14,0
# Testcase cp_rs1 (Test source rs1 = x13)
  RVTEST_TESTDATA_LOAD_INT(x16, x13) # load rs1: x13 = 0x6e7fffe5
     29c:	00082683          	lw	x13,0(x16)
     2a0:	00480813          	addi	x16,x16,4
  RVTEST_TESTDATA_LOAD_INT(x16, x15) # load rs2: x15 = 0xa51a018f
     2a4:	00082783          	lw	x15,0(x16)
     2a8:	00480813          	addi	x16,x16,4

000002ac <I_sltu_cg_cp_rs1_b13>:
I_sltu_cg_cp_rs1_b13:
  sltu x2, x13, x15 # perform operation
     2ac:	00f6b133          	sltu	x2,x13,x15
  # Check if x2 contains the expected result. x23 is the signature ptr, x8 is the link ptr, x7 is a temp reg.
  RVTEST_SIGUPD(x23, x8, x7, x2, I_sltu_cg_cp_rs1_b13, I_sltu_cg_cp_rs1_b13_str)
     2b0:	000ba383          	lw	x7,0(x23)
     2b4:	00238863          	beq	x7,x2,2c4 <I_sltu_cg_cp_rs1_b13+0x18>
     2b8:	25c0446f          	jal	x8,4514 <failedtest_x8_x7>
     2bc:	000002ac          	.word	0x000002ac
     2c0:	00008fad          	.word	0x00008fad
     2c4:	004b8b93          	addi	x23,x23,4

# Testcase cp_rs1 (Test source rs1 = x14)
  RVTEST_TESTDATA_LOAD_INT(x16, x14) # load rs1: x14 = 0x5bc84684
     2c8:	00082703          	lw	x14,0(x16)
     2cc:	00480813          	addi	x16,x16,4
  RVTEST_TESTDATA_LOAD_INT(x16, x4) # load rs2: x4 = 0xf154afc1
     2d0:	00082203          	lw	x4,0(x16)
     2d4:	00480813          	addi	x16,x16,4

000002d8 <I_sltu_cg_cp_rs1_b14>:
I_sltu_cg_cp_rs1_b14:
  sltu x10, x14, x4 # perform operation
     2d8:	00473533          	sltu	x10,x14,x4
  # Check if x10 contains the expected result. x23 is the signature ptr, x8 is the link ptr, x7 is a temp reg.
  RVTEST_SIGUPD(x23, x8, x7, x10, I_sltu_cg_cp_rs1_b14, I_sltu_cg_cp_rs1_b14_str)
     2dc:	000ba383          	lw	x7,0(x23)
     2e0:	00a38863          	beq	x7,x10,2f0 <I_sltu_cg_cp_rs1_b14+0x18>
     2e4:	2300446f          	jal	x8,4514 <failedtest_x8_x7>
     2e8:	000002d8          	.word	0x000002d8
     2ec:	00008fdd          	.word	0x00008fdd
     2f0:	004b8b93          	addi	x23,x23,4

# Testcase cp_rs1 (Test source rs1 = x15)
  RVTEST_TESTDATA_LOAD_INT(x16, x15) # load rs1: x15 = 0xb4f6be9b
     2f4:	00082783          	lw	x15,0(x16)
     2f8:	00480813          	addi	x16,x16,4
  RVTEST_TESTDATA_LOAD_INT(x16, x25) # load rs2: x25 = 0x426c648c
     2fc:	00082c83          	lw	x25,0(x16)
     300:	00480813          	addi	x16,x16,4

00000304 <I_sltu_cg_cp_rs1_b15>:
I_sltu_cg_cp_rs1_b15:
  sltu x3, x15, x25 # perform operation
     304:	0197b1b3          	sltu	x3,x15,x25
  # Check if x3 contains the expected result. x23 is the signature ptr, x8 is the link ptr, x7 is a temp reg.
  RVTEST_SIGUPD(x23, x8, x7, x3, I_sltu_cg_cp_rs1_b15, I_sltu_cg_cp_rs1_b15_str)
     308:	000ba383          	lw	x7,0(x23)
     30c:	00338863          	beq	x7,x3,31c <imm12+0x13>
     310:	2040446f          	jal	x8,4514 <failedtest_x8_x7>
     314:	00000304          	.word	0x00000304
     318:	0000900d          	.word	0x0000900d
     31c:	004b8b93          	addi	x23,x23,4

  mv x28, x16 # switch data pointer register to avoid conflict with test
     320:	00080e13          	addi	x28,x16,0
# Testcase cp_rs1 (Test source rs1 = x16)
  RVTEST_TESTDATA_LOAD_INT(x28, x16) # load rs1: x16 = 0x2fb87e4a
     324:	000e2803          	lw	x16,0(x28)
     328:	004e0e13          	addi	x28,x28,4
  RVTEST_TESTDATA_LOAD_INT(x28, x18) # load rs2: x18 = 0xb626be09
     32c:	000e2903          	lw	x18,0(x28)
     330:	004e0e13          	addi	x28,x28,4

00000334 <I_sltu_cg_cp_rs1_b16>:
I_sltu_cg_cp_rs1_b16:
  sltu x29, x16, x18 # perform operation
     334:	01283eb3          	sltu	x29,x16,x18
  # Check if x29 contains the expected result. x23 is the signature ptr, x8 is the link ptr, x7 is a temp reg.
  RVTEST_SIGUPD(x23, x8, x7, x29, I_sltu_cg_cp_rs1_b16, I_sltu_cg_cp_rs1_b16_str)
     338:	000ba383          	lw	x7,0(x23)
     33c:	01d38863          	beq	x7,x29,34c <I_sltu_cg_cp_rs1_b16+0x18>
     340:	1d40446f          	jal	x8,4514 <failedtest_x8_x7>
     344:	00000334          	.word	0x00000334
     348:	0000903d          	.word	0x0000903d
     34c:	004b8b93          	addi	x23,x23,4

# Testcase cp_rs1 (Test source rs1 = x17)
  RVTEST_TESTDATA_LOAD_INT(x28, x17) # load rs1: x17 = 0xc4b476d7
     350:	000e2883          	lw	x17,0(x28)
     354:	004e0e13          	addi	x28,x28,4
  RVTEST_TESTDATA_LOAD_INT(x28, x26) # load rs2: x26 = 0x50ec5171
     358:	000e2d03          	lw	x26,0(x28)
     35c:	004e0e13          	addi	x28,x28,4

00000360 <I_sltu_cg_cp_rs1_b17>:
I_sltu_cg_cp_rs1_b17:
  sltu x0, x17, x26 # perform operation
     360:	01a8b033          	sltu	x0,x17,x26
  # Check if x0 contains the expected result. x23 is the signature ptr, x8 is the link ptr, x7 is a temp reg.
  RVTEST_SIGUPD(x23, x8, x7, x0, I_sltu_cg_cp_rs1_b17, I_sltu_cg_cp_rs1_b17_str)
     364:	000ba383          	lw	x7,0(x23)
     368:	00038863          	beq	x7,x0,378 <I_sltu_cg_cp_rs1_b17+0x18>
     36c:	1a80446f          	jal	x8,4514 <failedtest_x8_x7>
     370:	00000360          	.word	0x00000360
     374:	0000906d          	.word	0x0000906d
     378:	004b8b93          	addi	x23,x23,4

# Testcase cp_rs1 (Test source rs1 = x18)
  RVTEST_TESTDATA_LOAD_INT(x28, x18) # load rs1: x18 = 0x03357a27
     37c:	000e2903          	lw	x18,0(x28)
     380:	004e0e13          	addi	x28,x28,4
  RVTEST_TESTDATA_LOAD_INT(x28, x13) # load rs2: x13 = 0x5d65e199
     384:	000e2683          	lw	x13,0(x28)
     388:	004e0e13          	addi	x28,x28,4

0000038c <I_sltu_cg_cp_rs1_b18>:
I_sltu_cg_cp_rs1_b18:
  sltu x0, x18, x13 # perform operation
     38c:	00d93033          	sltu	x0,x18,x13
  # Check if x0 contains the expected result. x23 is the signature ptr, x8 is the link ptr, x7 is a temp reg.
  RVTEST_SIGUPD(x23, x8, x7, x0, I_sltu_cg_cp_rs1_b18, I_sltu_cg_cp_rs1_b18_str)
     390:	000ba383          	lw	x7,0(x23)
     394:	00038863          	beq	x7,x0,3a4 <I_sltu_cg_cp_rs1_b18+0x18>
     398:	17c0446f          	jal	x8,4514 <failedtest_x8_x7>
     39c:	0000038c          	.word	0x0000038c
     3a0:	0000909d          	.word	0x0000909d
     3a4:	004b8b93          	addi	x23,x23,4

# Testcase cp_rs1 (Test source rs1 = x19)
  RVTEST_TESTDATA_LOAD_INT(x28, x19) # load rs1: x19 = 0x65745bf5
     3a8:	000e2983          	lw	x19,0(x28)
     3ac:	004e0e13          	addi	x28,x28,4
  RVTEST_TESTDATA_LOAD_INT(x28, x10) # load rs2: x10 = 0x959cbfa0
     3b0:	000e2503          	lw	x10,0(x28)
     3b4:	004e0e13          	addi	x28,x28,4

000003b8 <I_sltu_cg_cp_rs1_b19>:
I_sltu_cg_cp_rs1_b19:
  sltu x1, x19, x10 # perform operation
     3b8:	00a9b0b3          	sltu	x1,x19,x10
  # Check if x1 contains the expected result. x23 is the signature ptr, x8 is the link ptr, x7 is a temp reg.
  RVTEST_SIGUPD(x23, x8, x7, x1, I_sltu_cg_cp_rs1_b19, I_sltu_cg_cp_rs1_b19_str)
     3bc:	000ba383          	lw	x7,0(x23)
     3c0:	00138863          	beq	x7,x1,3d0 <I_sltu_cg_cp_rs1_b19+0x18>
     3c4:	1500446f          	jal	x8,4514 <failedtest_x8_x7>
     3c8:	000003b8          	.word	0x000003b8
     3cc:	000090cd          	.word	0x000090cd
     3d0:	004b8b93          	addi	x23,x23,4

# Testcase cp_rs1 (Test source rs1 = x20)
  RVTEST_TESTDATA_LOAD_INT(x28, x20) # load rs1: x20 = 0x379e860c
     3d4:	000e2a03          	lw	x20,0(x28)
     3d8:	004e0e13          	addi	x28,x28,4
  RVTEST_TESTDATA_LOAD_INT(x28, x15) # load rs2: x15 = 0x6c0b505f
     3dc:	000e2783          	lw	x15,0(x28)
     3e0:	004e0e13          	addi	x28,x28,4

000003e4 <I_sltu_cg_cp_rs1_b20>:
I_sltu_cg_cp_rs1_b20:
  sltu x11, x20, x15 # perform operation
     3e4:	00fa35b3          	sltu	x11,x20,x15
  # Check if x11 contains the expected result. x23 is the signature ptr, x8 is the link ptr, x7 is a temp reg.
  RVTEST_SIGUPD(x23, x8, x7, x11, I_sltu_cg_cp_rs1_b20, I_sltu_cg_cp_rs1_b20_str)
     3e8:	000ba383          	lw	x7,0(x23)
     3ec:	00b38863          	beq	x7,x11,3fc <I_sltu_cg_cp_rs1_b20+0x18>
     3f0:	1240446f          	jal	x8,4514 <failedtest_x8_x7>
     3f4:	000003e4          	.word	0x000003e4
     3f8:	000090fd          	.word	0x000090fd
     3fc:	004b8b93          	addi	x23,x23,4

# Testcase cp_rs1 (Test source rs1 = x21)
  RVTEST_TESTDATA_LOAD_INT(x28, x21) # load rs1: x21 = 0x2ca26578
     400:	000e2a83          	lw	x21,0(x28)
     404:	004e0e13          	addi	x28,x28,4
  RVTEST_TESTDATA_LOAD_INT(x28, x3) # load rs2: x3 = 0xb5ac2b69
     408:	000e2183          	lw	x3,0(x28)
     40c:	004e0e13          	addi	x28,x28,4

00000410 <I_sltu_cg_cp_rs1_b21>:
I_sltu_cg_cp_rs1_b21:
  sltu x10, x21, x3 # perform operation
     410:	003ab533          	sltu	x10,x21,x3
  # Check if x10 contains the expected result. x23 is the signature ptr, x8 is the link ptr, x7 is a temp reg.
  RVTEST_SIGUPD(x23, x8, x7, x10, I_sltu_cg_cp_rs1_b21, I_sltu_cg_cp_rs1_b21_str)
     414:	000ba383          	lw	x7,0(x23)
     418:	00a38863          	beq	x7,x10,428 <I_sltu_cg_cp_rs1_b21+0x18>
     41c:	0f80446f          	jal	x8,4514 <failedtest_x8_x7>
     420:	00000410          	.word	0x00000410
     424:	0000912d          	.word	0x0000912d
     428:	004b8b93          	addi	x23,x23,4

# Testcase cp_rs1 (Test source rs1 = x22)
  RVTEST_TESTDATA_LOAD_INT(x28, x22) # load rs1: x22 = 0x8485ad1c
     42c:	000e2b03          	lw	x22,0(x28)
     430:	004e0e13          	addi	x28,x28,4
  RVTEST_TESTDATA_LOAD_INT(x28, x30) # load rs2: x30 = 0xbd084f43
     434:	000e2f03          	lw	x30,0(x28)
     438:	004e0e13          	addi	x28,x28,4

0000043c <I_sltu_cg_cp_rs1_b22>:
I_sltu_cg_cp_rs1_b22:
  sltu x31, x22, x30 # perform operation
     43c:	01eb3fb3          	sltu	x31,x22,x30
  # Check if x31 contains the expected result. x23 is the signature ptr, x8 is the link ptr, x7 is a temp reg.
  RVTEST_SIGUPD(x23, x8, x7, x31, I_sltu_cg_cp_rs1_b22, I_sltu_cg_cp_rs1_b22_str)
     440:	000ba383          	lw	x7,0(x23)
     444:	01f38863          	beq	x7,x31,454 <I_sltu_cg_cp_rs1_b22+0x18>
     448:	0cc0446f          	jal	x8,4514 <failedtest_x8_x7>
     44c:	0000043c          	.word	0x0000043c
     450:	0000915d          	.word	0x0000915d
     454:	004b8b93          	addi	x23,x23,4

  mv x6, x23 # switch signature pointer register to avoid conflict with test
     458:	000b8313          	addi	x6,x23,0
# Testcase cp_rs1 (Test source rs1 = x23)
  RVTEST_TESTDATA_LOAD_INT(x28, x23) # load rs1: x23 = 0x8f40d55d
     45c:	000e2b83          	lw	x23,0(x28)
     460:	004e0e13          	addi	x28,x28,4
  RVTEST_TESTDATA_LOAD_INT(x28, x30) # load rs2: x30 = 0x25ad807a
     464:	000e2f03          	lw	x30,0(x28)
     468:	004e0e13          	addi	x28,x28,4

0000046c <I_sltu_cg_cp_rs1_b23>:
I_sltu_cg_cp_rs1_b23:
  sltu x15, x23, x30 # perform operation
     46c:	01ebb7b3          	sltu	x15,x23,x30
  # Check if x15 contains the expected result. x6 is the signature ptr, x8 is the link ptr, x7 is a temp reg.
  RVTEST_SIGUPD(x6, x8, x7, x15, I_sltu_cg_cp_rs1_b23, I_sltu_cg_cp_rs1_b23_str)
     470:	00032383          	lw	x7,0(x6)
     474:	00f38863          	beq	x7,x15,484 <I_sltu_cg_cp_rs1_b23+0x18>
     478:	09c0446f          	jal	x8,4514 <failedtest_x8_x7>
     47c:	0000046c          	.word	0x0000046c
     480:	0000918d          	.word	0x0000918d
     484:	00430313          	addi	x6,x6,4

# Testcase cp_rs1 (Test source rs1 = x24)
  RVTEST_TESTDATA_LOAD_INT(x28, x24) # load rs1: x24 = 0xb2cf1d2a
     488:	000e2c03          	lw	x24,0(x28)
     48c:	004e0e13          	addi	x28,x28,4
  RVTEST_TESTDATA_LOAD_INT(x28, x5) # load rs2: x5 = 0x166dacd0
     490:	000e2283          	lw	x5,0(x28)
     494:	004e0e13          	addi	x28,x28,4

00000498 <I_sltu_cg_cp_rs1_b24>:
I_sltu_cg_cp_rs1_b24:
  sltu x20, x24, x5 # perform operation
     498:	005c3a33          	sltu	x20,x24,x5
  # Check if x20 contains the expected result. x6 is the signature ptr, x8 is the link ptr, x7 is a temp reg.
  RVTEST_SIGUPD(x6, x8, x7, x20, I_sltu_cg_cp_rs1_b24, I_sltu_cg_cp_rs1_b24_str)
     49c:	00032383          	lw	x7,0(x6)
     4a0:	01438863          	beq	x7,x20,4b0 <I_sltu_cg_cp_rs1_b24+0x18>
     4a4:	0700446f          	jal	x8,4514 <failedtest_x8_x7>
     4a8:	00000498          	.word	0x00000498
     4ac:	000091bd          	.word	0x000091bd
     4b0:	00430313          	addi	x6,x6,4

# Testcase cp_rs1 (Test source rs1 = x25)
  RVTEST_TESTDATA_LOAD_INT(x28, x25) # load rs1: x25 = 0x3de73289
     4b4:	000e2c83          	lw	x25,0(x28)
     4b8:	004e0e13          	addi	x28,x28,4
  RVTEST_TESTDATA_LOAD_INT(x28, x27) # load rs2: x27 = 0xb3474463
     4bc:	000e2d83          	lw	x27,0(x28)
     4c0:	004e0e13          	addi	x28,x28,4

000004c4 <I_sltu_cg_cp_rs1_b25>:
I_sltu_cg_cp_rs1_b25:
  sltu x16, x25, x27 # perform operation
     4c4:	01bcb833          	sltu	x16,x25,x27
  # Check if x16 contains the expected result. x6 is the signature ptr, x8 is the link ptr, x7 is a temp reg.
  RVTEST_SIGUPD(x6, x8, x7, x16, I_sltu_cg_cp_rs1_b25, I_sltu_cg_cp_rs1_b25_str)
     4c8:	00032383          	lw	x7,0(x6)
     4cc:	01038863          	beq	x7,x16,4dc <I_sltu_cg_cp_rs1_b25+0x18>
     4d0:	0440446f          	jal	x8,4514 <failedtest_x8_x7>
     4d4:	000004c4          	.word	0x000004c4
     4d8:	000091ed          	.word	0x000091ed
     4dc:	00430313          	addi	x6,x6,4

# Testcase cp_rs1 (Test source rs1 = x26)
  RVTEST_TESTDATA_LOAD_INT(x28, x26) # load rs1: x26 = 0x388bc7b0
     4e0:	000e2d03          	lw	x26,0(x28)
     4e4:	004e0e13          	addi	x28,x28,4
  RVTEST_TESTDATA_LOAD_INT(x28, x4) # load rs2: x4 = 0xd3d0a350
     4e8:	000e2203          	lw	x4,0(x28)
     4ec:	004e0e13          	addi	x28,x28,4

000004f0 <I_sltu_cg_cp_rs1_b26>:
I_sltu_cg_cp_rs1_b26:
  sltu x11, x26, x4 # perform operation
     4f0:	004d35b3          	sltu	x11,x26,x4
  # Check if x11 contains the expected result. x6 is the signature ptr, x8 is the link ptr, x7 is a temp reg.
  RVTEST_SIGUPD(x6, x8, x7, x11, I_sltu_cg_cp_rs1_b26, I_sltu_cg_cp_rs1_b26_str)
     4f4:	00032383          	lw	x7,0(x6)
     4f8:	00b38863          	beq	x7,x11,508 <I_sltu_cg_cp_rs1_b26+0x18>
     4fc:	0180446f          	jal	x8,4514 <failedtest_x8_x7>
     500:	000004f0          	.word	0x000004f0
     504:	0000921d          	.word	0x0000921d
     508:	00430313          	addi	x6,x6,4

# Testcase cp_rs1 (Test source rs1 = x27)
  RVTEST_TESTDATA_LOAD_INT(x28, x27) # load rs1: x27 = 0x49a579a8
     50c:	000e2d83          	lw	x27,0(x28)
     510:	004e0e13          	addi	x28,x28,4
  RVTEST_TESTDATA_LOAD_INT(x28, x4) # load rs2: x4 = 0x161f9456
     514:	000e2203          	lw	x4,0(x28)
     518:	004e0e13          	addi	x28,x28,4

0000051c <I_sltu_cg_cp_rs1_b27>:
I_sltu_cg_cp_rs1_b27:
  sltu x31, x27, x4 # perform operation
     51c:	004dbfb3          	sltu	x31,x27,x4
  # Check if x31 contains the expected result. x6 is the signature ptr, x8 is the link ptr, x7 is a temp reg.
  RVTEST_SIGUPD(x6, x8, x7, x31, I_sltu_cg_cp_rs1_b27, I_sltu_cg_cp_rs1_b27_str)
     520:	00032383          	lw	x7,0(x6)
     524:	01f38863          	beq	x7,x31,534 <I_sltu_cg_cp_rs1_b27+0x18>
     528:	7ed0346f          	jal	x8,4514 <failedtest_x8_x7>
     52c:	0000051c          	.word	0x0000051c
     530:	0000924d          	.word	0x0000924d
     534:	00430313          	addi	x6,x6,4

  mv x27, x28 # switch data pointer register to avoid conflict with test
     538:	000e0d93          	addi	x27,x28,0
# Testcase cp_rs1 (Test source rs1 = x28)
  RVTEST_TESTDATA_LOAD_INT(x27, x28) # load rs1: x28 = 0xddd0fd7d
     53c:	000dae03          	lw	x28,0(x27)
     540:	004d8d93          	addi	x27,x27,4
  RVTEST_TESTDATA_LOAD_INT(x27, x15) # load rs2: x15 = 0x683969d5
     544:	000da783          	lw	x15,0(x27)
     548:	004d8d93          	addi	x27,x27,4

0000054c <I_sltu_cg_cp_rs1_b28>:
I_sltu_cg_cp_rs1_b28:
  sltu x22, x28, x15 # perform operation
     54c:	00fe3b33          	sltu	x22,x28,x15
  # Check if x22 contains the expected result. x6 is the signature ptr, x8 is the link ptr, x7 is a temp reg.
  RVTEST_SIGUPD(x6, x8, x7, x22, I_sltu_cg_cp_rs1_b28, I_sltu_cg_cp_rs1_b28_str)
     550:	00032383          	lw	x7,0(x6)
     554:	01638863          	beq	x7,x22,564 <I_sltu_cg_cp_rs1_b28+0x18>
     558:	7bd0346f          	jal	x8,4514 <failedtest_x8_x7>
     55c:	0000054c          	.word	0x0000054c
     560:	0000927d          	.word	0x0000927d
     564:	00430313          	addi	x6,x6,4

# Testcase cp_rs1 (Test source rs1 = x29)
  RVTEST_TESTDATA_LOAD_INT(x27, x29) # load rs1: x29 = 0x3bad9497
     568:	000dae83          	lw	x29,0(x27)
     56c:	004d8d93          	addi	x27,x27,4
  RVTEST_TESTDATA_LOAD_INT(x27, x1) # load rs2: x1 = 0x42712f19
     570:	000da083          	lw	x1,0(x27)
     574:	004d8d93          	addi	x27,x27,4

00000578 <I_sltu_cg_cp_rs1_b29>:
I_sltu_cg_cp_rs1_b29:
  sltu x17, x29, x1 # perform operation
     578:	001eb8b3          	sltu	x17,x29,x1
  # Check if x17 contains the expected result. x6 is the signature ptr, x8 is the link ptr, x7 is a temp reg.
  RVTEST_SIGUPD(x6, x8, x7, x17, I_sltu_cg_cp_rs1_b29, I_sltu_cg_cp_rs1_b29_str)
     57c:	00032383          	lw	x7,0(x6)
     580:	01138863          	beq	x7,x17,590 <I_sltu_cg_cp_rs1_b29+0x18>
     584:	7910346f          	jal	x8,4514 <failedtest_x8_x7>
     588:	00000578          	.word	0x00000578
     58c:	000092ad          	.word	0x000092ad
     590:	00430313          	addi	x6,x6,4

# Testcase cp_rs1 (Test source rs1 = x30)
  RVTEST_TESTDATA_LOAD_INT(x27, x30) # load rs1: x30 = 0xc2b1056f
     594:	000daf03          	lw	x30,0(x27)
     598:	004d8d93          	addi	x27,x27,4
  RVTEST_TESTDATA_LOAD_INT(x27, x31) # load rs2: x31 = 0x3e10329d
     59c:	000daf83          	lw	x31,0(x27)
     5a0:	004d8d93          	addi	x27,x27,4

000005a4 <I_sltu_cg_cp_rs1_b30>:
I_sltu_cg_cp_rs1_b30:
  sltu x11, x30, x31 # perform operation
     5a4:	01ff35b3          	sltu	x11,x30,x31
  # Check if x11 contains the expected result. x6 is the signature ptr, x8 is the link ptr, x7 is a temp reg.
  RVTEST_SIGUPD(x6, x8, x7, x11, I_sltu_cg_cp_rs1_b30, I_sltu_cg_cp_rs1_b30_str)
     5a8:	00032383          	lw	x7,0(x6)
     5ac:	00b38863          	beq	x7,x11,5bc <I_sltu_cg_cp_rs1_b30+0x18>
     5b0:	7650346f          	jal	x8,4514 <failedtest_x8_x7>
     5b4:	000005a4          	.word	0x000005a4
     5b8:	000092dd          	.word	0x000092dd
     5bc:	00430313          	addi	x6,x6,4

# Testcase cp_rs1 (Test source rs1 = x31)
  RVTEST_TESTDATA_LOAD_INT(x27, x31) # load rs1: x31 = 0x24a5a838
     5c0:	000daf83          	lw	x31,0(x27)
     5c4:	004d8d93          	addi	x27,x27,4
  RVTEST_TESTDATA_LOAD_INT(x27, x30) # load rs2: x30 = 0x478b7993
     5c8:	000daf03          	lw	x30,0(x27)
     5cc:	004d8d93          	addi	x27,x27,4

000005d0 <I_sltu_cg_cp_rs1_b31>:
I_sltu_cg_cp_rs1_b31:
  sltu x11, x31, x30 # perform operation
     5d0:	01efb5b3          	sltu	x11,x31,x30
  # Check if x11 contains the expected result. x6 is the signature ptr, x8 is the link ptr, x7 is a temp reg.
  RVTEST_SIGUPD(x6, x8, x7, x11, I_sltu_cg_cp_rs1_b31, I_sltu_cg_cp_rs1_b31_str)
     5d4:	00032383          	lw	x7,0(x6)
     5d8:	00b38863          	beq	x7,x11,5e8 <I_sltu_cg_cp_rs1_b31+0x18>
     5dc:	7390346f          	jal	x8,4514 <failedtest_x8_x7>
     5e0:	000005d0          	.word	0x000005d0
     5e4:	0000930d          	.word	0x0000930d
     5e8:	00430313          	addi	x6,x6,4
/////////////////////////////////
// cp_rs2
/////////////////////////////////

# Testcase cp_rs2 (Test source rs2 = x0)
  RVTEST_TESTDATA_LOAD_INT(x27, x1) # load rs1: x1 = 0x41fc3c36
     5ec:	000da083          	lw	x1,0(x27)
     5f0:	004d8d93          	addi	x27,x27,4
  RVTEST_TESTDATA_LOAD_INT(x27, x0) # load rs2: x0 = 0xf2d8368b
     5f4:	000da003          	lw	x0,0(x27)
     5f8:	004d8d93          	addi	x27,x27,4

000005fc <I_sltu_cg_cp_rs2_b0>:
I_sltu_cg_cp_rs2_b0:
  sltu x30, x1, x0 # perform operation
     5fc:	0000bf33          	sltu	x30,x1,x0
  # Check if x30 contains the expected result. x6 is the signature ptr, x8 is the link ptr, x7 is a temp reg.
  RVTEST_SIGUPD(x6, x8, x7, x30, I_sltu_cg_cp_rs2_b0, I_sltu_cg_cp_rs2_b0_str)
     600:	00032383          	lw	x7,0(x6)
     604:	01e38863          	beq	x7,x30,614 <I_sltu_cg_cp_rs2_b0+0x18>
     608:	70d0346f          	jal	x8,4514 <failedtest_x8_x7>
     60c:	000005fc          	.word	0x000005fc
     610:	0000933d          	.word	0x0000933d
     614:	00430313          	addi	x6,x6,4

# Testcase cp_rs2 (Test source rs2 = x1)
  RVTEST_TESTDATA_LOAD_INT(x27, x21) # load rs1: x21 = 0xc7458881
     618:	000daa83          	lw	x21,0(x27)
     61c:	004d8d93          	addi	x27,x27,4
  RVTEST_TESTDATA_LOAD_INT(x27, x1) # load rs2: x1 = 0xdeea0ea3
     620:	000da083          	lw	x1,0(x27)
     624:	004d8d93          	addi	x27,x27,4

00000628 <I_sltu_cg_cp_rs2_b1>:
I_sltu_cg_cp_rs2_b1:
  sltu x19, x21, x1 # perform operation
     628:	001ab9b3          	sltu	x19,x21,x1
  # Check if x19 contains the expected result. x6 is the signature ptr, x8 is the link ptr, x7 is a temp reg.
  RVTEST_SIGUPD(x6, x8, x7, x19, I_sltu_cg_cp_rs2_b1, I_sltu_cg_cp_rs2_b1_str)
     62c:	00032383          	lw	x7,0(x6)
     630:	01338863          	beq	x7,x19,640 <I_sltu_cg_cp_rs2_b1+0x18>
     634:	6e10346f          	jal	x8,4514 <failedtest_x8_x7>
     638:	00000628          	.word	0x00000628
     63c:	0000936c          	.word	0x0000936c
     640:	00430313          	addi	x6,x6,4

# Testcase cp_rs2 (Test source rs2 = x2)
  RVTEST_TESTDATA_LOAD_INT(x27, x10) # load rs1: x10 = 0x6d86305e
     644:	000da503          	lw	x10,0(x27)
     648:	004d8d93          	addi	x27,x27,4
  RVTEST_TESTDATA_LOAD_INT(x27, x2) # load rs2: x2 = 0x868a5c46
     64c:	000da103          	lw	x2,0(x27)
     650:	004d8d93          	addi	x27,x27,4

00000654 <I_sltu_cg_cp_rs2_b2>:
I_sltu_cg_cp_rs2_b2:
  sltu x4, x10, x2 # perform operation
     654:	00253233          	sltu	x4,x10,x2
  # Check if x4 contains the expected result. x6 is the signature ptr, x8 is the link ptr, x7 is a temp reg.
  RVTEST_SIGUPD(x6, x8, x7, x4, I_sltu_cg_cp_rs2_b2, I_sltu_cg_cp_rs2_b2_str)
     658:	00032383          	lw	x7,0(x6)
     65c:	00438863          	beq	x7,x4,66c <I_sltu_cg_cp_rs2_b2+0x18>
     660:	6b50346f          	jal	x8,4514 <failedtest_x8_x7>
     664:	00000654          	.word	0x00000654
     668:	0000939b          	.word	0x0000939b
     66c:	00430313          	addi	x6,x6,4

# Testcase cp_rs2 (Test source rs2 = x3)
  RVTEST_TESTDATA_LOAD_INT(x27, x28) # load rs1: x28 = 0xe236c81e
     670:	000dae03          	lw	x28,0(x27)
     674:	004d8d93          	addi	x27,x27,4
  RVTEST_TESTDATA_LOAD_INT(x27, x3) # load rs2: x3 = 0xbdd35f25
     678:	000da183          	lw	x3,0(x27)
     67c:	004d8d93          	addi	x27,x27,4

00000680 <I_sltu_cg_cp_rs2_b3>:
I_sltu_cg_cp_rs2_b3:
  sltu x2, x28, x3 # perform operation
     680:	003e3133          	sltu	x2,x28,x3
  # Check if x2 contains the expected result. x6 is the signature ptr, x8 is the link ptr, x7 is a temp reg.
  RVTEST_SIGUPD(x6, x8, x7, x2, I_sltu_cg_cp_rs2_b3, I_sltu_cg_cp_rs2_b3_str)
     684:	00032383          	lw	x7,0(x6)
     688:	00238863          	beq	x7,x2,698 <I_sltu_cg_cp_rs2_b3+0x18>
     68c:	6890346f          	jal	x8,4514 <failedtest_x8_x7>
     690:	00000680          	.word	0x00000680
     694:	000093ca          	.word	0x000093ca
     698:	00430313          	addi	x6,x6,4

# Testcase cp_rs2 (Test source rs2 = x4)
  RVTEST_TESTDATA_LOAD_INT(x27, x13) # load rs1: x13 = 0xb1c5fd9b
     69c:	000da683          	lw	x13,0(x27)
     6a0:	004d8d93          	addi	x27,x27,4
  RVTEST_TESTDATA_LOAD_INT(x27, x4) # load rs2: x4 = 0xab606479
     6a4:	000da203          	lw	x4,0(x27)
     6a8:	004d8d93          	addi	x27,x27,4

000006ac <I_sltu_cg_cp_rs2_b4>:
I_sltu_cg_cp_rs2_b4:
  sltu x3, x13, x4 # perform operation
     6ac:	0046b1b3          	sltu	x3,x13,x4
  # Check if x3 contains the expected result. x6 is the signature ptr, x8 is the link ptr, x7 is a temp reg.
  RVTEST_SIGUPD(x6, x8, x7, x3, I_sltu_cg_cp_rs2_b4, I_sltu_cg_cp_rs2_b4_str)
     6b0:	00032383          	lw	x7,0(x6)
     6b4:	00338863          	beq	x7,x3,6c4 <I_sltu_cg_cp_rs2_b4+0x18>
     6b8:	65d0346f          	jal	x8,4514 <failedtest_x8_x7>
     6bc:	000006ac          	.word	0x000006ac
     6c0:	000093f9          	.word	0x000093f9
     6c4:	00430313          	addi	x6,x6,4

# Testcase cp_rs2 (Test source rs2 = x5)
  RVTEST_TESTDATA_LOAD_INT(x27, x29) # load rs1: x29 = 0xae94e26f
     6c8:	000dae83          	lw	x29,0(x27)
     6cc:	004d8d93          	addi	x27,x27,4
  RVTEST_TESTDATA_LOAD_INT(x27, x5) # load rs2: x5 = 0x479d7e70
     6d0:	000da283          	lw	x5,0(x27)
     6d4:	004d8d93          	addi	x27,x27,4

000006d8 <I_sltu_cg_cp_rs2_b5>:
I_sltu_cg_cp_rs2_b5:
  sltu x10, x29, x5 # perform operation
     6d8:	005eb533          	sltu	x10,x29,x5
  # Check if x10 contains the expected result. x6 is the signature ptr, x8 is the link ptr, x7 is a temp reg.
  RVTEST_SIGUPD(x6, x8, x7, x10, I_sltu_cg_cp_rs2_b5, I_sltu_cg_cp_rs2_b5_str)
     6dc:	00032383          	lw	x7,0(x6)
     6e0:	00a38863          	beq	x7,x10,6f0 <I_sltu_cg_cp_rs2_b5+0x18>
     6e4:	6310346f          	jal	x8,4514 <failedtest_x8_x7>
     6e8:	000006d8          	.word	0x000006d8
     6ec:	00009428          	.word	0x00009428
     6f0:	00430313          	addi	x6,x6,4

  mv x16, x6 # switch signature pointer register to avoid conflict with test
     6f4:	00030813          	addi	x16,x6,0
# Testcase cp_rs2 (Test source rs2 = x6)
  RVTEST_TESTDATA_LOAD_INT(x27, x26) # load rs1: x26 = 0xccfb9530
     6f8:	000dad03          	lw	x26,0(x27)
     6fc:	004d8d93          	addi	x27,x27,4
  RVTEST_TESTDATA_LOAD_INT(x27, x6) # load rs2: x6 = 0x4498ef67
     700:	000da303          	lw	x6,0(x27)
     704:	004d8d93          	addi	x27,x27,4

00000708 <I_sltu_cg_cp_rs2_b6>:
I_sltu_cg_cp_rs2_b6:
  sltu x18, x26, x6 # perform operation
     708:	006d3933          	sltu	x18,x26,x6
  # Check if x18 contains the expected result. x16 is the signature ptr, x8 is the link ptr, x7 is a temp reg.
  RVTEST_SIGUPD(x16, x8, x7, x18, I_sltu_cg_cp_rs2_b6, I_sltu_cg_cp_rs2_b6_str)
     70c:	00082383          	lw	x7,0(x16)
     710:	01238863          	beq	x7,x18,720 <I_sltu_cg_cp_rs2_b6+0x18>
     714:	6010346f          	jal	x8,4514 <failedtest_x8_x7>
     718:	00000708          	.word	0x00000708
     71c:	00009457          	.word	0x00009457
     720:	00480813          	addi	x16,x16,4

  mv x13, x7 # switch temp register to avoid conflict with test
     724:	00038693          	addi	x13,x7,0
  mv x14, x8 # switch link pointer register to avoid conflict with test
     728:	00040713          	addi	x14,x8,0
# Testcase cp_rs2 (Test source rs2 = x7)
  RVTEST_TESTDATA_LOAD_INT(x27, x23) # load rs1: x23 = 0x77234f21
     72c:	000dab83          	lw	x23,0(x27)
     730:	004d8d93          	addi	x27,x27,4
  RVTEST_TESTDATA_LOAD_INT(x27, x7) # load rs2: x7 = 0x71e1c825
     734:	000da383          	lw	x7,0(x27)
     738:	004d8d93          	addi	x27,x27,4

0000073c <I_sltu_cg_cp_rs2_b7>:
I_sltu_cg_cp_rs2_b7:
  sltu x28, x23, x7 # perform operation
     73c:	007bbe33          	sltu	x28,x23,x7
  # Check if x28 contains the expected result. x16 is the signature ptr, x14 is the link ptr, x13 is a temp reg.
  RVTEST_SIGUPD(x16, x14, x13, x28, I_sltu_cg_cp_rs2_b7, I_sltu_cg_cp_rs2_b7_str)
     740:	00082683          	lw	x13,0(x16)
     744:	01c68863          	beq	x13,x28,754 <I_sltu_cg_cp_rs2_b7+0x18>
     748:	5f50376f          	jal	x14,453c <failedtest_x14_x13>
     74c:	0000073c          	.word	0x0000073c
     750:	00009486          	.word	0x00009486
     754:	00480813          	addi	x16,x16,4

# Testcase cp_rs2 (Test source rs2 = x8)
  RVTEST_TESTDATA_LOAD_INT(x27, x22) # load rs1: x22 = 0x291d6451
     758:	000dab03          	lw	x22,0(x27)
     75c:	004d8d93          	addi	x27,x27,4
  RVTEST_TESTDATA_LOAD_INT(x27, x8) # load rs2: x8 = 0xb4c35511
     760:	000da403          	lw	x8,0(x27)
     764:	004d8d93          	addi	x27,x27,4

00000768 <I_sltu_cg_cp_rs2_b8>:
I_sltu_cg_cp_rs2_b8:
  sltu x6, x22, x8 # perform operation
     768:	008b3333          	sltu	x6,x22,x8
  # Check if x6 contains the expected result. x16 is the signature ptr, x14 is the link ptr, x13 is a temp reg.
  RVTEST_SIGUPD(x16, x14, x13, x6, I_sltu_cg_cp_rs2_b8, I_sltu_cg_cp_rs2_b8_str)
     76c:	00082683          	lw	x13,0(x16)
     770:	00668863          	beq	x13,x6,780 <I_sltu_cg_cp_rs2_b8+0x18>
     774:	5c90376f          	jal	x14,453c <failedtest_x14_x13>
     778:	00000768          	.word	0x00000768
     77c:	000094b5          	.word	0x000094b5
     780:	00480813          	addi	x16,x16,4

# Testcase cp_rs2 (Test source rs2 = x9)
  RVTEST_TESTDATA_LOAD_INT(x27, x19) # load rs1: x19 = 0xfa2f3b2e
     784:	000da983          	lw	x19,0(x27)
     788:	004d8d93          	addi	x27,x27,4
  RVTEST_TESTDATA_LOAD_INT(x27, x9) # load rs2: x9 = 0xab4fc974
     78c:	000da483          	lw	x9,0(x27)
     790:	004d8d93          	addi	x27,x27,4

00000794 <I_sltu_cg_cp_rs2_b9>:
I_sltu_cg_cp_rs2_b9:
  sltu x30, x19, x9 # perform operation
     794:	0099bf33          	sltu	x30,x19,x9
  # Check if x30 contains the expected result. x16 is the signature ptr, x14 is the link ptr, x13 is a temp reg.
  RVTEST_SIGUPD(x16, x14, x13, x30, I_sltu_cg_cp_rs2_b9, I_sltu_cg_cp_rs2_b9_str)
     798:	00082683          	lw	x13,0(x16)
     79c:	01e68863          	beq	x13,x30,7ac <I_sltu_cg_cp_rs2_b9+0x18>
     7a0:	59d0376f          	jal	x14,453c <failedtest_x14_x13>
     7a4:	00000794          	.word	0x00000794
     7a8:	000094e4          	.word	0x000094e4
     7ac:	00480813          	addi	x16,x16,4

# Testcase cp_rs2 (Test source rs2 = x10)
  RVTEST_TESTDATA_LOAD_INT(x27, x15) # load rs1: x15 = 0x4dad6d72
     7b0:	000da783          	lw	x15,0(x27)
     7b4:	004d8d93          	addi	x27,x27,4
  RVTEST_TESTDATA_LOAD_INT(x27, x10) # load rs2: x10 = 0xff0ecec9
     7b8:	000da503          	lw	x10,0(x27)
     7bc:	004d8d93          	addi	x27,x27,4

000007c0 <I_sltu_cg_cp_rs2_b10>:
I_sltu_cg_cp_rs2_b10:
  sltu x25, x15, x10 # perform operation
     7c0:	00a7bcb3          	sltu	x25,x15,x10
  # Check if x25 contains the expected result. x16 is the signature ptr, x14 is the link ptr, x13 is a temp reg.
  RVTEST_SIGUPD(x16, x14, x13, x25, I_sltu_cg_cp_rs2_b10, I_sltu_cg_cp_rs2_b10_str)
     7c4:	00082683          	lw	x13,0(x16)
     7c8:	01968863          	beq	x13,x25,7d8 <I_sltu_cg_cp_rs2_b10+0x18>
     7cc:	5710376f          	jal	x14,453c <failedtest_x14_x13>
     7d0:	000007c0          	.word	0x000007c0
     7d4:	00009513          	.word	0x00009513
     7d8:	00480813          	addi	x16,x16,4

# Testcase cp_rs2 (Test source rs2 = x11)
  RVTEST_TESTDATA_LOAD_INT(x27, x20) # load rs1: x20 = 0x69a0b071
     7dc:	000daa03          	lw	x20,0(x27)
     7e0:	004d8d93          	addi	x27,x27,4
  RVTEST_TESTDATA_LOAD_INT(x27, x11) # load rs2: x11 = 0x9ee2a3ad
     7e4:	000da583          	lw	x11,0(x27)
     7e8:	004d8d93          	addi	x27,x27,4

000007ec <I_sltu_cg_cp_rs2_b11>:
I_sltu_cg_cp_rs2_b11:
  sltu x26, x20, x11 # perform operation
     7ec:	00ba3d33          	sltu	x26,x20,x11
  # Check if x26 contains the expected result. x16 is the signature ptr, x14 is the link ptr, x13 is a temp reg.
  RVTEST_SIGUPD(x16, x14, x13, x26, I_sltu_cg_cp_rs2_b11, I_sltu_cg_cp_rs2_b11_str)
     7f0:	00082683          	lw	x13,0(x16)
     7f4:	01a68863          	beq	x13,x26,804 <I_sltu_cg_cp_rs2_b11+0x18>
     7f8:	5450376f          	jal	x14,453c <failedtest_x14_x13>
     7fc:	000007ec          	.word	0x000007ec
     800:	00009543          	.word	0x00009543
     804:	00480813          	addi	x16,x16,4

# Testcase cp_rs2 (Test source rs2 = x12)
  RVTEST_TESTDATA_LOAD_INT(x27, x10) # load rs1: x10 = 0x99ac6fd7
     808:	000da503          	lw	x10,0(x27)
     80c:	004d8d93          	addi	x27,x27,4
  RVTEST_TESTDATA_LOAD_INT(x27, x12) # load rs2: x12 = 0x78bf1cfb
     810:	000da603          	lw	x12,0(x27)
     814:	004d8d93          	addi	x27,x27,4

00000818 <I_sltu_cg_cp_rs2_b12>:
I_sltu_cg_cp_rs2_b12:
  sltu x19, x10, x12 # perform operation
     818:	00c539b3          	sltu	x19,x10,x12
  # Check if x19 contains the expected result. x16 is the signature ptr, x14 is the link ptr, x13 is a temp reg.
  RVTEST_SIGUPD(x16, x14, x13, x19, I_sltu_cg_cp_rs2_b12, I_sltu_cg_cp_rs2_b12_str)
     81c:	00082683          	lw	x13,0(x16)
     820:	01368863          	beq	x13,x19,830 <I_sltu_cg_cp_rs2_b12+0x18>
     824:	5190376f          	jal	x14,453c <failedtest_x14_x13>
     828:	00000818          	.word	0x00000818
     82c:	00009573          	.word	0x00009573
     830:	00480813          	addi	x16,x16,4

  mv x7, x13 # switch temp register to avoid conflict with test
     834:	00068393          	addi	x7,x13,0
  mv x8, x14 # switch link pointer register to avoid conflict with test
     838:	00070413          	addi	x8,x14,0
# Testcase cp_rs2 (Test source rs2 = x13)
  RVTEST_TESTDATA_LOAD_INT(x27, x14) # load rs1: x14 = 0xd79539b9
     83c:	000da703          	lw	x14,0(x27)
     840:	004d8d93          	addi	x27,x27,4
  RVTEST_TESTDATA_LOAD_INT(x27, x13) # load rs2: x13 = 0x5dcf363b
     844:	000da683          	lw	x13,0(x27)
     848:	004d8d93          	addi	x27,x27,4

0000084c <I_sltu_cg_cp_rs2_b13>:
I_sltu_cg_cp_rs2_b13:
  sltu x0, x14, x13 # perform operation
     84c:	00d73033          	sltu	x0,x14,x13
  # Check if x0 contains the expected result. x16 is the signature ptr, x8 is the link ptr, x7 is a temp reg.
  RVTEST_SIGUPD(x16, x8, x7, x0, I_sltu_cg_cp_rs2_b13, I_sltu_cg_cp_rs2_b13_str)
     850:	00082383          	lw	x7,0(x16)
     854:	00038863          	beq	x7,x0,864 <I_sltu_cg_cp_rs2_b13+0x18>
     858:	4bd0346f          	jal	x8,4514 <failedtest_x8_x7>
     85c:	0000084c          	.word	0x0000084c
     860:	000095a3          	.word	0x000095a3
     864:	00480813          	addi	x16,x16,4

# Testcase cp_rs2 (Test source rs2 = x14)
  RVTEST_TESTDATA_LOAD_INT(x27, x10) # load rs1: x10 = 0xe3184cdc
     868:	000da503          	lw	x10,0(x27)
     86c:	004d8d93          	addi	x27,x27,4
  RVTEST_TESTDATA_LOAD_INT(x27, x14) # load rs2: x14 = 0x8b178a38
     870:	000da703          	lw	x14,0(x27)
     874:	004d8d93          	addi	x27,x27,4

00000878 <I_sltu_cg_cp_rs2_b14>:
I_sltu_cg_cp_rs2_b14:
  sltu x22, x10, x14 # perform operation
     878:	00e53b33          	sltu	x22,x10,x14
  # Check if x22 contains the expected result. x16 is the signature ptr, x8 is the link ptr, x7 is a temp reg.
  RVTEST_SIGUPD(x16, x8, x7, x22, I_sltu_cg_cp_rs2_b14, I_sltu_cg_cp_rs2_b14_str)
     87c:	00082383          	lw	x7,0(x16)
     880:	01638863          	beq	x7,x22,890 <I_sltu_cg_cp_rs2_b14+0x18>
     884:	4910346f          	jal	x8,4514 <failedtest_x8_x7>
     888:	00000878          	.word	0x00000878
     88c:	000095d3          	.word	0x000095d3
     890:	00480813          	addi	x16,x16,4

# Testcase cp_rs2 (Test source rs2 = x15)
  RVTEST_TESTDATA_LOAD_INT(x27, x4) # load rs1: x4 = 0xfaf3f1d5
     894:	000da203          	lw	x4,0(x27)
     898:	004d8d93          	addi	x27,x27,4
  RVTEST_TESTDATA_LOAD_INT(x27, x15) # load rs2: x15 = 0x30335bfe
     89c:	000da783          	lw	x15,0(x27)
     8a0:	004d8d93          	addi	x27,x27,4

000008a4 <I_sltu_cg_cp_rs2_b15>:
I_sltu_cg_cp_rs2_b15:
  sltu x12, x4, x15 # perform operation
     8a4:	00f23633          	sltu	x12,x4,x15
  # Check if x12 contains the expected result. x16 is the signature ptr, x8 is the link ptr, x7 is a temp reg.
  RVTEST_SIGUPD(x16, x8, x7, x12, I_sltu_cg_cp_rs2_b15, I_sltu_cg_cp_rs2_b15_str)
     8a8:	00082383          	lw	x7,0(x16)
     8ac:	00c38863          	beq	x7,x12,8bc <I_sltu_cg_cp_rs2_b15+0x18>
     8b0:	4650346f          	jal	x8,4514 <failedtest_x8_x7>
     8b4:	000008a4          	.word	0x000008a4
     8b8:	00009603          	.word	0x00009603
     8bc:	00480813          	addi	x16,x16,4

  mv x21, x16 # switch signature pointer register to avoid conflict with test
     8c0:	00080a93          	addi	x21,x16,0
# Testcase cp_rs2 (Test source rs2 = x16)
  RVTEST_TESTDATA_LOAD_INT(x27, x25) # load rs1: x25 = 0x11794d88
     8c4:	000dac83          	lw	x25,0(x27)
     8c8:	004d8d93          	addi	x27,x27,4
  RVTEST_TESTDATA_LOAD_INT(x27, x16) # load rs2: x16 = 0x9791ae5c
     8cc:	000da803          	lw	x16,0(x27)
     8d0:	004d8d93          	addi	x27,x27,4

000008d4 <I_sltu_cg_cp_rs2_b16>:
I_sltu_cg_cp_rs2_b16:
  sltu x28, x25, x16 # perform operation
     8d4:	010cbe33          	sltu	x28,x25,x16
  # Check if x28 contains the expected result. x21 is the signature ptr, x8 is the link ptr, x7 is a temp reg.
  RVTEST_SIGUPD(x21, x8, x7, x28, I_sltu_cg_cp_rs2_b16, I_sltu_cg_cp_rs2_b16_str)
     8d8:	000aa383          	lw	x7,0(x21)
     8dc:	01c38863          	beq	x7,x28,8ec <I_sltu_cg_cp_rs2_b16+0x18>
     8e0:	4350346f          	jal	x8,4514 <failedtest_x8_x7>
     8e4:	000008d4          	.word	0x000008d4
     8e8:	00009633          	.word	0x00009633
     8ec:	004a8a93          	addi	x21,x21,4

# Testcase cp_rs2 (Test source rs2 = x17)
  RVTEST_TESTDATA_LOAD_INT(x27, x31) # load rs1: x31 = 0x3711d718
     8f0:	000daf83          	lw	x31,0(x27)
     8f4:	004d8d93          	addi	x27,x27,4
  RVTEST_TESTDATA_LOAD_INT(x27, x17) # load rs2: x17 = 0x704cea39
     8f8:	000da883          	lw	x17,0(x27)
     8fc:	004d8d93          	addi	x27,x27,4

00000900 <I_sltu_cg_cp_rs2_b17>:
I_sltu_cg_cp_rs2_b17:
  sltu x30, x31, x17 # perform operation
     900:	011fbf33          	sltu	x30,x31,x17
  # Check if x30 contains the expected result. x21 is the signature ptr, x8 is the link ptr, x7 is a temp reg.
  RVTEST_SIGUPD(x21, x8, x7, x30, I_sltu_cg_cp_rs2_b17, I_sltu_cg_cp_rs2_b17_str)
     904:	000aa383          	lw	x7,0(x21)
     908:	01e38863          	beq	x7,x30,918 <I_sltu_cg_cp_rs2_b17+0x18>
     90c:	4090346f          	jal	x8,4514 <failedtest_x8_x7>
     910:	00000900          	.word	0x00000900
     914:	00009663          	.word	0x00009663
     918:	004a8a93          	addi	x21,x21,4

# Testcase cp_rs2 (Test source rs2 = x18)
  RVTEST_TESTDATA_LOAD_INT(x27, x0) # load rs1: x0 = 0x711e3df3
     91c:	000da003          	lw	x0,0(x27)
     920:	004d8d93          	addi	x27,x27,4
  RVTEST_TESTDATA_LOAD_INT(x27, x18) # load rs2: x18 = 0xd94d62a3
     924:	000da903          	lw	x18,0(x27)
     928:	004d8d93          	addi	x27,x27,4

0000092c <I_sltu_cg_cp_rs2_b18>:
I_sltu_cg_cp_rs2_b18:
  sltu x2, x0, x18 # perform operation
     92c:	01203133          	sltu	x2,x0,x18
  # Check if x2 contains the expected result. x21 is the signature ptr, x8 is the link ptr, x7 is a temp reg.
  RVTEST_SIGUPD(x21, x8, x7, x2, I_sltu_cg_cp_rs2_b18, I_sltu_cg_cp_rs2_b18_str)
     930:	000aa383          	lw	x7,0(x21)
     934:	00238863          	beq	x7,x2,944 <I_sltu_cg_cp_rs2_b18+0x18>
     938:	3dd0346f          	jal	x8,4514 <failedtest_x8_x7>
     93c:	0000092c          	.word	0x0000092c
     940:	00009693          	.word	0x00009693
     944:	004a8a93          	addi	x21,x21,4

# Testcase cp_rs2 (Test source rs2 = x19)
  RVTEST_TESTDATA_LOAD_INT(x27, x12) # load rs1: x12 = 0x6bb33778
     948:	000da603          	lw	x12,0(x27)
     94c:	004d8d93          	addi	x27,x27,4
  RVTEST_TESTDATA_LOAD_INT(x27, x19) # load rs2: x19 = 0xb00ef0dd
     950:	000da983          	lw	x19,0(x27)
     954:	004d8d93          	addi	x27,x27,4

00000958 <I_sltu_cg_cp_rs2_b19>:
I_sltu_cg_cp_rs2_b19:
  sltu x13, x12, x19 # perform operation
     958:	013636b3          	sltu	x13,x12,x19
  # Check if x13 contains the expected result. x21 is the signature ptr, x8 is the link ptr, x7 is a temp reg.
  RVTEST_SIGUPD(x21, x8, x7, x13, I_sltu_cg_cp_rs2_b19, I_sltu_cg_cp_rs2_b19_str)
     95c:	000aa383          	lw	x7,0(x21)
     960:	00d38863          	beq	x7,x13,970 <I_sltu_cg_cp_rs2_b19+0x18>
     964:	3b10346f          	jal	x8,4514 <failedtest_x8_x7>
     968:	00000958          	.word	0x00000958
     96c:	000096c3          	.word	0x000096c3
     970:	004a8a93          	addi	x21,x21,4

# Testcase cp_rs2 (Test source rs2 = x20)
  RVTEST_TESTDATA_LOAD_INT(x27, x31) # load rs1: x31 = 0xaaef4d82
     974:	000daf83          	lw	x31,0(x27)
     978:	004d8d93          	addi	x27,x27,4
  RVTEST_TESTDATA_LOAD_INT(x27, x20) # load rs2: x20 = 0x45d16db7
     97c:	000daa03          	lw	x20,0(x27)
     980:	004d8d93          	addi	x27,x27,4

00000984 <I_sltu_cg_cp_rs2_b20>:
I_sltu_cg_cp_rs2_b20:
  sltu x14, x31, x20 # perform operation
     984:	014fb733          	sltu	x14,x31,x20
  # Check if x14 contains the expected result. x21 is the signature ptr, x8 is the link ptr, x7 is a temp reg.
  RVTEST_SIGUPD(x21, x8, x7, x14, I_sltu_cg_cp_rs2_b20, I_sltu_cg_cp_rs2_b20_str)
     988:	000aa383          	lw	x7,0(x21)
     98c:	00e38863          	beq	x7,x14,99c <I_sltu_cg_cp_rs2_b20+0x18>
     990:	3850346f          	jal	x8,4514 <failedtest_x8_x7>
     994:	00000984          	.word	0x00000984
     998:	000096f3          	.word	0x000096f3
     99c:	004a8a93          	addi	x21,x21,4

  mv x22, x21 # switch signature pointer register to avoid conflict with test
     9a0:	000a8b13          	addi	x22,x21,0
# Testcase cp_rs2 (Test source rs2 = x21)
  RVTEST_TESTDATA_LOAD_INT(x27, x0) # load rs1: x0 = 0x4ac68c09
     9a4:	000da003          	lw	x0,0(x27)
     9a8:	004d8d93          	addi	x27,x27,4
  RVTEST_TESTDATA_LOAD_INT(x27, x21) # load rs2: x21 = 0x14b630db
     9ac:	000daa83          	lw	x21,0(x27)
     9b0:	004d8d93          	addi	x27,x27,4

000009b4 <I_sltu_cg_cp_rs2_b21>:
I_sltu_cg_cp_rs2_b21:
  sltu x18, x0, x21 # perform operation
     9b4:	01503933          	sltu	x18,x0,x21
  # Check if x18 contains the expected result. x22 is the signature ptr, x8 is the link ptr, x7 is a temp reg.
  RVTEST_SIGUPD(x22, x8, x7, x18, I_sltu_cg_cp_rs2_b21, I_sltu_cg_cp_rs2_b21_str)
     9b8:	000b2383          	lw	x7,0(x22)
     9bc:	01238863          	beq	x7,x18,9cc <I_sltu_cg_cp_rs2_b21+0x18>
     9c0:	3550346f          	jal	x8,4514 <failedtest_x8_x7>
     9c4:	000009b4          	.word	0x000009b4
     9c8:	00009723          	.word	0x00009723
     9cc:	004b0b13          	addi	x22,x22,4

  mv x2, x22 # switch signature pointer register to avoid conflict with test
     9d0:	000b0113          	addi	x2,x22,0
# Testcase cp_rs2 (Test source rs2 = x22)
  RVTEST_TESTDATA_LOAD_INT(x27, x10) # load rs1: x10 = 0x01857c4c
     9d4:	000da503          	lw	x10,0(x27)
     9d8:	004d8d93          	addi	x27,x27,4
  RVTEST_TESTDATA_LOAD_INT(x27, x22) # load rs2: x22 = 0xb4f9b0e0
     9dc:	000dab03          	lw	x22,0(x27)
     9e0:	004d8d93          	addi	x27,x27,4

000009e4 <I_sltu_cg_cp_rs2_b22>:
I_sltu_cg_cp_rs2_b22:
  sltu x25, x10, x22 # perform operation
     9e4:	01653cb3          	sltu	x25,x10,x22
  # Check if x25 contains the expected result. x2 is the signature ptr, x8 is the link ptr, x7 is a temp reg.
  RVTEST_SIGUPD(x2, x8, x7, x25, I_sltu_cg_cp_rs2_b22, I_sltu_cg_cp_rs2_b22_str)
     9e8:	00012383          	lw	x7,0(x2)
     9ec:	01938863          	beq	x7,x25,9fc <I_sltu_cg_cp_rs2_b22+0x18>
     9f0:	3250346f          	jal	x8,4514 <failedtest_x8_x7>
     9f4:	000009e4          	.word	0x000009e4
     9f8:	00009753          	.word	0x00009753
     9fc:	00410113          	addi	x2,x2,4

# Testcase cp_rs2 (Test source rs2 = x23)
  RVTEST_TESTDATA_LOAD_INT(x27, x26) # load rs1: x26 = 0x4e4ba269
     a00:	000dad03          	lw	x26,0(x27)
     a04:	004d8d93          	addi	x27,x27,4
  RVTEST_TESTDATA_LOAD_INT(x27, x23) # load rs2: x23 = 0xf6bba723
     a08:	000dab83          	lw	x23,0(x27)
     a0c:	004d8d93          	addi	x27,x27,4

00000a10 <I_sltu_cg_cp_rs2_b23>:
I_sltu_cg_cp_rs2_b23:
  sltu x22, x26, x23 # perform operation
     a10:	017d3b33          	sltu	x22,x26,x23
  # Check if x22 contains the expected result. x2 is the signature ptr, x8 is the link ptr, x7 is a temp reg.
  RVTEST_SIGUPD(x2, x8, x7, x22, I_sltu_cg_cp_rs2_b23, I_sltu_cg_cp_rs2_b23_str)
     a14:	00012383          	lw	x7,0(x2)
     a18:	01638863          	beq	x7,x22,a28 <I_sltu_cg_cp_rs2_b23+0x18>
     a1c:	2f90346f          	jal	x8,4514 <failedtest_x8_x7>
     a20:	00000a10          	.word	0x00000a10
     a24:	00009783          	.word	0x00009783
     a28:	00410113          	addi	x2,x2,4

# Testcase cp_rs2 (Test source rs2 = x24)
  RVTEST_TESTDATA_LOAD_INT(x27, x20) # load rs1: x20 = 0x98314aff
     a2c:	000daa03          	lw	x20,0(x27)
     a30:	004d8d93          	addi	x27,x27,4
  RVTEST_TESTDATA_LOAD_INT(x27, x24) # load rs2: x24 = 0xede01e48
     a34:	000dac03          	lw	x24,0(x27)
     a38:	004d8d93          	addi	x27,x27,4

00000a3c <I_sltu_cg_cp_rs2_b24>:
I_sltu_cg_cp_rs2_b24:
  sltu x6, x20, x24 # perform operation
     a3c:	018a3333          	sltu	x6,x20,x24
  # Check if x6 contains the expected result. x2 is the signature ptr, x8 is the link ptr, x7 is a temp reg.
  RVTEST_SIGUPD(x2, x8, x7, x6, I_sltu_cg_cp_rs2_b24, I_sltu_cg_cp_rs2_b24_str)
     a40:	00012383          	lw	x7,0(x2)
     a44:	00638863          	beq	x7,x6,a54 <I_sltu_cg_cp_rs2_b24+0x18>
     a48:	2cd0346f          	jal	x8,4514 <failedtest_x8_x7>
     a4c:	00000a3c          	.word	0x00000a3c
     a50:	000097b3          	.word	0x000097b3
     a54:	00410113          	addi	x2,x2,4

# Testcase cp_rs2 (Test source rs2 = x25)
  RVTEST_TESTDATA_LOAD_INT(x27, x9) # load rs1: x9 = 0xf60521b8
     a58:	000da483          	lw	x9,0(x27)
     a5c:	004d8d93          	addi	x27,x27,4
  RVTEST_TESTDATA_LOAD_INT(x27, x25) # load rs2: x25 = 0x27016c8b
     a60:	000dac83          	lw	x25,0(x27)
     a64:	004d8d93          	addi	x27,x27,4

00000a68 <I_sltu_cg_cp_rs2_b25>:
I_sltu_cg_cp_rs2_b25:
  sltu x6, x9, x25 # perform operation
     a68:	0194b333          	sltu	x6,x9,x25
  # Check if x6 contains the expected result. x2 is the signature ptr, x8 is the link ptr, x7 is a temp reg.
  RVTEST_SIGUPD(x2, x8, x7, x6, I_sltu_cg_cp_rs2_b25, I_sltu_cg_cp_rs2_b25_str)
     a6c:	00012383          	lw	x7,0(x2)
     a70:	00638863          	beq	x7,x6,a80 <I_sltu_cg_cp_rs2_b25+0x18>
     a74:	2a10346f          	jal	x8,4514 <failedtest_x8_x7>
     a78:	00000a68          	.word	0x00000a68
     a7c:	000097e3          	.word	0x000097e3
     a80:	00410113          	addi	x2,x2,4

# Testcase cp_rs2 (Test source rs2 = x26)
  RVTEST_TESTDATA_LOAD_INT(x27, x5) # load rs1: x5 = 0x7e22aac0
     a84:	000da283          	lw	x5,0(x27)
     a88:	004d8d93          	addi	x27,x27,4
  RVTEST_TESTDATA_LOAD_INT(x27, x26) # load rs2: x26 = 0xea1849c5
     a8c:	000dad03          	lw	x26,0(x27)
     a90:	004d8d93          	addi	x27,x27,4

00000a94 <I_sltu_cg_cp_rs2_b26>:
I_sltu_cg_cp_rs2_b26:
  sltu x28, x5, x26 # perform operation
     a94:	01a2be33          	sltu	x28,x5,x26
  # Check if x28 contains the expected result. x2 is the signature ptr, x8 is the link ptr, x7 is a temp reg.
  RVTEST_SIGUPD(x2, x8, x7, x28, I_sltu_cg_cp_rs2_b26, I_sltu_cg_cp_rs2_b26_str)
     a98:	00012383          	lw	x7,0(x2)
     a9c:	01c38863          	beq	x7,x28,aac <I_sltu_cg_cp_rs2_b26+0x18>
     aa0:	2750346f          	jal	x8,4514 <failedtest_x8_x7>
     aa4:	00000a94          	.word	0x00000a94
     aa8:	00009813          	.word	0x00009813
     aac:	00410113          	addi	x2,x2,4

  mv x12, x27 # switch data pointer register to avoid conflict with test
     ab0:	000d8613          	addi	x12,x27,0
# Testcase cp_rs2 (Test source rs2 = x27)
  RVTEST_TESTDATA_LOAD_INT(x12, x22) # load rs1: x22 = 0x6aa0909e
     ab4:	00062b03          	lw	x22,0(x12)
     ab8:	00460613          	addi	x12,x12,4
  RVTEST_TESTDATA_LOAD_INT(x12, x27) # load rs2: x27 = 0x9dda2d5a
     abc:	00062d83          	lw	x27,0(x12)
     ac0:	00460613          	addi	x12,x12,4

00000ac4 <I_sltu_cg_cp_rs2_b27>:
I_sltu_cg_cp_rs2_b27:
  sltu x5, x22, x27 # perform operation
     ac4:	01bb32b3          	sltu	x5,x22,x27
  # Check if x5 contains the expected result. x2 is the signature ptr, x8 is the link ptr, x7 is a temp reg.
  RVTEST_SIGUPD(x2, x8, x7, x5, I_sltu_cg_cp_rs2_b27, I_sltu_cg_cp_rs2_b27_str)
     ac8:	00012383          	lw	x7,0(x2)
     acc:	00538863          	beq	x7,x5,adc <I_sltu_cg_cp_rs2_b27+0x18>
     ad0:	2450346f          	jal	x8,4514 <failedtest_x8_x7>
     ad4:	00000ac4          	.word	0x00000ac4
     ad8:	00009843          	.word	0x00009843
     adc:	00410113          	addi	x2,x2,4

# Testcase cp_rs2 (Test source rs2 = x28)
  RVTEST_TESTDATA_LOAD_INT(x12, x24) # load rs1: x24 = 0x898bd1bb
     ae0:	00062c03          	lw	x24,0(x12)
     ae4:	00460613          	addi	x12,x12,4
  RVTEST_TESTDATA_LOAD_INT(x12, x28) # load rs2: x28 = 0x657ed28e
     ae8:	00062e03          	lw	x28,0(x12)
     aec:	00460613          	addi	x12,x12,4

00000af0 <I_sltu_cg_cp_rs2_b28>:
I_sltu_cg_cp_rs2_b28:
  sltu x1, x24, x28 # perform operation
     af0:	01cc30b3          	sltu	x1,x24,x28
  # Check if x1 contains the expected result. x2 is the signature ptr, x8 is the link ptr, x7 is a temp reg.
  RVTEST_SIGUPD(x2, x8, x7, x1, I_sltu_cg_cp_rs2_b28, I_sltu_cg_cp_rs2_b28_str)
     af4:	00012383          	lw	x7,0(x2)
     af8:	00138863          	beq	x7,x1,b08 <I_sltu_cg_cp_rs2_b28+0x18>
     afc:	2190346f          	jal	x8,4514 <failedtest_x8_x7>
     b00:	00000af0          	.word	0x00000af0
     b04:	00009873          	.word	0x00009873
     b08:	00410113          	addi	x2,x2,4

# Testcase cp_rs2 (Test source rs2 = x29)
  RVTEST_TESTDATA_LOAD_INT(x12, x17) # load rs1: x17 = 0xf4cfd67c
     b0c:	00062883          	lw	x17,0(x12)
     b10:	00460613          	addi	x12,x12,4
  RVTEST_TESTDATA_LOAD_INT(x12, x29) # load rs2: x29 = 0x334d3f45
     b14:	00062e83          	lw	x29,0(x12)
     b18:	00460613          	addi	x12,x12,4

00000b1c <I_sltu_cg_cp_rs2_b29>:
I_sltu_cg_cp_rs2_b29:
  sltu x23, x17, x29 # perform operation
     b1c:	01d8bbb3          	sltu	x23,x17,x29
  # Check if x23 contains the expected result. x2 is the signature ptr, x8 is the link ptr, x7 is a temp reg.
  RVTEST_SIGUPD(x2, x8, x7, x23, I_sltu_cg_cp_rs2_b29, I_sltu_cg_cp_rs2_b29_str)
     b20:	00012383          	lw	x7,0(x2)
     b24:	01738863          	beq	x7,x23,b34 <I_sltu_cg_cp_rs2_b29+0x18>
     b28:	1ed0346f          	jal	x8,4514 <failedtest_x8_x7>
     b2c:	00000b1c          	.word	0x00000b1c
     b30:	000098a3          	.word	0x000098a3
     b34:	00410113          	addi	x2,x2,4

# Testcase cp_rs2 (Test source rs2 = x30)
  RVTEST_TESTDATA_LOAD_INT(x12, x13) # load rs1: x13 = 0xd98212fc
     b38:	00062683          	lw	x13,0(x12)
     b3c:	00460613          	addi	x12,x12,4
  RVTEST_TESTDATA_LOAD_INT(x12, x30) # load rs2: x30 = 0xad440daa
     b40:	00062f03          	lw	x30,0(x12)
     b44:	00460613          	addi	x12,x12,4

00000b48 <I_sltu_cg_cp_rs2_b30>:
I_sltu_cg_cp_rs2_b30:
  sltu x6, x13, x30 # perform operation
     b48:	01e6b333          	sltu	x6,x13,x30
  # Check if x6 contains the expected result. x2 is the signature ptr, x8 is the link ptr, x7 is a temp reg.
  RVTEST_SIGUPD(x2, x8, x7, x6, I_sltu_cg_cp_rs2_b30, I_sltu_cg_cp_rs2_b30_str)
     b4c:	00012383          	lw	x7,0(x2)
     b50:	00638863          	beq	x7,x6,b60 <I_sltu_cg_cp_rs2_b30+0x18>
     b54:	1c10346f          	jal	x8,4514 <failedtest_x8_x7>
     b58:	00000b48          	.word	0x00000b48
     b5c:	000098d3          	.word	0x000098d3
     b60:	00410113          	addi	x2,x2,4

# Testcase cp_rs2 (Test source rs2 = x31)
  RVTEST_TESTDATA_LOAD_INT(x12, x27) # load rs1: x27 = 0xd2de87d0
     b64:	00062d83          	lw	x27,0(x12)
     b68:	00460613          	addi	x12,x12,4
  RVTEST_TESTDATA_LOAD_INT(x12, x31) # load rs2: x31 = 0x8e8ae63f
     b6c:	00062f83          	lw	x31,0(x12)
     b70:	00460613          	addi	x12,x12,4

00000b74 <I_sltu_cg_cp_rs2_b31>:
I_sltu_cg_cp_rs2_b31:
  sltu x5, x27, x31 # perform operation
     b74:	01fdb2b3          	sltu	x5,x27,x31
  # Check if x5 contains the expected result. x2 is the signature ptr, x8 is the link ptr, x7 is a temp reg.
  RVTEST_SIGUPD(x2, x8, x7, x5, I_sltu_cg_cp_rs2_b31, I_sltu_cg_cp_rs2_b31_str)
     b78:	00012383          	lw	x7,0(x2)
     b7c:	00538863          	beq	x7,x5,b8c <I_sltu_cg_cp_rs2_b31+0x18>
     b80:	1950346f          	jal	x8,4514 <failedtest_x8_x7>
     b84:	00000b74          	.word	0x00000b74
     b88:	00009903          	.word	0x00009903
     b8c:	00410113          	addi	x2,x2,4
/////////////////////////////////
// cp_rd
/////////////////////////////////

# Testcase cp_rd (Test destination rd = x0)
  RVTEST_TESTDATA_LOAD_INT(x12, x3) # load rs1: x3 = 0xee611d70
     b90:	00062183          	lw	x3,0(x12)
     b94:	00460613          	addi	x12,x12,4
  RVTEST_TESTDATA_LOAD_INT(x12, x28) # load rs2: x28 = 0xb4ad5641
     b98:	00062e03          	lw	x28,0(x12)
     b9c:	00460613          	addi	x12,x12,4

00000ba0 <I_sltu_cg_cp_rd_b0>:
I_sltu_cg_cp_rd_b0:
  sltu x0, x3, x28 # perform operation
     ba0:	01c1b033          	sltu	x0,x3,x28
  # Check if x0 contains the expected result. x2 is the signature ptr, x8 is the link ptr, x7 is a temp reg.
  RVTEST_SIGUPD(x2, x8, x7, x0, I_sltu_cg_cp_rd_b0, I_sltu_cg_cp_rd_b0_str)
     ba4:	00012383          	lw	x7,0(x2)
     ba8:	00038863          	beq	x7,x0,bb8 <I_sltu_cg_cp_rd_b0+0x18>
     bac:	1690346f          	jal	x8,4514 <failedtest_x8_x7>
     bb0:	00000ba0          	.word	0x00000ba0
     bb4:	00009933          	.word	0x00009933
     bb8:	00410113          	addi	x2,x2,4

# Testcase cp_rd (Test destination rd = x1)
  RVTEST_TESTDATA_LOAD_INT(x12, x23) # load rs1: x23 = 0x19875f54
     bbc:	00062b83          	lw	x23,0(x12)
     bc0:	00460613          	addi	x12,x12,4
  RVTEST_TESTDATA_LOAD_INT(x12, x21) # load rs2: x21 = 0xb515a725
     bc4:	00062a83          	lw	x21,0(x12)
     bc8:	00460613          	addi	x12,x12,4

00000bcc <I_sltu_cg_cp_rd_b1>:
I_sltu_cg_cp_rd_b1:
  sltu x1, x23, x21 # perform operation
     bcc:	015bb0b3          	sltu	x1,x23,x21
  # Check if x1 contains the expected result. x2 is the signature ptr, x8 is the link ptr, x7 is a temp reg.
  RVTEST_SIGUPD(x2, x8, x7, x1, I_sltu_cg_cp_rd_b1, I_sltu_cg_cp_rd_b1_str)
     bd0:	00012383          	lw	x7,0(x2)
     bd4:	00138863          	beq	x7,x1,be4 <I_sltu_cg_cp_rd_b1+0x18>
     bd8:	13d0346f          	jal	x8,4514 <failedtest_x8_x7>
     bdc:	00000bcc          	.word	0x00000bcc
     be0:	00009961          	.word	0x00009961
     be4:	00410113          	addi	x2,x2,4

  mv x23, x2 # switch signature pointer register to avoid conflict with test
     be8:	00010b93          	addi	x23,x2,0
# Testcase cp_rd (Test destination rd = x2)
  RVTEST_TESTDATA_LOAD_INT(x12, x16) # load rs1: x16 = 0x13aa469e
     bec:	00062803          	lw	x16,0(x12)
     bf0:	00460613          	addi	x12,x12,4
  RVTEST_TESTDATA_LOAD_INT(x12, x10) # load rs2: x10 = 0x97ae0b34
     bf4:	00062503          	lw	x10,0(x12)
     bf8:	00460613          	addi	x12,x12,4

00000bfc <I_sltu_cg_cp_rd_b2>:
I_sltu_cg_cp_rd_b2:
  sltu x2, x16, x10 # perform operation
     bfc:	00a83133          	sltu	x2,x16,x10
  # Check if x2 contains the expected result. x23 is the signature ptr, x8 is the link ptr, x7 is a temp reg.
  RVTEST_SIGUPD(x23, x8, x7, x2, I_sltu_cg_cp_rd_b2, I_sltu_cg_cp_rd_b2_str)
     c00:	000ba383          	lw	x7,0(x23)
     c04:	00238863          	beq	x7,x2,c14 <I_sltu_cg_cp_rd_b2+0x18>
     c08:	10d0346f          	jal	x8,4514 <failedtest_x8_x7>
     c0c:	00000bfc          	.word	0x00000bfc
     c10:	0000998f          	.word	0x0000998f
     c14:	004b8b93          	addi	x23,x23,4

# Testcase cp_rd (Test destination rd = x3)
  RVTEST_TESTDATA_LOAD_INT(x12, x25) # load rs1: x25 = 0x44e84390
     c18:	00062c83          	lw	x25,0(x12)
     c1c:	00460613          	addi	x12,x12,4
  RVTEST_TESTDATA_LOAD_INT(x12, x22) # load rs2: x22 = 0xc27df722
     c20:	00062b03          	lw	x22,0(x12)
     c24:	00460613          	addi	x12,x12,4

00000c28 <I_sltu_cg_cp_rd_b3>:
I_sltu_cg_cp_rd_b3:
  sltu x3, x25, x22 # perform operation
     c28:	016cb1b3          	sltu	x3,x25,x22
  # Check if x3 contains the expected result. x23 is the signature ptr, x8 is the link ptr, x7 is a temp reg.
  RVTEST_SIGUPD(x23, x8, x7, x3, I_sltu_cg_cp_rd_b3, I_sltu_cg_cp_rd_b3_str)
     c2c:	000ba383          	lw	x7,0(x23)
     c30:	00338863          	beq	x7,x3,c40 <I_sltu_cg_cp_rd_b3+0x18>
     c34:	0e10346f          	jal	x8,4514 <failedtest_x8_x7>
     c38:	00000c28          	.word	0x00000c28
     c3c:	000099bd          	.word	0x000099bd
     c40:	004b8b93          	addi	x23,x23,4

# Testcase cp_rd (Test destination rd = x4)
  RVTEST_TESTDATA_LOAD_INT(x12, x30) # load rs1: x30 = 0x93a4be3b
     c44:	00062f03          	lw	x30,0(x12)
     c48:	00460613          	addi	x12,x12,4
  RVTEST_TESTDATA_LOAD_INT(x12, x14) # load rs2: x14 = 0xaa9c9640
     c4c:	00062703          	lw	x14,0(x12)
     c50:	00460613          	addi	x12,x12,4

00000c54 <I_sltu_cg_cp_rd_b4>:
I_sltu_cg_cp_rd_b4:
  sltu x4, x30, x14 # perform operation
     c54:	00ef3233          	sltu	x4,x30,x14
  # Check if x4 contains the expected result. x23 is the signature ptr, x8 is the link ptr, x7 is a temp reg.
  RVTEST_SIGUPD(x23, x8, x7, x4, I_sltu_cg_cp_rd_b4, I_sltu_cg_cp_rd_b4_str)
     c58:	000ba383          	lw	x7,0(x23)
     c5c:	00438863          	beq	x7,x4,c6c <I_sltu_cg_cp_rd_b4+0x18>
     c60:	0b50346f          	jal	x8,4514 <failedtest_x8_x7>
     c64:	00000c54          	.word	0x00000c54
     c68:	000099eb          	.word	0x000099eb
     c6c:	004b8b93          	addi	x23,x23,4

# Testcase cp_rd (Test destination rd = x5)
  RVTEST_TESTDATA_LOAD_INT(x12, x17) # load rs1: x17 = 0x9020ac93
     c70:	00062883          	lw	x17,0(x12)
     c74:	00460613          	addi	x12,x12,4
  RVTEST_TESTDATA_LOAD_INT(x12, x2) # load rs2: x2 = 0xd05827c2
     c78:	00062103          	lw	x2,0(x12)
     c7c:	00460613          	addi	x12,x12,4

00000c80 <I_sltu_cg_cp_rd_b5>:
I_sltu_cg_cp_rd_b5:
  sltu x5, x17, x2 # perform operation
     c80:	0028b2b3          	sltu	x5,x17,x2
  # Check if x5 contains the expected result. x23 is the signature ptr, x8 is the link ptr, x7 is a temp reg.
  RVTEST_SIGUPD(x23, x8, x7, x5, I_sltu_cg_cp_rd_b5, I_sltu_cg_cp_rd_b5_str)
     c84:	000ba383          	lw	x7,0(x23)
     c88:	00538863          	beq	x7,x5,c98 <I_sltu_cg_cp_rd_b5+0x18>
     c8c:	0890346f          	jal	x8,4514 <failedtest_x8_x7>
     c90:	00000c80          	.word	0x00000c80
     c94:	00009a19          	.word	0x00009a19
     c98:	004b8b93          	addi	x23,x23,4

# Testcase cp_rd (Test destination rd = x6)
  RVTEST_TESTDATA_LOAD_INT(x12, x20) # load rs1: x20 = 0x8330bae4
     c9c:	00062a03          	lw	x20,0(x12)
     ca0:	00460613          	addi	x12,x12,4
  RVTEST_TESTDATA_LOAD_INT(x12, x4) # load rs2: x4 = 0x25054d0d
     ca4:	00062203          	lw	x4,0(x12)
     ca8:	00460613          	addi	x12,x12,4

00000cac <I_sltu_cg_cp_rd_b6>:
I_sltu_cg_cp_rd_b6:
  sltu x6, x20, x4 # perform operation
     cac:	004a3333          	sltu	x6,x20,x4
  # Check if x6 contains the expected result. x23 is the signature ptr, x8 is the link ptr, x7 is a temp reg.
  RVTEST_SIGUPD(x23, x8, x7, x6, I_sltu_cg_cp_rd_b6, I_sltu_cg_cp_rd_b6_str)
     cb0:	000ba383          	lw	x7,0(x23)
     cb4:	00638863          	beq	x7,x6,cc4 <I_sltu_cg_cp_rd_b6+0x18>
     cb8:	05d0346f          	jal	x8,4514 <failedtest_x8_x7>
     cbc:	00000cac          	.word	0x00000cac
     cc0:	00009a47          	.word	0x00009a47
     cc4:	004b8b93          	addi	x23,x23,4

  mv x4, x7 # switch temp register to avoid conflict with test
     cc8:	00038213          	addi	x4,x7,0
  mv x5, x8 # switch link pointer register to avoid conflict with test
     ccc:	00040293          	addi	x5,x8,0
# Testcase cp_rd (Test destination rd = x7)
  RVTEST_TESTDATA_LOAD_INT(x12, x0) # load rs1: x0 = 0x6f536bee
     cd0:	00062003          	lw	x0,0(x12)
     cd4:	00460613          	addi	x12,x12,4
  RVTEST_TESTDATA_LOAD_INT(x12, x28) # load rs2: x28 = 0x65a3ab60
     cd8:	00062e03          	lw	x28,0(x12)
     cdc:	00460613          	addi	x12,x12,4

00000ce0 <I_sltu_cg_cp_rd_b7>:
I_sltu_cg_cp_rd_b7:
  sltu x7, x0, x28 # perform operation
     ce0:	01c033b3          	sltu	x7,x0,x28
  # Check if x7 contains the expected result. x23 is the signature ptr, x5 is the link ptr, x4 is a temp reg.
  RVTEST_SIGUPD(x23, x5, x4, x7, I_sltu_cg_cp_rd_b7, I_sltu_cg_cp_rd_b7_str)
     ce4:	000ba203          	lw	x4,0(x23)
     ce8:	00720863          	beq	x4,x7,cf8 <I_sltu_cg_cp_rd_b7+0x18>
     cec:	011032ef          	jal	x5,44fc <failedtest_x5_x4>
     cf0:	00000ce0          	.word	0x00000ce0
     cf4:	00009a75          	.word	0x00009a75
     cf8:	004b8b93          	addi	x23,x23,4

# Testcase cp_rd (Test destination rd = x8)
  RVTEST_TESTDATA_LOAD_INT(x12, x31) # load rs1: x31 = 0x68c9e3fc
     cfc:	00062f83          	lw	x31,0(x12)
     d00:	00460613          	addi	x12,x12,4
  RVTEST_TESTDATA_LOAD_INT(x12, x7) # load rs2: x7 = 0x79596b9c
     d04:	00062383          	lw	x7,0(x12)
     d08:	00460613          	addi	x12,x12,4

00000d0c <I_sltu_cg_cp_rd_b8>:
I_sltu_cg_cp_rd_b8:
  sltu x8, x31, x7 # perform operation
     d0c:	007fb433          	sltu	x8,x31,x7
  # Check if x8 contains the expected result. x23 is the signature ptr, x5 is the link ptr, x4 is a temp reg.
  RVTEST_SIGUPD(x23, x5, x4, x8, I_sltu_cg_cp_rd_b8, I_sltu_cg_cp_rd_b8_str)
     d10:	000ba203          	lw	x4,0(x23)
     d14:	00820863          	beq	x4,x8,d24 <I_sltu_cg_cp_rd_b8+0x18>
     d18:	7e4032ef          	jal	x5,44fc <failedtest_x5_x4>
     d1c:	00000d0c          	.word	0x00000d0c
     d20:	00009aa3          	.word	0x00009aa3
     d24:	004b8b93          	addi	x23,x23,4

# Testcase cp_rd (Test destination rd = x9)
  RVTEST_TESTDATA_LOAD_INT(x12, x30) # load rs1: x30 = 0x3d8a8b27
     d28:	00062f03          	lw	x30,0(x12)
     d2c:	00460613          	addi	x12,x12,4
  RVTEST_TESTDATA_LOAD_INT(x12, x0) # load rs2: x0 = 0xf58265cf
     d30:	00062003          	lw	x0,0(x12)
     d34:	00460613          	addi	x12,x12,4

00000d38 <I_sltu_cg_cp_rd_b9>:
I_sltu_cg_cp_rd_b9:
  sltu x9, x30, x0 # perform operation
     d38:	000f34b3          	sltu	x9,x30,x0
  # Check if x9 contains the expected result. x23 is the signature ptr, x5 is the link ptr, x4 is a temp reg.
  RVTEST_SIGUPD(x23, x5, x4, x9, I_sltu_cg_cp_rd_b9, I_sltu_cg_cp_rd_b9_str)
     d3c:	000ba203          	lw	x4,0(x23)
     d40:	00920863          	beq	x4,x9,d50 <I_sltu_cg_cp_rd_b9+0x18>
     d44:	7b8032ef          	jal	x5,44fc <failedtest_x5_x4>
     d48:	00000d38          	.word	0x00000d38
     d4c:	00009ad1          	.word	0x00009ad1
     d50:	004b8b93          	addi	x23,x23,4

# Testcase cp_rd (Test destination rd = x10)
  RVTEST_TESTDATA_LOAD_INT(x12, x29) # load rs1: x29 = 0x1d72e89f
     d54:	00062e83          	lw	x29,0(x12)
     d58:	00460613          	addi	x12,x12,4
  RVTEST_TESTDATA_LOAD_INT(x12, x24) # load rs2: x24 = 0xdeb1e429
     d5c:	00062c03          	lw	x24,0(x12)
     d60:	00460613          	addi	x12,x12,4

00000d64 <I_sltu_cg_cp_rd_b10>:
I_sltu_cg_cp_rd_b10:
  sltu x10, x29, x24 # perform operation
     d64:	018eb533          	sltu	x10,x29,x24
  # Check if x10 contains the expected result. x23 is the signature ptr, x5 is the link ptr, x4 is a temp reg.
  RVTEST_SIGUPD(x23, x5, x4, x10, I_sltu_cg_cp_rd_b10, I_sltu_cg_cp_rd_b10_str)
     d68:	000ba203          	lw	x4,0(x23)
     d6c:	00a20863          	beq	x4,x10,d7c <I_sltu_cg_cp_rd_b10+0x18>
     d70:	78c032ef          	jal	x5,44fc <failedtest_x5_x4>
     d74:	00000d64          	.word	0x00000d64
     d78:	00009aff          	.word	0x00009aff
     d7c:	004b8b93          	addi	x23,x23,4

# Testcase cp_rd (Test destination rd = x11)
  RVTEST_TESTDATA_LOAD_INT(x12, x31) # load rs1: x31 = 0x5d668a24
     d80:	00062f83          	lw	x31,0(x12)
     d84:	00460613          	addi	x12,x12,4
  RVTEST_TESTDATA_LOAD_INT(x12, x16) # load rs2: x16 = 0x1a026009
     d88:	00062803          	lw	x16,0(x12)
     d8c:	00460613          	addi	x12,x12,4

00000d90 <I_sltu_cg_cp_rd_b11>:
I_sltu_cg_cp_rd_b11:
  sltu x11, x31, x16 # perform operation
     d90:	010fb5b3          	sltu	x11,x31,x16
  # Check if x11 contains the expected result. x23 is the signature ptr, x5 is the link ptr, x4 is a temp reg.
  RVTEST_SIGUPD(x23, x5, x4, x11, I_sltu_cg_cp_rd_b11, I_sltu_cg_cp_rd_b11_str)
     d94:	000ba203          	lw	x4,0(x23)
     d98:	00b20863          	beq	x4,x11,da8 <I_sltu_cg_cp_rd_b11+0x18>
     d9c:	760032ef          	jal	x5,44fc <failedtest_x5_x4>
     da0:	00000d90          	.word	0x00000d90
     da4:	00009b2e          	.word	0x00009b2e
     da8:	004b8b93          	addi	x23,x23,4

  mv x26, x12 # switch data pointer register to avoid conflict with test
     dac:	00060d13          	addi	x26,x12,0
# Testcase cp_rd (Test destination rd = x12)
  RVTEST_TESTDATA_LOAD_INT(x26, x7) # load rs1: x7 = 0xa92650b2
     db0:	000d2383          	lw	x7,0(x26)
     db4:	004d0d13          	addi	x26,x26,4
  RVTEST_TESTDATA_LOAD_INT(x26, x9) # load rs2: x9 = 0x7f6a0142
     db8:	000d2483          	lw	x9,0(x26)
     dbc:	004d0d13          	addi	x26,x26,4

00000dc0 <I_sltu_cg_cp_rd_b12>:
I_sltu_cg_cp_rd_b12:
  sltu x12, x7, x9 # perform operation
     dc0:	0093b633          	sltu	x12,x7,x9
  # Check if x12 contains the expected result. x23 is the signature ptr, x5 is the link ptr, x4 is a temp reg.
  RVTEST_SIGUPD(x23, x5, x4, x12, I_sltu_cg_cp_rd_b12, I_sltu_cg_cp_rd_b12_str)
     dc4:	000ba203          	lw	x4,0(x23)
     dc8:	00c20863          	beq	x4,x12,dd8 <I_sltu_cg_cp_rd_b12+0x18>
     dcc:	730032ef          	jal	x5,44fc <failedtest_x5_x4>
     dd0:	00000dc0          	.word	0x00000dc0
     dd4:	00009b5d          	.word	0x00009b5d
     dd8:	004b8b93          	addi	x23,x23,4

# Testcase cp_rd (Test destination rd = x13)
  RVTEST_TESTDATA_LOAD_INT(x26, x16) # load rs1: x16 = 0xe40bfdf7
     ddc:	000d2803          	lw	x16,0(x26)
     de0:	004d0d13          	addi	x26,x26,4
  RVTEST_TESTDATA_LOAD_INT(x26, x20) # load rs2: x20 = 0x537e0b62
     de4:	000d2a03          	lw	x20,0(x26)
     de8:	004d0d13          	addi	x26,x26,4

00000dec <I_sltu_cg_cp_rd_b13>:
I_sltu_cg_cp_rd_b13:
  sltu x13, x16, x20 # perform operation
     dec:	014836b3          	sltu	x13,x16,x20
  # Check if x13 contains the expected result. x23 is the signature ptr, x5 is the link ptr, x4 is a temp reg.
  RVTEST_SIGUPD(x23, x5, x4, x13, I_sltu_cg_cp_rd_b13, I_sltu_cg_cp_rd_b13_str)
     df0:	000ba203          	lw	x4,0(x23)
     df4:	00d20863          	beq	x4,x13,e04 <I_sltu_cg_cp_rd_b13+0x18>
     df8:	704032ef          	jal	x5,44fc <failedtest_x5_x4>
     dfc:	00000dec          	.word	0x00000dec
     e00:	00009b8c          	.word	0x00009b8c
     e04:	004b8b93          	addi	x23,x23,4

# Testcase cp_rd (Test destination rd = x14)
  RVTEST_TESTDATA_LOAD_INT(x26, x21) # load rs1: x21 = 0xd31beaf8
     e08:	000d2a83          	lw	x21,0(x26)
     e0c:	004d0d13          	addi	x26,x26,4
  RVTEST_TESTDATA_LOAD_INT(x26, x9) # load rs2: x9 = 0x49b97ecf
     e10:	000d2483          	lw	x9,0(x26)
     e14:	004d0d13          	addi	x26,x26,4

00000e18 <I_sltu_cg_cp_rd_b14>:
I_sltu_cg_cp_rd_b14:
  sltu x14, x21, x9 # perform operation
     e18:	009ab733          	sltu	x14,x21,x9
  # Check if x14 contains the expected result. x23 is the signature ptr, x5 is the link ptr, x4 is a temp reg.
  RVTEST_SIGUPD(x23, x5, x4, x14, I_sltu_cg_cp_rd_b14, I_sltu_cg_cp_rd_b14_str)
     e1c:	000ba203          	lw	x4,0(x23)
     e20:	00e20863          	beq	x4,x14,e30 <I_sltu_cg_cp_rd_b14+0x18>
     e24:	6d8032ef          	jal	x5,44fc <failedtest_x5_x4>
     e28:	00000e18          	.word	0x00000e18
     e2c:	00009bbb          	.word	0x00009bbb
     e30:	004b8b93          	addi	x23,x23,4

# Testcase cp_rd (Test destination rd = x15)
  RVTEST_TESTDATA_LOAD_INT(x26, x8) # load rs1: x8 = 0xf4846ab5
     e34:	000d2403          	lw	x8,0(x26)
     e38:	004d0d13          	addi	x26,x26,4
  RVTEST_TESTDATA_LOAD_INT(x26, x21) # load rs2: x21 = 0xa7913e2a
     e3c:	000d2a83          	lw	x21,0(x26)
     e40:	004d0d13          	addi	x26,x26,4

00000e44 <I_sltu_cg_cp_rd_b15>:
I_sltu_cg_cp_rd_b15:
  sltu x15, x8, x21 # perform operation
     e44:	015437b3          	sltu	x15,x8,x21
  # Check if x15 contains the expected result. x23 is the signature ptr, x5 is the link ptr, x4 is a temp reg.
  RVTEST_SIGUPD(x23, x5, x4, x15, I_sltu_cg_cp_rd_b15, I_sltu_cg_cp_rd_b15_str)
     e48:	000ba203          	lw	x4,0(x23)
     e4c:	00f20863          	beq	x4,x15,e5c <I_sltu_cg_cp_rd_b15+0x18>
     e50:	6ac032ef          	jal	x5,44fc <failedtest_x5_x4>
     e54:	00000e44          	.word	0x00000e44
     e58:	00009bea          	.word	0x00009bea
     e5c:	004b8b93          	addi	x23,x23,4

# Testcase cp_rd (Test destination rd = x16)
  RVTEST_TESTDATA_LOAD_INT(x26, x28) # load rs1: x28 = 0x7fbba524
     e60:	000d2e03          	lw	x28,0(x26)
     e64:	004d0d13          	addi	x26,x26,4
  RVTEST_TESTDATA_LOAD_INT(x26, x22) # load rs2: x22 = 0x67c620b3
     e68:	000d2b03          	lw	x22,0(x26)
     e6c:	004d0d13          	addi	x26,x26,4

00000e70 <I_sltu_cg_cp_rd_b16>:
I_sltu_cg_cp_rd_b16:
  sltu x16, x28, x22 # perform operation
     e70:	016e3833          	sltu	x16,x28,x22
  # Check if x16 contains the expected result. x23 is the signature ptr, x5 is the link ptr, x4 is a temp reg.
  RVTEST_SIGUPD(x23, x5, x4, x16, I_sltu_cg_cp_rd_b16, I_sltu_cg_cp_rd_b16_str)
     e74:	000ba203          	lw	x4,0(x23)
     e78:	01020863          	beq	x4,x16,e88 <I_sltu_cg_cp_rd_b16+0x18>
     e7c:	680032ef          	jal	x5,44fc <failedtest_x5_x4>
     e80:	00000e70          	.word	0x00000e70
     e84:	00009c19          	.word	0x00009c19
     e88:	004b8b93          	addi	x23,x23,4

# Testcase cp_rd (Test destination rd = x17)
  RVTEST_TESTDATA_LOAD_INT(x26, x10) # load rs1: x10 = 0xafe806d6
     e8c:	000d2503          	lw	x10,0(x26)
     e90:	004d0d13          	addi	x26,x26,4
  RVTEST_TESTDATA_LOAD_INT(x26, x7) # load rs2: x7 = 0xdee0d371
     e94:	000d2383          	lw	x7,0(x26)
     e98:	004d0d13          	addi	x26,x26,4

00000e9c <I_sltu_cg_cp_rd_b17>:
I_sltu_cg_cp_rd_b17:
  sltu x17, x10, x7 # perform operation
     e9c:	007538b3          	sltu	x17,x10,x7
  # Check if x17 contains the expected result. x23 is the signature ptr, x5 is the link ptr, x4 is a temp reg.
  RVTEST_SIGUPD(x23, x5, x4, x17, I_sltu_cg_cp_rd_b17, I_sltu_cg_cp_rd_b17_str)
     ea0:	000ba203          	lw	x4,0(x23)
     ea4:	01120863          	beq	x4,x17,eb4 <I_sltu_cg_cp_rd_b17+0x18>
     ea8:	654032ef          	jal	x5,44fc <failedtest_x5_x4>
     eac:	00000e9c          	.word	0x00000e9c
     eb0:	00009c48          	.word	0x00009c48
     eb4:	004b8b93          	addi	x23,x23,4

# Testcase cp_rd (Test destination rd = x18)
  RVTEST_TESTDATA_LOAD_INT(x26, x22) # load rs1: x22 = 0xc877e58c
     eb8:	000d2b03          	lw	x22,0(x26)
     ebc:	004d0d13          	addi	x26,x26,4
  RVTEST_TESTDATA_LOAD_INT(x26, x28) # load rs2: x28 = 0x5105ff2d
     ec0:	000d2e03          	lw	x28,0(x26)
     ec4:	004d0d13          	addi	x26,x26,4

00000ec8 <I_sltu_cg_cp_rd_b18>:
I_sltu_cg_cp_rd_b18:
  sltu x18, x22, x28 # perform operation
     ec8:	01cb3933          	sltu	x18,x22,x28
  # Check if x18 contains the expected result. x23 is the signature ptr, x5 is the link ptr, x4 is a temp reg.
  RVTEST_SIGUPD(x23, x5, x4, x18, I_sltu_cg_cp_rd_b18, I_sltu_cg_cp_rd_b18_str)
     ecc:	000ba203          	lw	x4,0(x23)
     ed0:	01220863          	beq	x4,x18,ee0 <I_sltu_cg_cp_rd_b18+0x18>
     ed4:	628032ef          	jal	x5,44fc <failedtest_x5_x4>
     ed8:	00000ec8          	.word	0x00000ec8
     edc:	00009c77          	.word	0x00009c77
     ee0:	004b8b93          	addi	x23,x23,4

# Testcase cp_rd (Test destination rd = x19)
  RVTEST_TESTDATA_LOAD_INT(x26, x2) # load rs1: x2 = 0x906fe7b3
     ee4:	000d2103          	lw	x2,0(x26)
     ee8:	004d0d13          	addi	x26,x26,4
  RVTEST_TESTDATA_LOAD_INT(x26, x18) # load rs2: x18 = 0x59dd9fd7
     eec:	000d2903          	lw	x18,0(x26)
     ef0:	004d0d13          	addi	x26,x26,4

00000ef4 <I_sltu_cg_cp_rd_b19>:
I_sltu_cg_cp_rd_b19:
  sltu x19, x2, x18 # perform operation
     ef4:	012139b3          	sltu	x19,x2,x18
  # Check if x19 contains the expected result. x23 is the signature ptr, x5 is the link ptr, x4 is a temp reg.
  RVTEST_SIGUPD(x23, x5, x4, x19, I_sltu_cg_cp_rd_b19, I_sltu_cg_cp_rd_b19_str)
     ef8:	000ba203          	lw	x4,0(x23)
     efc:	01320863          	beq	x4,x19,f0c <I_sltu_cg_cp_rd_b19+0x18>
     f00:	5fc032ef          	jal	x5,44fc <failedtest_x5_x4>
     f04:	00000ef4          	.word	0x00000ef4
     f08:	00009ca6          	.word	0x00009ca6
     f0c:	004b8b93          	addi	x23,x23,4

# Testcase cp_rd (Test destination rd = x20)
  RVTEST_TESTDATA_LOAD_INT(x26, x2) # load rs1: x2 = 0xa1aa656f
     f10:	000d2103          	lw	x2,0(x26)
     f14:	004d0d13          	addi	x26,x26,4
  RVTEST_TESTDATA_LOAD_INT(x26, x7) # load rs2: x7 = 0x824363a3
     f18:	000d2383          	lw	x7,0(x26)
     f1c:	004d0d13          	addi	x26,x26,4

00000f20 <I_sltu_cg_cp_rd_b20>:
I_sltu_cg_cp_rd_b20:
  sltu x20, x2, x7 # perform operation
     f20:	00713a33          	sltu	x20,x2,x7
  # Check if x20 contains the expected result. x23 is the signature ptr, x5 is the link ptr, x4 is a temp reg.
  RVTEST_SIGUPD(x23, x5, x4, x20, I_sltu_cg_cp_rd_b20, I_sltu_cg_cp_rd_b20_str)
     f24:	000ba203          	lw	x4,0(x23)
     f28:	01420863          	beq	x4,x20,f38 <I_sltu_cg_cp_rd_b20+0x18>
     f2c:	5d0032ef          	jal	x5,44fc <failedtest_x5_x4>
     f30:	00000f20          	.word	0x00000f20
     f34:	00009cd5          	.word	0x00009cd5
     f38:	004b8b93          	addi	x23,x23,4

# Testcase cp_rd (Test destination rd = x21)
  RVTEST_TESTDATA_LOAD_INT(x26, x14) # load rs1: x14 = 0x97776987
     f3c:	000d2703          	lw	x14,0(x26)
     f40:	004d0d13          	addi	x26,x26,4
  RVTEST_TESTDATA_LOAD_INT(x26, x3) # load rs2: x3 = 0x38c0a376
     f44:	000d2183          	lw	x3,0(x26)
     f48:	004d0d13          	addi	x26,x26,4

00000f4c <I_sltu_cg_cp_rd_b21>:
I_sltu_cg_cp_rd_b21:
  sltu x21, x14, x3 # perform operation
     f4c:	00373ab3          	sltu	x21,x14,x3
  # Check if x21 contains the expected result. x23 is the signature ptr, x5 is the link ptr, x4 is a temp reg.
  RVTEST_SIGUPD(x23, x5, x4, x21, I_sltu_cg_cp_rd_b21, I_sltu_cg_cp_rd_b21_str)
     f50:	000ba203          	lw	x4,0(x23)
     f54:	01520863          	beq	x4,x21,f64 <I_sltu_cg_cp_rd_b21+0x18>
     f58:	5a4032ef          	jal	x5,44fc <failedtest_x5_x4>
     f5c:	00000f4c          	.word	0x00000f4c
     f60:	00009d04          	.word	0x00009d04
     f64:	004b8b93          	addi	x23,x23,4

# Testcase cp_rd (Test destination rd = x22)
  RVTEST_TESTDATA_LOAD_INT(x26, x24) # load rs1: x24 = 0xe914b3e9
     f68:	000d2c03          	lw	x24,0(x26)
     f6c:	004d0d13          	addi	x26,x26,4
  RVTEST_TESTDATA_LOAD_INT(x26, x1) # load rs2: x1 = 0xb2b97887
     f70:	000d2083          	lw	x1,0(x26)
     f74:	004d0d13          	addi	x26,x26,4

00000f78 <I_sltu_cg_cp_rd_b22>:
I_sltu_cg_cp_rd_b22:
  sltu x22, x24, x1 # perform operation
     f78:	001c3b33          	sltu	x22,x24,x1
  # Check if x22 contains the expected result. x23 is the signature ptr, x5 is the link ptr, x4 is a temp reg.
  RVTEST_SIGUPD(x23, x5, x4, x22, I_sltu_cg_cp_rd_b22, I_sltu_cg_cp_rd_b22_str)
     f7c:	000ba203          	lw	x4,0(x23)
     f80:	01620863          	beq	x4,x22,f90 <I_sltu_cg_cp_rd_b22+0x18>
     f84:	578032ef          	jal	x5,44fc <failedtest_x5_x4>
     f88:	00000f78          	.word	0x00000f78
     f8c:	00009d33          	.word	0x00009d33
     f90:	004b8b93          	addi	x23,x23,4

  mv x25, x23 # switch signature pointer register to avoid conflict with test
     f94:	000b8c93          	addi	x25,x23,0
# Testcase cp_rd (Test destination rd = x23)
  RVTEST_TESTDATA_LOAD_INT(x26, x17) # load rs1: x17 = 0xd37ff329
     f98:	000d2883          	lw	x17,0(x26)
     f9c:	004d0d13          	addi	x26,x26,4
  RVTEST_TESTDATA_LOAD_INT(x26, x14) # load rs2: x14 = 0xf6c4177d
     fa0:	000d2703          	lw	x14,0(x26)
     fa4:	004d0d13          	addi	x26,x26,4

00000fa8 <I_sltu_cg_cp_rd_b23>:
I_sltu_cg_cp_rd_b23:
  sltu x23, x17, x14 # perform operation
     fa8:	00e8bbb3          	sltu	x23,x17,x14
  # Check if x23 contains the expected result. x25 is the signature ptr, x5 is the link ptr, x4 is a temp reg.
  RVTEST_SIGUPD(x25, x5, x4, x23, I_sltu_cg_cp_rd_b23, I_sltu_cg_cp_rd_b23_str)
     fac:	000ca203          	lw	x4,0(x25)
     fb0:	01720863          	beq	x4,x23,fc0 <I_sltu_cg_cp_rd_b23+0x18>
     fb4:	548032ef          	jal	x5,44fc <failedtest_x5_x4>
     fb8:	00000fa8          	.word	0x00000fa8
     fbc:	00009d62          	.word	0x00009d62
     fc0:	004c8c93          	addi	x25,x25,4

# Testcase cp_rd (Test destination rd = x24)
  RVTEST_TESTDATA_LOAD_INT(x26, x19) # load rs1: x19 = 0x2db84c2d
     fc4:	000d2983          	lw	x19,0(x26)
     fc8:	004d0d13          	addi	x26,x26,4
  RVTEST_TESTDATA_LOAD_INT(x26, x13) # load rs2: x13 = 0x84d97ac8
     fcc:	000d2683          	lw	x13,0(x26)
     fd0:	004d0d13          	addi	x26,x26,4

00000fd4 <I_sltu_cg_cp_rd_b24>:
I_sltu_cg_cp_rd_b24:
  sltu x24, x19, x13 # perform operation
     fd4:	00d9bc33          	sltu	x24,x19,x13
  # Check if x24 contains the expected result. x25 is the signature ptr, x5 is the link ptr, x4 is a temp reg.
  RVTEST_SIGUPD(x25, x5, x4, x24, I_sltu_cg_cp_rd_b24, I_sltu_cg_cp_rd_b24_str)
     fd8:	000ca203          	lw	x4,0(x25)
     fdc:	01820863          	beq	x4,x24,fec <I_sltu_cg_cp_rd_b24+0x18>
     fe0:	51c032ef          	jal	x5,44fc <failedtest_x5_x4>
     fe4:	00000fd4          	.word	0x00000fd4
     fe8:	00009d91          	.word	0x00009d91
     fec:	004c8c93          	addi	x25,x25,4

  mv x6, x25 # switch signature pointer register to avoid conflict with test
     ff0:	000c8313          	addi	x6,x25,0
# Testcase cp_rd (Test destination rd = x25)
  RVTEST_TESTDATA_LOAD_INT(x26, x11) # load rs1: x11 = 0xc418ec7e
     ff4:	000d2583          	lw	x11,0(x26)
     ff8:	004d0d13          	addi	x26,x26,4
  RVTEST_TESTDATA_LOAD_INT(x26, x29) # load rs2: x29 = 0x07bf9f8f
     ffc:	000d2e83          	lw	x29,0(x26)
    1000:	004d0d13          	addi	x26,x26,4

00001004 <I_sltu_cg_cp_rd_b25>:
I_sltu_cg_cp_rd_b25:
  sltu x25, x11, x29 # perform operation
    1004:	01d5bcb3          	sltu	x25,x11,x29
  # Check if x25 contains the expected result. x6 is the signature ptr, x5 is the link ptr, x4 is a temp reg.
  RVTEST_SIGUPD(x6, x5, x4, x25, I_sltu_cg_cp_rd_b25, I_sltu_cg_cp_rd_b25_str)
    1008:	00032203          	lw	x4,0(x6)
    100c:	01920863          	beq	x4,x25,101c <I_sltu_cg_cp_rd_b25+0x18>
    1010:	4ec032ef          	jal	x5,44fc <failedtest_x5_x4>
    1014:	00001004          	.word	0x00001004
    1018:	00009dc0          	.word	0x00009dc0
    101c:	00430313          	addi	x6,x6,4

  mv x11, x26 # switch data pointer register to avoid conflict with test
    1020:	000d0593          	addi	x11,x26,0
# Testcase cp_rd (Test destination rd = x26)
  RVTEST_TESTDATA_LOAD_INT(x11, x0) # load rs1: x0 = 0x098daddb
    1024:	0005a003          	lw	x0,0(x11)
    1028:	00458593          	addi	x11,x11,4
  RVTEST_TESTDATA_LOAD_INT(x11, x16) # load rs2: x16 = 0xcec64416
    102c:	0005a803          	lw	x16,0(x11)
    1030:	00458593          	addi	x11,x11,4

00001034 <I_sltu_cg_cp_rd_b26>:
I_sltu_cg_cp_rd_b26:
  sltu x26, x0, x16 # perform operation
    1034:	01003d33          	sltu	x26,x0,x16
  # Check if x26 contains the expected result. x6 is the signature ptr, x5 is the link ptr, x4 is a temp reg.
  RVTEST_SIGUPD(x6, x5, x4, x26, I_sltu_cg_cp_rd_b26, I_sltu_cg_cp_rd_b26_str)
    1038:	00032203          	lw	x4,0(x6)
    103c:	01a20863          	beq	x4,x26,104c <I_sltu_cg_cp_rd_b26+0x18>
    1040:	4bc032ef          	jal	x5,44fc <failedtest_x5_x4>
    1044:	00001034          	.word	0x00001034
    1048:	00009def          	.word	0x00009def
    104c:	00430313          	addi	x6,x6,4

# Testcase cp_rd (Test destination rd = x27)
  RVTEST_TESTDATA_LOAD_INT(x11, x10) # load rs1: x10 = 0x595e2416
    1050:	0005a503          	lw	x10,0(x11)
    1054:	00458593          	addi	x11,x11,4
  RVTEST_TESTDATA_LOAD_INT(x11, x29) # load rs2: x29 = 0xa59f4474
    1058:	0005ae83          	lw	x29,0(x11)
    105c:	00458593          	addi	x11,x11,4

00001060 <I_sltu_cg_cp_rd_b27>:
I_sltu_cg_cp_rd_b27:
  sltu x27, x10, x29 # perform operation
    1060:	01d53db3          	sltu	x27,x10,x29
  # Check if x27 contains the expected result. x6 is the signature ptr, x5 is the link ptr, x4 is a temp reg.
  RVTEST_SIGUPD(x6, x5, x4, x27, I_sltu_cg_cp_rd_b27, I_sltu_cg_cp_rd_b27_str)
    1064:	00032203          	lw	x4,0(x6)
    1068:	01b20863          	beq	x4,x27,1078 <I_sltu_cg_cp_rd_b27+0x18>
    106c:	490032ef          	jal	x5,44fc <failedtest_x5_x4>
    1070:	00001060          	.word	0x00001060
    1074:	00009e1e          	.word	0x00009e1e
    1078:	00430313          	addi	x6,x6,4

# Testcase cp_rd (Test destination rd = x28)
  RVTEST_TESTDATA_LOAD_INT(x11, x25) # load rs1: x25 = 0xb917966d
    107c:	0005ac83          	lw	x25,0(x11)
    1080:	00458593          	addi	x11,x11,4
  RVTEST_TESTDATA_LOAD_INT(x11, x13) # load rs2: x13 = 0x0e37af08
    1084:	0005a683          	lw	x13,0(x11)
    1088:	00458593          	addi	x11,x11,4

0000108c <I_sltu_cg_cp_rd_b28>:
I_sltu_cg_cp_rd_b28:
  sltu x28, x25, x13 # perform operation
    108c:	00dcbe33          	sltu	x28,x25,x13
  # Check if x28 contains the expected result. x6 is the signature ptr, x5 is the link ptr, x4 is a temp reg.
  RVTEST_SIGUPD(x6, x5, x4, x28, I_sltu_cg_cp_rd_b28, I_sltu_cg_cp_rd_b28_str)
    1090:	00032203          	lw	x4,0(x6)
    1094:	01c20863          	beq	x4,x28,10a4 <I_sltu_cg_cp_rd_b28+0x18>
    1098:	464032ef          	jal	x5,44fc <failedtest_x5_x4>
    109c:	0000108c          	.word	0x0000108c
    10a0:	00009e4d          	.word	0x00009e4d
    10a4:	00430313          	addi	x6,x6,4

# Testcase cp_rd (Test destination rd = x29)
  RVTEST_TESTDATA_LOAD_INT(x11, x9) # load rs1: x9 = 0x3ef7471b
    10a8:	0005a483          	lw	x9,0(x11)
    10ac:	00458593          	addi	x11,x11,4
  RVTEST_TESTDATA_LOAD_INT(x11, x0) # load rs2: x0 = 0xcbb33c0d
    10b0:	0005a003          	lw	x0,0(x11)
    10b4:	00458593          	addi	x11,x11,4

000010b8 <I_sltu_cg_cp_rd_b29>:
I_sltu_cg_cp_rd_b29:
  sltu x29, x9, x0 # perform operation
    10b8:	0004beb3          	sltu	x29,x9,x0
  # Check if x29 contains the expected result. x6 is the signature ptr, x5 is the link ptr, x4 is a temp reg.
  RVTEST_SIGUPD(x6, x5, x4, x29, I_sltu_cg_cp_rd_b29, I_sltu_cg_cp_rd_b29_str)
    10bc:	00032203          	lw	x4,0(x6)
    10c0:	01d20863          	beq	x4,x29,10d0 <I_sltu_cg_cp_rd_b29+0x18>
    10c4:	438032ef          	jal	x5,44fc <failedtest_x5_x4>
    10c8:	000010b8          	.word	0x000010b8
    10cc:	00009e7c          	.word	0x00009e7c
    10d0:	00430313          	addi	x6,x6,4

# Testcase cp_rd (Test destination rd = x30)
  RVTEST_TESTDATA_LOAD_INT(x11, x25) # load rs1: x25 = 0x48fc8b07
    10d4:	0005ac83          	lw	x25,0(x11)
    10d8:	00458593          	addi	x11,x11,4
  RVTEST_TESTDATA_LOAD_INT(x11, x19) # load rs2: x19 = 0x3fbcde93
    10dc:	0005a983          	lw	x19,0(x11)
    10e0:	00458593          	addi	x11,x11,4

000010e4 <I_sltu_cg_cp_rd_b30>:
I_sltu_cg_cp_rd_b30:
  sltu x30, x25, x19 # perform operation
    10e4:	013cbf33          	sltu	x30,x25,x19
  # Check if x30 contains the expected result. x6 is the signature ptr, x5 is the link ptr, x4 is a temp reg.
  RVTEST_SIGUPD(x6, x5, x4, x30, I_sltu_cg_cp_rd_b30, I_sltu_cg_cp_rd_b30_str)
    10e8:	00032203          	lw	x4,0(x6)
    10ec:	01e20863          	beq	x4,x30,10fc <I_sltu_cg_cp_rd_b30+0x18>
    10f0:	40c032ef          	jal	x5,44fc <failedtest_x5_x4>
    10f4:	000010e4          	.word	0x000010e4
    10f8:	00009eab          	.word	0x00009eab
    10fc:	00430313          	addi	x6,x6,4

# Testcase cp_rd (Test destination rd = x31)
  RVTEST_TESTDATA_LOAD_INT(x11, x19) # load rs1: x19 = 0x6f359fbb
    1100:	0005a983          	lw	x19,0(x11)
    1104:	00458593          	addi	x11,x11,4
  RVTEST_TESTDATA_LOAD_INT(x11, x0) # load rs2: x0 = 0x066fb5c5
    1108:	0005a003          	lw	x0,0(x11)
    110c:	00458593          	addi	x11,x11,4

00001110 <I_sltu_cg_cp_rd_b31>:
I_sltu_cg_cp_rd_b31:
  sltu x31, x19, x0 # perform operation
    1110:	0009bfb3          	sltu	x31,x19,x0
  # Check if x31 contains the expected result. x6 is the signature ptr, x5 is the link ptr, x4 is a temp reg.
  RVTEST_SIGUPD(x6, x5, x4, x31, I_sltu_cg_cp_rd_b31, I_sltu_cg_cp_rd_b31_str)
    1114:	00032203          	lw	x4,0(x6)
    1118:	01f20863          	beq	x4,x31,1128 <I_sltu_cg_cp_rd_b31+0x18>
    111c:	3e0032ef          	jal	x5,44fc <failedtest_x5_x4>
    1120:	00001110          	.word	0x00001110
    1124:	00009eda          	.word	0x00009eda
    1128:	00430313          	addi	x6,x6,4
/////////////////////////////////
// cp_rs1_edges
/////////////////////////////////

# Testcase cp_rs1_edges (Test source rs1 value = 0x00000000)
  RVTEST_TESTDATA_LOAD_INT(x11, x10) # load rs1: x10 = 0x00000000
    112c:	0005a503          	lw	x10,0(x11)
    1130:	00458593          	addi	x11,x11,4
  RVTEST_TESTDATA_LOAD_INT(x11, x3) # load rs2: x3 = 0xe156eb36
    1134:	0005a183          	lw	x3,0(x11)
    1138:	00458593          	addi	x11,x11,4

0000113c <I_sltu_cg_cp_rs1_edges_0x0>:
I_sltu_cg_cp_rs1_edges_0x0:
  sltu x28, x10, x3 # perform operation
    113c:	00353e33          	sltu	x28,x10,x3
  # Check if x28 contains the expected result. x6 is the signature ptr, x5 is the link ptr, x4 is a temp reg.
  RVTEST_SIGUPD(x6, x5, x4, x28, I_sltu_cg_cp_rs1_edges_0x0, I_sltu_cg_cp_rs1_edges_0x0_str)
    1140:	00032203          	lw	x4,0(x6)
    1144:	01c20863          	beq	x4,x28,1154 <I_sltu_cg_cp_rs1_edges_0x0+0x18>
    1148:	3b4032ef          	jal	x5,44fc <failedtest_x5_x4>
    114c:	0000113c          	.word	0x0000113c
    1150:	00009f09          	.word	0x00009f09
    1154:	00430313          	addi	x6,x6,4

# Testcase cp_rs1_edges (Test source rs1 value = 0x00000001)
  RVTEST_TESTDATA_LOAD_INT(x11, x27) # load rs1: x27 = 0x00000001
    1158:	0005ad83          	lw	x27,0(x11)
    115c:	00458593          	addi	x11,x11,4
  RVTEST_TESTDATA_LOAD_INT(x11, x22) # load rs2: x22 = 0x11842147
    1160:	0005ab03          	lw	x22,0(x11)
    1164:	00458593          	addi	x11,x11,4

00001168 <I_sltu_cg_cp_rs1_edges_0x1>:
I_sltu_cg_cp_rs1_edges_0x1:
  sltu x29, x27, x22 # perform operation
    1168:	016dbeb3          	sltu	x29,x27,x22
  # Check if x29 contains the expected result. x6 is the signature ptr, x5 is the link ptr, x4 is a temp reg.
  RVTEST_SIGUPD(x6, x5, x4, x29, I_sltu_cg_cp_rs1_edges_0x1, I_sltu_cg_cp_rs1_edges_0x1_str)
    116c:	00032203          	lw	x4,0(x6)
    1170:	01d20863          	beq	x4,x29,1180 <I_sltu_cg_cp_rs1_edges_0x1+0x18>
    1174:	388032ef          	jal	x5,44fc <failedtest_x5_x4>
    1178:	00001168          	.word	0x00001168
    117c:	00009f3f          	.word	0x00009f3f
    1180:	00430313          	addi	x6,x6,4

# Testcase cp_rs1_edges (Test source rs1 value = 0x00000002)
  RVTEST_TESTDATA_LOAD_INT(x11, x31) # load rs1: x31 = 0x00000002
    1184:	0005af83          	lw	x31,0(x11)
    1188:	00458593          	addi	x11,x11,4
  RVTEST_TESTDATA_LOAD_INT(x11, x13) # load rs2: x13 = 0x87fd8256
    118c:	0005a683          	lw	x13,0(x11)
    1190:	00458593          	addi	x11,x11,4

00001194 <I_sltu_cg_cp_rs1_edges_0x2>:
I_sltu_cg_cp_rs1_edges_0x2:
  sltu x29, x31, x13 # perform operation
    1194:	00dfbeb3          	sltu	x29,x31,x13
  # Check if x29 contains the expected result. x6 is the signature ptr, x5 is the link ptr, x4 is a temp reg.
  RVTEST_SIGUPD(x6, x5, x4, x29, I_sltu_cg_cp_rs1_edges_0x2, I_sltu_cg_cp_rs1_edges_0x2_str)
    1198:	00032203          	lw	x4,0(x6)
    119c:	01d20863          	beq	x4,x29,11ac <I_sltu_cg_cp_rs1_edges_0x2+0x18>
    11a0:	35c032ef          	jal	x5,44fc <failedtest_x5_x4>
    11a4:	00001194          	.word	0x00001194
    11a8:	00009f75          	.word	0x00009f75
    11ac:	00430313          	addi	x6,x6,4

# Testcase cp_rs1_edges (Test source rs1 value = 0x80000000)
  RVTEST_TESTDATA_LOAD_INT(x11, x8) # load rs1: x8 = 0x80000000
    11b0:	0005a403          	lw	x8,0(x11)
    11b4:	00458593          	addi	x11,x11,4
  RVTEST_TESTDATA_LOAD_INT(x11, x10) # load rs2: x10 = 0x958bd2a7
    11b8:	0005a503          	lw	x10,0(x11)
    11bc:	00458593          	addi	x11,x11,4

000011c0 <I_sltu_cg_cp_rs1_edges_0x80000000>:
I_sltu_cg_cp_rs1_edges_0x80000000:
  sltu x21, x8, x10 # perform operation
    11c0:	00a43ab3          	sltu	x21,x8,x10
  # Check if x21 contains the expected result. x6 is the signature ptr, x5 is the link ptr, x4 is a temp reg.
  RVTEST_SIGUPD(x6, x5, x4, x21, I_sltu_cg_cp_rs1_edges_0x80000000, I_sltu_cg_cp_rs1_edges_0x80000000_str)
    11c4:	00032203          	lw	x4,0(x6)
    11c8:	01520863          	beq	x4,x21,11d8 <I_sltu_cg_cp_rs1_edges_0x80000000+0x18>
    11cc:	330032ef          	jal	x5,44fc <failedtest_x5_x4>
    11d0:	000011c0          	.word	0x000011c0
    11d4:	00009fab          	.word	0x00009fab
    11d8:	00430313          	addi	x6,x6,4

# Testcase cp_rs1_edges (Test source rs1 value = 0x80000001)
  RVTEST_TESTDATA_LOAD_INT(x11, x25) # load rs1: x25 = 0x80000001
    11dc:	0005ac83          	lw	x25,0(x11)
    11e0:	00458593          	addi	x11,x11,4
  RVTEST_TESTDATA_LOAD_INT(x11, x14) # load rs2: x14 = 0xa70f1a60
    11e4:	0005a703          	lw	x14,0(x11)
    11e8:	00458593          	addi	x11,x11,4

000011ec <I_sltu_cg_cp_rs1_edges_0x80000001>:
I_sltu_cg_cp_rs1_edges_0x80000001:
  sltu x27, x25, x14 # perform operation
    11ec:	00ecbdb3          	sltu	x27,x25,x14
  # Check if x27 contains the expected result. x6 is the signature ptr, x5 is the link ptr, x4 is a temp reg.
  RVTEST_SIGUPD(x6, x5, x4, x27, I_sltu_cg_cp_rs1_edges_0x80000001, I_sltu_cg_cp_rs1_edges_0x80000001_str)
    11f0:	00032203          	lw	x4,0(x6)
    11f4:	01b20863          	beq	x4,x27,1204 <I_sltu_cg_cp_rs1_edges_0x80000001+0x18>
    11f8:	304032ef          	jal	x5,44fc <failedtest_x5_x4>
    11fc:	000011ec          	.word	0x000011ec
    1200:	00009fe9          	.word	0x00009fe9
    1204:	00430313          	addi	x6,x6,4

# Testcase cp_rs1_edges (Test source rs1 value = 0x7fffffff)
  RVTEST_TESTDATA_LOAD_INT(x11, x24) # load rs1: x24 = 0x7fffffff
    1208:	0005ac03          	lw	x24,0(x11)
    120c:	00458593          	addi	x11,x11,4
  RVTEST_TESTDATA_LOAD_INT(x11, x22) # load rs2: x22 = 0xe950985d
    1210:	0005ab03          	lw	x22,0(x11)
    1214:	00458593          	addi	x11,x11,4

00001218 <I_sltu_cg_cp_rs1_edges_0x7fffffff>:
I_sltu_cg_cp_rs1_edges_0x7fffffff:
  sltu x30, x24, x22 # perform operation
    1218:	016c3f33          	sltu	x30,x24,x22
  # Check if x30 contains the expected result. x6 is the signature ptr, x5 is the link ptr, x4 is a temp reg.
  RVTEST_SIGUPD(x6, x5, x4, x30, I_sltu_cg_cp_rs1_edges_0x7fffffff, I_sltu_cg_cp_rs1_edges_0x7fffffff_str)
    121c:	00032203          	lw	x4,0(x6)
    1220:	01e20863          	beq	x4,x30,1230 <I_sltu_cg_cp_rs1_edges_0x7fffffff+0x18>
    1224:	2d8032ef          	jal	x5,44fc <failedtest_x5_x4>
    1228:	00001218          	.word	0x00001218
    122c:	0000a027          	.word	0x0000a027
    1230:	00430313          	addi	x6,x6,4

# Testcase cp_rs1_edges (Test source rs1 value = 0x7ffffffe)
  RVTEST_TESTDATA_LOAD_INT(x11, x25) # load rs1: x25 = 0x7ffffffe
    1234:	0005ac83          	lw	x25,0(x11)
    1238:	00458593          	addi	x11,x11,4
  RVTEST_TESTDATA_LOAD_INT(x11, x21) # load rs2: x21 = 0x4c3892ea
    123c:	0005aa83          	lw	x21,0(x11)
    1240:	00458593          	addi	x11,x11,4

00001244 <I_sltu_cg_cp_rs1_edges_0x7ffffffe>:
I_sltu_cg_cp_rs1_edges_0x7ffffffe:
  sltu x3, x25, x21 # perform operation
    1244:	015cb1b3          	sltu	x3,x25,x21
  # Check if x3 contains the expected result. x6 is the signature ptr, x5 is the link ptr, x4 is a temp reg.
  RVTEST_SIGUPD(x6, x5, x4, x3, I_sltu_cg_cp_rs1_edges_0x7ffffffe, I_sltu_cg_cp_rs1_edges_0x7ffffffe_str)
    1248:	00032203          	lw	x4,0(x6)
    124c:	00320863          	beq	x4,x3,125c <I_sltu_cg_cp_rs1_edges_0x7ffffffe+0x18>
    1250:	2ac032ef          	jal	x5,44fc <failedtest_x5_x4>
    1254:	00001244          	.word	0x00001244
    1258:	0000a065          	.word	0x0000a065
    125c:	00430313          	addi	x6,x6,4

# Testcase cp_rs1_edges (Test source rs1 value = 0xffffffff)
  RVTEST_TESTDATA_LOAD_INT(x11, x19) # load rs1: x19 = 0xffffffff
    1260:	0005a983          	lw	x19,0(x11)
    1264:	00458593          	addi	x11,x11,4
  RVTEST_TESTDATA_LOAD_INT(x11, x17) # load rs2: x17 = 0x0fa3821f
    1268:	0005a883          	lw	x17,0(x11)
    126c:	00458593          	addi	x11,x11,4

00001270 <I_sltu_cg_cp_rs1_edges_0xffffffff>:
I_sltu_cg_cp_rs1_edges_0xffffffff:
  sltu x24, x19, x17 # perform operation
    1270:	0119bc33          	sltu	x24,x19,x17
  # Check if x24 contains the expected result. x6 is the signature ptr, x5 is the link ptr, x4 is a temp reg.
  RVTEST_SIGUPD(x6, x5, x4, x24, I_sltu_cg_cp_rs1_edges_0xffffffff, I_sltu_cg_cp_rs1_edges_0xffffffff_str)
    1274:	00032203          	lw	x4,0(x6)
    1278:	01820863          	beq	x4,x24,1288 <I_sltu_cg_cp_rs1_edges_0xffffffff+0x18>
    127c:	280032ef          	jal	x5,44fc <failedtest_x5_x4>
    1280:	00001270          	.word	0x00001270
    1284:	0000a0a3          	.word	0x0000a0a3
    1288:	00430313          	addi	x6,x6,4

# Testcase cp_rs1_edges (Test source rs1 value = 0xfffffffe)
  RVTEST_TESTDATA_LOAD_INT(x11, x16) # load rs1: x16 = 0xfffffffe
    128c:	0005a803          	lw	x16,0(x11)
    1290:	00458593          	addi	x11,x11,4
  RVTEST_TESTDATA_LOAD_INT(x11, x17) # load rs2: x17 = 0x1d8b5e69
    1294:	0005a883          	lw	x17,0(x11)
    1298:	00458593          	addi	x11,x11,4

0000129c <I_sltu_cg_cp_rs1_edges_0xfffffffe>:
I_sltu_cg_cp_rs1_edges_0xfffffffe:
  sltu x28, x16, x17 # perform operation
    129c:	01183e33          	sltu	x28,x16,x17
  # Check if x28 contains the expected result. x6 is the signature ptr, x5 is the link ptr, x4 is a temp reg.
  RVTEST_SIGUPD(x6, x5, x4, x28, I_sltu_cg_cp_rs1_edges_0xfffffffe, I_sltu_cg_cp_rs1_edges_0xfffffffe_str)
    12a0:	00032203          	lw	x4,0(x6)
    12a4:	01c20863          	beq	x4,x28,12b4 <I_sltu_cg_cp_rs1_edges_0xfffffffe+0x18>
    12a8:	254032ef          	jal	x5,44fc <failedtest_x5_x4>
    12ac:	0000129c          	.word	0x0000129c
    12b0:	0000a0e1          	.word	0x0000a0e1
    12b4:	00430313          	addi	x6,x6,4

# Testcase cp_rs1_edges (Test source rs1 value = 0x5bbc8872)
  RVTEST_TESTDATA_LOAD_INT(x11, x20) # load rs1: x20 = 0x5bbc8872
    12b8:	0005aa03          	lw	x20,0(x11)
    12bc:	00458593          	addi	x11,x11,4
  RVTEST_TESTDATA_LOAD_INT(x11, x13) # load rs2: x13 = 0xdcd33e27
    12c0:	0005a683          	lw	x13,0(x11)
    12c4:	00458593          	addi	x11,x11,4

000012c8 <I_sltu_cg_cp_rs1_edges_0x5bbc8872>:
I_sltu_cg_cp_rs1_edges_0x5bbc8872:
  sltu x1, x20, x13 # perform operation
    12c8:	00da30b3          	sltu	x1,x20,x13
  # Check if x1 contains the expected result. x6 is the signature ptr, x5 is the link ptr, x4 is a temp reg.
  RVTEST_SIGUPD(x6, x5, x4, x1, I_sltu_cg_cp_rs1_edges_0x5bbc8872, I_sltu_cg_cp_rs1_edges_0x5bbc8872_str)
    12cc:	00032203          	lw	x4,0(x6)
    12d0:	00120863          	beq	x4,x1,12e0 <I_sltu_cg_cp_rs1_edges_0x5bbc8872+0x18>
    12d4:	228032ef          	jal	x5,44fc <failedtest_x5_x4>
    12d8:	000012c8          	.word	0x000012c8
    12dc:	0000a11f          	.word	0x0000a11f
    12e0:	00430313          	addi	x6,x6,4

# Testcase cp_rs1_edges (Test source rs1 value = 0xaaaaaaaa)
  RVTEST_TESTDATA_LOAD_INT(x11, x7) # load rs1: x7 = 0xaaaaaaaa
    12e4:	0005a383          	lw	x7,0(x11)
    12e8:	00458593          	addi	x11,x11,4
  RVTEST_TESTDATA_LOAD_INT(x11, x20) # load rs2: x20 = 0x48349acb
    12ec:	0005aa03          	lw	x20,0(x11)
    12f0:	00458593          	addi	x11,x11,4

000012f4 <I_sltu_cg_cp_rs1_edges_0xaaaaaaaa>:
I_sltu_cg_cp_rs1_edges_0xaaaaaaaa:
  sltu x1, x7, x20 # perform operation
    12f4:	0143b0b3          	sltu	x1,x7,x20
  # Check if x1 contains the expected result. x6 is the signature ptr, x5 is the link ptr, x4 is a temp reg.
  RVTEST_SIGUPD(x6, x5, x4, x1, I_sltu_cg_cp_rs1_edges_0xaaaaaaaa, I_sltu_cg_cp_rs1_edges_0xaaaaaaaa_str)
    12f8:	00032203          	lw	x4,0(x6)
    12fc:	00120863          	beq	x4,x1,130c <I_sltu_cg_cp_rs1_edges_0xaaaaaaaa+0x18>
    1300:	1fc032ef          	jal	x5,44fc <failedtest_x5_x4>
    1304:	000012f4          	.word	0x000012f4
    1308:	0000a15d          	.word	0x0000a15d
    130c:	00430313          	addi	x6,x6,4

# Testcase cp_rs1_edges (Test source rs1 value = 0x55555555)
  RVTEST_TESTDATA_LOAD_INT(x11, x17) # load rs1: x17 = 0x55555555
    1310:	0005a883          	lw	x17,0(x11)
    1314:	00458593          	addi	x11,x11,4
  RVTEST_TESTDATA_LOAD_INT(x11, x25) # load rs2: x25 = 0xc387ee26
    1318:	0005ac83          	lw	x25,0(x11)
    131c:	00458593          	addi	x11,x11,4

00001320 <I_sltu_cg_cp_rs1_edges_0x55555555>:
I_sltu_cg_cp_rs1_edges_0x55555555:
  sltu x31, x17, x25 # perform operation
    1320:	0198bfb3          	sltu	x31,x17,x25
  # Check if x31 contains the expected result. x6 is the signature ptr, x5 is the link ptr, x4 is a temp reg.
  RVTEST_SIGUPD(x6, x5, x4, x31, I_sltu_cg_cp_rs1_edges_0x55555555, I_sltu_cg_cp_rs1_edges_0x55555555_str)
    1324:	00032203          	lw	x4,0(x6)
    1328:	01f20863          	beq	x4,x31,1338 <I_sltu_cg_cp_rs1_edges_0x55555555+0x18>
    132c:	1d0032ef          	jal	x5,44fc <failedtest_x5_x4>
    1330:	00001320          	.word	0x00001320
    1334:	0000a19b          	.word	0x0000a19b
    1338:	00430313          	addi	x6,x6,4
/////////////////////////////////
// cp_rs2_edges
/////////////////////////////////

# Testcase cp_rs2_edges (Test source rs2 value = 0x00000000)
  RVTEST_TESTDATA_LOAD_INT(x11, x29) # load rs1: x29 = 0x82121678
    133c:	0005ae83          	lw	x29,0(x11)
    1340:	00458593          	addi	x11,x11,4
  RVTEST_TESTDATA_LOAD_INT(x11, x3) # load rs2: x3 = 0x00000000
    1344:	0005a183          	lw	x3,0(x11)
    1348:	00458593          	addi	x11,x11,4

0000134c <I_sltu_cg_cp_rs2_edges_0x0>:
I_sltu_cg_cp_rs2_edges_0x0:
  sltu x1, x29, x3 # perform operation
    134c:	003eb0b3          	sltu	x1,x29,x3
  # Check if x1 contains the expected result. x6 is the signature ptr, x5 is the link ptr, x4 is a temp reg.
  RVTEST_SIGUPD(x6, x5, x4, x1, I_sltu_cg_cp_rs2_edges_0x0, I_sltu_cg_cp_rs2_edges_0x0_str)
    1350:	00032203          	lw	x4,0(x6)
    1354:	00120863          	beq	x4,x1,1364 <I_sltu_cg_cp_rs2_edges_0x0+0x18>
    1358:	1a4032ef          	jal	x5,44fc <failedtest_x5_x4>
    135c:	0000134c          	.word	0x0000134c
    1360:	0000a1d9          	.word	0x0000a1d9
    1364:	00430313          	addi	x6,x6,4

# Testcase cp_rs2_edges (Test source rs2 value = 0x00000001)
  RVTEST_TESTDATA_LOAD_INT(x11, x24) # load rs1: x24 = 0x98fbabea
    1368:	0005ac03          	lw	x24,0(x11)
    136c:	00458593          	addi	x11,x11,4
  RVTEST_TESTDATA_LOAD_INT(x11, x29) # load rs2: x29 = 0x00000001
    1370:	0005ae83          	lw	x29,0(x11)
    1374:	00458593          	addi	x11,x11,4

00001378 <I_sltu_cg_cp_rs2_edges_0x1>:
I_sltu_cg_cp_rs2_edges_0x1:
  sltu x3, x24, x29 # perform operation
    1378:	01dc31b3          	sltu	x3,x24,x29
  # Check if x3 contains the expected result. x6 is the signature ptr, x5 is the link ptr, x4 is a temp reg.
  RVTEST_SIGUPD(x6, x5, x4, x3, I_sltu_cg_cp_rs2_edges_0x1, I_sltu_cg_cp_rs2_edges_0x1_str)
    137c:	00032203          	lw	x4,0(x6)
    1380:	00320863          	beq	x4,x3,1390 <I_sltu_cg_cp_rs2_edges_0x1+0x18>
    1384:	178032ef          	jal	x5,44fc <failedtest_x5_x4>
    1388:	00001378          	.word	0x00001378
    138c:	0000a210          	.word	0x0000a210
    1390:	00430313          	addi	x6,x6,4

# Testcase cp_rs2_edges (Test source rs2 value = 0x00000002)
  RVTEST_TESTDATA_LOAD_INT(x11, x13) # load rs1: x13 = 0x8296dedc
    1394:	0005a683          	lw	x13,0(x11)
    1398:	00458593          	addi	x11,x11,4
  RVTEST_TESTDATA_LOAD_INT(x11, x23) # load rs2: x23 = 0x00000002
    139c:	0005ab83          	lw	x23,0(x11)
    13a0:	00458593          	addi	x11,x11,4

000013a4 <I_sltu_cg_cp_rs2_edges_0x2>:
I_sltu_cg_cp_rs2_edges_0x2:
  sltu x18, x13, x23 # perform operation
    13a4:	0176b933          	sltu	x18,x13,x23
  # Check if x18 contains the expected result. x6 is the signature ptr, x5 is the link ptr, x4 is a temp reg.
  RVTEST_SIGUPD(x6, x5, x4, x18, I_sltu_cg_cp_rs2_edges_0x2, I_sltu_cg_cp_rs2_edges_0x2_str)
    13a8:	00032203          	lw	x4,0(x6)
    13ac:	01220863          	beq	x4,x18,13bc <I_sltu_cg_cp_rs2_edges_0x2+0x18>
    13b0:	14c032ef          	jal	x5,44fc <failedtest_x5_x4>
    13b4:	000013a4          	.word	0x000013a4
    13b8:	0000a247          	.word	0x0000a247
    13bc:	00430313          	addi	x6,x6,4

# Testcase cp_rs2_edges (Test source rs2 value = 0x80000000)
  RVTEST_TESTDATA_LOAD_INT(x11, x2) # load rs1: x2 = 0x65ed62df
    13c0:	0005a103          	lw	x2,0(x11)
    13c4:	00458593          	addi	x11,x11,4
  RVTEST_TESTDATA_LOAD_INT(x11, x16) # load rs2: x16 = 0x80000000
    13c8:	0005a803          	lw	x16,0(x11)
    13cc:	00458593          	addi	x11,x11,4

000013d0 <I_sltu_cg_cp_rs2_edges_0x80000000>:
I_sltu_cg_cp_rs2_edges_0x80000000:
  sltu x9, x2, x16 # perform operation
    13d0:	010134b3          	sltu	x9,x2,x16
  # Check if x9 contains the expected result. x6 is the signature ptr, x5 is the link ptr, x4 is a temp reg.
  RVTEST_SIGUPD(x6, x5, x4, x9, I_sltu_cg_cp_rs2_edges_0x80000000, I_sltu_cg_cp_rs2_edges_0x80000000_str)
    13d4:	00032203          	lw	x4,0(x6)
    13d8:	00920863          	beq	x4,x9,13e8 <I_sltu_cg_cp_rs2_edges_0x80000000+0x18>
    13dc:	120032ef          	jal	x5,44fc <failedtest_x5_x4>
    13e0:	000013d0          	.word	0x000013d0
    13e4:	0000a27e          	.word	0x0000a27e
    13e8:	00430313          	addi	x6,x6,4

# Testcase cp_rs2_edges (Test source rs2 value = 0x80000001)
  RVTEST_TESTDATA_LOAD_INT(x11, x28) # load rs1: x28 = 0xb0394fdb
    13ec:	0005ae03          	lw	x28,0(x11)
    13f0:	00458593          	addi	x11,x11,4
  RVTEST_TESTDATA_LOAD_INT(x11, x9) # load rs2: x9 = 0x80000001
    13f4:	0005a483          	lw	x9,0(x11)
    13f8:	00458593          	addi	x11,x11,4

000013fc <I_sltu_cg_cp_rs2_edges_0x80000001>:
I_sltu_cg_cp_rs2_edges_0x80000001:
  sltu x24, x28, x9 # perform operation
    13fc:	009e3c33          	sltu	x24,x28,x9
  # Check if x24 contains the expected result. x6 is the signature ptr, x5 is the link ptr, x4 is a temp reg.
  RVTEST_SIGUPD(x6, x5, x4, x24, I_sltu_cg_cp_rs2_edges_0x80000001, I_sltu_cg_cp_rs2_edges_0x80000001_str)
    1400:	00032203          	lw	x4,0(x6)
    1404:	01820863          	beq	x4,x24,1414 <I_sltu_cg_cp_rs2_edges_0x80000001+0x18>
    1408:	0f4032ef          	jal	x5,44fc <failedtest_x5_x4>
    140c:	000013fc          	.word	0x000013fc
    1410:	0000a2bc          	.word	0x0000a2bc
    1414:	00430313          	addi	x6,x6,4

# Testcase cp_rs2_edges (Test source rs2 value = 0x7fffffff)
  RVTEST_TESTDATA_LOAD_INT(x11, x16) # load rs1: x16 = 0xacdbc2d4
    1418:	0005a803          	lw	x16,0(x11)
    141c:	00458593          	addi	x11,x11,4
  RVTEST_TESTDATA_LOAD_INT(x11, x18) # load rs2: x18 = 0x7fffffff
    1420:	0005a903          	lw	x18,0(x11)
    1424:	00458593          	addi	x11,x11,4

00001428 <I_sltu_cg_cp_rs2_edges_0x7fffffff>:
I_sltu_cg_cp_rs2_edges_0x7fffffff:
  sltu x14, x16, x18 # perform operation
    1428:	01283733          	sltu	x14,x16,x18
  # Check if x14 contains the expected result. x6 is the signature ptr, x5 is the link ptr, x4 is a temp reg.
  RVTEST_SIGUPD(x6, x5, x4, x14, I_sltu_cg_cp_rs2_edges_0x7fffffff, I_sltu_cg_cp_rs2_edges_0x7fffffff_str)
    142c:	00032203          	lw	x4,0(x6)
    1430:	00e20863          	beq	x4,x14,1440 <I_sltu_cg_cp_rs2_edges_0x7fffffff+0x18>
    1434:	0c8032ef          	jal	x5,44fc <failedtest_x5_x4>
    1438:	00001428          	.word	0x00001428
    143c:	0000a2fa          	.word	0x0000a2fa
    1440:	00430313          	addi	x6,x6,4

# Testcase cp_rs2_edges (Test source rs2 value = 0x7ffffffe)
  RVTEST_TESTDATA_LOAD_INT(x11, x31) # load rs1: x31 = 0x3c9e76d8
    1444:	0005af83          	lw	x31,0(x11)
    1448:	00458593          	addi	x11,x11,4
  RVTEST_TESTDATA_LOAD_INT(x11, x15) # load rs2: x15 = 0x7ffffffe
    144c:	0005a783          	lw	x15,0(x11)
    1450:	00458593          	addi	x11,x11,4

00001454 <I_sltu_cg_cp_rs2_edges_0x7ffffffe>:
I_sltu_cg_cp_rs2_edges_0x7ffffffe:
  sltu x12, x31, x15 # perform operation
    1454:	00ffb633          	sltu	x12,x31,x15
  # Check if x12 contains the expected result. x6 is the signature ptr, x5 is the link ptr, x4 is a temp reg.
  RVTEST_SIGUPD(x6, x5, x4, x12, I_sltu_cg_cp_rs2_edges_0x7ffffffe, I_sltu_cg_cp_rs2_edges_0x7ffffffe_str)
    1458:	00032203          	lw	x4,0(x6)
    145c:	00c20863          	beq	x4,x12,146c <I_sltu_cg_cp_rs2_edges_0x7ffffffe+0x18>
    1460:	09c032ef          	jal	x5,44fc <failedtest_x5_x4>
    1464:	00001454          	.word	0x00001454
    1468:	0000a338          	.word	0x0000a338
    146c:	00430313          	addi	x6,x6,4

# Testcase cp_rs2_edges (Test source rs2 value = 0xffffffff)
  RVTEST_TESTDATA_LOAD_INT(x11, x15) # load rs1: x15 = 0xab1e4206
    1470:	0005a783          	lw	x15,0(x11)
    1474:	00458593          	addi	x11,x11,4
  RVTEST_TESTDATA_LOAD_INT(x11, x21) # load rs2: x21 = 0xffffffff
    1478:	0005aa83          	lw	x21,0(x11)
    147c:	00458593          	addi	x11,x11,4

00001480 <I_sltu_cg_cp_rs2_edges_0xffffffff>:
I_sltu_cg_cp_rs2_edges_0xffffffff:
  sltu x28, x15, x21 # perform operation
    1480:	0157be33          	sltu	x28,x15,x21
  # Check if x28 contains the expected result. x6 is the signature ptr, x5 is the link ptr, x4 is a temp reg.
  RVTEST_SIGUPD(x6, x5, x4, x28, I_sltu_cg_cp_rs2_edges_0xffffffff, I_sltu_cg_cp_rs2_edges_0xffffffff_str)
    1484:	00032203          	lw	x4,0(x6)
    1488:	01c20863          	beq	x4,x28,1498 <I_sltu_cg_cp_rs2_edges_0xffffffff+0x18>
    148c:	070032ef          	jal	x5,44fc <failedtest_x5_x4>
    1490:	00001480          	.word	0x00001480
    1494:	0000a376          	.word	0x0000a376
    1498:	00430313          	addi	x6,x6,4

# Testcase cp_rs2_edges (Test source rs2 value = 0xfffffffe)
  RVTEST_TESTDATA_LOAD_INT(x11, x22) # load rs1: x22 = 0x8c0f826f
    149c:	0005ab03          	lw	x22,0(x11)
    14a0:	00458593          	addi	x11,x11,4
  RVTEST_TESTDATA_LOAD_INT(x11, x1) # load rs2: x1 = 0xfffffffe
    14a4:	0005a083          	lw	x1,0(x11)
    14a8:	00458593          	addi	x11,x11,4

000014ac <I_sltu_cg_cp_rs2_edges_0xfffffffe>:
I_sltu_cg_cp_rs2_edges_0xfffffffe:
  sltu x31, x22, x1 # perform operation
    14ac:	001b3fb3          	sltu	x31,x22,x1
  # Check if x31 contains the expected result. x6 is the signature ptr, x5 is the link ptr, x4 is a temp reg.
  RVTEST_SIGUPD(x6, x5, x4, x31, I_sltu_cg_cp_rs2_edges_0xfffffffe, I_sltu_cg_cp_rs2_edges_0xfffffffe_str)
    14b0:	00032203          	lw	x4,0(x6)
    14b4:	01f20863          	beq	x4,x31,14c4 <I_sltu_cg_cp_rs2_edges_0xfffffffe+0x18>
    14b8:	044032ef          	jal	x5,44fc <failedtest_x5_x4>
    14bc:	000014ac          	.word	0x000014ac
    14c0:	0000a3b4          	.word	0x0000a3b4
    14c4:	00430313          	addi	x6,x6,4

# Testcase cp_rs2_edges (Test source rs2 value = 0x5bbc8872)
  RVTEST_TESTDATA_LOAD_INT(x11, x29) # load rs1: x29 = 0xf52b9fca
    14c8:	0005ae83          	lw	x29,0(x11)
    14cc:	00458593          	addi	x11,x11,4
  RVTEST_TESTDATA_LOAD_INT(x11, x2) # load rs2: x2 = 0x5bbc8872
    14d0:	0005a103          	lw	x2,0(x11)
    14d4:	00458593          	addi	x11,x11,4

000014d8 <I_sltu_cg_cp_rs2_edges_0x5bbc8872>:
I_sltu_cg_cp_rs2_edges_0x5bbc8872:
  sltu x30, x29, x2 # perform operation
    14d8:	002ebf33          	sltu	x30,x29,x2
  # Check if x30 contains the expected result. x6 is the signature ptr, x5 is the link ptr, x4 is a temp reg.
  RVTEST_SIGUPD(x6, x5, x4, x30, I_sltu_cg_cp_rs2_edges_0x5bbc8872, I_sltu_cg_cp_rs2_edges_0x5bbc8872_str)
    14dc:	00032203          	lw	x4,0(x6)
    14e0:	01e20863          	beq	x4,x30,14f0 <I_sltu_cg_cp_rs2_edges_0x5bbc8872+0x18>
    14e4:	018032ef          	jal	x5,44fc <failedtest_x5_x4>
    14e8:	000014d8          	.word	0x000014d8
    14ec:	0000a3f2          	.word	0x0000a3f2
    14f0:	00430313          	addi	x6,x6,4

# Testcase cp_rs2_edges (Test source rs2 value = 0xaaaaaaaa)
  RVTEST_TESTDATA_LOAD_INT(x11, x1) # load rs1: x1 = 0x3a259c35
    14f4:	0005a083          	lw	x1,0(x11)
    14f8:	00458593          	addi	x11,x11,4
  RVTEST_TESTDATA_LOAD_INT(x11, x27) # load rs2: x27 = 0xaaaaaaaa
    14fc:	0005ad83          	lw	x27,0(x11)
    1500:	00458593          	addi	x11,x11,4

00001504 <I_sltu_cg_cp_rs2_edges_0xaaaaaaaa>:
I_sltu_cg_cp_rs2_edges_0xaaaaaaaa:
  sltu x2, x1, x27 # perform operation
    1504:	01b0b133          	sltu	x2,x1,x27
  # Check if x2 contains the expected result. x6 is the signature ptr, x5 is the link ptr, x4 is a temp reg.
  RVTEST_SIGUPD(x6, x5, x4, x2, I_sltu_cg_cp_rs2_edges_0xaaaaaaaa, I_sltu_cg_cp_rs2_edges_0xaaaaaaaa_str)
    1508:	00032203          	lw	x4,0(x6)
    150c:	00220863          	beq	x4,x2,151c <I_sltu_cg_cp_rs2_edges_0xaaaaaaaa+0x18>
    1510:	7ed022ef          	jal	x5,44fc <failedtest_x5_x4>
    1514:	00001504          	.word	0x00001504
    1518:	0000a430          	.word	0x0000a430
    151c:	00430313          	addi	x6,x6,4

# Testcase cp_rs2_edges (Test source rs2 value = 0x55555555)
  RVTEST_TESTDATA_LOAD_INT(x11, x9) # load rs1: x9 = 0x0b54445b
    1520:	0005a483          	lw	x9,0(x11)
    1524:	00458593          	addi	x11,x11,4
  RVTEST_TESTDATA_LOAD_INT(x11, x21) # load rs2: x21 = 0x55555555
    1528:	0005aa83          	lw	x21,0(x11)
    152c:	00458593          	addi	x11,x11,4

00001530 <I_sltu_cg_cp_rs2_edges_0x55555555>:
I_sltu_cg_cp_rs2_edges_0x55555555:
  sltu x30, x9, x21 # perform operation
    1530:	0154bf33          	sltu	x30,x9,x21
  # Check if x30 contains the expected result. x6 is the signature ptr, x5 is the link ptr, x4 is a temp reg.
  RVTEST_SIGUPD(x6, x5, x4, x30, I_sltu_cg_cp_rs2_edges_0x55555555, I_sltu_cg_cp_rs2_edges_0x55555555_str)
    1534:	00032203          	lw	x4,0(x6)
    1538:	01e20863          	beq	x4,x30,1548 <I_sltu_cg_cp_rs2_edges_0x55555555+0x18>
    153c:	7c1022ef          	jal	x5,44fc <failedtest_x5_x4>
    1540:	00001530          	.word	0x00001530
    1544:	0000a46e          	.word	0x0000a46e
    1548:	00430313          	addi	x6,x6,4
/////////////////////////////////
// cr_rs1_rs2_edges
/////////////////////////////////

# Testcase cr_rs1_rs2_edges (Test source rs1 = 0x00000000 rs2 = 0x00000000)
  RVTEST_TESTDATA_LOAD_INT(x11, x25) # load rs1: x25 = 0x00000000
    154c:	0005ac83          	lw	x25,0(x11)
    1550:	00458593          	addi	x11,x11,4
  RVTEST_TESTDATA_LOAD_INT(x11, x28) # load rs2: x28 = 0x00000000
    1554:	0005ae03          	lw	x28,0(x11)
    1558:	00458593          	addi	x11,x11,4

0000155c <I_sltu_cg_cr_rs1_rs2_edges_rs1val_0x0_rs2val_0x0>:
I_sltu_cg_cr_rs1_rs2_edges_rs1val_0x0_rs2val_0x0:
  sltu x31, x25, x28 # perform operation
    155c:	01ccbfb3          	sltu	x31,x25,x28
  # Check if x31 contains the expected result. x6 is the signature ptr, x5 is the link ptr, x4 is a temp reg.
  RVTEST_SIGUPD(x6, x5, x4, x31, I_sltu_cg_cr_rs1_rs2_edges_rs1val_0x0_rs2val_0x0, I_sltu_cg_cr_rs1_rs2_edges_rs1val_0x0_rs2val_0x0_str)
    1560:	00032203          	lw	x4,0(x6)
    1564:	01f20863          	beq	x4,x31,1574 <I_sltu_cg_cr_rs1_rs2_edges_rs1val_0x0_rs2val_0x0+0x18>
    1568:	795022ef          	jal	x5,44fc <failedtest_x5_x4>
    156c:	0000155c          	.word	0x0000155c
    1570:	0000a4ac          	.word	0x0000a4ac
    1574:	00430313          	addi	x6,x6,4

# Testcase cr_rs1_rs2_edges (Test source rs1 = 0x00000000 rs2 = 0x00000001)
  RVTEST_TESTDATA_LOAD_INT(x11, x29) # load rs1: x29 = 0x00000000
    1578:	0005ae83          	lw	x29,0(x11)
    157c:	00458593          	addi	x11,x11,4
  RVTEST_TESTDATA_LOAD_INT(x11, x22) # load rs2: x22 = 0x00000001
    1580:	0005ab03          	lw	x22,0(x11)
    1584:	00458593          	addi	x11,x11,4

00001588 <I_sltu_cg_cr_rs1_rs2_edges_rs1val_0x0_rs2val_0x1>:
I_sltu_cg_cr_rs1_rs2_edges_rs1val_0x0_rs2val_0x1:
  sltu x9, x29, x22 # perform operation
    1588:	016eb4b3          	sltu	x9,x29,x22
  # Check if x9 contains the expected result. x6 is the signature ptr, x5 is the link ptr, x4 is a temp reg.
  RVTEST_SIGUPD(x6, x5, x4, x9, I_sltu_cg_cr_rs1_rs2_edges_rs1val_0x0_rs2val_0x1, I_sltu_cg_cr_rs1_rs2_edges_rs1val_0x0_rs2val_0x1_str)
    158c:	00032203          	lw	x4,0(x6)
    1590:	00920863          	beq	x4,x9,15a0 <I_sltu_cg_cr_rs1_rs2_edges_rs1val_0x0_rs2val_0x1+0x18>
    1594:	769022ef          	jal	x5,44fc <failedtest_x5_x4>
    1598:	00001588          	.word	0x00001588
    159c:	0000a4fa          	.word	0x0000a4fa
    15a0:	00430313          	addi	x6,x6,4

# Testcase cr_rs1_rs2_edges (Test source rs1 = 0x00000000 rs2 = 0x00000002)
  RVTEST_TESTDATA_LOAD_INT(x11, x1) # load rs1: x1 = 0x00000000
    15a4:	0005a083          	lw	x1,0(x11)
    15a8:	00458593          	addi	x11,x11,4
  RVTEST_TESTDATA_LOAD_INT(x11, x23) # load rs2: x23 = 0x00000002
    15ac:	0005ab83          	lw	x23,0(x11)
    15b0:	00458593          	addi	x11,x11,4

000015b4 <I_sltu_cg_cr_rs1_rs2_edges_rs1val_0x0_rs2val_0x2>:
I_sltu_cg_cr_rs1_rs2_edges_rs1val_0x0_rs2val_0x2:
  sltu x27, x1, x23 # perform operation
    15b4:	0170bdb3          	sltu	x27,x1,x23
  # Check if x27 contains the expected result. x6 is the signature ptr, x5 is the link ptr, x4 is a temp reg.
  RVTEST_SIGUPD(x6, x5, x4, x27, I_sltu_cg_cr_rs1_rs2_edges_rs1val_0x0_rs2val_0x2, I_sltu_cg_cr_rs1_rs2_edges_rs1val_0x0_rs2val_0x2_str)
    15b8:	00032203          	lw	x4,0(x6)
    15bc:	01b20863          	beq	x4,x27,15cc <I_sltu_cg_cr_rs1_rs2_edges_rs1val_0x0_rs2val_0x2+0x18>
    15c0:	73d022ef          	jal	x5,44fc <failedtest_x5_x4>
    15c4:	000015b4          	.word	0x000015b4
    15c8:	0000a548          	.word	0x0000a548
    15cc:	00430313          	addi	x6,x6,4

# Testcase cr_rs1_rs2_edges (Test source rs1 = 0x00000000 rs2 = 0x80000000)
  RVTEST_TESTDATA_LOAD_INT(x11, x28) # load rs1: x28 = 0x00000000
    15d0:	0005ae03          	lw	x28,0(x11)
    15d4:	00458593          	addi	x11,x11,4
  RVTEST_TESTDATA_LOAD_INT(x11, x13) # load rs2: x13 = 0x80000000
    15d8:	0005a683          	lw	x13,0(x11)
    15dc:	00458593          	addi	x11,x11,4

000015e0 <I_sltu_cg_cr_rs1_rs2_edges_rs1val_0x0_rs2val_0x80000000>:
I_sltu_cg_cr_rs1_rs2_edges_rs1val_0x0_rs2val_0x80000000:
  sltu x9, x28, x13 # perform operation
    15e0:	00de34b3          	sltu	x9,x28,x13
  # Check if x9 contains the expected result. x6 is the signature ptr, x5 is the link ptr, x4 is a temp reg.
  RVTEST_SIGUPD(x6, x5, x4, x9, I_sltu_cg_cr_rs1_rs2_edges_rs1val_0x0_rs2val_0x80000000, I_sltu_cg_cr_rs1_rs2_edges_rs1val_0x0_rs2val_0x80000000_str)
    15e4:	00032203          	lw	x4,0(x6)
    15e8:	00920863          	beq	x4,x9,15f8 <I_sltu_cg_cr_rs1_rs2_edges_rs1val_0x0_rs2val_0x80000000+0x18>
    15ec:	711022ef          	jal	x5,44fc <failedtest_x5_x4>
    15f0:	000015e0          	.word	0x000015e0
    15f4:	0000a596          	.word	0x0000a596
    15f8:	00430313          	addi	x6,x6,4

# Testcase cr_rs1_rs2_edges (Test source rs1 = 0x00000000 rs2 = 0x80000001)
  RVTEST_TESTDATA_LOAD_INT(x11, x21) # load rs1: x21 = 0x00000000
    15fc:	0005aa83          	lw	x21,0(x11)
    1600:	00458593          	addi	x11,x11,4
  RVTEST_TESTDATA_LOAD_INT(x11, x29) # load rs2: x29 = 0x80000001
    1604:	0005ae83          	lw	x29,0(x11)
    1608:	00458593          	addi	x11,x11,4

0000160c <I_sltu_cg_cr_rs1_rs2_edges_rs1val_0x0_rs2val_0x80000001>:
I_sltu_cg_cr_rs1_rs2_edges_rs1val_0x0_rs2val_0x80000001:
  sltu x10, x21, x29 # perform operation
    160c:	01dab533          	sltu	x10,x21,x29
  # Check if x10 contains the expected result. x6 is the signature ptr, x5 is the link ptr, x4 is a temp reg.
  RVTEST_SIGUPD(x6, x5, x4, x10, I_sltu_cg_cr_rs1_rs2_edges_rs1val_0x0_rs2val_0x80000001, I_sltu_cg_cr_rs1_rs2_edges_rs1val_0x0_rs2val_0x80000001_str)
    1610:	00032203          	lw	x4,0(x6)
    1614:	00a20863          	beq	x4,x10,1624 <I_sltu_cg_cr_rs1_rs2_edges_rs1val_0x0_rs2val_0x80000001+0x18>
    1618:	6e5022ef          	jal	x5,44fc <failedtest_x5_x4>
    161c:	0000160c          	.word	0x0000160c
    1620:	0000a5eb          	.word	0x0000a5eb
    1624:	00430313          	addi	x6,x6,4

# Testcase cr_rs1_rs2_edges (Test source rs1 = 0x00000000 rs2 = 0x7fffffff)
  RVTEST_TESTDATA_LOAD_INT(x11, x1) # load rs1: x1 = 0x00000000
    1628:	0005a083          	lw	x1,0(x11)
    162c:	00458593          	addi	x11,x11,4
  RVTEST_TESTDATA_LOAD_INT(x11, x15) # load rs2: x15 = 0x7fffffff
    1630:	0005a783          	lw	x15,0(x11)
    1634:	00458593          	addi	x11,x11,4

00001638 <I_sltu_cg_cr_rs1_rs2_edges_rs1val_0x0_rs2val_0x7fffffff>:
I_sltu_cg_cr_rs1_rs2_edges_rs1val_0x0_rs2val_0x7fffffff:
  sltu x28, x1, x15 # perform operation
    1638:	00f0be33          	sltu	x28,x1,x15
  # Check if x28 contains the expected result. x6 is the signature ptr, x5 is the link ptr, x4 is a temp reg.
  RVTEST_SIGUPD(x6, x5, x4, x28, I_sltu_cg_cr_rs1_rs2_edges_rs1val_0x0_rs2val_0x7fffffff, I_sltu_cg_cr_rs1_rs2_edges_rs1val_0x0_rs2val_0x7fffffff_str)
    163c:	00032203          	lw	x4,0(x6)
    1640:	01c20863          	beq	x4,x28,1650 <I_sltu_cg_cr_rs1_rs2_edges_rs1val_0x0_rs2val_0x7fffffff+0x18>
    1644:	6b9022ef          	jal	x5,44fc <failedtest_x5_x4>
    1648:	00001638          	.word	0x00001638
    164c:	0000a640          	.word	0x0000a640
    1650:	00430313          	addi	x6,x6,4

# Testcase cr_rs1_rs2_edges (Test source rs1 = 0x00000000 rs2 = 0x7ffffffe)
  RVTEST_TESTDATA_LOAD_INT(x11, x18) # load rs1: x18 = 0x00000000
    1654:	0005a903          	lw	x18,0(x11)
    1658:	00458593          	addi	x11,x11,4
  RVTEST_TESTDATA_LOAD_INT(x11, x13) # load rs2: x13 = 0x7ffffffe
    165c:	0005a683          	lw	x13,0(x11)
    1660:	00458593          	addi	x11,x11,4

00001664 <I_sltu_cg_cr_rs1_rs2_edges_rs1val_0x0_rs2val_0x7ffffffe>:
I_sltu_cg_cr_rs1_rs2_edges_rs1val_0x0_rs2val_0x7ffffffe:
  sltu x22, x18, x13 # perform operation
    1664:	00d93b33          	sltu	x22,x18,x13
  # Check if x22 contains the expected result. x6 is the signature ptr, x5 is the link ptr, x4 is a temp reg.
  RVTEST_SIGUPD(x6, x5, x4, x22, I_sltu_cg_cr_rs1_rs2_edges_rs1val_0x0_rs2val_0x7ffffffe, I_sltu_cg_cr_rs1_rs2_edges_rs1val_0x0_rs2val_0x7ffffffe_str)
    1668:	00032203          	lw	x4,0(x6)
    166c:	01620863          	beq	x4,x22,167c <I_sltu_cg_cr_rs1_rs2_edges_rs1val_0x0_rs2val_0x7ffffffe+0x18>
    1670:	68d022ef          	jal	x5,44fc <failedtest_x5_x4>
    1674:	00001664          	.word	0x00001664
    1678:	0000a695          	.word	0x0000a695
    167c:	00430313          	addi	x6,x6,4

# Testcase cr_rs1_rs2_edges (Test source rs1 = 0x00000000 rs2 = 0xffffffff)
  RVTEST_TESTDATA_LOAD_INT(x11, x13) # load rs1: x13 = 0x00000000
    1680:	0005a683          	lw	x13,0(x11)
    1684:	00458593          	addi	x11,x11,4
  RVTEST_TESTDATA_LOAD_INT(x11, x31) # load rs2: x31 = 0xffffffff
    1688:	0005af83          	lw	x31,0(x11)
    168c:	00458593          	addi	x11,x11,4

00001690 <I_sltu_cg_cr_rs1_rs2_edges_rs1val_0x0_rs2val_0xffffffff>:
I_sltu_cg_cr_rs1_rs2_edges_rs1val_0x0_rs2val_0xffffffff:
  sltu x9, x13, x31 # perform operation
    1690:	01f6b4b3          	sltu	x9,x13,x31
  # Check if x9 contains the expected result. x6 is the signature ptr, x5 is the link ptr, x4 is a temp reg.
  RVTEST_SIGUPD(x6, x5, x4, x9, I_sltu_cg_cr_rs1_rs2_edges_rs1val_0x0_rs2val_0xffffffff, I_sltu_cg_cr_rs1_rs2_edges_rs1val_0x0_rs2val_0xffffffff_str)
    1694:	00032203          	lw	x4,0(x6)
    1698:	00920863          	beq	x4,x9,16a8 <I_sltu_cg_cr_rs1_rs2_edges_rs1val_0x0_rs2val_0xffffffff+0x18>
    169c:	661022ef          	jal	x5,44fc <failedtest_x5_x4>
    16a0:	00001690          	.word	0x00001690
    16a4:	0000a6ea          	.word	0x0000a6ea
    16a8:	00430313          	addi	x6,x6,4

# Testcase cr_rs1_rs2_edges (Test source rs1 = 0x00000000 rs2 = 0xfffffffe)
  RVTEST_TESTDATA_LOAD_INT(x11, x9) # load rs1: x9 = 0x00000000
    16ac:	0005a483          	lw	x9,0(x11)
    16b0:	00458593          	addi	x11,x11,4
  RVTEST_TESTDATA_LOAD_INT(x11, x2) # load rs2: x2 = 0xfffffffe
    16b4:	0005a103          	lw	x2,0(x11)
    16b8:	00458593          	addi	x11,x11,4

000016bc <I_sltu_cg_cr_rs1_rs2_edges_rs1val_0x0_rs2val_0xfffffffe>:
I_sltu_cg_cr_rs1_rs2_edges_rs1val_0x0_rs2val_0xfffffffe:
  sltu x18, x9, x2 # perform operation
    16bc:	0024b933          	sltu	x18,x9,x2
  # Check if x18 contains the expected result. x6 is the signature ptr, x5 is the link ptr, x4 is a temp reg.
  RVTEST_SIGUPD(x6, x5, x4, x18, I_sltu_cg_cr_rs1_rs2_edges_rs1val_0x0_rs2val_0xfffffffe, I_sltu_cg_cr_rs1_rs2_edges_rs1val_0x0_rs2val_0xfffffffe_str)
    16c0:	00032203          	lw	x4,0(x6)
    16c4:	01220863          	beq	x4,x18,16d4 <I_sltu_cg_cr_rs1_rs2_edges_rs1val_0x0_rs2val_0xfffffffe+0x18>
    16c8:	635022ef          	jal	x5,44fc <failedtest_x5_x4>
    16cc:	000016bc          	.word	0x000016bc
    16d0:	0000a73f          	.word	0x0000a73f
    16d4:	00430313          	addi	x6,x6,4

# Testcase cr_rs1_rs2_edges (Test source rs1 = 0x00000000 rs2 = 0x5bbc8872)
  RVTEST_TESTDATA_LOAD_INT(x11, x14) # load rs1: x14 = 0x00000000
    16d8:	0005a703          	lw	x14,0(x11)
    16dc:	00458593          	addi	x11,x11,4
  RVTEST_TESTDATA_LOAD_INT(x11, x22) # load rs2: x22 = 0x5bbc8872
    16e0:	0005ab03          	lw	x22,0(x11)
    16e4:	00458593          	addi	x11,x11,4

000016e8 <I_sltu_cg_cr_rs1_rs2_edges_rs1val_0x0_rs2val_0x5bbc8872>:
I_sltu_cg_cr_rs1_rs2_edges_rs1val_0x0_rs2val_0x5bbc8872:
  sltu x3, x14, x22 # perform operation
    16e8:	016731b3          	sltu	x3,x14,x22
  # Check if x3 contains the expected result. x6 is the signature ptr, x5 is the link ptr, x4 is a temp reg.
  RVTEST_SIGUPD(x6, x5, x4, x3, I_sltu_cg_cr_rs1_rs2_edges_rs1val_0x0_rs2val_0x5bbc8872, I_sltu_cg_cr_rs1_rs2_edges_rs1val_0x0_rs2val_0x5bbc8872_str)
    16ec:	00032203          	lw	x4,0(x6)
    16f0:	00320863          	beq	x4,x3,1700 <I_sltu_cg_cr_rs1_rs2_edges_rs1val_0x0_rs2val_0x5bbc8872+0x18>
    16f4:	609022ef          	jal	x5,44fc <failedtest_x5_x4>
    16f8:	000016e8          	.word	0x000016e8
    16fc:	0000a794          	.word	0x0000a794
    1700:	00430313          	addi	x6,x6,4

# Testcase cr_rs1_rs2_edges (Test source rs1 = 0x00000000 rs2 = 0xaaaaaaaa)
  RVTEST_TESTDATA_LOAD_INT(x11, x27) # load rs1: x27 = 0x00000000
    1704:	0005ad83          	lw	x27,0(x11)
    1708:	00458593          	addi	x11,x11,4
  RVTEST_TESTDATA_LOAD_INT(x11, x8) # load rs2: x8 = 0xaaaaaaaa
    170c:	0005a403          	lw	x8,0(x11)
    1710:	00458593          	addi	x11,x11,4

00001714 <I_sltu_cg_cr_rs1_rs2_edges_rs1val_0x0_rs2val_0xaaaaaaaa>:
I_sltu_cg_cr_rs1_rs2_edges_rs1val_0x0_rs2val_0xaaaaaaaa:
  sltu x1, x27, x8 # perform operation
    1714:	008db0b3          	sltu	x1,x27,x8
  # Check if x1 contains the expected result. x6 is the signature ptr, x5 is the link ptr, x4 is a temp reg.
  RVTEST_SIGUPD(x6, x5, x4, x1, I_sltu_cg_cr_rs1_rs2_edges_rs1val_0x0_rs2val_0xaaaaaaaa, I_sltu_cg_cr_rs1_rs2_edges_rs1val_0x0_rs2val_0xaaaaaaaa_str)
    1718:	00032203          	lw	x4,0(x6)
    171c:	00120863          	beq	x4,x1,172c <I_sltu_cg_cr_rs1_rs2_edges_rs1val_0x0_rs2val_0xaaaaaaaa+0x18>
    1720:	5dd022ef          	jal	x5,44fc <failedtest_x5_x4>
    1724:	00001714          	.word	0x00001714
    1728:	0000a7e9          	.word	0x0000a7e9
    172c:	00430313          	addi	x6,x6,4

# Testcase cr_rs1_rs2_edges (Test source rs1 = 0x00000000 rs2 = 0x55555555)
  RVTEST_TESTDATA_LOAD_INT(x11, x10) # load rs1: x10 = 0x00000000
    1730:	0005a503          	lw	x10,0(x11)
    1734:	00458593          	addi	x11,x11,4
  RVTEST_TESTDATA_LOAD_INT(x11, x29) # load rs2: x29 = 0x55555555
    1738:	0005ae83          	lw	x29,0(x11)
    173c:	00458593          	addi	x11,x11,4

00001740 <I_sltu_cg_cr_rs1_rs2_edges_rs1val_0x0_rs2val_0x55555555>:
I_sltu_cg_cr_rs1_rs2_edges_rs1val_0x0_rs2val_0x55555555:
  sltu x26, x10, x29 # perform operation
    1740:	01d53d33          	sltu	x26,x10,x29
  # Check if x26 contains the expected result. x6 is the signature ptr, x5 is the link ptr, x4 is a temp reg.
  RVTEST_SIGUPD(x6, x5, x4, x26, I_sltu_cg_cr_rs1_rs2_edges_rs1val_0x0_rs2val_0x55555555, I_sltu_cg_cr_rs1_rs2_edges_rs1val_0x0_rs2val_0x55555555_str)
    1744:	00032203          	lw	x4,0(x6)
    1748:	01a20863          	beq	x4,x26,1758 <I_sltu_cg_cr_rs1_rs2_edges_rs1val_0x0_rs2val_0x55555555+0x18>
    174c:	5b1022ef          	jal	x5,44fc <failedtest_x5_x4>
    1750:	00001740          	.word	0x00001740
    1754:	0000a83e          	.word	0x0000a83e
    1758:	00430313          	addi	x6,x6,4

# Testcase cr_rs1_rs2_edges (Test source rs1 = 0x00000001 rs2 = 0x00000000)
  RVTEST_TESTDATA_LOAD_INT(x11, x16) # load rs1: x16 = 0x00000001
    175c:	0005a803          	lw	x16,0(x11)
    1760:	00458593          	addi	x11,x11,4
  RVTEST_TESTDATA_LOAD_INT(x11, x21) # load rs2: x21 = 0x00000000
    1764:	0005aa83          	lw	x21,0(x11)
    1768:	00458593          	addi	x11,x11,4

0000176c <I_sltu_cg_cr_rs1_rs2_edges_rs1val_0x1_rs2val_0x0>:
I_sltu_cg_cr_rs1_rs2_edges_rs1val_0x1_rs2val_0x0:
  sltu x14, x16, x21 # perform operation
    176c:	01583733          	sltu	x14,x16,x21
  # Check if x14 contains the expected result. x6 is the signature ptr, x5 is the link ptr, x4 is a temp reg.
  RVTEST_SIGUPD(x6, x5, x4, x14, I_sltu_cg_cr_rs1_rs2_edges_rs1val_0x1_rs2val_0x0, I_sltu_cg_cr_rs1_rs2_edges_rs1val_0x1_rs2val_0x0_str)
    1770:	00032203          	lw	x4,0(x6)
    1774:	00e20863          	beq	x4,x14,1784 <I_sltu_cg_cr_rs1_rs2_edges_rs1val_0x1_rs2val_0x0+0x18>
    1778:	585022ef          	jal	x5,44fc <failedtest_x5_x4>
    177c:	0000176c          	.word	0x0000176c
    1780:	0000a893          	.word	0x0000a893
    1784:	00430313          	addi	x6,x6,4

# Testcase cr_rs1_rs2_edges (Test source rs1 = 0x00000001 rs2 = 0x00000001)
  RVTEST_TESTDATA_LOAD_INT(x11, x29) # load rs1: x29 = 0x00000001
    1788:	0005ae83          	lw	x29,0(x11)
    178c:	00458593          	addi	x11,x11,4
  RVTEST_TESTDATA_LOAD_INT(x11, x2) # load rs2: x2 = 0x00000001
    1790:	0005a103          	lw	x2,0(x11)
    1794:	00458593          	addi	x11,x11,4

00001798 <I_sltu_cg_cr_rs1_rs2_edges_rs1val_0x1_rs2val_0x1>:
I_sltu_cg_cr_rs1_rs2_edges_rs1val_0x1_rs2val_0x1:
  sltu x18, x29, x2 # perform operation
    1798:	002eb933          	sltu	x18,x29,x2
  # Check if x18 contains the expected result. x6 is the signature ptr, x5 is the link ptr, x4 is a temp reg.
  RVTEST_SIGUPD(x6, x5, x4, x18, I_sltu_cg_cr_rs1_rs2_edges_rs1val_0x1_rs2val_0x1, I_sltu_cg_cr_rs1_rs2_edges_rs1val_0x1_rs2val_0x1_str)
    179c:	00032203          	lw	x4,0(x6)
    17a0:	01220863          	beq	x4,x18,17b0 <I_sltu_cg_cr_rs1_rs2_edges_rs1val_0x1_rs2val_0x1+0x18>
    17a4:	559022ef          	jal	x5,44fc <failedtest_x5_x4>
    17a8:	00001798          	.word	0x00001798
    17ac:	0000a8e1          	.word	0x0000a8e1
    17b0:	00430313          	addi	x6,x6,4

# Testcase cr_rs1_rs2_edges (Test source rs1 = 0x00000001 rs2 = 0x00000002)
  RVTEST_TESTDATA_LOAD_INT(x11, x3) # load rs1: x3 = 0x00000001
    17b4:	0005a183          	lw	x3,0(x11)
    17b8:	00458593          	addi	x11,x11,4
  RVTEST_TESTDATA_LOAD_INT(x11, x1) # load rs2: x1 = 0x00000002
    17bc:	0005a083          	lw	x1,0(x11)
    17c0:	00458593          	addi	x11,x11,4

000017c4 <I_sltu_cg_cr_rs1_rs2_edges_rs1val_0x1_rs2val_0x2>:
I_sltu_cg_cr_rs1_rs2_edges_rs1val_0x1_rs2val_0x2:
  sltu x27, x3, x1 # perform operation
    17c4:	0011bdb3          	sltu	x27,x3,x1
  # Check if x27 contains the expected result. x6 is the signature ptr, x5 is the link ptr, x4 is a temp reg.
  RVTEST_SIGUPD(x6, x5, x4, x27, I_sltu_cg_cr_rs1_rs2_edges_rs1val_0x1_rs2val_0x2, I_sltu_cg_cr_rs1_rs2_edges_rs1val_0x1_rs2val_0x2_str)
    17c8:	00032203          	lw	x4,0(x6)
    17cc:	01b20863          	beq	x4,x27,17dc <I_sltu_cg_cr_rs1_rs2_edges_rs1val_0x1_rs2val_0x2+0x18>
    17d0:	52d022ef          	jal	x5,44fc <failedtest_x5_x4>
    17d4:	000017c4          	.word	0x000017c4
    17d8:	0000a92f          	.word	0x0000a92f
    17dc:	00430313          	addi	x6,x6,4

# Testcase cr_rs1_rs2_edges (Test source rs1 = 0x00000001 rs2 = 0x80000000)
  RVTEST_TESTDATA_LOAD_INT(x11, x29) # load rs1: x29 = 0x00000001
    17e0:	0005ae83          	lw	x29,0(x11)
    17e4:	00458593          	addi	x11,x11,4
  RVTEST_TESTDATA_LOAD_INT(x11, x2) # load rs2: x2 = 0x80000000
    17e8:	0005a103          	lw	x2,0(x11)
    17ec:	00458593          	addi	x11,x11,4

000017f0 <I_sltu_cg_cr_rs1_rs2_edges_rs1val_0x1_rs2val_0x80000000>:
I_sltu_cg_cr_rs1_rs2_edges_rs1val_0x1_rs2val_0x80000000:
  sltu x24, x29, x2 # perform operation
    17f0:	002ebc33          	sltu	x24,x29,x2
  # Check if x24 contains the expected result. x6 is the signature ptr, x5 is the link ptr, x4 is a temp reg.
  RVTEST_SIGUPD(x6, x5, x4, x24, I_sltu_cg_cr_rs1_rs2_edges_rs1val_0x1_rs2val_0x80000000, I_sltu_cg_cr_rs1_rs2_edges_rs1val_0x1_rs2val_0x80000000_str)
    17f4:	00032203          	lw	x4,0(x6)
    17f8:	01820863          	beq	x4,x24,1808 <I_sltu_cg_cr_rs1_rs2_edges_rs1val_0x1_rs2val_0x80000000+0x18>
    17fc:	501022ef          	jal	x5,44fc <failedtest_x5_x4>
    1800:	000017f0          	.word	0x000017f0
    1804:	0000a97d          	.word	0x0000a97d
    1808:	00430313          	addi	x6,x6,4

# Testcase cr_rs1_rs2_edges (Test source rs1 = 0x00000001 rs2 = 0x80000001)
  RVTEST_TESTDATA_LOAD_INT(x11, x30) # load rs1: x30 = 0x00000001
    180c:	0005af03          	lw	x30,0(x11)
    1810:	00458593          	addi	x11,x11,4
  RVTEST_TESTDATA_LOAD_INT(x11, x17) # load rs2: x17 = 0x80000001
    1814:	0005a883          	lw	x17,0(x11)
    1818:	00458593          	addi	x11,x11,4

0000181c <I_sltu_cg_cr_rs1_rs2_edges_rs1val_0x1_rs2val_0x80000001>:
I_sltu_cg_cr_rs1_rs2_edges_rs1val_0x1_rs2val_0x80000001:
  sltu x25, x30, x17 # perform operation
    181c:	011f3cb3          	sltu	x25,x30,x17
  # Check if x25 contains the expected result. x6 is the signature ptr, x5 is the link ptr, x4 is a temp reg.
  RVTEST_SIGUPD(x6, x5, x4, x25, I_sltu_cg_cr_rs1_rs2_edges_rs1val_0x1_rs2val_0x80000001, I_sltu_cg_cr_rs1_rs2_edges_rs1val_0x1_rs2val_0x80000001_str)
    1820:	00032203          	lw	x4,0(x6)
    1824:	01920863          	beq	x4,x25,1834 <I_sltu_cg_cr_rs1_rs2_edges_rs1val_0x1_rs2val_0x80000001+0x18>
    1828:	4d5022ef          	jal	x5,44fc <failedtest_x5_x4>
    182c:	0000181c          	.word	0x0000181c
    1830:	0000a9d2          	.word	0x0000a9d2
    1834:	00430313          	addi	x6,x6,4

# Testcase cr_rs1_rs2_edges (Test source rs1 = 0x00000001 rs2 = 0x7fffffff)
  RVTEST_TESTDATA_LOAD_INT(x11, x22) # load rs1: x22 = 0x00000001
    1838:	0005ab03          	lw	x22,0(x11)
    183c:	00458593          	addi	x11,x11,4
  RVTEST_TESTDATA_LOAD_INT(x11, x17) # load rs2: x17 = 0x7fffffff
    1840:	0005a883          	lw	x17,0(x11)
    1844:	00458593          	addi	x11,x11,4

00001848 <I_sltu_cg_cr_rs1_rs2_edges_rs1val_0x1_rs2val_0x7fffffff>:
I_sltu_cg_cr_rs1_rs2_edges_rs1val_0x1_rs2val_0x7fffffff:
  sltu x9, x22, x17 # perform operation
    1848:	011b34b3          	sltu	x9,x22,x17
  # Check if x9 contains the expected result. x6 is the signature ptr, x5 is the link ptr, x4 is a temp reg.
  RVTEST_SIGUPD(x6, x5, x4, x9, I_sltu_cg_cr_rs1_rs2_edges_rs1val_0x1_rs2val_0x7fffffff, I_sltu_cg_cr_rs1_rs2_edges_rs1val_0x1_rs2val_0x7fffffff_str)
    184c:	00032203          	lw	x4,0(x6)
    1850:	00920863          	beq	x4,x9,1860 <I_sltu_cg_cr_rs1_rs2_edges_rs1val_0x1_rs2val_0x7fffffff+0x18>
    1854:	4a9022ef          	jal	x5,44fc <failedtest_x5_x4>
    1858:	00001848          	.word	0x00001848
    185c:	0000aa27          	.word	0x0000aa27
    1860:	00430313          	addi	x6,x6,4

# Testcase cr_rs1_rs2_edges (Test source rs1 = 0x00000001 rs2 = 0x7ffffffe)
  RVTEST_TESTDATA_LOAD_INT(x11, x23) # load rs1: x23 = 0x00000001
    1864:	0005ab83          	lw	x23,0(x11)
    1868:	00458593          	addi	x11,x11,4
  RVTEST_TESTDATA_LOAD_INT(x11, x2) # load rs2: x2 = 0x7ffffffe
    186c:	0005a103          	lw	x2,0(x11)
    1870:	00458593          	addi	x11,x11,4

00001874 <I_sltu_cg_cr_rs1_rs2_edges_rs1val_0x1_rs2val_0x7ffffffe>:
I_sltu_cg_cr_rs1_rs2_edges_rs1val_0x1_rs2val_0x7ffffffe:
  sltu x29, x23, x2 # perform operation
    1874:	002bbeb3          	sltu	x29,x23,x2
  # Check if x29 contains the expected result. x6 is the signature ptr, x5 is the link ptr, x4 is a temp reg.
  RVTEST_SIGUPD(x6, x5, x4, x29, I_sltu_cg_cr_rs1_rs2_edges_rs1val_0x1_rs2val_0x7ffffffe, I_sltu_cg_cr_rs1_rs2_edges_rs1val_0x1_rs2val_0x7ffffffe_str)
    1878:	00032203          	lw	x4,0(x6)
    187c:	01d20863          	beq	x4,x29,188c <I_sltu_cg_cr_rs1_rs2_edges_rs1val_0x1_rs2val_0x7ffffffe+0x18>
    1880:	47d022ef          	jal	x5,44fc <failedtest_x5_x4>
    1884:	00001874          	.word	0x00001874
    1888:	0000aa7c          	.word	0x0000aa7c
    188c:	00430313          	addi	x6,x6,4

# Testcase cr_rs1_rs2_edges (Test source rs1 = 0x00000001 rs2 = 0xffffffff)
  RVTEST_TESTDATA_LOAD_INT(x11, x9) # load rs1: x9 = 0x00000001
    1890:	0005a483          	lw	x9,0(x11)
    1894:	00458593          	addi	x11,x11,4
  RVTEST_TESTDATA_LOAD_INT(x11, x23) # load rs2: x23 = 0xffffffff
    1898:	0005ab83          	lw	x23,0(x11)
    189c:	00458593          	addi	x11,x11,4

000018a0 <I_sltu_cg_cr_rs1_rs2_edges_rs1val_0x1_rs2val_0xffffffff>:
I_sltu_cg_cr_rs1_rs2_edges_rs1val_0x1_rs2val_0xffffffff:
  sltu x14, x9, x23 # perform operation
    18a0:	0174b733          	sltu	x14,x9,x23
  # Check if x14 contains the expected result. x6 is the signature ptr, x5 is the link ptr, x4 is a temp reg.
  RVTEST_SIGUPD(x6, x5, x4, x14, I_sltu_cg_cr_rs1_rs2_edges_rs1val_0x1_rs2val_0xffffffff, I_sltu_cg_cr_rs1_rs2_edges_rs1val_0x1_rs2val_0xffffffff_str)
    18a4:	00032203          	lw	x4,0(x6)
    18a8:	00e20863          	beq	x4,x14,18b8 <I_sltu_cg_cr_rs1_rs2_edges_rs1val_0x1_rs2val_0xffffffff+0x18>
    18ac:	451022ef          	jal	x5,44fc <failedtest_x5_x4>
    18b0:	000018a0          	.word	0x000018a0
    18b4:	0000aad1          	.word	0x0000aad1
    18b8:	00430313          	addi	x6,x6,4

# Testcase cr_rs1_rs2_edges (Test source rs1 = 0x00000001 rs2 = 0xfffffffe)
  RVTEST_TESTDATA_LOAD_INT(x11, x17) # load rs1: x17 = 0x00000001
    18bc:	0005a883          	lw	x17,0(x11)
    18c0:	00458593          	addi	x11,x11,4
  RVTEST_TESTDATA_LOAD_INT(x11, x7) # load rs2: x7 = 0xfffffffe
    18c4:	0005a383          	lw	x7,0(x11)
    18c8:	00458593          	addi	x11,x11,4

000018cc <I_sltu_cg_cr_rs1_rs2_edges_rs1val_0x1_rs2val_0xfffffffe>:
I_sltu_cg_cr_rs1_rs2_edges_rs1val_0x1_rs2val_0xfffffffe:
  sltu x3, x17, x7 # perform operation
    18cc:	0078b1b3          	sltu	x3,x17,x7
  # Check if x3 contains the expected result. x6 is the signature ptr, x5 is the link ptr, x4 is a temp reg.
  RVTEST_SIGUPD(x6, x5, x4, x3, I_sltu_cg_cr_rs1_rs2_edges_rs1val_0x1_rs2val_0xfffffffe, I_sltu_cg_cr_rs1_rs2_edges_rs1val_0x1_rs2val_0xfffffffe_str)
    18d0:	00032203          	lw	x4,0(x6)
    18d4:	00320863          	beq	x4,x3,18e4 <I_sltu_cg_cr_rs1_rs2_edges_rs1val_0x1_rs2val_0xfffffffe+0x18>
    18d8:	425022ef          	jal	x5,44fc <failedtest_x5_x4>
    18dc:	000018cc          	.word	0x000018cc
    18e0:	0000ab26          	.word	0x0000ab26
    18e4:	00430313          	addi	x6,x6,4

# Testcase cr_rs1_rs2_edges (Test source rs1 = 0x00000001 rs2 = 0x5bbc8872)
  RVTEST_TESTDATA_LOAD_INT(x11, x12) # load rs1: x12 = 0x00000001
    18e8:	0005a603          	lw	x12,0(x11)
    18ec:	00458593          	addi	x11,x11,4
  RVTEST_TESTDATA_LOAD_INT(x11, x9) # load rs2: x9 = 0x5bbc8872
    18f0:	0005a483          	lw	x9,0(x11)
    18f4:	00458593          	addi	x11,x11,4

000018f8 <I_sltu_cg_cr_rs1_rs2_edges_rs1val_0x1_rs2val_0x5bbc8872>:
I_sltu_cg_cr_rs1_rs2_edges_rs1val_0x1_rs2val_0x5bbc8872:
  sltu x7, x12, x9 # perform operation
    18f8:	009633b3          	sltu	x7,x12,x9
  # Check if x7 contains the expected result. x6 is the signature ptr, x5 is the link ptr, x4 is a temp reg.
  RVTEST_SIGUPD(x6, x5, x4, x7, I_sltu_cg_cr_rs1_rs2_edges_rs1val_0x1_rs2val_0x5bbc8872, I_sltu_cg_cr_rs1_rs2_edges_rs1val_0x1_rs2val_0x5bbc8872_str)
    18fc:	00032203          	lw	x4,0(x6)
    1900:	00720863          	beq	x4,x7,1910 <I_sltu_cg_cr_rs1_rs2_edges_rs1val_0x1_rs2val_0x5bbc8872+0x18>
    1904:	3f9022ef          	jal	x5,44fc <failedtest_x5_x4>
    1908:	000018f8          	.word	0x000018f8
    190c:	0000ab7b          	.word	0x0000ab7b
    1910:	00430313          	addi	x6,x6,4

# Testcase cr_rs1_rs2_edges (Test source rs1 = 0x00000001 rs2 = 0xaaaaaaaa)
  RVTEST_TESTDATA_LOAD_INT(x11, x18) # load rs1: x18 = 0x00000001
    1914:	0005a903          	lw	x18,0(x11)
    1918:	00458593          	addi	x11,x11,4
  RVTEST_TESTDATA_LOAD_INT(x11, x26) # load rs2: x26 = 0xaaaaaaaa
    191c:	0005ad03          	lw	x26,0(x11)
    1920:	00458593          	addi	x11,x11,4

00001924 <I_sltu_cg_cr_rs1_rs2_edges_rs1val_0x1_rs2val_0xaaaaaaaa>:
I_sltu_cg_cr_rs1_rs2_edges_rs1val_0x1_rs2val_0xaaaaaaaa:
  sltu x22, x18, x26 # perform operation
    1924:	01a93b33          	sltu	x22,x18,x26
  # Check if x22 contains the expected result. x6 is the signature ptr, x5 is the link ptr, x4 is a temp reg.
  RVTEST_SIGUPD(x6, x5, x4, x22, I_sltu_cg_cr_rs1_rs2_edges_rs1val_0x1_rs2val_0xaaaaaaaa, I_sltu_cg_cr_rs1_rs2_edges_rs1val_0x1_rs2val_0xaaaaaaaa_str)
    1928:	00032203          	lw	x4,0(x6)
    192c:	01620863          	beq	x4,x22,193c <I_sltu_cg_cr_rs1_rs2_edges_rs1val_0x1_rs2val_0xaaaaaaaa+0x18>
    1930:	3cd022ef          	jal	x5,44fc <failedtest_x5_x4>
    1934:	00001924          	.word	0x00001924
    1938:	0000abd0          	.word	0x0000abd0
    193c:	00430313          	addi	x6,x6,4

# Testcase cr_rs1_rs2_edges (Test source rs1 = 0x00000001 rs2 = 0x55555555)
  RVTEST_TESTDATA_LOAD_INT(x11, x2) # load rs1: x2 = 0x00000001
    1940:	0005a103          	lw	x2,0(x11)
    1944:	00458593          	addi	x11,x11,4
  RVTEST_TESTDATA_LOAD_INT(x11, x17) # load rs2: x17 = 0x55555555
    1948:	0005a883          	lw	x17,0(x11)
    194c:	00458593          	addi	x11,x11,4

00001950 <I_sltu_cg_cr_rs1_rs2_edges_rs1val_0x1_rs2val_0x55555555>:
I_sltu_cg_cr_rs1_rs2_edges_rs1val_0x1_rs2val_0x55555555:
  sltu x24, x2, x17 # perform operation
    1950:	01113c33          	sltu	x24,x2,x17
  # Check if x24 contains the expected result. x6 is the signature ptr, x5 is the link ptr, x4 is a temp reg.
  RVTEST_SIGUPD(x6, x5, x4, x24, I_sltu_cg_cr_rs1_rs2_edges_rs1val_0x1_rs2val_0x55555555, I_sltu_cg_cr_rs1_rs2_edges_rs1val_0x1_rs2val_0x55555555_str)
    1954:	00032203          	lw	x4,0(x6)
    1958:	01820863          	beq	x4,x24,1968 <I_sltu_cg_cr_rs1_rs2_edges_rs1val_0x1_rs2val_0x55555555+0x18>
    195c:	3a1022ef          	jal	x5,44fc <failedtest_x5_x4>
    1960:	00001950          	.word	0x00001950
    1964:	0000ac25          	.word	0x0000ac25
    1968:	00430313          	addi	x6,x6,4

# Testcase cr_rs1_rs2_edges (Test source rs1 = 0x00000002 rs2 = 0x00000000)
  RVTEST_TESTDATA_LOAD_INT(x11, x12) # load rs1: x12 = 0x00000002
    196c:	0005a603          	lw	x12,0(x11)
    1970:	00458593          	addi	x11,x11,4
  RVTEST_TESTDATA_LOAD_INT(x11, x3) # load rs2: x3 = 0x00000000
    1974:	0005a183          	lw	x3,0(x11)
    1978:	00458593          	addi	x11,x11,4

0000197c <I_sltu_cg_cr_rs1_rs2_edges_rs1val_0x2_rs2val_0x0>:
I_sltu_cg_cr_rs1_rs2_edges_rs1val_0x2_rs2val_0x0:
  sltu x13, x12, x3 # perform operation
    197c:	003636b3          	sltu	x13,x12,x3
  # Check if x13 contains the expected result. x6 is the signature ptr, x5 is the link ptr, x4 is a temp reg.
  RVTEST_SIGUPD(x6, x5, x4, x13, I_sltu_cg_cr_rs1_rs2_edges_rs1val_0x2_rs2val_0x0, I_sltu_cg_cr_rs1_rs2_edges_rs1val_0x2_rs2val_0x0_str)
    1980:	00032203          	lw	x4,0(x6)
    1984:	00d20863          	beq	x4,x13,1994 <I_sltu_cg_cr_rs1_rs2_edges_rs1val_0x2_rs2val_0x0+0x18>
    1988:	375022ef          	jal	x5,44fc <failedtest_x5_x4>
    198c:	0000197c          	.word	0x0000197c
    1990:	0000ac7a          	.word	0x0000ac7a
    1994:	00430313          	addi	x6,x6,4

# Testcase cr_rs1_rs2_edges (Test source rs1 = 0x00000002 rs2 = 0x00000001)
  RVTEST_TESTDATA_LOAD_INT(x11, x31) # load rs1: x31 = 0x00000002
    1998:	0005af83          	lw	x31,0(x11)
    199c:	00458593          	addi	x11,x11,4
  RVTEST_TESTDATA_LOAD_INT(x11, x7) # load rs2: x7 = 0x00000001
    19a0:	0005a383          	lw	x7,0(x11)
    19a4:	00458593          	addi	x11,x11,4

000019a8 <I_sltu_cg_cr_rs1_rs2_edges_rs1val_0x2_rs2val_0x1>:
I_sltu_cg_cr_rs1_rs2_edges_rs1val_0x2_rs2val_0x1:
  sltu x29, x31, x7 # perform operation
    19a8:	007fbeb3          	sltu	x29,x31,x7
  # Check if x29 contains the expected result. x6 is the signature ptr, x5 is the link ptr, x4 is a temp reg.
  RVTEST_SIGUPD(x6, x5, x4, x29, I_sltu_cg_cr_rs1_rs2_edges_rs1val_0x2_rs2val_0x1, I_sltu_cg_cr_rs1_rs2_edges_rs1val_0x2_rs2val_0x1_str)
    19ac:	00032203          	lw	x4,0(x6)
    19b0:	01d20863          	beq	x4,x29,19c0 <I_sltu_cg_cr_rs1_rs2_edges_rs1val_0x2_rs2val_0x1+0x18>
    19b4:	349022ef          	jal	x5,44fc <failedtest_x5_x4>
    19b8:	000019a8          	.word	0x000019a8
    19bc:	0000acc8          	.word	0x0000acc8
    19c0:	00430313          	addi	x6,x6,4

# Testcase cr_rs1_rs2_edges (Test source rs1 = 0x00000002 rs2 = 0x00000002)
  RVTEST_TESTDATA_LOAD_INT(x11, x13) # load rs1: x13 = 0x00000002
    19c4:	0005a683          	lw	x13,0(x11)
    19c8:	00458593          	addi	x11,x11,4
  RVTEST_TESTDATA_LOAD_INT(x11, x26) # load rs2: x26 = 0x00000002
    19cc:	0005ad03          	lw	x26,0(x11)
    19d0:	00458593          	addi	x11,x11,4

000019d4 <I_sltu_cg_cr_rs1_rs2_edges_rs1val_0x2_rs2val_0x2>:
I_sltu_cg_cr_rs1_rs2_edges_rs1val_0x2_rs2val_0x2:
  sltu x21, x13, x26 # perform operation
    19d4:	01a6bab3          	sltu	x21,x13,x26
  # Check if x21 contains the expected result. x6 is the signature ptr, x5 is the link ptr, x4 is a temp reg.
  RVTEST_SIGUPD(x6, x5, x4, x21, I_sltu_cg_cr_rs1_rs2_edges_rs1val_0x2_rs2val_0x2, I_sltu_cg_cr_rs1_rs2_edges_rs1val_0x2_rs2val_0x2_str)
    19d8:	00032203          	lw	x4,0(x6)
    19dc:	01520863          	beq	x4,x21,19ec <I_sltu_cg_cr_rs1_rs2_edges_rs1val_0x2_rs2val_0x2+0x18>
    19e0:	31d022ef          	jal	x5,44fc <failedtest_x5_x4>
    19e4:	000019d4          	.word	0x000019d4
    19e8:	0000ad16          	.word	0x0000ad16
    19ec:	00430313          	addi	x6,x6,4

# Testcase cr_rs1_rs2_edges (Test source rs1 = 0x00000002 rs2 = 0x80000000)
  RVTEST_TESTDATA_LOAD_INT(x11, x13) # load rs1: x13 = 0x00000002
    19f0:	0005a683          	lw	x13,0(x11)
    19f4:	00458593          	addi	x11,x11,4
  RVTEST_TESTDATA_LOAD_INT(x11, x31) # load rs2: x31 = 0x80000000
    19f8:	0005af83          	lw	x31,0(x11)
    19fc:	00458593          	addi	x11,x11,4

00001a00 <I_sltu_cg_cr_rs1_rs2_edges_rs1val_0x2_rs2val_0x80000000>:
I_sltu_cg_cr_rs1_rs2_edges_rs1val_0x2_rs2val_0x80000000:
  sltu x3, x13, x31 # perform operation
    1a00:	01f6b1b3          	sltu	x3,x13,x31
  # Check if x3 contains the expected result. x6 is the signature ptr, x5 is the link ptr, x4 is a temp reg.
  RVTEST_SIGUPD(x6, x5, x4, x3, I_sltu_cg_cr_rs1_rs2_edges_rs1val_0x2_rs2val_0x80000000, I_sltu_cg_cr_rs1_rs2_edges_rs1val_0x2_rs2val_0x80000000_str)
    1a04:	00032203          	lw	x4,0(x6)
    1a08:	00320863          	beq	x4,x3,1a18 <I_sltu_cg_cr_rs1_rs2_edges_rs1val_0x2_rs2val_0x80000000+0x18>
    1a0c:	2f1022ef          	jal	x5,44fc <failedtest_x5_x4>
    1a10:	00001a00          	.word	0x00001a00
    1a14:	0000ad64          	.word	0x0000ad64
    1a18:	00430313          	addi	x6,x6,4

# Testcase cr_rs1_rs2_edges (Test source rs1 = 0x00000002 rs2 = 0x80000001)
  RVTEST_TESTDATA_LOAD_INT(x11, x16) # load rs1: x16 = 0x00000002
    1a1c:	0005a803          	lw	x16,0(x11)
    1a20:	00458593          	addi	x11,x11,4
  RVTEST_TESTDATA_LOAD_INT(x11, x27) # load rs2: x27 = 0x80000001
    1a24:	0005ad83          	lw	x27,0(x11)
    1a28:	00458593          	addi	x11,x11,4

00001a2c <I_sltu_cg_cr_rs1_rs2_edges_rs1val_0x2_rs2val_0x80000001>:
I_sltu_cg_cr_rs1_rs2_edges_rs1val_0x2_rs2val_0x80000001:
  sltu x19, x16, x27 # perform operation
    1a2c:	01b839b3          	sltu	x19,x16,x27
  # Check if x19 contains the expected result. x6 is the signature ptr, x5 is the link ptr, x4 is a temp reg.
  RVTEST_SIGUPD(x6, x5, x4, x19, I_sltu_cg_cr_rs1_rs2_edges_rs1val_0x2_rs2val_0x80000001, I_sltu_cg_cr_rs1_rs2_edges_rs1val_0x2_rs2val_0x80000001_str)
    1a30:	00032203          	lw	x4,0(x6)
    1a34:	01320863          	beq	x4,x19,1a44 <I_sltu_cg_cr_rs1_rs2_edges_rs1val_0x2_rs2val_0x80000001+0x18>
    1a38:	2c5022ef          	jal	x5,44fc <failedtest_x5_x4>
    1a3c:	00001a2c          	.word	0x00001a2c
    1a40:	0000adb9          	.word	0x0000adb9
    1a44:	00430313          	addi	x6,x6,4

# Testcase cr_rs1_rs2_edges (Test source rs1 = 0x00000002 rs2 = 0x7fffffff)
  RVTEST_TESTDATA_LOAD_INT(x11, x30) # load rs1: x30 = 0x00000002
    1a48:	0005af03          	lw	x30,0(x11)
    1a4c:	00458593          	addi	x11,x11,4
  RVTEST_TESTDATA_LOAD_INT(x11, x28) # load rs2: x28 = 0x7fffffff
    1a50:	0005ae03          	lw	x28,0(x11)
    1a54:	00458593          	addi	x11,x11,4

00001a58 <I_sltu_cg_cr_rs1_rs2_edges_rs1val_0x2_rs2val_0x7fffffff>:
I_sltu_cg_cr_rs1_rs2_edges_rs1val_0x2_rs2val_0x7fffffff:
  sltu x8, x30, x28 # perform operation
    1a58:	01cf3433          	sltu	x8,x30,x28
  # Check if x8 contains the expected result. x6 is the signature ptr, x5 is the link ptr, x4 is a temp reg.
  RVTEST_SIGUPD(x6, x5, x4, x8, I_sltu_cg_cr_rs1_rs2_edges_rs1val_0x2_rs2val_0x7fffffff, I_sltu_cg_cr_rs1_rs2_edges_rs1val_0x2_rs2val_0x7fffffff_str)
    1a5c:	00032203          	lw	x4,0(x6)
    1a60:	00820863          	beq	x4,x8,1a70 <I_sltu_cg_cr_rs1_rs2_edges_rs1val_0x2_rs2val_0x7fffffff+0x18>
    1a64:	299022ef          	jal	x5,44fc <failedtest_x5_x4>
    1a68:	00001a58          	.word	0x00001a58
    1a6c:	0000ae0e          	.word	0x0000ae0e
    1a70:	00430313          	addi	x6,x6,4

# Testcase cr_rs1_rs2_edges (Test source rs1 = 0x00000002 rs2 = 0x7ffffffe)
  RVTEST_TESTDATA_LOAD_INT(x11, x22) # load rs1: x22 = 0x00000002
    1a74:	0005ab03          	lw	x22,0(x11)
    1a78:	00458593          	addi	x11,x11,4
  RVTEST_TESTDATA_LOAD_INT(x11, x12) # load rs2: x12 = 0x7ffffffe
    1a7c:	0005a603          	lw	x12,0(x11)
    1a80:	00458593          	addi	x11,x11,4

00001a84 <I_sltu_cg_cr_rs1_rs2_edges_rs1val_0x2_rs2val_0x7ffffffe>:
I_sltu_cg_cr_rs1_rs2_edges_rs1val_0x2_rs2val_0x7ffffffe:
  sltu x1, x22, x12 # perform operation
    1a84:	00cb30b3          	sltu	x1,x22,x12
  # Check if x1 contains the expected result. x6 is the signature ptr, x5 is the link ptr, x4 is a temp reg.
  RVTEST_SIGUPD(x6, x5, x4, x1, I_sltu_cg_cr_rs1_rs2_edges_rs1val_0x2_rs2val_0x7ffffffe, I_sltu_cg_cr_rs1_rs2_edges_rs1val_0x2_rs2val_0x7ffffffe_str)
    1a88:	00032203          	lw	x4,0(x6)
    1a8c:	00120863          	beq	x4,x1,1a9c <I_sltu_cg_cr_rs1_rs2_edges_rs1val_0x2_rs2val_0x7ffffffe+0x18>
    1a90:	26d022ef          	jal	x5,44fc <failedtest_x5_x4>
    1a94:	00001a84          	.word	0x00001a84
    1a98:	0000ae63          	.word	0x0000ae63
    1a9c:	00430313          	addi	x6,x6,4

# Testcase cr_rs1_rs2_edges (Test source rs1 = 0x00000002 rs2 = 0xffffffff)
  RVTEST_TESTDATA_LOAD_INT(x11, x14) # load rs1: x14 = 0x00000002
    1aa0:	0005a703          	lw	x14,0(x11)
    1aa4:	00458593          	addi	x11,x11,4
  RVTEST_TESTDATA_LOAD_INT(x11, x20) # load rs2: x20 = 0xffffffff
    1aa8:	0005aa03          	lw	x20,0(x11)
    1aac:	00458593          	addi	x11,x11,4

00001ab0 <I_sltu_cg_cr_rs1_rs2_edges_rs1val_0x2_rs2val_0xffffffff>:
I_sltu_cg_cr_rs1_rs2_edges_rs1val_0x2_rs2val_0xffffffff:
  sltu x13, x14, x20 # perform operation
    1ab0:	014736b3          	sltu	x13,x14,x20
  # Check if x13 contains the expected result. x6 is the signature ptr, x5 is the link ptr, x4 is a temp reg.
  RVTEST_SIGUPD(x6, x5, x4, x13, I_sltu_cg_cr_rs1_rs2_edges_rs1val_0x2_rs2val_0xffffffff, I_sltu_cg_cr_rs1_rs2_edges_rs1val_0x2_rs2val_0xffffffff_str)
    1ab4:	00032203          	lw	x4,0(x6)
    1ab8:	00d20863          	beq	x4,x13,1ac8 <I_sltu_cg_cr_rs1_rs2_edges_rs1val_0x2_rs2val_0xffffffff+0x18>
    1abc:	241022ef          	jal	x5,44fc <failedtest_x5_x4>
    1ac0:	00001ab0          	.word	0x00001ab0
    1ac4:	0000aeb8          	.word	0x0000aeb8
    1ac8:	00430313          	addi	x6,x6,4

# Testcase cr_rs1_rs2_edges (Test source rs1 = 0x00000002 rs2 = 0xfffffffe)
  RVTEST_TESTDATA_LOAD_INT(x11, x23) # load rs1: x23 = 0x00000002
    1acc:	0005ab83          	lw	x23,0(x11)
    1ad0:	00458593          	addi	x11,x11,4
  RVTEST_TESTDATA_LOAD_INT(x11, x7) # load rs2: x7 = 0xfffffffe
    1ad4:	0005a383          	lw	x7,0(x11)
    1ad8:	00458593          	addi	x11,x11,4

00001adc <I_sltu_cg_cr_rs1_rs2_edges_rs1val_0x2_rs2val_0xfffffffe>:
I_sltu_cg_cr_rs1_rs2_edges_rs1val_0x2_rs2val_0xfffffffe:
  sltu x28, x23, x7 # perform operation
    1adc:	007bbe33          	sltu	x28,x23,x7
  # Check if x28 contains the expected result. x6 is the signature ptr, x5 is the link ptr, x4 is a temp reg.
  RVTEST_SIGUPD(x6, x5, x4, x28, I_sltu_cg_cr_rs1_rs2_edges_rs1val_0x2_rs2val_0xfffffffe, I_sltu_cg_cr_rs1_rs2_edges_rs1val_0x2_rs2val_0xfffffffe_str)
    1ae0:	00032203          	lw	x4,0(x6)
    1ae4:	01c20863          	beq	x4,x28,1af4 <I_sltu_cg_cr_rs1_rs2_edges_rs1val_0x2_rs2val_0xfffffffe+0x18>
    1ae8:	215022ef          	jal	x5,44fc <failedtest_x5_x4>
    1aec:	00001adc          	.word	0x00001adc
    1af0:	0000af0d          	.word	0x0000af0d
    1af4:	00430313          	addi	x6,x6,4

# Testcase cr_rs1_rs2_edges (Test source rs1 = 0x00000002 rs2 = 0x5bbc8872)
  RVTEST_TESTDATA_LOAD_INT(x11, x23) # load rs1: x23 = 0x00000002
    1af8:	0005ab83          	lw	x23,0(x11)
    1afc:	00458593          	addi	x11,x11,4
  RVTEST_TESTDATA_LOAD_INT(x11, x20) # load rs2: x20 = 0x5bbc8872
    1b00:	0005aa03          	lw	x20,0(x11)
    1b04:	00458593          	addi	x11,x11,4

00001b08 <I_sltu_cg_cr_rs1_rs2_edges_rs1val_0x2_rs2val_0x5bbc8872>:
I_sltu_cg_cr_rs1_rs2_edges_rs1val_0x2_rs2val_0x5bbc8872:
  sltu x9, x23, x20 # perform operation
    1b08:	014bb4b3          	sltu	x9,x23,x20
  # Check if x9 contains the expected result. x6 is the signature ptr, x5 is the link ptr, x4 is a temp reg.
  RVTEST_SIGUPD(x6, x5, x4, x9, I_sltu_cg_cr_rs1_rs2_edges_rs1val_0x2_rs2val_0x5bbc8872, I_sltu_cg_cr_rs1_rs2_edges_rs1val_0x2_rs2val_0x5bbc8872_str)
    1b0c:	00032203          	lw	x4,0(x6)
    1b10:	00920863          	beq	x4,x9,1b20 <I_sltu_cg_cr_rs1_rs2_edges_rs1val_0x2_rs2val_0x5bbc8872+0x18>
    1b14:	1e9022ef          	jal	x5,44fc <failedtest_x5_x4>
    1b18:	00001b08          	.word	0x00001b08
    1b1c:	0000af62          	.word	0x0000af62
    1b20:	00430313          	addi	x6,x6,4

# Testcase cr_rs1_rs2_edges (Test source rs1 = 0x00000002 rs2 = 0xaaaaaaaa)
  RVTEST_TESTDATA_LOAD_INT(x11, x25) # load rs1: x25 = 0x00000002
    1b24:	0005ac83          	lw	x25,0(x11)
    1b28:	00458593          	addi	x11,x11,4
  RVTEST_TESTDATA_LOAD_INT(x11, x7) # load rs2: x7 = 0xaaaaaaaa
    1b2c:	0005a383          	lw	x7,0(x11)
    1b30:	00458593          	addi	x11,x11,4

00001b34 <I_sltu_cg_cr_rs1_rs2_edges_rs1val_0x2_rs2val_0xaaaaaaaa>:
I_sltu_cg_cr_rs1_rs2_edges_rs1val_0x2_rs2val_0xaaaaaaaa:
  sltu x29, x25, x7 # perform operation
    1b34:	007cbeb3          	sltu	x29,x25,x7
  # Check if x29 contains the expected result. x6 is the signature ptr, x5 is the link ptr, x4 is a temp reg.
  RVTEST_SIGUPD(x6, x5, x4, x29, I_sltu_cg_cr_rs1_rs2_edges_rs1val_0x2_rs2val_0xaaaaaaaa, I_sltu_cg_cr_rs1_rs2_edges_rs1val_0x2_rs2val_0xaaaaaaaa_str)
    1b38:	00032203          	lw	x4,0(x6)
    1b3c:	01d20863          	beq	x4,x29,1b4c <I_sltu_cg_cr_rs1_rs2_edges_rs1val_0x2_rs2val_0xaaaaaaaa+0x18>
    1b40:	1bd022ef          	jal	x5,44fc <failedtest_x5_x4>
    1b44:	00001b34          	.word	0x00001b34
    1b48:	0000afb7          	.word	0x0000afb7
    1b4c:	00430313          	addi	x6,x6,4

# Testcase cr_rs1_rs2_edges (Test source rs1 = 0x00000002 rs2 = 0x55555555)
  RVTEST_TESTDATA_LOAD_INT(x11, x22) # load rs1: x22 = 0x00000002
    1b50:	0005ab03          	lw	x22,0(x11)
    1b54:	00458593          	addi	x11,x11,4
  RVTEST_TESTDATA_LOAD_INT(x11, x16) # load rs2: x16 = 0x55555555
    1b58:	0005a803          	lw	x16,0(x11)
    1b5c:	00458593          	addi	x11,x11,4

00001b60 <I_sltu_cg_cr_rs1_rs2_edges_rs1val_0x2_rs2val_0x55555555>:
I_sltu_cg_cr_rs1_rs2_edges_rs1val_0x2_rs2val_0x55555555:
  sltu x27, x22, x16 # perform operation
    1b60:	010b3db3          	sltu	x27,x22,x16
  # Check if x27 contains the expected result. x6 is the signature ptr, x5 is the link ptr, x4 is a temp reg.
  RVTEST_SIGUPD(x6, x5, x4, x27, I_sltu_cg_cr_rs1_rs2_edges_rs1val_0x2_rs2val_0x55555555, I_sltu_cg_cr_rs1_rs2_edges_rs1val_0x2_rs2val_0x55555555_str)
    1b64:	00032203          	lw	x4,0(x6)
    1b68:	01b20863          	beq	x4,x27,1b78 <I_sltu_cg_cr_rs1_rs2_edges_rs1val_0x2_rs2val_0x55555555+0x18>
    1b6c:	191022ef          	jal	x5,44fc <failedtest_x5_x4>
    1b70:	00001b60          	.word	0x00001b60
    1b74:	0000b00c          	.word	0x0000b00c
    1b78:	00430313          	addi	x6,x6,4

# Testcase cr_rs1_rs2_edges (Test source rs1 = 0x80000000 rs2 = 0x00000000)
  RVTEST_TESTDATA_LOAD_INT(x11, x30) # load rs1: x30 = 0x80000000
    1b7c:	0005af03          	lw	x30,0(x11)
    1b80:	00458593          	addi	x11,x11,4
  RVTEST_TESTDATA_LOAD_INT(x11, x19) # load rs2: x19 = 0x00000000
    1b84:	0005a983          	lw	x19,0(x11)
    1b88:	00458593          	addi	x11,x11,4

00001b8c <I_sltu_cg_cr_rs1_rs2_edges_rs1val_0x80000000_rs2val_0x0>:
I_sltu_cg_cr_rs1_rs2_edges_rs1val_0x80000000_rs2val_0x0:
  sltu x21, x30, x19 # perform operation
    1b8c:	013f3ab3          	sltu	x21,x30,x19
  # Check if x21 contains the expected result. x6 is the signature ptr, x5 is the link ptr, x4 is a temp reg.
  RVTEST_SIGUPD(x6, x5, x4, x21, I_sltu_cg_cr_rs1_rs2_edges_rs1val_0x80000000_rs2val_0x0, I_sltu_cg_cr_rs1_rs2_edges_rs1val_0x80000000_rs2val_0x0_str)
    1b90:	00032203          	lw	x4,0(x6)
    1b94:	01520863          	beq	x4,x21,1ba4 <I_sltu_cg_cr_rs1_rs2_edges_rs1val_0x80000000_rs2val_0x0+0x18>
    1b98:	165022ef          	jal	x5,44fc <failedtest_x5_x4>
    1b9c:	00001b8c          	.word	0x00001b8c
    1ba0:	0000b061          	.word	0x0000b061
    1ba4:	00430313          	addi	x6,x6,4

# Testcase cr_rs1_rs2_edges (Test source rs1 = 0x80000000 rs2 = 0x00000001)
  RVTEST_TESTDATA_LOAD_INT(x11, x19) # load rs1: x19 = 0x80000000
    1ba8:	0005a983          	lw	x19,0(x11)
    1bac:	00458593          	addi	x11,x11,4
  RVTEST_TESTDATA_LOAD_INT(x11, x22) # load rs2: x22 = 0x00000001
    1bb0:	0005ab03          	lw	x22,0(x11)
    1bb4:	00458593          	addi	x11,x11,4

00001bb8 <I_sltu_cg_cr_rs1_rs2_edges_rs1val_0x80000000_rs2val_0x1>:
I_sltu_cg_cr_rs1_rs2_edges_rs1val_0x80000000_rs2val_0x1:
  sltu x10, x19, x22 # perform operation
    1bb8:	0169b533          	sltu	x10,x19,x22
  # Check if x10 contains the expected result. x6 is the signature ptr, x5 is the link ptr, x4 is a temp reg.
  RVTEST_SIGUPD(x6, x5, x4, x10, I_sltu_cg_cr_rs1_rs2_edges_rs1val_0x80000000_rs2val_0x1, I_sltu_cg_cr_rs1_rs2_edges_rs1val_0x80000000_rs2val_0x1_str)
    1bbc:	00032203          	lw	x4,0(x6)
    1bc0:	00a20863          	beq	x4,x10,1bd0 <I_sltu_cg_cr_rs1_rs2_edges_rs1val_0x80000000_rs2val_0x1+0x18>
    1bc4:	139022ef          	jal	x5,44fc <failedtest_x5_x4>
    1bc8:	00001bb8          	.word	0x00001bb8
    1bcc:	0000b0b6          	.word	0x0000b0b6
    1bd0:	00430313          	addi	x6,x6,4

# Testcase cr_rs1_rs2_edges (Test source rs1 = 0x80000000 rs2 = 0x00000002)
  RVTEST_TESTDATA_LOAD_INT(x11, x3) # load rs1: x3 = 0x80000000
    1bd4:	0005a183          	lw	x3,0(x11)
    1bd8:	00458593          	addi	x11,x11,4
  RVTEST_TESTDATA_LOAD_INT(x11, x26) # load rs2: x26 = 0x00000002
    1bdc:	0005ad03          	lw	x26,0(x11)
    1be0:	00458593          	addi	x11,x11,4

00001be4 <I_sltu_cg_cr_rs1_rs2_edges_rs1val_0x80000000_rs2val_0x2>:
I_sltu_cg_cr_rs1_rs2_edges_rs1val_0x80000000_rs2val_0x2:
  sltu x20, x3, x26 # perform operation
    1be4:	01a1ba33          	sltu	x20,x3,x26
  # Check if x20 contains the expected result. x6 is the signature ptr, x5 is the link ptr, x4 is a temp reg.
  RVTEST_SIGUPD(x6, x5, x4, x20, I_sltu_cg_cr_rs1_rs2_edges_rs1val_0x80000000_rs2val_0x2, I_sltu_cg_cr_rs1_rs2_edges_rs1val_0x80000000_rs2val_0x2_str)
    1be8:	00032203          	lw	x4,0(x6)
    1bec:	01420863          	beq	x4,x20,1bfc <I_sltu_cg_cr_rs1_rs2_edges_rs1val_0x80000000_rs2val_0x2+0x18>
    1bf0:	10d022ef          	jal	x5,44fc <failedtest_x5_x4>
    1bf4:	00001be4          	.word	0x00001be4
    1bf8:	0000b10b          	.word	0x0000b10b
    1bfc:	00430313          	addi	x6,x6,4

# Testcase cr_rs1_rs2_edges (Test source rs1 = 0x80000000 rs2 = 0x80000000)
  RVTEST_TESTDATA_LOAD_INT(x11, x8) # load rs1: x8 = 0x80000000
    1c00:	0005a403          	lw	x8,0(x11)
    1c04:	00458593          	addi	x11,x11,4
  RVTEST_TESTDATA_LOAD_INT(x11, x20) # load rs2: x20 = 0x80000000
    1c08:	0005aa03          	lw	x20,0(x11)
    1c0c:	00458593          	addi	x11,x11,4

00001c10 <I_sltu_cg_cr_rs1_rs2_edges_rs1val_0x80000000_rs2val_0x80000000>:
I_sltu_cg_cr_rs1_rs2_edges_rs1val_0x80000000_rs2val_0x80000000:
  sltu x14, x8, x20 # perform operation
    1c10:	01443733          	sltu	x14,x8,x20
  # Check if x14 contains the expected result. x6 is the signature ptr, x5 is the link ptr, x4 is a temp reg.
  RVTEST_SIGUPD(x6, x5, x4, x14, I_sltu_cg_cr_rs1_rs2_edges_rs1val_0x80000000_rs2val_0x80000000, I_sltu_cg_cr_rs1_rs2_edges_rs1val_0x80000000_rs2val_0x80000000_str)
    1c14:	00032203          	lw	x4,0(x6)
    1c18:	00e20863          	beq	x4,x14,1c28 <I_sltu_cg_cr_rs1_rs2_edges_rs1val_0x80000000_rs2val_0x80000000+0x18>
    1c1c:	0e1022ef          	jal	x5,44fc <failedtest_x5_x4>
    1c20:	00001c10          	.word	0x00001c10
    1c24:	0000b160          	.word	0x0000b160
    1c28:	00430313          	addi	x6,x6,4

# Testcase cr_rs1_rs2_edges (Test source rs1 = 0x80000000 rs2 = 0x80000001)
  RVTEST_TESTDATA_LOAD_INT(x11, x22) # load rs1: x22 = 0x80000000
    1c2c:	0005ab03          	lw	x22,0(x11)
    1c30:	00458593          	addi	x11,x11,4
  RVTEST_TESTDATA_LOAD_INT(x11, x31) # load rs2: x31 = 0x80000001
    1c34:	0005af83          	lw	x31,0(x11)
    1c38:	00458593          	addi	x11,x11,4

00001c3c <I_sltu_cg_cr_rs1_rs2_edges_rs1val_0x80000000_rs2val_0x80000001>:
I_sltu_cg_cr_rs1_rs2_edges_rs1val_0x80000000_rs2val_0x80000001:
  sltu x28, x22, x31 # perform operation
    1c3c:	01fb3e33          	sltu	x28,x22,x31
  # Check if x28 contains the expected result. x6 is the signature ptr, x5 is the link ptr, x4 is a temp reg.
  RVTEST_SIGUPD(x6, x5, x4, x28, I_sltu_cg_cr_rs1_rs2_edges_rs1val_0x80000000_rs2val_0x80000001, I_sltu_cg_cr_rs1_rs2_edges_rs1val_0x80000000_rs2val_0x80000001_str)
    1c40:	00032203          	lw	x4,0(x6)
    1c44:	01c20863          	beq	x4,x28,1c54 <I_sltu_cg_cr_rs1_rs2_edges_rs1val_0x80000000_rs2val_0x80000001+0x18>
    1c48:	0b5022ef          	jal	x5,44fc <failedtest_x5_x4>
    1c4c:	00001c3c          	.word	0x00001c3c
    1c50:	0000b1bc          	.word	0x0000b1bc
    1c54:	00430313          	addi	x6,x6,4

# Testcase cr_rs1_rs2_edges (Test source rs1 = 0x80000000 rs2 = 0x7fffffff)
  RVTEST_TESTDATA_LOAD_INT(x11, x21) # load rs1: x21 = 0x80000000
    1c58:	0005aa83          	lw	x21,0(x11)
    1c5c:	00458593          	addi	x11,x11,4
  RVTEST_TESTDATA_LOAD_INT(x11, x12) # load rs2: x12 = 0x7fffffff
    1c60:	0005a603          	lw	x12,0(x11)
    1c64:	00458593          	addi	x11,x11,4

00001c68 <I_sltu_cg_cr_rs1_rs2_edges_rs1val_0x80000000_rs2val_0x7fffffff>:
I_sltu_cg_cr_rs1_rs2_edges_rs1val_0x80000000_rs2val_0x7fffffff:
  sltu x19, x21, x12 # perform operation
    1c68:	00cab9b3          	sltu	x19,x21,x12
  # Check if x19 contains the expected result. x6 is the signature ptr, x5 is the link ptr, x4 is a temp reg.
  RVTEST_SIGUPD(x6, x5, x4, x19, I_sltu_cg_cr_rs1_rs2_edges_rs1val_0x80000000_rs2val_0x7fffffff, I_sltu_cg_cr_rs1_rs2_edges_rs1val_0x80000000_rs2val_0x7fffffff_str)
    1c6c:	00032203          	lw	x4,0(x6)
    1c70:	01320863          	beq	x4,x19,1c80 <I_sltu_cg_cr_rs1_rs2_edges_rs1val_0x80000000_rs2val_0x7fffffff+0x18>
    1c74:	089022ef          	jal	x5,44fc <failedtest_x5_x4>
    1c78:	00001c68          	.word	0x00001c68
    1c7c:	0000b218          	.word	0x0000b218
    1c80:	00430313          	addi	x6,x6,4

# Testcase cr_rs1_rs2_edges (Test source rs1 = 0x80000000 rs2 = 0x7ffffffe)
  RVTEST_TESTDATA_LOAD_INT(x11, x18) # load rs1: x18 = 0x80000000
    1c84:	0005a903          	lw	x18,0(x11)
    1c88:	00458593          	addi	x11,x11,4
  RVTEST_TESTDATA_LOAD_INT(x11, x21) # load rs2: x21 = 0x7ffffffe
    1c8c:	0005aa83          	lw	x21,0(x11)
    1c90:	00458593          	addi	x11,x11,4

00001c94 <I_sltu_cg_cr_rs1_rs2_edges_rs1val_0x80000000_rs2val_0x7ffffffe>:
I_sltu_cg_cr_rs1_rs2_edges_rs1val_0x80000000_rs2val_0x7ffffffe:
  sltu x1, x18, x21 # perform operation
    1c94:	015930b3          	sltu	x1,x18,x21
  # Check if x1 contains the expected result. x6 is the signature ptr, x5 is the link ptr, x4 is a temp reg.
  RVTEST_SIGUPD(x6, x5, x4, x1, I_sltu_cg_cr_rs1_rs2_edges_rs1val_0x80000000_rs2val_0x7ffffffe, I_sltu_cg_cr_rs1_rs2_edges_rs1val_0x80000000_rs2val_0x7ffffffe_str)
    1c98:	00032203          	lw	x4,0(x6)
    1c9c:	00120863          	beq	x4,x1,1cac <I_sltu_cg_cr_rs1_rs2_edges_rs1val_0x80000000_rs2val_0x7ffffffe+0x18>
    1ca0:	05d022ef          	jal	x5,44fc <failedtest_x5_x4>
    1ca4:	00001c94          	.word	0x00001c94
    1ca8:	0000b274          	.word	0x0000b274
    1cac:	00430313          	addi	x6,x6,4

# Testcase cr_rs1_rs2_edges (Test source rs1 = 0x80000000 rs2 = 0xffffffff)
  RVTEST_TESTDATA_LOAD_INT(x11, x10) # load rs1: x10 = 0x80000000
    1cb0:	0005a503          	lw	x10,0(x11)
    1cb4:	00458593          	addi	x11,x11,4
  RVTEST_TESTDATA_LOAD_INT(x11, x16) # load rs2: x16 = 0xffffffff
    1cb8:	0005a803          	lw	x16,0(x11)
    1cbc:	00458593          	addi	x11,x11,4

00001cc0 <I_sltu_cg_cr_rs1_rs2_edges_rs1val_0x80000000_rs2val_0xffffffff>:
I_sltu_cg_cr_rs1_rs2_edges_rs1val_0x80000000_rs2val_0xffffffff:
  sltu x12, x10, x16 # perform operation
    1cc0:	01053633          	sltu	x12,x10,x16
  # Check if x12 contains the expected result. x6 is the signature ptr, x5 is the link ptr, x4 is a temp reg.
  RVTEST_SIGUPD(x6, x5, x4, x12, I_sltu_cg_cr_rs1_rs2_edges_rs1val_0x80000000_rs2val_0xffffffff, I_sltu_cg_cr_rs1_rs2_edges_rs1val_0x80000000_rs2val_0xffffffff_str)
    1cc4:	00032203          	lw	x4,0(x6)
    1cc8:	00c20863          	beq	x4,x12,1cd8 <I_sltu_cg_cr_rs1_rs2_edges_rs1val_0x80000000_rs2val_0xffffffff+0x18>
    1ccc:	031022ef          	jal	x5,44fc <failedtest_x5_x4>
    1cd0:	00001cc0          	.word	0x00001cc0
    1cd4:	0000b2d0          	.word	0x0000b2d0
    1cd8:	00430313          	addi	x6,x6,4

# Testcase cr_rs1_rs2_edges (Test source rs1 = 0x80000000 rs2 = 0xfffffffe)
  RVTEST_TESTDATA_LOAD_INT(x11, x29) # load rs1: x29 = 0x80000000
    1cdc:	0005ae83          	lw	x29,0(x11)
    1ce0:	00458593          	addi	x11,x11,4
  RVTEST_TESTDATA_LOAD_INT(x11, x3) # load rs2: x3 = 0xfffffffe
    1ce4:	0005a183          	lw	x3,0(x11)
    1ce8:	00458593          	addi	x11,x11,4

00001cec <I_sltu_cg_cr_rs1_rs2_edges_rs1val_0x80000000_rs2val_0xfffffffe>:
I_sltu_cg_cr_rs1_rs2_edges_rs1val_0x80000000_rs2val_0xfffffffe:
  sltu x30, x29, x3 # perform operation
    1cec:	003ebf33          	sltu	x30,x29,x3
  # Check if x30 contains the expected result. x6 is the signature ptr, x5 is the link ptr, x4 is a temp reg.
  RVTEST_SIGUPD(x6, x5, x4, x30, I_sltu_cg_cr_rs1_rs2_edges_rs1val_0x80000000_rs2val_0xfffffffe, I_sltu_cg_cr_rs1_rs2_edges_rs1val_0x80000000_rs2val_0xfffffffe_str)
    1cf0:	00032203          	lw	x4,0(x6)
    1cf4:	01e20863          	beq	x4,x30,1d04 <I_sltu_cg_cr_rs1_rs2_edges_rs1val_0x80000000_rs2val_0xfffffffe+0x18>
    1cf8:	005022ef          	jal	x5,44fc <failedtest_x5_x4>
    1cfc:	00001cec          	.word	0x00001cec
    1d00:	0000b32c          	.word	0x0000b32c
    1d04:	00430313          	addi	x6,x6,4

# Testcase cr_rs1_rs2_edges (Test source rs1 = 0x80000000 rs2 = 0x5bbc8872)
  RVTEST_TESTDATA_LOAD_INT(x11, x17) # load rs1: x17 = 0x80000000
    1d08:	0005a883          	lw	x17,0(x11)
    1d0c:	00458593          	addi	x11,x11,4
  RVTEST_TESTDATA_LOAD_INT(x11, x28) # load rs2: x28 = 0x5bbc8872
    1d10:	0005ae03          	lw	x28,0(x11)
    1d14:	00458593          	addi	x11,x11,4

00001d18 <I_sltu_cg_cr_rs1_rs2_edges_rs1val_0x80000000_rs2val_0x5bbc8872>:
I_sltu_cg_cr_rs1_rs2_edges_rs1val_0x80000000_rs2val_0x5bbc8872:
  sltu x3, x17, x28 # perform operation
    1d18:	01c8b1b3          	sltu	x3,x17,x28
  # Check if x3 contains the expected result. x6 is the signature ptr, x5 is the link ptr, x4 is a temp reg.
  RVTEST_SIGUPD(x6, x5, x4, x3, I_sltu_cg_cr_rs1_rs2_edges_rs1val_0x80000000_rs2val_0x5bbc8872, I_sltu_cg_cr_rs1_rs2_edges_rs1val_0x80000000_rs2val_0x5bbc8872_str)
    1d1c:	00032203          	lw	x4,0(x6)
    1d20:	00320863          	beq	x4,x3,1d30 <I_sltu_cg_cr_rs1_rs2_edges_rs1val_0x80000000_rs2val_0x5bbc8872+0x18>
    1d24:	7d8022ef          	jal	x5,44fc <failedtest_x5_x4>
    1d28:	00001d18          	.word	0x00001d18
    1d2c:	0000b388          	.word	0x0000b388
    1d30:	00430313          	addi	x6,x6,4

# Testcase cr_rs1_rs2_edges (Test source rs1 = 0x80000000 rs2 = 0xaaaaaaaa)
  RVTEST_TESTDATA_LOAD_INT(x11, x16) # load rs1: x16 = 0x80000000
    1d34:	0005a803          	lw	x16,0(x11)
    1d38:	00458593          	addi	x11,x11,4
  RVTEST_TESTDATA_LOAD_INT(x11, x9) # load rs2: x9 = 0xaaaaaaaa
    1d3c:	0005a483          	lw	x9,0(x11)
    1d40:	00458593          	addi	x11,x11,4

00001d44 <I_sltu_cg_cr_rs1_rs2_edges_rs1val_0x80000000_rs2val_0xaaaaaaaa>:
I_sltu_cg_cr_rs1_rs2_edges_rs1val_0x80000000_rs2val_0xaaaaaaaa:
  sltu x10, x16, x9 # perform operation
    1d44:	00983533          	sltu	x10,x16,x9
  # Check if x10 contains the expected result. x6 is the signature ptr, x5 is the link ptr, x4 is a temp reg.
  RVTEST_SIGUPD(x6, x5, x4, x10, I_sltu_cg_cr_rs1_rs2_edges_rs1val_0x80000000_rs2val_0xaaaaaaaa, I_sltu_cg_cr_rs1_rs2_edges_rs1val_0x80000000_rs2val_0xaaaaaaaa_str)
    1d48:	00032203          	lw	x4,0(x6)
    1d4c:	00a20863          	beq	x4,x10,1d5c <I_sltu_cg_cr_rs1_rs2_edges_rs1val_0x80000000_rs2val_0xaaaaaaaa+0x18>
    1d50:	7ac022ef          	jal	x5,44fc <failedtest_x5_x4>
    1d54:	00001d44          	.word	0x00001d44
    1d58:	0000b3e4          	.word	0x0000b3e4
    1d5c:	00430313          	addi	x6,x6,4

# Testcase cr_rs1_rs2_edges (Test source rs1 = 0x80000000 rs2 = 0x55555555)
  RVTEST_TESTDATA_LOAD_INT(x11, x26) # load rs1: x26 = 0x80000000
    1d60:	0005ad03          	lw	x26,0(x11)
    1d64:	00458593          	addi	x11,x11,4
  RVTEST_TESTDATA_LOAD_INT(x11, x22) # load rs2: x22 = 0x55555555
    1d68:	0005ab03          	lw	x22,0(x11)
    1d6c:	00458593          	addi	x11,x11,4

00001d70 <I_sltu_cg_cr_rs1_rs2_edges_rs1val_0x80000000_rs2val_0x55555555>:
I_sltu_cg_cr_rs1_rs2_edges_rs1val_0x80000000_rs2val_0x55555555:
  sltu x9, x26, x22 # perform operation
    1d70:	016d34b3          	sltu	x9,x26,x22
  # Check if x9 contains the expected result. x6 is the signature ptr, x5 is the link ptr, x4 is a temp reg.
  RVTEST_SIGUPD(x6, x5, x4, x9, I_sltu_cg_cr_rs1_rs2_edges_rs1val_0x80000000_rs2val_0x55555555, I_sltu_cg_cr_rs1_rs2_edges_rs1val_0x80000000_rs2val_0x55555555_str)
    1d74:	00032203          	lw	x4,0(x6)
    1d78:	00920863          	beq	x4,x9,1d88 <I_sltu_cg_cr_rs1_rs2_edges_rs1val_0x80000000_rs2val_0x55555555+0x18>
    1d7c:	780022ef          	jal	x5,44fc <failedtest_x5_x4>
    1d80:	00001d70          	.word	0x00001d70
    1d84:	0000b440          	.word	0x0000b440
    1d88:	00430313          	addi	x6,x6,4

# Testcase cr_rs1_rs2_edges (Test source rs1 = 0x80000001 rs2 = 0x00000000)
  RVTEST_TESTDATA_LOAD_INT(x11, x17) # load rs1: x17 = 0x80000001
    1d8c:	0005a883          	lw	x17,0(x11)
    1d90:	00458593          	addi	x11,x11,4
  RVTEST_TESTDATA_LOAD_INT(x11, x15) # load rs2: x15 = 0x00000000
    1d94:	0005a783          	lw	x15,0(x11)
    1d98:	00458593          	addi	x11,x11,4

00001d9c <I_sltu_cg_cr_rs1_rs2_edges_rs1val_0x80000001_rs2val_0x0>:
I_sltu_cg_cr_rs1_rs2_edges_rs1val_0x80000001_rs2val_0x0:
  sltu x23, x17, x15 # perform operation
    1d9c:	00f8bbb3          	sltu	x23,x17,x15
  # Check if x23 contains the expected result. x6 is the signature ptr, x5 is the link ptr, x4 is a temp reg.
  RVTEST_SIGUPD(x6, x5, x4, x23, I_sltu_cg_cr_rs1_rs2_edges_rs1val_0x80000001_rs2val_0x0, I_sltu_cg_cr_rs1_rs2_edges_rs1val_0x80000001_rs2val_0x0_str)
    1da0:	00032203          	lw	x4,0(x6)
    1da4:	01720863          	beq	x4,x23,1db4 <I_sltu_cg_cr_rs1_rs2_edges_rs1val_0x80000001_rs2val_0x0+0x18>
    1da8:	754022ef          	jal	x5,44fc <failedtest_x5_x4>
    1dac:	00001d9c          	.word	0x00001d9c
    1db0:	0000b49c          	.word	0x0000b49c
    1db4:	00430313          	addi	x6,x6,4

# Testcase cr_rs1_rs2_edges (Test source rs1 = 0x80000001 rs2 = 0x00000001)
  RVTEST_TESTDATA_LOAD_INT(x11, x1) # load rs1: x1 = 0x80000001
    1db8:	0005a083          	lw	x1,0(x11)
    1dbc:	00458593          	addi	x11,x11,4
  RVTEST_TESTDATA_LOAD_INT(x11, x19) # load rs2: x19 = 0x00000001
    1dc0:	0005a983          	lw	x19,0(x11)
    1dc4:	00458593          	addi	x11,x11,4

00001dc8 <I_sltu_cg_cr_rs1_rs2_edges_rs1val_0x80000001_rs2val_0x1>:
I_sltu_cg_cr_rs1_rs2_edges_rs1val_0x80000001_rs2val_0x1:
  sltu x29, x1, x19 # perform operation
    1dc8:	0130beb3          	sltu	x29,x1,x19
  # Check if x29 contains the expected result. x6 is the signature ptr, x5 is the link ptr, x4 is a temp reg.
  RVTEST_SIGUPD(x6, x5, x4, x29, I_sltu_cg_cr_rs1_rs2_edges_rs1val_0x80000001_rs2val_0x1, I_sltu_cg_cr_rs1_rs2_edges_rs1val_0x80000001_rs2val_0x1_str)
    1dcc:	00032203          	lw	x4,0(x6)
    1dd0:	01d20863          	beq	x4,x29,1de0 <I_sltu_cg_cr_rs1_rs2_edges_rs1val_0x80000001_rs2val_0x1+0x18>
    1dd4:	728022ef          	jal	x5,44fc <failedtest_x5_x4>
    1dd8:	00001dc8          	.word	0x00001dc8
    1ddc:	0000b4f1          	.word	0x0000b4f1
    1de0:	00430313          	addi	x6,x6,4

# Testcase cr_rs1_rs2_edges (Test source rs1 = 0x80000001 rs2 = 0x00000002)
  RVTEST_TESTDATA_LOAD_INT(x11, x1) # load rs1: x1 = 0x80000001
    1de4:	0005a083          	lw	x1,0(x11)
    1de8:	00458593          	addi	x11,x11,4
  RVTEST_TESTDATA_LOAD_INT(x11, x10) # load rs2: x10 = 0x00000002
    1dec:	0005a503          	lw	x10,0(x11)
    1df0:	00458593          	addi	x11,x11,4

00001df4 <I_sltu_cg_cr_rs1_rs2_edges_rs1val_0x80000001_rs2val_0x2>:
I_sltu_cg_cr_rs1_rs2_edges_rs1val_0x80000001_rs2val_0x2:
  sltu x21, x1, x10 # perform operation
    1df4:	00a0bab3          	sltu	x21,x1,x10
  # Check if x21 contains the expected result. x6 is the signature ptr, x5 is the link ptr, x4 is a temp reg.
  RVTEST_SIGUPD(x6, x5, x4, x21, I_sltu_cg_cr_rs1_rs2_edges_rs1val_0x80000001_rs2val_0x2, I_sltu_cg_cr_rs1_rs2_edges_rs1val_0x80000001_rs2val_0x2_str)
    1df8:	00032203          	lw	x4,0(x6)
    1dfc:	01520863          	beq	x4,x21,1e0c <I_sltu_cg_cr_rs1_rs2_edges_rs1val_0x80000001_rs2val_0x2+0x18>
    1e00:	6fc022ef          	jal	x5,44fc <failedtest_x5_x4>
    1e04:	00001df4          	.word	0x00001df4
    1e08:	0000b546          	.word	0x0000b546
    1e0c:	00430313          	addi	x6,x6,4

# Testcase cr_rs1_rs2_edges (Test source rs1 = 0x80000001 rs2 = 0x80000000)
  RVTEST_TESTDATA_LOAD_INT(x11, x24) # load rs1: x24 = 0x80000001
    1e10:	0005ac03          	lw	x24,0(x11)
    1e14:	00458593          	addi	x11,x11,4
  RVTEST_TESTDATA_LOAD_INT(x11, x15) # load rs2: x15 = 0x80000000
    1e18:	0005a783          	lw	x15,0(x11)
    1e1c:	00458593          	addi	x11,x11,4

00001e20 <I_sltu_cg_cr_rs1_rs2_edges_rs1val_0x80000001_rs2val_0x80000000>:
I_sltu_cg_cr_rs1_rs2_edges_rs1val_0x80000001_rs2val_0x80000000:
  sltu x12, x24, x15 # perform operation
    1e20:	00fc3633          	sltu	x12,x24,x15
  # Check if x12 contains the expected result. x6 is the signature ptr, x5 is the link ptr, x4 is a temp reg.
  RVTEST_SIGUPD(x6, x5, x4, x12, I_sltu_cg_cr_rs1_rs2_edges_rs1val_0x80000001_rs2val_0x80000000, I_sltu_cg_cr_rs1_rs2_edges_rs1val_0x80000001_rs2val_0x80000000_str)
    1e24:	00032203          	lw	x4,0(x6)
    1e28:	00c20863          	beq	x4,x12,1e38 <I_sltu_cg_cr_rs1_rs2_edges_rs1val_0x80000001_rs2val_0x80000000+0x18>
    1e2c:	6d0022ef          	jal	x5,44fc <failedtest_x5_x4>
    1e30:	00001e20          	.word	0x00001e20
    1e34:	0000b59b          	.word	0x0000b59b
    1e38:	00430313          	addi	x6,x6,4

# Testcase cr_rs1_rs2_edges (Test source rs1 = 0x80000001 rs2 = 0x80000001)
  RVTEST_TESTDATA_LOAD_INT(x11, x28) # load rs1: x28 = 0x80000001
    1e3c:	0005ae03          	lw	x28,0(x11)
    1e40:	00458593          	addi	x11,x11,4
  RVTEST_TESTDATA_LOAD_INT(x11, x20) # load rs2: x20 = 0x80000001
    1e44:	0005aa03          	lw	x20,0(x11)
    1e48:	00458593          	addi	x11,x11,4

00001e4c <I_sltu_cg_cr_rs1_rs2_edges_rs1val_0x80000001_rs2val_0x80000001>:
I_sltu_cg_cr_rs1_rs2_edges_rs1val_0x80000001_rs2val_0x80000001:
  sltu x2, x28, x20 # perform operation
    1e4c:	014e3133          	sltu	x2,x28,x20
  # Check if x2 contains the expected result. x6 is the signature ptr, x5 is the link ptr, x4 is a temp reg.
  RVTEST_SIGUPD(x6, x5, x4, x2, I_sltu_cg_cr_rs1_rs2_edges_rs1val_0x80000001_rs2val_0x80000001, I_sltu_cg_cr_rs1_rs2_edges_rs1val_0x80000001_rs2val_0x80000001_str)
    1e50:	00032203          	lw	x4,0(x6)
    1e54:	00220863          	beq	x4,x2,1e64 <I_sltu_cg_cr_rs1_rs2_edges_rs1val_0x80000001_rs2val_0x80000001+0x18>
    1e58:	6a4022ef          	jal	x5,44fc <failedtest_x5_x4>
    1e5c:	00001e4c          	.word	0x00001e4c
    1e60:	0000b5f7          	.word	0x0000b5f7
    1e64:	00430313          	addi	x6,x6,4

# Testcase cr_rs1_rs2_edges (Test source rs1 = 0x80000001 rs2 = 0x7fffffff)
  RVTEST_TESTDATA_LOAD_INT(x11, x8) # load rs1: x8 = 0x80000001
    1e68:	0005a403          	lw	x8,0(x11)
    1e6c:	00458593          	addi	x11,x11,4
  RVTEST_TESTDATA_LOAD_INT(x11, x22) # load rs2: x22 = 0x7fffffff
    1e70:	0005ab03          	lw	x22,0(x11)
    1e74:	00458593          	addi	x11,x11,4

00001e78 <I_sltu_cg_cr_rs1_rs2_edges_rs1val_0x80000001_rs2val_0x7fffffff>:
I_sltu_cg_cr_rs1_rs2_edges_rs1val_0x80000001_rs2val_0x7fffffff:
  sltu x19, x8, x22 # perform operation
    1e78:	016439b3          	sltu	x19,x8,x22
  # Check if x19 contains the expected result. x6 is the signature ptr, x5 is the link ptr, x4 is a temp reg.
  RVTEST_SIGUPD(x6, x5, x4, x19, I_sltu_cg_cr_rs1_rs2_edges_rs1val_0x80000001_rs2val_0x7fffffff, I_sltu_cg_cr_rs1_rs2_edges_rs1val_0x80000001_rs2val_0x7fffffff_str)
    1e7c:	00032203          	lw	x4,0(x6)
    1e80:	01320863          	beq	x4,x19,1e90 <I_sltu_cg_cr_rs1_rs2_edges_rs1val_0x80000001_rs2val_0x7fffffff+0x18>
    1e84:	678022ef          	jal	x5,44fc <failedtest_x5_x4>
    1e88:	00001e78          	.word	0x00001e78
    1e8c:	0000b653          	.word	0x0000b653
    1e90:	00430313          	addi	x6,x6,4

# Testcase cr_rs1_rs2_edges (Test source rs1 = 0x80000001 rs2 = 0x7ffffffe)
  RVTEST_TESTDATA_LOAD_INT(x11, x25) # load rs1: x25 = 0x80000001
    1e94:	0005ac83          	lw	x25,0(x11)
    1e98:	00458593          	addi	x11,x11,4
  RVTEST_TESTDATA_LOAD_INT(x11, x9) # load rs2: x9 = 0x7ffffffe
    1e9c:	0005a483          	lw	x9,0(x11)
    1ea0:	00458593          	addi	x11,x11,4

00001ea4 <I_sltu_cg_cr_rs1_rs2_edges_rs1val_0x80000001_rs2val_0x7ffffffe>:
I_sltu_cg_cr_rs1_rs2_edges_rs1val_0x80000001_rs2val_0x7ffffffe:
  sltu x18, x25, x9 # perform operation
    1ea4:	009cb933          	sltu	x18,x25,x9
  # Check if x18 contains the expected result. x6 is the signature ptr, x5 is the link ptr, x4 is a temp reg.
  RVTEST_SIGUPD(x6, x5, x4, x18, I_sltu_cg_cr_rs1_rs2_edges_rs1val_0x80000001_rs2val_0x7ffffffe, I_sltu_cg_cr_rs1_rs2_edges_rs1val_0x80000001_rs2val_0x7ffffffe_str)
    1ea8:	00032203          	lw	x4,0(x6)
    1eac:	01220863          	beq	x4,x18,1ebc <I_sltu_cg_cr_rs1_rs2_edges_rs1val_0x80000001_rs2val_0x7ffffffe+0x18>
    1eb0:	64c022ef          	jal	x5,44fc <failedtest_x5_x4>
    1eb4:	00001ea4          	.word	0x00001ea4
    1eb8:	0000b6af          	.word	0x0000b6af
    1ebc:	00430313          	addi	x6,x6,4

# Testcase cr_rs1_rs2_edges (Test source rs1 = 0x80000001 rs2 = 0xffffffff)
  RVTEST_TESTDATA_LOAD_INT(x11, x19) # load rs1: x19 = 0x80000001
    1ec0:	0005a983          	lw	x19,0(x11)
    1ec4:	00458593          	addi	x11,x11,4
  RVTEST_TESTDATA_LOAD_INT(x11, x7) # load rs2: x7 = 0xffffffff
    1ec8:	0005a383          	lw	x7,0(x11)
    1ecc:	00458593          	addi	x11,x11,4

00001ed0 <I_sltu_cg_cr_rs1_rs2_edges_rs1val_0x80000001_rs2val_0xffffffff>:
I_sltu_cg_cr_rs1_rs2_edges_rs1val_0x80000001_rs2val_0xffffffff:
  sltu x15, x19, x7 # perform operation
    1ed0:	0079b7b3          	sltu	x15,x19,x7
  # Check if x15 contains the expected result. x6 is the signature ptr, x5 is the link ptr, x4 is a temp reg.
  RVTEST_SIGUPD(x6, x5, x4, x15, I_sltu_cg_cr_rs1_rs2_edges_rs1val_0x80000001_rs2val_0xffffffff, I_sltu_cg_cr_rs1_rs2_edges_rs1val_0x80000001_rs2val_0xffffffff_str)
    1ed4:	00032203          	lw	x4,0(x6)
    1ed8:	00f20863          	beq	x4,x15,1ee8 <I_sltu_cg_cr_rs1_rs2_edges_rs1val_0x80000001_rs2val_0xffffffff+0x18>
    1edc:	620022ef          	jal	x5,44fc <failedtest_x5_x4>
    1ee0:	00001ed0          	.word	0x00001ed0
    1ee4:	0000b70b          	.word	0x0000b70b
    1ee8:	00430313          	addi	x6,x6,4

# Testcase cr_rs1_rs2_edges (Test source rs1 = 0x80000001 rs2 = 0xfffffffe)
  RVTEST_TESTDATA_LOAD_INT(x11, x1) # load rs1: x1 = 0x80000001
    1eec:	0005a083          	lw	x1,0(x11)
    1ef0:	00458593          	addi	x11,x11,4
  RVTEST_TESTDATA_LOAD_INT(x11, x3) # load rs2: x3 = 0xfffffffe
    1ef4:	0005a183          	lw	x3,0(x11)
    1ef8:	00458593          	addi	x11,x11,4

00001efc <I_sltu_cg_cr_rs1_rs2_edges_rs1val_0x80000001_rs2val_0xfffffffe>:
I_sltu_cg_cr_rs1_rs2_edges_rs1val_0x80000001_rs2val_0xfffffffe:
  sltu x29, x1, x3 # perform operation
    1efc:	0030beb3          	sltu	x29,x1,x3
  # Check if x29 contains the expected result. x6 is the signature ptr, x5 is the link ptr, x4 is a temp reg.
  RVTEST_SIGUPD(x6, x5, x4, x29, I_sltu_cg_cr_rs1_rs2_edges_rs1val_0x80000001_rs2val_0xfffffffe, I_sltu_cg_cr_rs1_rs2_edges_rs1val_0x80000001_rs2val_0xfffffffe_str)
    1f00:	00032203          	lw	x4,0(x6)
    1f04:	01d20863          	beq	x4,x29,1f14 <I_sltu_cg_cr_rs1_rs2_edges_rs1val_0x80000001_rs2val_0xfffffffe+0x18>
    1f08:	5f4022ef          	jal	x5,44fc <failedtest_x5_x4>
    1f0c:	00001efc          	.word	0x00001efc
    1f10:	0000b767          	.word	0x0000b767
    1f14:	00430313          	addi	x6,x6,4

# Testcase cr_rs1_rs2_edges (Test source rs1 = 0x80000001 rs2 = 0x5bbc8872)
  RVTEST_TESTDATA_LOAD_INT(x11, x21) # load rs1: x21 = 0x80000001
    1f18:	0005aa83          	lw	x21,0(x11)
    1f1c:	00458593          	addi	x11,x11,4
  RVTEST_TESTDATA_LOAD_INT(x11, x29) # load rs2: x29 = 0x5bbc8872
    1f20:	0005ae83          	lw	x29,0(x11)
    1f24:	00458593          	addi	x11,x11,4

00001f28 <I_sltu_cg_cr_rs1_rs2_edges_rs1val_0x80000001_rs2val_0x5bbc8872>:
I_sltu_cg_cr_rs1_rs2_edges_rs1val_0x80000001_rs2val_0x5bbc8872:
  sltu x9, x21, x29 # perform operation
    1f28:	01dab4b3          	sltu	x9,x21,x29
  # Check if x9 contains the expected result. x6 is the signature ptr, x5 is the link ptr, x4 is a temp reg.
  RVTEST_SIGUPD(x6, x5, x4, x9, I_sltu_cg_cr_rs1_rs2_edges_rs1val_0x80000001_rs2val_0x5bbc8872, I_sltu_cg_cr_rs1_rs2_edges_rs1val_0x80000001_rs2val_0x5bbc8872_str)
    1f2c:	00032203          	lw	x4,0(x6)
    1f30:	00920863          	beq	x4,x9,1f40 <I_sltu_cg_cr_rs1_rs2_edges_rs1val_0x80000001_rs2val_0x5bbc8872+0x18>
    1f34:	5c8022ef          	jal	x5,44fc <failedtest_x5_x4>
    1f38:	00001f28          	.word	0x00001f28
    1f3c:	0000b7c3          	.word	0x0000b7c3
    1f40:	00430313          	addi	x6,x6,4

# Testcase cr_rs1_rs2_edges (Test source rs1 = 0x80000001 rs2 = 0xaaaaaaaa)
  RVTEST_TESTDATA_LOAD_INT(x11, x15) # load rs1: x15 = 0x80000001
    1f44:	0005a783          	lw	x15,0(x11)
    1f48:	00458593          	addi	x11,x11,4
  RVTEST_TESTDATA_LOAD_INT(x11, x17) # load rs2: x17 = 0xaaaaaaaa
    1f4c:	0005a883          	lw	x17,0(x11)
    1f50:	00458593          	addi	x11,x11,4

00001f54 <I_sltu_cg_cr_rs1_rs2_edges_rs1val_0x80000001_rs2val_0xaaaaaaaa>:
I_sltu_cg_cr_rs1_rs2_edges_rs1val_0x80000001_rs2val_0xaaaaaaaa:
  sltu x23, x15, x17 # perform operation
    1f54:	0117bbb3          	sltu	x23,x15,x17
  # Check if x23 contains the expected result. x6 is the signature ptr, x5 is the link ptr, x4 is a temp reg.
  RVTEST_SIGUPD(x6, x5, x4, x23, I_sltu_cg_cr_rs1_rs2_edges_rs1val_0x80000001_rs2val_0xaaaaaaaa, I_sltu_cg_cr_rs1_rs2_edges_rs1val_0x80000001_rs2val_0xaaaaaaaa_str)
    1f58:	00032203          	lw	x4,0(x6)
    1f5c:	01720863          	beq	x4,x23,1f6c <I_sltu_cg_cr_rs1_rs2_edges_rs1val_0x80000001_rs2val_0xaaaaaaaa+0x18>
    1f60:	59c022ef          	jal	x5,44fc <failedtest_x5_x4>
    1f64:	00001f54          	.word	0x00001f54
    1f68:	0000b81f          	.word	0x0000b81f
    1f6c:	00430313          	addi	x6,x6,4

# Testcase cr_rs1_rs2_edges (Test source rs1 = 0x80000001 rs2 = 0x55555555)
  RVTEST_TESTDATA_LOAD_INT(x11, x17) # load rs1: x17 = 0x80000001
    1f70:	0005a883          	lw	x17,0(x11)
    1f74:	00458593          	addi	x11,x11,4
  RVTEST_TESTDATA_LOAD_INT(x11, x14) # load rs2: x14 = 0x55555555
    1f78:	0005a703          	lw	x14,0(x11)
    1f7c:	00458593          	addi	x11,x11,4

00001f80 <I_sltu_cg_cr_rs1_rs2_edges_rs1val_0x80000001_rs2val_0x55555555>:
I_sltu_cg_cr_rs1_rs2_edges_rs1val_0x80000001_rs2val_0x55555555:
  sltu x9, x17, x14 # perform operation
    1f80:	00e8b4b3          	sltu	x9,x17,x14
  # Check if x9 contains the expected result. x6 is the signature ptr, x5 is the link ptr, x4 is a temp reg.
  RVTEST_SIGUPD(x6, x5, x4, x9, I_sltu_cg_cr_rs1_rs2_edges_rs1val_0x80000001_rs2val_0x55555555, I_sltu_cg_cr_rs1_rs2_edges_rs1val_0x80000001_rs2val_0x55555555_str)
    1f84:	00032203          	lw	x4,0(x6)
    1f88:	00920863          	beq	x4,x9,1f98 <I_sltu_cg_cr_rs1_rs2_edges_rs1val_0x80000001_rs2val_0x55555555+0x18>
    1f8c:	570022ef          	jal	x5,44fc <failedtest_x5_x4>
    1f90:	00001f80          	.word	0x00001f80
    1f94:	0000b87b          	.word	0x0000b87b
    1f98:	00430313          	addi	x6,x6,4

# Testcase cr_rs1_rs2_edges (Test source rs1 = 0x7fffffff rs2 = 0x00000000)
  RVTEST_TESTDATA_LOAD_INT(x11, x17) # load rs1: x17 = 0x7fffffff
    1f9c:	0005a883          	lw	x17,0(x11)
    1fa0:	00458593          	addi	x11,x11,4
  RVTEST_TESTDATA_LOAD_INT(x11, x25) # load rs2: x25 = 0x00000000
    1fa4:	0005ac83          	lw	x25,0(x11)
    1fa8:	00458593          	addi	x11,x11,4

00001fac <I_sltu_cg_cr_rs1_rs2_edges_rs1val_0x7fffffff_rs2val_0x0>:
I_sltu_cg_cr_rs1_rs2_edges_rs1val_0x7fffffff_rs2val_0x0:
  sltu x21, x17, x25 # perform operation
    1fac:	0198bab3          	sltu	x21,x17,x25
  # Check if x21 contains the expected result. x6 is the signature ptr, x5 is the link ptr, x4 is a temp reg.
  RVTEST_SIGUPD(x6, x5, x4, x21, I_sltu_cg_cr_rs1_rs2_edges_rs1val_0x7fffffff_rs2val_0x0, I_sltu_cg_cr_rs1_rs2_edges_rs1val_0x7fffffff_rs2val_0x0_str)
    1fb0:	00032203          	lw	x4,0(x6)
    1fb4:	01520863          	beq	x4,x21,1fc4 <I_sltu_cg_cr_rs1_rs2_edges_rs1val_0x7fffffff_rs2val_0x0+0x18>
    1fb8:	544022ef          	jal	x5,44fc <failedtest_x5_x4>
    1fbc:	00001fac          	.word	0x00001fac
    1fc0:	0000b8d7          	.word	0x0000b8d7
    1fc4:	00430313          	addi	x6,x6,4

# Testcase cr_rs1_rs2_edges (Test source rs1 = 0x7fffffff rs2 = 0x00000001)
  RVTEST_TESTDATA_LOAD_INT(x11, x2) # load rs1: x2 = 0x7fffffff
    1fc8:	0005a103          	lw	x2,0(x11)
    1fcc:	00458593          	addi	x11,x11,4
  RVTEST_TESTDATA_LOAD_INT(x11, x19) # load rs2: x19 = 0x00000001
    1fd0:	0005a983          	lw	x19,0(x11)
    1fd4:	00458593          	addi	x11,x11,4

00001fd8 <I_sltu_cg_cr_rs1_rs2_edges_rs1val_0x7fffffff_rs2val_0x1>:
I_sltu_cg_cr_rs1_rs2_edges_rs1val_0x7fffffff_rs2val_0x1:
  sltu x3, x2, x19 # perform operation
    1fd8:	013131b3          	sltu	x3,x2,x19
  # Check if x3 contains the expected result. x6 is the signature ptr, x5 is the link ptr, x4 is a temp reg.
  RVTEST_SIGUPD(x6, x5, x4, x3, I_sltu_cg_cr_rs1_rs2_edges_rs1val_0x7fffffff_rs2val_0x1, I_sltu_cg_cr_rs1_rs2_edges_rs1val_0x7fffffff_rs2val_0x1_str)
    1fdc:	00032203          	lw	x4,0(x6)
    1fe0:	00320863          	beq	x4,x3,1ff0 <I_sltu_cg_cr_rs1_rs2_edges_rs1val_0x7fffffff_rs2val_0x1+0x18>
    1fe4:	518022ef          	jal	x5,44fc <failedtest_x5_x4>
    1fe8:	00001fd8          	.word	0x00001fd8
    1fec:	0000b92c          	.word	0x0000b92c
    1ff0:	00430313          	addi	x6,x6,4

# Testcase cr_rs1_rs2_edges (Test source rs1 = 0x7fffffff rs2 = 0x00000002)
  RVTEST_TESTDATA_LOAD_INT(x11, x12) # load rs1: x12 = 0x7fffffff
    1ff4:	0005a603          	lw	x12,0(x11)
    1ff8:	00458593          	addi	x11,x11,4
  RVTEST_TESTDATA_LOAD_INT(x11, x28) # load rs2: x28 = 0x00000002
    1ffc:	0005ae03          	lw	x28,0(x11)
    2000:	00458593          	addi	x11,x11,4

00002004 <I_sltu_cg_cr_rs1_rs2_edges_rs1val_0x7fffffff_rs2val_0x2>:
I_sltu_cg_cr_rs1_rs2_edges_rs1val_0x7fffffff_rs2val_0x2:
  sltu x26, x12, x28 # perform operation
    2004:	01c63d33          	sltu	x26,x12,x28
  # Check if x26 contains the expected result. x6 is the signature ptr, x5 is the link ptr, x4 is a temp reg.
  RVTEST_SIGUPD(x6, x5, x4, x26, I_sltu_cg_cr_rs1_rs2_edges_rs1val_0x7fffffff_rs2val_0x2, I_sltu_cg_cr_rs1_rs2_edges_rs1val_0x7fffffff_rs2val_0x2_str)
    2008:	00032203          	lw	x4,0(x6)
    200c:	01a20863          	beq	x4,x26,201c <I_sltu_cg_cr_rs1_rs2_edges_rs1val_0x7fffffff_rs2val_0x2+0x18>
    2010:	4ec022ef          	jal	x5,44fc <failedtest_x5_x4>
    2014:	00002004          	.word	0x00002004
    2018:	0000b981          	.word	0x0000b981
    201c:	00430313          	addi	x6,x6,4

# Testcase cr_rs1_rs2_edges (Test source rs1 = 0x7fffffff rs2 = 0x80000000)
  RVTEST_TESTDATA_LOAD_INT(x11, x13) # load rs1: x13 = 0x7fffffff
    2020:	0005a683          	lw	x13,0(x11)
    2024:	00458593          	addi	x11,x11,4
  RVTEST_TESTDATA_LOAD_INT(x11, x25) # load rs2: x25 = 0x80000000
    2028:	0005ac83          	lw	x25,0(x11)
    202c:	00458593          	addi	x11,x11,4

00002030 <I_sltu_cg_cr_rs1_rs2_edges_rs1val_0x7fffffff_rs2val_0x80000000>:
I_sltu_cg_cr_rs1_rs2_edges_rs1val_0x7fffffff_rs2val_0x80000000:
  sltu x27, x13, x25 # perform operation
    2030:	0196bdb3          	sltu	x27,x13,x25
  # Check if x27 contains the expected result. x6 is the signature ptr, x5 is the link ptr, x4 is a temp reg.
  RVTEST_SIGUPD(x6, x5, x4, x27, I_sltu_cg_cr_rs1_rs2_edges_rs1val_0x7fffffff_rs2val_0x80000000, I_sltu_cg_cr_rs1_rs2_edges_rs1val_0x7fffffff_rs2val_0x80000000_str)
    2034:	00032203          	lw	x4,0(x6)
    2038:	01b20863          	beq	x4,x27,2048 <I_sltu_cg_cr_rs1_rs2_edges_rs1val_0x7fffffff_rs2val_0x80000000+0x18>
    203c:	4c0022ef          	jal	x5,44fc <failedtest_x5_x4>
    2040:	00002030          	.word	0x00002030
    2044:	0000b9d6          	.word	0x0000b9d6
    2048:	00430313          	addi	x6,x6,4

# Testcase cr_rs1_rs2_edges (Test source rs1 = 0x7fffffff rs2 = 0x80000001)
  RVTEST_TESTDATA_LOAD_INT(x11, x28) # load rs1: x28 = 0x7fffffff
    204c:	0005ae03          	lw	x28,0(x11)
    2050:	00458593          	addi	x11,x11,4
  RVTEST_TESTDATA_LOAD_INT(x11, x3) # load rs2: x3 = 0x80000001
    2054:	0005a183          	lw	x3,0(x11)
    2058:	00458593          	addi	x11,x11,4

0000205c <I_sltu_cg_cr_rs1_rs2_edges_rs1val_0x7fffffff_rs2val_0x80000001>:
I_sltu_cg_cr_rs1_rs2_edges_rs1val_0x7fffffff_rs2val_0x80000001:
  sltu x17, x28, x3 # perform operation
    205c:	003e38b3          	sltu	x17,x28,x3
  # Check if x17 contains the expected result. x6 is the signature ptr, x5 is the link ptr, x4 is a temp reg.
  RVTEST_SIGUPD(x6, x5, x4, x17, I_sltu_cg_cr_rs1_rs2_edges_rs1val_0x7fffffff_rs2val_0x80000001, I_sltu_cg_cr_rs1_rs2_edges_rs1val_0x7fffffff_rs2val_0x80000001_str)
    2060:	00032203          	lw	x4,0(x6)
    2064:	01120863          	beq	x4,x17,2074 <I_sltu_cg_cr_rs1_rs2_edges_rs1val_0x7fffffff_rs2val_0x80000001+0x18>
    2068:	494022ef          	jal	x5,44fc <failedtest_x5_x4>
    206c:	0000205c          	.word	0x0000205c
    2070:	0000ba32          	.word	0x0000ba32
    2074:	00430313          	addi	x6,x6,4

# Testcase cr_rs1_rs2_edges (Test source rs1 = 0x7fffffff rs2 = 0x7fffffff)
  RVTEST_TESTDATA_LOAD_INT(x11, x25) # load rs1: x25 = 0x7fffffff
    2078:	0005ac83          	lw	x25,0(x11)
    207c:	00458593          	addi	x11,x11,4
  RVTEST_TESTDATA_LOAD_INT(x11, x29) # load rs2: x29 = 0x7fffffff
    2080:	0005ae83          	lw	x29,0(x11)
    2084:	00458593          	addi	x11,x11,4

00002088 <I_sltu_cg_cr_rs1_rs2_edges_rs1val_0x7fffffff_rs2val_0x7fffffff>:
I_sltu_cg_cr_rs1_rs2_edges_rs1val_0x7fffffff_rs2val_0x7fffffff:
  sltu x13, x25, x29 # perform operation
    2088:	01dcb6b3          	sltu	x13,x25,x29
  # Check if x13 contains the expected result. x6 is the signature ptr, x5 is the link ptr, x4 is a temp reg.
  RVTEST_SIGUPD(x6, x5, x4, x13, I_sltu_cg_cr_rs1_rs2_edges_rs1val_0x7fffffff_rs2val_0x7fffffff, I_sltu_cg_cr_rs1_rs2_edges_rs1val_0x7fffffff_rs2val_0x7fffffff_str)
    208c:	00032203          	lw	x4,0(x6)
    2090:	00d20863          	beq	x4,x13,20a0 <I_sltu_cg_cr_rs1_rs2_edges_rs1val_0x7fffffff_rs2val_0x7fffffff+0x18>
    2094:	468022ef          	jal	x5,44fc <failedtest_x5_x4>
    2098:	00002088          	.word	0x00002088
    209c:	0000ba8e          	.word	0x0000ba8e
    20a0:	00430313          	addi	x6,x6,4

# Testcase cr_rs1_rs2_edges (Test source rs1 = 0x7fffffff rs2 = 0x7ffffffe)
  RVTEST_TESTDATA_LOAD_INT(x11, x17) # load rs1: x17 = 0x7fffffff
    20a4:	0005a883          	lw	x17,0(x11)
    20a8:	00458593          	addi	x11,x11,4
  RVTEST_TESTDATA_LOAD_INT(x11, x9) # load rs2: x9 = 0x7ffffffe
    20ac:	0005a483          	lw	x9,0(x11)
    20b0:	00458593          	addi	x11,x11,4

000020b4 <I_sltu_cg_cr_rs1_rs2_edges_rs1val_0x7fffffff_rs2val_0x7ffffffe>:
I_sltu_cg_cr_rs1_rs2_edges_rs1val_0x7fffffff_rs2val_0x7ffffffe:
  sltu x31, x17, x9 # perform operation
    20b4:	0098bfb3          	sltu	x31,x17,x9
  # Check if x31 contains the expected result. x6 is the signature ptr, x5 is the link ptr, x4 is a temp reg.
  RVTEST_SIGUPD(x6, x5, x4, x31, I_sltu_cg_cr_rs1_rs2_edges_rs1val_0x7fffffff_rs2val_0x7ffffffe, I_sltu_cg_cr_rs1_rs2_edges_rs1val_0x7fffffff_rs2val_0x7ffffffe_str)
    20b8:	00032203          	lw	x4,0(x6)
    20bc:	01f20863          	beq	x4,x31,20cc <I_sltu_cg_cr_rs1_rs2_edges_rs1val_0x7fffffff_rs2val_0x7ffffffe+0x18>
    20c0:	43c022ef          	jal	x5,44fc <failedtest_x5_x4>
    20c4:	000020b4          	.word	0x000020b4
    20c8:	0000baea          	.word	0x0000baea
    20cc:	00430313          	addi	x6,x6,4

# Testcase cr_rs1_rs2_edges (Test source rs1 = 0x7fffffff rs2 = 0xffffffff)
  RVTEST_TESTDATA_LOAD_INT(x11, x14) # load rs1: x14 = 0x7fffffff
    20d0:	0005a703          	lw	x14,0(x11)
    20d4:	00458593          	addi	x11,x11,4
  RVTEST_TESTDATA_LOAD_INT(x11, x8) # load rs2: x8 = 0xffffffff
    20d8:	0005a403          	lw	x8,0(x11)
    20dc:	00458593          	addi	x11,x11,4

000020e0 <I_sltu_cg_cr_rs1_rs2_edges_rs1val_0x7fffffff_rs2val_0xffffffff>:
I_sltu_cg_cr_rs1_rs2_edges_rs1val_0x7fffffff_rs2val_0xffffffff:
  sltu x16, x14, x8 # perform operation
    20e0:	00873833          	sltu	x16,x14,x8
  # Check if x16 contains the expected result. x6 is the signature ptr, x5 is the link ptr, x4 is a temp reg.
  RVTEST_SIGUPD(x6, x5, x4, x16, I_sltu_cg_cr_rs1_rs2_edges_rs1val_0x7fffffff_rs2val_0xffffffff, I_sltu_cg_cr_rs1_rs2_edges_rs1val_0x7fffffff_rs2val_0xffffffff_str)
    20e4:	00032203          	lw	x4,0(x6)
    20e8:	01020863          	beq	x4,x16,20f8 <I_sltu_cg_cr_rs1_rs2_edges_rs1val_0x7fffffff_rs2val_0xffffffff+0x18>
    20ec:	410022ef          	jal	x5,44fc <failedtest_x5_x4>
    20f0:	000020e0          	.word	0x000020e0
    20f4:	0000bb46          	.word	0x0000bb46
    20f8:	00430313          	addi	x6,x6,4

# Testcase cr_rs1_rs2_edges (Test source rs1 = 0x7fffffff rs2 = 0xfffffffe)
  RVTEST_TESTDATA_LOAD_INT(x11, x10) # load rs1: x10 = 0x7fffffff
    20fc:	0005a503          	lw	x10,0(x11)
    2100:	00458593          	addi	x11,x11,4
  RVTEST_TESTDATA_LOAD_INT(x11, x19) # load rs2: x19 = 0xfffffffe
    2104:	0005a983          	lw	x19,0(x11)
    2108:	00458593          	addi	x11,x11,4

0000210c <I_sltu_cg_cr_rs1_rs2_edges_rs1val_0x7fffffff_rs2val_0xfffffffe>:
I_sltu_cg_cr_rs1_rs2_edges_rs1val_0x7fffffff_rs2val_0xfffffffe:
  sltu x30, x10, x19 # perform operation
    210c:	01353f33          	sltu	x30,x10,x19
  # Check if x30 contains the expected result. x6 is the signature ptr, x5 is the link ptr, x4 is a temp reg.
  RVTEST_SIGUPD(x6, x5, x4, x30, I_sltu_cg_cr_rs1_rs2_edges_rs1val_0x7fffffff_rs2val_0xfffffffe, I_sltu_cg_cr_rs1_rs2_edges_rs1val_0x7fffffff_rs2val_0xfffffffe_str)
    2110:	00032203          	lw	x4,0(x6)
    2114:	01e20863          	beq	x4,x30,2124 <I_sltu_cg_cr_rs1_rs2_edges_rs1val_0x7fffffff_rs2val_0xfffffffe+0x18>
    2118:	3e4022ef          	jal	x5,44fc <failedtest_x5_x4>
    211c:	0000210c          	.word	0x0000210c
    2120:	0000bba2          	.word	0x0000bba2
    2124:	00430313          	addi	x6,x6,4

# Testcase cr_rs1_rs2_edges (Test source rs1 = 0x7fffffff rs2 = 0x5bbc8872)
  RVTEST_TESTDATA_LOAD_INT(x11, x9) # load rs1: x9 = 0x7fffffff
    2128:	0005a483          	lw	x9,0(x11)
    212c:	00458593          	addi	x11,x11,4
  RVTEST_TESTDATA_LOAD_INT(x11, x12) # load rs2: x12 = 0x5bbc8872
    2130:	0005a603          	lw	x12,0(x11)
    2134:	00458593          	addi	x11,x11,4

00002138 <I_sltu_cg_cr_rs1_rs2_edges_rs1val_0x7fffffff_rs2val_0x5bbc8872>:
I_sltu_cg_cr_rs1_rs2_edges_rs1val_0x7fffffff_rs2val_0x5bbc8872:
  sltu x30, x9, x12 # perform operation
    2138:	00c4bf33          	sltu	x30,x9,x12
  # Check if x30 contains the expected result. x6 is the signature ptr, x5 is the link ptr, x4 is a temp reg.
  RVTEST_SIGUPD(x6, x5, x4, x30, I_sltu_cg_cr_rs1_rs2_edges_rs1val_0x7fffffff_rs2val_0x5bbc8872, I_sltu_cg_cr_rs1_rs2_edges_rs1val_0x7fffffff_rs2val_0x5bbc8872_str)
    213c:	00032203          	lw	x4,0(x6)
    2140:	01e20863          	beq	x4,x30,2150 <I_sltu_cg_cr_rs1_rs2_edges_rs1val_0x7fffffff_rs2val_0x5bbc8872+0x18>
    2144:	3b8022ef          	jal	x5,44fc <failedtest_x5_x4>
    2148:	00002138          	.word	0x00002138
    214c:	0000bbfe          	.word	0x0000bbfe
    2150:	00430313          	addi	x6,x6,4

# Testcase cr_rs1_rs2_edges (Test source rs1 = 0x7fffffff rs2 = 0xaaaaaaaa)
  RVTEST_TESTDATA_LOAD_INT(x11, x27) # load rs1: x27 = 0x7fffffff
    2154:	0005ad83          	lw	x27,0(x11)
    2158:	00458593          	addi	x11,x11,4
  RVTEST_TESTDATA_LOAD_INT(x11, x12) # load rs2: x12 = 0xaaaaaaaa
    215c:	0005a603          	lw	x12,0(x11)
    2160:	00458593          	addi	x11,x11,4

00002164 <I_sltu_cg_cr_rs1_rs2_edges_rs1val_0x7fffffff_rs2val_0xaaaaaaaa>:
I_sltu_cg_cr_rs1_rs2_edges_rs1val_0x7fffffff_rs2val_0xaaaaaaaa:
  sltu x18, x27, x12 # perform operation
    2164:	00cdb933          	sltu	x18,x27,x12
  # Check if x18 contains the expected result. x6 is the signature ptr, x5 is the link ptr, x4 is a temp reg.
  RVTEST_SIGUPD(x6, x5, x4, x18, I_sltu_cg_cr_rs1_rs2_edges_rs1val_0x7fffffff_rs2val_0xaaaaaaaa, I_sltu_cg_cr_rs1_rs2_edges_rs1val_0x7fffffff_rs2val_0xaaaaaaaa_str)
    2168:	00032203          	lw	x4,0(x6)
    216c:	01220863          	beq	x4,x18,217c <I_sltu_cg_cr_rs1_rs2_edges_rs1val_0x7fffffff_rs2val_0xaaaaaaaa+0x18>
    2170:	38c022ef          	jal	x5,44fc <failedtest_x5_x4>
    2174:	00002164          	.word	0x00002164
    2178:	0000bc5a          	.word	0x0000bc5a
    217c:	00430313          	addi	x6,x6,4

# Testcase cr_rs1_rs2_edges (Test source rs1 = 0x7fffffff rs2 = 0x55555555)
  RVTEST_TESTDATA_LOAD_INT(x11, x31) # load rs1: x31 = 0x7fffffff
    2180:	0005af83          	lw	x31,0(x11)
    2184:	00458593          	addi	x11,x11,4
  RVTEST_TESTDATA_LOAD_INT(x11, x26) # load rs2: x26 = 0x55555555
    2188:	0005ad03          	lw	x26,0(x11)
    218c:	00458593          	addi	x11,x11,4

00002190 <I_sltu_cg_cr_rs1_rs2_edges_rs1val_0x7fffffff_rs2val_0x55555555>:
I_sltu_cg_cr_rs1_rs2_edges_rs1val_0x7fffffff_rs2val_0x55555555:
  sltu x21, x31, x26 # perform operation
    2190:	01afbab3          	sltu	x21,x31,x26
  # Check if x21 contains the expected result. x6 is the signature ptr, x5 is the link ptr, x4 is a temp reg.
  RVTEST_SIGUPD(x6, x5, x4, x21, I_sltu_cg_cr_rs1_rs2_edges_rs1val_0x7fffffff_rs2val_0x55555555, I_sltu_cg_cr_rs1_rs2_edges_rs1val_0x7fffffff_rs2val_0x55555555_str)
    2194:	00032203          	lw	x4,0(x6)
    2198:	01520863          	beq	x4,x21,21a8 <I_sltu_cg_cr_rs1_rs2_edges_rs1val_0x7fffffff_rs2val_0x55555555+0x18>
    219c:	360022ef          	jal	x5,44fc <failedtest_x5_x4>
    21a0:	00002190          	.word	0x00002190
    21a4:	0000bcb6          	.word	0x0000bcb6
    21a8:	00430313          	addi	x6,x6,4

# Testcase cr_rs1_rs2_edges (Test source rs1 = 0x7ffffffe rs2 = 0x00000000)
  RVTEST_TESTDATA_LOAD_INT(x11, x10) # load rs1: x10 = 0x7ffffffe
    21ac:	0005a503          	lw	x10,0(x11)
    21b0:	00458593          	addi	x11,x11,4
  RVTEST_TESTDATA_LOAD_INT(x11, x21) # load rs2: x21 = 0x00000000
    21b4:	0005aa83          	lw	x21,0(x11)
    21b8:	00458593          	addi	x11,x11,4

000021bc <I_sltu_cg_cr_rs1_rs2_edges_rs1val_0x7ffffffe_rs2val_0x0>:
I_sltu_cg_cr_rs1_rs2_edges_rs1val_0x7ffffffe_rs2val_0x0:
  sltu x18, x10, x21 # perform operation
    21bc:	01553933          	sltu	x18,x10,x21
  # Check if x18 contains the expected result. x6 is the signature ptr, x5 is the link ptr, x4 is a temp reg.
  RVTEST_SIGUPD(x6, x5, x4, x18, I_sltu_cg_cr_rs1_rs2_edges_rs1val_0x7ffffffe_rs2val_0x0, I_sltu_cg_cr_rs1_rs2_edges_rs1val_0x7ffffffe_rs2val_0x0_str)
    21c0:	00032203          	lw	x4,0(x6)
    21c4:	01220863          	beq	x4,x18,21d4 <I_sltu_cg_cr_rs1_rs2_edges_rs1val_0x7ffffffe_rs2val_0x0+0x18>
    21c8:	334022ef          	jal	x5,44fc <failedtest_x5_x4>
    21cc:	000021bc          	.word	0x000021bc
    21d0:	0000bd12          	.word	0x0000bd12
    21d4:	00430313          	addi	x6,x6,4

# Testcase cr_rs1_rs2_edges (Test source rs1 = 0x7ffffffe rs2 = 0x00000001)
  RVTEST_TESTDATA_LOAD_INT(x11, x14) # load rs1: x14 = 0x7ffffffe
    21d8:	0005a703          	lw	x14,0(x11)
    21dc:	00458593          	addi	x11,x11,4
  RVTEST_TESTDATA_LOAD_INT(x11, x7) # load rs2: x7 = 0x00000001
    21e0:	0005a383          	lw	x7,0(x11)
    21e4:	00458593          	addi	x11,x11,4

000021e8 <I_sltu_cg_cr_rs1_rs2_edges_rs1val_0x7ffffffe_rs2val_0x1>:
I_sltu_cg_cr_rs1_rs2_edges_rs1val_0x7ffffffe_rs2val_0x1:
  sltu x1, x14, x7 # perform operation
    21e8:	007730b3          	sltu	x1,x14,x7
  # Check if x1 contains the expected result. x6 is the signature ptr, x5 is the link ptr, x4 is a temp reg.
  RVTEST_SIGUPD(x6, x5, x4, x1, I_sltu_cg_cr_rs1_rs2_edges_rs1val_0x7ffffffe_rs2val_0x1, I_sltu_cg_cr_rs1_rs2_edges_rs1val_0x7ffffffe_rs2val_0x1_str)
    21ec:	00032203          	lw	x4,0(x6)
    21f0:	00120863          	beq	x4,x1,2200 <I_sltu_cg_cr_rs1_rs2_edges_rs1val_0x7ffffffe_rs2val_0x1+0x18>
    21f4:	308022ef          	jal	x5,44fc <failedtest_x5_x4>
    21f8:	000021e8          	.word	0x000021e8
    21fc:	0000bd67          	.word	0x0000bd67
    2200:	00430313          	addi	x6,x6,4

# Testcase cr_rs1_rs2_edges (Test source rs1 = 0x7ffffffe rs2 = 0x00000002)
  RVTEST_TESTDATA_LOAD_INT(x11, x25) # load rs1: x25 = 0x7ffffffe
    2204:	0005ac83          	lw	x25,0(x11)
    2208:	00458593          	addi	x11,x11,4
  RVTEST_TESTDATA_LOAD_INT(x11, x16) # load rs2: x16 = 0x00000002
    220c:	0005a803          	lw	x16,0(x11)
    2210:	00458593          	addi	x11,x11,4

00002214 <I_sltu_cg_cr_rs1_rs2_edges_rs1val_0x7ffffffe_rs2val_0x2>:
I_sltu_cg_cr_rs1_rs2_edges_rs1val_0x7ffffffe_rs2val_0x2:
  sltu x21, x25, x16 # perform operation
    2214:	010cbab3          	sltu	x21,x25,x16
  # Check if x21 contains the expected result. x6 is the signature ptr, x5 is the link ptr, x4 is a temp reg.
  RVTEST_SIGUPD(x6, x5, x4, x21, I_sltu_cg_cr_rs1_rs2_edges_rs1val_0x7ffffffe_rs2val_0x2, I_sltu_cg_cr_rs1_rs2_edges_rs1val_0x7ffffffe_rs2val_0x2_str)
    2218:	00032203          	lw	x4,0(x6)
    221c:	01520863          	beq	x4,x21,222c <I_sltu_cg_cr_rs1_rs2_edges_rs1val_0x7ffffffe_rs2val_0x2+0x18>
    2220:	2dc022ef          	jal	x5,44fc <failedtest_x5_x4>
    2224:	00002214          	.word	0x00002214
    2228:	0000bdbc          	.word	0x0000bdbc
    222c:	00430313          	addi	x6,x6,4

# Testcase cr_rs1_rs2_edges (Test source rs1 = 0x7ffffffe rs2 = 0x80000000)
  RVTEST_TESTDATA_LOAD_INT(x11, x23) # load rs1: x23 = 0x7ffffffe
    2230:	0005ab83          	lw	x23,0(x11)
    2234:	00458593          	addi	x11,x11,4
  RVTEST_TESTDATA_LOAD_INT(x11, x21) # load rs2: x21 = 0x80000000
    2238:	0005aa83          	lw	x21,0(x11)
    223c:	00458593          	addi	x11,x11,4

00002240 <I_sltu_cg_cr_rs1_rs2_edges_rs1val_0x7ffffffe_rs2val_0x80000000>:
I_sltu_cg_cr_rs1_rs2_edges_rs1val_0x7ffffffe_rs2val_0x80000000:
  sltu x31, x23, x21 # perform operation
    2240:	015bbfb3          	sltu	x31,x23,x21
  # Check if x31 contains the expected result. x6 is the signature ptr, x5 is the link ptr, x4 is a temp reg.
  RVTEST_SIGUPD(x6, x5, x4, x31, I_sltu_cg_cr_rs1_rs2_edges_rs1val_0x7ffffffe_rs2val_0x80000000, I_sltu_cg_cr_rs1_rs2_edges_rs1val_0x7ffffffe_rs2val_0x80000000_str)
    2244:	00032203          	lw	x4,0(x6)
    2248:	01f20863          	beq	x4,x31,2258 <I_sltu_cg_cr_rs1_rs2_edges_rs1val_0x7ffffffe_rs2val_0x80000000+0x18>
    224c:	2b0022ef          	jal	x5,44fc <failedtest_x5_x4>
    2250:	00002240          	.word	0x00002240
    2254:	0000be11          	.word	0x0000be11
    2258:	00430313          	addi	x6,x6,4

# Testcase cr_rs1_rs2_edges (Test source rs1 = 0x7ffffffe rs2 = 0x80000001)
  RVTEST_TESTDATA_LOAD_INT(x11, x20) # load rs1: x20 = 0x7ffffffe
    225c:	0005aa03          	lw	x20,0(x11)
    2260:	00458593          	addi	x11,x11,4
  RVTEST_TESTDATA_LOAD_INT(x11, x2) # load rs2: x2 = 0x80000001
    2264:	0005a103          	lw	x2,0(x11)
    2268:	00458593          	addi	x11,x11,4

0000226c <I_sltu_cg_cr_rs1_rs2_edges_rs1val_0x7ffffffe_rs2val_0x80000001>:
I_sltu_cg_cr_rs1_rs2_edges_rs1val_0x7ffffffe_rs2val_0x80000001:
  sltu x18, x20, x2 # perform operation
    226c:	002a3933          	sltu	x18,x20,x2
  # Check if x18 contains the expected result. x6 is the signature ptr, x5 is the link ptr, x4 is a temp reg.
  RVTEST_SIGUPD(x6, x5, x4, x18, I_sltu_cg_cr_rs1_rs2_edges_rs1val_0x7ffffffe_rs2val_0x80000001, I_sltu_cg_cr_rs1_rs2_edges_rs1val_0x7ffffffe_rs2val_0x80000001_str)
    2270:	00032203          	lw	x4,0(x6)
    2274:	01220863          	beq	x4,x18,2284 <I_sltu_cg_cr_rs1_rs2_edges_rs1val_0x7ffffffe_rs2val_0x80000001+0x18>
    2278:	284022ef          	jal	x5,44fc <failedtest_x5_x4>
    227c:	0000226c          	.word	0x0000226c
    2280:	0000be6d          	.word	0x0000be6d
    2284:	00430313          	addi	x6,x6,4

# Testcase cr_rs1_rs2_edges (Test source rs1 = 0x7ffffffe rs2 = 0x7fffffff)
  RVTEST_TESTDATA_LOAD_INT(x11, x29) # load rs1: x29 = 0x7ffffffe
    2288:	0005ae83          	lw	x29,0(x11)
    228c:	00458593          	addi	x11,x11,4
  RVTEST_TESTDATA_LOAD_INT(x11, x7) # load rs2: x7 = 0x7fffffff
    2290:	0005a383          	lw	x7,0(x11)
    2294:	00458593          	addi	x11,x11,4

00002298 <I_sltu_cg_cr_rs1_rs2_edges_rs1val_0x7ffffffe_rs2val_0x7fffffff>:
I_sltu_cg_cr_rs1_rs2_edges_rs1val_0x7ffffffe_rs2val_0x7fffffff:
  sltu x17, x29, x7 # perform operation
    2298:	007eb8b3          	sltu	x17,x29,x7
  # Check if x17 contains the expected result. x6 is the signature ptr, x5 is the link ptr, x4 is a temp reg.
  RVTEST_SIGUPD(x6, x5, x4, x17, I_sltu_cg_cr_rs1_rs2_edges_rs1val_0x7ffffffe_rs2val_0x7fffffff, I_sltu_cg_cr_rs1_rs2_edges_rs1val_0x7ffffffe_rs2val_0x7fffffff_str)
    229c:	00032203          	lw	x4,0(x6)
    22a0:	01120863          	beq	x4,x17,22b0 <I_sltu_cg_cr_rs1_rs2_edges_rs1val_0x7ffffffe_rs2val_0x7fffffff+0x18>
    22a4:	258022ef          	jal	x5,44fc <failedtest_x5_x4>
    22a8:	00002298          	.word	0x00002298
    22ac:	0000bec9          	.word	0x0000bec9
    22b0:	00430313          	addi	x6,x6,4

# Testcase cr_rs1_rs2_edges (Test source rs1 = 0x7ffffffe rs2 = 0x7ffffffe)
  RVTEST_TESTDATA_LOAD_INT(x11, x2) # load rs1: x2 = 0x7ffffffe
    22b4:	0005a103          	lw	x2,0(x11)
    22b8:	00458593          	addi	x11,x11,4
  RVTEST_TESTDATA_LOAD_INT(x11, x23) # load rs2: x23 = 0x7ffffffe
    22bc:	0005ab83          	lw	x23,0(x11)
    22c0:	00458593          	addi	x11,x11,4

000022c4 <I_sltu_cg_cr_rs1_rs2_edges_rs1val_0x7ffffffe_rs2val_0x7ffffffe>:
I_sltu_cg_cr_rs1_rs2_edges_rs1val_0x7ffffffe_rs2val_0x7ffffffe:
  sltu x16, x2, x23 # perform operation
    22c4:	01713833          	sltu	x16,x2,x23
  # Check if x16 contains the expected result. x6 is the signature ptr, x5 is the link ptr, x4 is a temp reg.
  RVTEST_SIGUPD(x6, x5, x4, x16, I_sltu_cg_cr_rs1_rs2_edges_rs1val_0x7ffffffe_rs2val_0x7ffffffe, I_sltu_cg_cr_rs1_rs2_edges_rs1val_0x7ffffffe_rs2val_0x7ffffffe_str)
    22c8:	00032203          	lw	x4,0(x6)
    22cc:	01020863          	beq	x4,x16,22dc <I_sltu_cg_cr_rs1_rs2_edges_rs1val_0x7ffffffe_rs2val_0x7ffffffe+0x18>
    22d0:	22c022ef          	jal	x5,44fc <failedtest_x5_x4>
    22d4:	000022c4          	.word	0x000022c4
    22d8:	0000bf25          	.word	0x0000bf25
    22dc:	00430313          	addi	x6,x6,4

# Testcase cr_rs1_rs2_edges (Test source rs1 = 0x7ffffffe rs2 = 0xffffffff)
  RVTEST_TESTDATA_LOAD_INT(x11, x19) # load rs1: x19 = 0x7ffffffe
    22e0:	0005a983          	lw	x19,0(x11)
    22e4:	00458593          	addi	x11,x11,4
  RVTEST_TESTDATA_LOAD_INT(x11, x7) # load rs2: x7 = 0xffffffff
    22e8:	0005a383          	lw	x7,0(x11)
    22ec:	00458593          	addi	x11,x11,4

000022f0 <I_sltu_cg_cr_rs1_rs2_edges_rs1val_0x7ffffffe_rs2val_0xffffffff>:
I_sltu_cg_cr_rs1_rs2_edges_rs1val_0x7ffffffe_rs2val_0xffffffff:
  sltu x28, x19, x7 # perform operation
    22f0:	0079be33          	sltu	x28,x19,x7
  # Check if x28 contains the expected result. x6 is the signature ptr, x5 is the link ptr, x4 is a temp reg.
  RVTEST_SIGUPD(x6, x5, x4, x28, I_sltu_cg_cr_rs1_rs2_edges_rs1val_0x7ffffffe_rs2val_0xffffffff, I_sltu_cg_cr_rs1_rs2_edges_rs1val_0x7ffffffe_rs2val_0xffffffff_str)
    22f4:	00032203          	lw	x4,0(x6)
    22f8:	01c20863          	beq	x4,x28,2308 <I_sltu_cg_cr_rs1_rs2_edges_rs1val_0x7ffffffe_rs2val_0xffffffff+0x18>
    22fc:	200022ef          	jal	x5,44fc <failedtest_x5_x4>
    2300:	000022f0          	.word	0x000022f0
    2304:	0000bf81          	.word	0x0000bf81
    2308:	00430313          	addi	x6,x6,4

# Testcase cr_rs1_rs2_edges (Test source rs1 = 0x7ffffffe rs2 = 0xfffffffe)
  RVTEST_TESTDATA_LOAD_INT(x11, x14) # load rs1: x14 = 0x7ffffffe
    230c:	0005a703          	lw	x14,0(x11)
    2310:	00458593          	addi	x11,x11,4
  RVTEST_TESTDATA_LOAD_INT(x11, x1) # load rs2: x1 = 0xfffffffe
    2314:	0005a083          	lw	x1,0(x11)
    2318:	00458593          	addi	x11,x11,4

0000231c <I_sltu_cg_cr_rs1_rs2_edges_rs1val_0x7ffffffe_rs2val_0xfffffffe>:
I_sltu_cg_cr_rs1_rs2_edges_rs1val_0x7ffffffe_rs2val_0xfffffffe:
  sltu x10, x14, x1 # perform operation
    231c:	00173533          	sltu	x10,x14,x1
  # Check if x10 contains the expected result. x6 is the signature ptr, x5 is the link ptr, x4 is a temp reg.
  RVTEST_SIGUPD(x6, x5, x4, x10, I_sltu_cg_cr_rs1_rs2_edges_rs1val_0x7ffffffe_rs2val_0xfffffffe, I_sltu_cg_cr_rs1_rs2_edges_rs1val_0x7ffffffe_rs2val_0xfffffffe_str)
    2320:	00032203          	lw	x4,0(x6)
    2324:	00a20863          	beq	x4,x10,2334 <I_sltu_cg_cr_rs1_rs2_edges_rs1val_0x7ffffffe_rs2val_0xfffffffe+0x18>
    2328:	1d4022ef          	jal	x5,44fc <failedtest_x5_x4>
    232c:	0000231c          	.word	0x0000231c
    2330:	0000bfdd          	.word	0x0000bfdd
    2334:	00430313          	addi	x6,x6,4

# Testcase cr_rs1_rs2_edges (Test source rs1 = 0x7ffffffe rs2 = 0x5bbc8872)
  RVTEST_TESTDATA_LOAD_INT(x11, x13) # load rs1: x13 = 0x7ffffffe
    2338:	0005a683          	lw	x13,0(x11)
    233c:	00458593          	addi	x11,x11,4
  RVTEST_TESTDATA_LOAD_INT(x11, x24) # load rs2: x24 = 0x5bbc8872
    2340:	0005ac03          	lw	x24,0(x11)
    2344:	00458593          	addi	x11,x11,4

00002348 <I_sltu_cg_cr_rs1_rs2_edges_rs1val_0x7ffffffe_rs2val_0x5bbc8872>:
I_sltu_cg_cr_rs1_rs2_edges_rs1val_0x7ffffffe_rs2val_0x5bbc8872:
  sltu x1, x13, x24 # perform operation
    2348:	0186b0b3          	sltu	x1,x13,x24
  # Check if x1 contains the expected result. x6 is the signature ptr, x5 is the link ptr, x4 is a temp reg.
  RVTEST_SIGUPD(x6, x5, x4, x1, I_sltu_cg_cr_rs1_rs2_edges_rs1val_0x7ffffffe_rs2val_0x5bbc8872, I_sltu_cg_cr_rs1_rs2_edges_rs1val_0x7ffffffe_rs2val_0x5bbc8872_str)
    234c:	00032203          	lw	x4,0(x6)
    2350:	00120863          	beq	x4,x1,2360 <I_sltu_cg_cr_rs1_rs2_edges_rs1val_0x7ffffffe_rs2val_0x5bbc8872+0x18>
    2354:	1a8022ef          	jal	x5,44fc <failedtest_x5_x4>
    2358:	00002348          	.word	0x00002348
    235c:	0000c039          	.word	0x0000c039
    2360:	00430313          	addi	x6,x6,4

# Testcase cr_rs1_rs2_edges (Test source rs1 = 0x7ffffffe rs2 = 0xaaaaaaaa)
  RVTEST_TESTDATA_LOAD_INT(x11, x16) # load rs1: x16 = 0x7ffffffe
    2364:	0005a803          	lw	x16,0(x11)
    2368:	00458593          	addi	x11,x11,4
  RVTEST_TESTDATA_LOAD_INT(x11, x10) # load rs2: x10 = 0xaaaaaaaa
    236c:	0005a503          	lw	x10,0(x11)
    2370:	00458593          	addi	x11,x11,4

00002374 <I_sltu_cg_cr_rs1_rs2_edges_rs1val_0x7ffffffe_rs2val_0xaaaaaaaa>:
I_sltu_cg_cr_rs1_rs2_edges_rs1val_0x7ffffffe_rs2val_0xaaaaaaaa:
  sltu x8, x16, x10 # perform operation
    2374:	00a83433          	sltu	x8,x16,x10
  # Check if x8 contains the expected result. x6 is the signature ptr, x5 is the link ptr, x4 is a temp reg.
  RVTEST_SIGUPD(x6, x5, x4, x8, I_sltu_cg_cr_rs1_rs2_edges_rs1val_0x7ffffffe_rs2val_0xaaaaaaaa, I_sltu_cg_cr_rs1_rs2_edges_rs1val_0x7ffffffe_rs2val_0xaaaaaaaa_str)
    2378:	00032203          	lw	x4,0(x6)
    237c:	00820863          	beq	x4,x8,238c <I_sltu_cg_cr_rs1_rs2_edges_rs1val_0x7ffffffe_rs2val_0xaaaaaaaa+0x18>
    2380:	17c022ef          	jal	x5,44fc <failedtest_x5_x4>
    2384:	00002374          	.word	0x00002374
    2388:	0000c095          	.word	0x0000c095
    238c:	00430313          	addi	x6,x6,4

# Testcase cr_rs1_rs2_edges (Test source rs1 = 0x7ffffffe rs2 = 0x55555555)
  RVTEST_TESTDATA_LOAD_INT(x11, x28) # load rs1: x28 = 0x7ffffffe
    2390:	0005ae03          	lw	x28,0(x11)
    2394:	00458593          	addi	x11,x11,4
  RVTEST_TESTDATA_LOAD_INT(x11, x23) # load rs2: x23 = 0x55555555
    2398:	0005ab83          	lw	x23,0(x11)
    239c:	00458593          	addi	x11,x11,4

000023a0 <I_sltu_cg_cr_rs1_rs2_edges_rs1val_0x7ffffffe_rs2val_0x55555555>:
I_sltu_cg_cr_rs1_rs2_edges_rs1val_0x7ffffffe_rs2val_0x55555555:
  sltu x22, x28, x23 # perform operation
    23a0:	017e3b33          	sltu	x22,x28,x23
  # Check if x22 contains the expected result. x6 is the signature ptr, x5 is the link ptr, x4 is a temp reg.
  RVTEST_SIGUPD(x6, x5, x4, x22, I_sltu_cg_cr_rs1_rs2_edges_rs1val_0x7ffffffe_rs2val_0x55555555, I_sltu_cg_cr_rs1_rs2_edges_rs1val_0x7ffffffe_rs2val_0x55555555_str)
    23a4:	00032203          	lw	x4,0(x6)
    23a8:	01620863          	beq	x4,x22,23b8 <I_sltu_cg_cr_rs1_rs2_edges_rs1val_0x7ffffffe_rs2val_0x55555555+0x18>
    23ac:	150022ef          	jal	x5,44fc <failedtest_x5_x4>
    23b0:	000023a0          	.word	0x000023a0
    23b4:	0000c0f1          	.word	0x0000c0f1
    23b8:	00430313          	addi	x6,x6,4

# Testcase cr_rs1_rs2_edges (Test source rs1 = 0xffffffff rs2 = 0x00000000)
  RVTEST_TESTDATA_LOAD_INT(x11, x8) # load rs1: x8 = 0xffffffff
    23bc:	0005a403          	lw	x8,0(x11)
    23c0:	00458593          	addi	x11,x11,4
  RVTEST_TESTDATA_LOAD_INT(x11, x10) # load rs2: x10 = 0x00000000
    23c4:	0005a503          	lw	x10,0(x11)
    23c8:	00458593          	addi	x11,x11,4

000023cc <I_sltu_cg_cr_rs1_rs2_edges_rs1val_0xffffffff_rs2val_0x0>:
I_sltu_cg_cr_rs1_rs2_edges_rs1val_0xffffffff_rs2val_0x0:
  sltu x27, x8, x10 # perform operation
    23cc:	00a43db3          	sltu	x27,x8,x10
  # Check if x27 contains the expected result. x6 is the signature ptr, x5 is the link ptr, x4 is a temp reg.
  RVTEST_SIGUPD(x6, x5, x4, x27, I_sltu_cg_cr_rs1_rs2_edges_rs1val_0xffffffff_rs2val_0x0, I_sltu_cg_cr_rs1_rs2_edges_rs1val_0xffffffff_rs2val_0x0_str)
    23d0:	00032203          	lw	x4,0(x6)
    23d4:	01b20863          	beq	x4,x27,23e4 <I_sltu_cg_cr_rs1_rs2_edges_rs1val_0xffffffff_rs2val_0x0+0x18>
    23d8:	124022ef          	jal	x5,44fc <failedtest_x5_x4>
    23dc:	000023cc          	.word	0x000023cc
    23e0:	0000c14d          	.word	0x0000c14d
    23e4:	00430313          	addi	x6,x6,4

# Testcase cr_rs1_rs2_edges (Test source rs1 = 0xffffffff rs2 = 0x00000001)
  RVTEST_TESTDATA_LOAD_INT(x11, x27) # load rs1: x27 = 0xffffffff
    23e8:	0005ad83          	lw	x27,0(x11)
    23ec:	00458593          	addi	x11,x11,4
  RVTEST_TESTDATA_LOAD_INT(x11, x2) # load rs2: x2 = 0x00000001
    23f0:	0005a103          	lw	x2,0(x11)
    23f4:	00458593          	addi	x11,x11,4

000023f8 <I_sltu_cg_cr_rs1_rs2_edges_rs1val_0xffffffff_rs2val_0x1>:
I_sltu_cg_cr_rs1_rs2_edges_rs1val_0xffffffff_rs2val_0x1:
  sltu x23, x27, x2 # perform operation
    23f8:	002dbbb3          	sltu	x23,x27,x2
  # Check if x23 contains the expected result. x6 is the signature ptr, x5 is the link ptr, x4 is a temp reg.
  RVTEST_SIGUPD(x6, x5, x4, x23, I_sltu_cg_cr_rs1_rs2_edges_rs1val_0xffffffff_rs2val_0x1, I_sltu_cg_cr_rs1_rs2_edges_rs1val_0xffffffff_rs2val_0x1_str)
    23fc:	00032203          	lw	x4,0(x6)
    2400:	01720863          	beq	x4,x23,2410 <I_sltu_cg_cr_rs1_rs2_edges_rs1val_0xffffffff_rs2val_0x1+0x18>
    2404:	0f8022ef          	jal	x5,44fc <failedtest_x5_x4>
    2408:	000023f8          	.word	0x000023f8
    240c:	0000c1a2          	.word	0x0000c1a2
    2410:	00430313          	addi	x6,x6,4

# Testcase cr_rs1_rs2_edges (Test source rs1 = 0xffffffff rs2 = 0x00000002)
  RVTEST_TESTDATA_LOAD_INT(x11, x23) # load rs1: x23 = 0xffffffff
    2414:	0005ab83          	lw	x23,0(x11)
    2418:	00458593          	addi	x11,x11,4
  RVTEST_TESTDATA_LOAD_INT(x11, x1) # load rs2: x1 = 0x00000002
    241c:	0005a083          	lw	x1,0(x11)
    2420:	00458593          	addi	x11,x11,4

00002424 <I_sltu_cg_cr_rs1_rs2_edges_rs1val_0xffffffff_rs2val_0x2>:
I_sltu_cg_cr_rs1_rs2_edges_rs1val_0xffffffff_rs2val_0x2:
  sltu x30, x23, x1 # perform operation
    2424:	001bbf33          	sltu	x30,x23,x1
  # Check if x30 contains the expected result. x6 is the signature ptr, x5 is the link ptr, x4 is a temp reg.
  RVTEST_SIGUPD(x6, x5, x4, x30, I_sltu_cg_cr_rs1_rs2_edges_rs1val_0xffffffff_rs2val_0x2, I_sltu_cg_cr_rs1_rs2_edges_rs1val_0xffffffff_rs2val_0x2_str)
    2428:	00032203          	lw	x4,0(x6)
    242c:	01e20863          	beq	x4,x30,243c <I_sltu_cg_cr_rs1_rs2_edges_rs1val_0xffffffff_rs2val_0x2+0x18>
    2430:	0cc022ef          	jal	x5,44fc <failedtest_x5_x4>
    2434:	00002424          	.word	0x00002424
    2438:	0000c1f7          	.word	0x0000c1f7
    243c:	00430313          	addi	x6,x6,4

# Testcase cr_rs1_rs2_edges (Test source rs1 = 0xffffffff rs2 = 0x80000000)
  RVTEST_TESTDATA_LOAD_INT(x11, x20) # load rs1: x20 = 0xffffffff
    2440:	0005aa03          	lw	x20,0(x11)
    2444:	00458593          	addi	x11,x11,4
  RVTEST_TESTDATA_LOAD_INT(x11, x29) # load rs2: x29 = 0x80000000
    2448:	0005ae83          	lw	x29,0(x11)
    244c:	00458593          	addi	x11,x11,4

00002450 <I_sltu_cg_cr_rs1_rs2_edges_rs1val_0xffffffff_rs2val_0x80000000>:
I_sltu_cg_cr_rs1_rs2_edges_rs1val_0xffffffff_rs2val_0x80000000:
  sltu x17, x20, x29 # perform operation
    2450:	01da38b3          	sltu	x17,x20,x29
  # Check if x17 contains the expected result. x6 is the signature ptr, x5 is the link ptr, x4 is a temp reg.
  RVTEST_SIGUPD(x6, x5, x4, x17, I_sltu_cg_cr_rs1_rs2_edges_rs1val_0xffffffff_rs2val_0x80000000, I_sltu_cg_cr_rs1_rs2_edges_rs1val_0xffffffff_rs2val_0x80000000_str)
    2454:	00032203          	lw	x4,0(x6)
    2458:	01120863          	beq	x4,x17,2468 <I_sltu_cg_cr_rs1_rs2_edges_rs1val_0xffffffff_rs2val_0x80000000+0x18>
    245c:	0a0022ef          	jal	x5,44fc <failedtest_x5_x4>
    2460:	00002450          	.word	0x00002450
    2464:	0000c24c          	.word	0x0000c24c
    2468:	00430313          	addi	x6,x6,4

# Testcase cr_rs1_rs2_edges (Test source rs1 = 0xffffffff rs2 = 0x80000001)
  RVTEST_TESTDATA_LOAD_INT(x11, x13) # load rs1: x13 = 0xffffffff
    246c:	0005a683          	lw	x13,0(x11)
    2470:	00458593          	addi	x11,x11,4
  RVTEST_TESTDATA_LOAD_INT(x11, x25) # load rs2: x25 = 0x80000001
    2474:	0005ac83          	lw	x25,0(x11)
    2478:	00458593          	addi	x11,x11,4

0000247c <I_sltu_cg_cr_rs1_rs2_edges_rs1val_0xffffffff_rs2val_0x80000001>:
I_sltu_cg_cr_rs1_rs2_edges_rs1val_0xffffffff_rs2val_0x80000001:
  sltu x29, x13, x25 # perform operation
    247c:	0196beb3          	sltu	x29,x13,x25
  # Check if x29 contains the expected result. x6 is the signature ptr, x5 is the link ptr, x4 is a temp reg.
  RVTEST_SIGUPD(x6, x5, x4, x29, I_sltu_cg_cr_rs1_rs2_edges_rs1val_0xffffffff_rs2val_0x80000001, I_sltu_cg_cr_rs1_rs2_edges_rs1val_0xffffffff_rs2val_0x80000001_str)
    2480:	00032203          	lw	x4,0(x6)
    2484:	01d20863          	beq	x4,x29,2494 <I_sltu_cg_cr_rs1_rs2_edges_rs1val_0xffffffff_rs2val_0x80000001+0x18>
    2488:	074022ef          	jal	x5,44fc <failedtest_x5_x4>
    248c:	0000247c          	.word	0x0000247c
    2490:	0000c2a8          	.word	0x0000c2a8
    2494:	00430313          	addi	x6,x6,4

# Testcase cr_rs1_rs2_edges (Test source rs1 = 0xffffffff rs2 = 0x7fffffff)
  RVTEST_TESTDATA_LOAD_INT(x11, x31) # load rs1: x31 = 0xffffffff
    2498:	0005af83          	lw	x31,0(x11)
    249c:	00458593          	addi	x11,x11,4
  RVTEST_TESTDATA_LOAD_INT(x11, x29) # load rs2: x29 = 0x7fffffff
    24a0:	0005ae83          	lw	x29,0(x11)
    24a4:	00458593          	addi	x11,x11,4

000024a8 <I_sltu_cg_cr_rs1_rs2_edges_rs1val_0xffffffff_rs2val_0x7fffffff>:
I_sltu_cg_cr_rs1_rs2_edges_rs1val_0xffffffff_rs2val_0x7fffffff:
  sltu x19, x31, x29 # perform operation
    24a8:	01dfb9b3          	sltu	x19,x31,x29
  # Check if x19 contains the expected result. x6 is the signature ptr, x5 is the link ptr, x4 is a temp reg.
  RVTEST_SIGUPD(x6, x5, x4, x19, I_sltu_cg_cr_rs1_rs2_edges_rs1val_0xffffffff_rs2val_0x7fffffff, I_sltu_cg_cr_rs1_rs2_edges_rs1val_0xffffffff_rs2val_0x7fffffff_str)
    24ac:	00032203          	lw	x4,0(x6)
    24b0:	01320863          	beq	x4,x19,24c0 <I_sltu_cg_cr_rs1_rs2_edges_rs1val_0xffffffff_rs2val_0x7fffffff+0x18>
    24b4:	048022ef          	jal	x5,44fc <failedtest_x5_x4>
    24b8:	000024a8          	.word	0x000024a8
    24bc:	0000c304          	.word	0x0000c304
    24c0:	00430313          	addi	x6,x6,4

# Testcase cr_rs1_rs2_edges (Test source rs1 = 0xffffffff rs2 = 0x7ffffffe)
  RVTEST_TESTDATA_LOAD_INT(x11, x9) # load rs1: x9 = 0xffffffff
    24c4:	0005a483          	lw	x9,0(x11)
    24c8:	00458593          	addi	x11,x11,4
  RVTEST_TESTDATA_LOAD_INT(x11, x7) # load rs2: x7 = 0x7ffffffe
    24cc:	0005a383          	lw	x7,0(x11)
    24d0:	00458593          	addi	x11,x11,4

000024d4 <I_sltu_cg_cr_rs1_rs2_edges_rs1val_0xffffffff_rs2val_0x7ffffffe>:
I_sltu_cg_cr_rs1_rs2_edges_rs1val_0xffffffff_rs2val_0x7ffffffe:
  sltu x8, x9, x7 # perform operation
    24d4:	0074b433          	sltu	x8,x9,x7
  # Check if x8 contains the expected result. x6 is the signature ptr, x5 is the link ptr, x4 is a temp reg.
  RVTEST_SIGUPD(x6, x5, x4, x8, I_sltu_cg_cr_rs1_rs2_edges_rs1val_0xffffffff_rs2val_0x7ffffffe, I_sltu_cg_cr_rs1_rs2_edges_rs1val_0xffffffff_rs2val_0x7ffffffe_str)
    24d8:	00032203          	lw	x4,0(x6)
    24dc:	00820863          	beq	x4,x8,24ec <I_sltu_cg_cr_rs1_rs2_edges_rs1val_0xffffffff_rs2val_0x7ffffffe+0x18>
    24e0:	01c022ef          	jal	x5,44fc <failedtest_x5_x4>
    24e4:	000024d4          	.word	0x000024d4
    24e8:	0000c360          	.word	0x0000c360
    24ec:	00430313          	addi	x6,x6,4

# Testcase cr_rs1_rs2_edges (Test source rs1 = 0xffffffff rs2 = 0xffffffff)
  RVTEST_TESTDATA_LOAD_INT(x11, x14) # load rs1: x14 = 0xffffffff
    24f0:	0005a703          	lw	x14,0(x11)
    24f4:	00458593          	addi	x11,x11,4
  RVTEST_TESTDATA_LOAD_INT(x11, x25) # load rs2: x25 = 0xffffffff
    24f8:	0005ac83          	lw	x25,0(x11)
    24fc:	00458593          	addi	x11,x11,4

00002500 <I_sltu_cg_cr_rs1_rs2_edges_rs1val_0xffffffff_rs2val_0xffffffff>:
I_sltu_cg_cr_rs1_rs2_edges_rs1val_0xffffffff_rs2val_0xffffffff:
  sltu x12, x14, x25 # perform operation
    2500:	01973633          	sltu	x12,x14,x25
  # Check if x12 contains the expected result. x6 is the signature ptr, x5 is the link ptr, x4 is a temp reg.
  RVTEST_SIGUPD(x6, x5, x4, x12, I_sltu_cg_cr_rs1_rs2_edges_rs1val_0xffffffff_rs2val_0xffffffff, I_sltu_cg_cr_rs1_rs2_edges_rs1val_0xffffffff_rs2val_0xffffffff_str)
    2504:	00032203          	lw	x4,0(x6)
    2508:	00c20863          	beq	x4,x12,2518 <I_sltu_cg_cr_rs1_rs2_edges_rs1val_0xffffffff_rs2val_0xffffffff+0x18>
    250c:	7f1012ef          	jal	x5,44fc <failedtest_x5_x4>
    2510:	00002500          	.word	0x00002500
    2514:	0000c3bc          	.word	0x0000c3bc
    2518:	00430313          	addi	x6,x6,4

# Testcase cr_rs1_rs2_edges (Test source rs1 = 0xffffffff rs2 = 0xfffffffe)
  RVTEST_TESTDATA_LOAD_INT(x11, x1) # load rs1: x1 = 0xffffffff
    251c:	0005a083          	lw	x1,0(x11)
    2520:	00458593          	addi	x11,x11,4
  RVTEST_TESTDATA_LOAD_INT(x11, x23) # load rs2: x23 = 0xfffffffe
    2524:	0005ab83          	lw	x23,0(x11)
    2528:	00458593          	addi	x11,x11,4

0000252c <I_sltu_cg_cr_rs1_rs2_edges_rs1val_0xffffffff_rs2val_0xfffffffe>:
I_sltu_cg_cr_rs1_rs2_edges_rs1val_0xffffffff_rs2val_0xfffffffe:
  sltu x12, x1, x23 # perform operation
    252c:	0170b633          	sltu	x12,x1,x23
  # Check if x12 contains the expected result. x6 is the signature ptr, x5 is the link ptr, x4 is a temp reg.
  RVTEST_SIGUPD(x6, x5, x4, x12, I_sltu_cg_cr_rs1_rs2_edges_rs1val_0xffffffff_rs2val_0xfffffffe, I_sltu_cg_cr_rs1_rs2_edges_rs1val_0xffffffff_rs2val_0xfffffffe_str)
    2530:	00032203          	lw	x4,0(x6)
    2534:	00c20863          	beq	x4,x12,2544 <I_sltu_cg_cr_rs1_rs2_edges_rs1val_0xffffffff_rs2val_0xfffffffe+0x18>
    2538:	7c5012ef          	jal	x5,44fc <failedtest_x5_x4>
    253c:	0000252c          	.word	0x0000252c
    2540:	0000c418          	.word	0x0000c418
    2544:	00430313          	addi	x6,x6,4

# Testcase cr_rs1_rs2_edges (Test source rs1 = 0xffffffff rs2 = 0x5bbc8872)
  RVTEST_TESTDATA_LOAD_INT(x11, x14) # load rs1: x14 = 0xffffffff
    2548:	0005a703          	lw	x14,0(x11)
    254c:	00458593          	addi	x11,x11,4
  RVTEST_TESTDATA_LOAD_INT(x11, x8) # load rs2: x8 = 0x5bbc8872
    2550:	0005a403          	lw	x8,0(x11)
    2554:	00458593          	addi	x11,x11,4

00002558 <I_sltu_cg_cr_rs1_rs2_edges_rs1val_0xffffffff_rs2val_0x5bbc8872>:
I_sltu_cg_cr_rs1_rs2_edges_rs1val_0xffffffff_rs2val_0x5bbc8872:
  sltu x18, x14, x8 # perform operation
    2558:	00873933          	sltu	x18,x14,x8
  # Check if x18 contains the expected result. x6 is the signature ptr, x5 is the link ptr, x4 is a temp reg.
  RVTEST_SIGUPD(x6, x5, x4, x18, I_sltu_cg_cr_rs1_rs2_edges_rs1val_0xffffffff_rs2val_0x5bbc8872, I_sltu_cg_cr_rs1_rs2_edges_rs1val_0xffffffff_rs2val_0x5bbc8872_str)
    255c:	00032203          	lw	x4,0(x6)
    2560:	01220863          	beq	x4,x18,2570 <I_sltu_cg_cr_rs1_rs2_edges_rs1val_0xffffffff_rs2val_0x5bbc8872+0x18>
    2564:	799012ef          	jal	x5,44fc <failedtest_x5_x4>
    2568:	00002558          	.word	0x00002558
    256c:	0000c474          	.word	0x0000c474
    2570:	00430313          	addi	x6,x6,4

# Testcase cr_rs1_rs2_edges (Test source rs1 = 0xffffffff rs2 = 0xaaaaaaaa)
  RVTEST_TESTDATA_LOAD_INT(x11, x29) # load rs1: x29 = 0xffffffff
    2574:	0005ae83          	lw	x29,0(x11)
    2578:	00458593          	addi	x11,x11,4
  RVTEST_TESTDATA_LOAD_INT(x11, x8) # load rs2: x8 = 0xaaaaaaaa
    257c:	0005a403          	lw	x8,0(x11)
    2580:	00458593          	addi	x11,x11,4

00002584 <I_sltu_cg_cr_rs1_rs2_edges_rs1val_0xffffffff_rs2val_0xaaaaaaaa>:
I_sltu_cg_cr_rs1_rs2_edges_rs1val_0xffffffff_rs2val_0xaaaaaaaa:
  sltu x15, x29, x8 # perform operation
    2584:	008eb7b3          	sltu	x15,x29,x8
  # Check if x15 contains the expected result. x6 is the signature ptr, x5 is the link ptr, x4 is a temp reg.
  RVTEST_SIGUPD(x6, x5, x4, x15, I_sltu_cg_cr_rs1_rs2_edges_rs1val_0xffffffff_rs2val_0xaaaaaaaa, I_sltu_cg_cr_rs1_rs2_edges_rs1val_0xffffffff_rs2val_0xaaaaaaaa_str)
    2588:	00032203          	lw	x4,0(x6)
    258c:	00f20863          	beq	x4,x15,259c <I_sltu_cg_cr_rs1_rs2_edges_rs1val_0xffffffff_rs2val_0xaaaaaaaa+0x18>
    2590:	76d012ef          	jal	x5,44fc <failedtest_x5_x4>
    2594:	00002584          	.word	0x00002584
    2598:	0000c4d0          	.word	0x0000c4d0
    259c:	00430313          	addi	x6,x6,4

# Testcase cr_rs1_rs2_edges (Test source rs1 = 0xffffffff rs2 = 0x55555555)
  RVTEST_TESTDATA_LOAD_INT(x11, x8) # load rs1: x8 = 0xffffffff
    25a0:	0005a403          	lw	x8,0(x11)
    25a4:	00458593          	addi	x11,x11,4
  RVTEST_TESTDATA_LOAD_INT(x11, x31) # load rs2: x31 = 0x55555555
    25a8:	0005af83          	lw	x31,0(x11)
    25ac:	00458593          	addi	x11,x11,4

000025b0 <I_sltu_cg_cr_rs1_rs2_edges_rs1val_0xffffffff_rs2val_0x55555555>:
I_sltu_cg_cr_rs1_rs2_edges_rs1val_0xffffffff_rs2val_0x55555555:
  sltu x1, x8, x31 # perform operation
    25b0:	01f430b3          	sltu	x1,x8,x31
  # Check if x1 contains the expected result. x6 is the signature ptr, x5 is the link ptr, x4 is a temp reg.
  RVTEST_SIGUPD(x6, x5, x4, x1, I_sltu_cg_cr_rs1_rs2_edges_rs1val_0xffffffff_rs2val_0x55555555, I_sltu_cg_cr_rs1_rs2_edges_rs1val_0xffffffff_rs2val_0x55555555_str)
    25b4:	00032203          	lw	x4,0(x6)
    25b8:	00120863          	beq	x4,x1,25c8 <I_sltu_cg_cr_rs1_rs2_edges_rs1val_0xffffffff_rs2val_0x55555555+0x18>
    25bc:	741012ef          	jal	x5,44fc <failedtest_x5_x4>
    25c0:	000025b0          	.word	0x000025b0
    25c4:	0000c52c          	.word	0x0000c52c
    25c8:	00430313          	addi	x6,x6,4

# Testcase cr_rs1_rs2_edges (Test source rs1 = 0xfffffffe rs2 = 0x00000000)
  RVTEST_TESTDATA_LOAD_INT(x11, x1) # load rs1: x1 = 0xfffffffe
    25cc:	0005a083          	lw	x1,0(x11)
    25d0:	00458593          	addi	x11,x11,4
  RVTEST_TESTDATA_LOAD_INT(x11, x28) # load rs2: x28 = 0x00000000
    25d4:	0005ae03          	lw	x28,0(x11)
    25d8:	00458593          	addi	x11,x11,4

000025dc <I_sltu_cg_cr_rs1_rs2_edges_rs1val_0xfffffffe_rs2val_0x0>:
I_sltu_cg_cr_rs1_rs2_edges_rs1val_0xfffffffe_rs2val_0x0:
  sltu x16, x1, x28 # perform operation
    25dc:	01c0b833          	sltu	x16,x1,x28
  # Check if x16 contains the expected result. x6 is the signature ptr, x5 is the link ptr, x4 is a temp reg.
  RVTEST_SIGUPD(x6, x5, x4, x16, I_sltu_cg_cr_rs1_rs2_edges_rs1val_0xfffffffe_rs2val_0x0, I_sltu_cg_cr_rs1_rs2_edges_rs1val_0xfffffffe_rs2val_0x0_str)
    25e0:	00032203          	lw	x4,0(x6)
    25e4:	01020863          	beq	x4,x16,25f4 <I_sltu_cg_cr_rs1_rs2_edges_rs1val_0xfffffffe_rs2val_0x0+0x18>
    25e8:	715012ef          	jal	x5,44fc <failedtest_x5_x4>
    25ec:	000025dc          	.word	0x000025dc
    25f0:	0000c588          	.word	0x0000c588
    25f4:	00430313          	addi	x6,x6,4

# Testcase cr_rs1_rs2_edges (Test source rs1 = 0xfffffffe rs2 = 0x00000001)
  RVTEST_TESTDATA_LOAD_INT(x11, x28) # load rs1: x28 = 0xfffffffe
    25f8:	0005ae03          	lw	x28,0(x11)
    25fc:	00458593          	addi	x11,x11,4
  RVTEST_TESTDATA_LOAD_INT(x11, x3) # load rs2: x3 = 0x00000001
    2600:	0005a183          	lw	x3,0(x11)
    2604:	00458593          	addi	x11,x11,4

00002608 <I_sltu_cg_cr_rs1_rs2_edges_rs1val_0xfffffffe_rs2val_0x1>:
I_sltu_cg_cr_rs1_rs2_edges_rs1val_0xfffffffe_rs2val_0x1:
  sltu x16, x28, x3 # perform operation
    2608:	003e3833          	sltu	x16,x28,x3
  # Check if x16 contains the expected result. x6 is the signature ptr, x5 is the link ptr, x4 is a temp reg.
  RVTEST_SIGUPD(x6, x5, x4, x16, I_sltu_cg_cr_rs1_rs2_edges_rs1val_0xfffffffe_rs2val_0x1, I_sltu_cg_cr_rs1_rs2_edges_rs1val_0xfffffffe_rs2val_0x1_str)
    260c:	00032203          	lw	x4,0(x6)
    2610:	01020863          	beq	x4,x16,2620 <I_sltu_cg_cr_rs1_rs2_edges_rs1val_0xfffffffe_rs2val_0x1+0x18>
    2614:	6e9012ef          	jal	x5,44fc <failedtest_x5_x4>
    2618:	00002608          	.word	0x00002608
    261c:	0000c5dd          	.word	0x0000c5dd
    2620:	00430313          	addi	x6,x6,4

# Testcase cr_rs1_rs2_edges (Test source rs1 = 0xfffffffe rs2 = 0x00000002)
  RVTEST_TESTDATA_LOAD_INT(x11, x17) # load rs1: x17 = 0xfffffffe
    2624:	0005a883          	lw	x17,0(x11)
    2628:	00458593          	addi	x11,x11,4
  RVTEST_TESTDATA_LOAD_INT(x11, x10) # load rs2: x10 = 0x00000002
    262c:	0005a503          	lw	x10,0(x11)
    2630:	00458593          	addi	x11,x11,4

00002634 <I_sltu_cg_cr_rs1_rs2_edges_rs1val_0xfffffffe_rs2val_0x2>:
I_sltu_cg_cr_rs1_rs2_edges_rs1val_0xfffffffe_rs2val_0x2:
  sltu x31, x17, x10 # perform operation
    2634:	00a8bfb3          	sltu	x31,x17,x10
  # Check if x31 contains the expected result. x6 is the signature ptr, x5 is the link ptr, x4 is a temp reg.
  RVTEST_SIGUPD(x6, x5, x4, x31, I_sltu_cg_cr_rs1_rs2_edges_rs1val_0xfffffffe_rs2val_0x2, I_sltu_cg_cr_rs1_rs2_edges_rs1val_0xfffffffe_rs2val_0x2_str)
    2638:	00032203          	lw	x4,0(x6)
    263c:	01f20863          	beq	x4,x31,264c <I_sltu_cg_cr_rs1_rs2_edges_rs1val_0xfffffffe_rs2val_0x2+0x18>
    2640:	6bd012ef          	jal	x5,44fc <failedtest_x5_x4>
    2644:	00002634          	.word	0x00002634
    2648:	0000c632          	.word	0x0000c632
    264c:	00430313          	addi	x6,x6,4

# Testcase cr_rs1_rs2_edges (Test source rs1 = 0xfffffffe rs2 = 0x80000000)
  RVTEST_TESTDATA_LOAD_INT(x11, x23) # load rs1: x23 = 0xfffffffe
    2650:	0005ab83          	lw	x23,0(x11)
    2654:	00458593          	addi	x11,x11,4
  RVTEST_TESTDATA_LOAD_INT(x11, x29) # load rs2: x29 = 0x80000000
    2658:	0005ae83          	lw	x29,0(x11)
    265c:	00458593          	addi	x11,x11,4

00002660 <I_sltu_cg_cr_rs1_rs2_edges_rs1val_0xfffffffe_rs2val_0x80000000>:
I_sltu_cg_cr_rs1_rs2_edges_rs1val_0xfffffffe_rs2val_0x80000000:
  sltu x16, x23, x29 # perform operation
    2660:	01dbb833          	sltu	x16,x23,x29
  # Check if x16 contains the expected result. x6 is the signature ptr, x5 is the link ptr, x4 is a temp reg.
  RVTEST_SIGUPD(x6, x5, x4, x16, I_sltu_cg_cr_rs1_rs2_edges_rs1val_0xfffffffe_rs2val_0x80000000, I_sltu_cg_cr_rs1_rs2_edges_rs1val_0xfffffffe_rs2val_0x80000000_str)
    2664:	00032203          	lw	x4,0(x6)
    2668:	01020863          	beq	x4,x16,2678 <I_sltu_cg_cr_rs1_rs2_edges_rs1val_0xfffffffe_rs2val_0x80000000+0x18>
    266c:	691012ef          	jal	x5,44fc <failedtest_x5_x4>
    2670:	00002660          	.word	0x00002660
    2674:	0000c687          	.word	0x0000c687
    2678:	00430313          	addi	x6,x6,4

# Testcase cr_rs1_rs2_edges (Test source rs1 = 0xfffffffe rs2 = 0x80000001)
  RVTEST_TESTDATA_LOAD_INT(x11, x22) # load rs1: x22 = 0xfffffffe
    267c:	0005ab03          	lw	x22,0(x11)
    2680:	00458593          	addi	x11,x11,4
  RVTEST_TESTDATA_LOAD_INT(x11, x10) # load rs2: x10 = 0x80000001
    2684:	0005a503          	lw	x10,0(x11)
    2688:	00458593          	addi	x11,x11,4

0000268c <I_sltu_cg_cr_rs1_rs2_edges_rs1val_0xfffffffe_rs2val_0x80000001>:
I_sltu_cg_cr_rs1_rs2_edges_rs1val_0xfffffffe_rs2val_0x80000001:
  sltu x17, x22, x10 # perform operation
    268c:	00ab38b3          	sltu	x17,x22,x10
  # Check if x17 contains the expected result. x6 is the signature ptr, x5 is the link ptr, x4 is a temp reg.
  RVTEST_SIGUPD(x6, x5, x4, x17, I_sltu_cg_cr_rs1_rs2_edges_rs1val_0xfffffffe_rs2val_0x80000001, I_sltu_cg_cr_rs1_rs2_edges_rs1val_0xfffffffe_rs2val_0x80000001_str)
    2690:	00032203          	lw	x4,0(x6)
    2694:	01120863          	beq	x4,x17,26a4 <I_sltu_cg_cr_rs1_rs2_edges_rs1val_0xfffffffe_rs2val_0x80000001+0x18>
    2698:	665012ef          	jal	x5,44fc <failedtest_x5_x4>
    269c:	0000268c          	.word	0x0000268c
    26a0:	0000c6e3          	.word	0x0000c6e3
    26a4:	00430313          	addi	x6,x6,4

# Testcase cr_rs1_rs2_edges (Test source rs1 = 0xfffffffe rs2 = 0x7fffffff)
  RVTEST_TESTDATA_LOAD_INT(x11, x2) # load rs1: x2 = 0xfffffffe
    26a8:	0005a103          	lw	x2,0(x11)
    26ac:	00458593          	addi	x11,x11,4
  RVTEST_TESTDATA_LOAD_INT(x11, x8) # load rs2: x8 = 0x7fffffff
    26b0:	0005a403          	lw	x8,0(x11)
    26b4:	00458593          	addi	x11,x11,4

000026b8 <I_sltu_cg_cr_rs1_rs2_edges_rs1val_0xfffffffe_rs2val_0x7fffffff>:
I_sltu_cg_cr_rs1_rs2_edges_rs1val_0xfffffffe_rs2val_0x7fffffff:
  sltu x27, x2, x8 # perform operation
    26b8:	00813db3          	sltu	x27,x2,x8
  # Check if x27 contains the expected result. x6 is the signature ptr, x5 is the link ptr, x4 is a temp reg.
  RVTEST_SIGUPD(x6, x5, x4, x27, I_sltu_cg_cr_rs1_rs2_edges_rs1val_0xfffffffe_rs2val_0x7fffffff, I_sltu_cg_cr_rs1_rs2_edges_rs1val_0xfffffffe_rs2val_0x7fffffff_str)
    26bc:	00032203          	lw	x4,0(x6)
    26c0:	01b20863          	beq	x4,x27,26d0 <I_sltu_cg_cr_rs1_rs2_edges_rs1val_0xfffffffe_rs2val_0x7fffffff+0x18>
    26c4:	639012ef          	jal	x5,44fc <failedtest_x5_x4>
    26c8:	000026b8          	.word	0x000026b8
    26cc:	0000c73f          	.word	0x0000c73f
    26d0:	00430313          	addi	x6,x6,4

# Testcase cr_rs1_rs2_edges (Test source rs1 = 0xfffffffe rs2 = 0x7ffffffe)
  RVTEST_TESTDATA_LOAD_INT(x11, x7) # load rs1: x7 = 0xfffffffe
    26d4:	0005a383          	lw	x7,0(x11)
    26d8:	00458593          	addi	x11,x11,4
  RVTEST_TESTDATA_LOAD_INT(x11, x27) # load rs2: x27 = 0x7ffffffe
    26dc:	0005ad83          	lw	x27,0(x11)
    26e0:	00458593          	addi	x11,x11,4

000026e4 <I_sltu_cg_cr_rs1_rs2_edges_rs1val_0xfffffffe_rs2val_0x7ffffffe>:
I_sltu_cg_cr_rs1_rs2_edges_rs1val_0xfffffffe_rs2val_0x7ffffffe:
  sltu x8, x7, x27 # perform operation
    26e4:	01b3b433          	sltu	x8,x7,x27
  # Check if x8 contains the expected result. x6 is the signature ptr, x5 is the link ptr, x4 is a temp reg.
  RVTEST_SIGUPD(x6, x5, x4, x8, I_sltu_cg_cr_rs1_rs2_edges_rs1val_0xfffffffe_rs2val_0x7ffffffe, I_sltu_cg_cr_rs1_rs2_edges_rs1val_0xfffffffe_rs2val_0x7ffffffe_str)
    26e8:	00032203          	lw	x4,0(x6)
    26ec:	00820863          	beq	x4,x8,26fc <I_sltu_cg_cr_rs1_rs2_edges_rs1val_0xfffffffe_rs2val_0x7ffffffe+0x18>
    26f0:	60d012ef          	jal	x5,44fc <failedtest_x5_x4>
    26f4:	000026e4          	.word	0x000026e4
    26f8:	0000c79b          	.word	0x0000c79b
    26fc:	00430313          	addi	x6,x6,4

# Testcase cr_rs1_rs2_edges (Test source rs1 = 0xfffffffe rs2 = 0xffffffff)
  RVTEST_TESTDATA_LOAD_INT(x11, x24) # load rs1: x24 = 0xfffffffe
    2700:	0005ac03          	lw	x24,0(x11)
    2704:	00458593          	addi	x11,x11,4
  RVTEST_TESTDATA_LOAD_INT(x11, x31) # load rs2: x31 = 0xffffffff
    2708:	0005af83          	lw	x31,0(x11)
    270c:	00458593          	addi	x11,x11,4

00002710 <I_sltu_cg_cr_rs1_rs2_edges_rs1val_0xfffffffe_rs2val_0xffffffff>:
I_sltu_cg_cr_rs1_rs2_edges_rs1val_0xfffffffe_rs2val_0xffffffff:
  sltu x12, x24, x31 # perform operation
    2710:	01fc3633          	sltu	x12,x24,x31
  # Check if x12 contains the expected result. x6 is the signature ptr, x5 is the link ptr, x4 is a temp reg.
  RVTEST_SIGUPD(x6, x5, x4, x12, I_sltu_cg_cr_rs1_rs2_edges_rs1val_0xfffffffe_rs2val_0xffffffff, I_sltu_cg_cr_rs1_rs2_edges_rs1val_0xfffffffe_rs2val_0xffffffff_str)
    2714:	00032203          	lw	x4,0(x6)
    2718:	00c20863          	beq	x4,x12,2728 <I_sltu_cg_cr_rs1_rs2_edges_rs1val_0xfffffffe_rs2val_0xffffffff+0x18>
    271c:	5e1012ef          	jal	x5,44fc <failedtest_x5_x4>
    2720:	00002710          	.word	0x00002710
    2724:	0000c7f7          	.word	0x0000c7f7
    2728:	00430313          	addi	x6,x6,4

# Testcase cr_rs1_rs2_edges (Test source rs1 = 0xfffffffe rs2 = 0xfffffffe)
  RVTEST_TESTDATA_LOAD_INT(x11, x28) # load rs1: x28 = 0xfffffffe
    272c:	0005ae03          	lw	x28,0(x11)
    2730:	00458593          	addi	x11,x11,4
  RVTEST_TESTDATA_LOAD_INT(x11, x23) # load rs2: x23 = 0xfffffffe
    2734:	0005ab83          	lw	x23,0(x11)
    2738:	00458593          	addi	x11,x11,4

0000273c <I_sltu_cg_cr_rs1_rs2_edges_rs1val_0xfffffffe_rs2val_0xfffffffe>:
I_sltu_cg_cr_rs1_rs2_edges_rs1val_0xfffffffe_rs2val_0xfffffffe:
  sltu x12, x28, x23 # perform operation
    273c:	017e3633          	sltu	x12,x28,x23
  # Check if x12 contains the expected result. x6 is the signature ptr, x5 is the link ptr, x4 is a temp reg.
  RVTEST_SIGUPD(x6, x5, x4, x12, I_sltu_cg_cr_rs1_rs2_edges_rs1val_0xfffffffe_rs2val_0xfffffffe, I_sltu_cg_cr_rs1_rs2_edges_rs1val_0xfffffffe_rs2val_0xfffffffe_str)
    2740:	00032203          	lw	x4,0(x6)
    2744:	00c20863          	beq	x4,x12,2754 <I_sltu_cg_cr_rs1_rs2_edges_rs1val_0xfffffffe_rs2val_0xfffffffe+0x18>
    2748:	5b5012ef          	jal	x5,44fc <failedtest_x5_x4>
    274c:	0000273c          	.word	0x0000273c
    2750:	0000c853          	.word	0x0000c853
    2754:	00430313          	addi	x6,x6,4

# Testcase cr_rs1_rs2_edges (Test source rs1 = 0xfffffffe rs2 = 0x5bbc8872)
  RVTEST_TESTDATA_LOAD_INT(x11, x25) # load rs1: x25 = 0xfffffffe
    2758:	0005ac83          	lw	x25,0(x11)
    275c:	00458593          	addi	x11,x11,4
  RVTEST_TESTDATA_LOAD_INT(x11, x3) # load rs2: x3 = 0x5bbc8872
    2760:	0005a183          	lw	x3,0(x11)
    2764:	00458593          	addi	x11,x11,4

00002768 <I_sltu_cg_cr_rs1_rs2_edges_rs1val_0xfffffffe_rs2val_0x5bbc8872>:
I_sltu_cg_cr_rs1_rs2_edges_rs1val_0xfffffffe_rs2val_0x5bbc8872:
  sltu x13, x25, x3 # perform operation
    2768:	003cb6b3          	sltu	x13,x25,x3
  # Check if x13 contains the expected result. x6 is the signature ptr, x5 is the link ptr, x4 is a temp reg.
  RVTEST_SIGUPD(x6, x5, x4, x13, I_sltu_cg_cr_rs1_rs2_edges_rs1val_0xfffffffe_rs2val_0x5bbc8872, I_sltu_cg_cr_rs1_rs2_edges_rs1val_0xfffffffe_rs2val_0x5bbc8872_str)
    276c:	00032203          	lw	x4,0(x6)
    2770:	00d20863          	beq	x4,x13,2780 <I_sltu_cg_cr_rs1_rs2_edges_rs1val_0xfffffffe_rs2val_0x5bbc8872+0x18>
    2774:	589012ef          	jal	x5,44fc <failedtest_x5_x4>
    2778:	00002768          	.word	0x00002768
    277c:	0000c8af          	.word	0x0000c8af
    2780:	00430313          	addi	x6,x6,4

# Testcase cr_rs1_rs2_edges (Test source rs1 = 0xfffffffe rs2 = 0xaaaaaaaa)
  RVTEST_TESTDATA_LOAD_INT(x11, x9) # load rs1: x9 = 0xfffffffe
    2784:	0005a483          	lw	x9,0(x11)
    2788:	00458593          	addi	x11,x11,4
  RVTEST_TESTDATA_LOAD_INT(x11, x16) # load rs2: x16 = 0xaaaaaaaa
    278c:	0005a803          	lw	x16,0(x11)
    2790:	00458593          	addi	x11,x11,4

00002794 <I_sltu_cg_cr_rs1_rs2_edges_rs1val_0xfffffffe_rs2val_0xaaaaaaaa>:
I_sltu_cg_cr_rs1_rs2_edges_rs1val_0xfffffffe_rs2val_0xaaaaaaaa:
  sltu x19, x9, x16 # perform operation
    2794:	0104b9b3          	sltu	x19,x9,x16
  # Check if x19 contains the expected result. x6 is the signature ptr, x5 is the link ptr, x4 is a temp reg.
  RVTEST_SIGUPD(x6, x5, x4, x19, I_sltu_cg_cr_rs1_rs2_edges_rs1val_0xfffffffe_rs2val_0xaaaaaaaa, I_sltu_cg_cr_rs1_rs2_edges_rs1val_0xfffffffe_rs2val_0xaaaaaaaa_str)
    2798:	00032203          	lw	x4,0(x6)
    279c:	01320863          	beq	x4,x19,27ac <I_sltu_cg_cr_rs1_rs2_edges_rs1val_0xfffffffe_rs2val_0xaaaaaaaa+0x18>
    27a0:	55d012ef          	jal	x5,44fc <failedtest_x5_x4>
    27a4:	00002794          	.word	0x00002794
    27a8:	0000c90b          	.word	0x0000c90b
    27ac:	00430313          	addi	x6,x6,4

# Testcase cr_rs1_rs2_edges (Test source rs1 = 0xfffffffe rs2 = 0x55555555)
  RVTEST_TESTDATA_LOAD_INT(x11, x31) # load rs1: x31 = 0xfffffffe
    27b0:	0005af83          	lw	x31,0(x11)
    27b4:	00458593          	addi	x11,x11,4
  RVTEST_TESTDATA_LOAD_INT(x11, x28) # load rs2: x28 = 0x55555555
    27b8:	0005ae03          	lw	x28,0(x11)
    27bc:	00458593          	addi	x11,x11,4

000027c0 <I_sltu_cg_cr_rs1_rs2_edges_rs1val_0xfffffffe_rs2val_0x55555555>:
I_sltu_cg_cr_rs1_rs2_edges_rs1val_0xfffffffe_rs2val_0x55555555:
  sltu x14, x31, x28 # perform operation
    27c0:	01cfb733          	sltu	x14,x31,x28
  # Check if x14 contains the expected result. x6 is the signature ptr, x5 is the link ptr, x4 is a temp reg.
  RVTEST_SIGUPD(x6, x5, x4, x14, I_sltu_cg_cr_rs1_rs2_edges_rs1val_0xfffffffe_rs2val_0x55555555, I_sltu_cg_cr_rs1_rs2_edges_rs1val_0xfffffffe_rs2val_0x55555555_str)
    27c4:	00032203          	lw	x4,0(x6)
    27c8:	00e20863          	beq	x4,x14,27d8 <I_sltu_cg_cr_rs1_rs2_edges_rs1val_0xfffffffe_rs2val_0x55555555+0x18>
    27cc:	531012ef          	jal	x5,44fc <failedtest_x5_x4>
    27d0:	000027c0          	.word	0x000027c0
    27d4:	0000c967          	.word	0x0000c967
    27d8:	00430313          	addi	x6,x6,4

# Testcase cr_rs1_rs2_edges (Test source rs1 = 0x5bbc8872 rs2 = 0x00000000)
  RVTEST_TESTDATA_LOAD_INT(x11, x8) # load rs1: x8 = 0x5bbc8872
    27dc:	0005a403          	lw	x8,0(x11)
    27e0:	00458593          	addi	x11,x11,4
  RVTEST_TESTDATA_LOAD_INT(x11, x14) # load rs2: x14 = 0x00000000
    27e4:	0005a703          	lw	x14,0(x11)
    27e8:	00458593          	addi	x11,x11,4

000027ec <I_sltu_cg_cr_rs1_rs2_edges_rs1val_0x5bbc8872_rs2val_0x0>:
I_sltu_cg_cr_rs1_rs2_edges_rs1val_0x5bbc8872_rs2val_0x0:
  sltu x19, x8, x14 # perform operation
    27ec:	00e439b3          	sltu	x19,x8,x14
  # Check if x19 contains the expected result. x6 is the signature ptr, x5 is the link ptr, x4 is a temp reg.
  RVTEST_SIGUPD(x6, x5, x4, x19, I_sltu_cg_cr_rs1_rs2_edges_rs1val_0x5bbc8872_rs2val_0x0, I_sltu_cg_cr_rs1_rs2_edges_rs1val_0x5bbc8872_rs2val_0x0_str)
    27f0:	00032203          	lw	x4,0(x6)
    27f4:	01320863          	beq	x4,x19,2804 <I_sltu_cg_cr_rs1_rs2_edges_rs1val_0x5bbc8872_rs2val_0x0+0x18>
    27f8:	505012ef          	jal	x5,44fc <failedtest_x5_x4>
    27fc:	000027ec          	.word	0x000027ec
    2800:	0000c9c3          	.word	0x0000c9c3
    2804:	00430313          	addi	x6,x6,4

# Testcase cr_rs1_rs2_edges (Test source rs1 = 0x5bbc8872 rs2 = 0x00000001)
  RVTEST_TESTDATA_LOAD_INT(x11, x25) # load rs1: x25 = 0x5bbc8872
    2808:	0005ac83          	lw	x25,0(x11)
    280c:	00458593          	addi	x11,x11,4
  RVTEST_TESTDATA_LOAD_INT(x11, x20) # load rs2: x20 = 0x00000001
    2810:	0005aa03          	lw	x20,0(x11)
    2814:	00458593          	addi	x11,x11,4

00002818 <I_sltu_cg_cr_rs1_rs2_edges_rs1val_0x5bbc8872_rs2val_0x1>:
I_sltu_cg_cr_rs1_rs2_edges_rs1val_0x5bbc8872_rs2val_0x1:
  sltu x1, x25, x20 # perform operation
    2818:	014cb0b3          	sltu	x1,x25,x20
  # Check if x1 contains the expected result. x6 is the signature ptr, x5 is the link ptr, x4 is a temp reg.
  RVTEST_SIGUPD(x6, x5, x4, x1, I_sltu_cg_cr_rs1_rs2_edges_rs1val_0x5bbc8872_rs2val_0x1, I_sltu_cg_cr_rs1_rs2_edges_rs1val_0x5bbc8872_rs2val_0x1_str)
    281c:	00032203          	lw	x4,0(x6)
    2820:	00120863          	beq	x4,x1,2830 <I_sltu_cg_cr_rs1_rs2_edges_rs1val_0x5bbc8872_rs2val_0x1+0x18>
    2824:	4d9012ef          	jal	x5,44fc <failedtest_x5_x4>
    2828:	00002818          	.word	0x00002818
    282c:	0000ca18          	.word	0x0000ca18
    2830:	00430313          	addi	x6,x6,4

# Testcase cr_rs1_rs2_edges (Test source rs1 = 0x5bbc8872 rs2 = 0x00000002)
  RVTEST_TESTDATA_LOAD_INT(x11, x1) # load rs1: x1 = 0x5bbc8872
    2834:	0005a083          	lw	x1,0(x11)
    2838:	00458593          	addi	x11,x11,4
  RVTEST_TESTDATA_LOAD_INT(x11, x3) # load rs2: x3 = 0x00000002
    283c:	0005a183          	lw	x3,0(x11)
    2840:	00458593          	addi	x11,x11,4

00002844 <I_sltu_cg_cr_rs1_rs2_edges_rs1val_0x5bbc8872_rs2val_0x2>:
I_sltu_cg_cr_rs1_rs2_edges_rs1val_0x5bbc8872_rs2val_0x2:
  sltu x14, x1, x3 # perform operation
    2844:	0030b733          	sltu	x14,x1,x3
  # Check if x14 contains the expected result. x6 is the signature ptr, x5 is the link ptr, x4 is a temp reg.
  RVTEST_SIGUPD(x6, x5, x4, x14, I_sltu_cg_cr_rs1_rs2_edges_rs1val_0x5bbc8872_rs2val_0x2, I_sltu_cg_cr_rs1_rs2_edges_rs1val_0x5bbc8872_rs2val_0x2_str)
    2848:	00032203          	lw	x4,0(x6)
    284c:	00e20863          	beq	x4,x14,285c <I_sltu_cg_cr_rs1_rs2_edges_rs1val_0x5bbc8872_rs2val_0x2+0x18>
    2850:	4ad012ef          	jal	x5,44fc <failedtest_x5_x4>
    2854:	00002844          	.word	0x00002844
    2858:	0000ca6d          	.word	0x0000ca6d
    285c:	00430313          	addi	x6,x6,4

# Testcase cr_rs1_rs2_edges (Test source rs1 = 0x5bbc8872 rs2 = 0x80000000)
  RVTEST_TESTDATA_LOAD_INT(x11, x25) # load rs1: x25 = 0x5bbc8872
    2860:	0005ac83          	lw	x25,0(x11)
    2864:	00458593          	addi	x11,x11,4
  RVTEST_TESTDATA_LOAD_INT(x11, x14) # load rs2: x14 = 0x80000000
    2868:	0005a703          	lw	x14,0(x11)
    286c:	00458593          	addi	x11,x11,4

00002870 <I_sltu_cg_cr_rs1_rs2_edges_rs1val_0x5bbc8872_rs2val_0x80000000>:
I_sltu_cg_cr_rs1_rs2_edges_rs1val_0x5bbc8872_rs2val_0x80000000:
  sltu x16, x25, x14 # perform operation
    2870:	00ecb833          	sltu	x16,x25,x14
  # Check if x16 contains the expected result. x6 is the signature ptr, x5 is the link ptr, x4 is a temp reg.
  RVTEST_SIGUPD(x6, x5, x4, x16, I_sltu_cg_cr_rs1_rs2_edges_rs1val_0x5bbc8872_rs2val_0x80000000, I_sltu_cg_cr_rs1_rs2_edges_rs1val_0x5bbc8872_rs2val_0x80000000_str)
    2874:	00032203          	lw	x4,0(x6)
    2878:	01020863          	beq	x4,x16,2888 <I_sltu_cg_cr_rs1_rs2_edges_rs1val_0x5bbc8872_rs2val_0x80000000+0x18>
    287c:	481012ef          	jal	x5,44fc <failedtest_x5_x4>
    2880:	00002870          	.word	0x00002870
    2884:	0000cac2          	.word	0x0000cac2
    2888:	00430313          	addi	x6,x6,4

# Testcase cr_rs1_rs2_edges (Test source rs1 = 0x5bbc8872 rs2 = 0x80000001)
  RVTEST_TESTDATA_LOAD_INT(x11, x31) # load rs1: x31 = 0x5bbc8872
    288c:	0005af83          	lw	x31,0(x11)
    2890:	00458593          	addi	x11,x11,4
  RVTEST_TESTDATA_LOAD_INT(x11, x28) # load rs2: x28 = 0x80000001
    2894:	0005ae03          	lw	x28,0(x11)
    2898:	00458593          	addi	x11,x11,4

0000289c <I_sltu_cg_cr_rs1_rs2_edges_rs1val_0x5bbc8872_rs2val_0x80000001>:
I_sltu_cg_cr_rs1_rs2_edges_rs1val_0x5bbc8872_rs2val_0x80000001:
  sltu x30, x31, x28 # perform operation
    289c:	01cfbf33          	sltu	x30,x31,x28
  # Check if x30 contains the expected result. x6 is the signature ptr, x5 is the link ptr, x4 is a temp reg.
  RVTEST_SIGUPD(x6, x5, x4, x30, I_sltu_cg_cr_rs1_rs2_edges_rs1val_0x5bbc8872_rs2val_0x80000001, I_sltu_cg_cr_rs1_rs2_edges_rs1val_0x5bbc8872_rs2val_0x80000001_str)
    28a0:	00032203          	lw	x4,0(x6)
    28a4:	01e20863          	beq	x4,x30,28b4 <I_sltu_cg_cr_rs1_rs2_edges_rs1val_0x5bbc8872_rs2val_0x80000001+0x18>
    28a8:	455012ef          	jal	x5,44fc <failedtest_x5_x4>
    28ac:	0000289c          	.word	0x0000289c
    28b0:	0000cb1e          	.word	0x0000cb1e
    28b4:	00430313          	addi	x6,x6,4

# Testcase cr_rs1_rs2_edges (Test source rs1 = 0x5bbc8872 rs2 = 0x7fffffff)
  RVTEST_TESTDATA_LOAD_INT(x11, x8) # load rs1: x8 = 0x5bbc8872
    28b8:	0005a403          	lw	x8,0(x11)
    28bc:	00458593          	addi	x11,x11,4
  RVTEST_TESTDATA_LOAD_INT(x11, x2) # load rs2: x2 = 0x7fffffff
    28c0:	0005a103          	lw	x2,0(x11)
    28c4:	00458593          	addi	x11,x11,4

000028c8 <I_sltu_cg_cr_rs1_rs2_edges_rs1val_0x5bbc8872_rs2val_0x7fffffff>:
I_sltu_cg_cr_rs1_rs2_edges_rs1val_0x5bbc8872_rs2val_0x7fffffff:
  sltu x15, x8, x2 # perform operation
    28c8:	002437b3          	sltu	x15,x8,x2
  # Check if x15 contains the expected result. x6 is the signature ptr, x5 is the link ptr, x4 is a temp reg.
  RVTEST_SIGUPD(x6, x5, x4, x15, I_sltu_cg_cr_rs1_rs2_edges_rs1val_0x5bbc8872_rs2val_0x7fffffff, I_sltu_cg_cr_rs1_rs2_edges_rs1val_0x5bbc8872_rs2val_0x7fffffff_str)
    28cc:	00032203          	lw	x4,0(x6)
    28d0:	00f20863          	beq	x4,x15,28e0 <I_sltu_cg_cr_rs1_rs2_edges_rs1val_0x5bbc8872_rs2val_0x7fffffff+0x18>
    28d4:	429012ef          	jal	x5,44fc <failedtest_x5_x4>
    28d8:	000028c8          	.word	0x000028c8
    28dc:	0000cb7a          	.word	0x0000cb7a
    28e0:	00430313          	addi	x6,x6,4

# Testcase cr_rs1_rs2_edges (Test source rs1 = 0x5bbc8872 rs2 = 0x7ffffffe)
  RVTEST_TESTDATA_LOAD_INT(x11, x20) # load rs1: x20 = 0x5bbc8872
    28e4:	0005aa03          	lw	x20,0(x11)
    28e8:	00458593          	addi	x11,x11,4
  RVTEST_TESTDATA_LOAD_INT(x11, x19) # load rs2: x19 = 0x7ffffffe
    28ec:	0005a983          	lw	x19,0(x11)
    28f0:	00458593          	addi	x11,x11,4

000028f4 <I_sltu_cg_cr_rs1_rs2_edges_rs1val_0x5bbc8872_rs2val_0x7ffffffe>:
I_sltu_cg_cr_rs1_rs2_edges_rs1val_0x5bbc8872_rs2val_0x7ffffffe:
  sltu x31, x20, x19 # perform operation
    28f4:	013a3fb3          	sltu	x31,x20,x19
  # Check if x31 contains the expected result. x6 is the signature ptr, x5 is the link ptr, x4 is a temp reg.
  RVTEST_SIGUPD(x6, x5, x4, x31, I_sltu_cg_cr_rs1_rs2_edges_rs1val_0x5bbc8872_rs2val_0x7ffffffe, I_sltu_cg_cr_rs1_rs2_edges_rs1val_0x5bbc8872_rs2val_0x7ffffffe_str)
    28f8:	00032203          	lw	x4,0(x6)
    28fc:	01f20863          	beq	x4,x31,290c <I_sltu_cg_cr_rs1_rs2_edges_rs1val_0x5bbc8872_rs2val_0x7ffffffe+0x18>
    2900:	3fd012ef          	jal	x5,44fc <failedtest_x5_x4>
    2904:	000028f4          	.word	0x000028f4
    2908:	0000cbd6          	.word	0x0000cbd6
    290c:	00430313          	addi	x6,x6,4

# Testcase cr_rs1_rs2_edges (Test source rs1 = 0x5bbc8872 rs2 = 0xffffffff)
  RVTEST_TESTDATA_LOAD_INT(x11, x29) # load rs1: x29 = 0x5bbc8872
    2910:	0005ae83          	lw	x29,0(x11)
    2914:	00458593          	addi	x11,x11,4
  RVTEST_TESTDATA_LOAD_INT(x11, x25) # load rs2: x25 = 0xffffffff
    2918:	0005ac83          	lw	x25,0(x11)
    291c:	00458593          	addi	x11,x11,4

00002920 <I_sltu_cg_cr_rs1_rs2_edges_rs1val_0x5bbc8872_rs2val_0xffffffff>:
I_sltu_cg_cr_rs1_rs2_edges_rs1val_0x5bbc8872_rs2val_0xffffffff:
  sltu x2, x29, x25 # perform operation
    2920:	019eb133          	sltu	x2,x29,x25
  # Check if x2 contains the expected result. x6 is the signature ptr, x5 is the link ptr, x4 is a temp reg.
  RVTEST_SIGUPD(x6, x5, x4, x2, I_sltu_cg_cr_rs1_rs2_edges_rs1val_0x5bbc8872_rs2val_0xffffffff, I_sltu_cg_cr_rs1_rs2_edges_rs1val_0x5bbc8872_rs2val_0xffffffff_str)
    2924:	00032203          	lw	x4,0(x6)
    2928:	00220863          	beq	x4,x2,2938 <I_sltu_cg_cr_rs1_rs2_edges_rs1val_0x5bbc8872_rs2val_0xffffffff+0x18>
    292c:	3d1012ef          	jal	x5,44fc <failedtest_x5_x4>
    2930:	00002920          	.word	0x00002920
    2934:	0000cc32          	.word	0x0000cc32
    2938:	00430313          	addi	x6,x6,4

# Testcase cr_rs1_rs2_edges (Test source rs1 = 0x5bbc8872 rs2 = 0xfffffffe)
  RVTEST_TESTDATA_LOAD_INT(x11, x15) # load rs1: x15 = 0x5bbc8872
    293c:	0005a783          	lw	x15,0(x11)
    2940:	00458593          	addi	x11,x11,4
  RVTEST_TESTDATA_LOAD_INT(x11, x3) # load rs2: x3 = 0xfffffffe
    2944:	0005a183          	lw	x3,0(x11)
    2948:	00458593          	addi	x11,x11,4

0000294c <I_sltu_cg_cr_rs1_rs2_edges_rs1val_0x5bbc8872_rs2val_0xfffffffe>:
I_sltu_cg_cr_rs1_rs2_edges_rs1val_0x5bbc8872_rs2val_0xfffffffe:
  sltu x23, x15, x3 # perform operation
    294c:	0037bbb3          	sltu	x23,x15,x3
  # Check if x23 contains the expected result. x6 is the signature ptr, x5 is the link ptr, x4 is a temp reg.
  RVTEST_SIGUPD(x6, x5, x4, x23, I_sltu_cg_cr_rs1_rs2_edges_rs1val_0x5bbc8872_rs2val_0xfffffffe, I_sltu_cg_cr_rs1_rs2_edges_rs1val_0x5bbc8872_rs2val_0xfffffffe_str)
    2950:	00032203          	lw	x4,0(x6)
    2954:	01720863          	beq	x4,x23,2964 <I_sltu_cg_cr_rs1_rs2_edges_rs1val_0x5bbc8872_rs2val_0xfffffffe+0x18>
    2958:	3a5012ef          	jal	x5,44fc <failedtest_x5_x4>
    295c:	0000294c          	.word	0x0000294c
    2960:	0000cc8e          	.word	0x0000cc8e
    2964:	00430313          	addi	x6,x6,4

# Testcase cr_rs1_rs2_edges (Test source rs1 = 0x5bbc8872 rs2 = 0x5bbc8872)
  RVTEST_TESTDATA_LOAD_INT(x11, x3) # load rs1: x3 = 0x5bbc8872
    2968:	0005a183          	lw	x3,0(x11)
    296c:	00458593          	addi	x11,x11,4
  RVTEST_TESTDATA_LOAD_INT(x11, x23) # load rs2: x23 = 0x5bbc8872
    2970:	0005ab83          	lw	x23,0(x11)
    2974:	00458593          	addi	x11,x11,4

00002978 <I_sltu_cg_cr_rs1_rs2_edges_rs1val_0x5bbc8872_rs2val_0x5bbc8872>:
I_sltu_cg_cr_rs1_rs2_edges_rs1val_0x5bbc8872_rs2val_0x5bbc8872:
  sltu x22, x3, x23 # perform operation
    2978:	0171bb33          	sltu	x22,x3,x23
  # Check if x22 contains the expected result. x6 is the signature ptr, x5 is the link ptr, x4 is a temp reg.
  RVTEST_SIGUPD(x6, x5, x4, x22, I_sltu_cg_cr_rs1_rs2_edges_rs1val_0x5bbc8872_rs2val_0x5bbc8872, I_sltu_cg_cr_rs1_rs2_edges_rs1val_0x5bbc8872_rs2val_0x5bbc8872_str)
    297c:	00032203          	lw	x4,0(x6)
    2980:	01620863          	beq	x4,x22,2990 <I_sltu_cg_cr_rs1_rs2_edges_rs1val_0x5bbc8872_rs2val_0x5bbc8872+0x18>
    2984:	379012ef          	jal	x5,44fc <failedtest_x5_x4>
    2988:	00002978          	.word	0x00002978
    298c:	0000ccea          	.word	0x0000ccea
    2990:	00430313          	addi	x6,x6,4

# Testcase cr_rs1_rs2_edges (Test source rs1 = 0x5bbc8872 rs2 = 0xaaaaaaaa)
  RVTEST_TESTDATA_LOAD_INT(x11, x22) # load rs1: x22 = 0x5bbc8872
    2994:	0005ab03          	lw	x22,0(x11)
    2998:	00458593          	addi	x11,x11,4
  RVTEST_TESTDATA_LOAD_INT(x11, x18) # load rs2: x18 = 0xaaaaaaaa
    299c:	0005a903          	lw	x18,0(x11)
    29a0:	00458593          	addi	x11,x11,4

000029a4 <I_sltu_cg_cr_rs1_rs2_edges_rs1val_0x5bbc8872_rs2val_0xaaaaaaaa>:
I_sltu_cg_cr_rs1_rs2_edges_rs1val_0x5bbc8872_rs2val_0xaaaaaaaa:
  sltu x10, x22, x18 # perform operation
    29a4:	012b3533          	sltu	x10,x22,x18
  # Check if x10 contains the expected result. x6 is the signature ptr, x5 is the link ptr, x4 is a temp reg.
  RVTEST_SIGUPD(x6, x5, x4, x10, I_sltu_cg_cr_rs1_rs2_edges_rs1val_0x5bbc8872_rs2val_0xaaaaaaaa, I_sltu_cg_cr_rs1_rs2_edges_rs1val_0x5bbc8872_rs2val_0xaaaaaaaa_str)
    29a8:	00032203          	lw	x4,0(x6)
    29ac:	00a20863          	beq	x4,x10,29bc <I_sltu_cg_cr_rs1_rs2_edges_rs1val_0x5bbc8872_rs2val_0xaaaaaaaa+0x18>
    29b0:	34d012ef          	jal	x5,44fc <failedtest_x5_x4>
    29b4:	000029a4          	.word	0x000029a4
    29b8:	0000cd46          	.word	0x0000cd46
    29bc:	00430313          	addi	x6,x6,4

# Testcase cr_rs1_rs2_edges (Test source rs1 = 0x5bbc8872 rs2 = 0x55555555)
  RVTEST_TESTDATA_LOAD_INT(x11, x23) # load rs1: x23 = 0x5bbc8872
    29c0:	0005ab83          	lw	x23,0(x11)
    29c4:	00458593          	addi	x11,x11,4
  RVTEST_TESTDATA_LOAD_INT(x11, x22) # load rs2: x22 = 0x55555555
    29c8:	0005ab03          	lw	x22,0(x11)
    29cc:	00458593          	addi	x11,x11,4

000029d0 <I_sltu_cg_cr_rs1_rs2_edges_rs1val_0x5bbc8872_rs2val_0x55555555>:
I_sltu_cg_cr_rs1_rs2_edges_rs1val_0x5bbc8872_rs2val_0x55555555:
  sltu x1, x23, x22 # perform operation
    29d0:	016bb0b3          	sltu	x1,x23,x22
  # Check if x1 contains the expected result. x6 is the signature ptr, x5 is the link ptr, x4 is a temp reg.
  RVTEST_SIGUPD(x6, x5, x4, x1, I_sltu_cg_cr_rs1_rs2_edges_rs1val_0x5bbc8872_rs2val_0x55555555, I_sltu_cg_cr_rs1_rs2_edges_rs1val_0x5bbc8872_rs2val_0x55555555_str)
    29d4:	00032203          	lw	x4,0(x6)
    29d8:	00120863          	beq	x4,x1,29e8 <I_sltu_cg_cr_rs1_rs2_edges_rs1val_0x5bbc8872_rs2val_0x55555555+0x18>
    29dc:	321012ef          	jal	x5,44fc <failedtest_x5_x4>
    29e0:	000029d0          	.word	0x000029d0
    29e4:	0000cda2          	.word	0x0000cda2
    29e8:	00430313          	addi	x6,x6,4

# Testcase cr_rs1_rs2_edges (Test source rs1 = 0xaaaaaaaa rs2 = 0x00000000)
  RVTEST_TESTDATA_LOAD_INT(x11, x24) # load rs1: x24 = 0xaaaaaaaa
    29ec:	0005ac03          	lw	x24,0(x11)
    29f0:	00458593          	addi	x11,x11,4
  RVTEST_TESTDATA_LOAD_INT(x11, x28) # load rs2: x28 = 0x00000000
    29f4:	0005ae03          	lw	x28,0(x11)
    29f8:	00458593          	addi	x11,x11,4

000029fc <I_sltu_cg_cr_rs1_rs2_edges_rs1val_0xaaaaaaaa_rs2val_0x0>:
I_sltu_cg_cr_rs1_rs2_edges_rs1val_0xaaaaaaaa_rs2val_0x0:
  sltu x27, x24, x28 # perform operation
    29fc:	01cc3db3          	sltu	x27,x24,x28
  # Check if x27 contains the expected result. x6 is the signature ptr, x5 is the link ptr, x4 is a temp reg.
  RVTEST_SIGUPD(x6, x5, x4, x27, I_sltu_cg_cr_rs1_rs2_edges_rs1val_0xaaaaaaaa_rs2val_0x0, I_sltu_cg_cr_rs1_rs2_edges_rs1val_0xaaaaaaaa_rs2val_0x0_str)
    2a00:	00032203          	lw	x4,0(x6)
    2a04:	01b20863          	beq	x4,x27,2a14 <I_sltu_cg_cr_rs1_rs2_edges_rs1val_0xaaaaaaaa_rs2val_0x0+0x18>
    2a08:	2f5012ef          	jal	x5,44fc <failedtest_x5_x4>
    2a0c:	000029fc          	.word	0x000029fc
    2a10:	0000cdfe          	.word	0x0000cdfe
    2a14:	00430313          	addi	x6,x6,4

# Testcase cr_rs1_rs2_edges (Test source rs1 = 0xaaaaaaaa rs2 = 0x00000001)
  RVTEST_TESTDATA_LOAD_INT(x11, x26) # load rs1: x26 = 0xaaaaaaaa
    2a18:	0005ad03          	lw	x26,0(x11)
    2a1c:	00458593          	addi	x11,x11,4
  RVTEST_TESTDATA_LOAD_INT(x11, x3) # load rs2: x3 = 0x00000001
    2a20:	0005a183          	lw	x3,0(x11)
    2a24:	00458593          	addi	x11,x11,4

00002a28 <I_sltu_cg_cr_rs1_rs2_edges_rs1val_0xaaaaaaaa_rs2val_0x1>:
I_sltu_cg_cr_rs1_rs2_edges_rs1val_0xaaaaaaaa_rs2val_0x1:
  sltu x12, x26, x3 # perform operation
    2a28:	003d3633          	sltu	x12,x26,x3
  # Check if x12 contains the expected result. x6 is the signature ptr, x5 is the link ptr, x4 is a temp reg.
  RVTEST_SIGUPD(x6, x5, x4, x12, I_sltu_cg_cr_rs1_rs2_edges_rs1val_0xaaaaaaaa_rs2val_0x1, I_sltu_cg_cr_rs1_rs2_edges_rs1val_0xaaaaaaaa_rs2val_0x1_str)
    2a2c:	00032203          	lw	x4,0(x6)
    2a30:	00c20863          	beq	x4,x12,2a40 <I_sltu_cg_cr_rs1_rs2_edges_rs1val_0xaaaaaaaa_rs2val_0x1+0x18>
    2a34:	2c9012ef          	jal	x5,44fc <failedtest_x5_x4>
    2a38:	00002a28          	.word	0x00002a28
    2a3c:	0000ce53          	.word	0x0000ce53
    2a40:	00430313          	addi	x6,x6,4

# Testcase cr_rs1_rs2_edges (Test source rs1 = 0xaaaaaaaa rs2 = 0x00000002)
  RVTEST_TESTDATA_LOAD_INT(x11, x17) # load rs1: x17 = 0xaaaaaaaa
    2a44:	0005a883          	lw	x17,0(x11)
    2a48:	00458593          	addi	x11,x11,4
  RVTEST_TESTDATA_LOAD_INT(x11, x15) # load rs2: x15 = 0x00000002
    2a4c:	0005a783          	lw	x15,0(x11)
    2a50:	00458593          	addi	x11,x11,4

00002a54 <I_sltu_cg_cr_rs1_rs2_edges_rs1val_0xaaaaaaaa_rs2val_0x2>:
I_sltu_cg_cr_rs1_rs2_edges_rs1val_0xaaaaaaaa_rs2val_0x2:
  sltu x26, x17, x15 # perform operation
    2a54:	00f8bd33          	sltu	x26,x17,x15
  # Check if x26 contains the expected result. x6 is the signature ptr, x5 is the link ptr, x4 is a temp reg.
  RVTEST_SIGUPD(x6, x5, x4, x26, I_sltu_cg_cr_rs1_rs2_edges_rs1val_0xaaaaaaaa_rs2val_0x2, I_sltu_cg_cr_rs1_rs2_edges_rs1val_0xaaaaaaaa_rs2val_0x2_str)
    2a58:	00032203          	lw	x4,0(x6)
    2a5c:	01a20863          	beq	x4,x26,2a6c <I_sltu_cg_cr_rs1_rs2_edges_rs1val_0xaaaaaaaa_rs2val_0x2+0x18>
    2a60:	29d012ef          	jal	x5,44fc <failedtest_x5_x4>
    2a64:	00002a54          	.word	0x00002a54
    2a68:	0000cea8          	.word	0x0000cea8
    2a6c:	00430313          	addi	x6,x6,4

# Testcase cr_rs1_rs2_edges (Test source rs1 = 0xaaaaaaaa rs2 = 0x80000000)
  RVTEST_TESTDATA_LOAD_INT(x11, x3) # load rs1: x3 = 0xaaaaaaaa
    2a70:	0005a183          	lw	x3,0(x11)
    2a74:	00458593          	addi	x11,x11,4
  RVTEST_TESTDATA_LOAD_INT(x11, x17) # load rs2: x17 = 0x80000000
    2a78:	0005a883          	lw	x17,0(x11)
    2a7c:	00458593          	addi	x11,x11,4

00002a80 <I_sltu_cg_cr_rs1_rs2_edges_rs1val_0xaaaaaaaa_rs2val_0x80000000>:
I_sltu_cg_cr_rs1_rs2_edges_rs1val_0xaaaaaaaa_rs2val_0x80000000:
  sltu x22, x3, x17 # perform operation
    2a80:	0111bb33          	sltu	x22,x3,x17
  # Check if x22 contains the expected result. x6 is the signature ptr, x5 is the link ptr, x4 is a temp reg.
  RVTEST_SIGUPD(x6, x5, x4, x22, I_sltu_cg_cr_rs1_rs2_edges_rs1val_0xaaaaaaaa_rs2val_0x80000000, I_sltu_cg_cr_rs1_rs2_edges_rs1val_0xaaaaaaaa_rs2val_0x80000000_str)
    2a84:	00032203          	lw	x4,0(x6)
    2a88:	01620863          	beq	x4,x22,2a98 <I_sltu_cg_cr_rs1_rs2_edges_rs1val_0xaaaaaaaa_rs2val_0x80000000+0x18>
    2a8c:	271012ef          	jal	x5,44fc <failedtest_x5_x4>
    2a90:	00002a80          	.word	0x00002a80
    2a94:	0000cefd          	.word	0x0000cefd
    2a98:	00430313          	addi	x6,x6,4

# Testcase cr_rs1_rs2_edges (Test source rs1 = 0xaaaaaaaa rs2 = 0x80000001)
  RVTEST_TESTDATA_LOAD_INT(x11, x16) # load rs1: x16 = 0xaaaaaaaa
    2a9c:	0005a803          	lw	x16,0(x11)
    2aa0:	00458593          	addi	x11,x11,4
  RVTEST_TESTDATA_LOAD_INT(x11, x28) # load rs2: x28 = 0x80000001
    2aa4:	0005ae03          	lw	x28,0(x11)
    2aa8:	00458593          	addi	x11,x11,4

00002aac <I_sltu_cg_cr_rs1_rs2_edges_rs1val_0xaaaaaaaa_rs2val_0x80000001>:
I_sltu_cg_cr_rs1_rs2_edges_rs1val_0xaaaaaaaa_rs2val_0x80000001:
  sltu x26, x16, x28 # perform operation
    2aac:	01c83d33          	sltu	x26,x16,x28
  # Check if x26 contains the expected result. x6 is the signature ptr, x5 is the link ptr, x4 is a temp reg.
  RVTEST_SIGUPD(x6, x5, x4, x26, I_sltu_cg_cr_rs1_rs2_edges_rs1val_0xaaaaaaaa_rs2val_0x80000001, I_sltu_cg_cr_rs1_rs2_edges_rs1val_0xaaaaaaaa_rs2val_0x80000001_str)
    2ab0:	00032203          	lw	x4,0(x6)
    2ab4:	01a20863          	beq	x4,x26,2ac4 <I_sltu_cg_cr_rs1_rs2_edges_rs1val_0xaaaaaaaa_rs2val_0x80000001+0x18>
    2ab8:	245012ef          	jal	x5,44fc <failedtest_x5_x4>
    2abc:	00002aac          	.word	0x00002aac
    2ac0:	0000cf59          	.word	0x0000cf59
    2ac4:	00430313          	addi	x6,x6,4

# Testcase cr_rs1_rs2_edges (Test source rs1 = 0xaaaaaaaa rs2 = 0x7fffffff)
  RVTEST_TESTDATA_LOAD_INT(x11, x25) # load rs1: x25 = 0xaaaaaaaa
    2ac8:	0005ac83          	lw	x25,0(x11)
    2acc:	00458593          	addi	x11,x11,4
  RVTEST_TESTDATA_LOAD_INT(x11, x3) # load rs2: x3 = 0x7fffffff
    2ad0:	0005a183          	lw	x3,0(x11)
    2ad4:	00458593          	addi	x11,x11,4

00002ad8 <I_sltu_cg_cr_rs1_rs2_edges_rs1val_0xaaaaaaaa_rs2val_0x7fffffff>:
I_sltu_cg_cr_rs1_rs2_edges_rs1val_0xaaaaaaaa_rs2val_0x7fffffff:
  sltu x2, x25, x3 # perform operation
    2ad8:	003cb133          	sltu	x2,x25,x3
  # Check if x2 contains the expected result. x6 is the signature ptr, x5 is the link ptr, x4 is a temp reg.
  RVTEST_SIGUPD(x6, x5, x4, x2, I_sltu_cg_cr_rs1_rs2_edges_rs1val_0xaaaaaaaa_rs2val_0x7fffffff, I_sltu_cg_cr_rs1_rs2_edges_rs1val_0xaaaaaaaa_rs2val_0x7fffffff_str)
    2adc:	00032203          	lw	x4,0(x6)
    2ae0:	00220863          	beq	x4,x2,2af0 <I_sltu_cg_cr_rs1_rs2_edges_rs1val_0xaaaaaaaa_rs2val_0x7fffffff+0x18>
    2ae4:	219012ef          	jal	x5,44fc <failedtest_x5_x4>
    2ae8:	00002ad8          	.word	0x00002ad8
    2aec:	0000cfb5          	.word	0x0000cfb5
    2af0:	00430313          	addi	x6,x6,4

# Testcase cr_rs1_rs2_edges (Test source rs1 = 0xaaaaaaaa rs2 = 0x7ffffffe)
  RVTEST_TESTDATA_LOAD_INT(x11, x25) # load rs1: x25 = 0xaaaaaaaa
    2af4:	0005ac83          	lw	x25,0(x11)
    2af8:	00458593          	addi	x11,x11,4
  RVTEST_TESTDATA_LOAD_INT(x11, x20) # load rs2: x20 = 0x7ffffffe
    2afc:	0005aa03          	lw	x20,0(x11)
    2b00:	00458593          	addi	x11,x11,4

00002b04 <I_sltu_cg_cr_rs1_rs2_edges_rs1val_0xaaaaaaaa_rs2val_0x7ffffffe>:
I_sltu_cg_cr_rs1_rs2_edges_rs1val_0xaaaaaaaa_rs2val_0x7ffffffe:
  sltu x22, x25, x20 # perform operation
    2b04:	014cbb33          	sltu	x22,x25,x20
  # Check if x22 contains the expected result. x6 is the signature ptr, x5 is the link ptr, x4 is a temp reg.
  RVTEST_SIGUPD(x6, x5, x4, x22, I_sltu_cg_cr_rs1_rs2_edges_rs1val_0xaaaaaaaa_rs2val_0x7ffffffe, I_sltu_cg_cr_rs1_rs2_edges_rs1val_0xaaaaaaaa_rs2val_0x7ffffffe_str)
    2b08:	00032203          	lw	x4,0(x6)
    2b0c:	01620863          	beq	x4,x22,2b1c <I_sltu_cg_cr_rs1_rs2_edges_rs1val_0xaaaaaaaa_rs2val_0x7ffffffe+0x18>
    2b10:	1ed012ef          	jal	x5,44fc <failedtest_x5_x4>
    2b14:	00002b04          	.word	0x00002b04
    2b18:	0000d011          	.word	0x0000d011
    2b1c:	00430313          	addi	x6,x6,4

# Testcase cr_rs1_rs2_edges (Test source rs1 = 0xaaaaaaaa rs2 = 0xffffffff)
  RVTEST_TESTDATA_LOAD_INT(x11, x3) # load rs1: x3 = 0xaaaaaaaa
    2b20:	0005a183          	lw	x3,0(x11)
    2b24:	00458593          	addi	x11,x11,4
  RVTEST_TESTDATA_LOAD_INT(x11, x13) # load rs2: x13 = 0xffffffff
    2b28:	0005a683          	lw	x13,0(x11)
    2b2c:	00458593          	addi	x11,x11,4

00002b30 <I_sltu_cg_cr_rs1_rs2_edges_rs1val_0xaaaaaaaa_rs2val_0xffffffff>:
I_sltu_cg_cr_rs1_rs2_edges_rs1val_0xaaaaaaaa_rs2val_0xffffffff:
  sltu x2, x3, x13 # perform operation
    2b30:	00d1b133          	sltu	x2,x3,x13
  # Check if x2 contains the expected result. x6 is the signature ptr, x5 is the link ptr, x4 is a temp reg.
  RVTEST_SIGUPD(x6, x5, x4, x2, I_sltu_cg_cr_rs1_rs2_edges_rs1val_0xaaaaaaaa_rs2val_0xffffffff, I_sltu_cg_cr_rs1_rs2_edges_rs1val_0xaaaaaaaa_rs2val_0xffffffff_str)
    2b34:	00032203          	lw	x4,0(x6)
    2b38:	00220863          	beq	x4,x2,2b48 <I_sltu_cg_cr_rs1_rs2_edges_rs1val_0xaaaaaaaa_rs2val_0xffffffff+0x18>
    2b3c:	1c1012ef          	jal	x5,44fc <failedtest_x5_x4>
    2b40:	00002b30          	.word	0x00002b30
    2b44:	0000d06d          	.word	0x0000d06d
    2b48:	00430313          	addi	x6,x6,4

# Testcase cr_rs1_rs2_edges (Test source rs1 = 0xaaaaaaaa rs2 = 0xfffffffe)
  RVTEST_TESTDATA_LOAD_INT(x11, x10) # load rs1: x10 = 0xaaaaaaaa
    2b4c:	0005a503          	lw	x10,0(x11)
    2b50:	00458593          	addi	x11,x11,4
  RVTEST_TESTDATA_LOAD_INT(x11, x2) # load rs2: x2 = 0xfffffffe
    2b54:	0005a103          	lw	x2,0(x11)
    2b58:	00458593          	addi	x11,x11,4

00002b5c <I_sltu_cg_cr_rs1_rs2_edges_rs1val_0xaaaaaaaa_rs2val_0xfffffffe>:
I_sltu_cg_cr_rs1_rs2_edges_rs1val_0xaaaaaaaa_rs2val_0xfffffffe:
  sltu x22, x10, x2 # perform operation
    2b5c:	00253b33          	sltu	x22,x10,x2
  # Check if x22 contains the expected result. x6 is the signature ptr, x5 is the link ptr, x4 is a temp reg.
  RVTEST_SIGUPD(x6, x5, x4, x22, I_sltu_cg_cr_rs1_rs2_edges_rs1val_0xaaaaaaaa_rs2val_0xfffffffe, I_sltu_cg_cr_rs1_rs2_edges_rs1val_0xaaaaaaaa_rs2val_0xfffffffe_str)
    2b60:	00032203          	lw	x4,0(x6)
    2b64:	01620863          	beq	x4,x22,2b74 <I_sltu_cg_cr_rs1_rs2_edges_rs1val_0xaaaaaaaa_rs2val_0xfffffffe+0x18>
    2b68:	195012ef          	jal	x5,44fc <failedtest_x5_x4>
    2b6c:	00002b5c          	.word	0x00002b5c
    2b70:	0000d0c9          	.word	0x0000d0c9
    2b74:	00430313          	addi	x6,x6,4

# Testcase cr_rs1_rs2_edges (Test source rs1 = 0xaaaaaaaa rs2 = 0x5bbc8872)
  RVTEST_TESTDATA_LOAD_INT(x11, x9) # load rs1: x9 = 0xaaaaaaaa
    2b78:	0005a483          	lw	x9,0(x11)
    2b7c:	00458593          	addi	x11,x11,4
  RVTEST_TESTDATA_LOAD_INT(x11, x26) # load rs2: x26 = 0x5bbc8872
    2b80:	0005ad03          	lw	x26,0(x11)
    2b84:	00458593          	addi	x11,x11,4

00002b88 <I_sltu_cg_cr_rs1_rs2_edges_rs1val_0xaaaaaaaa_rs2val_0x5bbc8872>:
I_sltu_cg_cr_rs1_rs2_edges_rs1val_0xaaaaaaaa_rs2val_0x5bbc8872:
  sltu x31, x9, x26 # perform operation
    2b88:	01a4bfb3          	sltu	x31,x9,x26
  # Check if x31 contains the expected result. x6 is the signature ptr, x5 is the link ptr, x4 is a temp reg.
  RVTEST_SIGUPD(x6, x5, x4, x31, I_sltu_cg_cr_rs1_rs2_edges_rs1val_0xaaaaaaaa_rs2val_0x5bbc8872, I_sltu_cg_cr_rs1_rs2_edges_rs1val_0xaaaaaaaa_rs2val_0x5bbc8872_str)
    2b8c:	00032203          	lw	x4,0(x6)
    2b90:	01f20863          	beq	x4,x31,2ba0 <I_sltu_cg_cr_rs1_rs2_edges_rs1val_0xaaaaaaaa_rs2val_0x5bbc8872+0x18>
    2b94:	169012ef          	jal	x5,44fc <failedtest_x5_x4>
    2b98:	00002b88          	.word	0x00002b88
    2b9c:	0000d125          	.word	0x0000d125
    2ba0:	00430313          	addi	x6,x6,4

# Testcase cr_rs1_rs2_edges (Test source rs1 = 0xaaaaaaaa rs2 = 0xaaaaaaaa)
  RVTEST_TESTDATA_LOAD_INT(x11, x19) # load rs1: x19 = 0xaaaaaaaa
    2ba4:	0005a983          	lw	x19,0(x11)
    2ba8:	00458593          	addi	x11,x11,4
  RVTEST_TESTDATA_LOAD_INT(x11, x15) # load rs2: x15 = 0xaaaaaaaa
    2bac:	0005a783          	lw	x15,0(x11)
    2bb0:	00458593          	addi	x11,x11,4

00002bb4 <I_sltu_cg_cr_rs1_rs2_edges_rs1val_0xaaaaaaaa_rs2val_0xaaaaaaaa>:
I_sltu_cg_cr_rs1_rs2_edges_rs1val_0xaaaaaaaa_rs2val_0xaaaaaaaa:
  sltu x30, x19, x15 # perform operation
    2bb4:	00f9bf33          	sltu	x30,x19,x15
  # Check if x30 contains the expected result. x6 is the signature ptr, x5 is the link ptr, x4 is a temp reg.
  RVTEST_SIGUPD(x6, x5, x4, x30, I_sltu_cg_cr_rs1_rs2_edges_rs1val_0xaaaaaaaa_rs2val_0xaaaaaaaa, I_sltu_cg_cr_rs1_rs2_edges_rs1val_0xaaaaaaaa_rs2val_0xaaaaaaaa_str)
    2bb8:	00032203          	lw	x4,0(x6)
    2bbc:	01e20863          	beq	x4,x30,2bcc <I_sltu_cg_cr_rs1_rs2_edges_rs1val_0xaaaaaaaa_rs2val_0xaaaaaaaa+0x18>
    2bc0:	13d012ef          	jal	x5,44fc <failedtest_x5_x4>
    2bc4:	00002bb4          	.word	0x00002bb4
    2bc8:	0000d181          	.word	0x0000d181
    2bcc:	00430313          	addi	x6,x6,4

# Testcase cr_rs1_rs2_edges (Test source rs1 = 0xaaaaaaaa rs2 = 0x55555555)
  RVTEST_TESTDATA_LOAD_INT(x11, x9) # load rs1: x9 = 0xaaaaaaaa
    2bd0:	0005a483          	lw	x9,0(x11)
    2bd4:	00458593          	addi	x11,x11,4
  RVTEST_TESTDATA_LOAD_INT(x11, x13) # load rs2: x13 = 0x55555555
    2bd8:	0005a683          	lw	x13,0(x11)
    2bdc:	00458593          	addi	x11,x11,4

00002be0 <I_sltu_cg_cr_rs1_rs2_edges_rs1val_0xaaaaaaaa_rs2val_0x55555555>:
I_sltu_cg_cr_rs1_rs2_edges_rs1val_0xaaaaaaaa_rs2val_0x55555555:
  sltu x10, x9, x13 # perform operation
    2be0:	00d4b533          	sltu	x10,x9,x13
  # Check if x10 contains the expected result. x6 is the signature ptr, x5 is the link ptr, x4 is a temp reg.
  RVTEST_SIGUPD(x6, x5, x4, x10, I_sltu_cg_cr_rs1_rs2_edges_rs1val_0xaaaaaaaa_rs2val_0x55555555, I_sltu_cg_cr_rs1_rs2_edges_rs1val_0xaaaaaaaa_rs2val_0x55555555_str)
    2be4:	00032203          	lw	x4,0(x6)
    2be8:	00a20863          	beq	x4,x10,2bf8 <I_sltu_cg_cr_rs1_rs2_edges_rs1val_0xaaaaaaaa_rs2val_0x55555555+0x18>
    2bec:	111012ef          	jal	x5,44fc <failedtest_x5_x4>
    2bf0:	00002be0          	.word	0x00002be0
    2bf4:	0000d1dd          	.word	0x0000d1dd
    2bf8:	00430313          	addi	x6,x6,4

# Testcase cr_rs1_rs2_edges (Test source rs1 = 0x55555555 rs2 = 0x00000000)
  RVTEST_TESTDATA_LOAD_INT(x11, x31) # load rs1: x31 = 0x55555555
    2bfc:	0005af83          	lw	x31,0(x11)
    2c00:	00458593          	addi	x11,x11,4
  RVTEST_TESTDATA_LOAD_INT(x11, x12) # load rs2: x12 = 0x00000000
    2c04:	0005a603          	lw	x12,0(x11)
    2c08:	00458593          	addi	x11,x11,4

00002c0c <I_sltu_cg_cr_rs1_rs2_edges_rs1val_0x55555555_rs2val_0x0>:
I_sltu_cg_cr_rs1_rs2_edges_rs1val_0x55555555_rs2val_0x0:
  sltu x29, x31, x12 # perform operation
    2c0c:	00cfbeb3          	sltu	x29,x31,x12
  # Check if x29 contains the expected result. x6 is the signature ptr, x5 is the link ptr, x4 is a temp reg.
  RVTEST_SIGUPD(x6, x5, x4, x29, I_sltu_cg_cr_rs1_rs2_edges_rs1val_0x55555555_rs2val_0x0, I_sltu_cg_cr_rs1_rs2_edges_rs1val_0x55555555_rs2val_0x0_str)
    2c10:	00032203          	lw	x4,0(x6)
    2c14:	01d20863          	beq	x4,x29,2c24 <I_sltu_cg_cr_rs1_rs2_edges_rs1val_0x55555555_rs2val_0x0+0x18>
    2c18:	0e5012ef          	jal	x5,44fc <failedtest_x5_x4>
    2c1c:	00002c0c          	.word	0x00002c0c
    2c20:	0000d239          	.word	0x0000d239
    2c24:	00430313          	addi	x6,x6,4

# Testcase cr_rs1_rs2_edges (Test source rs1 = 0x55555555 rs2 = 0x00000001)
  RVTEST_TESTDATA_LOAD_INT(x11, x12) # load rs1: x12 = 0x55555555
    2c28:	0005a603          	lw	x12,0(x11)
    2c2c:	00458593          	addi	x11,x11,4
  RVTEST_TESTDATA_LOAD_INT(x11, x7) # load rs2: x7 = 0x00000001
    2c30:	0005a383          	lw	x7,0(x11)
    2c34:	00458593          	addi	x11,x11,4

00002c38 <I_sltu_cg_cr_rs1_rs2_edges_rs1val_0x55555555_rs2val_0x1>:
I_sltu_cg_cr_rs1_rs2_edges_rs1val_0x55555555_rs2val_0x1:
  sltu x28, x12, x7 # perform operation
    2c38:	00763e33          	sltu	x28,x12,x7
  # Check if x28 contains the expected result. x6 is the signature ptr, x5 is the link ptr, x4 is a temp reg.
  RVTEST_SIGUPD(x6, x5, x4, x28, I_sltu_cg_cr_rs1_rs2_edges_rs1val_0x55555555_rs2val_0x1, I_sltu_cg_cr_rs1_rs2_edges_rs1val_0x55555555_rs2val_0x1_str)
    2c3c:	00032203          	lw	x4,0(x6)
    2c40:	01c20863          	beq	x4,x28,2c50 <I_sltu_cg_cr_rs1_rs2_edges_rs1val_0x55555555_rs2val_0x1+0x18>
    2c44:	0b9012ef          	jal	x5,44fc <failedtest_x5_x4>
    2c48:	00002c38          	.word	0x00002c38
    2c4c:	0000d28e          	.word	0x0000d28e
    2c50:	00430313          	addi	x6,x6,4

# Testcase cr_rs1_rs2_edges (Test source rs1 = 0x55555555 rs2 = 0x00000002)
  RVTEST_TESTDATA_LOAD_INT(x11, x20) # load rs1: x20 = 0x55555555
    2c54:	0005aa03          	lw	x20,0(x11)
    2c58:	00458593          	addi	x11,x11,4
  RVTEST_TESTDATA_LOAD_INT(x11, x17) # load rs2: x17 = 0x00000002
    2c5c:	0005a883          	lw	x17,0(x11)
    2c60:	00458593          	addi	x11,x11,4

00002c64 <I_sltu_cg_cr_rs1_rs2_edges_rs1val_0x55555555_rs2val_0x2>:
I_sltu_cg_cr_rs1_rs2_edges_rs1val_0x55555555_rs2val_0x2:
  sltu x1, x20, x17 # perform operation
    2c64:	011a30b3          	sltu	x1,x20,x17
  # Check if x1 contains the expected result. x6 is the signature ptr, x5 is the link ptr, x4 is a temp reg.
  RVTEST_SIGUPD(x6, x5, x4, x1, I_sltu_cg_cr_rs1_rs2_edges_rs1val_0x55555555_rs2val_0x2, I_sltu_cg_cr_rs1_rs2_edges_rs1val_0x55555555_rs2val_0x2_str)
    2c68:	00032203          	lw	x4,0(x6)
    2c6c:	00120863          	beq	x4,x1,2c7c <I_sltu_cg_cr_rs1_rs2_edges_rs1val_0x55555555_rs2val_0x2+0x18>
    2c70:	08d012ef          	jal	x5,44fc <failedtest_x5_x4>
    2c74:	00002c64          	.word	0x00002c64
    2c78:	0000d2e3          	.word	0x0000d2e3
    2c7c:	00430313          	addi	x6,x6,4

# Testcase cr_rs1_rs2_edges (Test source rs1 = 0x55555555 rs2 = 0x80000000)
  RVTEST_TESTDATA_LOAD_INT(x11, x3) # load rs1: x3 = 0x55555555
    2c80:	0005a183          	lw	x3,0(x11)
    2c84:	00458593          	addi	x11,x11,4
  RVTEST_TESTDATA_LOAD_INT(x11, x18) # load rs2: x18 = 0x80000000
    2c88:	0005a903          	lw	x18,0(x11)
    2c8c:	00458593          	addi	x11,x11,4

00002c90 <I_sltu_cg_cr_rs1_rs2_edges_rs1val_0x55555555_rs2val_0x80000000>:
I_sltu_cg_cr_rs1_rs2_edges_rs1val_0x55555555_rs2val_0x80000000:
  sltu x13, x3, x18 # perform operation
    2c90:	0121b6b3          	sltu	x13,x3,x18
  # Check if x13 contains the expected result. x6 is the signature ptr, x5 is the link ptr, x4 is a temp reg.
  RVTEST_SIGUPD(x6, x5, x4, x13, I_sltu_cg_cr_rs1_rs2_edges_rs1val_0x55555555_rs2val_0x80000000, I_sltu_cg_cr_rs1_rs2_edges_rs1val_0x55555555_rs2val_0x80000000_str)
    2c94:	00032203          	lw	x4,0(x6)
    2c98:	00d20863          	beq	x4,x13,2ca8 <I_sltu_cg_cr_rs1_rs2_edges_rs1val_0x55555555_rs2val_0x80000000+0x18>
    2c9c:	061012ef          	jal	x5,44fc <failedtest_x5_x4>
    2ca0:	00002c90          	.word	0x00002c90
    2ca4:	0000d338          	.word	0x0000d338
    2ca8:	00430313          	addi	x6,x6,4

# Testcase cr_rs1_rs2_edges (Test source rs1 = 0x55555555 rs2 = 0x80000001)
  RVTEST_TESTDATA_LOAD_INT(x11, x19) # load rs1: x19 = 0x55555555
    2cac:	0005a983          	lw	x19,0(x11)
    2cb0:	00458593          	addi	x11,x11,4
  RVTEST_TESTDATA_LOAD_INT(x11, x23) # load rs2: x23 = 0x80000001
    2cb4:	0005ab83          	lw	x23,0(x11)
    2cb8:	00458593          	addi	x11,x11,4

00002cbc <I_sltu_cg_cr_rs1_rs2_edges_rs1val_0x55555555_rs2val_0x80000001>:
I_sltu_cg_cr_rs1_rs2_edges_rs1val_0x55555555_rs2val_0x80000001:
  sltu x7, x19, x23 # perform operation
    2cbc:	0179b3b3          	sltu	x7,x19,x23
  # Check if x7 contains the expected result. x6 is the signature ptr, x5 is the link ptr, x4 is a temp reg.
  RVTEST_SIGUPD(x6, x5, x4, x7, I_sltu_cg_cr_rs1_rs2_edges_rs1val_0x55555555_rs2val_0x80000001, I_sltu_cg_cr_rs1_rs2_edges_rs1val_0x55555555_rs2val_0x80000001_str)
    2cc0:	00032203          	lw	x4,0(x6)
    2cc4:	00720863          	beq	x4,x7,2cd4 <I_sltu_cg_cr_rs1_rs2_edges_rs1val_0x55555555_rs2val_0x80000001+0x18>
    2cc8:	035012ef          	jal	x5,44fc <failedtest_x5_x4>
    2ccc:	00002cbc          	.word	0x00002cbc
    2cd0:	0000d394          	.word	0x0000d394
    2cd4:	00430313          	addi	x6,x6,4

# Testcase cr_rs1_rs2_edges (Test source rs1 = 0x55555555 rs2 = 0x7fffffff)
  RVTEST_TESTDATA_LOAD_INT(x11, x12) # load rs1: x12 = 0x55555555
    2cd8:	0005a603          	lw	x12,0(x11)
    2cdc:	00458593          	addi	x11,x11,4
  RVTEST_TESTDATA_LOAD_INT(x11, x10) # load rs2: x10 = 0x7fffffff
    2ce0:	0005a503          	lw	x10,0(x11)
    2ce4:	00458593          	addi	x11,x11,4

00002ce8 <I_sltu_cg_cr_rs1_rs2_edges_rs1val_0x55555555_rs2val_0x7fffffff>:
I_sltu_cg_cr_rs1_rs2_edges_rs1val_0x55555555_rs2val_0x7fffffff:
  sltu x30, x12, x10 # perform operation
    2ce8:	00a63f33          	sltu	x30,x12,x10
  # Check if x30 contains the expected result. x6 is the signature ptr, x5 is the link ptr, x4 is a temp reg.
  RVTEST_SIGUPD(x6, x5, x4, x30, I_sltu_cg_cr_rs1_rs2_edges_rs1val_0x55555555_rs2val_0x7fffffff, I_sltu_cg_cr_rs1_rs2_edges_rs1val_0x55555555_rs2val_0x7fffffff_str)
    2cec:	00032203          	lw	x4,0(x6)
    2cf0:	01e20863          	beq	x4,x30,2d00 <I_sltu_cg_cr_rs1_rs2_edges_rs1val_0x55555555_rs2val_0x7fffffff+0x18>
    2cf4:	009012ef          	jal	x5,44fc <failedtest_x5_x4>
    2cf8:	00002ce8          	.word	0x00002ce8
    2cfc:	0000d3f0          	.word	0x0000d3f0
    2d00:	00430313          	addi	x6,x6,4

# Testcase cr_rs1_rs2_edges (Test source rs1 = 0x55555555 rs2 = 0x7ffffffe)
  RVTEST_TESTDATA_LOAD_INT(x11, x30) # load rs1: x30 = 0x55555555
    2d04:	0005af03          	lw	x30,0(x11)
    2d08:	00458593          	addi	x11,x11,4
  RVTEST_TESTDATA_LOAD_INT(x11, x8) # load rs2: x8 = 0x7ffffffe
    2d0c:	0005a403          	lw	x8,0(x11)
    2d10:	00458593          	addi	x11,x11,4

00002d14 <I_sltu_cg_cr_rs1_rs2_edges_rs1val_0x55555555_rs2val_0x7ffffffe>:
I_sltu_cg_cr_rs1_rs2_edges_rs1val_0x55555555_rs2val_0x7ffffffe:
  sltu x2, x30, x8 # perform operation
    2d14:	008f3133          	sltu	x2,x30,x8
  # Check if x2 contains the expected result. x6 is the signature ptr, x5 is the link ptr, x4 is a temp reg.
  RVTEST_SIGUPD(x6, x5, x4, x2, I_sltu_cg_cr_rs1_rs2_edges_rs1val_0x55555555_rs2val_0x7ffffffe, I_sltu_cg_cr_rs1_rs2_edges_rs1val_0x55555555_rs2val_0x7ffffffe_str)
    2d18:	00032203          	lw	x4,0(x6)
    2d1c:	00220863          	beq	x4,x2,2d2c <I_sltu_cg_cr_rs1_rs2_edges_rs1val_0x55555555_rs2val_0x7ffffffe+0x18>
    2d20:	7dc012ef          	jal	x5,44fc <failedtest_x5_x4>
    2d24:	00002d14          	.word	0x00002d14
    2d28:	0000d44c          	.word	0x0000d44c
    2d2c:	00430313          	addi	x6,x6,4

# Testcase cr_rs1_rs2_edges (Test source rs1 = 0x55555555 rs2 = 0xffffffff)
  RVTEST_TESTDATA_LOAD_INT(x11, x29) # load rs1: x29 = 0x55555555
    2d30:	0005ae83          	lw	x29,0(x11)
    2d34:	00458593          	addi	x11,x11,4
  RVTEST_TESTDATA_LOAD_INT(x11, x27) # load rs2: x27 = 0xffffffff
    2d38:	0005ad83          	lw	x27,0(x11)
    2d3c:	00458593          	addi	x11,x11,4

00002d40 <I_sltu_cg_cr_rs1_rs2_edges_rs1val_0x55555555_rs2val_0xffffffff>:
I_sltu_cg_cr_rs1_rs2_edges_rs1val_0x55555555_rs2val_0xffffffff:
  sltu x14, x29, x27 # perform operation
    2d40:	01beb733          	sltu	x14,x29,x27
  # Check if x14 contains the expected result. x6 is the signature ptr, x5 is the link ptr, x4 is a temp reg.
  RVTEST_SIGUPD(x6, x5, x4, x14, I_sltu_cg_cr_rs1_rs2_edges_rs1val_0x55555555_rs2val_0xffffffff, I_sltu_cg_cr_rs1_rs2_edges_rs1val_0x55555555_rs2val_0xffffffff_str)
    2d44:	00032203          	lw	x4,0(x6)
    2d48:	00e20863          	beq	x4,x14,2d58 <I_sltu_cg_cr_rs1_rs2_edges_rs1val_0x55555555_rs2val_0xffffffff+0x18>
    2d4c:	7b0012ef          	jal	x5,44fc <failedtest_x5_x4>
    2d50:	00002d40          	.word	0x00002d40
    2d54:	0000d4a8          	.word	0x0000d4a8
    2d58:	00430313          	addi	x6,x6,4

# Testcase cr_rs1_rs2_edges (Test source rs1 = 0x55555555 rs2 = 0xfffffffe)
  RVTEST_TESTDATA_LOAD_INT(x11, x8) # load rs1: x8 = 0x55555555
    2d5c:	0005a403          	lw	x8,0(x11)
    2d60:	00458593          	addi	x11,x11,4
  RVTEST_TESTDATA_LOAD_INT(x11, x20) # load rs2: x20 = 0xfffffffe
    2d64:	0005aa03          	lw	x20,0(x11)
    2d68:	00458593          	addi	x11,x11,4

00002d6c <I_sltu_cg_cr_rs1_rs2_edges_rs1val_0x55555555_rs2val_0xfffffffe>:
I_sltu_cg_cr_rs1_rs2_edges_rs1val_0x55555555_rs2val_0xfffffffe:
  sltu x23, x8, x20 # perform operation
    2d6c:	01443bb3          	sltu	x23,x8,x20
  # Check if x23 contains the expected result. x6 is the signature ptr, x5 is the link ptr, x4 is a temp reg.
  RVTEST_SIGUPD(x6, x5, x4, x23, I_sltu_cg_cr_rs1_rs2_edges_rs1val_0x55555555_rs2val_0xfffffffe, I_sltu_cg_cr_rs1_rs2_edges_rs1val_0x55555555_rs2val_0xfffffffe_str)
    2d70:	00032203          	lw	x4,0(x6)
    2d74:	01720863          	beq	x4,x23,2d84 <I_sltu_cg_cr_rs1_rs2_edges_rs1val_0x55555555_rs2val_0xfffffffe+0x18>
    2d78:	784012ef          	jal	x5,44fc <failedtest_x5_x4>
    2d7c:	00002d6c          	.word	0x00002d6c
    2d80:	0000d504          	.word	0x0000d504
    2d84:	00430313          	addi	x6,x6,4

# Testcase cr_rs1_rs2_edges (Test source rs1 = 0x55555555 rs2 = 0x5bbc8872)
  RVTEST_TESTDATA_LOAD_INT(x11, x2) # load rs1: x2 = 0x55555555
    2d88:	0005a103          	lw	x2,0(x11)
    2d8c:	00458593          	addi	x11,x11,4
  RVTEST_TESTDATA_LOAD_INT(x11, x21) # load rs2: x21 = 0x5bbc8872
    2d90:	0005aa83          	lw	x21,0(x11)
    2d94:	00458593          	addi	x11,x11,4

00002d98 <I_sltu_cg_cr_rs1_rs2_edges_rs1val_0x55555555_rs2val_0x5bbc8872>:
I_sltu_cg_cr_rs1_rs2_edges_rs1val_0x55555555_rs2val_0x5bbc8872:
  sltu x10, x2, x21 # perform operation
    2d98:	01513533          	sltu	x10,x2,x21
  # Check if x10 contains the expected result. x6 is the signature ptr, x5 is the link ptr, x4 is a temp reg.
  RVTEST_SIGUPD(x6, x5, x4, x10, I_sltu_cg_cr_rs1_rs2_edges_rs1val_0x55555555_rs2val_0x5bbc8872, I_sltu_cg_cr_rs1_rs2_edges_rs1val_0x55555555_rs2val_0x5bbc8872_str)
    2d9c:	00032203          	lw	x4,0(x6)
    2da0:	00a20863          	beq	x4,x10,2db0 <I_sltu_cg_cr_rs1_rs2_edges_rs1val_0x55555555_rs2val_0x5bbc8872+0x18>
    2da4:	758012ef          	jal	x5,44fc <failedtest_x5_x4>
    2da8:	00002d98          	.word	0x00002d98
    2dac:	0000d560          	.word	0x0000d560
    2db0:	00430313          	addi	x6,x6,4

# Testcase cr_rs1_rs2_edges (Test source rs1 = 0x55555555 rs2 = 0xaaaaaaaa)
  RVTEST_TESTDATA_LOAD_INT(x11, x9) # load rs1: x9 = 0x55555555
    2db4:	0005a483          	lw	x9,0(x11)
    2db8:	00458593          	addi	x11,x11,4
  RVTEST_TESTDATA_LOAD_INT(x11, x14) # load rs2: x14 = 0xaaaaaaaa
    2dbc:	0005a703          	lw	x14,0(x11)
    2dc0:	00458593          	addi	x11,x11,4

00002dc4 <I_sltu_cg_cr_rs1_rs2_edges_rs1val_0x55555555_rs2val_0xaaaaaaaa>:
I_sltu_cg_cr_rs1_rs2_edges_rs1val_0x55555555_rs2val_0xaaaaaaaa:
  sltu x28, x9, x14 # perform operation
    2dc4:	00e4be33          	sltu	x28,x9,x14
  # Check if x28 contains the expected result. x6 is the signature ptr, x5 is the link ptr, x4 is a temp reg.
  RVTEST_SIGUPD(x6, x5, x4, x28, I_sltu_cg_cr_rs1_rs2_edges_rs1val_0x55555555_rs2val_0xaaaaaaaa, I_sltu_cg_cr_rs1_rs2_edges_rs1val_0x55555555_rs2val_0xaaaaaaaa_str)
    2dc8:	00032203          	lw	x4,0(x6)
    2dcc:	01c20863          	beq	x4,x28,2ddc <I_sltu_cg_cr_rs1_rs2_edges_rs1val_0x55555555_rs2val_0xaaaaaaaa+0x18>
    2dd0:	72c012ef          	jal	x5,44fc <failedtest_x5_x4>
    2dd4:	00002dc4          	.word	0x00002dc4
    2dd8:	0000d5bc          	.word	0x0000d5bc
    2ddc:	00430313          	addi	x6,x6,4

# Testcase cr_rs1_rs2_edges (Test source rs1 = 0x55555555 rs2 = 0x55555555)
  RVTEST_TESTDATA_LOAD_INT(x11, x31) # load rs1: x31 = 0x55555555
    2de0:	0005af83          	lw	x31,0(x11)
    2de4:	00458593          	addi	x11,x11,4
  RVTEST_TESTDATA_LOAD_INT(x11, x17) # load rs2: x17 = 0x55555555
    2de8:	0005a883          	lw	x17,0(x11)
    2dec:	00458593          	addi	x11,x11,4

00002df0 <I_sltu_cg_cr_rs1_rs2_edges_rs1val_0x55555555_rs2val_0x55555555>:
I_sltu_cg_cr_rs1_rs2_edges_rs1val_0x55555555_rs2val_0x55555555:
  sltu x14, x31, x17 # perform operation
    2df0:	011fb733          	sltu	x14,x31,x17
  # Check if x14 contains the expected result. x6 is the signature ptr, x5 is the link ptr, x4 is a temp reg.
  RVTEST_SIGUPD(x6, x5, x4, x14, I_sltu_cg_cr_rs1_rs2_edges_rs1val_0x55555555_rs2val_0x55555555, I_sltu_cg_cr_rs1_rs2_edges_rs1val_0x55555555_rs2val_0x55555555_str)
    2df4:	00032203          	lw	x4,0(x6)
    2df8:	00e20863          	beq	x4,x14,2e08 <I_sltu_cg_cr_rs1_rs2_edges_rs1val_0x55555555_rs2val_0x55555555+0x18>
    2dfc:	700012ef          	jal	x5,44fc <failedtest_x5_x4>
    2e00:	00002df0          	.word	0x00002df0
    2e04:	0000d618          	.word	0x0000d618
    2e08:	00430313          	addi	x6,x6,4
/////////////////////////////////
// cmp_rs1_rs2
/////////////////////////////////

# Testcase cmp_rs1_rs2 (Test rs1 = rs2 = x0)
  RVTEST_TESTDATA_LOAD_INT(x11, x0) # load rs1: x0 = 0x860ecf9c
    2e0c:	0005a003          	lw	x0,0(x11)
    2e10:	00458593          	addi	x11,x11,4
  RVTEST_TESTDATA_LOAD_INT(x11, x0) # load rs2: x0 = 0xa6c308d9
    2e14:	0005a003          	lw	x0,0(x11)
    2e18:	00458593          	addi	x11,x11,4

00002e1c <I_sltu_cg_cmp_rs1_rs2_b0>:
I_sltu_cg_cmp_rs1_rs2_b0:
  sltu x10, x0, x0 # perform operation
    2e1c:	00003533          	sltu	x10,x0,x0
  # Check if x10 contains the expected result. x6 is the signature ptr, x5 is the link ptr, x4 is a temp reg.
  RVTEST_SIGUPD(x6, x5, x4, x10, I_sltu_cg_cmp_rs1_rs2_b0, I_sltu_cg_cmp_rs1_rs2_b0_str)
    2e20:	00032203          	lw	x4,0(x6)
    2e24:	00a20863          	beq	x4,x10,2e34 <I_sltu_cg_cmp_rs1_rs2_b0+0x18>
    2e28:	6d4012ef          	jal	x5,44fc <failedtest_x5_x4>
    2e2c:	00002e1c          	.word	0x00002e1c
    2e30:	0000d674          	.word	0x0000d674
    2e34:	00430313          	addi	x6,x6,4

# Testcase cmp_rs1_rs2 (Test rs1 = rs2 = x1)
  RVTEST_TESTDATA_LOAD_INT(x11, x1) # load rs1: x1 = 0x9ec5b159
    2e38:	0005a083          	lw	x1,0(x11)
    2e3c:	00458593          	addi	x11,x11,4
  RVTEST_TESTDATA_LOAD_INT(x11, x1) # load rs2: x1 = 0x7844819b
    2e40:	0005a083          	lw	x1,0(x11)
    2e44:	00458593          	addi	x11,x11,4

00002e48 <I_sltu_cg_cmp_rs1_rs2_b1>:
I_sltu_cg_cmp_rs1_rs2_b1:
  sltu x19, x1, x1 # perform operation
    2e48:	0010b9b3          	sltu	x19,x1,x1
  # Check if x19 contains the expected result. x6 is the signature ptr, x5 is the link ptr, x4 is a temp reg.
  RVTEST_SIGUPD(x6, x5, x4, x19, I_sltu_cg_cmp_rs1_rs2_b1, I_sltu_cg_cmp_rs1_rs2_b1_str)
    2e4c:	00032203          	lw	x4,0(x6)
    2e50:	01320863          	beq	x4,x19,2e60 <I_sltu_cg_cmp_rs1_rs2_b1+0x18>
    2e54:	6a8012ef          	jal	x5,44fc <failedtest_x5_x4>
    2e58:	00002e48          	.word	0x00002e48
    2e5c:	0000d6a9          	.word	0x0000d6a9
    2e60:	00430313          	addi	x6,x6,4

# Testcase cmp_rs1_rs2 (Test rs1 = rs2 = x2)
  RVTEST_TESTDATA_LOAD_INT(x11, x2) # load rs1: x2 = 0x95352939
    2e64:	0005a103          	lw	x2,0(x11)
    2e68:	00458593          	addi	x11,x11,4
  RVTEST_TESTDATA_LOAD_INT(x11, x2) # load rs2: x2 = 0x9ad19626
    2e6c:	0005a103          	lw	x2,0(x11)
    2e70:	00458593          	addi	x11,x11,4

00002e74 <I_sltu_cg_cmp_rs1_rs2_b2>:
I_sltu_cg_cmp_rs1_rs2_b2:
  sltu x8, x2, x2 # perform operation
    2e74:	00213433          	sltu	x8,x2,x2
  # Check if x8 contains the expected result. x6 is the signature ptr, x5 is the link ptr, x4 is a temp reg.
  RVTEST_SIGUPD(x6, x5, x4, x8, I_sltu_cg_cmp_rs1_rs2_b2, I_sltu_cg_cmp_rs1_rs2_b2_str)
    2e78:	00032203          	lw	x4,0(x6)
    2e7c:	00820863          	beq	x4,x8,2e8c <I_sltu_cg_cmp_rs1_rs2_b2+0x18>
    2e80:	67c012ef          	jal	x5,44fc <failedtest_x5_x4>
    2e84:	00002e74          	.word	0x00002e74
    2e88:	0000d6de          	.word	0x0000d6de
    2e8c:	00430313          	addi	x6,x6,4

# Testcase cmp_rs1_rs2 (Test rs1 = rs2 = x3)
  RVTEST_TESTDATA_LOAD_INT(x11, x3) # load rs1: x3 = 0x9db25a93
    2e90:	0005a183          	lw	x3,0(x11)
    2e94:	00458593          	addi	x11,x11,4
  RVTEST_TESTDATA_LOAD_INT(x11, x3) # load rs2: x3 = 0x82d4fde7
    2e98:	0005a183          	lw	x3,0(x11)
    2e9c:	00458593          	addi	x11,x11,4

00002ea0 <I_sltu_cg_cmp_rs1_rs2_b3>:
I_sltu_cg_cmp_rs1_rs2_b3:
  sltu x18, x3, x3 # perform operation
    2ea0:	0031b933          	sltu	x18,x3,x3
  # Check if x18 contains the expected result. x6 is the signature ptr, x5 is the link ptr, x4 is a temp reg.
  RVTEST_SIGUPD(x6, x5, x4, x18, I_sltu_cg_cmp_rs1_rs2_b3, I_sltu_cg_cmp_rs1_rs2_b3_str)
    2ea4:	00032203          	lw	x4,0(x6)
    2ea8:	01220863          	beq	x4,x18,2eb8 <I_sltu_cg_cmp_rs1_rs2_b3+0x18>
    2eac:	650012ef          	jal	x5,44fc <failedtest_x5_x4>
    2eb0:	00002ea0          	.word	0x00002ea0
    2eb4:	0000d713          	.word	0x0000d713
    2eb8:	00430313          	addi	x6,x6,4

  mv x7, x4 # switch temp register to avoid conflict with test
    2ebc:	00020393          	addi	x7,x4,0 # 0 <rvtest_entry_point>
  mv x8, x5 # switch link pointer register to avoid conflict with test
    2ec0:	00028413          	addi	x8,x5,0
# Testcase cmp_rs1_rs2 (Test rs1 = rs2 = x4)
  RVTEST_TESTDATA_LOAD_INT(x11, x4) # load rs1: x4 = 0x01254c71
    2ec4:	0005a203          	lw	x4,0(x11)
    2ec8:	00458593          	addi	x11,x11,4
  RVTEST_TESTDATA_LOAD_INT(x11, x4) # load rs2: x4 = 0xd37212f9
    2ecc:	0005a203          	lw	x4,0(x11)
    2ed0:	00458593          	addi	x11,x11,4

00002ed4 <I_sltu_cg_cmp_rs1_rs2_b4>:
I_sltu_cg_cmp_rs1_rs2_b4:
  sltu x31, x4, x4 # perform operation
    2ed4:	00423fb3          	sltu	x31,x4,x4
  # Check if x31 contains the expected result. x6 is the signature ptr, x8 is the link ptr, x7 is a temp reg.
  RVTEST_SIGUPD(x6, x8, x7, x31, I_sltu_cg_cmp_rs1_rs2_b4, I_sltu_cg_cmp_rs1_rs2_b4_str)
    2ed8:	00032383          	lw	x7,0(x6)
    2edc:	01f38863          	beq	x7,x31,2eec <I_sltu_cg_cmp_rs1_rs2_b4+0x18>
    2ee0:	6340146f          	jal	x8,4514 <failedtest_x8_x7>
    2ee4:	00002ed4          	.word	0x00002ed4
    2ee8:	0000d748          	.word	0x0000d748
    2eec:	00430313          	addi	x6,x6,4

# Testcase cmp_rs1_rs2 (Test rs1 = rs2 = x5)
  RVTEST_TESTDATA_LOAD_INT(x11, x5) # load rs1: x5 = 0xb0dc4b69
    2ef0:	0005a283          	lw	x5,0(x11)
    2ef4:	00458593          	addi	x11,x11,4
  RVTEST_TESTDATA_LOAD_INT(x11, x5) # load rs2: x5 = 0x563ed543
    2ef8:	0005a283          	lw	x5,0(x11)
    2efc:	00458593          	addi	x11,x11,4

00002f00 <I_sltu_cg_cmp_rs1_rs2_b5>:
I_sltu_cg_cmp_rs1_rs2_b5:
  sltu x31, x5, x5 # perform operation
    2f00:	0052bfb3          	sltu	x31,x5,x5
  # Check if x31 contains the expected result. x6 is the signature ptr, x8 is the link ptr, x7 is a temp reg.
  RVTEST_SIGUPD(x6, x8, x7, x31, I_sltu_cg_cmp_rs1_rs2_b5, I_sltu_cg_cmp_rs1_rs2_b5_str)
    2f04:	00032383          	lw	x7,0(x6)
    2f08:	01f38863          	beq	x7,x31,2f18 <I_sltu_cg_cmp_rs1_rs2_b5+0x18>
    2f0c:	6080146f          	jal	x8,4514 <failedtest_x8_x7>
    2f10:	00002f00          	.word	0x00002f00
    2f14:	0000d77d          	.word	0x0000d77d
    2f18:	00430313          	addi	x6,x6,4

  mv x19, x6 # switch signature pointer register to avoid conflict with test
    2f1c:	00030993          	addi	x19,x6,0
# Testcase cmp_rs1_rs2 (Test rs1 = rs2 = x6)
  RVTEST_TESTDATA_LOAD_INT(x11, x6) # load rs1: x6 = 0x4cea2d50
    2f20:	0005a303          	lw	x6,0(x11)
    2f24:	00458593          	addi	x11,x11,4
  RVTEST_TESTDATA_LOAD_INT(x11, x6) # load rs2: x6 = 0x0111da53
    2f28:	0005a303          	lw	x6,0(x11)
    2f2c:	00458593          	addi	x11,x11,4

00002f30 <I_sltu_cg_cmp_rs1_rs2_b6>:
I_sltu_cg_cmp_rs1_rs2_b6:
  sltu x27, x6, x6 # perform operation
    2f30:	00633db3          	sltu	x27,x6,x6
  # Check if x27 contains the expected result. x19 is the signature ptr, x8 is the link ptr, x7 is a temp reg.
  RVTEST_SIGUPD(x19, x8, x7, x27, I_sltu_cg_cmp_rs1_rs2_b6, I_sltu_cg_cmp_rs1_rs2_b6_str)
    2f34:	0009a383          	lw	x7,0(x19)
    2f38:	01b38863          	beq	x7,x27,2f48 <I_sltu_cg_cmp_rs1_rs2_b6+0x18>
    2f3c:	5d80146f          	jal	x8,4514 <failedtest_x8_x7>
    2f40:	00002f30          	.word	0x00002f30
    2f44:	0000d7b2          	.word	0x0000d7b2
    2f48:	00498993          	addi	x19,x19,4

  mv x13, x7 # switch temp register to avoid conflict with test
    2f4c:	00038693          	addi	x13,x7,0
  mv x14, x8 # switch link pointer register to avoid conflict with test
    2f50:	00040713          	addi	x14,x8,0
# Testcase cmp_rs1_rs2 (Test rs1 = rs2 = x7)
  RVTEST_TESTDATA_LOAD_INT(x11, x7) # load rs1: x7 = 0x18b333b8
    2f54:	0005a383          	lw	x7,0(x11)
    2f58:	00458593          	addi	x11,x11,4
  RVTEST_TESTDATA_LOAD_INT(x11, x7) # load rs2: x7 = 0x942a4dd8
    2f5c:	0005a383          	lw	x7,0(x11)
    2f60:	00458593          	addi	x11,x11,4

00002f64 <I_sltu_cg_cmp_rs1_rs2_b7>:
I_sltu_cg_cmp_rs1_rs2_b7:
  sltu x12, x7, x7 # perform operation
    2f64:	0073b633          	sltu	x12,x7,x7
  # Check if x12 contains the expected result. x19 is the signature ptr, x14 is the link ptr, x13 is a temp reg.
  RVTEST_SIGUPD(x19, x14, x13, x12, I_sltu_cg_cmp_rs1_rs2_b7, I_sltu_cg_cmp_rs1_rs2_b7_str)
    2f68:	0009a683          	lw	x13,0(x19)
    2f6c:	00c68863          	beq	x13,x12,2f7c <I_sltu_cg_cmp_rs1_rs2_b7+0x18>
    2f70:	5cc0176f          	jal	x14,453c <failedtest_x14_x13>
    2f74:	00002f64          	.word	0x00002f64
    2f78:	0000d7e7          	.word	0x0000d7e7
    2f7c:	00498993          	addi	x19,x19,4

# Testcase cmp_rs1_rs2 (Test rs1 = rs2 = x8)
  RVTEST_TESTDATA_LOAD_INT(x11, x8) # load rs1: x8 = 0x82830e8a
    2f80:	0005a403          	lw	x8,0(x11)
    2f84:	00458593          	addi	x11,x11,4
  RVTEST_TESTDATA_LOAD_INT(x11, x8) # load rs2: x8 = 0x4f26921a
    2f88:	0005a403          	lw	x8,0(x11)
    2f8c:	00458593          	addi	x11,x11,4

00002f90 <I_sltu_cg_cmp_rs1_rs2_b8>:
I_sltu_cg_cmp_rs1_rs2_b8:
  sltu x15, x8, x8 # perform operation
    2f90:	008437b3          	sltu	x15,x8,x8
  # Check if x15 contains the expected result. x19 is the signature ptr, x14 is the link ptr, x13 is a temp reg.
  RVTEST_SIGUPD(x19, x14, x13, x15, I_sltu_cg_cmp_rs1_rs2_b8, I_sltu_cg_cmp_rs1_rs2_b8_str)
    2f94:	0009a683          	lw	x13,0(x19)
    2f98:	00f68863          	beq	x13,x15,2fa8 <I_sltu_cg_cmp_rs1_rs2_b8+0x18>
    2f9c:	5a00176f          	jal	x14,453c <failedtest_x14_x13>
    2fa0:	00002f90          	.word	0x00002f90
    2fa4:	0000d81c          	.word	0x0000d81c
    2fa8:	00498993          	addi	x19,x19,4

# Testcase cmp_rs1_rs2 (Test rs1 = rs2 = x9)
  RVTEST_TESTDATA_LOAD_INT(x11, x9) # load rs1: x9 = 0x00567768
    2fac:	0005a483          	lw	x9,0(x11)
    2fb0:	00458593          	addi	x11,x11,4
  RVTEST_TESTDATA_LOAD_INT(x11, x9) # load rs2: x9 = 0x9382d6b5
    2fb4:	0005a483          	lw	x9,0(x11)
    2fb8:	00458593          	addi	x11,x11,4

00002fbc <I_sltu_cg_cmp_rs1_rs2_b9>:
I_sltu_cg_cmp_rs1_rs2_b9:
  sltu x10, x9, x9 # perform operation
    2fbc:	0094b533          	sltu	x10,x9,x9
  # Check if x10 contains the expected result. x19 is the signature ptr, x14 is the link ptr, x13 is a temp reg.
  RVTEST_SIGUPD(x19, x14, x13, x10, I_sltu_cg_cmp_rs1_rs2_b9, I_sltu_cg_cmp_rs1_rs2_b9_str)
    2fc0:	0009a683          	lw	x13,0(x19)
    2fc4:	00a68863          	beq	x13,x10,2fd4 <I_sltu_cg_cmp_rs1_rs2_b9+0x18>
    2fc8:	5740176f          	jal	x14,453c <failedtest_x14_x13>
    2fcc:	00002fbc          	.word	0x00002fbc
    2fd0:	0000d851          	.word	0x0000d851
    2fd4:	00498993          	addi	x19,x19,4

# Testcase cmp_rs1_rs2 (Test rs1 = rs2 = x10)
  RVTEST_TESTDATA_LOAD_INT(x11, x10) # load rs1: x10 = 0xc0c119a0
    2fd8:	0005a503          	lw	x10,0(x11)
    2fdc:	00458593          	addi	x11,x11,4
  RVTEST_TESTDATA_LOAD_INT(x11, x10) # load rs2: x10 = 0x74dc3b53
    2fe0:	0005a503          	lw	x10,0(x11)
    2fe4:	00458593          	addi	x11,x11,4

00002fe8 <I_sltu_cg_cmp_rs1_rs2_b10>:
I_sltu_cg_cmp_rs1_rs2_b10:
  sltu x21, x10, x10 # perform operation
    2fe8:	00a53ab3          	sltu	x21,x10,x10
  # Check if x21 contains the expected result. x19 is the signature ptr, x14 is the link ptr, x13 is a temp reg.
  RVTEST_SIGUPD(x19, x14, x13, x21, I_sltu_cg_cmp_rs1_rs2_b10, I_sltu_cg_cmp_rs1_rs2_b10_str)
    2fec:	0009a683          	lw	x13,0(x19)
    2ff0:	01568863          	beq	x13,x21,3000 <I_sltu_cg_cmp_rs1_rs2_b10+0x18>
    2ff4:	5480176f          	jal	x14,453c <failedtest_x14_x13>
    2ff8:	00002fe8          	.word	0x00002fe8
    2ffc:	0000d886          	.word	0x0000d886
    3000:	00498993          	addi	x19,x19,4

  mv x30, x11 # switch data pointer register to avoid conflict with test
    3004:	00058f13          	addi	x30,x11,0
# Testcase cmp_rs1_rs2 (Test rs1 = rs2 = x11)
  RVTEST_TESTDATA_LOAD_INT(x30, x11) # load rs1: x11 = 0x0d1d21c3
    3008:	000f2583          	lw	x11,0(x30)
    300c:	004f0f13          	addi	x30,x30,4
  RVTEST_TESTDATA_LOAD_INT(x30, x11) # load rs2: x11 = 0x42a52cc8
    3010:	000f2583          	lw	x11,0(x30)
    3014:	004f0f13          	addi	x30,x30,4

00003018 <I_sltu_cg_cmp_rs1_rs2_b11>:
I_sltu_cg_cmp_rs1_rs2_b11:
  sltu x23, x11, x11 # perform operation
    3018:	00b5bbb3          	sltu	x23,x11,x11
  # Check if x23 contains the expected result. x19 is the signature ptr, x14 is the link ptr, x13 is a temp reg.
  RVTEST_SIGUPD(x19, x14, x13, x23, I_sltu_cg_cmp_rs1_rs2_b11, I_sltu_cg_cmp_rs1_rs2_b11_str)
    301c:	0009a683          	lw	x13,0(x19)
    3020:	01768863          	beq	x13,x23,3030 <I_sltu_cg_cmp_rs1_rs2_b11+0x18>
    3024:	5180176f          	jal	x14,453c <failedtest_x14_x13>
    3028:	00003018          	.word	0x00003018
    302c:	0000d8bc          	.word	0x0000d8bc
    3030:	00498993          	addi	x19,x19,4

# Testcase cmp_rs1_rs2 (Test rs1 = rs2 = x12)
  RVTEST_TESTDATA_LOAD_INT(x30, x12) # load rs1: x12 = 0x98386f13
    3034:	000f2603          	lw	x12,0(x30)
    3038:	004f0f13          	addi	x30,x30,4
  RVTEST_TESTDATA_LOAD_INT(x30, x12) # load rs2: x12 = 0xf583f026
    303c:	000f2603          	lw	x12,0(x30)
    3040:	004f0f13          	addi	x30,x30,4

00003044 <I_sltu_cg_cmp_rs1_rs2_b12>:
I_sltu_cg_cmp_rs1_rs2_b12:
  sltu x3, x12, x12 # perform operation
    3044:	00c631b3          	sltu	x3,x12,x12
  # Check if x3 contains the expected result. x19 is the signature ptr, x14 is the link ptr, x13 is a temp reg.
  RVTEST_SIGUPD(x19, x14, x13, x3, I_sltu_cg_cmp_rs1_rs2_b12, I_sltu_cg_cmp_rs1_rs2_b12_str)
    3048:	0009a683          	lw	x13,0(x19)
    304c:	00368863          	beq	x13,x3,305c <I_sltu_cg_cmp_rs1_rs2_b12+0x18>
    3050:	4ec0176f          	jal	x14,453c <failedtest_x14_x13>
    3054:	00003044          	.word	0x00003044
    3058:	0000d8f2          	.word	0x0000d8f2
    305c:	00498993          	addi	x19,x19,4

  mv x4, x13 # switch temp register to avoid conflict with test
    3060:	00068213          	addi	x4,x13,0
  mv x5, x14 # switch link pointer register to avoid conflict with test
    3064:	00070293          	addi	x5,x14,0
# Testcase cmp_rs1_rs2 (Test rs1 = rs2 = x13)
  RVTEST_TESTDATA_LOAD_INT(x30, x13) # load rs1: x13 = 0x129b9853
    3068:	000f2683          	lw	x13,0(x30)
    306c:	004f0f13          	addi	x30,x30,4
  RVTEST_TESTDATA_LOAD_INT(x30, x13) # load rs2: x13 = 0x47f4f707
    3070:	000f2683          	lw	x13,0(x30)
    3074:	004f0f13          	addi	x30,x30,4

00003078 <I_sltu_cg_cmp_rs1_rs2_b13>:
I_sltu_cg_cmp_rs1_rs2_b13:
  sltu x23, x13, x13 # perform operation
    3078:	00d6bbb3          	sltu	x23,x13,x13
  # Check if x23 contains the expected result. x19 is the signature ptr, x5 is the link ptr, x4 is a temp reg.
  RVTEST_SIGUPD(x19, x5, x4, x23, I_sltu_cg_cmp_rs1_rs2_b13, I_sltu_cg_cmp_rs1_rs2_b13_str)
    307c:	0009a203          	lw	x4,0(x19)
    3080:	01720863          	beq	x4,x23,3090 <I_sltu_cg_cmp_rs1_rs2_b13+0x18>
    3084:	478012ef          	jal	x5,44fc <failedtest_x5_x4>
    3088:	00003078          	.word	0x00003078
    308c:	0000d928          	.word	0x0000d928
    3090:	00498993          	addi	x19,x19,4

# Testcase cmp_rs1_rs2 (Test rs1 = rs2 = x14)
  RVTEST_TESTDATA_LOAD_INT(x30, x14) # load rs1: x14 = 0xe5c2fe41
    3094:	000f2703          	lw	x14,0(x30)
    3098:	004f0f13          	addi	x30,x30,4
  RVTEST_TESTDATA_LOAD_INT(x30, x14) # load rs2: x14 = 0xf9894e2a
    309c:	000f2703          	lw	x14,0(x30)
    30a0:	004f0f13          	addi	x30,x30,4

000030a4 <I_sltu_cg_cmp_rs1_rs2_b14>:
I_sltu_cg_cmp_rs1_rs2_b14:
  sltu x27, x14, x14 # perform operation
    30a4:	00e73db3          	sltu	x27,x14,x14
  # Check if x27 contains the expected result. x19 is the signature ptr, x5 is the link ptr, x4 is a temp reg.
  RVTEST_SIGUPD(x19, x5, x4, x27, I_sltu_cg_cmp_rs1_rs2_b14, I_sltu_cg_cmp_rs1_rs2_b14_str)
    30a8:	0009a203          	lw	x4,0(x19)
    30ac:	01b20863          	beq	x4,x27,30bc <I_sltu_cg_cmp_rs1_rs2_b14+0x18>
    30b0:	44c012ef          	jal	x5,44fc <failedtest_x5_x4>
    30b4:	000030a4          	.word	0x000030a4
    30b8:	0000d95e          	.word	0x0000d95e
    30bc:	00498993          	addi	x19,x19,4

# Testcase cmp_rs1_rs2 (Test rs1 = rs2 = x15)
  RVTEST_TESTDATA_LOAD_INT(x30, x15) # load rs1: x15 = 0xdea60e48
    30c0:	000f2783          	lw	x15,0(x30)
    30c4:	004f0f13          	addi	x30,x30,4
  RVTEST_TESTDATA_LOAD_INT(x30, x15) # load rs2: x15 = 0x5ffe2038
    30c8:	000f2783          	lw	x15,0(x30)
    30cc:	004f0f13          	addi	x30,x30,4

000030d0 <I_sltu_cg_cmp_rs1_rs2_b15>:
I_sltu_cg_cmp_rs1_rs2_b15:
  sltu x2, x15, x15 # perform operation
    30d0:	00f7b133          	sltu	x2,x15,x15
  # Check if x2 contains the expected result. x19 is the signature ptr, x5 is the link ptr, x4 is a temp reg.
  RVTEST_SIGUPD(x19, x5, x4, x2, I_sltu_cg_cmp_rs1_rs2_b15, I_sltu_cg_cmp_rs1_rs2_b15_str)
    30d4:	0009a203          	lw	x4,0(x19)
    30d8:	00220863          	beq	x4,x2,30e8 <I_sltu_cg_cmp_rs1_rs2_b15+0x18>
    30dc:	420012ef          	jal	x5,44fc <failedtest_x5_x4>
    30e0:	000030d0          	.word	0x000030d0
    30e4:	0000d994          	.word	0x0000d994
    30e8:	00498993          	addi	x19,x19,4

# Testcase cmp_rs1_rs2 (Test rs1 = rs2 = x16)
  RVTEST_TESTDATA_LOAD_INT(x30, x16) # load rs1: x16 = 0xac006696
    30ec:	000f2803          	lw	x16,0(x30)
    30f0:	004f0f13          	addi	x30,x30,4
  RVTEST_TESTDATA_LOAD_INT(x30, x16) # load rs2: x16 = 0x73a56ea6
    30f4:	000f2803          	lw	x16,0(x30)
    30f8:	004f0f13          	addi	x30,x30,4

000030fc <I_sltu_cg_cmp_rs1_rs2_b16>:
I_sltu_cg_cmp_rs1_rs2_b16:
  sltu x29, x16, x16 # perform operation
    30fc:	01083eb3          	sltu	x29,x16,x16
  # Check if x29 contains the expected result. x19 is the signature ptr, x5 is the link ptr, x4 is a temp reg.
  RVTEST_SIGUPD(x19, x5, x4, x29, I_sltu_cg_cmp_rs1_rs2_b16, I_sltu_cg_cmp_rs1_rs2_b16_str)
    3100:	0009a203          	lw	x4,0(x19)
    3104:	01d20863          	beq	x4,x29,3114 <I_sltu_cg_cmp_rs1_rs2_b16+0x18>
    3108:	3f4012ef          	jal	x5,44fc <failedtest_x5_x4>
    310c:	000030fc          	.word	0x000030fc
    3110:	0000d9ca          	.word	0x0000d9ca
    3114:	00498993          	addi	x19,x19,4

# Testcase cmp_rs1_rs2 (Test rs1 = rs2 = x17)
  RVTEST_TESTDATA_LOAD_INT(x30, x17) # load rs1: x17 = 0x1e4727e3
    3118:	000f2883          	lw	x17,0(x30)
    311c:	004f0f13          	addi	x30,x30,4
  RVTEST_TESTDATA_LOAD_INT(x30, x17) # load rs2: x17 = 0xd617d180
    3120:	000f2883          	lw	x17,0(x30)
    3124:	004f0f13          	addi	x30,x30,4

00003128 <I_sltu_cg_cmp_rs1_rs2_b17>:
I_sltu_cg_cmp_rs1_rs2_b17:
  sltu x23, x17, x17 # perform operation
    3128:	0118bbb3          	sltu	x23,x17,x17
  # Check if x23 contains the expected result. x19 is the signature ptr, x5 is the link ptr, x4 is a temp reg.
  RVTEST_SIGUPD(x19, x5, x4, x23, I_sltu_cg_cmp_rs1_rs2_b17, I_sltu_cg_cmp_rs1_rs2_b17_str)
    312c:	0009a203          	lw	x4,0(x19)
    3130:	01720863          	beq	x4,x23,3140 <I_sltu_cg_cmp_rs1_rs2_b17+0x18>
    3134:	3c8012ef          	jal	x5,44fc <failedtest_x5_x4>
    3138:	00003128          	.word	0x00003128
    313c:	0000da00          	.word	0x0000da00
    3140:	00498993          	addi	x19,x19,4

# Testcase cmp_rs1_rs2 (Test rs1 = rs2 = x18)
  RVTEST_TESTDATA_LOAD_INT(x30, x18) # load rs1: x18 = 0x37256b30
    3144:	000f2903          	lw	x18,0(x30)
    3148:	004f0f13          	addi	x30,x30,4
  RVTEST_TESTDATA_LOAD_INT(x30, x18) # load rs2: x18 = 0xd69610af
    314c:	000f2903          	lw	x18,0(x30)
    3150:	004f0f13          	addi	x30,x30,4

00003154 <I_sltu_cg_cmp_rs1_rs2_b18>:
I_sltu_cg_cmp_rs1_rs2_b18:
  sltu x25, x18, x18 # perform operation
    3154:	01293cb3          	sltu	x25,x18,x18
  # Check if x25 contains the expected result. x19 is the signature ptr, x5 is the link ptr, x4 is a temp reg.
  RVTEST_SIGUPD(x19, x5, x4, x25, I_sltu_cg_cmp_rs1_rs2_b18, I_sltu_cg_cmp_rs1_rs2_b18_str)
    3158:	0009a203          	lw	x4,0(x19)
    315c:	01920863          	beq	x4,x25,316c <I_sltu_cg_cmp_rs1_rs2_b18+0x18>
    3160:	39c012ef          	jal	x5,44fc <failedtest_x5_x4>
    3164:	00003154          	.word	0x00003154
    3168:	0000da36          	.word	0x0000da36
    316c:	00498993          	addi	x19,x19,4

  mv x29, x19 # switch signature pointer register to avoid conflict with test
    3170:	00098e93          	addi	x29,x19,0
# Testcase cmp_rs1_rs2 (Test rs1 = rs2 = x19)
  RVTEST_TESTDATA_LOAD_INT(x30, x19) # load rs1: x19 = 0xf669932a
    3174:	000f2983          	lw	x19,0(x30)
    3178:	004f0f13          	addi	x30,x30,4
  RVTEST_TESTDATA_LOAD_INT(x30, x19) # load rs2: x19 = 0xcc8e6c61
    317c:	000f2983          	lw	x19,0(x30)
    3180:	004f0f13          	addi	x30,x30,4

00003184 <I_sltu_cg_cmp_rs1_rs2_b19>:
I_sltu_cg_cmp_rs1_rs2_b19:
  sltu x14, x19, x19 # perform operation
    3184:	0139b733          	sltu	x14,x19,x19
  # Check if x14 contains the expected result. x29 is the signature ptr, x5 is the link ptr, x4 is a temp reg.
  RVTEST_SIGUPD(x29, x5, x4, x14, I_sltu_cg_cmp_rs1_rs2_b19, I_sltu_cg_cmp_rs1_rs2_b19_str)
    3188:	000ea203          	lw	x4,0(x29)
    318c:	00e20863          	beq	x4,x14,319c <I_sltu_cg_cmp_rs1_rs2_b19+0x18>
    3190:	36c012ef          	jal	x5,44fc <failedtest_x5_x4>
    3194:	00003184          	.word	0x00003184
    3198:	0000da6c          	.word	0x0000da6c
    319c:	004e8e93          	addi	x29,x29,4

# Testcase cmp_rs1_rs2 (Test rs1 = rs2 = x20)
  RVTEST_TESTDATA_LOAD_INT(x30, x20) # load rs1: x20 = 0x9af179e0
    31a0:	000f2a03          	lw	x20,0(x30)
    31a4:	004f0f13          	addi	x30,x30,4
  RVTEST_TESTDATA_LOAD_INT(x30, x20) # load rs2: x20 = 0x33ba3aab
    31a8:	000f2a03          	lw	x20,0(x30)
    31ac:	004f0f13          	addi	x30,x30,4

000031b0 <I_sltu_cg_cmp_rs1_rs2_b20>:
I_sltu_cg_cmp_rs1_rs2_b20:
  sltu x0, x20, x20 # perform operation
    31b0:	014a3033          	sltu	x0,x20,x20
  # Check if x0 contains the expected result. x29 is the signature ptr, x5 is the link ptr, x4 is a temp reg.
  RVTEST_SIGUPD(x29, x5, x4, x0, I_sltu_cg_cmp_rs1_rs2_b20, I_sltu_cg_cmp_rs1_rs2_b20_str)
    31b4:	000ea203          	lw	x4,0(x29)
    31b8:	00020863          	beq	x4,x0,31c8 <I_sltu_cg_cmp_rs1_rs2_b20+0x18>
    31bc:	340012ef          	jal	x5,44fc <failedtest_x5_x4>
    31c0:	000031b0          	.word	0x000031b0
    31c4:	0000daa2          	.word	0x0000daa2
    31c8:	004e8e93          	addi	x29,x29,4

# Testcase cmp_rs1_rs2 (Test rs1 = rs2 = x21)
  RVTEST_TESTDATA_LOAD_INT(x30, x21) # load rs1: x21 = 0xd8321f2a
    31cc:	000f2a83          	lw	x21,0(x30)
    31d0:	004f0f13          	addi	x30,x30,4
  RVTEST_TESTDATA_LOAD_INT(x30, x21) # load rs2: x21 = 0x996d584e
    31d4:	000f2a83          	lw	x21,0(x30)
    31d8:	004f0f13          	addi	x30,x30,4

000031dc <I_sltu_cg_cmp_rs1_rs2_b21>:
I_sltu_cg_cmp_rs1_rs2_b21:
  sltu x31, x21, x21 # perform operation
    31dc:	015abfb3          	sltu	x31,x21,x21
  # Check if x31 contains the expected result. x29 is the signature ptr, x5 is the link ptr, x4 is a temp reg.
  RVTEST_SIGUPD(x29, x5, x4, x31, I_sltu_cg_cmp_rs1_rs2_b21, I_sltu_cg_cmp_rs1_rs2_b21_str)
    31e0:	000ea203          	lw	x4,0(x29)
    31e4:	01f20863          	beq	x4,x31,31f4 <I_sltu_cg_cmp_rs1_rs2_b21+0x18>
    31e8:	314012ef          	jal	x5,44fc <failedtest_x5_x4>
    31ec:	000031dc          	.word	0x000031dc
    31f0:	0000dad8          	.word	0x0000dad8
    31f4:	004e8e93          	addi	x29,x29,4

# Testcase cmp_rs1_rs2 (Test rs1 = rs2 = x22)
  RVTEST_TESTDATA_LOAD_INT(x30, x22) # load rs1: x22 = 0xbce64f33
    31f8:	000f2b03          	lw	x22,0(x30)
    31fc:	004f0f13          	addi	x30,x30,4
  RVTEST_TESTDATA_LOAD_INT(x30, x22) # load rs2: x22 = 0x6fcd874b
    3200:	000f2b03          	lw	x22,0(x30)
    3204:	004f0f13          	addi	x30,x30,4

00003208 <I_sltu_cg_cmp_rs1_rs2_b22>:
I_sltu_cg_cmp_rs1_rs2_b22:
  sltu x12, x22, x22 # perform operation
    3208:	016b3633          	sltu	x12,x22,x22
  # Check if x12 contains the expected result. x29 is the signature ptr, x5 is the link ptr, x4 is a temp reg.
  RVTEST_SIGUPD(x29, x5, x4, x12, I_sltu_cg_cmp_rs1_rs2_b22, I_sltu_cg_cmp_rs1_rs2_b22_str)
    320c:	000ea203          	lw	x4,0(x29)
    3210:	00c20863          	beq	x4,x12,3220 <I_sltu_cg_cmp_rs1_rs2_b22+0x18>
    3214:	2e8012ef          	jal	x5,44fc <failedtest_x5_x4>
    3218:	00003208          	.word	0x00003208
    321c:	0000db0e          	.word	0x0000db0e
    3220:	004e8e93          	addi	x29,x29,4

# Testcase cmp_rs1_rs2 (Test rs1 = rs2 = x23)
  RVTEST_TESTDATA_LOAD_INT(x30, x23) # load rs1: x23 = 0x28218a22
    3224:	000f2b83          	lw	x23,0(x30)
    3228:	004f0f13          	addi	x30,x30,4
  RVTEST_TESTDATA_LOAD_INT(x30, x23) # load rs2: x23 = 0xbbbc9e54
    322c:	000f2b83          	lw	x23,0(x30)
    3230:	004f0f13          	addi	x30,x30,4

00003234 <I_sltu_cg_cmp_rs1_rs2_b23>:
I_sltu_cg_cmp_rs1_rs2_b23:
  sltu x2, x23, x23 # perform operation
    3234:	017bb133          	sltu	x2,x23,x23
  # Check if x2 contains the expected result. x29 is the signature ptr, x5 is the link ptr, x4 is a temp reg.
  RVTEST_SIGUPD(x29, x5, x4, x2, I_sltu_cg_cmp_rs1_rs2_b23, I_sltu_cg_cmp_rs1_rs2_b23_str)
    3238:	000ea203          	lw	x4,0(x29)
    323c:	00220863          	beq	x4,x2,324c <I_sltu_cg_cmp_rs1_rs2_b23+0x18>
    3240:	2bc012ef          	jal	x5,44fc <failedtest_x5_x4>
    3244:	00003234          	.word	0x00003234
    3248:	0000db44          	.word	0x0000db44
    324c:	004e8e93          	addi	x29,x29,4

# Testcase cmp_rs1_rs2 (Test rs1 = rs2 = x24)
  RVTEST_TESTDATA_LOAD_INT(x30, x24) # load rs1: x24 = 0x22f3d582
    3250:	000f2c03          	lw	x24,0(x30)
    3254:	004f0f13          	addi	x30,x30,4
  RVTEST_TESTDATA_LOAD_INT(x30, x24) # load rs2: x24 = 0x962f9601
    3258:	000f2c03          	lw	x24,0(x30)
    325c:	004f0f13          	addi	x30,x30,4

00003260 <I_sltu_cg_cmp_rs1_rs2_b24>:
I_sltu_cg_cmp_rs1_rs2_b24:
  sltu x31, x24, x24 # perform operation
    3260:	018c3fb3          	sltu	x31,x24,x24
  # Check if x31 contains the expected result. x29 is the signature ptr, x5 is the link ptr, x4 is a temp reg.
  RVTEST_SIGUPD(x29, x5, x4, x31, I_sltu_cg_cmp_rs1_rs2_b24, I_sltu_cg_cmp_rs1_rs2_b24_str)
    3264:	000ea203          	lw	x4,0(x29)
    3268:	01f20863          	beq	x4,x31,3278 <I_sltu_cg_cmp_rs1_rs2_b24+0x18>
    326c:	290012ef          	jal	x5,44fc <failedtest_x5_x4>
    3270:	00003260          	.word	0x00003260
    3274:	0000db7a          	.word	0x0000db7a
    3278:	004e8e93          	addi	x29,x29,4

# Testcase cmp_rs1_rs2 (Test rs1 = rs2 = x25)
  RVTEST_TESTDATA_LOAD_INT(x30, x25) # load rs1: x25 = 0xf2f00e99
    327c:	000f2c83          	lw	x25,0(x30)
    3280:	004f0f13          	addi	x30,x30,4
  RVTEST_TESTDATA_LOAD_INT(x30, x25) # load rs2: x25 = 0xe76a4fe5
    3284:	000f2c83          	lw	x25,0(x30)
    3288:	004f0f13          	addi	x30,x30,4

0000328c <I_sltu_cg_cmp_rs1_rs2_b25>:
I_sltu_cg_cmp_rs1_rs2_b25:
  sltu x15, x25, x25 # perform operation
    328c:	019cb7b3          	sltu	x15,x25,x25
  # Check if x15 contains the expected result. x29 is the signature ptr, x5 is the link ptr, x4 is a temp reg.
  RVTEST_SIGUPD(x29, x5, x4, x15, I_sltu_cg_cmp_rs1_rs2_b25, I_sltu_cg_cmp_rs1_rs2_b25_str)
    3290:	000ea203          	lw	x4,0(x29)
    3294:	00f20863          	beq	x4,x15,32a4 <I_sltu_cg_cmp_rs1_rs2_b25+0x18>
    3298:	264012ef          	jal	x5,44fc <failedtest_x5_x4>
    329c:	0000328c          	.word	0x0000328c
    32a0:	0000dbb0          	.word	0x0000dbb0
    32a4:	004e8e93          	addi	x29,x29,4

# Testcase cmp_rs1_rs2 (Test rs1 = rs2 = x26)
  RVTEST_TESTDATA_LOAD_INT(x30, x26) # load rs1: x26 = 0x09acae6f
    32a8:	000f2d03          	lw	x26,0(x30)
    32ac:	004f0f13          	addi	x30,x30,4
  RVTEST_TESTDATA_LOAD_INT(x30, x26) # load rs2: x26 = 0x3c4a1383
    32b0:	000f2d03          	lw	x26,0(x30)
    32b4:	004f0f13          	addi	x30,x30,4

000032b8 <I_sltu_cg_cmp_rs1_rs2_b26>:
I_sltu_cg_cmp_rs1_rs2_b26:
  sltu x28, x26, x26 # perform operation
    32b8:	01ad3e33          	sltu	x28,x26,x26
  # Check if x28 contains the expected result. x29 is the signature ptr, x5 is the link ptr, x4 is a temp reg.
  RVTEST_SIGUPD(x29, x5, x4, x28, I_sltu_cg_cmp_rs1_rs2_b26, I_sltu_cg_cmp_rs1_rs2_b26_str)
    32bc:	000ea203          	lw	x4,0(x29)
    32c0:	01c20863          	beq	x4,x28,32d0 <I_sltu_cg_cmp_rs1_rs2_b26+0x18>
    32c4:	238012ef          	jal	x5,44fc <failedtest_x5_x4>
    32c8:	000032b8          	.word	0x000032b8
    32cc:	0000dbe6          	.word	0x0000dbe6
    32d0:	004e8e93          	addi	x29,x29,4

# Testcase cmp_rs1_rs2 (Test rs1 = rs2 = x27)
  RVTEST_TESTDATA_LOAD_INT(x30, x27) # load rs1: x27 = 0xb7478b29
    32d4:	000f2d83          	lw	x27,0(x30)
    32d8:	004f0f13          	addi	x30,x30,4
  RVTEST_TESTDATA_LOAD_INT(x30, x27) # load rs2: x27 = 0xa3e99df8
    32dc:	000f2d83          	lw	x27,0(x30)
    32e0:	004f0f13          	addi	x30,x30,4

000032e4 <I_sltu_cg_cmp_rs1_rs2_b27>:
I_sltu_cg_cmp_rs1_rs2_b27:
  sltu x20, x27, x27 # perform operation
    32e4:	01bdba33          	sltu	x20,x27,x27
  # Check if x20 contains the expected result. x29 is the signature ptr, x5 is the link ptr, x4 is a temp reg.
  RVTEST_SIGUPD(x29, x5, x4, x20, I_sltu_cg_cmp_rs1_rs2_b27, I_sltu_cg_cmp_rs1_rs2_b27_str)
    32e8:	000ea203          	lw	x4,0(x29)
    32ec:	01420863          	beq	x4,x20,32fc <I_sltu_cg_cmp_rs1_rs2_b27+0x18>
    32f0:	20c012ef          	jal	x5,44fc <failedtest_x5_x4>
    32f4:	000032e4          	.word	0x000032e4
    32f8:	0000dc1c          	.word	0x0000dc1c
    32fc:	004e8e93          	addi	x29,x29,4

# Testcase cmp_rs1_rs2 (Test rs1 = rs2 = x28)
  RVTEST_TESTDATA_LOAD_INT(x30, x28) # load rs1: x28 = 0xa590aa70
    3300:	000f2e03          	lw	x28,0(x30)
    3304:	004f0f13          	addi	x30,x30,4
  RVTEST_TESTDATA_LOAD_INT(x30, x28) # load rs2: x28 = 0xe7bf46d1
    3308:	000f2e03          	lw	x28,0(x30)
    330c:	004f0f13          	addi	x30,x30,4

00003310 <I_sltu_cg_cmp_rs1_rs2_b28>:
I_sltu_cg_cmp_rs1_rs2_b28:
  sltu x22, x28, x28 # perform operation
    3310:	01ce3b33          	sltu	x22,x28,x28
  # Check if x22 contains the expected result. x29 is the signature ptr, x5 is the link ptr, x4 is a temp reg.
  RVTEST_SIGUPD(x29, x5, x4, x22, I_sltu_cg_cmp_rs1_rs2_b28, I_sltu_cg_cmp_rs1_rs2_b28_str)
    3314:	000ea203          	lw	x4,0(x29)
    3318:	01620863          	beq	x4,x22,3328 <I_sltu_cg_cmp_rs1_rs2_b28+0x18>
    331c:	1e0012ef          	jal	x5,44fc <failedtest_x5_x4>
    3320:	00003310          	.word	0x00003310
    3324:	0000dc52          	.word	0x0000dc52
    3328:	004e8e93          	addi	x29,x29,4

  mv x1, x29 # switch signature pointer register to avoid conflict with test
    332c:	000e8093          	addi	x1,x29,0
# Testcase cmp_rs1_rs2 (Test rs1 = rs2 = x29)
  RVTEST_TESTDATA_LOAD_INT(x30, x29) # load rs1: x29 = 0xa451a60f
    3330:	000f2e83          	lw	x29,0(x30)
    3334:	004f0f13          	addi	x30,x30,4
  RVTEST_TESTDATA_LOAD_INT(x30, x29) # load rs2: x29 = 0x86e93658
    3338:	000f2e83          	lw	x29,0(x30)
    333c:	004f0f13          	addi	x30,x30,4

00003340 <I_sltu_cg_cmp_rs1_rs2_b29>:
I_sltu_cg_cmp_rs1_rs2_b29:
  sltu x31, x29, x29 # perform operation
    3340:	01debfb3          	sltu	x31,x29,x29
  # Check if x31 contains the expected result. x1 is the signature ptr, x5 is the link ptr, x4 is a temp reg.
  RVTEST_SIGUPD(x1, x5, x4, x31, I_sltu_cg_cmp_rs1_rs2_b29, I_sltu_cg_cmp_rs1_rs2_b29_str)
    3344:	0000a203          	lw	x4,0(x1)
    3348:	01f20863          	beq	x4,x31,3358 <I_sltu_cg_cmp_rs1_rs2_b29+0x18>
    334c:	1b0012ef          	jal	x5,44fc <failedtest_x5_x4>
    3350:	00003340          	.word	0x00003340
    3354:	0000dc88          	.word	0x0000dc88
    3358:	00408093          	addi	x1,x1,4

  mv x20, x30 # switch data pointer register to avoid conflict with test
    335c:	000f0a13          	addi	x20,x30,0
# Testcase cmp_rs1_rs2 (Test rs1 = rs2 = x30)
  RVTEST_TESTDATA_LOAD_INT(x20, x30) # load rs1: x30 = 0x8b25ef00
    3360:	000a2f03          	lw	x30,0(x20)
    3364:	004a0a13          	addi	x20,x20,4
  RVTEST_TESTDATA_LOAD_INT(x20, x30) # load rs2: x30 = 0x5de3c0ce
    3368:	000a2f03          	lw	x30,0(x20)
    336c:	004a0a13          	addi	x20,x20,4

00003370 <I_sltu_cg_cmp_rs1_rs2_b30>:
I_sltu_cg_cmp_rs1_rs2_b30:
  sltu x3, x30, x30 # perform operation
    3370:	01ef31b3          	sltu	x3,x30,x30
  # Check if x3 contains the expected result. x1 is the signature ptr, x5 is the link ptr, x4 is a temp reg.
  RVTEST_SIGUPD(x1, x5, x4, x3, I_sltu_cg_cmp_rs1_rs2_b30, I_sltu_cg_cmp_rs1_rs2_b30_str)
    3374:	0000a203          	lw	x4,0(x1)
    3378:	00320863          	beq	x4,x3,3388 <I_sltu_cg_cmp_rs1_rs2_b30+0x18>
    337c:	180012ef          	jal	x5,44fc <failedtest_x5_x4>
    3380:	00003370          	.word	0x00003370
    3384:	0000dcbe          	.word	0x0000dcbe
    3388:	00408093          	addi	x1,x1,4

# Testcase cmp_rs1_rs2 (Test rs1 = rs2 = x31)
  RVTEST_TESTDATA_LOAD_INT(x20, x31) # load rs1: x31 = 0xd5c79fbd
    338c:	000a2f83          	lw	x31,0(x20)
    3390:	004a0a13          	addi	x20,x20,4
  RVTEST_TESTDATA_LOAD_INT(x20, x31) # load rs2: x31 = 0x90f3d5bf
    3394:	000a2f83          	lw	x31,0(x20)
    3398:	004a0a13          	addi	x20,x20,4

0000339c <I_sltu_cg_cmp_rs1_rs2_b31>:
I_sltu_cg_cmp_rs1_rs2_b31:
  sltu x28, x31, x31 # perform operation
    339c:	01ffbe33          	sltu	x28,x31,x31
  # Check if x28 contains the expected result. x1 is the signature ptr, x5 is the link ptr, x4 is a temp reg.
  RVTEST_SIGUPD(x1, x5, x4, x28, I_sltu_cg_cmp_rs1_rs2_b31, I_sltu_cg_cmp_rs1_rs2_b31_str)
    33a0:	0000a203          	lw	x4,0(x1)
    33a4:	01c20863          	beq	x4,x28,33b4 <I_sltu_cg_cmp_rs1_rs2_b31+0x18>
    33a8:	154012ef          	jal	x5,44fc <failedtest_x5_x4>
    33ac:	0000339c          	.word	0x0000339c
    33b0:	0000dcf4          	.word	0x0000dcf4
    33b4:	00408093          	addi	x1,x1,4
/////////////////////////////////
// cmp_rd_rs1
/////////////////////////////////

# Testcase cmp_rd_rs1 (Test rd = rs1 = x0)
  RVTEST_TESTDATA_LOAD_INT(x20, x0) # load rs1: x0 = 0x996b9632
    33b8:	000a2003          	lw	x0,0(x20)
    33bc:	004a0a13          	addi	x20,x20,4
  RVTEST_TESTDATA_LOAD_INT(x20, x19) # load rs2: x19 = 0x9136b048
    33c0:	000a2983          	lw	x19,0(x20)
    33c4:	004a0a13          	addi	x20,x20,4

000033c8 <I_sltu_cg_cmp_rd_rs1_b0>:
I_sltu_cg_cmp_rd_rs1_b0:
  sltu x0, x0, x19 # perform operation
    33c8:	01303033          	sltu	x0,x0,x19
  # Check if x0 contains the expected result. x1 is the signature ptr, x5 is the link ptr, x4 is a temp reg.
  RVTEST_SIGUPD(x1, x5, x4, x0, I_sltu_cg_cmp_rd_rs1_b0, I_sltu_cg_cmp_rd_rs1_b0_str)
    33cc:	0000a203          	lw	x4,0(x1)
    33d0:	00020863          	beq	x4,x0,33e0 <I_sltu_cg_cmp_rd_rs1_b0+0x18>
    33d4:	128012ef          	jal	x5,44fc <failedtest_x5_x4>
    33d8:	000033c8          	.word	0x000033c8
    33dc:	0000dd2a          	.word	0x0000dd2a
    33e0:	00408093          	addi	x1,x1,4

  mv x30, x1 # switch signature pointer register to avoid conflict with test
    33e4:	00008f13          	addi	x30,x1,0
# Testcase cmp_rd_rs1 (Test rd = rs1 = x1)
  RVTEST_TESTDATA_LOAD_INT(x20, x1) # load rs1: x1 = 0xa29edcfd
    33e8:	000a2083          	lw	x1,0(x20)
    33ec:	004a0a13          	addi	x20,x20,4
  RVTEST_TESTDATA_LOAD_INT(x20, x6) # load rs2: x6 = 0xc70a107a
    33f0:	000a2303          	lw	x6,0(x20)
    33f4:	004a0a13          	addi	x20,x20,4

000033f8 <I_sltu_cg_cmp_rd_rs1_b1>:
I_sltu_cg_cmp_rd_rs1_b1:
  sltu x1, x1, x6 # perform operation
    33f8:	0060b0b3          	sltu	x1,x1,x6
  # Check if x1 contains the expected result. x30 is the signature ptr, x5 is the link ptr, x4 is a temp reg.
  RVTEST_SIGUPD(x30, x5, x4, x1, I_sltu_cg_cmp_rd_rs1_b1, I_sltu_cg_cmp_rd_rs1_b1_str)
    33fc:	000f2203          	lw	x4,0(x30)
    3400:	00120863          	beq	x4,x1,3410 <I_sltu_cg_cmp_rd_rs1_b1+0x18>
    3404:	0f8012ef          	jal	x5,44fc <failedtest_x5_x4>
    3408:	000033f8          	.word	0x000033f8
    340c:	0000dd5e          	.word	0x0000dd5e
    3410:	004f0f13          	addi	x30,x30,4

# Testcase cmp_rd_rs1 (Test rd = rs1 = x2)
  RVTEST_TESTDATA_LOAD_INT(x20, x2) # load rs1: x2 = 0x57302c49
    3414:	000a2103          	lw	x2,0(x20)
    3418:	004a0a13          	addi	x20,x20,4
  RVTEST_TESTDATA_LOAD_INT(x20, x11) # load rs2: x11 = 0x47ba9d5f
    341c:	000a2583          	lw	x11,0(x20)
    3420:	004a0a13          	addi	x20,x20,4

00003424 <I_sltu_cg_cmp_rd_rs1_b2>:
I_sltu_cg_cmp_rd_rs1_b2:
  sltu x2, x2, x11 # perform operation
    3424:	00b13133          	sltu	x2,x2,x11
  # Check if x2 contains the expected result. x30 is the signature ptr, x5 is the link ptr, x4 is a temp reg.
  RVTEST_SIGUPD(x30, x5, x4, x2, I_sltu_cg_cmp_rd_rs1_b2, I_sltu_cg_cmp_rd_rs1_b2_str)
    3428:	000f2203          	lw	x4,0(x30)
    342c:	00220863          	beq	x4,x2,343c <I_sltu_cg_cmp_rd_rs1_b2+0x18>
    3430:	0cc012ef          	jal	x5,44fc <failedtest_x5_x4>
    3434:	00003424          	.word	0x00003424
    3438:	0000dd92          	.word	0x0000dd92
    343c:	004f0f13          	addi	x30,x30,4

# Testcase cmp_rd_rs1 (Test rd = rs1 = x3)
  RVTEST_TESTDATA_LOAD_INT(x20, x3) # load rs1: x3 = 0x8718ab1a
    3440:	000a2183          	lw	x3,0(x20)
    3444:	004a0a13          	addi	x20,x20,4
  RVTEST_TESTDATA_LOAD_INT(x20, x19) # load rs2: x19 = 0x3f41efd0
    3448:	000a2983          	lw	x19,0(x20)
    344c:	004a0a13          	addi	x20,x20,4

00003450 <I_sltu_cg_cmp_rd_rs1_b3>:
I_sltu_cg_cmp_rd_rs1_b3:
  sltu x3, x3, x19 # perform operation
    3450:	0131b1b3          	sltu	x3,x3,x19
  # Check if x3 contains the expected result. x30 is the signature ptr, x5 is the link ptr, x4 is a temp reg.
  RVTEST_SIGUPD(x30, x5, x4, x3, I_sltu_cg_cmp_rd_rs1_b3, I_sltu_cg_cmp_rd_rs1_b3_str)
    3454:	000f2203          	lw	x4,0(x30)
    3458:	00320863          	beq	x4,x3,3468 <I_sltu_cg_cmp_rd_rs1_b3+0x18>
    345c:	0a0012ef          	jal	x5,44fc <failedtest_x5_x4>
    3460:	00003450          	.word	0x00003450
    3464:	0000ddc6          	.word	0x0000ddc6
    3468:	004f0f13          	addi	x30,x30,4

  mv x7, x4 # switch temp register to avoid conflict with test
    346c:	00020393          	addi	x7,x4,0 # 0 <rvtest_entry_point>
  mv x8, x5 # switch link pointer register to avoid conflict with test
    3470:	00028413          	addi	x8,x5,0
# Testcase cmp_rd_rs1 (Test rd = rs1 = x4)
  RVTEST_TESTDATA_LOAD_INT(x20, x4) # load rs1: x4 = 0xd1d47885
    3474:	000a2203          	lw	x4,0(x20)
    3478:	004a0a13          	addi	x20,x20,4
  RVTEST_TESTDATA_LOAD_INT(x20, x3) # load rs2: x3 = 0x18246c51
    347c:	000a2183          	lw	x3,0(x20)
    3480:	004a0a13          	addi	x20,x20,4

00003484 <I_sltu_cg_cmp_rd_rs1_b4>:
I_sltu_cg_cmp_rd_rs1_b4:
  sltu x4, x4, x3 # perform operation
    3484:	00323233          	sltu	x4,x4,x3
  # Check if x4 contains the expected result. x30 is the signature ptr, x8 is the link ptr, x7 is a temp reg.
  RVTEST_SIGUPD(x30, x8, x7, x4, I_sltu_cg_cmp_rd_rs1_b4, I_sltu_cg_cmp_rd_rs1_b4_str)
    3488:	000f2383          	lw	x7,0(x30)
    348c:	00438863          	beq	x7,x4,349c <I_sltu_cg_cmp_rd_rs1_b4+0x18>
    3490:	0840146f          	jal	x8,4514 <failedtest_x8_x7>
    3494:	00003484          	.word	0x00003484
    3498:	0000ddfa          	.word	0x0000ddfa
    349c:	004f0f13          	addi	x30,x30,4

# Testcase cmp_rd_rs1 (Test rd = rs1 = x5)
  RVTEST_TESTDATA_LOAD_INT(x20, x5) # load rs1: x5 = 0xb014f157
    34a0:	000a2283          	lw	x5,0(x20)
    34a4:	004a0a13          	addi	x20,x20,4
  RVTEST_TESTDATA_LOAD_INT(x20, x4) # load rs2: x4 = 0x86e0f867
    34a8:	000a2203          	lw	x4,0(x20)
    34ac:	004a0a13          	addi	x20,x20,4

000034b0 <I_sltu_cg_cmp_rd_rs1_b5>:
I_sltu_cg_cmp_rd_rs1_b5:
  sltu x5, x5, x4 # perform operation
    34b0:	0042b2b3          	sltu	x5,x5,x4
  # Check if x5 contains the expected result. x30 is the signature ptr, x8 is the link ptr, x7 is a temp reg.
  RVTEST_SIGUPD(x30, x8, x7, x5, I_sltu_cg_cmp_rd_rs1_b5, I_sltu_cg_cmp_rd_rs1_b5_str)
    34b4:	000f2383          	lw	x7,0(x30)
    34b8:	00538863          	beq	x7,x5,34c8 <I_sltu_cg_cmp_rd_rs1_b5+0x18>
    34bc:	0580146f          	jal	x8,4514 <failedtest_x8_x7>
    34c0:	000034b0          	.word	0x000034b0
    34c4:	0000de2e          	.word	0x0000de2e
    34c8:	004f0f13          	addi	x30,x30,4

# Testcase cmp_rd_rs1 (Test rd = rs1 = x6)
  RVTEST_TESTDATA_LOAD_INT(x20, x6) # load rs1: x6 = 0xee421987
    34cc:	000a2303          	lw	x6,0(x20)
    34d0:	004a0a13          	addi	x20,x20,4
  RVTEST_TESTDATA_LOAD_INT(x20, x25) # load rs2: x25 = 0xdb916901
    34d4:	000a2c83          	lw	x25,0(x20)
    34d8:	004a0a13          	addi	x20,x20,4

000034dc <I_sltu_cg_cmp_rd_rs1_b6>:
I_sltu_cg_cmp_rd_rs1_b6:
  sltu x6, x6, x25 # perform operation
    34dc:	01933333          	sltu	x6,x6,x25
  # Check if x6 contains the expected result. x30 is the signature ptr, x8 is the link ptr, x7 is a temp reg.
  RVTEST_SIGUPD(x30, x8, x7, x6, I_sltu_cg_cmp_rd_rs1_b6, I_sltu_cg_cmp_rd_rs1_b6_str)
    34e0:	000f2383          	lw	x7,0(x30)
    34e4:	00638863          	beq	x7,x6,34f4 <I_sltu_cg_cmp_rd_rs1_b6+0x18>
    34e8:	02c0146f          	jal	x8,4514 <failedtest_x8_x7>
    34ec:	000034dc          	.word	0x000034dc
    34f0:	0000de62          	.word	0x0000de62
    34f4:	004f0f13          	addi	x30,x30,4

  mv x4, x7 # switch temp register to avoid conflict with test
    34f8:	00038213          	addi	x4,x7,0
  mv x5, x8 # switch link pointer register to avoid conflict with test
    34fc:	00040293          	addi	x5,x8,0
# Testcase cmp_rd_rs1 (Test rd = rs1 = x7)
  RVTEST_TESTDATA_LOAD_INT(x20, x7) # load rs1: x7 = 0xc62c34d1
    3500:	000a2383          	lw	x7,0(x20)
    3504:	004a0a13          	addi	x20,x20,4
  RVTEST_TESTDATA_LOAD_INT(x20, x15) # load rs2: x15 = 0xaa71358a
    3508:	000a2783          	lw	x15,0(x20)
    350c:	004a0a13          	addi	x20,x20,4

00003510 <I_sltu_cg_cmp_rd_rs1_b7>:
I_sltu_cg_cmp_rd_rs1_b7:
  sltu x7, x7, x15 # perform operation
    3510:	00f3b3b3          	sltu	x7,x7,x15
  # Check if x7 contains the expected result. x30 is the signature ptr, x5 is the link ptr, x4 is a temp reg.
  RVTEST_SIGUPD(x30, x5, x4, x7, I_sltu_cg_cmp_rd_rs1_b7, I_sltu_cg_cmp_rd_rs1_b7_str)
    3514:	000f2203          	lw	x4,0(x30)
    3518:	00720863          	beq	x4,x7,3528 <I_sltu_cg_cmp_rd_rs1_b7+0x18>
    351c:	7e1002ef          	jal	x5,44fc <failedtest_x5_x4>
    3520:	00003510          	.word	0x00003510
    3524:	0000de96          	.word	0x0000de96
    3528:	004f0f13          	addi	x30,x30,4

# Testcase cmp_rd_rs1 (Test rd = rs1 = x8)
  RVTEST_TESTDATA_LOAD_INT(x20, x8) # load rs1: x8 = 0x1665e1f8
    352c:	000a2403          	lw	x8,0(x20)
    3530:	004a0a13          	addi	x20,x20,4
  RVTEST_TESTDATA_LOAD_INT(x20, x16) # load rs2: x16 = 0xa07186f1
    3534:	000a2803          	lw	x16,0(x20)
    3538:	004a0a13          	addi	x20,x20,4

0000353c <I_sltu_cg_cmp_rd_rs1_b8>:
I_sltu_cg_cmp_rd_rs1_b8:
  sltu x8, x8, x16 # perform operation
    353c:	01043433          	sltu	x8,x8,x16
  # Check if x8 contains the expected result. x30 is the signature ptr, x5 is the link ptr, x4 is a temp reg.
  RVTEST_SIGUPD(x30, x5, x4, x8, I_sltu_cg_cmp_rd_rs1_b8, I_sltu_cg_cmp_rd_rs1_b8_str)
    3540:	000f2203          	lw	x4,0(x30)
    3544:	00820863          	beq	x4,x8,3554 <I_sltu_cg_cmp_rd_rs1_b8+0x18>
    3548:	7b5002ef          	jal	x5,44fc <failedtest_x5_x4>
    354c:	0000353c          	.word	0x0000353c
    3550:	0000deca          	.word	0x0000deca
    3554:	004f0f13          	addi	x30,x30,4

# Testcase cmp_rd_rs1 (Test rd = rs1 = x9)
  RVTEST_TESTDATA_LOAD_INT(x20, x9) # load rs1: x9 = 0x7c4d2821
    3558:	000a2483          	lw	x9,0(x20)
    355c:	004a0a13          	addi	x20,x20,4
  RVTEST_TESTDATA_LOAD_INT(x20, x21) # load rs2: x21 = 0xd43274cb
    3560:	000a2a83          	lw	x21,0(x20)
    3564:	004a0a13          	addi	x20,x20,4

00003568 <I_sltu_cg_cmp_rd_rs1_b9>:
I_sltu_cg_cmp_rd_rs1_b9:
  sltu x9, x9, x21 # perform operation
    3568:	0154b4b3          	sltu	x9,x9,x21
  # Check if x9 contains the expected result. x30 is the signature ptr, x5 is the link ptr, x4 is a temp reg.
  RVTEST_SIGUPD(x30, x5, x4, x9, I_sltu_cg_cmp_rd_rs1_b9, I_sltu_cg_cmp_rd_rs1_b9_str)
    356c:	000f2203          	lw	x4,0(x30)
    3570:	00920863          	beq	x4,x9,3580 <I_sltu_cg_cmp_rd_rs1_b9+0x18>
    3574:	789002ef          	jal	x5,44fc <failedtest_x5_x4>
    3578:	00003568          	.word	0x00003568
    357c:	0000defe          	.word	0x0000defe
    3580:	004f0f13          	addi	x30,x30,4

# Testcase cmp_rd_rs1 (Test rd = rs1 = x10)
  RVTEST_TESTDATA_LOAD_INT(x20, x10) # load rs1: x10 = 0x4c93d93c
    3584:	000a2503          	lw	x10,0(x20)
    3588:	004a0a13          	addi	x20,x20,4
  RVTEST_TESTDATA_LOAD_INT(x20, x16) # load rs2: x16 = 0x035656bd
    358c:	000a2803          	lw	x16,0(x20)
    3590:	004a0a13          	addi	x20,x20,4

00003594 <I_sltu_cg_cmp_rd_rs1_b10>:
I_sltu_cg_cmp_rd_rs1_b10:
  sltu x10, x10, x16 # perform operation
    3594:	01053533          	sltu	x10,x10,x16
  # Check if x10 contains the expected result. x30 is the signature ptr, x5 is the link ptr, x4 is a temp reg.
  RVTEST_SIGUPD(x30, x5, x4, x10, I_sltu_cg_cmp_rd_rs1_b10, I_sltu_cg_cmp_rd_rs1_b10_str)
    3598:	000f2203          	lw	x4,0(x30)
    359c:	00a20863          	beq	x4,x10,35ac <I_sltu_cg_cmp_rd_rs1_b10+0x18>
    35a0:	75d002ef          	jal	x5,44fc <failedtest_x5_x4>
    35a4:	00003594          	.word	0x00003594
    35a8:	0000df32          	.word	0x0000df32
    35ac:	004f0f13          	addi	x30,x30,4

# Testcase cmp_rd_rs1 (Test rd = rs1 = x11)
  RVTEST_TESTDATA_LOAD_INT(x20, x11) # load rs1: x11 = 0xb69d00c7
    35b0:	000a2583          	lw	x11,0(x20)
    35b4:	004a0a13          	addi	x20,x20,4
  RVTEST_TESTDATA_LOAD_INT(x20, x8) # load rs2: x8 = 0xe3e47e5f
    35b8:	000a2403          	lw	x8,0(x20)
    35bc:	004a0a13          	addi	x20,x20,4

000035c0 <I_sltu_cg_cmp_rd_rs1_b11>:
I_sltu_cg_cmp_rd_rs1_b11:
  sltu x11, x11, x8 # perform operation
    35c0:	0085b5b3          	sltu	x11,x11,x8
  # Check if x11 contains the expected result. x30 is the signature ptr, x5 is the link ptr, x4 is a temp reg.
  RVTEST_SIGUPD(x30, x5, x4, x11, I_sltu_cg_cmp_rd_rs1_b11, I_sltu_cg_cmp_rd_rs1_b11_str)
    35c4:	000f2203          	lw	x4,0(x30)
    35c8:	00b20863          	beq	x4,x11,35d8 <I_sltu_cg_cmp_rd_rs1_b11+0x18>
    35cc:	731002ef          	jal	x5,44fc <failedtest_x5_x4>
    35d0:	000035c0          	.word	0x000035c0
    35d4:	0000df67          	.word	0x0000df67
    35d8:	004f0f13          	addi	x30,x30,4

# Testcase cmp_rd_rs1 (Test rd = rs1 = x12)
  RVTEST_TESTDATA_LOAD_INT(x20, x12) # load rs1: x12 = 0x21717049
    35dc:	000a2603          	lw	x12,0(x20)
    35e0:	004a0a13          	addi	x20,x20,4
  RVTEST_TESTDATA_LOAD_INT(x20, x18) # load rs2: x18 = 0x5ccbea84
    35e4:	000a2903          	lw	x18,0(x20)
    35e8:	004a0a13          	addi	x20,x20,4

000035ec <I_sltu_cg_cmp_rd_rs1_b12>:
I_sltu_cg_cmp_rd_rs1_b12:
  sltu x12, x12, x18 # perform operation
    35ec:	01263633          	sltu	x12,x12,x18
  # Check if x12 contains the expected result. x30 is the signature ptr, x5 is the link ptr, x4 is a temp reg.
  RVTEST_SIGUPD(x30, x5, x4, x12, I_sltu_cg_cmp_rd_rs1_b12, I_sltu_cg_cmp_rd_rs1_b12_str)
    35f0:	000f2203          	lw	x4,0(x30)
    35f4:	00c20863          	beq	x4,x12,3604 <I_sltu_cg_cmp_rd_rs1_b12+0x18>
    35f8:	705002ef          	jal	x5,44fc <failedtest_x5_x4>
    35fc:	000035ec          	.word	0x000035ec
    3600:	0000df9c          	.word	0x0000df9c
    3604:	004f0f13          	addi	x30,x30,4

# Testcase cmp_rd_rs1 (Test rd = rs1 = x13)
  RVTEST_TESTDATA_LOAD_INT(x20, x13) # load rs1: x13 = 0x9f64a616
    3608:	000a2683          	lw	x13,0(x20)
    360c:	004a0a13          	addi	x20,x20,4
  RVTEST_TESTDATA_LOAD_INT(x20, x10) # load rs2: x10 = 0x640dc46c
    3610:	000a2503          	lw	x10,0(x20)
    3614:	004a0a13          	addi	x20,x20,4

00003618 <I_sltu_cg_cmp_rd_rs1_b13>:
I_sltu_cg_cmp_rd_rs1_b13:
  sltu x13, x13, x10 # perform operation
    3618:	00a6b6b3          	sltu	x13,x13,x10
  # Check if x13 contains the expected result. x30 is the signature ptr, x5 is the link ptr, x4 is a temp reg.
  RVTEST_SIGUPD(x30, x5, x4, x13, I_sltu_cg_cmp_rd_rs1_b13, I_sltu_cg_cmp_rd_rs1_b13_str)
    361c:	000f2203          	lw	x4,0(x30)
    3620:	00d20863          	beq	x4,x13,3630 <I_sltu_cg_cmp_rd_rs1_b13+0x18>
    3624:	6d9002ef          	jal	x5,44fc <failedtest_x5_x4>
    3628:	00003618          	.word	0x00003618
    362c:	0000dfd1          	.word	0x0000dfd1
    3630:	004f0f13          	addi	x30,x30,4

# Testcase cmp_rd_rs1 (Test rd = rs1 = x14)
  RVTEST_TESTDATA_LOAD_INT(x20, x14) # load rs1: x14 = 0xf8b67237
    3634:	000a2703          	lw	x14,0(x20)
    3638:	004a0a13          	addi	x20,x20,4
  RVTEST_TESTDATA_LOAD_INT(x20, x25) # load rs2: x25 = 0xba7c2d02
    363c:	000a2c83          	lw	x25,0(x20)
    3640:	004a0a13          	addi	x20,x20,4

00003644 <I_sltu_cg_cmp_rd_rs1_b14>:
I_sltu_cg_cmp_rd_rs1_b14:
  sltu x14, x14, x25 # perform operation
    3644:	01973733          	sltu	x14,x14,x25
  # Check if x14 contains the expected result. x30 is the signature ptr, x5 is the link ptr, x4 is a temp reg.
  RVTEST_SIGUPD(x30, x5, x4, x14, I_sltu_cg_cmp_rd_rs1_b14, I_sltu_cg_cmp_rd_rs1_b14_str)
    3648:	000f2203          	lw	x4,0(x30)
    364c:	00e20863          	beq	x4,x14,365c <I_sltu_cg_cmp_rd_rs1_b14+0x18>
    3650:	6ad002ef          	jal	x5,44fc <failedtest_x5_x4>
    3654:	00003644          	.word	0x00003644
    3658:	0000e006          	.word	0x0000e006
    365c:	004f0f13          	addi	x30,x30,4

# Testcase cmp_rd_rs1 (Test rd = rs1 = x15)
  RVTEST_TESTDATA_LOAD_INT(x20, x15) # load rs1: x15 = 0x030e5f2b
    3660:	000a2783          	lw	x15,0(x20)
    3664:	004a0a13          	addi	x20,x20,4
  RVTEST_TESTDATA_LOAD_INT(x20, x0) # load rs2: x0 = 0xaf9de9ed
    3668:	000a2003          	lw	x0,0(x20)
    366c:	004a0a13          	addi	x20,x20,4

00003670 <I_sltu_cg_cmp_rd_rs1_b15>:
I_sltu_cg_cmp_rd_rs1_b15:
  sltu x15, x15, x0 # perform operation
    3670:	0007b7b3          	sltu	x15,x15,x0
  # Check if x15 contains the expected result. x30 is the signature ptr, x5 is the link ptr, x4 is a temp reg.
  RVTEST_SIGUPD(x30, x5, x4, x15, I_sltu_cg_cmp_rd_rs1_b15, I_sltu_cg_cmp_rd_rs1_b15_str)
    3674:	000f2203          	lw	x4,0(x30)
    3678:	00f20863          	beq	x4,x15,3688 <I_sltu_cg_cmp_rd_rs1_b15+0x18>
    367c:	681002ef          	jal	x5,44fc <failedtest_x5_x4>
    3680:	00003670          	.word	0x00003670
    3684:	0000e03b          	.word	0x0000e03b
    3688:	004f0f13          	addi	x30,x30,4

# Testcase cmp_rd_rs1 (Test rd = rs1 = x16)
  RVTEST_TESTDATA_LOAD_INT(x20, x16) # load rs1: x16 = 0x8340143c
    368c:	000a2803          	lw	x16,0(x20)
    3690:	004a0a13          	addi	x20,x20,4
  RVTEST_TESTDATA_LOAD_INT(x20, x19) # load rs2: x19 = 0xcb8d060b
    3694:	000a2983          	lw	x19,0(x20)
    3698:	004a0a13          	addi	x20,x20,4

0000369c <I_sltu_cg_cmp_rd_rs1_b16>:
I_sltu_cg_cmp_rd_rs1_b16:
  sltu x16, x16, x19 # perform operation
    369c:	01383833          	sltu	x16,x16,x19
  # Check if x16 contains the expected result. x30 is the signature ptr, x5 is the link ptr, x4 is a temp reg.
  RVTEST_SIGUPD(x30, x5, x4, x16, I_sltu_cg_cmp_rd_rs1_b16, I_sltu_cg_cmp_rd_rs1_b16_str)
    36a0:	000f2203          	lw	x4,0(x30)
    36a4:	01020863          	beq	x4,x16,36b4 <I_sltu_cg_cmp_rd_rs1_b16+0x18>
    36a8:	655002ef          	jal	x5,44fc <failedtest_x5_x4>
    36ac:	0000369c          	.word	0x0000369c
    36b0:	0000e070          	.word	0x0000e070
    36b4:	004f0f13          	addi	x30,x30,4

# Testcase cmp_rd_rs1 (Test rd = rs1 = x17)
  RVTEST_TESTDATA_LOAD_INT(x20, x17) # load rs1: x17 = 0x415c09ea
    36b8:	000a2883          	lw	x17,0(x20)
    36bc:	004a0a13          	addi	x20,x20,4
  RVTEST_TESTDATA_LOAD_INT(x20, x13) # load rs2: x13 = 0x3e00b2f6
    36c0:	000a2683          	lw	x13,0(x20)
    36c4:	004a0a13          	addi	x20,x20,4

000036c8 <I_sltu_cg_cmp_rd_rs1_b17>:
I_sltu_cg_cmp_rd_rs1_b17:
  sltu x17, x17, x13 # perform operation
    36c8:	00d8b8b3          	sltu	x17,x17,x13
  # Check if x17 contains the expected result. x30 is the signature ptr, x5 is the link ptr, x4 is a temp reg.
  RVTEST_SIGUPD(x30, x5, x4, x17, I_sltu_cg_cmp_rd_rs1_b17, I_sltu_cg_cmp_rd_rs1_b17_str)
    36cc:	000f2203          	lw	x4,0(x30)
    36d0:	01120863          	beq	x4,x17,36e0 <I_sltu_cg_cmp_rd_rs1_b17+0x18>
    36d4:	629002ef          	jal	x5,44fc <failedtest_x5_x4>
    36d8:	000036c8          	.word	0x000036c8
    36dc:	0000e0a5          	.word	0x0000e0a5
    36e0:	004f0f13          	addi	x30,x30,4

# Testcase cmp_rd_rs1 (Test rd = rs1 = x18)
  RVTEST_TESTDATA_LOAD_INT(x20, x18) # load rs1: x18 = 0xf0c4004a
    36e4:	000a2903          	lw	x18,0(x20)
    36e8:	004a0a13          	addi	x20,x20,4
  RVTEST_TESTDATA_LOAD_INT(x20, x19) # load rs2: x19 = 0x0d82cfff
    36ec:	000a2983          	lw	x19,0(x20)
    36f0:	004a0a13          	addi	x20,x20,4

000036f4 <I_sltu_cg_cmp_rd_rs1_b18>:
I_sltu_cg_cmp_rd_rs1_b18:
  sltu x18, x18, x19 # perform operation
    36f4:	01393933          	sltu	x18,x18,x19
  # Check if x18 contains the expected result. x30 is the signature ptr, x5 is the link ptr, x4 is a temp reg.
  RVTEST_SIGUPD(x30, x5, x4, x18, I_sltu_cg_cmp_rd_rs1_b18, I_sltu_cg_cmp_rd_rs1_b18_str)
    36f8:	000f2203          	lw	x4,0(x30)
    36fc:	01220863          	beq	x4,x18,370c <I_sltu_cg_cmp_rd_rs1_b18+0x18>
    3700:	5fd002ef          	jal	x5,44fc <failedtest_x5_x4>
    3704:	000036f4          	.word	0x000036f4
    3708:	0000e0da          	.word	0x0000e0da
    370c:	004f0f13          	addi	x30,x30,4

# Testcase cmp_rd_rs1 (Test rd = rs1 = x19)
  RVTEST_TESTDATA_LOAD_INT(x20, x19) # load rs1: x19 = 0xdff516c5
    3710:	000a2983          	lw	x19,0(x20)
    3714:	004a0a13          	addi	x20,x20,4
  RVTEST_TESTDATA_LOAD_INT(x20, x6) # load rs2: x6 = 0x50baeb5a
    3718:	000a2303          	lw	x6,0(x20)
    371c:	004a0a13          	addi	x20,x20,4

00003720 <I_sltu_cg_cmp_rd_rs1_b19>:
I_sltu_cg_cmp_rd_rs1_b19:
  sltu x19, x19, x6 # perform operation
    3720:	0069b9b3          	sltu	x19,x19,x6
  # Check if x19 contains the expected result. x30 is the signature ptr, x5 is the link ptr, x4 is a temp reg.
  RVTEST_SIGUPD(x30, x5, x4, x19, I_sltu_cg_cmp_rd_rs1_b19, I_sltu_cg_cmp_rd_rs1_b19_str)
    3724:	000f2203          	lw	x4,0(x30)
    3728:	01320863          	beq	x4,x19,3738 <I_sltu_cg_cmp_rd_rs1_b19+0x18>
    372c:	5d1002ef          	jal	x5,44fc <failedtest_x5_x4>
    3730:	00003720          	.word	0x00003720
    3734:	0000e10f          	.word	0x0000e10f
    3738:	004f0f13          	addi	x30,x30,4

  mv x17, x20 # switch data pointer register to avoid conflict with test
    373c:	000a0893          	addi	x17,x20,0
# Testcase cmp_rd_rs1 (Test rd = rs1 = x20)
  RVTEST_TESTDATA_LOAD_INT(x17, x20) # load rs1: x20 = 0x289cef2c
    3740:	0008aa03          	lw	x20,0(x17)
    3744:	00488893          	addi	x17,x17,4
  RVTEST_TESTDATA_LOAD_INT(x17, x0) # load rs2: x0 = 0x0529fdd4
    3748:	0008a003          	lw	x0,0(x17)
    374c:	00488893          	addi	x17,x17,4

00003750 <I_sltu_cg_cmp_rd_rs1_b20>:
I_sltu_cg_cmp_rd_rs1_b20:
  sltu x20, x20, x0 # perform operation
    3750:	000a3a33          	sltu	x20,x20,x0
  # Check if x20 contains the expected result. x30 is the signature ptr, x5 is the link ptr, x4 is a temp reg.
  RVTEST_SIGUPD(x30, x5, x4, x20, I_sltu_cg_cmp_rd_rs1_b20, I_sltu_cg_cmp_rd_rs1_b20_str)
    3754:	000f2203          	lw	x4,0(x30)
    3758:	01420863          	beq	x4,x20,3768 <I_sltu_cg_cmp_rd_rs1_b20+0x18>
    375c:	5a1002ef          	jal	x5,44fc <failedtest_x5_x4>
    3760:	00003750          	.word	0x00003750
    3764:	0000e144          	.word	0x0000e144
    3768:	004f0f13          	addi	x30,x30,4

# Testcase cmp_rd_rs1 (Test rd = rs1 = x21)
  RVTEST_TESTDATA_LOAD_INT(x17, x21) # load rs1: x21 = 0x1e096a7c
    376c:	0008aa83          	lw	x21,0(x17)
    3770:	00488893          	addi	x17,x17,4
  RVTEST_TESTDATA_LOAD_INT(x17, x31) # load rs2: x31 = 0x1a374473
    3774:	0008af83          	lw	x31,0(x17)
    3778:	00488893          	addi	x17,x17,4

0000377c <I_sltu_cg_cmp_rd_rs1_b21>:
I_sltu_cg_cmp_rd_rs1_b21:
  sltu x21, x21, x31 # perform operation
    377c:	01fabab3          	sltu	x21,x21,x31
  # Check if x21 contains the expected result. x30 is the signature ptr, x5 is the link ptr, x4 is a temp reg.
  RVTEST_SIGUPD(x30, x5, x4, x21, I_sltu_cg_cmp_rd_rs1_b21, I_sltu_cg_cmp_rd_rs1_b21_str)
    3780:	000f2203          	lw	x4,0(x30)
    3784:	01520863          	beq	x4,x21,3794 <I_sltu_cg_cmp_rd_rs1_b21+0x18>
    3788:	575002ef          	jal	x5,44fc <failedtest_x5_x4>
    378c:	0000377c          	.word	0x0000377c
    3790:	0000e179          	.word	0x0000e179
    3794:	004f0f13          	addi	x30,x30,4

# Testcase cmp_rd_rs1 (Test rd = rs1 = x22)
  RVTEST_TESTDATA_LOAD_INT(x17, x22) # load rs1: x22 = 0xeb4c2354
    3798:	0008ab03          	lw	x22,0(x17)
    379c:	00488893          	addi	x17,x17,4
  RVTEST_TESTDATA_LOAD_INT(x17, x0) # load rs2: x0 = 0x20c7ce46
    37a0:	0008a003          	lw	x0,0(x17)
    37a4:	00488893          	addi	x17,x17,4

000037a8 <I_sltu_cg_cmp_rd_rs1_b22>:
I_sltu_cg_cmp_rd_rs1_b22:
  sltu x22, x22, x0 # perform operation
    37a8:	000b3b33          	sltu	x22,x22,x0
  # Check if x22 contains the expected result. x30 is the signature ptr, x5 is the link ptr, x4 is a temp reg.
  RVTEST_SIGUPD(x30, x5, x4, x22, I_sltu_cg_cmp_rd_rs1_b22, I_sltu_cg_cmp_rd_rs1_b22_str)
    37ac:	000f2203          	lw	x4,0(x30)
    37b0:	01620863          	beq	x4,x22,37c0 <I_sltu_cg_cmp_rd_rs1_b22+0x18>
    37b4:	549002ef          	jal	x5,44fc <failedtest_x5_x4>
    37b8:	000037a8          	.word	0x000037a8
    37bc:	0000e1ae          	.word	0x0000e1ae
    37c0:	004f0f13          	addi	x30,x30,4

# Testcase cmp_rd_rs1 (Test rd = rs1 = x23)
  RVTEST_TESTDATA_LOAD_INT(x17, x23) # load rs1: x23 = 0x87baf831
    37c4:	0008ab83          	lw	x23,0(x17)
    37c8:	00488893          	addi	x17,x17,4
  RVTEST_TESTDATA_LOAD_INT(x17, x21) # load rs2: x21 = 0xeeebb932
    37cc:	0008aa83          	lw	x21,0(x17)
    37d0:	00488893          	addi	x17,x17,4

000037d4 <I_sltu_cg_cmp_rd_rs1_b23>:
I_sltu_cg_cmp_rd_rs1_b23:
  sltu x23, x23, x21 # perform operation
    37d4:	015bbbb3          	sltu	x23,x23,x21
  # Check if x23 contains the expected result. x30 is the signature ptr, x5 is the link ptr, x4 is a temp reg.
  RVTEST_SIGUPD(x30, x5, x4, x23, I_sltu_cg_cmp_rd_rs1_b23, I_sltu_cg_cmp_rd_rs1_b23_str)
    37d8:	000f2203          	lw	x4,0(x30)
    37dc:	01720863          	beq	x4,x23,37ec <I_sltu_cg_cmp_rd_rs1_b23+0x18>
    37e0:	51d002ef          	jal	x5,44fc <failedtest_x5_x4>
    37e4:	000037d4          	.word	0x000037d4
    37e8:	0000e1e3          	.word	0x0000e1e3
    37ec:	004f0f13          	addi	x30,x30,4

# Testcase cmp_rd_rs1 (Test rd = rs1 = x24)
  RVTEST_TESTDATA_LOAD_INT(x17, x24) # load rs1: x24 = 0x2789675b
    37f0:	0008ac03          	lw	x24,0(x17)
    37f4:	00488893          	addi	x17,x17,4
  RVTEST_TESTDATA_LOAD_INT(x17, x7) # load rs2: x7 = 0xe9407ea7
    37f8:	0008a383          	lw	x7,0(x17)
    37fc:	00488893          	addi	x17,x17,4

00003800 <I_sltu_cg_cmp_rd_rs1_b24>:
I_sltu_cg_cmp_rd_rs1_b24:
  sltu x24, x24, x7 # perform operation
    3800:	007c3c33          	sltu	x24,x24,x7
  # Check if x24 contains the expected result. x30 is the signature ptr, x5 is the link ptr, x4 is a temp reg.
  RVTEST_SIGUPD(x30, x5, x4, x24, I_sltu_cg_cmp_rd_rs1_b24, I_sltu_cg_cmp_rd_rs1_b24_str)
    3804:	000f2203          	lw	x4,0(x30)
    3808:	01820863          	beq	x4,x24,3818 <I_sltu_cg_cmp_rd_rs1_b24+0x18>
    380c:	4f1002ef          	jal	x5,44fc <failedtest_x5_x4>
    3810:	00003800          	.word	0x00003800
    3814:	0000e218          	.word	0x0000e218
    3818:	004f0f13          	addi	x30,x30,4

# Testcase cmp_rd_rs1 (Test rd = rs1 = x25)
  RVTEST_TESTDATA_LOAD_INT(x17, x25) # load rs1: x25 = 0x6692d9ba
    381c:	0008ac83          	lw	x25,0(x17)
    3820:	00488893          	addi	x17,x17,4
  RVTEST_TESTDATA_LOAD_INT(x17, x13) # load rs2: x13 = 0xf200bbb7
    3824:	0008a683          	lw	x13,0(x17)
    3828:	00488893          	addi	x17,x17,4

0000382c <I_sltu_cg_cmp_rd_rs1_b25>:
I_sltu_cg_cmp_rd_rs1_b25:
  sltu x25, x25, x13 # perform operation
    382c:	00dcbcb3          	sltu	x25,x25,x13
  # Check if x25 contains the expected result. x30 is the signature ptr, x5 is the link ptr, x4 is a temp reg.
  RVTEST_SIGUPD(x30, x5, x4, x25, I_sltu_cg_cmp_rd_rs1_b25, I_sltu_cg_cmp_rd_rs1_b25_str)
    3830:	000f2203          	lw	x4,0(x30)
    3834:	01920863          	beq	x4,x25,3844 <I_sltu_cg_cmp_rd_rs1_b25+0x18>
    3838:	4c5002ef          	jal	x5,44fc <failedtest_x5_x4>
    383c:	0000382c          	.word	0x0000382c
    3840:	0000e24d          	.word	0x0000e24d
    3844:	004f0f13          	addi	x30,x30,4

# Testcase cmp_rd_rs1 (Test rd = rs1 = x26)
  RVTEST_TESTDATA_LOAD_INT(x17, x26) # load rs1: x26 = 0x824c77f2
    3848:	0008ad03          	lw	x26,0(x17)
    384c:	00488893          	addi	x17,x17,4
  RVTEST_TESTDATA_LOAD_INT(x17, x8) # load rs2: x8 = 0x71719df8
    3850:	0008a403          	lw	x8,0(x17)
    3854:	00488893          	addi	x17,x17,4

00003858 <I_sltu_cg_cmp_rd_rs1_b26>:
I_sltu_cg_cmp_rd_rs1_b26:
  sltu x26, x26, x8 # perform operation
    3858:	008d3d33          	sltu	x26,x26,x8
  # Check if x26 contains the expected result. x30 is the signature ptr, x5 is the link ptr, x4 is a temp reg.
  RVTEST_SIGUPD(x30, x5, x4, x26, I_sltu_cg_cmp_rd_rs1_b26, I_sltu_cg_cmp_rd_rs1_b26_str)
    385c:	000f2203          	lw	x4,0(x30)
    3860:	01a20863          	beq	x4,x26,3870 <I_sltu_cg_cmp_rd_rs1_b26+0x18>
    3864:	499002ef          	jal	x5,44fc <failedtest_x5_x4>
    3868:	00003858          	.word	0x00003858
    386c:	0000e282          	.word	0x0000e282
    3870:	004f0f13          	addi	x30,x30,4

# Testcase cmp_rd_rs1 (Test rd = rs1 = x27)
  RVTEST_TESTDATA_LOAD_INT(x17, x27) # load rs1: x27 = 0x44bc289e
    3874:	0008ad83          	lw	x27,0(x17)
    3878:	00488893          	addi	x17,x17,4
  RVTEST_TESTDATA_LOAD_INT(x17, x12) # load rs2: x12 = 0x20ff5ff0
    387c:	0008a603          	lw	x12,0(x17)
    3880:	00488893          	addi	x17,x17,4

00003884 <I_sltu_cg_cmp_rd_rs1_b27>:
I_sltu_cg_cmp_rd_rs1_b27:
  sltu x27, x27, x12 # perform operation
    3884:	00cdbdb3          	sltu	x27,x27,x12
  # Check if x27 contains the expected result. x30 is the signature ptr, x5 is the link ptr, x4 is a temp reg.
  RVTEST_SIGUPD(x30, x5, x4, x27, I_sltu_cg_cmp_rd_rs1_b27, I_sltu_cg_cmp_rd_rs1_b27_str)
    3888:	000f2203          	lw	x4,0(x30)
    388c:	01b20863          	beq	x4,x27,389c <I_sltu_cg_cmp_rd_rs1_b27+0x18>
    3890:	46d002ef          	jal	x5,44fc <failedtest_x5_x4>
    3894:	00003884          	.word	0x00003884
    3898:	0000e2b7          	.word	0x0000e2b7
    389c:	004f0f13          	addi	x30,x30,4

# Testcase cmp_rd_rs1 (Test rd = rs1 = x28)
  RVTEST_TESTDATA_LOAD_INT(x17, x28) # load rs1: x28 = 0xd6d1a708
    38a0:	0008ae03          	lw	x28,0(x17)
    38a4:	00488893          	addi	x17,x17,4
  RVTEST_TESTDATA_LOAD_INT(x17, x0) # load rs2: x0 = 0xd21de225
    38a8:	0008a003          	lw	x0,0(x17)
    38ac:	00488893          	addi	x17,x17,4

000038b0 <I_sltu_cg_cmp_rd_rs1_b28>:
I_sltu_cg_cmp_rd_rs1_b28:
  sltu x28, x28, x0 # perform operation
    38b0:	000e3e33          	sltu	x28,x28,x0
  # Check if x28 contains the expected result. x30 is the signature ptr, x5 is the link ptr, x4 is a temp reg.
  RVTEST_SIGUPD(x30, x5, x4, x28, I_sltu_cg_cmp_rd_rs1_b28, I_sltu_cg_cmp_rd_rs1_b28_str)
    38b4:	000f2203          	lw	x4,0(x30)
    38b8:	01c20863          	beq	x4,x28,38c8 <I_sltu_cg_cmp_rd_rs1_b28+0x18>
    38bc:	441002ef          	jal	x5,44fc <failedtest_x5_x4>
    38c0:	000038b0          	.word	0x000038b0
    38c4:	0000e2ec          	.word	0x0000e2ec
    38c8:	004f0f13          	addi	x30,x30,4

# Testcase cmp_rd_rs1 (Test rd = rs1 = x29)
  RVTEST_TESTDATA_LOAD_INT(x17, x29) # load rs1: x29 = 0x2e8313d9
    38cc:	0008ae83          	lw	x29,0(x17)
    38d0:	00488893          	addi	x17,x17,4
  RVTEST_TESTDATA_LOAD_INT(x17, x12) # load rs2: x12 = 0x82b4198c
    38d4:	0008a603          	lw	x12,0(x17)
    38d8:	00488893          	addi	x17,x17,4

000038dc <I_sltu_cg_cmp_rd_rs1_b29>:
I_sltu_cg_cmp_rd_rs1_b29:
  sltu x29, x29, x12 # perform operation
    38dc:	00cebeb3          	sltu	x29,x29,x12
  # Check if x29 contains the expected result. x30 is the signature ptr, x5 is the link ptr, x4 is a temp reg.
  RVTEST_SIGUPD(x30, x5, x4, x29, I_sltu_cg_cmp_rd_rs1_b29, I_sltu_cg_cmp_rd_rs1_b29_str)
    38e0:	000f2203          	lw	x4,0(x30)
    38e4:	01d20863          	beq	x4,x29,38f4 <I_sltu_cg_cmp_rd_rs1_b29+0x18>
    38e8:	415002ef          	jal	x5,44fc <failedtest_x5_x4>
    38ec:	000038dc          	.word	0x000038dc
    38f0:	0000e321          	.word	0x0000e321
    38f4:	004f0f13          	addi	x30,x30,4

  mv x31, x30 # switch signature pointer register to avoid conflict with test
    38f8:	000f0f93          	addi	x31,x30,0
# Testcase cmp_rd_rs1 (Test rd = rs1 = x30)
  RVTEST_TESTDATA_LOAD_INT(x17, x30) # load rs1: x30 = 0xdd5707db
    38fc:	0008af03          	lw	x30,0(x17)
    3900:	00488893          	addi	x17,x17,4
  RVTEST_TESTDATA_LOAD_INT(x17, x23) # load rs2: x23 = 0xc5e72574
    3904:	0008ab83          	lw	x23,0(x17)
    3908:	00488893          	addi	x17,x17,4

0000390c <I_sltu_cg_cmp_rd_rs1_b30>:
I_sltu_cg_cmp_rd_rs1_b30:
  sltu x30, x30, x23 # perform operation
    390c:	017f3f33          	sltu	x30,x30,x23
  # Check if x30 contains the expected result. x31 is the signature ptr, x5 is the link ptr, x4 is a temp reg.
  RVTEST_SIGUPD(x31, x5, x4, x30, I_sltu_cg_cmp_rd_rs1_b30, I_sltu_cg_cmp_rd_rs1_b30_str)
    3910:	000fa203          	lw	x4,0(x31)
    3914:	01e20863          	beq	x4,x30,3924 <I_sltu_cg_cmp_rd_rs1_b30+0x18>
    3918:	3e5002ef          	jal	x5,44fc <failedtest_x5_x4>
    391c:	0000390c          	.word	0x0000390c
    3920:	0000e356          	.word	0x0000e356
    3924:	004f8f93          	addi	x31,x31,4

  mv x10, x31 # switch signature pointer register to avoid conflict with test
    3928:	000f8513          	addi	x10,x31,0
# Testcase cmp_rd_rs1 (Test rd = rs1 = x31)
  RVTEST_TESTDATA_LOAD_INT(x17, x31) # load rs1: x31 = 0xb276f053
    392c:	0008af83          	lw	x31,0(x17)
    3930:	00488893          	addi	x17,x17,4
  RVTEST_TESTDATA_LOAD_INT(x17, x19) # load rs2: x19 = 0xbf2bc4f2
    3934:	0008a983          	lw	x19,0(x17)
    3938:	00488893          	addi	x17,x17,4

0000393c <I_sltu_cg_cmp_rd_rs1_b31>:
I_sltu_cg_cmp_rd_rs1_b31:
  sltu x31, x31, x19 # perform operation
    393c:	013fbfb3          	sltu	x31,x31,x19
  # Check if x31 contains the expected result. x10 is the signature ptr, x5 is the link ptr, x4 is a temp reg.
  RVTEST_SIGUPD(x10, x5, x4, x31, I_sltu_cg_cmp_rd_rs1_b31, I_sltu_cg_cmp_rd_rs1_b31_str)
    3940:	00052203          	lw	x4,0(x10)
    3944:	01f20863          	beq	x4,x31,3954 <I_sltu_cg_cmp_rd_rs1_b31+0x18>
    3948:	3b5002ef          	jal	x5,44fc <failedtest_x5_x4>
    394c:	0000393c          	.word	0x0000393c
    3950:	0000e38b          	.word	0x0000e38b
    3954:	00450513          	addi	x10,x10,4
/////////////////////////////////
// cmp_rd_rs2
/////////////////////////////////

# Testcase cmp_rd_rs2 (Test rd = rs2 = x0)
  RVTEST_TESTDATA_LOAD_INT(x17, x27) # load rs1: x27 = 0x618cb88a
    3958:	0008ad83          	lw	x27,0(x17)
    395c:	00488893          	addi	x17,x17,4
  RVTEST_TESTDATA_LOAD_INT(x17, x0) # load rs2: x0 = 0xdec32d8d
    3960:	0008a003          	lw	x0,0(x17)
    3964:	00488893          	addi	x17,x17,4

00003968 <I_sltu_cg_cmp_rd_rs2_b0>:
I_sltu_cg_cmp_rd_rs2_b0:
  sltu x0, x27, x0 # perform operation
    3968:	000db033          	sltu	x0,x27,x0
  # Check if x0 contains the expected result. x10 is the signature ptr, x5 is the link ptr, x4 is a temp reg.
  RVTEST_SIGUPD(x10, x5, x4, x0, I_sltu_cg_cmp_rd_rs2_b0, I_sltu_cg_cmp_rd_rs2_b0_str)
    396c:	00052203          	lw	x4,0(x10)
    3970:	00020863          	beq	x4,x0,3980 <I_sltu_cg_cmp_rd_rs2_b0+0x18>
    3974:	389002ef          	jal	x5,44fc <failedtest_x5_x4>
    3978:	00003968          	.word	0x00003968
    397c:	0000e3c0          	.word	0x0000e3c0
    3980:	00450513          	addi	x10,x10,4

# Testcase cmp_rd_rs2 (Test rd = rs2 = x1)
  RVTEST_TESTDATA_LOAD_INT(x17, x31) # load rs1: x31 = 0x5a9f1e14
    3984:	0008af83          	lw	x31,0(x17)
    3988:	00488893          	addi	x17,x17,4
  RVTEST_TESTDATA_LOAD_INT(x17, x1) # load rs2: x1 = 0x2b08e521
    398c:	0008a083          	lw	x1,0(x17)
    3990:	00488893          	addi	x17,x17,4

00003994 <I_sltu_cg_cmp_rd_rs2_b1>:
I_sltu_cg_cmp_rd_rs2_b1:
  sltu x1, x31, x1 # perform operation
    3994:	001fb0b3          	sltu	x1,x31,x1
  # Check if x1 contains the expected result. x10 is the signature ptr, x5 is the link ptr, x4 is a temp reg.
  RVTEST_SIGUPD(x10, x5, x4, x1, I_sltu_cg_cmp_rd_rs2_b1, I_sltu_cg_cmp_rd_rs2_b1_str)
    3998:	00052203          	lw	x4,0(x10)
    399c:	00120863          	beq	x4,x1,39ac <I_sltu_cg_cmp_rd_rs2_b1+0x18>
    39a0:	35d002ef          	jal	x5,44fc <failedtest_x5_x4>
    39a4:	00003994          	.word	0x00003994
    39a8:	0000e3f4          	.word	0x0000e3f4
    39ac:	00450513          	addi	x10,x10,4

# Testcase cmp_rd_rs2 (Test rd = rs2 = x2)
  RVTEST_TESTDATA_LOAD_INT(x17, x16) # load rs1: x16 = 0x909a2af1
    39b0:	0008a803          	lw	x16,0(x17)
    39b4:	00488893          	addi	x17,x17,4
  RVTEST_TESTDATA_LOAD_INT(x17, x2) # load rs2: x2 = 0xedbe807b
    39b8:	0008a103          	lw	x2,0(x17)
    39bc:	00488893          	addi	x17,x17,4

000039c0 <I_sltu_cg_cmp_rd_rs2_b2>:
I_sltu_cg_cmp_rd_rs2_b2:
  sltu x2, x16, x2 # perform operation
    39c0:	00283133          	sltu	x2,x16,x2
  # Check if x2 contains the expected result. x10 is the signature ptr, x5 is the link ptr, x4 is a temp reg.
  RVTEST_SIGUPD(x10, x5, x4, x2, I_sltu_cg_cmp_rd_rs2_b2, I_sltu_cg_cmp_rd_rs2_b2_str)
    39c4:	00052203          	lw	x4,0(x10)
    39c8:	00220863          	beq	x4,x2,39d8 <I_sltu_cg_cmp_rd_rs2_b2+0x18>
    39cc:	331002ef          	jal	x5,44fc <failedtest_x5_x4>
    39d0:	000039c0          	.word	0x000039c0
    39d4:	0000e428          	.word	0x0000e428
    39d8:	00450513          	addi	x10,x10,4

# Testcase cmp_rd_rs2 (Test rd = rs2 = x3)
  RVTEST_TESTDATA_LOAD_INT(x17, x21) # load rs1: x21 = 0xc1df600b
    39dc:	0008aa83          	lw	x21,0(x17)
    39e0:	00488893          	addi	x17,x17,4
  RVTEST_TESTDATA_LOAD_INT(x17, x3) # load rs2: x3 = 0x8534bbc6
    39e4:	0008a183          	lw	x3,0(x17)
    39e8:	00488893          	addi	x17,x17,4

000039ec <I_sltu_cg_cmp_rd_rs2_b3>:
I_sltu_cg_cmp_rd_rs2_b3:
  sltu x3, x21, x3 # perform operation
    39ec:	003ab1b3          	sltu	x3,x21,x3
  # Check if x3 contains the expected result. x10 is the signature ptr, x5 is the link ptr, x4 is a temp reg.
  RVTEST_SIGUPD(x10, x5, x4, x3, I_sltu_cg_cmp_rd_rs2_b3, I_sltu_cg_cmp_rd_rs2_b3_str)
    39f0:	00052203          	lw	x4,0(x10)
    39f4:	00320863          	beq	x4,x3,3a04 <I_sltu_cg_cmp_rd_rs2_b3+0x18>
    39f8:	305002ef          	jal	x5,44fc <failedtest_x5_x4>
    39fc:	000039ec          	.word	0x000039ec
    3a00:	0000e45c          	.word	0x0000e45c
    3a04:	00450513          	addi	x10,x10,4

  mv x7, x4 # switch temp register to avoid conflict with test
    3a08:	00020393          	addi	x7,x4,0 # 0 <rvtest_entry_point>
  mv x8, x5 # switch link pointer register to avoid conflict with test
    3a0c:	00028413          	addi	x8,x5,0
# Testcase cmp_rd_rs2 (Test rd = rs2 = x4)
  RVTEST_TESTDATA_LOAD_INT(x17, x31) # load rs1: x31 = 0x076710cf
    3a10:	0008af83          	lw	x31,0(x17)
    3a14:	00488893          	addi	x17,x17,4
  RVTEST_TESTDATA_LOAD_INT(x17, x4) # load rs2: x4 = 0x7d4df1f6
    3a18:	0008a203          	lw	x4,0(x17)
    3a1c:	00488893          	addi	x17,x17,4

00003a20 <I_sltu_cg_cmp_rd_rs2_b4>:
I_sltu_cg_cmp_rd_rs2_b4:
  sltu x4, x31, x4 # perform operation
    3a20:	004fb233          	sltu	x4,x31,x4
  # Check if x4 contains the expected result. x10 is the signature ptr, x8 is the link ptr, x7 is a temp reg.
  RVTEST_SIGUPD(x10, x8, x7, x4, I_sltu_cg_cmp_rd_rs2_b4, I_sltu_cg_cmp_rd_rs2_b4_str)
    3a24:	00052383          	lw	x7,0(x10)
    3a28:	00438863          	beq	x7,x4,3a38 <I_sltu_cg_cmp_rd_rs2_b4+0x18>
    3a2c:	2e90046f          	jal	x8,4514 <failedtest_x8_x7>
    3a30:	00003a20          	.word	0x00003a20
    3a34:	0000e490          	.word	0x0000e490
    3a38:	00450513          	addi	x10,x10,4

# Testcase cmp_rd_rs2 (Test rd = rs2 = x5)
  RVTEST_TESTDATA_LOAD_INT(x17, x11) # load rs1: x11 = 0x860544d3
    3a3c:	0008a583          	lw	x11,0(x17)
    3a40:	00488893          	addi	x17,x17,4
  RVTEST_TESTDATA_LOAD_INT(x17, x5) # load rs2: x5 = 0x028784cb
    3a44:	0008a283          	lw	x5,0(x17)
    3a48:	00488893          	addi	x17,x17,4

00003a4c <I_sltu_cg_cmp_rd_rs2_b5>:
I_sltu_cg_cmp_rd_rs2_b5:
  sltu x5, x11, x5 # perform operation
    3a4c:	0055b2b3          	sltu	x5,x11,x5
  # Check if x5 contains the expected result. x10 is the signature ptr, x8 is the link ptr, x7 is a temp reg.
  RVTEST_SIGUPD(x10, x8, x7, x5, I_sltu_cg_cmp_rd_rs2_b5, I_sltu_cg_cmp_rd_rs2_b5_str)
    3a50:	00052383          	lw	x7,0(x10)
    3a54:	00538863          	beq	x7,x5,3a64 <I_sltu_cg_cmp_rd_rs2_b5+0x18>
    3a58:	2bd0046f          	jal	x8,4514 <failedtest_x8_x7>
    3a5c:	00003a4c          	.word	0x00003a4c
    3a60:	0000e4c4          	.word	0x0000e4c4
    3a64:	00450513          	addi	x10,x10,4

# Testcase cmp_rd_rs2 (Test rd = rs2 = x6)
  RVTEST_TESTDATA_LOAD_INT(x17, x29) # load rs1: x29 = 0xaf526f76
    3a68:	0008ae83          	lw	x29,0(x17)
    3a6c:	00488893          	addi	x17,x17,4
  RVTEST_TESTDATA_LOAD_INT(x17, x6) # load rs2: x6 = 0xf61f8df7
    3a70:	0008a303          	lw	x6,0(x17)
    3a74:	00488893          	addi	x17,x17,4

00003a78 <I_sltu_cg_cmp_rd_rs2_b6>:
I_sltu_cg_cmp_rd_rs2_b6:
  sltu x6, x29, x6 # perform operation
    3a78:	006eb333          	sltu	x6,x29,x6
  # Check if x6 contains the expected result. x10 is the signature ptr, x8 is the link ptr, x7 is a temp reg.
  RVTEST_SIGUPD(x10, x8, x7, x6, I_sltu_cg_cmp_rd_rs2_b6, I_sltu_cg_cmp_rd_rs2_b6_str)
    3a7c:	00052383          	lw	x7,0(x10)
    3a80:	00638863          	beq	x7,x6,3a90 <I_sltu_cg_cmp_rd_rs2_b6+0x18>
    3a84:	2910046f          	jal	x8,4514 <failedtest_x8_x7>
    3a88:	00003a78          	.word	0x00003a78
    3a8c:	0000e4f8          	.word	0x0000e4f8
    3a90:	00450513          	addi	x10,x10,4

  mv x13, x7 # switch temp register to avoid conflict with test
    3a94:	00038693          	addi	x13,x7,0
  mv x14, x8 # switch link pointer register to avoid conflict with test
    3a98:	00040713          	addi	x14,x8,0
# Testcase cmp_rd_rs2 (Test rd = rs2 = x7)
  RVTEST_TESTDATA_LOAD_INT(x17, x15) # load rs1: x15 = 0x605a4b90
    3a9c:	0008a783          	lw	x15,0(x17)
    3aa0:	00488893          	addi	x17,x17,4
  RVTEST_TESTDATA_LOAD_INT(x17, x7) # load rs2: x7 = 0x1ad04def
    3aa4:	0008a383          	lw	x7,0(x17)
    3aa8:	00488893          	addi	x17,x17,4

00003aac <I_sltu_cg_cmp_rd_rs2_b7>:
I_sltu_cg_cmp_rd_rs2_b7:
  sltu x7, x15, x7 # perform operation
    3aac:	0077b3b3          	sltu	x7,x15,x7
  # Check if x7 contains the expected result. x10 is the signature ptr, x14 is the link ptr, x13 is a temp reg.
  RVTEST_SIGUPD(x10, x14, x13, x7, I_sltu_cg_cmp_rd_rs2_b7, I_sltu_cg_cmp_rd_rs2_b7_str)
    3ab0:	00052683          	lw	x13,0(x10)
    3ab4:	00768863          	beq	x13,x7,3ac4 <I_sltu_cg_cmp_rd_rs2_b7+0x18>
    3ab8:	2850076f          	jal	x14,453c <failedtest_x14_x13>
    3abc:	00003aac          	.word	0x00003aac
    3ac0:	0000e52c          	.word	0x0000e52c
    3ac4:	00450513          	addi	x10,x10,4

# Testcase cmp_rd_rs2 (Test rd = rs2 = x8)
  RVTEST_TESTDATA_LOAD_INT(x17, x22) # load rs1: x22 = 0x44e41e16
    3ac8:	0008ab03          	lw	x22,0(x17)
    3acc:	00488893          	addi	x17,x17,4
  RVTEST_TESTDATA_LOAD_INT(x17, x8) # load rs2: x8 = 0xecb105bb
    3ad0:	0008a403          	lw	x8,0(x17)
    3ad4:	00488893          	addi	x17,x17,4

00003ad8 <I_sltu_cg_cmp_rd_rs2_b8>:
I_sltu_cg_cmp_rd_rs2_b8:
  sltu x8, x22, x8 # perform operation
    3ad8:	008b3433          	sltu	x8,x22,x8
  # Check if x8 contains the expected result. x10 is the signature ptr, x14 is the link ptr, x13 is a temp reg.
  RVTEST_SIGUPD(x10, x14, x13, x8, I_sltu_cg_cmp_rd_rs2_b8, I_sltu_cg_cmp_rd_rs2_b8_str)
    3adc:	00052683          	lw	x13,0(x10)
    3ae0:	00868863          	beq	x13,x8,3af0 <I_sltu_cg_cmp_rd_rs2_b8+0x18>
    3ae4:	2590076f          	jal	x14,453c <failedtest_x14_x13>
    3ae8:	00003ad8          	.word	0x00003ad8
    3aec:	0000e560          	.word	0x0000e560
    3af0:	00450513          	addi	x10,x10,4

# Testcase cmp_rd_rs2 (Test rd = rs2 = x9)
  RVTEST_TESTDATA_LOAD_INT(x17, x26) # load rs1: x26 = 0x0875b8db
    3af4:	0008ad03          	lw	x26,0(x17)
    3af8:	00488893          	addi	x17,x17,4
  RVTEST_TESTDATA_LOAD_INT(x17, x9) # load rs2: x9 = 0x34d70edd
    3afc:	0008a483          	lw	x9,0(x17)
    3b00:	00488893          	addi	x17,x17,4

00003b04 <I_sltu_cg_cmp_rd_rs2_b9>:
I_sltu_cg_cmp_rd_rs2_b9:
  sltu x9, x26, x9 # perform operation
    3b04:	009d34b3          	sltu	x9,x26,x9
  # Check if x9 contains the expected result. x10 is the signature ptr, x14 is the link ptr, x13 is a temp reg.
  RVTEST_SIGUPD(x10, x14, x13, x9, I_sltu_cg_cmp_rd_rs2_b9, I_sltu_cg_cmp_rd_rs2_b9_str)
    3b08:	00052683          	lw	x13,0(x10)
    3b0c:	00968863          	beq	x13,x9,3b1c <I_sltu_cg_cmp_rd_rs2_b9+0x18>
    3b10:	22d0076f          	jal	x14,453c <failedtest_x14_x13>
    3b14:	00003b04          	.word	0x00003b04
    3b18:	0000e594          	.word	0x0000e594
    3b1c:	00450513          	addi	x10,x10,4

  mv x18, x10 # switch signature pointer register to avoid conflict with test
    3b20:	00050913          	addi	x18,x10,0
# Testcase cmp_rd_rs2 (Test rd = rs2 = x10)
  RVTEST_TESTDATA_LOAD_INT(x17, x29) # load rs1: x29 = 0x5fb572ad
    3b24:	0008ae83          	lw	x29,0(x17)
    3b28:	00488893          	addi	x17,x17,4
  RVTEST_TESTDATA_LOAD_INT(x17, x10) # load rs2: x10 = 0x7b7c639a
    3b2c:	0008a503          	lw	x10,0(x17)
    3b30:	00488893          	addi	x17,x17,4

00003b34 <I_sltu_cg_cmp_rd_rs2_b10>:
I_sltu_cg_cmp_rd_rs2_b10:
  sltu x10, x29, x10 # perform operation
    3b34:	00aeb533          	sltu	x10,x29,x10
  # Check if x10 contains the expected result. x18 is the signature ptr, x14 is the link ptr, x13 is a temp reg.
  RVTEST_SIGUPD(x18, x14, x13, x10, I_sltu_cg_cmp_rd_rs2_b10, I_sltu_cg_cmp_rd_rs2_b10_str)
    3b38:	00092683          	lw	x13,0(x18)
    3b3c:	00a68863          	beq	x13,x10,3b4c <I_sltu_cg_cmp_rd_rs2_b10+0x18>
    3b40:	1fd0076f          	jal	x14,453c <failedtest_x14_x13>
    3b44:	00003b34          	.word	0x00003b34
    3b48:	0000e5c8          	.word	0x0000e5c8
    3b4c:	00490913          	addi	x18,x18,4

# Testcase cmp_rd_rs2 (Test rd = rs2 = x11)
  RVTEST_TESTDATA_LOAD_INT(x17, x6) # load rs1: x6 = 0xdc0d0e4c
    3b50:	0008a303          	lw	x6,0(x17)
    3b54:	00488893          	addi	x17,x17,4
  RVTEST_TESTDATA_LOAD_INT(x17, x11) # load rs2: x11 = 0x6bf5a172
    3b58:	0008a583          	lw	x11,0(x17)
    3b5c:	00488893          	addi	x17,x17,4

00003b60 <I_sltu_cg_cmp_rd_rs2_b11>:
I_sltu_cg_cmp_rd_rs2_b11:
  sltu x11, x6, x11 # perform operation
    3b60:	00b335b3          	sltu	x11,x6,x11
  # Check if x11 contains the expected result. x18 is the signature ptr, x14 is the link ptr, x13 is a temp reg.
  RVTEST_SIGUPD(x18, x14, x13, x11, I_sltu_cg_cmp_rd_rs2_b11, I_sltu_cg_cmp_rd_rs2_b11_str)
    3b64:	00092683          	lw	x13,0(x18)
    3b68:	00b68863          	beq	x13,x11,3b78 <I_sltu_cg_cmp_rd_rs2_b11+0x18>
    3b6c:	1d10076f          	jal	x14,453c <failedtest_x14_x13>
    3b70:	00003b60          	.word	0x00003b60
    3b74:	0000e5fd          	.word	0x0000e5fd
    3b78:	00490913          	addi	x18,x18,4

# Testcase cmp_rd_rs2 (Test rd = rs2 = x12)
  RVTEST_TESTDATA_LOAD_INT(x17, x19) # load rs1: x19 = 0xdc7a76c2
    3b7c:	0008a983          	lw	x19,0(x17)
    3b80:	00488893          	addi	x17,x17,4
  RVTEST_TESTDATA_LOAD_INT(x17, x12) # load rs2: x12 = 0x689210b1
    3b84:	0008a603          	lw	x12,0(x17)
    3b88:	00488893          	addi	x17,x17,4

00003b8c <I_sltu_cg_cmp_rd_rs2_b12>:
I_sltu_cg_cmp_rd_rs2_b12:
  sltu x12, x19, x12 # perform operation
    3b8c:	00c9b633          	sltu	x12,x19,x12
  # Check if x12 contains the expected result. x18 is the signature ptr, x14 is the link ptr, x13 is a temp reg.
  RVTEST_SIGUPD(x18, x14, x13, x12, I_sltu_cg_cmp_rd_rs2_b12, I_sltu_cg_cmp_rd_rs2_b12_str)
    3b90:	00092683          	lw	x13,0(x18)
    3b94:	00c68863          	beq	x13,x12,3ba4 <I_sltu_cg_cmp_rd_rs2_b12+0x18>
    3b98:	1a50076f          	jal	x14,453c <failedtest_x14_x13>
    3b9c:	00003b8c          	.word	0x00003b8c
    3ba0:	0000e632          	.word	0x0000e632
    3ba4:	00490913          	addi	x18,x18,4

  mv x4, x13 # switch temp register to avoid conflict with test
    3ba8:	00068213          	addi	x4,x13,0
  mv x5, x14 # switch link pointer register to avoid conflict with test
    3bac:	00070293          	addi	x5,x14,0
# Testcase cmp_rd_rs2 (Test rd = rs2 = x13)
  RVTEST_TESTDATA_LOAD_INT(x17, x27) # load rs1: x27 = 0x6bff7936
    3bb0:	0008ad83          	lw	x27,0(x17)
    3bb4:	00488893          	addi	x17,x17,4
  RVTEST_TESTDATA_LOAD_INT(x17, x13) # load rs2: x13 = 0x4bb91431
    3bb8:	0008a683          	lw	x13,0(x17)
    3bbc:	00488893          	addi	x17,x17,4

00003bc0 <I_sltu_cg_cmp_rd_rs2_b13>:
I_sltu_cg_cmp_rd_rs2_b13:
  sltu x13, x27, x13 # perform operation
    3bc0:	00ddb6b3          	sltu	x13,x27,x13
  # Check if x13 contains the expected result. x18 is the signature ptr, x5 is the link ptr, x4 is a temp reg.
  RVTEST_SIGUPD(x18, x5, x4, x13, I_sltu_cg_cmp_rd_rs2_b13, I_sltu_cg_cmp_rd_rs2_b13_str)
    3bc4:	00092203          	lw	x4,0(x18)
    3bc8:	00d20863          	beq	x4,x13,3bd8 <I_sltu_cg_cmp_rd_rs2_b13+0x18>
    3bcc:	131002ef          	jal	x5,44fc <failedtest_x5_x4>
    3bd0:	00003bc0          	.word	0x00003bc0
    3bd4:	0000e667          	.word	0x0000e667
    3bd8:	00490913          	addi	x18,x18,4

# Testcase cmp_rd_rs2 (Test rd = rs2 = x14)
  RVTEST_TESTDATA_LOAD_INT(x17, x13) # load rs1: x13 = 0xdfece2f7
    3bdc:	0008a683          	lw	x13,0(x17)
    3be0:	00488893          	addi	x17,x17,4
  RVTEST_TESTDATA_LOAD_INT(x17, x14) # load rs2: x14 = 0x5df07629
    3be4:	0008a703          	lw	x14,0(x17)
    3be8:	00488893          	addi	x17,x17,4

00003bec <I_sltu_cg_cmp_rd_rs2_b14>:
I_sltu_cg_cmp_rd_rs2_b14:
  sltu x14, x13, x14 # perform operation
    3bec:	00e6b733          	sltu	x14,x13,x14
  # Check if x14 contains the expected result. x18 is the signature ptr, x5 is the link ptr, x4 is a temp reg.
  RVTEST_SIGUPD(x18, x5, x4, x14, I_sltu_cg_cmp_rd_rs2_b14, I_sltu_cg_cmp_rd_rs2_b14_str)
    3bf0:	00092203          	lw	x4,0(x18)
    3bf4:	00e20863          	beq	x4,x14,3c04 <I_sltu_cg_cmp_rd_rs2_b14+0x18>
    3bf8:	105002ef          	jal	x5,44fc <failedtest_x5_x4>
    3bfc:	00003bec          	.word	0x00003bec
    3c00:	0000e69c          	.word	0x0000e69c
    3c04:	00490913          	addi	x18,x18,4

# Testcase cmp_rd_rs2 (Test rd = rs2 = x15)
  RVTEST_TESTDATA_LOAD_INT(x17, x12) # load rs1: x12 = 0x3f513965
    3c08:	0008a603          	lw	x12,0(x17)
    3c0c:	00488893          	addi	x17,x17,4
  RVTEST_TESTDATA_LOAD_INT(x17, x15) # load rs2: x15 = 0xe064eb6e
    3c10:	0008a783          	lw	x15,0(x17)
    3c14:	00488893          	addi	x17,x17,4

00003c18 <I_sltu_cg_cmp_rd_rs2_b15>:
I_sltu_cg_cmp_rd_rs2_b15:
  sltu x15, x12, x15 # perform operation
    3c18:	00f637b3          	sltu	x15,x12,x15
  # Check if x15 contains the expected result. x18 is the signature ptr, x5 is the link ptr, x4 is a temp reg.
  RVTEST_SIGUPD(x18, x5, x4, x15, I_sltu_cg_cmp_rd_rs2_b15, I_sltu_cg_cmp_rd_rs2_b15_str)
    3c1c:	00092203          	lw	x4,0(x18)
    3c20:	00f20863          	beq	x4,x15,3c30 <I_sltu_cg_cmp_rd_rs2_b15+0x18>
    3c24:	0d9002ef          	jal	x5,44fc <failedtest_x5_x4>
    3c28:	00003c18          	.word	0x00003c18
    3c2c:	0000e6d1          	.word	0x0000e6d1
    3c30:	00490913          	addi	x18,x18,4

# Testcase cmp_rd_rs2 (Test rd = rs2 = x16)
  RVTEST_TESTDATA_LOAD_INT(x17, x21) # load rs1: x21 = 0x9c60b4d1
    3c34:	0008aa83          	lw	x21,0(x17)
    3c38:	00488893          	addi	x17,x17,4
  RVTEST_TESTDATA_LOAD_INT(x17, x16) # load rs2: x16 = 0xdde4d6cc
    3c3c:	0008a803          	lw	x16,0(x17)
    3c40:	00488893          	addi	x17,x17,4

00003c44 <I_sltu_cg_cmp_rd_rs2_b16>:
I_sltu_cg_cmp_rd_rs2_b16:
  sltu x16, x21, x16 # perform operation
    3c44:	010ab833          	sltu	x16,x21,x16
  # Check if x16 contains the expected result. x18 is the signature ptr, x5 is the link ptr, x4 is a temp reg.
  RVTEST_SIGUPD(x18, x5, x4, x16, I_sltu_cg_cmp_rd_rs2_b16, I_sltu_cg_cmp_rd_rs2_b16_str)
    3c48:	00092203          	lw	x4,0(x18)
    3c4c:	01020863          	beq	x4,x16,3c5c <I_sltu_cg_cmp_rd_rs2_b16+0x18>
    3c50:	0ad002ef          	jal	x5,44fc <failedtest_x5_x4>
    3c54:	00003c44          	.word	0x00003c44
    3c58:	0000e706          	.word	0x0000e706
    3c5c:	00490913          	addi	x18,x18,4

  mv x31, x17 # switch data pointer register to avoid conflict with test
    3c60:	00088f93          	addi	x31,x17,0
# Testcase cmp_rd_rs2 (Test rd = rs2 = x17)
  RVTEST_TESTDATA_LOAD_INT(x31, x7) # load rs1: x7 = 0x146c4f21
    3c64:	000fa383          	lw	x7,0(x31)
    3c68:	004f8f93          	addi	x31,x31,4
  RVTEST_TESTDATA_LOAD_INT(x31, x17) # load rs2: x17 = 0x2111943f
    3c6c:	000fa883          	lw	x17,0(x31)
    3c70:	004f8f93          	addi	x31,x31,4

00003c74 <I_sltu_cg_cmp_rd_rs2_b17>:
I_sltu_cg_cmp_rd_rs2_b17:
  sltu x17, x7, x17 # perform operation
    3c74:	0113b8b3          	sltu	x17,x7,x17
  # Check if x17 contains the expected result. x18 is the signature ptr, x5 is the link ptr, x4 is a temp reg.
  RVTEST_SIGUPD(x18, x5, x4, x17, I_sltu_cg_cmp_rd_rs2_b17, I_sltu_cg_cmp_rd_rs2_b17_str)
    3c78:	00092203          	lw	x4,0(x18)
    3c7c:	01120863          	beq	x4,x17,3c8c <I_sltu_cg_cmp_rd_rs2_b17+0x18>
    3c80:	07d002ef          	jal	x5,44fc <failedtest_x5_x4>
    3c84:	00003c74          	.word	0x00003c74
    3c88:	0000e73b          	.word	0x0000e73b
    3c8c:	00490913          	addi	x18,x18,4

  mv x12, x18 # switch signature pointer register to avoid conflict with test
    3c90:	00090613          	addi	x12,x18,0
# Testcase cmp_rd_rs2 (Test rd = rs2 = x18)
  RVTEST_TESTDATA_LOAD_INT(x31, x25) # load rs1: x25 = 0x37f18a2c
    3c94:	000fac83          	lw	x25,0(x31)
    3c98:	004f8f93          	addi	x31,x31,4
  RVTEST_TESTDATA_LOAD_INT(x31, x18) # load rs2: x18 = 0xcaad2c82
    3c9c:	000fa903          	lw	x18,0(x31)
    3ca0:	004f8f93          	addi	x31,x31,4

00003ca4 <I_sltu_cg_cmp_rd_rs2_b18>:
I_sltu_cg_cmp_rd_rs2_b18:
  sltu x18, x25, x18 # perform operation
    3ca4:	012cb933          	sltu	x18,x25,x18
  # Check if x18 contains the expected result. x12 is the signature ptr, x5 is the link ptr, x4 is a temp reg.
  RVTEST_SIGUPD(x12, x5, x4, x18, I_sltu_cg_cmp_rd_rs2_b18, I_sltu_cg_cmp_rd_rs2_b18_str)
    3ca8:	00062203          	lw	x4,0(x12)
    3cac:	01220863          	beq	x4,x18,3cbc <I_sltu_cg_cmp_rd_rs2_b18+0x18>
    3cb0:	04d002ef          	jal	x5,44fc <failedtest_x5_x4>
    3cb4:	00003ca4          	.word	0x00003ca4
    3cb8:	0000e770          	.word	0x0000e770
    3cbc:	00460613          	addi	x12,x12,4

# Testcase cmp_rd_rs2 (Test rd = rs2 = x19)
  RVTEST_TESTDATA_LOAD_INT(x31, x26) # load rs1: x26 = 0x2950ba1e
    3cc0:	000fad03          	lw	x26,0(x31)
    3cc4:	004f8f93          	addi	x31,x31,4
  RVTEST_TESTDATA_LOAD_INT(x31, x19) # load rs2: x19 = 0xa1a8fe7d
    3cc8:	000fa983          	lw	x19,0(x31)
    3ccc:	004f8f93          	addi	x31,x31,4

00003cd0 <I_sltu_cg_cmp_rd_rs2_b19>:
I_sltu_cg_cmp_rd_rs2_b19:
  sltu x19, x26, x19 # perform operation
    3cd0:	013d39b3          	sltu	x19,x26,x19
  # Check if x19 contains the expected result. x12 is the signature ptr, x5 is the link ptr, x4 is a temp reg.
  RVTEST_SIGUPD(x12, x5, x4, x19, I_sltu_cg_cmp_rd_rs2_b19, I_sltu_cg_cmp_rd_rs2_b19_str)
    3cd4:	00062203          	lw	x4,0(x12)
    3cd8:	01320863          	beq	x4,x19,3ce8 <I_sltu_cg_cmp_rd_rs2_b19+0x18>
    3cdc:	021002ef          	jal	x5,44fc <failedtest_x5_x4>
    3ce0:	00003cd0          	.word	0x00003cd0
    3ce4:	0000e7a5          	.word	0x0000e7a5
    3ce8:	00460613          	addi	x12,x12,4

# Testcase cmp_rd_rs2 (Test rd = rs2 = x20)
  RVTEST_TESTDATA_LOAD_INT(x31, x2) # load rs1: x2 = 0xa9f3711b
    3cec:	000fa103          	lw	x2,0(x31)
    3cf0:	004f8f93          	addi	x31,x31,4
  RVTEST_TESTDATA_LOAD_INT(x31, x20) # load rs2: x20 = 0x07676fbc
    3cf4:	000faa03          	lw	x20,0(x31)
    3cf8:	004f8f93          	addi	x31,x31,4

00003cfc <I_sltu_cg_cmp_rd_rs2_b20>:
I_sltu_cg_cmp_rd_rs2_b20:
  sltu x20, x2, x20 # perform operation
    3cfc:	01413a33          	sltu	x20,x2,x20
  # Check if x20 contains the expected result. x12 is the signature ptr, x5 is the link ptr, x4 is a temp reg.
  RVTEST_SIGUPD(x12, x5, x4, x20, I_sltu_cg_cmp_rd_rs2_b20, I_sltu_cg_cmp_rd_rs2_b20_str)
    3d00:	00062203          	lw	x4,0(x12)
    3d04:	01420863          	beq	x4,x20,3d14 <I_sltu_cg_cmp_rd_rs2_b20+0x18>
    3d08:	7f4002ef          	jal	x5,44fc <failedtest_x5_x4>
    3d0c:	00003cfc          	.word	0x00003cfc
    3d10:	0000e7da          	.word	0x0000e7da
    3d14:	00460613          	addi	x12,x12,4

# Testcase cmp_rd_rs2 (Test rd = rs2 = x21)
  RVTEST_TESTDATA_LOAD_INT(x31, x30) # load rs1: x30 = 0x91eb50f6
    3d18:	000faf03          	lw	x30,0(x31)
    3d1c:	004f8f93          	addi	x31,x31,4
  RVTEST_TESTDATA_LOAD_INT(x31, x21) # load rs2: x21 = 0x4cee0b17
    3d20:	000faa83          	lw	x21,0(x31)
    3d24:	004f8f93          	addi	x31,x31,4

00003d28 <I_sltu_cg_cmp_rd_rs2_b21>:
I_sltu_cg_cmp_rd_rs2_b21:
  sltu x21, x30, x21 # perform operation
    3d28:	015f3ab3          	sltu	x21,x30,x21
  # Check if x21 contains the expected result. x12 is the signature ptr, x5 is the link ptr, x4 is a temp reg.
  RVTEST_SIGUPD(x12, x5, x4, x21, I_sltu_cg_cmp_rd_rs2_b21, I_sltu_cg_cmp_rd_rs2_b21_str)
    3d2c:	00062203          	lw	x4,0(x12)
    3d30:	01520863          	beq	x4,x21,3d40 <I_sltu_cg_cmp_rd_rs2_b21+0x18>
    3d34:	7c8002ef          	jal	x5,44fc <failedtest_x5_x4>
    3d38:	00003d28          	.word	0x00003d28
    3d3c:	0000e80f          	.word	0x0000e80f
    3d40:	00460613          	addi	x12,x12,4

# Testcase cmp_rd_rs2 (Test rd = rs2 = x22)
  RVTEST_TESTDATA_LOAD_INT(x31, x30) # load rs1: x30 = 0xefb07519
    3d44:	000faf03          	lw	x30,0(x31)
    3d48:	004f8f93          	addi	x31,x31,4
  RVTEST_TESTDATA_LOAD_INT(x31, x22) # load rs2: x22 = 0x80b44ed7
    3d4c:	000fab03          	lw	x22,0(x31)
    3d50:	004f8f93          	addi	x31,x31,4

00003d54 <I_sltu_cg_cmp_rd_rs2_b22>:
I_sltu_cg_cmp_rd_rs2_b22:
  sltu x22, x30, x22 # perform operation
    3d54:	016f3b33          	sltu	x22,x30,x22
  # Check if x22 contains the expected result. x12 is the signature ptr, x5 is the link ptr, x4 is a temp reg.
  RVTEST_SIGUPD(x12, x5, x4, x22, I_sltu_cg_cmp_rd_rs2_b22, I_sltu_cg_cmp_rd_rs2_b22_str)
    3d58:	00062203          	lw	x4,0(x12)
    3d5c:	01620863          	beq	x4,x22,3d6c <I_sltu_cg_cmp_rd_rs2_b22+0x18>
    3d60:	79c002ef          	jal	x5,44fc <failedtest_x5_x4>
    3d64:	00003d54          	.word	0x00003d54
    3d68:	0000e844          	.word	0x0000e844
    3d6c:	00460613          	addi	x12,x12,4

# Testcase cmp_rd_rs2 (Test rd = rs2 = x23)
  RVTEST_TESTDATA_LOAD_INT(x31, x25) # load rs1: x25 = 0x0c1580ea
    3d70:	000fac83          	lw	x25,0(x31)
    3d74:	004f8f93          	addi	x31,x31,4
  RVTEST_TESTDATA_LOAD_INT(x31, x23) # load rs2: x23 = 0x09708f58
    3d78:	000fab83          	lw	x23,0(x31)
    3d7c:	004f8f93          	addi	x31,x31,4

00003d80 <I_sltu_cg_cmp_rd_rs2_b23>:
I_sltu_cg_cmp_rd_rs2_b23:
  sltu x23, x25, x23 # perform operation
    3d80:	017cbbb3          	sltu	x23,x25,x23
  # Check if x23 contains the expected result. x12 is the signature ptr, x5 is the link ptr, x4 is a temp reg.
  RVTEST_SIGUPD(x12, x5, x4, x23, I_sltu_cg_cmp_rd_rs2_b23, I_sltu_cg_cmp_rd_rs2_b23_str)
    3d84:	00062203          	lw	x4,0(x12)
    3d88:	01720863          	beq	x4,x23,3d98 <I_sltu_cg_cmp_rd_rs2_b23+0x18>
    3d8c:	770002ef          	jal	x5,44fc <failedtest_x5_x4>
    3d90:	00003d80          	.word	0x00003d80
    3d94:	0000e879          	.word	0x0000e879
    3d98:	00460613          	addi	x12,x12,4

# Testcase cmp_rd_rs2 (Test rd = rs2 = x24)
  RVTEST_TESTDATA_LOAD_INT(x31, x17) # load rs1: x17 = 0x4219f92a
    3d9c:	000fa883          	lw	x17,0(x31)
    3da0:	004f8f93          	addi	x31,x31,4
  RVTEST_TESTDATA_LOAD_INT(x31, x24) # load rs2: x24 = 0x9ed7c279
    3da4:	000fac03          	lw	x24,0(x31)
    3da8:	004f8f93          	addi	x31,x31,4

00003dac <I_sltu_cg_cmp_rd_rs2_b24>:
I_sltu_cg_cmp_rd_rs2_b24:
  sltu x24, x17, x24 # perform operation
    3dac:	0188bc33          	sltu	x24,x17,x24
  # Check if x24 contains the expected result. x12 is the signature ptr, x5 is the link ptr, x4 is a temp reg.
  RVTEST_SIGUPD(x12, x5, x4, x24, I_sltu_cg_cmp_rd_rs2_b24, I_sltu_cg_cmp_rd_rs2_b24_str)
    3db0:	00062203          	lw	x4,0(x12)
    3db4:	01820863          	beq	x4,x24,3dc4 <I_sltu_cg_cmp_rd_rs2_b24+0x18>
    3db8:	744002ef          	jal	x5,44fc <failedtest_x5_x4>
    3dbc:	00003dac          	.word	0x00003dac
    3dc0:	0000e8ae          	.word	0x0000e8ae
    3dc4:	00460613          	addi	x12,x12,4

# Testcase cmp_rd_rs2 (Test rd = rs2 = x25)
  RVTEST_TESTDATA_LOAD_INT(x31, x23) # load rs1: x23 = 0x42b54069
    3dc8:	000fab83          	lw	x23,0(x31)
    3dcc:	004f8f93          	addi	x31,x31,4
  RVTEST_TESTDATA_LOAD_INT(x31, x25) # load rs2: x25 = 0x0f1e002a
    3dd0:	000fac83          	lw	x25,0(x31)
    3dd4:	004f8f93          	addi	x31,x31,4

00003dd8 <I_sltu_cg_cmp_rd_rs2_b25>:
I_sltu_cg_cmp_rd_rs2_b25:
  sltu x25, x23, x25 # perform operation
    3dd8:	019bbcb3          	sltu	x25,x23,x25
  # Check if x25 contains the expected result. x12 is the signature ptr, x5 is the link ptr, x4 is a temp reg.
  RVTEST_SIGUPD(x12, x5, x4, x25, I_sltu_cg_cmp_rd_rs2_b25, I_sltu_cg_cmp_rd_rs2_b25_str)
    3ddc:	00062203          	lw	x4,0(x12)
    3de0:	01920863          	beq	x4,x25,3df0 <I_sltu_cg_cmp_rd_rs2_b25+0x18>
    3de4:	718002ef          	jal	x5,44fc <failedtest_x5_x4>
    3de8:	00003dd8          	.word	0x00003dd8
    3dec:	0000e8e3          	.word	0x0000e8e3
    3df0:	00460613          	addi	x12,x12,4

# Testcase cmp_rd_rs2 (Test rd = rs2 = x26)
  RVTEST_TESTDATA_LOAD_INT(x31, x29) # load rs1: x29 = 0xbc9033c2
    3df4:	000fae83          	lw	x29,0(x31)
    3df8:	004f8f93          	addi	x31,x31,4
  RVTEST_TESTDATA_LOAD_INT(x31, x26) # load rs2: x26 = 0xadce61dd
    3dfc:	000fad03          	lw	x26,0(x31)
    3e00:	004f8f93          	addi	x31,x31,4

00003e04 <I_sltu_cg_cmp_rd_rs2_b26>:
I_sltu_cg_cmp_rd_rs2_b26:
  sltu x26, x29, x26 # perform operation
    3e04:	01aebd33          	sltu	x26,x29,x26
  # Check if x26 contains the expected result. x12 is the signature ptr, x5 is the link ptr, x4 is a temp reg.
  RVTEST_SIGUPD(x12, x5, x4, x26, I_sltu_cg_cmp_rd_rs2_b26, I_sltu_cg_cmp_rd_rs2_b26_str)
    3e08:	00062203          	lw	x4,0(x12)
    3e0c:	01a20863          	beq	x4,x26,3e1c <I_sltu_cg_cmp_rd_rs2_b26+0x18>
    3e10:	6ec002ef          	jal	x5,44fc <failedtest_x5_x4>
    3e14:	00003e04          	.word	0x00003e04
    3e18:	0000e918          	.word	0x0000e918
    3e1c:	00460613          	addi	x12,x12,4

# Testcase cmp_rd_rs2 (Test rd = rs2 = x27)
  RVTEST_TESTDATA_LOAD_INT(x31, x2) # load rs1: x2 = 0xbb283a44
    3e20:	000fa103          	lw	x2,0(x31)
    3e24:	004f8f93          	addi	x31,x31,4
  RVTEST_TESTDATA_LOAD_INT(x31, x27) # load rs2: x27 = 0xb7490582
    3e28:	000fad83          	lw	x27,0(x31)
    3e2c:	004f8f93          	addi	x31,x31,4

00003e30 <I_sltu_cg_cmp_rd_rs2_b27>:
I_sltu_cg_cmp_rd_rs2_b27:
  sltu x27, x2, x27 # perform operation
    3e30:	01b13db3          	sltu	x27,x2,x27
  # Check if x27 contains the expected result. x12 is the signature ptr, x5 is the link ptr, x4 is a temp reg.
  RVTEST_SIGUPD(x12, x5, x4, x27, I_sltu_cg_cmp_rd_rs2_b27, I_sltu_cg_cmp_rd_rs2_b27_str)
    3e34:	00062203          	lw	x4,0(x12)
    3e38:	01b20863          	beq	x4,x27,3e48 <I_sltu_cg_cmp_rd_rs2_b27+0x18>
    3e3c:	6c0002ef          	jal	x5,44fc <failedtest_x5_x4>
    3e40:	00003e30          	.word	0x00003e30
    3e44:	0000e94d          	.word	0x0000e94d
    3e48:	00460613          	addi	x12,x12,4

# Testcase cmp_rd_rs2 (Test rd = rs2 = x28)
  RVTEST_TESTDATA_LOAD_INT(x31, x3) # load rs1: x3 = 0x11ad08e2
    3e4c:	000fa183          	lw	x3,0(x31)
    3e50:	004f8f93          	addi	x31,x31,4
  RVTEST_TESTDATA_LOAD_INT(x31, x28) # load rs2: x28 = 0xdb5ffa40
    3e54:	000fae03          	lw	x28,0(x31)
    3e58:	004f8f93          	addi	x31,x31,4

00003e5c <I_sltu_cg_cmp_rd_rs2_b28>:
I_sltu_cg_cmp_rd_rs2_b28:
  sltu x28, x3, x28 # perform operation
    3e5c:	01c1be33          	sltu	x28,x3,x28
  # Check if x28 contains the expected result. x12 is the signature ptr, x5 is the link ptr, x4 is a temp reg.
  RVTEST_SIGUPD(x12, x5, x4, x28, I_sltu_cg_cmp_rd_rs2_b28, I_sltu_cg_cmp_rd_rs2_b28_str)
    3e60:	00062203          	lw	x4,0(x12)
    3e64:	01c20863          	beq	x4,x28,3e74 <I_sltu_cg_cmp_rd_rs2_b28+0x18>
    3e68:	694002ef          	jal	x5,44fc <failedtest_x5_x4>
    3e6c:	00003e5c          	.word	0x00003e5c
    3e70:	0000e982          	.word	0x0000e982
    3e74:	00460613          	addi	x12,x12,4

# Testcase cmp_rd_rs2 (Test rd = rs2 = x29)
  RVTEST_TESTDATA_LOAD_INT(x31, x10) # load rs1: x10 = 0x0489e89a
    3e78:	000fa503          	lw	x10,0(x31)
    3e7c:	004f8f93          	addi	x31,x31,4
  RVTEST_TESTDATA_LOAD_INT(x31, x29) # load rs2: x29 = 0xd2ec44ac
    3e80:	000fae83          	lw	x29,0(x31)
    3e84:	004f8f93          	addi	x31,x31,4

00003e88 <I_sltu_cg_cmp_rd_rs2_b29>:
I_sltu_cg_cmp_rd_rs2_b29:
  sltu x29, x10, x29 # perform operation
    3e88:	01d53eb3          	sltu	x29,x10,x29
  # Check if x29 contains the expected result. x12 is the signature ptr, x5 is the link ptr, x4 is a temp reg.
  RVTEST_SIGUPD(x12, x5, x4, x29, I_sltu_cg_cmp_rd_rs2_b29, I_sltu_cg_cmp_rd_rs2_b29_str)
    3e8c:	00062203          	lw	x4,0(x12)
    3e90:	01d20863          	beq	x4,x29,3ea0 <I_sltu_cg_cmp_rd_rs2_b29+0x18>
    3e94:	668002ef          	jal	x5,44fc <failedtest_x5_x4>
    3e98:	00003e88          	.word	0x00003e88
    3e9c:	0000e9b7          	.word	0x0000e9b7
    3ea0:	00460613          	addi	x12,x12,4

# Testcase cmp_rd_rs2 (Test rd = rs2 = x30)
  RVTEST_TESTDATA_LOAD_INT(x31, x13) # load rs1: x13 = 0xa5754f2c
    3ea4:	000fa683          	lw	x13,0(x31)
    3ea8:	004f8f93          	addi	x31,x31,4
  RVTEST_TESTDATA_LOAD_INT(x31, x30) # load rs2: x30 = 0xcee5e5d2
    3eac:	000faf03          	lw	x30,0(x31)
    3eb0:	004f8f93          	addi	x31,x31,4

00003eb4 <I_sltu_cg_cmp_rd_rs2_b30>:
I_sltu_cg_cmp_rd_rs2_b30:
  sltu x30, x13, x30 # perform operation
    3eb4:	01e6bf33          	sltu	x30,x13,x30
  # Check if x30 contains the expected result. x12 is the signature ptr, x5 is the link ptr, x4 is a temp reg.
  RVTEST_SIGUPD(x12, x5, x4, x30, I_sltu_cg_cmp_rd_rs2_b30, I_sltu_cg_cmp_rd_rs2_b30_str)
    3eb8:	00062203          	lw	x4,0(x12)
    3ebc:	01e20863          	beq	x4,x30,3ecc <I_sltu_cg_cmp_rd_rs2_b30+0x18>
    3ec0:	63c002ef          	jal	x5,44fc <failedtest_x5_x4>
    3ec4:	00003eb4          	.word	0x00003eb4
    3ec8:	0000e9ec          	.word	0x0000e9ec
    3ecc:	00460613          	addi	x12,x12,4

  mv x11, x31 # switch data pointer register to avoid conflict with test
    3ed0:	000f8593          	addi	x11,x31,0
# Testcase cmp_rd_rs2 (Test rd = rs2 = x31)
  RVTEST_TESTDATA_LOAD_INT(x11, x6) # load rs1: x6 = 0x28d18b8d
    3ed4:	0005a303          	lw	x6,0(x11)
    3ed8:	00458593          	addi	x11,x11,4
  RVTEST_TESTDATA_LOAD_INT(x11, x31) # load rs2: x31 = 0xaaed762c
    3edc:	0005af83          	lw	x31,0(x11)
    3ee0:	00458593          	addi	x11,x11,4

00003ee4 <I_sltu_cg_cmp_rd_rs2_b31>:
I_sltu_cg_cmp_rd_rs2_b31:
  sltu x31, x6, x31 # perform operation
    3ee4:	01f33fb3          	sltu	x31,x6,x31
  # Check if x31 contains the expected result. x12 is the signature ptr, x5 is the link ptr, x4 is a temp reg.
  RVTEST_SIGUPD(x12, x5, x4, x31, I_sltu_cg_cmp_rd_rs2_b31, I_sltu_cg_cmp_rd_rs2_b31_str)
    3ee8:	00062203          	lw	x4,0(x12)
    3eec:	01f20863          	beq	x4,x31,3efc <I_sltu_cg_cmp_rd_rs2_b31+0x18>
    3ef0:	60c002ef          	jal	x5,44fc <failedtest_x5_x4>
    3ef4:	00003ee4          	.word	0x00003ee4
    3ef8:	0000ea21          	.word	0x0000ea21
    3efc:	00460613          	addi	x12,x12,4
/////////////////////////////////
// cmp_rd_rs1_rs2
/////////////////////////////////

# Testcase cmp_rd_rs1_rs2 (Test rd = rs1 = rs2 = x0)
  RVTEST_TESTDATA_LOAD_INT(x11, x0) # load rs1: x0 = 0x450dc447
    3f00:	0005a003          	lw	x0,0(x11)
    3f04:	00458593          	addi	x11,x11,4
  RVTEST_TESTDATA_LOAD_INT(x11, x0) # load rs2: x0 = 0x400658df
    3f08:	0005a003          	lw	x0,0(x11)
    3f0c:	00458593          	addi	x11,x11,4

00003f10 <I_sltu_cg_cmp_rd_rs1_rs2_b0>:
I_sltu_cg_cmp_rd_rs1_rs2_b0:
  sltu x0, x0, x0 # perform operation
    3f10:	00003033          	sltu	x0,x0,x0
  # Check if x0 contains the expected result. x12 is the signature ptr, x5 is the link ptr, x4 is a temp reg.
  RVTEST_SIGUPD(x12, x5, x4, x0, I_sltu_cg_cmp_rd_rs1_rs2_b0, I_sltu_cg_cmp_rd_rs1_rs2_b0_str)
    3f14:	00062203          	lw	x4,0(x12)
    3f18:	00020863          	beq	x4,x0,3f28 <I_sltu_cg_cmp_rd_rs1_rs2_b0+0x18>
    3f1c:	5e0002ef          	jal	x5,44fc <failedtest_x5_x4>
    3f20:	00003f10          	.word	0x00003f10
    3f24:	0000ea56          	.word	0x0000ea56
    3f28:	00460613          	addi	x12,x12,4

# Testcase cmp_rd_rs1_rs2 (Test rd = rs1 = rs2 = x1)
  RVTEST_TESTDATA_LOAD_INT(x11, x1) # load rs1: x1 = 0xa0e572bf
    3f2c:	0005a083          	lw	x1,0(x11)
    3f30:	00458593          	addi	x11,x11,4
  RVTEST_TESTDATA_LOAD_INT(x11, x1) # load rs2: x1 = 0x672b730c
    3f34:	0005a083          	lw	x1,0(x11)
    3f38:	00458593          	addi	x11,x11,4

00003f3c <I_sltu_cg_cmp_rd_rs1_rs2_b1>:
I_sltu_cg_cmp_rd_rs1_rs2_b1:
  sltu x1, x1, x1 # perform operation
    3f3c:	0010b0b3          	sltu	x1,x1,x1
  # Check if x1 contains the expected result. x12 is the signature ptr, x5 is the link ptr, x4 is a temp reg.
  RVTEST_SIGUPD(x12, x5, x4, x1, I_sltu_cg_cmp_rd_rs1_rs2_b1, I_sltu_cg_cmp_rd_rs1_rs2_b1_str)
    3f40:	00062203          	lw	x4,0(x12)
    3f44:	00120863          	beq	x4,x1,3f54 <I_sltu_cg_cmp_rd_rs1_rs2_b1+0x18>
    3f48:	5b4002ef          	jal	x5,44fc <failedtest_x5_x4>
    3f4c:	00003f3c          	.word	0x00003f3c
    3f50:	0000ea8e          	.word	0x0000ea8e
    3f54:	00460613          	addi	x12,x12,4

# Testcase cmp_rd_rs1_rs2 (Test rd = rs1 = rs2 = x2)
  RVTEST_TESTDATA_LOAD_INT(x11, x2) # load rs1: x2 = 0xbc378a0a
    3f58:	0005a103          	lw	x2,0(x11)
    3f5c:	00458593          	addi	x11,x11,4
  RVTEST_TESTDATA_LOAD_INT(x11, x2) # load rs2: x2 = 0x6dc65c6a
    3f60:	0005a103          	lw	x2,0(x11)
    3f64:	00458593          	addi	x11,x11,4

00003f68 <I_sltu_cg_cmp_rd_rs1_rs2_b2>:
I_sltu_cg_cmp_rd_rs1_rs2_b2:
  sltu x2, x2, x2 # perform operation
    3f68:	00213133          	sltu	x2,x2,x2
  # Check if x2 contains the expected result. x12 is the signature ptr, x5 is the link ptr, x4 is a temp reg.
  RVTEST_SIGUPD(x12, x5, x4, x2, I_sltu_cg_cmp_rd_rs1_rs2_b2, I_sltu_cg_cmp_rd_rs1_rs2_b2_str)
    3f6c:	00062203          	lw	x4,0(x12)
    3f70:	00220863          	beq	x4,x2,3f80 <I_sltu_cg_cmp_rd_rs1_rs2_b2+0x18>
    3f74:	588002ef          	jal	x5,44fc <failedtest_x5_x4>
    3f78:	00003f68          	.word	0x00003f68
    3f7c:	0000eac6          	.word	0x0000eac6
    3f80:	00460613          	addi	x12,x12,4

# Testcase cmp_rd_rs1_rs2 (Test rd = rs1 = rs2 = x3)
  RVTEST_TESTDATA_LOAD_INT(x11, x3) # load rs1: x3 = 0xec0c5358
    3f84:	0005a183          	lw	x3,0(x11)
    3f88:	00458593          	addi	x11,x11,4
  RVTEST_TESTDATA_LOAD_INT(x11, x3) # load rs2: x3 = 0x0259f636
    3f8c:	0005a183          	lw	x3,0(x11)
    3f90:	00458593          	addi	x11,x11,4

00003f94 <I_sltu_cg_cmp_rd_rs1_rs2_b3>:
I_sltu_cg_cmp_rd_rs1_rs2_b3:
  sltu x3, x3, x3 # perform operation
    3f94:	0031b1b3          	sltu	x3,x3,x3
  # Check if x3 contains the expected result. x12 is the signature ptr, x5 is the link ptr, x4 is a temp reg.
  RVTEST_SIGUPD(x12, x5, x4, x3, I_sltu_cg_cmp_rd_rs1_rs2_b3, I_sltu_cg_cmp_rd_rs1_rs2_b3_str)
    3f98:	00062203          	lw	x4,0(x12)
    3f9c:	00320863          	beq	x4,x3,3fac <I_sltu_cg_cmp_rd_rs1_rs2_b3+0x18>
    3fa0:	55c002ef          	jal	x5,44fc <failedtest_x5_x4>
    3fa4:	00003f94          	.word	0x00003f94
    3fa8:	0000eafe          	.word	0x0000eafe
    3fac:	00460613          	addi	x12,x12,4

  mv x13, x4 # switch temp register to avoid conflict with test
    3fb0:	00020693          	addi	x13,x4,0 # 0 <rvtest_entry_point>
  mv x14, x5 # switch link pointer register to avoid conflict with test
    3fb4:	00028713          	addi	x14,x5,0
# Testcase cmp_rd_rs1_rs2 (Test rd = rs1 = rs2 = x4)
  RVTEST_TESTDATA_LOAD_INT(x11, x4) # load rs1: x4 = 0xdea9be4c
    3fb8:	0005a203          	lw	x4,0(x11)
    3fbc:	00458593          	addi	x11,x11,4
  RVTEST_TESTDATA_LOAD_INT(x11, x4) # load rs2: x4 = 0x6b987de5
    3fc0:	0005a203          	lw	x4,0(x11)
    3fc4:	00458593          	addi	x11,x11,4

00003fc8 <I_sltu_cg_cmp_rd_rs1_rs2_b4>:
I_sltu_cg_cmp_rd_rs1_rs2_b4:
  sltu x4, x4, x4 # perform operation
    3fc8:	00423233          	sltu	x4,x4,x4
  # Check if x4 contains the expected result. x12 is the signature ptr, x14 is the link ptr, x13 is a temp reg.
  RVTEST_SIGUPD(x12, x14, x13, x4, I_sltu_cg_cmp_rd_rs1_rs2_b4, I_sltu_cg_cmp_rd_rs1_rs2_b4_str)
    3fcc:	00062683          	lw	x13,0(x12)
    3fd0:	00468863          	beq	x13,x4,3fe0 <I_sltu_cg_cmp_rd_rs1_rs2_b4+0x18>
    3fd4:	5680076f          	jal	x14,453c <failedtest_x14_x13>
    3fd8:	00003fc8          	.word	0x00003fc8
    3fdc:	0000eb36          	.word	0x0000eb36
    3fe0:	00460613          	addi	x12,x12,4

# Testcase cmp_rd_rs1_rs2 (Test rd = rs1 = rs2 = x5)
  RVTEST_TESTDATA_LOAD_INT(x11, x5) # load rs1: x5 = 0x5f35644a
    3fe4:	0005a283          	lw	x5,0(x11)
    3fe8:	00458593          	addi	x11,x11,4
  RVTEST_TESTDATA_LOAD_INT(x11, x5) # load rs2: x5 = 0x6fcafc61
    3fec:	0005a283          	lw	x5,0(x11)
    3ff0:	00458593          	addi	x11,x11,4

00003ff4 <I_sltu_cg_cmp_rd_rs1_rs2_b5>:
I_sltu_cg_cmp_rd_rs1_rs2_b5:
  sltu x5, x5, x5 # perform operation
    3ff4:	0052b2b3          	sltu	x5,x5,x5
  # Check if x5 contains the expected result. x12 is the signature ptr, x14 is the link ptr, x13 is a temp reg.
  RVTEST_SIGUPD(x12, x14, x13, x5, I_sltu_cg_cmp_rd_rs1_rs2_b5, I_sltu_cg_cmp_rd_rs1_rs2_b5_str)
    3ff8:	00062683          	lw	x13,0(x12)
    3ffc:	00568863          	beq	x13,x5,400c <I_sltu_cg_cmp_rd_rs1_rs2_b5+0x18>
    4000:	53c0076f          	jal	x14,453c <failedtest_x14_x13>
    4004:	00003ff4          	.word	0x00003ff4
    4008:	0000eb6e          	.word	0x0000eb6e
    400c:	00460613          	addi	x12,x12,4

# Testcase cmp_rd_rs1_rs2 (Test rd = rs1 = rs2 = x6)
  RVTEST_TESTDATA_LOAD_INT(x11, x6) # load rs1: x6 = 0xa3763b71
    4010:	0005a303          	lw	x6,0(x11)
    4014:	00458593          	addi	x11,x11,4
  RVTEST_TESTDATA_LOAD_INT(x11, x6) # load rs2: x6 = 0x3402ceb7
    4018:	0005a303          	lw	x6,0(x11)
    401c:	00458593          	addi	x11,x11,4

00004020 <I_sltu_cg_cmp_rd_rs1_rs2_b6>:
I_sltu_cg_cmp_rd_rs1_rs2_b6:
  sltu x6, x6, x6 # perform operation
    4020:	00633333          	sltu	x6,x6,x6
  # Check if x6 contains the expected result. x12 is the signature ptr, x14 is the link ptr, x13 is a temp reg.
  RVTEST_SIGUPD(x12, x14, x13, x6, I_sltu_cg_cmp_rd_rs1_rs2_b6, I_sltu_cg_cmp_rd_rs1_rs2_b6_str)
    4024:	00062683          	lw	x13,0(x12)
    4028:	00668863          	beq	x13,x6,4038 <I_sltu_cg_cmp_rd_rs1_rs2_b6+0x18>
    402c:	5100076f          	jal	x14,453c <failedtest_x14_x13>
    4030:	00004020          	.word	0x00004020
    4034:	0000eba6          	.word	0x0000eba6
    4038:	00460613          	addi	x12,x12,4

# Testcase cmp_rd_rs1_rs2 (Test rd = rs1 = rs2 = x7)
  RVTEST_TESTDATA_LOAD_INT(x11, x7) # load rs1: x7 = 0x7f294232
    403c:	0005a383          	lw	x7,0(x11)
    4040:	00458593          	addi	x11,x11,4
  RVTEST_TESTDATA_LOAD_INT(x11, x7) # load rs2: x7 = 0x5fbf480c
    4044:	0005a383          	lw	x7,0(x11)
    4048:	00458593          	addi	x11,x11,4

0000404c <I_sltu_cg_cmp_rd_rs1_rs2_b7>:
I_sltu_cg_cmp_rd_rs1_rs2_b7:
  sltu x7, x7, x7 # perform operation
    404c:	0073b3b3          	sltu	x7,x7,x7
  # Check if x7 contains the expected result. x12 is the signature ptr, x14 is the link ptr, x13 is a temp reg.
  RVTEST_SIGUPD(x12, x14, x13, x7, I_sltu_cg_cmp_rd_rs1_rs2_b7, I_sltu_cg_cmp_rd_rs1_rs2_b7_str)
    4050:	00062683          	lw	x13,0(x12)
    4054:	00768863          	beq	x13,x7,4064 <I_sltu_cg_cmp_rd_rs1_rs2_b7+0x18>
    4058:	4e40076f          	jal	x14,453c <failedtest_x14_x13>
    405c:	0000404c          	.word	0x0000404c
    4060:	0000ebde          	.word	0x0000ebde
    4064:	00460613          	addi	x12,x12,4

# Testcase cmp_rd_rs1_rs2 (Test rd = rs1 = rs2 = x8)
  RVTEST_TESTDATA_LOAD_INT(x11, x8) # load rs1: x8 = 0x0ff07e47
    4068:	0005a403          	lw	x8,0(x11)
    406c:	00458593          	addi	x11,x11,4
  RVTEST_TESTDATA_LOAD_INT(x11, x8) # load rs2: x8 = 0xdd52ffe5
    4070:	0005a403          	lw	x8,0(x11)
    4074:	00458593          	addi	x11,x11,4

00004078 <I_sltu_cg_cmp_rd_rs1_rs2_b8>:
I_sltu_cg_cmp_rd_rs1_rs2_b8:
  sltu x8, x8, x8 # perform operation
    4078:	00843433          	sltu	x8,x8,x8
  # Check if x8 contains the expected result. x12 is the signature ptr, x14 is the link ptr, x13 is a temp reg.
  RVTEST_SIGUPD(x12, x14, x13, x8, I_sltu_cg_cmp_rd_rs1_rs2_b8, I_sltu_cg_cmp_rd_rs1_rs2_b8_str)
    407c:	00062683          	lw	x13,0(x12)
    4080:	00868863          	beq	x13,x8,4090 <I_sltu_cg_cmp_rd_rs1_rs2_b8+0x18>
    4084:	4b80076f          	jal	x14,453c <failedtest_x14_x13>
    4088:	00004078          	.word	0x00004078
    408c:	0000ec16          	.word	0x0000ec16
    4090:	00460613          	addi	x12,x12,4

# Testcase cmp_rd_rs1_rs2 (Test rd = rs1 = rs2 = x9)
  RVTEST_TESTDATA_LOAD_INT(x11, x9) # load rs1: x9 = 0x32184e9a
    4094:	0005a483          	lw	x9,0(x11)
    4098:	00458593          	addi	x11,x11,4
  RVTEST_TESTDATA_LOAD_INT(x11, x9) # load rs2: x9 = 0xb560c6b4
    409c:	0005a483          	lw	x9,0(x11)
    40a0:	00458593          	addi	x11,x11,4

000040a4 <I_sltu_cg_cmp_rd_rs1_rs2_b9>:
I_sltu_cg_cmp_rd_rs1_rs2_b9:
  sltu x9, x9, x9 # perform operation
    40a4:	0094b4b3          	sltu	x9,x9,x9
  # Check if x9 contains the expected result. x12 is the signature ptr, x14 is the link ptr, x13 is a temp reg.
  RVTEST_SIGUPD(x12, x14, x13, x9, I_sltu_cg_cmp_rd_rs1_rs2_b9, I_sltu_cg_cmp_rd_rs1_rs2_b9_str)
    40a8:	00062683          	lw	x13,0(x12)
    40ac:	00968863          	beq	x13,x9,40bc <I_sltu_cg_cmp_rd_rs1_rs2_b9+0x18>
    40b0:	48c0076f          	jal	x14,453c <failedtest_x14_x13>
    40b4:	000040a4          	.word	0x000040a4
    40b8:	0000ec4e          	.word	0x0000ec4e
    40bc:	00460613          	addi	x12,x12,4

# Testcase cmp_rd_rs1_rs2 (Test rd = rs1 = rs2 = x10)
  RVTEST_TESTDATA_LOAD_INT(x11, x10) # load rs1: x10 = 0x8f79ede8
    40c0:	0005a503          	lw	x10,0(x11)
    40c4:	00458593          	addi	x11,x11,4
  RVTEST_TESTDATA_LOAD_INT(x11, x10) # load rs2: x10 = 0xa120f782
    40c8:	0005a503          	lw	x10,0(x11)
    40cc:	00458593          	addi	x11,x11,4

000040d0 <I_sltu_cg_cmp_rd_rs1_rs2_b10>:
I_sltu_cg_cmp_rd_rs1_rs2_b10:
  sltu x10, x10, x10 # perform operation
    40d0:	00a53533          	sltu	x10,x10,x10
  # Check if x10 contains the expected result. x12 is the signature ptr, x14 is the link ptr, x13 is a temp reg.
  RVTEST_SIGUPD(x12, x14, x13, x10, I_sltu_cg_cmp_rd_rs1_rs2_b10, I_sltu_cg_cmp_rd_rs1_rs2_b10_str)
    40d4:	00062683          	lw	x13,0(x12)
    40d8:	00a68863          	beq	x13,x10,40e8 <I_sltu_cg_cmp_rd_rs1_rs2_b10+0x18>
    40dc:	4600076f          	jal	x14,453c <failedtest_x14_x13>
    40e0:	000040d0          	.word	0x000040d0
    40e4:	0000ec86          	.word	0x0000ec86
    40e8:	00460613          	addi	x12,x12,4

  mv x31, x11 # switch data pointer register to avoid conflict with test
    40ec:	00058f93          	addi	x31,x11,0
# Testcase cmp_rd_rs1_rs2 (Test rd = rs1 = rs2 = x11)
  RVTEST_TESTDATA_LOAD_INT(x31, x11) # load rs1: x11 = 0x9ad63fe8
    40f0:	000fa583          	lw	x11,0(x31)
    40f4:	004f8f93          	addi	x31,x31,4
  RVTEST_TESTDATA_LOAD_INT(x31, x11) # load rs2: x11 = 0xa30801b5
    40f8:	000fa583          	lw	x11,0(x31)
    40fc:	004f8f93          	addi	x31,x31,4

00004100 <I_sltu_cg_cmp_rd_rs1_rs2_b11>:
I_sltu_cg_cmp_rd_rs1_rs2_b11:
  sltu x11, x11, x11 # perform operation
    4100:	00b5b5b3          	sltu	x11,x11,x11
  # Check if x11 contains the expected result. x12 is the signature ptr, x14 is the link ptr, x13 is a temp reg.
  RVTEST_SIGUPD(x12, x14, x13, x11, I_sltu_cg_cmp_rd_rs1_rs2_b11, I_sltu_cg_cmp_rd_rs1_rs2_b11_str)
    4104:	00062683          	lw	x13,0(x12)
    4108:	00b68863          	beq	x13,x11,4118 <I_sltu_cg_cmp_rd_rs1_rs2_b11+0x18>
    410c:	4300076f          	jal	x14,453c <failedtest_x14_x13>
    4110:	00004100          	.word	0x00004100
    4114:	0000ecbf          	.word	0x0000ecbf
    4118:	00460613          	addi	x12,x12,4

  mv x20, x12 # switch signature pointer register to avoid conflict with test
    411c:	00060a13          	addi	x20,x12,0
# Testcase cmp_rd_rs1_rs2 (Test rd = rs1 = rs2 = x12)
  RVTEST_TESTDATA_LOAD_INT(x31, x12) # load rs1: x12 = 0x576cf4d9
    4120:	000fa603          	lw	x12,0(x31)
    4124:	004f8f93          	addi	x31,x31,4
  RVTEST_TESTDATA_LOAD_INT(x31, x12) # load rs2: x12 = 0x000eb1d4
    4128:	000fa603          	lw	x12,0(x31)
    412c:	004f8f93          	addi	x31,x31,4

00004130 <I_sltu_cg_cmp_rd_rs1_rs2_b12>:
I_sltu_cg_cmp_rd_rs1_rs2_b12:
  sltu x12, x12, x12 # perform operation
    4130:	00c63633          	sltu	x12,x12,x12
  # Check if x12 contains the expected result. x20 is the signature ptr, x14 is the link ptr, x13 is a temp reg.
  RVTEST_SIGUPD(x20, x14, x13, x12, I_sltu_cg_cmp_rd_rs1_rs2_b12, I_sltu_cg_cmp_rd_rs1_rs2_b12_str)
    4134:	000a2683          	lw	x13,0(x20)
    4138:	00c68863          	beq	x13,x12,4148 <I_sltu_cg_cmp_rd_rs1_rs2_b12+0x18>
    413c:	4000076f          	jal	x14,453c <failedtest_x14_x13>
    4140:	00004130          	.word	0x00004130
    4144:	0000ecf8          	.word	0x0000ecf8
    4148:	004a0a13          	addi	x20,x20,4

  mv x4, x13 # switch temp register to avoid conflict with test
    414c:	00068213          	addi	x4,x13,0
  mv x5, x14 # switch link pointer register to avoid conflict with test
    4150:	00070293          	addi	x5,x14,0
# Testcase cmp_rd_rs1_rs2 (Test rd = rs1 = rs2 = x13)
  RVTEST_TESTDATA_LOAD_INT(x31, x13) # load rs1: x13 = 0xb406d2c9
    4154:	000fa683          	lw	x13,0(x31)
    4158:	004f8f93          	addi	x31,x31,4
  RVTEST_TESTDATA_LOAD_INT(x31, x13) # load rs2: x13 = 0x1cb986b9
    415c:	000fa683          	lw	x13,0(x31)
    4160:	004f8f93          	addi	x31,x31,4

00004164 <I_sltu_cg_cmp_rd_rs1_rs2_b13>:
I_sltu_cg_cmp_rd_rs1_rs2_b13:
  sltu x13, x13, x13 # perform operation
    4164:	00d6b6b3          	sltu	x13,x13,x13
  # Check if x13 contains the expected result. x20 is the signature ptr, x5 is the link ptr, x4 is a temp reg.
  RVTEST_SIGUPD(x20, x5, x4, x13, I_sltu_cg_cmp_rd_rs1_rs2_b13, I_sltu_cg_cmp_rd_rs1_rs2_b13_str)
    4168:	000a2203          	lw	x4,0(x20)
    416c:	00d20863          	beq	x4,x13,417c <I_sltu_cg_cmp_rd_rs1_rs2_b13+0x18>
    4170:	38c002ef          	jal	x5,44fc <failedtest_x5_x4>
    4174:	00004164          	.word	0x00004164
    4178:	0000ed31          	.word	0x0000ed31
    417c:	004a0a13          	addi	x20,x20,4

# Testcase cmp_rd_rs1_rs2 (Test rd = rs1 = rs2 = x14)
  RVTEST_TESTDATA_LOAD_INT(x31, x14) # load rs1: x14 = 0x48d2f9e2
    4180:	000fa703          	lw	x14,0(x31)
    4184:	004f8f93          	addi	x31,x31,4
  RVTEST_TESTDATA_LOAD_INT(x31, x14) # load rs2: x14 = 0x99623a7f
    4188:	000fa703          	lw	x14,0(x31)
    418c:	004f8f93          	addi	x31,x31,4

00004190 <I_sltu_cg_cmp_rd_rs1_rs2_b14>:
I_sltu_cg_cmp_rd_rs1_rs2_b14:
  sltu x14, x14, x14 # perform operation
    4190:	00e73733          	sltu	x14,x14,x14
  # Check if x14 contains the expected result. x20 is the signature ptr, x5 is the link ptr, x4 is a temp reg.
  RVTEST_SIGUPD(x20, x5, x4, x14, I_sltu_cg_cmp_rd_rs1_rs2_b14, I_sltu_cg_cmp_rd_rs1_rs2_b14_str)
    4194:	000a2203          	lw	x4,0(x20)
    4198:	00e20863          	beq	x4,x14,41a8 <I_sltu_cg_cmp_rd_rs1_rs2_b14+0x18>
    419c:	360002ef          	jal	x5,44fc <failedtest_x5_x4>
    41a0:	00004190          	.word	0x00004190
    41a4:	0000ed6a          	.word	0x0000ed6a
    41a8:	004a0a13          	addi	x20,x20,4

# Testcase cmp_rd_rs1_rs2 (Test rd = rs1 = rs2 = x15)
  RVTEST_TESTDATA_LOAD_INT(x31, x15) # load rs1: x15 = 0x210b5c60
    41ac:	000fa783          	lw	x15,0(x31)
    41b0:	004f8f93          	addi	x31,x31,4
  RVTEST_TESTDATA_LOAD_INT(x31, x15) # load rs2: x15 = 0x4e4a625e
    41b4:	000fa783          	lw	x15,0(x31)
    41b8:	004f8f93          	addi	x31,x31,4

000041bc <I_sltu_cg_cmp_rd_rs1_rs2_b15>:
I_sltu_cg_cmp_rd_rs1_rs2_b15:
  sltu x15, x15, x15 # perform operation
    41bc:	00f7b7b3          	sltu	x15,x15,x15
  # Check if x15 contains the expected result. x20 is the signature ptr, x5 is the link ptr, x4 is a temp reg.
  RVTEST_SIGUPD(x20, x5, x4, x15, I_sltu_cg_cmp_rd_rs1_rs2_b15, I_sltu_cg_cmp_rd_rs1_rs2_b15_str)
    41c0:	000a2203          	lw	x4,0(x20)
    41c4:	00f20863          	beq	x4,x15,41d4 <I_sltu_cg_cmp_rd_rs1_rs2_b15+0x18>
    41c8:	334002ef          	jal	x5,44fc <failedtest_x5_x4>
    41cc:	000041bc          	.word	0x000041bc
    41d0:	0000eda3          	.word	0x0000eda3
    41d4:	004a0a13          	addi	x20,x20,4

# Testcase cmp_rd_rs1_rs2 (Test rd = rs1 = rs2 = x16)
  RVTEST_TESTDATA_LOAD_INT(x31, x16) # load rs1: x16 = 0x73eca909
    41d8:	000fa803          	lw	x16,0(x31)
    41dc:	004f8f93          	addi	x31,x31,4
  RVTEST_TESTDATA_LOAD_INT(x31, x16) # load rs2: x16 = 0x3cdcc78a
    41e0:	000fa803          	lw	x16,0(x31)
    41e4:	004f8f93          	addi	x31,x31,4

000041e8 <I_sltu_cg_cmp_rd_rs1_rs2_b16>:
I_sltu_cg_cmp_rd_rs1_rs2_b16:
  sltu x16, x16, x16 # perform operation
    41e8:	01083833          	sltu	x16,x16,x16
  # Check if x16 contains the expected result. x20 is the signature ptr, x5 is the link ptr, x4 is a temp reg.
  RVTEST_SIGUPD(x20, x5, x4, x16, I_sltu_cg_cmp_rd_rs1_rs2_b16, I_sltu_cg_cmp_rd_rs1_rs2_b16_str)
    41ec:	000a2203          	lw	x4,0(x20)
    41f0:	01020863          	beq	x4,x16,4200 <I_sltu_cg_cmp_rd_rs1_rs2_b16+0x18>
    41f4:	308002ef          	jal	x5,44fc <failedtest_x5_x4>
    41f8:	000041e8          	.word	0x000041e8
    41fc:	0000eddc          	.word	0x0000eddc
    4200:	004a0a13          	addi	x20,x20,4

# Testcase cmp_rd_rs1_rs2 (Test rd = rs1 = rs2 = x17)
  RVTEST_TESTDATA_LOAD_INT(x31, x17) # load rs1: x17 = 0xcd6aa263
    4204:	000fa883          	lw	x17,0(x31)
    4208:	004f8f93          	addi	x31,x31,4
  RVTEST_TESTDATA_LOAD_INT(x31, x17) # load rs2: x17 = 0xcabaf7c4
    420c:	000fa883          	lw	x17,0(x31)
    4210:	004f8f93          	addi	x31,x31,4

00004214 <I_sltu_cg_cmp_rd_rs1_rs2_b17>:
I_sltu_cg_cmp_rd_rs1_rs2_b17:
  sltu x17, x17, x17 # perform operation
    4214:	0118b8b3          	sltu	x17,x17,x17
  # Check if x17 contains the expected result. x20 is the signature ptr, x5 is the link ptr, x4 is a temp reg.
  RVTEST_SIGUPD(x20, x5, x4, x17, I_sltu_cg_cmp_rd_rs1_rs2_b17, I_sltu_cg_cmp_rd_rs1_rs2_b17_str)
    4218:	000a2203          	lw	x4,0(x20)
    421c:	01120863          	beq	x4,x17,422c <I_sltu_cg_cmp_rd_rs1_rs2_b17+0x18>
    4220:	2dc002ef          	jal	x5,44fc <failedtest_x5_x4>
    4224:	00004214          	.word	0x00004214
    4228:	0000ee15          	.word	0x0000ee15
    422c:	004a0a13          	addi	x20,x20,4

# Testcase cmp_rd_rs1_rs2 (Test rd = rs1 = rs2 = x18)
  RVTEST_TESTDATA_LOAD_INT(x31, x18) # load rs1: x18 = 0x4dd30c10
    4230:	000fa903          	lw	x18,0(x31)
    4234:	004f8f93          	addi	x31,x31,4
  RVTEST_TESTDATA_LOAD_INT(x31, x18) # load rs2: x18 = 0x4dd9ed54
    4238:	000fa903          	lw	x18,0(x31)
    423c:	004f8f93          	addi	x31,x31,4

00004240 <I_sltu_cg_cmp_rd_rs1_rs2_b18>:
I_sltu_cg_cmp_rd_rs1_rs2_b18:
  sltu x18, x18, x18 # perform operation
    4240:	01293933          	sltu	x18,x18,x18
  # Check if x18 contains the expected result. x20 is the signature ptr, x5 is the link ptr, x4 is a temp reg.
  RVTEST_SIGUPD(x20, x5, x4, x18, I_sltu_cg_cmp_rd_rs1_rs2_b18, I_sltu_cg_cmp_rd_rs1_rs2_b18_str)
    4244:	000a2203          	lw	x4,0(x20)
    4248:	01220863          	beq	x4,x18,4258 <I_sltu_cg_cmp_rd_rs1_rs2_b18+0x18>
    424c:	2b0002ef          	jal	x5,44fc <failedtest_x5_x4>
    4250:	00004240          	.word	0x00004240
    4254:	0000ee4e          	.word	0x0000ee4e
    4258:	004a0a13          	addi	x20,x20,4

# Testcase cmp_rd_rs1_rs2 (Test rd = rs1 = rs2 = x19)
  RVTEST_TESTDATA_LOAD_INT(x31, x19) # load rs1: x19 = 0xea7b5421
    425c:	000fa983          	lw	x19,0(x31)
    4260:	004f8f93          	addi	x31,x31,4
  RVTEST_TESTDATA_LOAD_INT(x31, x19) # load rs2: x19 = 0x1eba66b9
    4264:	000fa983          	lw	x19,0(x31)
    4268:	004f8f93          	addi	x31,x31,4

0000426c <I_sltu_cg_cmp_rd_rs1_rs2_b19>:
I_sltu_cg_cmp_rd_rs1_rs2_b19:
  sltu x19, x19, x19 # perform operation
    426c:	0139b9b3          	sltu	x19,x19,x19
  # Check if x19 contains the expected result. x20 is the signature ptr, x5 is the link ptr, x4 is a temp reg.
  RVTEST_SIGUPD(x20, x5, x4, x19, I_sltu_cg_cmp_rd_rs1_rs2_b19, I_sltu_cg_cmp_rd_rs1_rs2_b19_str)
    4270:	000a2203          	lw	x4,0(x20)
    4274:	01320863          	beq	x4,x19,4284 <I_sltu_cg_cmp_rd_rs1_rs2_b19+0x18>
    4278:	284002ef          	jal	x5,44fc <failedtest_x5_x4>
    427c:	0000426c          	.word	0x0000426c
    4280:	0000ee87          	.word	0x0000ee87
    4284:	004a0a13          	addi	x20,x20,4

  mv x19, x20 # switch signature pointer register to avoid conflict with test
    4288:	000a0993          	addi	x19,x20,0
# Testcase cmp_rd_rs1_rs2 (Test rd = rs1 = rs2 = x20)
  RVTEST_TESTDATA_LOAD_INT(x31, x20) # load rs1: x20 = 0x126cf503
    428c:	000faa03          	lw	x20,0(x31)
    4290:	004f8f93          	addi	x31,x31,4
  RVTEST_TESTDATA_LOAD_INT(x31, x20) # load rs2: x20 = 0x3d31696d
    4294:	000faa03          	lw	x20,0(x31)
    4298:	004f8f93          	addi	x31,x31,4

0000429c <I_sltu_cg_cmp_rd_rs1_rs2_b20>:
I_sltu_cg_cmp_rd_rs1_rs2_b20:
  sltu x20, x20, x20 # perform operation
    429c:	014a3a33          	sltu	x20,x20,x20
  # Check if x20 contains the expected result. x19 is the signature ptr, x5 is the link ptr, x4 is a temp reg.
  RVTEST_SIGUPD(x19, x5, x4, x20, I_sltu_cg_cmp_rd_rs1_rs2_b20, I_sltu_cg_cmp_rd_rs1_rs2_b20_str)
    42a0:	0009a203          	lw	x4,0(x19)
    42a4:	01420863          	beq	x4,x20,42b4 <I_sltu_cg_cmp_rd_rs1_rs2_b20+0x18>
    42a8:	254002ef          	jal	x5,44fc <failedtest_x5_x4>
    42ac:	0000429c          	.word	0x0000429c
    42b0:	0000eec0          	.word	0x0000eec0
    42b4:	00498993          	addi	x19,x19,4

# Testcase cmp_rd_rs1_rs2 (Test rd = rs1 = rs2 = x21)
  RVTEST_TESTDATA_LOAD_INT(x31, x21) # load rs1: x21 = 0xf5bcb2ca
    42b8:	000faa83          	lw	x21,0(x31)
    42bc:	004f8f93          	addi	x31,x31,4
  RVTEST_TESTDATA_LOAD_INT(x31, x21) # load rs2: x21 = 0x0f412b46
    42c0:	000faa83          	lw	x21,0(x31)
    42c4:	004f8f93          	addi	x31,x31,4

000042c8 <I_sltu_cg_cmp_rd_rs1_rs2_b21>:
I_sltu_cg_cmp_rd_rs1_rs2_b21:
  sltu x21, x21, x21 # perform operation
    42c8:	015abab3          	sltu	x21,x21,x21
  # Check if x21 contains the expected result. x19 is the signature ptr, x5 is the link ptr, x4 is a temp reg.
  RVTEST_SIGUPD(x19, x5, x4, x21, I_sltu_cg_cmp_rd_rs1_rs2_b21, I_sltu_cg_cmp_rd_rs1_rs2_b21_str)
    42cc:	0009a203          	lw	x4,0(x19)
    42d0:	01520863          	beq	x4,x21,42e0 <I_sltu_cg_cmp_rd_rs1_rs2_b21+0x18>
    42d4:	228002ef          	jal	x5,44fc <failedtest_x5_x4>
    42d8:	000042c8          	.word	0x000042c8
    42dc:	0000eef9          	.word	0x0000eef9
    42e0:	00498993          	addi	x19,x19,4

# Testcase cmp_rd_rs1_rs2 (Test rd = rs1 = rs2 = x22)
  RVTEST_TESTDATA_LOAD_INT(x31, x22) # load rs1: x22 = 0x85ddb9be
    42e4:	000fab03          	lw	x22,0(x31)
    42e8:	004f8f93          	addi	x31,x31,4
  RVTEST_TESTDATA_LOAD_INT(x31, x22) # load rs2: x22 = 0xbbd09a81
    42ec:	000fab03          	lw	x22,0(x31)
    42f0:	004f8f93          	addi	x31,x31,4

000042f4 <I_sltu_cg_cmp_rd_rs1_rs2_b22>:
I_sltu_cg_cmp_rd_rs1_rs2_b22:
  sltu x22, x22, x22 # perform operation
    42f4:	016b3b33          	sltu	x22,x22,x22
  # Check if x22 contains the expected result. x19 is the signature ptr, x5 is the link ptr, x4 is a temp reg.
  RVTEST_SIGUPD(x19, x5, x4, x22, I_sltu_cg_cmp_rd_rs1_rs2_b22, I_sltu_cg_cmp_rd_rs1_rs2_b22_str)
    42f8:	0009a203          	lw	x4,0(x19)
    42fc:	01620863          	beq	x4,x22,430c <I_sltu_cg_cmp_rd_rs1_rs2_b22+0x18>
    4300:	1fc002ef          	jal	x5,44fc <failedtest_x5_x4>
    4304:	000042f4          	.word	0x000042f4
    4308:	0000ef32          	.word	0x0000ef32
    430c:	00498993          	addi	x19,x19,4

# Testcase cmp_rd_rs1_rs2 (Test rd = rs1 = rs2 = x23)
  RVTEST_TESTDATA_LOAD_INT(x31, x23) # load rs1: x23 = 0x6c6bde74
    4310:	000fab83          	lw	x23,0(x31)
    4314:	004f8f93          	addi	x31,x31,4
  RVTEST_TESTDATA_LOAD_INT(x31, x23) # load rs2: x23 = 0xa67ffa14
    4318:	000fab83          	lw	x23,0(x31)
    431c:	004f8f93          	addi	x31,x31,4

00004320 <I_sltu_cg_cmp_rd_rs1_rs2_b23>:
I_sltu_cg_cmp_rd_rs1_rs2_b23:
  sltu x23, x23, x23 # perform operation
    4320:	017bbbb3          	sltu	x23,x23,x23
  # Check if x23 contains the expected result. x19 is the signature ptr, x5 is the link ptr, x4 is a temp reg.
  RVTEST_SIGUPD(x19, x5, x4, x23, I_sltu_cg_cmp_rd_rs1_rs2_b23, I_sltu_cg_cmp_rd_rs1_rs2_b23_str)
    4324:	0009a203          	lw	x4,0(x19)
    4328:	01720863          	beq	x4,x23,4338 <I_sltu_cg_cmp_rd_rs1_rs2_b23+0x18>
    432c:	1d0002ef          	jal	x5,44fc <failedtest_x5_x4>
    4330:	00004320          	.word	0x00004320
    4334:	0000ef6b          	.word	0x0000ef6b
    4338:	00498993          	addi	x19,x19,4

# Testcase cmp_rd_rs1_rs2 (Test rd = rs1 = rs2 = x24)
  RVTEST_TESTDATA_LOAD_INT(x31, x24) # load rs1: x24 = 0x2d2ac1fb
    433c:	000fac03          	lw	x24,0(x31)
    4340:	004f8f93          	addi	x31,x31,4
  RVTEST_TESTDATA_LOAD_INT(x31, x24) # load rs2: x24 = 0xd413621c
    4344:	000fac03          	lw	x24,0(x31)
    4348:	004f8f93          	addi	x31,x31,4

0000434c <I_sltu_cg_cmp_rd_rs1_rs2_b24>:
I_sltu_cg_cmp_rd_rs1_rs2_b24:
  sltu x24, x24, x24 # perform operation
    434c:	018c3c33          	sltu	x24,x24,x24
  # Check if x24 contains the expected result. x19 is the signature ptr, x5 is the link ptr, x4 is a temp reg.
  RVTEST_SIGUPD(x19, x5, x4, x24, I_sltu_cg_cmp_rd_rs1_rs2_b24, I_sltu_cg_cmp_rd_rs1_rs2_b24_str)
    4350:	0009a203          	lw	x4,0(x19)
    4354:	01820863          	beq	x4,x24,4364 <I_sltu_cg_cmp_rd_rs1_rs2_b24+0x18>
    4358:	1a4002ef          	jal	x5,44fc <failedtest_x5_x4>
    435c:	0000434c          	.word	0x0000434c
    4360:	0000efa4          	.word	0x0000efa4
    4364:	00498993          	addi	x19,x19,4

# Testcase cmp_rd_rs1_rs2 (Test rd = rs1 = rs2 = x25)
  RVTEST_TESTDATA_LOAD_INT(x31, x25) # load rs1: x25 = 0x72062325
    4368:	000fac83          	lw	x25,0(x31)
    436c:	004f8f93          	addi	x31,x31,4
  RVTEST_TESTDATA_LOAD_INT(x31, x25) # load rs2: x25 = 0x82ee7712
    4370:	000fac83          	lw	x25,0(x31)
    4374:	004f8f93          	addi	x31,x31,4

00004378 <I_sltu_cg_cmp_rd_rs1_rs2_b25>:
I_sltu_cg_cmp_rd_rs1_rs2_b25:
  sltu x25, x25, x25 # perform operation
    4378:	019cbcb3          	sltu	x25,x25,x25
  # Check if x25 contains the expected result. x19 is the signature ptr, x5 is the link ptr, x4 is a temp reg.
  RVTEST_SIGUPD(x19, x5, x4, x25, I_sltu_cg_cmp_rd_rs1_rs2_b25, I_sltu_cg_cmp_rd_rs1_rs2_b25_str)
    437c:	0009a203          	lw	x4,0(x19)
    4380:	01920863          	beq	x4,x25,4390 <I_sltu_cg_cmp_rd_rs1_rs2_b25+0x18>
    4384:	178002ef          	jal	x5,44fc <failedtest_x5_x4>
    4388:	00004378          	.word	0x00004378
    438c:	0000efdd          	.word	0x0000efdd
    4390:	00498993          	addi	x19,x19,4

# Testcase cmp_rd_rs1_rs2 (Test rd = rs1 = rs2 = x26)
  RVTEST_TESTDATA_LOAD_INT(x31, x26) # load rs1: x26 = 0x148dd648
    4394:	000fad03          	lw	x26,0(x31)
    4398:	004f8f93          	addi	x31,x31,4
  RVTEST_TESTDATA_LOAD_INT(x31, x26) # load rs2: x26 = 0xc9f96c54
    439c:	000fad03          	lw	x26,0(x31)
    43a0:	004f8f93          	addi	x31,x31,4

000043a4 <I_sltu_cg_cmp_rd_rs1_rs2_b26>:
I_sltu_cg_cmp_rd_rs1_rs2_b26:
  sltu x26, x26, x26 # perform operation
    43a4:	01ad3d33          	sltu	x26,x26,x26
  # Check if x26 contains the expected result. x19 is the signature ptr, x5 is the link ptr, x4 is a temp reg.
  RVTEST_SIGUPD(x19, x5, x4, x26, I_sltu_cg_cmp_rd_rs1_rs2_b26, I_sltu_cg_cmp_rd_rs1_rs2_b26_str)
    43a8:	0009a203          	lw	x4,0(x19)
    43ac:	01a20863          	beq	x4,x26,43bc <I_sltu_cg_cmp_rd_rs1_rs2_b26+0x18>
    43b0:	14c002ef          	jal	x5,44fc <failedtest_x5_x4>
    43b4:	000043a4          	.word	0x000043a4
    43b8:	0000f016          	.word	0x0000f016
    43bc:	00498993          	addi	x19,x19,4

# Testcase cmp_rd_rs1_rs2 (Test rd = rs1 = rs2 = x27)
  RVTEST_TESTDATA_LOAD_INT(x31, x27) # load rs1: x27 = 0x6c68a933
    43c0:	000fad83          	lw	x27,0(x31)
    43c4:	004f8f93          	addi	x31,x31,4
  RVTEST_TESTDATA_LOAD_INT(x31, x27) # load rs2: x27 = 0x35e58e0b
    43c8:	000fad83          	lw	x27,0(x31)
    43cc:	004f8f93          	addi	x31,x31,4

000043d0 <I_sltu_cg_cmp_rd_rs1_rs2_b27>:
I_sltu_cg_cmp_rd_rs1_rs2_b27:
  sltu x27, x27, x27 # perform operation
    43d0:	01bdbdb3          	sltu	x27,x27,x27
  # Check if x27 contains the expected result. x19 is the signature ptr, x5 is the link ptr, x4 is a temp reg.
  RVTEST_SIGUPD(x19, x5, x4, x27, I_sltu_cg_cmp_rd_rs1_rs2_b27, I_sltu_cg_cmp_rd_rs1_rs2_b27_str)
    43d4:	0009a203          	lw	x4,0(x19)
    43d8:	01b20863          	beq	x4,x27,43e8 <I_sltu_cg_cmp_rd_rs1_rs2_b27+0x18>
    43dc:	120002ef          	jal	x5,44fc <failedtest_x5_x4>
    43e0:	000043d0          	.word	0x000043d0
    43e4:	0000f04f          	.word	0x0000f04f
    43e8:	00498993          	addi	x19,x19,4

# Testcase cmp_rd_rs1_rs2 (Test rd = rs1 = rs2 = x28)
  RVTEST_TESTDATA_LOAD_INT(x31, x28) # load rs1: x28 = 0xa0ad6fb2
    43ec:	000fae03          	lw	x28,0(x31)
    43f0:	004f8f93          	addi	x31,x31,4
  RVTEST_TESTDATA_LOAD_INT(x31, x28) # load rs2: x28 = 0x7a0d0154
    43f4:	000fae03          	lw	x28,0(x31)
    43f8:	004f8f93          	addi	x31,x31,4

000043fc <I_sltu_cg_cmp_rd_rs1_rs2_b28>:
I_sltu_cg_cmp_rd_rs1_rs2_b28:
  sltu x28, x28, x28 # perform operation
    43fc:	01ce3e33          	sltu	x28,x28,x28
  # Check if x28 contains the expected result. x19 is the signature ptr, x5 is the link ptr, x4 is a temp reg.
  RVTEST_SIGUPD(x19, x5, x4, x28, I_sltu_cg_cmp_rd_rs1_rs2_b28, I_sltu_cg_cmp_rd_rs1_rs2_b28_str)
    4400:	0009a203          	lw	x4,0(x19)
    4404:	01c20863          	beq	x4,x28,4414 <I_sltu_cg_cmp_rd_rs1_rs2_b28+0x18>
    4408:	0f4002ef          	jal	x5,44fc <failedtest_x5_x4>
    440c:	000043fc          	.word	0x000043fc
    4410:	0000f088          	.word	0x0000f088
    4414:	00498993          	addi	x19,x19,4

# Testcase cmp_rd_rs1_rs2 (Test rd = rs1 = rs2 = x29)
  RVTEST_TESTDATA_LOAD_INT(x31, x29) # load rs1: x29 = 0xe41935ae
    4418:	000fae83          	lw	x29,0(x31)
    441c:	004f8f93          	addi	x31,x31,4
  RVTEST_TESTDATA_LOAD_INT(x31, x29) # load rs2: x29 = 0x6b73e297
    4420:	000fae83          	lw	x29,0(x31)
    4424:	004f8f93          	addi	x31,x31,4

00004428 <I_sltu_cg_cmp_rd_rs1_rs2_b29>:
I_sltu_cg_cmp_rd_rs1_rs2_b29:
  sltu x29, x29, x29 # perform operation
    4428:	01debeb3          	sltu	x29,x29,x29
  # Check if x29 contains the expected result. x19 is the signature ptr, x5 is the link ptr, x4 is a temp reg.
  RVTEST_SIGUPD(x19, x5, x4, x29, I_sltu_cg_cmp_rd_rs1_rs2_b29, I_sltu_cg_cmp_rd_rs1_rs2_b29_str)
    442c:	0009a203          	lw	x4,0(x19)
    4430:	01d20863          	beq	x4,x29,4440 <I_sltu_cg_cmp_rd_rs1_rs2_b29+0x18>
    4434:	0c8002ef          	jal	x5,44fc <failedtest_x5_x4>
    4438:	00004428          	.word	0x00004428
    443c:	0000f0c1          	.word	0x0000f0c1
    4440:	00498993          	addi	x19,x19,4

# Testcase cmp_rd_rs1_rs2 (Test rd = rs1 = rs2 = x30)
  RVTEST_TESTDATA_LOAD_INT(x31, x30) # load rs1: x30 = 0x508971a4
    4444:	000faf03          	lw	x30,0(x31)
    4448:	004f8f93          	addi	x31,x31,4
  RVTEST_TESTDATA_LOAD_INT(x31, x30) # load rs2: x30 = 0xab507793
    444c:	000faf03          	lw	x30,0(x31)
    4450:	004f8f93          	addi	x31,x31,4

00004454 <I_sltu_cg_cmp_rd_rs1_rs2_b30>:
I_sltu_cg_cmp_rd_rs1_rs2_b30:
  sltu x30, x30, x30 # perform operation
    4454:	01ef3f33          	sltu	x30,x30,x30
  # Check if x30 contains the expected result. x19 is the signature ptr, x5 is the link ptr, x4 is a temp reg.
  RVTEST_SIGUPD(x19, x5, x4, x30, I_sltu_cg_cmp_rd_rs1_rs2_b30, I_sltu_cg_cmp_rd_rs1_rs2_b30_str)
    4458:	0009a203          	lw	x4,0(x19)
    445c:	01e20863          	beq	x4,x30,446c <I_sltu_cg_cmp_rd_rs1_rs2_b30+0x18>
    4460:	09c002ef          	jal	x5,44fc <failedtest_x5_x4>
    4464:	00004454          	.word	0x00004454
    4468:	0000f0fa          	.word	0x0000f0fa
    446c:	00498993          	addi	x19,x19,4

  mv x29, x31 # switch data pointer register to avoid conflict with test
    4470:	000f8e93          	addi	x29,x31,0
# Testcase cmp_rd_rs1_rs2 (Test rd = rs1 = rs2 = x31)
  RVTEST_TESTDATA_LOAD_INT(x29, x31) # load rs1: x31 = 0x1dac10ed
    4474:	000eaf83          	lw	x31,0(x29)
    4478:	004e8e93          	addi	x29,x29,4
  RVTEST_TESTDATA_LOAD_INT(x29, x31) # load rs2: x31 = 0x4bcdc2d3
    447c:	000eaf83          	lw	x31,0(x29)
    4480:	004e8e93          	addi	x29,x29,4

00004484 <I_sltu_cg_cmp_rd_rs1_rs2_b31>:
I_sltu_cg_cmp_rd_rs1_rs2_b31:
  sltu x31, x31, x31 # perform operation
    4484:	01ffbfb3          	sltu	x31,x31,x31
  # Check if x31 contains the expected result. x19 is the signature ptr, x5 is the link ptr, x4 is a temp reg.
  RVTEST_SIGUPD(x19, x5, x4, x31, I_sltu_cg_cmp_rd_rs1_rs2_b31, I_sltu_cg_cmp_rd_rs1_rs2_b31_str)
    4488:	0009a203          	lw	x4,0(x19)
    448c:	01f20863          	beq	x4,x31,449c <I_sltu_cg_cmp_rd_rs1_rs2_b31+0x18>
    4490:	06c002ef          	jal	x5,44fc <failedtest_x5_x4>
    4494:	00004484          	.word	0x00004484
    4498:	0000f133          	.word	0x0000f133
    449c:	00498993          	addi	x19,x19,4

  mv x2, x19 # restore signature pointer to default register for teardown
    44a0:	00098113          	addi	x2,x19,0

000044a4 <cleanup_epilogs>:
    44a4:	00000013          	addi	x0,x0,0
    44a8:	00000013          	addi	x0,x0,0
    44ac:	00000013          	addi	x0,x0,0
    44b0:	00000013          	addi	x0,x0,0
    44b4:	00000013          	addi	x0,x0,0
    44b8:	00000013          	addi	x0,x0,0
    44bc:	00000013          	addi	x0,x0,0

// Instantiate trap handlers and other epilog code, call RVMODEL_HALT at end of test
RVTEST_CODE_END
    44c0:	0000b517          	auipc	x10,0xb
    44c4:	31450513          	addi	x10,x10,788 # f7d4 <successstr>
    44c8:	00000013          	addi	x0,x0,0
    44cc:	00000013          	addi	x0,x0,0
    44d0:	00000013          	addi	x0,x0,0
    44d4:	00000013          	addi	x0,x0,0
    44d8:	00000013          	addi	x0,x0,0
    44dc:	00000013          	addi	x0,x0,0
    44e0:	0001c097          	auipc	x1,0x1c
    44e4:	d24080e7          	jalr	x1,-732(x1) # 20204 <rvmodel_io_write_str>
    44e8:	0001c097          	auipc	x1,0x1c
    44ec:	d20080e7          	jalr	x1,-736(x1) # 20208 <rvmodel_halt_pass>

000044f0 <abort_test>:
    44f0:	bad0e737          	lui	x14,0xbad0e
    44f4:	ead70713          	addi	x14,x14,-339 # bad0dead <absimm+0x4b743ba4>
    44f8:	fadff06f          	jal	x0,44a4 <cleanup_epilogs>

000044fc <failedtest_x5_x4>:
    44fc:	0000b217          	auipc	x4,0xb
    4500:	c7420213          	addi	x4,x4,-908 # f170 <begin_failure_scratch>
    4504:	02522423          	sw	x5,40(x4) # 28 <MMODE_SIG+0x25>
    4508:	00122423          	sw	x1,8(x4) # 8 <MMODE_SIG+0x5>
    450c:	00022023          	sw	x0,0(x4) # 0 <rvtest_entry_point>
    4510:	0b00006f          	jal	x0,45c0 <failedtest_saveregs>

00004514 <failedtest_x8_x7>:
    4514:	0000b397          	auipc	x7,0xb
    4518:	c5c38393          	addi	x7,x7,-932 # f170 <begin_failure_scratch>
    451c:	0483a023          	sw	x8,64(x7)
    4520:	0243a023          	sw	x4,32(x7)
    4524:	0253a423          	sw	x5,40(x7)
    4528:	0013a423          	sw	x1,8(x7)
    452c:	0003a023          	sw	x0,0(x7)
    4530:	00038213          	addi	x4,x7,0
    4534:	00040293          	addi	x5,x8,0
    4538:	0880006f          	jal	x0,45c0 <failedtest_saveregs>

0000453c <failedtest_x14_x13>:
    453c:	0000b697          	auipc	x13,0xb
    4540:	c3468693          	addi	x13,x13,-972 # f170 <begin_failure_scratch>
    4544:	06e6a823          	sw	x14,112(x13)
    4548:	0246a023          	sw	x4,32(x13)
    454c:	0256a423          	sw	x5,40(x13)
    4550:	0016a423          	sw	x1,8(x13)
    4554:	0006a023          	sw	x0,0(x13)
    4558:	00068213          	addi	x4,x13,0
    455c:	00070293          	addi	x5,x14,0
    4560:	0600006f          	jal	x0,45c0 <failedtest_saveregs>

00004564 <failedtest_trap_x7_x9>:
    4564:	0000b497          	auipc	x9,0xb
    4568:	c0c48493          	addi	x9,x9,-1012 # f170 <begin_failure_scratch>
    456c:	0674a423          	sw	x7,104(x9)
    4570:	0244a023          	sw	x4,32(x9)
    4574:	0254a423          	sw	x5,40(x9)
    4578:	0014a423          	sw	x1,8(x9)
    457c:	00300093          	addi	x1,x0,3
    4580:	0014a023          	sw	x1,0(x9)
    4584:	00048213          	addi	x4,x9,0
    4588:	00038293          	addi	x5,x7,0
    458c:	342020f3          	csrrs	x1,mcause,x0
    4590:	0000b497          	auipc	x9,0xb
    4594:	d5048493          	addi	x9,x9,-688 # f2e0 <saved_mcause>
    4598:	0014a023          	sw	x1,0(x9)
    459c:	343020f3          	csrrs	x1,mtval,x0
    45a0:	0000b497          	auipc	x9,0xb
    45a4:	d4848493          	addi	x9,x9,-696 # f2e8 <saved_mtval>
    45a8:	0014a023          	sw	x1,0(x9)
    45ac:	300020f3          	csrrs	x1,mstatus,x0
    45b0:	0000b497          	auipc	x9,0xb
    45b4:	d4048493          	addi	x9,x9,-704 # f2f0 <saved_mstatus>
    45b8:	0014a023          	sw	x1,0(x9)
    45bc:	0040006f          	jal	x0,45c0 <failedtest_saveregs>

000045c0 <failedtest_saveregs>:
    45c0:	00222823          	sw	x2,16(x4) # 10 <MMODE_SIG+0xd>
    45c4:	00322c23          	sw	x3,24(x4) # 18 <MMODE_SIG+0x15>
    45c8:	02622823          	sw	x6,48(x4) # 30 <MMODE_SIG+0x2d>
    45cc:	02722c23          	sw	x7,56(x4) # 38 <MMODE_SIG+0x35>
    45d0:	04822023          	sw	x8,64(x4) # 40 <rvtest_code_begin>
    45d4:	04922423          	sw	x9,72(x4) # 48 <rvtest_code_begin+0x8>
    45d8:	04a22823          	sw	x10,80(x4) # 50 <I_sltu_cg_cp_rs1_b0>
    45dc:	04b22c23          	sw	x11,88(x4) # 58 <I_sltu_cg_cp_rs1_b0+0x8>
    45e0:	06c22023          	sw	x12,96(x4) # 60 <I_sltu_cg_cp_rs1_b0+0x10>
    45e4:	06d22423          	sw	x13,104(x4) # 68 <I_sltu_cg_cp_rs1_b0+0x18>
    45e8:	06e22823          	sw	x14,112(x4) # 70 <I_sltu_cg_cp_rs1_b0+0x20>
    45ec:	06f22c23          	sw	x15,120(x4) # 78 <I_sltu_cg_cp_rs1_b0+0x28>
    45f0:	09022023          	sw	x16,128(x4) # 80 <I_sltu_cg_cp_rs1_b1+0x4>
    45f4:	09122423          	sw	x17,136(x4) # 88 <I_sltu_cg_cp_rs1_b1+0xc>
    45f8:	09222823          	sw	x18,144(x4) # 90 <I_sltu_cg_cp_rs1_b1+0x14>
    45fc:	09322c23          	sw	x19,152(x4) # 98 <I_sltu_cg_cp_rs1_b1+0x1c>
    4600:	0b422023          	sw	x20,160(x4) # a0 <I_sltu_cg_cp_rs1_b1+0x24>
    4604:	0b522423          	sw	x21,168(x4) # a8 <I_sltu_cg_cp_rs1_b1+0x2c>
    4608:	0b622823          	sw	x22,176(x4) # b0 <I_sltu_cg_cp_rs1_b2+0x4>
    460c:	0b722c23          	sw	x23,184(x4) # b8 <I_sltu_cg_cp_rs1_b2+0xc>
    4610:	0d822023          	sw	x24,192(x4) # c0 <I_sltu_cg_cp_rs1_b2+0x14>
    4614:	0d922423          	sw	x25,200(x4) # c8 <I_sltu_cg_cp_rs1_b2+0x1c>
    4618:	0da22823          	sw	x26,208(x4) # d0 <I_sltu_cg_cp_rs1_b2+0x24>
    461c:	0db22c23          	sw	x27,216(x4) # d8 <I_sltu_cg_cp_rs1_b2+0x2c>
    4620:	0fc22023          	sw	x28,224(x4) # e0 <I_sltu_cg_cp_rs1_b3+0x4>
    4624:	0fd22423          	sw	x29,232(x4) # e8 <I_sltu_cg_cp_rs1_b3+0xc>
    4628:	0fe22823          	sw	x30,240(x4) # f0 <I_sltu_cg_cp_rs1_b3+0x14>
    462c:	0ff22c23          	sw	x31,248(x4) # f8 <I_sltu_cg_cp_rs1_b3+0x1c>

00004630 <failedtest_saveresults>:
    4630:	0000b497          	auipc	x9,0xb
    4634:	b404a483          	lw	x9,-1216(x9) # f170 <begin_failure_scratch>
    4638:	00300513          	addi	x10,x0,3
    463c:	06a48863          	beq	x9,x10,46ac <failedtest_saveresults_trap>

00004640 <failedtest_saveresults_int>:
    4640:	ffa2d303          	lhu	x6,-6(x5)
    4644:	ff82d383          	lhu	x7,-8(x5)
    4648:	01031313          	slli	x6,x6,0x10
    464c:	00736333          	or	x6,x6,x7
    4650:	00f35393          	srli	x7,x6,0xf
    4654:	01f3f393          	andi	x7,x7,31
    4658:	01435413          	srli	x8,x6,0x14
    465c:	01f47413          	andi	x8,x8,31
    4660:	10822223          	sw	x8,260(x4) # 104 <I_sltu_cg_cp_rs1_b3+0x28>
    4664:	00341313          	slli	x6,x8,0x3
    4668:	00620333          	add	x6,x4,x6
    466c:	00032303          	lw	x6,0(x6)
    4670:	10622823          	sw	x6,272(x4) # 110 <I_sltu_cg_cp_rs1_b4>
    4674:	ff62d303          	lhu	x6,-10(x5)
    4678:	ff42d383          	lhu	x7,-12(x5)
    467c:	01031313          	slli	x6,x6,0x10
    4680:	00736333          	or	x6,x6,x7
    4684:	41435393          	srai	x7,x6,0x14
    4688:	00f35313          	srli	x6,x6,0xf
    468c:	01f37313          	andi	x6,x6,31
    4690:	00331313          	slli	x6,x6,0x3
    4694:	00620333          	add	x6,x4,x6
    4698:	00032303          	lw	x6,0(x6)
    469c:	00730333          	add	x6,x6,x7
    46a0:	00032303          	lw	x6,0(x6)
    46a4:	10622c23          	sw	x6,280(x4) # 118 <I_sltu_cg_cp_rs1_b4+0x8>
    46a8:	3d80006f          	jal	x0,4a80 <failedtest_saveresults_common>

000046ac <failedtest_saveresults_trap>:
    46ac:	0042a303          	lw	x6,4(x5)
    46b0:	0000b817          	auipc	x16,0xb
    46b4:	c1880813          	addi	x16,x16,-1000 # f2c8 <trap_diag_fail_str_ptr>
    46b8:	00682023          	sw	x6,0(x16)
    46bc:	0002a303          	lw	x6,0(x5)
    46c0:	10622423          	sw	x6,264(x4) # 108 <I_sltu_cg_cp_rs1_b3+0x2c>
    46c4:	0000b817          	auipc	x16,0xb
    46c8:	c0480813          	addi	x16,x16,-1020 # f2c8 <trap_diag_fail_str_ptr>
    46cc:	00082303          	lw	x6,0(x16)
    46d0:	0000b397          	auipc	x7,0xb
    46d4:	2cc38393          	addi	x7,x7,716 # f99c <trap_sig_offset_mismatch>
    46d8:	28730463          	beq	x6,x7,4960 <trap_diag_offset_mismatch>
    46dc:	00000413          	addi	x8,x0,0
    46e0:	0000b817          	auipc	x16,0xb
    46e4:	bc080813          	addi	x16,x16,-1088 # f2a0 <trap_diag_subtype>
    46e8:	00882023          	sw	x8,0(x16)
    46ec:	0000b397          	auipc	x7,0xb
    46f0:	31438393          	addi	x7,x7,788 # fa00 <sv_Mvect_str>
    46f4:	00731863          	bne	x6,x7,4704 <failedtest_saveresults_trap+0x58>
    46f8:	00100413          	addi	x8,x0,1
    46fc:	00000493          	addi	x9,x0,0
    4700:	2e00006f          	jal	x0,49e0 <trap_diag_field_identified>
    4704:	0000b397          	auipc	x7,0xb
    4708:	3fe38393          	addi	x7,x7,1022 # fb02 <sv_Mcause_str>
    470c:	00731863          	bne	x6,x7,471c <failedtest_saveresults_trap+0x70>
    4710:	00200413          	addi	x8,x0,2
    4714:	00000493          	addi	x9,x0,0
    4718:	2c80006f          	jal	x0,49e0 <trap_diag_field_identified>
    471c:	0000b397          	auipc	x7,0xb
    4720:	4e138393          	addi	x7,x7,1249 # fbfd <sv_Mepc_str>
    4724:	00731863          	bne	x6,x7,4734 <failedtest_saveresults_trap+0x88>
    4728:	00300413          	addi	x8,x0,3
    472c:	00000493          	addi	x9,x0,0
    4730:	2b00006f          	jal	x0,49e0 <trap_diag_field_identified>
    4734:	0000b397          	auipc	x7,0xb
    4738:	5bc38393          	addi	x7,x7,1468 # fcf0 <sv_Mtval_str>
    473c:	00731863          	bne	x6,x7,474c <failedtest_saveresults_trap+0xa0>
    4740:	00400413          	addi	x8,x0,4
    4744:	00000493          	addi	x9,x0,0
    4748:	2980006f          	jal	x0,49e0 <trap_diag_field_identified>
    474c:	0000b397          	auipc	x7,0xb
    4750:	71738393          	addi	x7,x7,1815 # fe63 <sv_Mip_str>
    4754:	00731863          	bne	x6,x7,4764 <failedtest_saveresults_trap+0xb8>
    4758:	00500413          	addi	x8,x0,5
    475c:	00000493          	addi	x9,x0,0
    4760:	2800006f          	jal	x0,49e0 <trap_diag_field_identified>
    4764:	0000b397          	auipc	x7,0xb
    4768:	68338393          	addi	x7,x7,1667 # fde7 <sv_Mtval2_str>
    476c:	00731863          	bne	x6,x7,477c <failedtest_saveresults_trap+0xd0>
    4770:	00600413          	addi	x8,x0,6
    4774:	00000493          	addi	x9,x0,0
    4778:	2680006f          	jal	x0,49e0 <trap_diag_field_identified>
    477c:	0000b397          	auipc	x7,0xb
    4780:	6a938393          	addi	x7,x7,1705 # fe25 <sv_Mtinst_str>
    4784:	00731863          	bne	x6,x7,4794 <failedtest_saveresults_trap+0xe8>
    4788:	00700413          	addi	x8,x0,7
    478c:	00000493          	addi	x9,x0,0
    4790:	2500006f          	jal	x0,49e0 <trap_diag_field_identified>
    4794:	0000b397          	auipc	x7,0xb
    4798:	2ac38393          	addi	x7,x7,684 # fa40 <sv_Svect_str>
    479c:	00731863          	bne	x6,x7,47ac <failedtest_saveresults_trap+0x100>
    47a0:	00100413          	addi	x8,x0,1
    47a4:	00100493          	addi	x9,x0,1
    47a8:	2380006f          	jal	x0,49e0 <trap_diag_field_identified>
    47ac:	0000b397          	auipc	x7,0xb
    47b0:	39438393          	addi	x7,x7,916 # fb40 <sv_Scause_str>
    47b4:	00731863          	bne	x6,x7,47c4 <failedtest_saveresults_trap+0x118>
    47b8:	00200413          	addi	x8,x0,2
    47bc:	00100493          	addi	x9,x0,1
    47c0:	2200006f          	jal	x0,49e0 <trap_diag_field_identified>
    47c4:	0000b397          	auipc	x7,0xb
    47c8:	47538393          	addi	x7,x7,1141 # fc39 <sv_Sepc_str>
    47cc:	00731863          	bne	x6,x7,47dc <failedtest_saveresults_trap+0x130>
    47d0:	00300413          	addi	x8,x0,3
    47d4:	00100493          	addi	x9,x0,1
    47d8:	2080006f          	jal	x0,49e0 <trap_diag_field_identified>
    47dc:	0000b397          	auipc	x7,0xb
    47e0:	55138393          	addi	x7,x7,1361 # fd2d <sv_Stval_str>
    47e4:	00731863          	bne	x6,x7,47f4 <failedtest_saveresults_trap+0x148>
    47e8:	00400413          	addi	x8,x0,4
    47ec:	00100493          	addi	x9,x0,1
    47f0:	1f00006f          	jal	x0,49e0 <trap_diag_field_identified>
    47f4:	0000b397          	auipc	x7,0xb
    47f8:	6aa38393          	addi	x7,x7,1706 # fe9e <sv_Sip_str>
    47fc:	00731863          	bne	x6,x7,480c <failedtest_saveresults_trap+0x160>
    4800:	00500413          	addi	x8,x0,5
    4804:	00100493          	addi	x9,x0,1
    4808:	1d80006f          	jal	x0,49e0 <trap_diag_field_identified>
    480c:	0000b397          	auipc	x7,0xb
    4810:	27438393          	addi	x7,x7,628 # fa80 <sv_Hvect_str>
    4814:	00731863          	bne	x6,x7,4824 <failedtest_saveresults_trap+0x178>
    4818:	00100413          	addi	x8,x0,1
    481c:	00200493          	addi	x9,x0,2
    4820:	1c00006f          	jal	x0,49e0 <trap_diag_field_identified>
    4824:	0000b397          	auipc	x7,0xb
    4828:	35a38393          	addi	x7,x7,858 # fb7e <sv_Hcause_str>
    482c:	00731863          	bne	x6,x7,483c <failedtest_saveresults_trap+0x190>
    4830:	00200413          	addi	x8,x0,2
    4834:	00200493          	addi	x9,x0,2
    4838:	1a80006f          	jal	x0,49e0 <trap_diag_field_identified>
    483c:	0000b397          	auipc	x7,0xb
    4840:	43938393          	addi	x7,x7,1081 # fc75 <sv_Hepc_str>
    4844:	00731863          	bne	x6,x7,4854 <failedtest_saveresults_trap+0x1a8>
    4848:	00300413          	addi	x8,x0,3
    484c:	00200493          	addi	x9,x0,2
    4850:	1900006f          	jal	x0,49e0 <trap_diag_field_identified>
    4854:	0000b397          	auipc	x7,0xb
    4858:	51638393          	addi	x7,x7,1302 # fd6a <sv_Htval_str>
    485c:	00731863          	bne	x6,x7,486c <failedtest_saveresults_trap+0x1c0>
    4860:	00400413          	addi	x8,x0,4
    4864:	00200493          	addi	x9,x0,2
    4868:	1780006f          	jal	x0,49e0 <trap_diag_field_identified>
    486c:	0000b397          	auipc	x7,0xb
    4870:	66d38393          	addi	x7,x7,1645 # fed9 <sv_Hip_str>
    4874:	00731863          	bne	x6,x7,4884 <failedtest_saveresults_trap+0x1d8>
    4878:	00500413          	addi	x8,x0,5
    487c:	00200493          	addi	x9,x0,2
    4880:	1600006f          	jal	x0,49e0 <trap_diag_field_identified>
    4884:	0000b397          	auipc	x7,0xb
    4888:	23d38393          	addi	x7,x7,573 # fac1 <sv_Vvect_str>
    488c:	00731863          	bne	x6,x7,489c <failedtest_saveresults_trap+0x1f0>
    4890:	00100413          	addi	x8,x0,1
    4894:	00300493          	addi	x9,x0,3
    4898:	1480006f          	jal	x0,49e0 <trap_diag_field_identified>
    489c:	0000b397          	auipc	x7,0xb
    48a0:	32138393          	addi	x7,x7,801 # fbbd <sv_Vcause_str>
    48a4:	00731863          	bne	x6,x7,48b4 <failedtest_saveresults_trap+0x208>
    48a8:	00200413          	addi	x8,x0,2
    48ac:	00300493          	addi	x9,x0,3
    48b0:	1300006f          	jal	x0,49e0 <trap_diag_field_identified>
    48b4:	0000b397          	auipc	x7,0xb
    48b8:	3fe38393          	addi	x7,x7,1022 # fcb2 <sv_Vepc_str>
    48bc:	00731863          	bne	x6,x7,48cc <failedtest_saveresults_trap+0x220>
    48c0:	00300413          	addi	x8,x0,3
    48c4:	00300493          	addi	x9,x0,3
    48c8:	1180006f          	jal	x0,49e0 <trap_diag_field_identified>
    48cc:	0000b397          	auipc	x7,0xb
    48d0:	4dc38393          	addi	x7,x7,1244 # fda8 <sv_Vtval_str>
    48d4:	00731863          	bne	x6,x7,48e4 <failedtest_saveresults_trap+0x238>
    48d8:	00400413          	addi	x8,x0,4
    48dc:	00300493          	addi	x9,x0,3
    48e0:	1000006f          	jal	x0,49e0 <trap_diag_field_identified>
    48e4:	0000b397          	auipc	x7,0xb
    48e8:	63138393          	addi	x7,x7,1585 # ff15 <sv_Vip_str>
    48ec:	00731863          	bne	x6,x7,48fc <failedtest_saveresults_trap+0x250>
    48f0:	00500413          	addi	x8,x0,5
    48f4:	00300493          	addi	x9,x0,3
    48f8:	0e80006f          	jal	x0,49e0 <trap_diag_field_identified>
    48fc:	0000b397          	auipc	x7,0xb
    4900:	65638393          	addi	x7,x7,1622 # ff52 <Mclr_Mext_int_str>
    4904:	00731863          	bne	x6,x7,4914 <failedtest_saveresults_trap+0x268>
    4908:	00800413          	addi	x8,x0,8
    490c:	00000493          	addi	x9,x0,0
    4910:	0d00006f          	jal	x0,49e0 <trap_diag_field_identified>
    4914:	0000b397          	auipc	x7,0xb
    4918:	68d38393          	addi	x7,x7,1677 # ffa1 <Mclr_Sext_int_str>
    491c:	00731863          	bne	x6,x7,492c <failedtest_saveresults_trap+0x280>
    4920:	00800413          	addi	x8,x0,8
    4924:	00000493          	addi	x9,x0,0
    4928:	0b80006f          	jal	x0,49e0 <trap_diag_field_identified>
    492c:	0000b397          	auipc	x7,0xb
    4930:	77038393          	addi	x7,x7,1904 # 1009c <Sclr_Sext_int_str>
    4934:	00731863          	bne	x6,x7,4944 <failedtest_saveresults_trap+0x298>
    4938:	00800413          	addi	x8,x0,8
    493c:	00100493          	addi	x9,x0,1
    4940:	0a00006f          	jal	x0,49e0 <trap_diag_field_identified>
    4944:	0000c397          	auipc	x7,0xc
    4948:	85438393          	addi	x7,x7,-1964 # 10198 <Hclr_Sext_int_str>
    494c:	00731863          	bne	x6,x7,495c <failedtest_saveresults_trap+0x2b0>
    4950:	00800413          	addi	x8,x0,8
    4954:	00200493          	addi	x9,x0,2
    4958:	0880006f          	jal	x0,49e0 <trap_diag_field_identified>
    495c:	1140006f          	jal	x0,4a70 <trap_diag_generic_report>

00004960 <trap_diag_offset_mismatch>:
    4960:	00900413          	addi	x8,x0,9
    4964:	0000b817          	auipc	x16,0xb
    4968:	93c80813          	addi	x16,x16,-1732 # f2a0 <trap_diag_subtype>
    496c:	00882023          	sw	x8,0(x16)
    4970:	ffa2d303          	lhu	x6,-6(x5)
    4974:	ff82d383          	lhu	x7,-8(x5)
    4978:	01031313          	slli	x6,x6,0x10
    497c:	00736333          	or	x6,x6,x7
    4980:	01435413          	srli	x8,x6,0x14
    4984:	01f47413          	andi	x8,x8,31
    4988:	00341313          	slli	x6,x8,0x3
    498c:	00620333          	add	x6,x4,x6
    4990:	00032303          	lw	x6,0(x6)
    4994:	0000b817          	auipc	x16,0xb
    4998:	92480813          	addi	x16,x16,-1756 # f2b8 <trap_diag_actual_offset>
    499c:	00682023          	sw	x6,0(x16)
    49a0:	ff62d303          	lhu	x6,-10(x5)
    49a4:	ff42d383          	lhu	x7,-12(x5)
    49a8:	01031313          	slli	x6,x6,0x10
    49ac:	00736333          	or	x6,x6,x7
    49b0:	41435393          	srai	x7,x6,0x14
    49b4:	00f35313          	srli	x6,x6,0xf
    49b8:	01f37313          	andi	x6,x6,31
    49bc:	00331313          	slli	x6,x6,0x3
    49c0:	00620333          	add	x6,x4,x6
    49c4:	00032303          	lw	x6,0(x6)
    49c8:	00730333          	add	x6,x6,x7
    49cc:	00032303          	lw	x6,0(x6)
    49d0:	0000b817          	auipc	x16,0xb
    49d4:	8f080813          	addi	x16,x16,-1808 # f2c0 <trap_diag_expected_offset>
    49d8:	00682023          	sw	x6,0(x16)
    49dc:	0a40006f          	jal	x0,4a80 <failedtest_saveresults_common>

000049e0 <trap_diag_field_identified>:
    49e0:	0000b817          	auipc	x16,0xb
    49e4:	8c080813          	addi	x16,x16,-1856 # f2a0 <trap_diag_subtype>
    49e8:	00882023          	sw	x8,0(x16)
    49ec:	0000b817          	auipc	x16,0xb
    49f0:	8b880813          	addi	x16,x16,-1864 # f2a4 <trap_diag_mode>
    49f4:	00982023          	sw	x9,0(x16)
    49f8:	ffa2d303          	lhu	x6,-6(x5)
    49fc:	ff82d383          	lhu	x7,-8(x5)
    4a00:	01031313          	slli	x6,x6,0x10
    4a04:	00736333          	or	x6,x6,x7
    4a08:	01435713          	srli	x14,x6,0x14
    4a0c:	01f77713          	andi	x14,x14,31
    4a10:	00371313          	slli	x6,x14,0x3
    4a14:	00620333          	add	x6,x4,x6
    4a18:	00032303          	lw	x6,0(x6)
    4a1c:	10622823          	sw	x6,272(x4) # 110 <I_sltu_cg_cp_rs1_b4>
    4a20:	0000b817          	auipc	x16,0xb
    4a24:	88880813          	addi	x16,x16,-1912 # f2a8 <trap_diag_actual_value>
    4a28:	00682023          	sw	x6,0(x16)
    4a2c:	ff62d303          	lhu	x6,-10(x5)
    4a30:	ff42d383          	lhu	x7,-12(x5)
    4a34:	01031313          	slli	x6,x6,0x10
    4a38:	00736333          	or	x6,x6,x7
    4a3c:	41435393          	srai	x7,x6,0x14
    4a40:	00f35313          	srli	x6,x6,0xf
    4a44:	01f37313          	andi	x6,x6,31
    4a48:	00331313          	slli	x6,x6,0x3
    4a4c:	00620333          	add	x6,x4,x6
    4a50:	00032303          	lw	x6,0(x6)
    4a54:	00730333          	add	x6,x6,x7
    4a58:	00032303          	lw	x6,0(x6)
    4a5c:	10622c23          	sw	x6,280(x4) # 118 <I_sltu_cg_cp_rs1_b4+0x8>
    4a60:	0000b817          	auipc	x16,0xb
    4a64:	85080813          	addi	x16,x16,-1968 # f2b0 <trap_diag_expected_value>
    4a68:	00682023          	sw	x6,0(x16)
    4a6c:	0140006f          	jal	x0,4a80 <failedtest_saveresults_common>

00004a70 <trap_diag_generic_report>:
    4a70:	0000b817          	auipc	x16,0xb
    4a74:	83080813          	addi	x16,x16,-2000 # f2a0 <trap_diag_subtype>
    4a78:	00082023          	sw	x0,0(x16)
    4a7c:	0040006f          	jal	x0,4a80 <failedtest_saveresults_common>

00004a80 <failedtest_saveresults_common>:
    4a80:	0002a303          	lw	x6,0(x5)
    4a84:	10622423          	sw	x6,264(x4) # 108 <I_sltu_cg_cp_rs1_b3+0x2c>
    4a88:	00035383          	lhu	x7,0(x6)
    4a8c:	0033f413          	andi	x8,x7,3
    4a90:	00300493          	addi	x9,x0,3
    4a94:	00941863          	bne	x8,x9,4aa4 <failedtest_saveresults_common+0x24>
    4a98:	00235403          	lhu	x8,2(x6)
    4a9c:	01041413          	slli	x8,x8,0x10
    4aa0:	0083e3b3          	or	x7,x7,x8
    4aa4:	10722023          	sw	x7,256(x4) # 100 <I_sltu_cg_cp_rs1_b3+0x24>
    4aa8:	0042a303          	lw	x6,4(x5)
    4aac:	12622023          	sw	x6,288(x4) # 120 <I_sltu_cg_cp_rs1_b4+0x10>

00004ab0 <failedtest_report>:
    4ab0:	00000013          	addi	x0,x0,0
    4ab4:	00000013          	addi	x0,x0,0
    4ab8:	00000013          	addi	x0,x0,0
    4abc:	00000013          	addi	x0,x0,0
    4ac0:	0000b517          	auipc	x10,0xb
    4ac4:	d4b50513          	addi	x10,x10,-693 # f80b <failstr>
    4ac8:	00000013          	addi	x0,x0,0
    4acc:	00000013          	addi	x0,x0,0
    4ad0:	00000013          	addi	x0,x0,0
    4ad4:	00000013          	addi	x0,x0,0
    4ad8:	00000013          	addi	x0,x0,0
    4adc:	00000013          	addi	x0,x0,0
    4ae0:	0001b097          	auipc	x1,0x1b
    4ae4:	724080e7          	jalr	x1,1828(x1) # 20204 <rvmodel_io_write_str>

00004ae8 <print_testnamestr>:
    4ae8:	00000013          	addi	x0,x0,0
    4aec:	00000013          	addi	x0,x0,0
    4af0:	00000013          	addi	x0,x0,0
    4af4:	00000013          	addi	x0,x0,0
    4af8:	00000013          	addi	x0,x0,0
    4afc:	00000013          	addi	x0,x0,0
    4b00:	0000b517          	auipc	x10,0xb
    4b04:	d9f50513          	addi	x10,x10,-609 # f89f <testnamestr>
    4b08:	00000013          	addi	x0,x0,0
    4b0c:	00000013          	addi	x0,x0,0
    4b10:	00000013          	addi	x0,x0,0
    4b14:	00000013          	addi	x0,x0,0
    4b18:	00000013          	addi	x0,x0,0
    4b1c:	00000013          	addi	x0,x0,0
    4b20:	0001b097          	auipc	x1,0x1b
    4b24:	6e4080e7          	jalr	x1,1764(x1) # 20204 <rvmodel_io_write_str>

00004b28 <print_failure_test_name_str>:
    4b28:	0000a517          	auipc	x10,0xa
    4b2c:	76852503          	lw	x10,1896(x10) # f290 <failure_string_ptr>
    4b30:	0001b097          	auipc	x1,0x1b
    4b34:	6d4080e7          	jalr	x1,1748(x1) # 20204 <rvmodel_io_write_str>

00004b38 <print_newline_str>:
    4b38:	00000013          	addi	x0,x0,0
    4b3c:	00000013          	addi	x0,x0,0
    4b40:	0000b517          	auipc	x10,0xb
    4b44:	d7150513          	addi	x10,x10,-655 # f8b1 <newlinestr>
    4b48:	00000013          	addi	x0,x0,0
    4b4c:	00000013          	addi	x0,x0,0
    4b50:	00000013          	addi	x0,x0,0
    4b54:	00000013          	addi	x0,x0,0
    4b58:	00000013          	addi	x0,x0,0
    4b5c:	00000013          	addi	x0,x0,0
    4b60:	0001b097          	auipc	x1,0x1b
    4b64:	6a4080e7          	jalr	x1,1700(x1) # 20204 <rvmodel_io_write_str>
    4b68:	0000a517          	auipc	x10,0xa
    4b6c:	60852503          	lw	x10,1544(x10) # f170 <begin_failure_scratch>
    4b70:	00300593          	addi	x11,x0,3
    4b74:	3eb50c63          	beq	x10,x11,4f6c <failedtest_report_trap_detailed>
    4b78:	00000013          	addi	x0,x0,0
    4b7c:	00000013          	addi	x0,x0,0
    4b80:	0000b517          	auipc	x10,0xb
    4b84:	d3350513          	addi	x10,x10,-717 # f8b3 <inststr>
    4b88:	00000013          	addi	x0,x0,0
    4b8c:	00000013          	addi	x0,x0,0
    4b90:	00000013          	addi	x0,x0,0
    4b94:	00000013          	addi	x0,x0,0
    4b98:	00000013          	addi	x0,x0,0
    4b9c:	00000013          	addi	x0,x0,0
    4ba0:	0001b097          	auipc	x1,0x1b
    4ba4:	664080e7          	jalr	x1,1636(x1) # 20204 <rvmodel_io_write_str>
    4ba8:	0000a517          	auipc	x10,0xa
    4bac:	6c852503          	lw	x10,1736(x10) # f270 <failing_instruction>
    4bb0:	02000593          	addi	x11,x0,32
    4bb4:	00357613          	andi	x12,x10,3
    4bb8:	00300693          	addi	x13,x0,3
    4bbc:	00d60463          	beq	x12,x13,4bc4 <print_newline_str+0x8c>
    4bc0:	01000593          	addi	x11,x0,16
    4bc4:	2f4010ef          	jal	x1,5eb8 <failedtest_hex_to_str>
    4bc8:	00000013          	addi	x0,x0,0
    4bcc:	00000013          	addi	x0,x0,0
    4bd0:	00000013          	addi	x0,x0,0
    4bd4:	00000013          	addi	x0,x0,0
    4bd8:	00000013          	addi	x0,x0,0
    4bdc:	00000013          	addi	x0,x0,0
    4be0:	0000a517          	auipc	x10,0xa
    4be4:	71850513          	addi	x10,x10,1816 # f2f8 <ascii_buffer>
    4be8:	00000013          	addi	x0,x0,0
    4bec:	00000013          	addi	x0,x0,0
    4bf0:	00000013          	addi	x0,x0,0
    4bf4:	00000013          	addi	x0,x0,0
    4bf8:	00000013          	addi	x0,x0,0
    4bfc:	00000013          	addi	x0,x0,0
    4c00:	0001b097          	auipc	x1,0x1b
    4c04:	604080e7          	jalr	x1,1540(x1) # 20204 <rvmodel_io_write_str>
    4c08:	00000013          	addi	x0,x0,0
    4c0c:	00000013          	addi	x0,x0,0
    4c10:	00000013          	addi	x0,x0,0
    4c14:	00000013          	addi	x0,x0,0
    4c18:	00000013          	addi	x0,x0,0
    4c1c:	00000013          	addi	x0,x0,0
    4c20:	0000b517          	auipc	x10,0xb
    4c24:	ca750513          	addi	x10,x10,-857 # f8c7 <addrstr>
    4c28:	00000013          	addi	x0,x0,0
    4c2c:	00000013          	addi	x0,x0,0
    4c30:	00000013          	addi	x0,x0,0
    4c34:	00000013          	addi	x0,x0,0
    4c38:	00000013          	addi	x0,x0,0
    4c3c:	00000013          	addi	x0,x0,0
    4c40:	0001b097          	auipc	x1,0x1b
    4c44:	5c4080e7          	jalr	x1,1476(x1) # 20204 <rvmodel_io_write_str>
    4c48:	0000a517          	auipc	x10,0xa
    4c4c:	63052503          	lw	x10,1584(x10) # f278 <failing_addr>
    4c50:	02000593          	addi	x11,x0,32
    4c54:	264010ef          	jal	x1,5eb8 <failedtest_hex_to_str>
    4c58:	00000013          	addi	x0,x0,0
    4c5c:	00000013          	addi	x0,x0,0
    4c60:	0000a517          	auipc	x10,0xa
    4c64:	69850513          	addi	x10,x10,1688 # f2f8 <ascii_buffer>
    4c68:	00000013          	addi	x0,x0,0
    4c6c:	00000013          	addi	x0,x0,0
    4c70:	00000013          	addi	x0,x0,0
    4c74:	00000013          	addi	x0,x0,0
    4c78:	00000013          	addi	x0,x0,0
    4c7c:	00000013          	addi	x0,x0,0
    4c80:	0001b097          	auipc	x1,0x1b
    4c84:	584080e7          	jalr	x1,1412(x1) # 20204 <rvmodel_io_write_str>
    4c88:	00000013          	addi	x0,x0,0
    4c8c:	00000013          	addi	x0,x0,0
    4c90:	00000013          	addi	x0,x0,0
    4c94:	00000013          	addi	x0,x0,0
    4c98:	00000013          	addi	x0,x0,0
    4c9c:	00000013          	addi	x0,x0,0
    4ca0:	0000b517          	auipc	x10,0xb
    4ca4:	6a450513          	addi	x10,x10,1700 # 10344 <regstr>
    4ca8:	00000013          	addi	x0,x0,0
    4cac:	00000013          	addi	x0,x0,0
    4cb0:	00000013          	addi	x0,x0,0
    4cb4:	00000013          	addi	x0,x0,0
    4cb8:	00000013          	addi	x0,x0,0
    4cbc:	00000013          	addi	x0,x0,0
    4cc0:	0001b097          	auipc	x1,0x1b
    4cc4:	544080e7          	jalr	x1,1348(x1) # 20204 <rvmodel_io_write_str>
    4cc8:	0000a517          	auipc	x10,0xa
    4ccc:	4a852503          	lw	x10,1192(x10) # f170 <begin_failure_scratch>
    4cd0:	00050663          	beq	x10,x0,4cdc <print_newline_str+0x1a4>
    4cd4:	00300593          	addi	x11,x0,3
    4cd8:	04b51063          	bne	x10,x11,4d18 <failedtest_report_not_intreg>
    4cdc:	07800593          	addi	x11,x0,120
    4ce0:	0000a617          	auipc	x12,0xa
    4ce4:	61860613          	addi	x12,x12,1560 # f2f8 <ascii_buffer>
    4ce8:	00000013          	addi	x0,x0,0
    4cec:	00000013          	addi	x0,x0,0
    4cf0:	00000013          	addi	x0,x0,0
    4cf4:	00000013          	addi	x0,x0,0
    4cf8:	00000013          	addi	x0,x0,0
    4cfc:	00000013          	addi	x0,x0,0
    4d00:	00b60023          	sb	x11,0(x12)
    4d04:	00160613          	addi	x12,x12,1
    4d08:	0000a517          	auipc	x10,0xa
    4d0c:	56c52503          	lw	x10,1388(x10) # f274 <failing_reg>
    4d10:	224010ef          	jal	x1,5f34 <failedtest_dec_to_str>
    4d14:	0e00006f          	jal	x0,4df4 <failedtest_report_print_regstr>

00004d18 <failedtest_report_not_intreg>:
    4d18:	00100593          	addi	x11,x0,1
    4d1c:	04b50863          	beq	x10,x11,4d6c <failedtest_report_fpreg>
    4d20:	00400593          	addi	x11,x0,4
    4d24:	08b50a63          	beq	x10,x11,4db8 <failedtest_report_vecreg>
    4d28:	00000013          	addi	x0,x0,0
    4d2c:	00000013          	addi	x0,x0,0
    4d30:	00000013          	addi	x0,x0,0
    4d34:	00000013          	addi	x0,x0,0
    4d38:	00000013          	addi	x0,x0,0
    4d3c:	00000013          	addi	x0,x0,0
    4d40:	0000b517          	auipc	x10,0xb
    4d44:	66450513          	addi	x10,x10,1636 # 103a4 <fflagsstr>
    4d48:	00000013          	addi	x0,x0,0
    4d4c:	00000013          	addi	x0,x0,0
    4d50:	00000013          	addi	x0,x0,0
    4d54:	00000013          	addi	x0,x0,0
    4d58:	00000013          	addi	x0,x0,0
    4d5c:	00000013          	addi	x0,x0,0
    4d60:	0001b097          	auipc	x1,0x1b
    4d64:	4a4080e7          	jalr	x1,1188(x1) # 20204 <rvmodel_io_write_str>
    4d68:	0c00006f          	jal	x0,4e28 <failedtest_report_after_reg>

00004d6c <failedtest_report_fpreg>:
    4d6c:	06600593          	addi	x11,x0,102
    4d70:	00000013          	addi	x0,x0,0
    4d74:	00000013          	addi	x0,x0,0
    4d78:	00000013          	addi	x0,x0,0
    4d7c:	00000013          	addi	x0,x0,0
    4d80:	0000a617          	auipc	x12,0xa
    4d84:	57860613          	addi	x12,x12,1400 # f2f8 <ascii_buffer>
    4d88:	00000013          	addi	x0,x0,0
    4d8c:	00000013          	addi	x0,x0,0
    4d90:	00000013          	addi	x0,x0,0
    4d94:	00000013          	addi	x0,x0,0
    4d98:	00000013          	addi	x0,x0,0
    4d9c:	00000013          	addi	x0,x0,0
    4da0:	00b60023          	sb	x11,0(x12)
    4da4:	00160613          	addi	x12,x12,1
    4da8:	0000a517          	auipc	x10,0xa
    4dac:	4cc52503          	lw	x10,1228(x10) # f274 <failing_reg>
    4db0:	184010ef          	jal	x1,5f34 <failedtest_dec_to_str>
    4db4:	0400006f          	jal	x0,4df4 <failedtest_report_print_regstr>

00004db8 <failedtest_report_vecreg>:
    4db8:	07600593          	addi	x11,x0,118
    4dbc:	00000013          	addi	x0,x0,0
    4dc0:	0000a617          	auipc	x12,0xa
    4dc4:	53860613          	addi	x12,x12,1336 # f2f8 <ascii_buffer>
    4dc8:	00000013          	addi	x0,x0,0
    4dcc:	00000013          	addi	x0,x0,0
    4dd0:	00000013          	addi	x0,x0,0
    4dd4:	00000013          	addi	x0,x0,0
    4dd8:	00000013          	addi	x0,x0,0
    4ddc:	00000013          	addi	x0,x0,0
    4de0:	00b60023          	sb	x11,0(x12)
    4de4:	00160613          	addi	x12,x12,1
    4de8:	0000a517          	auipc	x10,0xa
    4dec:	48c52503          	lw	x10,1164(x10) # f274 <failing_reg>
    4df0:	144010ef          	jal	x1,5f34 <failedtest_dec_to_str>

00004df4 <failedtest_report_print_regstr>:
    4df4:	00000013          	addi	x0,x0,0
    4df8:	00000013          	addi	x0,x0,0
    4dfc:	00000013          	addi	x0,x0,0
    4e00:	0000a517          	auipc	x10,0xa
    4e04:	4f850513          	addi	x10,x10,1272 # f2f8 <ascii_buffer>
    4e08:	00000013          	addi	x0,x0,0
    4e0c:	00000013          	addi	x0,x0,0
    4e10:	00000013          	addi	x0,x0,0
    4e14:	00000013          	addi	x0,x0,0
    4e18:	00000013          	addi	x0,x0,0
    4e1c:	00000013          	addi	x0,x0,0
    4e20:	0001b097          	auipc	x1,0x1b
    4e24:	3e4080e7          	jalr	x1,996(x1) # 20204 <rvmodel_io_write_str>

00004e28 <failedtest_report_after_reg>:
    4e28:	00000013          	addi	x0,x0,0
    4e2c:	00000013          	addi	x0,x0,0
    4e30:	00000013          	addi	x0,x0,0
    4e34:	00000013          	addi	x0,x0,0
    4e38:	00000013          	addi	x0,x0,0
    4e3c:	00000013          	addi	x0,x0,0
    4e40:	0000b517          	auipc	x10,0xb
    4e44:	51550513          	addi	x10,x10,1301 # 10355 <badvalstr>
    4e48:	00000013          	addi	x0,x0,0
    4e4c:	00000013          	addi	x0,x0,0
    4e50:	00000013          	addi	x0,x0,0
    4e54:	00000013          	addi	x0,x0,0
    4e58:	00000013          	addi	x0,x0,0
    4e5c:	00000013          	addi	x0,x0,0
    4e60:	0001b097          	auipc	x1,0x1b
    4e64:	3a4080e7          	jalr	x1,932(x1) # 20204 <rvmodel_io_write_str>
    4e68:	0000a517          	auipc	x10,0xa
    4e6c:	30852503          	lw	x10,776(x10) # f170 <begin_failure_scratch>
    4e70:	00100593          	addi	x11,x0,1
    4e74:	00b51c63          	bne	x10,x11,4e8c <failedtest_report_badval_not_fp>
    4e78:	0000a517          	auipc	x10,0xa
    4e7c:	40852503          	lw	x10,1032(x10) # f280 <failing_value>
    4e80:	02000593          	addi	x11,x0,32
    4e84:	034010ef          	jal	x1,5eb8 <failedtest_hex_to_str>
    4e88:	0140006f          	jal	x0,4e9c <failedtest_report_badval_done>

00004e8c <failedtest_report_badval_not_fp>:
    4e8c:	0000a517          	auipc	x10,0xa
    4e90:	3f452503          	lw	x10,1012(x10) # f280 <failing_value>
    4e94:	02000593          	addi	x11,x0,32
    4e98:	020010ef          	jal	x1,5eb8 <failedtest_hex_to_str>

00004e9c <failedtest_report_badval_done>:
    4e9c:	00000013          	addi	x0,x0,0
    4ea0:	0000a517          	auipc	x10,0xa
    4ea4:	45850513          	addi	x10,x10,1112 # f2f8 <ascii_buffer>
    4ea8:	00000013          	addi	x0,x0,0
    4eac:	00000013          	addi	x0,x0,0
    4eb0:	00000013          	addi	x0,x0,0
    4eb4:	00000013          	addi	x0,x0,0
    4eb8:	00000013          	addi	x0,x0,0
    4ebc:	00000013          	addi	x0,x0,0
    4ec0:	0001b097          	auipc	x1,0x1b
    4ec4:	344080e7          	jalr	x1,836(x1) # 20204 <rvmodel_io_write_str>
    4ec8:	00000013          	addi	x0,x0,0
    4ecc:	00000013          	addi	x0,x0,0
    4ed0:	00000013          	addi	x0,x0,0
    4ed4:	00000013          	addi	x0,x0,0
    4ed8:	00000013          	addi	x0,x0,0
    4edc:	00000013          	addi	x0,x0,0
    4ee0:	0000b517          	auipc	x10,0xb
    4ee4:	48c50513          	addi	x10,x10,1164 # 1036c <expvalstr>
    4ee8:	00000013          	addi	x0,x0,0
    4eec:	00000013          	addi	x0,x0,0
    4ef0:	00000013          	addi	x0,x0,0
    4ef4:	00000013          	addi	x0,x0,0
    4ef8:	00000013          	addi	x0,x0,0
    4efc:	00000013          	addi	x0,x0,0
    4f00:	0001b097          	auipc	x1,0x1b
    4f04:	304080e7          	jalr	x1,772(x1) # 20204 <rvmodel_io_write_str>
    4f08:	0000a517          	auipc	x10,0xa
    4f0c:	26852503          	lw	x10,616(x10) # f170 <begin_failure_scratch>
    4f10:	00100593          	addi	x11,x0,1
    4f14:	00b51c63          	bne	x10,x11,4f2c <failedtest_report_expval_not_fp>
    4f18:	0000a517          	auipc	x10,0xa
    4f1c:	37052503          	lw	x10,880(x10) # f288 <expected_value>
    4f20:	02000593          	addi	x11,x0,32
    4f24:	795000ef          	jal	x1,5eb8 <failedtest_hex_to_str>
    4f28:	0140006f          	jal	x0,4f3c <failedtest_report_expval_done>

00004f2c <failedtest_report_expval_not_fp>:
    4f2c:	0000a517          	auipc	x10,0xa
    4f30:	35c52503          	lw	x10,860(x10) # f288 <expected_value>
    4f34:	02000593          	addi	x11,x0,32
    4f38:	781000ef          	jal	x1,5eb8 <failedtest_hex_to_str>

00004f3c <failedtest_report_expval_done>:
    4f3c:	00000013          	addi	x0,x0,0
    4f40:	0000a517          	auipc	x10,0xa
    4f44:	3b850513          	addi	x10,x10,952 # f2f8 <ascii_buffer>
    4f48:	00000013          	addi	x0,x0,0
    4f4c:	00000013          	addi	x0,x0,0
    4f50:	00000013          	addi	x0,x0,0
    4f54:	00000013          	addi	x0,x0,0
    4f58:	00000013          	addi	x0,x0,0
    4f5c:	00000013          	addi	x0,x0,0
    4f60:	0001b097          	auipc	x1,0x1b
    4f64:	2a4080e7          	jalr	x1,676(x1) # 20204 <rvmodel_io_write_str>
    4f68:	4fd0006f          	jal	x0,5c64 <failedtest_report_end>

00004f6c <failedtest_report_trap_detailed>:
    4f6c:	00000013          	addi	x0,x0,0
    4f70:	00000013          	addi	x0,x0,0
    4f74:	00000013          	addi	x0,x0,0
    4f78:	00000013          	addi	x0,x0,0
    4f7c:	00000013          	addi	x0,x0,0
    4f80:	0000b517          	auipc	x10,0xb
    4f84:	45050513          	addi	x10,x10,1104 # 103d0 <trap_diag_header_str>
    4f88:	00000013          	addi	x0,x0,0
    4f8c:	00000013          	addi	x0,x0,0
    4f90:	00000013          	addi	x0,x0,0
    4f94:	00000013          	addi	x0,x0,0
    4f98:	00000013          	addi	x0,x0,0
    4f9c:	00000013          	addi	x0,x0,0
    4fa0:	0001b097          	auipc	x1,0x1b
    4fa4:	264080e7          	jalr	x1,612(x1) # 20204 <rvmodel_io_write_str>
    4fa8:	00000013          	addi	x0,x0,0
    4fac:	00000013          	addi	x0,x0,0
    4fb0:	00000013          	addi	x0,x0,0
    4fb4:	00000013          	addi	x0,x0,0
    4fb8:	00000013          	addi	x0,x0,0
    4fbc:	00000013          	addi	x0,x0,0
    4fc0:	0000b517          	auipc	x10,0xb
    4fc4:	43c50513          	addi	x10,x10,1084 # 103fc <trap_diag_origstr_label>
    4fc8:	00000013          	addi	x0,x0,0
    4fcc:	00000013          	addi	x0,x0,0
    4fd0:	00000013          	addi	x0,x0,0
    4fd4:	00000013          	addi	x0,x0,0
    4fd8:	00000013          	addi	x0,x0,0
    4fdc:	00000013          	addi	x0,x0,0
    4fe0:	0001b097          	auipc	x1,0x1b
    4fe4:	224080e7          	jalr	x1,548(x1) # 20204 <rvmodel_io_write_str>
    4fe8:	0000a817          	auipc	x16,0xa
    4fec:	2e080813          	addi	x16,x16,736 # f2c8 <trap_diag_fail_str_ptr>
    4ff0:	00082503          	lw	x10,0(x16)
    4ff4:	0001b097          	auipc	x1,0x1b
    4ff8:	210080e7          	jalr	x1,528(x1) # 20204 <rvmodel_io_write_str>
    4ffc:	00000013          	addi	x0,x0,0
    5000:	0000b517          	auipc	x10,0xb
    5004:	8b150513          	addi	x10,x10,-1871 # f8b1 <newlinestr>
    5008:	00000013          	addi	x0,x0,0
    500c:	00000013          	addi	x0,x0,0
    5010:	00000013          	addi	x0,x0,0
    5014:	00000013          	addi	x0,x0,0
    5018:	00000013          	addi	x0,x0,0
    501c:	00000013          	addi	x0,x0,0
    5020:	0001b097          	auipc	x1,0x1b
    5024:	1e4080e7          	jalr	x1,484(x1) # 20204 <rvmodel_io_write_str>
    5028:	0000a417          	auipc	x8,0xa
    502c:	27842403          	lw	x8,632(x8) # f2a0 <trap_diag_subtype>
    5030:	00900493          	addi	x9,x0,9
    5034:	00940663          	beq	x8,x9,5040 <trap_report_offset_mismatch>
    5038:	2a040ce3          	beq	x8,x0,5af0 <trap_report_generic>
    503c:	3780006f          	jal	x0,53b4 <trap_report_field_mismatch>

00005040 <trap_report_offset_mismatch>:
    5040:	0000b517          	auipc	x10,0xb
    5044:	3cc50513          	addi	x10,x10,972 # 1040c <trap_diag_count_mismatch_str>
    5048:	00000013          	addi	x0,x0,0
    504c:	00000013          	addi	x0,x0,0
    5050:	00000013          	addi	x0,x0,0
    5054:	00000013          	addi	x0,x0,0
    5058:	00000013          	addi	x0,x0,0
    505c:	00000013          	addi	x0,x0,0
    5060:	0001b097          	auipc	x1,0x1b
    5064:	1a4080e7          	jalr	x1,420(x1) # 20204 <rvmodel_io_write_str>
    5068:	00000013          	addi	x0,x0,0
    506c:	00000013          	addi	x0,x0,0
    5070:	00000013          	addi	x0,x0,0
    5074:	00000013          	addi	x0,x0,0
    5078:	00000013          	addi	x0,x0,0
    507c:	00000013          	addi	x0,x0,0
    5080:	0000b517          	auipc	x10,0xb
    5084:	3ed50513          	addi	x10,x10,1005 # 1046d <trap_diag_expected_offset_str>
    5088:	00000013          	addi	x0,x0,0
    508c:	00000013          	addi	x0,x0,0
    5090:	00000013          	addi	x0,x0,0
    5094:	00000013          	addi	x0,x0,0
    5098:	00000013          	addi	x0,x0,0
    509c:	00000013          	addi	x0,x0,0
    50a0:	0001b097          	auipc	x1,0x1b
    50a4:	164080e7          	jalr	x1,356(x1) # 20204 <rvmodel_io_write_str>
    50a8:	0000a517          	auipc	x10,0xa
    50ac:	21852503          	lw	x10,536(x10) # f2c0 <trap_diag_expected_offset>
    50b0:	02000593          	addi	x11,x0,32
    50b4:	605000ef          	jal	x1,5eb8 <failedtest_hex_to_str>
    50b8:	00000013          	addi	x0,x0,0
    50bc:	00000013          	addi	x0,x0,0
    50c0:	0000a517          	auipc	x10,0xa
    50c4:	23850513          	addi	x10,x10,568 # f2f8 <ascii_buffer>
    50c8:	00000013          	addi	x0,x0,0
    50cc:	00000013          	addi	x0,x0,0
    50d0:	00000013          	addi	x0,x0,0
    50d4:	00000013          	addi	x0,x0,0
    50d8:	00000013          	addi	x0,x0,0
    50dc:	00000013          	addi	x0,x0,0
    50e0:	0001b097          	auipc	x1,0x1b
    50e4:	124080e7          	jalr	x1,292(x1) # 20204 <rvmodel_io_write_str>
    50e8:	00000013          	addi	x0,x0,0
    50ec:	00000013          	addi	x0,x0,0
    50f0:	00000013          	addi	x0,x0,0
    50f4:	00000013          	addi	x0,x0,0
    50f8:	00000013          	addi	x0,x0,0
    50fc:	00000013          	addi	x0,x0,0
    5100:	0000b517          	auipc	x10,0xb
    5104:	39450513          	addi	x10,x10,916 # 10494 <trap_diag_actual_offset_str>
    5108:	00000013          	addi	x0,x0,0
    510c:	00000013          	addi	x0,x0,0
    5110:	00000013          	addi	x0,x0,0
    5114:	00000013          	addi	x0,x0,0
    5118:	00000013          	addi	x0,x0,0
    511c:	00000013          	addi	x0,x0,0
    5120:	0001b097          	auipc	x1,0x1b
    5124:	0e4080e7          	jalr	x1,228(x1) # 20204 <rvmodel_io_write_str>
    5128:	0000a517          	auipc	x10,0xa
    512c:	19052503          	lw	x10,400(x10) # f2b8 <trap_diag_actual_offset>
    5130:	02000593          	addi	x11,x0,32
    5134:	585000ef          	jal	x1,5eb8 <failedtest_hex_to_str>
    5138:	00000013          	addi	x0,x0,0
    513c:	00000013          	addi	x0,x0,0
    5140:	0000a517          	auipc	x10,0xa
    5144:	1b850513          	addi	x10,x10,440 # f2f8 <ascii_buffer>
    5148:	00000013          	addi	x0,x0,0
    514c:	00000013          	addi	x0,x0,0
    5150:	00000013          	addi	x0,x0,0
    5154:	00000013          	addi	x0,x0,0
    5158:	00000013          	addi	x0,x0,0
    515c:	00000013          	addi	x0,x0,0
    5160:	0001b097          	auipc	x1,0x1b
    5164:	0a4080e7          	jalr	x1,164(x1) # 20204 <rvmodel_io_write_str>
    5168:	0000a317          	auipc	x6,0xa
    516c:	15032303          	lw	x6,336(x6) # f2b8 <trap_diag_actual_offset>
    5170:	0000a397          	auipc	x7,0xa
    5174:	1503a383          	lw	x7,336(x7) # f2c0 <trap_diag_expected_offset>
    5178:	10734e63          	blt	x6,x7,5294 <trap_report_missing_traps>

0000517c <trap_report_extra_traps>:
    517c:	00000013          	addi	x0,x0,0
    5180:	0000b517          	auipc	x10,0xb
    5184:	33b50513          	addi	x10,x10,827 # 104bb <trap_diag_extra_traps_str>
    5188:	00000013          	addi	x0,x0,0
    518c:	00000013          	addi	x0,x0,0
    5190:	00000013          	addi	x0,x0,0
    5194:	00000013          	addi	x0,x0,0
    5198:	00000013          	addi	x0,x0,0
    519c:	00000013          	addi	x0,x0,0
    51a0:	0001b097          	auipc	x1,0x1b
    51a4:	064080e7          	jalr	x1,100(x1) # 20204 <rvmodel_io_write_str>
    51a8:	0000a317          	auipc	x6,0xa
    51ac:	11032303          	lw	x6,272(x6) # f2b8 <trap_diag_actual_offset>
    51b0:	0000a397          	auipc	x7,0xa
    51b4:	1103a383          	lw	x7,272(x7) # f2c0 <trap_diag_expected_offset>
    51b8:	40730333          	sub	x6,x6,x7
    51bc:	00235313          	srli	x6,x6,0x2
    51c0:	0000b517          	auipc	x10,0xb
    51c4:	38050513          	addi	x10,x10,896 # 10540 <trap_diag_extra_bytes_str>
    51c8:	00000013          	addi	x0,x0,0
    51cc:	00000013          	addi	x0,x0,0
    51d0:	00000013          	addi	x0,x0,0
    51d4:	00000013          	addi	x0,x0,0
    51d8:	00000013          	addi	x0,x0,0
    51dc:	00000013          	addi	x0,x0,0
    51e0:	0001b097          	auipc	x1,0x1b
    51e4:	024080e7          	jalr	x1,36(x1) # 20204 <rvmodel_io_write_str>
    51e8:	0000a317          	auipc	x6,0xa
    51ec:	0d032303          	lw	x6,208(x6) # f2b8 <trap_diag_actual_offset>
    51f0:	0000a397          	auipc	x7,0xa
    51f4:	0d03a383          	lw	x7,208(x7) # f2c0 <trap_diag_expected_offset>
    51f8:	40730533          	sub	x10,x6,x7
    51fc:	02000593          	addi	x11,x0,32
    5200:	4b9000ef          	jal	x1,5eb8 <failedtest_hex_to_str>
    5204:	00000013          	addi	x0,x0,0
    5208:	00000013          	addi	x0,x0,0
    520c:	00000013          	addi	x0,x0,0
    5210:	00000013          	addi	x0,x0,0
    5214:	00000013          	addi	x0,x0,0
    5218:	00000013          	addi	x0,x0,0
    521c:	00000013          	addi	x0,x0,0
    5220:	0000a517          	auipc	x10,0xa
    5224:	0d850513          	addi	x10,x10,216 # f2f8 <ascii_buffer>
    5228:	00000013          	addi	x0,x0,0
    522c:	00000013          	addi	x0,x0,0
    5230:	00000013          	addi	x0,x0,0
    5234:	00000013          	addi	x0,x0,0
    5238:	00000013          	addi	x0,x0,0
    523c:	00000013          	addi	x0,x0,0
    5240:	0001b097          	auipc	x1,0x1b
    5244:	fc4080e7          	jalr	x1,-60(x1) # 20204 <rvmodel_io_write_str>
    5248:	00000013          	addi	x0,x0,0
    524c:	00000013          	addi	x0,x0,0
    5250:	00000013          	addi	x0,x0,0
    5254:	00000013          	addi	x0,x0,0
    5258:	00000013          	addi	x0,x0,0
    525c:	00000013          	addi	x0,x0,0
    5260:	0000b517          	auipc	x10,0xb
    5264:	30b50513          	addi	x10,x10,779 # 1056b <trap_diag_extra_hint_str>
    5268:	00000013          	addi	x0,x0,0
    526c:	00000013          	addi	x0,x0,0
    5270:	00000013          	addi	x0,x0,0
    5274:	00000013          	addi	x0,x0,0
    5278:	00000013          	addi	x0,x0,0
    527c:	00000013          	addi	x0,x0,0
    5280:	0001b097          	auipc	x1,0x1b
    5284:	f84080e7          	jalr	x1,-124(x1) # 20204 <rvmodel_io_write_str>
    5288:	00001097          	auipc	x1,0x1
    528c:	a28080e7          	jalr	x1,-1496(x1) # 5cb0 <failedtest_print_csr_context>
    5290:	1d50006f          	jal	x0,5c64 <failedtest_report_end>

00005294 <trap_report_missing_traps>:
    5294:	00000013          	addi	x0,x0,0
    5298:	00000013          	addi	x0,x0,0
    529c:	00000013          	addi	x0,x0,0
    52a0:	0000b517          	auipc	x10,0xb
    52a4:	25550513          	addi	x10,x10,597 # 104f5 <trap_diag_missing_traps_str>
    52a8:	00000013          	addi	x0,x0,0
    52ac:	00000013          	addi	x0,x0,0
    52b0:	00000013          	addi	x0,x0,0
    52b4:	00000013          	addi	x0,x0,0
    52b8:	00000013          	addi	x0,x0,0
    52bc:	00000013          	addi	x0,x0,0
    52c0:	0001b097          	auipc	x1,0x1b
    52c4:	f44080e7          	jalr	x1,-188(x1) # 20204 <rvmodel_io_write_str>
    52c8:	00000013          	addi	x0,x0,0
    52cc:	00000013          	addi	x0,x0,0
    52d0:	00000013          	addi	x0,x0,0
    52d4:	00000013          	addi	x0,x0,0
    52d8:	00000013          	addi	x0,x0,0
    52dc:	00000013          	addi	x0,x0,0
    52e0:	0000b517          	auipc	x10,0xb
    52e4:	26050513          	addi	x10,x10,608 # 10540 <trap_diag_extra_bytes_str>
    52e8:	00000013          	addi	x0,x0,0
    52ec:	00000013          	addi	x0,x0,0
    52f0:	00000013          	addi	x0,x0,0
    52f4:	00000013          	addi	x0,x0,0
    52f8:	00000013          	addi	x0,x0,0
    52fc:	00000013          	addi	x0,x0,0
    5300:	0001b097          	auipc	x1,0x1b
    5304:	f04080e7          	jalr	x1,-252(x1) # 20204 <rvmodel_io_write_str>
    5308:	0000a317          	auipc	x6,0xa
    530c:	fb832303          	lw	x6,-72(x6) # f2c0 <trap_diag_expected_offset>
    5310:	0000a397          	auipc	x7,0xa
    5314:	fa83a383          	lw	x7,-88(x7) # f2b8 <trap_diag_actual_offset>
    5318:	40730533          	sub	x10,x6,x7
    531c:	02000593          	addi	x11,x0,32
    5320:	399000ef          	jal	x1,5eb8 <failedtest_hex_to_str>
    5324:	00000013          	addi	x0,x0,0
    5328:	00000013          	addi	x0,x0,0
    532c:	00000013          	addi	x0,x0,0
    5330:	00000013          	addi	x0,x0,0
    5334:	00000013          	addi	x0,x0,0
    5338:	00000013          	addi	x0,x0,0
    533c:	00000013          	addi	x0,x0,0
    5340:	0000a517          	auipc	x10,0xa
    5344:	fb850513          	addi	x10,x10,-72 # f2f8 <ascii_buffer>
    5348:	00000013          	addi	x0,x0,0
    534c:	00000013          	addi	x0,x0,0
    5350:	00000013          	addi	x0,x0,0
    5354:	00000013          	addi	x0,x0,0
    5358:	00000013          	addi	x0,x0,0
    535c:	00000013          	addi	x0,x0,0
    5360:	0001b097          	auipc	x1,0x1b
    5364:	ea4080e7          	jalr	x1,-348(x1) # 20204 <rvmodel_io_write_str>
    5368:	00000013          	addi	x0,x0,0
    536c:	00000013          	addi	x0,x0,0
    5370:	00000013          	addi	x0,x0,0
    5374:	00000013          	addi	x0,x0,0
    5378:	00000013          	addi	x0,x0,0
    537c:	00000013          	addi	x0,x0,0
    5380:	0000b517          	auipc	x10,0xb
    5384:	2d350513          	addi	x10,x10,723 # 10653 <trap_diag_missing_hint_str>
    5388:	00000013          	addi	x0,x0,0
    538c:	00000013          	addi	x0,x0,0
    5390:	00000013          	addi	x0,x0,0
    5394:	00000013          	addi	x0,x0,0
    5398:	00000013          	addi	x0,x0,0
    539c:	00000013          	addi	x0,x0,0
    53a0:	0001b097          	auipc	x1,0x1b
    53a4:	e64080e7          	jalr	x1,-412(x1) # 20204 <rvmodel_io_write_str>
    53a8:	00001097          	auipc	x1,0x1
    53ac:	908080e7          	jalr	x1,-1784(x1) # 5cb0 <failedtest_print_csr_context>
    53b0:	0b50006f          	jal	x0,5c64 <failedtest_report_end>

000053b4 <trap_report_field_mismatch>:
    53b4:	00000013          	addi	x0,x0,0
    53b8:	00000013          	addi	x0,x0,0
    53bc:	00000013          	addi	x0,x0,0
    53c0:	0000b517          	auipc	x10,0xb
    53c4:	37a50513          	addi	x10,x10,890 # 1073a <trap_diag_handler_mode_str>
    53c8:	00000013          	addi	x0,x0,0
    53cc:	00000013          	addi	x0,x0,0
    53d0:	00000013          	addi	x0,x0,0
    53d4:	00000013          	addi	x0,x0,0
    53d8:	00000013          	addi	x0,x0,0
    53dc:	00000013          	addi	x0,x0,0
    53e0:	0001b097          	auipc	x1,0x1b
    53e4:	e24080e7          	jalr	x1,-476(x1) # 20204 <rvmodel_io_write_str>
    53e8:	0000a517          	auipc	x10,0xa
    53ec:	ebc52503          	lw	x10,-324(x10) # f2a4 <trap_diag_mode>
    53f0:	04050a63          	beq	x10,x0,5444 <trap_mode_m>
    53f4:	00100593          	addi	x11,x0,1
    53f8:	08b50663          	beq	x10,x11,5484 <trap_mode_s>
    53fc:	00200593          	addi	x11,x0,2
    5400:	0cb50263          	beq	x10,x11,54c4 <trap_mode_h>
    5404:	00300593          	addi	x11,x0,3
    5408:	0eb50e63          	beq	x10,x11,5504 <trap_mode_v>
    540c:	00000013          	addi	x0,x0,0
    5410:	00000013          	addi	x0,x0,0
    5414:	00000013          	addi	x0,x0,0
    5418:	00000013          	addi	x0,x0,0
    541c:	00000013          	addi	x0,x0,0
    5420:	0000b517          	auipc	x10,0xb
    5424:	35650513          	addi	x10,x10,854 # 10776 <trap_diag_mode_unknown_str>
    5428:	00000013          	addi	x0,x0,0
    542c:	00000013          	addi	x0,x0,0
    5430:	00000013          	addi	x0,x0,0
    5434:	00000013          	addi	x0,x0,0
    5438:	00000013          	addi	x0,x0,0
    543c:	00000013          	addi	x0,x0,0
    5440:	1000006f          	jal	x0,5540 <trap_mode_print>

00005444 <trap_mode_m>:
    5444:	00000013          	addi	x0,x0,0
    5448:	00000013          	addi	x0,x0,0
    544c:	00000013          	addi	x0,x0,0
    5450:	00000013          	addi	x0,x0,0
    5454:	00000013          	addi	x0,x0,0
    5458:	00000013          	addi	x0,x0,0
    545c:	00000013          	addi	x0,x0,0
    5460:	0000b517          	auipc	x10,0xb
    5464:	2f450513          	addi	x10,x10,756 # 10754 <trap_diag_mode_m_str>
    5468:	00000013          	addi	x0,x0,0
    546c:	00000013          	addi	x0,x0,0
    5470:	00000013          	addi	x0,x0,0
    5474:	00000013          	addi	x0,x0,0
    5478:	00000013          	addi	x0,x0,0
    547c:	00000013          	addi	x0,x0,0
    5480:	0c00006f          	jal	x0,5540 <trap_mode_print>

00005484 <trap_mode_s>:
    5484:	00000013          	addi	x0,x0,0
    5488:	00000013          	addi	x0,x0,0
    548c:	00000013          	addi	x0,x0,0
    5490:	00000013          	addi	x0,x0,0
    5494:	00000013          	addi	x0,x0,0
    5498:	00000013          	addi	x0,x0,0
    549c:	00000013          	addi	x0,x0,0
    54a0:	0000b517          	auipc	x10,0xb
    54a4:	2bc50513          	addi	x10,x10,700 # 1075c <trap_diag_mode_s_str>
    54a8:	00000013          	addi	x0,x0,0
    54ac:	00000013          	addi	x0,x0,0
    54b0:	00000013          	addi	x0,x0,0
    54b4:	00000013          	addi	x0,x0,0
    54b8:	00000013          	addi	x0,x0,0
    54bc:	00000013          	addi	x0,x0,0
    54c0:	0800006f          	jal	x0,5540 <trap_mode_print>

000054c4 <trap_mode_h>:
    54c4:	00000013          	addi	x0,x0,0
    54c8:	00000013          	addi	x0,x0,0
    54cc:	00000013          	addi	x0,x0,0
    54d0:	00000013          	addi	x0,x0,0
    54d4:	00000013          	addi	x0,x0,0
    54d8:	00000013          	addi	x0,x0,0
    54dc:	00000013          	addi	x0,x0,0
    54e0:	0000b517          	auipc	x10,0xb
    54e4:	28450513          	addi	x10,x10,644 # 10764 <trap_diag_mode_hs_str>
    54e8:	00000013          	addi	x0,x0,0
    54ec:	00000013          	addi	x0,x0,0
    54f0:	00000013          	addi	x0,x0,0
    54f4:	00000013          	addi	x0,x0,0
    54f8:	00000013          	addi	x0,x0,0
    54fc:	00000013          	addi	x0,x0,0
    5500:	0400006f          	jal	x0,5540 <trap_mode_print>

00005504 <trap_mode_v>:
    5504:	00000013          	addi	x0,x0,0
    5508:	00000013          	addi	x0,x0,0
    550c:	00000013          	addi	x0,x0,0
    5510:	00000013          	addi	x0,x0,0
    5514:	00000013          	addi	x0,x0,0
    5518:	00000013          	addi	x0,x0,0
    551c:	00000013          	addi	x0,x0,0
    5520:	0000b517          	auipc	x10,0xb
    5524:	24d50513          	addi	x10,x10,589 # 1076d <trap_diag_mode_vs_str>
    5528:	00000013          	addi	x0,x0,0
    552c:	00000013          	addi	x0,x0,0
    5530:	00000013          	addi	x0,x0,0
    5534:	00000013          	addi	x0,x0,0
    5538:	00000013          	addi	x0,x0,0
    553c:	00000013          	addi	x0,x0,0

00005540 <trap_mode_print>:
    5540:	0001b097          	auipc	x1,0x1b
    5544:	cc4080e7          	jalr	x1,-828(x1) # 20204 <rvmodel_io_write_str>
    5548:	00000013          	addi	x0,x0,0
    554c:	00000013          	addi	x0,x0,0
    5550:	00000013          	addi	x0,x0,0
    5554:	00000013          	addi	x0,x0,0
    5558:	00000013          	addi	x0,x0,0
    555c:	00000013          	addi	x0,x0,0
    5560:	0000b517          	auipc	x10,0xb
    5564:	21f50513          	addi	x10,x10,543 # 1077f <trap_diag_field_str>
    5568:	00000013          	addi	x0,x0,0
    556c:	00000013          	addi	x0,x0,0
    5570:	00000013          	addi	x0,x0,0
    5574:	00000013          	addi	x0,x0,0
    5578:	00000013          	addi	x0,x0,0
    557c:	00000013          	addi	x0,x0,0
    5580:	0001b097          	auipc	x1,0x1b
    5584:	c84080e7          	jalr	x1,-892(x1) # 20204 <rvmodel_io_write_str>
    5588:	0000a517          	auipc	x10,0xa
    558c:	d1852503          	lw	x10,-744(x10) # f2a0 <trap_diag_subtype>
    5590:	00100593          	addi	x11,x0,1
    5594:	06b50863          	beq	x10,x11,5604 <trap_field_vect>
    5598:	00200593          	addi	x11,x0,2
    559c:	0ab50463          	beq	x10,x11,5644 <trap_field_cause>
    55a0:	00300593          	addi	x11,x0,3
    55a4:	0eb50063          	beq	x10,x11,5684 <trap_field_epc>
    55a8:	00400593          	addi	x11,x0,4
    55ac:	10b50c63          	beq	x10,x11,56c4 <trap_field_tval>
    55b0:	00500593          	addi	x11,x0,5
    55b4:	14b50863          	beq	x10,x11,5704 <trap_field_ip>
    55b8:	00600593          	addi	x11,x0,6
    55bc:	18b50463          	beq	x10,x11,5744 <trap_field_tval2>
    55c0:	00700593          	addi	x11,x0,7
    55c4:	1cb50063          	beq	x10,x11,5784 <trap_field_tinst>
    55c8:	00800593          	addi	x11,x0,8
    55cc:	1eb50c63          	beq	x10,x11,57c4 <trap_field_intid>
    55d0:	00000013          	addi	x0,x0,0
    55d4:	00000013          	addi	x0,x0,0
    55d8:	00000013          	addi	x0,x0,0
    55dc:	00000013          	addi	x0,x0,0
    55e0:	0000b517          	auipc	x10,0xb
    55e4:	2f650513          	addi	x10,x10,758 # 108d6 <trap_diag_field_unknown_str>
    55e8:	00000013          	addi	x0,x0,0
    55ec:	00000013          	addi	x0,x0,0
    55f0:	00000013          	addi	x0,x0,0
    55f4:	00000013          	addi	x0,x0,0
    55f8:	00000013          	addi	x0,x0,0
    55fc:	00000013          	addi	x0,x0,0
    5600:	2000006f          	jal	x0,5800 <trap_field_print>

00005604 <trap_field_vect>:
    5604:	00000013          	addi	x0,x0,0
    5608:	00000013          	addi	x0,x0,0
    560c:	00000013          	addi	x0,x0,0
    5610:	00000013          	addi	x0,x0,0
    5614:	00000013          	addi	x0,x0,0
    5618:	00000013          	addi	x0,x0,0
    561c:	00000013          	addi	x0,x0,0
    5620:	0000b517          	auipc	x10,0xb
    5624:	17950513          	addi	x10,x10,377 # 10799 <trap_diag_field_vect_str>
    5628:	00000013          	addi	x0,x0,0
    562c:	00000013          	addi	x0,x0,0
    5630:	00000013          	addi	x0,x0,0
    5634:	00000013          	addi	x0,x0,0
    5638:	00000013          	addi	x0,x0,0
    563c:	00000013          	addi	x0,x0,0
    5640:	1c00006f          	jal	x0,5800 <trap_field_print>

00005644 <trap_field_cause>:
    5644:	00000013          	addi	x0,x0,0
    5648:	00000013          	addi	x0,x0,0
    564c:	00000013          	addi	x0,x0,0
    5650:	00000013          	addi	x0,x0,0
    5654:	00000013          	addi	x0,x0,0
    5658:	00000013          	addi	x0,x0,0
    565c:	00000013          	addi	x0,x0,0
    5660:	0000b517          	auipc	x10,0xb
    5664:	16a50513          	addi	x10,x10,362 # 107ca <trap_diag_field_cause_str>
    5668:	00000013          	addi	x0,x0,0
    566c:	00000013          	addi	x0,x0,0
    5670:	00000013          	addi	x0,x0,0
    5674:	00000013          	addi	x0,x0,0
    5678:	00000013          	addi	x0,x0,0
    567c:	00000013          	addi	x0,x0,0
    5680:	1800006f          	jal	x0,5800 <trap_field_print>

00005684 <trap_field_epc>:
    5684:	00000013          	addi	x0,x0,0
    5688:	00000013          	addi	x0,x0,0
    568c:	00000013          	addi	x0,x0,0
    5690:	00000013          	addi	x0,x0,0
    5694:	00000013          	addi	x0,x0,0
    5698:	00000013          	addi	x0,x0,0
    569c:	00000013          	addi	x0,x0,0
    56a0:	0000b517          	auipc	x10,0xb
    56a4:	14a50513          	addi	x10,x10,330 # 107ea <trap_diag_field_epc_str>
    56a8:	00000013          	addi	x0,x0,0
    56ac:	00000013          	addi	x0,x0,0
    56b0:	00000013          	addi	x0,x0,0
    56b4:	00000013          	addi	x0,x0,0
    56b8:	00000013          	addi	x0,x0,0
    56bc:	00000013          	addi	x0,x0,0
    56c0:	1400006f          	jal	x0,5800 <trap_field_print>

000056c4 <trap_field_tval>:
    56c4:	00000013          	addi	x0,x0,0
    56c8:	00000013          	addi	x0,x0,0
    56cc:	00000013          	addi	x0,x0,0
    56d0:	00000013          	addi	x0,x0,0
    56d4:	00000013          	addi	x0,x0,0
    56d8:	00000013          	addi	x0,x0,0
    56dc:	00000013          	addi	x0,x0,0
    56e0:	0000b517          	auipc	x10,0xb
    56e4:	12850513          	addi	x10,x10,296 # 10808 <trap_diag_field_tval_str>
    56e8:	00000013          	addi	x0,x0,0
    56ec:	00000013          	addi	x0,x0,0
    56f0:	00000013          	addi	x0,x0,0
    56f4:	00000013          	addi	x0,x0,0
    56f8:	00000013          	addi	x0,x0,0
    56fc:	00000013          	addi	x0,x0,0
    5700:	1000006f          	jal	x0,5800 <trap_field_print>

00005704 <trap_field_ip>:
    5704:	00000013          	addi	x0,x0,0
    5708:	00000013          	addi	x0,x0,0
    570c:	00000013          	addi	x0,x0,0
    5710:	00000013          	addi	x0,x0,0
    5714:	00000013          	addi	x0,x0,0
    5718:	00000013          	addi	x0,x0,0
    571c:	00000013          	addi	x0,x0,0
    5720:	0000b517          	auipc	x10,0xb
    5724:	10750513          	addi	x10,x10,263 # 10827 <trap_diag_field_ip_str>
    5728:	00000013          	addi	x0,x0,0
    572c:	00000013          	addi	x0,x0,0
    5730:	00000013          	addi	x0,x0,0
    5734:	00000013          	addi	x0,x0,0
    5738:	00000013          	addi	x0,x0,0
    573c:	00000013          	addi	x0,x0,0
    5740:	0c00006f          	jal	x0,5800 <trap_field_print>

00005744 <trap_field_tval2>:
    5744:	00000013          	addi	x0,x0,0
    5748:	00000013          	addi	x0,x0,0
    574c:	00000013          	addi	x0,x0,0
    5750:	00000013          	addi	x0,x0,0
    5754:	00000013          	addi	x0,x0,0
    5758:	00000013          	addi	x0,x0,0
    575c:	00000013          	addi	x0,x0,0
    5760:	0000b517          	auipc	x10,0xb
    5764:	0ef50513          	addi	x10,x10,239 # 1084f <trap_diag_field_tval2_str>
    5768:	00000013          	addi	x0,x0,0
    576c:	00000013          	addi	x0,x0,0
    5770:	00000013          	addi	x0,x0,0
    5774:	00000013          	addi	x0,x0,0
    5778:	00000013          	addi	x0,x0,0
    577c:	00000013          	addi	x0,x0,0
    5780:	0800006f          	jal	x0,5800 <trap_field_print>

00005784 <trap_field_tinst>:
    5784:	00000013          	addi	x0,x0,0
    5788:	00000013          	addi	x0,x0,0
    578c:	00000013          	addi	x0,x0,0
    5790:	00000013          	addi	x0,x0,0
    5794:	00000013          	addi	x0,x0,0
    5798:	00000013          	addi	x0,x0,0
    579c:	00000013          	addi	x0,x0,0
    57a0:	0000b517          	auipc	x10,0xb
    57a4:	0db50513          	addi	x10,x10,219 # 1087b <trap_diag_field_tinst_str>
    57a8:	00000013          	addi	x0,x0,0
    57ac:	00000013          	addi	x0,x0,0
    57b0:	00000013          	addi	x0,x0,0
    57b4:	00000013          	addi	x0,x0,0
    57b8:	00000013          	addi	x0,x0,0
    57bc:	00000013          	addi	x0,x0,0
    57c0:	0400006f          	jal	x0,5800 <trap_field_print>

000057c4 <trap_field_intid>:
    57c4:	00000013          	addi	x0,x0,0
    57c8:	00000013          	addi	x0,x0,0
    57cc:	00000013          	addi	x0,x0,0
    57d0:	00000013          	addi	x0,x0,0
    57d4:	00000013          	addi	x0,x0,0
    57d8:	00000013          	addi	x0,x0,0
    57dc:	00000013          	addi	x0,x0,0
    57e0:	0000b517          	auipc	x10,0xb
    57e4:	0c750513          	addi	x10,x10,199 # 108a7 <trap_diag_field_intid_str>
    57e8:	00000013          	addi	x0,x0,0
    57ec:	00000013          	addi	x0,x0,0
    57f0:	00000013          	addi	x0,x0,0
    57f4:	00000013          	addi	x0,x0,0
    57f8:	00000013          	addi	x0,x0,0
    57fc:	00000013          	addi	x0,x0,0

00005800 <trap_field_print>:
    5800:	0001b097          	auipc	x1,0x1b
    5804:	a04080e7          	jalr	x1,-1532(x1) # 20204 <rvmodel_io_write_str>
    5808:	00000013          	addi	x0,x0,0
    580c:	00000013          	addi	x0,x0,0
    5810:	00000013          	addi	x0,x0,0
    5814:	00000013          	addi	x0,x0,0
    5818:	00000013          	addi	x0,x0,0
    581c:	00000013          	addi	x0,x0,0
    5820:	0000b517          	auipc	x10,0xb
    5824:	0c550513          	addi	x10,x10,197 # 108e5 <trap_diag_expected_str>
    5828:	00000013          	addi	x0,x0,0
    582c:	00000013          	addi	x0,x0,0
    5830:	00000013          	addi	x0,x0,0
    5834:	00000013          	addi	x0,x0,0
    5838:	00000013          	addi	x0,x0,0
    583c:	00000013          	addi	x0,x0,0
    5840:	0001b097          	auipc	x1,0x1b
    5844:	9c4080e7          	jalr	x1,-1596(x1) # 20204 <rvmodel_io_write_str>
    5848:	0000a517          	auipc	x10,0xa
    584c:	a6852503          	lw	x10,-1432(x10) # f2b0 <trap_diag_expected_value>
    5850:	02000593          	addi	x11,x0,32
    5854:	664000ef          	jal	x1,5eb8 <failedtest_hex_to_str>
    5858:	00000013          	addi	x0,x0,0
    585c:	00000013          	addi	x0,x0,0
    5860:	0000a517          	auipc	x10,0xa
    5864:	a9850513          	addi	x10,x10,-1384 # f2f8 <ascii_buffer>
    5868:	00000013          	addi	x0,x0,0
    586c:	00000013          	addi	x0,x0,0
    5870:	00000013          	addi	x0,x0,0
    5874:	00000013          	addi	x0,x0,0
    5878:	00000013          	addi	x0,x0,0
    587c:	00000013          	addi	x0,x0,0
    5880:	0001b097          	auipc	x1,0x1b
    5884:	984080e7          	jalr	x1,-1660(x1) # 20204 <rvmodel_io_write_str>
    5888:	00000013          	addi	x0,x0,0
    588c:	00000013          	addi	x0,x0,0
    5890:	00000013          	addi	x0,x0,0
    5894:	00000013          	addi	x0,x0,0
    5898:	00000013          	addi	x0,x0,0
    589c:	00000013          	addi	x0,x0,0
    58a0:	0000b517          	auipc	x10,0xb
    58a4:	05c50513          	addi	x10,x10,92 # 108fc <trap_diag_actual_str>
    58a8:	00000013          	addi	x0,x0,0
    58ac:	00000013          	addi	x0,x0,0
    58b0:	00000013          	addi	x0,x0,0
    58b4:	00000013          	addi	x0,x0,0
    58b8:	00000013          	addi	x0,x0,0
    58bc:	00000013          	addi	x0,x0,0
    58c0:	0001b097          	auipc	x1,0x1b
    58c4:	944080e7          	jalr	x1,-1724(x1) # 20204 <rvmodel_io_write_str>
    58c8:	0000a517          	auipc	x10,0xa
    58cc:	9e052503          	lw	x10,-1568(x10) # f2a8 <trap_diag_actual_value>
    58d0:	02000593          	addi	x11,x0,32
    58d4:	5e4000ef          	jal	x1,5eb8 <failedtest_hex_to_str>
    58d8:	00000013          	addi	x0,x0,0
    58dc:	00000013          	addi	x0,x0,0
    58e0:	0000a517          	auipc	x10,0xa
    58e4:	a1850513          	addi	x10,x10,-1512 # f2f8 <ascii_buffer>
    58e8:	00000013          	addi	x0,x0,0
    58ec:	00000013          	addi	x0,x0,0
    58f0:	00000013          	addi	x0,x0,0
    58f4:	00000013          	addi	x0,x0,0
    58f8:	00000013          	addi	x0,x0,0
    58fc:	00000013          	addi	x0,x0,0
    5900:	0001b097          	auipc	x1,0x1b
    5904:	904080e7          	jalr	x1,-1788(x1) # 20204 <rvmodel_io_write_str>
    5908:	0000a517          	auipc	x10,0xa
    590c:	99852503          	lw	x10,-1640(x10) # f2a0 <trap_diag_subtype>
    5910:	00200593          	addi	x11,x0,2
    5914:	08b51463          	bne	x10,x11,599c <trap_field_not_cause>
    5918:	00000013          	addi	x0,x0,0
    591c:	00000013          	addi	x0,x0,0
    5920:	0000b517          	auipc	x10,0xb
    5924:	ff350513          	addi	x10,x10,-13 # 10913 <trap_diag_expected_cause_name_str>
    5928:	00000013          	addi	x0,x0,0
    592c:	00000013          	addi	x0,x0,0
    5930:	00000013          	addi	x0,x0,0
    5934:	00000013          	addi	x0,x0,0
    5938:	00000013          	addi	x0,x0,0
    593c:	00000013          	addi	x0,x0,0
    5940:	0001b097          	auipc	x1,0x1b
    5944:	8c4080e7          	jalr	x1,-1852(x1) # 20204 <rvmodel_io_write_str>
    5948:	0000a517          	auipc	x10,0xa
    594c:	96852503          	lw	x10,-1688(x10) # f2b0 <trap_diag_expected_value>
    5950:	284000ef          	jal	x1,5bd4 <trap_cause_to_str>
    5954:	0001b097          	auipc	x1,0x1b
    5958:	8b0080e7          	jalr	x1,-1872(x1) # 20204 <rvmodel_io_write_str>
    595c:	00000013          	addi	x0,x0,0
    5960:	0000b517          	auipc	x10,0xb
    5964:	fca50513          	addi	x10,x10,-54 # 1092a <trap_diag_actual_cause_name_str>
    5968:	00000013          	addi	x0,x0,0
    596c:	00000013          	addi	x0,x0,0
    5970:	00000013          	addi	x0,x0,0
    5974:	00000013          	addi	x0,x0,0
    5978:	00000013          	addi	x0,x0,0
    597c:	00000013          	addi	x0,x0,0
    5980:	0001b097          	auipc	x1,0x1b
    5984:	884080e7          	jalr	x1,-1916(x1) # 20204 <rvmodel_io_write_str>
    5988:	0000a517          	auipc	x10,0xa
    598c:	92052503          	lw	x10,-1760(x10) # f2a8 <trap_diag_actual_value>
    5990:	244000ef          	jal	x1,5bd4 <trap_cause_to_str>
    5994:	0001b097          	auipc	x1,0x1b
    5998:	870080e7          	jalr	x1,-1936(x1) # 20204 <rvmodel_io_write_str>

0000599c <trap_field_not_cause>:
    599c:	00000097          	auipc	x1,0x0
    59a0:	314080e7          	jalr	x1,788(x1) # 5cb0 <failedtest_print_csr_context>
    59a4:	0000a517          	auipc	x10,0xa
    59a8:	8fc52503          	lw	x10,-1796(x10) # f2a0 <trap_diag_subtype>
    59ac:	00100593          	addi	x11,x0,1
    59b0:	02b51e63          	bne	x10,x11,59ec <trap_field_not_cause+0x50>
    59b4:	00000013          	addi	x0,x0,0
    59b8:	00000013          	addi	x0,x0,0
    59bc:	00000013          	addi	x0,x0,0
    59c0:	0000b517          	auipc	x10,0xb
    59c4:	fe050513          	addi	x10,x10,-32 # 109a0 <trap_diag_hint_vect_str>
    59c8:	00000013          	addi	x0,x0,0
    59cc:	00000013          	addi	x0,x0,0
    59d0:	00000013          	addi	x0,x0,0
    59d4:	00000013          	addi	x0,x0,0
    59d8:	00000013          	addi	x0,x0,0
    59dc:	00000013          	addi	x0,x0,0
    59e0:	0001b097          	auipc	x1,0x1b
    59e4:	824080e7          	jalr	x1,-2012(x1) # 20204 <rvmodel_io_write_str>
    59e8:	27c0006f          	jal	x0,5c64 <failedtest_report_end>
    59ec:	00200593          	addi	x11,x0,2
    59f0:	02b51e63          	bne	x10,x11,5a2c <trap_field_not_cause+0x90>
    59f4:	00000013          	addi	x0,x0,0
    59f8:	00000013          	addi	x0,x0,0
    59fc:	00000013          	addi	x0,x0,0
    5a00:	0000b517          	auipc	x10,0xb
    5a04:	07650513          	addi	x10,x10,118 # 10a76 <trap_diag_hint_cause_str>
    5a08:	00000013          	addi	x0,x0,0
    5a0c:	00000013          	addi	x0,x0,0
    5a10:	00000013          	addi	x0,x0,0
    5a14:	00000013          	addi	x0,x0,0
    5a18:	00000013          	addi	x0,x0,0
    5a1c:	00000013          	addi	x0,x0,0
    5a20:	0001a097          	auipc	x1,0x1a
    5a24:	7e4080e7          	jalr	x1,2020(x1) # 20204 <rvmodel_io_write_str>
    5a28:	23c0006f          	jal	x0,5c64 <failedtest_report_end>
    5a2c:	00300593          	addi	x11,x0,3
    5a30:	02b51e63          	bne	x10,x11,5a6c <trap_field_not_cause+0xd0>
    5a34:	00000013          	addi	x0,x0,0
    5a38:	00000013          	addi	x0,x0,0
    5a3c:	00000013          	addi	x0,x0,0
    5a40:	0000b517          	auipc	x10,0xb
    5a44:	12950513          	addi	x10,x10,297 # 10b69 <trap_diag_hint_epc_str>
    5a48:	00000013          	addi	x0,x0,0
    5a4c:	00000013          	addi	x0,x0,0
    5a50:	00000013          	addi	x0,x0,0
    5a54:	00000013          	addi	x0,x0,0
    5a58:	00000013          	addi	x0,x0,0
    5a5c:	00000013          	addi	x0,x0,0
    5a60:	0001a097          	auipc	x1,0x1a
    5a64:	7a4080e7          	jalr	x1,1956(x1) # 20204 <rvmodel_io_write_str>
    5a68:	1fc0006f          	jal	x0,5c64 <failedtest_report_end>
    5a6c:	00400593          	addi	x11,x0,4
    5a70:	02b51e63          	bne	x10,x11,5aac <trap_field_not_cause+0x110>
    5a74:	00000013          	addi	x0,x0,0
    5a78:	00000013          	addi	x0,x0,0
    5a7c:	00000013          	addi	x0,x0,0
    5a80:	0000b517          	auipc	x10,0xb
    5a84:	1e450513          	addi	x10,x10,484 # 10c64 <trap_diag_hint_tval_str>
    5a88:	00000013          	addi	x0,x0,0
    5a8c:	00000013          	addi	x0,x0,0
    5a90:	00000013          	addi	x0,x0,0
    5a94:	00000013          	addi	x0,x0,0
    5a98:	00000013          	addi	x0,x0,0
    5a9c:	00000013          	addi	x0,x0,0
    5aa0:	0001a097          	auipc	x1,0x1a
    5aa4:	764080e7          	jalr	x1,1892(x1) # 20204 <rvmodel_io_write_str>
    5aa8:	1bc0006f          	jal	x0,5c64 <failedtest_report_end>
    5aac:	00500593          	addi	x11,x0,5
    5ab0:	02b51e63          	bne	x10,x11,5aec <trap_field_not_cause+0x150>
    5ab4:	00000013          	addi	x0,x0,0
    5ab8:	00000013          	addi	x0,x0,0
    5abc:	00000013          	addi	x0,x0,0
    5ac0:	0000b517          	auipc	x10,0xb
    5ac4:	28b50513          	addi	x10,x10,651 # 10d4b <trap_diag_hint_ip_str>
    5ac8:	00000013          	addi	x0,x0,0
    5acc:	00000013          	addi	x0,x0,0
    5ad0:	00000013          	addi	x0,x0,0
    5ad4:	00000013          	addi	x0,x0,0
    5ad8:	00000013          	addi	x0,x0,0
    5adc:	00000013          	addi	x0,x0,0
    5ae0:	0001a097          	auipc	x1,0x1a
    5ae4:	724080e7          	jalr	x1,1828(x1) # 20204 <rvmodel_io_write_str>
    5ae8:	17c0006f          	jal	x0,5c64 <failedtest_report_end>
    5aec:	1780006f          	jal	x0,5c64 <failedtest_report_end>

00005af0 <trap_report_generic>:
    5af0:	00000013          	addi	x0,x0,0
    5af4:	00000013          	addi	x0,x0,0
    5af8:	00000013          	addi	x0,x0,0
    5afc:	00000013          	addi	x0,x0,0
    5b00:	0000b517          	auipc	x10,0xb
    5b04:	e5850513          	addi	x10,x10,-424 # 10958 <trap_diag_generic_str>
    5b08:	00000013          	addi	x0,x0,0
    5b0c:	00000013          	addi	x0,x0,0
    5b10:	00000013          	addi	x0,x0,0
    5b14:	00000013          	addi	x0,x0,0
    5b18:	00000013          	addi	x0,x0,0
    5b1c:	00000013          	addi	x0,x0,0
    5b20:	0001a097          	auipc	x1,0x1a
    5b24:	6e4080e7          	jalr	x1,1764(x1) # 20204 <rvmodel_io_write_str>
    5b28:	00009617          	auipc	x12,0x9
    5b2c:	7b062603          	lw	x12,1968(x12) # f2d8 <saved_mepc>
    5b30:	00000013          	addi	x0,x0,0
    5b34:	00000013          	addi	x0,x0,0
    5b38:	00000013          	addi	x0,x0,0
    5b3c:	00000013          	addi	x0,x0,0
    5b40:	0000a517          	auipc	x10,0xa
    5b44:	dfb50513          	addi	x10,x10,-517 # f93b <xepcinstrstr>
    5b48:	00000013          	addi	x0,x0,0
    5b4c:	00000013          	addi	x0,x0,0
    5b50:	00000013          	addi	x0,x0,0
    5b54:	00000013          	addi	x0,x0,0
    5b58:	00000013          	addi	x0,x0,0
    5b5c:	00000013          	addi	x0,x0,0
    5b60:	0001a097          	auipc	x1,0x1a
    5b64:	6a4080e7          	jalr	x1,1700(x1) # 20204 <rvmodel_io_write_str>
    5b68:	00065503          	lhu	x10,0(x12)
    5b6c:	01000593          	addi	x11,x0,16
    5b70:	00357413          	andi	x8,x10,3
    5b74:	00300493          	addi	x9,x0,3
    5b78:	00941a63          	bne	x8,x9,5b8c <trap_report_generic+0x9c>
    5b7c:	00265403          	lhu	x8,2(x12)
    5b80:	01041413          	slli	x8,x8,0x10
    5b84:	00856533          	or	x10,x10,x8
    5b88:	02000593          	addi	x11,x0,32
    5b8c:	32c000ef          	jal	x1,5eb8 <failedtest_hex_to_str>
    5b90:	00000013          	addi	x0,x0,0
    5b94:	00000013          	addi	x0,x0,0
    5b98:	00000013          	addi	x0,x0,0
    5b9c:	00000013          	addi	x0,x0,0
    5ba0:	00009517          	auipc	x10,0x9
    5ba4:	75850513          	addi	x10,x10,1880 # f2f8 <ascii_buffer>
    5ba8:	00000013          	addi	x0,x0,0
    5bac:	00000013          	addi	x0,x0,0
    5bb0:	00000013          	addi	x0,x0,0
    5bb4:	00000013          	addi	x0,x0,0
    5bb8:	00000013          	addi	x0,x0,0
    5bbc:	00000013          	addi	x0,x0,0
    5bc0:	0001a097          	auipc	x1,0x1a
    5bc4:	644080e7          	jalr	x1,1604(x1) # 20204 <rvmodel_io_write_str>
    5bc8:	00000097          	auipc	x1,0x0
    5bcc:	0e8080e7          	jalr	x1,232(x1) # 5cb0 <failedtest_print_csr_context>
    5bd0:	0940006f          	jal	x0,5c64 <failedtest_report_end>

00005bd4 <trap_cause_to_str>:
    5bd4:	02054263          	blt	x10,x0,5bf8 <trap_cause_interrupt>

00005bd8 <trap_cause_exception>:
    5bd8:	01800593          	addi	x11,x0,24
    5bdc:	04b55463          	bge	x10,x11,5c24 <trap_cause_unknown>
    5be0:	00009597          	auipc	x11,0x9
    5be4:	74058593          	addi	x11,x11,1856 # f320 <end_failure_scratch>
    5be8:	00251613          	slli	x12,x10,0x2
    5bec:	00c585b3          	add	x11,x11,x12
    5bf0:	0005a503          	lw	x10,0(x11)
    5bf4:	00008067          	jalr	x0,0(x1)

00005bf8 <trap_cause_interrupt>:
    5bf8:	00100593          	addi	x11,x0,1
    5bfc:	01f59593          	slli	x11,x11,0x1f
    5c00:	00b54533          	xor	x10,x10,x11
    5c04:	01000593          	addi	x11,x0,16
    5c08:	00b55e63          	bge	x10,x11,5c24 <trap_cause_unknown>
    5c0c:	00009597          	auipc	x11,0x9
    5c10:	77458593          	addi	x11,x11,1908 # f380 <trap_int_name_tbl>
    5c14:	00251613          	slli	x12,x10,0x2
    5c18:	00c585b3          	add	x11,x11,x12
    5c1c:	0005a503          	lw	x10,0(x11)
    5c20:	00008067          	jalr	x0,0(x1)

00005c24 <trap_cause_unknown>:
    5c24:	00000013          	addi	x0,x0,0
    5c28:	00000013          	addi	x0,x0,0
    5c2c:	00000013          	addi	x0,x0,0
    5c30:	00000013          	addi	x0,x0,0
    5c34:	00000013          	addi	x0,x0,0
    5c38:	00000013          	addi	x0,x0,0
    5c3c:	00000013          	addi	x0,x0,0
    5c40:	0000a517          	auipc	x10,0xa
    5c44:	b7e50513          	addi	x10,x10,-1154 # f7be <trap_cause_unknown_str>
    5c48:	00000013          	addi	x0,x0,0
    5c4c:	00000013          	addi	x0,x0,0
    5c50:	00000013          	addi	x0,x0,0
    5c54:	00000013          	addi	x0,x0,0
    5c58:	00000013          	addi	x0,x0,0
    5c5c:	00000013          	addi	x0,x0,0
    5c60:	00008067          	jalr	x0,0(x1)

00005c64 <failedtest_report_end>:
    5c64:	00000013          	addi	x0,x0,0
    5c68:	00000013          	addi	x0,x0,0
    5c6c:	00000013          	addi	x0,x0,0
    5c70:	00000013          	addi	x0,x0,0
    5c74:	00000013          	addi	x0,x0,0
    5c78:	00000013          	addi	x0,x0,0
    5c7c:	00000013          	addi	x0,x0,0
    5c80:	0000a517          	auipc	x10,0xa
    5c84:	70350513          	addi	x10,x10,1795 # 10383 <endstr>
    5c88:	00000013          	addi	x0,x0,0
    5c8c:	00000013          	addi	x0,x0,0
    5c90:	00000013          	addi	x0,x0,0
    5c94:	00000013          	addi	x0,x0,0
    5c98:	00000013          	addi	x0,x0,0
    5c9c:	00000013          	addi	x0,x0,0
    5ca0:	0001a097          	auipc	x1,0x1a
    5ca4:	564080e7          	jalr	x1,1380(x1) # 20204 <rvmodel_io_write_str>

00005ca8 <failedtest_terminate>:
    5ca8:	0001a097          	auipc	x1,0x1a
    5cac:	56c080e7          	jalr	x1,1388(x1) # 20214 <rvmodel_halt_fail>

00005cb0 <failedtest_print_csr_context>:
    5cb0:	00009617          	auipc	x12,0x9
    5cb4:	62060613          	addi	x12,x12,1568 # f2d0 <csr_context_ret_addr>
    5cb8:	00162023          	sw	x1,0(x12)
    5cbc:	00000013          	addi	x0,x0,0
    5cc0:	0000a517          	auipc	x10,0xa
    5cc4:	c9c50513          	addi	x10,x10,-868 # f95c <mepcstr>
    5cc8:	00000013          	addi	x0,x0,0
    5ccc:	00000013          	addi	x0,x0,0
    5cd0:	00000013          	addi	x0,x0,0
    5cd4:	00000013          	addi	x0,x0,0
    5cd8:	00000013          	addi	x0,x0,0
    5cdc:	00000013          	addi	x0,x0,0
    5ce0:	0001a097          	auipc	x1,0x1a
    5ce4:	524080e7          	jalr	x1,1316(x1) # 20204 <rvmodel_io_write_str>
    5ce8:	00009517          	auipc	x10,0x9
    5cec:	5f052503          	lw	x10,1520(x10) # f2d8 <saved_mepc>
    5cf0:	02000593          	addi	x11,x0,32
    5cf4:	1c4000ef          	jal	x1,5eb8 <failedtest_hex_to_str>
    5cf8:	00000013          	addi	x0,x0,0
    5cfc:	00000013          	addi	x0,x0,0
    5d00:	00009517          	auipc	x10,0x9
    5d04:	5f850513          	addi	x10,x10,1528 # f2f8 <ascii_buffer>
    5d08:	00000013          	addi	x0,x0,0
    5d0c:	00000013          	addi	x0,x0,0
    5d10:	00000013          	addi	x0,x0,0
    5d14:	00000013          	addi	x0,x0,0
    5d18:	00000013          	addi	x0,x0,0
    5d1c:	00000013          	addi	x0,x0,0
    5d20:	0001a097          	auipc	x1,0x1a
    5d24:	4e4080e7          	jalr	x1,1252(x1) # 20204 <rvmodel_io_write_str>
    5d28:	00000013          	addi	x0,x0,0
    5d2c:	00000013          	addi	x0,x0,0
    5d30:	00000013          	addi	x0,x0,0
    5d34:	00000013          	addi	x0,x0,0
    5d38:	00000013          	addi	x0,x0,0
    5d3c:	00000013          	addi	x0,x0,0
    5d40:	0000a517          	auipc	x10,0xa
    5d44:	c2c50513          	addi	x10,x10,-980 # f96c <mcausestr>
    5d48:	00000013          	addi	x0,x0,0
    5d4c:	00000013          	addi	x0,x0,0
    5d50:	00000013          	addi	x0,x0,0
    5d54:	00000013          	addi	x0,x0,0
    5d58:	00000013          	addi	x0,x0,0
    5d5c:	00000013          	addi	x0,x0,0
    5d60:	0001a097          	auipc	x1,0x1a
    5d64:	4a4080e7          	jalr	x1,1188(x1) # 20204 <rvmodel_io_write_str>
    5d68:	00009517          	auipc	x10,0x9
    5d6c:	57852503          	lw	x10,1400(x10) # f2e0 <saved_mcause>
    5d70:	02000593          	addi	x11,x0,32
    5d74:	144000ef          	jal	x1,5eb8 <failedtest_hex_to_str>
    5d78:	00000013          	addi	x0,x0,0
    5d7c:	00000013          	addi	x0,x0,0
    5d80:	00009517          	auipc	x10,0x9
    5d84:	57850513          	addi	x10,x10,1400 # f2f8 <ascii_buffer>
    5d88:	00000013          	addi	x0,x0,0
    5d8c:	00000013          	addi	x0,x0,0
    5d90:	00000013          	addi	x0,x0,0
    5d94:	00000013          	addi	x0,x0,0
    5d98:	00000013          	addi	x0,x0,0
    5d9c:	00000013          	addi	x0,x0,0
    5da0:	0001a097          	auipc	x1,0x1a
    5da4:	464080e7          	jalr	x1,1124(x1) # 20204 <rvmodel_io_write_str>
    5da8:	00000013          	addi	x0,x0,0
    5dac:	00000013          	addi	x0,x0,0
    5db0:	00000013          	addi	x0,x0,0
    5db4:	00000013          	addi	x0,x0,0
    5db8:	00000013          	addi	x0,x0,0
    5dbc:	00000013          	addi	x0,x0,0
    5dc0:	0000a517          	auipc	x10,0xa
    5dc4:	bbc50513          	addi	x10,x10,-1092 # f97c <mtvalstr>
    5dc8:	00000013          	addi	x0,x0,0
    5dcc:	00000013          	addi	x0,x0,0
    5dd0:	00000013          	addi	x0,x0,0
    5dd4:	00000013          	addi	x0,x0,0
    5dd8:	00000013          	addi	x0,x0,0
    5ddc:	00000013          	addi	x0,x0,0
    5de0:	0001a097          	auipc	x1,0x1a
    5de4:	424080e7          	jalr	x1,1060(x1) # 20204 <rvmodel_io_write_str>
    5de8:	00009517          	auipc	x10,0x9
    5dec:	50052503          	lw	x10,1280(x10) # f2e8 <saved_mtval>
    5df0:	02000593          	addi	x11,x0,32
    5df4:	0c4000ef          	jal	x1,5eb8 <failedtest_hex_to_str>
    5df8:	00000013          	addi	x0,x0,0
    5dfc:	00000013          	addi	x0,x0,0
    5e00:	00009517          	auipc	x10,0x9
    5e04:	4f850513          	addi	x10,x10,1272 # f2f8 <ascii_buffer>
    5e08:	00000013          	addi	x0,x0,0
    5e0c:	00000013          	addi	x0,x0,0
    5e10:	00000013          	addi	x0,x0,0
    5e14:	00000013          	addi	x0,x0,0
    5e18:	00000013          	addi	x0,x0,0
    5e1c:	00000013          	addi	x0,x0,0
    5e20:	0001a097          	auipc	x1,0x1a
    5e24:	3e4080e7          	jalr	x1,996(x1) # 20204 <rvmodel_io_write_str>
    5e28:	00000013          	addi	x0,x0,0
    5e2c:	00000013          	addi	x0,x0,0
    5e30:	00000013          	addi	x0,x0,0
    5e34:	00000013          	addi	x0,x0,0
    5e38:	00000013          	addi	x0,x0,0
    5e3c:	00000013          	addi	x0,x0,0
    5e40:	0000a517          	auipc	x10,0xa
    5e44:	b4c50513          	addi	x10,x10,-1204 # f98c <mstatusstr>
    5e48:	00000013          	addi	x0,x0,0
    5e4c:	00000013          	addi	x0,x0,0
    5e50:	00000013          	addi	x0,x0,0
    5e54:	00000013          	addi	x0,x0,0
    5e58:	00000013          	addi	x0,x0,0
    5e5c:	00000013          	addi	x0,x0,0
    5e60:	0001a097          	auipc	x1,0x1a
    5e64:	3a4080e7          	jalr	x1,932(x1) # 20204 <rvmodel_io_write_str>
    5e68:	00009517          	auipc	x10,0x9
    5e6c:	48852503          	lw	x10,1160(x10) # f2f0 <saved_mstatus>
    5e70:	02000593          	addi	x11,x0,32
    5e74:	044000ef          	jal	x1,5eb8 <failedtest_hex_to_str>
    5e78:	00000013          	addi	x0,x0,0
    5e7c:	00000013          	addi	x0,x0,0
    5e80:	00009517          	auipc	x10,0x9
    5e84:	47850513          	addi	x10,x10,1144 # f2f8 <ascii_buffer>
    5e88:	00000013          	addi	x0,x0,0
    5e8c:	00000013          	addi	x0,x0,0
    5e90:	00000013          	addi	x0,x0,0
    5e94:	00000013          	addi	x0,x0,0
    5e98:	00000013          	addi	x0,x0,0
    5e9c:	00000013          	addi	x0,x0,0
    5ea0:	0001a097          	auipc	x1,0x1a
    5ea4:	364080e7          	jalr	x1,868(x1) # 20204 <rvmodel_io_write_str>
    5ea8:	00009617          	auipc	x12,0x9
    5eac:	42860613          	addi	x12,x12,1064 # f2d0 <csr_context_ret_addr>
    5eb0:	00062083          	lw	x1,0(x12)
    5eb4:	00008067          	jalr	x0,0(x1)

00005eb8 <failedtest_hex_to_str>:
    5eb8:	00000013          	addi	x0,x0,0
    5ebc:	00000013          	addi	x0,x0,0
    5ec0:	00009617          	auipc	x12,0x9
    5ec4:	43860613          	addi	x12,x12,1080 # f2f8 <ascii_buffer>
    5ec8:	00000013          	addi	x0,x0,0
    5ecc:	00000013          	addi	x0,x0,0
    5ed0:	00000013          	addi	x0,x0,0
    5ed4:	00000013          	addi	x0,x0,0
    5ed8:	00000013          	addi	x0,x0,0
    5edc:	00000013          	addi	x0,x0,0
    5ee0:	03000693          	addi	x13,x0,48
    5ee4:	00d60023          	sb	x13,0(x12)
    5ee8:	07800693          	addi	x13,x0,120
    5eec:	00d600a3          	sb	x13,1(x12)
    5ef0:	00260613          	addi	x12,x12,2
    5ef4:	00058693          	addi	x13,x11,0

00005ef8 <failedtest_hex_to_str_loop>:
    5ef8:	ffc68693          	addi	x13,x13,-4
    5efc:	00d55733          	srl	x14,x10,x13
    5f00:	00f77713          	andi	x14,x14,15
    5f04:	00a00793          	addi	x15,x0,10
    5f08:	00f74663          	blt	x14,x15,5f14 <failedtest_hex_to_str_digit>
    5f0c:	05770713          	addi	x14,x14,87
    5f10:	0080006f          	jal	x0,5f18 <failedtest_hex_to_str_write>

00005f14 <failedtest_hex_to_str_digit>:
    5f14:	03070713          	addi	x14,x14,48

00005f18 <failedtest_hex_to_str_write>:
    5f18:	00e60023          	sb	x14,0(x12)
    5f1c:	00160613          	addi	x12,x12,1
    5f20:	fc069ce3          	bne	x13,x0,5ef8 <failedtest_hex_to_str_loop>
    5f24:	00a00693          	addi	x13,x0,10
    5f28:	00d60023          	sb	x13,0(x12)
    5f2c:	000600a3          	sb	x0,1(x12)
    5f30:	00008067          	jalr	x0,0(x1)

00005f34 <failedtest_dec_to_str>:
    5f34:	00a00693          	addi	x13,x0,10
    5f38:	02d54663          	blt	x10,x13,5f64 <failedtest_dec_to_str+0x30>
    5f3c:	ff650513          	addi	x10,x10,-10
    5f40:	03100713          	addi	x14,x0,49
    5f44:	00d54c63          	blt	x10,x13,5f5c <failedtest_dec_to_str+0x28>
    5f48:	ff650513          	addi	x10,x10,-10
    5f4c:	03200713          	addi	x14,x0,50
    5f50:	00d54663          	blt	x10,x13,5f5c <failedtest_dec_to_str+0x28>
    5f54:	ff650513          	addi	x10,x10,-10
    5f58:	03300713          	addi	x14,x0,51
    5f5c:	00e60023          	sb	x14,0(x12)
    5f60:	00160613          	addi	x12,x12,1
    5f64:	03050513          	addi	x10,x10,48
    5f68:	00a60023          	sb	x10,0(x12)
    5f6c:	00a00693          	addi	x13,x0,10
    5f70:	00d600a3          	sb	x13,1(x12)
    5f74:	00060123          	sb	x0,2(x12)
    5f78:	00008067          	jalr	x0,0(x1)
    5f7c:	00000013          	addi	x0,x0,0

Disassembly of section .text.rvmodel:

00020000 <rvmodel_boot>:
   20000:	feedc0b7          	lui	x1,0xfeedc
   20004:	ead08093          	addi	x1,x1,-339 # feedbead <absimm+0x8f911ba4>
   20008:	01909793          	slli	x15,x1,0x19
   2000c:	0070d113          	srli	x2,x1,0x7
   20010:	00f16133          	or	x2,x2,x15
   20014:	01911793          	slli	x15,x2,0x19
   20018:	00715193          	srli	x3,x2,0x7
   2001c:	00f1e1b3          	or	x3,x3,x15
   20020:	01919793          	slli	x15,x3,0x19
   20024:	0071d213          	srli	x4,x3,0x7
   20028:	00f26233          	or	x4,x4,x15
   2002c:	01921793          	slli	x15,x4,0x19
   20030:	00725293          	srli	x5,x4,0x7
   20034:	00f2e2b3          	or	x5,x5,x15
   20038:	01929793          	slli	x15,x5,0x19
   2003c:	0072d313          	srli	x6,x5,0x7
   20040:	00f36333          	or	x6,x6,x15
   20044:	01931793          	slli	x15,x6,0x19
   20048:	00735393          	srli	x7,x6,0x7
   2004c:	00f3e3b3          	or	x7,x7,x15
   20050:	01939793          	slli	x15,x7,0x19
   20054:	0073d413          	srli	x8,x7,0x7
   20058:	00f46433          	or	x8,x8,x15
   2005c:	01941793          	slli	x15,x8,0x19
   20060:	00745493          	srli	x9,x8,0x7
   20064:	00f4e4b3          	or	x9,x9,x15
   20068:	01949793          	slli	x15,x9,0x19
   2006c:	0074d513          	srli	x10,x9,0x7
   20070:	00f56533          	or	x10,x10,x15
   20074:	01951793          	slli	x15,x10,0x19
   20078:	00755593          	srli	x11,x10,0x7
   2007c:	00f5e5b3          	or	x11,x11,x15
   20080:	01959793          	slli	x15,x11,0x19
   20084:	0075d613          	srli	x12,x11,0x7
   20088:	00f66633          	or	x12,x12,x15
   2008c:	01961793          	slli	x15,x12,0x19
   20090:	00765693          	srli	x13,x12,0x7
   20094:	00f6e6b3          	or	x13,x13,x15
   20098:	01969793          	slli	x15,x13,0x19
   2009c:	0076d713          	srli	x14,x13,0x7
   200a0:	00f76733          	or	x14,x14,x15
   200a4:	fab807b7          	lui	x15,0xfab80
   200a8:	bb678793          	addi	x15,x15,-1098 # fab7fbb6 <absimm+0x8b5b58ad>
   200ac:	7d5c0837          	lui	x16,0x7d5c0
   200b0:	ddb80813          	addi	x16,x16,-549 # 7d5bfddb <absimm+0xdff5ad2>
   200b4:	01981793          	slli	x15,x16,0x19
   200b8:	00785893          	srli	x17,x16,0x7
   200bc:	00f8e8b3          	or	x17,x17,x15
   200c0:	01989793          	slli	x15,x17,0x19
   200c4:	0078d913          	srli	x18,x17,0x7
   200c8:	00f96933          	or	x18,x18,x15
   200cc:	01991793          	slli	x15,x18,0x19
   200d0:	00795993          	srli	x19,x18,0x7
   200d4:	00f9e9b3          	or	x19,x19,x15
   200d8:	01999793          	slli	x15,x19,0x19
   200dc:	0079da13          	srli	x20,x19,0x7
   200e0:	00fa6a33          	or	x20,x20,x15
   200e4:	019a1793          	slli	x15,x20,0x19
   200e8:	007a5a93          	srli	x21,x20,0x7
   200ec:	00faeab3          	or	x21,x21,x15
   200f0:	019a9793          	slli	x15,x21,0x19
   200f4:	007adb13          	srli	x22,x21,0x7
   200f8:	00fb6b33          	or	x22,x22,x15
   200fc:	019b1793          	slli	x15,x22,0x19
   20100:	007b5b93          	srli	x23,x22,0x7
   20104:	00fbebb3          	or	x23,x23,x15
   20108:	019b9793          	slli	x15,x23,0x19
   2010c:	007bdc13          	srli	x24,x23,0x7
   20110:	00fc6c33          	or	x24,x24,x15
   20114:	019c1793          	slli	x15,x24,0x19
   20118:	007c5c93          	srli	x25,x24,0x7
   2011c:	00fcecb3          	or	x25,x25,x15
   20120:	019c9793          	slli	x15,x25,0x19
   20124:	007cdd13          	srli	x26,x25,0x7
   20128:	00fd6d33          	or	x26,x26,x15
   2012c:	019d1793          	slli	x15,x26,0x19
   20130:	007d5d93          	srli	x27,x26,0x7
   20134:	00fdedb3          	or	x27,x27,x15
   20138:	019d9793          	slli	x15,x27,0x19
   2013c:	007dde13          	srli	x28,x27,0x7
   20140:	00fe6e33          	or	x28,x28,x15
   20144:	019e1793          	slli	x15,x28,0x19
   20148:	007e5e93          	srli	x29,x28,0x7
   2014c:	00feeeb3          	or	x29,x29,x15
   20150:	019e9793          	slli	x15,x29,0x19
   20154:	007edf13          	srli	x30,x29,0x7
   20158:	00ff6f33          	or	x30,x30,x15
   2015c:	019f1793          	slli	x15,x30,0x19
   20160:	007f5f93          	srli	x31,x30,0x7
   20164:	00ffefb3          	or	x31,x31,x15
   20168:	00000013          	addi	x0,x0,0
   2016c:	00000013          	addi	x0,x0,0
   20170:	00000013          	addi	x0,x0,0
   20174:	00000013          	addi	x0,x0,0
   20178:	00000013          	addi	x0,x0,0
   2017c:	00000013          	addi	x0,x0,0
   20180:	ffff1117          	auipc	x2,0xffff1
   20184:	cb010113          	addi	x2,x2,-848 # 10e30 <begin_signature>
   20188:	00000013          	addi	x0,x0,0
   2018c:	00000013          	addi	x0,x0,0
   20190:	00000013          	addi	x0,x0,0
   20194:	00000013          	addi	x0,x0,0
   20198:	00000013          	addi	x0,x0,0
   2019c:	00000013          	addi	x0,x0,0

000201a0 <canary_check>:
   201a0:	6f5ca337          	lui	x6,0x6f5ca
   201a4:	30930313          	addi	x6,x6,777 # 6f5ca309 <absimm>
   201a8:	00012203          	lw	x4,0(x2)
   201ac:	00620863          	beq	x4,x6,201bc <canary_check+0x1c>
   201b0:	b4ce42ef          	jal	x5,44fc <failedtest_x5_x4>
   201b4:	000201a0          	.word	0x000201a0
   201b8:	000103ac          	.word	0x000103ac
   201bc:	00410113          	addi	x2,x2,4
   201c0:	fffe8197          	auipc	x3,0xfffe8
   201c4:	f5018193          	addi	x3,x3,-176 # 8110 <rvtest_data_begin>
   201c8:	00000013          	addi	x0,x0,0
   201cc:	00000013          	addi	x0,x0,0
   201d0:	00000013          	addi	x0,x0,0
   201d4:	00000013          	addi	x0,x0,0
   201d8:	00000013          	addi	x0,x0,0
   201dc:	00000013          	addi	x0,x0,0
   201e0:	fffe0317          	auipc	x6,0xfffe0
   201e4:	e6030313          	addi	x6,x6,-416 # 40 <rvtest_code_begin>
   201e8:	00000013          	addi	x0,x0,0
   201ec:	00000013          	addi	x0,x0,0
   201f0:	00000013          	addi	x0,x0,0
   201f4:	00000013          	addi	x0,x0,0
   201f8:	00000013          	addi	x0,x0,0
   201fc:	00000013          	addi	x0,x0,0
   20200:	00030067          	jalr	x0,0(x6)

00020204 <rvmodel_io_write_str>:
   20204:	00008067          	jalr	x0,0(x1)

00020208 <rvmodel_halt_pass>:
   20208:	00000513          	addi	x10,x0,0
   2020c:	00000073          	ecall
   20210:	0000006f          	jal	x0,20210 <rvmodel_halt_pass+0x8>

00020214 <rvmodel_halt_fail>:
   20214:	00100513          	addi	x10,x0,1
   20218:	00000073          	ecall
   2021c:	0000006f          	jal	x0,2021c <rvmodel_halt_fail+0x8>
   20220:	00000013          	addi	x0,x0,0
   20224:	00000013          	addi	x0,x0,0
   20228:	00000013          	addi	x0,x0,0
   2022c:	00000013          	addi	x0,x0,0
   20230:	00000013          	addi	x0,x0,0
   20234:	00000013          	addi	x0,x0,0
   20238:	00000013          	addi	x0,x0,0
   2023c:	00000013          	addi	x0,x0,0
